ARM GAS  C:\Users\haske\AppData\Local\Temp\ccWSfRiA.s 			page 1


   1              		.syntax unified
   2              		.cpu cortex-m4
   3              		.eabi_attribute 27, 1
   4              		.fpu fpv4-sp-d16
   5              		.eabi_attribute 20, 1
   6              		.eabi_attribute 21, 1
   7              		.eabi_attribute 23, 3
   8              		.eabi_attribute 24, 1
   9              		.eabi_attribute 25, 1
  10              		.eabi_attribute 26, 1
  11              		.eabi_attribute 30, 1
  12              		.eabi_attribute 34, 1
  13              		.eabi_attribute 18, 4
  14              		.thumb
  15              		.syntax unified
  16              		.file	"user_interface.c"
  17              		.text
  18              	.Ltext0:
  19              		.cfi_sections	.debug_frame
  20              		.section	.text.ui_timer,"ax",%progbits
  21              		.align	2
  22              		.global	ui_timer
  23              		.thumb
  24              		.thumb_func
  25              		.type	ui_timer, %function
  26              	ui_timer:
  27              	.LFB966:
  28              		.file 1 "user_interface.c"
   1:user_interface.c **** /*******************************************************************************
   2:user_interface.c **** * File Name: user_interface.c
   3:user_interface.c **** *
   4:user_interface.c **** * Version: 1.10
   5:user_interface.c **** *
   6:user_interface.c **** * Description:
   7:user_interface.c **** *  This file contains user interface related source.
   8:user_interface.c **** *
   9:user_interface.c **** * Hardware Dependency:
  10:user_interface.c **** *  CY8CKIT-062 PSoC6 BLE Pioneer Kit
  11:user_interface.c **** *  CY8CPROTO-063-BLE PSoC 6 BLE Prototyping Kit
  12:user_interface.c **** *
  13:user_interface.c **** ********************************************************************************
  14:user_interface.c **** * Copyright (2018), Cypress Semiconductor Corporation.  All rights reserved.
  15:user_interface.c **** * You may use this file only in accordance with the license, terms, conditions,
  16:user_interface.c **** * disclaimers, and limitations in the end user license agreement accompanying
  17:user_interface.c **** * the software package with which this file was provided.
  18:user_interface.c **** *******************************************************************************/
  19:user_interface.c **** 
  20:user_interface.c **** #include <project.h>
  21:user_interface.c **** #include "user_interface.h"
  22:user_interface.c **** #include "st7735.h"
  23:user_interface.c **** #include "power.h"
  24:user_interface.c **** #include <stdio.h>
  25:user_interface.c **** #include "bq24298.h"
  26:user_interface.c **** #include <stdlib.h>
  27:user_interface.c **** 
  28:user_interface.c **** static int32_t ui_timeout = 0;
  29:user_interface.c **** #define UI_TIMER_INTERVAL_MS 10
ARM GAS  C:\Users\haske\AppData\Local\Temp\ccWSfRiA.s 			page 2


  30:user_interface.c **** 
  31:user_interface.c **** static int32 tens_timeout = -1;
  32:user_interface.c **** static int32 tens_interval_ms = 0;
  33:user_interface.c **** static int32 tens_dur_us = 0;
  34:user_interface.c **** 
  35:user_interface.c **** #define UI_STATE_INIT 0
  36:user_interface.c **** #define UI_STATE_DRAW_SPLASH_SCREEN 1
  37:user_interface.c **** #define UI_STATE_SPLASH_SCREEN_DELAY 2
  38:user_interface.c **** #define UI_STATE_IDLE 10
  39:user_interface.c **** static int ui_state = 0;
  40:user_interface.c **** 
  41:user_interface.c **** #define UI_MENU_MAX 10
  42:user_interface.c **** #define UI_MENU_MAIN 0
  43:user_interface.c **** #define UI_MENU_PRESET 1
  44:user_interface.c **** #define UI_MENU_TEMP 2
  45:user_interface.c **** #define UI_MENU_VIBE_AMP 3
  46:user_interface.c **** #define UI_MENU_VIBE_FREQ 4
  47:user_interface.c **** #define UI_MENU_TENS_FREQ 5
  48:user_interface.c **** #define UI_MENU_TENS_AMP 6
  49:user_interface.c **** #define UI_MENU_TENS_DUR 7
  50:user_interface.c **** #define UI_MENU_BLUETOOTH 8
  51:user_interface.c **** #define UI_MENU_DIAG 9
  52:user_interface.c **** 
  53:user_interface.c **** static int ui_menu = 0;
  54:user_interface.c **** static int ui_menu_state = 0;
  55:user_interface.c **** static int ui_menu_item[UI_MENU_MAX] = {0};
  56:user_interface.c **** 
  57:user_interface.c **** const char* const UI_TITLES[] = {"Main Menu", "Presets Menu", "Temperature Menu", "Vibration Amplit
  58:user_interface.c **** 
  59:user_interface.c **** const char* const UI_MAIN_MENU_ITEMS[] = {"Pre-sets", "Temper-ature", "Vibe-amp", "Vibe-freq", "TEN
  60:user_interface.c **** const char* const UI_PRESETS_MENU_ITEMS[] = {"Preset-1", "Preset-2", "Preset-3", "Preset-4", "Prese
  61:user_interface.c **** const char* const UI_TEMP_MENU_ITEMS[] = {"Cold-7", "Cold-6", "Cold-5", "Cold-4", "Cold-3", "Cold-2
  62:user_interface.c **** const char* const UI_VIBE_AMP_MENU_ITEMS[] = {"Off", "Amp-1", "Amp-2", "Amp-3", "Amp-4", "Amp-5", "
  63:user_interface.c **** const char* const UI_VIBE_FREQ_MENU_ITEMS[] = {"Freq-1", "Freq-2", "Freq-3", "Freq-4", "Freq-5", "F
  64:user_interface.c **** const char* const UI_TENS_FREQ_MENU_ITEMS[] = {"1 Hz", "2 Hz", "3 Hz", "4 Hz", "5 Hz", "6 Hz", "7 H
  65:user_interface.c **** const char* const UI_TENS_AMP_MENU_ITEMS[] = {"Off", "Amp-1", "Amp-2", "Amp-3", "Amp-4", "Amp-5", "
  66:user_interface.c **** const char* const UI_TENS_DUR_MENU_ITEMS[] = {"300", "400", "500", "600", "700", "800", "900", "100
  67:user_interface.c **** const char* const UI_BLUETOOTH_MENU_ITEMS[] = {"Pair"};
  68:user_interface.c **** const char* const UI_DIAG_MENU_ITEMS[] = {""};
  69:user_interface.c **** 
  70:user_interface.c **** 
  71:user_interface.c **** 
  72:user_interface.c **** const int UI_MENU_ITEMS_INIT[UI_MENU_MAX] = {1,             1,  0,  0,  1,  1,  0,  1,  0, 0};
  73:user_interface.c **** const int UI_MENU_ITEMS_MAX[UI_MENU_MAX] =  {UI_MENU_MAX-1, 10, 7,  10, 10, 10, 10, 10, 0, 0}; 
  74:user_interface.c **** const int UI_MENU_ITEMS_MIN[UI_MENU_MAX] =  {1,             1,  -7, 0,  1,  1,  0,  1,  0, 0};
  75:user_interface.c **** 
  76:user_interface.c **** static int btn_state[UI_NUM_BUTTONS] = {0};
  77:user_interface.c **** static int btn_events[UI_NUM_BUTTONS] = {0};
  78:user_interface.c **** static int btn_timeout[UI_NUM_BUTTONS] = {0};
  79:user_interface.c **** 
  80:user_interface.c **** static int vibe_freq = 0;
  81:user_interface.c **** static int vibe_amp = 0;
  82:user_interface.c **** static int vibe_timeout = 0;
  83:user_interface.c **** //static int vibe_on_time = 0;
  84:user_interface.c **** static int vibe_state = 0;
  85:user_interface.c **** #define VIBE_PERIOD_MS 100 
  86:user_interface.c **** 
ARM GAS  C:\Users\haske\AppData\Local\Temp\ccWSfRiA.s 			page 3


  87:user_interface.c **** 
  88:user_interface.c **** 
  89:user_interface.c **** 
  90:user_interface.c **** /*******************************************************************************
  91:user_interface.c **** * Function Name: void ui_timer()
  92:user_interface.c **** ********************************************************************************
  93:user_interface.c **** *
  94:user_interface.c **** * Summary:
  95:user_interface.c **** *   user interface timer called every 100ms right now
  96:user_interface.c **** *
  97:user_interface.c **** *******************************************************************************/
  98:user_interface.c **** void ui_timer( void ) {
  29              		.loc 1 98 0
  30              		.cfi_startproc
  31              		@ args = 0, pretend = 0, frame = 0
  32              		@ frame_needed = 0, uses_anonymous_args = 0
  33              		@ link register save eliminated.
  99:user_interface.c ****     int i;
 100:user_interface.c ****     
 101:user_interface.c ****     if (tens_timeout > 0) {
  34              		.loc 1 101 0
  35 0000 1C4B     		ldr	r3, .L8
  36 0002 1B68     		ldr	r3, [r3]
  37 0004 002B     		cmp	r3, #0
  38 0006 07DD     		ble	.L2
 102:user_interface.c ****         tens_timeout -= UI_TIMER_INTERVAL_MS;
  39              		.loc 1 102 0
  40 0008 0A3B     		subs	r3, r3, #10
  41 000a 1A4A     		ldr	r2, .L8
  42 000c 1360     		str	r3, [r2]
 103:user_interface.c ****         
 104:user_interface.c ****         if (tens_timeout < 0) {
  43              		.loc 1 104 0
  44 000e 002B     		cmp	r3, #0
  45 0010 02DA     		bge	.L2
 105:user_interface.c ****             tens_timeout = 0;
  46              		.loc 1 105 0
  47 0012 0022     		movs	r2, #0
  48 0014 174B     		ldr	r3, .L8
  49 0016 1A60     		str	r2, [r3]
  50              	.L2:
 106:user_interface.c ****         }
 107:user_interface.c ****     }
 108:user_interface.c ****     
 109:user_interface.c ****     if (ui_timeout > 0) {
  51              		.loc 1 109 0
  52 0018 174B     		ldr	r3, .L8+4
  53 001a 1B68     		ldr	r3, [r3]
  54 001c 002B     		cmp	r3, #0
  55 001e 07DD     		ble	.L3
 110:user_interface.c ****         ui_timeout -= UI_TIMER_INTERVAL_MS;
  56              		.loc 1 110 0
  57 0020 0A3B     		subs	r3, r3, #10
  58 0022 154A     		ldr	r2, .L8+4
  59 0024 1360     		str	r3, [r2]
 111:user_interface.c ****         
 112:user_interface.c ****         if (ui_timeout < 0) {
ARM GAS  C:\Users\haske\AppData\Local\Temp\ccWSfRiA.s 			page 4


  60              		.loc 1 112 0
  61 0026 002B     		cmp	r3, #0
  62 0028 02DA     		bge	.L3
 113:user_interface.c ****             ui_timeout = 0;
  63              		.loc 1 113 0
  64 002a 0022     		movs	r2, #0
  65 002c 124B     		ldr	r3, .L8+4
  66 002e 1A60     		str	r2, [r3]
  67              	.L3:
  98:user_interface.c ****     int i;
  68              		.loc 1 98 0 discriminator 1
  69 0030 0023     		movs	r3, #0
  70 0032 10E0     		b	.L4
  71              	.LVL0:
  72              	.L6:
 114:user_interface.c ****         }
 115:user_interface.c ****     }
 116:user_interface.c ****     
 117:user_interface.c ****     for (i=0;i<UI_NUM_BUTTONS;i++) {
 118:user_interface.c ****         if (btn_timeout[i] > 0) {
  73              		.loc 1 118 0
  74 0034 104A     		ldr	r2, .L8+4
  75 0036 02EB8302 		add	r2, r2, r3, lsl #2
  76 003a 5268     		ldr	r2, [r2, #4]
  77 003c 002A     		cmp	r2, #0
  78 003e 09DD     		ble	.L5
 119:user_interface.c ****             btn_timeout[i] -= UI_TIMER_INTERVAL_MS;
  79              		.loc 1 119 0
  80 0040 0A3A     		subs	r2, r2, #10
  81 0042 0D49     		ldr	r1, .L8+4
  82 0044 01EB8301 		add	r1, r1, r3, lsl #2
  83 0048 4A60     		str	r2, [r1, #4]
 120:user_interface.c ****             
 121:user_interface.c ****             if (btn_timeout[i] < 0) {
  84              		.loc 1 121 0
  85 004a 002A     		cmp	r2, #0
  86 004c 02DA     		bge	.L5
 122:user_interface.c ****                 btn_timeout[i] = 0;
  87              		.loc 1 122 0
  88 004e 0A46     		mov	r2, r1
  89 0050 0021     		movs	r1, #0
  90 0052 5160     		str	r1, [r2, #4]
  91              	.L5:
 117:user_interface.c ****         if (btn_timeout[i] > 0) {
  92              		.loc 1 117 0 discriminator 2
  93 0054 0133     		adds	r3, r3, #1
  94              	.LVL1:
  95              	.L4:
 117:user_interface.c ****         if (btn_timeout[i] > 0) {
  96              		.loc 1 117 0 is_stmt 0 discriminator 1
  97 0056 022B     		cmp	r3, #2
  98 0058 ECDD     		ble	.L6
 123:user_interface.c ****             }
 124:user_interface.c ****         }
 125:user_interface.c ****     }
 126:user_interface.c ****     
 127:user_interface.c ****     
ARM GAS  C:\Users\haske\AppData\Local\Temp\ccWSfRiA.s 			page 5


 128:user_interface.c ****     if (vibe_timeout > 0) {
  99              		.loc 1 128 0 is_stmt 1
 100 005a 074B     		ldr	r3, .L8+4
 101              	.LVL2:
 102 005c 1B69     		ldr	r3, [r3, #16]
 103 005e 002B     		cmp	r3, #0
 104 0060 07DD     		ble	.L1
 129:user_interface.c ****         vibe_timeout -= UI_TIMER_INTERVAL_MS;
 105              		.loc 1 129 0
 106 0062 0A3B     		subs	r3, r3, #10
 107 0064 044A     		ldr	r2, .L8+4
 108 0066 1361     		str	r3, [r2, #16]
 130:user_interface.c ****         
 131:user_interface.c ****         if (vibe_timeout < 0) {
 109              		.loc 1 131 0
 110 0068 002B     		cmp	r3, #0
 111 006a 02DA     		bge	.L1
 132:user_interface.c ****             vibe_timeout = 0;
 112              		.loc 1 132 0
 113 006c 0022     		movs	r2, #0
 114 006e 024B     		ldr	r3, .L8+4
 115 0070 1A61     		str	r2, [r3, #16]
 116              	.L1:
 117 0072 7047     		bx	lr
 118              	.L9:
 119              		.align	2
 120              	.L8:
 121 0074 00000000 		.word	.LANCHOR0
 122 0078 00000000 		.word	.LANCHOR1
 123              		.cfi_endproc
 124              	.LFE966:
 125              		.size	ui_timer, .-ui_timer
 126              		.section	.text.ui_draw_splash_screen,"ax",%progbits
 127              		.align	2
 128              		.global	ui_draw_splash_screen
 129              		.thumb
 130              		.thumb_func
 131              		.type	ui_draw_splash_screen, %function
 132              	ui_draw_splash_screen:
 133              	.LFB967:
 133:user_interface.c ****         }
 134:user_interface.c ****     }
 135:user_interface.c ****     
 136:user_interface.c **** }
 137:user_interface.c **** 
 138:user_interface.c **** 
 139:user_interface.c **** /*******************************************************************************
 140:user_interface.c **** * Function Name: void ui_draw_splash_screen()
 141:user_interface.c **** ********************************************************************************
 142:user_interface.c **** *
 143:user_interface.c **** * Summary:
 144:user_interface.c **** *   Draws splash screen
 145:user_interface.c **** *
 146:user_interface.c **** *******************************************************************************/
 147:user_interface.c **** void ui_draw_splash_screen( void ) {
 134              		.loc 1 147 0
 135              		.cfi_startproc
ARM GAS  C:\Users\haske\AppData\Local\Temp\ccWSfRiA.s 			page 6


 136              		@ args = 0, pretend = 0, frame = 0
 137              		@ frame_needed = 0, uses_anonymous_args = 0
 138              		@ link register save eliminated.
 139 0000 7047     		bx	lr
 140              		.cfi_endproc
 141              	.LFE967:
 142              		.size	ui_draw_splash_screen, .-ui_draw_splash_screen
 143 0002 00BF     		.section	.text.ui_draw_title,"ax",%progbits
 144              		.align	2
 145              		.global	ui_draw_title
 146              		.thumb
 147              		.thumb_func
 148              		.type	ui_draw_title, %function
 149              	ui_draw_title:
 150              	.LFB968:
 148:user_interface.c ****     //ST7735_SetPosition (53, 23);  
 149:user_interface.c ****     //ST7735_DrawString ("PAIN DRAIN", BLUE, X2);
 150:user_interface.c ****     //ST7735_SetPosition (47, 41);  
 151:user_interface.c ****     //ST7735_DrawString ("SPLASH SCREEN", BLUE, X2);
 152:user_interface.c ****     //ST7735_RAM_Content_Show();
 153:user_interface.c **** }
 154:user_interface.c **** 
 155:user_interface.c **** /*******************************************************************************
 156:user_interface.c **** * Function Name: void ui_draw_title()
 157:user_interface.c **** ********************************************************************************
 158:user_interface.c **** *
 159:user_interface.c **** * Summary:
 160:user_interface.c **** *   Draws title
 161:user_interface.c **** *
 162:user_interface.c **** *******************************************************************************/
 163:user_interface.c **** void ui_draw_title(char text[]) {
 151              		.loc 1 163 0
 152              		.cfi_startproc
 153              		@ args = 0, pretend = 0, frame = 0
 154              		@ frame_needed = 0, uses_anonymous_args = 0
 155              		@ link register save eliminated.
 156              	.LVL3:
 157 0000 7047     		bx	lr
 158              		.cfi_endproc
 159              	.LFE968:
 160              		.size	ui_draw_title, .-ui_draw_title
 161 0002 00BF     		.section	.text.ui_draw_buttons,"ax",%progbits
 162              		.align	2
 163              		.global	ui_draw_buttons
 164              		.thumb
 165              		.thumb_func
 166              		.type	ui_draw_buttons, %function
 167              	ui_draw_buttons:
 168              	.LFB969:
 164:user_interface.c ****     //ST7735_DrawRectangle (1, 1+UI_TITLE_WIDTH, 1, 1+UI_TITLE_HEIGHT, UI_COLOR_BACKGROUND);
 165:user_interface.c ****     //ST7735_SetPosition (1, 1);  
 166:user_interface.c ****     //ST7735_DrawString (text, UI_COLOR_TITLE_TEXT, X2);
 167:user_interface.c **** }
 168:user_interface.c **** 
 169:user_interface.c **** /*******************************************************************************
 170:user_interface.c **** * Function Name: void ui_draw_buttons()
 171:user_interface.c **** ********************************************************************************
ARM GAS  C:\Users\haske\AppData\Local\Temp\ccWSfRiA.s 			page 7


 172:user_interface.c **** *
 173:user_interface.c **** * Summary:
 174:user_interface.c **** *   Draws buttons
 175:user_interface.c **** *
 176:user_interface.c **** *******************************************************************************/
 177:user_interface.c **** void ui_draw_buttons(char left[], char center[], char right[] ) {
 169              		.loc 1 177 0
 170              		.cfi_startproc
 171              		@ args = 0, pretend = 0, frame = 0
 172              		@ frame_needed = 0, uses_anonymous_args = 0
 173              		@ link register save eliminated.
 174              	.LVL4:
 175 0000 7047     		bx	lr
 176              		.cfi_endproc
 177              	.LFE969:
 178              		.size	ui_draw_buttons, .-ui_draw_buttons
 179 0002 00BF     		.section	.text.ui_draw_select_window,"ax",%progbits
 180              		.align	2
 181              		.global	ui_draw_select_window
 182              		.thumb
 183              		.thumb_func
 184              		.type	ui_draw_select_window, %function
 185              	ui_draw_select_window:
 186              	.LFB970:
 178:user_interface.c ****     
 179:user_interface.c ****     //Draw Left Button
 180:user_interface.c ****     //ST7735_DrawRectangle (UI_LEFT_BUTTON_X, UI_LEFT_BUTTON_X+UI_BUTTON_WIDTH, UI_BUTTON_Y, UI_BUT
 181:user_interface.c ****     //ST7735_SetPosition (UI_LEFT_BUTTON_X+(UI_BUTTON_WIDTH-(CHARS_COLS_LEN+1)*strlen(left))/2, UI_
 182:user_interface.c ****     //ST7735_DrawString (left, UI_COLOR_BUTTON_TEXT, X2);
 183:user_interface.c ****     
 184:user_interface.c ****     //Draw Center Button
 185:user_interface.c ****     //ST7735_DrawRectangle (UI_CENTER_BUTTON_X, UI_CENTER_BUTTON_X+UI_BUTTON_WIDTH, UI_BUTTON_Y, UI
 186:user_interface.c ****     //ST7735_SetPosition (UI_CENTER_BUTTON_X+(UI_BUTTON_WIDTH-(CHARS_COLS_LEN+1)*strlen(center))/2,
 187:user_interface.c ****     //ST7735_DrawString (center, UI_COLOR_BUTTON_TEXT, X2);
 188:user_interface.c ****     
 189:user_interface.c ****     //Draw Right Button
 190:user_interface.c ****     //ST7735_DrawRectangle (UI_RIGHT_BUTTON_X, UI_RIGHT_BUTTON_X+UI_BUTTON_WIDTH, UI_BUTTON_Y, UI_B
 191:user_interface.c ****     //ST7735_SetPosition (UI_RIGHT_BUTTON_X+(UI_BUTTON_WIDTH-(CHARS_COLS_LEN+1)*strlen(right))/2, U
 192:user_interface.c ****     //ST7735_DrawString (right, UI_COLOR_BUTTON_TEXT, X2);
 193:user_interface.c **** }
 194:user_interface.c **** 
 195:user_interface.c **** /*******************************************************************************
 196:user_interface.c **** * Function Name: void ui_draw_select_window()
 197:user_interface.c **** ********************************************************************************
 198:user_interface.c **** *
 199:user_interface.c **** * Summary:
 200:user_interface.c **** *   Select window
 201:user_interface.c **** *
 202:user_interface.c **** *******************************************************************************/
 203:user_interface.c **** void ui_draw_select_window( void ) {
 187              		.loc 1 203 0
 188              		.cfi_startproc
 189              		@ args = 0, pretend = 0, frame = 0
 190              		@ frame_needed = 0, uses_anonymous_args = 0
 191              		@ link register save eliminated.
 192 0000 7047     		bx	lr
 193              		.cfi_endproc
ARM GAS  C:\Users\haske\AppData\Local\Temp\ccWSfRiA.s 			page 8


 194              	.LFE970:
 195              		.size	ui_draw_select_window, .-ui_draw_select_window
 196 0002 00BF     		.section	.text.ui_clear_icon,"ax",%progbits
 197              		.align	2
 198              		.global	ui_clear_icon
 199              		.thumb
 200              		.thumb_func
 201              		.type	ui_clear_icon, %function
 202              	ui_clear_icon:
 203              	.LFB971:
 204:user_interface.c ****     
 205:user_interface.c ****     //ST7735_DrawLine((UI_SCREEN_WIDTH-UI_SELECT_WINDOW_WIDTH)/2,     (UI_SCREEN_WIDTH-UI_SELECT_WI
 206:user_interface.c ****     //ST7735_DrawLine((UI_SCREEN_WIDTH-UI_SELECT_WINDOW_WIDTH)/2+1,   (UI_SCREEN_WIDTH-UI_SELECT_WI
 207:user_interface.c ****     //ST7735_DrawLine((UI_SCREEN_WIDTH-UI_SELECT_WINDOW_WIDTH)/2,     (UI_SCREEN_WIDTH-UI_SELECT_WI
 208:user_interface.c ****     //ST7735_DrawLine((UI_SCREEN_WIDTH-UI_SELECT_WINDOW_WIDTH)/2+1,   (UI_SCREEN_WIDTH-UI_SELECT_WI
 209:user_interface.c **** 
 210:user_interface.c ****     //ST7735_DrawLine((UI_SCREEN_WIDTH-UI_SELECT_WINDOW_WIDTH)/2,     (UI_SCREEN_WIDTH-UI_SELECT_WI
 211:user_interface.c ****     //ST7735_DrawLine((UI_SCREEN_WIDTH-UI_SELECT_WINDOW_WIDTH)/2+1,   (UI_SCREEN_WIDTH-UI_SELECT_WI
 212:user_interface.c ****     //ST7735_DrawLine((UI_SCREEN_WIDTH-UI_SELECT_WINDOW_WIDTH)/2+UI_SELECT_WINDOW_WIDTH,     (UI_SC
 213:user_interface.c ****     //ST7735_DrawLine((UI_SCREEN_WIDTH-UI_SELECT_WINDOW_WIDTH)/2+UI_SELECT_WINDOW_WIDTH-1,   (UI_SC
 214:user_interface.c **** 
 215:user_interface.c ****  
 216:user_interface.c **** }
 217:user_interface.c **** 
 218:user_interface.c **** /*******************************************************************************
 219:user_interface.c **** * Function Name: void ui_clear_icon()
 220:user_interface.c **** ********************************************************************************
 221:user_interface.c **** *
 222:user_interface.c **** * Summary:
 223:user_interface.c **** *   Clears icon area
 224:user_interface.c **** *
 225:user_interface.c **** *******************************************************************************/
 226:user_interface.c **** void ui_clear_icon(int loc) {
 204              		.loc 1 226 0
 205              		.cfi_startproc
 206              		@ args = 0, pretend = 0, frame = 0
 207              		@ frame_needed = 0, uses_anonymous_args = 0
 208              		@ link register save eliminated.
 209              	.LVL5:
 210 0000 7047     		bx	lr
 211              		.cfi_endproc
 212              	.LFE971:
 213              		.size	ui_clear_icon, .-ui_clear_icon
 214 0002 00BF     		.section	.text.ui_draw_icon_text,"ax",%progbits
 215              		.align	2
 216              		.global	ui_draw_icon_text
 217              		.thumb
 218              		.thumb_func
 219              		.type	ui_draw_icon_text, %function
 220              	ui_draw_icon_text:
 221              	.LFB972:
 227:user_interface.c ****    //ST7735_DrawRectangle (loc+2, loc+UI_SELECT_WINDOW_WIDTH-4, (UI_SCREEN_HEIGHT-UI_SELECT_WINDOW_
 228:user_interface.c **** }
 229:user_interface.c **** 
 230:user_interface.c **** /*******************************************************************************
 231:user_interface.c **** * Function Name: void ui_draw_icon_text()
 232:user_interface.c **** ********************************************************************************
ARM GAS  C:\Users\haske\AppData\Local\Temp\ccWSfRiA.s 			page 9


 233:user_interface.c **** *
 234:user_interface.c **** * Summary:
 235:user_interface.c **** *   Draws icon text
 236:user_interface.c **** *
 237:user_interface.c **** *******************************************************************************/
 238:user_interface.c **** void ui_draw_icon_text(int loc, char text[]) {
 222              		.loc 1 238 0
 223              		.cfi_startproc
 224              		@ args = 0, pretend = 0, frame = 16
 225              		@ frame_needed = 0, uses_anonymous_args = 0
 226              	.LVL6:
 227              		.loc 1 238 0
 228 0000 10B5     		push	{r4, lr}
 229              		.cfi_def_cfa_offset 8
 230              		.cfi_offset 4, -8
 231              		.cfi_offset 14, -4
 232 0002 84B0     		sub	sp, sp, #16
 233              		.cfi_def_cfa_offset 24
 239:user_interface.c ****     char s[10];
 240:user_interface.c ****     strcpy(s, text);
 234              		.loc 1 240 0
 235 0004 01A8     		add	r0, sp, #4
 236              	.LVL7:
 237 0006 FFF7FEFF 		bl	strcpy
 238              	.LVL8:
 241:user_interface.c ****     char* top = strtok(s, "-");
 239              		.loc 1 241 0
 240 000a 054C     		ldr	r4, .L17
 241 000c 2146     		mov	r1, r4
 242 000e 01A8     		add	r0, sp, #4
 243 0010 FFF7FEFF 		bl	strtok
 244              	.LVL9:
 242:user_interface.c ****     char* bot = strtok(NULL, "-");
 245              		.loc 1 242 0
 246 0014 2146     		mov	r1, r4
 247 0016 0020     		movs	r0, #0
 248 0018 FFF7FEFF 		bl	strtok
 249              	.LVL10:
 243:user_interface.c ****     
 244:user_interface.c ****     //ST7735_SetPosition (loc+(UI_SELECT_WINDOW_WIDTH-(CHARS_COLS_LEN+1)*strlen(top) )/2, (UI_SCREE
 245:user_interface.c ****     //ST7735_DrawString (top, UI_COLOR_ICON_TEXT, X2);
 246:user_interface.c ****     //ST7735_SetPosition (loc+(UI_SELECT_WINDOW_WIDTH-(CHARS_COLS_LEN+1)*strlen(bot) )/2, (UI_SCREE
 247:user_interface.c ****     //ST7735_DrawString (bot, UI_COLOR_ICON_TEXT, X2); 
 248:user_interface.c **** }
 250              		.loc 1 248 0
 251 001c 04B0     		add	sp, sp, #16
 252              		.cfi_def_cfa_offset 8
 253              		@ sp needed
 254 001e 10BD     		pop	{r4, pc}
 255              	.L18:
 256              		.align	2
 257              	.L17:
 258 0020 00000000 		.word	.LC0
 259              		.cfi_endproc
 260              	.LFE972:
 261              		.size	ui_draw_icon_text, .-ui_draw_icon_text
 262              		.section	.text.ui_draw_icons,"ax",%progbits
ARM GAS  C:\Users\haske\AppData\Local\Temp\ccWSfRiA.s 			page 10


 263              		.align	2
 264              		.global	ui_draw_icons
 265              		.thumb
 266              		.thumb_func
 267              		.type	ui_draw_icons, %function
 268              	ui_draw_icons:
 269              	.LFB973:
 249:user_interface.c **** 
 250:user_interface.c **** 
 251:user_interface.c **** 
 252:user_interface.c **** /*******************************************************************************
 253:user_interface.c **** * Function Name: void ui_draw_icons()
 254:user_interface.c **** ********************************************************************************
 255:user_interface.c **** *
 256:user_interface.c **** * Summary:
 257:user_interface.c **** *   Draws an icon
 258:user_interface.c **** *
 259:user_interface.c **** *******************************************************************************/
 260:user_interface.c **** void ui_draw_icons (int menu, int loc, int item) {
 270              		.loc 1 260 0
 271              		.cfi_startproc
 272              		@ args = 0, pretend = 0, frame = 0
 273              		@ frame_needed = 0, uses_anonymous_args = 0
 274              	.LVL11:
 275 0000 38B5     		push	{r3, r4, r5, lr}
 276              		.cfi_def_cfa_offset 16
 277              		.cfi_offset 3, -16
 278              		.cfi_offset 4, -12
 279              		.cfi_offset 5, -8
 280              		.cfi_offset 14, -4
 261:user_interface.c ****     ui_clear_icon(loc);  
 262:user_interface.c ****     if (item < UI_MENU_ITEMS_MIN[menu]) return;
 281              		.loc 1 262 0
 282 0002 364B     		ldr	r3, .L33
 283 0004 53F82040 		ldr	r4, [r3, r0, lsl #2]
 284 0008 9442     		cmp	r4, r2
 285 000a 65DC     		bgt	.L19
 263:user_interface.c ****     if (item > UI_MENU_ITEMS_MAX[menu]) return;
 286              		.loc 1 263 0
 287 000c 03EB8003 		add	r3, r3, r0, lsl #2
 288 0010 9B6A     		ldr	r3, [r3, #40]
 289 0012 9A42     		cmp	r2, r3
 290 0014 60DC     		bgt	.L19
 291 0016 0D46     		mov	r5, r1
 264:user_interface.c ****     
 265:user_interface.c ****     switch (menu) {
 292              		.loc 1 265 0
 293 0018 0928     		cmp	r0, #9
 294 001a 5DD8     		bhi	.L19
 295 001c DFE800F0 		tbb	[pc, r0]
 296              	.LVL12:
 297              	.L22:
 298 0020 05       		.byte	(.L21-.L22)/2
 299 0021 0E       		.byte	(.L23-.L22)/2
 300 0022 17       		.byte	(.L24-.L22)/2
 301 0023 21       		.byte	(.L25-.L22)/2
 302 0024 2B       		.byte	(.L26-.L22)/2
ARM GAS  C:\Users\haske\AppData\Local\Temp\ccWSfRiA.s 			page 11


 303 0025 35       		.byte	(.L27-.L22)/2
 304 0026 3F       		.byte	(.L28-.L22)/2
 305 0027 49       		.byte	(.L29-.L22)/2
 306 0028 53       		.byte	(.L30-.L22)/2
 307 0029 58       		.byte	(.L31-.L22)/2
 308              		.p2align 1
 309              	.L21:
 266:user_interface.c ****         default: break;
 267:user_interface.c ****         case UI_MENU_MAIN:          ui_draw_icon_text(loc, (char*) UI_MAIN_MENU_ITEMS[item-UI_MENU_
 310              		.loc 1 267 0
 311 002a 121B     		subs	r2, r2, r4
 312              	.LVL13:
 313 002c 2B4B     		ldr	r3, .L33
 314 002e 03EB8202 		add	r2, r3, r2, lsl #2
 315 0032 116D     		ldr	r1, [r2, #80]
 316 0034 2846     		mov	r0, r5
 317              	.LVL14:
 318 0036 FFF7FEFF 		bl	ui_draw_icon_text
 319              	.LVL15:
 320 003a 38BD     		pop	{r3, r4, r5, pc}
 321              	.LVL16:
 322              	.L23:
 268:user_interface.c ****         case UI_MENU_PRESET:        ui_draw_icon_text(loc, (char*) UI_PRESETS_MENU_ITEMS[item-UI_ME
 323              		.loc 1 268 0
 324 003c 121B     		subs	r2, r2, r4
 325              	.LVL17:
 326 003e 274B     		ldr	r3, .L33
 327 0040 03EB8202 		add	r2, r3, r2, lsl #2
 328 0044 516F     		ldr	r1, [r2, #116]
 329 0046 2846     		mov	r0, r5
 330              	.LVL18:
 331 0048 FFF7FEFF 		bl	ui_draw_icon_text
 332              	.LVL19:
 333 004c 38BD     		pop	{r3, r4, r5, pc}
 334              	.LVL20:
 335              	.L24:
 269:user_interface.c ****         case UI_MENU_TEMP:          ui_draw_icon_text(loc, (char*) UI_TEMP_MENU_ITEMS[item-UI_MENU_
 336              		.loc 1 269 0
 337 004e 121B     		subs	r2, r2, r4
 338              	.LVL21:
 339 0050 224B     		ldr	r3, .L33
 340 0052 03EB8202 		add	r2, r3, r2, lsl #2
 341 0056 D2F89C10 		ldr	r1, [r2, #156]
 342 005a 2846     		mov	r0, r5
 343              	.LVL22:
 344 005c FFF7FEFF 		bl	ui_draw_icon_text
 345              	.LVL23:
 346 0060 38BD     		pop	{r3, r4, r5, pc}
 347              	.LVL24:
 348              	.L25:
 270:user_interface.c ****         case UI_MENU_VIBE_AMP:      ui_draw_icon_text(loc, (char*) UI_VIBE_AMP_MENU_ITEMS[item-UI_M
 349              		.loc 1 270 0
 350 0062 121B     		subs	r2, r2, r4
 351              	.LVL25:
 352 0064 1D4B     		ldr	r3, .L33
 353 0066 03EB8202 		add	r2, r3, r2, lsl #2
 354 006a D2F8D810 		ldr	r1, [r2, #216]
ARM GAS  C:\Users\haske\AppData\Local\Temp\ccWSfRiA.s 			page 12


 355 006e 2846     		mov	r0, r5
 356              	.LVL26:
 357 0070 FFF7FEFF 		bl	ui_draw_icon_text
 358              	.LVL27:
 359 0074 38BD     		pop	{r3, r4, r5, pc}
 360              	.LVL28:
 361              	.L26:
 271:user_interface.c ****         case UI_MENU_VIBE_FREQ:     ui_draw_icon_text(loc, (char*) UI_VIBE_FREQ_MENU_ITEMS[item-UI_
 362              		.loc 1 271 0
 363 0076 121B     		subs	r2, r2, r4
 364              	.LVL29:
 365 0078 184B     		ldr	r3, .L33
 366 007a 03EB8202 		add	r2, r3, r2, lsl #2
 367 007e D2F80411 		ldr	r1, [r2, #260]
 368 0082 2846     		mov	r0, r5
 369              	.LVL30:
 370 0084 FFF7FEFF 		bl	ui_draw_icon_text
 371              	.LVL31:
 372 0088 38BD     		pop	{r3, r4, r5, pc}
 373              	.LVL32:
 374              	.L27:
 272:user_interface.c ****         case UI_MENU_TENS_FREQ:     ui_draw_icon_text(loc, (char*) UI_TENS_FREQ_MENU_ITEMS[item-UI_
 375              		.loc 1 272 0
 376 008a 121B     		subs	r2, r2, r4
 377              	.LVL33:
 378 008c 134B     		ldr	r3, .L33
 379 008e 03EB8202 		add	r2, r3, r2, lsl #2
 380 0092 D2F82C11 		ldr	r1, [r2, #300]
 381 0096 2846     		mov	r0, r5
 382              	.LVL34:
 383 0098 FFF7FEFF 		bl	ui_draw_icon_text
 384              	.LVL35:
 385 009c 38BD     		pop	{r3, r4, r5, pc}
 386              	.LVL36:
 387              	.L28:
 273:user_interface.c ****         case UI_MENU_TENS_AMP:      ui_draw_icon_text(loc, (char*) UI_TENS_AMP_MENU_ITEMS[item-UI_M
 388              		.loc 1 273 0
 389 009e 121B     		subs	r2, r2, r4
 390              	.LVL37:
 391 00a0 0E4B     		ldr	r3, .L33
 392 00a2 03EB8202 		add	r2, r3, r2, lsl #2
 393 00a6 D2F85411 		ldr	r1, [r2, #340]
 394 00aa 2846     		mov	r0, r5
 395              	.LVL38:
 396 00ac FFF7FEFF 		bl	ui_draw_icon_text
 397              	.LVL39:
 398 00b0 38BD     		pop	{r3, r4, r5, pc}
 399              	.LVL40:
 400              	.L29:
 274:user_interface.c ****         case UI_MENU_TENS_DUR:      ui_draw_icon_text(loc, (char*) UI_TENS_DUR_MENU_ITEMS[item-UI_M
 401              		.loc 1 274 0
 402 00b2 121B     		subs	r2, r2, r4
 403              	.LVL41:
 404 00b4 094B     		ldr	r3, .L33
 405 00b6 03EB8202 		add	r2, r3, r2, lsl #2
 406 00ba D2F88011 		ldr	r1, [r2, #384]
 407 00be 2846     		mov	r0, r5
ARM GAS  C:\Users\haske\AppData\Local\Temp\ccWSfRiA.s 			page 13


 408              	.LVL42:
 409 00c0 FFF7FEFF 		bl	ui_draw_icon_text
 410              	.LVL43:
 411 00c4 38BD     		pop	{r3, r4, r5, pc}
 412              	.LVL44:
 413              	.L30:
 275:user_interface.c ****         case UI_MENU_BLUETOOTH:     ui_draw_icon_text(loc, (char*) UI_BLUETOOTH_MENU_ITEMS[item-UI_
 414              		.loc 1 275 0
 415 00c6 0649     		ldr	r1, .L33+4
 416 00c8 2846     		mov	r0, r5
 417              	.LVL45:
 418 00ca FFF7FEFF 		bl	ui_draw_icon_text
 419              	.LVL46:
 420 00ce 38BD     		pop	{r3, r4, r5, pc}
 421              	.LVL47:
 422              	.L31:
 276:user_interface.c ****         case UI_MENU_DIAG:          ui_draw_icon_text(loc, (char*) UI_DIAG_MENU_ITEMS[item-UI_MENU_
 423              		.loc 1 276 0
 424 00d0 0449     		ldr	r1, .L33+8
 425 00d2 2846     		mov	r0, r5
 426              	.LVL48:
 427 00d4 FFF7FEFF 		bl	ui_draw_icon_text
 428              	.LVL49:
 429              	.L19:
 430 00d8 38BD     		pop	{r3, r4, r5, pc}
 431              	.L34:
 432 00da 00BF     		.align	2
 433              	.L33:
 434 00dc 00000000 		.word	.LANCHOR2
 435 00e0 04000000 		.word	.LC1
 436 00e4 0C000000 		.word	.LC2
 437              		.cfi_endproc
 438              	.LFE973:
 439              		.size	ui_draw_icons, .-ui_draw_icons
 440              		.section	.text.ui_draw_diag,"ax",%progbits
 441              		.align	2
 442              		.global	ui_draw_diag
 443              		.thumb
 444              		.thumb_func
 445              		.type	ui_draw_diag, %function
 446              	ui_draw_diag:
 447              	.LFB974:
 277:user_interface.c ****     }
 278:user_interface.c **** }
 279:user_interface.c **** 
 280:user_interface.c **** /*******************************************************************************
 281:user_interface.c **** * Function Name: void ui_draw_diag()
 282:user_interface.c **** ********************************************************************************
 283:user_interface.c **** *
 284:user_interface.c **** * Summary:
 285:user_interface.c **** *   Draws diagnostics
 286:user_interface.c **** *
 287:user_interface.c **** *******************************************************************************/
 288:user_interface.c **** void ui_draw_diag( void ) {
 448              		.loc 1 288 0
 449              		.cfi_startproc
 450              		@ args = 0, pretend = 0, frame = 32
ARM GAS  C:\Users\haske\AppData\Local\Temp\ccWSfRiA.s 			page 14


 451              		@ frame_needed = 0, uses_anonymous_args = 0
 452 0000 2DE9F041 		push	{r4, r5, r6, r7, r8, lr}
 453              		.cfi_def_cfa_offset 24
 454              		.cfi_offset 4, -24
 455              		.cfi_offset 5, -20
 456              		.cfi_offset 6, -16
 457              		.cfi_offset 7, -12
 458              		.cfi_offset 8, -8
 459              		.cfi_offset 14, -4
 460 0004 88B0     		sub	sp, sp, #32
 461              		.cfi_def_cfa_offset 56
 289:user_interface.c ****     uint8 d[POWER_DIAG_DATA_SIZE];
 290:user_interface.c ****     char s0[16];
 291:user_interface.c ****     //char s1[16];
 292:user_interface.c ****     
 293:user_interface.c ****     int vbus_stat;
 294:user_interface.c ****     int chrg_stat;
 295:user_interface.c ****     int dpm_stat;
 296:user_interface.c ****     int pg_stat;
 297:user_interface.c ****     int therm_stat;
 298:user_interface.c ****     int vsys_stat;
 299:user_interface.c ****     
 300:user_interface.c ****     int wtd_fault;
 301:user_interface.c ****     int otg_fault;
 302:user_interface.c ****     int chrg_fault;
 303:user_interface.c ****     int bat_fault;
 304:user_interface.c ****     int ntc_fault;
 305:user_interface.c ****     
 306:user_interface.c ****     power_get_diag_data(d);
 462              		.loc 1 306 0
 463 0006 05A8     		add	r0, sp, #20
 464 0008 FFF7FEFF 		bl	power_get_diag_data
 465              	.LVL50:
 307:user_interface.c **** 
 308:user_interface.c **** //#define CHG_REG_DUMP
 309:user_interface.c **** #ifdef CHG_REG_DUMP
 310:user_interface.c ****     
 311:user_interface.c ****     sprintf(s0, "%02X%02X%02X%02X%02X%02X%02X%02X", d[0], d[1], d[2], d[3], d[4], d[5], d[6], d[7])
 312:user_interface.c ****     sprintf(s1, "%02X%02X%02X", d[8], d[9], d[10]);
 313:user_interface.c ****     
 314:user_interface.c ****     
 315:user_interface.c ****     ST7735_DrawRectangle (2, 1+UI_TITLE_WIDTH, 1+UI_TITLE_HEIGHT+1, 2*(1+UI_TITLE_HEIGHT), UI_COLOR
 316:user_interface.c ****     ST7735_SetPosition (2, 1+UI_TITLE_HEIGHT+1);  
 317:user_interface.c ****     ST7735_DrawString (s0, UI_COLOR_ICON_TEXT, X2);
 318:user_interface.c ****     
 319:user_interface.c ****     
 320:user_interface.c ****     ST7735_DrawRectangle (2, 1+UI_TITLE_WIDTH, 2*(1+UI_TITLE_HEIGHT)+1, 3*(1+UI_TITLE_HEIGHT), UI_C
 321:user_interface.c ****     ST7735_SetPosition (2, 2*(1+UI_TITLE_HEIGHT)+1);  
 322:user_interface.c ****     ST7735_DrawString (s1, UI_COLOR_ICON_TEXT, X2);
 323:user_interface.c ****     
 324:user_interface.c **** #else
 325:user_interface.c ****   
 326:user_interface.c ****     vbus_stat = (d[CHG_SYS_STAT_REG] & CHG_SYS_STAT_VBUS_MASK)>>CHG_SYS_STAT_VBUS_START;
 466              		.loc 1 326 0
 467 000c 9DF81C20 		ldrb	r2, [sp, #28]	@ zero_extendqisi2
 468              	.LVL51:
 327:user_interface.c ****     chrg_stat = (d[CHG_SYS_STAT_REG] & CHG_SYS_STAT_CHG_MASK)>>CHG_SYS_STAT_CHG_START;
ARM GAS  C:\Users\haske\AppData\Local\Temp\ccWSfRiA.s 			page 15


 469              		.loc 1 327 0
 470 0010 C2F30118 		ubfx	r8, r2, #4, #2
 471              	.LVL52:
 328:user_interface.c ****     dpm_stat =  (d[CHG_SYS_STAT_REG] & CHG_SYS_STAT_DPM_MASK)>>CHG_SYS_STAT_DPM_START;
 472              		.loc 1 328 0
 473 0014 C2F3C007 		ubfx	r7, r2, #3, #1
 474              	.LVL53:
 329:user_interface.c ****     pg_stat =   (d[CHG_SYS_STAT_REG] & CHG_SYS_STAT_PGM_MASK)>>CHG_SYS_STAT_PGM_START;
 475              		.loc 1 329 0
 476 0018 C2F38006 		ubfx	r6, r2, #2, #1
 477              	.LVL54:
 330:user_interface.c ****     therm_stat = (d[CHG_SYS_STAT_REG] & CHG_SYS_STAT_THERM_MASK)>>CHG_SYS_STAT_THERM_START;
 478              		.loc 1 330 0
 479 001c C2F34005 		ubfx	r5, r2, #1, #1
 480              	.LVL55:
 331:user_interface.c ****     vsys_stat = (d[CHG_SYS_STAT_REG] & CHG_SYS_STAT_VSYS_MASK)>>CHG_SYS_STAT_VSYS_START;
 481              		.loc 1 331 0
 482 0020 02F00104 		and	r4, r2, #1
 483              	.LVL56:
 332:user_interface.c ****     
 333:user_interface.c ****     sprintf(s0, "VBUS:%d", vbus_stat);
 484              		.loc 1 333 0
 485 0024 9209     		lsrs	r2, r2, #6
 486              	.LVL57:
 487 0026 2049     		ldr	r1, .L37
 488 0028 01A8     		add	r0, sp, #4
 489 002a FFF7FEFF 		bl	sprintf
 490              	.LVL58:
 334:user_interface.c ****     //ST7735_DrawRectangle (2, 1+UI_TITLE_WIDTH, 1+UI_TITLE_HEIGHT+1, 2*(1+UI_TITLE_HEIGHT), UI_COL
 335:user_interface.c ****     //ST7735_SetPosition (2, 1+UI_TITLE_HEIGHT+1);  
 336:user_interface.c ****     //ST7735_DrawString (s0, UI_COLOR_ICON_TEXT, X2);
 337:user_interface.c ****     
 338:user_interface.c ****     sprintf(s0, "CHRG:%d", chrg_stat);
 491              		.loc 1 338 0
 492 002e 4246     		mov	r2, r8
 493 0030 1E49     		ldr	r1, .L37+4
 494 0032 01A8     		add	r0, sp, #4
 495 0034 FFF7FEFF 		bl	sprintf
 496              	.LVL59:
 339:user_interface.c ****     //ST7735_DrawRectangle (2, 1+UI_TITLE_WIDTH, 2*(1+UI_TITLE_HEIGHT)+1, 3*(1+UI_TITLE_HEIGHT), UI
 340:user_interface.c ****     //ST7735_SetPosition (2, 2*(1+UI_TITLE_HEIGHT)+1);  
 341:user_interface.c ****     //ST7735_DrawString (s0, UI_COLOR_ICON_TEXT, X2);
 342:user_interface.c ****     
 343:user_interface.c ****     sprintf(s0, "DPM:%d", dpm_stat);
 497              		.loc 1 343 0
 498 0038 3A46     		mov	r2, r7
 499 003a 1D49     		ldr	r1, .L37+8
 500 003c 01A8     		add	r0, sp, #4
 501 003e FFF7FEFF 		bl	sprintf
 502              	.LVL60:
 344:user_interface.c ****     //ST7735_DrawRectangle (2, 1+UI_TITLE_WIDTH, 3*(1+UI_TITLE_HEIGHT)+1, 4*(1+UI_TITLE_HEIGHT), UI
 345:user_interface.c ****     //ST7735_SetPosition (2, 3*(1+UI_TITLE_HEIGHT)+1);  
 346:user_interface.c ****     //ST7735_DrawString (s0, UI_COLOR_ICON_TEXT, X2);
 347:user_interface.c ****     
 348:user_interface.c ****     sprintf(s0, "PG:%d", pg_stat);
 503              		.loc 1 348 0
 504 0042 3246     		mov	r2, r6
ARM GAS  C:\Users\haske\AppData\Local\Temp\ccWSfRiA.s 			page 16


 505 0044 1B49     		ldr	r1, .L37+12
 506 0046 01A8     		add	r0, sp, #4
 507 0048 FFF7FEFF 		bl	sprintf
 508              	.LVL61:
 349:user_interface.c ****     //ST7735_DrawRectangle (2, 1+UI_TITLE_WIDTH, 4*(1+UI_TITLE_HEIGHT)+1, 5*(1+UI_TITLE_HEIGHT), UI
 350:user_interface.c ****     //ST7735_SetPosition (2, 4*(1+UI_TITLE_HEIGHT)+1);  
 351:user_interface.c ****     //ST7735_DrawString (s0, UI_COLOR_ICON_TEXT, X2);
 352:user_interface.c ****     
 353:user_interface.c ****     
 354:user_interface.c ****     sprintf(s0, "THERM:%d", therm_stat);
 509              		.loc 1 354 0
 510 004c 2A46     		mov	r2, r5
 511 004e 1A49     		ldr	r1, .L37+16
 512 0050 01A8     		add	r0, sp, #4
 513 0052 FFF7FEFF 		bl	sprintf
 514              	.LVL62:
 355:user_interface.c ****     //ST7735_DrawRectangle (2+UI_TITLE_WIDTH/2, 1+UI_TITLE_WIDTH/2, 1+UI_TITLE_HEIGHT+1, 2*(1+UI_TI
 356:user_interface.c ****     //ST7735_SetPosition (2+UI_TITLE_WIDTH/2, 1+UI_TITLE_HEIGHT+1);  
 357:user_interface.c ****     //ST7735_DrawString (s0, UI_COLOR_ICON_TEXT, X2);
 358:user_interface.c ****     
 359:user_interface.c ****     sprintf(s0, "VSYS:%d", vsys_stat);
 515              		.loc 1 359 0
 516 0056 2246     		mov	r2, r4
 517 0058 1849     		ldr	r1, .L37+20
 518 005a 01A8     		add	r0, sp, #4
 519 005c FFF7FEFF 		bl	sprintf
 520              	.LVL63:
 360:user_interface.c ****     //ST7735_DrawRectangle (2+UI_TITLE_WIDTH/2, 1+UI_TITLE_WIDTH/2, 2*(1+UI_TITLE_HEIGHT)+1, 3*(1+U
 361:user_interface.c ****     //ST7735_SetPosition (2+UI_TITLE_WIDTH/2, 2*(1+UI_TITLE_HEIGHT)+1);  
 362:user_interface.c ****     //ST7735_DrawString (s0, UI_COLOR_ICON_TEXT, X2);
 363:user_interface.c ****     
 364:user_interface.c ****     wtd_fault = (d[CHG_NEW_FAULT_REG] & CHG_NEW_FAULT_WDT_MASK)>>CHG_NEW_FAULT_WDT_START;
 521              		.loc 1 364 0
 522 0060 9DF81D20 		ldrb	r2, [sp, #29]	@ zero_extendqisi2
 523              	.LVL64:
 365:user_interface.c ****     otg_fault = (d[CHG_NEW_FAULT_REG] & CHG_NEW_FAULT_OTG_MASK)>>CHG_NEW_FAULT_OTG_START;
 524              		.loc 1 365 0
 525 0064 C2F38016 		ubfx	r6, r2, #6, #1
 526              	.LVL65:
 366:user_interface.c ****     chrg_fault = (d[CHG_NEW_FAULT_REG] & CHG_NEW_FAULT_CHG_MASK)>>CHG_NEW_FAULT_CHG_START;
 367:user_interface.c ****     bat_fault = (d[CHG_NEW_FAULT_REG] & CHG_NEW_FAULT_BATT_MASK)>>CHG_NEW_FAULT_BATT_START;
 527              		.loc 1 367 0
 528 0068 C2F3C005 		ubfx	r5, r2, #3, #1
 529              	.LVL66:
 368:user_interface.c ****     ntc_fault = (d[CHG_NEW_FAULT_REG] & CHG_NEW_FAULT_NTC_MASK)>>CHG_NEW_FAULT_NTC_START;
 530              		.loc 1 368 0
 531 006c 02F00304 		and	r4, r2, #3
 532              	.LVL67:
 369:user_interface.c ****     
 370:user_interface.c ****     sprintf(s0, "WTDF:%d", wtd_fault);
 533              		.loc 1 370 0
 534 0070 D209     		lsrs	r2, r2, #7
 535              	.LVL68:
 536 0072 1349     		ldr	r1, .L37+24
 537 0074 01A8     		add	r0, sp, #4
 538 0076 FFF7FEFF 		bl	sprintf
 539              	.LVL69:
ARM GAS  C:\Users\haske\AppData\Local\Temp\ccWSfRiA.s 			page 17


 371:user_interface.c ****     //ST7735_DrawRectangle (2+UI_TITLE_WIDTH/2, 1+UI_TITLE_WIDTH, 3*(1+UI_TITLE_HEIGHT)+1, 4*(1+UI_
 372:user_interface.c ****     //ST7735_SetPosition (2+UI_TITLE_WIDTH/2, 3*(1+UI_TITLE_HEIGHT)+1);  
 373:user_interface.c ****     //ST7735_DrawString (s0, UI_COLOR_ICON_TEXT, X2);
 374:user_interface.c ****     
 375:user_interface.c ****     sprintf(s0, "OTGF:%d", otg_fault);
 540              		.loc 1 375 0
 541 007a 3246     		mov	r2, r6
 542 007c 1149     		ldr	r1, .L37+28
 543 007e 01A8     		add	r0, sp, #4
 544 0080 FFF7FEFF 		bl	sprintf
 545              	.LVL70:
 376:user_interface.c ****     //ST7735_DrawRectangle (2+UI_TITLE_WIDTH/2, 1+UI_TITLE_WIDTH, 4*(1+UI_TITLE_HEIGHT)+1, 5*(1+UI_
 377:user_interface.c ****     //ST7735_SetPosition (2+UI_TITLE_WIDTH/2, 4*(1+UI_TITLE_HEIGHT)+1);  
 378:user_interface.c ****     //ST7735_DrawString (s0, UI_COLOR_ICON_TEXT, X2);
 379:user_interface.c ****     
 380:user_interface.c ****     
 381:user_interface.c ****     
 382:user_interface.c ****     sprintf(s0, "CHGF:%d", chrg_fault);
 546              		.loc 1 382 0
 547 0084 0022     		movs	r2, #0
 548 0086 1049     		ldr	r1, .L37+32
 549 0088 01A8     		add	r0, sp, #4
 550 008a FFF7FEFF 		bl	sprintf
 551              	.LVL71:
 383:user_interface.c ****     //ST7735_DrawRectangle (2+2*(UI_TITLE_WIDTH/2), 1+UI_TITLE_WIDTH/2, 1+UI_TITLE_HEIGHT+1, 2*(1+U
 384:user_interface.c ****     //ST7735_SetPosition (2+2*(UI_TITLE_WIDTH/2), 1+UI_TITLE_HEIGHT+1);  
 385:user_interface.c ****     //ST7735_DrawString (s0, UI_COLOR_ICON_TEXT, X2);
 386:user_interface.c ****     
 387:user_interface.c ****     sprintf(s0, "BATF:%d", bat_fault);
 552              		.loc 1 387 0
 553 008e 2A46     		mov	r2, r5
 554 0090 0E49     		ldr	r1, .L37+36
 555 0092 01A8     		add	r0, sp, #4
 556 0094 FFF7FEFF 		bl	sprintf
 557              	.LVL72:
 388:user_interface.c ****     //ST7735_DrawRectangle (2+2*(UI_TITLE_WIDTH/2), 1+UI_TITLE_WIDTH/2, 2*(1+UI_TITLE_HEIGHT)+1, 3*
 389:user_interface.c ****     //ST7735_SetPosition (2+2*(UI_TITLE_WIDTH/2), 2*(1+UI_TITLE_HEIGHT)+1);  
 390:user_interface.c ****     //ST7735_DrawString (s0, UI_COLOR_ICON_TEXT, X2);
 391:user_interface.c ****     
 392:user_interface.c ****     sprintf(s0, "NTCF:%d", ntc_fault);
 558              		.loc 1 392 0
 559 0098 2246     		mov	r2, r4
 560 009a 0D49     		ldr	r1, .L37+40
 561 009c 01A8     		add	r0, sp, #4
 562 009e FFF7FEFF 		bl	sprintf
 563              	.LVL73:
 393:user_interface.c ****     //ST7735_DrawRectangle (2+2*(UI_TITLE_WIDTH/2), 1+UI_TITLE_WIDTH, 3*(1+UI_TITLE_HEIGHT)+1, 4*(1
 394:user_interface.c ****     //ST7735_SetPosition (2+2*(UI_TITLE_WIDTH/2), 3*(1+UI_TITLE_HEIGHT)+1);  
 395:user_interface.c ****     //ST7735_DrawString (s0, UI_COLOR_ICON_TEXT, X2);
 396:user_interface.c **** 
 397:user_interface.c **** #endif
 398:user_interface.c ****     
 399:user_interface.c **** }
 564              		.loc 1 399 0
 565 00a2 08B0     		add	sp, sp, #32
 566              		.cfi_def_cfa_offset 24
 567              		@ sp needed
ARM GAS  C:\Users\haske\AppData\Local\Temp\ccWSfRiA.s 			page 18


 568 00a4 BDE8F081 		pop	{r4, r5, r6, r7, r8, pc}
 569              	.LVL74:
 570              	.L38:
 571              		.align	2
 572              	.L37:
 573 00a8 10000000 		.word	.LC3
 574 00ac 18000000 		.word	.LC4
 575 00b0 20000000 		.word	.LC5
 576 00b4 28000000 		.word	.LC6
 577 00b8 30000000 		.word	.LC7
 578 00bc 3C000000 		.word	.LC8
 579 00c0 44000000 		.word	.LC9
 580 00c4 4C000000 		.word	.LC10
 581 00c8 54000000 		.word	.LC11
 582 00cc 5C000000 		.word	.LC12
 583 00d0 64000000 		.word	.LC13
 584              		.cfi_endproc
 585              	.LFE974:
 586              		.size	ui_draw_diag, .-ui_draw_diag
 587              		.section	.text.ui_tens_task,"ax",%progbits
 588              		.align	2
 589              		.global	ui_tens_task
 590              		.thumb
 591              		.thumb_func
 592              		.type	ui_tens_task, %function
 593              	ui_tens_task:
 594              	.LFB975:
 400:user_interface.c **** 
 401:user_interface.c **** 
 402:user_interface.c **** /*******************************************************************************
 403:user_interface.c **** * Function Name: void tens_task
 404:user_interface.c **** ********************************************************************************
 405:user_interface.c **** *
 406:user_interface.c **** * Parameter:    None
 407:user_interface.c **** *
 408:user_interface.c **** * Summary:
 409:user_interface.c **** *   TENS task
 410:user_interface.c **** *
 411:user_interface.c **** *******************************************************************************/
 412:user_interface.c **** void ui_tens_task( void ) {
 595              		.loc 1 412 0
 596              		.cfi_startproc
 597              		@ args = 0, pretend = 0, frame = 0
 598              		@ frame_needed = 0, uses_anonymous_args = 0
 599 0000 2DE9F84F 		push	{r3, r4, r5, r6, r7, r8, r9, r10, fp, lr}
 600              		.cfi_def_cfa_offset 40
 601              		.cfi_offset 3, -40
 602              		.cfi_offset 4, -36
 603              		.cfi_offset 5, -32
 604              		.cfi_offset 6, -28
 605              		.cfi_offset 7, -24
 606              		.cfi_offset 8, -20
 607              		.cfi_offset 9, -16
 608              		.cfi_offset 10, -12
 609              		.cfi_offset 11, -8
 610              		.cfi_offset 14, -4
 413:user_interface.c ****     
ARM GAS  C:\Users\haske\AppData\Local\Temp\ccWSfRiA.s 			page 19


 414:user_interface.c ****     if (tens_timeout == 0) {
 611              		.loc 1 414 0
 612 0004 204B     		ldr	r3, .L42
 613 0006 1B68     		ldr	r3, [r3]
 614 0008 002B     		cmp	r3, #0
 615 000a 3BD1     		bne	.L39
 616              	.LVL75:
 617              	.LBB98:
 618              	.LBB99:
 619              		.file 2 "Generated_Source\\PSoC6\\pdl\\drivers/peripheral/gpio/cy_gpio.h"
   1:Generated_Source\PSoC6\pdl\drivers/peripheral/gpio/cy_gpio.h **** /***************************************************************************//**
   2:Generated_Source\PSoC6\pdl\drivers/peripheral/gpio/cy_gpio.h **** * \file cy_gpio.h
   3:Generated_Source\PSoC6\pdl\drivers/peripheral/gpio/cy_gpio.h **** * \version 1.20
   4:Generated_Source\PSoC6\pdl\drivers/peripheral/gpio/cy_gpio.h **** *
   5:Generated_Source\PSoC6\pdl\drivers/peripheral/gpio/cy_gpio.h **** * Provides an API declaration of the GPIO driver
   6:Generated_Source\PSoC6\pdl\drivers/peripheral/gpio/cy_gpio.h **** *
   7:Generated_Source\PSoC6\pdl\drivers/peripheral/gpio/cy_gpio.h **** ********************************************************************************
   8:Generated_Source\PSoC6\pdl\drivers/peripheral/gpio/cy_gpio.h **** * \copyright
   9:Generated_Source\PSoC6\pdl\drivers/peripheral/gpio/cy_gpio.h **** * Copyright 2016-2018, Cypress Semiconductor Corporation. All rights reserved.
  10:Generated_Source\PSoC6\pdl\drivers/peripheral/gpio/cy_gpio.h **** * You may use this file only in accordance with the license, terms, conditions,
  11:Generated_Source\PSoC6\pdl\drivers/peripheral/gpio/cy_gpio.h **** * disclaimers, and limitations in the end user license agreement accompanying
  12:Generated_Source\PSoC6\pdl\drivers/peripheral/gpio/cy_gpio.h **** * the software package with which this file was provided.
  13:Generated_Source\PSoC6\pdl\drivers/peripheral/gpio/cy_gpio.h **** *******************************************************************************/
  14:Generated_Source\PSoC6\pdl\drivers/peripheral/gpio/cy_gpio.h **** 
  15:Generated_Source\PSoC6\pdl\drivers/peripheral/gpio/cy_gpio.h **** /**
  16:Generated_Source\PSoC6\pdl\drivers/peripheral/gpio/cy_gpio.h **** * \addtogroup group_gpio
  17:Generated_Source\PSoC6\pdl\drivers/peripheral/gpio/cy_gpio.h **** * \{
  18:Generated_Source\PSoC6\pdl\drivers/peripheral/gpio/cy_gpio.h **** * The GPIO driver provides an API to configure and access device Input/Output pins.
  19:Generated_Source\PSoC6\pdl\drivers/peripheral/gpio/cy_gpio.h **** *
  20:Generated_Source\PSoC6\pdl\drivers/peripheral/gpio/cy_gpio.h **** * The functions and other declarations used in this driver are in cy_gpio.h. 
  21:Generated_Source\PSoC6\pdl\drivers/peripheral/gpio/cy_gpio.h **** * You can include cy_pdl.h (ModusToolbox only) to get access to all functions 
  22:Generated_Source\PSoC6\pdl\drivers/peripheral/gpio/cy_gpio.h **** * and declarations in the PDL.
  23:Generated_Source\PSoC6\pdl\drivers/peripheral/gpio/cy_gpio.h **** *
  24:Generated_Source\PSoC6\pdl\drivers/peripheral/gpio/cy_gpio.h **** * IO pins include all general purpose types such as GPIO, SIO, HSIO, AUXIO, and
  25:Generated_Source\PSoC6\pdl\drivers/peripheral/gpio/cy_gpio.h **** * their variants.
  26:Generated_Source\PSoC6\pdl\drivers/peripheral/gpio/cy_gpio.h **** *
  27:Generated_Source\PSoC6\pdl\drivers/peripheral/gpio/cy_gpio.h **** * Initialization can be performed either at the port level or by configuring the
  28:Generated_Source\PSoC6\pdl\drivers/peripheral/gpio/cy_gpio.h **** * individual pins. For efficient use of code space, port
  29:Generated_Source\PSoC6\pdl\drivers/peripheral/gpio/cy_gpio.h **** * configuration should be used in the field. Refer to the product device header files 
  30:Generated_Source\PSoC6\pdl\drivers/peripheral/gpio/cy_gpio.h **** * for the list of supported ports and pins.
  31:Generated_Source\PSoC6\pdl\drivers/peripheral/gpio/cy_gpio.h **** * 
  32:Generated_Source\PSoC6\pdl\drivers/peripheral/gpio/cy_gpio.h **** * - Single pin configuration is performed by using \ref Cy_GPIO_Pin_FastInit 
  33:Generated_Source\PSoC6\pdl\drivers/peripheral/gpio/cy_gpio.h **** *   (provide specific values) or \ref Cy_GPIO_Pin_Init (provide a filled
  34:Generated_Source\PSoC6\pdl\drivers/peripheral/gpio/cy_gpio.h **** *   cy_stc_gpio_pin_config_t structure).
  35:Generated_Source\PSoC6\pdl\drivers/peripheral/gpio/cy_gpio.h **** * - An entire port can be configured using \ref Cy_GPIO_Port_Init. Provide a filled 
  36:Generated_Source\PSoC6\pdl\drivers/peripheral/gpio/cy_gpio.h **** *   cy_stc_gpio_prt_config_t structure. The values in the structure are 
  37:Generated_Source\PSoC6\pdl\drivers/peripheral/gpio/cy_gpio.h **** *   bitfields representing the desired value for each pin in the port.
  38:Generated_Source\PSoC6\pdl\drivers/peripheral/gpio/cy_gpio.h **** * - Pin configuration and management is based on the port address and pin number.
  39:Generated_Source\PSoC6\pdl\drivers/peripheral/gpio/cy_gpio.h **** *   \ref Cy_GPIO_PortToAddr function can optionally be used to calculate the port
  40:Generated_Source\PSoC6\pdl\drivers/peripheral/gpio/cy_gpio.h **** *   address from the port number at run-time.
  41:Generated_Source\PSoC6\pdl\drivers/peripheral/gpio/cy_gpio.h **** *
  42:Generated_Source\PSoC6\pdl\drivers/peripheral/gpio/cy_gpio.h **** * Once the pin/port initialization is complete, each pin can be accessed by 
  43:Generated_Source\PSoC6\pdl\drivers/peripheral/gpio/cy_gpio.h **** * specifying the port (GPIO_PRT_Type) and the pin (0-7) in the provided API 
  44:Generated_Source\PSoC6\pdl\drivers/peripheral/gpio/cy_gpio.h **** * functions.
  45:Generated_Source\PSoC6\pdl\drivers/peripheral/gpio/cy_gpio.h **** *
  46:Generated_Source\PSoC6\pdl\drivers/peripheral/gpio/cy_gpio.h **** * \section group_gpio_configuration Configuration Considerations
  47:Generated_Source\PSoC6\pdl\drivers/peripheral/gpio/cy_gpio.h **** *
ARM GAS  C:\Users\haske\AppData\Local\Temp\ccWSfRiA.s 			page 20


  48:Generated_Source\PSoC6\pdl\drivers/peripheral/gpio/cy_gpio.h **** * 1. Pin multiplexing is controlled through the High-Speed IO Matrix (HSIOM) selection.
  49:Generated_Source\PSoC6\pdl\drivers/peripheral/gpio/cy_gpio.h **** *    This allows the pin to connect to signal sources/sinks throughout the device,
  50:Generated_Source\PSoC6\pdl\drivers/peripheral/gpio/cy_gpio.h **** *    as defined by the pin HSIOM selection options (en_hsiom_sel_t).
  51:Generated_Source\PSoC6\pdl\drivers/peripheral/gpio/cy_gpio.h **** * 2. All pins are initialized to High-Z drive mode with HSIOM connected to CPU (SW
  52:Generated_Source\PSoC6\pdl\drivers/peripheral/gpio/cy_gpio.h **** *    control digital pin only) at Power-On-Reset(POR).
  53:Generated_Source\PSoC6\pdl\drivers/peripheral/gpio/cy_gpio.h **** * 3. Some API functions perform read-modify-write operations on shared port
  54:Generated_Source\PSoC6\pdl\drivers/peripheral/gpio/cy_gpio.h **** *    registers. These functions are not thread safe and care must be taken when
  55:Generated_Source\PSoC6\pdl\drivers/peripheral/gpio/cy_gpio.h **** *    called by the application.
  56:Generated_Source\PSoC6\pdl\drivers/peripheral/gpio/cy_gpio.h **** * 4. Digital input buffer provides a high-impedance buffer for the external 
  57:Generated_Source\PSoC6\pdl\drivers/peripheral/gpio/cy_gpio.h **** *    digital input. The input buffer is connected to the HSIOM for routing to 
  58:Generated_Source\PSoC6\pdl\drivers/peripheral/gpio/cy_gpio.h **** *    the CPU port registers and selected peripheral. Enabling the input 
  59:Generated_Source\PSoC6\pdl\drivers/peripheral/gpio/cy_gpio.h **** *    buffer provides possibility to read the pin state via the CPU.
  60:Generated_Source\PSoC6\pdl\drivers/peripheral/gpio/cy_gpio.h **** *    If pin is connected to an analog signal, the input buffer should be 
  61:Generated_Source\PSoC6\pdl\drivers/peripheral/gpio/cy_gpio.h **** *    disabled to avoid crowbar currents. For more information refer to device 
  62:Generated_Source\PSoC6\pdl\drivers/peripheral/gpio/cy_gpio.h **** *    TRM and the device datasheet.
  63:Generated_Source\PSoC6\pdl\drivers/peripheral/gpio/cy_gpio.h **** *
  64:Generated_Source\PSoC6\pdl\drivers/peripheral/gpio/cy_gpio.h **** * Multiple pins on a port can be updated using direct port register writes with an
  65:Generated_Source\PSoC6\pdl\drivers/peripheral/gpio/cy_gpio.h **** * appropriate port mask. An example is shown below, highlighting the different ways of 
  66:Generated_Source\PSoC6\pdl\drivers/peripheral/gpio/cy_gpio.h **** * configuring Port 1 pins using:
  67:Generated_Source\PSoC6\pdl\drivers/peripheral/gpio/cy_gpio.h **** * 
  68:Generated_Source\PSoC6\pdl\drivers/peripheral/gpio/cy_gpio.h **** * - Port output data register
  69:Generated_Source\PSoC6\pdl\drivers/peripheral/gpio/cy_gpio.h **** * - Port output data set register
  70:Generated_Source\PSoC6\pdl\drivers/peripheral/gpio/cy_gpio.h **** * - Port output data clear register
  71:Generated_Source\PSoC6\pdl\drivers/peripheral/gpio/cy_gpio.h **** *
  72:Generated_Source\PSoC6\pdl\drivers/peripheral/gpio/cy_gpio.h **** * \snippet gpio/gpio_v1_10_sut_01.cydsn/main_cm4.c Cy_GPIO_Snippet
  73:Generated_Source\PSoC6\pdl\drivers/peripheral/gpio/cy_gpio.h **** *
  74:Generated_Source\PSoC6\pdl\drivers/peripheral/gpio/cy_gpio.h **** * \section group_gpio_more_information More Information
  75:Generated_Source\PSoC6\pdl\drivers/peripheral/gpio/cy_gpio.h **** *
  76:Generated_Source\PSoC6\pdl\drivers/peripheral/gpio/cy_gpio.h **** * Refer to the technical reference manual (TRM) and the device datasheet.
  77:Generated_Source\PSoC6\pdl\drivers/peripheral/gpio/cy_gpio.h **** *
  78:Generated_Source\PSoC6\pdl\drivers/peripheral/gpio/cy_gpio.h **** * \section group_gpio_MISRA MISRA-C Compliance
  79:Generated_Source\PSoC6\pdl\drivers/peripheral/gpio/cy_gpio.h **** * The GPIO driver has the following specific deviations:
  80:Generated_Source\PSoC6\pdl\drivers/peripheral/gpio/cy_gpio.h **** *
  81:Generated_Source\PSoC6\pdl\drivers/peripheral/gpio/cy_gpio.h **** * <table class="doxtable">
  82:Generated_Source\PSoC6\pdl\drivers/peripheral/gpio/cy_gpio.h **** *   <tr>
  83:Generated_Source\PSoC6\pdl\drivers/peripheral/gpio/cy_gpio.h **** *     <th>MISRA Rule</th>
  84:Generated_Source\PSoC6\pdl\drivers/peripheral/gpio/cy_gpio.h **** *     <th>Rule Class (Required/Advisory)</th>
  85:Generated_Source\PSoC6\pdl\drivers/peripheral/gpio/cy_gpio.h **** *     <th>Rule Description</th>
  86:Generated_Source\PSoC6\pdl\drivers/peripheral/gpio/cy_gpio.h **** *     <th>Description of Deviation(s)</th>
  87:Generated_Source\PSoC6\pdl\drivers/peripheral/gpio/cy_gpio.h **** *   </tr>
  88:Generated_Source\PSoC6\pdl\drivers/peripheral/gpio/cy_gpio.h **** *   <tr>
  89:Generated_Source\PSoC6\pdl\drivers/peripheral/gpio/cy_gpio.h **** *     <td>11.4</td>
  90:Generated_Source\PSoC6\pdl\drivers/peripheral/gpio/cy_gpio.h **** *     <td>A</td>
  91:Generated_Source\PSoC6\pdl\drivers/peripheral/gpio/cy_gpio.h **** *     <td>A cast should not be performed between a pointer to object type and
  92:Generated_Source\PSoC6\pdl\drivers/peripheral/gpio/cy_gpio.h **** *         a different pointer to object type.</td>
  93:Generated_Source\PSoC6\pdl\drivers/peripheral/gpio/cy_gpio.h **** *     <td> This code is safe because the elements of both GPIO_PRT_V1_Type and GPIO_PRT_V2_Type 
  94:Generated_Source\PSoC6\pdl\drivers/peripheral/gpio/cy_gpio.h **** *          types have identical alignment.</td>
  95:Generated_Source\PSoC6\pdl\drivers/peripheral/gpio/cy_gpio.h **** *   </tr>
  96:Generated_Source\PSoC6\pdl\drivers/peripheral/gpio/cy_gpio.h **** *   <tr>
  97:Generated_Source\PSoC6\pdl\drivers/peripheral/gpio/cy_gpio.h **** *     <td>16.7</td>
  98:Generated_Source\PSoC6\pdl\drivers/peripheral/gpio/cy_gpio.h **** *     <td>A</td>
  99:Generated_Source\PSoC6\pdl\drivers/peripheral/gpio/cy_gpio.h **** *     <td>A pointer parameter in a function prototype should be declared as pointer 
 100:Generated_Source\PSoC6\pdl\drivers/peripheral/gpio/cy_gpio.h **** *         to const if the pointer is not used to modify the addressed object.</td>
 101:Generated_Source\PSoC6\pdl\drivers/peripheral/gpio/cy_gpio.h **** *     <td>The objects pointed to by the base addresses of the GPIO port are not always modified.
 102:Generated_Source\PSoC6\pdl\drivers/peripheral/gpio/cy_gpio.h **** *         While a const qualifier can be used in select scenarios, it brings little benefit
 103:Generated_Source\PSoC6\pdl\drivers/peripheral/gpio/cy_gpio.h **** *         in adding this to the affected functions. </td>
 104:Generated_Source\PSoC6\pdl\drivers/peripheral/gpio/cy_gpio.h **** *   </tr>
ARM GAS  C:\Users\haske\AppData\Local\Temp\ccWSfRiA.s 			page 21


 105:Generated_Source\PSoC6\pdl\drivers/peripheral/gpio/cy_gpio.h **** * </table>
 106:Generated_Source\PSoC6\pdl\drivers/peripheral/gpio/cy_gpio.h **** *
 107:Generated_Source\PSoC6\pdl\drivers/peripheral/gpio/cy_gpio.h **** * \section group_gpio_changelog Changelog
 108:Generated_Source\PSoC6\pdl\drivers/peripheral/gpio/cy_gpio.h **** * <table class="doxtable">
 109:Generated_Source\PSoC6\pdl\drivers/peripheral/gpio/cy_gpio.h **** *   <tr><th>Version</th><th>Changes</th><th>Reason for Change</th></tr>
 110:Generated_Source\PSoC6\pdl\drivers/peripheral/gpio/cy_gpio.h **** *   <tr>
 111:Generated_Source\PSoC6\pdl\drivers/peripheral/gpio/cy_gpio.h **** *     <td rowspan="3">1.20</td>
 112:Generated_Source\PSoC6\pdl\drivers/peripheral/gpio/cy_gpio.h **** *     <td>Flattened the organization of the driver source code into the single source directory and
 113:Generated_Source\PSoC6\pdl\drivers/peripheral/gpio/cy_gpio.h **** *     <td>Driver library directory-structure simplification.</td>
 114:Generated_Source\PSoC6\pdl\drivers/peripheral/gpio/cy_gpio.h **** *   </tr>
 115:Generated_Source\PSoC6\pdl\drivers/peripheral/gpio/cy_gpio.h **** *   <tr>
 116:Generated_Source\PSoC6\pdl\drivers/peripheral/gpio/cy_gpio.h **** *     <td>Added the functions for configuring the AMux bus splitter switch cells:
 117:Generated_Source\PSoC6\pdl\drivers/peripheral/gpio/cy_gpio.h **** *     - \ref Cy_GPIO_SetAmuxSplit
 118:Generated_Source\PSoC6\pdl\drivers/peripheral/gpio/cy_gpio.h **** *     - \ref Cy_GPIO_GetAmuxSplit
 119:Generated_Source\PSoC6\pdl\drivers/peripheral/gpio/cy_gpio.h **** *     </td>
 120:Generated_Source\PSoC6\pdl\drivers/peripheral/gpio/cy_gpio.h **** *     <td>Added a new functionality related to AMux bus.</td>
 121:Generated_Source\PSoC6\pdl\drivers/peripheral/gpio/cy_gpio.h **** *   </tr>
 122:Generated_Source\PSoC6\pdl\drivers/peripheral/gpio/cy_gpio.h **** *   <tr>
 123:Generated_Source\PSoC6\pdl\drivers/peripheral/gpio/cy_gpio.h **** *     <td>Added register access layer. Use register access macros instead
 124:Generated_Source\PSoC6\pdl\drivers/peripheral/gpio/cy_gpio.h **** *         of direct register access using dereferenced pointers.</td>
 125:Generated_Source\PSoC6\pdl\drivers/peripheral/gpio/cy_gpio.h **** *     <td>Makes register access device-independent, so that the PDL does 
 126:Generated_Source\PSoC6\pdl\drivers/peripheral/gpio/cy_gpio.h **** *         not need to be recompiled for each supported part number.</td>
 127:Generated_Source\PSoC6\pdl\drivers/peripheral/gpio/cy_gpio.h **** *   </tr>
 128:Generated_Source\PSoC6\pdl\drivers/peripheral/gpio/cy_gpio.h **** *   <tr>
 129:Generated_Source\PSoC6\pdl\drivers/peripheral/gpio/cy_gpio.h **** *     <td>1.10.1</td>
 130:Generated_Source\PSoC6\pdl\drivers/peripheral/gpio/cy_gpio.h **** *     <td>Updated description for the functions: \ref Cy_GPIO_GetInterruptStatus, 
 131:Generated_Source\PSoC6\pdl\drivers/peripheral/gpio/cy_gpio.h **** *         \ref Cy_GPIO_GetInterruptMask, \ref Cy_GPIO_GetInterruptStatusMasked.
 132:Generated_Source\PSoC6\pdl\drivers/peripheral/gpio/cy_gpio.h **** *
 133:Generated_Source\PSoC6\pdl\drivers/peripheral/gpio/cy_gpio.h **** *         Minor documentation edits.
 134:Generated_Source\PSoC6\pdl\drivers/peripheral/gpio/cy_gpio.h **** *     </td>
 135:Generated_Source\PSoC6\pdl\drivers/peripheral/gpio/cy_gpio.h **** *     <td>Documentation update and clarification</td>
 136:Generated_Source\PSoC6\pdl\drivers/peripheral/gpio/cy_gpio.h **** *   </tr>
 137:Generated_Source\PSoC6\pdl\drivers/peripheral/gpio/cy_gpio.h **** *   <tr>
 138:Generated_Source\PSoC6\pdl\drivers/peripheral/gpio/cy_gpio.h **** *     <td>1.10</td>
 139:Generated_Source\PSoC6\pdl\drivers/peripheral/gpio/cy_gpio.h **** *     <td>Added input parameter validation to the API functions</td>
 140:Generated_Source\PSoC6\pdl\drivers/peripheral/gpio/cy_gpio.h **** *     <td></td>
 141:Generated_Source\PSoC6\pdl\drivers/peripheral/gpio/cy_gpio.h **** *   </tr>
 142:Generated_Source\PSoC6\pdl\drivers/peripheral/gpio/cy_gpio.h **** *   <tr>
 143:Generated_Source\PSoC6\pdl\drivers/peripheral/gpio/cy_gpio.h **** *     <td>1.0</td>
 144:Generated_Source\PSoC6\pdl\drivers/peripheral/gpio/cy_gpio.h **** *     <td>Initial version</td>
 145:Generated_Source\PSoC6\pdl\drivers/peripheral/gpio/cy_gpio.h **** *     <td></td>
 146:Generated_Source\PSoC6\pdl\drivers/peripheral/gpio/cy_gpio.h **** *   </tr>
 147:Generated_Source\PSoC6\pdl\drivers/peripheral/gpio/cy_gpio.h **** * </table>
 148:Generated_Source\PSoC6\pdl\drivers/peripheral/gpio/cy_gpio.h **** *
 149:Generated_Source\PSoC6\pdl\drivers/peripheral/gpio/cy_gpio.h **** * \defgroup group_gpio_macros Macros
 150:Generated_Source\PSoC6\pdl\drivers/peripheral/gpio/cy_gpio.h **** * \defgroup group_gpio_functions Functions
 151:Generated_Source\PSoC6\pdl\drivers/peripheral/gpio/cy_gpio.h **** * \{
 152:Generated_Source\PSoC6\pdl\drivers/peripheral/gpio/cy_gpio.h **** *   \defgroup group_gpio_functions_init       Initialization Functions
 153:Generated_Source\PSoC6\pdl\drivers/peripheral/gpio/cy_gpio.h **** *   \defgroup group_gpio_functions_gpio       GPIO Functions
 154:Generated_Source\PSoC6\pdl\drivers/peripheral/gpio/cy_gpio.h **** *   \defgroup group_gpio_functions_sio        SIO Functions
 155:Generated_Source\PSoC6\pdl\drivers/peripheral/gpio/cy_gpio.h **** *   \defgroup group_gpio_functions_interrupt  Port Interrupt Functions
 156:Generated_Source\PSoC6\pdl\drivers/peripheral/gpio/cy_gpio.h **** * \}
 157:Generated_Source\PSoC6\pdl\drivers/peripheral/gpio/cy_gpio.h **** * \defgroup group_gpio_data_structures Data Structures
 158:Generated_Source\PSoC6\pdl\drivers/peripheral/gpio/cy_gpio.h **** * \defgroup group_gpio_enums Enumerated Types
 159:Generated_Source\PSoC6\pdl\drivers/peripheral/gpio/cy_gpio.h **** */
 160:Generated_Source\PSoC6\pdl\drivers/peripheral/gpio/cy_gpio.h **** 
 161:Generated_Source\PSoC6\pdl\drivers/peripheral/gpio/cy_gpio.h **** #if !defined(CY_GPIO_H)
ARM GAS  C:\Users\haske\AppData\Local\Temp\ccWSfRiA.s 			page 22


 162:Generated_Source\PSoC6\pdl\drivers/peripheral/gpio/cy_gpio.h **** #define CY_GPIO_H
 163:Generated_Source\PSoC6\pdl\drivers/peripheral/gpio/cy_gpio.h **** 
 164:Generated_Source\PSoC6\pdl\drivers/peripheral/gpio/cy_gpio.h **** #include <stddef.h>
 165:Generated_Source\PSoC6\pdl\drivers/peripheral/gpio/cy_gpio.h **** #include "cy_device.h"
 166:Generated_Source\PSoC6\pdl\drivers/peripheral/gpio/cy_gpio.h **** #include "cy_device_headers.h"
 167:Generated_Source\PSoC6\pdl\drivers/peripheral/gpio/cy_gpio.h **** #include "cy_syslib.h"
 168:Generated_Source\PSoC6\pdl\drivers/peripheral/gpio/cy_gpio.h **** 
 169:Generated_Source\PSoC6\pdl\drivers/peripheral/gpio/cy_gpio.h **** #if defined(__cplusplus)
 170:Generated_Source\PSoC6\pdl\drivers/peripheral/gpio/cy_gpio.h **** extern "C" {
 171:Generated_Source\PSoC6\pdl\drivers/peripheral/gpio/cy_gpio.h **** #endif
 172:Generated_Source\PSoC6\pdl\drivers/peripheral/gpio/cy_gpio.h **** 
 173:Generated_Source\PSoC6\pdl\drivers/peripheral/gpio/cy_gpio.h **** /** \addtogroup group_gpio_macros
 174:Generated_Source\PSoC6\pdl\drivers/peripheral/gpio/cy_gpio.h **** * \{
 175:Generated_Source\PSoC6\pdl\drivers/peripheral/gpio/cy_gpio.h **** */
 176:Generated_Source\PSoC6\pdl\drivers/peripheral/gpio/cy_gpio.h **** 
 177:Generated_Source\PSoC6\pdl\drivers/peripheral/gpio/cy_gpio.h **** /** Driver major version */
 178:Generated_Source\PSoC6\pdl\drivers/peripheral/gpio/cy_gpio.h **** #define CY_GPIO_DRV_VERSION_MAJOR       1
 179:Generated_Source\PSoC6\pdl\drivers/peripheral/gpio/cy_gpio.h **** 
 180:Generated_Source\PSoC6\pdl\drivers/peripheral/gpio/cy_gpio.h **** /** Driver minor version */
 181:Generated_Source\PSoC6\pdl\drivers/peripheral/gpio/cy_gpio.h **** #define CY_GPIO_DRV_VERSION_MINOR       20
 182:Generated_Source\PSoC6\pdl\drivers/peripheral/gpio/cy_gpio.h **** 
 183:Generated_Source\PSoC6\pdl\drivers/peripheral/gpio/cy_gpio.h **** /** GPIO driver ID */
 184:Generated_Source\PSoC6\pdl\drivers/peripheral/gpio/cy_gpio.h **** #define CY_GPIO_ID CY_PDL_DRV_ID(0x16U)
 185:Generated_Source\PSoC6\pdl\drivers/peripheral/gpio/cy_gpio.h **** 
 186:Generated_Source\PSoC6\pdl\drivers/peripheral/gpio/cy_gpio.h **** /** \} group_gpio_macros */
 187:Generated_Source\PSoC6\pdl\drivers/peripheral/gpio/cy_gpio.h **** 
 188:Generated_Source\PSoC6\pdl\drivers/peripheral/gpio/cy_gpio.h **** 
 189:Generated_Source\PSoC6\pdl\drivers/peripheral/gpio/cy_gpio.h **** /***************************************
 190:Generated_Source\PSoC6\pdl\drivers/peripheral/gpio/cy_gpio.h **** *       Enumerations
 191:Generated_Source\PSoC6\pdl\drivers/peripheral/gpio/cy_gpio.h **** ***************************************/
 192:Generated_Source\PSoC6\pdl\drivers/peripheral/gpio/cy_gpio.h **** /**
 193:Generated_Source\PSoC6\pdl\drivers/peripheral/gpio/cy_gpio.h **** * \addtogroup group_gpio_enums
 194:Generated_Source\PSoC6\pdl\drivers/peripheral/gpio/cy_gpio.h **** * \{
 195:Generated_Source\PSoC6\pdl\drivers/peripheral/gpio/cy_gpio.h **** */
 196:Generated_Source\PSoC6\pdl\drivers/peripheral/gpio/cy_gpio.h **** 
 197:Generated_Source\PSoC6\pdl\drivers/peripheral/gpio/cy_gpio.h **** /** GPIO Driver error codes */
 198:Generated_Source\PSoC6\pdl\drivers/peripheral/gpio/cy_gpio.h **** typedef enum 
 199:Generated_Source\PSoC6\pdl\drivers/peripheral/gpio/cy_gpio.h **** {
 200:Generated_Source\PSoC6\pdl\drivers/peripheral/gpio/cy_gpio.h ****     CY_GPIO_SUCCESS   = 0x00U,                                    /**< Returned successful */
 201:Generated_Source\PSoC6\pdl\drivers/peripheral/gpio/cy_gpio.h ****     CY_GPIO_BAD_PARAM = CY_GPIO_ID | CY_PDL_STATUS_ERROR | 0x01U, /**< Bad parameter was passed */
 202:Generated_Source\PSoC6\pdl\drivers/peripheral/gpio/cy_gpio.h **** } cy_en_gpio_status_t;
 203:Generated_Source\PSoC6\pdl\drivers/peripheral/gpio/cy_gpio.h **** 
 204:Generated_Source\PSoC6\pdl\drivers/peripheral/gpio/cy_gpio.h **** /** AMux switch open/close config */
 205:Generated_Source\PSoC6\pdl\drivers/peripheral/gpio/cy_gpio.h **** typedef enum
 206:Generated_Source\PSoC6\pdl\drivers/peripheral/gpio/cy_gpio.h **** {
 207:Generated_Source\PSoC6\pdl\drivers/peripheral/gpio/cy_gpio.h ****     CY_GPIO_AMUX_OPENALL,   /**< Open ground switch. Open right switch. Open left switch */
 208:Generated_Source\PSoC6\pdl\drivers/peripheral/gpio/cy_gpio.h ****     CY_GPIO_AMUX_L,         /**< Open ground switch. Open right switch. Close left switch */
 209:Generated_Source\PSoC6\pdl\drivers/peripheral/gpio/cy_gpio.h ****     CY_GPIO_AMUX_R,         /**< Open ground switch. Close right switch. Open left switch */
 210:Generated_Source\PSoC6\pdl\drivers/peripheral/gpio/cy_gpio.h ****     CY_GPIO_AMUX_LR,        /**< Open ground switch. Close right switch. Close left switch */
 211:Generated_Source\PSoC6\pdl\drivers/peripheral/gpio/cy_gpio.h ****     CY_GPIO_AMUX_G,         /**< Close ground switch. Open right switch. Open left switch */
 212:Generated_Source\PSoC6\pdl\drivers/peripheral/gpio/cy_gpio.h ****     CY_GPIO_AMUX_GL,        /**< Close ground switch. Open right switch. Close left switch */
 213:Generated_Source\PSoC6\pdl\drivers/peripheral/gpio/cy_gpio.h ****     CY_GPIO_AMUX_GR,        /**< Close ground switch. Close right switch. Open left switch */
 214:Generated_Source\PSoC6\pdl\drivers/peripheral/gpio/cy_gpio.h ****     CY_GPIO_AMUX_GLR,       /**< Close ground switch. Close right switch. Close left switch */
 215:Generated_Source\PSoC6\pdl\drivers/peripheral/gpio/cy_gpio.h **** }cy_en_gpio_amuxconnect_t;
 216:Generated_Source\PSoC6\pdl\drivers/peripheral/gpio/cy_gpio.h **** 
 217:Generated_Source\PSoC6\pdl\drivers/peripheral/gpio/cy_gpio.h **** /**
 218:Generated_Source\PSoC6\pdl\drivers/peripheral/gpio/cy_gpio.h **** * AMux Bus selection
ARM GAS  C:\Users\haske\AppData\Local\Temp\ccWSfRiA.s 			page 23


 219:Generated_Source\PSoC6\pdl\drivers/peripheral/gpio/cy_gpio.h **** */
 220:Generated_Source\PSoC6\pdl\drivers/peripheral/gpio/cy_gpio.h **** typedef enum
 221:Generated_Source\PSoC6\pdl\drivers/peripheral/gpio/cy_gpio.h **** {
 222:Generated_Source\PSoC6\pdl\drivers/peripheral/gpio/cy_gpio.h ****     CY_GPIO_AMUXBUSA,       /**< AMuxBus A */
 223:Generated_Source\PSoC6\pdl\drivers/peripheral/gpio/cy_gpio.h ****     CY_GPIO_AMUXBUSB        /**< AMuxBus B */
 224:Generated_Source\PSoC6\pdl\drivers/peripheral/gpio/cy_gpio.h **** }cy_en_gpio_amuxselect_t;
 225:Generated_Source\PSoC6\pdl\drivers/peripheral/gpio/cy_gpio.h **** 
 226:Generated_Source\PSoC6\pdl\drivers/peripheral/gpio/cy_gpio.h **** /** \} group_gpio_enums */
 227:Generated_Source\PSoC6\pdl\drivers/peripheral/gpio/cy_gpio.h **** 
 228:Generated_Source\PSoC6\pdl\drivers/peripheral/gpio/cy_gpio.h **** 
 229:Generated_Source\PSoC6\pdl\drivers/peripheral/gpio/cy_gpio.h **** /***************************************
 230:Generated_Source\PSoC6\pdl\drivers/peripheral/gpio/cy_gpio.h **** *       Configuration Structures
 231:Generated_Source\PSoC6\pdl\drivers/peripheral/gpio/cy_gpio.h **** ***************************************/
 232:Generated_Source\PSoC6\pdl\drivers/peripheral/gpio/cy_gpio.h **** 
 233:Generated_Source\PSoC6\pdl\drivers/peripheral/gpio/cy_gpio.h **** /**
 234:Generated_Source\PSoC6\pdl\drivers/peripheral/gpio/cy_gpio.h **** * \addtogroup group_gpio_data_structures
 235:Generated_Source\PSoC6\pdl\drivers/peripheral/gpio/cy_gpio.h **** * \{
 236:Generated_Source\PSoC6\pdl\drivers/peripheral/gpio/cy_gpio.h **** */
 237:Generated_Source\PSoC6\pdl\drivers/peripheral/gpio/cy_gpio.h **** 
 238:Generated_Source\PSoC6\pdl\drivers/peripheral/gpio/cy_gpio.h **** /** This structure is used to initialize a port of GPIO pins */
 239:Generated_Source\PSoC6\pdl\drivers/peripheral/gpio/cy_gpio.h **** typedef struct 
 240:Generated_Source\PSoC6\pdl\drivers/peripheral/gpio/cy_gpio.h **** {
 241:Generated_Source\PSoC6\pdl\drivers/peripheral/gpio/cy_gpio.h ****     uint32_t out;           /**< Initial output data for the IO pins in the port */
 242:Generated_Source\PSoC6\pdl\drivers/peripheral/gpio/cy_gpio.h ****     uint32_t intrMask;      /**< Interrupt enable mask for the port interrupt */
 243:Generated_Source\PSoC6\pdl\drivers/peripheral/gpio/cy_gpio.h ****     uint32_t intrCfg;       /**< Port pin interrupt edge detection configuration */
 244:Generated_Source\PSoC6\pdl\drivers/peripheral/gpio/cy_gpio.h ****     uint32_t cfg;           /**< Port pin drive modes and input buffer enable configuration */
 245:Generated_Source\PSoC6\pdl\drivers/peripheral/gpio/cy_gpio.h ****     uint32_t cfgIn;         /**< Port pin input buffer configuration */
 246:Generated_Source\PSoC6\pdl\drivers/peripheral/gpio/cy_gpio.h ****     uint32_t cfgOut;        /**< Port pin output buffer configuration */
 247:Generated_Source\PSoC6\pdl\drivers/peripheral/gpio/cy_gpio.h ****     uint32_t cfgSIO;        /**< Port SIO pins configuration */
 248:Generated_Source\PSoC6\pdl\drivers/peripheral/gpio/cy_gpio.h ****     uint32_t sel0Active;    /**< HSIOM selection for port pins 0,1,2,3 */
 249:Generated_Source\PSoC6\pdl\drivers/peripheral/gpio/cy_gpio.h ****     uint32_t sel1Active;    /**< HSIOM selection for port pins 4,5,6,7 */
 250:Generated_Source\PSoC6\pdl\drivers/peripheral/gpio/cy_gpio.h **** } cy_stc_gpio_prt_config_t;
 251:Generated_Source\PSoC6\pdl\drivers/peripheral/gpio/cy_gpio.h **** 
 252:Generated_Source\PSoC6\pdl\drivers/peripheral/gpio/cy_gpio.h **** /** This structure is used to initialize a single GPIO pin */
 253:Generated_Source\PSoC6\pdl\drivers/peripheral/gpio/cy_gpio.h **** typedef struct
 254:Generated_Source\PSoC6\pdl\drivers/peripheral/gpio/cy_gpio.h **** {
 255:Generated_Source\PSoC6\pdl\drivers/peripheral/gpio/cy_gpio.h ****     uint32_t outVal;         /**< Pin output state */
 256:Generated_Source\PSoC6\pdl\drivers/peripheral/gpio/cy_gpio.h ****     uint32_t driveMode;      /**< Drive mode */
 257:Generated_Source\PSoC6\pdl\drivers/peripheral/gpio/cy_gpio.h ****     en_hsiom_sel_t hsiom;    /**< HSIOM selection */
 258:Generated_Source\PSoC6\pdl\drivers/peripheral/gpio/cy_gpio.h ****     uint32_t intEdge;        /**< Interrupt Edge type */
 259:Generated_Source\PSoC6\pdl\drivers/peripheral/gpio/cy_gpio.h ****     uint32_t intMask;        /**< Interrupt enable mask */
 260:Generated_Source\PSoC6\pdl\drivers/peripheral/gpio/cy_gpio.h ****     uint32_t vtrip;          /**< Input buffer voltage trip type */
 261:Generated_Source\PSoC6\pdl\drivers/peripheral/gpio/cy_gpio.h ****     uint32_t slewRate;       /**< Output buffer slew rate */
 262:Generated_Source\PSoC6\pdl\drivers/peripheral/gpio/cy_gpio.h ****     uint32_t driveSel;       /**< Drive strength */
 263:Generated_Source\PSoC6\pdl\drivers/peripheral/gpio/cy_gpio.h ****     uint32_t vregEn;         /**< SIO pair output buffer mode */
 264:Generated_Source\PSoC6\pdl\drivers/peripheral/gpio/cy_gpio.h ****     uint32_t ibufMode;       /**< SIO pair input buffer mode */
 265:Generated_Source\PSoC6\pdl\drivers/peripheral/gpio/cy_gpio.h ****     uint32_t vtripSel;       /**< SIO pair input buffer trip point */
 266:Generated_Source\PSoC6\pdl\drivers/peripheral/gpio/cy_gpio.h ****     uint32_t vrefSel;        /**< SIO pair reference voltage for input buffer trip point */
 267:Generated_Source\PSoC6\pdl\drivers/peripheral/gpio/cy_gpio.h ****     uint32_t vohSel;         /**< SIO pair regulated voltage output level */
 268:Generated_Source\PSoC6\pdl\drivers/peripheral/gpio/cy_gpio.h **** } cy_stc_gpio_pin_config_t;
 269:Generated_Source\PSoC6\pdl\drivers/peripheral/gpio/cy_gpio.h **** 
 270:Generated_Source\PSoC6\pdl\drivers/peripheral/gpio/cy_gpio.h **** /** \} group_gpio_data_structures */
 271:Generated_Source\PSoC6\pdl\drivers/peripheral/gpio/cy_gpio.h **** 
 272:Generated_Source\PSoC6\pdl\drivers/peripheral/gpio/cy_gpio.h **** /***************************************
 273:Generated_Source\PSoC6\pdl\drivers/peripheral/gpio/cy_gpio.h **** *        Constants
 274:Generated_Source\PSoC6\pdl\drivers/peripheral/gpio/cy_gpio.h **** ***************************************/
 275:Generated_Source\PSoC6\pdl\drivers/peripheral/gpio/cy_gpio.h **** 
ARM GAS  C:\Users\haske\AppData\Local\Temp\ccWSfRiA.s 			page 24


 276:Generated_Source\PSoC6\pdl\drivers/peripheral/gpio/cy_gpio.h **** /** \cond INTERNAL */
 277:Generated_Source\PSoC6\pdl\drivers/peripheral/gpio/cy_gpio.h **** 
 278:Generated_Source\PSoC6\pdl\drivers/peripheral/gpio/cy_gpio.h **** /* General Constants */
 279:Generated_Source\PSoC6\pdl\drivers/peripheral/gpio/cy_gpio.h **** #define CY_GPIO_PRT_HALF                       (4UL)      /**< Half-way point of a GPIO port */
 280:Generated_Source\PSoC6\pdl\drivers/peripheral/gpio/cy_gpio.h **** #define CY_GPIO_PRT_DEINIT                     (0UL)      /**< De-init value for port registers */
 281:Generated_Source\PSoC6\pdl\drivers/peripheral/gpio/cy_gpio.h **** 
 282:Generated_Source\PSoC6\pdl\drivers/peripheral/gpio/cy_gpio.h **** /* GPIO Masks */
 283:Generated_Source\PSoC6\pdl\drivers/peripheral/gpio/cy_gpio.h **** #define CY_GPIO_HSIOM_MASK                     (0x1FUL)   /**< HSIOM selection mask */
 284:Generated_Source\PSoC6\pdl\drivers/peripheral/gpio/cy_gpio.h **** #define CY_GPIO_OUT_MASK                       (0x01UL)   /**< Single pin mask for OUT register */
 285:Generated_Source\PSoC6\pdl\drivers/peripheral/gpio/cy_gpio.h **** #define CY_GPIO_IN_MASK                        (0x01UL)   /**< Single pin mask for IN register */
 286:Generated_Source\PSoC6\pdl\drivers/peripheral/gpio/cy_gpio.h **** #define CY_GPIO_CFG_DM_MASK                    (0x0FUL)   /**< Single pin mask for drive mode in CF
 287:Generated_Source\PSoC6\pdl\drivers/peripheral/gpio/cy_gpio.h **** #define CY_GPIO_CFG_IN_VTRIP_SEL_MASK          (0x01UL)   /**< Single pin mask for VTRIP selection 
 288:Generated_Source\PSoC6\pdl\drivers/peripheral/gpio/cy_gpio.h **** #define CY_GPIO_CFG_OUT_SLOW_MASK              (0x01UL)   /**< Single pin mask for slew rate in CFG
 289:Generated_Source\PSoC6\pdl\drivers/peripheral/gpio/cy_gpio.h **** #define CY_GPIO_CFG_OUT_DRIVE_SEL_MASK         (0x03UL)   /**< Single pin mask for drive strength i
 290:Generated_Source\PSoC6\pdl\drivers/peripheral/gpio/cy_gpio.h **** #define CY_GPIO_INTR_STATUS_MASK               (0x01UL)   /**< Single pin mask for interrupt status
 291:Generated_Source\PSoC6\pdl\drivers/peripheral/gpio/cy_gpio.h **** #define CY_GPIO_INTR_EN_MASK                   (0x01UL)   /**< Single pin mask for interrupt status
 292:Generated_Source\PSoC6\pdl\drivers/peripheral/gpio/cy_gpio.h **** #define CY_GPIO_INTR_MASKED_MASK               (0x01UL)   /**< Single pin mask for masked interrupt
 293:Generated_Source\PSoC6\pdl\drivers/peripheral/gpio/cy_gpio.h **** #define CY_GPIO_INTR_SET_MASK                  (0x01UL)   /**< Single pin mask for setting the inte
 294:Generated_Source\PSoC6\pdl\drivers/peripheral/gpio/cy_gpio.h **** #define CY_GPIO_INTR_EDGE_MASK                 (0x03UL)   /**< Single pin mask for interrupt edge t
 295:Generated_Source\PSoC6\pdl\drivers/peripheral/gpio/cy_gpio.h **** #define CY_GPIO_INTR_FLT_EDGE_MASK             (0x07UL)   /**< Single pin mask for setting filtered
 296:Generated_Source\PSoC6\pdl\drivers/peripheral/gpio/cy_gpio.h **** 
 297:Generated_Source\PSoC6\pdl\drivers/peripheral/gpio/cy_gpio.h **** /* SIO Masks */
 298:Generated_Source\PSoC6\pdl\drivers/peripheral/gpio/cy_gpio.h **** #define CY_GPIO_VREG_EN_MASK                   (0x01UL)   /**< Single SIO pin mask for voltage regu
 299:Generated_Source\PSoC6\pdl\drivers/peripheral/gpio/cy_gpio.h **** #define CY_GPIO_IBUF_MASK                      (0x01UL)   /**< Single SIO pin mask for input buffer
 300:Generated_Source\PSoC6\pdl\drivers/peripheral/gpio/cy_gpio.h **** #define CY_GPIO_IBUF_SHIFT                     (0x01UL)   /**< Single SIO pin shift for input buffe
 301:Generated_Source\PSoC6\pdl\drivers/peripheral/gpio/cy_gpio.h **** #define CY_GPIO_VTRIP_SEL_MASK                 (0x01UL)   /**< Single SIO pin mask for the input bu
 302:Generated_Source\PSoC6\pdl\drivers/peripheral/gpio/cy_gpio.h **** #define CY_GPIO_VTRIP_SEL_SHIFT                (0x02UL)   /**< Single SIO pin shift for the input b
 303:Generated_Source\PSoC6\pdl\drivers/peripheral/gpio/cy_gpio.h **** #define CY_GPIO_VREF_SEL_MASK                  (0x03UL)   /**< Single SIO pin mask for voltage refe
 304:Generated_Source\PSoC6\pdl\drivers/peripheral/gpio/cy_gpio.h **** #define CY_GPIO_VREF_SEL_SHIFT                 (0x03UL)   /**< Single SIO pin shift for voltage ref
 305:Generated_Source\PSoC6\pdl\drivers/peripheral/gpio/cy_gpio.h **** #define CY_GPIO_VOH_SEL_MASK                   (0x07UL)   /**< Single SIO pin mask for VOH */
 306:Generated_Source\PSoC6\pdl\drivers/peripheral/gpio/cy_gpio.h **** #define CY_GPIO_VOH_SEL_SHIFT                  (0x05UL)   /**< Single SIO pin shift for VOH */
 307:Generated_Source\PSoC6\pdl\drivers/peripheral/gpio/cy_gpio.h **** 
 308:Generated_Source\PSoC6\pdl\drivers/peripheral/gpio/cy_gpio.h **** /* Special mask for SIO pin pair setting */
 309:Generated_Source\PSoC6\pdl\drivers/peripheral/gpio/cy_gpio.h **** #define CY_GPIO_SIO_ODD_PIN_MASK               (0x00FEUL) /**< SIO pin pair selection mask */
 310:Generated_Source\PSoC6\pdl\drivers/peripheral/gpio/cy_gpio.h **** #define CY_GPIO_SIO_PIN_MASK                   (0x00FFUL) /**< SIO pin pair mask */
 311:Generated_Source\PSoC6\pdl\drivers/peripheral/gpio/cy_gpio.h **** 
 312:Generated_Source\PSoC6\pdl\drivers/peripheral/gpio/cy_gpio.h **** /* Offsets */
 313:Generated_Source\PSoC6\pdl\drivers/peripheral/gpio/cy_gpio.h **** #define CY_GPIO_HSIOM_OFFSET                   (3UL)      /**< Offset for HSIOM */
 314:Generated_Source\PSoC6\pdl\drivers/peripheral/gpio/cy_gpio.h **** #define CY_GPIO_DRIVE_MODE_OFFSET              (2UL)      /**< Offset for Drive mode */
 315:Generated_Source\PSoC6\pdl\drivers/peripheral/gpio/cy_gpio.h **** #define CY_GPIO_INBUF_OFFSET                   (3UL)      /**< Offset for input buffer */
 316:Generated_Source\PSoC6\pdl\drivers/peripheral/gpio/cy_gpio.h **** #define CY_GPIO_CFG_OUT_DRIVE_OFFSET           (16UL)     /**< Offset for drive strength */
 317:Generated_Source\PSoC6\pdl\drivers/peripheral/gpio/cy_gpio.h **** #define CY_GPIO_INTR_CFG_OFFSET                (1UL)      /**< Offset for interrupt config */
 318:Generated_Source\PSoC6\pdl\drivers/peripheral/gpio/cy_gpio.h **** #define CY_GPIO_INTR_FILT_OFFSET               (18UL)     /**< Offset for filtered interrupt config
 319:Generated_Source\PSoC6\pdl\drivers/peripheral/gpio/cy_gpio.h **** #define CY_GPIO_CFG_SIO_OFFSET                 (2UL)      /**< Offset for SIO config */
 320:Generated_Source\PSoC6\pdl\drivers/peripheral/gpio/cy_gpio.h **** 
 321:Generated_Source\PSoC6\pdl\drivers/peripheral/gpio/cy_gpio.h **** /* Parameter validation constants */
 322:Generated_Source\PSoC6\pdl\drivers/peripheral/gpio/cy_gpio.h **** #define CY_GPIO_PINS_MAX                       (8UL)      /**< Number of pins in the port */
 323:Generated_Source\PSoC6\pdl\drivers/peripheral/gpio/cy_gpio.h **** #define CY_GPIO_PRT_PINS_MASK                  (0x0000000FFUL)
 324:Generated_Source\PSoC6\pdl\drivers/peripheral/gpio/cy_gpio.h **** #define CY_GPIO_PRT_INTR_CFG_EDGE_SEL_MASK     (GPIO_PRT_INTR_CFG_EDGE0_SEL_Msk | \
 325:Generated_Source\PSoC6\pdl\drivers/peripheral/gpio/cy_gpio.h ****                                                 GPIO_PRT_INTR_CFG_EDGE1_SEL_Msk | \
 326:Generated_Source\PSoC6\pdl\drivers/peripheral/gpio/cy_gpio.h ****                                                 GPIO_PRT_INTR_CFG_EDGE2_SEL_Msk | \
 327:Generated_Source\PSoC6\pdl\drivers/peripheral/gpio/cy_gpio.h ****                                                 GPIO_PRT_INTR_CFG_EDGE3_SEL_Msk | \
 328:Generated_Source\PSoC6\pdl\drivers/peripheral/gpio/cy_gpio.h ****                                                 GPIO_PRT_INTR_CFG_EDGE4_SEL_Msk | \
 329:Generated_Source\PSoC6\pdl\drivers/peripheral/gpio/cy_gpio.h ****                                                 GPIO_PRT_INTR_CFG_EDGE5_SEL_Msk | \
 330:Generated_Source\PSoC6\pdl\drivers/peripheral/gpio/cy_gpio.h ****                                                 GPIO_PRT_INTR_CFG_EDGE6_SEL_Msk | \
 331:Generated_Source\PSoC6\pdl\drivers/peripheral/gpio/cy_gpio.h ****                                                 GPIO_PRT_INTR_CFG_EDGE7_SEL_Msk)
 332:Generated_Source\PSoC6\pdl\drivers/peripheral/gpio/cy_gpio.h **** #define CY_GPIO_PRT_INTR_CFG_RANGE_MASK        (CY_GPIO_PRT_INTR_CFG_EDGE_SEL_MASK | \
ARM GAS  C:\Users\haske\AppData\Local\Temp\ccWSfRiA.s 			page 25


 333:Generated_Source\PSoC6\pdl\drivers/peripheral/gpio/cy_gpio.h ****                                                 GPIO_PRT_INTR_CFG_FLT_EDGE_SEL_Msk | \
 334:Generated_Source\PSoC6\pdl\drivers/peripheral/gpio/cy_gpio.h ****                                                 GPIO_PRT_INTR_CFG_FLT_SEL_Msk)
 335:Generated_Source\PSoC6\pdl\drivers/peripheral/gpio/cy_gpio.h **** #define CY_GPIO_PRT_INT_MASK_MASK              (0x0000001FFUL)
 336:Generated_Source\PSoC6\pdl\drivers/peripheral/gpio/cy_gpio.h **** #define CY_GPIO_PRT_SEL_ACTIVE_MASK            (0x1FFFFFFFUL)
 337:Generated_Source\PSoC6\pdl\drivers/peripheral/gpio/cy_gpio.h **** 
 338:Generated_Source\PSoC6\pdl\drivers/peripheral/gpio/cy_gpio.h **** #define GPIO_MAX_SPLIT_CELL_SEGMENTS           (9U)
 339:Generated_Source\PSoC6\pdl\drivers/peripheral/gpio/cy_gpio.h **** 
 340:Generated_Source\PSoC6\pdl\drivers/peripheral/gpio/cy_gpio.h **** /* Parameter validation macros */
 341:Generated_Source\PSoC6\pdl\drivers/peripheral/gpio/cy_gpio.h **** #define CY_GPIO_IS_PIN_VALID(pinNum)           (CY_GPIO_PINS_MAX > (pinNum))
 342:Generated_Source\PSoC6\pdl\drivers/peripheral/gpio/cy_gpio.h **** #define CY_GPIO_IS_FILTER_PIN_VALID(pinNum)    (CY_GPIO_PINS_MAX >= (pinNum))
 343:Generated_Source\PSoC6\pdl\drivers/peripheral/gpio/cy_gpio.h **** #define CY_GPIO_IS_VALUE_VALID(outVal)         (1UL >= (outVal))
 344:Generated_Source\PSoC6\pdl\drivers/peripheral/gpio/cy_gpio.h **** #define CY_GPIO_IS_DM_VALID(driveMode)         (0U == ((driveMode) & (uint32_t)~CY_GPIO_CFG_DM_MASK
 345:Generated_Source\PSoC6\pdl\drivers/peripheral/gpio/cy_gpio.h **** 
 346:Generated_Source\PSoC6\pdl\drivers/peripheral/gpio/cy_gpio.h **** #define CY_GPIO_IS_HSIOM_VALID(hsiom)          (0U == ((hsiom) & (uint32_t)~CY_GPIO_HSIOM_MASK))
 347:Generated_Source\PSoC6\pdl\drivers/peripheral/gpio/cy_gpio.h **** 
 348:Generated_Source\PSoC6\pdl\drivers/peripheral/gpio/cy_gpio.h **** #define CY_GPIO_IS_INT_EDGE_VALID(intEdge)     ((CY_GPIO_INTR_DISABLE  == (intEdge)) || \
 349:Generated_Source\PSoC6\pdl\drivers/peripheral/gpio/cy_gpio.h ****                                                 (CY_GPIO_INTR_RISING   == (intEdge)) || \
 350:Generated_Source\PSoC6\pdl\drivers/peripheral/gpio/cy_gpio.h ****                                                 (CY_GPIO_INTR_FALLING  == (intEdge)) || \
 351:Generated_Source\PSoC6\pdl\drivers/peripheral/gpio/cy_gpio.h ****                                                 (CY_GPIO_INTR_BOTH     == (intEdge)))
 352:Generated_Source\PSoC6\pdl\drivers/peripheral/gpio/cy_gpio.h **** 
 353:Generated_Source\PSoC6\pdl\drivers/peripheral/gpio/cy_gpio.h **** #define CY_GPIO_IS_DRIVE_SEL_VALID(driveSel)   ((CY_GPIO_DRIVE_FULL    == (driveSel)) || \
 354:Generated_Source\PSoC6\pdl\drivers/peripheral/gpio/cy_gpio.h ****                                                 (CY_GPIO_DRIVE_1_2     == (driveSel)) || \
 355:Generated_Source\PSoC6\pdl\drivers/peripheral/gpio/cy_gpio.h ****                                                 (CY_GPIO_DRIVE_1_4     == (driveSel)) || \
 356:Generated_Source\PSoC6\pdl\drivers/peripheral/gpio/cy_gpio.h ****                                                 (CY_GPIO_DRIVE_1_8     == (driveSel)))
 357:Generated_Source\PSoC6\pdl\drivers/peripheral/gpio/cy_gpio.h **** 
 358:Generated_Source\PSoC6\pdl\drivers/peripheral/gpio/cy_gpio.h **** #define CY_GPIO_IS_VREF_SEL_VALID(vrefSel)     ((CY_SIO_VREF_PINREF    == (vrefSel)) || \
 359:Generated_Source\PSoC6\pdl\drivers/peripheral/gpio/cy_gpio.h ****                                                 (CY_SIO_VREF_1_2V      == (vrefSel)) || \
 360:Generated_Source\PSoC6\pdl\drivers/peripheral/gpio/cy_gpio.h ****                                                 (CY_SIO_VREF_AMUX_A    == (vrefSel)) || \
 361:Generated_Source\PSoC6\pdl\drivers/peripheral/gpio/cy_gpio.h ****                                                 (CY_SIO_VREF_AMUX_B    == (vrefSel)))
 362:Generated_Source\PSoC6\pdl\drivers/peripheral/gpio/cy_gpio.h **** 
 363:Generated_Source\PSoC6\pdl\drivers/peripheral/gpio/cy_gpio.h **** #define CY_GPIO_IS_VOH_SEL_VALID(vrefSel)      ((CY_SIO_VOH_1_00       == (vrefSel)) || \
 364:Generated_Source\PSoC6\pdl\drivers/peripheral/gpio/cy_gpio.h ****                                                 (CY_SIO_VOH_1_25       == (vrefSel)) || \
 365:Generated_Source\PSoC6\pdl\drivers/peripheral/gpio/cy_gpio.h ****                                                 (CY_SIO_VOH_1_49       == (vrefSel)) || \
 366:Generated_Source\PSoC6\pdl\drivers/peripheral/gpio/cy_gpio.h ****                                                 (CY_SIO_VOH_1_67       == (vrefSel)) || \
 367:Generated_Source\PSoC6\pdl\drivers/peripheral/gpio/cy_gpio.h ****                                                 (CY_SIO_VOH_2_08       == (vrefSel)) || \
 368:Generated_Source\PSoC6\pdl\drivers/peripheral/gpio/cy_gpio.h ****                                                 (CY_SIO_VOH_2_50       == (vrefSel)) || \
 369:Generated_Source\PSoC6\pdl\drivers/peripheral/gpio/cy_gpio.h ****                                                 (CY_SIO_VOH_2_78       == (vrefSel)) || \
 370:Generated_Source\PSoC6\pdl\drivers/peripheral/gpio/cy_gpio.h ****                                                 (CY_SIO_VOH_4_16       == (vrefSel)))
 371:Generated_Source\PSoC6\pdl\drivers/peripheral/gpio/cy_gpio.h ****                    
 372:Generated_Source\PSoC6\pdl\drivers/peripheral/gpio/cy_gpio.h **** #define CY_GPIO_IS_PIN_BIT_VALID(pinBit)       (0U == ((pinBit) & (uint32_t)~CY_GPIO_PRT_PINS_MASK)
 373:Generated_Source\PSoC6\pdl\drivers/peripheral/gpio/cy_gpio.h **** #define CY_GPIO_IS_INTR_CFG_VALID(intrCfg)     (0U == ((intrCfg) & (uint32_t)~CY_GPIO_PRT_INTR_CFG_
 374:Generated_Source\PSoC6\pdl\drivers/peripheral/gpio/cy_gpio.h **** #define CY_GPIO_IS_INTR_MASK_VALID(intrMask)   (0U == ((intrMask) & (uint32_t)~CY_GPIO_PRT_INT_MASK
 375:Generated_Source\PSoC6\pdl\drivers/peripheral/gpio/cy_gpio.h **** #define CY_GPIO_IS_SEL_ACT_VALID(selActive)    (0U == ((selActive) & (uint32_t)~CY_GPIO_PRT_SEL_ACT
 376:Generated_Source\PSoC6\pdl\drivers/peripheral/gpio/cy_gpio.h **** 
 377:Generated_Source\PSoC6\pdl\drivers/peripheral/gpio/cy_gpio.h **** #define CY_GPIO_IS_AMUX_SPLIT_VALID(switchCtrl)       (((uint32_t) (switchCtrl)) < GPIO_MAX_SPLIT_C
 378:Generated_Source\PSoC6\pdl\drivers/peripheral/gpio/cy_gpio.h **** 
 379:Generated_Source\PSoC6\pdl\drivers/peripheral/gpio/cy_gpio.h **** #define CY_GPIO_IS_AMUX_CONNECT_VALID(amuxConnect)    ((CY_GPIO_AMUX_OPENALL == (amuxConnect)) || \
 380:Generated_Source\PSoC6\pdl\drivers/peripheral/gpio/cy_gpio.h ****                                                        (CY_GPIO_AMUX_L       == (amuxConnect)) || \
 381:Generated_Source\PSoC6\pdl\drivers/peripheral/gpio/cy_gpio.h ****                                                        (CY_GPIO_AMUX_R       == (amuxConnect)) || \
 382:Generated_Source\PSoC6\pdl\drivers/peripheral/gpio/cy_gpio.h ****                                                        (CY_GPIO_AMUX_LR      == (amuxConnect)) || \
 383:Generated_Source\PSoC6\pdl\drivers/peripheral/gpio/cy_gpio.h ****                                                        (CY_GPIO_AMUX_G       == (amuxConnect)) || \
 384:Generated_Source\PSoC6\pdl\drivers/peripheral/gpio/cy_gpio.h ****                                                        (CY_GPIO_AMUX_GL      == (amuxConnect)) || \
 385:Generated_Source\PSoC6\pdl\drivers/peripheral/gpio/cy_gpio.h ****                                                        (CY_GPIO_AMUX_GR      == (amuxConnect)) || \
 386:Generated_Source\PSoC6\pdl\drivers/peripheral/gpio/cy_gpio.h ****                                                        (CY_GPIO_AMUX_GLR     == (amuxConnect)))
 387:Generated_Source\PSoC6\pdl\drivers/peripheral/gpio/cy_gpio.h **** 
 388:Generated_Source\PSoC6\pdl\drivers/peripheral/gpio/cy_gpio.h **** #define CY_GPIO_IS_AMUX_SELECT_VALID(amuxBus)       ((CY_GPIO_AMUXBUSA       == (amuxBus)) || \
 389:Generated_Source\PSoC6\pdl\drivers/peripheral/gpio/cy_gpio.h ****                                                      (CY_GPIO_AMUXBUSB       == (amuxBus)))
ARM GAS  C:\Users\haske\AppData\Local\Temp\ccWSfRiA.s 			page 26


 390:Generated_Source\PSoC6\pdl\drivers/peripheral/gpio/cy_gpio.h **** /** \endcond */
 391:Generated_Source\PSoC6\pdl\drivers/peripheral/gpio/cy_gpio.h **** 
 392:Generated_Source\PSoC6\pdl\drivers/peripheral/gpio/cy_gpio.h **** 
 393:Generated_Source\PSoC6\pdl\drivers/peripheral/gpio/cy_gpio.h **** /***************************************
 394:Generated_Source\PSoC6\pdl\drivers/peripheral/gpio/cy_gpio.h **** *        Function Constants
 395:Generated_Source\PSoC6\pdl\drivers/peripheral/gpio/cy_gpio.h **** ***************************************/
 396:Generated_Source\PSoC6\pdl\drivers/peripheral/gpio/cy_gpio.h **** 
 397:Generated_Source\PSoC6\pdl\drivers/peripheral/gpio/cy_gpio.h **** /**
 398:Generated_Source\PSoC6\pdl\drivers/peripheral/gpio/cy_gpio.h **** * \addtogroup group_gpio_macros
 399:Generated_Source\PSoC6\pdl\drivers/peripheral/gpio/cy_gpio.h **** * \{
 400:Generated_Source\PSoC6\pdl\drivers/peripheral/gpio/cy_gpio.h **** */
 401:Generated_Source\PSoC6\pdl\drivers/peripheral/gpio/cy_gpio.h **** 
 402:Generated_Source\PSoC6\pdl\drivers/peripheral/gpio/cy_gpio.h **** /**
 403:Generated_Source\PSoC6\pdl\drivers/peripheral/gpio/cy_gpio.h **** * \defgroup group_gpio_driveModes Pin drive mode
 404:Generated_Source\PSoC6\pdl\drivers/peripheral/gpio/cy_gpio.h **** * \{
 405:Generated_Source\PSoC6\pdl\drivers/peripheral/gpio/cy_gpio.h **** * Constants to be used for setting the drive mode of the pin.
 406:Generated_Source\PSoC6\pdl\drivers/peripheral/gpio/cy_gpio.h **** */
 407:Generated_Source\PSoC6\pdl\drivers/peripheral/gpio/cy_gpio.h **** #define CY_GPIO_DM_ANALOG                      (0x00UL) /**< Analog High-Z. Input buffer off */
 408:Generated_Source\PSoC6\pdl\drivers/peripheral/gpio/cy_gpio.h **** #define CY_GPIO_DM_PULLUP_IN_OFF               (0x02UL) /**< Resistive Pull-Up. Input buffer off */
 409:Generated_Source\PSoC6\pdl\drivers/peripheral/gpio/cy_gpio.h **** #define CY_GPIO_DM_PULLDOWN_IN_OFF             (0x03UL) /**< Resistive Pull-Down. Input buffer off 
 410:Generated_Source\PSoC6\pdl\drivers/peripheral/gpio/cy_gpio.h **** #define CY_GPIO_DM_OD_DRIVESLOW_IN_OFF         (0x04UL) /**< Open Drain, Drives Low. Input buffer o
 411:Generated_Source\PSoC6\pdl\drivers/peripheral/gpio/cy_gpio.h **** #define CY_GPIO_DM_OD_DRIVESHIGH_IN_OFF        (0x05UL) /**< Open Drain, Drives High. Input buffer 
 412:Generated_Source\PSoC6\pdl\drivers/peripheral/gpio/cy_gpio.h **** #define CY_GPIO_DM_STRONG_IN_OFF               (0x06UL) /**< Strong Drive. Input buffer off */
 413:Generated_Source\PSoC6\pdl\drivers/peripheral/gpio/cy_gpio.h **** #define CY_GPIO_DM_PULLUP_DOWN_IN_OFF          (0x07UL) /**< Resistive Pull-Up/Down. Input buffer o
 414:Generated_Source\PSoC6\pdl\drivers/peripheral/gpio/cy_gpio.h **** #define CY_GPIO_DM_HIGHZ                       (0x08UL) /**< Digital High-Z. Input buffer on */
 415:Generated_Source\PSoC6\pdl\drivers/peripheral/gpio/cy_gpio.h **** #define CY_GPIO_DM_PULLUP                      (0x0AUL) /**< Resistive Pull-Up. Input buffer on */
 416:Generated_Source\PSoC6\pdl\drivers/peripheral/gpio/cy_gpio.h **** #define CY_GPIO_DM_PULLDOWN                    (0x0BUL) /**< Resistive Pull-Down. Input buffer on *
 417:Generated_Source\PSoC6\pdl\drivers/peripheral/gpio/cy_gpio.h **** #define CY_GPIO_DM_OD_DRIVESLOW                (0x0CUL) /**< Open Drain, Drives Low. Input buffer o
 418:Generated_Source\PSoC6\pdl\drivers/peripheral/gpio/cy_gpio.h **** #define CY_GPIO_DM_OD_DRIVESHIGH               (0x0DUL) /**< Open Drain, Drives High. Input buffer 
 419:Generated_Source\PSoC6\pdl\drivers/peripheral/gpio/cy_gpio.h **** #define CY_GPIO_DM_STRONG                      (0x0EUL) /**< Strong Drive. Input buffer on */
 420:Generated_Source\PSoC6\pdl\drivers/peripheral/gpio/cy_gpio.h **** #define CY_GPIO_DM_PULLUP_DOWN                 (0x0FUL) /**< Resistive Pull-Up/Down. Input buffer o
 421:Generated_Source\PSoC6\pdl\drivers/peripheral/gpio/cy_gpio.h **** /** \} */
 422:Generated_Source\PSoC6\pdl\drivers/peripheral/gpio/cy_gpio.h **** 
 423:Generated_Source\PSoC6\pdl\drivers/peripheral/gpio/cy_gpio.h **** /**
 424:Generated_Source\PSoC6\pdl\drivers/peripheral/gpio/cy_gpio.h **** * \defgroup group_gpio_vtrip Voltage trip mode
 425:Generated_Source\PSoC6\pdl\drivers/peripheral/gpio/cy_gpio.h **** * \{
 426:Generated_Source\PSoC6\pdl\drivers/peripheral/gpio/cy_gpio.h **** * Constants to be used for setting the voltage trip type on the pin.
 427:Generated_Source\PSoC6\pdl\drivers/peripheral/gpio/cy_gpio.h **** */
 428:Generated_Source\PSoC6\pdl\drivers/peripheral/gpio/cy_gpio.h **** #define CY_GPIO_VTRIP_CMOS                     (0x00UL) /**< Input buffer compatible with CMOS and 
 429:Generated_Source\PSoC6\pdl\drivers/peripheral/gpio/cy_gpio.h **** #define CY_GPIO_VTRIP_TTL                      (0x01UL) /**< Input buffer compatible with TTL and M
 430:Generated_Source\PSoC6\pdl\drivers/peripheral/gpio/cy_gpio.h **** /** \} */
 431:Generated_Source\PSoC6\pdl\drivers/peripheral/gpio/cy_gpio.h **** 
 432:Generated_Source\PSoC6\pdl\drivers/peripheral/gpio/cy_gpio.h **** /**
 433:Generated_Source\PSoC6\pdl\drivers/peripheral/gpio/cy_gpio.h **** * \defgroup group_gpio_slewRate Slew Rate Mode
 434:Generated_Source\PSoC6\pdl\drivers/peripheral/gpio/cy_gpio.h **** * \{
 435:Generated_Source\PSoC6\pdl\drivers/peripheral/gpio/cy_gpio.h **** * Constants to be used for setting the slew rate of the pin.
 436:Generated_Source\PSoC6\pdl\drivers/peripheral/gpio/cy_gpio.h **** */
 437:Generated_Source\PSoC6\pdl\drivers/peripheral/gpio/cy_gpio.h **** #define CY_GPIO_SLEW_FAST                      (0x00UL) /**< Fast slew rate */
 438:Generated_Source\PSoC6\pdl\drivers/peripheral/gpio/cy_gpio.h **** #define CY_GPIO_SLEW_SLOW                      (0x01UL) /**< Slow slew rate */
 439:Generated_Source\PSoC6\pdl\drivers/peripheral/gpio/cy_gpio.h **** /** \} */
 440:Generated_Source\PSoC6\pdl\drivers/peripheral/gpio/cy_gpio.h **** 
 441:Generated_Source\PSoC6\pdl\drivers/peripheral/gpio/cy_gpio.h **** /**
 442:Generated_Source\PSoC6\pdl\drivers/peripheral/gpio/cy_gpio.h **** * \defgroup group_gpio_driveStrength Pin drive strength
 443:Generated_Source\PSoC6\pdl\drivers/peripheral/gpio/cy_gpio.h **** * \{
 444:Generated_Source\PSoC6\pdl\drivers/peripheral/gpio/cy_gpio.h **** * Constants to be used for setting the drive strength of the pin.
 445:Generated_Source\PSoC6\pdl\drivers/peripheral/gpio/cy_gpio.h **** */
 446:Generated_Source\PSoC6\pdl\drivers/peripheral/gpio/cy_gpio.h **** #define CY_GPIO_DRIVE_FULL                     (0x00UL) /**< Full drive strength: Max drive current
ARM GAS  C:\Users\haske\AppData\Local\Temp\ccWSfRiA.s 			page 27


 447:Generated_Source\PSoC6\pdl\drivers/peripheral/gpio/cy_gpio.h **** #define CY_GPIO_DRIVE_1_2                      (0x01UL) /**< 1/2 drive strength: 1/2 drive current 
 448:Generated_Source\PSoC6\pdl\drivers/peripheral/gpio/cy_gpio.h **** #define CY_GPIO_DRIVE_1_4                      (0x02UL) /**< 1/4 drive strength: 1/4 drive current 
 449:Generated_Source\PSoC6\pdl\drivers/peripheral/gpio/cy_gpio.h **** #define CY_GPIO_DRIVE_1_8                      (0x03UL) /**< 1/8 drive strength: 1/8 drive current 
 450:Generated_Source\PSoC6\pdl\drivers/peripheral/gpio/cy_gpio.h **** /** \} */
 451:Generated_Source\PSoC6\pdl\drivers/peripheral/gpio/cy_gpio.h **** 
 452:Generated_Source\PSoC6\pdl\drivers/peripheral/gpio/cy_gpio.h **** /**
 453:Generated_Source\PSoC6\pdl\drivers/peripheral/gpio/cy_gpio.h **** * \defgroup group_gpio_interruptTrigger Interrupt trigger type
 454:Generated_Source\PSoC6\pdl\drivers/peripheral/gpio/cy_gpio.h **** * \{
 455:Generated_Source\PSoC6\pdl\drivers/peripheral/gpio/cy_gpio.h **** * Constants to be used for setting the interrupt trigger type on the pin.
 456:Generated_Source\PSoC6\pdl\drivers/peripheral/gpio/cy_gpio.h **** */
 457:Generated_Source\PSoC6\pdl\drivers/peripheral/gpio/cy_gpio.h **** #define CY_GPIO_INTR_DISABLE                   (0x00UL) /**< Disable the pin interrupt generation *
 458:Generated_Source\PSoC6\pdl\drivers/peripheral/gpio/cy_gpio.h **** #define CY_GPIO_INTR_RISING                    (0x01UL) /**< Rising-Edge interrupt */
 459:Generated_Source\PSoC6\pdl\drivers/peripheral/gpio/cy_gpio.h **** #define CY_GPIO_INTR_FALLING                   (0x02UL) /**< Falling-Edge interrupt */
 460:Generated_Source\PSoC6\pdl\drivers/peripheral/gpio/cy_gpio.h **** #define CY_GPIO_INTR_BOTH                      (0x03UL) /**< Both-Edge interrupt */
 461:Generated_Source\PSoC6\pdl\drivers/peripheral/gpio/cy_gpio.h **** /** \} */
 462:Generated_Source\PSoC6\pdl\drivers/peripheral/gpio/cy_gpio.h **** 
 463:Generated_Source\PSoC6\pdl\drivers/peripheral/gpio/cy_gpio.h **** /**
 464:Generated_Source\PSoC6\pdl\drivers/peripheral/gpio/cy_gpio.h **** * \defgroup group_gpio_sioVreg SIO output buffer mode
 465:Generated_Source\PSoC6\pdl\drivers/peripheral/gpio/cy_gpio.h **** * \{
 466:Generated_Source\PSoC6\pdl\drivers/peripheral/gpio/cy_gpio.h **** * Constants to be used for setting the SIO output buffer mode on the pin.
 467:Generated_Source\PSoC6\pdl\drivers/peripheral/gpio/cy_gpio.h **** */
 468:Generated_Source\PSoC6\pdl\drivers/peripheral/gpio/cy_gpio.h **** #define CY_SIO_VREG_UNREGULATED                (0x00UL) /**< Unregulated output buffer */
 469:Generated_Source\PSoC6\pdl\drivers/peripheral/gpio/cy_gpio.h **** #define CY_SIO_VREG_REGULATED                  (0x01UL) /**< Regulated output buffer */
 470:Generated_Source\PSoC6\pdl\drivers/peripheral/gpio/cy_gpio.h **** /** \} */
 471:Generated_Source\PSoC6\pdl\drivers/peripheral/gpio/cy_gpio.h **** 
 472:Generated_Source\PSoC6\pdl\drivers/peripheral/gpio/cy_gpio.h **** /**
 473:Generated_Source\PSoC6\pdl\drivers/peripheral/gpio/cy_gpio.h **** * \defgroup group_gpio_sioIbuf SIO input buffer mode
 474:Generated_Source\PSoC6\pdl\drivers/peripheral/gpio/cy_gpio.h **** * \{
 475:Generated_Source\PSoC6\pdl\drivers/peripheral/gpio/cy_gpio.h **** * Constants to be used for setting the SIO input buffer mode on the pin.
 476:Generated_Source\PSoC6\pdl\drivers/peripheral/gpio/cy_gpio.h **** */
 477:Generated_Source\PSoC6\pdl\drivers/peripheral/gpio/cy_gpio.h **** #define CY_SIO_IBUF_SINGLEENDED                (0x00UL) /**< Single ended input buffer */
 478:Generated_Source\PSoC6\pdl\drivers/peripheral/gpio/cy_gpio.h **** #define CY_SIO_IBUF_DIFFERENTIAL               (0x01UL) /**< Differential input buffer */
 479:Generated_Source\PSoC6\pdl\drivers/peripheral/gpio/cy_gpio.h **** /** \} */
 480:Generated_Source\PSoC6\pdl\drivers/peripheral/gpio/cy_gpio.h **** 
 481:Generated_Source\PSoC6\pdl\drivers/peripheral/gpio/cy_gpio.h **** /**
 482:Generated_Source\PSoC6\pdl\drivers/peripheral/gpio/cy_gpio.h **** * \defgroup group_gpio_sioVtrip SIO input buffer trip-point
 483:Generated_Source\PSoC6\pdl\drivers/peripheral/gpio/cy_gpio.h **** * \{
 484:Generated_Source\PSoC6\pdl\drivers/peripheral/gpio/cy_gpio.h **** * Constants to be used for setting the SIO input buffer trip-point of the pin.
 485:Generated_Source\PSoC6\pdl\drivers/peripheral/gpio/cy_gpio.h **** */
 486:Generated_Source\PSoC6\pdl\drivers/peripheral/gpio/cy_gpio.h **** #define CY_SIO_VTRIP_CMOS                      (0x00UL) /**< CMOS input buffer (single-ended) */
 487:Generated_Source\PSoC6\pdl\drivers/peripheral/gpio/cy_gpio.h **** #define CY_SIO_VTRIP_TTL                       (0x01UL) /**< TTL input buffer (single-ended) */
 488:Generated_Source\PSoC6\pdl\drivers/peripheral/gpio/cy_gpio.h **** #define CY_SIO_VTRIP_0_5VDDIO_0_5VOH           (0x00UL) /**< 0.5xVddio or 0.5xVoh (differential) */
 489:Generated_Source\PSoC6\pdl\drivers/peripheral/gpio/cy_gpio.h **** #define CY_SIO_VTRIP_0_4VDDIO_1_0VREF          (0x01UL) /**< 0.4xVddio or 0.4xVoh (differential) */
 490:Generated_Source\PSoC6\pdl\drivers/peripheral/gpio/cy_gpio.h **** /** \} */
 491:Generated_Source\PSoC6\pdl\drivers/peripheral/gpio/cy_gpio.h **** 
 492:Generated_Source\PSoC6\pdl\drivers/peripheral/gpio/cy_gpio.h **** /**
 493:Generated_Source\PSoC6\pdl\drivers/peripheral/gpio/cy_gpio.h **** * \defgroup group_gpio_sioVref SIO reference voltage for input buffer trip-point
 494:Generated_Source\PSoC6\pdl\drivers/peripheral/gpio/cy_gpio.h **** * \{
 495:Generated_Source\PSoC6\pdl\drivers/peripheral/gpio/cy_gpio.h **** * Constants to be used for setting the reference voltage of SIO input buffer trip-point.
 496:Generated_Source\PSoC6\pdl\drivers/peripheral/gpio/cy_gpio.h **** */
 497:Generated_Source\PSoC6\pdl\drivers/peripheral/gpio/cy_gpio.h **** #define CY_SIO_VREF_PINREF                     (0x00UL) /**< Vref from analog pin */
 498:Generated_Source\PSoC6\pdl\drivers/peripheral/gpio/cy_gpio.h **** #define CY_SIO_VREF_1_2V                       (0x01UL) /**< Vref from internal 1.2V reference */
 499:Generated_Source\PSoC6\pdl\drivers/peripheral/gpio/cy_gpio.h **** #define CY_SIO_VREF_AMUX_A                     (0x02UL) /**< Vref from AMUXBUS_A */
 500:Generated_Source\PSoC6\pdl\drivers/peripheral/gpio/cy_gpio.h **** #define CY_SIO_VREF_AMUX_B                     (0x03UL) /**< Vref from AMUXBUS_B */
 501:Generated_Source\PSoC6\pdl\drivers/peripheral/gpio/cy_gpio.h **** /** \} */
 502:Generated_Source\PSoC6\pdl\drivers/peripheral/gpio/cy_gpio.h **** 
 503:Generated_Source\PSoC6\pdl\drivers/peripheral/gpio/cy_gpio.h **** /**
ARM GAS  C:\Users\haske\AppData\Local\Temp\ccWSfRiA.s 			page 28


 504:Generated_Source\PSoC6\pdl\drivers/peripheral/gpio/cy_gpio.h **** * \defgroup group_gpio_sioVoh Regulated output voltage level (Voh) and input buffer trip-point of a
 505:Generated_Source\PSoC6\pdl\drivers/peripheral/gpio/cy_gpio.h **** * \{
 506:Generated_Source\PSoC6\pdl\drivers/peripheral/gpio/cy_gpio.h **** * Constants to be used for setting the Voh and input buffer trip-point of an SIO pair
 507:Generated_Source\PSoC6\pdl\drivers/peripheral/gpio/cy_gpio.h **** */
 508:Generated_Source\PSoC6\pdl\drivers/peripheral/gpio/cy_gpio.h **** #define CY_SIO_VOH_1_00                        (0x00UL) /**< Voh = 1 x Reference */
 509:Generated_Source\PSoC6\pdl\drivers/peripheral/gpio/cy_gpio.h **** #define CY_SIO_VOH_1_25                        (0x01UL) /**< Voh = 1.25 x Reference */
 510:Generated_Source\PSoC6\pdl\drivers/peripheral/gpio/cy_gpio.h **** #define CY_SIO_VOH_1_49                        (0x02UL) /**< Voh = 1.49 x Reference */
 511:Generated_Source\PSoC6\pdl\drivers/peripheral/gpio/cy_gpio.h **** #define CY_SIO_VOH_1_67                        (0x03UL) /**< Voh = 1.67 x Reference */
 512:Generated_Source\PSoC6\pdl\drivers/peripheral/gpio/cy_gpio.h **** #define CY_SIO_VOH_2_08                        (0x04UL) /**< Voh = 2.08 x Reference */
 513:Generated_Source\PSoC6\pdl\drivers/peripheral/gpio/cy_gpio.h **** #define CY_SIO_VOH_2_50                        (0x05UL) /**< Voh = 2.50 x Reference */
 514:Generated_Source\PSoC6\pdl\drivers/peripheral/gpio/cy_gpio.h **** #define CY_SIO_VOH_2_78                        (0x06UL) /**< Voh = 2.78 x Reference */
 515:Generated_Source\PSoC6\pdl\drivers/peripheral/gpio/cy_gpio.h **** #define CY_SIO_VOH_4_16                        (0x07UL) /**< Voh = 4.16 x Reference */
 516:Generated_Source\PSoC6\pdl\drivers/peripheral/gpio/cy_gpio.h **** /** \} */
 517:Generated_Source\PSoC6\pdl\drivers/peripheral/gpio/cy_gpio.h **** 
 518:Generated_Source\PSoC6\pdl\drivers/peripheral/gpio/cy_gpio.h **** /** \} group_gpio_macros */
 519:Generated_Source\PSoC6\pdl\drivers/peripheral/gpio/cy_gpio.h **** 
 520:Generated_Source\PSoC6\pdl\drivers/peripheral/gpio/cy_gpio.h **** /***************************************
 521:Generated_Source\PSoC6\pdl\drivers/peripheral/gpio/cy_gpio.h **** *        Function Prototypes
 522:Generated_Source\PSoC6\pdl\drivers/peripheral/gpio/cy_gpio.h **** ***************************************/
 523:Generated_Source\PSoC6\pdl\drivers/peripheral/gpio/cy_gpio.h **** 
 524:Generated_Source\PSoC6\pdl\drivers/peripheral/gpio/cy_gpio.h **** /**
 525:Generated_Source\PSoC6\pdl\drivers/peripheral/gpio/cy_gpio.h **** * \addtogroup group_gpio_functions
 526:Generated_Source\PSoC6\pdl\drivers/peripheral/gpio/cy_gpio.h **** * \{
 527:Generated_Source\PSoC6\pdl\drivers/peripheral/gpio/cy_gpio.h **** */
 528:Generated_Source\PSoC6\pdl\drivers/peripheral/gpio/cy_gpio.h **** 
 529:Generated_Source\PSoC6\pdl\drivers/peripheral/gpio/cy_gpio.h **** /**
 530:Generated_Source\PSoC6\pdl\drivers/peripheral/gpio/cy_gpio.h **** * \addtogroup group_gpio_functions_init
 531:Generated_Source\PSoC6\pdl\drivers/peripheral/gpio/cy_gpio.h **** * \{
 532:Generated_Source\PSoC6\pdl\drivers/peripheral/gpio/cy_gpio.h **** */
 533:Generated_Source\PSoC6\pdl\drivers/peripheral/gpio/cy_gpio.h **** 
 534:Generated_Source\PSoC6\pdl\drivers/peripheral/gpio/cy_gpio.h **** cy_en_gpio_status_t Cy_GPIO_Pin_Init(GPIO_PRT_Type* base, uint32_t pinNum, const cy_stc_gpio_pin_co
 535:Generated_Source\PSoC6\pdl\drivers/peripheral/gpio/cy_gpio.h **** cy_en_gpio_status_t Cy_GPIO_Port_Init(GPIO_PRT_Type* base, const cy_stc_gpio_prt_config_t *config);
 536:Generated_Source\PSoC6\pdl\drivers/peripheral/gpio/cy_gpio.h **** void Cy_GPIO_Pin_FastInit(GPIO_PRT_Type* base, uint32_t pinNum, uint32_t driveMode, uint32_t outVal
 537:Generated_Source\PSoC6\pdl\drivers/peripheral/gpio/cy_gpio.h **** void Cy_GPIO_Port_Deinit(GPIO_PRT_Type* base);
 538:Generated_Source\PSoC6\pdl\drivers/peripheral/gpio/cy_gpio.h **** __STATIC_INLINE void Cy_GPIO_SetHSIOM(GPIO_PRT_Type* base, uint32_t pinNum, en_hsiom_sel_t value);
 539:Generated_Source\PSoC6\pdl\drivers/peripheral/gpio/cy_gpio.h **** __STATIC_INLINE en_hsiom_sel_t Cy_GPIO_GetHSIOM(GPIO_PRT_Type* base, uint32_t pinNum);
 540:Generated_Source\PSoC6\pdl\drivers/peripheral/gpio/cy_gpio.h **** __STATIC_INLINE GPIO_PRT_Type* Cy_GPIO_PortToAddr(uint32_t portNum);
 541:Generated_Source\PSoC6\pdl\drivers/peripheral/gpio/cy_gpio.h **** 
 542:Generated_Source\PSoC6\pdl\drivers/peripheral/gpio/cy_gpio.h **** /** \} group_gpio_functions_init */
 543:Generated_Source\PSoC6\pdl\drivers/peripheral/gpio/cy_gpio.h **** 
 544:Generated_Source\PSoC6\pdl\drivers/peripheral/gpio/cy_gpio.h **** /**
 545:Generated_Source\PSoC6\pdl\drivers/peripheral/gpio/cy_gpio.h **** * \addtogroup group_gpio_functions_gpio
 546:Generated_Source\PSoC6\pdl\drivers/peripheral/gpio/cy_gpio.h **** * \{
 547:Generated_Source\PSoC6\pdl\drivers/peripheral/gpio/cy_gpio.h **** */
 548:Generated_Source\PSoC6\pdl\drivers/peripheral/gpio/cy_gpio.h **** 
 549:Generated_Source\PSoC6\pdl\drivers/peripheral/gpio/cy_gpio.h **** void Cy_GPIO_SetAmuxSplit(cy_en_amux_split_t switchCtrl, cy_en_gpio_amuxconnect_t amuxConnect, cy_e
 550:Generated_Source\PSoC6\pdl\drivers/peripheral/gpio/cy_gpio.h **** cy_en_gpio_amuxconnect_t Cy_GPIO_GetAmuxSplit(cy_en_amux_split_t switchCtrl, cy_en_gpio_amuxselect_
 551:Generated_Source\PSoC6\pdl\drivers/peripheral/gpio/cy_gpio.h **** 
 552:Generated_Source\PSoC6\pdl\drivers/peripheral/gpio/cy_gpio.h **** __STATIC_INLINE uint32_t Cy_GPIO_Read(GPIO_PRT_Type* base, uint32_t pinNum);
 553:Generated_Source\PSoC6\pdl\drivers/peripheral/gpio/cy_gpio.h **** __STATIC_INLINE void Cy_GPIO_Write(GPIO_PRT_Type* base, uint32_t pinNum, uint32_t value);
 554:Generated_Source\PSoC6\pdl\drivers/peripheral/gpio/cy_gpio.h **** __STATIC_INLINE uint32_t Cy_GPIO_ReadOut(GPIO_PRT_Type* base, uint32_t pinNum);
 555:Generated_Source\PSoC6\pdl\drivers/peripheral/gpio/cy_gpio.h **** __STATIC_INLINE void Cy_GPIO_Set(GPIO_PRT_Type* base, uint32_t pinNum);
 556:Generated_Source\PSoC6\pdl\drivers/peripheral/gpio/cy_gpio.h **** __STATIC_INLINE void Cy_GPIO_Clr(GPIO_PRT_Type* base, uint32_t pinNum);
 557:Generated_Source\PSoC6\pdl\drivers/peripheral/gpio/cy_gpio.h **** __STATIC_INLINE void Cy_GPIO_Inv(GPIO_PRT_Type* base, uint32_t pinNum);
 558:Generated_Source\PSoC6\pdl\drivers/peripheral/gpio/cy_gpio.h **** __STATIC_INLINE void Cy_GPIO_SetDrivemode(GPIO_PRT_Type* base, uint32_t pinNum, uint32_t value);
 559:Generated_Source\PSoC6\pdl\drivers/peripheral/gpio/cy_gpio.h **** __STATIC_INLINE uint32_t Cy_GPIO_GetDrivemode(GPIO_PRT_Type* base, uint32_t pinNum);
 560:Generated_Source\PSoC6\pdl\drivers/peripheral/gpio/cy_gpio.h **** __STATIC_INLINE void Cy_GPIO_SetVtrip(GPIO_PRT_Type* base, uint32_t pinNum, uint32_t value);
ARM GAS  C:\Users\haske\AppData\Local\Temp\ccWSfRiA.s 			page 29


 561:Generated_Source\PSoC6\pdl\drivers/peripheral/gpio/cy_gpio.h **** __STATIC_INLINE uint32_t Cy_GPIO_GetVtrip(GPIO_PRT_Type* base, uint32_t pinNum);
 562:Generated_Source\PSoC6\pdl\drivers/peripheral/gpio/cy_gpio.h **** __STATIC_INLINE void Cy_GPIO_SetSlewRate(GPIO_PRT_Type* base, uint32_t pinNum, uint32_t value);
 563:Generated_Source\PSoC6\pdl\drivers/peripheral/gpio/cy_gpio.h **** __STATIC_INLINE uint32_t Cy_GPIO_GetSlewRate(GPIO_PRT_Type* base, uint32_t pinNum);
 564:Generated_Source\PSoC6\pdl\drivers/peripheral/gpio/cy_gpio.h **** __STATIC_INLINE void Cy_GPIO_SetDriveSel(GPIO_PRT_Type* base, uint32_t pinNum, uint32_t value);
 565:Generated_Source\PSoC6\pdl\drivers/peripheral/gpio/cy_gpio.h **** __STATIC_INLINE uint32_t Cy_GPIO_GetDriveSel(GPIO_PRT_Type* base, uint32_t pinNum);
 566:Generated_Source\PSoC6\pdl\drivers/peripheral/gpio/cy_gpio.h **** 
 567:Generated_Source\PSoC6\pdl\drivers/peripheral/gpio/cy_gpio.h **** /** \} group_gpio_functions_gpio */
 568:Generated_Source\PSoC6\pdl\drivers/peripheral/gpio/cy_gpio.h **** 
 569:Generated_Source\PSoC6\pdl\drivers/peripheral/gpio/cy_gpio.h **** /**
 570:Generated_Source\PSoC6\pdl\drivers/peripheral/gpio/cy_gpio.h **** * \addtogroup group_gpio_functions_sio
 571:Generated_Source\PSoC6\pdl\drivers/peripheral/gpio/cy_gpio.h **** * \{
 572:Generated_Source\PSoC6\pdl\drivers/peripheral/gpio/cy_gpio.h **** */
 573:Generated_Source\PSoC6\pdl\drivers/peripheral/gpio/cy_gpio.h **** 
 574:Generated_Source\PSoC6\pdl\drivers/peripheral/gpio/cy_gpio.h **** __STATIC_INLINE void Cy_GPIO_SetVregEn(GPIO_PRT_Type* base, uint32_t pinNum, uint32_t value);
 575:Generated_Source\PSoC6\pdl\drivers/peripheral/gpio/cy_gpio.h **** __STATIC_INLINE uint32_t Cy_GPIO_GetVregEn(GPIO_PRT_Type* base, uint32_t pinNum);
 576:Generated_Source\PSoC6\pdl\drivers/peripheral/gpio/cy_gpio.h **** __STATIC_INLINE void Cy_GPIO_SetIbufMode(GPIO_PRT_Type* base, uint32_t pinNum, uint32_t value);
 577:Generated_Source\PSoC6\pdl\drivers/peripheral/gpio/cy_gpio.h **** __STATIC_INLINE uint32_t Cy_GPIO_GetIbufMode(GPIO_PRT_Type* base, uint32_t pinNum);
 578:Generated_Source\PSoC6\pdl\drivers/peripheral/gpio/cy_gpio.h **** __STATIC_INLINE void Cy_GPIO_SetVtripSel(GPIO_PRT_Type* base, uint32_t pinNum, uint32_t value);
 579:Generated_Source\PSoC6\pdl\drivers/peripheral/gpio/cy_gpio.h **** __STATIC_INLINE uint32_t Cy_GPIO_GetVtripSel(GPIO_PRT_Type* base, uint32_t pinNum);
 580:Generated_Source\PSoC6\pdl\drivers/peripheral/gpio/cy_gpio.h **** __STATIC_INLINE void Cy_GPIO_SetVrefSel(GPIO_PRT_Type* base, uint32_t pinNum, uint32_t value);
 581:Generated_Source\PSoC6\pdl\drivers/peripheral/gpio/cy_gpio.h **** __STATIC_INLINE uint32_t Cy_GPIO_GetVrefSel(GPIO_PRT_Type* base, uint32_t pinNum);
 582:Generated_Source\PSoC6\pdl\drivers/peripheral/gpio/cy_gpio.h **** __STATIC_INLINE void Cy_GPIO_SetVohSel(GPIO_PRT_Type* base, uint32_t pinNum, uint32_t value);
 583:Generated_Source\PSoC6\pdl\drivers/peripheral/gpio/cy_gpio.h **** __STATIC_INLINE uint32_t Cy_GPIO_GetVohSel(GPIO_PRT_Type* base, uint32_t pinNum);
 584:Generated_Source\PSoC6\pdl\drivers/peripheral/gpio/cy_gpio.h **** 
 585:Generated_Source\PSoC6\pdl\drivers/peripheral/gpio/cy_gpio.h **** /** \} group_gpio_functions_sio */
 586:Generated_Source\PSoC6\pdl\drivers/peripheral/gpio/cy_gpio.h **** 
 587:Generated_Source\PSoC6\pdl\drivers/peripheral/gpio/cy_gpio.h **** /**
 588:Generated_Source\PSoC6\pdl\drivers/peripheral/gpio/cy_gpio.h **** * \addtogroup group_gpio_functions_interrupt
 589:Generated_Source\PSoC6\pdl\drivers/peripheral/gpio/cy_gpio.h **** * \{
 590:Generated_Source\PSoC6\pdl\drivers/peripheral/gpio/cy_gpio.h **** */
 591:Generated_Source\PSoC6\pdl\drivers/peripheral/gpio/cy_gpio.h **** 
 592:Generated_Source\PSoC6\pdl\drivers/peripheral/gpio/cy_gpio.h **** __STATIC_INLINE uint32_t Cy_GPIO_GetInterruptStatus(GPIO_PRT_Type* base, uint32_t pinNum);
 593:Generated_Source\PSoC6\pdl\drivers/peripheral/gpio/cy_gpio.h **** __STATIC_INLINE void Cy_GPIO_ClearInterrupt(GPIO_PRT_Type* base, uint32_t pinNum);
 594:Generated_Source\PSoC6\pdl\drivers/peripheral/gpio/cy_gpio.h **** __STATIC_INLINE void Cy_GPIO_SetInterruptMask(GPIO_PRT_Type* base, uint32_t pinNum, uint32_t value)
 595:Generated_Source\PSoC6\pdl\drivers/peripheral/gpio/cy_gpio.h **** __STATIC_INLINE uint32_t Cy_GPIO_GetInterruptMask(GPIO_PRT_Type* base, uint32_t pinNum);
 596:Generated_Source\PSoC6\pdl\drivers/peripheral/gpio/cy_gpio.h **** __STATIC_INLINE uint32_t Cy_GPIO_GetInterruptStatusMasked(GPIO_PRT_Type* base, uint32_t pinNum);
 597:Generated_Source\PSoC6\pdl\drivers/peripheral/gpio/cy_gpio.h **** __STATIC_INLINE void Cy_GPIO_SetSwInterrupt(GPIO_PRT_Type* base, uint32_t pinNum);
 598:Generated_Source\PSoC6\pdl\drivers/peripheral/gpio/cy_gpio.h **** __STATIC_INLINE void Cy_GPIO_SetInterruptEdge(GPIO_PRT_Type* base, uint32_t pinNum, uint32_t value)
 599:Generated_Source\PSoC6\pdl\drivers/peripheral/gpio/cy_gpio.h **** __STATIC_INLINE uint32_t Cy_GPIO_GetInterruptEdge(GPIO_PRT_Type* base, uint32_t pinNum);
 600:Generated_Source\PSoC6\pdl\drivers/peripheral/gpio/cy_gpio.h **** __STATIC_INLINE void Cy_GPIO_SetFilter(GPIO_PRT_Type* base, uint32_t value);
 601:Generated_Source\PSoC6\pdl\drivers/peripheral/gpio/cy_gpio.h **** __STATIC_INLINE uint32_t Cy_GPIO_GetFilter(GPIO_PRT_Type* base);
 602:Generated_Source\PSoC6\pdl\drivers/peripheral/gpio/cy_gpio.h **** 
 603:Generated_Source\PSoC6\pdl\drivers/peripheral/gpio/cy_gpio.h **** __STATIC_INLINE uint32_t Cy_GPIO_GetInterruptCause0(void);
 604:Generated_Source\PSoC6\pdl\drivers/peripheral/gpio/cy_gpio.h **** __STATIC_INLINE uint32_t Cy_GPIO_GetInterruptCause1(void);
 605:Generated_Source\PSoC6\pdl\drivers/peripheral/gpio/cy_gpio.h **** __STATIC_INLINE uint32_t Cy_GPIO_GetInterruptCause2(void);
 606:Generated_Source\PSoC6\pdl\drivers/peripheral/gpio/cy_gpio.h **** __STATIC_INLINE uint32_t Cy_GPIO_GetInterruptCause3(void);
 607:Generated_Source\PSoC6\pdl\drivers/peripheral/gpio/cy_gpio.h **** 
 608:Generated_Source\PSoC6\pdl\drivers/peripheral/gpio/cy_gpio.h **** /** \} group_gpio_functions_interrupt */
 609:Generated_Source\PSoC6\pdl\drivers/peripheral/gpio/cy_gpio.h **** 
 610:Generated_Source\PSoC6\pdl\drivers/peripheral/gpio/cy_gpio.h **** 
 611:Generated_Source\PSoC6\pdl\drivers/peripheral/gpio/cy_gpio.h **** /**
 612:Generated_Source\PSoC6\pdl\drivers/peripheral/gpio/cy_gpio.h **** * \addtogroup group_gpio_functions_init
 613:Generated_Source\PSoC6\pdl\drivers/peripheral/gpio/cy_gpio.h **** * \{
 614:Generated_Source\PSoC6\pdl\drivers/peripheral/gpio/cy_gpio.h **** */
 615:Generated_Source\PSoC6\pdl\drivers/peripheral/gpio/cy_gpio.h **** 
 616:Generated_Source\PSoC6\pdl\drivers/peripheral/gpio/cy_gpio.h **** /*******************************************************************************
 617:Generated_Source\PSoC6\pdl\drivers/peripheral/gpio/cy_gpio.h **** * Function Name: Cy_GPIO_SetHSIOM
ARM GAS  C:\Users\haske\AppData\Local\Temp\ccWSfRiA.s 			page 30


 618:Generated_Source\PSoC6\pdl\drivers/peripheral/gpio/cy_gpio.h **** ****************************************************************************//**
 619:Generated_Source\PSoC6\pdl\drivers/peripheral/gpio/cy_gpio.h **** *
 620:Generated_Source\PSoC6\pdl\drivers/peripheral/gpio/cy_gpio.h **** * Configures the HSIOM connection to the pin.
 621:Generated_Source\PSoC6\pdl\drivers/peripheral/gpio/cy_gpio.h **** *
 622:Generated_Source\PSoC6\pdl\drivers/peripheral/gpio/cy_gpio.h **** * Connects the specified High-Speed Input Output Multiplexer (HSIOM) selection
 623:Generated_Source\PSoC6\pdl\drivers/peripheral/gpio/cy_gpio.h **** * to the pin.
 624:Generated_Source\PSoC6\pdl\drivers/peripheral/gpio/cy_gpio.h **** *
 625:Generated_Source\PSoC6\pdl\drivers/peripheral/gpio/cy_gpio.h **** * \param base
 626:Generated_Source\PSoC6\pdl\drivers/peripheral/gpio/cy_gpio.h **** * Pointer to the pin's port register base address
 627:Generated_Source\PSoC6\pdl\drivers/peripheral/gpio/cy_gpio.h **** *
 628:Generated_Source\PSoC6\pdl\drivers/peripheral/gpio/cy_gpio.h **** * \param pinNum
 629:Generated_Source\PSoC6\pdl\drivers/peripheral/gpio/cy_gpio.h **** * Position of the pin bit-field within the port register
 630:Generated_Source\PSoC6\pdl\drivers/peripheral/gpio/cy_gpio.h **** *
 631:Generated_Source\PSoC6\pdl\drivers/peripheral/gpio/cy_gpio.h **** * \param value
 632:Generated_Source\PSoC6\pdl\drivers/peripheral/gpio/cy_gpio.h **** * HSIOM input selection
 633:Generated_Source\PSoC6\pdl\drivers/peripheral/gpio/cy_gpio.h **** *
 634:Generated_Source\PSoC6\pdl\drivers/peripheral/gpio/cy_gpio.h **** * \note 
 635:Generated_Source\PSoC6\pdl\drivers/peripheral/gpio/cy_gpio.h **** * This function modifies a port register in a read-modify-write operation. It is
 636:Generated_Source\PSoC6\pdl\drivers/peripheral/gpio/cy_gpio.h **** * not thread safe as the resource is shared among multiple pins on a port.
 637:Generated_Source\PSoC6\pdl\drivers/peripheral/gpio/cy_gpio.h **** *
 638:Generated_Source\PSoC6\pdl\drivers/peripheral/gpio/cy_gpio.h **** * \funcusage
 639:Generated_Source\PSoC6\pdl\drivers/peripheral/gpio/cy_gpio.h **** * \snippet gpio/gpio_v1_10_sut_01.cydsn/main_cm4.c snippet_Cy_GPIO_SetHSIOM
 640:Generated_Source\PSoC6\pdl\drivers/peripheral/gpio/cy_gpio.h **** *
 641:Generated_Source\PSoC6\pdl\drivers/peripheral/gpio/cy_gpio.h **** *******************************************************************************/
 642:Generated_Source\PSoC6\pdl\drivers/peripheral/gpio/cy_gpio.h **** __STATIC_INLINE void Cy_GPIO_SetHSIOM(GPIO_PRT_Type* base, uint32_t pinNum, en_hsiom_sel_t value)
 643:Generated_Source\PSoC6\pdl\drivers/peripheral/gpio/cy_gpio.h **** {
 644:Generated_Source\PSoC6\pdl\drivers/peripheral/gpio/cy_gpio.h ****     uint32_t portNum;
 645:Generated_Source\PSoC6\pdl\drivers/peripheral/gpio/cy_gpio.h ****     uint32_t tempReg;
 646:Generated_Source\PSoC6\pdl\drivers/peripheral/gpio/cy_gpio.h ****     HSIOM_PRT_V1_Type* portAddrHSIOM;
 647:Generated_Source\PSoC6\pdl\drivers/peripheral/gpio/cy_gpio.h **** 
 648:Generated_Source\PSoC6\pdl\drivers/peripheral/gpio/cy_gpio.h ****     CY_ASSERT_L2(CY_GPIO_IS_PIN_VALID(pinNum));
 649:Generated_Source\PSoC6\pdl\drivers/peripheral/gpio/cy_gpio.h ****     CY_ASSERT_L2(CY_GPIO_IS_HSIOM_VALID(value));
 650:Generated_Source\PSoC6\pdl\drivers/peripheral/gpio/cy_gpio.h **** 
 651:Generated_Source\PSoC6\pdl\drivers/peripheral/gpio/cy_gpio.h ****     portNum = ((uint32_t)(base) - CY_GPIO_BASE) / GPIO_PRT_SECTION_SIZE;
 652:Generated_Source\PSoC6\pdl\drivers/peripheral/gpio/cy_gpio.h ****     portAddrHSIOM = (HSIOM_PRT_V1_Type*)(CY_HSIOM_BASE + (HSIOM_PRT_SECTION_SIZE * portNum));
 653:Generated_Source\PSoC6\pdl\drivers/peripheral/gpio/cy_gpio.h **** 
 654:Generated_Source\PSoC6\pdl\drivers/peripheral/gpio/cy_gpio.h ****     if(pinNum < CY_GPIO_PRT_HALF)
 655:Generated_Source\PSoC6\pdl\drivers/peripheral/gpio/cy_gpio.h ****     {
 656:Generated_Source\PSoC6\pdl\drivers/peripheral/gpio/cy_gpio.h ****         tempReg = HSIOM_PRT_PORT_SEL0(portAddrHSIOM) & ~(CY_GPIO_HSIOM_MASK << (pinNum << CY_GPIO_H
 657:Generated_Source\PSoC6\pdl\drivers/peripheral/gpio/cy_gpio.h ****         HSIOM_PRT_PORT_SEL0(portAddrHSIOM) = tempReg | ((value & CY_GPIO_HSIOM_MASK) << (pinNum << 
 658:Generated_Source\PSoC6\pdl\drivers/peripheral/gpio/cy_gpio.h ****     }
 659:Generated_Source\PSoC6\pdl\drivers/peripheral/gpio/cy_gpio.h ****     else
 660:Generated_Source\PSoC6\pdl\drivers/peripheral/gpio/cy_gpio.h ****     {
 661:Generated_Source\PSoC6\pdl\drivers/peripheral/gpio/cy_gpio.h ****         pinNum -= CY_GPIO_PRT_HALF;
 662:Generated_Source\PSoC6\pdl\drivers/peripheral/gpio/cy_gpio.h ****         tempReg = HSIOM_PRT_PORT_SEL1(portAddrHSIOM) & ~(CY_GPIO_HSIOM_MASK << (pinNum << CY_GPIO_H
 663:Generated_Source\PSoC6\pdl\drivers/peripheral/gpio/cy_gpio.h ****         HSIOM_PRT_PORT_SEL1(portAddrHSIOM) = tempReg | ((value & CY_GPIO_HSIOM_MASK) << (pinNum << 
 664:Generated_Source\PSoC6\pdl\drivers/peripheral/gpio/cy_gpio.h ****     }
 665:Generated_Source\PSoC6\pdl\drivers/peripheral/gpio/cy_gpio.h **** }
 666:Generated_Source\PSoC6\pdl\drivers/peripheral/gpio/cy_gpio.h **** 
 667:Generated_Source\PSoC6\pdl\drivers/peripheral/gpio/cy_gpio.h **** 
 668:Generated_Source\PSoC6\pdl\drivers/peripheral/gpio/cy_gpio.h **** /*******************************************************************************
 669:Generated_Source\PSoC6\pdl\drivers/peripheral/gpio/cy_gpio.h **** * Function Name: Cy_GPIO_GetHSIOM
 670:Generated_Source\PSoC6\pdl\drivers/peripheral/gpio/cy_gpio.h **** ****************************************************************************//**
 671:Generated_Source\PSoC6\pdl\drivers/peripheral/gpio/cy_gpio.h **** *
 672:Generated_Source\PSoC6\pdl\drivers/peripheral/gpio/cy_gpio.h **** * Returns the current HSIOM multiplexer connection to the pin.
 673:Generated_Source\PSoC6\pdl\drivers/peripheral/gpio/cy_gpio.h **** *
 674:Generated_Source\PSoC6\pdl\drivers/peripheral/gpio/cy_gpio.h **** * \param base
ARM GAS  C:\Users\haske\AppData\Local\Temp\ccWSfRiA.s 			page 31


 675:Generated_Source\PSoC6\pdl\drivers/peripheral/gpio/cy_gpio.h **** * Pointer to the pin's port register base address
 676:Generated_Source\PSoC6\pdl\drivers/peripheral/gpio/cy_gpio.h **** *
 677:Generated_Source\PSoC6\pdl\drivers/peripheral/gpio/cy_gpio.h **** * \param pinNum
 678:Generated_Source\PSoC6\pdl\drivers/peripheral/gpio/cy_gpio.h **** * Position of the pin bit-field within the port register
 679:Generated_Source\PSoC6\pdl\drivers/peripheral/gpio/cy_gpio.h **** *
 680:Generated_Source\PSoC6\pdl\drivers/peripheral/gpio/cy_gpio.h **** * \return
 681:Generated_Source\PSoC6\pdl\drivers/peripheral/gpio/cy_gpio.h **** * HSIOM input selection
 682:Generated_Source\PSoC6\pdl\drivers/peripheral/gpio/cy_gpio.h **** *
 683:Generated_Source\PSoC6\pdl\drivers/peripheral/gpio/cy_gpio.h **** * \funcusage
 684:Generated_Source\PSoC6\pdl\drivers/peripheral/gpio/cy_gpio.h **** * \snippet gpio/gpio_v1_10_sut_01.cydsn/main_cm4.c snippet_Cy_GPIO_SetHSIOM
 685:Generated_Source\PSoC6\pdl\drivers/peripheral/gpio/cy_gpio.h **** *
 686:Generated_Source\PSoC6\pdl\drivers/peripheral/gpio/cy_gpio.h **** *******************************************************************************/
 687:Generated_Source\PSoC6\pdl\drivers/peripheral/gpio/cy_gpio.h **** __STATIC_INLINE en_hsiom_sel_t Cy_GPIO_GetHSIOM(GPIO_PRT_Type* base, uint32_t pinNum)
 688:Generated_Source\PSoC6\pdl\drivers/peripheral/gpio/cy_gpio.h **** {
 689:Generated_Source\PSoC6\pdl\drivers/peripheral/gpio/cy_gpio.h ****     uint32_t returnValue;
 690:Generated_Source\PSoC6\pdl\drivers/peripheral/gpio/cy_gpio.h ****     uint32_t portNum;
 691:Generated_Source\PSoC6\pdl\drivers/peripheral/gpio/cy_gpio.h ****     HSIOM_PRT_V1_Type* portAddrHSIOM;
 692:Generated_Source\PSoC6\pdl\drivers/peripheral/gpio/cy_gpio.h ****     
 693:Generated_Source\PSoC6\pdl\drivers/peripheral/gpio/cy_gpio.h ****     CY_ASSERT_L2(CY_GPIO_IS_PIN_VALID(pinNum));
 694:Generated_Source\PSoC6\pdl\drivers/peripheral/gpio/cy_gpio.h **** 
 695:Generated_Source\PSoC6\pdl\drivers/peripheral/gpio/cy_gpio.h ****     portNum = ((uint32_t)(base) - CY_GPIO_BASE) / GPIO_PRT_SECTION_SIZE;
 696:Generated_Source\PSoC6\pdl\drivers/peripheral/gpio/cy_gpio.h ****     portAddrHSIOM = (HSIOM_PRT_V1_Type*)(CY_HSIOM_BASE + (HSIOM_PRT_SECTION_SIZE * portNum));
 697:Generated_Source\PSoC6\pdl\drivers/peripheral/gpio/cy_gpio.h **** 
 698:Generated_Source\PSoC6\pdl\drivers/peripheral/gpio/cy_gpio.h ****     if(pinNum < CY_GPIO_PRT_HALF)
 699:Generated_Source\PSoC6\pdl\drivers/peripheral/gpio/cy_gpio.h ****     {
 700:Generated_Source\PSoC6\pdl\drivers/peripheral/gpio/cy_gpio.h ****         returnValue = (HSIOM_PRT_PORT_SEL0(portAddrHSIOM) >> (pinNum << CY_GPIO_HSIOM_OFFSET)) & CY
 701:Generated_Source\PSoC6\pdl\drivers/peripheral/gpio/cy_gpio.h ****     }
 702:Generated_Source\PSoC6\pdl\drivers/peripheral/gpio/cy_gpio.h ****     else
 703:Generated_Source\PSoC6\pdl\drivers/peripheral/gpio/cy_gpio.h ****     {
 704:Generated_Source\PSoC6\pdl\drivers/peripheral/gpio/cy_gpio.h ****         pinNum -= CY_GPIO_PRT_HALF;
 705:Generated_Source\PSoC6\pdl\drivers/peripheral/gpio/cy_gpio.h ****         returnValue = (HSIOM_PRT_PORT_SEL1(portAddrHSIOM) >> (pinNum << CY_GPIO_HSIOM_OFFSET)) & CY
 706:Generated_Source\PSoC6\pdl\drivers/peripheral/gpio/cy_gpio.h ****     }
 707:Generated_Source\PSoC6\pdl\drivers/peripheral/gpio/cy_gpio.h **** 
 708:Generated_Source\PSoC6\pdl\drivers/peripheral/gpio/cy_gpio.h ****     return (en_hsiom_sel_t)returnValue;
 709:Generated_Source\PSoC6\pdl\drivers/peripheral/gpio/cy_gpio.h **** }
 710:Generated_Source\PSoC6\pdl\drivers/peripheral/gpio/cy_gpio.h **** 
 711:Generated_Source\PSoC6\pdl\drivers/peripheral/gpio/cy_gpio.h **** 
 712:Generated_Source\PSoC6\pdl\drivers/peripheral/gpio/cy_gpio.h **** /*******************************************************************************
 713:Generated_Source\PSoC6\pdl\drivers/peripheral/gpio/cy_gpio.h **** * Function Name: Cy_GPIO_PortToAddr
 714:Generated_Source\PSoC6\pdl\drivers/peripheral/gpio/cy_gpio.h **** ****************************************************************************//**
 715:Generated_Source\PSoC6\pdl\drivers/peripheral/gpio/cy_gpio.h **** *
 716:Generated_Source\PSoC6\pdl\drivers/peripheral/gpio/cy_gpio.h **** * Retrieves the port address based on the given port number.
 717:Generated_Source\PSoC6\pdl\drivers/peripheral/gpio/cy_gpio.h **** *
 718:Generated_Source\PSoC6\pdl\drivers/peripheral/gpio/cy_gpio.h **** * This is a helper function to calculate the port base address when given a port
 719:Generated_Source\PSoC6\pdl\drivers/peripheral/gpio/cy_gpio.h **** * number. It is to be used when pin access needs to be calculated at runtime.
 720:Generated_Source\PSoC6\pdl\drivers/peripheral/gpio/cy_gpio.h **** *
 721:Generated_Source\PSoC6\pdl\drivers/peripheral/gpio/cy_gpio.h **** * \param portNum
 722:Generated_Source\PSoC6\pdl\drivers/peripheral/gpio/cy_gpio.h **** * Port number
 723:Generated_Source\PSoC6\pdl\drivers/peripheral/gpio/cy_gpio.h **** *
 724:Generated_Source\PSoC6\pdl\drivers/peripheral/gpio/cy_gpio.h **** * \return
 725:Generated_Source\PSoC6\pdl\drivers/peripheral/gpio/cy_gpio.h **** * Base address of the port register structure
 726:Generated_Source\PSoC6\pdl\drivers/peripheral/gpio/cy_gpio.h **** *
 727:Generated_Source\PSoC6\pdl\drivers/peripheral/gpio/cy_gpio.h **** * \funcusage
 728:Generated_Source\PSoC6\pdl\drivers/peripheral/gpio/cy_gpio.h **** * \snippet gpio/gpio_v1_10_sut_01.cydsn/main_cm4.c snippet_Cy_GPIO_PortToAddr
 729:Generated_Source\PSoC6\pdl\drivers/peripheral/gpio/cy_gpio.h **** *
 730:Generated_Source\PSoC6\pdl\drivers/peripheral/gpio/cy_gpio.h **** *******************************************************************************/
 731:Generated_Source\PSoC6\pdl\drivers/peripheral/gpio/cy_gpio.h **** __STATIC_INLINE GPIO_PRT_Type* Cy_GPIO_PortToAddr(uint32_t portNum)
ARM GAS  C:\Users\haske\AppData\Local\Temp\ccWSfRiA.s 			page 32


 732:Generated_Source\PSoC6\pdl\drivers/peripheral/gpio/cy_gpio.h **** {
 733:Generated_Source\PSoC6\pdl\drivers/peripheral/gpio/cy_gpio.h ****     GPIO_PRT_Type* portBase;
 734:Generated_Source\PSoC6\pdl\drivers/peripheral/gpio/cy_gpio.h ****     
 735:Generated_Source\PSoC6\pdl\drivers/peripheral/gpio/cy_gpio.h ****     if(portNum < (uint32_t)IOSS_GPIO_GPIO_PORT_NR)
 736:Generated_Source\PSoC6\pdl\drivers/peripheral/gpio/cy_gpio.h ****     {
 737:Generated_Source\PSoC6\pdl\drivers/peripheral/gpio/cy_gpio.h ****         portBase = (GPIO_PRT_Type *)(CY_GPIO_BASE + (GPIO_PRT_SECTION_SIZE * portNum));
 738:Generated_Source\PSoC6\pdl\drivers/peripheral/gpio/cy_gpio.h ****     }
 739:Generated_Source\PSoC6\pdl\drivers/peripheral/gpio/cy_gpio.h ****     else
 740:Generated_Source\PSoC6\pdl\drivers/peripheral/gpio/cy_gpio.h ****     {
 741:Generated_Source\PSoC6\pdl\drivers/peripheral/gpio/cy_gpio.h ****         /* Error: Return default base address */
 742:Generated_Source\PSoC6\pdl\drivers/peripheral/gpio/cy_gpio.h ****         portBase = (GPIO_PRT_Type *)(CY_GPIO_BASE);
 743:Generated_Source\PSoC6\pdl\drivers/peripheral/gpio/cy_gpio.h ****     }
 744:Generated_Source\PSoC6\pdl\drivers/peripheral/gpio/cy_gpio.h **** 
 745:Generated_Source\PSoC6\pdl\drivers/peripheral/gpio/cy_gpio.h ****     return (portBase);
 746:Generated_Source\PSoC6\pdl\drivers/peripheral/gpio/cy_gpio.h **** }
 747:Generated_Source\PSoC6\pdl\drivers/peripheral/gpio/cy_gpio.h **** 
 748:Generated_Source\PSoC6\pdl\drivers/peripheral/gpio/cy_gpio.h **** /** \} group_gpio_functions_init */
 749:Generated_Source\PSoC6\pdl\drivers/peripheral/gpio/cy_gpio.h **** 
 750:Generated_Source\PSoC6\pdl\drivers/peripheral/gpio/cy_gpio.h **** /**
 751:Generated_Source\PSoC6\pdl\drivers/peripheral/gpio/cy_gpio.h **** * \addtogroup group_gpio_functions_gpio
 752:Generated_Source\PSoC6\pdl\drivers/peripheral/gpio/cy_gpio.h **** * \{
 753:Generated_Source\PSoC6\pdl\drivers/peripheral/gpio/cy_gpio.h **** */
 754:Generated_Source\PSoC6\pdl\drivers/peripheral/gpio/cy_gpio.h **** 
 755:Generated_Source\PSoC6\pdl\drivers/peripheral/gpio/cy_gpio.h **** /*******************************************************************************
 756:Generated_Source\PSoC6\pdl\drivers/peripheral/gpio/cy_gpio.h **** * Function Name: Cy_GPIO_Read
 757:Generated_Source\PSoC6\pdl\drivers/peripheral/gpio/cy_gpio.h **** ****************************************************************************//**
 758:Generated_Source\PSoC6\pdl\drivers/peripheral/gpio/cy_gpio.h **** *
 759:Generated_Source\PSoC6\pdl\drivers/peripheral/gpio/cy_gpio.h **** * Reads the current logic level on the input buffer of the pin.
 760:Generated_Source\PSoC6\pdl\drivers/peripheral/gpio/cy_gpio.h **** *
 761:Generated_Source\PSoC6\pdl\drivers/peripheral/gpio/cy_gpio.h **** * \param base
 762:Generated_Source\PSoC6\pdl\drivers/peripheral/gpio/cy_gpio.h **** * Pointer to the pin's port register base address
 763:Generated_Source\PSoC6\pdl\drivers/peripheral/gpio/cy_gpio.h **** *
 764:Generated_Source\PSoC6\pdl\drivers/peripheral/gpio/cy_gpio.h **** * \param pinNum
 765:Generated_Source\PSoC6\pdl\drivers/peripheral/gpio/cy_gpio.h **** * Position of the pin bit-field within the port register.
 766:Generated_Source\PSoC6\pdl\drivers/peripheral/gpio/cy_gpio.h **** * Bit position 8 is the routed pin through the port glitch filter.
 767:Generated_Source\PSoC6\pdl\drivers/peripheral/gpio/cy_gpio.h **** *
 768:Generated_Source\PSoC6\pdl\drivers/peripheral/gpio/cy_gpio.h **** * \return
 769:Generated_Source\PSoC6\pdl\drivers/peripheral/gpio/cy_gpio.h **** * Logic level present on the pin
 770:Generated_Source\PSoC6\pdl\drivers/peripheral/gpio/cy_gpio.h **** *
 771:Generated_Source\PSoC6\pdl\drivers/peripheral/gpio/cy_gpio.h **** * \funcusage
 772:Generated_Source\PSoC6\pdl\drivers/peripheral/gpio/cy_gpio.h **** * \snippet gpio/gpio_v1_10_sut_01.cydsn/main_cm4.c snippet_Cy_GPIO_Read
 773:Generated_Source\PSoC6\pdl\drivers/peripheral/gpio/cy_gpio.h **** *
 774:Generated_Source\PSoC6\pdl\drivers/peripheral/gpio/cy_gpio.h **** *******************************************************************************/
 775:Generated_Source\PSoC6\pdl\drivers/peripheral/gpio/cy_gpio.h **** __STATIC_INLINE uint32_t Cy_GPIO_Read(GPIO_PRT_Type* base, uint32_t pinNum)
 776:Generated_Source\PSoC6\pdl\drivers/peripheral/gpio/cy_gpio.h **** {
 777:Generated_Source\PSoC6\pdl\drivers/peripheral/gpio/cy_gpio.h ****     CY_ASSERT_L2(CY_GPIO_IS_FILTER_PIN_VALID(pinNum));
 778:Generated_Source\PSoC6\pdl\drivers/peripheral/gpio/cy_gpio.h ****     
 779:Generated_Source\PSoC6\pdl\drivers/peripheral/gpio/cy_gpio.h ****     return (GPIO_PRT_IN(base) >> (pinNum)) & CY_GPIO_IN_MASK;
 780:Generated_Source\PSoC6\pdl\drivers/peripheral/gpio/cy_gpio.h **** }
 781:Generated_Source\PSoC6\pdl\drivers/peripheral/gpio/cy_gpio.h **** 
 782:Generated_Source\PSoC6\pdl\drivers/peripheral/gpio/cy_gpio.h **** 
 783:Generated_Source\PSoC6\pdl\drivers/peripheral/gpio/cy_gpio.h **** /*******************************************************************************
 784:Generated_Source\PSoC6\pdl\drivers/peripheral/gpio/cy_gpio.h **** * Function Name: Cy_GPIO_Write
 785:Generated_Source\PSoC6\pdl\drivers/peripheral/gpio/cy_gpio.h **** ****************************************************************************//**
 786:Generated_Source\PSoC6\pdl\drivers/peripheral/gpio/cy_gpio.h **** *
 787:Generated_Source\PSoC6\pdl\drivers/peripheral/gpio/cy_gpio.h **** * Write a logic 0 or logic 1 state to the output driver.
 788:Generated_Source\PSoC6\pdl\drivers/peripheral/gpio/cy_gpio.h **** *
ARM GAS  C:\Users\haske\AppData\Local\Temp\ccWSfRiA.s 			page 33


 789:Generated_Source\PSoC6\pdl\drivers/peripheral/gpio/cy_gpio.h **** * This function should be used only for software driven pins. It does not have
 790:Generated_Source\PSoC6\pdl\drivers/peripheral/gpio/cy_gpio.h **** * any effect on peripheral driven pins.
 791:Generated_Source\PSoC6\pdl\drivers/peripheral/gpio/cy_gpio.h **** *
 792:Generated_Source\PSoC6\pdl\drivers/peripheral/gpio/cy_gpio.h **** * \param base
 793:Generated_Source\PSoC6\pdl\drivers/peripheral/gpio/cy_gpio.h **** * Pointer to the pin's port register base address
 794:Generated_Source\PSoC6\pdl\drivers/peripheral/gpio/cy_gpio.h **** *
 795:Generated_Source\PSoC6\pdl\drivers/peripheral/gpio/cy_gpio.h **** * \param pinNum
 796:Generated_Source\PSoC6\pdl\drivers/peripheral/gpio/cy_gpio.h **** * Position of the pin bit-field within the port register
 797:Generated_Source\PSoC6\pdl\drivers/peripheral/gpio/cy_gpio.h **** *
 798:Generated_Source\PSoC6\pdl\drivers/peripheral/gpio/cy_gpio.h **** * \param value
 799:Generated_Source\PSoC6\pdl\drivers/peripheral/gpio/cy_gpio.h **** * Logic level to drive out on the pin
 800:Generated_Source\PSoC6\pdl\drivers/peripheral/gpio/cy_gpio.h **** *
 801:Generated_Source\PSoC6\pdl\drivers/peripheral/gpio/cy_gpio.h **** * \funcusage
 802:Generated_Source\PSoC6\pdl\drivers/peripheral/gpio/cy_gpio.h **** * \snippet gpio/gpio_v1_10_sut_01.cydsn/main_cm4.c snippet_Cy_GPIO_Write
 803:Generated_Source\PSoC6\pdl\drivers/peripheral/gpio/cy_gpio.h **** *
 804:Generated_Source\PSoC6\pdl\drivers/peripheral/gpio/cy_gpio.h **** *******************************************************************************/
 805:Generated_Source\PSoC6\pdl\drivers/peripheral/gpio/cy_gpio.h **** __STATIC_INLINE void Cy_GPIO_Write(GPIO_PRT_Type* base, uint32_t pinNum, uint32_t value)
 806:Generated_Source\PSoC6\pdl\drivers/peripheral/gpio/cy_gpio.h **** {
 807:Generated_Source\PSoC6\pdl\drivers/peripheral/gpio/cy_gpio.h ****     CY_ASSERT_L2(CY_GPIO_IS_PIN_VALID(pinNum));
 808:Generated_Source\PSoC6\pdl\drivers/peripheral/gpio/cy_gpio.h ****     CY_ASSERT_L2(CY_GPIO_IS_VALUE_VALID(value));
 809:Generated_Source\PSoC6\pdl\drivers/peripheral/gpio/cy_gpio.h **** 
 810:Generated_Source\PSoC6\pdl\drivers/peripheral/gpio/cy_gpio.h ****     /* Thread-safe: Directly access the pin registers instead of base->OUT */
 811:Generated_Source\PSoC6\pdl\drivers/peripheral/gpio/cy_gpio.h ****     if(0UL == value)
 812:Generated_Source\PSoC6\pdl\drivers/peripheral/gpio/cy_gpio.h ****     {
 813:Generated_Source\PSoC6\pdl\drivers/peripheral/gpio/cy_gpio.h ****         GPIO_PRT_OUT_CLR(base) = CY_GPIO_OUT_MASK << pinNum;
 814:Generated_Source\PSoC6\pdl\drivers/peripheral/gpio/cy_gpio.h ****     }
 815:Generated_Source\PSoC6\pdl\drivers/peripheral/gpio/cy_gpio.h ****     else
 816:Generated_Source\PSoC6\pdl\drivers/peripheral/gpio/cy_gpio.h ****     {
 817:Generated_Source\PSoC6\pdl\drivers/peripheral/gpio/cy_gpio.h ****         GPIO_PRT_OUT_SET(base) = CY_GPIO_OUT_MASK << pinNum;
 620              		.loc 2 817 0
 621 000c 1F4F     		ldr	r7, .L42+4
 622 000e 4FF00808 		mov	r8, #8
 623 0012 C7F80880 		str	r8, [r7, #8]
 624              	.LVL76:
 625              	.LBE99:
 626              	.LBE98:
 627              	.LBB100:
 628              	.LBB101:
 629 0016 1E4E     		ldr	r6, .L42+8
 630 0018 8024     		movs	r4, #128
 631 001a B460     		str	r4, [r6, #8]
 632              	.LVL77:
 633              	.LBE101:
 634              	.LBE100:
 635              	.LBB102:
 636              	.LBB103:
 637 001c DFF878A0 		ldr	r10, .L42+16
 638 0020 4FF0040B 		mov	fp, #4
 639 0024 CAF808B0 		str	fp, [r10, #8]
 640              	.LVL78:
 641              	.LBE103:
 642              	.LBE102:
 643              	.LBB104:
 644              	.LBB105:
 645 0028 DFF87090 		ldr	r9, .L42+20
 646 002c C9F80840 		str	r4, [r9, #8]
 647              	.LVL79:
ARM GAS  C:\Users\haske\AppData\Local\Temp\ccWSfRiA.s 			page 34


 648              	.LBE105:
 649              	.LBE104:
 415:user_interface.c ****         
 416:user_interface.c ****         //On positive direction
 417:user_interface.c ****         Cy_GPIO_Write(TENS_USER_EN1_PORT, TENS_USER_EN1_NUM, 1);
 418:user_interface.c ****         Cy_GPIO_Write(TENS_USER_EN2_PORT, TENS_USER_EN2_NUM, 1);
 419:user_interface.c ****         Cy_GPIO_Write(TENS_POS1_PORT, TENS_POS1_NUM, 1);
 420:user_interface.c ****         Cy_GPIO_Write(TENS_POS2_PORT, TENS_POS2_NUM, 1);
 421:user_interface.c ****         
 422:user_interface.c ****         CyDelayUs(tens_dur_us);
 650              		.loc 1 422 0
 651 0030 184D     		ldr	r5, .L42+12
 652 0032 A88A     		ldrh	r0, [r5, #20]
 653 0034 FFF7FEFF 		bl	Cy_SysLib_DelayUs
 654              	.LVL80:
 655              	.LBB106:
 656              	.LBB107:
 813:Generated_Source\PSoC6\pdl\drivers/peripheral/gpio/cy_gpio.h ****     }
 657              		.loc 2 813 0
 658 0038 CAF804B0 		str	fp, [r10, #4]
 659              	.LVL81:
 660              	.LBE107:
 661              	.LBE106:
 662              	.LBB108:
 663              	.LBB109:
 664 003c C9F80440 		str	r4, [r9, #4]
 665              	.LVL82:
 666              	.LBE109:
 667              	.LBE108:
 668              	.LBB110:
 669              	.LBB111:
 670 0040 C7F80480 		str	r8, [r7, #4]
 671              	.LVL83:
 672              	.LBE111:
 673              	.LBE110:
 674              	.LBB112:
 675              	.LBB113:
 676 0044 7460     		str	r4, [r6, #4]
 677              	.LVL84:
 678              	.LBE113:
 679              	.LBE112:
 423:user_interface.c ****         
 424:user_interface.c ****         //Off state in between
 425:user_interface.c ****         Cy_GPIO_Write(TENS_POS1_PORT, TENS_POS1_NUM, 0);
 426:user_interface.c ****         Cy_GPIO_Write(TENS_POS2_PORT, TENS_POS2_NUM, 0);
 427:user_interface.c ****         Cy_GPIO_Write(TENS_USER_EN1_PORT, TENS_USER_EN1_NUM, 0);
 428:user_interface.c ****         Cy_GPIO_Write(TENS_USER_EN2_PORT, TENS_USER_EN2_NUM, 0);
 429:user_interface.c ****         
 430:user_interface.c ****         CyDelayUs(tens_dur_us);
 680              		.loc 1 430 0
 681 0046 A88A     		ldrh	r0, [r5, #20]
 682 0048 FFF7FEFF 		bl	Cy_SysLib_DelayUs
 683              	.LVL85:
 684              	.LBB114:
 685              	.LBB115:
 686              		.loc 2 817 0
 687 004c C7F80880 		str	r8, [r7, #8]
ARM GAS  C:\Users\haske\AppData\Local\Temp\ccWSfRiA.s 			page 35


 688              	.LVL86:
 689              	.LBE115:
 690              	.LBE114:
 691              	.LBB116:
 692              	.LBB117:
 693 0050 B460     		str	r4, [r6, #8]
 694              	.LVL87:
 695              	.LBE117:
 696              	.LBE116:
 697              	.LBB118:
 698              	.LBB119:
 699 0052 4FF0400B 		mov	fp, #64
 700 0056 C9F808B0 		str	fp, [r9, #8]
 701              	.LVL88:
 702              	.LBE119:
 703              	.LBE118:
 704              	.LBB120:
 705              	.LBB121:
 706 005a AAF5207A 		sub	r10, r10, #640
 707 005e 2023     		movs	r3, #32
 708 0060 CAF80830 		str	r3, [r10, #8]
 709              	.LVL89:
 710              	.LBE121:
 711              	.LBE120:
 431:user_interface.c ****         
 432:user_interface.c ****         //On negative direction
 433:user_interface.c ****         Cy_GPIO_Write(TENS_USER_EN1_PORT, TENS_USER_EN1_NUM, 1);
 434:user_interface.c ****         Cy_GPIO_Write(TENS_USER_EN2_PORT, TENS_USER_EN2_NUM, 1);
 435:user_interface.c ****         Cy_GPIO_Write(TENS_NEG1_PORT, TENS_NEG1_NUM, 1);
 436:user_interface.c ****         Cy_GPIO_Write(TENS_NEG2_PORT, TENS_NEG2_NUM, 1);
 437:user_interface.c ****         
 438:user_interface.c ****         CyDelayUs(tens_dur_us);
 712              		.loc 1 438 0
 713 0064 A88A     		ldrh	r0, [r5, #20]
 714 0066 FFF7FEFF 		bl	Cy_SysLib_DelayUs
 715              	.LVL90:
 716              	.LBB122:
 717              	.LBB123:
 813:Generated_Source\PSoC6\pdl\drivers/peripheral/gpio/cy_gpio.h ****     }
 718              		.loc 2 813 0
 719 006a C9F804B0 		str	fp, [r9, #4]
 720              	.LVL91:
 721              	.LBE123:
 722              	.LBE122:
 723              	.LBB124:
 724              	.LBB125:
 725 006e 2023     		movs	r3, #32
 726 0070 CAF80430 		str	r3, [r10, #4]
 727              	.LVL92:
 728              	.LBE125:
 729              	.LBE124:
 730              	.LBB126:
 731              	.LBB127:
 732 0074 C7F80480 		str	r8, [r7, #4]
 733              	.LVL93:
 734              	.LBE127:
 735              	.LBE126:
ARM GAS  C:\Users\haske\AppData\Local\Temp\ccWSfRiA.s 			page 36


 736              	.LBB128:
 737              	.LBB129:
 738 0078 7460     		str	r4, [r6, #4]
 739              	.LVL94:
 740              	.LBE129:
 741              	.LBE128:
 439:user_interface.c ****         
 440:user_interface.c ****         //Off state in between
 441:user_interface.c ****         Cy_GPIO_Write(TENS_NEG1_PORT, TENS_NEG1_NUM, 0);
 442:user_interface.c ****         Cy_GPIO_Write(TENS_NEG2_PORT, TENS_NEG2_NUM, 0);
 443:user_interface.c ****         Cy_GPIO_Write(TENS_USER_EN1_PORT, TENS_USER_EN1_NUM, 0);
 444:user_interface.c ****         Cy_GPIO_Write(TENS_USER_EN2_PORT, TENS_USER_EN2_NUM, 0);
 445:user_interface.c ****         
 446:user_interface.c ****         if (tens_interval_ms > 0) 
 742              		.loc 1 446 0
 743 007a AB69     		ldr	r3, [r5, #24]
 744 007c 002B     		cmp	r3, #0
 745 007e 01DD     		ble	.L39
 447:user_interface.c ****             tens_timeout = tens_interval_ms;
 746              		.loc 1 447 0
 747 0080 014A     		ldr	r2, .L42
 748 0082 1360     		str	r3, [r2]
 749              	.L39:
 750 0084 BDE8F88F 		pop	{r3, r4, r5, r6, r7, r8, r9, r10, fp, pc}
 751              	.L43:
 752              		.align	2
 753              	.L42:
 754 0088 00000000 		.word	.LANCHOR0
 755 008c 00033240 		.word	1077019392
 756 0090 80033240 		.word	1077019520
 757 0094 00000000 		.word	.LANCHOR1
 758 0098 00053240 		.word	1077019904
 759 009c 00063240 		.word	1077020160
 760              		.cfi_endproc
 761              	.LFE975:
 762              		.size	ui_tens_task, .-ui_tens_task
 763              		.section	.text.ui_settings_tens_freq,"ax",%progbits
 764              		.align	2
 765              		.global	ui_settings_tens_freq
 766              		.thumb
 767              		.thumb_func
 768              		.type	ui_settings_tens_freq, %function
 769              	ui_settings_tens_freq:
 770              	.LFB976:
 448:user_interface.c ****     }
 449:user_interface.c ****     
 450:user_interface.c **** }
 451:user_interface.c **** 
 452:user_interface.c **** /*******************************************************************************
 453:user_interface.c **** * Function Name: void ui_settings_tens_freq(int item)
 454:user_interface.c **** ********************************************************************************
 455:user_interface.c **** *
 456:user_interface.c **** * Parameter:    item
 457:user_interface.c **** *
 458:user_interface.c **** * Summary:
 459:user_interface.c **** *   TENS freq
 460:user_interface.c **** *
ARM GAS  C:\Users\haske\AppData\Local\Temp\ccWSfRiA.s 			page 37


 461:user_interface.c **** *******************************************************************************/
 462:user_interface.c **** void ui_settings_tens_freq (int item) {
 771              		.loc 1 462 0
 772              		.cfi_startproc
 773              		@ args = 0, pretend = 0, frame = 0
 774              		@ frame_needed = 0, uses_anonymous_args = 0
 775              		@ link register save eliminated.
 776              	.LVL95:
 463:user_interface.c ****     
 464:user_interface.c ****     switch (item) {
 777              		.loc 1 464 0
 778 0000 0138     		subs	r0, r0, #1
 779              	.LVL96:
 780 0002 0928     		cmp	r0, #9
 781 0004 06D8     		bhi	.L45
 782 0006 DFE800F0 		tbb	[pc, r0]
 783              	.L47:
 784 000a 0A       		.byte	(.L46-.L47)/2
 785 000b 0F       		.byte	(.L48-.L47)/2
 786 000c 14       		.byte	(.L49-.L47)/2
 787 000d 19       		.byte	(.L50-.L47)/2
 788 000e 1D       		.byte	(.L51-.L47)/2
 789 000f 21       		.byte	(.L52-.L47)/2
 790 0010 25       		.byte	(.L53-.L47)/2
 791 0011 29       		.byte	(.L54-.L47)/2
 792 0012 2D       		.byte	(.L55-.L47)/2
 793 0013 31       		.byte	(.L56-.L47)/2
 794              		.p2align 1
 795              	.L45:
 465:user_interface.c ****         default: tens_interval_ms = -1; break;   
 796              		.loc 1 465 0
 797 0014 4FF0FF32 		mov	r2, #-1
 798 0018 194B     		ldr	r3, .L59
 799 001a 9A61     		str	r2, [r3, #24]
 800 001c 29E0     		b	.L57
 801              	.L46:
 466:user_interface.c ****         case 1: tens_interval_ms = 1000; break;
 802              		.loc 1 466 0
 803 001e 4FF47A72 		mov	r2, #1000
 804 0022 174B     		ldr	r3, .L59
 805 0024 9A61     		str	r2, [r3, #24]
 806 0026 24E0     		b	.L57
 807              	.L48:
 467:user_interface.c ****         case 2: tens_interval_ms = 500; break;
 808              		.loc 1 467 0
 809 0028 4FF4FA72 		mov	r2, #500
 810 002c 144B     		ldr	r3, .L59
 811 002e 9A61     		str	r2, [r3, #24]
 812 0030 1FE0     		b	.L57
 813              	.L49:
 468:user_interface.c ****         case 3: tens_interval_ms = 333; break;
 814              		.loc 1 468 0
 815 0032 40F24D12 		movw	r2, #333
 816 0036 124B     		ldr	r3, .L59
 817 0038 9A61     		str	r2, [r3, #24]
 818 003a 1AE0     		b	.L57
 819              	.L50:
ARM GAS  C:\Users\haske\AppData\Local\Temp\ccWSfRiA.s 			page 38


 469:user_interface.c ****         case 4: tens_interval_ms = 250; break;
 820              		.loc 1 469 0
 821 003c FA22     		movs	r2, #250
 822 003e 104B     		ldr	r3, .L59
 823 0040 9A61     		str	r2, [r3, #24]
 824 0042 16E0     		b	.L57
 825              	.L51:
 470:user_interface.c ****         case 5: tens_interval_ms = 200; break;
 826              		.loc 1 470 0
 827 0044 C822     		movs	r2, #200
 828 0046 0E4B     		ldr	r3, .L59
 829 0048 9A61     		str	r2, [r3, #24]
 830 004a 12E0     		b	.L57
 831              	.L52:
 471:user_interface.c ****         case 6: tens_interval_ms = 167; break;
 832              		.loc 1 471 0
 833 004c A722     		movs	r2, #167
 834 004e 0C4B     		ldr	r3, .L59
 835 0050 9A61     		str	r2, [r3, #24]
 836 0052 0EE0     		b	.L57
 837              	.L53:
 472:user_interface.c ****         case 7: tens_interval_ms = 143; break;
 838              		.loc 1 472 0
 839 0054 8F22     		movs	r2, #143
 840 0056 0A4B     		ldr	r3, .L59
 841 0058 9A61     		str	r2, [r3, #24]
 842 005a 0AE0     		b	.L57
 843              	.L54:
 473:user_interface.c ****         case 8: tens_interval_ms = 125; break;
 844              		.loc 1 473 0
 845 005c 7D22     		movs	r2, #125
 846 005e 084B     		ldr	r3, .L59
 847 0060 9A61     		str	r2, [r3, #24]
 848 0062 06E0     		b	.L57
 849              	.L55:
 474:user_interface.c ****         case 9: tens_interval_ms = 111; break;
 850              		.loc 1 474 0
 851 0064 6F22     		movs	r2, #111
 852 0066 064B     		ldr	r3, .L59
 853 0068 9A61     		str	r2, [r3, #24]
 854 006a 02E0     		b	.L57
 855              	.L56:
 475:user_interface.c ****         case 10: tens_interval_ms = 100; break;
 856              		.loc 1 475 0
 857 006c 6422     		movs	r2, #100
 858 006e 044B     		ldr	r3, .L59
 859 0070 9A61     		str	r2, [r3, #24]
 860              	.L57:
 476:user_interface.c ****     }
 477:user_interface.c ****     
 478:user_interface.c ****     if (tens_interval_ms > 0) 
 861              		.loc 1 478 0
 862 0072 034B     		ldr	r3, .L59
 863 0074 9B69     		ldr	r3, [r3, #24]
 864 0076 002B     		cmp	r3, #0
 865 0078 01DD     		ble	.L44
 479:user_interface.c ****         tens_timeout = tens_interval_ms;
ARM GAS  C:\Users\haske\AppData\Local\Temp\ccWSfRiA.s 			page 39


 866              		.loc 1 479 0
 867 007a 024A     		ldr	r2, .L59+4
 868 007c 1360     		str	r3, [r2]
 869              	.L44:
 870 007e 7047     		bx	lr
 871              	.L60:
 872              		.align	2
 873              	.L59:
 874 0080 00000000 		.word	.LANCHOR1
 875 0084 00000000 		.word	.LANCHOR0
 876              		.cfi_endproc
 877              	.LFE976:
 878              		.size	ui_settings_tens_freq, .-ui_settings_tens_freq
 879              		.section	.text.ui_settings_tens_dur,"ax",%progbits
 880              		.align	2
 881              		.global	ui_settings_tens_dur
 882              		.thumb
 883              		.thumb_func
 884              		.type	ui_settings_tens_dur, %function
 885              	ui_settings_tens_dur:
 886              	.LFB977:
 480:user_interface.c **** }
 481:user_interface.c **** 
 482:user_interface.c **** /*******************************************************************************
 483:user_interface.c **** * Function Name: void ui_settings_tens_dur(int item)
 484:user_interface.c **** ********************************************************************************
 485:user_interface.c **** *
 486:user_interface.c **** * Parameter:    item
 487:user_interface.c **** *
 488:user_interface.c **** * Summary:
 489:user_interface.c **** *   TENS duration
 490:user_interface.c **** *
 491:user_interface.c **** *******************************************************************************/
 492:user_interface.c **** void ui_settings_tens_dur (int item) {
 887              		.loc 1 492 0
 888              		.cfi_startproc
 889              		@ args = 0, pretend = 0, frame = 0
 890              		@ frame_needed = 0, uses_anonymous_args = 0
 891              		@ link register save eliminated.
 892              	.LVL97:
 493:user_interface.c ****     
 494:user_interface.c ****     switch (item) {
 893              		.loc 1 494 0
 894 0000 0138     		subs	r0, r0, #1
 895              	.LVL98:
 896 0002 0928     		cmp	r0, #9
 897 0004 06D8     		bhi	.L62
 898 0006 DFE800F0 		tbb	[pc, r0]
 899              	.L64:
 900 000a 09       		.byte	(.L63-.L64)/2
 901 000b 0E       		.byte	(.L65-.L64)/2
 902 000c 13       		.byte	(.L66-.L64)/2
 903 000d 18       		.byte	(.L67-.L64)/2
 904 000e 1D       		.byte	(.L68-.L64)/2
 905 000f 22       		.byte	(.L69-.L64)/2
 906 0010 27       		.byte	(.L70-.L64)/2
 907 0011 2C       		.byte	(.L71-.L64)/2
ARM GAS  C:\Users\haske\AppData\Local\Temp\ccWSfRiA.s 			page 40


 908 0012 31       		.byte	(.L72-.L64)/2
 909 0013 36       		.byte	(.L73-.L64)/2
 910              		.p2align 1
 911              	.L62:
 495:user_interface.c ****         default: tens_dur_us = 0; break;   
 912              		.loc 1 495 0
 913 0014 0022     		movs	r2, #0
 914 0016 1A4B     		ldr	r3, .L75
 915 0018 5A61     		str	r2, [r3, #20]
 916 001a 7047     		bx	lr
 917              	.L63:
 496:user_interface.c ****         case 1: tens_dur_us = 300; break;
 918              		.loc 1 496 0
 919 001c 4FF49672 		mov	r2, #300
 920 0020 174B     		ldr	r3, .L75
 921 0022 5A61     		str	r2, [r3, #20]
 922 0024 7047     		bx	lr
 923              	.L65:
 497:user_interface.c ****         case 2: tens_dur_us = 400; break;
 924              		.loc 1 497 0
 925 0026 4FF4C872 		mov	r2, #400
 926 002a 154B     		ldr	r3, .L75
 927 002c 5A61     		str	r2, [r3, #20]
 928 002e 7047     		bx	lr
 929              	.L66:
 498:user_interface.c ****         case 3: tens_dur_us = 500; break;
 930              		.loc 1 498 0
 931 0030 4FF4FA72 		mov	r2, #500
 932 0034 124B     		ldr	r3, .L75
 933 0036 5A61     		str	r2, [r3, #20]
 934 0038 7047     		bx	lr
 935              	.L67:
 499:user_interface.c ****         case 4: tens_dur_us = 600; break;
 936              		.loc 1 499 0
 937 003a 4FF41672 		mov	r2, #600
 938 003e 104B     		ldr	r3, .L75
 939 0040 5A61     		str	r2, [r3, #20]
 940 0042 7047     		bx	lr
 941              	.L68:
 500:user_interface.c ****         case 5: tens_dur_us = 700; break;
 942              		.loc 1 500 0
 943 0044 4FF42F72 		mov	r2, #700
 944 0048 0D4B     		ldr	r3, .L75
 945 004a 5A61     		str	r2, [r3, #20]
 946 004c 7047     		bx	lr
 947              	.L69:
 501:user_interface.c ****         case 6: tens_dur_us = 800; break;
 948              		.loc 1 501 0
 949 004e 4FF44872 		mov	r2, #800
 950 0052 0B4B     		ldr	r3, .L75
 951 0054 5A61     		str	r2, [r3, #20]
 952 0056 7047     		bx	lr
 953              	.L70:
 502:user_interface.c ****         case 7: tens_dur_us = 900; break;
 954              		.loc 1 502 0
 955 0058 4FF46172 		mov	r2, #900
 956 005c 084B     		ldr	r3, .L75
ARM GAS  C:\Users\haske\AppData\Local\Temp\ccWSfRiA.s 			page 41


 957 005e 5A61     		str	r2, [r3, #20]
 958 0060 7047     		bx	lr
 959              	.L71:
 503:user_interface.c ****         case 8: tens_dur_us = 1000; break;
 960              		.loc 1 503 0
 961 0062 4FF47A72 		mov	r2, #1000
 962 0066 064B     		ldr	r3, .L75
 963 0068 5A61     		str	r2, [r3, #20]
 964 006a 7047     		bx	lr
 965              	.L72:
 504:user_interface.c ****         case 9: tens_dur_us = 1100; break;
 966              		.loc 1 504 0
 967 006c 40F24C42 		movw	r2, #1100
 968 0070 034B     		ldr	r3, .L75
 969 0072 5A61     		str	r2, [r3, #20]
 970 0074 7047     		bx	lr
 971              	.L73:
 505:user_interface.c ****         case 10: tens_dur_us = 1200; break;
 972              		.loc 1 505 0
 973 0076 4FF49662 		mov	r2, #1200
 974 007a 014B     		ldr	r3, .L75
 975 007c 5A61     		str	r2, [r3, #20]
 976 007e 7047     		bx	lr
 977              	.L76:
 978              		.align	2
 979              	.L75:
 980 0080 00000000 		.word	.LANCHOR1
 981              		.cfi_endproc
 982              	.LFE977:
 983              		.size	ui_settings_tens_dur, .-ui_settings_tens_dur
 984              		.section	.text.ui_settings_tens_amp,"ax",%progbits
 985              		.align	2
 986              		.global	ui_settings_tens_amp
 987              		.thumb
 988              		.thumb_func
 989              		.type	ui_settings_tens_amp, %function
 990              	ui_settings_tens_amp:
 991              	.LFB978:
 506:user_interface.c ****     }
 507:user_interface.c **** }
 508:user_interface.c **** 
 509:user_interface.c **** /*******************************************************************************
 510:user_interface.c **** * Function Name: void ui_settings_tens_amp(int item)
 511:user_interface.c **** ********************************************************************************
 512:user_interface.c **** *
 513:user_interface.c **** * Parameter:    item
 514:user_interface.c **** *
 515:user_interface.c **** * Summary:
 516:user_interface.c **** *   TENS amp
 517:user_interface.c **** *
 518:user_interface.c **** *******************************************************************************/
 519:user_interface.c **** void ui_settings_tens_amp(int item) {
 992              		.loc 1 519 0
 993              		.cfi_startproc
 994              		@ args = 0, pretend = 0, frame = 0
 995              		@ frame_needed = 0, uses_anonymous_args = 0
 996              	.LVL99:
ARM GAS  C:\Users\haske\AppData\Local\Temp\ccWSfRiA.s 			page 42


 997 0000 38B5     		push	{r3, r4, r5, lr}
 998              		.cfi_def_cfa_offset 16
 999              		.cfi_offset 3, -16
 1000              		.cfi_offset 4, -12
 1001              		.cfi_offset 5, -8
 1002              		.cfi_offset 14, -4
 520:user_interface.c **** 
 521:user_interface.c ****     //300 us on, 300 us off and 300 us in reverse direction
 522:user_interface.c ****     
 523:user_interface.c ****     
 524:user_interface.c ****     if (item == 0) {
 1003              		.loc 1 524 0
 1004 0002 68B9     		cbnz	r0, .L78
 525:user_interface.c ****         power_5v_off(); // Not need for new version
 1005              		.loc 1 525 0
 1006 0004 FFF7FEFF 		bl	power_5v_off
 1007              	.LVL100:
 1008              	.LBB130:
 1009              	.LBB131:
 1010              	.LBB132:
 1011              		.file 3 "Generated_Source\\PSoC6\\pdl\\drivers/peripheral/tcpwm/cy_tcpwm_pwm.h"
   1:Generated_Source\PSoC6\pdl\drivers/peripheral/tcpwm/cy_tcpwm_pwm.h **** /***************************************************************************//**
   2:Generated_Source\PSoC6\pdl\drivers/peripheral/tcpwm/cy_tcpwm_pwm.h **** * \file cy_tcpwm_pwm.h
   3:Generated_Source\PSoC6\pdl\drivers/peripheral/tcpwm/cy_tcpwm_pwm.h **** * \version 1.10
   4:Generated_Source\PSoC6\pdl\drivers/peripheral/tcpwm/cy_tcpwm_pwm.h **** *
   5:Generated_Source\PSoC6\pdl\drivers/peripheral/tcpwm/cy_tcpwm_pwm.h **** * \brief
   6:Generated_Source\PSoC6\pdl\drivers/peripheral/tcpwm/cy_tcpwm_pwm.h **** * The header file of the TCPWM PWM driver.
   7:Generated_Source\PSoC6\pdl\drivers/peripheral/tcpwm/cy_tcpwm_pwm.h **** *
   8:Generated_Source\PSoC6\pdl\drivers/peripheral/tcpwm/cy_tcpwm_pwm.h **** ********************************************************************************
   9:Generated_Source\PSoC6\pdl\drivers/peripheral/tcpwm/cy_tcpwm_pwm.h **** * \copyright
  10:Generated_Source\PSoC6\pdl\drivers/peripheral/tcpwm/cy_tcpwm_pwm.h **** * Copyright 2016-2018, Cypress Semiconductor Corporation. All rights reserved.
  11:Generated_Source\PSoC6\pdl\drivers/peripheral/tcpwm/cy_tcpwm_pwm.h **** * You may use this file only in accordance with the license, terms, conditions,
  12:Generated_Source\PSoC6\pdl\drivers/peripheral/tcpwm/cy_tcpwm_pwm.h **** * disclaimers, and limitations in the end user license agreement accompanying
  13:Generated_Source\PSoC6\pdl\drivers/peripheral/tcpwm/cy_tcpwm_pwm.h **** * the software package with which this file was provided.
  14:Generated_Source\PSoC6\pdl\drivers/peripheral/tcpwm/cy_tcpwm_pwm.h **** *******************************************************************************/
  15:Generated_Source\PSoC6\pdl\drivers/peripheral/tcpwm/cy_tcpwm_pwm.h **** 
  16:Generated_Source\PSoC6\pdl\drivers/peripheral/tcpwm/cy_tcpwm_pwm.h **** #if !defined(CY_TCPWM_PWM_H)
  17:Generated_Source\PSoC6\pdl\drivers/peripheral/tcpwm/cy_tcpwm_pwm.h **** #define CY_TCPWM_PWM_H
  18:Generated_Source\PSoC6\pdl\drivers/peripheral/tcpwm/cy_tcpwm_pwm.h **** 
  19:Generated_Source\PSoC6\pdl\drivers/peripheral/tcpwm/cy_tcpwm_pwm.h **** #include "cy_tcpwm.h"
  20:Generated_Source\PSoC6\pdl\drivers/peripheral/tcpwm/cy_tcpwm_pwm.h **** 
  21:Generated_Source\PSoC6\pdl\drivers/peripheral/tcpwm/cy_tcpwm_pwm.h **** #if defined(__cplusplus)
  22:Generated_Source\PSoC6\pdl\drivers/peripheral/tcpwm/cy_tcpwm_pwm.h **** extern "C" {
  23:Generated_Source\PSoC6\pdl\drivers/peripheral/tcpwm/cy_tcpwm_pwm.h **** #endif
  24:Generated_Source\PSoC6\pdl\drivers/peripheral/tcpwm/cy_tcpwm_pwm.h **** 
  25:Generated_Source\PSoC6\pdl\drivers/peripheral/tcpwm/cy_tcpwm_pwm.h **** /**
  26:Generated_Source\PSoC6\pdl\drivers/peripheral/tcpwm/cy_tcpwm_pwm.h **** * \addtogroup group_tcpwm_pwm
  27:Generated_Source\PSoC6\pdl\drivers/peripheral/tcpwm/cy_tcpwm_pwm.h **** * Driver API for PWM.
  28:Generated_Source\PSoC6\pdl\drivers/peripheral/tcpwm/cy_tcpwm_pwm.h **** *
  29:Generated_Source\PSoC6\pdl\drivers/peripheral/tcpwm/cy_tcpwm_pwm.h **** * The functions and other declarations used in this part of the driver are in cy_tcpwm_pwm.h. 
  30:Generated_Source\PSoC6\pdl\drivers/peripheral/tcpwm/cy_tcpwm_pwm.h **** * You can also include cy_pdl.h (ModusToolbox only) to get access to all  
  31:Generated_Source\PSoC6\pdl\drivers/peripheral/tcpwm/cy_tcpwm_pwm.h **** * functions and declarations in the PDL.
  32:Generated_Source\PSoC6\pdl\drivers/peripheral/tcpwm/cy_tcpwm_pwm.h **** * \{
  33:Generated_Source\PSoC6\pdl\drivers/peripheral/tcpwm/cy_tcpwm_pwm.h **** */
  34:Generated_Source\PSoC6\pdl\drivers/peripheral/tcpwm/cy_tcpwm_pwm.h **** 
  35:Generated_Source\PSoC6\pdl\drivers/peripheral/tcpwm/cy_tcpwm_pwm.h **** /**
  36:Generated_Source\PSoC6\pdl\drivers/peripheral/tcpwm/cy_tcpwm_pwm.h **** * \defgroup group_tcpwm_macros_pwm          Macros
ARM GAS  C:\Users\haske\AppData\Local\Temp\ccWSfRiA.s 			page 43


  37:Generated_Source\PSoC6\pdl\drivers/peripheral/tcpwm/cy_tcpwm_pwm.h **** * \defgroup group_tcpwm_functions_pwm       Functions
  38:Generated_Source\PSoC6\pdl\drivers/peripheral/tcpwm/cy_tcpwm_pwm.h **** * \defgroup group_tcpwm_data_structures_pwm Data Structures
  39:Generated_Source\PSoC6\pdl\drivers/peripheral/tcpwm/cy_tcpwm_pwm.h **** * \} */
  40:Generated_Source\PSoC6\pdl\drivers/peripheral/tcpwm/cy_tcpwm_pwm.h **** 
  41:Generated_Source\PSoC6\pdl\drivers/peripheral/tcpwm/cy_tcpwm_pwm.h **** /**
  42:Generated_Source\PSoC6\pdl\drivers/peripheral/tcpwm/cy_tcpwm_pwm.h **** * \addtogroup group_tcpwm_data_structures_pwm
  43:Generated_Source\PSoC6\pdl\drivers/peripheral/tcpwm/cy_tcpwm_pwm.h **** * \{
  44:Generated_Source\PSoC6\pdl\drivers/peripheral/tcpwm/cy_tcpwm_pwm.h **** */
  45:Generated_Source\PSoC6\pdl\drivers/peripheral/tcpwm/cy_tcpwm_pwm.h **** 
  46:Generated_Source\PSoC6\pdl\drivers/peripheral/tcpwm/cy_tcpwm_pwm.h **** /** PWM configuration structure */
  47:Generated_Source\PSoC6\pdl\drivers/peripheral/tcpwm/cy_tcpwm_pwm.h **** typedef struct cy_stc_tcpwm_pwm_config
  48:Generated_Source\PSoC6\pdl\drivers/peripheral/tcpwm/cy_tcpwm_pwm.h **** {
  49:Generated_Source\PSoC6\pdl\drivers/peripheral/tcpwm/cy_tcpwm_pwm.h ****     uint32_t    pwmMode;            /**< Sets the PWM mode. See \ref group_tcpwm_pwm_modes */
  50:Generated_Source\PSoC6\pdl\drivers/peripheral/tcpwm/cy_tcpwm_pwm.h ****     /** Sets the clock prescaler inside the TCWPM block. See \ref group_tcpwm_pwm_clk_prescalers */
  51:Generated_Source\PSoC6\pdl\drivers/peripheral/tcpwm/cy_tcpwm_pwm.h ****     uint32_t     clockPrescaler;
  52:Generated_Source\PSoC6\pdl\drivers/peripheral/tcpwm/cy_tcpwm_pwm.h ****     uint32_t    pwmAlignment;       /**< Sets the PWM alignment. See \ref group_tcpwm_pwm_alignment
  53:Generated_Source\PSoC6\pdl\drivers/peripheral/tcpwm/cy_tcpwm_pwm.h ****     uint32_t    deadTimeClocks;     /**< The number of dead time-clocks if PWM with dead time is ch
  54:Generated_Source\PSoC6\pdl\drivers/peripheral/tcpwm/cy_tcpwm_pwm.h ****     uint32_t    runMode;            /**< Sets the PWM run mode. See \ref group_tcpwm_pwm_run_modes 
  55:Generated_Source\PSoC6\pdl\drivers/peripheral/tcpwm/cy_tcpwm_pwm.h ****     uint32_t    period0;            /**< Sets the period0 of the pwm */
  56:Generated_Source\PSoC6\pdl\drivers/peripheral/tcpwm/cy_tcpwm_pwm.h ****     uint32_t    period1;            /**< Sets the period1 of the pwm */
  57:Generated_Source\PSoC6\pdl\drivers/peripheral/tcpwm/cy_tcpwm_pwm.h ****     bool        enablePeriodSwap;   /**< Enables swapping of period 0 and period 1 on terminal coun
  58:Generated_Source\PSoC6\pdl\drivers/peripheral/tcpwm/cy_tcpwm_pwm.h ****     uint32_t    compare0;           /**< Sets the value for Compare0 */
  59:Generated_Source\PSoC6\pdl\drivers/peripheral/tcpwm/cy_tcpwm_pwm.h ****     uint32_t    compare1;           /**< Sets the value for Compare1 */
  60:Generated_Source\PSoC6\pdl\drivers/peripheral/tcpwm/cy_tcpwm_pwm.h ****     bool        enableCompareSwap;  /**< If enabled, the compare values are swapped on the terminal
  61:Generated_Source\PSoC6\pdl\drivers/peripheral/tcpwm/cy_tcpwm_pwm.h ****     /** Enables an interrupt on the terminal count, capture or compare. See \ref group_tcpwm_interr
  62:Generated_Source\PSoC6\pdl\drivers/peripheral/tcpwm/cy_tcpwm_pwm.h ****     uint32_t    interruptSources;
  63:Generated_Source\PSoC6\pdl\drivers/peripheral/tcpwm/cy_tcpwm_pwm.h ****     uint32_t    invertPWMOut;       /**< Inverts the PWM output */
  64:Generated_Source\PSoC6\pdl\drivers/peripheral/tcpwm/cy_tcpwm_pwm.h ****     uint32_t    invertPWMOutN;      /**< Inverts the PWM_n output */
  65:Generated_Source\PSoC6\pdl\drivers/peripheral/tcpwm/cy_tcpwm_pwm.h ****     uint32_t    killMode;           /**< Configures the PWM kill modes. See \ref group_tcpwm_pwm_ki
  66:Generated_Source\PSoC6\pdl\drivers/peripheral/tcpwm/cy_tcpwm_pwm.h ****     uint32_t    swapInputMode;      /**< Configures how the swap input behaves. See \ref group_tcpw
  67:Generated_Source\PSoC6\pdl\drivers/peripheral/tcpwm/cy_tcpwm_pwm.h ****     /** Selects which input the swap uses. Inputs are device-specific. See \ref group_tcpwm_input_s
  68:Generated_Source\PSoC6\pdl\drivers/peripheral/tcpwm/cy_tcpwm_pwm.h ****     uint32_t    swapInput;
  69:Generated_Source\PSoC6\pdl\drivers/peripheral/tcpwm/cy_tcpwm_pwm.h ****     uint32_t    reloadInputMode;    /**< Configures how the reload input behaves. See \ref group_tc
  70:Generated_Source\PSoC6\pdl\drivers/peripheral/tcpwm/cy_tcpwm_pwm.h ****     /** Selects which input the reload uses. The inputs are device-specific. See \ref group_tcpwm_i
  71:Generated_Source\PSoC6\pdl\drivers/peripheral/tcpwm/cy_tcpwm_pwm.h ****     uint32_t    reloadInput;            
  72:Generated_Source\PSoC6\pdl\drivers/peripheral/tcpwm/cy_tcpwm_pwm.h ****     uint32_t    startInputMode;     /**< Configures how the start input behaves. See \ref group_tcp
  73:Generated_Source\PSoC6\pdl\drivers/peripheral/tcpwm/cy_tcpwm_pwm.h ****     /** Selects which input the start uses. The inputs are device-specific. See \ref group_tcpwm_in
  74:Generated_Source\PSoC6\pdl\drivers/peripheral/tcpwm/cy_tcpwm_pwm.h ****     uint32_t    startInput;                
  75:Generated_Source\PSoC6\pdl\drivers/peripheral/tcpwm/cy_tcpwm_pwm.h ****     uint32_t    killInputMode;      /**< Configures how the kill input behaves. See \ref group_tcpw
  76:Generated_Source\PSoC6\pdl\drivers/peripheral/tcpwm/cy_tcpwm_pwm.h ****     /** Selects which input the kill uses. The inputs are device-specific. See \ref group_tcpwm_inp
  77:Generated_Source\PSoC6\pdl\drivers/peripheral/tcpwm/cy_tcpwm_pwm.h ****     uint32_t    killInput;
  78:Generated_Source\PSoC6\pdl\drivers/peripheral/tcpwm/cy_tcpwm_pwm.h ****     uint32_t    countInputMode;     /**< Configures how the count input behaves. See \ref group_tcp
  79:Generated_Source\PSoC6\pdl\drivers/peripheral/tcpwm/cy_tcpwm_pwm.h ****     /** Selects which input the count uses. The inputs are device-specific. See \ref group_tcpwm_in
  80:Generated_Source\PSoC6\pdl\drivers/peripheral/tcpwm/cy_tcpwm_pwm.h ****     uint32_t    countInput;
  81:Generated_Source\PSoC6\pdl\drivers/peripheral/tcpwm/cy_tcpwm_pwm.h **** }cy_stc_tcpwm_pwm_config_t;
  82:Generated_Source\PSoC6\pdl\drivers/peripheral/tcpwm/cy_tcpwm_pwm.h **** /** \} group_tcpwm_data_structures_pwm */
  83:Generated_Source\PSoC6\pdl\drivers/peripheral/tcpwm/cy_tcpwm_pwm.h **** 
  84:Generated_Source\PSoC6\pdl\drivers/peripheral/tcpwm/cy_tcpwm_pwm.h **** /**
  85:Generated_Source\PSoC6\pdl\drivers/peripheral/tcpwm/cy_tcpwm_pwm.h **** * \addtogroup group_tcpwm_macros_pwm
  86:Generated_Source\PSoC6\pdl\drivers/peripheral/tcpwm/cy_tcpwm_pwm.h **** * \{
  87:Generated_Source\PSoC6\pdl\drivers/peripheral/tcpwm/cy_tcpwm_pwm.h **** * \defgroup group_tcpwm_pwm_run_modes PWM run modes
  88:Generated_Source\PSoC6\pdl\drivers/peripheral/tcpwm/cy_tcpwm_pwm.h **** * \{
  89:Generated_Source\PSoC6\pdl\drivers/peripheral/tcpwm/cy_tcpwm_pwm.h **** * Run modes for the pwm timer.
  90:Generated_Source\PSoC6\pdl\drivers/peripheral/tcpwm/cy_tcpwm_pwm.h **** */
  91:Generated_Source\PSoC6\pdl\drivers/peripheral/tcpwm/cy_tcpwm_pwm.h **** #define CY_TCPWM_PWM_ONESHOT            (1U)    /**< Counter runs once and then stops */
  92:Generated_Source\PSoC6\pdl\drivers/peripheral/tcpwm/cy_tcpwm_pwm.h **** #define CY_TCPWM_PWM_CONTINUOUS         (0U)    /**< Counter runs forever */
  93:Generated_Source\PSoC6\pdl\drivers/peripheral/tcpwm/cy_tcpwm_pwm.h **** /** \} group_tcpwm_pwm_run_modes */
ARM GAS  C:\Users\haske\AppData\Local\Temp\ccWSfRiA.s 			page 44


  94:Generated_Source\PSoC6\pdl\drivers/peripheral/tcpwm/cy_tcpwm_pwm.h **** 
  95:Generated_Source\PSoC6\pdl\drivers/peripheral/tcpwm/cy_tcpwm_pwm.h **** /** \defgroup group_tcpwm_pwm_modes PWM modes 
  96:Generated_Source\PSoC6\pdl\drivers/peripheral/tcpwm/cy_tcpwm_pwm.h **** * \{
  97:Generated_Source\PSoC6\pdl\drivers/peripheral/tcpwm/cy_tcpwm_pwm.h **** * Sets the PWM modes.
  98:Generated_Source\PSoC6\pdl\drivers/peripheral/tcpwm/cy_tcpwm_pwm.h **** */
  99:Generated_Source\PSoC6\pdl\drivers/peripheral/tcpwm/cy_tcpwm_pwm.h **** #define CY_TCPWM_PWM_MODE_PWM           (4U) /**< Standard PWM Mode*/
 100:Generated_Source\PSoC6\pdl\drivers/peripheral/tcpwm/cy_tcpwm_pwm.h **** #define CY_TCPWM_PWM_MODE_DEADTIME      (5U)    /**< PWM with deadtime mode*/
 101:Generated_Source\PSoC6\pdl\drivers/peripheral/tcpwm/cy_tcpwm_pwm.h **** #define CY_TCPWM_PWM_MODE_PSEUDORANDOM  (6U)    /**< Pseudo Random PWM */
 102:Generated_Source\PSoC6\pdl\drivers/peripheral/tcpwm/cy_tcpwm_pwm.h **** /** \} group_tcpwm_pwm_modes */
 103:Generated_Source\PSoC6\pdl\drivers/peripheral/tcpwm/cy_tcpwm_pwm.h **** 
 104:Generated_Source\PSoC6\pdl\drivers/peripheral/tcpwm/cy_tcpwm_pwm.h **** /** \defgroup group_tcpwm_pwm_alignment PWM Alignment
 105:Generated_Source\PSoC6\pdl\drivers/peripheral/tcpwm/cy_tcpwm_pwm.h **** * Sets the alignment of the PWM.
 106:Generated_Source\PSoC6\pdl\drivers/peripheral/tcpwm/cy_tcpwm_pwm.h **** * \{
 107:Generated_Source\PSoC6\pdl\drivers/peripheral/tcpwm/cy_tcpwm_pwm.h **** */
 108:Generated_Source\PSoC6\pdl\drivers/peripheral/tcpwm/cy_tcpwm_pwm.h **** #define CY_TCPWM_PWM_LEFT_ALIGN         (0U)     /**< PWM is left aligned, meaning it starts high *
 109:Generated_Source\PSoC6\pdl\drivers/peripheral/tcpwm/cy_tcpwm_pwm.h **** #define CY_TCPWM_PWM_RIGHT_ALIGN        (1U)        /**< PWM is right aligned, meaning it starts lo
 110:Generated_Source\PSoC6\pdl\drivers/peripheral/tcpwm/cy_tcpwm_pwm.h **** /** PWM is centered aligned, terminal count only occurs on underflow */
 111:Generated_Source\PSoC6\pdl\drivers/peripheral/tcpwm/cy_tcpwm_pwm.h **** #define CY_TCPWM_PWM_CENTER_ALIGN       (2U)
 112:Generated_Source\PSoC6\pdl\drivers/peripheral/tcpwm/cy_tcpwm_pwm.h **** /** PWM is asymmetrically aligned, terminal count occurs on overflow and underflow */
 113:Generated_Source\PSoC6\pdl\drivers/peripheral/tcpwm/cy_tcpwm_pwm.h **** #define CY_TCPWM_PWM_ASYMMETRIC_ALIGN   (3U)
 114:Generated_Source\PSoC6\pdl\drivers/peripheral/tcpwm/cy_tcpwm_pwm.h **** /** \} group_tcpwm_pwm_alignment */
 115:Generated_Source\PSoC6\pdl\drivers/peripheral/tcpwm/cy_tcpwm_pwm.h **** 
 116:Generated_Source\PSoC6\pdl\drivers/peripheral/tcpwm/cy_tcpwm_pwm.h **** /** \defgroup group_tcpwm_pwm_kill_modes PWM kill modes
 117:Generated_Source\PSoC6\pdl\drivers/peripheral/tcpwm/cy_tcpwm_pwm.h **** * Sets the kill mode for the PWM.
 118:Generated_Source\PSoC6\pdl\drivers/peripheral/tcpwm/cy_tcpwm_pwm.h **** * \{
 119:Generated_Source\PSoC6\pdl\drivers/peripheral/tcpwm/cy_tcpwm_pwm.h **** */
 120:Generated_Source\PSoC6\pdl\drivers/peripheral/tcpwm/cy_tcpwm_pwm.h **** #define CY_TCPWM_PWM_STOP_ON_KILL       (2U)    /**< PWM stops counting on kill */
 121:Generated_Source\PSoC6\pdl\drivers/peripheral/tcpwm/cy_tcpwm_pwm.h **** #define CY_TCPWM_PWM_SYNCH_KILL         (1U)    /**< PWM output is killed after next TC*/
 122:Generated_Source\PSoC6\pdl\drivers/peripheral/tcpwm/cy_tcpwm_pwm.h **** #define CY_TCPWM_PWM_ASYNC_KILL         (0U)    /**< PWM output is killed instantly */
 123:Generated_Source\PSoC6\pdl\drivers/peripheral/tcpwm/cy_tcpwm_pwm.h **** /** \} group_tcpwm_pwm_kill_modes */
 124:Generated_Source\PSoC6\pdl\drivers/peripheral/tcpwm/cy_tcpwm_pwm.h **** 
 125:Generated_Source\PSoC6\pdl\drivers/peripheral/tcpwm/cy_tcpwm_pwm.h **** /** \defgroup group_tcpwm_pwm_clk_prescalers PWM CLK Prescaler values
 126:Generated_Source\PSoC6\pdl\drivers/peripheral/tcpwm/cy_tcpwm_pwm.h **** * \{
 127:Generated_Source\PSoC6\pdl\drivers/peripheral/tcpwm/cy_tcpwm_pwm.h **** * Clock prescaler values.
 128:Generated_Source\PSoC6\pdl\drivers/peripheral/tcpwm/cy_tcpwm_pwm.h **** */
 129:Generated_Source\PSoC6\pdl\drivers/peripheral/tcpwm/cy_tcpwm_pwm.h **** #define CY_TCPWM_PWM_PRESCALER_DIVBY_1      (0U) /**< Divide by 1 */
 130:Generated_Source\PSoC6\pdl\drivers/peripheral/tcpwm/cy_tcpwm_pwm.h **** #define CY_TCPWM_PWM_PRESCALER_DIVBY_2      (1U) /**< Divide by 2 */
 131:Generated_Source\PSoC6\pdl\drivers/peripheral/tcpwm/cy_tcpwm_pwm.h **** #define CY_TCPWM_PWM_PRESCALER_DIVBY_4      (2U) /**< Divide by 4 */
 132:Generated_Source\PSoC6\pdl\drivers/peripheral/tcpwm/cy_tcpwm_pwm.h **** #define CY_TCPWM_PWM_PRESCALER_DIVBY_8      (3U) /**< Divide by 8 */
 133:Generated_Source\PSoC6\pdl\drivers/peripheral/tcpwm/cy_tcpwm_pwm.h **** #define CY_TCPWM_PWM_PRESCALER_DIVBY_16     (4U) /**< Divide by 16 */
 134:Generated_Source\PSoC6\pdl\drivers/peripheral/tcpwm/cy_tcpwm_pwm.h **** #define CY_TCPWM_PWM_PRESCALER_DIVBY_32     (5U) /**< Divide by 32 */
 135:Generated_Source\PSoC6\pdl\drivers/peripheral/tcpwm/cy_tcpwm_pwm.h **** #define CY_TCPWM_PWM_PRESCALER_DIVBY_64     (6U) /**< Divide by 64 */
 136:Generated_Source\PSoC6\pdl\drivers/peripheral/tcpwm/cy_tcpwm_pwm.h **** #define CY_TCPWM_PWM_PRESCALER_DIVBY_128    (7U) /**< Divide by 128 */
 137:Generated_Source\PSoC6\pdl\drivers/peripheral/tcpwm/cy_tcpwm_pwm.h **** /** \} group_tcpwm_pwm_clk_prescalers */
 138:Generated_Source\PSoC6\pdl\drivers/peripheral/tcpwm/cy_tcpwm_pwm.h **** 
 139:Generated_Source\PSoC6\pdl\drivers/peripheral/tcpwm/cy_tcpwm_pwm.h **** /** \defgroup group_tcpwm_pwm_output_invert PWM output invert
 140:Generated_Source\PSoC6\pdl\drivers/peripheral/tcpwm/cy_tcpwm_pwm.h **** * \{
 141:Generated_Source\PSoC6\pdl\drivers/peripheral/tcpwm/cy_tcpwm_pwm.h **** * Output invert modes.
 142:Generated_Source\PSoC6\pdl\drivers/peripheral/tcpwm/cy_tcpwm_pwm.h **** */
 143:Generated_Source\PSoC6\pdl\drivers/peripheral/tcpwm/cy_tcpwm_pwm.h **** #define CY_TCPWM_PWM_INVERT_ENABLE          (1U)  /**< Invert the output mode */
 144:Generated_Source\PSoC6\pdl\drivers/peripheral/tcpwm/cy_tcpwm_pwm.h **** #define CY_TCPWM_PWM_INVERT_DISABLE         (0U)  /**< Do not invert the output mode */
 145:Generated_Source\PSoC6\pdl\drivers/peripheral/tcpwm/cy_tcpwm_pwm.h **** /** \} group_tcpwm_pwm_output_invert */
 146:Generated_Source\PSoC6\pdl\drivers/peripheral/tcpwm/cy_tcpwm_pwm.h **** 
 147:Generated_Source\PSoC6\pdl\drivers/peripheral/tcpwm/cy_tcpwm_pwm.h **** /** \defgroup group_tcpwm_pwm_status PWM Status
 148:Generated_Source\PSoC6\pdl\drivers/peripheral/tcpwm/cy_tcpwm_pwm.h **** * \{
 149:Generated_Source\PSoC6\pdl\drivers/peripheral/tcpwm/cy_tcpwm_pwm.h **** * The counter status.
 150:Generated_Source\PSoC6\pdl\drivers/peripheral/tcpwm/cy_tcpwm_pwm.h **** */
ARM GAS  C:\Users\haske\AppData\Local\Temp\ccWSfRiA.s 			page 45


 151:Generated_Source\PSoC6\pdl\drivers/peripheral/tcpwm/cy_tcpwm_pwm.h **** #define CY_TCPWM_PWM_STATUS_DOWN_COUNTING   (0x1UL)        /**< PWM is down counting */
 152:Generated_Source\PSoC6\pdl\drivers/peripheral/tcpwm/cy_tcpwm_pwm.h **** #define CY_TCPWM_PWM_STATUS_UP_COUNTING     (0x2UL)        /**< PWM is up counting */
 153:Generated_Source\PSoC6\pdl\drivers/peripheral/tcpwm/cy_tcpwm_pwm.h **** #define CY_TCPWM_PWM_STATUS_COUNTER_RUNNING (TCPWM_CNT_STATUS_RUNNING_Msk)     /**< PWM counter is 
 154:Generated_Source\PSoC6\pdl\drivers/peripheral/tcpwm/cy_tcpwm_pwm.h **** /** \} group_tcpwm_pwm_status */
 155:Generated_Source\PSoC6\pdl\drivers/peripheral/tcpwm/cy_tcpwm_pwm.h **** /** \} group_tcpwm_macros_pwm */
 156:Generated_Source\PSoC6\pdl\drivers/peripheral/tcpwm/cy_tcpwm_pwm.h **** 
 157:Generated_Source\PSoC6\pdl\drivers/peripheral/tcpwm/cy_tcpwm_pwm.h **** 
 158:Generated_Source\PSoC6\pdl\drivers/peripheral/tcpwm/cy_tcpwm_pwm.h **** /***************************************
 159:Generated_Source\PSoC6\pdl\drivers/peripheral/tcpwm/cy_tcpwm_pwm.h **** *        Registers Constants
 160:Generated_Source\PSoC6\pdl\drivers/peripheral/tcpwm/cy_tcpwm_pwm.h **** ***************************************/
 161:Generated_Source\PSoC6\pdl\drivers/peripheral/tcpwm/cy_tcpwm_pwm.h **** 
 162:Generated_Source\PSoC6\pdl\drivers/peripheral/tcpwm/cy_tcpwm_pwm.h **** /** \cond INTERNAL */
 163:Generated_Source\PSoC6\pdl\drivers/peripheral/tcpwm/cy_tcpwm_pwm.h **** #define CY_TCPWM_PWM_CTRL_SYNC_KILL_OR_STOP_ON_KILL_POS  (2U)
 164:Generated_Source\PSoC6\pdl\drivers/peripheral/tcpwm/cy_tcpwm_pwm.h **** #define CY_TCPWM_PWM_CTRL_SYNC_KILL_OR_STOP_ON_KILL_MASK (0x3UL << CY_TCPWM_PWM_CTRL_SYNC_KILL_OR_S
 165:Generated_Source\PSoC6\pdl\drivers/peripheral/tcpwm/cy_tcpwm_pwm.h **** 
 166:Generated_Source\PSoC6\pdl\drivers/peripheral/tcpwm/cy_tcpwm_pwm.h **** #define CY_TCPWM_PWM_TR_CTRL2_SET           (0UL) /**< Set define for PWM output signal configurati
 167:Generated_Source\PSoC6\pdl\drivers/peripheral/tcpwm/cy_tcpwm_pwm.h **** #define CY_TCPWM_PWM_TR_CTRL2_CLEAR         (1UL) /**< Clear define for PWM output signal configura
 168:Generated_Source\PSoC6\pdl\drivers/peripheral/tcpwm/cy_tcpwm_pwm.h **** #define CY_TCPWM_PWM_TR_CTRL2_INVERT        (2UL) /**< Invert define for PWM output signal configur
 169:Generated_Source\PSoC6\pdl\drivers/peripheral/tcpwm/cy_tcpwm_pwm.h **** #define CY_TCPWM_PWM_TR_CTRL2_NO_CHANGE     (3UL) /**< No change define for PWM output signal confi
 170:Generated_Source\PSoC6\pdl\drivers/peripheral/tcpwm/cy_tcpwm_pwm.h **** 
 171:Generated_Source\PSoC6\pdl\drivers/peripheral/tcpwm/cy_tcpwm_pwm.h **** /** The configuration of PWM output signal in Pseudo Random Mode */
 172:Generated_Source\PSoC6\pdl\drivers/peripheral/tcpwm/cy_tcpwm_pwm.h **** #define CY_TCPWM_PWM_MODE_PR         (_VAL2FLD(TCPWM_CNT_TR_CTRL2_CC_MATCH_MODE, CY_TCPWM_PWM_TR_CT
 173:Generated_Source\PSoC6\pdl\drivers/peripheral/tcpwm/cy_tcpwm_pwm.h ****                                       _VAL2FLD(TCPWM_CNT_TR_CTRL2_OVERFLOW_MODE, CY_TCPWM_PWM_TR_CT
 174:Generated_Source\PSoC6\pdl\drivers/peripheral/tcpwm/cy_tcpwm_pwm.h ****                                       _VAL2FLD(TCPWM_CNT_TR_CTRL2_UNDERFLOW_MODE, CY_TCPWM_PWM_TR_C
 175:Generated_Source\PSoC6\pdl\drivers/peripheral/tcpwm/cy_tcpwm_pwm.h **** 
 176:Generated_Source\PSoC6\pdl\drivers/peripheral/tcpwm/cy_tcpwm_pwm.h **** /** The configuration of PWM output signal for Left alignment */
 177:Generated_Source\PSoC6\pdl\drivers/peripheral/tcpwm/cy_tcpwm_pwm.h **** #define CY_TCPWM_PWM_MODE_LEFT       (_VAL2FLD(TCPWM_CNT_TR_CTRL2_CC_MATCH_MODE, CY_TCPWM_PWM_TR_CT
 178:Generated_Source\PSoC6\pdl\drivers/peripheral/tcpwm/cy_tcpwm_pwm.h ****                                       _VAL2FLD(TCPWM_CNT_TR_CTRL2_OVERFLOW_MODE, CY_TCPWM_PWM_TR_CT
 179:Generated_Source\PSoC6\pdl\drivers/peripheral/tcpwm/cy_tcpwm_pwm.h ****                                       _VAL2FLD(TCPWM_CNT_TR_CTRL2_UNDERFLOW_MODE, CY_TCPWM_PWM_TR_C
 180:Generated_Source\PSoC6\pdl\drivers/peripheral/tcpwm/cy_tcpwm_pwm.h **** 
 181:Generated_Source\PSoC6\pdl\drivers/peripheral/tcpwm/cy_tcpwm_pwm.h **** /** The configuration of PWM output signal for Right alignment */
 182:Generated_Source\PSoC6\pdl\drivers/peripheral/tcpwm/cy_tcpwm_pwm.h **** #define CY_TCPWM_PWM_MODE_RIGHT      (_VAL2FLD(TCPWM_CNT_TR_CTRL2_CC_MATCH_MODE, CY_TCPWM_PWM_TR_CT
 183:Generated_Source\PSoC6\pdl\drivers/peripheral/tcpwm/cy_tcpwm_pwm.h ****                                       _VAL2FLD(TCPWM_CNT_TR_CTRL2_OVERFLOW_MODE, CY_TCPWM_PWM_TR_CT
 184:Generated_Source\PSoC6\pdl\drivers/peripheral/tcpwm/cy_tcpwm_pwm.h ****                                       _VAL2FLD(TCPWM_CNT_TR_CTRL2_UNDERFLOW_MODE, CY_TCPWM_PWM_TR_C
 185:Generated_Source\PSoC6\pdl\drivers/peripheral/tcpwm/cy_tcpwm_pwm.h **** 
 186:Generated_Source\PSoC6\pdl\drivers/peripheral/tcpwm/cy_tcpwm_pwm.h **** /** The configuration of PWM output signal for Center and Asymmetric alignment */
 187:Generated_Source\PSoC6\pdl\drivers/peripheral/tcpwm/cy_tcpwm_pwm.h **** #define CY_TCPWM_PWM_MODE_CNTR_OR_ASYMM (_VAL2FLD(TCPWM_CNT_TR_CTRL2_CC_MATCH_MODE, CY_TCPWM_PWM_TR
 188:Generated_Source\PSoC6\pdl\drivers/peripheral/tcpwm/cy_tcpwm_pwm.h ****                                          _VAL2FLD(TCPWM_CNT_TR_CTRL2_OVERFLOW_MODE, CY_TCPWM_PWM_TR
 189:Generated_Source\PSoC6\pdl\drivers/peripheral/tcpwm/cy_tcpwm_pwm.h ****                                          _VAL2FLD(TCPWM_CNT_TR_CTRL2_UNDERFLOW_MODE, CY_TCPWM_PWM_T
 190:Generated_Source\PSoC6\pdl\drivers/peripheral/tcpwm/cy_tcpwm_pwm.h **** /** \endcond */
 191:Generated_Source\PSoC6\pdl\drivers/peripheral/tcpwm/cy_tcpwm_pwm.h **** 
 192:Generated_Source\PSoC6\pdl\drivers/peripheral/tcpwm/cy_tcpwm_pwm.h **** 
 193:Generated_Source\PSoC6\pdl\drivers/peripheral/tcpwm/cy_tcpwm_pwm.h **** /*******************************************************************************
 194:Generated_Source\PSoC6\pdl\drivers/peripheral/tcpwm/cy_tcpwm_pwm.h **** *        Function Prototypes
 195:Generated_Source\PSoC6\pdl\drivers/peripheral/tcpwm/cy_tcpwm_pwm.h **** *******************************************************************************/
 196:Generated_Source\PSoC6\pdl\drivers/peripheral/tcpwm/cy_tcpwm_pwm.h **** 
 197:Generated_Source\PSoC6\pdl\drivers/peripheral/tcpwm/cy_tcpwm_pwm.h **** /**
 198:Generated_Source\PSoC6\pdl\drivers/peripheral/tcpwm/cy_tcpwm_pwm.h **** * \addtogroup group_tcpwm_functions_pwm
 199:Generated_Source\PSoC6\pdl\drivers/peripheral/tcpwm/cy_tcpwm_pwm.h **** * \{
 200:Generated_Source\PSoC6\pdl\drivers/peripheral/tcpwm/cy_tcpwm_pwm.h **** */
 201:Generated_Source\PSoC6\pdl\drivers/peripheral/tcpwm/cy_tcpwm_pwm.h **** 
 202:Generated_Source\PSoC6\pdl\drivers/peripheral/tcpwm/cy_tcpwm_pwm.h **** cy_en_tcpwm_status_t Cy_TCPWM_PWM_Init(TCPWM_Type *base, uint32_t cntNum, cy_stc_tcpwm_pwm_config_t
 203:Generated_Source\PSoC6\pdl\drivers/peripheral/tcpwm/cy_tcpwm_pwm.h **** void Cy_TCPWM_PWM_DeInit(TCPWM_Type *base, uint32_t cntNum, cy_stc_tcpwm_pwm_config_t const *config
 204:Generated_Source\PSoC6\pdl\drivers/peripheral/tcpwm/cy_tcpwm_pwm.h **** __STATIC_INLINE void Cy_TCPWM_PWM_Enable(TCPWM_Type *base, uint32_t cntNum);
 205:Generated_Source\PSoC6\pdl\drivers/peripheral/tcpwm/cy_tcpwm_pwm.h **** __STATIC_INLINE void Cy_TCPWM_PWM_Disable(TCPWM_Type *base, uint32_t cntNum);
 206:Generated_Source\PSoC6\pdl\drivers/peripheral/tcpwm/cy_tcpwm_pwm.h **** __STATIC_INLINE uint32_t Cy_TCPWM_PWM_GetStatus(TCPWM_Type const *base, uint32_t cntNum);
 207:Generated_Source\PSoC6\pdl\drivers/peripheral/tcpwm/cy_tcpwm_pwm.h **** __STATIC_INLINE void Cy_TCPWM_PWM_SetCompare0(TCPWM_Type *base, uint32_t cntNum, uint32_t compare0)
ARM GAS  C:\Users\haske\AppData\Local\Temp\ccWSfRiA.s 			page 46


 208:Generated_Source\PSoC6\pdl\drivers/peripheral/tcpwm/cy_tcpwm_pwm.h **** __STATIC_INLINE uint32_t Cy_TCPWM_PWM_GetCompare0(TCPWM_Type const *base, uint32_t cntNum);
 209:Generated_Source\PSoC6\pdl\drivers/peripheral/tcpwm/cy_tcpwm_pwm.h **** __STATIC_INLINE void Cy_TCPWM_PWM_SetCompare1(TCPWM_Type *base, uint32_t cntNum, uint32_t compare1)
 210:Generated_Source\PSoC6\pdl\drivers/peripheral/tcpwm/cy_tcpwm_pwm.h **** __STATIC_INLINE uint32_t Cy_TCPWM_PWM_GetCompare1(TCPWM_Type const *base, uint32_t cntNum);
 211:Generated_Source\PSoC6\pdl\drivers/peripheral/tcpwm/cy_tcpwm_pwm.h **** __STATIC_INLINE void Cy_TCPWM_PWM_EnableCompareSwap(TCPWM_Type *base, uint32_t cntNum, bool enable)
 212:Generated_Source\PSoC6\pdl\drivers/peripheral/tcpwm/cy_tcpwm_pwm.h **** __STATIC_INLINE void Cy_TCPWM_PWM_SetCounter(TCPWM_Type *base, uint32_t cntNum, uint32_t count);
 213:Generated_Source\PSoC6\pdl\drivers/peripheral/tcpwm/cy_tcpwm_pwm.h **** __STATIC_INLINE uint32_t Cy_TCPWM_PWM_GetCounter(TCPWM_Type const *base, uint32_t cntNum);
 214:Generated_Source\PSoC6\pdl\drivers/peripheral/tcpwm/cy_tcpwm_pwm.h **** __STATIC_INLINE void Cy_TCPWM_PWM_SetPeriod0(TCPWM_Type *base, uint32_t cntNum, uint32_t period0);
 215:Generated_Source\PSoC6\pdl\drivers/peripheral/tcpwm/cy_tcpwm_pwm.h **** __STATIC_INLINE uint32_t Cy_TCPWM_PWM_GetPeriod0(TCPWM_Type const *base, uint32_t cntNum);
 216:Generated_Source\PSoC6\pdl\drivers/peripheral/tcpwm/cy_tcpwm_pwm.h **** __STATIC_INLINE void Cy_TCPWM_PWM_SetPeriod1(TCPWM_Type *base, uint32_t cntNum, uint32_t period1);
 217:Generated_Source\PSoC6\pdl\drivers/peripheral/tcpwm/cy_tcpwm_pwm.h **** __STATIC_INLINE uint32_t Cy_TCPWM_PWM_GetPeriod1(TCPWM_Type const *base, uint32_t cntNum);
 218:Generated_Source\PSoC6\pdl\drivers/peripheral/tcpwm/cy_tcpwm_pwm.h **** __STATIC_INLINE void Cy_TCPWM_PWM_EnablePeriodSwap(TCPWM_Type *base, uint32_t cntNum, bool enable);
 219:Generated_Source\PSoC6\pdl\drivers/peripheral/tcpwm/cy_tcpwm_pwm.h **** 
 220:Generated_Source\PSoC6\pdl\drivers/peripheral/tcpwm/cy_tcpwm_pwm.h **** 
 221:Generated_Source\PSoC6\pdl\drivers/peripheral/tcpwm/cy_tcpwm_pwm.h **** /*******************************************************************************
 222:Generated_Source\PSoC6\pdl\drivers/peripheral/tcpwm/cy_tcpwm_pwm.h **** * Function Name: Cy_TCPWM_PWM_Enable
 223:Generated_Source\PSoC6\pdl\drivers/peripheral/tcpwm/cy_tcpwm_pwm.h **** ****************************************************************************//**
 224:Generated_Source\PSoC6\pdl\drivers/peripheral/tcpwm/cy_tcpwm_pwm.h **** *
 225:Generated_Source\PSoC6\pdl\drivers/peripheral/tcpwm/cy_tcpwm_pwm.h **** * Enables the counter in the TCPWM block for the PWM operation.
 226:Generated_Source\PSoC6\pdl\drivers/peripheral/tcpwm/cy_tcpwm_pwm.h **** *
 227:Generated_Source\PSoC6\pdl\drivers/peripheral/tcpwm/cy_tcpwm_pwm.h **** * \param base
 228:Generated_Source\PSoC6\pdl\drivers/peripheral/tcpwm/cy_tcpwm_pwm.h **** * The pointer to a TCPWM instance.
 229:Generated_Source\PSoC6\pdl\drivers/peripheral/tcpwm/cy_tcpwm_pwm.h **** *
 230:Generated_Source\PSoC6\pdl\drivers/peripheral/tcpwm/cy_tcpwm_pwm.h **** * \param cntNum 
 231:Generated_Source\PSoC6\pdl\drivers/peripheral/tcpwm/cy_tcpwm_pwm.h **** * The Counter instance number in the selected TCPWM.
 232:Generated_Source\PSoC6\pdl\drivers/peripheral/tcpwm/cy_tcpwm_pwm.h **** *
 233:Generated_Source\PSoC6\pdl\drivers/peripheral/tcpwm/cy_tcpwm_pwm.h **** * \funcusage
 234:Generated_Source\PSoC6\pdl\drivers/peripheral/tcpwm/cy_tcpwm_pwm.h **** * \snippet tcpwm\1.10\pwm\snippet\main.c snippet_Cy_TCPWM_PWM_Init
 235:Generated_Source\PSoC6\pdl\drivers/peripheral/tcpwm/cy_tcpwm_pwm.h **** *
 236:Generated_Source\PSoC6\pdl\drivers/peripheral/tcpwm/cy_tcpwm_pwm.h **** *******************************************************************************/
 237:Generated_Source\PSoC6\pdl\drivers/peripheral/tcpwm/cy_tcpwm_pwm.h **** __STATIC_INLINE void Cy_TCPWM_PWM_Enable(TCPWM_Type *base, uint32_t cntNum)
 238:Generated_Source\PSoC6\pdl\drivers/peripheral/tcpwm/cy_tcpwm_pwm.h **** {
 239:Generated_Source\PSoC6\pdl\drivers/peripheral/tcpwm/cy_tcpwm_pwm.h ****     TCPWM_CTRL_SET(base) = (1UL << cntNum);
 240:Generated_Source\PSoC6\pdl\drivers/peripheral/tcpwm/cy_tcpwm_pwm.h **** }
 241:Generated_Source\PSoC6\pdl\drivers/peripheral/tcpwm/cy_tcpwm_pwm.h **** 
 242:Generated_Source\PSoC6\pdl\drivers/peripheral/tcpwm/cy_tcpwm_pwm.h **** /*******************************************************************************
 243:Generated_Source\PSoC6\pdl\drivers/peripheral/tcpwm/cy_tcpwm_pwm.h **** * Function Name: Cy_TCPWM_PWM_Disable
 244:Generated_Source\PSoC6\pdl\drivers/peripheral/tcpwm/cy_tcpwm_pwm.h **** ****************************************************************************//**
 245:Generated_Source\PSoC6\pdl\drivers/peripheral/tcpwm/cy_tcpwm_pwm.h **** *
 246:Generated_Source\PSoC6\pdl\drivers/peripheral/tcpwm/cy_tcpwm_pwm.h **** * Disables the counter in the TCPWM block.
 247:Generated_Source\PSoC6\pdl\drivers/peripheral/tcpwm/cy_tcpwm_pwm.h **** *
 248:Generated_Source\PSoC6\pdl\drivers/peripheral/tcpwm/cy_tcpwm_pwm.h **** * \param base
 249:Generated_Source\PSoC6\pdl\drivers/peripheral/tcpwm/cy_tcpwm_pwm.h **** * The pointer to a TCPWM instance.
 250:Generated_Source\PSoC6\pdl\drivers/peripheral/tcpwm/cy_tcpwm_pwm.h **** *
 251:Generated_Source\PSoC6\pdl\drivers/peripheral/tcpwm/cy_tcpwm_pwm.h **** * \param cntNum 
 252:Generated_Source\PSoC6\pdl\drivers/peripheral/tcpwm/cy_tcpwm_pwm.h **** * The Counter instance number in the selected TCPWM.
 253:Generated_Source\PSoC6\pdl\drivers/peripheral/tcpwm/cy_tcpwm_pwm.h **** *
 254:Generated_Source\PSoC6\pdl\drivers/peripheral/tcpwm/cy_tcpwm_pwm.h **** * \funcusage
 255:Generated_Source\PSoC6\pdl\drivers/peripheral/tcpwm/cy_tcpwm_pwm.h **** * \snippet tcpwm\1.10\pwm\snippet\main.c snippet_Cy_TCPWM_PWM_DeInit
 256:Generated_Source\PSoC6\pdl\drivers/peripheral/tcpwm/cy_tcpwm_pwm.h **** *
 257:Generated_Source\PSoC6\pdl\drivers/peripheral/tcpwm/cy_tcpwm_pwm.h **** *******************************************************************************/
 258:Generated_Source\PSoC6\pdl\drivers/peripheral/tcpwm/cy_tcpwm_pwm.h **** __STATIC_INLINE void Cy_TCPWM_PWM_Disable(TCPWM_Type *base, uint32_t cntNum)
 259:Generated_Source\PSoC6\pdl\drivers/peripheral/tcpwm/cy_tcpwm_pwm.h **** {
 260:Generated_Source\PSoC6\pdl\drivers/peripheral/tcpwm/cy_tcpwm_pwm.h ****     TCPWM_CTRL_CLR(base) = (1UL << cntNum);
 261:Generated_Source\PSoC6\pdl\drivers/peripheral/tcpwm/cy_tcpwm_pwm.h **** }
 262:Generated_Source\PSoC6\pdl\drivers/peripheral/tcpwm/cy_tcpwm_pwm.h **** 
 263:Generated_Source\PSoC6\pdl\drivers/peripheral/tcpwm/cy_tcpwm_pwm.h **** 
 264:Generated_Source\PSoC6\pdl\drivers/peripheral/tcpwm/cy_tcpwm_pwm.h **** /*******************************************************************************
ARM GAS  C:\Users\haske\AppData\Local\Temp\ccWSfRiA.s 			page 47


 265:Generated_Source\PSoC6\pdl\drivers/peripheral/tcpwm/cy_tcpwm_pwm.h **** * Function Name: Cy_TCPWM_PWM_GetStatus
 266:Generated_Source\PSoC6\pdl\drivers/peripheral/tcpwm/cy_tcpwm_pwm.h **** ****************************************************************************//**
 267:Generated_Source\PSoC6\pdl\drivers/peripheral/tcpwm/cy_tcpwm_pwm.h **** *
 268:Generated_Source\PSoC6\pdl\drivers/peripheral/tcpwm/cy_tcpwm_pwm.h **** * Returns the status of the PWM.
 269:Generated_Source\PSoC6\pdl\drivers/peripheral/tcpwm/cy_tcpwm_pwm.h **** *
 270:Generated_Source\PSoC6\pdl\drivers/peripheral/tcpwm/cy_tcpwm_pwm.h **** * \param base
 271:Generated_Source\PSoC6\pdl\drivers/peripheral/tcpwm/cy_tcpwm_pwm.h **** * The pointer to a TCPWM instance.
 272:Generated_Source\PSoC6\pdl\drivers/peripheral/tcpwm/cy_tcpwm_pwm.h **** *
 273:Generated_Source\PSoC6\pdl\drivers/peripheral/tcpwm/cy_tcpwm_pwm.h **** * \param cntNum 
 274:Generated_Source\PSoC6\pdl\drivers/peripheral/tcpwm/cy_tcpwm_pwm.h **** * The Counter instance number in the selected TCPWM.
 275:Generated_Source\PSoC6\pdl\drivers/peripheral/tcpwm/cy_tcpwm_pwm.h **** *
 276:Generated_Source\PSoC6\pdl\drivers/peripheral/tcpwm/cy_tcpwm_pwm.h **** * \return
 277:Generated_Source\PSoC6\pdl\drivers/peripheral/tcpwm/cy_tcpwm_pwm.h **** * The status. See \ref group_tcpwm_pwm_status
 278:Generated_Source\PSoC6\pdl\drivers/peripheral/tcpwm/cy_tcpwm_pwm.h **** *
 279:Generated_Source\PSoC6\pdl\drivers/peripheral/tcpwm/cy_tcpwm_pwm.h **** * \funcusage
 280:Generated_Source\PSoC6\pdl\drivers/peripheral/tcpwm/cy_tcpwm_pwm.h **** * \snippet tcpwm\1.10\pwm\snippet\main.c snippet_Cy_TCPWM_PWM_GetStatus
 281:Generated_Source\PSoC6\pdl\drivers/peripheral/tcpwm/cy_tcpwm_pwm.h **** *
 282:Generated_Source\PSoC6\pdl\drivers/peripheral/tcpwm/cy_tcpwm_pwm.h **** *******************************************************************************/
 283:Generated_Source\PSoC6\pdl\drivers/peripheral/tcpwm/cy_tcpwm_pwm.h **** __STATIC_INLINE uint32_t Cy_TCPWM_PWM_GetStatus(TCPWM_Type const *base, uint32_t cntNum)
 284:Generated_Source\PSoC6\pdl\drivers/peripheral/tcpwm/cy_tcpwm_pwm.h **** {
 285:Generated_Source\PSoC6\pdl\drivers/peripheral/tcpwm/cy_tcpwm_pwm.h ****     uint32_t status = TCPWM_CNT_STATUS(base, cntNum);
 286:Generated_Source\PSoC6\pdl\drivers/peripheral/tcpwm/cy_tcpwm_pwm.h ****     
 287:Generated_Source\PSoC6\pdl\drivers/peripheral/tcpwm/cy_tcpwm_pwm.h ****     /* Generates proper up counting status, does not generated by HW */
 288:Generated_Source\PSoC6\pdl\drivers/peripheral/tcpwm/cy_tcpwm_pwm.h ****     status &= ~CY_TCPWM_PWM_STATUS_UP_COUNTING;
 289:Generated_Source\PSoC6\pdl\drivers/peripheral/tcpwm/cy_tcpwm_pwm.h ****     status |= ((~status & CY_TCPWM_PWM_STATUS_DOWN_COUNTING & (status >> TCPWM_CNT_STATUS_RUNNING_P
 290:Generated_Source\PSoC6\pdl\drivers/peripheral/tcpwm/cy_tcpwm_pwm.h ****                CY_TCPWM_CNT_STATUS_UP_POS);
 291:Generated_Source\PSoC6\pdl\drivers/peripheral/tcpwm/cy_tcpwm_pwm.h ****     
 292:Generated_Source\PSoC6\pdl\drivers/peripheral/tcpwm/cy_tcpwm_pwm.h ****     return(status);
 293:Generated_Source\PSoC6\pdl\drivers/peripheral/tcpwm/cy_tcpwm_pwm.h **** }
 294:Generated_Source\PSoC6\pdl\drivers/peripheral/tcpwm/cy_tcpwm_pwm.h **** 
 295:Generated_Source\PSoC6\pdl\drivers/peripheral/tcpwm/cy_tcpwm_pwm.h **** 
 296:Generated_Source\PSoC6\pdl\drivers/peripheral/tcpwm/cy_tcpwm_pwm.h **** /*******************************************************************************
 297:Generated_Source\PSoC6\pdl\drivers/peripheral/tcpwm/cy_tcpwm_pwm.h **** * Function Name: Cy_TCPWM_PWM_SetCompare0
 298:Generated_Source\PSoC6\pdl\drivers/peripheral/tcpwm/cy_tcpwm_pwm.h **** ****************************************************************************//**
 299:Generated_Source\PSoC6\pdl\drivers/peripheral/tcpwm/cy_tcpwm_pwm.h **** *
 300:Generated_Source\PSoC6\pdl\drivers/peripheral/tcpwm/cy_tcpwm_pwm.h **** * Sets the compare value for Compare0 when the compare mode enabled.
 301:Generated_Source\PSoC6\pdl\drivers/peripheral/tcpwm/cy_tcpwm_pwm.h **** *
 302:Generated_Source\PSoC6\pdl\drivers/peripheral/tcpwm/cy_tcpwm_pwm.h **** * \param base
 303:Generated_Source\PSoC6\pdl\drivers/peripheral/tcpwm/cy_tcpwm_pwm.h **** * The pointer to a TCPWM instance.
 304:Generated_Source\PSoC6\pdl\drivers/peripheral/tcpwm/cy_tcpwm_pwm.h **** *
 305:Generated_Source\PSoC6\pdl\drivers/peripheral/tcpwm/cy_tcpwm_pwm.h **** * \param cntNum 
 306:Generated_Source\PSoC6\pdl\drivers/peripheral/tcpwm/cy_tcpwm_pwm.h **** * The Counter instance number in the selected TCPWM.
 307:Generated_Source\PSoC6\pdl\drivers/peripheral/tcpwm/cy_tcpwm_pwm.h **** *
 308:Generated_Source\PSoC6\pdl\drivers/peripheral/tcpwm/cy_tcpwm_pwm.h **** * \param compare0
 309:Generated_Source\PSoC6\pdl\drivers/peripheral/tcpwm/cy_tcpwm_pwm.h **** * The Compare0 value.
 310:Generated_Source\PSoC6\pdl\drivers/peripheral/tcpwm/cy_tcpwm_pwm.h **** *
 311:Generated_Source\PSoC6\pdl\drivers/peripheral/tcpwm/cy_tcpwm_pwm.h **** * \funcusage
 312:Generated_Source\PSoC6\pdl\drivers/peripheral/tcpwm/cy_tcpwm_pwm.h **** * \snippet tcpwm\1.10\pwm\snippet\main.c snippet_Cy_TCPWM_PWM_SetCompare0
 313:Generated_Source\PSoC6\pdl\drivers/peripheral/tcpwm/cy_tcpwm_pwm.h **** *
 314:Generated_Source\PSoC6\pdl\drivers/peripheral/tcpwm/cy_tcpwm_pwm.h **** *******************************************************************************/
 315:Generated_Source\PSoC6\pdl\drivers/peripheral/tcpwm/cy_tcpwm_pwm.h **** __STATIC_INLINE void Cy_TCPWM_PWM_SetCompare0(TCPWM_Type *base, uint32_t cntNum,  uint32_t compare0
 316:Generated_Source\PSoC6\pdl\drivers/peripheral/tcpwm/cy_tcpwm_pwm.h **** {
 317:Generated_Source\PSoC6\pdl\drivers/peripheral/tcpwm/cy_tcpwm_pwm.h ****     TCPWM_CNT_CC(base, cntNum) = compare0;
 1012              		.loc 3 317 0
 1013 0008 0021     		movs	r1, #0
 1014 000a 2D4B     		ldr	r3, .L93
 1015 000c C3F8CC12 		str	r1, [r3, #716]
ARM GAS  C:\Users\haske\AppData\Local\Temp\ccWSfRiA.s 			page 48


 1016              	.LVL101:
 1017              	.LBE132:
 1018              	.LBE131:
 1019              	.LBE130:
 526:user_interface.c ****         PWM_TENS_SetCompare0(0);
 527:user_interface.c ****         power_flags_update(UI_MENU_TENS_AMP, 0);
 1020              		.loc 1 527 0
 1021 0010 0620     		movs	r0, #6
 1022 0012 FFF7FEFF 		bl	power_flags_update
 1023              	.LVL102:
 528:user_interface.c ****         
 529:user_interface.c ****         tens_interval_ms = -1; //Disable timer
 1024              		.loc 1 529 0
 1025 0016 4FF0FF32 		mov	r2, #-1
 1026 001a 2A4B     		ldr	r3, .L93+4
 1027 001c 9A61     		str	r2, [r3, #24]
 1028 001e 38BD     		pop	{r3, r4, r5, pc}
 1029              	.LVL103:
 1030              	.L78:
 1031 0020 0446     		mov	r4, r0
 530:user_interface.c ****         
 531:user_interface.c ****     } else {
 532:user_interface.c ****         power_5v_on(); // Not need for new version
 1032              		.loc 1 532 0
 1033 0022 FFF7FEFF 		bl	power_5v_on
 1034              	.LVL104:
 533:user_interface.c ****         //PWM_TENS_SetCompare0(257 * item/ 10);
 534:user_interface.c ****         //PWM_TENS_SetCompare0(624 * item / 10);
 535:user_interface.c ****         power_flags_update(UI_MENU_TENS_AMP, 1);
 1035              		.loc 1 535 0
 1036 0026 0121     		movs	r1, #1
 1037 0028 0620     		movs	r0, #6
 1038 002a FFF7FEFF 		bl	power_flags_update
 1039              	.LVL105:
 536:user_interface.c ****         
 537:user_interface.c ****         ui_settings_tens_dur(ui_menu_item[UI_MENU_TENS_DUR]); 
 1040              		.loc 1 537 0
 1041 002e 254D     		ldr	r5, .L93+4
 1042 0030 A86B     		ldr	r0, [r5, #56]
 1043 0032 FFF7FEFF 		bl	ui_settings_tens_dur
 1044              	.LVL106:
 538:user_interface.c ****         
 539:user_interface.c ****         ui_settings_tens_freq(ui_menu_item[UI_MENU_TENS_FREQ]); //Enable tens timer
 1045              		.loc 1 539 0
 1046 0036 286B     		ldr	r0, [r5, #48]
 1047 0038 FFF7FEFF 		bl	ui_settings_tens_freq
 1048              	.LVL107:
 540:user_interface.c ****         
 541:user_interface.c ****         switch (item) {
 1049              		.loc 1 541 0
 1050 003c 601E     		subs	r0, r4, #1
 1051 003e 0928     		cmp	r0, #9
 1052 0040 39D8     		bhi	.L80
 1053 0042 DFE800F0 		tbb	[pc, r0]
 1054              	.L82:
 1055 0046 05       		.byte	(.L81-.L82)/2
 1056 0047 0A       		.byte	(.L83-.L82)/2
ARM GAS  C:\Users\haske\AppData\Local\Temp\ccWSfRiA.s 			page 49


 1057 0048 0F       		.byte	(.L84-.L82)/2
 1058 0049 14       		.byte	(.L85-.L82)/2
 1059 004a 19       		.byte	(.L86-.L82)/2
 1060 004b 1E       		.byte	(.L87-.L82)/2
 1061 004c 23       		.byte	(.L88-.L82)/2
 1062 004d 28       		.byte	(.L89-.L82)/2
 1063 004e 2D       		.byte	(.L90-.L82)/2
 1064 004f 32       		.byte	(.L91-.L82)/2
 1065              		.p2align 1
 1066              	.L81:
 1067              	.LVL108:
 1068              	.LBB133:
 1069              	.LBB134:
 1070              	.LBB135:
 1071              		.loc 3 317 0
 1072 0050 0122     		movs	r2, #1
 1073 0052 1B4B     		ldr	r3, .L93
 1074 0054 C3F8CC22 		str	r2, [r3, #716]
 1075              	.LVL109:
 1076 0058 38BD     		pop	{r3, r4, r5, pc}
 1077              	.LVL110:
 1078              	.L83:
 1079              	.LBE135:
 1080              	.LBE134:
 1081              	.LBE133:
 1082              	.LBB136:
 1083              	.LBB137:
 1084              	.LBB138:
 1085 005a 0822     		movs	r2, #8
 1086 005c 184B     		ldr	r3, .L93
 1087 005e C3F8CC22 		str	r2, [r3, #716]
 1088              	.LVL111:
 1089 0062 38BD     		pop	{r3, r4, r5, pc}
 1090              	.LVL112:
 1091              	.L84:
 1092              	.LBE138:
 1093              	.LBE137:
 1094              	.LBE136:
 1095              	.LBB139:
 1096              	.LBB140:
 1097              	.LBB141:
 1098 0064 1522     		movs	r2, #21
 1099 0066 164B     		ldr	r3, .L93
 1100 0068 C3F8CC22 		str	r2, [r3, #716]
 1101              	.LVL113:
 1102 006c 38BD     		pop	{r3, r4, r5, pc}
 1103              	.LVL114:
 1104              	.L85:
 1105              	.LBE141:
 1106              	.LBE140:
 1107              	.LBE139:
 1108              	.LBB142:
 1109              	.LBB143:
 1110              	.LBB144:
 1111 006e 2122     		movs	r2, #33
 1112 0070 134B     		ldr	r3, .L93
 1113 0072 C3F8CC22 		str	r2, [r3, #716]
ARM GAS  C:\Users\haske\AppData\Local\Temp\ccWSfRiA.s 			page 50


 1114              	.LVL115:
 1115 0076 38BD     		pop	{r3, r4, r5, pc}
 1116              	.LVL116:
 1117              	.L86:
 1118              	.LBE144:
 1119              	.LBE143:
 1120              	.LBE142:
 1121              	.LBB145:
 1122              	.LBB146:
 1123              	.LBB147:
 1124 0078 2D22     		movs	r2, #45
 1125 007a 114B     		ldr	r3, .L93
 1126 007c C3F8CC22 		str	r2, [r3, #716]
 1127              	.LVL117:
 1128 0080 38BD     		pop	{r3, r4, r5, pc}
 1129              	.LVL118:
 1130              	.L87:
 1131              	.LBE147:
 1132              	.LBE146:
 1133              	.LBE145:
 1134              	.LBB148:
 1135              	.LBB149:
 1136              	.LBB150:
 1137 0082 3A22     		movs	r2, #58
 1138 0084 0E4B     		ldr	r3, .L93
 1139 0086 C3F8CC22 		str	r2, [r3, #716]
 1140              	.LVL119:
 1141 008a 38BD     		pop	{r3, r4, r5, pc}
 1142              	.LVL120:
 1143              	.L88:
 1144              	.LBE150:
 1145              	.LBE149:
 1146              	.LBE148:
 1147              	.LBB151:
 1148              	.LBB152:
 1149              	.LBB153:
 1150 008c 4722     		movs	r2, #71
 1151 008e 0C4B     		ldr	r3, .L93
 1152 0090 C3F8CC22 		str	r2, [r3, #716]
 1153              	.LVL121:
 1154 0094 38BD     		pop	{r3, r4, r5, pc}
 1155              	.LVL122:
 1156              	.L89:
 1157              	.LBE153:
 1158              	.LBE152:
 1159              	.LBE151:
 1160              	.LBB154:
 1161              	.LBB155:
 1162              	.LBB156:
 1163 0096 5322     		movs	r2, #83
 1164 0098 094B     		ldr	r3, .L93
 1165 009a C3F8CC22 		str	r2, [r3, #716]
 1166              	.LVL123:
 1167 009e 38BD     		pop	{r3, r4, r5, pc}
 1168              	.LVL124:
 1169              	.L90:
 1170              	.LBE156:
ARM GAS  C:\Users\haske\AppData\Local\Temp\ccWSfRiA.s 			page 51


 1171              	.LBE155:
 1172              	.LBE154:
 1173              	.LBB157:
 1174              	.LBB158:
 1175              	.LBB159:
 1176 00a0 7C22     		movs	r2, #124
 1177 00a2 074B     		ldr	r3, .L93
 1178 00a4 C3F8CC22 		str	r2, [r3, #716]
 1179              	.LVL125:
 1180 00a8 38BD     		pop	{r3, r4, r5, pc}
 1181              	.LVL126:
 1182              	.L91:
 1183              	.LBE159:
 1184              	.LBE158:
 1185              	.LBE157:
 1186              	.LBB160:
 1187              	.LBB161:
 1188              	.LBB162:
 1189 00aa 40F22E22 		movw	r2, #558
 1190 00ae 044B     		ldr	r3, .L93
 1191 00b0 C3F8CC22 		str	r2, [r3, #716]
 1192              	.LVL127:
 1193 00b4 38BD     		pop	{r3, r4, r5, pc}
 1194              	.LVL128:
 1195              	.L80:
 1196              	.LBE162:
 1197              	.LBE161:
 1198              	.LBE160:
 1199              	.LBB163:
 1200              	.LBB164:
 1201              	.LBB165:
 1202 00b6 0022     		movs	r2, #0
 1203 00b8 014B     		ldr	r3, .L93
 1204 00ba C3F8CC22 		str	r2, [r3, #716]
 1205              	.LVL129:
 1206 00be 38BD     		pop	{r3, r4, r5, pc}
 1207              	.LVL130:
 1208              	.L94:
 1209              		.align	2
 1210              	.L93:
 1211 00c0 00003840 		.word	1077411840
 1212 00c4 00000000 		.word	.LANCHOR1
 1213              	.LBE165:
 1214              	.LBE164:
 1215              	.LBE163:
 1216              		.cfi_endproc
 1217              	.LFE978:
 1218              		.size	ui_settings_tens_amp, .-ui_settings_tens_amp
 1219              		.section	.text.ui_vibe_task,"ax",%progbits
 1220              		.align	2
 1221              		.global	ui_vibe_task
 1222              		.thumb
 1223              		.thumb_func
 1224              		.type	ui_vibe_task, %function
 1225              	ui_vibe_task:
 1226              	.LFB979:
 542:user_interface.c ****             case 1: PWM_TENS_SetCompare0(1); break;             
ARM GAS  C:\Users\haske\AppData\Local\Temp\ccWSfRiA.s 			page 52


 543:user_interface.c ****             case 2: PWM_TENS_SetCompare0(8); break; 
 544:user_interface.c ****             case 3: PWM_TENS_SetCompare0(21); break;             
 545:user_interface.c ****             case 4: PWM_TENS_SetCompare0(33); break;
 546:user_interface.c ****             case 5: PWM_TENS_SetCompare0(45); break;             
 547:user_interface.c ****             case 6: PWM_TENS_SetCompare0(58); break; 
 548:user_interface.c ****             case 7: PWM_TENS_SetCompare0(71); break;             
 549:user_interface.c ****             case 8: PWM_TENS_SetCompare0(83); break;
 550:user_interface.c ****             case 9: PWM_TENS_SetCompare0(124); break;             
 551:user_interface.c ****             case 10: PWM_TENS_SetCompare0(558); break;
 552:user_interface.c ****             default: PWM_TENS_SetCompare0(0); break;
 553:user_interface.c ****         }
 554:user_interface.c ****     }
 555:user_interface.c ****     
 556:user_interface.c **** }
 557:user_interface.c **** 
 558:user_interface.c **** 
 559:user_interface.c **** 
 560:user_interface.c **** /*******************************************************************************
 561:user_interface.c **** * Function Name: void ui_vibe_task( void )
 562:user_interface.c **** ********************************************************************************
 563:user_interface.c **** *
 564:user_interface.c **** * Parameter:    None
 565:user_interface.c **** *
 566:user_interface.c **** * Summary:
 567:user_interface.c **** *   vibe task
 568:user_interface.c **** *
 569:user_interface.c **** *******************************************************************************/
 570:user_interface.c **** void ui_vibe_task( void ) {
 1227              		.loc 1 570 0
 1228              		.cfi_startproc
 1229              		@ args = 0, pretend = 0, frame = 0
 1230              		@ frame_needed = 0, uses_anonymous_args = 0
 1231              		@ link register save eliminated.
 571:user_interface.c ****     
 572:user_interface.c ****     switch (vibe_state) {
 1232              		.loc 1 572 0
 1233 0000 164B     		ldr	r3, .L101
 1234 0002 5B6C     		ldr	r3, [r3, #68]
 1235 0004 012B     		cmp	r3, #1
 1236 0006 0AD0     		beq	.L97
 1237 0008 022B     		cmp	r3, #2
 1238 000a 17D0     		beq	.L98
 573:user_interface.c ****         
 574:user_interface.c ****         default:
 575:user_interface.c ****             if (vibe_amp > 0) {
 1239              		.loc 1 575 0
 1240 000c 134B     		ldr	r3, .L101
 1241 000e 9B6C     		ldr	r3, [r3, #72]
 1242 0010 002B     		cmp	r3, #0
 1243 0012 21DD     		ble	.L95
 576:user_interface.c ****                 vibe_state = 1;
 1244              		.loc 1 576 0
 1245 0014 114A     		ldr	r2, .L101
 1246 0016 0121     		movs	r1, #1
 1247 0018 5164     		str	r1, [r2, #68]
 577:user_interface.c ****                 vibe_timeout = vibe_amp;
 1248              		.loc 1 577 0
ARM GAS  C:\Users\haske\AppData\Local\Temp\ccWSfRiA.s 			page 53


 1249 001a 1361     		str	r3, [r2, #16]
 1250 001c 7047     		bx	lr
 1251              	.L97:
 578:user_interface.c ****                 //PWM_VIBE_SetCompare0(vibe_freq);
 579:user_interface.c ****             }
 580:user_interface.c ****         break;
 581:user_interface.c ****             
 582:user_interface.c ****         case 1: //on time
 583:user_interface.c ****             if (vibe_timeout == 0) {
 1252              		.loc 1 583 0
 1253 001e 0F4B     		ldr	r3, .L101
 1254 0020 1B69     		ldr	r3, [r3, #16]
 1255 0022 5BB9     		cbnz	r3, .L98
 584:user_interface.c ****                 vibe_state = 2;
 1256              		.loc 1 584 0
 1257 0024 0D4A     		ldr	r2, .L101
 1258 0026 0223     		movs	r3, #2
 1259 0028 5364     		str	r3, [r2, #68]
 585:user_interface.c ****                 vibe_timeout = VIBE_PERIOD_MS - vibe_amp;
 1260              		.loc 1 585 0
 1261 002a 936C     		ldr	r3, [r2, #72]
 1262 002c C3F16403 		rsb	r3, r3, #100
 1263 0030 1361     		str	r3, [r2, #16]
 586:user_interface.c ****                 if (vibe_timeout < 0) vibe_timeout = 0;
 1264              		.loc 1 586 0
 1265 0032 002B     		cmp	r3, #0
 1266 0034 02DA     		bge	.L98
 1267              		.loc 1 586 0 is_stmt 0 discriminator 1
 1268 0036 0022     		movs	r2, #0
 1269 0038 084B     		ldr	r3, .L101
 1270 003a 1A61     		str	r2, [r3, #16]
 1271              	.L98:
 587:user_interface.c ****                 //PWM_VIBE_SetCompare0(0);
 588:user_interface.c ****             }
 589:user_interface.c **** 
 590:user_interface.c ****         case 2: //off time
 591:user_interface.c ****             if (vibe_amp == 0) {
 1272              		.loc 1 591 0 is_stmt 1
 1273 003c 074B     		ldr	r3, .L101
 1274 003e 9B6C     		ldr	r3, [r3, #72]
 1275 0040 1BB9     		cbnz	r3, .L100
 592:user_interface.c ****                 vibe_state = 0;
 1276              		.loc 1 592 0
 1277 0042 0022     		movs	r2, #0
 1278 0044 054B     		ldr	r3, .L101
 1279 0046 5A64     		str	r2, [r3, #68]
 1280 0048 7047     		bx	lr
 1281              	.L100:
 593:user_interface.c ****             } else if (vibe_timeout == 0) {
 1282              		.loc 1 593 0
 1283 004a 044A     		ldr	r2, .L101
 1284 004c 1269     		ldr	r2, [r2, #16]
 1285 004e 1AB9     		cbnz	r2, .L95
 594:user_interface.c ****                 vibe_state = 1;
 1286              		.loc 1 594 0
 1287 0050 024A     		ldr	r2, .L101
 1288 0052 0121     		movs	r1, #1
ARM GAS  C:\Users\haske\AppData\Local\Temp\ccWSfRiA.s 			page 54


 1289 0054 5164     		str	r1, [r2, #68]
 595:user_interface.c ****                 vibe_timeout = vibe_amp;
 1290              		.loc 1 595 0
 1291 0056 1361     		str	r3, [r2, #16]
 1292              	.L95:
 1293 0058 7047     		bx	lr
 1294              	.L102:
 1295 005a 00BF     		.align	2
 1296              	.L101:
 1297 005c 00000000 		.word	.LANCHOR1
 1298              		.cfi_endproc
 1299              	.LFE979:
 1300              		.size	ui_vibe_task, .-ui_vibe_task
 1301              		.section	.text.ui_settings_vibe_freq,"ax",%progbits
 1302              		.align	2
 1303              		.global	ui_settings_vibe_freq
 1304              		.thumb
 1305              		.thumb_func
 1306              		.type	ui_settings_vibe_freq, %function
 1307              	ui_settings_vibe_freq:
 1308              	.LFB980:
 596:user_interface.c ****                 //PWM_VIBE_SetCompare0(vibe_freq);
 597:user_interface.c ****             }
 598:user_interface.c ****         break;
 599:user_interface.c ****     }
 600:user_interface.c **** }    
 601:user_interface.c **** 
 602:user_interface.c **** /*******************************************************************************
 603:user_interface.c **** * Function Name: void ui_settings_vibe_freq(int item)
 604:user_interface.c **** ********************************************************************************
 605:user_interface.c **** *
 606:user_interface.c **** * Parameter:    item
 607:user_interface.c **** *
 608:user_interface.c **** * Summary:
 609:user_interface.c **** *   Update vibe settings
 610:user_interface.c **** *
 611:user_interface.c **** *******************************************************************************/
 612:user_interface.c **** void ui_settings_vibe_freq(int item) {
 1309              		.loc 1 612 0
 1310              		.cfi_startproc
 1311              		@ args = 0, pretend = 0, frame = 0
 1312              		@ frame_needed = 0, uses_anonymous_args = 0
 1313              		@ link register save eliminated.
 1314              	.LVL131:
 1315 0000 7047     		bx	lr
 1316              		.cfi_endproc
 1317              	.LFE980:
 1318              		.size	ui_settings_vibe_freq, .-ui_settings_vibe_freq
 1319 0002 00BF     		.section	.text.ui_settings_vibe_amp,"ax",%progbits
 1320              		.align	2
 1321              		.global	ui_settings_vibe_amp
 1322              		.thumb
 1323              		.thumb_func
 1324              		.type	ui_settings_vibe_amp, %function
 1325              	ui_settings_vibe_amp:
 1326              	.LFB981:
 613:user_interface.c ****     
ARM GAS  C:\Users\haske\AppData\Local\Temp\ccWSfRiA.s 			page 55


 614:user_interface.c ****     //min freq was 4 which is 102
 615:user_interface.c ****     if (item > 0) {
 616:user_interface.c ****         vibe_freq = (257 - 102) * item / 10 + 102;
 617:user_interface.c ****     } else {
 618:user_interface.c ****         vibe_freq = 0;
 619:user_interface.c ****     }
 620:user_interface.c **** }
 621:user_interface.c **** 
 622:user_interface.c **** /*******************************************************************************
 623:user_interface.c **** * Function Name: void ui_settings_vibe_amp(int item)
 624:user_interface.c **** ********************************************************************************
 625:user_interface.c **** *
 626:user_interface.c **** * Parameter:    item
 627:user_interface.c **** *
 628:user_interface.c **** * Summary:
 629:user_interface.c **** *   Update vibe settings
 630:user_interface.c **** *
 631:user_interface.c **** *******************************************************************************/
 632:user_interface.c **** void ui_settings_vibe_amp(int item) {
 1327              		.loc 1 632 0
 1328              		.cfi_startproc
 1329              		@ args = 0, pretend = 0, frame = 0
 1330              		@ frame_needed = 0, uses_anonymous_args = 0
 1331              	.LVL132:
 1332              		.loc 1 632 0
 1333 0000 08B5     		push	{r3, lr}
 1334              		.cfi_def_cfa_offset 8
 1335              		.cfi_offset 3, -8
 1336              		.cfi_offset 14, -4
 633:user_interface.c ****     
 634:user_interface.c ****     //Min speed was 5 which is 50%
 635:user_interface.c ****     
 636:user_interface.c ****     if (item > 0) {
 1337              		.loc 1 636 0
 1338 0002 0028     		cmp	r0, #0
 1339 0004 10DD     		ble	.L105
 637:user_interface.c ****         vibe_amp = (VIBE_PERIOD_MS/2) * item / 10 + VIBE_PERIOD_MS/2;
 1340              		.loc 1 637 0
 1341 0006 3223     		movs	r3, #50
 1342 0008 03FB00F0 		mul	r0, r3, r0
 1343              	.LVL133:
 1344 000c 0A4B     		ldr	r3, .L108
 1345 000e 83FB0023 		smull	r2, r3, r3, r0
 1346 0012 C017     		asrs	r0, r0, #31
 1347 0014 C0EBA300 		rsb	r0, r0, r3, asr #2
 1348 0018 3230     		adds	r0, r0, #50
 1349 001a 084B     		ldr	r3, .L108+4
 1350 001c 9864     		str	r0, [r3, #72]
 638:user_interface.c ****         power_flags_update(UI_MENU_VIBE_AMP, 1);
 1351              		.loc 1 638 0
 1352 001e 0121     		movs	r1, #1
 1353 0020 0320     		movs	r0, #3
 1354 0022 FFF7FEFF 		bl	power_flags_update
 1355              	.LVL134:
 1356 0026 08BD     		pop	{r3, pc}
 1357              	.LVL135:
 1358              	.L105:
ARM GAS  C:\Users\haske\AppData\Local\Temp\ccWSfRiA.s 			page 56


 639:user_interface.c ****     } else {
 640:user_interface.c ****         vibe_amp = 0;
 1359              		.loc 1 640 0
 1360 0028 0021     		movs	r1, #0
 1361 002a 044B     		ldr	r3, .L108+4
 1362 002c 9964     		str	r1, [r3, #72]
 641:user_interface.c ****         power_flags_update(UI_MENU_VIBE_AMP, 0);
 1363              		.loc 1 641 0
 1364 002e 0320     		movs	r0, #3
 1365              	.LVL136:
 1366 0030 FFF7FEFF 		bl	power_flags_update
 1367              	.LVL137:
 1368 0034 08BD     		pop	{r3, pc}
 1369              	.L109:
 1370 0036 00BF     		.align	2
 1371              	.L108:
 1372 0038 67666666 		.word	1717986919
 1373 003c 00000000 		.word	.LANCHOR1
 1374              		.cfi_endproc
 1375              	.LFE981:
 1376              		.size	ui_settings_vibe_amp, .-ui_settings_vibe_amp
 1377              		.section	.text.ui_settings_temp,"ax",%progbits
 1378              		.align	2
 1379              		.global	ui_settings_temp
 1380              		.thumb
 1381              		.thumb_func
 1382              		.type	ui_settings_temp, %function
 1383              	ui_settings_temp:
 1384              	.LFB982:
 642:user_interface.c ****     }
 643:user_interface.c ****   
 644:user_interface.c **** }
 645:user_interface.c **** 
 646:user_interface.c **** /*******************************************************************************
 647:user_interface.c **** * Function Name: void ui_settings_temp(int item)
 648:user_interface.c **** ********************************************************************************
 649:user_interface.c **** *
 650:user_interface.c **** * Parameter:    item
 651:user_interface.c **** *
 652:user_interface.c **** * Summary:
 653:user_interface.c **** *   Update temp settings
 654:user_interface.c **** *
 655:user_interface.c **** *******************************************************************************/
 656:user_interface.c ****     void ui_settings_temp(int item) {
 1385              		.loc 1 656 0
 1386              		.cfi_startproc
 1387              		@ args = 0, pretend = 0, frame = 0
 1388              		@ frame_needed = 0, uses_anonymous_args = 0
 1389              	.LVL138:
 1390 0000 08B5     		push	{r3, lr}
 1391              		.cfi_def_cfa_offset 8
 1392              		.cfi_offset 3, -8
 1393              		.cfi_offset 14, -4
 657:user_interface.c ****         
 658:user_interface.c ****   //void ui_settings_temp(int item, int direction, int dutyCyle) {
 659:user_interface.c ****  
 660:user_interface.c ****     //Update Fan
ARM GAS  C:\Users\haske\AppData\Local\Temp\ccWSfRiA.s 			page 57


 661:user_interface.c ****     if (item == 0) {
 1394              		.loc 1 661 0
 1395 0002 0346     		mov	r3, r0
 1396 0004 20B9     		cbnz	r0, .L111
 1397              	.LVL139:
 1398              	.LBB166:
 1399              	.LBB167:
 1400              	.LBB168:
 1401              		.loc 3 317 0
 1402 0006 0021     		movs	r1, #0
 1403 0008 094A     		ldr	r2, .L116
 1404 000a C2F80C11 		str	r1, [r2, #268]
 1405              	.LVL140:
 1406 000e 04E0     		b	.L112
 1407              	.LVL141:
 1408              	.L111:
 1409              	.LBE168:
 1410              	.LBE167:
 1411              	.LBE166:
 1412              	.LBB169:
 1413              	.LBB170:
 1414              	.LBB171:
 1415 0010 40F20111 		movw	r1, #257
 1416 0014 064A     		ldr	r2, .L116
 1417 0016 C2F80C11 		str	r1, [r2, #268]
 1418              	.LVL142:
 1419              	.L112:
 1420              	.LBE171:
 1421              	.LBE170:
 1422              	.LBE169:
 662:user_interface.c ****         //Turn fan off
 663:user_interface.c ****         PWM_FAN_SetCompare0(0);
 664:user_interface.c ****     } else {
 665:user_interface.c ****         //Set fan on max   
 666:user_interface.c ****         PWM_FAN_SetCompare0(257);
 667:user_interface.c ****     }
 668:user_interface.c ****     
 669:user_interface.c ****     
 670:user_interface.c ****     /* NEED TO WORK ON THIS
 671:user_interface.c ****     //Update Peltier
 672:user_interface.c ****     if(direction == 0){
 673:user_interface.c ****         Cy_GPIO_Write(PEL_1_0_PORT, PEL_1_0_NUM, dutyCyle);
 674:user_interface.c ****         Cy_GPIO_Write(PEL_2_0_PORT, PEL_2_0_NUM, 0);
 675:user_interface.c ****     } else {
 676:user_interface.c ****         Cy_GPIO_Write(PEL_1_0_PORT, PEL_1_0_NUM, 0);
 677:user_interface.c ****         Cy_GPIO_Write(PEL_2_0_PORT, PEL_2_0_NUM, dutyCyle);
 678:user_interface.c ****     }
 679:user_interface.c ****     */
 680:user_interface.c ****             
 681:user_interface.c ****     if (item == 0) {
 1423              		.loc 1 681 0
 1424 001a 23B9     		cbnz	r3, .L113
 682:user_interface.c ****         power_flags_update(UI_MENU_TEMP, 0);
 1425              		.loc 1 682 0
 1426 001c 0021     		movs	r1, #0
 1427 001e 0220     		movs	r0, #2
 1428              	.LVL143:
ARM GAS  C:\Users\haske\AppData\Local\Temp\ccWSfRiA.s 			page 58


 1429 0020 FFF7FEFF 		bl	power_flags_update
 1430              	.LVL144:
 1431 0024 08BD     		pop	{r3, pc}
 1432              	.LVL145:
 1433              	.L113:
 683:user_interface.c ****     } else {
 684:user_interface.c ****         power_flags_update(UI_MENU_TEMP, 1);
 1434              		.loc 1 684 0
 1435 0026 0121     		movs	r1, #1
 1436 0028 0220     		movs	r0, #2
 1437              	.LVL146:
 1438 002a FFF7FEFF 		bl	power_flags_update
 1439              	.LVL147:
 1440 002e 08BD     		pop	{r3, pc}
 1441              	.L117:
 1442              		.align	2
 1443              	.L116:
 1444 0030 00003840 		.word	1077411840
 1445              		.cfi_endproc
 1446              	.LFE982:
 1447              		.size	ui_settings_temp, .-ui_settings_temp
 1448              		.section	.text.ui_settings,"ax",%progbits
 1449              		.align	2
 1450              		.global	ui_settings
 1451              		.thumb
 1452              		.thumb_func
 1453              		.type	ui_settings, %function
 1454              	ui_settings:
 1455              	.LFB983:
 685:user_interface.c ****     }    
 686:user_interface.c **** }
 687:user_interface.c **** 
 688:user_interface.c **** 
 689:user_interface.c **** /*******************************************************************************
 690:user_interface.c **** * Function Name: void ui_setting(int menu, item)
 691:user_interface.c **** ********************************************************************************
 692:user_interface.c **** *
 693:user_interface.c **** * Parameter:    menu 
 694:user_interface.c **** *               item
 695:user_interface.c **** *
 696:user_interface.c **** * Summary:
 697:user_interface.c **** *   Update menu settings
 698:user_interface.c **** *
 699:user_interface.c **** *******************************************************************************/
 700:user_interface.c **** void ui_settings(int menu, int item) {
 1456              		.loc 1 700 0
 1457              		.cfi_startproc
 1458              		@ args = 0, pretend = 0, frame = 0
 1459              		@ frame_needed = 0, uses_anonymous_args = 0
 1460              	.LVL148:
 1461 0000 08B5     		push	{r3, lr}
 1462              		.cfi_def_cfa_offset 8
 1463              		.cfi_offset 3, -8
 1464              		.cfi_offset 14, -4
 701:user_interface.c ****  
 702:user_interface.c ****     switch (menu) {
 1465              		.loc 1 702 0
ARM GAS  C:\Users\haske\AppData\Local\Temp\ccWSfRiA.s 			page 59


 1466 0002 0238     		subs	r0, r0, #2
 1467              	.LVL149:
 1468 0004 0528     		cmp	r0, #5
 1469 0006 17D8     		bhi	.L118
 1470 0008 DFE800F0 		tbb	[pc, r0]
 1471              	.L121:
 1472 000c 03       		.byte	(.L120-.L121)/2
 1473 000d 07       		.byte	(.L122-.L121)/2
 1474 000e 16       		.byte	(.L118-.L121)/2
 1475 000f 0B       		.byte	(.L123-.L121)/2
 1476 0010 0F       		.byte	(.L124-.L121)/2
 1477 0011 13       		.byte	(.L125-.L121)/2
 1478              		.p2align 1
 1479              	.L120:
 703:user_interface.c ****         default: break;
 704:user_interface.c ****         case UI_MENU_MAIN:             break;
 705:user_interface.c ****         case UI_MENU_PRESET:              break;
 706:user_interface.c ****         case UI_MENU_TEMP:          ui_settings_temp(item);   break;
 1480              		.loc 1 706 0
 1481 0012 0846     		mov	r0, r1
 1482              	.LVL150:
 1483 0014 FFF7FEFF 		bl	ui_settings_temp
 1484              	.LVL151:
 1485 0018 08BD     		pop	{r3, pc}
 1486              	.LVL152:
 1487              	.L122:
 707:user_interface.c ****         case UI_MENU_VIBE_AMP:      ui_settings_vibe_amp(item);     break;
 1488              		.loc 1 707 0
 1489 001a 0846     		mov	r0, r1
 1490 001c FFF7FEFF 		bl	ui_settings_vibe_amp
 1491              	.LVL153:
 1492 0020 08BD     		pop	{r3, pc}
 1493              	.LVL154:
 1494              	.L123:
 708:user_interface.c ****         case UI_MENU_VIBE_FREQ:     ui_settings_vibe_freq(item);      break;
 709:user_interface.c ****         case UI_MENU_TENS_FREQ:     ui_settings_tens_freq(item);      break;
 1495              		.loc 1 709 0
 1496 0022 0846     		mov	r0, r1
 1497 0024 FFF7FEFF 		bl	ui_settings_tens_freq
 1498              	.LVL155:
 1499 0028 08BD     		pop	{r3, pc}
 1500              	.LVL156:
 1501              	.L124:
 710:user_interface.c ****         case UI_MENU_TENS_AMP:      ui_settings_tens_amp(item);     break;
 1502              		.loc 1 710 0
 1503 002a 0846     		mov	r0, r1
 1504 002c FFF7FEFF 		bl	ui_settings_tens_amp
 1505              	.LVL157:
 1506 0030 08BD     		pop	{r3, pc}
 1507              	.LVL158:
 1508              	.L125:
 711:user_interface.c ****         case UI_MENU_TENS_DUR:      ui_settings_tens_dur(item);        break;
 1509              		.loc 1 711 0
 1510 0032 0846     		mov	r0, r1
 1511 0034 FFF7FEFF 		bl	ui_settings_tens_dur
 1512              	.LVL159:
 1513              	.L118:
ARM GAS  C:\Users\haske\AppData\Local\Temp\ccWSfRiA.s 			page 60


 1514 0038 08BD     		pop	{r3, pc}
 1515              		.cfi_endproc
 1516              	.LFE983:
 1517              		.size	ui_settings, .-ui_settings
 1518 003a 00BF     		.section	.text.ui_menu_task,"ax",%progbits
 1519              		.align	2
 1520              		.global	ui_menu_task
 1521              		.thumb
 1522              		.thumb_func
 1523              		.type	ui_menu_task, %function
 1524              	ui_menu_task:
 1525              	.LFB984:
 712:user_interface.c ****         case UI_MENU_BLUETOOTH:           break;
 713:user_interface.c ****         case UI_MENU_DIAG:           break;
 714:user_interface.c ****     }
 715:user_interface.c ****     
 716:user_interface.c **** }
 717:user_interface.c **** 
 718:user_interface.c **** 
 719:user_interface.c **** /*******************************************************************************
 720:user_interface.c **** * Function Name: void ui_menu()
 721:user_interface.c **** ********************************************************************************
 722:user_interface.c **** *
 723:user_interface.c **** * Summary:
 724:user_interface.c **** *   Menu task
 725:user_interface.c **** *
 726:user_interface.c **** *******************************************************************************/
 727:user_interface.c **** void ui_menu_task(int btn_events[]) {
 1526              		.loc 1 727 0
 1527              		.cfi_startproc
 1528              		@ args = 0, pretend = 0, frame = 0
 1529              		@ frame_needed = 0, uses_anonymous_args = 0
 1530              	.LVL160:
 1531 0000 10B5     		push	{r4, lr}
 1532              		.cfi_def_cfa_offset 8
 1533              		.cfi_offset 4, -8
 1534              		.cfi_offset 14, -4
 1535 0002 0446     		mov	r4, r0
 728:user_interface.c ****     
 729:user_interface.c ****     ui_vibe_task();
 1536              		.loc 1 729 0
 1537 0004 FFF7FEFF 		bl	ui_vibe_task
 1538              	.LVL161:
 730:user_interface.c ****     ui_tens_task();
 1539              		.loc 1 730 0
 1540 0008 FFF7FEFF 		bl	ui_tens_task
 1541              	.LVL162:
 731:user_interface.c ****             
 732:user_interface.c ****     switch (ui_menu_state) {
 1542              		.loc 1 732 0
 1543 000c 434B     		ldr	r3, .L141
 1544 000e DB6C     		ldr	r3, [r3, #76]
 1545 0010 012B     		cmp	r3, #1
 1546 0012 05D0     		beq	.L129
 1547 0014 022B     		cmp	r3, #2
 1548 0016 2BD0     		beq	.L130
 733:user_interface.c ****         default: 
ARM GAS  C:\Users\haske\AppData\Local\Temp\ccWSfRiA.s 			page 61


 734:user_interface.c ****             //ST7735_ClearScreen (WHITE);
 735:user_interface.c ****             //Render main menu screen    
 736:user_interface.c ****             ui_draw_title( (char*) UI_TITLES[ui_menu]);
 737:user_interface.c ****             if (ui_menu == UI_MENU_MAIN) {
 738:user_interface.c ****                 ui_draw_buttons("<", "SELECT", ">");
 739:user_interface.c ****             } else if (ui_menu == UI_MENU_BLUETOOTH) {
 740:user_interface.c ****                 ui_draw_buttons("BACK", "PAIR", "RESET");
 741:user_interface.c ****             } else if (ui_menu == UI_MENU_DIAG) {
 742:user_interface.c ****                 ui_draw_buttons(" ", " ", " ");
 743:user_interface.c ****             } else {
 744:user_interface.c ****                 ui_draw_buttons("<", "BACK", ">");
 745:user_interface.c ****             }
 746:user_interface.c ****             
 747:user_interface.c ****             ui_draw_select_window();
 748:user_interface.c ****                                         
 749:user_interface.c ****             ui_menu_state = 1;
 1549              		.loc 1 749 0
 1550 0018 0122     		movs	r2, #1
 1551 001a 404B     		ldr	r3, .L141
 1552 001c DA64     		str	r2, [r3, #76]
 750:user_interface.c ****         break;
 1553              		.loc 1 750 0
 1554 001e 10BD     		pop	{r4, pc}
 1555              	.LVL163:
 1556              	.L129:
 751:user_interface.c ****     
 752:user_interface.c ****         case 1:  
 753:user_interface.c ****             
 754:user_interface.c ****             //Draw menu items left
 755:user_interface.c ****             ui_draw_icons(ui_menu, UI_ITEM_LEFT_X, ui_menu_item[ui_menu]-1);
 1557              		.loc 1 755 0
 1558 0020 3E4C     		ldr	r4, .L141
 1559              	.LVL164:
 1560 0022 206D     		ldr	r0, [r4, #80]
 1561 0024 04EB8003 		add	r3, r4, r0, lsl #2
 1562 0028 DA69     		ldr	r2, [r3, #28]
 1563 002a 013A     		subs	r2, r2, #1
 1564 002c 0721     		movs	r1, #7
 1565 002e FFF7FEFF 		bl	ui_draw_icons
 1566              	.LVL165:
 756:user_interface.c ****             
 757:user_interface.c ****             //Draw menu items center
 758:user_interface.c ****             ui_draw_icons(ui_menu, UI_ITEM_CENTER_X, ui_menu_item[ui_menu]);
 1567              		.loc 1 758 0
 1568 0032 206D     		ldr	r0, [r4, #80]
 1569 0034 04EB8003 		add	r3, r4, r0, lsl #2
 1570 0038 DA69     		ldr	r2, [r3, #28]
 1571 003a 3A21     		movs	r1, #58
 1572 003c FFF7FEFF 		bl	ui_draw_icons
 1573              	.LVL166:
 759:user_interface.c ****             
 760:user_interface.c ****             //Draw menu items right
 761:user_interface.c ****             ui_draw_icons(ui_menu, UI_ITEM_RIGHT_X, ui_menu_item[ui_menu]+1); 
 1574              		.loc 1 761 0
 1575 0040 206D     		ldr	r0, [r4, #80]
 1576 0042 04EB8003 		add	r3, r4, r0, lsl #2
 1577 0046 DA69     		ldr	r2, [r3, #28]
ARM GAS  C:\Users\haske\AppData\Local\Temp\ccWSfRiA.s 			page 62


 1578 0048 0132     		adds	r2, r2, #1
 1579 004a 6D21     		movs	r1, #109
 1580 004c FFF7FEFF 		bl	ui_draw_icons
 1581              	.LVL167:
 762:user_interface.c ****             
 763:user_interface.c ****             if (ui_menu == UI_MENU_DIAG) {
 1582              		.loc 1 763 0
 1583 0050 206D     		ldr	r0, [r4, #80]
 1584 0052 0928     		cmp	r0, #9
 1585 0054 02D1     		bne	.L132
 764:user_interface.c ****                 ui_draw_diag();
 1586              		.loc 1 764 0
 1587 0056 FFF7FEFF 		bl	ui_draw_diag
 1588              	.LVL168:
 1589 005a 05E0     		b	.L133
 1590              	.L132:
 765:user_interface.c ****             } else {
 766:user_interface.c ****                 ui_settings(ui_menu, ui_menu_item[ui_menu]);
 1591              		.loc 1 766 0
 1592 005c 2F4B     		ldr	r3, .L141
 1593 005e 03EB8003 		add	r3, r3, r0, lsl #2
 1594 0062 D969     		ldr	r1, [r3, #28]
 1595 0064 FFF7FEFF 		bl	ui_settings
 1596              	.LVL169:
 1597              	.L133:
 767:user_interface.c ****             }
 768:user_interface.c ****             
 769:user_interface.c ****             ui_menu_state = 2;
 1598              		.loc 1 769 0
 1599 0068 0222     		movs	r2, #2
 1600 006a 2C4B     		ldr	r3, .L141
 1601 006c DA64     		str	r2, [r3, #76]
 770:user_interface.c ****         break;
 1602              		.loc 1 770 0
 1603 006e 10BD     		pop	{r4, pc}
 1604              	.LVL170:
 1605              	.L130:
 771:user_interface.c ****         
 772:user_interface.c ****         case 2:
 773:user_interface.c ****             //Wait for button input
 774:user_interface.c ****             
 775:user_interface.c ****             //Left button
 776:user_interface.c ****             if (btn_events[0]) {
 1606              		.loc 1 776 0
 1607 0070 2368     		ldr	r3, [r4]
 1608 0072 EBB1     		cbz	r3, .L134
 777:user_interface.c ****                 btn_events[0] = 0;
 1609              		.loc 1 777 0
 1610 0074 0023     		movs	r3, #0
 1611 0076 2360     		str	r3, [r4]
 778:user_interface.c ****                 
 779:user_interface.c ****                 //Exception for bluetooth and diagnostics
 780:user_interface.c ****                 if (ui_menu == UI_MENU_BLUETOOTH || ui_menu == UI_MENU_DIAG) {
 1612              		.loc 1 780 0
 1613 0078 284B     		ldr	r3, .L141
 1614 007a 1B6D     		ldr	r3, [r3, #80]
 1615 007c A3F10802 		sub	r2, r3, #8
ARM GAS  C:\Users\haske\AppData\Local\Temp\ccWSfRiA.s 			page 63


 1616 0080 012A     		cmp	r2, #1
 1617 0082 04D8     		bhi	.L135
 781:user_interface.c ****                     ui_menu = 0;
 1618              		.loc 1 781 0
 1619 0084 254B     		ldr	r3, .L141
 1620 0086 0022     		movs	r2, #0
 1621 0088 1A65     		str	r2, [r3, #80]
 782:user_interface.c ****                     ui_menu_state = 0;
 1622              		.loc 1 782 0
 1623 008a DA64     		str	r2, [r3, #76]
 783:user_interface.c ****                     break;
 1624              		.loc 1 783 0
 1625 008c 10BD     		pop	{r4, pc}
 1626              	.LVL171:
 1627              	.L135:
 784:user_interface.c ****                 }
 785:user_interface.c ****                 
 786:user_interface.c ****                 if (ui_menu_item[ui_menu] > UI_MENU_ITEMS_MIN[ui_menu]) {
 1628              		.loc 1 786 0
 1629 008e 234A     		ldr	r2, .L141
 1630 0090 02EB8302 		add	r2, r2, r3, lsl #2
 1631 0094 D269     		ldr	r2, [r2, #28]
 1632 0096 2249     		ldr	r1, .L141+4
 1633 0098 51F82310 		ldr	r1, [r1, r3, lsl #2]
 1634 009c 8A42     		cmp	r2, r1
 1635 009e 07DD     		ble	.L134
 787:user_interface.c ****                     ui_menu_item[ui_menu]--;
 1636              		.loc 1 787 0
 1637 00a0 1E49     		ldr	r1, .L141
 1638 00a2 01EB8303 		add	r3, r1, r3, lsl #2
 1639 00a6 013A     		subs	r2, r2, #1
 1640 00a8 DA61     		str	r2, [r3, #28]
 788:user_interface.c ****                     ui_menu_state = 1;
 1641              		.loc 1 788 0
 1642 00aa 0123     		movs	r3, #1
 1643 00ac CB64     		str	r3, [r1, #76]
 789:user_interface.c ****                     break;
 1644              		.loc 1 789 0
 1645 00ae 10BD     		pop	{r4, pc}
 1646              	.LVL172:
 1647              	.L134:
 790:user_interface.c ****                 }
 791:user_interface.c ****             }
 792:user_interface.c ****             
 793:user_interface.c ****             //Center button
 794:user_interface.c ****             if (btn_events[1]) {
 1648              		.loc 1 794 0
 1649 00b0 6368     		ldr	r3, [r4, #4]
 1650 00b2 93B1     		cbz	r3, .L136
 795:user_interface.c ****                btn_events[1] = 0;
 1651              		.loc 1 795 0
 1652 00b4 0023     		movs	r3, #0
 1653 00b6 6360     		str	r3, [r4, #4]
 796:user_interface.c ****                 if (ui_menu > 0) {
 1654              		.loc 1 796 0
 1655 00b8 184B     		ldr	r3, .L141
 1656 00ba 1B6D     		ldr	r3, [r3, #80]
ARM GAS  C:\Users\haske\AppData\Local\Temp\ccWSfRiA.s 			page 64


 1657 00bc 002B     		cmp	r3, #0
 1658 00be 03DD     		ble	.L137
 797:user_interface.c ****                     ui_menu = 0;
 1659              		.loc 1 797 0
 1660 00c0 0022     		movs	r2, #0
 1661 00c2 164B     		ldr	r3, .L141
 1662 00c4 1A65     		str	r2, [r3, #80]
 1663 00c6 04E0     		b	.L138
 1664              	.L137:
 798:user_interface.c ****                 } else {
 799:user_interface.c ****                     ui_menu = ui_menu_item[ui_menu];
 1665              		.loc 1 799 0
 1666 00c8 144A     		ldr	r2, .L141
 1667 00ca 02EB8303 		add	r3, r2, r3, lsl #2
 1668 00ce DB69     		ldr	r3, [r3, #28]
 1669 00d0 1365     		str	r3, [r2, #80]
 1670              	.L138:
 800:user_interface.c ****                 }
 801:user_interface.c ****                 ui_menu_state = 0;
 1671              		.loc 1 801 0
 1672 00d2 0022     		movs	r2, #0
 1673 00d4 114B     		ldr	r3, .L141
 1674 00d6 DA64     		str	r2, [r3, #76]
 802:user_interface.c ****                 break;
 1675              		.loc 1 802 0
 1676 00d8 10BD     		pop	{r4, pc}
 1677              	.LVL173:
 1678              	.L136:
 803:user_interface.c ****             }
 804:user_interface.c ****             
 805:user_interface.c ****             //Right button
 806:user_interface.c ****             if (btn_events[2]) {
 1679              		.loc 1 806 0
 1680 00da A368     		ldr	r3, [r4, #8]
 1681 00dc E3B1     		cbz	r3, .L127
 807:user_interface.c ****                 btn_events[2] = 0;
 1682              		.loc 1 807 0
 1683 00de 0023     		movs	r3, #0
 1684 00e0 A360     		str	r3, [r4, #8]
 808:user_interface.c ****                 
 809:user_interface.c ****                 //Exception for bluetooth
 810:user_interface.c ****                 if (ui_menu == UI_MENU_BLUETOOTH || ui_menu == UI_MENU_DIAG) {
 1685              		.loc 1 810 0
 1686 00e2 0E4B     		ldr	r3, .L141
 1687 00e4 1B6D     		ldr	r3, [r3, #80]
 1688 00e6 A3F10802 		sub	r2, r3, #8
 1689 00ea 012A     		cmp	r2, #1
 1690 00ec 04D8     		bhi	.L139
 811:user_interface.c ****                     ui_menu = 0;
 1691              		.loc 1 811 0
 1692 00ee 0B4B     		ldr	r3, .L141
 1693 00f0 0022     		movs	r2, #0
 1694 00f2 1A65     		str	r2, [r3, #80]
 812:user_interface.c ****                     ui_menu_state = 0;
 1695              		.loc 1 812 0
 1696 00f4 DA64     		str	r2, [r3, #76]
 813:user_interface.c ****                     break;
ARM GAS  C:\Users\haske\AppData\Local\Temp\ccWSfRiA.s 			page 65


 1697              		.loc 1 813 0
 1698 00f6 10BD     		pop	{r4, pc}
 1699              	.LVL174:
 1700              	.L139:
 814:user_interface.c ****                 }
 815:user_interface.c ****                 
 816:user_interface.c ****                 if (ui_menu_item[ui_menu] < UI_MENU_ITEMS_MAX[ui_menu]) {
 1701              		.loc 1 816 0
 1702 00f8 9A00     		lsls	r2, r3, #2
 1703 00fa 0849     		ldr	r1, .L141
 1704 00fc 1144     		add	r1, r1, r2
 1705 00fe C969     		ldr	r1, [r1, #28]
 1706 0100 0748     		ldr	r0, .L141+4
 1707 0102 0244     		add	r2, r2, r0
 1708 0104 926A     		ldr	r2, [r2, #40]
 1709 0106 9142     		cmp	r1, r2
 1710 0108 06DA     		bge	.L127
 817:user_interface.c ****                     ui_menu_item[ui_menu]++;
 1711              		.loc 1 817 0
 1712 010a 044A     		ldr	r2, .L141
 1713 010c 02EB8303 		add	r3, r2, r3, lsl #2
 1714 0110 0131     		adds	r1, r1, #1
 1715 0112 D961     		str	r1, [r3, #28]
 818:user_interface.c ****                     ui_menu_state = 1;
 1716              		.loc 1 818 0
 1717 0114 0123     		movs	r3, #1
 1718 0116 D364     		str	r3, [r2, #76]
 1719              	.L127:
 1720 0118 10BD     		pop	{r4, pc}
 1721              	.LVL175:
 1722              	.L142:
 1723 011a 00BF     		.align	2
 1724              	.L141:
 1725 011c 00000000 		.word	.LANCHOR1
 1726 0120 00000000 		.word	.LANCHOR2
 1727              		.cfi_endproc
 1728              	.LFE984:
 1729              		.size	ui_menu_task, .-ui_menu_task
 1730              		.section	.text.ui_task,"ax",%progbits
 1731              		.align	2
 1732              		.global	ui_task
 1733              		.thumb
 1734              		.thumb_func
 1735              		.type	ui_task, %function
 1736              	ui_task:
 1737              	.LFB985:
 819:user_interface.c ****                     break;
 820:user_interface.c ****                 }
 821:user_interface.c ****             }
 822:user_interface.c ****             
 823:user_interface.c ****             
 824:user_interface.c ****         break;
 825:user_interface.c ****     
 826:user_interface.c ****     }
 827:user_interface.c **** 
 828:user_interface.c **** }
 829:user_interface.c **** 
ARM GAS  C:\Users\haske\AppData\Local\Temp\ccWSfRiA.s 			page 66


 830:user_interface.c **** 
 831:user_interface.c **** 
 832:user_interface.c **** /*******************************************************************************
 833:user_interface.c **** * Function Name: void ui_task()
 834:user_interface.c **** ********************************************************************************
 835:user_interface.c **** *
 836:user_interface.c **** * Summary:
 837:user_interface.c **** *   user interface task
 838:user_interface.c **** *
 839:user_interface.c **** *******************************************************************************/
 840:user_interface.c **** void ui_task(void) {
 1738              		.loc 1 840 0
 1739              		.cfi_startproc
 1740              		@ args = 0, pretend = 0, frame = 16
 1741              		@ frame_needed = 0, uses_anonymous_args = 0
 1742 0000 10B5     		push	{r4, lr}
 1743              		.cfi_def_cfa_offset 8
 1744              		.cfi_offset 4, -8
 1745              		.cfi_offset 14, -4
 1746 0002 84B0     		sub	sp, sp, #16
 1747              		.cfi_def_cfa_offset 24
 1748              	.LVL176:
 841:user_interface.c ****     int i;
 842:user_interface.c ****     int btn[UI_NUM_BUTTONS];
 843:user_interface.c ****     
 844:user_interface.c ****     //btn[0] = Cy_GPIO_Read(BTN0_PORT, BTN0_NUM);
 845:user_interface.c ****     //btn[1] = Cy_GPIO_Read(BTN1_PORT, BTN1_NUM);
 846:user_interface.c ****     //btn[2] = Cy_GPIO_Read(BTN2_PORT, BTN2_NUM);
 847:user_interface.c ****     
 848:user_interface.c ****     //Button events
 849:user_interface.c ****     for (i=0;i<UI_NUM_BUTTONS;i++) {
 1749              		.loc 1 849 0
 1750 0004 0024     		movs	r4, #0
 1751 0006 3FE0     		b	.L144
 1752              	.LVL177:
 1753              	.L150:
 850:user_interface.c ****         switch (btn_state[i]) {
 1754              		.loc 1 850 0
 1755 0008 364B     		ldr	r3, .L159
 1756 000a 03EB8403 		add	r3, r3, r4, lsl #2
 1757 000e 5B6D     		ldr	r3, [r3, #84]
 1758 0010 022B     		cmp	r3, #2
 1759 0012 1FD0     		beq	.L146
 1760 0014 032B     		cmp	r3, #3
 1761 0016 2CD0     		beq	.L147
 1762 0018 012B     		cmp	r3, #1
 1763 001a 10D0     		beq	.L148
 851:user_interface.c ****             default: //0
 852:user_interface.c ****                 if (btn[i] == 0) {
 1764              		.loc 1 852 0
 1765 001c 04AB     		add	r3, sp, #16
 1766 001e 03EB8403 		add	r3, r3, r4, lsl #2
 1767 0022 53F80C3C 		ldr	r3, [r3, #-12]
 1768 0026 73BB     		cbnz	r3, .L149
 853:user_interface.c ****                     //Button down
 854:user_interface.c ****                     btn_state[i] = 1;
 1769              		.loc 1 854 0
ARM GAS  C:\Users\haske\AppData\Local\Temp\ccWSfRiA.s 			page 67


 1770 0028 2E4B     		ldr	r3, .L159
 1771 002a 03EB8403 		add	r3, r3, r4, lsl #2
 1772 002e 0122     		movs	r2, #1
 1773 0030 5A65     		str	r2, [r3, #84]
 855:user_interface.c ****                     btn_events[i] = 1;
 1774              		.loc 1 855 0
 1775 0032 1A66     		str	r2, [r3, #96]
 856:user_interface.c ****                     btn_timeout[i] = UI_BUTTON_DEBOUNCE_MS;
 1776              		.loc 1 856 0
 1777 0034 3222     		movs	r2, #50
 1778 0036 5A60     		str	r2, [r3, #4]
 857:user_interface.c ****                     
 858:user_interface.c ****                     
 859:user_interface.c ****                     power_wakeup();
 1779              		.loc 1 859 0
 1780 0038 FFF7FEFF 		bl	power_wakeup
 1781              	.LVL178:
 1782 003c 23E0     		b	.L149
 1783              	.L148:
 860:user_interface.c ****                 }
 861:user_interface.c ****             break;
 862:user_interface.c ****                 
 863:user_interface.c ****             case 1:
 864:user_interface.c ****                 if (btn_timeout[i] == 0) {
 1784              		.loc 1 864 0
 1785 003e 294B     		ldr	r3, .L159
 1786 0040 03EB8403 		add	r3, r3, r4, lsl #2
 1787 0044 5B68     		ldr	r3, [r3, #4]
 1788 0046 F3B9     		cbnz	r3, .L149
 865:user_interface.c ****                     btn_state[i] = 2;
 1789              		.loc 1 865 0
 1790 0048 264B     		ldr	r3, .L159
 1791 004a 03EB8403 		add	r3, r3, r4, lsl #2
 1792 004e 0222     		movs	r2, #2
 1793 0050 5A65     		str	r2, [r3, #84]
 1794 0052 18E0     		b	.L149
 1795              	.L146:
 866:user_interface.c ****                 }
 867:user_interface.c ****             break;
 868:user_interface.c ****                 
 869:user_interface.c ****             case 2:
 870:user_interface.c ****                 if (btn[i] == 1) {
 1796              		.loc 1 870 0
 1797 0054 04AB     		add	r3, sp, #16
 1798 0056 03EB8403 		add	r3, r3, r4, lsl #2
 1799 005a 53F80C3C 		ldr	r3, [r3, #-12]
 1800 005e 012B     		cmp	r3, #1
 1801 0060 11D1     		bne	.L149
 871:user_interface.c ****                     //Button up
 872:user_interface.c ****                     btn_state[i] = 3;
 1802              		.loc 1 872 0
 1803 0062 204B     		ldr	r3, .L159
 1804 0064 03EB8403 		add	r3, r3, r4, lsl #2
 1805 0068 0322     		movs	r2, #3
 1806 006a 5A65     		str	r2, [r3, #84]
 873:user_interface.c ****                     btn_timeout[i] = UI_BUTTON_DEBOUNCE_MS;
 1807              		.loc 1 873 0
ARM GAS  C:\Users\haske\AppData\Local\Temp\ccWSfRiA.s 			page 68


 1808 006c 3222     		movs	r2, #50
 1809 006e 5A60     		str	r2, [r3, #4]
 1810 0070 09E0     		b	.L149
 1811              	.L147:
 874:user_interface.c ****                  }
 875:user_interface.c ****             break;
 876:user_interface.c ****                 
 877:user_interface.c ****             case 3:
 878:user_interface.c ****                 if (btn_timeout[i] == 0) {
 1812              		.loc 1 878 0
 1813 0072 1C4B     		ldr	r3, .L159
 1814 0074 03EB8403 		add	r3, r3, r4, lsl #2
 1815 0078 5B68     		ldr	r3, [r3, #4]
 1816 007a 23B9     		cbnz	r3, .L149
 879:user_interface.c ****                     btn_state[i] = 0;
 1817              		.loc 1 879 0
 1818 007c 194B     		ldr	r3, .L159
 1819 007e 03EB8403 		add	r3, r3, r4, lsl #2
 1820 0082 0022     		movs	r2, #0
 1821 0084 5A65     		str	r2, [r3, #84]
 1822              	.L149:
 849:user_interface.c ****         switch (btn_state[i]) {
 1823              		.loc 1 849 0 discriminator 2
 1824 0086 0134     		adds	r4, r4, #1
 1825              	.LVL179:
 1826              	.L144:
 849:user_interface.c ****         switch (btn_state[i]) {
 1827              		.loc 1 849 0 is_stmt 0 discriminator 1
 1828 0088 022C     		cmp	r4, #2
 1829 008a BDDD     		ble	.L150
 880:user_interface.c ****                 }
 881:user_interface.c ****             break;
 882:user_interface.c ****         }
 883:user_interface.c ****         
 884:user_interface.c ****     
 885:user_interface.c ****     }
 886:user_interface.c ****     
 887:user_interface.c ****     
 888:user_interface.c **** 
 889:user_interface.c ****     switch (ui_state) {
 1830              		.loc 1 889 0 is_stmt 1
 1831 008c 154B     		ldr	r3, .L159
 1832 008e DB6E     		ldr	r3, [r3, #108]
 1833 0090 012B     		cmp	r3, #1
 1834 0092 17D0     		beq	.L152
 1835 0094 022B     		cmp	r3, #2
 1836 0096 1CD0     		beq	.L153
 1837 0098 6BB1     		cbz	r3, .L157
 890:user_interface.c **** 
 891:user_interface.c ****         default: //UI_STATE_IDLE
 892:user_interface.c ****         
 893:user_interface.c ****             //ui_bluetooth_icon();
 894:user_interface.c ****             //ui_battery_icon();
 895:user_interface.c ****             
 896:user_interface.c ****             ui_menu_task(btn_events);
 1838              		.loc 1 896 0
 1839 009a 1348     		ldr	r0, .L159+4
ARM GAS  C:\Users\haske\AppData\Local\Temp\ccWSfRiA.s 			page 69


 1840 009c FFF7FEFF 		bl	ui_menu_task
 1841              	.LVL180:
 897:user_interface.c ****         
 898:user_interface.c ****         break;
 1842              		.loc 1 898 0
 1843 00a0 1DE0     		b	.L143
 1844              	.LVL181:
 1845              	.L156:
 899:user_interface.c ****         
 900:user_interface.c ****         case UI_STATE_INIT:
 901:user_interface.c ****         
 902:user_interface.c ****             //ST7735_Init();
 903:user_interface.c ****             //ST7735_ClearScreen (WHITE);
 904:user_interface.c ****             
 905:user_interface.c ****             for (i=0;i<UI_MENU_MAX;i++) {
 906:user_interface.c ****                 ui_menu_item[i] = UI_MENU_ITEMS_INIT[i];
 1846              		.loc 1 906 0 discriminator 3
 1847 00a2 9300     		lsls	r3, r2, #2
 1848 00a4 1149     		ldr	r1, .L159+8
 1849 00a6 1944     		add	r1, r1, r3
 1850 00a8 D1F8A811 		ldr	r1, [r1, #424]
 1851 00ac 0D48     		ldr	r0, .L159
 1852 00ae 0344     		add	r3, r3, r0
 1853 00b0 D961     		str	r1, [r3, #28]
 905:user_interface.c ****                 ui_menu_item[i] = UI_MENU_ITEMS_INIT[i];
 1854              		.loc 1 905 0 discriminator 3
 1855 00b2 0132     		adds	r2, r2, #1
 1856              	.LVL182:
 1857 00b4 00E0     		b	.L154
 1858              	.LVL183:
 1859              	.L157:
 889:user_interface.c **** 
 1860              		.loc 1 889 0
 1861 00b6 0022     		movs	r2, #0
 1862              	.LVL184:
 1863              	.L154:
 905:user_interface.c ****                 ui_menu_item[i] = UI_MENU_ITEMS_INIT[i];
 1864              		.loc 1 905 0 discriminator 1
 1865 00b8 092A     		cmp	r2, #9
 1866 00ba F2DD     		ble	.L156
 907:user_interface.c ****             }
 908:user_interface.c ****                  
 909:user_interface.c ****             ui_state = UI_STATE_DRAW_SPLASH_SCREEN;
 1867              		.loc 1 909 0
 1868 00bc 0122     		movs	r2, #1
 1869              	.LVL185:
 1870 00be 094B     		ldr	r3, .L159
 1871 00c0 DA66     		str	r2, [r3, #108]
 910:user_interface.c ****         break;
 1872              		.loc 1 910 0
 1873 00c2 0CE0     		b	.L143
 1874              	.LVL186:
 1875              	.L152:
 911:user_interface.c ****         
 912:user_interface.c ****         case UI_STATE_DRAW_SPLASH_SCREEN:
 913:user_interface.c ****             ui_draw_splash_screen();           
 914:user_interface.c ****             ui_timeout = 3000; 
ARM GAS  C:\Users\haske\AppData\Local\Temp\ccWSfRiA.s 			page 70


 1876              		.loc 1 914 0
 1877 00c4 074B     		ldr	r3, .L159
 1878 00c6 40F6B832 		movw	r2, #3000
 1879 00ca 1A60     		str	r2, [r3]
 915:user_interface.c ****             ui_state = UI_STATE_SPLASH_SCREEN_DELAY;
 1880              		.loc 1 915 0
 1881 00cc 0222     		movs	r2, #2
 1882 00ce DA66     		str	r2, [r3, #108]
 916:user_interface.c ****         break;
 1883              		.loc 1 916 0
 1884 00d0 05E0     		b	.L143
 1885              	.L153:
 917:user_interface.c ****             
 918:user_interface.c ****         case UI_STATE_SPLASH_SCREEN_DELAY:
 919:user_interface.c ****             if (ui_timeout == 0) {
 1886              		.loc 1 919 0
 1887 00d2 044B     		ldr	r3, .L159
 1888 00d4 1B68     		ldr	r3, [r3]
 1889 00d6 13B9     		cbnz	r3, .L143
 920:user_interface.c ****                 ui_state = UI_STATE_IDLE;
 1890              		.loc 1 920 0
 1891 00d8 0A22     		movs	r2, #10
 1892 00da 024B     		ldr	r3, .L159
 1893 00dc DA66     		str	r2, [r3, #108]
 1894              	.LVL187:
 1895              	.L143:
 921:user_interface.c ****             }
 922:user_interface.c ****         break;
 923:user_interface.c ****         
 924:user_interface.c ****         
 925:user_interface.c **** 
 926:user_interface.c ****     }
 927:user_interface.c **** }
 1896              		.loc 1 927 0
 1897 00de 04B0     		add	sp, sp, #16
 1898              		.cfi_def_cfa_offset 8
 1899              		@ sp needed
 1900 00e0 10BD     		pop	{r4, pc}
 1901              	.L160:
 1902 00e2 00BF     		.align	2
 1903              	.L159:
 1904 00e4 00000000 		.word	.LANCHOR1
 1905 00e8 60000000 		.word	.LANCHOR1+96
 1906 00ec 00000000 		.word	.LANCHOR2
 1907              		.cfi_endproc
 1908              	.LFE985:
 1909              		.size	ui_task, .-ui_task
 1910              		.section	.text.InitUserInterface,"ax",%progbits
 1911              		.align	2
 1912              		.global	InitUserInterface
 1913              		.thumb
 1914              		.thumb_func
 1915              		.type	InitUserInterface, %function
 1916              	InitUserInterface:
 1917              	.LFB986:
 928:user_interface.c **** 
 929:user_interface.c **** 
ARM GAS  C:\Users\haske\AppData\Local\Temp\ccWSfRiA.s 			page 71


 930:user_interface.c **** 
 931:user_interface.c **** 
 932:user_interface.c **** 
 933:user_interface.c **** 
 934:user_interface.c **** 
 935:user_interface.c **** /*******************************************************************************
 936:user_interface.c **** * Function Name: void InitUserInterface(void)
 937:user_interface.c **** ********************************************************************************
 938:user_interface.c **** *
 939:user_interface.c **** * Summary:
 940:user_interface.c **** *   Initialization the user interface: LEDs, SW2, etc. 
 941:user_interface.c **** *
 942:user_interface.c **** *******************************************************************************/
 943:user_interface.c **** void InitUserInterface(void)
 944:user_interface.c **** {
 1918              		.loc 1 944 0
 1919              		.cfi_startproc
 1920              		@ args = 0, pretend = 0, frame = 0
 1921              		@ frame_needed = 0, uses_anonymous_args = 0
 1922 0000 08B5     		push	{r3, lr}
 1923              		.cfi_def_cfa_offset 8
 1924              		.cfi_offset 3, -8
 1925              		.cfi_offset 14, -4
 945:user_interface.c ****     /* Initialize wakeup pin for Hibernate */
 946:user_interface.c ****     Cy_SysPm_SetHibernateWakeupSource(CY_SYSPM_HIBERNATE_PIN1_LOW);
 1926              		.loc 1 946 0
 1927 0002 4FF00070 		mov	r0, #33554432
 1928 0006 FFF7FEFF 		bl	Cy_SysPm_SetHibernateWakeupSource
 1929              	.LVL188:
 1930 000a 08BD     		pop	{r3, pc}
 1931              		.cfi_endproc
 1932              	.LFE986:
 1933              		.size	InitUserInterface, .-InitUserInterface
 1934              		.section	.text.UpdateLedState,"ax",%progbits
 1935              		.align	2
 1936              		.global	UpdateLedState
 1937              		.thumb
 1938              		.thumb_func
 1939              		.type	UpdateLedState, %function
 1940              	UpdateLedState:
 1941              	.LFB987:
 947:user_interface.c ****     
 948:user_interface.c ****     /* Initialize LEDs */
 949:user_interface.c ****     //DisableAllLeds();
 950:user_interface.c **** }
 951:user_interface.c **** 
 952:user_interface.c **** 
 953:user_interface.c **** /*******************************************************************************
 954:user_interface.c **** * Function Name: UpdateLedState
 955:user_interface.c **** ********************************************************************************
 956:user_interface.c **** *
 957:user_interface.c **** * Summary:
 958:user_interface.c **** *  This function updates LED status based on current BLE state.
 959:user_interface.c **** *
 960:user_interface.c **** *******************************************************************************/
 961:user_interface.c **** void UpdateLedState(void)
 962:user_interface.c **** {
ARM GAS  C:\Users\haske\AppData\Local\Temp\ccWSfRiA.s 			page 72


 1942              		.loc 1 962 0
 1943              		.cfi_startproc
 1944              		@ args = 0, pretend = 0, frame = 0
 1945              		@ frame_needed = 0, uses_anonymous_args = 0
 1946              		@ link register save eliminated.
 1947              	.LBB172:
 1948              	.LBB173:
 1949              		.file 4 "Generated_Source\\PSoC6\\pdl\\middleware/ble/cy_ble_gap.h"
   1:Generated_Source\PSoC6\pdl\middleware/ble/cy_ble_gap.h **** /***************************************************************************//**
   2:Generated_Source\PSoC6\pdl\middleware/ble/cy_ble_gap.h **** * \file cy_ble_gap.h
   3:Generated_Source\PSoC6\pdl\middleware/ble/cy_ble_gap.h **** * \version 2.70
   4:Generated_Source\PSoC6\pdl\middleware/ble/cy_ble_gap.h **** *
   5:Generated_Source\PSoC6\pdl\middleware/ble/cy_ble_gap.h **** * \brief
   6:Generated_Source\PSoC6\pdl\middleware/ble/cy_ble_gap.h **** *  Contains the prototypes and constants used in the BLE GAP profile.
   7:Generated_Source\PSoC6\pdl\middleware/ble/cy_ble_gap.h **** *
   8:Generated_Source\PSoC6\pdl\middleware/ble/cy_ble_gap.h **** ********************************************************************************
   9:Generated_Source\PSoC6\pdl\middleware/ble/cy_ble_gap.h **** * \copyright
  10:Generated_Source\PSoC6\pdl\middleware/ble/cy_ble_gap.h **** * Copyright 2017-2021, Cypress Semiconductor Corporation.  All rights reserved.
  11:Generated_Source\PSoC6\pdl\middleware/ble/cy_ble_gap.h **** * You may use this file only in accordance with the license, terms, conditions,
  12:Generated_Source\PSoC6\pdl\middleware/ble/cy_ble_gap.h **** * disclaimers, and limitations in the end user license agreement accompanying
  13:Generated_Source\PSoC6\pdl\middleware/ble/cy_ble_gap.h **** * the software package with which this file was provided.
  14:Generated_Source\PSoC6\pdl\middleware/ble/cy_ble_gap.h **** *******************************************************************************/
  15:Generated_Source\PSoC6\pdl\middleware/ble/cy_ble_gap.h **** 
  16:Generated_Source\PSoC6\pdl\middleware/ble/cy_ble_gap.h **** 
  17:Generated_Source\PSoC6\pdl\middleware/ble/cy_ble_gap.h **** #ifndef CY_BLE_GAP_H
  18:Generated_Source\PSoC6\pdl\middleware/ble/cy_ble_gap.h **** #define CY_BLE_GAP_H
  19:Generated_Source\PSoC6\pdl\middleware/ble/cy_ble_gap.h **** 
  20:Generated_Source\PSoC6\pdl\middleware/ble/cy_ble_gap.h **** #include "cy_ble_config.h"
  21:Generated_Source\PSoC6\pdl\middleware/ble/cy_ble_gap.h **** 
  22:Generated_Source\PSoC6\pdl\middleware/ble/cy_ble_gap.h **** /***************************************
  23:Generated_Source\PSoC6\pdl\middleware/ble/cy_ble_gap.h **** * BLE Stack includes
  24:Generated_Source\PSoC6\pdl\middleware/ble/cy_ble_gap.h **** ***************************************/
  25:Generated_Source\PSoC6\pdl\middleware/ble/cy_ble_gap.h **** #include "cy_ble_stack_gatt.h"
  26:Generated_Source\PSoC6\pdl\middleware/ble/cy_ble_gap.h **** #include "cy_ble_stack_gap.h"
  27:Generated_Source\PSoC6\pdl\middleware/ble/cy_ble_gap.h **** #include "cy_ble_stack_gap_central.h"
  28:Generated_Source\PSoC6\pdl\middleware/ble/cy_ble_gap.h **** #include "cy_ble_stack_gap_peripheral.h"
  29:Generated_Source\PSoC6\pdl\middleware/ble/cy_ble_gap.h **** 
  30:Generated_Source\PSoC6\pdl\middleware/ble/cy_ble_gap.h **** /* C binding of definitions if building with C++ compiler */
  31:Generated_Source\PSoC6\pdl\middleware/ble/cy_ble_gap.h **** #ifdef __cplusplus
  32:Generated_Source\PSoC6\pdl\middleware/ble/cy_ble_gap.h **** extern "C" {
  33:Generated_Source\PSoC6\pdl\middleware/ble/cy_ble_gap.h **** #endif /* __cplusplus */
  34:Generated_Source\PSoC6\pdl\middleware/ble/cy_ble_gap.h **** 
  35:Generated_Source\PSoC6\pdl\middleware/ble/cy_ble_gap.h **** /***************************************
  36:Generated_Source\PSoC6\pdl\middleware/ble/cy_ble_gap.h **** * Conditional Compilation Parameters
  37:Generated_Source\PSoC6\pdl\middleware/ble/cy_ble_gap.h **** ***************************************/
  38:Generated_Source\PSoC6\pdl\middleware/ble/cy_ble_gap.h **** /**
  39:Generated_Source\PSoC6\pdl\middleware/ble/cy_ble_gap.h ****  * The BLE operation mode.
  40:Generated_Source\PSoC6\pdl\middleware/ble/cy_ble_gap.h ****  */
  41:Generated_Source\PSoC6\pdl\middleware/ble/cy_ble_gap.h **** #define CY_BLE_MODE                          (CY_BLE_CONFIG_MODE)
  42:Generated_Source\PSoC6\pdl\middleware/ble/cy_ble_gap.h **** 
  43:Generated_Source\PSoC6\pdl\middleware/ble/cy_ble_gap.h **** /**
  44:Generated_Source\PSoC6\pdl\middleware/ble/cy_ble_gap.h ****  * Maximum number of BLE connections
  45:Generated_Source\PSoC6\pdl\middleware/ble/cy_ble_gap.h ****  * This parameter displays how many BLE connections (both Central and
  46:Generated_Source\PSoC6\pdl\middleware/ble/cy_ble_gap.h ****  * Peripheral) are allowed. Valid range is from 1 to 4.
  47:Generated_Source\PSoC6\pdl\middleware/ble/cy_ble_gap.h ****  */
  48:Generated_Source\PSoC6\pdl\middleware/ble/cy_ble_gap.h **** #define CY_BLE_CONN_COUNT                    (CY_BLE_CONFIG_CONN_COUNT)
  49:Generated_Source\PSoC6\pdl\middleware/ble/cy_ble_gap.h **** 
ARM GAS  C:\Users\haske\AppData\Local\Temp\ccWSfRiA.s 			page 73


  50:Generated_Source\PSoC6\pdl\middleware/ble/cy_ble_gap.h **** /**
  51:Generated_Source\PSoC6\pdl\middleware/ble/cy_ble_gap.h ****  * The GAP Role
  52:Generated_Source\PSoC6\pdl\middleware/ble/cy_ble_gap.h ****  * The following defined mask can be used:
  53:Generated_Source\PSoC6\pdl\middleware/ble/cy_ble_gap.h ****  * CY_BLE_GAP_PERIPHERAL  (0x01u) - device operates as peripheral.
  54:Generated_Source\PSoC6\pdl\middleware/ble/cy_ble_gap.h ****  * CY_BLE_GAP_CENTRAL     (0x02u) - device operates as central.
  55:Generated_Source\PSoC6\pdl\middleware/ble/cy_ble_gap.h ****  * CY_BLE_GAP_BROADCASTER (0x04u) - device operates as broadcaster.
  56:Generated_Source\PSoC6\pdl\middleware/ble/cy_ble_gap.h ****  * CY_BLE_GAP_OBSERVER    (0x08u) - device operates as observer.
  57:Generated_Source\PSoC6\pdl\middleware/ble/cy_ble_gap.h ****  * CY_BLE_GAP_HCI         (0x00u) - used when BLE operates in HCI mode.
  58:Generated_Source\PSoC6\pdl\middleware/ble/cy_ble_gap.h ****  */
  59:Generated_Source\PSoC6\pdl\middleware/ble/cy_ble_gap.h **** #define CY_BLE_GAP_ROLE                       (CY_BLE_CONFIG_GAP_ROLE)
  60:Generated_Source\PSoC6\pdl\middleware/ble/cy_ble_gap.h **** 
  61:Generated_Source\PSoC6\pdl\middleware/ble/cy_ble_gap.h **** /** The number of GAP Peripheral configurations structures */
  62:Generated_Source\PSoC6\pdl\middleware/ble/cy_ble_gap.h **** #define CY_BLE_GAP_PERIPHERAL_COUNT           (CY_BLE_CONFIG_GAP_PERIPHERAL_COUNT)
  63:Generated_Source\PSoC6\pdl\middleware/ble/cy_ble_gap.h **** 
  64:Generated_Source\PSoC6\pdl\middleware/ble/cy_ble_gap.h **** /** The number of GAP Broadcaster configurations structures */
  65:Generated_Source\PSoC6\pdl\middleware/ble/cy_ble_gap.h **** #define CY_BLE_GAP_BROADCASTER_COUNT          (CY_BLE_CONFIG_GAP_BROADCASTER_COUNT)
  66:Generated_Source\PSoC6\pdl\middleware/ble/cy_ble_gap.h **** 
  67:Generated_Source\PSoC6\pdl\middleware/ble/cy_ble_gap.h **** /** The number of GAP Central configurations structures */
  68:Generated_Source\PSoC6\pdl\middleware/ble/cy_ble_gap.h **** #define CY_BLE_GAP_CENTRAL_COUNT              (CY_BLE_CONFIG_GAP_CENTRAL_COUNT)
  69:Generated_Source\PSoC6\pdl\middleware/ble/cy_ble_gap.h **** 
  70:Generated_Source\PSoC6\pdl\middleware/ble/cy_ble_gap.h **** /** The number of GAP Observer configurations structures */
  71:Generated_Source\PSoC6\pdl\middleware/ble/cy_ble_gap.h **** #define CY_BLE_GAP_OBSERVER_COUNT             (CY_BLE_CONFIG_GAP_OBSERVER_COUNT)
  72:Generated_Source\PSoC6\pdl\middleware/ble/cy_ble_gap.h **** 
  73:Generated_Source\PSoC6\pdl\middleware/ble/cy_ble_gap.h **** /** The number of Security configurations structures */
  74:Generated_Source\PSoC6\pdl\middleware/ble/cy_ble_gap.h **** #define CY_BLE_AUTH_INFO_COUNT                (CY_BLE_CONFIG_AUTH_INFO_COUNT)
  75:Generated_Source\PSoC6\pdl\middleware/ble/cy_ble_gap.h **** 
  76:Generated_Source\PSoC6\pdl\middleware/ble/cy_ble_gap.h **** /** The Bonding Requirement structures */
  77:Generated_Source\PSoC6\pdl\middleware/ble/cy_ble_gap.h **** #define CY_BLE_BONDING_REQUIREMENT            (CY_BLE_CONFIG_BONDING_REQUIREMENT)
  78:Generated_Source\PSoC6\pdl\middleware/ble/cy_ble_gap.h **** 
  79:Generated_Source\PSoC6\pdl\middleware/ble/cy_ble_gap.h **** /** The GAP Role defines */
  80:Generated_Source\PSoC6\pdl\middleware/ble/cy_ble_gap.h **** #define CY_BLE_GAP_ROLE_PERIPHERAL            (0u != (CY_BLE_GAP_ROLE & CY_BLE_GAP_PERIPHERAL))
  81:Generated_Source\PSoC6\pdl\middleware/ble/cy_ble_gap.h **** #define CY_BLE_GAP_ROLE_CENTRAL               (0u != (CY_BLE_GAP_ROLE & CY_BLE_GAP_CENTRAL))
  82:Generated_Source\PSoC6\pdl\middleware/ble/cy_ble_gap.h **** #define CY_BLE_GAP_ROLE_OBSERVER              (0u != (CY_BLE_GAP_ROLE & CY_BLE_GAP_OBSERVER))
  83:Generated_Source\PSoC6\pdl\middleware/ble/cy_ble_gap.h **** #define CY_BLE_GAP_ROLE_BROADCASTER           (0u != (CY_BLE_GAP_ROLE & CY_BLE_GAP_BROADCASTER))
  84:Generated_Source\PSoC6\pdl\middleware/ble/cy_ble_gap.h **** 
  85:Generated_Source\PSoC6\pdl\middleware/ble/cy_ble_gap.h **** #define CY_BLE_GAPP_CONF_COUNT                (CY_BLE_GAP_PERIPHERAL_COUNT + CY_BLE_GAP_BROADCASTER
  86:Generated_Source\PSoC6\pdl\middleware/ble/cy_ble_gap.h **** #define CY_BLE_GAPC_CONF_COUNT                (CY_BLE_GAP_CENTRAL_COUNT + CY_BLE_GAP_OBSERVER_COUNT
  87:Generated_Source\PSoC6\pdl\middleware/ble/cy_ble_gap.h **** 
  88:Generated_Source\PSoC6\pdl\middleware/ble/cy_ble_gap.h **** /***************************************
  89:Generated_Source\PSoC6\pdl\middleware/ble/cy_ble_gap.h **** * Type Definitions
  90:Generated_Source\PSoC6\pdl\middleware/ble/cy_ble_gap.h **** ***************************************/
  91:Generated_Source\PSoC6\pdl\middleware/ble/cy_ble_gap.h **** 
  92:Generated_Source\PSoC6\pdl\middleware/ble/cy_ble_gap.h **** #if (CY_BLE_MODE_PROFILE)
  93:Generated_Source\PSoC6\pdl\middleware/ble/cy_ble_gap.h **** 
  94:Generated_Source\PSoC6\pdl\middleware/ble/cy_ble_gap.h **** /***************************************
  95:Generated_Source\PSoC6\pdl\middleware/ble/cy_ble_gap.h **** * Enumerated Types and Structures
  96:Generated_Source\PSoC6\pdl\middleware/ble/cy_ble_gap.h **** ***************************************/
  97:Generated_Source\PSoC6\pdl\middleware/ble/cy_ble_gap.h **** 
  98:Generated_Source\PSoC6\pdl\middleware/ble/cy_ble_gap.h **** /**
  99:Generated_Source\PSoC6\pdl\middleware/ble/cy_ble_gap.h ****  * \addtogroup group_ble_common_api_gap_definitions
 100:Generated_Source\PSoC6\pdl\middleware/ble/cy_ble_gap.h ****  * @{
 101:Generated_Source\PSoC6\pdl\middleware/ble/cy_ble_gap.h ****  */
 102:Generated_Source\PSoC6\pdl\middleware/ble/cy_ble_gap.h **** 
 103:Generated_Source\PSoC6\pdl\middleware/ble/cy_ble_gap.h **** /** BLE state machine type */
 104:Generated_Source\PSoC6\pdl\middleware/ble/cy_ble_gap.h **** typedef enum
 105:Generated_Source\PSoC6\pdl\middleware/ble/cy_ble_gap.h **** {
 106:Generated_Source\PSoC6\pdl\middleware/ble/cy_ble_gap.h ****     CY_BLE_STATE_STOPPED,                             /**< BLE is turned off */
ARM GAS  C:\Users\haske\AppData\Local\Temp\ccWSfRiA.s 			page 74


 107:Generated_Source\PSoC6\pdl\middleware/ble/cy_ble_gap.h ****     CY_BLE_STATE_INITIALIZING,                        /**< Initializing state */
 108:Generated_Source\PSoC6\pdl\middleware/ble/cy_ble_gap.h ****     CY_BLE_STATE_ON,                                  /**< BLE is turned on */
 109:Generated_Source\PSoC6\pdl\middleware/ble/cy_ble_gap.h **** #if (CY_BLE_GAP_ROLE_CENTRAL)
 110:Generated_Source\PSoC6\pdl\middleware/ble/cy_ble_gap.h ****     CY_BLE_STATE_CONNECTING,                          /**< Connecting */
 111:Generated_Source\PSoC6\pdl\middleware/ble/cy_ble_gap.h **** #endif /* CY_BLE_GAP_ROLE_CENTRAL */
 112:Generated_Source\PSoC6\pdl\middleware/ble/cy_ble_gap.h **** } cy_en_ble_state_t;
 113:Generated_Source\PSoC6\pdl\middleware/ble/cy_ble_gap.h **** 
 114:Generated_Source\PSoC6\pdl\middleware/ble/cy_ble_gap.h **** 
 115:Generated_Source\PSoC6\pdl\middleware/ble/cy_ble_gap.h **** /** Scanning state machine type */
 116:Generated_Source\PSoC6\pdl\middleware/ble/cy_ble_gap.h **** typedef enum
 117:Generated_Source\PSoC6\pdl\middleware/ble/cy_ble_gap.h **** {
 118:Generated_Source\PSoC6\pdl\middleware/ble/cy_ble_gap.h ****     CY_BLE_SCAN_STATE_STOPPED,                        /**< Scanning is stopped */
 119:Generated_Source\PSoC6\pdl\middleware/ble/cy_ble_gap.h ****     CY_BLE_SCAN_STATE_SCAN_INITIATED,                 /**< Scanning is initiated */
 120:Generated_Source\PSoC6\pdl\middleware/ble/cy_ble_gap.h ****     CY_BLE_SCAN_STATE_SCANNING,                       /**< Scanning process */
 121:Generated_Source\PSoC6\pdl\middleware/ble/cy_ble_gap.h ****     CY_BLE_SCAN_STATE_STOP_INITIATED                  /**< Stop scanning is initiated */
 122:Generated_Source\PSoC6\pdl\middleware/ble/cy_ble_gap.h **** } cy_en_ble_scan_state_t;
 123:Generated_Source\PSoC6\pdl\middleware/ble/cy_ble_gap.h **** 
 124:Generated_Source\PSoC6\pdl\middleware/ble/cy_ble_gap.h **** /** Advertising state machine type */
 125:Generated_Source\PSoC6\pdl\middleware/ble/cy_ble_gap.h **** typedef enum
 126:Generated_Source\PSoC6\pdl\middleware/ble/cy_ble_gap.h **** {
 127:Generated_Source\PSoC6\pdl\middleware/ble/cy_ble_gap.h ****     CY_BLE_ADV_STATE_STOPPED,                         /**< Advertising is stopped */
 128:Generated_Source\PSoC6\pdl\middleware/ble/cy_ble_gap.h ****     CY_BLE_ADV_STATE_ADV_INITIATED,                   /**< Advertising is initiated */
 129:Generated_Source\PSoC6\pdl\middleware/ble/cy_ble_gap.h ****     CY_BLE_ADV_STATE_ADVERTISING,                     /**< Advertising process */
 130:Generated_Source\PSoC6\pdl\middleware/ble/cy_ble_gap.h ****     CY_BLE_ADV_STATE_STOP_INITIATED                   /**< Stop advertising is initiated */
 131:Generated_Source\PSoC6\pdl\middleware/ble/cy_ble_gap.h **** } cy_en_ble_adv_state_t;
 132:Generated_Source\PSoC6\pdl\middleware/ble/cy_ble_gap.h **** 
 133:Generated_Source\PSoC6\pdl\middleware/ble/cy_ble_gap.h **** /** Connection state machine type */
 134:Generated_Source\PSoC6\pdl\middleware/ble/cy_ble_gap.h **** typedef enum
 135:Generated_Source\PSoC6\pdl\middleware/ble/cy_ble_gap.h **** {
 136:Generated_Source\PSoC6\pdl\middleware/ble/cy_ble_gap.h ****     CY_BLE_CONN_STATE_DISCONNECTED,                   /**< Essentially idle state */
 137:Generated_Source\PSoC6\pdl\middleware/ble/cy_ble_gap.h ****     CY_BLE_CONN_STATE_CLIENT_DISCONNECTED_DISCOVERED, /**< Server is disconnected but discovered */
 138:Generated_Source\PSoC6\pdl\middleware/ble/cy_ble_gap.h ****     CY_BLE_CONN_STATE_CONNECTED,                      /**< Peer device is connected for this and fo
 139:Generated_Source\PSoC6\pdl\middleware/ble/cy_ble_gap.h ****     CY_BLE_CONN_STATE_CLIENT_SRVC_DISCOVERING,        /**< Server services are being discovered */
 140:Generated_Source\PSoC6\pdl\middleware/ble/cy_ble_gap.h ****     CY_BLE_CONN_STATE_CLIENT_INCL_DISCOVERING,        /**< Server included services are being disco
 141:Generated_Source\PSoC6\pdl\middleware/ble/cy_ble_gap.h ****     CY_BLE_CONN_STATE_CLIENT_CHAR_DISCOVERING,        /**< Server characteristics are being discove
 142:Generated_Source\PSoC6\pdl\middleware/ble/cy_ble_gap.h ****     CY_BLE_CONN_STATE_CLIENT_DESCR_DISCOVERING,       /**< Server char. descriptors are being disco
 143:Generated_Source\PSoC6\pdl\middleware/ble/cy_ble_gap.h ****     CY_BLE_CONN_STATE_CLIENT_DISCOVERED               /**< Server is discovered */
 144:Generated_Source\PSoC6\pdl\middleware/ble/cy_ble_gap.h **** } cy_en_ble_conn_state_t;
 145:Generated_Source\PSoC6\pdl\middleware/ble/cy_ble_gap.h **** 
 146:Generated_Source\PSoC6\pdl\middleware/ble/cy_ble_gap.h **** /** Structure with Generic Access Profile Service (GAPS) attribute handles */
 147:Generated_Source\PSoC6\pdl\middleware/ble/cy_ble_gap.h **** typedef struct
 148:Generated_Source\PSoC6\pdl\middleware/ble/cy_ble_gap.h **** {
 149:Generated_Source\PSoC6\pdl\middleware/ble/cy_ble_gap.h ****     /** Service handle*/
 150:Generated_Source\PSoC6\pdl\middleware/ble/cy_ble_gap.h ****     cy_ble_gatt_db_attr_handle_t serviceHandle;
 151:Generated_Source\PSoC6\pdl\middleware/ble/cy_ble_gap.h **** 
 152:Generated_Source\PSoC6\pdl\middleware/ble/cy_ble_gap.h ****     /** Handle of the GAPS Device Name Characteristic */
 153:Generated_Source\PSoC6\pdl\middleware/ble/cy_ble_gap.h ****     cy_ble_gatt_db_attr_handle_t deviceNameCharHandle;
 154:Generated_Source\PSoC6\pdl\middleware/ble/cy_ble_gap.h **** 
 155:Generated_Source\PSoC6\pdl\middleware/ble/cy_ble_gap.h ****     /** Handle of the GAPS Appearance Characteristic */
 156:Generated_Source\PSoC6\pdl\middleware/ble/cy_ble_gap.h ****     cy_ble_gatt_db_attr_handle_t appearanceCharHandle;
 157:Generated_Source\PSoC6\pdl\middleware/ble/cy_ble_gap.h **** 
 158:Generated_Source\PSoC6\pdl\middleware/ble/cy_ble_gap.h ****     /** Handle of the GAPS Peripheral Preferred Connection Parameters Characteristic */
 159:Generated_Source\PSoC6\pdl\middleware/ble/cy_ble_gap.h ****     cy_ble_gatt_db_attr_handle_t prefConnParamCharHandle;
 160:Generated_Source\PSoC6\pdl\middleware/ble/cy_ble_gap.h **** 
 161:Generated_Source\PSoC6\pdl\middleware/ble/cy_ble_gap.h ****     /** Handle of the GAPS Central Address Resolution characteristic */
 162:Generated_Source\PSoC6\pdl\middleware/ble/cy_ble_gap.h ****     cy_ble_gatt_db_attr_handle_t centralAddrResolutionCharHandle;
 163:Generated_Source\PSoC6\pdl\middleware/ble/cy_ble_gap.h **** 
ARM GAS  C:\Users\haske\AppData\Local\Temp\ccWSfRiA.s 			page 75


 164:Generated_Source\PSoC6\pdl\middleware/ble/cy_ble_gap.h ****     /** Handle of the GAPS Resolvable Private Address Only characteristic */
 165:Generated_Source\PSoC6\pdl\middleware/ble/cy_ble_gap.h ****     cy_ble_gatt_db_attr_handle_t resolvablePrivateAddressOnly;
 166:Generated_Source\PSoC6\pdl\middleware/ble/cy_ble_gap.h **** } cy_stc_ble_gaps_t;
 167:Generated_Source\PSoC6\pdl\middleware/ble/cy_ble_gap.h **** 
 168:Generated_Source\PSoC6\pdl\middleware/ble/cy_ble_gap.h **** /** GAP Service characteristics server's GATT DB handles structure type */
 169:Generated_Source\PSoC6\pdl\middleware/ble/cy_ble_gap.h **** typedef struct
 170:Generated_Source\PSoC6\pdl\middleware/ble/cy_ble_gap.h **** {
 171:Generated_Source\PSoC6\pdl\middleware/ble/cy_ble_gap.h ****     /** Handle of the GAPS Device Name Characteristic */
 172:Generated_Source\PSoC6\pdl\middleware/ble/cy_ble_gap.h ****     cy_ble_gatt_db_attr_handle_t deviceNameCharHandle;
 173:Generated_Source\PSoC6\pdl\middleware/ble/cy_ble_gap.h **** 
 174:Generated_Source\PSoC6\pdl\middleware/ble/cy_ble_gap.h ****     /** Handle of the GAPS Appearance Characteristic */
 175:Generated_Source\PSoC6\pdl\middleware/ble/cy_ble_gap.h ****     cy_ble_gatt_db_attr_handle_t appearanceCharHandle;
 176:Generated_Source\PSoC6\pdl\middleware/ble/cy_ble_gap.h **** 
 177:Generated_Source\PSoC6\pdl\middleware/ble/cy_ble_gap.h ****     /** Handle of the GAPS Peripheral Privacy Flag Parameters Characteristic */
 178:Generated_Source\PSoC6\pdl\middleware/ble/cy_ble_gap.h ****     cy_ble_gatt_db_attr_handle_t periphPrivacyCharHandle;
 179:Generated_Source\PSoC6\pdl\middleware/ble/cy_ble_gap.h **** 
 180:Generated_Source\PSoC6\pdl\middleware/ble/cy_ble_gap.h ****     /** Handle of the GAPS Reconnection Address Characteristic */
 181:Generated_Source\PSoC6\pdl\middleware/ble/cy_ble_gap.h ****     cy_ble_gatt_db_attr_handle_t reconnAddrCharHandle;
 182:Generated_Source\PSoC6\pdl\middleware/ble/cy_ble_gap.h **** 
 183:Generated_Source\PSoC6\pdl\middleware/ble/cy_ble_gap.h ****     /** Handle of the GAPS Peripheral Preferred Connection Parameters Characteristic */
 184:Generated_Source\PSoC6\pdl\middleware/ble/cy_ble_gap.h ****     cy_ble_gatt_db_attr_handle_t prefConnParamCharHandle;
 185:Generated_Source\PSoC6\pdl\middleware/ble/cy_ble_gap.h **** 
 186:Generated_Source\PSoC6\pdl\middleware/ble/cy_ble_gap.h ****     /** Handle of the GAPS Central Address Resolution characteristic */
 187:Generated_Source\PSoC6\pdl\middleware/ble/cy_ble_gap.h ****     cy_ble_gatt_db_attr_handle_t centralAddrResolutionCharHandle;
 188:Generated_Source\PSoC6\pdl\middleware/ble/cy_ble_gap.h **** 
 189:Generated_Source\PSoC6\pdl\middleware/ble/cy_ble_gap.h ****     /** Handle of the GAPS Resolvable Private Address Only characteristic */
 190:Generated_Source\PSoC6\pdl\middleware/ble/cy_ble_gap.h ****     cy_ble_gatt_db_attr_handle_t resolvablePrivateAddressOnly;
 191:Generated_Source\PSoC6\pdl\middleware/ble/cy_ble_gap.h **** }cy_stc_ble_gapc_t;
 192:Generated_Source\PSoC6\pdl\middleware/ble/cy_ble_gap.h **** 
 193:Generated_Source\PSoC6\pdl\middleware/ble/cy_ble_gap.h **** /* Stack mode defines */
 194:Generated_Source\PSoC6\pdl\middleware/ble/cy_ble_gap.h **** 
 195:Generated_Source\PSoC6\pdl\middleware/ble/cy_ble_gap.h **** /** Advertisement SIG assigned numbers */
 196:Generated_Source\PSoC6\pdl\middleware/ble/cy_ble_gap.h **** typedef enum
 197:Generated_Source\PSoC6\pdl\middleware/ble/cy_ble_gap.h **** {
 198:Generated_Source\PSoC6\pdl\middleware/ble/cy_ble_gap.h ****     /** Flags */
 199:Generated_Source\PSoC6\pdl\middleware/ble/cy_ble_gap.h ****     CY_BLE_GAP_ADV_FLAGS = 0x01u,
 200:Generated_Source\PSoC6\pdl\middleware/ble/cy_ble_gap.h **** 
 201:Generated_Source\PSoC6\pdl\middleware/ble/cy_ble_gap.h ****     /** Incomplete List of 16-bit Service Class UUIDs */
 202:Generated_Source\PSoC6\pdl\middleware/ble/cy_ble_gap.h ****     CY_BLE_GAP_ADV_INCOMPL_16UUID,
 203:Generated_Source\PSoC6\pdl\middleware/ble/cy_ble_gap.h **** 
 204:Generated_Source\PSoC6\pdl\middleware/ble/cy_ble_gap.h ****     /** Complete List of 16-bit Service Class UUIDs */
 205:Generated_Source\PSoC6\pdl\middleware/ble/cy_ble_gap.h ****     CY_BLE_GAP_ADV_COMPL_16UUID,
 206:Generated_Source\PSoC6\pdl\middleware/ble/cy_ble_gap.h **** 
 207:Generated_Source\PSoC6\pdl\middleware/ble/cy_ble_gap.h ****     /** Incomplete List of 32-bit Service Class UUIDs */
 208:Generated_Source\PSoC6\pdl\middleware/ble/cy_ble_gap.h ****     CY_BLE_GAP_ADV_INCOMPL_32_UUID,
 209:Generated_Source\PSoC6\pdl\middleware/ble/cy_ble_gap.h **** 
 210:Generated_Source\PSoC6\pdl\middleware/ble/cy_ble_gap.h ****     /** Complete List of 32-bit Service Class UUIDs */
 211:Generated_Source\PSoC6\pdl\middleware/ble/cy_ble_gap.h ****     CY_BLE_GAP_ADV_COMPL_32_UUID,
 212:Generated_Source\PSoC6\pdl\middleware/ble/cy_ble_gap.h **** 
 213:Generated_Source\PSoC6\pdl\middleware/ble/cy_ble_gap.h ****     /** Incomplete List of 128-bit Service Class UUIDs */
 214:Generated_Source\PSoC6\pdl\middleware/ble/cy_ble_gap.h ****     CY_BLE_GAP_ADV_INCOMPL_128_UUID,
 215:Generated_Source\PSoC6\pdl\middleware/ble/cy_ble_gap.h **** 
 216:Generated_Source\PSoC6\pdl\middleware/ble/cy_ble_gap.h ****     /** Complete List of 128-bit Service Class UUIDs */
 217:Generated_Source\PSoC6\pdl\middleware/ble/cy_ble_gap.h ****     CY_BLE_GAP_ADV_COMPL_128_UUID,
 218:Generated_Source\PSoC6\pdl\middleware/ble/cy_ble_gap.h **** 
 219:Generated_Source\PSoC6\pdl\middleware/ble/cy_ble_gap.h ****     /** Shortened Local Name */
 220:Generated_Source\PSoC6\pdl\middleware/ble/cy_ble_gap.h ****     CY_BLE_GAP_ADV_SHORT_NAME,
ARM GAS  C:\Users\haske\AppData\Local\Temp\ccWSfRiA.s 			page 76


 221:Generated_Source\PSoC6\pdl\middleware/ble/cy_ble_gap.h **** 
 222:Generated_Source\PSoC6\pdl\middleware/ble/cy_ble_gap.h ****     /** Complete Local Name */
 223:Generated_Source\PSoC6\pdl\middleware/ble/cy_ble_gap.h ****     CY_BLE_GAP_ADV_COMPL_NAME,
 224:Generated_Source\PSoC6\pdl\middleware/ble/cy_ble_gap.h **** 
 225:Generated_Source\PSoC6\pdl\middleware/ble/cy_ble_gap.h ****     /** Tx Power Level */
 226:Generated_Source\PSoC6\pdl\middleware/ble/cy_ble_gap.h ****     CY_BLE_GAP_ADV_TX_PWR_LVL,
 227:Generated_Source\PSoC6\pdl\middleware/ble/cy_ble_gap.h **** 
 228:Generated_Source\PSoC6\pdl\middleware/ble/cy_ble_gap.h ****     /** Class of Device */
 229:Generated_Source\PSoC6\pdl\middleware/ble/cy_ble_gap.h ****     CY_BLE_GAP_ADV_CLASS_OF_DEVICE = 0x0Du,
 230:Generated_Source\PSoC6\pdl\middleware/ble/cy_ble_gap.h **** 
 231:Generated_Source\PSoC6\pdl\middleware/ble/cy_ble_gap.h ****     /** Simple Pairing Hash C */
 232:Generated_Source\PSoC6\pdl\middleware/ble/cy_ble_gap.h ****     CY_BLE_GAP_ADV_SMPL_PAIR_HASH_C,
 233:Generated_Source\PSoC6\pdl\middleware/ble/cy_ble_gap.h **** 
 234:Generated_Source\PSoC6\pdl\middleware/ble/cy_ble_gap.h ****     /** Simple Pairing Randomizer R */
 235:Generated_Source\PSoC6\pdl\middleware/ble/cy_ble_gap.h ****     CY_BLE_GAP_ADV_SMPL_PAIR_RANDOM_R,
 236:Generated_Source\PSoC6\pdl\middleware/ble/cy_ble_gap.h **** 
 237:Generated_Source\PSoC6\pdl\middleware/ble/cy_ble_gap.h ****     /** Device ID*/
 238:Generated_Source\PSoC6\pdl\middleware/ble/cy_ble_gap.h ****     CY_BLE_GAP_ADV_DEVICE_ID,
 239:Generated_Source\PSoC6\pdl\middleware/ble/cy_ble_gap.h **** 
 240:Generated_Source\PSoC6\pdl\middleware/ble/cy_ble_gap.h ****     /** Security Manager TK Value */
 241:Generated_Source\PSoC6\pdl\middleware/ble/cy_ble_gap.h ****     CY_BLE_GAP_ADV_SCRT_MNGR_TK_VAL = 0x10u,
 242:Generated_Source\PSoC6\pdl\middleware/ble/cy_ble_gap.h **** 
 243:Generated_Source\PSoC6\pdl\middleware/ble/cy_ble_gap.h ****     /** Security Manager Out of Band Flags */
 244:Generated_Source\PSoC6\pdl\middleware/ble/cy_ble_gap.h ****     CY_BLE_GAP_ADV_SCRT_MNGR_OOB_FLAGS,
 245:Generated_Source\PSoC6\pdl\middleware/ble/cy_ble_gap.h **** 
 246:Generated_Source\PSoC6\pdl\middleware/ble/cy_ble_gap.h ****     /** Slave Connection Interval Range */
 247:Generated_Source\PSoC6\pdl\middleware/ble/cy_ble_gap.h ****     CY_BLE_GAP_ADV_SLAVE_CONN_INTRV_RANGE,
 248:Generated_Source\PSoC6\pdl\middleware/ble/cy_ble_gap.h **** 
 249:Generated_Source\PSoC6\pdl\middleware/ble/cy_ble_gap.h ****     /** List of 16-bit Service Solicitation UUIDs */
 250:Generated_Source\PSoC6\pdl\middleware/ble/cy_ble_gap.h ****     CY_BLE_GAP_ADV_SOLICIT_16UUID = 0x14u,
 251:Generated_Source\PSoC6\pdl\middleware/ble/cy_ble_gap.h **** 
 252:Generated_Source\PSoC6\pdl\middleware/ble/cy_ble_gap.h ****     /** List of 128-bit Service Solicitation UUIDs */
 253:Generated_Source\PSoC6\pdl\middleware/ble/cy_ble_gap.h ****     CY_BLE_GAP_ADV_SOLICIT_128UUID,
 254:Generated_Source\PSoC6\pdl\middleware/ble/cy_ble_gap.h **** 
 255:Generated_Source\PSoC6\pdl\middleware/ble/cy_ble_gap.h ****     /** Service Data - 16-bit UUID */
 256:Generated_Source\PSoC6\pdl\middleware/ble/cy_ble_gap.h ****     CY_BLE_GAP_ADV_SRVC_DATA_16UUID,
 257:Generated_Source\PSoC6\pdl\middleware/ble/cy_ble_gap.h **** 
 258:Generated_Source\PSoC6\pdl\middleware/ble/cy_ble_gap.h ****     /** Public Target Address */
 259:Generated_Source\PSoC6\pdl\middleware/ble/cy_ble_gap.h ****     CY_BLE_GAP_ADV_PUBLIC_TARGET_ADDR,
 260:Generated_Source\PSoC6\pdl\middleware/ble/cy_ble_gap.h **** 
 261:Generated_Source\PSoC6\pdl\middleware/ble/cy_ble_gap.h ****     /** Random Target Address */
 262:Generated_Source\PSoC6\pdl\middleware/ble/cy_ble_gap.h ****     CY_BLE_GAP_ADV_RANDOM_TARGET_ADDR,
 263:Generated_Source\PSoC6\pdl\middleware/ble/cy_ble_gap.h **** 
 264:Generated_Source\PSoC6\pdl\middleware/ble/cy_ble_gap.h ****     /** Appearance */
 265:Generated_Source\PSoC6\pdl\middleware/ble/cy_ble_gap.h ****     CY_BLE_GAP_ADV_APPEARANCE,
 266:Generated_Source\PSoC6\pdl\middleware/ble/cy_ble_gap.h **** 
 267:Generated_Source\PSoC6\pdl\middleware/ble/cy_ble_gap.h ****     /** Advertising Interval */
 268:Generated_Source\PSoC6\pdl\middleware/ble/cy_ble_gap.h ****     CY_BLE_GAP_ADV_ADVERT_INTERVAL,
 269:Generated_Source\PSoC6\pdl\middleware/ble/cy_ble_gap.h **** 
 270:Generated_Source\PSoC6\pdl\middleware/ble/cy_ble_gap.h ****     /** LE Bluetooth Device Address */
 271:Generated_Source\PSoC6\pdl\middleware/ble/cy_ble_gap.h ****     CY_BLE_GAP_ADV_LE_BT_DEVICE_ADDR,
 272:Generated_Source\PSoC6\pdl\middleware/ble/cy_ble_gap.h **** 
 273:Generated_Source\PSoC6\pdl\middleware/ble/cy_ble_gap.h ****     /** LE Role */
 274:Generated_Source\PSoC6\pdl\middleware/ble/cy_ble_gap.h ****     CY_BLE_GAP_ADV_LE_ROLE,
 275:Generated_Source\PSoC6\pdl\middleware/ble/cy_ble_gap.h **** 
 276:Generated_Source\PSoC6\pdl\middleware/ble/cy_ble_gap.h ****     /** Simple Pairing Hash C-256 */
 277:Generated_Source\PSoC6\pdl\middleware/ble/cy_ble_gap.h ****     CY_BLE_GAP_ADV_SMPL_PAIR_HASH_C256,
ARM GAS  C:\Users\haske\AppData\Local\Temp\ccWSfRiA.s 			page 77


 278:Generated_Source\PSoC6\pdl\middleware/ble/cy_ble_gap.h **** 
 279:Generated_Source\PSoC6\pdl\middleware/ble/cy_ble_gap.h ****     /** Simple Pairing Randomizer R-256 */
 280:Generated_Source\PSoC6\pdl\middleware/ble/cy_ble_gap.h ****     CY_BLE_GAP_ADV_SMPL_PAIR_RANDOM_R256,
 281:Generated_Source\PSoC6\pdl\middleware/ble/cy_ble_gap.h **** 
 282:Generated_Source\PSoC6\pdl\middleware/ble/cy_ble_gap.h ****     /** List of 32-bit Service Solicitation UUIDs */
 283:Generated_Source\PSoC6\pdl\middleware/ble/cy_ble_gap.h ****     CY_BLE_GAP_ADV_SOLICIT_32UUID,
 284:Generated_Source\PSoC6\pdl\middleware/ble/cy_ble_gap.h **** 
 285:Generated_Source\PSoC6\pdl\middleware/ble/cy_ble_gap.h ****     /** Service Data - 32-bit UUID */
 286:Generated_Source\PSoC6\pdl\middleware/ble/cy_ble_gap.h ****     CY_BLE_GAP_ADV_SRVC_DATA_32UUID,
 287:Generated_Source\PSoC6\pdl\middleware/ble/cy_ble_gap.h **** 
 288:Generated_Source\PSoC6\pdl\middleware/ble/cy_ble_gap.h ****     /** Service Data - 128-bit UUID */
 289:Generated_Source\PSoC6\pdl\middleware/ble/cy_ble_gap.h ****     CY_BLE_GAP_ADV_SRVC_DATA_128UUID,
 290:Generated_Source\PSoC6\pdl\middleware/ble/cy_ble_gap.h **** 
 291:Generated_Source\PSoC6\pdl\middleware/ble/cy_ble_gap.h ****     /** 3D Information Data */
 292:Generated_Source\PSoC6\pdl\middleware/ble/cy_ble_gap.h ****     CY_BLE_GAP_ADV_3D_INFO_DATA = 0x3D,
 293:Generated_Source\PSoC6\pdl\middleware/ble/cy_ble_gap.h **** 
 294:Generated_Source\PSoC6\pdl\middleware/ble/cy_ble_gap.h ****     /** Manufacturer Specific Data */
 295:Generated_Source\PSoC6\pdl\middleware/ble/cy_ble_gap.h ****     CY_BLE_GAP_ADV_MANUFACTURER_SPECIFIC_DATA = 0xFF
 296:Generated_Source\PSoC6\pdl\middleware/ble/cy_ble_gap.h **** }cy_en_ble_gap_adv_assign_numbers_t;
 297:Generated_Source\PSoC6\pdl\middleware/ble/cy_ble_gap.h **** 
 298:Generated_Source\PSoC6\pdl\middleware/ble/cy_ble_gap.h **** /** GAPP advertising configuration parameters structure */
 299:Generated_Source\PSoC6\pdl\middleware/ble/cy_ble_gap.h **** typedef struct
 300:Generated_Source\PSoC6\pdl\middleware/ble/cy_ble_gap.h **** {
 301:Generated_Source\PSoC6\pdl\middleware/ble/cy_ble_gap.h ****     /** The minimum interval for fast advertising the data and establishing the LE Connection */
 302:Generated_Source\PSoC6\pdl\middleware/ble/cy_ble_gap.h ****     uint16_t fastAdvIntervalMin;
 303:Generated_Source\PSoC6\pdl\middleware/ble/cy_ble_gap.h **** 
 304:Generated_Source\PSoC6\pdl\middleware/ble/cy_ble_gap.h ****     /** The maximum interval for fast advertising the data and establishing the LE Connection */
 305:Generated_Source\PSoC6\pdl\middleware/ble/cy_ble_gap.h ****     uint16_t fastAdvIntervalMax;
 306:Generated_Source\PSoC6\pdl\middleware/ble/cy_ble_gap.h **** 
 307:Generated_Source\PSoC6\pdl\middleware/ble/cy_ble_gap.h ****     /** The timeout value of  fast advertising with fast advertising interval parameters */
 308:Generated_Source\PSoC6\pdl\middleware/ble/cy_ble_gap.h ****     uint16_t fastAdvTimeOut;
 309:Generated_Source\PSoC6\pdl\middleware/ble/cy_ble_gap.h **** 
 310:Generated_Source\PSoC6\pdl\middleware/ble/cy_ble_gap.h ****     /** Slow advertising enable */
 311:Generated_Source\PSoC6\pdl\middleware/ble/cy_ble_gap.h ****     uint8_t  slowAdvEnable;
 312:Generated_Source\PSoC6\pdl\middleware/ble/cy_ble_gap.h **** 
 313:Generated_Source\PSoC6\pdl\middleware/ble/cy_ble_gap.h ****     /** The minimum interval for slow advertising the data and establishing the LE Connection */
 314:Generated_Source\PSoC6\pdl\middleware/ble/cy_ble_gap.h ****     uint16_t slowAdvIntervalMin;
 315:Generated_Source\PSoC6\pdl\middleware/ble/cy_ble_gap.h **** 
 316:Generated_Source\PSoC6\pdl\middleware/ble/cy_ble_gap.h ****     /** The maximum interval for slow  advertising the data and establishing the LE Connection */
 317:Generated_Source\PSoC6\pdl\middleware/ble/cy_ble_gap.h ****     uint16_t slowAdvIntervalMax;
 318:Generated_Source\PSoC6\pdl\middleware/ble/cy_ble_gap.h **** 
 319:Generated_Source\PSoC6\pdl\middleware/ble/cy_ble_gap.h ****     /** The timeout value of slow advertising with slow advertising interval parameters */
 320:Generated_Source\PSoC6\pdl\middleware/ble/cy_ble_gap.h ****     uint16_t slowAdvTimeOut;
 321:Generated_Source\PSoC6\pdl\middleware/ble/cy_ble_gap.h **** }cy_stc_ble_gapp_adv_params_t;
 322:Generated_Source\PSoC6\pdl\middleware/ble/cy_ble_gap.h **** 
 323:Generated_Source\PSoC6\pdl\middleware/ble/cy_ble_gap.h **** /** GAPC advertising configuration parameters structure */
 324:Generated_Source\PSoC6\pdl\middleware/ble/cy_ble_gap.h **** typedef struct
 325:Generated_Source\PSoC6\pdl\middleware/ble/cy_ble_gap.h **** {
 326:Generated_Source\PSoC6\pdl\middleware/ble/cy_ble_gap.h ****     /** The scan interval when operating in Fast connection */
 327:Generated_Source\PSoC6\pdl\middleware/ble/cy_ble_gap.h ****     uint16_t fastScanInterval;
 328:Generated_Source\PSoC6\pdl\middleware/ble/cy_ble_gap.h **** 
 329:Generated_Source\PSoC6\pdl\middleware/ble/cy_ble_gap.h ****     /** Defines the scan window when operating in Fast connection */
 330:Generated_Source\PSoC6\pdl\middleware/ble/cy_ble_gap.h ****     uint16_t fastScanWindow;
 331:Generated_Source\PSoC6\pdl\middleware/ble/cy_ble_gap.h **** 
 332:Generated_Source\PSoC6\pdl\middleware/ble/cy_ble_gap.h ****     /** The timeout value of scanning with fast scan parameters */
 333:Generated_Source\PSoC6\pdl\middleware/ble/cy_ble_gap.h ****     uint16_t fastScanTimeOut;
 334:Generated_Source\PSoC6\pdl\middleware/ble/cy_ble_gap.h **** 
ARM GAS  C:\Users\haske\AppData\Local\Temp\ccWSfRiA.s 			page 78


 335:Generated_Source\PSoC6\pdl\middleware/ble/cy_ble_gap.h ****     /** Slow scan enable/disable */
 336:Generated_Source\PSoC6\pdl\middleware/ble/cy_ble_gap.h ****     uint8_t  slowScanEnabled;
 337:Generated_Source\PSoC6\pdl\middleware/ble/cy_ble_gap.h **** 
 338:Generated_Source\PSoC6\pdl\middleware/ble/cy_ble_gap.h ****     /** The scan interval when operating in Slow connection */
 339:Generated_Source\PSoC6\pdl\middleware/ble/cy_ble_gap.h ****     uint16_t slowScanInterval;
 340:Generated_Source\PSoC6\pdl\middleware/ble/cy_ble_gap.h **** 
 341:Generated_Source\PSoC6\pdl\middleware/ble/cy_ble_gap.h ****     /** Defines the scan window when operating in Slow connection */
 342:Generated_Source\PSoC6\pdl\middleware/ble/cy_ble_gap.h ****     uint16_t slowScanWindow;
 343:Generated_Source\PSoC6\pdl\middleware/ble/cy_ble_gap.h **** 
 344:Generated_Source\PSoC6\pdl\middleware/ble/cy_ble_gap.h ****     /** The timeout value of scanning with Slow scan parameters */
 345:Generated_Source\PSoC6\pdl\middleware/ble/cy_ble_gap.h ****     uint16_t slowScanTimeOut;
 346:Generated_Source\PSoC6\pdl\middleware/ble/cy_ble_gap.h **** 
 347:Generated_Source\PSoC6\pdl\middleware/ble/cy_ble_gap.h ****     /** The minimum permissible connection time value to be used during a connection event */
 348:Generated_Source\PSoC6\pdl\middleware/ble/cy_ble_gap.h ****     uint16_t gapcConnectionIntervalMin;
 349:Generated_Source\PSoC6\pdl\middleware/ble/cy_ble_gap.h **** 
 350:Generated_Source\PSoC6\pdl\middleware/ble/cy_ble_gap.h ****     /** The maximum permissible connection time value to be used during a connection event */
 351:Generated_Source\PSoC6\pdl\middleware/ble/cy_ble_gap.h ****     uint16_t gapcConnectionIntervalMax;
 352:Generated_Source\PSoC6\pdl\middleware/ble/cy_ble_gap.h **** 
 353:Generated_Source\PSoC6\pdl\middleware/ble/cy_ble_gap.h ****     /** Defines the maximum time between two received Data Packet PDUs before
 354:Generated_Source\PSoC6\pdl\middleware/ble/cy_ble_gap.h ****      *  the connection is considered lost */
 355:Generated_Source\PSoC6\pdl\middleware/ble/cy_ble_gap.h ****     uint16_t gapcConnectionSlaveLatency;
 356:Generated_Source\PSoC6\pdl\middleware/ble/cy_ble_gap.h **** 
 357:Generated_Source\PSoC6\pdl\middleware/ble/cy_ble_gap.h ****     /** Defines the LE link supervision timeout interval */
 358:Generated_Source\PSoC6\pdl\middleware/ble/cy_ble_gap.h ****     uint16_t gapcConnectionTimeOut;
 359:Generated_Source\PSoC6\pdl\middleware/ble/cy_ble_gap.h **** }cy_stc_ble_gapc_scan_params_t;
 360:Generated_Source\PSoC6\pdl\middleware/ble/cy_ble_gap.h **** 
 361:Generated_Source\PSoC6\pdl\middleware/ble/cy_ble_gap.h **** /** Store BLE Application Data parameter into flash */
 362:Generated_Source\PSoC6\pdl\middleware/ble/cy_ble_gap.h **** typedef struct
 363:Generated_Source\PSoC6\pdl\middleware/ble/cy_ble_gap.h **** {
 364:Generated_Source\PSoC6\pdl\middleware/ble/cy_ble_gap.h ****     /** Source buffer */
 365:Generated_Source\PSoC6\pdl\middleware/ble/cy_ble_gap.h ****     const uint8_t *srcBuff;
 366:Generated_Source\PSoC6\pdl\middleware/ble/cy_ble_gap.h **** 
 367:Generated_Source\PSoC6\pdl\middleware/ble/cy_ble_gap.h ****     /** Destination buffer */
 368:Generated_Source\PSoC6\pdl\middleware/ble/cy_ble_gap.h ****     const uint8_t *destAddr;
 369:Generated_Source\PSoC6\pdl\middleware/ble/cy_ble_gap.h **** 
 370:Generated_Source\PSoC6\pdl\middleware/ble/cy_ble_gap.h ****     /** Source buffer length */
 371:Generated_Source\PSoC6\pdl\middleware/ble/cy_ble_gap.h ****     uint32_t      buffLen;
 372:Generated_Source\PSoC6\pdl\middleware/ble/cy_ble_gap.h **** 
 373:Generated_Source\PSoC6\pdl\middleware/ble/cy_ble_gap.h ****     /** Write mode: blocking (default) / non-blocking */
 374:Generated_Source\PSoC6\pdl\middleware/ble/cy_ble_gap.h ****     uint32_t      writeMode;
 375:Generated_Source\PSoC6\pdl\middleware/ble/cy_ble_gap.h **** 
 376:Generated_Source\PSoC6\pdl\middleware/ble/cy_ble_gap.h **** } cy_stc_ble_app_flash_param_t;
 377:Generated_Source\PSoC6\pdl\middleware/ble/cy_ble_gap.h **** 
 378:Generated_Source\PSoC6\pdl\middleware/ble/cy_ble_gap.h **** /** @} group_ble_common_api_gap_definitions */
 379:Generated_Source\PSoC6\pdl\middleware/ble/cy_ble_gap.h **** 
 380:Generated_Source\PSoC6\pdl\middleware/ble/cy_ble_gap.h **** /***************************************
 381:Generated_Source\PSoC6\pdl\middleware/ble/cy_ble_gap.h **** * API Constants
 382:Generated_Source\PSoC6\pdl\middleware/ble/cy_ble_gap.h **** ***************************************/
 383:Generated_Source\PSoC6\pdl\middleware/ble/cy_ble_gap.h **** #define CY_BLE_AD_TYPE_MORE16UUID                  (0x02u)
 384:Generated_Source\PSoC6\pdl\middleware/ble/cy_ble_gap.h **** #define CY_BLE_AD_TYPE_CMPL16UUID                  (0x03u)
 385:Generated_Source\PSoC6\pdl\middleware/ble/cy_ble_gap.h **** #define CY_BLE_AD_TYPE_MORE32UUID                  (0x04u)
 386:Generated_Source\PSoC6\pdl\middleware/ble/cy_ble_gap.h **** #define CY_BLE_AD_TYPE_CMPL32UUID                  (0x05u)
 387:Generated_Source\PSoC6\pdl\middleware/ble/cy_ble_gap.h **** #define CY_BLE_AD_TYPE_MORE128UUID                 (0x06u)
 388:Generated_Source\PSoC6\pdl\middleware/ble/cy_ble_gap.h **** #define CY_BLE_AD_TYPE_CMPL128UUID                 (0x07u)
 389:Generated_Source\PSoC6\pdl\middleware/ble/cy_ble_gap.h **** 
 390:Generated_Source\PSoC6\pdl\middleware/ble/cy_ble_gap.h **** #define CY_BLE_AD_TYPE_SERVICE_DATA                (0x16u)
 391:Generated_Source\PSoC6\pdl\middleware/ble/cy_ble_gap.h **** #define CY_BLE_AD_SERVICE_DATA_OVERHEAD            (0x03u)
ARM GAS  C:\Users\haske\AppData\Local\Temp\ccWSfRiA.s 			page 79


 392:Generated_Source\PSoC6\pdl\middleware/ble/cy_ble_gap.h **** 
 393:Generated_Source\PSoC6\pdl\middleware/ble/cy_ble_gap.h **** #define CY_BLE_DISCOVERY_IDLE                      (0x00u)
 394:Generated_Source\PSoC6\pdl\middleware/ble/cy_ble_gap.h **** #define CY_BLE_DISCOVERY_SERVICE                   (0x01u)
 395:Generated_Source\PSoC6\pdl\middleware/ble/cy_ble_gap.h **** #define CY_BLE_DISCOVERY_CHAR                      (0x02u)
 396:Generated_Source\PSoC6\pdl\middleware/ble/cy_ble_gap.h **** #define CY_BLE_DISCOVERY_DESCR                     (0x03u)
 397:Generated_Source\PSoC6\pdl\middleware/ble/cy_ble_gap.h **** #define CY_BLE_DISCOVERY_DONE                      (0x04u)
 398:Generated_Source\PSoC6\pdl\middleware/ble/cy_ble_gap.h **** 
 399:Generated_Source\PSoC6\pdl\middleware/ble/cy_ble_gap.h **** /* Cy_BLE_NextCharDscrDiscovery parameters */
 400:Generated_Source\PSoC6\pdl\middleware/ble/cy_ble_gap.h **** #define CY_BLE_DISCOVERY_INIT                      (0x00u)
 401:Generated_Source\PSoC6\pdl\middleware/ble/cy_ble_gap.h **** #define CY_BLE_DISCOVERY_CONTINUE                  (0x01u)
 402:Generated_Source\PSoC6\pdl\middleware/ble/cy_ble_gap.h **** 
 403:Generated_Source\PSoC6\pdl\middleware/ble/cy_ble_gap.h **** #define CY_BLE_SFLASH_DIE_X_MASK                   (0x3Fu)
 404:Generated_Source\PSoC6\pdl\middleware/ble/cy_ble_gap.h **** #define CY_BLE_SFLASH_DIE_X_BITS                   (6u)
 405:Generated_Source\PSoC6\pdl\middleware/ble/cy_ble_gap.h **** #define CY_BLE_SFLASH_DIE_Y_MASK                   (0x3Fu)
 406:Generated_Source\PSoC6\pdl\middleware/ble/cy_ble_gap.h **** #define CY_BLE_SFLASH_DIE_Y_BITS                   (6u)
 407:Generated_Source\PSoC6\pdl\middleware/ble/cy_ble_gap.h **** #define CY_BLE_SFLASH_DIE_XY_BITS                  (CY_BLE_SFLASH_DIE_X_BITS + CY_BLE_SFLASH_DIE_Y_
 408:Generated_Source\PSoC6\pdl\middleware/ble/cy_ble_gap.h **** #define CY_BLE_SFLASH_DIE_WAFER_MASK               (0x1Fu)
 409:Generated_Source\PSoC6\pdl\middleware/ble/cy_ble_gap.h **** #define CY_BLE_SFLASH_DIE_WAFER_BITS               (5u)
 410:Generated_Source\PSoC6\pdl\middleware/ble/cy_ble_gap.h **** #define CY_BLE_SFLASH_DIE_XYWAFER_BITS             (CY_BLE_SFLASH_DIE_XY_BITS + CY_BLE_SFLASH_DIE_W
 411:Generated_Source\PSoC6\pdl\middleware/ble/cy_ble_gap.h **** #define CY_BLE_SFLASH_DIE_LOT_MASK                 (0x7Fu)
 412:Generated_Source\PSoC6\pdl\middleware/ble/cy_ble_gap.h **** #define CY_BLE_SFLASH_DIE_LOT_BITS                 (7u)
 413:Generated_Source\PSoC6\pdl\middleware/ble/cy_ble_gap.h **** 
 414:Generated_Source\PSoC6\pdl\middleware/ble/cy_ble_gap.h **** /* Device address stored by user in ROW4 of the SFLASH */
 415:Generated_Source\PSoC6\pdl\middleware/ble/cy_ble_gap.h **** #define CY_BLE_SFLASH_DEVICE_ADDRESS_PTR           ((cy_stc_ble_gap_bd_addr_t*)(SFLASH->BLE_DEVICE_
 416:Generated_Source\PSoC6\pdl\middleware/ble/cy_ble_gap.h **** #define CY_BLE_AD_STRUCTURE_MAX_LENGTH             (31u)
 417:Generated_Source\PSoC6\pdl\middleware/ble/cy_ble_gap.h **** 
 418:Generated_Source\PSoC6\pdl\middleware/ble/cy_ble_gap.h **** /* AD types for complete, shortened local name and device address */
 419:Generated_Source\PSoC6\pdl\middleware/ble/cy_ble_gap.h **** #define CY_BLE_SHORT_LOCAL_NAME                    (0x08u)  /**< Shortened Local Name */
 420:Generated_Source\PSoC6\pdl\middleware/ble/cy_ble_gap.h **** #define CY_BLE_COMPLETE_LOCAL_NAME                 (0x09u)  /**< Complete Local Name */
 421:Generated_Source\PSoC6\pdl\middleware/ble/cy_ble_gap.h **** #define CY_BLE_ADV_DEVICE_ADDR                     (0x1Bu)  /**< LE Bluetooth Device Address */
 422:Generated_Source\PSoC6\pdl\middleware/ble/cy_ble_gap.h **** 
 423:Generated_Source\PSoC6\pdl\middleware/ble/cy_ble_gap.h **** #define CY_BLE_ADVERTISING_FAST                    (0x00u)
 424:Generated_Source\PSoC6\pdl\middleware/ble/cy_ble_gap.h **** #define CY_BLE_ADVERTISING_SLOW                    (0x01u)
 425:Generated_Source\PSoC6\pdl\middleware/ble/cy_ble_gap.h **** #define CY_BLE_ADVERTISING_CUSTOM                  (0x02u)
 426:Generated_Source\PSoC6\pdl\middleware/ble/cy_ble_gap.h **** 
 427:Generated_Source\PSoC6\pdl\middleware/ble/cy_ble_gap.h **** #define CY_BLE_SCANNING_FAST                       (0x00u)
 428:Generated_Source\PSoC6\pdl\middleware/ble/cy_ble_gap.h **** #define CY_BLE_SCANNING_SLOW                       (0x01u)
 429:Generated_Source\PSoC6\pdl\middleware/ble/cy_ble_gap.h **** #define CY_BLE_SCANNING_CUSTOM                     (0x02u)
 430:Generated_Source\PSoC6\pdl\middleware/ble/cy_ble_gap.h **** 
 431:Generated_Source\PSoC6\pdl\middleware/ble/cy_ble_gap.h **** #define CY_BLE_PENDING_STACK_FLASH_WRITE_BIT       (0x01u)
 432:Generated_Source\PSoC6\pdl\middleware/ble/cy_ble_gap.h **** #define CY_BLE_PENDING_CCCD_FLASH_WRITE_BIT        (0x02u)
 433:Generated_Source\PSoC6\pdl\middleware/ble/cy_ble_gap.h **** #define CY_BLE_PENDING_CCCD_FLASH_CLEAR_BIT        (0x04u)
 434:Generated_Source\PSoC6\pdl\middleware/ble/cy_ble_gap.h **** #define CY_BLE_PENDING_CCCD_FLASH_CLEAR_ALL_BIT    (0x08u)
 435:Generated_Source\PSoC6\pdl\middleware/ble/cy_ble_gap.h **** #define CY_BLE_PENDING_CCCD_FLASH_CLEAR_MASK \
 436:Generated_Source\PSoC6\pdl\middleware/ble/cy_ble_gap.h ****     (CY_BLE_PENDING_CCCD_FLASH_CLEAR_BIT | CY_BLE_PENDING_CCCD_FLASH_CLEAR_ALL_BIT)
 437:Generated_Source\PSoC6\pdl\middleware/ble/cy_ble_gap.h **** 
 438:Generated_Source\PSoC6\pdl\middleware/ble/cy_ble_gap.h **** /**
 439:Generated_Source\PSoC6\pdl\middleware/ble/cy_ble_gap.h ****  * \addtogroup group_ble_common_api_macros
 440:Generated_Source\PSoC6\pdl\middleware/ble/cy_ble_gap.h ****  * @{
 441:Generated_Source\PSoC6\pdl\middleware/ble/cy_ble_gap.h ****  */
 442:Generated_Source\PSoC6\pdl\middleware/ble/cy_ble_gap.h **** 
 443:Generated_Source\PSoC6\pdl\middleware/ble/cy_ble_gap.h **** /* GAP Advertisement Flags */
 444:Generated_Source\PSoC6\pdl\middleware/ble/cy_ble_gap.h **** #define CY_BLE_GAP_ADV_FLAG_LE_LIMITED_DISC_MODE        (0x01u)     /**< LE Limited Discoverable Mo
 445:Generated_Source\PSoC6\pdl\middleware/ble/cy_ble_gap.h **** #define CY_BLE_GAP_ADV_FLAG_LE_GENERAL_DISC_MODE        (0x02u)     /**< LE General Discoverable Mo
 446:Generated_Source\PSoC6\pdl\middleware/ble/cy_ble_gap.h **** #define CY_BLE_GAP_ADV_FLAG_BR_EDR_NOT_SUPPORTED        (0x04u)     /**< BR/EDR not supported. */
 447:Generated_Source\PSoC6\pdl\middleware/ble/cy_ble_gap.h **** #define CY_BLE_GAP_ADV_FLAG_LE_BR_EDR_CONTROLLER        (0x08u)     /**< Simultaneous LE and BR/EDR
 448:Generated_Source\PSoC6\pdl\middleware/ble/cy_ble_gap.h **** #define CY_BLE_GAP_ADV_FLAG_LE_BR_EDR_HOST              (0x10u)     /**< Simultaneous LE and BR/EDR
ARM GAS  C:\Users\haske\AppData\Local\Temp\ccWSfRiA.s 			page 80


 449:Generated_Source\PSoC6\pdl\middleware/ble/cy_ble_gap.h **** #define CY_BLE_GAP_ADV_FLAGS_PACKET_LENGTH              (0x02u)     /**< Length of flags in an adve
 450:Generated_Source\PSoC6\pdl\middleware/ble/cy_ble_gap.h **** 
 451:Generated_Source\PSoC6\pdl\middleware/ble/cy_ble_gap.h **** /* GAP Advertising interval min and max */
 452:Generated_Source\PSoC6\pdl\middleware/ble/cy_ble_gap.h **** #define CY_BLE_GAP_ADV_ADVERT_INTERVAL_MIN              (0x0020u)   /**< Minimum Advertising interv
 453:Generated_Source\PSoC6\pdl\middleware/ble/cy_ble_gap.h ****                                                                      *   i.e. 20 ms. */
 454:Generated_Source\PSoC6\pdl\middleware/ble/cy_ble_gap.h **** #define CY_BLE_GAP_ADV_ADVERT_INTERVAL_NONCON_MIN       (0x00A0u)   /**< Minimum Advertising interv
 455:Generated_Source\PSoC6\pdl\middleware/ble/cy_ble_gap.h ****                                                                      *   for non connectable mode, 
 456:Generated_Source\PSoC6\pdl\middleware/ble/cy_ble_gap.h **** #define CY_BLE_GAP_ADV_ADVERT_INTERVAL_MAX              (0x4000u)   /**< Maximum Advertising interv
 457:Generated_Source\PSoC6\pdl\middleware/ble/cy_ble_gap.h ****                                                                      *   i.e. 10.24 s. */
 458:Generated_Source\PSoC6\pdl\middleware/ble/cy_ble_gap.h **** #define CY_BLE_GAP_ADV_ADVERT_INTERVAL_PACKET_LENGTH    (0x03u)     /**< Length of the Advertising 
 459:Generated_Source\PSoC6\pdl\middleware/ble/cy_ble_gap.h ****                                                                      *   an advertisement packet */
 460:Generated_Source\PSoC6\pdl\middleware/ble/cy_ble_gap.h **** #define CY_BLE_GAPC_CONNECTING_TIMEOUT                  (30u)       /**< Seconds */
 461:Generated_Source\PSoC6\pdl\middleware/ble/cy_ble_gap.h **** #define CY_BLE_INVALID_CONN_HANDLE_VALUE                (0xFFu)     /**< Invalid Connection Handle 
 462:Generated_Source\PSoC6\pdl\middleware/ble/cy_ble_gap.h **** 
 463:Generated_Source\PSoC6\pdl\middleware/ble/cy_ble_gap.h **** /* Write mode for Cy_BLE_StoreAppData */
 464:Generated_Source\PSoC6\pdl\middleware/ble/cy_ble_gap.h **** #define CY_BLE_STORE_DATA_MODE_BLOCKING                 (0x0u)      /**< Blocking write */
 465:Generated_Source\PSoC6\pdl\middleware/ble/cy_ble_gap.h **** #define CY_BLE_STORE_DATA_MODE_NON_BLOCKING             (0x1u)      /**< Non-blocking write */
 466:Generated_Source\PSoC6\pdl\middleware/ble/cy_ble_gap.h **** 
 467:Generated_Source\PSoC6\pdl\middleware/ble/cy_ble_gap.h **** /** @} group_ble_common_api_macros */
 468:Generated_Source\PSoC6\pdl\middleware/ble/cy_ble_gap.h **** 
 469:Generated_Source\PSoC6\pdl\middleware/ble/cy_ble_gap.h **** /***************************************
 470:Generated_Source\PSoC6\pdl\middleware/ble/cy_ble_gap.h **** * Private Function Prototypes
 471:Generated_Source\PSoC6\pdl\middleware/ble/cy_ble_gap.h **** ***************************************/
 472:Generated_Source\PSoC6\pdl\middleware/ble/cy_ble_gap.h **** void Cy_BLE_ServiceInit(void);
 473:Generated_Source\PSoC6\pdl\middleware/ble/cy_ble_gap.h **** uint32_t Cy_BLE_GetDiscoveryIdx(cy_stc_ble_conn_handle_t connHandle);
 474:Generated_Source\PSoC6\pdl\middleware/ble/cy_ble_gap.h **** 
 475:Generated_Source\PSoC6\pdl\middleware/ble/cy_ble_gap.h **** /***************************************
 476:Generated_Source\PSoC6\pdl\middleware/ble/cy_ble_gap.h **** * Function Prototypes
 477:Generated_Source\PSoC6\pdl\middleware/ble/cy_ble_gap.h **** ***************************************/
 478:Generated_Source\PSoC6\pdl\middleware/ble/cy_ble_gap.h **** /**
 479:Generated_Source\PSoC6\pdl\middleware/ble/cy_ble_gap.h ****  * \addtogroup group_ble_common_api_functions
 480:Generated_Source\PSoC6\pdl\middleware/ble/cy_ble_gap.h ****  * @{
 481:Generated_Source\PSoC6\pdl\middleware/ble/cy_ble_gap.h ****  */
 482:Generated_Source\PSoC6\pdl\middleware/ble/cy_ble_gap.h **** 
 483:Generated_Source\PSoC6\pdl\middleware/ble/cy_ble_gap.h **** cy_en_ble_api_result_t Cy_BLE_StoreAppData(const cy_stc_ble_app_flash_param_t *param);
 484:Generated_Source\PSoC6\pdl\middleware/ble/cy_ble_gap.h **** 
 485:Generated_Source\PSoC6\pdl\middleware/ble/cy_ble_gap.h **** #if ((CY_BLE_GAP_ROLE_PERIPHERAL || CY_BLE_GAP_ROLE_CENTRAL) && (CY_BLE_BONDING_REQUIREMENT == CY_B
 486:Generated_Source\PSoC6\pdl\middleware/ble/cy_ble_gap.h **** cy_en_ble_api_result_t Cy_BLE_StoreBondingData(void);
 487:Generated_Source\PSoC6\pdl\middleware/ble/cy_ble_gap.h **** cy_en_ble_api_result_t Cy_BLE_GAP_RemoveBondedDevice(cy_stc_ble_gap_bd_addr_t* bdAddr);
 488:Generated_Source\PSoC6\pdl\middleware/ble/cy_ble_gap.h **** #endif /* (CY_BLE_GAP_ROLE_PERIPHERAL || CY_BLE_GAP_ROLE_CENTRAL) && (CY_BLE_BONDING_REQUIREMENT ==
 489:Generated_Source\PSoC6\pdl\middleware/ble/cy_ble_gap.h **** 
 490:Generated_Source\PSoC6\pdl\middleware/ble/cy_ble_gap.h **** #if (CY_BLE_GAP_ROLE_PERIPHERAL || CY_BLE_GAP_ROLE_CENTRAL)
 491:Generated_Source\PSoC6\pdl\middleware/ble/cy_ble_gap.h **** bool Cy_BLE_IsPeerConnected(uint8_t *bdAddr);
 492:Generated_Source\PSoC6\pdl\middleware/ble/cy_ble_gap.h **** bool Cy_BLE_IsDevicePaired(cy_stc_ble_conn_handle_t *connHandle);
 493:Generated_Source\PSoC6\pdl\middleware/ble/cy_ble_gap.h **** uint8_t Cy_BLE_GetDeviceRole(cy_stc_ble_conn_handle_t *connHandle);
 494:Generated_Source\PSoC6\pdl\middleware/ble/cy_ble_gap.h **** 
 495:Generated_Source\PSoC6\pdl\middleware/ble/cy_ble_gap.h **** cy_en_ble_api_result_t Cy_BLE_GetRssiPeer(uint8_t  bdHandle);
 496:Generated_Source\PSoC6\pdl\middleware/ble/cy_ble_gap.h **** #endif /* (CY_BLE_GAP_ROLE_PERIPHERAL || CY_BLE_GAP_ROLE_CENTRAL) */
 497:Generated_Source\PSoC6\pdl\middleware/ble/cy_ble_gap.h **** /** @} group_ble_common_api_functions */
 498:Generated_Source\PSoC6\pdl\middleware/ble/cy_ble_gap.h **** 
 499:Generated_Source\PSoC6\pdl\middleware/ble/cy_ble_gap.h **** /**
 500:Generated_Source\PSoC6\pdl\middleware/ble/cy_ble_gap.h ****  * \addtogroup group_ble_common_api_gap_peripheral_functions
 501:Generated_Source\PSoC6\pdl\middleware/ble/cy_ble_gap.h ****  * @{
 502:Generated_Source\PSoC6\pdl\middleware/ble/cy_ble_gap.h ****  */
 503:Generated_Source\PSoC6\pdl\middleware/ble/cy_ble_gap.h **** 
 504:Generated_Source\PSoC6\pdl\middleware/ble/cy_ble_gap.h **** #if (CY_BLE_GAP_ROLE_PERIPHERAL || CY_BLE_GAP_ROLE_BROADCASTER)
 505:Generated_Source\PSoC6\pdl\middleware/ble/cy_ble_gap.h **** cy_en_ble_api_result_t Cy_BLE_GAPP_StartAdvertisement(uint8_t advertisingIntervalType, uint8_t adve
ARM GAS  C:\Users\haske\AppData\Local\Temp\ccWSfRiA.s 			page 81


 506:Generated_Source\PSoC6\pdl\middleware/ble/cy_ble_gap.h **** cy_en_ble_api_result_t Cy_BLE_GAPP_StopAdvertisement(void);
 507:Generated_Source\PSoC6\pdl\middleware/ble/cy_ble_gap.h **** 
 508:Generated_Source\PSoC6\pdl\middleware/ble/cy_ble_gap.h **** /** \cond IGNORE */
 509:Generated_Source\PSoC6\pdl\middleware/ble/cy_ble_gap.h **** void Cy_BLE_ChangeAdDeviceAddress(const cy_stc_ble_gap_bd_addr_t* bdAddr, uint8_t dest);
 510:Generated_Source\PSoC6\pdl\middleware/ble/cy_ble_gap.h **** /** \endcond */
 511:Generated_Source\PSoC6\pdl\middleware/ble/cy_ble_gap.h **** 
 512:Generated_Source\PSoC6\pdl\middleware/ble/cy_ble_gap.h **** #endif /* CY_BLE_GAP_ROLE_PERIPHERAL */
 513:Generated_Source\PSoC6\pdl\middleware/ble/cy_ble_gap.h **** 
 514:Generated_Source\PSoC6\pdl\middleware/ble/cy_ble_gap.h **** /** @} group_ble_common_api_gap_peripheral_functions */
 515:Generated_Source\PSoC6\pdl\middleware/ble/cy_ble_gap.h **** 
 516:Generated_Source\PSoC6\pdl\middleware/ble/cy_ble_gap.h **** /**
 517:Generated_Source\PSoC6\pdl\middleware/ble/cy_ble_gap.h ****  * \addtogroup group_ble_common_api_gap_central_functions
 518:Generated_Source\PSoC6\pdl\middleware/ble/cy_ble_gap.h ****  * @{
 519:Generated_Source\PSoC6\pdl\middleware/ble/cy_ble_gap.h ****  */
 520:Generated_Source\PSoC6\pdl\middleware/ble/cy_ble_gap.h **** 
 521:Generated_Source\PSoC6\pdl\middleware/ble/cy_ble_gap.h **** #if (CY_BLE_GAP_ROLE_CENTRAL || CY_BLE_GAP_ROLE_OBSERVER)
 522:Generated_Source\PSoC6\pdl\middleware/ble/cy_ble_gap.h **** cy_en_ble_api_result_t Cy_BLE_GAPC_StartScan(uint8_t scanningIntervalType, uint8_t scanParamIndex);
 523:Generated_Source\PSoC6\pdl\middleware/ble/cy_ble_gap.h **** cy_en_ble_api_result_t Cy_BLE_GAPC_StopScan(void);
 524:Generated_Source\PSoC6\pdl\middleware/ble/cy_ble_gap.h **** #endif /* CY_BLE_GAP_ROLE_CENTRAL || CY_BLE_GAP_ROLE_OBSERVER */
 525:Generated_Source\PSoC6\pdl\middleware/ble/cy_ble_gap.h **** 
 526:Generated_Source\PSoC6\pdl\middleware/ble/cy_ble_gap.h **** #if (CY_BLE_GAP_ROLE_CENTRAL)
 527:Generated_Source\PSoC6\pdl\middleware/ble/cy_ble_gap.h **** cy_en_ble_api_result_t Cy_BLE_GAPC_ConnectDevice(const cy_stc_ble_gap_bd_addr_t * address, uint8_t 
 528:Generated_Source\PSoC6\pdl\middleware/ble/cy_ble_gap.h **** cy_en_ble_api_result_t Cy_BLE_GAPC_CancelDeviceConnection(void);
 529:Generated_Source\PSoC6\pdl\middleware/ble/cy_ble_gap.h **** #endif /* CY_BLE_GAP_ROLE_CENTRAL */
 530:Generated_Source\PSoC6\pdl\middleware/ble/cy_ble_gap.h **** 
 531:Generated_Source\PSoC6\pdl\middleware/ble/cy_ble_gap.h **** /** @} group_ble_common_api_gap_central_functions */
 532:Generated_Source\PSoC6\pdl\middleware/ble/cy_ble_gap.h **** 
 533:Generated_Source\PSoC6\pdl\middleware/ble/cy_ble_gap.h **** /***************************************
 534:Generated_Source\PSoC6\pdl\middleware/ble/cy_ble_gap.h **** * External data references
 535:Generated_Source\PSoC6\pdl\middleware/ble/cy_ble_gap.h **** ***************************************/
 536:Generated_Source\PSoC6\pdl\middleware/ble/cy_ble_gap.h **** extern volatile uint8_t cy_ble_eventHandlerFlag;
 537:Generated_Source\PSoC6\pdl\middleware/ble/cy_ble_gap.h **** extern cy_stc_ble_gap_bd_addr_t *cy_ble_sflashDeviceAddress;
 538:Generated_Source\PSoC6\pdl\middleware/ble/cy_ble_gap.h **** extern cy_stc_ble_gap_bd_addr_t cy_ble_deviceAddress;
 539:Generated_Source\PSoC6\pdl\middleware/ble/cy_ble_gap.h **** extern cy_en_ble_state_t cy_ble_state;
 540:Generated_Source\PSoC6\pdl\middleware/ble/cy_ble_gap.h **** 
 541:Generated_Source\PSoC6\pdl\middleware/ble/cy_ble_gap.h **** #if ((CY_BLE_GAP_ROLE_PERIPHERAL || CY_BLE_GAP_ROLE_CENTRAL))
 542:Generated_Source\PSoC6\pdl\middleware/ble/cy_ble_gap.h **** extern cy_stc_ble_gap_auth_info_t cy_ble_authInfo[CY_BLE_AUTH_INFO_COUNT];
 543:Generated_Source\PSoC6\pdl\middleware/ble/cy_ble_gap.h **** #endif /* ((CY_BLE_GAP_ROLE_PERIPHERAL || CY_BLE_GAP_ROLE_CENTRAL)) */
 544:Generated_Source\PSoC6\pdl\middleware/ble/cy_ble_gap.h **** 
 545:Generated_Source\PSoC6\pdl\middleware/ble/cy_ble_gap.h **** #if (CY_BLE_GAP_ROLE_PERIPHERAL || CY_BLE_GAP_ROLE_BROADCASTER)
 546:Generated_Source\PSoC6\pdl\middleware/ble/cy_ble_gap.h **** extern cy_en_ble_adv_state_t cy_ble_advState;
 547:Generated_Source\PSoC6\pdl\middleware/ble/cy_ble_gap.h **** extern uint8_t cy_ble_advIndex;
 548:Generated_Source\PSoC6\pdl\middleware/ble/cy_ble_gap.h **** #endif  /* (CY_BLE_GAP_ROLE_PERIPHERAL || CY_BLE_GAP_ROLE_BROADCASTER) */
 549:Generated_Source\PSoC6\pdl\middleware/ble/cy_ble_gap.h **** 
 550:Generated_Source\PSoC6\pdl\middleware/ble/cy_ble_gap.h **** #if (CY_BLE_GAP_ROLE_CENTRAL || CY_BLE_GAP_ROLE_OBSERVER)
 551:Generated_Source\PSoC6\pdl\middleware/ble/cy_ble_gap.h **** extern cy_en_ble_scan_state_t cy_ble_scanState;
 552:Generated_Source\PSoC6\pdl\middleware/ble/cy_ble_gap.h **** extern uint8_t cy_ble_scanIndex;
 553:Generated_Source\PSoC6\pdl\middleware/ble/cy_ble_gap.h **** #endif /* (CY_BLE_GAP_ROLE_CENTRAL || CY_BLE_GAP_ROLE_OBSERVER) */
 554:Generated_Source\PSoC6\pdl\middleware/ble/cy_ble_gap.h **** 
 555:Generated_Source\PSoC6\pdl\middleware/ble/cy_ble_gap.h **** #if ((CY_BLE_GAP_ROLE_PERIPHERAL || CY_BLE_GAP_ROLE_CENTRAL))
 556:Generated_Source\PSoC6\pdl\middleware/ble/cy_ble_gap.h **** extern cy_stc_ble_conn_handle_t cy_ble_connHandle[CY_BLE_CONN_COUNT];
 557:Generated_Source\PSoC6\pdl\middleware/ble/cy_ble_gap.h **** extern cy_en_ble_conn_state_t cy_ble_connState[CY_BLE_CONN_COUNT];
 558:Generated_Source\PSoC6\pdl\middleware/ble/cy_ble_gap.h **** 
 559:Generated_Source\PSoC6\pdl\middleware/ble/cy_ble_gap.h **** extern volatile uint8_t cy_ble_devConnRole[CY_BLE_CONN_COUNT];
 560:Generated_Source\PSoC6\pdl\middleware/ble/cy_ble_gap.h **** extern volatile bool cy_ble_pairStatus[CY_BLE_CONN_COUNT];
 561:Generated_Source\PSoC6\pdl\middleware/ble/cy_ble_gap.h **** 
 562:Generated_Source\PSoC6\pdl\middleware/ble/cy_ble_gap.h **** #endif /* ((CY_BLE_GAP_ROLE_PERIPHERAL || CY_BLE_GAP_ROLE_CENTRAL)) */
ARM GAS  C:\Users\haske\AppData\Local\Temp\ccWSfRiA.s 			page 82


 563:Generated_Source\PSoC6\pdl\middleware/ble/cy_ble_gap.h **** 
 564:Generated_Source\PSoC6\pdl\middleware/ble/cy_ble_gap.h **** #if (CY_BLE_GAP_ROLE_CENTRAL || CY_BLE_GAP_ROLE_OBSERVER)
 565:Generated_Source\PSoC6\pdl\middleware/ble/cy_ble_gap.h **** extern cy_stc_ble_gapc_disc_info_t cy_ble_discoveryInfo[CY_BLE_GAPC_CONF_COUNT];
 566:Generated_Source\PSoC6\pdl\middleware/ble/cy_ble_gap.h **** #endif /* CY_BLE_GAP_ROLE_CENTRAL || CY_BLE_GAP_ROLE_OBSERVER */
 567:Generated_Source\PSoC6\pdl\middleware/ble/cy_ble_gap.h **** 
 568:Generated_Source\PSoC6\pdl\middleware/ble/cy_ble_gap.h **** #if (CY_BLE_GAP_ROLE_CENTRAL)
 569:Generated_Source\PSoC6\pdl\middleware/ble/cy_ble_gap.h **** extern cy_stc_ble_gapc_conn_info_t cy_ble_connectionParameters;
 570:Generated_Source\PSoC6\pdl\middleware/ble/cy_ble_gap.h **** extern cy_stc_ble_timer_info_t cy_ble_connectingTimeout;
 571:Generated_Source\PSoC6\pdl\middleware/ble/cy_ble_gap.h **** #endif /* CY_BLE_GAP_ROLE_CENTRAL */
 572:Generated_Source\PSoC6\pdl\middleware/ble/cy_ble_gap.h **** 
 573:Generated_Source\PSoC6\pdl\middleware/ble/cy_ble_gap.h **** #if (CY_BLE_GAP_ROLE_PERIPHERAL || CY_BLE_GAP_ROLE_BROADCASTER)
 574:Generated_Source\PSoC6\pdl\middleware/ble/cy_ble_gap.h **** extern cy_stc_ble_gapp_disc_mode_info_t cy_ble_discoveryModeInfo[CY_BLE_GAPP_CONF_COUNT];
 575:Generated_Source\PSoC6\pdl\middleware/ble/cy_ble_gap.h **** extern cy_stc_ble_gapp_disc_param_t cy_ble_discoveryParam[CY_BLE_GAPP_CONF_COUNT];
 576:Generated_Source\PSoC6\pdl\middleware/ble/cy_ble_gap.h **** extern cy_stc_ble_gapp_disc_data_t cy_ble_discoveryData[CY_BLE_GAPP_CONF_COUNT];
 577:Generated_Source\PSoC6\pdl\middleware/ble/cy_ble_gap.h **** extern cy_stc_ble_gapp_scan_rsp_data_t cy_ble_scanRspData[CY_BLE_GAPP_CONF_COUNT];
 578:Generated_Source\PSoC6\pdl\middleware/ble/cy_ble_gap.h **** #endif /* CY_BLE_GAP_ROLE_PERIPHERAL || CY_BLE_GAP_ROLE_BROADCASTER */
 579:Generated_Source\PSoC6\pdl\middleware/ble/cy_ble_gap.h **** 
 580:Generated_Source\PSoC6\pdl\middleware/ble/cy_ble_gap.h **** #if ((CY_BLE_GAP_ROLE_PERIPHERAL || CY_BLE_GAP_ROLE_CENTRAL) && (CY_BLE_BONDING_REQUIREMENT == CY_B
 581:Generated_Source\PSoC6\pdl\middleware/ble/cy_ble_gap.h **** 
 582:Generated_Source\PSoC6\pdl\middleware/ble/cy_ble_gap.h **** /**
 583:Generated_Source\PSoC6\pdl\middleware/ble/cy_ble_gap.h ****  * \addtogroup group_ble_common_api_global_variables
 584:Generated_Source\PSoC6\pdl\middleware/ble/cy_ble_gap.h ****  * @{
 585:Generated_Source\PSoC6\pdl\middleware/ble/cy_ble_gap.h ****  */
 586:Generated_Source\PSoC6\pdl\middleware/ble/cy_ble_gap.h **** /** This is a two-bit variable that contains status of pending write to flash operation.
 587:Generated_Source\PSoC6\pdl\middleware/ble/cy_ble_gap.h ****  * This variable is initialized to zero in Cy_BLE_Init().
 588:Generated_Source\PSoC6\pdl\middleware/ble/cy_ble_gap.h ****  * CY_BLE_PENDING_CCCD_FLASH_WRITE_BIT flag is set after write to CCCD event when a
 589:Generated_Source\PSoC6\pdl\middleware/ble/cy_ble_gap.h ****  * peer device supports bonding (cy_ble_peerBonding[eventParam->connHandle.attId] == CY_BLE_GAP_BON
 590:Generated_Source\PSoC6\pdl\middleware/ble/cy_ble_gap.h ****  * CY_BLE_PENDING_STACK_FLASH_WRITE_BIT flag is set after CY_BLE_EVT_PENDING_FLASH_WRITE event.
 591:Generated_Source\PSoC6\pdl\middleware/ble/cy_ble_gap.h ****  * Cy_BLE_StoreBondingData() should be called to store pending bonding data.
 592:Generated_Source\PSoC6\pdl\middleware/ble/cy_ble_gap.h ****  * This function automatically clears pending bits after write operation is complete.
 593:Generated_Source\PSoC6\pdl\middleware/ble/cy_ble_gap.h ****  */
 594:Generated_Source\PSoC6\pdl\middleware/ble/cy_ble_gap.h **** extern uint8_t cy_ble_pendingFlashWrite;
 595:Generated_Source\PSoC6\pdl\middleware/ble/cy_ble_gap.h **** /** @} group_ble_common_api_global_variables */
 596:Generated_Source\PSoC6\pdl\middleware/ble/cy_ble_gap.h **** 
 597:Generated_Source\PSoC6\pdl\middleware/ble/cy_ble_gap.h **** /** Bonding type setting of peer device, CY_BLE_GAP_BONDING_NONE or CY_BLE_GAP_BONDING.
 598:Generated_Source\PSoC6\pdl\middleware/ble/cy_ble_gap.h ****  * It is initialized after pairing with peer device and used for cy_ble_pendingFlashWrite variable
 599:Generated_Source\PSoC6\pdl\middleware/ble/cy_ble_gap.h ****  * setting.
 600:Generated_Source\PSoC6\pdl\middleware/ble/cy_ble_gap.h ****  */
 601:Generated_Source\PSoC6\pdl\middleware/ble/cy_ble_gap.h **** extern uint8_t cy_ble_peerBonding[CY_BLE_CONN_COUNT];
 602:Generated_Source\PSoC6\pdl\middleware/ble/cy_ble_gap.h **** 
 603:Generated_Source\PSoC6\pdl\middleware/ble/cy_ble_gap.h **** #endif  /* (CY_BLE_BONDING_REQUIREMENT == CY_BLE_BONDING_YES) */
 604:Generated_Source\PSoC6\pdl\middleware/ble/cy_ble_gap.h **** 
 605:Generated_Source\PSoC6\pdl\middleware/ble/cy_ble_gap.h **** 
 606:Generated_Source\PSoC6\pdl\middleware/ble/cy_ble_gap.h **** /***************************************
 607:Generated_Source\PSoC6\pdl\middleware/ble/cy_ble_gap.h **** * Exported Functions (MACROS)
 608:Generated_Source\PSoC6\pdl\middleware/ble/cy_ble_gap.h **** ***************************************/
 609:Generated_Source\PSoC6\pdl\middleware/ble/cy_ble_gap.h **** #if ((CY_BLE_GAP_ROLE_PERIPHERAL || CY_BLE_GAP_ROLE_CENTRAL))
 610:Generated_Source\PSoC6\pdl\middleware/ble/cy_ble_gap.h **** 
 611:Generated_Source\PSoC6\pdl\middleware/ble/cy_ble_gap.h **** /******************************************************************************
 612:Generated_Source\PSoC6\pdl\middleware/ble/cy_ble_gap.h **** * Function Name: Cy_BLE_GetConnHandleIdx
 613:Generated_Source\PSoC6\pdl\middleware/ble/cy_ble_gap.h **** ***************************************************************************//**
 614:Generated_Source\PSoC6\pdl\middleware/ble/cy_ble_gap.h **** *
 615:Generated_Source\PSoC6\pdl\middleware/ble/cy_ble_gap.h **** *  This function searches the array of connection handles (cy_ble_connHandle[])
 616:Generated_Source\PSoC6\pdl\middleware/ble/cy_ble_gap.h **** *  for the location (index) of a handle that corresponds to the input parameter
 617:Generated_Source\PSoC6\pdl\middleware/ble/cy_ble_gap.h **** *  connHandle. bdHandle.
 618:Generated_Source\PSoC6\pdl\middleware/ble/cy_ble_gap.h **** *
 619:Generated_Source\PSoC6\pdl\middleware/ble/cy_ble_gap.h **** *  This function is designated for internal usage.
ARM GAS  C:\Users\haske\AppData\Local\Temp\ccWSfRiA.s 			page 83


 620:Generated_Source\PSoC6\pdl\middleware/ble/cy_ble_gap.h **** *
 621:Generated_Source\PSoC6\pdl\middleware/ble/cy_ble_gap.h **** *  \param connHandle: The connection handle.
 622:Generated_Source\PSoC6\pdl\middleware/ble/cy_ble_gap.h **** *
 623:Generated_Source\PSoC6\pdl\middleware/ble/cy_ble_gap.h **** *  \return
 624:Generated_Source\PSoC6\pdl\middleware/ble/cy_ble_gap.h **** *  retValue: the index of connHandle
 625:Generated_Source\PSoC6\pdl\middleware/ble/cy_ble_gap.h **** *
 626:Generated_Source\PSoC6\pdl\middleware/ble/cy_ble_gap.h **** ******************************************************************************/
 627:Generated_Source\PSoC6\pdl\middleware/ble/cy_ble_gap.h **** __STATIC_INLINE uint8_t Cy_BLE_GetConnHandleIdx(cy_stc_ble_conn_handle_t connHandle)
 628:Generated_Source\PSoC6\pdl\middleware/ble/cy_ble_gap.h **** {
 629:Generated_Source\PSoC6\pdl\middleware/ble/cy_ble_gap.h ****     uint8_t idx;
 630:Generated_Source\PSoC6\pdl\middleware/ble/cy_ble_gap.h ****     uint8_t retValue = CY_BLE_CONN_COUNT;
 631:Generated_Source\PSoC6\pdl\middleware/ble/cy_ble_gap.h **** 
 632:Generated_Source\PSoC6\pdl\middleware/ble/cy_ble_gap.h ****     for(idx = 0u; idx < CY_BLE_CONN_COUNT; idx++)
 633:Generated_Source\PSoC6\pdl\middleware/ble/cy_ble_gap.h ****     {
 634:Generated_Source\PSoC6\pdl\middleware/ble/cy_ble_gap.h ****         if(cy_ble_connHandle[idx].bdHandle == connHandle.bdHandle)
 635:Generated_Source\PSoC6\pdl\middleware/ble/cy_ble_gap.h ****         {
 636:Generated_Source\PSoC6\pdl\middleware/ble/cy_ble_gap.h ****             retValue = idx;
 637:Generated_Source\PSoC6\pdl\middleware/ble/cy_ble_gap.h ****             break;
 638:Generated_Source\PSoC6\pdl\middleware/ble/cy_ble_gap.h ****         }
 639:Generated_Source\PSoC6\pdl\middleware/ble/cy_ble_gap.h ****     }
 640:Generated_Source\PSoC6\pdl\middleware/ble/cy_ble_gap.h ****     if(retValue == CY_BLE_CONN_COUNT)
 641:Generated_Source\PSoC6\pdl\middleware/ble/cy_ble_gap.h ****     {
 642:Generated_Source\PSoC6\pdl\middleware/ble/cy_ble_gap.h ****         /* HALT in debug mode */
 643:Generated_Source\PSoC6\pdl\middleware/ble/cy_ble_gap.h ****         CY_ASSERT(retValue != CY_BLE_CONN_COUNT);
 644:Generated_Source\PSoC6\pdl\middleware/ble/cy_ble_gap.h ****         retValue = 0u;
 645:Generated_Source\PSoC6\pdl\middleware/ble/cy_ble_gap.h ****     }
 646:Generated_Source\PSoC6\pdl\middleware/ble/cy_ble_gap.h **** 
 647:Generated_Source\PSoC6\pdl\middleware/ble/cy_ble_gap.h ****     return(retValue);
 648:Generated_Source\PSoC6\pdl\middleware/ble/cy_ble_gap.h **** }
 649:Generated_Source\PSoC6\pdl\middleware/ble/cy_ble_gap.h **** #endif  /* ((CY_BLE_GAP_ROLE_PERIPHERAL || CY_BLE_GAP_ROLE_CENTRAL)) */
 650:Generated_Source\PSoC6\pdl\middleware/ble/cy_ble_gap.h **** 
 651:Generated_Source\PSoC6\pdl\middleware/ble/cy_ble_gap.h **** /**
 652:Generated_Source\PSoC6\pdl\middleware/ble/cy_ble_gap.h ****  * \addtogroup group_ble_common_api_functions
 653:Generated_Source\PSoC6\pdl\middleware/ble/cy_ble_gap.h ****  * @{
 654:Generated_Source\PSoC6\pdl\middleware/ble/cy_ble_gap.h **** */
 655:Generated_Source\PSoC6\pdl\middleware/ble/cy_ble_gap.h **** /******************************************************************************
 656:Generated_Source\PSoC6\pdl\middleware/ble/cy_ble_gap.h **** * Function Name: Cy_BLE_GetState
 657:Generated_Source\PSoC6\pdl\middleware/ble/cy_ble_gap.h **** ***************************************************************************//**
 658:Generated_Source\PSoC6\pdl\middleware/ble/cy_ble_gap.h **** *
 659:Generated_Source\PSoC6\pdl\middleware/ble/cy_ble_gap.h **** *  This function is used to determine the current state of the BLE Middleware
 660:Generated_Source\PSoC6\pdl\middleware/ble/cy_ble_gap.h **** *  state machine :
 661:Generated_Source\PSoC6\pdl\middleware/ble/cy_ble_gap.h **** *
 662:Generated_Source\PSoC6\pdl\middleware/ble/cy_ble_gap.h **** *  \image html ble_middleware_state_machine.png
 663:Generated_Source\PSoC6\pdl\middleware/ble/cy_ble_gap.h **** *
 664:Generated_Source\PSoC6\pdl\middleware/ble/cy_ble_gap.h **** *  The BLE Middleware is in the state #CY_BLE_STATE_INITIALIZING after the
 665:Generated_Source\PSoC6\pdl\middleware/ble/cy_ble_gap.h **** *  Cy_BLE_Enable() is called and until the #CY_BLE_EVT_STACK_ON event is not
 666:Generated_Source\PSoC6\pdl\middleware/ble/cy_ble_gap.h **** *  received. After successful initialization the state is changed to
 667:Generated_Source\PSoC6\pdl\middleware/ble/cy_ble_gap.h **** *  #CY_BLE_STATE_ON.
 668:Generated_Source\PSoC6\pdl\middleware/ble/cy_ble_gap.h **** *
 669:Generated_Source\PSoC6\pdl\middleware/ble/cy_ble_gap.h **** *  The BLE Middleware is in the state #CY_BLE_STATE_STOPPED
 670:Generated_Source\PSoC6\pdl\middleware/ble/cy_ble_gap.h **** *  when the #CY_BLE_EVT_STACK_SHUTDOWN_COMPLETE event is received (after the
 671:Generated_Source\PSoC6\pdl\middleware/ble/cy_ble_gap.h **** *  Cy_BLE_Disable() is called).
 672:Generated_Source\PSoC6\pdl\middleware/ble/cy_ble_gap.h **** *
 673:Generated_Source\PSoC6\pdl\middleware/ble/cy_ble_gap.h **** *  For GAP Central role when the Cy_BLE_GAPC_ConnectDevice() is called, the state
 674:Generated_Source\PSoC6\pdl\middleware/ble/cy_ble_gap.h **** *  is changed to #CY_BLE_STATE_CONNECTING. After successful connection indicated
 675:Generated_Source\PSoC6\pdl\middleware/ble/cy_ble_gap.h **** *  by #CY_BLE_EVT_GAP_DEVICE_CONNECTED or #CY_BLE_EVT_GAP_ENHANCE_CONN_COMPLETE
 676:Generated_Source\PSoC6\pdl\middleware/ble/cy_ble_gap.h **** *  event or the timeout indicated by #CY_BLE_EVT_TIMEOUT event, the state is
ARM GAS  C:\Users\haske\AppData\Local\Temp\ccWSfRiA.s 			page 84


 677:Generated_Source\PSoC6\pdl\middleware/ble/cy_ble_gap.h **** *  changed to #CY_BLE_STATE_ON.
 678:Generated_Source\PSoC6\pdl\middleware/ble/cy_ble_gap.h **** *
 679:Generated_Source\PSoC6\pdl\middleware/ble/cy_ble_gap.h **** * \return
 680:Generated_Source\PSoC6\pdl\middleware/ble/cy_ble_gap.h **** * \ref cy_en_ble_state_t : The current BLE Middleware state. The following are
 681:Generated_Source\PSoC6\pdl\middleware/ble/cy_ble_gap.h **** *                         possible states:
 682:Generated_Source\PSoC6\pdl\middleware/ble/cy_ble_gap.h **** *
 683:Generated_Source\PSoC6\pdl\middleware/ble/cy_ble_gap.h **** *   State                      | Description
 684:Generated_Source\PSoC6\pdl\middleware/ble/cy_ble_gap.h **** *   -------------------------- | -----------
 685:Generated_Source\PSoC6\pdl\middleware/ble/cy_ble_gap.h **** *   CY_BLE_STATE_STOPPED       | BLE is turned off.
 686:Generated_Source\PSoC6\pdl\middleware/ble/cy_ble_gap.h **** *   CY_BLE_STATE_INITIALIZING  | BLE is initializing (waiting for #CY_BLE_EVT_STACK_ON event).
 687:Generated_Source\PSoC6\pdl\middleware/ble/cy_ble_gap.h **** *   CY_BLE_STATE_ON            | BLE is turned on.
 688:Generated_Source\PSoC6\pdl\middleware/ble/cy_ble_gap.h **** *   CY_BLE_STATE_CONNECTING    | BLE is connecting.
 689:Generated_Source\PSoC6\pdl\middleware/ble/cy_ble_gap.h **** 
 690:Generated_Source\PSoC6\pdl\middleware/ble/cy_ble_gap.h **** ******************************************************************************/
 691:Generated_Source\PSoC6\pdl\middleware/ble/cy_ble_gap.h **** #define Cy_BLE_GetState()    (cy_ble_state)
 692:Generated_Source\PSoC6\pdl\middleware/ble/cy_ble_gap.h **** 
 693:Generated_Source\PSoC6\pdl\middleware/ble/cy_ble_gap.h **** /** \cond IGNORE */
 694:Generated_Source\PSoC6\pdl\middleware/ble/cy_ble_gap.h **** /******************************************************************************
 695:Generated_Source\PSoC6\pdl\middleware/ble/cy_ble_gap.h **** * Function Name: Cy_BLE_SetState
 696:Generated_Source\PSoC6\pdl\middleware/ble/cy_ble_gap.h **** ***************************************************************************//**
 697:Generated_Source\PSoC6\pdl\middleware/ble/cy_ble_gap.h **** *
 698:Generated_Source\PSoC6\pdl\middleware/ble/cy_ble_gap.h **** *  Used to set the BLE Middleware state machine's state.
 699:Generated_Source\PSoC6\pdl\middleware/ble/cy_ble_gap.h **** *
 700:Generated_Source\PSoC6\pdl\middleware/ble/cy_ble_gap.h **** *  \param state: The desired state to which the event handler's
 701:Generated_Source\PSoC6\pdl\middleware/ble/cy_ble_gap.h **** *   state machine should be set. The parameter state is a variable
 702:Generated_Source\PSoC6\pdl\middleware/ble/cy_ble_gap.h **** *   of type cy_en_ble_state_t.
 703:Generated_Source\PSoC6\pdl\middleware/ble/cy_ble_gap.h **** *
 704:Generated_Source\PSoC6\pdl\middleware/ble/cy_ble_gap.h **** * \return
 705:Generated_Source\PSoC6\pdl\middleware/ble/cy_ble_gap.h **** *  None
 706:Generated_Source\PSoC6\pdl\middleware/ble/cy_ble_gap.h **** *
 707:Generated_Source\PSoC6\pdl\middleware/ble/cy_ble_gap.h **** ******************************************************************************/
 708:Generated_Source\PSoC6\pdl\middleware/ble/cy_ble_gap.h **** #define Cy_BLE_SetState(state)    (cy_ble_state = (state))
 709:Generated_Source\PSoC6\pdl\middleware/ble/cy_ble_gap.h **** /** \endcond */
 710:Generated_Source\PSoC6\pdl\middleware/ble/cy_ble_gap.h **** 
 711:Generated_Source\PSoC6\pdl\middleware/ble/cy_ble_gap.h **** #if (CY_BLE_GAP_ROLE_PERIPHERAL || CY_BLE_GAP_ROLE_BROADCASTER)
 712:Generated_Source\PSoC6\pdl\middleware/ble/cy_ble_gap.h **** 
 713:Generated_Source\PSoC6\pdl\middleware/ble/cy_ble_gap.h **** 
 714:Generated_Source\PSoC6\pdl\middleware/ble/cy_ble_gap.h **** /******************************************************************************
 715:Generated_Source\PSoC6\pdl\middleware/ble/cy_ble_gap.h **** * Function Name: Cy_BLE_GetAdvertisementState
 716:Generated_Source\PSoC6\pdl\middleware/ble/cy_ble_gap.h **** ***************************************************************************//**
 717:Generated_Source\PSoC6\pdl\middleware/ble/cy_ble_gap.h **** *
 718:Generated_Source\PSoC6\pdl\middleware/ble/cy_ble_gap.h **** *  This function returns the state of the link layer hardware advertisement
 719:Generated_Source\PSoC6\pdl\middleware/ble/cy_ble_gap.h **** *  engine.
 720:Generated_Source\PSoC6\pdl\middleware/ble/cy_ble_gap.h **** *
 721:Generated_Source\PSoC6\pdl\middleware/ble/cy_ble_gap.h **** *  \image html ble_advertisement_state_machine.png
 722:Generated_Source\PSoC6\pdl\middleware/ble/cy_ble_gap.h **** *
 723:Generated_Source\PSoC6\pdl\middleware/ble/cy_ble_gap.h **** *  When Cy_BLE_GAPP_StartAdvertisement() is called, the state is set to
 724:Generated_Source\PSoC6\pdl\middleware/ble/cy_ble_gap.h **** *  #CY_BLE_ADV_STATE_ADV_INITIATED. It automatically changes to
 725:Generated_Source\PSoC6\pdl\middleware/ble/cy_ble_gap.h **** *  #CY_BLE_ADV_STATE_ADVERTISING when #CY_BLE_EVT_GAPP_ADVERTISEMENT_START_STOP
 726:Generated_Source\PSoC6\pdl\middleware/ble/cy_ble_gap.h **** *  event is received. When Cy_BLE_GAPP_StopAdvertisement() is called, the
 727:Generated_Source\PSoC6\pdl\middleware/ble/cy_ble_gap.h **** *  state is set to #CY_BLE_ADV_STATE_STOP_INITIATED. It automatically changes
 728:Generated_Source\PSoC6\pdl\middleware/ble/cy_ble_gap.h **** *  to #CY_BLE_ADV_STATE_STOPPED when the #CY_BLE_EVT_GAPP_ADVERTISEMENT_START_STOP
 729:Generated_Source\PSoC6\pdl\middleware/ble/cy_ble_gap.h **** *  event is received.
 730:Generated_Source\PSoC6\pdl\middleware/ble/cy_ble_gap.h **** *
 731:Generated_Source\PSoC6\pdl\middleware/ble/cy_ble_gap.h **** * \return
 732:Generated_Source\PSoC6\pdl\middleware/ble/cy_ble_gap.h **** * \ref cy_en_ble_adv_state_t :The current advertising state. The following are
 733:Generated_Source\PSoC6\pdl\middleware/ble/cy_ble_gap.h **** *                              possible states.
ARM GAS  C:\Users\haske\AppData\Local\Temp\ccWSfRiA.s 			page 85


 734:Generated_Source\PSoC6\pdl\middleware/ble/cy_ble_gap.h **** *
 735:Generated_Source\PSoC6\pdl\middleware/ble/cy_ble_gap.h **** *               State                |         Description
 736:Generated_Source\PSoC6\pdl\middleware/ble/cy_ble_gap.h **** *   -------------------------------- | -----------------------------
 737:Generated_Source\PSoC6\pdl\middleware/ble/cy_ble_gap.h **** *   CY_BLE_ADV_STATE_STOPPED         | Advertising is stopped.
 738:Generated_Source\PSoC6\pdl\middleware/ble/cy_ble_gap.h **** *   CY_BLE_ADV_STATE_ADV_INITIATED   | Advertising is initiated.
 739:Generated_Source\PSoC6\pdl\middleware/ble/cy_ble_gap.h **** *   CY_BLE_ADV_STATE_ADVERTISING     | Advertising is initiated.
 740:Generated_Source\PSoC6\pdl\middleware/ble/cy_ble_gap.h **** *   CY_BLE_ADV_STATE_STOP_INITIATED  | Stop advertising is initiated.
 741:Generated_Source\PSoC6\pdl\middleware/ble/cy_ble_gap.h **** *
 742:Generated_Source\PSoC6\pdl\middleware/ble/cy_ble_gap.h **** ******************************************************************************/
 743:Generated_Source\PSoC6\pdl\middleware/ble/cy_ble_gap.h **** __STATIC_INLINE cy_en_ble_adv_state_t Cy_BLE_GetAdvertisementState(void)
 744:Generated_Source\PSoC6\pdl\middleware/ble/cy_ble_gap.h **** {
 745:Generated_Source\PSoC6\pdl\middleware/ble/cy_ble_gap.h ****     return(cy_ble_advState);
 1950              		.loc 4 745 0
 1951 0000 044B     		ldr	r3, .L167
 1952 0002 1B78     		ldrb	r3, [r3]	@ zero_extendqisi2
 1953              	.LBE173:
 1954              	.LBE172:
 963:user_interface.c **** #if(SYS_VOLTAGE >= RGB_LED_MIN_VOLTAGE_MV) 
 964:user_interface.c ****     if(Cy_BLE_GetAdvertisementState() == CY_BLE_ADV_STATE_ADVERTISING)
 1955              		.loc 1 964 0
 1956 0004 022B     		cmp	r3, #2
 1957 0006 04D0     		beq	.L163
 1958 0008 0023     		movs	r3, #0
 1959 000a 00E0     		b	.L165
 1960              	.LVL189:
 1961              	.L166:
 1962              	.LBB174:
 1963              	.LBB175:
 746:Generated_Source\PSoC6\pdl\middleware/ble/cy_ble_gap.h **** }
 747:Generated_Source\PSoC6\pdl\middleware/ble/cy_ble_gap.h **** 
 748:Generated_Source\PSoC6\pdl\middleware/ble/cy_ble_gap.h **** /** \cond IGNORE */
 749:Generated_Source\PSoC6\pdl\middleware/ble/cy_ble_gap.h **** /******************************************************************************
 750:Generated_Source\PSoC6\pdl\middleware/ble/cy_ble_gap.h **** * Function Name: Cy_BLE_SetAdvertisementState
 751:Generated_Source\PSoC6\pdl\middleware/ble/cy_ble_gap.h **** ***************************************************************************//**
 752:Generated_Source\PSoC6\pdl\middleware/ble/cy_ble_gap.h **** *
 753:Generated_Source\PSoC6\pdl\middleware/ble/cy_ble_gap.h **** *  Used to set the state of the link layer hardware advertisement engine.
 754:Generated_Source\PSoC6\pdl\middleware/ble/cy_ble_gap.h **** *
 755:Generated_Source\PSoC6\pdl\middleware/ble/cy_ble_gap.h **** *  \param state: The desired state.
 756:Generated_Source\PSoC6\pdl\middleware/ble/cy_ble_gap.h **** *
 757:Generated_Source\PSoC6\pdl\middleware/ble/cy_ble_gap.h **** * \return
 758:Generated_Source\PSoC6\pdl\middleware/ble/cy_ble_gap.h **** *  None
 759:Generated_Source\PSoC6\pdl\middleware/ble/cy_ble_gap.h **** *
 760:Generated_Source\PSoC6\pdl\middleware/ble/cy_ble_gap.h **** ******************************************************************************/
 761:Generated_Source\PSoC6\pdl\middleware/ble/cy_ble_gap.h **** __STATIC_INLINE void Cy_BLE_SetAdvertisementState(cy_en_ble_adv_state_t state)
 762:Generated_Source\PSoC6\pdl\middleware/ble/cy_ble_gap.h **** {
 763:Generated_Source\PSoC6\pdl\middleware/ble/cy_ble_gap.h ****     cy_ble_advState = state;
 764:Generated_Source\PSoC6\pdl\middleware/ble/cy_ble_gap.h **** }
 765:Generated_Source\PSoC6\pdl\middleware/ble/cy_ble_gap.h **** /** \endcond */
 766:Generated_Source\PSoC6\pdl\middleware/ble/cy_ble_gap.h **** 
 767:Generated_Source\PSoC6\pdl\middleware/ble/cy_ble_gap.h **** #endif /* (CY_BLE_GAP_ROLE_PERIPHERAL || CY_BLE_GAP_ROLE_BROADCASTER) */
 768:Generated_Source\PSoC6\pdl\middleware/ble/cy_ble_gap.h **** 
 769:Generated_Source\PSoC6\pdl\middleware/ble/cy_ble_gap.h **** #if (CY_BLE_GAP_ROLE_CENTRAL || CY_BLE_GAP_ROLE_OBSERVER)
 770:Generated_Source\PSoC6\pdl\middleware/ble/cy_ble_gap.h **** 
 771:Generated_Source\PSoC6\pdl\middleware/ble/cy_ble_gap.h **** /******************************************************************************
 772:Generated_Source\PSoC6\pdl\middleware/ble/cy_ble_gap.h **** * Function Name: Cy_BLE_GetScanState
 773:Generated_Source\PSoC6\pdl\middleware/ble/cy_ble_gap.h **** ***************************************************************************//**
 774:Generated_Source\PSoC6\pdl\middleware/ble/cy_ble_gap.h **** *
ARM GAS  C:\Users\haske\AppData\Local\Temp\ccWSfRiA.s 			page 86


 775:Generated_Source\PSoC6\pdl\middleware/ble/cy_ble_gap.h **** *  This returns the state of the link layer hardware scan engine.
 776:Generated_Source\PSoC6\pdl\middleware/ble/cy_ble_gap.h **** *
 777:Generated_Source\PSoC6\pdl\middleware/ble/cy_ble_gap.h **** *  \image html ble_scanning_state_machine.png
 778:Generated_Source\PSoC6\pdl\middleware/ble/cy_ble_gap.h **** *
 779:Generated_Source\PSoC6\pdl\middleware/ble/cy_ble_gap.h **** *  When Cy_BLE_GAPC_StartScan() is called the state is set to
 780:Generated_Source\PSoC6\pdl\middleware/ble/cy_ble_gap.h **** *  #CY_BLE_SCAN_STATE_SCAN_INITIATED. It automatically changes to
 781:Generated_Source\PSoC6\pdl\middleware/ble/cy_ble_gap.h **** *  #CY_BLE_SCAN_STATE_SCANNING when the #CY_BLE_EVT_GAPC_SCAN_START_STOP event is
 782:Generated_Source\PSoC6\pdl\middleware/ble/cy_ble_gap.h **** *  received.
 783:Generated_Source\PSoC6\pdl\middleware/ble/cy_ble_gap.h **** *  When Cy_BLE_GAPC_StopScan() is called, the state is set to
 784:Generated_Source\PSoC6\pdl\middleware/ble/cy_ble_gap.h **** *  #CY_BLE_SCAN_STATE_STOP_INITIATED. It automatically changes to
 785:Generated_Source\PSoC6\pdl\middleware/ble/cy_ble_gap.h **** *  #CY_BLE_SCAN_STATE_STOPPED when the #CY_BLE_EVT_GAPC_SCAN_START_STOP event is
 786:Generated_Source\PSoC6\pdl\middleware/ble/cy_ble_gap.h **** *  received.
 787:Generated_Source\PSoC6\pdl\middleware/ble/cy_ble_gap.h **** *
 788:Generated_Source\PSoC6\pdl\middleware/ble/cy_ble_gap.h **** *  \return
 789:Generated_Source\PSoC6\pdl\middleware/ble/cy_ble_gap.h **** *  \ref cy_en_ble_scan_state_t : The current scan state. The following are
 790:Generated_Source\PSoC6\pdl\middleware/ble/cy_ble_gap.h **** *                                possible states.
 791:Generated_Source\PSoC6\pdl\middleware/ble/cy_ble_gap.h **** *
 792:Generated_Source\PSoC6\pdl\middleware/ble/cy_ble_gap.h **** *               State                |         Description
 793:Generated_Source\PSoC6\pdl\middleware/ble/cy_ble_gap.h **** *   -------------------------------- | -----------------------------
 794:Generated_Source\PSoC6\pdl\middleware/ble/cy_ble_gap.h **** *   CY_BLE_SCAN_STATE_STOPPED        | Scanning is stopped.
 795:Generated_Source\PSoC6\pdl\middleware/ble/cy_ble_gap.h **** *   CY_BLE_SCAN_STATE_SCAN_INITIATED | Scanning is initiated.
 796:Generated_Source\PSoC6\pdl\middleware/ble/cy_ble_gap.h **** *   CY_BLE_SCAN_STATE_SCANNING       | Scanning process.
 797:Generated_Source\PSoC6\pdl\middleware/ble/cy_ble_gap.h **** *   CY_BLE_SCAN_STATE_STOP_INITIATED | Stop scanning is initiated.
 798:Generated_Source\PSoC6\pdl\middleware/ble/cy_ble_gap.h **** *
 799:Generated_Source\PSoC6\pdl\middleware/ble/cy_ble_gap.h **** ******************************************************************************/
 800:Generated_Source\PSoC6\pdl\middleware/ble/cy_ble_gap.h **** __STATIC_INLINE cy_en_ble_scan_state_t Cy_BLE_GetScanState(void)
 801:Generated_Source\PSoC6\pdl\middleware/ble/cy_ble_gap.h **** {
 802:Generated_Source\PSoC6\pdl\middleware/ble/cy_ble_gap.h ****     return(cy_ble_scanState);
 803:Generated_Source\PSoC6\pdl\middleware/ble/cy_ble_gap.h **** }
 804:Generated_Source\PSoC6\pdl\middleware/ble/cy_ble_gap.h **** 
 805:Generated_Source\PSoC6\pdl\middleware/ble/cy_ble_gap.h **** /** \cond IGNORE */
 806:Generated_Source\PSoC6\pdl\middleware/ble/cy_ble_gap.h **** /******************************************************************************
 807:Generated_Source\PSoC6\pdl\middleware/ble/cy_ble_gap.h **** * Function Name: Cy_BLE_SetScanState
 808:Generated_Source\PSoC6\pdl\middleware/ble/cy_ble_gap.h **** ***************************************************************************//**
 809:Generated_Source\PSoC6\pdl\middleware/ble/cy_ble_gap.h **** *
 810:Generated_Source\PSoC6\pdl\middleware/ble/cy_ble_gap.h **** *  Used to set the state of the link layer hardware scan engine.
 811:Generated_Source\PSoC6\pdl\middleware/ble/cy_ble_gap.h **** *
 812:Generated_Source\PSoC6\pdl\middleware/ble/cy_ble_gap.h **** *  \param state: The desired state.
 813:Generated_Source\PSoC6\pdl\middleware/ble/cy_ble_gap.h **** *
 814:Generated_Source\PSoC6\pdl\middleware/ble/cy_ble_gap.h **** *  \return
 815:Generated_Source\PSoC6\pdl\middleware/ble/cy_ble_gap.h **** *  None
 816:Generated_Source\PSoC6\pdl\middleware/ble/cy_ble_gap.h **** *
 817:Generated_Source\PSoC6\pdl\middleware/ble/cy_ble_gap.h **** ******************************************************************************/
 818:Generated_Source\PSoC6\pdl\middleware/ble/cy_ble_gap.h **** __STATIC_INLINE void Cy_BLE_SetScanState(cy_en_ble_scan_state_t state)
 819:Generated_Source\PSoC6\pdl\middleware/ble/cy_ble_gap.h **** {
 820:Generated_Source\PSoC6\pdl\middleware/ble/cy_ble_gap.h ****     cy_ble_scanState = state;
 821:Generated_Source\PSoC6\pdl\middleware/ble/cy_ble_gap.h **** }
 822:Generated_Source\PSoC6\pdl\middleware/ble/cy_ble_gap.h **** /** \endcond */
 823:Generated_Source\PSoC6\pdl\middleware/ble/cy_ble_gap.h **** 
 824:Generated_Source\PSoC6\pdl\middleware/ble/cy_ble_gap.h **** #endif  /* (CY_BLE_GAP_ROLE_CENTRAL || CY_BLE_GAP_ROLE_OBSERVER) */
 825:Generated_Source\PSoC6\pdl\middleware/ble/cy_ble_gap.h **** 
 826:Generated_Source\PSoC6\pdl\middleware/ble/cy_ble_gap.h **** 
 827:Generated_Source\PSoC6\pdl\middleware/ble/cy_ble_gap.h **** #if ((CY_BLE_GAP_ROLE_PERIPHERAL || CY_BLE_GAP_ROLE_CENTRAL))
 828:Generated_Source\PSoC6\pdl\middleware/ble/cy_ble_gap.h **** 
 829:Generated_Source\PSoC6\pdl\middleware/ble/cy_ble_gap.h **** /******************************************************************************
 830:Generated_Source\PSoC6\pdl\middleware/ble/cy_ble_gap.h **** * Function Name: Cy_BLE_GetConnectionState
 831:Generated_Source\PSoC6\pdl\middleware/ble/cy_ble_gap.h **** ***************************************************************************//**
ARM GAS  C:\Users\haske\AppData\Local\Temp\ccWSfRiA.s 			page 87


 832:Generated_Source\PSoC6\pdl\middleware/ble/cy_ble_gap.h **** *  This function returns the state of the BLE link for the specified connection
 833:Generated_Source\PSoC6\pdl\middleware/ble/cy_ble_gap.h **** *  handle.
 834:Generated_Source\PSoC6\pdl\middleware/ble/cy_ble_gap.h **** *
 835:Generated_Source\PSoC6\pdl\middleware/ble/cy_ble_gap.h **** *  The state is set to #CY_BLE_CONN_STATE_CONNECTED when #CY_BLE_EVT_GATT_CONNECT_IND
 836:Generated_Source\PSoC6\pdl\middleware/ble/cy_ble_gap.h **** *  event is received with the corresponding connection handle.
 837:Generated_Source\PSoC6\pdl\middleware/ble/cy_ble_gap.h **** *  The state is set to #CY_BLE_CONN_STATE_DISCONNECTED when the
 838:Generated_Source\PSoC6\pdl\middleware/ble/cy_ble_gap.h **** *  #CY_BLE_EVT_GATT_DISCONNECT_IND event is received.
 839:Generated_Source\PSoC6\pdl\middleware/ble/cy_ble_gap.h **** *
 840:Generated_Source\PSoC6\pdl\middleware/ble/cy_ble_gap.h **** *  For GATT Client role when Cy_BLE_GATTC_StartDiscovery() is called, the state
 841:Generated_Source\PSoC6\pdl\middleware/ble/cy_ble_gap.h **** *  indicates the current flow of the discovery procedure by
 842:Generated_Source\PSoC6\pdl\middleware/ble/cy_ble_gap.h **** *  #CY_BLE_CONN_STATE_CLIENT_SRVC_DISCOVERING,
 843:Generated_Source\PSoC6\pdl\middleware/ble/cy_ble_gap.h **** *  #CY_BLE_CONN_STATE_CLIENT_INCL_DISCOVERING,
 844:Generated_Source\PSoC6\pdl\middleware/ble/cy_ble_gap.h **** *  #CY_BLE_CONN_STATE_CLIENT_CHAR_DISCOVERING,
 845:Generated_Source\PSoC6\pdl\middleware/ble/cy_ble_gap.h **** *  #CY_BLE_CONN_STATE_CLIENT_DESCR_DISCOVERING and changes to
 846:Generated_Source\PSoC6\pdl\middleware/ble/cy_ble_gap.h **** *  #CY_BLE_CONN_STATE_CLIENT_DISCOVERED when the procedure successfully completes.
 847:Generated_Source\PSoC6\pdl\middleware/ble/cy_ble_gap.h **** *
 848:Generated_Source\PSoC6\pdl\middleware/ble/cy_ble_gap.h **** *  The state changes from #CY_BLE_CONN_STATE_CLIENT_DISCOVERED to
 849:Generated_Source\PSoC6\pdl\middleware/ble/cy_ble_gap.h **** *  #CY_BLE_CONN_STATE_CLIENT_DISCONNECTED_DISCOVERED when
 850:Generated_Source\PSoC6\pdl\middleware/ble/cy_ble_gap.h **** *  the #CY_BLE_EVT_GATT_DISCONNECT_IND event is received.
 851:Generated_Source\PSoC6\pdl\middleware/ble/cy_ble_gap.h **** *  The state comes backs to #CY_BLE_CONN_STATE_CLIENT_DISCOVERED when
 852:Generated_Source\PSoC6\pdl\middleware/ble/cy_ble_gap.h **** *  #CY_BLE_EVT_GATT_CONNECT_IND event is received and resolvable device
 853:Generated_Source\PSoC6\pdl\middleware/ble/cy_ble_gap.h **** *  address is not changed.
 854:Generated_Source\PSoC6\pdl\middleware/ble/cy_ble_gap.h **** *
 855:Generated_Source\PSoC6\pdl\middleware/ble/cy_ble_gap.h **** *  \param connHandle: The connection handle.
 856:Generated_Source\PSoC6\pdl\middleware/ble/cy_ble_gap.h **** *
 857:Generated_Source\PSoC6\pdl\middleware/ble/cy_ble_gap.h **** * \return
 858:Generated_Source\PSoC6\pdl\middleware/ble/cy_ble_gap.h **** * \ref cy_en_ble_conn_state_t : The current client state. The following are
 859:Generated_Source\PSoC6\pdl\middleware/ble/cy_ble_gap.h **** *                               possible states.
 860:Generated_Source\PSoC6\pdl\middleware/ble/cy_ble_gap.h **** *
 861:Generated_Source\PSoC6\pdl\middleware/ble/cy_ble_gap.h **** *               State                                |         Description
 862:Generated_Source\PSoC6\pdl\middleware/ble/cy_ble_gap.h **** *   ------------------------------------------------ | -----------------------------
 863:Generated_Source\PSoC6\pdl\middleware/ble/cy_ble_gap.h **** *   CY_BLE_CONN_STATE_DISCONNECTED                   | Essentially idle state
 864:Generated_Source\PSoC6\pdl\middleware/ble/cy_ble_gap.h **** *   CY_BLE_CONN_STATE_CLIENT_DISCONNECTED_DISCOVERED | Server is disconnected but discovered.
 865:Generated_Source\PSoC6\pdl\middleware/ble/cy_ble_gap.h **** *   CY_BLE_CONN_STATE_CONNECTED                      | Peer device is connected for this and follow
 866:Generated_Source\PSoC6\pdl\middleware/ble/cy_ble_gap.h **** *   CY_BLE_CONN_STATE_CLIENT_SRVC_DISCOVERING        | Server services are being discovered.
 867:Generated_Source\PSoC6\pdl\middleware/ble/cy_ble_gap.h **** *   CY_BLE_CONN_STATE_CLIENT_INCL_DISCOVERING        | Server included services are being discovere
 868:Generated_Source\PSoC6\pdl\middleware/ble/cy_ble_gap.h **** *   CY_BLE_CONN_STATE_CLIENT_CHAR_DISCOVERING        | Server characteristics are being discovered
 869:Generated_Source\PSoC6\pdl\middleware/ble/cy_ble_gap.h **** *   CY_BLE_CONN_STATE_CLIENT_DESCR_DISCOVERING       | Server char. descriptors are being discovere
 870:Generated_Source\PSoC6\pdl\middleware/ble/cy_ble_gap.h **** *   CY_BLE_CONN_STATE_CLIENT_DISCOVERED              | Server is discovered
 871:Generated_Source\PSoC6\pdl\middleware/ble/cy_ble_gap.h **** *
 872:Generated_Source\PSoC6\pdl\middleware/ble/cy_ble_gap.h **** *  \funcusage
 873:Generated_Source\PSoC6\pdl\middleware/ble/cy_ble_gap.h **** *  \snippet ble\3.0\snippet\main.c BLE Common API: Cy_BLE_GetConnectionState()
 874:Generated_Source\PSoC6\pdl\middleware/ble/cy_ble_gap.h **** *
 875:Generated_Source\PSoC6\pdl\middleware/ble/cy_ble_gap.h **** ******************************************************************************/
 876:Generated_Source\PSoC6\pdl\middleware/ble/cy_ble_gap.h **** __STATIC_INLINE cy_en_ble_conn_state_t Cy_BLE_GetConnectionState(cy_stc_ble_conn_handle_t connHandl
 877:Generated_Source\PSoC6\pdl\middleware/ble/cy_ble_gap.h **** {
 878:Generated_Source\PSoC6\pdl\middleware/ble/cy_ble_gap.h ****     return((connHandle.attId < CY_BLE_CONN_COUNT) ? cy_ble_connState[connHandle.attId] : CY_BLE_CON
 879:Generated_Source\PSoC6\pdl\middleware/ble/cy_ble_gap.h **** }
 880:Generated_Source\PSoC6\pdl\middleware/ble/cy_ble_gap.h **** 
 881:Generated_Source\PSoC6\pdl\middleware/ble/cy_ble_gap.h **** /** \cond IGNORE */
 882:Generated_Source\PSoC6\pdl\middleware/ble/cy_ble_gap.h **** /******************************************************************************
 883:Generated_Source\PSoC6\pdl\middleware/ble/cy_ble_gap.h **** * Function Name: Cy_BLE_SetConnectionState
 884:Generated_Source\PSoC6\pdl\middleware/ble/cy_ble_gap.h **** ***************************************************************************//**
 885:Generated_Source\PSoC6\pdl\middleware/ble/cy_ble_gap.h **** *
 886:Generated_Source\PSoC6\pdl\middleware/ble/cy_ble_gap.h **** *  Used to set BLE link state for the specified connection handle.
 887:Generated_Source\PSoC6\pdl\middleware/ble/cy_ble_gap.h **** *
 888:Generated_Source\PSoC6\pdl\middleware/ble/cy_ble_gap.h **** *  \param connHandle: Peer device handle
ARM GAS  C:\Users\haske\AppData\Local\Temp\ccWSfRiA.s 			page 88


 889:Generated_Source\PSoC6\pdl\middleware/ble/cy_ble_gap.h **** *  \param state:  The state that is desired to be set
 890:Generated_Source\PSoC6\pdl\middleware/ble/cy_ble_gap.h **** *
 891:Generated_Source\PSoC6\pdl\middleware/ble/cy_ble_gap.h **** ******************************************************************************/
 892:Generated_Source\PSoC6\pdl\middleware/ble/cy_ble_gap.h **** __STATIC_INLINE void Cy_BLE_SetConnectionState(cy_stc_ble_conn_handle_t connHandle,
 893:Generated_Source\PSoC6\pdl\middleware/ble/cy_ble_gap.h ****                                                cy_en_ble_conn_state_t state)
 894:Generated_Source\PSoC6\pdl\middleware/ble/cy_ble_gap.h **** {
 895:Generated_Source\PSoC6\pdl\middleware/ble/cy_ble_gap.h ****     if(connHandle.attId < CY_BLE_CONN_COUNT)
 896:Generated_Source\PSoC6\pdl\middleware/ble/cy_ble_gap.h ****     {
 897:Generated_Source\PSoC6\pdl\middleware/ble/cy_ble_gap.h ****         cy_ble_connState[connHandle.attId] = state;
 898:Generated_Source\PSoC6\pdl\middleware/ble/cy_ble_gap.h ****     }
 899:Generated_Source\PSoC6\pdl\middleware/ble/cy_ble_gap.h ****     else
 900:Generated_Source\PSoC6\pdl\middleware/ble/cy_ble_gap.h ****     {
 901:Generated_Source\PSoC6\pdl\middleware/ble/cy_ble_gap.h ****         /* Halt in debug mode*/
 902:Generated_Source\PSoC6\pdl\middleware/ble/cy_ble_gap.h ****         CY_ASSERT(connHandle.attId >= CY_BLE_CONN_COUNT);
 903:Generated_Source\PSoC6\pdl\middleware/ble/cy_ble_gap.h ****     }
 904:Generated_Source\PSoC6\pdl\middleware/ble/cy_ble_gap.h **** }
 905:Generated_Source\PSoC6\pdl\middleware/ble/cy_ble_gap.h **** /** \endcond */
 906:Generated_Source\PSoC6\pdl\middleware/ble/cy_ble_gap.h **** 
 907:Generated_Source\PSoC6\pdl\middleware/ble/cy_ble_gap.h **** /******************************************************************************
 908:Generated_Source\PSoC6\pdl\middleware/ble/cy_ble_gap.h **** * Function Name: Cy_BLE_GetNumOfActiveConn
 909:Generated_Source\PSoC6\pdl\middleware/ble/cy_ble_gap.h **** ***************************************************************************//**
 910:Generated_Source\PSoC6\pdl\middleware/ble/cy_ble_gap.h **** *
 911:Generated_Source\PSoC6\pdl\middleware/ble/cy_ble_gap.h **** *  Used to get active number of connections.
 912:Generated_Source\PSoC6\pdl\middleware/ble/cy_ble_gap.h **** *
 913:Generated_Source\PSoC6\pdl\middleware/ble/cy_ble_gap.h **** *  \return
 914:Generated_Source\PSoC6\pdl\middleware/ble/cy_ble_gap.h **** *  connNum - number of active connections
 915:Generated_Source\PSoC6\pdl\middleware/ble/cy_ble_gap.h **** *
 916:Generated_Source\PSoC6\pdl\middleware/ble/cy_ble_gap.h **** ******************************************************************************/
 917:Generated_Source\PSoC6\pdl\middleware/ble/cy_ble_gap.h **** __STATIC_INLINE uint8_t Cy_BLE_GetNumOfActiveConn(void)
 918:Generated_Source\PSoC6\pdl\middleware/ble/cy_ble_gap.h **** {
 919:Generated_Source\PSoC6\pdl\middleware/ble/cy_ble_gap.h ****     uint32_t i;
 920:Generated_Source\PSoC6\pdl\middleware/ble/cy_ble_gap.h ****     uint8_t connNum = 0u;
 921:Generated_Source\PSoC6\pdl\middleware/ble/cy_ble_gap.h **** 
 922:Generated_Source\PSoC6\pdl\middleware/ble/cy_ble_gap.h ****     for(i = 0u; i < CY_BLE_CONN_COUNT; i++)
 1964              		.loc 4 922 0
 1965 000c 0133     		adds	r3, r3, #1
 1966              	.LVL190:
 1967              	.L165:
 1968 000e 002B     		cmp	r3, #0
 1969 0010 FCD0     		beq	.L166
 1970              	.LVL191:
 1971              	.L163:
 1972 0012 7047     		bx	lr
 1973              	.L168:
 1974              		.align	2
 1975              	.L167:
 1976 0014 00000000 		.word	cy_ble_advState
 1977              	.LBE175:
 1978              	.LBE174:
 1979              		.cfi_endproc
 1980              	.LFE987:
 1981              		.size	UpdateLedState, .-UpdateLedState
 1982              		.global	UI_MENU_ITEMS_MIN
 1983              		.global	UI_MENU_ITEMS_MAX
 1984              		.global	UI_MENU_ITEMS_INIT
 1985              		.global	UI_DIAG_MENU_ITEMS
 1986              		.global	UI_BLUETOOTH_MENU_ITEMS
ARM GAS  C:\Users\haske\AppData\Local\Temp\ccWSfRiA.s 			page 89


 1987              		.global	UI_TENS_DUR_MENU_ITEMS
 1988              		.global	UI_TENS_AMP_MENU_ITEMS
 1989              		.global	UI_TENS_FREQ_MENU_ITEMS
 1990              		.global	UI_VIBE_FREQ_MENU_ITEMS
 1991              		.global	UI_VIBE_AMP_MENU_ITEMS
 1992              		.global	UI_TEMP_MENU_ITEMS
 1993              		.global	UI_PRESETS_MENU_ITEMS
 1994              		.global	UI_MAIN_MENU_ITEMS
 1995              		.global	UI_TITLES
 1996              		.comm	cacheMemIndexCol,2,2
 1997              		.comm	cacheMemIndexRow,2,2
 1998              		.section	.rodata
 1999              		.align	2
 2000              		.set	.LANCHOR2,. + 0
 2001              		.type	UI_MENU_ITEMS_MIN, %object
 2002              		.size	UI_MENU_ITEMS_MIN, 40
 2003              	UI_MENU_ITEMS_MIN:
 2004 0000 01000000 		.word	1
 2005 0004 01000000 		.word	1
 2006 0008 F9FFFFFF 		.word	-7
 2007 000c 00000000 		.word	0
 2008 0010 01000000 		.word	1
 2009 0014 01000000 		.word	1
 2010 0018 00000000 		.word	0
 2011 001c 01000000 		.word	1
 2012 0020 00000000 		.word	0
 2013 0024 00000000 		.word	0
 2014              		.type	UI_MENU_ITEMS_MAX, %object
 2015              		.size	UI_MENU_ITEMS_MAX, 40
 2016              	UI_MENU_ITEMS_MAX:
 2017 0028 09000000 		.word	9
 2018 002c 0A000000 		.word	10
 2019 0030 07000000 		.word	7
 2020 0034 0A000000 		.word	10
 2021 0038 0A000000 		.word	10
 2022 003c 0A000000 		.word	10
 2023 0040 0A000000 		.word	10
 2024 0044 0A000000 		.word	10
 2025 0048 00000000 		.word	0
 2026 004c 00000000 		.word	0
 2027              		.type	UI_MAIN_MENU_ITEMS, %object
 2028              		.size	UI_MAIN_MENU_ITEMS, 36
 2029              	UI_MAIN_MENU_ITEMS:
 2030 0050 7C020000 		.word	.LC79
 2031 0054 88020000 		.word	.LC80
 2032 0058 98020000 		.word	.LC81
 2033 005c A4020000 		.word	.LC82
 2034 0060 B0020000 		.word	.LC83
 2035 0064 BC020000 		.word	.LC84
 2036 0068 C8020000 		.word	.LC85
 2037 006c D4020000 		.word	.LC86
 2038 0070 E0020000 		.word	.LC87
 2039              		.type	UI_PRESETS_MENU_ITEMS, %object
 2040              		.size	UI_PRESETS_MENU_ITEMS, 40
 2041              	UI_PRESETS_MENU_ITEMS:
 2042 0074 04020000 		.word	.LC69
 2043 0078 10020000 		.word	.LC70
ARM GAS  C:\Users\haske\AppData\Local\Temp\ccWSfRiA.s 			page 90


 2044 007c 1C020000 		.word	.LC71
 2045 0080 28020000 		.word	.LC72
 2046 0084 34020000 		.word	.LC73
 2047 0088 40020000 		.word	.LC74
 2048 008c 4C020000 		.word	.LC75
 2049 0090 58020000 		.word	.LC76
 2050 0094 64020000 		.word	.LC77
 2051 0098 70020000 		.word	.LC78
 2052              		.type	UI_TEMP_MENU_ITEMS, %object
 2053              		.size	UI_TEMP_MENU_ITEMS, 60
 2054              	UI_TEMP_MENU_ITEMS:
 2055 009c 94010000 		.word	.LC55
 2056 00a0 9C010000 		.word	.LC56
 2057 00a4 A4010000 		.word	.LC57
 2058 00a8 AC010000 		.word	.LC58
 2059 00ac B4010000 		.word	.LC59
 2060 00b0 BC010000 		.word	.LC60
 2061 00b4 C4010000 		.word	.LC61
 2062 00b8 A0000000 		.word	.LC24
 2063 00bc CC010000 		.word	.LC62
 2064 00c0 D4010000 		.word	.LC63
 2065 00c4 DC010000 		.word	.LC64
 2066 00c8 E4010000 		.word	.LC65
 2067 00cc EC010000 		.word	.LC66
 2068 00d0 F4010000 		.word	.LC67
 2069 00d4 FC010000 		.word	.LC68
 2070              		.type	UI_VIBE_AMP_MENU_ITEMS, %object
 2071              		.size	UI_VIBE_AMP_MENU_ITEMS, 44
 2072              	UI_VIBE_AMP_MENU_ITEMS:
 2073 00d8 A0000000 		.word	.LC24
 2074 00dc A4000000 		.word	.LC25
 2075 00e0 AC000000 		.word	.LC26
 2076 00e4 B4000000 		.word	.LC27
 2077 00e8 BC000000 		.word	.LC28
 2078 00ec C4000000 		.word	.LC29
 2079 00f0 CC000000 		.word	.LC30
 2080 00f4 D4000000 		.word	.LC31
 2081 00f8 DC000000 		.word	.LC32
 2082 00fc E4000000 		.word	.LC33
 2083 0100 EC000000 		.word	.LC34
 2084              		.type	UI_VIBE_FREQ_MENU_ITEMS, %object
 2085              		.size	UI_VIBE_FREQ_MENU_ITEMS, 40
 2086              	UI_VIBE_FREQ_MENU_ITEMS:
 2087 0104 44010000 		.word	.LC45
 2088 0108 4C010000 		.word	.LC46
 2089 010c 54010000 		.word	.LC47
 2090 0110 5C010000 		.word	.LC48
 2091 0114 64010000 		.word	.LC49
 2092 0118 6C010000 		.word	.LC50
 2093 011c 74010000 		.word	.LC51
 2094 0120 7C010000 		.word	.LC52
 2095 0124 84010000 		.word	.LC53
 2096 0128 8C010000 		.word	.LC54
 2097              		.type	UI_TENS_FREQ_MENU_ITEMS, %object
 2098              		.size	UI_TENS_FREQ_MENU_ITEMS, 40
 2099              	UI_TENS_FREQ_MENU_ITEMS:
 2100 012c F4000000 		.word	.LC35
ARM GAS  C:\Users\haske\AppData\Local\Temp\ccWSfRiA.s 			page 91


 2101 0130 FC000000 		.word	.LC36
 2102 0134 04010000 		.word	.LC37
 2103 0138 0C010000 		.word	.LC38
 2104 013c 14010000 		.word	.LC39
 2105 0140 1C010000 		.word	.LC40
 2106 0144 24010000 		.word	.LC41
 2107 0148 2C010000 		.word	.LC42
 2108 014c 34010000 		.word	.LC43
 2109 0150 3C010000 		.word	.LC44
 2110              		.type	UI_TENS_AMP_MENU_ITEMS, %object
 2111              		.size	UI_TENS_AMP_MENU_ITEMS, 44
 2112              	UI_TENS_AMP_MENU_ITEMS:
 2113 0154 A0000000 		.word	.LC24
 2114 0158 A4000000 		.word	.LC25
 2115 015c AC000000 		.word	.LC26
 2116 0160 B4000000 		.word	.LC27
 2117 0164 BC000000 		.word	.LC28
 2118 0168 C4000000 		.word	.LC29
 2119 016c CC000000 		.word	.LC30
 2120 0170 D4000000 		.word	.LC31
 2121 0174 DC000000 		.word	.LC32
 2122 0178 E4000000 		.word	.LC33
 2123 017c EC000000 		.word	.LC34
 2124              		.type	UI_TENS_DUR_MENU_ITEMS, %object
 2125              		.size	UI_TENS_DUR_MENU_ITEMS, 40
 2126              	UI_TENS_DUR_MENU_ITEMS:
 2127 0180 6C000000 		.word	.LC14
 2128 0184 70000000 		.word	.LC15
 2129 0188 74000000 		.word	.LC16
 2130 018c 78000000 		.word	.LC17
 2131 0190 7C000000 		.word	.LC18
 2132 0194 80000000 		.word	.LC19
 2133 0198 84000000 		.word	.LC20
 2134 019c 88000000 		.word	.LC21
 2135 01a0 90000000 		.word	.LC22
 2136 01a4 98000000 		.word	.LC23
 2137              		.type	UI_MENU_ITEMS_INIT, %object
 2138              		.size	UI_MENU_ITEMS_INIT, 40
 2139              	UI_MENU_ITEMS_INIT:
 2140 01a8 01000000 		.word	1
 2141 01ac 01000000 		.word	1
 2142 01b0 00000000 		.word	0
 2143 01b4 00000000 		.word	0
 2144 01b8 01000000 		.word	1
 2145 01bc 01000000 		.word	1
 2146 01c0 00000000 		.word	0
 2147 01c4 01000000 		.word	1
 2148 01c8 00000000 		.word	0
 2149 01cc 00000000 		.word	0
 2150              		.type	UI_DIAG_MENU_ITEMS, %object
 2151              		.size	UI_DIAG_MENU_ITEMS, 4
 2152              	UI_DIAG_MENU_ITEMS:
 2153 01d0 0C000000 		.word	.LC2
 2154              		.type	UI_BLUETOOTH_MENU_ITEMS, %object
 2155              		.size	UI_BLUETOOTH_MENU_ITEMS, 4
 2156              	UI_BLUETOOTH_MENU_ITEMS:
 2157 01d4 04000000 		.word	.LC1
ARM GAS  C:\Users\haske\AppData\Local\Temp\ccWSfRiA.s 			page 92


 2158              		.type	UI_TITLES, %object
 2159              		.size	UI_TITLES, 40
 2160              	UI_TITLES:
 2161 01d8 F0020000 		.word	.LC88
 2162 01dc FC020000 		.word	.LC89
 2163 01e0 0C030000 		.word	.LC90
 2164 01e4 20030000 		.word	.LC91
 2165 01e8 34030000 		.word	.LC92
 2166 01ec 48030000 		.word	.LC93
 2167 01f0 58030000 		.word	.LC94
 2168 01f4 68030000 		.word	.LC95
 2169 01f8 78030000 		.word	.LC96
 2170 01fc 8C030000 		.word	.LC97
 2171              		.data
 2172              		.align	2
 2173              		.set	.LANCHOR0,. + 0
 2174              		.type	tens_timeout, %object
 2175              		.size	tens_timeout, 4
 2176              	tens_timeout:
 2177 0000 FFFFFFFF 		.word	-1
 2178              		.section	.rodata.str1.4,"aMS",%progbits,1
 2179              		.align	2
 2180              	.LC0:
 2181 0000 2D00     		.ascii	"-\000"
 2182 0002 0000     		.space	2
 2183              	.LC1:
 2184 0004 50616972 		.ascii	"Pair\000"
 2184      00
 2185 0009 000000   		.space	3
 2186              	.LC2:
 2187 000c 00       		.ascii	"\000"
 2188 000d 000000   		.space	3
 2189              	.LC3:
 2190 0010 56425553 		.ascii	"VBUS:%d\000"
 2190      3A256400 
 2191              	.LC4:
 2192 0018 43485247 		.ascii	"CHRG:%d\000"
 2192      3A256400 
 2193              	.LC5:
 2194 0020 44504D3A 		.ascii	"DPM:%d\000"
 2194      256400
 2195 0027 00       		.space	1
 2196              	.LC6:
 2197 0028 50473A25 		.ascii	"PG:%d\000"
 2197      6400
 2198 002e 0000     		.space	2
 2199              	.LC7:
 2200 0030 54484552 		.ascii	"THERM:%d\000"
 2200      4D3A2564 
 2200      00
 2201 0039 000000   		.space	3
 2202              	.LC8:
 2203 003c 56535953 		.ascii	"VSYS:%d\000"
 2203      3A256400 
 2204              	.LC9:
 2205 0044 57544446 		.ascii	"WTDF:%d\000"
 2205      3A256400 
ARM GAS  C:\Users\haske\AppData\Local\Temp\ccWSfRiA.s 			page 93


 2206              	.LC10:
 2207 004c 4F544746 		.ascii	"OTGF:%d\000"
 2207      3A256400 
 2208              	.LC11:
 2209 0054 43484746 		.ascii	"CHGF:%d\000"
 2209      3A256400 
 2210              	.LC12:
 2211 005c 42415446 		.ascii	"BATF:%d\000"
 2211      3A256400 
 2212              	.LC13:
 2213 0064 4E544346 		.ascii	"NTCF:%d\000"
 2213      3A256400 
 2214              	.LC14:
 2215 006c 33303000 		.ascii	"300\000"
 2216              	.LC15:
 2217 0070 34303000 		.ascii	"400\000"
 2218              	.LC16:
 2219 0074 35303000 		.ascii	"500\000"
 2220              	.LC17:
 2221 0078 36303000 		.ascii	"600\000"
 2222              	.LC18:
 2223 007c 37303000 		.ascii	"700\000"
 2224              	.LC19:
 2225 0080 38303000 		.ascii	"800\000"
 2226              	.LC20:
 2227 0084 39303000 		.ascii	"900\000"
 2228              	.LC21:
 2229 0088 31303030 		.ascii	"1000\000"
 2229      00
 2230 008d 000000   		.space	3
 2231              	.LC22:
 2232 0090 31313030 		.ascii	"1100\000"
 2232      00
 2233 0095 000000   		.space	3
 2234              	.LC23:
 2235 0098 31323030 		.ascii	"1200\000"
 2235      00
 2236 009d 000000   		.space	3
 2237              	.LC24:
 2238 00a0 4F666600 		.ascii	"Off\000"
 2239              	.LC25:
 2240 00a4 416D702D 		.ascii	"Amp-1\000"
 2240      3100
 2241 00aa 0000     		.space	2
 2242              	.LC26:
 2243 00ac 416D702D 		.ascii	"Amp-2\000"
 2243      3200
 2244 00b2 0000     		.space	2
 2245              	.LC27:
 2246 00b4 416D702D 		.ascii	"Amp-3\000"
 2246      3300
 2247 00ba 0000     		.space	2
 2248              	.LC28:
 2249 00bc 416D702D 		.ascii	"Amp-4\000"
 2249      3400
 2250 00c2 0000     		.space	2
 2251              	.LC29:
ARM GAS  C:\Users\haske\AppData\Local\Temp\ccWSfRiA.s 			page 94


 2252 00c4 416D702D 		.ascii	"Amp-5\000"
 2252      3500
 2253 00ca 0000     		.space	2
 2254              	.LC30:
 2255 00cc 416D702D 		.ascii	"Amp-6\000"
 2255      3600
 2256 00d2 0000     		.space	2
 2257              	.LC31:
 2258 00d4 416D702D 		.ascii	"Amp-7\000"
 2258      3700
 2259 00da 0000     		.space	2
 2260              	.LC32:
 2261 00dc 416D702D 		.ascii	"Amp-8\000"
 2261      3800
 2262 00e2 0000     		.space	2
 2263              	.LC33:
 2264 00e4 416D702D 		.ascii	"Amp-9\000"
 2264      3900
 2265 00ea 0000     		.space	2
 2266              	.LC34:
 2267 00ec 416D702D 		.ascii	"Amp-10\000"
 2267      313000
 2268 00f3 00       		.space	1
 2269              	.LC35:
 2270 00f4 3120487A 		.ascii	"1 Hz\000"
 2270      00
 2271 00f9 000000   		.space	3
 2272              	.LC36:
 2273 00fc 3220487A 		.ascii	"2 Hz\000"
 2273      00
 2274 0101 000000   		.space	3
 2275              	.LC37:
 2276 0104 3320487A 		.ascii	"3 Hz\000"
 2276      00
 2277 0109 000000   		.space	3
 2278              	.LC38:
 2279 010c 3420487A 		.ascii	"4 Hz\000"
 2279      00
 2280 0111 000000   		.space	3
 2281              	.LC39:
 2282 0114 3520487A 		.ascii	"5 Hz\000"
 2282      00
 2283 0119 000000   		.space	3
 2284              	.LC40:
 2285 011c 3620487A 		.ascii	"6 Hz\000"
 2285      00
 2286 0121 000000   		.space	3
 2287              	.LC41:
 2288 0124 3720487A 		.ascii	"7 Hz\000"
 2288      00
 2289 0129 000000   		.space	3
 2290              	.LC42:
 2291 012c 3820487A 		.ascii	"8 Hz\000"
 2291      00
 2292 0131 000000   		.space	3
 2293              	.LC43:
 2294 0134 3920487A 		.ascii	"9 Hz\000"
ARM GAS  C:\Users\haske\AppData\Local\Temp\ccWSfRiA.s 			page 95


 2294      00
 2295 0139 000000   		.space	3
 2296              	.LC44:
 2297 013c 31302048 		.ascii	"10 Hz\000"
 2297      7A00
 2298 0142 0000     		.space	2
 2299              	.LC45:
 2300 0144 46726571 		.ascii	"Freq-1\000"
 2300      2D3100
 2301 014b 00       		.space	1
 2302              	.LC46:
 2303 014c 46726571 		.ascii	"Freq-2\000"
 2303      2D3200
 2304 0153 00       		.space	1
 2305              	.LC47:
 2306 0154 46726571 		.ascii	"Freq-3\000"
 2306      2D3300
 2307 015b 00       		.space	1
 2308              	.LC48:
 2309 015c 46726571 		.ascii	"Freq-4\000"
 2309      2D3400
 2310 0163 00       		.space	1
 2311              	.LC49:
 2312 0164 46726571 		.ascii	"Freq-5\000"
 2312      2D3500
 2313 016b 00       		.space	1
 2314              	.LC50:
 2315 016c 46726571 		.ascii	"Freq-6\000"
 2315      2D3600
 2316 0173 00       		.space	1
 2317              	.LC51:
 2318 0174 46726571 		.ascii	"Freq-7\000"
 2318      2D3700
 2319 017b 00       		.space	1
 2320              	.LC52:
 2321 017c 46726571 		.ascii	"Freq-8\000"
 2321      2D3800
 2322 0183 00       		.space	1
 2323              	.LC53:
 2324 0184 46726571 		.ascii	"Freq-9\000"
 2324      2D3900
 2325 018b 00       		.space	1
 2326              	.LC54:
 2327 018c 46726571 		.ascii	"Freq-10\000"
 2327      2D313000 
 2328              	.LC55:
 2329 0194 436F6C64 		.ascii	"Cold-7\000"
 2329      2D3700
 2330 019b 00       		.space	1
 2331              	.LC56:
 2332 019c 436F6C64 		.ascii	"Cold-6\000"
 2332      2D3600
 2333 01a3 00       		.space	1
 2334              	.LC57:
 2335 01a4 436F6C64 		.ascii	"Cold-5\000"
 2335      2D3500
 2336 01ab 00       		.space	1
ARM GAS  C:\Users\haske\AppData\Local\Temp\ccWSfRiA.s 			page 96


 2337              	.LC58:
 2338 01ac 436F6C64 		.ascii	"Cold-4\000"
 2338      2D3400
 2339 01b3 00       		.space	1
 2340              	.LC59:
 2341 01b4 436F6C64 		.ascii	"Cold-3\000"
 2341      2D3300
 2342 01bb 00       		.space	1
 2343              	.LC60:
 2344 01bc 436F6C64 		.ascii	"Cold-2\000"
 2344      2D3200
 2345 01c3 00       		.space	1
 2346              	.LC61:
 2347 01c4 436F6C64 		.ascii	"Cold-1\000"
 2347      2D3100
 2348 01cb 00       		.space	1
 2349              	.LC62:
 2350 01cc 486F742D 		.ascii	"Hot-1\000"
 2350      3100
 2351 01d2 0000     		.space	2
 2352              	.LC63:
 2353 01d4 486F742D 		.ascii	"Hot-2\000"
 2353      3200
 2354 01da 0000     		.space	2
 2355              	.LC64:
 2356 01dc 486F742D 		.ascii	"Hot-3\000"
 2356      3300
 2357 01e2 0000     		.space	2
 2358              	.LC65:
 2359 01e4 486F742D 		.ascii	"Hot-4\000"
 2359      3400
 2360 01ea 0000     		.space	2
 2361              	.LC66:
 2362 01ec 486F742D 		.ascii	"Hot-5\000"
 2362      3500
 2363 01f2 0000     		.space	2
 2364              	.LC67:
 2365 01f4 486F742D 		.ascii	"Hot-6\000"
 2365      3600
 2366 01fa 0000     		.space	2
 2367              	.LC68:
 2368 01fc 486F742D 		.ascii	"Hot-7\000"
 2368      3700
 2369 0202 0000     		.space	2
 2370              	.LC69:
 2371 0204 50726573 		.ascii	"Preset-1\000"
 2371      65742D31 
 2371      00
 2372 020d 000000   		.space	3
 2373              	.LC70:
 2374 0210 50726573 		.ascii	"Preset-2\000"
 2374      65742D32 
 2374      00
 2375 0219 000000   		.space	3
 2376              	.LC71:
 2377 021c 50726573 		.ascii	"Preset-3\000"
 2377      65742D33 
ARM GAS  C:\Users\haske\AppData\Local\Temp\ccWSfRiA.s 			page 97


 2377      00
 2378 0225 000000   		.space	3
 2379              	.LC72:
 2380 0228 50726573 		.ascii	"Preset-4\000"
 2380      65742D34 
 2380      00
 2381 0231 000000   		.space	3
 2382              	.LC73:
 2383 0234 50726573 		.ascii	"Preset-5\000"
 2383      65742D35 
 2383      00
 2384 023d 000000   		.space	3
 2385              	.LC74:
 2386 0240 50726573 		.ascii	"Preset-6\000"
 2386      65742D36 
 2386      00
 2387 0249 000000   		.space	3
 2388              	.LC75:
 2389 024c 50726573 		.ascii	"Preset-7\000"
 2389      65742D37 
 2389      00
 2390 0255 000000   		.space	3
 2391              	.LC76:
 2392 0258 50726573 		.ascii	"Preset-8\000"
 2392      65742D38 
 2392      00
 2393 0261 000000   		.space	3
 2394              	.LC77:
 2395 0264 50726573 		.ascii	"Preset-9\000"
 2395      65742D39 
 2395      00
 2396 026d 000000   		.space	3
 2397              	.LC78:
 2398 0270 50726573 		.ascii	"Preset-10\000"
 2398      65742D31 
 2398      3000
 2399 027a 0000     		.space	2
 2400              	.LC79:
 2401 027c 5072652D 		.ascii	"Pre-sets\000"
 2401      73657473 
 2401      00
 2402 0285 000000   		.space	3
 2403              	.LC80:
 2404 0288 54656D70 		.ascii	"Temper-ature\000"
 2404      65722D61 
 2404      74757265 
 2404      00
 2405 0295 000000   		.space	3
 2406              	.LC81:
 2407 0298 56696265 		.ascii	"Vibe-amp\000"
 2407      2D616D70 
 2407      00
 2408 02a1 000000   		.space	3
 2409              	.LC82:
 2410 02a4 56696265 		.ascii	"Vibe-freq\000"
 2410      2D667265 
 2410      7100
ARM GAS  C:\Users\haske\AppData\Local\Temp\ccWSfRiA.s 			page 98


 2411 02ae 0000     		.space	2
 2412              	.LC83:
 2413 02b0 54454E53 		.ascii	"TENS-freq\000"
 2413      2D667265 
 2413      7100
 2414 02ba 0000     		.space	2
 2415              	.LC84:
 2416 02bc 54454E53 		.ascii	"TENS-Amp\000"
 2416      2D416D70 
 2416      00
 2417 02c5 000000   		.space	3
 2418              	.LC85:
 2419 02c8 54454E53 		.ascii	"TENS-Dur\000"
 2419      2D447572 
 2419      00
 2420 02d1 000000   		.space	3
 2421              	.LC86:
 2422 02d4 426C7565 		.ascii	"Blue-tooth\000"
 2422      2D746F6F 
 2422      746800
 2423 02df 00       		.space	1
 2424              	.LC87:
 2425 02e0 44696167 		.ascii	"Diagno-stics\000"
 2425      6E6F2D73 
 2425      74696373 
 2425      00
 2426 02ed 000000   		.space	3
 2427              	.LC88:
 2428 02f0 4D61696E 		.ascii	"Main Menu\000"
 2428      204D656E 
 2428      7500
 2429 02fa 0000     		.space	2
 2430              	.LC89:
 2431 02fc 50726573 		.ascii	"Presets Menu\000"
 2431      65747320 
 2431      4D656E75 
 2431      00
 2432 0309 000000   		.space	3
 2433              	.LC90:
 2434 030c 54656D70 		.ascii	"Temperature Menu\000"
 2434      65726174 
 2434      75726520 
 2434      4D656E75 
 2434      00
 2435 031d 000000   		.space	3
 2436              	.LC91:
 2437 0320 56696272 		.ascii	"Vibration Amplitude\000"
 2437      6174696F 
 2437      6E20416D 
 2437      706C6974 
 2437      75646500 
 2438              	.LC92:
 2439 0334 56696272 		.ascii	"Vibration Frequency\000"
 2439      6174696F 
 2439      6E204672 
 2439      65717565 
 2439      6E637900 
ARM GAS  C:\Users\haske\AppData\Local\Temp\ccWSfRiA.s 			page 99


 2440              	.LC93:
 2441 0348 54454E53 		.ascii	"TENS Frequency\000"
 2441      20467265 
 2441      7175656E 
 2441      637900
 2442 0357 00       		.space	1
 2443              	.LC94:
 2444 0358 54454E53 		.ascii	"TENS Amplitude\000"
 2444      20416D70 
 2444      6C697475 
 2444      646500
 2445 0367 00       		.space	1
 2446              	.LC95:
 2447 0368 54454E53 		.ascii	"TENS Duration\000"
 2447      20447572 
 2447      6174696F 
 2447      6E00
 2448 0376 0000     		.space	2
 2449              	.LC96:
 2450 0378 426C7565 		.ascii	"Bluetooth Settings\000"
 2450      746F6F74 
 2450      68205365 
 2450      7474696E 
 2450      677300
 2451 038b 00       		.space	1
 2452              	.LC97:
 2453 038c 44696167 		.ascii	"Diagnostics\000"
 2453      6E6F7374 
 2453      69637300 
 2454              		.bss
 2455              		.align	2
 2456              		.set	.LANCHOR1,. + 0
 2457              		.type	ui_timeout, %object
 2458              		.size	ui_timeout, 4
 2459              	ui_timeout:
 2460 0000 00000000 		.space	4
 2461              		.type	btn_timeout, %object
 2462              		.size	btn_timeout, 12
 2463              	btn_timeout:
 2464 0004 00000000 		.space	12
 2464      00000000 
 2464      00000000 
 2465              		.type	vibe_timeout, %object
 2466              		.size	vibe_timeout, 4
 2467              	vibe_timeout:
 2468 0010 00000000 		.space	4
 2469              		.type	tens_dur_us, %object
 2470              		.size	tens_dur_us, 4
 2471              	tens_dur_us:
 2472 0014 00000000 		.space	4
 2473              		.type	tens_interval_ms, %object
 2474              		.size	tens_interval_ms, 4
 2475              	tens_interval_ms:
 2476 0018 00000000 		.space	4
 2477              		.type	ui_menu_item, %object
 2478              		.size	ui_menu_item, 40
 2479              	ui_menu_item:
ARM GAS  C:\Users\haske\AppData\Local\Temp\ccWSfRiA.s 			page 100


 2480 001c 00000000 		.space	40
 2480      00000000 
 2480      00000000 
 2480      00000000 
 2480      00000000 
 2481              		.type	vibe_state, %object
 2482              		.size	vibe_state, 4
 2483              	vibe_state:
 2484 0044 00000000 		.space	4
 2485              		.type	vibe_amp, %object
 2486              		.size	vibe_amp, 4
 2487              	vibe_amp:
 2488 0048 00000000 		.space	4
 2489              		.type	ui_menu_state, %object
 2490              		.size	ui_menu_state, 4
 2491              	ui_menu_state:
 2492 004c 00000000 		.space	4
 2493              		.type	ui_menu, %object
 2494              		.size	ui_menu, 4
 2495              	ui_menu:
 2496 0050 00000000 		.space	4
 2497              		.type	btn_state, %object
 2498              		.size	btn_state, 12
 2499              	btn_state:
 2500 0054 00000000 		.space	12
 2500      00000000 
 2500      00000000 
 2501              		.type	btn_events, %object
 2502              		.size	btn_events, 12
 2503              	btn_events:
 2504 0060 00000000 		.space	12
 2504      00000000 
 2504      00000000 
 2505              		.type	ui_state, %object
 2506              		.size	ui_state, 4
 2507              	ui_state:
 2508 006c 00000000 		.space	4
 2509              		.text
 2510              	.Letext0:
 2511              		.file 5 "c:\\program files (x86)\\cypress\\psoc creator\\4.4\\psoc creator\\import\\gnu\\arm\\5.4.
 2512              		.file 6 "c:\\program files (x86)\\cypress\\psoc creator\\4.4\\psoc creator\\import\\gnu\\arm\\5.4.
 2513              		.file 7 "Generated_Source\\PSoC6\\pdl\\devices/psoc6/include/ip/cyip_gpio.h"
 2514              		.file 8 "Generated_Source\\PSoC6\\pdl\\devices/psoc6/include/ip/cyip_tcpwm.h"
 2515              		.file 9 "Generated_Source\\PSoC6\\pdl\\devices/psoc6/include/psoc6_01_config.h"
 2516              		.file 10 "Generated_Source\\PSoC6\\pdl\\drivers/peripheral/device/cy_device.h"
 2517              		.file 11 "Generated_Source\\PSoC6\\pdl\\drivers/peripheral/syslib/cy_syslib.h"
 2518              		.file 12 "Generated_Source\\PSoC6\\pdl\\drivers/peripheral/syspm/cy_syspm.h"
 2519              		.file 13 "Generated_Source\\PSoC6\\pdl\\drivers/peripheral/i2s/cy_i2s.h"
 2520              		.file 14 "Generated_Source\\PSoC6\\pdl\\drivers/peripheral/sar/cy_sar.h"
 2521              		.file 15 "Generated_Source\\PSoC6\\pdl\\drivers/peripheral/scb/cy_scb_spi.h"
 2522              		.file 16 "Generated_Source\\PSoC6\\pdl\\middleware/ble/cy_ble_stack.h"
 2523              		.file 17 "Generated_Source\\PSoC6\\pdl\\middleware/ble/cy_ble_stack_host_main.h"
 2524              		.file 18 "Generated_Source\\PSoC6/ADC.h"
 2525              		.file 19 "Generated_Source\\PSoC6/PWM_TENS.h"
 2526              		.file 20 "Generated_Source\\PSoC6/PWM_FAN.h"
 2527              		.file 21 "Generated_Source\\PSoC6\\pdl\\cmsis/include/core_cm4.h"
 2528              		.file 22 "Generated_Source\\PSoC6/SPI.h"
ARM GAS  C:\Users\haske\AppData\Local\Temp\ccWSfRiA.s 			page 101


 2529              		.file 23 "Generated_Source\\PSoC6/PWM_TENS2.h"
 2530              		.file 24 "Generated_Source\\PSoC6/AMP_PWM.h"
 2531              		.file 25 "Generated_Source\\PSoC6/LCD_PWM.h"
 2532              		.file 26 "Generated_Source\\PSoC6/I2S.h"
 2533              		.file 27 "Generated_Source\\PSoC6/PWM_PEL1.h"
 2534              		.file 28 "Generated_Source\\PSoC6/PWM_PEL2.h"
 2535              		.file 29 "st7735.h"
 2536              		.file 30 "c:\\program files (x86)\\cypress\\psoc creator\\4.4\\psoc creator\\import\\gnu\\arm\\5.4
 2537              		.file 31 "power.h"
 2538              		.file 32 "c:\\program files (x86)\\cypress\\psoc creator\\4.4\\psoc creator\\import\\gnu\\arm\\5.4
 2539              		.section	.debug_info,"",%progbits
 2540              	.Ldebug_info0:
 2541 0000 79280000 		.4byte	0x2879
 2542 0004 0400     		.2byte	0x4
 2543 0006 00000000 		.4byte	.Ldebug_abbrev0
 2544 000a 04       		.byte	0x4
 2545 000b 01       		.uleb128 0x1
 2546 000c 26170000 		.4byte	.LASF528
 2547 0010 0C       		.byte	0xc
 2548 0011 AA160000 		.4byte	.LASF529
 2549 0015 24240000 		.4byte	.LASF530
 2550 0019 00000000 		.4byte	.Ldebug_ranges0+0
 2551 001d 00000000 		.4byte	0
 2552 0021 00000000 		.4byte	.Ldebug_line0
 2553 0025 02       		.uleb128 0x2
 2554 0026 02       		.byte	0x2
 2555 0027 05       		.byte	0x5
 2556 0028 33220000 		.4byte	.LASF0
 2557 002c 02       		.uleb128 0x2
 2558 002d 01       		.byte	0x1
 2559 002e 06       		.byte	0x6
 2560 002f 6A080000 		.4byte	.LASF1
 2561 0033 03       		.uleb128 0x3
 2562 0034 F0040000 		.4byte	.LASF3
 2563 0038 05       		.byte	0x5
 2564 0039 1D       		.byte	0x1d
 2565 003a 3E000000 		.4byte	0x3e
 2566 003e 02       		.uleb128 0x2
 2567 003f 01       		.byte	0x1
 2568 0040 08       		.byte	0x8
 2569 0041 50090000 		.4byte	.LASF2
 2570 0045 03       		.uleb128 0x3
 2571 0046 9C1F0000 		.4byte	.LASF4
 2572 004a 05       		.byte	0x5
 2573 004b 29       		.byte	0x29
 2574 004c 25000000 		.4byte	0x25
 2575 0050 03       		.uleb128 0x3
 2576 0051 2D070000 		.4byte	.LASF5
 2577 0055 05       		.byte	0x5
 2578 0056 2B       		.byte	0x2b
 2579 0057 5B000000 		.4byte	0x5b
 2580 005b 02       		.uleb128 0x2
 2581 005c 02       		.byte	0x2
 2582 005d 07       		.byte	0x7
 2583 005e ED250000 		.4byte	.LASF6
 2584 0062 03       		.uleb128 0x3
 2585 0063 28270000 		.4byte	.LASF7
ARM GAS  C:\Users\haske\AppData\Local\Temp\ccWSfRiA.s 			page 102


 2586 0067 05       		.byte	0x5
 2587 0068 3F       		.byte	0x3f
 2588 0069 6D000000 		.4byte	0x6d
 2589 006d 02       		.uleb128 0x2
 2590 006e 04       		.byte	0x4
 2591 006f 05       		.byte	0x5
 2592 0070 EF050000 		.4byte	.LASF8
 2593 0074 03       		.uleb128 0x3
 2594 0075 88140000 		.4byte	.LASF9
 2595 0079 05       		.byte	0x5
 2596 007a 41       		.byte	0x41
 2597 007b 7F000000 		.4byte	0x7f
 2598 007f 02       		.uleb128 0x2
 2599 0080 04       		.byte	0x4
 2600 0081 07       		.byte	0x7
 2601 0082 E3100000 		.4byte	.LASF10
 2602 0086 02       		.uleb128 0x2
 2603 0087 08       		.byte	0x8
 2604 0088 05       		.byte	0x5
 2605 0089 A9140000 		.4byte	.LASF11
 2606 008d 02       		.uleb128 0x2
 2607 008e 08       		.byte	0x8
 2608 008f 07       		.byte	0x7
 2609 0090 671C0000 		.4byte	.LASF12
 2610 0094 04       		.uleb128 0x4
 2611 0095 04       		.byte	0x4
 2612 0096 05       		.byte	0x5
 2613 0097 696E7400 		.ascii	"int\000"
 2614 009b 02       		.uleb128 0x2
 2615 009c 04       		.byte	0x4
 2616 009d 07       		.byte	0x7
 2617 009e C3160000 		.4byte	.LASF13
 2618 00a2 03       		.uleb128 0x3
 2619 00a3 98080000 		.4byte	.LASF14
 2620 00a7 06       		.byte	0x6
 2621 00a8 18       		.byte	0x18
 2622 00a9 33000000 		.4byte	0x33
 2623 00ad 03       		.uleb128 0x3
 2624 00ae B5220000 		.4byte	.LASF15
 2625 00b2 06       		.byte	0x6
 2626 00b3 20       		.byte	0x20
 2627 00b4 45000000 		.4byte	0x45
 2628 00b8 03       		.uleb128 0x3
 2629 00b9 C91C0000 		.4byte	.LASF16
 2630 00bd 06       		.byte	0x6
 2631 00be 24       		.byte	0x24
 2632 00bf 50000000 		.4byte	0x50
 2633 00c3 03       		.uleb128 0x3
 2634 00c4 D81E0000 		.4byte	.LASF17
 2635 00c8 06       		.byte	0x6
 2636 00c9 2C       		.byte	0x2c
 2637 00ca 62000000 		.4byte	0x62
 2638 00ce 03       		.uleb128 0x3
 2639 00cf 5A250000 		.4byte	.LASF18
 2640 00d3 06       		.byte	0x6
 2641 00d4 30       		.byte	0x30
 2642 00d5 74000000 		.4byte	0x74
ARM GAS  C:\Users\haske\AppData\Local\Temp\ccWSfRiA.s 			page 103


 2643 00d9 02       		.uleb128 0x2
 2644 00da 04       		.byte	0x4
 2645 00db 07       		.byte	0x7
 2646 00dc A8000000 		.4byte	.LASF19
 2647 00e0 05       		.uleb128 0x5
 2648 00e1 CE000000 		.4byte	0xce
 2649 00e5 06       		.uleb128 0x6
 2650 00e6 E0000000 		.4byte	0xe0
 2651 00ea 07       		.uleb128 0x7
 2652 00eb E5000000 		.4byte	0xe5
 2653 00ef FA000000 		.4byte	0xfa
 2654 00f3 08       		.uleb128 0x8
 2655 00f4 D9000000 		.4byte	0xd9
 2656 00f8 0F       		.byte	0xf
 2657 00f9 00       		.byte	0
 2658 00fa 09       		.uleb128 0x9
 2659 00fb 80       		.byte	0x80
 2660 00fc 07       		.byte	0x7
 2661 00fd 22       		.byte	0x22
 2662 00fe CE010000 		.4byte	0x1ce
 2663 0102 0A       		.uleb128 0xa
 2664 0103 4F555400 		.ascii	"OUT\000"
 2665 0107 07       		.byte	0x7
 2666 0108 23       		.byte	0x23
 2667 0109 E0000000 		.4byte	0xe0
 2668 010d 00       		.byte	0
 2669 010e 0B       		.uleb128 0xb
 2670 010f E2020000 		.4byte	.LASF20
 2671 0113 07       		.byte	0x7
 2672 0114 24       		.byte	0x24
 2673 0115 E0000000 		.4byte	0xe0
 2674 0119 04       		.byte	0x4
 2675 011a 0B       		.uleb128 0xb
 2676 011b C2020000 		.4byte	.LASF21
 2677 011f 07       		.byte	0x7
 2678 0120 25       		.byte	0x25
 2679 0121 E0000000 		.4byte	0xe0
 2680 0125 08       		.byte	0x8
 2681 0126 0B       		.uleb128 0xb
 2682 0127 D6240000 		.4byte	.LASF22
 2683 012b 07       		.byte	0x7
 2684 012c 26       		.byte	0x26
 2685 012d E0000000 		.4byte	0xe0
 2686 0131 0C       		.byte	0xc
 2687 0132 0A       		.uleb128 0xa
 2688 0133 494E00   		.ascii	"IN\000"
 2689 0136 07       		.byte	0x7
 2690 0137 27       		.byte	0x27
 2691 0138 E5000000 		.4byte	0xe5
 2692 013c 10       		.byte	0x10
 2693 013d 0B       		.uleb128 0xb
 2694 013e BC120000 		.4byte	.LASF23
 2695 0142 07       		.byte	0x7
 2696 0143 28       		.byte	0x28
 2697 0144 E0000000 		.4byte	0xe0
 2698 0148 14       		.byte	0x14
 2699 0149 0B       		.uleb128 0xb
ARM GAS  C:\Users\haske\AppData\Local\Temp\ccWSfRiA.s 			page 104


 2700 014a 6D030000 		.4byte	.LASF24
 2701 014e 07       		.byte	0x7
 2702 014f 29       		.byte	0x29
 2703 0150 E0000000 		.4byte	0xe0
 2704 0154 18       		.byte	0x18
 2705 0155 0B       		.uleb128 0xb
 2706 0156 621B0000 		.4byte	.LASF25
 2707 015a 07       		.byte	0x7
 2708 015b 2A       		.byte	0x2a
 2709 015c E5000000 		.4byte	0xe5
 2710 0160 1C       		.byte	0x1c
 2711 0161 0B       		.uleb128 0xb
 2712 0162 151B0000 		.4byte	.LASF26
 2713 0166 07       		.byte	0x7
 2714 0167 2B       		.byte	0x2b
 2715 0168 E0000000 		.4byte	0xe0
 2716 016c 20       		.byte	0x20
 2717 016d 0B       		.uleb128 0xb
 2718 016e E9120000 		.4byte	.LASF27
 2719 0172 07       		.byte	0x7
 2720 0173 2C       		.byte	0x2c
 2721 0174 E0000000 		.4byte	0xe0
 2722 0178 24       		.byte	0x24
 2723 0179 0A       		.uleb128 0xa
 2724 017a 43464700 		.ascii	"CFG\000"
 2725 017e 07       		.byte	0x7
 2726 017f 2D       		.byte	0x2d
 2727 0180 E0000000 		.4byte	0xe0
 2728 0184 28       		.byte	0x28
 2729 0185 0B       		.uleb128 0xb
 2730 0186 F20C0000 		.4byte	.LASF28
 2731 018a 07       		.byte	0x7
 2732 018b 2E       		.byte	0x2e
 2733 018c E0000000 		.4byte	0xe0
 2734 0190 2C       		.byte	0x2c
 2735 0191 0B       		.uleb128 0xb
 2736 0192 C9140000 		.4byte	.LASF29
 2737 0196 07       		.byte	0x7
 2738 0197 2F       		.byte	0x2f
 2739 0198 E0000000 		.4byte	0xe0
 2740 019c 30       		.byte	0x30
 2741 019d 0B       		.uleb128 0xb
 2742 019e 34200000 		.4byte	.LASF30
 2743 01a2 07       		.byte	0x7
 2744 01a3 30       		.byte	0x30
 2745 01a4 E0000000 		.4byte	0xe0
 2746 01a8 34       		.byte	0x34
 2747 01a9 0B       		.uleb128 0xb
 2748 01aa 140F0000 		.4byte	.LASF31
 2749 01ae 07       		.byte	0x7
 2750 01af 31       		.byte	0x31
 2751 01b0 E5000000 		.4byte	0xe5
 2752 01b4 38       		.byte	0x38
 2753 01b5 0B       		.uleb128 0xb
 2754 01b6 F1070000 		.4byte	.LASF32
 2755 01ba 07       		.byte	0x7
 2756 01bb 32       		.byte	0x32
ARM GAS  C:\Users\haske\AppData\Local\Temp\ccWSfRiA.s 			page 105


 2757 01bc E0000000 		.4byte	0xe0
 2758 01c0 3C       		.byte	0x3c
 2759 01c1 0B       		.uleb128 0xb
 2760 01c2 46090000 		.4byte	.LASF33
 2761 01c6 07       		.byte	0x7
 2762 01c7 33       		.byte	0x33
 2763 01c8 D3010000 		.4byte	0x1d3
 2764 01cc 40       		.byte	0x40
 2765 01cd 00       		.byte	0
 2766 01ce 05       		.uleb128 0x5
 2767 01cf EA000000 		.4byte	0xea
 2768 01d3 06       		.uleb128 0x6
 2769 01d4 CE010000 		.4byte	0x1ce
 2770 01d8 03       		.uleb128 0x3
 2771 01d9 131D0000 		.4byte	.LASF34
 2772 01dd 07       		.byte	0x7
 2773 01de 34       		.byte	0x34
 2774 01df FA000000 		.4byte	0xfa
 2775 01e3 0C       		.uleb128 0xc
 2776 01e4 2440     		.2byte	0x4024
 2777 01e6 07       		.byte	0x7
 2778 01e7 39       		.byte	0x39
 2779 01e8 6E020000 		.4byte	0x26e
 2780 01ec 0A       		.uleb128 0xa
 2781 01ed 50525400 		.ascii	"PRT\000"
 2782 01f1 07       		.byte	0x7
 2783 01f2 3A       		.byte	0x3a
 2784 01f3 6E020000 		.4byte	0x26e
 2785 01f7 00       		.byte	0
 2786 01f8 0D       		.uleb128 0xd
 2787 01f9 F8050000 		.4byte	.LASF35
 2788 01fd 07       		.byte	0x7
 2789 01fe 3B       		.byte	0x3b
 2790 01ff E5000000 		.4byte	0xe5
 2791 0203 0040     		.2byte	0x4000
 2792 0205 0D       		.uleb128 0xd
 2793 0206 5E270000 		.4byte	.LASF36
 2794 020a 07       		.byte	0x7
 2795 020b 3C       		.byte	0x3c
 2796 020c E5000000 		.4byte	0xe5
 2797 0210 0440     		.2byte	0x4004
 2798 0212 0D       		.uleb128 0xd
 2799 0213 23060000 		.4byte	.LASF37
 2800 0217 07       		.byte	0x7
 2801 0218 3D       		.byte	0x3d
 2802 0219 E5000000 		.4byte	0xe5
 2803 021d 0840     		.2byte	0x4008
 2804 021f 0D       		.uleb128 0xd
 2805 0220 2F060000 		.4byte	.LASF38
 2806 0224 07       		.byte	0x7
 2807 0225 3E       		.byte	0x3e
 2808 0226 E5000000 		.4byte	0xe5
 2809 022a 0C40     		.2byte	0x400c
 2810 022c 0D       		.uleb128 0xd
 2811 022d FB230000 		.4byte	.LASF39
 2812 0231 07       		.byte	0x7
 2813 0232 3F       		.byte	0x3f
ARM GAS  C:\Users\haske\AppData\Local\Temp\ccWSfRiA.s 			page 106


 2814 0233 E5000000 		.4byte	0xe5
 2815 0237 1040     		.2byte	0x4010
 2816 0239 0D       		.uleb128 0xd
 2817 023a B41A0000 		.4byte	.LASF40
 2818 023e 07       		.byte	0x7
 2819 023f 40       		.byte	0x40
 2820 0240 E0000000 		.4byte	0xe0
 2821 0244 1440     		.2byte	0x4014
 2822 0246 0D       		.uleb128 0xd
 2823 0247 740D0000 		.4byte	.LASF41
 2824 024b 07       		.byte	0x7
 2825 024c 41       		.byte	0x41
 2826 024d E0000000 		.4byte	0xe0
 2827 0251 1840     		.2byte	0x4018
 2828 0253 0D       		.uleb128 0xd
 2829 0254 46130000 		.4byte	.LASF42
 2830 0258 07       		.byte	0x7
 2831 0259 42       		.byte	0x42
 2832 025a E5000000 		.4byte	0xe5
 2833 025e 1C40     		.2byte	0x401c
 2834 0260 0D       		.uleb128 0xd
 2835 0261 E01E0000 		.4byte	.LASF43
 2836 0265 07       		.byte	0x7
 2837 0266 43       		.byte	0x43
 2838 0267 E0000000 		.4byte	0xe0
 2839 026b 2040     		.2byte	0x4020
 2840 026d 00       		.byte	0
 2841 026e 07       		.uleb128 0x7
 2842 026f D8010000 		.4byte	0x1d8
 2843 0273 7E020000 		.4byte	0x27e
 2844 0277 08       		.uleb128 0x8
 2845 0278 D9000000 		.4byte	0xd9
 2846 027c 7F       		.byte	0x7f
 2847 027d 00       		.byte	0
 2848 027e 03       		.uleb128 0x3
 2849 027f BD0B0000 		.4byte	.LASF44
 2850 0283 07       		.byte	0x7
 2851 0284 44       		.byte	0x44
 2852 0285 E3010000 		.4byte	0x1e3
 2853 0289 09       		.uleb128 0x9
 2854 028a 40       		.byte	0x40
 2855 028b 08       		.byte	0x8
 2856 028c 22       		.byte	0x22
 2857 028d 51030000 		.4byte	0x351
 2858 0291 0B       		.uleb128 0xb
 2859 0292 D0160000 		.4byte	.LASF45
 2860 0296 08       		.byte	0x8
 2861 0297 23       		.byte	0x23
 2862 0298 E0000000 		.4byte	0xe0
 2863 029c 00       		.byte	0
 2864 029d 0B       		.uleb128 0xb
 2865 029e DF1F0000 		.4byte	.LASF46
 2866 02a2 08       		.byte	0x8
 2867 02a3 24       		.byte	0x24
 2868 02a4 E5000000 		.4byte	0xe5
 2869 02a8 04       		.byte	0x4
 2870 02a9 0B       		.uleb128 0xb
ARM GAS  C:\Users\haske\AppData\Local\Temp\ccWSfRiA.s 			page 107


 2871 02aa 3B190000 		.4byte	.LASF47
 2872 02ae 08       		.byte	0x8
 2873 02af 25       		.byte	0x25
 2874 02b0 E0000000 		.4byte	0xe0
 2875 02b4 08       		.byte	0x8
 2876 02b5 0A       		.uleb128 0xa
 2877 02b6 434300   		.ascii	"CC\000"
 2878 02b9 08       		.byte	0x8
 2879 02ba 26       		.byte	0x26
 2880 02bb E0000000 		.4byte	0xe0
 2881 02bf 0C       		.byte	0xc
 2882 02c0 0B       		.uleb128 0xb
 2883 02c1 F6150000 		.4byte	.LASF48
 2884 02c5 08       		.byte	0x8
 2885 02c6 27       		.byte	0x27
 2886 02c7 E0000000 		.4byte	0xe0
 2887 02cb 10       		.byte	0x10
 2888 02cc 0B       		.uleb128 0xb
 2889 02cd DB020000 		.4byte	.LASF49
 2890 02d1 08       		.byte	0x8
 2891 02d2 28       		.byte	0x28
 2892 02d3 E0000000 		.4byte	0xe0
 2893 02d7 14       		.byte	0x14
 2894 02d8 0B       		.uleb128 0xb
 2895 02d9 74210000 		.4byte	.LASF50
 2896 02dd 08       		.byte	0x8
 2897 02de 29       		.byte	0x29
 2898 02df E0000000 		.4byte	0xe0
 2899 02e3 18       		.byte	0x18
 2900 02e4 0B       		.uleb128 0xb
 2901 02e5 140F0000 		.4byte	.LASF31
 2902 02e9 08       		.byte	0x8
 2903 02ea 2A       		.byte	0x2a
 2904 02eb E5000000 		.4byte	0xe5
 2905 02ef 1C       		.byte	0x1c
 2906 02f0 0B       		.uleb128 0xb
 2907 02f1 E0000000 		.4byte	.LASF51
 2908 02f5 08       		.byte	0x8
 2909 02f6 2B       		.byte	0x2b
 2910 02f7 E0000000 		.4byte	0xe0
 2911 02fb 20       		.byte	0x20
 2912 02fc 0B       		.uleb128 0xb
 2913 02fd E9000000 		.4byte	.LASF52
 2914 0301 08       		.byte	0x8
 2915 0302 2C       		.byte	0x2c
 2916 0303 E0000000 		.4byte	0xe0
 2917 0307 24       		.byte	0x24
 2918 0308 0B       		.uleb128 0xb
 2919 0309 F2000000 		.4byte	.LASF53
 2920 030d 08       		.byte	0x8
 2921 030e 2D       		.byte	0x2d
 2922 030f E0000000 		.4byte	0xe0
 2923 0313 28       		.byte	0x28
 2924 0314 0B       		.uleb128 0xb
 2925 0315 46090000 		.4byte	.LASF33
 2926 0319 08       		.byte	0x8
 2927 031a 2E       		.byte	0x2e
ARM GAS  C:\Users\haske\AppData\Local\Temp\ccWSfRiA.s 			page 108


 2928 031b E5000000 		.4byte	0xe5
 2929 031f 2C       		.byte	0x2c
 2930 0320 0B       		.uleb128 0xb
 2931 0321 BC120000 		.4byte	.LASF23
 2932 0325 08       		.byte	0x8
 2933 0326 2F       		.byte	0x2f
 2934 0327 E0000000 		.4byte	0xe0
 2935 032b 30       		.byte	0x30
 2936 032c 0B       		.uleb128 0xb
 2937 032d 151B0000 		.4byte	.LASF26
 2938 0331 08       		.byte	0x8
 2939 0332 30       		.byte	0x30
 2940 0333 E0000000 		.4byte	0xe0
 2941 0337 34       		.byte	0x34
 2942 0338 0B       		.uleb128 0xb
 2943 0339 6D030000 		.4byte	.LASF24
 2944 033d 08       		.byte	0x8
 2945 033e 31       		.byte	0x31
 2946 033f E0000000 		.4byte	0xe0
 2947 0343 38       		.byte	0x38
 2948 0344 0B       		.uleb128 0xb
 2949 0345 621B0000 		.4byte	.LASF25
 2950 0349 08       		.byte	0x8
 2951 034a 32       		.byte	0x32
 2952 034b E5000000 		.4byte	0xe5
 2953 034f 3C       		.byte	0x3c
 2954 0350 00       		.byte	0
 2955 0351 03       		.uleb128 0x3
 2956 0352 7D070000 		.4byte	.LASF54
 2957 0356 08       		.byte	0x8
 2958 0357 33       		.byte	0x33
 2959 0358 89020000 		.4byte	0x289
 2960 035c 0C       		.uleb128 0xc
 2961 035d 0009     		.2byte	0x900
 2962 035f 08       		.byte	0x8
 2963 0360 38       		.byte	0x38
 2964 0361 DF030000 		.4byte	0x3df
 2965 0365 0B       		.uleb128 0xb
 2966 0366 D0160000 		.4byte	.LASF45
 2967 036a 08       		.byte	0x8
 2968 036b 39       		.byte	0x39
 2969 036c E0000000 		.4byte	0xe0
 2970 0370 00       		.byte	0
 2971 0371 0B       		.uleb128 0xb
 2972 0372 31150000 		.4byte	.LASF55
 2973 0376 08       		.byte	0x8
 2974 0377 3A       		.byte	0x3a
 2975 0378 E0000000 		.4byte	0xe0
 2976 037c 04       		.byte	0x4
 2977 037d 0B       		.uleb128 0xb
 2978 037e 21010000 		.4byte	.LASF56
 2979 0382 08       		.byte	0x8
 2980 0383 3B       		.byte	0x3b
 2981 0384 E0000000 		.4byte	0xe0
 2982 0388 08       		.byte	0x8
 2983 0389 0B       		.uleb128 0xb
 2984 038a 5F190000 		.4byte	.LASF57
ARM GAS  C:\Users\haske\AppData\Local\Temp\ccWSfRiA.s 			page 109


 2985 038e 08       		.byte	0x8
 2986 038f 3C       		.byte	0x3c
 2987 0390 E0000000 		.4byte	0xe0
 2988 0394 0C       		.byte	0xc
 2989 0395 0B       		.uleb128 0xb
 2990 0396 8F070000 		.4byte	.LASF58
 2991 039a 08       		.byte	0x8
 2992 039b 3D       		.byte	0x3d
 2993 039c E0000000 		.4byte	0xe0
 2994 03a0 10       		.byte	0x10
 2995 03a1 0B       		.uleb128 0xb
 2996 03a2 21200000 		.4byte	.LASF59
 2997 03a6 08       		.byte	0x8
 2998 03a7 3E       		.byte	0x3e
 2999 03a8 E0000000 		.4byte	0xe0
 3000 03ac 14       		.byte	0x14
 3001 03ad 0B       		.uleb128 0xb
 3002 03ae 9A1B0000 		.4byte	.LASF60
 3003 03b2 08       		.byte	0x8
 3004 03b3 3F       		.byte	0x3f
 3005 03b4 E0000000 		.4byte	0xe0
 3006 03b8 18       		.byte	0x18
 3007 03b9 0B       		.uleb128 0xb
 3008 03ba 02010000 		.4byte	.LASF61
 3009 03be 08       		.byte	0x8
 3010 03bf 40       		.byte	0x40
 3011 03c0 E5000000 		.4byte	0xe5
 3012 03c4 1C       		.byte	0x1c
 3013 03c5 0B       		.uleb128 0xb
 3014 03c6 140F0000 		.4byte	.LASF31
 3015 03ca 08       		.byte	0x8
 3016 03cb 41       		.byte	0x41
 3017 03cc F4030000 		.4byte	0x3f4
 3018 03d0 20       		.byte	0x20
 3019 03d1 0E       		.uleb128 0xe
 3020 03d2 434E5400 		.ascii	"CNT\000"
 3021 03d6 08       		.byte	0x8
 3022 03d7 42       		.byte	0x42
 3023 03d8 F9030000 		.4byte	0x3f9
 3024 03dc 0001     		.2byte	0x100
 3025 03de 00       		.byte	0
 3026 03df 07       		.uleb128 0x7
 3027 03e0 E5000000 		.4byte	0xe5
 3028 03e4 EF030000 		.4byte	0x3ef
 3029 03e8 08       		.uleb128 0x8
 3030 03e9 D9000000 		.4byte	0xd9
 3031 03ed 37       		.byte	0x37
 3032 03ee 00       		.byte	0
 3033 03ef 05       		.uleb128 0x5
 3034 03f0 DF030000 		.4byte	0x3df
 3035 03f4 06       		.uleb128 0x6
 3036 03f5 EF030000 		.4byte	0x3ef
 3037 03f9 07       		.uleb128 0x7
 3038 03fa 51030000 		.4byte	0x351
 3039 03fe 09040000 		.4byte	0x409
 3040 0402 08       		.uleb128 0x8
 3041 0403 D9000000 		.4byte	0xd9
ARM GAS  C:\Users\haske\AppData\Local\Temp\ccWSfRiA.s 			page 110


 3042 0407 1F       		.byte	0x1f
 3043 0408 00       		.byte	0
 3044 0409 03       		.uleb128 0x3
 3045 040a 5D240000 		.4byte	.LASF62
 3046 040e 08       		.byte	0x8
 3047 040f 43       		.byte	0x43
 3048 0410 5C030000 		.4byte	0x35c
 3049 0414 0F       		.uleb128 0xf
 3050 0415 9C160000 		.4byte	.LASF63
 3051 0419 09       		.byte	0x9
 3052 041a 3106     		.2byte	0x631
 3053 041c D8010000 		.4byte	0x1d8
 3054 0420 0F       		.uleb128 0xf
 3055 0421 7B1B0000 		.4byte	.LASF64
 3056 0425 09       		.byte	0x9
 3057 0426 3206     		.2byte	0x632
 3058 0428 7E020000 		.4byte	0x27e
 3059 042c 0F       		.uleb128 0xf
 3060 042d F2120000 		.4byte	.LASF65
 3061 0431 09       		.byte	0x9
 3062 0432 4206     		.2byte	0x642
 3063 0434 09040000 		.4byte	0x409
 3064 0438 02       		.uleb128 0x2
 3065 0439 08       		.byte	0x8
 3066 043a 04       		.byte	0x4
 3067 043b 091B0000 		.4byte	.LASF66
 3068 043f 09       		.uleb128 0x9
 3069 0440 B8       		.byte	0xb8
 3070 0441 0A       		.byte	0xa
 3071 0442 34       		.byte	0x34
 3072 0443 50080000 		.4byte	0x850
 3073 0447 0B       		.uleb128 0xb
 3074 0448 42140000 		.4byte	.LASF67
 3075 044c 0A       		.byte	0xa
 3076 044d 37       		.byte	0x37
 3077 044e CE000000 		.4byte	0xce
 3078 0452 00       		.byte	0
 3079 0453 0B       		.uleb128 0xb
 3080 0454 3B090000 		.4byte	.LASF68
 3081 0458 0A       		.byte	0xa
 3082 0459 38       		.byte	0x38
 3083 045a CE000000 		.4byte	0xce
 3084 045e 04       		.byte	0x4
 3085 045f 0B       		.uleb128 0xb
 3086 0460 36100000 		.4byte	.LASF69
 3087 0464 0A       		.byte	0xa
 3088 0465 39       		.byte	0x39
 3089 0466 CE000000 		.4byte	0xce
 3090 046a 08       		.byte	0x8
 3091 046b 0B       		.uleb128 0xb
 3092 046c B2230000 		.4byte	.LASF70
 3093 0470 0A       		.byte	0xa
 3094 0471 3A       		.byte	0x3a
 3095 0472 CE000000 		.4byte	0xce
 3096 0476 0C       		.byte	0xc
 3097 0477 0B       		.uleb128 0xb
 3098 0478 4C140000 		.4byte	.LASF71
ARM GAS  C:\Users\haske\AppData\Local\Temp\ccWSfRiA.s 			page 111


 3099 047c 0A       		.byte	0xa
 3100 047d 3B       		.byte	0x3b
 3101 047e CE000000 		.4byte	0xce
 3102 0482 10       		.byte	0x10
 3103 0483 0B       		.uleb128 0xb
 3104 0484 58010000 		.4byte	.LASF72
 3105 0488 0A       		.byte	0xa
 3106 0489 3C       		.byte	0x3c
 3107 048a CE000000 		.4byte	0xce
 3108 048e 14       		.byte	0x14
 3109 048f 0B       		.uleb128 0xb
 3110 0490 5B200000 		.4byte	.LASF73
 3111 0494 0A       		.byte	0xa
 3112 0495 3D       		.byte	0x3d
 3113 0496 CE000000 		.4byte	0xce
 3114 049a 18       		.byte	0x18
 3115 049b 0B       		.uleb128 0xb
 3116 049c A20A0000 		.4byte	.LASF74
 3117 04a0 0A       		.byte	0xa
 3118 04a1 3E       		.byte	0x3e
 3119 04a2 CE000000 		.4byte	0xce
 3120 04a6 1C       		.byte	0x1c
 3121 04a7 0B       		.uleb128 0xb
 3122 04a8 2A260000 		.4byte	.LASF75
 3123 04ac 0A       		.byte	0xa
 3124 04ad 3F       		.byte	0x3f
 3125 04ae CE000000 		.4byte	0xce
 3126 04b2 20       		.byte	0x20
 3127 04b3 0B       		.uleb128 0xb
 3128 04b4 41000000 		.4byte	.LASF76
 3129 04b8 0A       		.byte	0xa
 3130 04b9 40       		.byte	0x40
 3131 04ba CE000000 		.4byte	0xce
 3132 04be 24       		.byte	0x24
 3133 04bf 0B       		.uleb128 0xb
 3134 04c0 02120000 		.4byte	.LASF77
 3135 04c4 0A       		.byte	0xa
 3136 04c5 43       		.byte	0x43
 3137 04c6 A2000000 		.4byte	0xa2
 3138 04ca 28       		.byte	0x28
 3139 04cb 0B       		.uleb128 0xb
 3140 04cc 93150000 		.4byte	.LASF78
 3141 04d0 0A       		.byte	0xa
 3142 04d1 44       		.byte	0x44
 3143 04d2 A2000000 		.4byte	0xa2
 3144 04d6 29       		.byte	0x29
 3145 04d7 0B       		.uleb128 0xb
 3146 04d8 2A200000 		.4byte	.LASF79
 3147 04dc 0A       		.byte	0xa
 3148 04dd 45       		.byte	0x45
 3149 04de A2000000 		.4byte	0xa2
 3150 04e2 2A       		.byte	0x2a
 3151 04e3 0B       		.uleb128 0xb
 3152 04e4 0B180000 		.4byte	.LASF80
 3153 04e8 0A       		.byte	0xa
 3154 04e9 46       		.byte	0x46
 3155 04ea A2000000 		.4byte	0xa2
ARM GAS  C:\Users\haske\AppData\Local\Temp\ccWSfRiA.s 			page 112


 3156 04ee 2B       		.byte	0x2b
 3157 04ef 0B       		.uleb128 0xb
 3158 04f0 BD1E0000 		.4byte	.LASF81
 3159 04f4 0A       		.byte	0xa
 3160 04f5 47       		.byte	0x47
 3161 04f6 A2000000 		.4byte	0xa2
 3162 04fa 2C       		.byte	0x2c
 3163 04fb 0B       		.uleb128 0xb
 3164 04fc 96280000 		.4byte	.LASF82
 3165 0500 0A       		.byte	0xa
 3166 0501 48       		.byte	0x48
 3167 0502 A2000000 		.4byte	0xa2
 3168 0506 2D       		.byte	0x2d
 3169 0507 0B       		.uleb128 0xb
 3170 0508 63140000 		.4byte	.LASF83
 3171 050c 0A       		.byte	0xa
 3172 050d 49       		.byte	0x49
 3173 050e A2000000 		.4byte	0xa2
 3174 0512 2E       		.byte	0x2e
 3175 0513 0B       		.uleb128 0xb
 3176 0514 FB210000 		.4byte	.LASF84
 3177 0518 0A       		.byte	0xa
 3178 0519 4A       		.byte	0x4a
 3179 051a A2000000 		.4byte	0xa2
 3180 051e 2F       		.byte	0x2f
 3181 051f 0B       		.uleb128 0xb
 3182 0520 82060000 		.4byte	.LASF85
 3183 0524 0A       		.byte	0xa
 3184 0525 4B       		.byte	0x4b
 3185 0526 A2000000 		.4byte	0xa2
 3186 052a 30       		.byte	0x30
 3187 052b 0B       		.uleb128 0xb
 3188 052c 59020000 		.4byte	.LASF86
 3189 0530 0A       		.byte	0xa
 3190 0531 4E       		.byte	0x4e
 3191 0532 A2000000 		.4byte	0xa2
 3192 0536 31       		.byte	0x31
 3193 0537 0B       		.uleb128 0xb
 3194 0538 261A0000 		.4byte	.LASF87
 3195 053c 0A       		.byte	0xa
 3196 053d 4F       		.byte	0x4f
 3197 053e A2000000 		.4byte	0xa2
 3198 0542 32       		.byte	0x32
 3199 0543 0B       		.uleb128 0xb
 3200 0544 ED1E0000 		.4byte	.LASF88
 3201 0548 0A       		.byte	0xa
 3202 0549 50       		.byte	0x50
 3203 054a A2000000 		.4byte	0xa2
 3204 054e 33       		.byte	0x33
 3205 054f 0B       		.uleb128 0xb
 3206 0550 A1100000 		.4byte	.LASF89
 3207 0554 0A       		.byte	0xa
 3208 0555 51       		.byte	0x51
 3209 0556 A2000000 		.4byte	0xa2
 3210 055a 34       		.byte	0x34
 3211 055b 0B       		.uleb128 0xb
 3212 055c 0F0E0000 		.4byte	.LASF90
ARM GAS  C:\Users\haske\AppData\Local\Temp\ccWSfRiA.s 			page 113


 3213 0560 0A       		.byte	0xa
 3214 0561 52       		.byte	0x52
 3215 0562 AD000000 		.4byte	0xad
 3216 0566 36       		.byte	0x36
 3217 0567 0B       		.uleb128 0xb
 3218 0568 5C120000 		.4byte	.LASF91
 3219 056c 0A       		.byte	0xa
 3220 056d 53       		.byte	0x53
 3221 056e AD000000 		.4byte	0xad
 3222 0572 38       		.byte	0x38
 3223 0573 0B       		.uleb128 0xb
 3224 0574 7F240000 		.4byte	.LASF92
 3225 0578 0A       		.byte	0xa
 3226 0579 54       		.byte	0x54
 3227 057a AD000000 		.4byte	0xad
 3228 057e 3A       		.byte	0x3a
 3229 057f 0B       		.uleb128 0xb
 3230 0580 741D0000 		.4byte	.LASF93
 3231 0584 0A       		.byte	0xa
 3232 0585 55       		.byte	0x55
 3233 0586 A2000000 		.4byte	0xa2
 3234 058a 3C       		.byte	0x3c
 3235 058b 0B       		.uleb128 0xb
 3236 058c F7110000 		.4byte	.LASF94
 3237 0590 0A       		.byte	0xa
 3238 0591 56       		.byte	0x56
 3239 0592 A2000000 		.4byte	0xa2
 3240 0596 3D       		.byte	0x3d
 3241 0597 0B       		.uleb128 0xb
 3242 0598 FC020000 		.4byte	.LASF95
 3243 059c 0A       		.byte	0xa
 3244 059d 57       		.byte	0x57
 3245 059e A2000000 		.4byte	0xa2
 3246 05a2 3E       		.byte	0x3e
 3247 05a3 0B       		.uleb128 0xb
 3248 05a4 5E080000 		.4byte	.LASF96
 3249 05a8 0A       		.byte	0xa
 3250 05a9 58       		.byte	0x58
 3251 05aa A2000000 		.4byte	0xa2
 3252 05ae 3F       		.byte	0x3f
 3253 05af 0B       		.uleb128 0xb
 3254 05b0 1F130000 		.4byte	.LASF97
 3255 05b4 0A       		.byte	0xa
 3256 05b5 59       		.byte	0x59
 3257 05b6 A2000000 		.4byte	0xa2
 3258 05ba 40       		.byte	0x40
 3259 05bb 0B       		.uleb128 0xb
 3260 05bc 99140000 		.4byte	.LASF98
 3261 05c0 0A       		.byte	0xa
 3262 05c1 5A       		.byte	0x5a
 3263 05c2 A2000000 		.4byte	0xa2
 3264 05c6 41       		.byte	0x41
 3265 05c7 0B       		.uleb128 0xb
 3266 05c8 55110000 		.4byte	.LASF99
 3267 05cc 0A       		.byte	0xa
 3268 05cd 5B       		.byte	0x5b
 3269 05ce A2000000 		.4byte	0xa2
ARM GAS  C:\Users\haske\AppData\Local\Temp\ccWSfRiA.s 			page 114


 3270 05d2 42       		.byte	0x42
 3271 05d3 0B       		.uleb128 0xb
 3272 05d4 0D250000 		.4byte	.LASF100
 3273 05d8 0A       		.byte	0xa
 3274 05d9 5C       		.byte	0x5c
 3275 05da A2000000 		.4byte	0xa2
 3276 05de 43       		.byte	0x43
 3277 05df 0B       		.uleb128 0xb
 3278 05e0 87200000 		.4byte	.LASF101
 3279 05e4 0A       		.byte	0xa
 3280 05e5 5D       		.byte	0x5d
 3281 05e6 A2000000 		.4byte	0xa2
 3282 05ea 44       		.byte	0x44
 3283 05eb 0B       		.uleb128 0xb
 3284 05ec 75200000 		.4byte	.LASF102
 3285 05f0 0A       		.byte	0xa
 3286 05f1 5E       		.byte	0x5e
 3287 05f2 CE000000 		.4byte	0xce
 3288 05f6 48       		.byte	0x48
 3289 05f7 0B       		.uleb128 0xb
 3290 05f8 13010000 		.4byte	.LASF103
 3291 05fc 0A       		.byte	0xa
 3292 05fd 5F       		.byte	0x5f
 3293 05fe CE000000 		.4byte	0xce
 3294 0602 4C       		.byte	0x4c
 3295 0603 0B       		.uleb128 0xb
 3296 0604 D1150000 		.4byte	.LASF104
 3297 0608 0A       		.byte	0xa
 3298 0609 60       		.byte	0x60
 3299 060a A2000000 		.4byte	0xa2
 3300 060e 50       		.byte	0x50
 3301 060f 0B       		.uleb128 0xb
 3302 0610 C7130000 		.4byte	.LASF105
 3303 0614 0A       		.byte	0xa
 3304 0615 61       		.byte	0x61
 3305 0616 A2000000 		.4byte	0xa2
 3306 061a 51       		.byte	0x51
 3307 061b 0B       		.uleb128 0xb
 3308 061c C1150000 		.4byte	.LASF106
 3309 0620 0A       		.byte	0xa
 3310 0621 62       		.byte	0x62
 3311 0622 A2000000 		.4byte	0xa2
 3312 0626 52       		.byte	0x52
 3313 0627 0B       		.uleb128 0xb
 3314 0628 87230000 		.4byte	.LASF107
 3315 062c 0A       		.byte	0xa
 3316 062d 63       		.byte	0x63
 3317 062e A2000000 		.4byte	0xa2
 3318 0632 53       		.byte	0x53
 3319 0633 0B       		.uleb128 0xb
 3320 0634 A41A0000 		.4byte	.LASF108
 3321 0638 0A       		.byte	0xa
 3322 0639 64       		.byte	0x64
 3323 063a A2000000 		.4byte	0xa2
 3324 063e 54       		.byte	0x54
 3325 063f 0B       		.uleb128 0xb
 3326 0640 82280000 		.4byte	.LASF109
ARM GAS  C:\Users\haske\AppData\Local\Temp\ccWSfRiA.s 			page 115


 3327 0644 0A       		.byte	0xa
 3328 0645 65       		.byte	0x65
 3329 0646 A2000000 		.4byte	0xa2
 3330 064a 55       		.byte	0x55
 3331 064b 0B       		.uleb128 0xb
 3332 064c CF220000 		.4byte	.LASF110
 3333 0650 0A       		.byte	0xa
 3334 0651 66       		.byte	0x66
 3335 0652 A2000000 		.4byte	0xa2
 3336 0656 56       		.byte	0x56
 3337 0657 0B       		.uleb128 0xb
 3338 0658 ED1B0000 		.4byte	.LASF111
 3339 065c 0A       		.byte	0xa
 3340 065d 67       		.byte	0x67
 3341 065e A2000000 		.4byte	0xa2
 3342 0662 57       		.byte	0x57
 3343 0663 0B       		.uleb128 0xb
 3344 0664 E2150000 		.4byte	.LASF112
 3345 0668 0A       		.byte	0xa
 3346 0669 68       		.byte	0x68
 3347 066a A2000000 		.4byte	0xa2
 3348 066e 58       		.byte	0x58
 3349 066f 0B       		.uleb128 0xb
 3350 0670 560F0000 		.4byte	.LASF113
 3351 0674 0A       		.byte	0xa
 3352 0675 69       		.byte	0x69
 3353 0676 A2000000 		.4byte	0xa2
 3354 067a 59       		.byte	0x59
 3355 067b 0B       		.uleb128 0xb
 3356 067c C4280000 		.4byte	.LASF114
 3357 0680 0A       		.byte	0xa
 3358 0681 6E       		.byte	0x6e
 3359 0682 B8000000 		.4byte	0xb8
 3360 0686 5A       		.byte	0x5a
 3361 0687 0B       		.uleb128 0xb
 3362 0688 98120000 		.4byte	.LASF115
 3363 068c 0A       		.byte	0xa
 3364 068d 6F       		.byte	0x6f
 3365 068e B8000000 		.4byte	0xb8
 3366 0692 5C       		.byte	0x5c
 3367 0693 0B       		.uleb128 0xb
 3368 0694 A7250000 		.4byte	.LASF116
 3369 0698 0A       		.byte	0xa
 3370 0699 70       		.byte	0x70
 3371 069a A2000000 		.4byte	0xa2
 3372 069e 5E       		.byte	0x5e
 3373 069f 0B       		.uleb128 0xb
 3374 06a0 D7250000 		.4byte	.LASF117
 3375 06a4 0A       		.byte	0xa
 3376 06a5 71       		.byte	0x71
 3377 06a6 A2000000 		.4byte	0xa2
 3378 06aa 5F       		.byte	0x5f
 3379 06ab 0B       		.uleb128 0xb
 3380 06ac 630D0000 		.4byte	.LASF118
 3381 06b0 0A       		.byte	0xa
 3382 06b1 72       		.byte	0x72
 3383 06b2 A2000000 		.4byte	0xa2
ARM GAS  C:\Users\haske\AppData\Local\Temp\ccWSfRiA.s 			page 116


 3384 06b6 60       		.byte	0x60
 3385 06b7 0B       		.uleb128 0xb
 3386 06b8 5E1A0000 		.4byte	.LASF119
 3387 06bc 0A       		.byte	0xa
 3388 06bd 73       		.byte	0x73
 3389 06be CE000000 		.4byte	0xce
 3390 06c2 64       		.byte	0x64
 3391 06c3 0B       		.uleb128 0xb
 3392 06c4 18270000 		.4byte	.LASF120
 3393 06c8 0A       		.byte	0xa
 3394 06c9 76       		.byte	0x76
 3395 06ca B8000000 		.4byte	0xb8
 3396 06ce 68       		.byte	0x68
 3397 06cf 0B       		.uleb128 0xb
 3398 06d0 B3060000 		.4byte	.LASF121
 3399 06d4 0A       		.byte	0xa
 3400 06d5 77       		.byte	0x77
 3401 06d6 B8000000 		.4byte	0xb8
 3402 06da 6A       		.byte	0x6a
 3403 06db 0B       		.uleb128 0xb
 3404 06dc D60D0000 		.4byte	.LASF122
 3405 06e0 0A       		.byte	0xa
 3406 06e1 78       		.byte	0x78
 3407 06e2 B8000000 		.4byte	0xb8
 3408 06e6 6C       		.byte	0x6c
 3409 06e7 0B       		.uleb128 0xb
 3410 06e8 F4060000 		.4byte	.LASF123
 3411 06ec 0A       		.byte	0xa
 3412 06ed 79       		.byte	0x79
 3413 06ee B8000000 		.4byte	0xb8
 3414 06f2 6E       		.byte	0x6e
 3415 06f3 0B       		.uleb128 0xb
 3416 06f4 E61F0000 		.4byte	.LASF124
 3417 06f8 0A       		.byte	0xa
 3418 06f9 7B       		.byte	0x7b
 3419 06fa A2000000 		.4byte	0xa2
 3420 06fe 70       		.byte	0x70
 3421 06ff 0B       		.uleb128 0xb
 3422 0700 2D140000 		.4byte	.LASF125
 3423 0704 0A       		.byte	0xa
 3424 0705 7C       		.byte	0x7c
 3425 0706 A2000000 		.4byte	0xa2
 3426 070a 71       		.byte	0x71
 3427 070b 0B       		.uleb128 0xb
 3428 070c D2080000 		.4byte	.LASF126
 3429 0710 0A       		.byte	0xa
 3430 0711 7D       		.byte	0x7d
 3431 0712 A2000000 		.4byte	0xa2
 3432 0716 72       		.byte	0x72
 3433 0717 0B       		.uleb128 0xb
 3434 0718 8B260000 		.4byte	.LASF127
 3435 071c 0A       		.byte	0xa
 3436 071d 7E       		.byte	0x7e
 3437 071e A2000000 		.4byte	0xa2
 3438 0722 73       		.byte	0x73
 3439 0723 0B       		.uleb128 0xb
 3440 0724 E2060000 		.4byte	.LASF128
ARM GAS  C:\Users\haske\AppData\Local\Temp\ccWSfRiA.s 			page 117


 3441 0728 0A       		.byte	0xa
 3442 0729 80       		.byte	0x80
 3443 072a B8000000 		.4byte	0xb8
 3444 072e 74       		.byte	0x74
 3445 072f 0B       		.uleb128 0xb
 3446 0730 B4130000 		.4byte	.LASF129
 3447 0734 0A       		.byte	0xa
 3448 0735 81       		.byte	0x81
 3449 0736 B8000000 		.4byte	0xb8
 3450 073a 76       		.byte	0x76
 3451 073b 0B       		.uleb128 0xb
 3452 073c 07160000 		.4byte	.LASF130
 3453 0740 0A       		.byte	0xa
 3454 0741 82       		.byte	0x82
 3455 0742 B8000000 		.4byte	0xb8
 3456 0746 78       		.byte	0x78
 3457 0747 0B       		.uleb128 0xb
 3458 0748 F91E0000 		.4byte	.LASF131
 3459 074c 0A       		.byte	0xa
 3460 074d 83       		.byte	0x83
 3461 074e B8000000 		.4byte	0xb8
 3462 0752 7A       		.byte	0x7a
 3463 0753 0B       		.uleb128 0xb
 3464 0754 A9180000 		.4byte	.LASF132
 3465 0758 0A       		.byte	0xa
 3466 0759 86       		.byte	0x86
 3467 075a A2000000 		.4byte	0xa2
 3468 075e 7C       		.byte	0x7c
 3469 075f 0B       		.uleb128 0xb
 3470 0760 CA020000 		.4byte	.LASF133
 3471 0764 0A       		.byte	0xa
 3472 0765 87       		.byte	0x87
 3473 0766 A2000000 		.4byte	0xa2
 3474 076a 7D       		.byte	0x7d
 3475 076b 0B       		.uleb128 0xb
 3476 076c 23100000 		.4byte	.LASF134
 3477 0770 0A       		.byte	0xa
 3478 0771 88       		.byte	0x88
 3479 0772 A2000000 		.4byte	0xa2
 3480 0776 7E       		.byte	0x7e
 3481 0777 0B       		.uleb128 0xb
 3482 0778 7F150000 		.4byte	.LASF135
 3483 077c 0A       		.byte	0xa
 3484 077d 89       		.byte	0x89
 3485 077e A2000000 		.4byte	0xa2
 3486 0782 7F       		.byte	0x7f
 3487 0783 0B       		.uleb128 0xb
 3488 0784 6B240000 		.4byte	.LASF136
 3489 0788 0A       		.byte	0xa
 3490 0789 8A       		.byte	0x8a
 3491 078a A2000000 		.4byte	0xa2
 3492 078e 80       		.byte	0x80
 3493 078f 0B       		.uleb128 0xb
 3494 0790 B40D0000 		.4byte	.LASF137
 3495 0794 0A       		.byte	0xa
 3496 0795 8D       		.byte	0x8d
 3497 0796 CE000000 		.4byte	0xce
ARM GAS  C:\Users\haske\AppData\Local\Temp\ccWSfRiA.s 			page 118


 3498 079a 84       		.byte	0x84
 3499 079b 0B       		.uleb128 0xb
 3500 079c A61E0000 		.4byte	.LASF138
 3501 07a0 0A       		.byte	0xa
 3502 07a1 8E       		.byte	0x8e
 3503 07a2 CE000000 		.4byte	0xce
 3504 07a6 88       		.byte	0x88
 3505 07a7 0B       		.uleb128 0xb
 3506 07a8 C2250000 		.4byte	.LASF139
 3507 07ac 0A       		.byte	0xa
 3508 07ad 8F       		.byte	0x8f
 3509 07ae CE000000 		.4byte	0xce
 3510 07b2 8C       		.byte	0x8c
 3511 07b3 0B       		.uleb128 0xb
 3512 07b4 5C000000 		.4byte	.LASF140
 3513 07b8 0A       		.byte	0xa
 3514 07b9 90       		.byte	0x90
 3515 07ba CE000000 		.4byte	0xce
 3516 07be 90       		.byte	0x90
 3517 07bf 0B       		.uleb128 0xb
 3518 07c0 1D0F0000 		.4byte	.LASF141
 3519 07c4 0A       		.byte	0xa
 3520 07c5 91       		.byte	0x91
 3521 07c6 CE000000 		.4byte	0xce
 3522 07ca 94       		.byte	0x94
 3523 07cb 0B       		.uleb128 0xb
 3524 07cc 670A0000 		.4byte	.LASF142
 3525 07d0 0A       		.byte	0xa
 3526 07d1 92       		.byte	0x92
 3527 07d2 CE000000 		.4byte	0xce
 3528 07d6 98       		.byte	0x98
 3529 07d7 0B       		.uleb128 0xb
 3530 07d8 AB0A0000 		.4byte	.LASF143
 3531 07dc 0A       		.byte	0xa
 3532 07dd 93       		.byte	0x93
 3533 07de CE000000 		.4byte	0xce
 3534 07e2 9C       		.byte	0x9c
 3535 07e3 0B       		.uleb128 0xb
 3536 07e4 D9130000 		.4byte	.LASF144
 3537 07e8 0A       		.byte	0xa
 3538 07e9 94       		.byte	0x94
 3539 07ea CE000000 		.4byte	0xce
 3540 07ee A0       		.byte	0xa0
 3541 07ef 0B       		.uleb128 0xb
 3542 07f0 A41B0000 		.4byte	.LASF145
 3543 07f4 0A       		.byte	0xa
 3544 07f5 95       		.byte	0x95
 3545 07f6 B8000000 		.4byte	0xb8
 3546 07fa A4       		.byte	0xa4
 3547 07fb 0B       		.uleb128 0xb
 3548 07fc 851B0000 		.4byte	.LASF146
 3549 0800 0A       		.byte	0xa
 3550 0801 96       		.byte	0x96
 3551 0802 B8000000 		.4byte	0xb8
 3552 0806 A6       		.byte	0xa6
 3553 0807 0B       		.uleb128 0xb
 3554 0808 E8080000 		.4byte	.LASF147
ARM GAS  C:\Users\haske\AppData\Local\Temp\ccWSfRiA.s 			page 119


 3555 080c 0A       		.byte	0xa
 3556 080d 97       		.byte	0x97
 3557 080e B8000000 		.4byte	0xb8
 3558 0812 A8       		.byte	0xa8
 3559 0813 0B       		.uleb128 0xb
 3560 0814 1E1F0000 		.4byte	.LASF148
 3561 0818 0A       		.byte	0xa
 3562 0819 98       		.byte	0x98
 3563 081a B8000000 		.4byte	0xb8
 3564 081e AA       		.byte	0xaa
 3565 081f 0B       		.uleb128 0xb
 3566 0820 BE180000 		.4byte	.LASF149
 3567 0824 0A       		.byte	0xa
 3568 0825 99       		.byte	0x99
 3569 0826 B8000000 		.4byte	0xb8
 3570 082a AC       		.byte	0xac
 3571 082b 0B       		.uleb128 0xb
 3572 082c AB110000 		.4byte	.LASF150
 3573 0830 0A       		.byte	0xa
 3574 0831 9A       		.byte	0x9a
 3575 0832 B8000000 		.4byte	0xb8
 3576 0836 AE       		.byte	0xae
 3577 0837 0B       		.uleb128 0xb
 3578 0838 D0260000 		.4byte	.LASF151
 3579 083c 0A       		.byte	0xa
 3580 083d 9D       		.byte	0x9d
 3581 083e B8000000 		.4byte	0xb8
 3582 0842 B0       		.byte	0xb0
 3583 0843 0B       		.uleb128 0xb
 3584 0844 250E0000 		.4byte	.LASF152
 3585 0848 0A       		.byte	0xa
 3586 0849 9E       		.byte	0x9e
 3587 084a CE000000 		.4byte	0xce
 3588 084e B4       		.byte	0xb4
 3589 084f 00       		.byte	0
 3590 0850 03       		.uleb128 0x3
 3591 0851 14150000 		.4byte	.LASF153
 3592 0855 0A       		.byte	0xa
 3593 0856 9F       		.byte	0x9f
 3594 0857 3F040000 		.4byte	0x43f
 3595 085b 0F       		.uleb128 0xf
 3596 085c 391C0000 		.4byte	.LASF154
 3597 0860 0B       		.byte	0xb
 3598 0861 F601     		.2byte	0x1f6
 3599 0863 67080000 		.4byte	0x867
 3600 0867 02       		.uleb128 0x2
 3601 0868 01       		.byte	0x1
 3602 0869 08       		.byte	0x8
 3603 086a E80A0000 		.4byte	.LASF155
 3604 086e 02       		.uleb128 0x2
 3605 086f 04       		.byte	0x4
 3606 0870 04       		.byte	0x4
 3607 0871 58160000 		.4byte	.LASF156
 3608 0875 02       		.uleb128 0x2
 3609 0876 08       		.byte	0x8
 3610 0877 04       		.byte	0x4
 3611 0878 78150000 		.4byte	.LASF157
ARM GAS  C:\Users\haske\AppData\Local\Temp\ccWSfRiA.s 			page 120


 3612 087c 0F       		.uleb128 0xf
 3613 087d C2210000 		.4byte	.LASF158
 3614 0881 0B       		.byte	0xb
 3615 0882 EA03     		.2byte	0x3ea
 3616 0884 A2000000 		.4byte	0xa2
 3617 0888 0F       		.uleb128 0xf
 3618 0889 85260000 		.4byte	.LASF159
 3619 088d 0B       		.byte	0xb
 3620 088e EF03     		.2byte	0x3ef
 3621 0890 C3000000 		.4byte	0xc3
 3622 0894 10       		.uleb128 0x10
 3623 0895 04       		.byte	0x4
 3624 0896 02       		.uleb128 0x2
 3625 0897 01       		.byte	0x1
 3626 0898 02       		.byte	0x2
 3627 0899 9C0A0000 		.4byte	.LASF160
 3628 089d 11       		.uleb128 0x11
 3629 089e 04       		.byte	0x4
 3630 089f 9B000000 		.4byte	0x9b
 3631 08a3 0C       		.byte	0xc
 3632 08a4 2C05     		.2byte	0x52c
 3633 08a6 05090000 		.4byte	0x905
 3634 08aa 12       		.uleb128 0x12
 3635 08ab 3A150000 		.4byte	.LASF161
 3636 08af 00000004 		.4byte	0x4000000
 3637 08b3 12       		.uleb128 0x12
 3638 08b4 EF0D0000 		.4byte	.LASF162
 3639 08b8 00004004 		.4byte	0x4400000
 3640 08bc 12       		.uleb128 0x12
 3641 08bd F50E0000 		.4byte	.LASF163
 3642 08c1 00000008 		.4byte	0x8000000
 3643 08c5 12       		.uleb128 0x12
 3644 08c6 100B0000 		.4byte	.LASF164
 3645 08ca 00008008 		.4byte	0x8800000
 3646 08ce 12       		.uleb128 0x12
 3647 08cf EE170000 		.4byte	.LASF165
 3648 08d3 00000400 		.4byte	0x40000
 3649 08d7 12       		.uleb128 0x12
 3650 08d8 C7090000 		.4byte	.LASF166
 3651 08dc 00000800 		.4byte	0x80000
 3652 08e0 12       		.uleb128 0x12
 3653 08e1 1F190000 		.4byte	.LASF167
 3654 08e5 00000001 		.4byte	0x1000000
 3655 08e9 12       		.uleb128 0x12
 3656 08ea F61C0000 		.4byte	.LASF168
 3657 08ee 00001001 		.4byte	0x1100000
 3658 08f2 12       		.uleb128 0x12
 3659 08f3 23120000 		.4byte	.LASF169
 3660 08f7 00000002 		.4byte	0x2000000
 3661 08fb 12       		.uleb128 0x12
 3662 08fc 2A0D0000 		.4byte	.LASF170
 3663 0900 00002002 		.4byte	0x2200000
 3664 0904 00       		.byte	0
 3665 0905 11       		.uleb128 0x11
 3666 0906 01       		.byte	0x1
 3667 0907 3E000000 		.4byte	0x3e
 3668 090b 0D       		.byte	0xd
ARM GAS  C:\Users\haske\AppData\Local\Temp\ccWSfRiA.s 			page 121


 3669 090c 0201     		.2byte	0x102
 3670 090e 2B090000 		.4byte	0x92b
 3671 0912 13       		.uleb128 0x13
 3672 0913 100C0000 		.4byte	.LASF171
 3673 0917 00       		.byte	0
 3674 0918 13       		.uleb128 0x13
 3675 0919 4B0C0000 		.4byte	.LASF172
 3676 091d 01       		.byte	0x1
 3677 091e 13       		.uleb128 0x13
 3678 091f 7F0B0000 		.4byte	.LASF173
 3679 0923 02       		.byte	0x2
 3680 0924 13       		.uleb128 0x13
 3681 0925 8B180000 		.4byte	.LASF174
 3682 0929 03       		.byte	0x3
 3683 092a 00       		.byte	0
 3684 092b 0F       		.uleb128 0xf
 3685 092c C2030000 		.4byte	.LASF175
 3686 0930 0D       		.byte	0xd
 3687 0931 0701     		.2byte	0x107
 3688 0933 05090000 		.4byte	0x905
 3689 0937 11       		.uleb128 0x11
 3690 0938 01       		.byte	0x1
 3691 0939 3E000000 		.4byte	0x3e
 3692 093d 0D       		.byte	0xd
 3693 093e 0D01     		.2byte	0x10d
 3694 0940 69090000 		.4byte	0x969
 3695 0944 13       		.uleb128 0x13
 3696 0945 93090000 		.4byte	.LASF176
 3697 0949 00       		.byte	0
 3698 094a 13       		.uleb128 0x13
 3699 094b E3200000 		.4byte	.LASF177
 3700 094f 01       		.byte	0x1
 3701 0950 13       		.uleb128 0x13
 3702 0951 F0200000 		.4byte	.LASF178
 3703 0955 02       		.byte	0x2
 3704 0956 13       		.uleb128 0x13
 3705 0957 E6210000 		.4byte	.LASF179
 3706 095b 03       		.byte	0x3
 3707 095c 13       		.uleb128 0x13
 3708 095d 07220000 		.4byte	.LASF180
 3709 0961 04       		.byte	0x4
 3710 0962 13       		.uleb128 0x13
 3711 0963 05230000 		.4byte	.LASF181
 3712 0967 05       		.byte	0x5
 3713 0968 00       		.byte	0
 3714 0969 0F       		.uleb128 0xf
 3715 096a 0A100000 		.4byte	.LASF182
 3716 096e 0D       		.byte	0xd
 3717 096f 1401     		.2byte	0x114
 3718 0971 37090000 		.4byte	0x937
 3719 0975 11       		.uleb128 0x11
 3720 0976 01       		.byte	0x1
 3721 0977 3E000000 		.4byte	0x3e
 3722 097b 0D       		.byte	0xd
 3723 097c 1A01     		.2byte	0x11a
 3724 097e 8F090000 		.4byte	0x98f
 3725 0982 13       		.uleb128 0x13
ARM GAS  C:\Users\haske\AppData\Local\Temp\ccWSfRiA.s 			page 122


 3726 0983 26250000 		.4byte	.LASF183
 3727 0987 00       		.byte	0
 3728 0988 13       		.uleb128 0x13
 3729 0989 7E1C0000 		.4byte	.LASF184
 3730 098d 01       		.byte	0x1
 3731 098e 00       		.byte	0
 3732 098f 0F       		.uleb128 0xf
 3733 0990 EC0B0000 		.4byte	.LASF185
 3734 0994 0D       		.byte	0xd
 3735 0995 1D01     		.2byte	0x11d
 3736 0997 75090000 		.4byte	0x975
 3737 099b 11       		.uleb128 0x11
 3738 099c 01       		.byte	0x1
 3739 099d 3E000000 		.4byte	0x3e
 3740 09a1 0D       		.byte	0xd
 3741 09a2 2301     		.2byte	0x123
 3742 09a4 B5090000 		.4byte	0x9b5
 3743 09a8 13       		.uleb128 0x13
 3744 09a9 911C0000 		.4byte	.LASF186
 3745 09ad 00       		.byte	0
 3746 09ae 13       		.uleb128 0x13
 3747 09af 71000000 		.4byte	.LASF187
 3748 09b3 01       		.byte	0x1
 3749 09b4 00       		.byte	0
 3750 09b5 0F       		.uleb128 0xf
 3751 09b6 74090000 		.4byte	.LASF188
 3752 09ba 0D       		.byte	0xd
 3753 09bb 2601     		.2byte	0x126
 3754 09bd 9B090000 		.4byte	0x99b
 3755 09c1 14       		.uleb128 0x14
 3756 09c2 28       		.byte	0x28
 3757 09c3 0D       		.byte	0xd
 3758 09c4 3201     		.2byte	0x132
 3759 09c6 6B0B0000 		.4byte	0xb6b
 3760 09ca 15       		.uleb128 0x15
 3761 09cb 6B190000 		.4byte	.LASF189
 3762 09cf 0D       		.byte	0xd
 3763 09d0 3401     		.2byte	0x134
 3764 09d2 96080000 		.4byte	0x896
 3765 09d6 00       		.byte	0
 3766 09d7 15       		.uleb128 0x15
 3767 09d8 8E060000 		.4byte	.LASF190
 3768 09dc 0D       		.byte	0xd
 3769 09dd 3501     		.2byte	0x135
 3770 09df 96080000 		.4byte	0x896
 3771 09e3 01       		.byte	0x1
 3772 09e4 15       		.uleb128 0x15
 3773 09e5 00140000 		.4byte	.LASF191
 3774 09e9 0D       		.byte	0xd
 3775 09ea 3601     		.2byte	0x136
 3776 09ec 96080000 		.4byte	0x896
 3777 09f0 02       		.byte	0x2
 3778 09f1 15       		.uleb128 0x15
 3779 09f2 BD1A0000 		.4byte	.LASF192
 3780 09f6 0D       		.byte	0xd
 3781 09f7 3701     		.2byte	0x137
 3782 09f9 96080000 		.4byte	0x896
ARM GAS  C:\Users\haske\AppData\Local\Temp\ccWSfRiA.s 			page 123


 3783 09fd 03       		.byte	0x3
 3784 09fe 15       		.uleb128 0x15
 3785 09ff 01070000 		.4byte	.LASF193
 3786 0a03 0D       		.byte	0xd
 3787 0a04 3801     		.2byte	0x138
 3788 0a06 A2000000 		.4byte	0xa2
 3789 0a0a 04       		.byte	0x4
 3790 0a0b 15       		.uleb128 0x15
 3791 0a0c DA0C0000 		.4byte	.LASF194
 3792 0a10 0D       		.byte	0xd
 3793 0a11 3901     		.2byte	0x139
 3794 0a13 96080000 		.4byte	0x896
 3795 0a17 05       		.byte	0x5
 3796 0a18 15       		.uleb128 0x15
 3797 0a19 DF0B0000 		.4byte	.LASF195
 3798 0a1d 0D       		.byte	0xd
 3799 0a1e 3A01     		.2byte	0x13a
 3800 0a20 96080000 		.4byte	0x896
 3801 0a24 06       		.byte	0x6
 3802 0a25 15       		.uleb128 0x15
 3803 0a26 40270000 		.4byte	.LASF196
 3804 0a2a 0D       		.byte	0xd
 3805 0a2b 3B01     		.2byte	0x13b
 3806 0a2d 2B090000 		.4byte	0x92b
 3807 0a31 07       		.byte	0x7
 3808 0a32 15       		.uleb128 0x15
 3809 0a33 C91E0000 		.4byte	.LASF197
 3810 0a37 0D       		.byte	0xd
 3811 0a38 3C01     		.2byte	0x13c
 3812 0a3a B5090000 		.4byte	0x9b5
 3813 0a3e 08       		.byte	0x8
 3814 0a3f 15       		.uleb128 0x15
 3815 0a40 E10C0000 		.4byte	.LASF198
 3816 0a44 0D       		.byte	0xd
 3817 0a45 3F01     		.2byte	0x13f
 3818 0a47 96080000 		.4byte	0x896
 3819 0a4b 09       		.byte	0x9
 3820 0a4c 15       		.uleb128 0x15
 3821 0a4d 67120000 		.4byte	.LASF199
 3822 0a51 0D       		.byte	0xd
 3823 0a52 4001     		.2byte	0x140
 3824 0a54 CE000000 		.4byte	0xce
 3825 0a58 0C       		.byte	0xc
 3826 0a59 15       		.uleb128 0x15
 3827 0a5a 07090000 		.4byte	.LASF200
 3828 0a5e 0D       		.byte	0xd
 3829 0a5f 4101     		.2byte	0x141
 3830 0a61 96080000 		.4byte	0x896
 3831 0a65 10       		.byte	0x10
 3832 0a66 15       		.uleb128 0x15
 3833 0a67 F3190000 		.4byte	.LASF201
 3834 0a6b 0D       		.byte	0xd
 3835 0a6c 4901     		.2byte	0x149
 3836 0a6e 96080000 		.4byte	0x896
 3837 0a72 11       		.byte	0x11
 3838 0a73 15       		.uleb128 0x15
 3839 0a74 94240000 		.4byte	.LASF202
ARM GAS  C:\Users\haske\AppData\Local\Temp\ccWSfRiA.s 			page 124


 3840 0a78 0D       		.byte	0xd
 3841 0a79 5001     		.2byte	0x150
 3842 0a7b 96080000 		.4byte	0x896
 3843 0a7f 12       		.byte	0x12
 3844 0a80 15       		.uleb128 0x15
 3845 0a81 9C250000 		.4byte	.LASF203
 3846 0a85 0D       		.byte	0xd
 3847 0a86 5701     		.2byte	0x157
 3848 0a88 A2000000 		.4byte	0xa2
 3849 0a8c 13       		.byte	0x13
 3850 0a8d 15       		.uleb128 0x15
 3851 0a8e 4A050000 		.4byte	.LASF204
 3852 0a92 0D       		.byte	0xd
 3853 0a93 5A01     		.2byte	0x15a
 3854 0a95 69090000 		.4byte	0x969
 3855 0a99 14       		.byte	0x14
 3856 0a9a 15       		.uleb128 0x15
 3857 0a9b 9E040000 		.4byte	.LASF205
 3858 0a9f 0D       		.byte	0xd
 3859 0aa0 5D01     		.2byte	0x15d
 3860 0aa2 69090000 		.4byte	0x969
 3861 0aa6 15       		.byte	0x15
 3862 0aa7 15       		.uleb128 0x15
 3863 0aa8 EB230000 		.4byte	.LASF206
 3864 0aac 0D       		.byte	0xd
 3865 0aad 5F01     		.2byte	0x15f
 3866 0aaf 8F090000 		.4byte	0x98f
 3867 0ab3 16       		.byte	0x16
 3868 0ab4 15       		.uleb128 0x15
 3869 0ab5 6F1A0000 		.4byte	.LASF207
 3870 0ab9 0D       		.byte	0xd
 3871 0aba 6101     		.2byte	0x161
 3872 0abc A2000000 		.4byte	0xa2
 3873 0ac0 17       		.byte	0x17
 3874 0ac1 15       		.uleb128 0x15
 3875 0ac2 48110000 		.4byte	.LASF208
 3876 0ac6 0D       		.byte	0xd
 3877 0ac7 6201     		.2byte	0x162
 3878 0ac9 96080000 		.4byte	0x896
 3879 0acd 18       		.byte	0x18
 3880 0ace 15       		.uleb128 0x15
 3881 0acf 701F0000 		.4byte	.LASF209
 3882 0ad3 0D       		.byte	0xd
 3883 0ad4 6301     		.2byte	0x163
 3884 0ad6 2B090000 		.4byte	0x92b
 3885 0ada 19       		.byte	0x19
 3886 0adb 15       		.uleb128 0x15
 3887 0adc F51D0000 		.4byte	.LASF210
 3888 0ae0 0D       		.byte	0xd
 3889 0ae1 6401     		.2byte	0x164
 3890 0ae3 B5090000 		.4byte	0x9b5
 3891 0ae7 1A       		.byte	0x1a
 3892 0ae8 15       		.uleb128 0x15
 3893 0ae9 2C130000 		.4byte	.LASF211
 3894 0aed 0D       		.byte	0xd
 3895 0aee 6701     		.2byte	0x167
 3896 0af0 96080000 		.4byte	0x896
ARM GAS  C:\Users\haske\AppData\Local\Temp\ccWSfRiA.s 			page 125


 3897 0af4 1B       		.byte	0x1b
 3898 0af5 15       		.uleb128 0x15
 3899 0af6 0E1F0000 		.4byte	.LASF212
 3900 0afa 0D       		.byte	0xd
 3901 0afb 6801     		.2byte	0x168
 3902 0afd CE000000 		.4byte	0xce
 3903 0b01 1C       		.byte	0x1c
 3904 0b02 15       		.uleb128 0x15
 3905 0b03 60220000 		.4byte	.LASF213
 3906 0b07 0D       		.byte	0xd
 3907 0b08 6901     		.2byte	0x169
 3908 0b0a 96080000 		.4byte	0x896
 3909 0b0e 20       		.byte	0x20
 3910 0b0f 15       		.uleb128 0x15
 3911 0b10 7F250000 		.4byte	.LASF214
 3912 0b14 0D       		.byte	0xd
 3913 0b15 7101     		.2byte	0x171
 3914 0b17 96080000 		.4byte	0x896
 3915 0b1b 21       		.byte	0x21
 3916 0b1c 15       		.uleb128 0x15
 3917 0b1d 6A040000 		.4byte	.LASF215
 3918 0b21 0D       		.byte	0xd
 3919 0b22 7801     		.2byte	0x178
 3920 0b24 96080000 		.4byte	0x896
 3921 0b28 22       		.byte	0x22
 3922 0b29 15       		.uleb128 0x15
 3923 0b2a D40B0000 		.4byte	.LASF216
 3924 0b2e 0D       		.byte	0xd
 3925 0b2f 7F01     		.2byte	0x17f
 3926 0b31 A2000000 		.4byte	0xa2
 3927 0b35 23       		.byte	0x23
 3928 0b36 15       		.uleb128 0x15
 3929 0b37 E7110000 		.4byte	.LASF217
 3930 0b3b 0D       		.byte	0xd
 3931 0b3c 8201     		.2byte	0x182
 3932 0b3e 69090000 		.4byte	0x969
 3933 0b42 24       		.byte	0x24
 3934 0b43 15       		.uleb128 0x15
 3935 0b44 8F0A0000 		.4byte	.LASF218
 3936 0b48 0D       		.byte	0xd
 3937 0b49 8501     		.2byte	0x185
 3938 0b4b 69090000 		.4byte	0x969
 3939 0b4f 25       		.byte	0x25
 3940 0b50 15       		.uleb128 0x15
 3941 0b51 77120000 		.4byte	.LASF219
 3942 0b55 0D       		.byte	0xd
 3943 0b56 8701     		.2byte	0x187
 3944 0b58 96080000 		.4byte	0x896
 3945 0b5c 26       		.byte	0x26
 3946 0b5d 15       		.uleb128 0x15
 3947 0b5e 4D030000 		.4byte	.LASF220
 3948 0b62 0D       		.byte	0xd
 3949 0b63 8A01     		.2byte	0x18a
 3950 0b65 A2000000 		.4byte	0xa2
 3951 0b69 27       		.byte	0x27
 3952 0b6a 00       		.byte	0
 3953 0b6b 0F       		.uleb128 0xf
ARM GAS  C:\Users\haske\AppData\Local\Temp\ccWSfRiA.s 			page 126


 3954 0b6c 12170000 		.4byte	.LASF221
 3955 0b70 0D       		.byte	0xd
 3956 0b71 8C01     		.2byte	0x18c
 3957 0b73 C1090000 		.4byte	0x9c1
 3958 0b77 11       		.uleb128 0x11
 3959 0b78 01       		.byte	0x1
 3960 0b79 3E000000 		.4byte	0x3e
 3961 0b7d 0E       		.byte	0xe
 3962 0b7e 1304     		.2byte	0x413
 3963 0b80 9D0B0000 		.4byte	0xb9d
 3964 0b84 13       		.uleb128 0x13
 3965 0b85 A4190000 		.4byte	.LASF222
 3966 0b89 00       		.byte	0
 3967 0b8a 13       		.uleb128 0x13
 3968 0b8b 80210000 		.4byte	.LASF223
 3969 0b8f 01       		.byte	0x1
 3970 0b90 13       		.uleb128 0x13
 3971 0b91 DB190000 		.4byte	.LASF224
 3972 0b95 02       		.byte	0x2
 3973 0b96 13       		.uleb128 0x13
 3974 0b97 CD110000 		.4byte	.LASF225
 3975 0b9b 03       		.byte	0x3
 3976 0b9c 00       		.byte	0
 3977 0b9d 0F       		.uleb128 0xf
 3978 0b9e 0A030000 		.4byte	.LASF226
 3979 0ba2 0E       		.byte	0xe
 3980 0ba3 1804     		.2byte	0x418
 3981 0ba5 770B0000 		.4byte	0xb77
 3982 0ba9 14       		.uleb128 0x14
 3983 0baa 78       		.byte	0x78
 3984 0bab 0E       		.byte	0xe
 3985 0bac 0205     		.2byte	0x502
 3986 0bae 760C0000 		.4byte	0xc76
 3987 0bb2 15       		.uleb128 0x15
 3988 0bb3 080A0000 		.4byte	.LASF227
 3989 0bb7 0E       		.byte	0xe
 3990 0bb8 0405     		.2byte	0x504
 3991 0bba CE000000 		.4byte	0xce
 3992 0bbe 00       		.byte	0
 3993 0bbf 15       		.uleb128 0x15
 3994 0bc0 EA1D0000 		.4byte	.LASF228
 3995 0bc4 0E       		.byte	0xe
 3996 0bc5 0505     		.2byte	0x505
 3997 0bc7 CE000000 		.4byte	0xce
 3998 0bcb 04       		.byte	0x4
 3999 0bcc 15       		.uleb128 0x15
 4000 0bcd 24150000 		.4byte	.LASF229
 4001 0bd1 0E       		.byte	0xe
 4002 0bd2 0605     		.2byte	0x506
 4003 0bd4 CE000000 		.4byte	0xce
 4004 0bd8 08       		.byte	0x8
 4005 0bd9 15       		.uleb128 0x15
 4006 0bda 2B180000 		.4byte	.LASF230
 4007 0bde 0E       		.byte	0xe
 4008 0bdf 0705     		.2byte	0x507
 4009 0be1 CE000000 		.4byte	0xce
 4010 0be5 0C       		.byte	0xc
ARM GAS  C:\Users\haske\AppData\Local\Temp\ccWSfRiA.s 			page 127


 4011 0be6 15       		.uleb128 0x15
 4012 0be7 531A0000 		.4byte	.LASF231
 4013 0beb 0E       		.byte	0xe
 4014 0bec 0805     		.2byte	0x508
 4015 0bee CE000000 		.4byte	0xce
 4016 0bf2 10       		.byte	0x10
 4017 0bf3 15       		.uleb128 0x15
 4018 0bf4 6D250000 		.4byte	.LASF232
 4019 0bf8 0E       		.byte	0xe
 4020 0bf9 0905     		.2byte	0x509
 4021 0bfb 9D0B0000 		.4byte	0xb9d
 4022 0bff 14       		.byte	0x14
 4023 0c00 15       		.uleb128 0x15
 4024 0c01 FB000000 		.4byte	.LASF233
 4025 0c05 0E       		.byte	0xe
 4026 0c06 0A05     		.2byte	0x50a
 4027 0c08 CE000000 		.4byte	0xce
 4028 0c0c 18       		.byte	0x18
 4029 0c0d 15       		.uleb128 0x15
 4030 0c0e 9D000000 		.4byte	.LASF234
 4031 0c12 0E       		.byte	0xe
 4032 0c13 0B05     		.2byte	0x50b
 4033 0c15 760C0000 		.4byte	0xc76
 4034 0c19 1C       		.byte	0x1c
 4035 0c1a 15       		.uleb128 0x15
 4036 0c1b E3220000 		.4byte	.LASF235
 4037 0c1f 0E       		.byte	0xe
 4038 0c20 0C05     		.2byte	0x50c
 4039 0c22 CE000000 		.4byte	0xce
 4040 0c26 5C       		.byte	0x5c
 4041 0c27 15       		.uleb128 0x15
 4042 0c28 FF070000 		.4byte	.LASF236
 4043 0c2c 0E       		.byte	0xe
 4044 0c2d 0D05     		.2byte	0x50d
 4045 0c2f CE000000 		.4byte	0xce
 4046 0c33 60       		.byte	0x60
 4047 0c34 15       		.uleb128 0x15
 4048 0c35 3C050000 		.4byte	.LASF237
 4049 0c39 0E       		.byte	0xe
 4050 0c3a 0E05     		.2byte	0x50e
 4051 0c3c CE000000 		.4byte	0xce
 4052 0c40 64       		.byte	0x64
 4053 0c41 15       		.uleb128 0x15
 4054 0c42 4E210000 		.4byte	.LASF238
 4055 0c46 0E       		.byte	0xe
 4056 0c47 0F05     		.2byte	0x50f
 4057 0c49 CE000000 		.4byte	0xce
 4058 0c4d 68       		.byte	0x68
 4059 0c4e 15       		.uleb128 0x15
 4060 0c4f A4240000 		.4byte	.LASF239
 4061 0c53 0E       		.byte	0xe
 4062 0c54 1005     		.2byte	0x510
 4063 0c56 CE000000 		.4byte	0xce
 4064 0c5a 6C       		.byte	0x6c
 4065 0c5b 15       		.uleb128 0x15
 4066 0c5c 2B1C0000 		.4byte	.LASF240
 4067 0c60 0E       		.byte	0xe
ARM GAS  C:\Users\haske\AppData\Local\Temp\ccWSfRiA.s 			page 128


 4068 0c61 1105     		.2byte	0x511
 4069 0c63 96080000 		.4byte	0x896
 4070 0c67 70       		.byte	0x70
 4071 0c68 15       		.uleb128 0x15
 4072 0c69 510A0000 		.4byte	.LASF241
 4073 0c6d 0E       		.byte	0xe
 4074 0c6e 1205     		.2byte	0x512
 4075 0c70 CE000000 		.4byte	0xce
 4076 0c74 74       		.byte	0x74
 4077 0c75 00       		.byte	0
 4078 0c76 07       		.uleb128 0x7
 4079 0c77 CE000000 		.4byte	0xce
 4080 0c7b 860C0000 		.4byte	0xc86
 4081 0c7f 08       		.uleb128 0x8
 4082 0c80 D9000000 		.4byte	0xd9
 4083 0c84 0F       		.byte	0xf
 4084 0c85 00       		.byte	0
 4085 0c86 0F       		.uleb128 0xf
 4086 0c87 160D0000 		.4byte	.LASF242
 4087 0c8b 0E       		.byte	0xe
 4088 0c8c 1305     		.2byte	0x513
 4089 0c8e A90B0000 		.4byte	0xba9
 4090 0c92 16       		.uleb128 0x16
 4091 0c93 04       		.byte	0x4
 4092 0c94 980C0000 		.4byte	0xc98
 4093 0c98 17       		.uleb128 0x17
 4094 0c99 A30C0000 		.4byte	0xca3
 4095 0c9d 18       		.uleb128 0x18
 4096 0c9e CE000000 		.4byte	0xce
 4097 0ca2 00       		.byte	0
 4098 0ca3 0F       		.uleb128 0xf
 4099 0ca4 06240000 		.4byte	.LASF243
 4100 0ca8 0F       		.byte	0xf
 4101 0ca9 F201     		.2byte	0x1f2
 4102 0cab 920C0000 		.4byte	0xc92
 4103 0caf 19       		.uleb128 0x19
 4104 0cb0 300B0000 		.4byte	.LASF254
 4105 0cb4 24       		.byte	0x24
 4106 0cb5 0F       		.byte	0xf
 4107 0cb6 7402     		.2byte	0x274
 4108 0cb8 320D0000 		.4byte	0xd32
 4109 0cbc 15       		.uleb128 0x15
 4110 0cbd 18250000 		.4byte	.LASF244
 4111 0cc1 0F       		.byte	0xf
 4112 0cc2 7702     		.2byte	0x277
 4113 0cc4 E0000000 		.4byte	0xe0
 4114 0cc8 00       		.byte	0
 4115 0cc9 15       		.uleb128 0x15
 4116 0cca 0D010000 		.4byte	.LASF245
 4117 0cce 0F       		.byte	0xf
 4118 0ccf 7902     		.2byte	0x279
 4119 0cd1 94080000 		.4byte	0x894
 4120 0cd5 04       		.byte	0x4
 4121 0cd6 15       		.uleb128 0x15
 4122 0cd7 CA0B0000 		.4byte	.LASF246
 4123 0cdb 0F       		.byte	0xf
 4124 0cdc 7A02     		.2byte	0x27a
ARM GAS  C:\Users\haske\AppData\Local\Temp\ccWSfRiA.s 			page 129


 4125 0cde CE000000 		.4byte	0xce
 4126 0ce2 08       		.byte	0x8
 4127 0ce3 15       		.uleb128 0x15
 4128 0ce4 FE150000 		.4byte	.LASF247
 4129 0ce8 0F       		.byte	0xf
 4130 0ce9 7B02     		.2byte	0x27b
 4131 0ceb E0000000 		.4byte	0xe0
 4132 0cef 0C       		.byte	0xc
 4133 0cf0 15       		.uleb128 0x15
 4134 0cf1 361E0000 		.4byte	.LASF248
 4135 0cf5 0F       		.byte	0xf
 4136 0cf6 7D02     		.2byte	0x27d
 4137 0cf8 94080000 		.4byte	0x894
 4138 0cfc 10       		.byte	0x10
 4139 0cfd 15       		.uleb128 0x15
 4140 0cfe 99050000 		.4byte	.LASF249
 4141 0d02 0F       		.byte	0xf
 4142 0d03 7E02     		.2byte	0x27e
 4143 0d05 CE000000 		.4byte	0xce
 4144 0d09 14       		.byte	0x14
 4145 0d0a 15       		.uleb128 0x15
 4146 0d0b 3D130000 		.4byte	.LASF250
 4147 0d0f 0F       		.byte	0xf
 4148 0d10 7F02     		.2byte	0x27f
 4149 0d12 E0000000 		.4byte	0xe0
 4150 0d16 18       		.byte	0x18
 4151 0d17 15       		.uleb128 0x15
 4152 0d18 B2100000 		.4byte	.LASF251
 4153 0d1c 0F       		.byte	0xf
 4154 0d1d 8502     		.2byte	0x285
 4155 0d1f A30C0000 		.4byte	0xca3
 4156 0d23 1C       		.byte	0x1c
 4157 0d24 15       		.uleb128 0x15
 4158 0d25 F3210000 		.4byte	.LASF252
 4159 0d29 0F       		.byte	0xf
 4160 0d2a 8802     		.2byte	0x288
 4161 0d2c CE000000 		.4byte	0xce
 4162 0d30 20       		.byte	0x20
 4163 0d31 00       		.byte	0
 4164 0d32 0F       		.uleb128 0xf
 4165 0d33 2C1F0000 		.4byte	.LASF253
 4166 0d37 0F       		.byte	0xf
 4167 0d38 8B02     		.2byte	0x28b
 4168 0d3a AF0C0000 		.4byte	0xcaf
 4169 0d3e 1A       		.uleb128 0x1a
 4170 0d3f B90E0000 		.4byte	.LASF255
 4171 0d43 64       		.byte	0x64
 4172 0d44 03       		.byte	0x3
 4173 0d45 2F       		.byte	0x2f
 4174 0d46 770E0000 		.4byte	0xe77
 4175 0d4a 0B       		.uleb128 0xb
 4176 0d4b D9170000 		.4byte	.LASF256
 4177 0d4f 03       		.byte	0x3
 4178 0d50 31       		.byte	0x31
 4179 0d51 CE000000 		.4byte	0xce
 4180 0d55 00       		.byte	0
 4181 0d56 0B       		.uleb128 0xb
ARM GAS  C:\Users\haske\AppData\Local\Temp\ccWSfRiA.s 			page 130


 4182 0d57 010C0000 		.4byte	.LASF257
 4183 0d5b 03       		.byte	0x3
 4184 0d5c 33       		.byte	0x33
 4185 0d5d CE000000 		.4byte	0xce
 4186 0d61 04       		.byte	0x4
 4187 0d62 0B       		.uleb128 0xb
 4188 0d63 60030000 		.4byte	.LASF258
 4189 0d67 03       		.byte	0x3
 4190 0d68 34       		.byte	0x34
 4191 0d69 CE000000 		.4byte	0xce
 4192 0d6d 08       		.byte	0x8
 4193 0d6e 0B       		.uleb128 0xb
 4194 0d6f BA230000 		.4byte	.LASF259
 4195 0d73 03       		.byte	0x3
 4196 0d74 35       		.byte	0x35
 4197 0d75 CE000000 		.4byte	0xce
 4198 0d79 0C       		.byte	0xc
 4199 0d7a 0B       		.uleb128 0xb
 4200 0d7b B50B0000 		.4byte	.LASF260
 4201 0d7f 03       		.byte	0x3
 4202 0d80 36       		.byte	0x36
 4203 0d81 CE000000 		.4byte	0xce
 4204 0d85 10       		.byte	0x10
 4205 0d86 0B       		.uleb128 0xb
 4206 0d87 77250000 		.4byte	.LASF261
 4207 0d8b 03       		.byte	0x3
 4208 0d8c 37       		.byte	0x37
 4209 0d8d CE000000 		.4byte	0xce
 4210 0d91 14       		.byte	0x14
 4211 0d92 0B       		.uleb128 0xb
 4212 0d93 AA080000 		.4byte	.LASF262
 4213 0d97 03       		.byte	0x3
 4214 0d98 38       		.byte	0x38
 4215 0d99 CE000000 		.4byte	0xce
 4216 0d9d 18       		.byte	0x18
 4217 0d9e 0B       		.uleb128 0xb
 4218 0d9f 87120000 		.4byte	.LASF263
 4219 0da3 03       		.byte	0x3
 4220 0da4 39       		.byte	0x39
 4221 0da5 96080000 		.4byte	0x896
 4222 0da9 1C       		.byte	0x1c
 4223 0daa 0B       		.uleb128 0xb
 4224 0dab EA020000 		.4byte	.LASF264
 4225 0daf 03       		.byte	0x3
 4226 0db0 3A       		.byte	0x3a
 4227 0db1 CE000000 		.4byte	0xce
 4228 0db5 20       		.byte	0x20
 4229 0db6 0B       		.uleb128 0xb
 4230 0db7 F3020000 		.4byte	.LASF265
 4231 0dbb 03       		.byte	0x3
 4232 0dbc 3B       		.byte	0x3b
 4233 0dbd CE000000 		.4byte	0xce
 4234 0dc1 24       		.byte	0x24
 4235 0dc2 0B       		.uleb128 0xb
 4236 0dc3 19180000 		.4byte	.LASF266
 4237 0dc7 03       		.byte	0x3
 4238 0dc8 3C       		.byte	0x3c
ARM GAS  C:\Users\haske\AppData\Local\Temp\ccWSfRiA.s 			page 131


 4239 0dc9 96080000 		.4byte	0x896
 4240 0dcd 28       		.byte	0x28
 4241 0dce 0B       		.uleb128 0xb
 4242 0dcf EF130000 		.4byte	.LASF267
 4243 0dd3 03       		.byte	0x3
 4244 0dd4 3E       		.byte	0x3e
 4245 0dd5 CE000000 		.4byte	0xce
 4246 0dd9 2C       		.byte	0x2c
 4247 0dda 0B       		.uleb128 0xb
 4248 0ddb 7B100000 		.4byte	.LASF268
 4249 0ddf 03       		.byte	0x3
 4250 0de0 3F       		.byte	0x3f
 4251 0de1 CE000000 		.4byte	0xce
 4252 0de5 30       		.byte	0x30
 4253 0de6 0B       		.uleb128 0xb
 4254 0de7 32270000 		.4byte	.LASF269
 4255 0deb 03       		.byte	0x3
 4256 0dec 40       		.byte	0x40
 4257 0ded CE000000 		.4byte	0xce
 4258 0df1 34       		.byte	0x34
 4259 0df2 0B       		.uleb128 0xb
 4260 0df3 1A100000 		.4byte	.LASF270
 4261 0df7 03       		.byte	0x3
 4262 0df8 41       		.byte	0x41
 4263 0df9 CE000000 		.4byte	0xce
 4264 0dfd 38       		.byte	0x38
 4265 0dfe 0B       		.uleb128 0xb
 4266 0dff 55140000 		.4byte	.LASF271
 4267 0e03 03       		.byte	0x3
 4268 0e04 42       		.byte	0x42
 4269 0e05 CE000000 		.4byte	0xce
 4270 0e09 3C       		.byte	0x3c
 4271 0e0a 0B       		.uleb128 0xb
 4272 0e0b 7C050000 		.4byte	.LASF272
 4273 0e0f 03       		.byte	0x3
 4274 0e10 44       		.byte	0x44
 4275 0e11 CE000000 		.4byte	0xce
 4276 0e15 40       		.byte	0x40
 4277 0e16 0B       		.uleb128 0xb
 4278 0e17 C5060000 		.4byte	.LASF273
 4279 0e1b 03       		.byte	0x3
 4280 0e1c 45       		.byte	0x45
 4281 0e1d CE000000 		.4byte	0xce
 4282 0e21 44       		.byte	0x44
 4283 0e22 0B       		.uleb128 0xb
 4284 0e23 52270000 		.4byte	.LASF274
 4285 0e27 03       		.byte	0x3
 4286 0e28 47       		.byte	0x47
 4287 0e29 CE000000 		.4byte	0xce
 4288 0e2d 48       		.byte	0x48
 4289 0e2e 0B       		.uleb128 0xb
 4290 0e2f 3F210000 		.4byte	.LASF275
 4291 0e33 03       		.byte	0x3
 4292 0e34 48       		.byte	0x48
 4293 0e35 CE000000 		.4byte	0xce
 4294 0e39 4C       		.byte	0x4c
 4295 0e3a 0B       		.uleb128 0xb
ARM GAS  C:\Users\haske\AppData\Local\Temp\ccWSfRiA.s 			page 132


 4296 0e3b 77280000 		.4byte	.LASF276
 4297 0e3f 03       		.byte	0x3
 4298 0e40 4A       		.byte	0x4a
 4299 0e41 CE000000 		.4byte	0xce
 4300 0e45 50       		.byte	0x50
 4301 0e46 0B       		.uleb128 0xb
 4302 0e47 DE240000 		.4byte	.LASF277
 4303 0e4b 03       		.byte	0x3
 4304 0e4c 4B       		.byte	0x4b
 4305 0e4d CE000000 		.4byte	0xce
 4306 0e51 54       		.byte	0x54
 4307 0e52 0B       		.uleb128 0xb
 4308 0e53 38180000 		.4byte	.LASF278
 4309 0e57 03       		.byte	0x3
 4310 0e58 4D       		.byte	0x4d
 4311 0e59 CE000000 		.4byte	0xce
 4312 0e5d 58       		.byte	0x58
 4313 0e5e 0B       		.uleb128 0xb
 4314 0e5f B3030000 		.4byte	.LASF279
 4315 0e63 03       		.byte	0x3
 4316 0e64 4E       		.byte	0x4e
 4317 0e65 CE000000 		.4byte	0xce
 4318 0e69 5C       		.byte	0x5c
 4319 0e6a 0B       		.uleb128 0xb
 4320 0e6b EA180000 		.4byte	.LASF280
 4321 0e6f 03       		.byte	0x3
 4322 0e70 50       		.byte	0x50
 4323 0e71 CE000000 		.4byte	0xce
 4324 0e75 60       		.byte	0x60
 4325 0e76 00       		.byte	0
 4326 0e77 03       		.uleb128 0x3
 4327 0e78 14040000 		.4byte	.LASF281
 4328 0e7c 03       		.byte	0x3
 4329 0e7d 51       		.byte	0x51
 4330 0e7e 3E0D0000 		.4byte	0xd3e
 4331 0e82 16       		.uleb128 0x16
 4332 0e83 04       		.byte	0x4
 4333 0e84 67080000 		.4byte	0x867
 4334 0e88 16       		.uleb128 0x16
 4335 0e89 04       		.byte	0x4
 4336 0e8a 8E0E0000 		.4byte	0xe8e
 4337 0e8e 06       		.uleb128 0x6
 4338 0e8f 67080000 		.4byte	0x867
 4339 0e93 11       		.uleb128 0x11
 4340 0e94 02       		.byte	0x2
 4341 0e95 5B000000 		.4byte	0x5b
 4342 0e99 10       		.byte	0x10
 4343 0e9a 5401     		.2byte	0x154
 4344 0e9c D3110000 		.4byte	0x11d3
 4345 0ea0 13       		.uleb128 0x13
 4346 0ea1 131A0000 		.4byte	.LASF282
 4347 0ea5 00       		.byte	0
 4348 0ea6 1B       		.uleb128 0x1b
 4349 0ea7 0F120000 		.4byte	.LASF283
 4350 0eab 0010     		.2byte	0x1000
 4351 0ead 1B       		.uleb128 0x1b
 4352 0eae DE070000 		.4byte	.LASF284
ARM GAS  C:\Users\haske\AppData\Local\Temp\ccWSfRiA.s 			page 133


 4353 0eb2 0110     		.2byte	0x1001
 4354 0eb4 1B       		.uleb128 0x1b
 4355 0eb5 A8050000 		.4byte	.LASF285
 4356 0eb9 0210     		.2byte	0x1002
 4357 0ebb 1B       		.uleb128 0x1b
 4358 0ebc 6E140000 		.4byte	.LASF286
 4359 0ec0 0310     		.2byte	0x1003
 4360 0ec2 1B       		.uleb128 0x1b
 4361 0ec3 00000000 		.4byte	.LASF287
 4362 0ec7 0410     		.2byte	0x1004
 4363 0ec9 1B       		.uleb128 0x1b
 4364 0eca 99230000 		.4byte	.LASF288
 4365 0ece 0510     		.2byte	0x1005
 4366 0ed0 1B       		.uleb128 0x1b
 4367 0ed1 3F020000 		.4byte	.LASF289
 4368 0ed5 0020     		.2byte	0x2000
 4369 0ed7 1B       		.uleb128 0x1b
 4370 0ed8 77020000 		.4byte	.LASF290
 4371 0edc 0120     		.2byte	0x2001
 4372 0ede 1B       		.uleb128 0x1b
 4373 0edf 99210000 		.4byte	.LASF291
 4374 0ee3 0220     		.2byte	0x2002
 4375 0ee5 1B       		.uleb128 0x1b
 4376 0ee6 67180000 		.4byte	.LASF292
 4377 0eea 0320     		.2byte	0x2003
 4378 0eec 1B       		.uleb128 0x1b
 4379 0eed 04020000 		.4byte	.LASF293
 4380 0ef1 0420     		.2byte	0x2004
 4381 0ef3 1B       		.uleb128 0x1b
 4382 0ef4 A91C0000 		.4byte	.LASF294
 4383 0ef8 0520     		.2byte	0x2005
 4384 0efa 1B       		.uleb128 0x1b
 4385 0efb 1E1B0000 		.4byte	.LASF295
 4386 0eff 0620     		.2byte	0x2006
 4387 0f01 1B       		.uleb128 0x1b
 4388 0f02 14280000 		.4byte	.LASF296
 4389 0f06 0720     		.2byte	0x2007
 4390 0f08 1B       		.uleb128 0x1b
 4391 0f09 34160000 		.4byte	.LASF297
 4392 0f0d 0820     		.2byte	0x2008
 4393 0f0f 1B       		.uleb128 0x1b
 4394 0f10 CC180000 		.4byte	.LASF298
 4395 0f14 0920     		.2byte	0x2009
 4396 0f16 1B       		.uleb128 0x1b
 4397 0f17 A51D0000 		.4byte	.LASF299
 4398 0f1b 0A20     		.2byte	0x200a
 4399 0f1d 1B       		.uleb128 0x1b
 4400 0f1e C9230000 		.4byte	.LASF300
 4401 0f22 0B20     		.2byte	0x200b
 4402 0f24 1B       		.uleb128 0x1b
 4403 0f25 8C110000 		.4byte	.LASF301
 4404 0f29 0C20     		.2byte	0x200c
 4405 0f2b 1B       		.uleb128 0x1b
 4406 0f2c CA1B0000 		.4byte	.LASF302
 4407 0f30 0D20     		.2byte	0x200d
 4408 0f32 1B       		.uleb128 0x1b
 4409 0f33 9A070000 		.4byte	.LASF303
ARM GAS  C:\Users\haske\AppData\Local\Temp\ccWSfRiA.s 			page 134


 4410 0f37 0E20     		.2byte	0x200e
 4411 0f39 1B       		.uleb128 0x1b
 4412 0f3a E9270000 		.4byte	.LASF304
 4413 0f3e 0F20     		.2byte	0x200f
 4414 0f40 1B       		.uleb128 0x1b
 4415 0f41 14080000 		.4byte	.LASF305
 4416 0f45 1020     		.2byte	0x2010
 4417 0f47 1B       		.uleb128 0x1b
 4418 0f48 03050000 		.4byte	.LASF306
 4419 0f4c 1120     		.2byte	0x2011
 4420 0f4e 1B       		.uleb128 0x1b
 4421 0f4f B7270000 		.4byte	.LASF307
 4422 0f53 1220     		.2byte	0x2012
 4423 0f55 1B       		.uleb128 0x1b
 4424 0f56 470B0000 		.4byte	.LASF308
 4425 0f5a 1320     		.2byte	0x2013
 4426 0f5c 1B       		.uleb128 0x1b
 4427 0f5d D10E0000 		.4byte	.LASF309
 4428 0f61 1420     		.2byte	0x2014
 4429 0f63 1B       		.uleb128 0x1b
 4430 0f64 630B0000 		.4byte	.LASF310
 4431 0f68 1520     		.2byte	0x2015
 4432 0f6a 1B       		.uleb128 0x1b
 4433 0f6b 59150000 		.4byte	.LASF311
 4434 0f6f 1620     		.2byte	0x2016
 4435 0f71 1B       		.uleb128 0x1b
 4436 0f72 08070000 		.4byte	.LASF312
 4437 0f76 1720     		.2byte	0x2017
 4438 0f78 1B       		.uleb128 0x1b
 4439 0f79 89030000 		.4byte	.LASF313
 4440 0f7d 0030     		.2byte	0x3000
 4441 0f7f 1B       		.uleb128 0x1b
 4442 0f80 041E0000 		.4byte	.LASF314
 4443 0f84 0130     		.2byte	0x3001
 4444 0f86 1B       		.uleb128 0x1b
 4445 0f87 320F0000 		.4byte	.LASF315
 4446 0f8b 0230     		.2byte	0x3002
 4447 0f8d 1B       		.uleb128 0x1b
 4448 0f8e 91220000 		.4byte	.LASF316
 4449 0f92 0330     		.2byte	0x3003
 4450 0f94 1B       		.uleb128 0x1b
 4451 0f95 5E100000 		.4byte	.LASF317
 4452 0f99 0430     		.2byte	0x3004
 4453 0f9b 1B       		.uleb128 0x1b
 4454 0f9c 72220000 		.4byte	.LASF318
 4455 0fa0 0530     		.2byte	0x3005
 4456 0fa2 1B       		.uleb128 0x1b
 4457 0fa3 6A270000 		.4byte	.LASF319
 4458 0fa7 0630     		.2byte	0x3006
 4459 0fa9 1B       		.uleb128 0x1b
 4460 0faa 62010000 		.4byte	.LASF320
 4461 0fae 0730     		.2byte	0x3007
 4462 0fb0 1B       		.uleb128 0x1b
 4463 0fb1 2A010000 		.4byte	.LASF321
 4464 0fb5 0830     		.2byte	0x3008
 4465 0fb7 1B       		.uleb128 0x1b
 4466 0fb8 91130000 		.4byte	.LASF322
ARM GAS  C:\Users\haske\AppData\Local\Temp\ccWSfRiA.s 			page 135


 4467 0fbc 0930     		.2byte	0x3009
 4468 0fbe 1B       		.uleb128 0x1b
 4469 0fbf 3A250000 		.4byte	.LASF323
 4470 0fc3 0A30     		.2byte	0x300a
 4471 0fc5 1B       		.uleb128 0x1b
 4472 0fc6 D21C0000 		.4byte	.LASF324
 4473 0fca 0B30     		.2byte	0x300b
 4474 0fcc 1B       		.uleb128 0x1b
 4475 0fcd 910B0000 		.4byte	.LASF325
 4476 0fd1 0C30     		.2byte	0x300c
 4477 0fd3 1B       		.uleb128 0x1b
 4478 0fd4 BC010000 		.4byte	.LASF326
 4479 0fd8 1130     		.2byte	0x3011
 4480 0fda 1B       		.uleb128 0x1b
 4481 0fdb 3D220000 		.4byte	.LASF327
 4482 0fdf 1230     		.2byte	0x3012
 4483 0fe1 1B       		.uleb128 0x1b
 4484 0fe2 68260000 		.4byte	.LASF328
 4485 0fe6 1330     		.2byte	0x3013
 4486 0fe8 1B       		.uleb128 0x1b
 4487 0fe9 57230000 		.4byte	.LASF329
 4488 0fed 1430     		.2byte	0x3014
 4489 0fef 1B       		.uleb128 0x1b
 4490 0ff0 EC240000 		.4byte	.LASF330
 4491 0ff4 1530     		.2byte	0x3015
 4492 0ff6 1B       		.uleb128 0x1b
 4493 0ff7 3B060000 		.4byte	.LASF331
 4494 0ffb 1630     		.2byte	0x3016
 4495 0ffd 1B       		.uleb128 0x1b
 4496 0ffe 821A0000 		.4byte	.LASF332
 4497 1002 1730     		.2byte	0x3017
 4498 1004 1B       		.uleb128 0x1b
 4499 1005 930E0000 		.4byte	.LASF333
 4500 1009 1830     		.2byte	0x3018
 4501 100b 1B       		.uleb128 0x1b
 4502 100c C3190000 		.4byte	.LASF334
 4503 1010 1930     		.2byte	0x3019
 4504 1012 1B       		.uleb128 0x1b
 4505 1013 260C0000 		.4byte	.LASF335
 4506 1017 0040     		.2byte	0x4000
 4507 1019 1B       		.uleb128 0x1b
 4508 101a 77160000 		.4byte	.LASF336
 4509 101e 0140     		.2byte	0x4001
 4510 1020 1B       		.uleb128 0x1b
 4511 1021 2C0A0000 		.4byte	.LASF337
 4512 1025 0240     		.2byte	0x4002
 4513 1027 1B       		.uleb128 0x1b
 4514 1028 401C0000 		.4byte	.LASF338
 4515 102c 0340     		.2byte	0x4003
 4516 102e 1B       		.uleb128 0x1b
 4517 102f CA1A0000 		.4byte	.LASF339
 4518 1033 0440     		.2byte	0x4004
 4519 1035 1B       		.uleb128 0x1b
 4520 1036 BF0C0000 		.4byte	.LASF340
 4521 103a 0540     		.2byte	0x4005
 4522 103c 1B       		.uleb128 0x1b
 4523 103d 16210000 		.4byte	.LASF341
ARM GAS  C:\Users\haske\AppData\Local\Temp\ccWSfRiA.s 			page 136


 4524 1041 0640     		.2byte	0x4006
 4525 1043 1B       		.uleb128 0x1b
 4526 1044 37230000 		.4byte	.LASF342
 4527 1048 0740     		.2byte	0x4007
 4528 104a 1B       		.uleb128 0x1b
 4529 104b 37260000 		.4byte	.LASF343
 4530 104f 0840     		.2byte	0x4008
 4531 1051 1B       		.uleb128 0x1b
 4532 1052 5F070000 		.4byte	.LASF344
 4533 1056 0940     		.2byte	0x4009
 4534 1058 1B       		.uleb128 0x1b
 4535 1059 011C0000 		.4byte	.LASF345
 4536 105d 0A40     		.2byte	0x400a
 4537 105f 1B       		.uleb128 0x1b
 4538 1060 21110000 		.4byte	.LASF346
 4539 1064 0B40     		.2byte	0x400b
 4540 1066 1B       		.uleb128 0x1b
 4541 1067 42280000 		.4byte	.LASF347
 4542 106b 0C40     		.2byte	0x400c
 4543 106d 1B       		.uleb128 0x1b
 4544 106e 00260000 		.4byte	.LASF348
 4545 1072 0D40     		.2byte	0x400d
 4546 1074 1B       		.uleb128 0x1b
 4547 1075 42180000 		.4byte	.LASF349
 4548 1079 0E40     		.2byte	0x400e
 4549 107b 1B       		.uleb128 0x1b
 4550 107c 690E0000 		.4byte	.LASF350
 4551 1080 0F40     		.2byte	0x400f
 4552 1082 1B       		.uleb128 0x1b
 4553 1083 5B0C0000 		.4byte	.LASF351
 4554 1087 1040     		.2byte	0x4010
 4555 1089 1B       		.uleb128 0x1b
 4556 108a 76080000 		.4byte	.LASF352
 4557 108e 1140     		.2byte	0x4011
 4558 1090 1B       		.uleb128 0x1b
 4559 1091 A61F0000 		.4byte	.LASF353
 4560 1095 1240     		.2byte	0x4012
 4561 1097 1B       		.uleb128 0x1b
 4562 1098 9F090000 		.4byte	.LASF354
 4563 109c 1340     		.2byte	0x4013
 4564 109e 1B       		.uleb128 0x1b
 4565 109f A3280000 		.4byte	.LASF355
 4566 10a3 1440     		.2byte	0x4014
 4567 10a5 1B       		.uleb128 0x1b
 4568 10a6 2E1D0000 		.4byte	.LASF356
 4569 10aa 1540     		.2byte	0x4015
 4570 10ac 1B       		.uleb128 0x1b
 4571 10ad 3A040000 		.4byte	.LASF357
 4572 10b1 1640     		.2byte	0x4016
 4573 10b3 1B       		.uleb128 0x1b
 4574 10b4 61110000 		.4byte	.LASF358
 4575 10b8 1740     		.2byte	0x4017
 4576 10ba 1B       		.uleb128 0x1b
 4577 10bb 5E160000 		.4byte	.LASF359
 4578 10bf 1840     		.2byte	0x4018
 4579 10c1 1B       		.uleb128 0x1b
 4580 10c2 A2260000 		.4byte	.LASF360
ARM GAS  C:\Users\haske\AppData\Local\Temp\ccWSfRiA.s 			page 137


 4581 10c6 1940     		.2byte	0x4019
 4582 10c8 1B       		.uleb128 0x1b
 4583 10c9 3C1E0000 		.4byte	.LASF361
 4584 10cd 1A40     		.2byte	0x401a
 4585 10cf 1B       		.uleb128 0x1b
 4586 10d0 6F0F0000 		.4byte	.LASF362
 4587 10d4 0050     		.2byte	0x5000
 4588 10d6 1B       		.uleb128 0x1b
 4589 10d7 43190000 		.4byte	.LASF363
 4590 10db 0150     		.2byte	0x5001
 4591 10dd 1B       		.uleb128 0x1b
 4592 10de D0050000 		.4byte	.LASF364
 4593 10e2 0250     		.2byte	0x5002
 4594 10e4 1B       		.uleb128 0x1b
 4595 10e5 04060000 		.4byte	.LASF365
 4596 10e9 0350     		.2byte	0x5003
 4597 10eb 1B       		.uleb128 0x1b
 4598 10ec 551D0000 		.4byte	.LASF366
 4599 10f0 0450     		.2byte	0x5004
 4600 10f2 1B       		.uleb128 0x1b
 4601 10f3 BB100000 		.4byte	.LASF367
 4602 10f7 0550     		.2byte	0x5005
 4603 10f9 1B       		.uleb128 0x1b
 4604 10fa 1F000000 		.4byte	.LASF368
 4605 10fe 0650     		.2byte	0x5006
 4606 1100 1B       		.uleb128 0x1b
 4607 1101 0D0A0000 		.4byte	.LASF369
 4608 1105 0750     		.2byte	0x5007
 4609 1107 1B       		.uleb128 0x1b
 4610 1108 C1120000 		.4byte	.LASF370
 4611 110c 0850     		.2byte	0x5008
 4612 110e 1B       		.uleb128 0x1b
 4613 110f 05130000 		.4byte	.LASF371
 4614 1113 0950     		.2byte	0x5009
 4615 1115 1B       		.uleb128 0x1b
 4616 1116 3C200000 		.4byte	.LASF372
 4617 111a 0A50     		.2byte	0x500a
 4618 111c 1B       		.uleb128 0x1b
 4619 111d 2D030000 		.4byte	.LASF373
 4620 1121 0B50     		.2byte	0x500b
 4621 1123 1B       		.uleb128 0x1b
 4622 1124 98060000 		.4byte	.LASF374
 4623 1128 0C50     		.2byte	0x500c
 4624 112a 1B       		.uleb128 0x1b
 4625 112b 820D0000 		.4byte	.LASF375
 4626 112f 0D50     		.2byte	0x500d
 4627 1131 1B       		.uleb128 0x1b
 4628 1132 341A0000 		.4byte	.LASF376
 4629 1136 0E50     		.2byte	0x500e
 4630 1138 1B       		.uleb128 0x1b
 4631 1139 8A0F0000 		.4byte	.LASF377
 4632 113d 0F50     		.2byte	0x500f
 4633 113f 1B       		.uleb128 0x1b
 4634 1140 0D140000 		.4byte	.LASF378
 4635 1144 1050     		.2byte	0x5010
 4636 1146 1B       		.uleb128 0x1b
 4637 1147 F4030000 		.4byte	.LASF379
ARM GAS  C:\Users\haske\AppData\Local\Temp\ccWSfRiA.s 			page 138


 4638 114b 1150     		.2byte	0x5011
 4639 114d 1B       		.uleb128 0x1b
 4640 114e 470E0000 		.4byte	.LASF380
 4641 1152 1250     		.2byte	0x5012
 4642 1154 1B       		.uleb128 0x1b
 4643 1155 5A050000 		.4byte	.LASF381
 4644 1159 1350     		.2byte	0x5013
 4645 115b 1B       		.uleb128 0x1b
 4646 115c 19090000 		.4byte	.LASF382
 4647 1160 1450     		.2byte	0x5014
 4648 1162 1B       		.uleb128 0x1b
 4649 1163 12230000 		.4byte	.LASF383
 4650 1167 1550     		.2byte	0x5015
 4651 1169 1B       		.uleb128 0x1b
 4652 116a ED0A0000 		.4byte	.LASF384
 4653 116e 1650     		.2byte	0x5016
 4654 1170 1B       		.uleb128 0x1b
 4655 1171 98200000 		.4byte	.LASF385
 4656 1175 1750     		.2byte	0x5017
 4657 1177 1B       		.uleb128 0x1b
 4658 1178 7A040000 		.4byte	.LASF386
 4659 117c 1850     		.2byte	0x5018
 4660 117e 1B       		.uleb128 0x1b
 4661 117f 980C0000 		.4byte	.LASF387
 4662 1183 0060     		.2byte	0x6000
 4663 1185 1B       		.uleb128 0x1b
 4664 1186 FA1F0000 		.4byte	.LASF388
 4665 118a 0160     		.2byte	0x6001
 4666 118c 1B       		.uleb128 0x1b
 4667 118d 3F120000 		.4byte	.LASF389
 4668 1191 0260     		.2byte	0x6002
 4669 1193 1B       		.uleb128 0x1b
 4670 1194 3F100000 		.4byte	.LASF390
 4671 1198 0360     		.2byte	0x6003
 4672 119a 1B       		.uleb128 0x1b
 4673 119b AB040000 		.4byte	.LASF391
 4674 119f 0460     		.2byte	0x6004
 4675 11a1 1B       		.uleb128 0x1b
 4676 11a2 831D0000 		.4byte	.LASF392
 4677 11a6 0560     		.2byte	0x6005
 4678 11a8 1B       		.uleb128 0x1b
 4679 11a9 D1140000 		.4byte	.LASF393
 4680 11ad 0660     		.2byte	0x6006
 4681 11af 1B       		.uleb128 0x1b
 4682 11b0 A1150000 		.4byte	.LASF394
 4683 11b4 0760     		.2byte	0x6007
 4684 11b6 1B       		.uleb128 0x1b
 4685 11b7 C61D0000 		.4byte	.LASF395
 4686 11bb 0860     		.2byte	0x6008
 4687 11bd 1B       		.uleb128 0x1b
 4688 11be B60F0000 		.4byte	.LASF396
 4689 11c2 0960     		.2byte	0x6009
 4690 11c4 1B       		.uleb128 0x1b
 4691 11c5 811E0000 		.4byte	.LASF397
 4692 11c9 0A60     		.2byte	0x600a
 4693 11cb 1B       		.uleb128 0x1b
 4694 11cc A1020000 		.4byte	.LASF398
ARM GAS  C:\Users\haske\AppData\Local\Temp\ccWSfRiA.s 			page 139


 4695 11d0 FFFF     		.2byte	0xffff
 4696 11d2 00       		.byte	0
 4697 11d3 14       		.uleb128 0x14
 4698 11d4 02       		.byte	0x2
 4699 11d5 11       		.byte	0x11
 4700 11d6 6401     		.2byte	0x164
 4701 11d8 F7110000 		.4byte	0x11f7
 4702 11dc 15       		.uleb128 0x15
 4703 11dd CA040000 		.4byte	.LASF399
 4704 11e1 11       		.byte	0x11
 4705 11e2 6E01     		.2byte	0x16e
 4706 11e4 A2000000 		.4byte	0xa2
 4707 11e8 00       		.byte	0
 4708 11e9 15       		.uleb128 0x15
 4709 11ea 4C270000 		.4byte	.LASF400
 4710 11ee 11       		.byte	0x11
 4711 11ef 7201     		.2byte	0x172
 4712 11f1 A2000000 		.4byte	0xa2
 4713 11f5 01       		.byte	0x1
 4714 11f6 00       		.byte	0
 4715 11f7 0F       		.uleb128 0xf
 4716 11f8 FD200000 		.4byte	.LASF401
 4717 11fc 11       		.byte	0x11
 4718 11fd 7401     		.2byte	0x174
 4719 11ff D3110000 		.4byte	0x11d3
 4720 1203 1C       		.uleb128 0x1c
 4721 1204 01       		.byte	0x1
 4722 1205 3E000000 		.4byte	0x3e
 4723 1209 04       		.byte	0x4
 4724 120a 7E       		.byte	0x7e
 4725 120b 28120000 		.4byte	0x1228
 4726 120f 13       		.uleb128 0x13
 4727 1210 75190000 		.4byte	.LASF402
 4728 1214 00       		.byte	0
 4729 1215 13       		.uleb128 0x13
 4730 1216 BF070000 		.4byte	.LASF403
 4731 121a 01       		.byte	0x1
 4732 121b 13       		.uleb128 0x13
 4733 121c E7010000 		.4byte	.LASF404
 4734 1220 02       		.byte	0x2
 4735 1221 13       		.uleb128 0x13
 4736 1222 521E0000 		.4byte	.LASF405
 4737 1226 03       		.byte	0x3
 4738 1227 00       		.byte	0
 4739 1228 03       		.uleb128 0x3
 4740 1229 8E190000 		.4byte	.LASF406
 4741 122d 04       		.byte	0x4
 4742 122e 83       		.byte	0x83
 4743 122f 03120000 		.4byte	0x1203
 4744 1233 1C       		.uleb128 0x1c
 4745 1234 01       		.byte	0x1
 4746 1235 3E000000 		.4byte	0x3e
 4747 1239 04       		.byte	0x4
 4748 123a 87       		.byte	0x87
 4749 123b 70120000 		.4byte	0x1270
 4750 123f 13       		.uleb128 0x13
 4751 1240 14220000 		.4byte	.LASF407
ARM GAS  C:\Users\haske\AppData\Local\Temp\ccWSfRiA.s 			page 140


 4752 1244 00       		.byte	0
 4753 1245 13       		.uleb128 0x13
 4754 1246 D5160000 		.4byte	.LASF408
 4755 124a 01       		.byte	0x1
 4756 124b 13       		.uleb128 0x13
 4757 124c 58210000 		.4byte	.LASF409
 4758 1250 02       		.byte	0x2
 4759 1251 13       		.uleb128 0x13
 4760 1252 56130000 		.4byte	.LASF410
 4761 1256 03       		.byte	0x3
 4762 1257 13       		.uleb128 0x13
 4763 1258 F5180000 		.4byte	.LASF411
 4764 125c 04       		.byte	0x4
 4765 125d 13       		.uleb128 0x13
 4766 125e DE090000 		.4byte	.LASF412
 4767 1262 05       		.byte	0x5
 4768 1263 13       		.uleb128 0x13
 4769 1264 85010000 		.4byte	.LASF413
 4770 1268 06       		.byte	0x6
 4771 1269 13       		.uleb128 0x13
 4772 126a 5E060000 		.4byte	.LASF414
 4773 126e 07       		.byte	0x7
 4774 126f 00       		.byte	0
 4775 1270 03       		.uleb128 0x3
 4776 1271 F3140000 		.4byte	.LASF415
 4777 1275 04       		.byte	0x4
 4778 1276 90       		.byte	0x90
 4779 1277 33120000 		.4byte	0x1233
 4780 127b 09       		.uleb128 0x9
 4781 127c 14       		.byte	0x14
 4782 127d 12       		.byte	0x12
 4783 127e 3B       		.byte	0x3b
 4784 127f C0120000 		.4byte	0x12c0
 4785 1283 0B       		.uleb128 0xb
 4786 1284 52080000 		.4byte	.LASF416
 4787 1288 12       		.byte	0x12
 4788 1289 3D       		.byte	0x3d
 4789 128a CE000000 		.4byte	0xce
 4790 128e 00       		.byte	0
 4791 128f 0B       		.uleb128 0xb
 4792 1290 B0010000 		.4byte	.LASF417
 4793 1294 12       		.byte	0x12
 4794 1295 3E       		.byte	0x3e
 4795 1296 CE000000 		.4byte	0xce
 4796 129a 04       		.byte	0x4
 4797 129b 0B       		.uleb128 0xb
 4798 129c AA0F0000 		.4byte	.LASF418
 4799 12a0 12       		.byte	0x12
 4800 12a1 3F       		.byte	0x3f
 4801 12a2 C0120000 		.4byte	0x12c0
 4802 12a6 08       		.byte	0x8
 4803 12a7 0B       		.uleb128 0xb
 4804 12a8 421B0000 		.4byte	.LASF419
 4805 12ac 12       		.byte	0x12
 4806 12ad 40       		.byte	0x40
 4807 12ae CE000000 		.4byte	0xce
 4808 12b2 0C       		.byte	0xc
ARM GAS  C:\Users\haske\AppData\Local\Temp\ccWSfRiA.s 			page 141


 4809 12b3 0B       		.uleb128 0xb
 4810 12b4 A1120000 		.4byte	.LASF420
 4811 12b8 12       		.byte	0x12
 4812 12b9 45       		.byte	0x45
 4813 12ba CE000000 		.4byte	0xce
 4814 12be 10       		.byte	0x10
 4815 12bf 00       		.byte	0
 4816 12c0 16       		.uleb128 0x16
 4817 12c1 04       		.byte	0x4
 4818 12c2 C6120000 		.4byte	0x12c6
 4819 12c6 06       		.uleb128 0x6
 4820 12c7 860C0000 		.4byte	0xc86
 4821 12cb 03       		.uleb128 0x3
 4822 12cc C4240000 		.4byte	.LASF421
 4823 12d0 12       		.byte	0x12
 4824 12d1 48       		.byte	0x48
 4825 12d2 7B120000 		.4byte	0x127b
 4826 12d6 1D       		.uleb128 0x1d
 4827 12d7 88100000 		.4byte	.LASF424
 4828 12db 03       		.byte	0x3
 4829 12dc 3B01     		.2byte	0x13b
 4830 12de 03       		.byte	0x3
 4831 12df 08130000 		.4byte	0x1308
 4832 12e3 1E       		.uleb128 0x1e
 4833 12e4 32260000 		.4byte	.LASF422
 4834 12e8 03       		.byte	0x3
 4835 12e9 3B01     		.2byte	0x13b
 4836 12eb 08130000 		.4byte	0x1308
 4837 12ef 1E       		.uleb128 0x1e
 4838 12f0 1F250000 		.4byte	.LASF423
 4839 12f4 03       		.byte	0x3
 4840 12f5 3B01     		.2byte	0x13b
 4841 12f7 CE000000 		.4byte	0xce
 4842 12fb 1E       		.uleb128 0x1e
 4843 12fc EA020000 		.4byte	.LASF264
 4844 1300 03       		.byte	0x3
 4845 1301 3B01     		.2byte	0x13b
 4846 1303 CE000000 		.4byte	0xce
 4847 1307 00       		.byte	0
 4848 1308 16       		.uleb128 0x16
 4849 1309 04       		.byte	0x4
 4850 130a 2C040000 		.4byte	0x42c
 4851 130e 1D       		.uleb128 0x1d
 4852 130f 89270000 		.4byte	.LASF425
 4853 1313 02       		.byte	0x2
 4854 1314 2503     		.2byte	0x325
 4855 1316 03       		.byte	0x3
 4856 1317 40130000 		.4byte	0x1340
 4857 131b 1E       		.uleb128 0x1e
 4858 131c 32260000 		.4byte	.LASF422
 4859 1320 02       		.byte	0x2
 4860 1321 2503     		.2byte	0x325
 4861 1323 40130000 		.4byte	0x1340
 4862 1327 1E       		.uleb128 0x1e
 4863 1328 BC190000 		.4byte	.LASF426
 4864 132c 02       		.byte	0x2
 4865 132d 2503     		.2byte	0x325
ARM GAS  C:\Users\haske\AppData\Local\Temp\ccWSfRiA.s 			page 142


 4866 132f CE000000 		.4byte	0xce
 4867 1333 1E       		.uleb128 0x1e
 4868 1334 C10A0000 		.4byte	.LASF427
 4869 1338 02       		.byte	0x2
 4870 1339 2503     		.2byte	0x325
 4871 133b CE000000 		.4byte	0xce
 4872 133f 00       		.byte	0
 4873 1340 16       		.uleb128 0x16
 4874 1341 04       		.byte	0x4
 4875 1342 14040000 		.4byte	0x414
 4876 1346 1F       		.uleb128 0x1f
 4877 1347 2A020000 		.4byte	.LASF428
 4878 134b 13       		.byte	0x13
 4879 134c A9       		.byte	0xa9
 4880 134d 03       		.byte	0x3
 4881 134e 5E130000 		.4byte	0x135e
 4882 1352 20       		.uleb128 0x20
 4883 1353 EA020000 		.4byte	.LASF264
 4884 1357 13       		.byte	0x13
 4885 1358 A9       		.byte	0xa9
 4886 1359 CE000000 		.4byte	0xce
 4887 135d 00       		.byte	0
 4888 135e 1F       		.uleb128 0x1f
 4889 135f B9110000 		.4byte	.LASF429
 4890 1363 14       		.byte	0x14
 4891 1364 A9       		.byte	0xa9
 4892 1365 03       		.byte	0x3
 4893 1366 76130000 		.4byte	0x1376
 4894 136a 20       		.uleb128 0x20
 4895 136b EA020000 		.4byte	.LASF264
 4896 136f 14       		.byte	0x14
 4897 1370 A9       		.byte	0xa9
 4898 1371 CE000000 		.4byte	0xce
 4899 1375 00       		.byte	0
 4900 1376 21       		.uleb128 0x21
 4901 1377 F90C0000 		.4byte	.LASF531
 4902 137b 04       		.byte	0x4
 4903 137c E702     		.2byte	0x2e7
 4904 137e 28120000 		.4byte	0x1228
 4905 1382 03       		.byte	0x3
 4906 1383 22       		.uleb128 0x22
 4907 1384 451F0000 		.4byte	.LASF532
 4908 1388 04       		.byte	0x4
 4909 1389 9503     		.2byte	0x395
 4910 138b A2000000 		.4byte	0xa2
 4911 138f 03       		.byte	0x3
 4912 1390 AB130000 		.4byte	0x13ab
 4913 1394 23       		.uleb128 0x23
 4914 1395 6900     		.ascii	"i\000"
 4915 1397 04       		.byte	0x4
 4916 1398 9703     		.2byte	0x397
 4917 139a CE000000 		.4byte	0xce
 4918 139e 24       		.uleb128 0x24
 4919 139f B4120000 		.4byte	.LASF430
 4920 13a3 04       		.byte	0x4
 4921 13a4 9803     		.2byte	0x398
 4922 13a6 A2000000 		.4byte	0xa2
ARM GAS  C:\Users\haske\AppData\Local\Temp\ccWSfRiA.s 			page 143


 4923 13aa 00       		.byte	0
 4924 13ab 25       		.uleb128 0x25
 4925 13ac F5100000 		.4byte	.LASF431
 4926 13b0 01       		.byte	0x1
 4927 13b1 62       		.byte	0x62
 4928 13b2 00000000 		.4byte	.LFB966
 4929 13b6 7C000000 		.4byte	.LFE966-.LFB966
 4930 13ba 01       		.uleb128 0x1
 4931 13bb 9C       		.byte	0x9c
 4932 13bc CE130000 		.4byte	0x13ce
 4933 13c0 26       		.uleb128 0x26
 4934 13c1 6900     		.ascii	"i\000"
 4935 13c3 01       		.byte	0x1
 4936 13c4 63       		.byte	0x63
 4937 13c5 94000000 		.4byte	0x94
 4938 13c9 00000000 		.4byte	.LLST0
 4939 13cd 00       		.byte	0
 4940 13ce 27       		.uleb128 0x27
 4941 13cf FE100000 		.4byte	.LASF438
 4942 13d3 01       		.byte	0x1
 4943 13d4 93       		.byte	0x93
 4944 13d5 00000000 		.4byte	.LFB967
 4945 13d9 02000000 		.4byte	.LFE967-.LFB967
 4946 13dd 01       		.uleb128 0x1
 4947 13de 9C       		.byte	0x9c
 4948 13df 25       		.uleb128 0x25
 4949 13e0 44080000 		.4byte	.LASF432
 4950 13e4 01       		.byte	0x1
 4951 13e5 A3       		.byte	0xa3
 4952 13e6 00000000 		.4byte	.LFB968
 4953 13ea 02000000 		.4byte	.LFE968-.LFB968
 4954 13ee 01       		.uleb128 0x1
 4955 13ef 9C       		.byte	0x9c
 4956 13f0 02140000 		.4byte	0x1402
 4957 13f4 28       		.uleb128 0x28
 4958 13f5 AF0D0000 		.4byte	.LASF434
 4959 13f9 01       		.byte	0x1
 4960 13fa A3       		.byte	0xa3
 4961 13fb 820E0000 		.4byte	0xe82
 4962 13ff 01       		.uleb128 0x1
 4963 1400 50       		.byte	0x50
 4964 1401 00       		.byte	0
 4965 1402 25       		.uleb128 0x25
 4966 1403 D3040000 		.4byte	.LASF433
 4967 1407 01       		.byte	0x1
 4968 1408 B1       		.byte	0xb1
 4969 1409 00000000 		.4byte	.LFB969
 4970 140d 02000000 		.4byte	.LFE969-.LFB969
 4971 1411 01       		.uleb128 0x1
 4972 1412 9C       		.byte	0x9c
 4973 1413 3F140000 		.4byte	0x143f
 4974 1417 28       		.uleb128 0x28
 4975 1418 6A0F0000 		.4byte	.LASF435
 4976 141c 01       		.byte	0x1
 4977 141d B1       		.byte	0xb1
 4978 141e 820E0000 		.4byte	0xe82
 4979 1422 01       		.uleb128 0x1
ARM GAS  C:\Users\haske\AppData\Local\Temp\ccWSfRiA.s 			page 144


 4980 1423 50       		.byte	0x50
 4981 1424 28       		.uleb128 0x28
 4982 1425 5C0D0000 		.4byte	.LASF436
 4983 1429 01       		.byte	0x1
 4984 142a B1       		.byte	0xb1
 4985 142b 820E0000 		.4byte	0xe82
 4986 142f 01       		.uleb128 0x1
 4987 1430 51       		.byte	0x51
 4988 1431 28       		.uleb128 0x28
 4989 1432 93140000 		.4byte	.LASF437
 4990 1436 01       		.byte	0x1
 4991 1437 B1       		.byte	0xb1
 4992 1438 820E0000 		.4byte	0xe82
 4993 143c 01       		.uleb128 0x1
 4994 143d 52       		.byte	0x52
 4995 143e 00       		.byte	0
 4996 143f 27       		.uleb128 0x27
 4997 1440 A1270000 		.4byte	.LASF439
 4998 1444 01       		.byte	0x1
 4999 1445 CB       		.byte	0xcb
 5000 1446 00000000 		.4byte	.LFB970
 5001 144a 02000000 		.4byte	.LFE970-.LFB970
 5002 144e 01       		.uleb128 0x1
 5003 144f 9C       		.byte	0x9c
 5004 1450 25       		.uleb128 0x25
 5005 1451 8E1F0000 		.4byte	.LASF440
 5006 1455 01       		.byte	0x1
 5007 1456 E2       		.byte	0xe2
 5008 1457 00000000 		.4byte	.LFB971
 5009 145b 02000000 		.4byte	.LFE971-.LFB971
 5010 145f 01       		.uleb128 0x1
 5011 1460 9C       		.byte	0x9c
 5012 1461 73140000 		.4byte	0x1473
 5013 1465 29       		.uleb128 0x29
 5014 1466 6C6F6300 		.ascii	"loc\000"
 5015 146a 01       		.byte	0x1
 5016 146b E2       		.byte	0xe2
 5017 146c 94000000 		.4byte	0x94
 5018 1470 01       		.uleb128 0x1
 5019 1471 50       		.byte	0x50
 5020 1472 00       		.byte	0
 5021 1473 25       		.uleb128 0x25
 5022 1474 B7140000 		.4byte	.LASF441
 5023 1478 01       		.byte	0x1
 5024 1479 EE       		.byte	0xee
 5025 147a 00000000 		.4byte	.LFB972
 5026 147e 24000000 		.4byte	.LFE972-.LFB972
 5027 1482 01       		.uleb128 0x1
 5028 1483 9C       		.byte	0x9c
 5029 1484 13150000 		.4byte	0x1513
 5030 1488 2A       		.uleb128 0x2a
 5031 1489 6C6F6300 		.ascii	"loc\000"
 5032 148d 01       		.byte	0x1
 5033 148e EE       		.byte	0xee
 5034 148f 94000000 		.4byte	0x94
 5035 1493 13000000 		.4byte	.LLST1
 5036 1497 2B       		.uleb128 0x2b
ARM GAS  C:\Users\haske\AppData\Local\Temp\ccWSfRiA.s 			page 145


 5037 1498 AF0D0000 		.4byte	.LASF434
 5038 149c 01       		.byte	0x1
 5039 149d EE       		.byte	0xee
 5040 149e 820E0000 		.4byte	0xe82
 5041 14a2 34000000 		.4byte	.LLST2
 5042 14a6 2C       		.uleb128 0x2c
 5043 14a7 7300     		.ascii	"s\000"
 5044 14a9 01       		.byte	0x1
 5045 14aa EF       		.byte	0xef
 5046 14ab 13150000 		.4byte	0x1513
 5047 14af 02       		.uleb128 0x2
 5048 14b0 91       		.byte	0x91
 5049 14b1 6C       		.sleb128 -20
 5050 14b2 2D       		.uleb128 0x2d
 5051 14b3 746F7000 		.ascii	"top\000"
 5052 14b7 01       		.byte	0x1
 5053 14b8 F1       		.byte	0xf1
 5054 14b9 820E0000 		.4byte	0xe82
 5055 14bd 2D       		.uleb128 0x2d
 5056 14be 626F7400 		.ascii	"bot\000"
 5057 14c2 01       		.byte	0x1
 5058 14c3 F2       		.byte	0xf2
 5059 14c4 820E0000 		.4byte	0xe82
 5060 14c8 2E       		.uleb128 0x2e
 5061 14c9 0A000000 		.4byte	.LVL8
 5062 14cd 0C280000 		.4byte	0x280c
 5063 14d1 E3140000 		.4byte	0x14e3
 5064 14d5 2F       		.uleb128 0x2f
 5065 14d6 01       		.uleb128 0x1
 5066 14d7 50       		.byte	0x50
 5067 14d8 02       		.uleb128 0x2
 5068 14d9 91       		.byte	0x91
 5069 14da 6C       		.sleb128 -20
 5070 14db 2F       		.uleb128 0x2f
 5071 14dc 01       		.uleb128 0x1
 5072 14dd 51       		.byte	0x51
 5073 14de 03       		.uleb128 0x3
 5074 14df F3       		.byte	0xf3
 5075 14e0 01       		.uleb128 0x1
 5076 14e1 51       		.byte	0x51
 5077 14e2 00       		.byte	0
 5078 14e3 2E       		.uleb128 0x2e
 5079 14e4 14000000 		.4byte	.LVL9
 5080 14e8 17280000 		.4byte	0x2817
 5081 14ec FD140000 		.4byte	0x14fd
 5082 14f0 2F       		.uleb128 0x2f
 5083 14f1 01       		.uleb128 0x1
 5084 14f2 50       		.byte	0x50
 5085 14f3 02       		.uleb128 0x2
 5086 14f4 91       		.byte	0x91
 5087 14f5 6C       		.sleb128 -20
 5088 14f6 2F       		.uleb128 0x2f
 5089 14f7 01       		.uleb128 0x1
 5090 14f8 51       		.byte	0x51
 5091 14f9 02       		.uleb128 0x2
 5092 14fa 74       		.byte	0x74
 5093 14fb 00       		.sleb128 0
ARM GAS  C:\Users\haske\AppData\Local\Temp\ccWSfRiA.s 			page 146


 5094 14fc 00       		.byte	0
 5095 14fd 30       		.uleb128 0x30
 5096 14fe 1C000000 		.4byte	.LVL10
 5097 1502 17280000 		.4byte	0x2817
 5098 1506 2F       		.uleb128 0x2f
 5099 1507 01       		.uleb128 0x1
 5100 1508 50       		.byte	0x50
 5101 1509 01       		.uleb128 0x1
 5102 150a 30       		.byte	0x30
 5103 150b 2F       		.uleb128 0x2f
 5104 150c 01       		.uleb128 0x1
 5105 150d 51       		.byte	0x51
 5106 150e 02       		.uleb128 0x2
 5107 150f 74       		.byte	0x74
 5108 1510 00       		.sleb128 0
 5109 1511 00       		.byte	0
 5110 1512 00       		.byte	0
 5111 1513 07       		.uleb128 0x7
 5112 1514 67080000 		.4byte	0x867
 5113 1518 23150000 		.4byte	0x1523
 5114 151c 08       		.uleb128 0x8
 5115 151d D9000000 		.4byte	0xd9
 5116 1521 09       		.byte	0x9
 5117 1522 00       		.byte	0
 5118 1523 31       		.uleb128 0x31
 5119 1524 5A260000 		.4byte	.LASF442
 5120 1528 01       		.byte	0x1
 5121 1529 0401     		.2byte	0x104
 5122 152b 00000000 		.4byte	.LFB973
 5123 152f E8000000 		.4byte	.LFE973-.LFB973
 5124 1533 01       		.uleb128 0x1
 5125 1534 9C       		.byte	0x9c
 5126 1535 D8160000 		.4byte	0x16d8
 5127 1539 32       		.uleb128 0x32
 5128 153a A3050000 		.4byte	.LASF443
 5129 153e 01       		.byte	0x1
 5130 153f 0401     		.2byte	0x104
 5131 1541 94000000 		.4byte	0x94
 5132 1545 55000000 		.4byte	.LLST3
 5133 1549 33       		.uleb128 0x33
 5134 154a 6C6F6300 		.ascii	"loc\000"
 5135 154e 01       		.byte	0x1
 5136 154f 0401     		.2byte	0x104
 5137 1551 94000000 		.4byte	0x94
 5138 1555 57010000 		.4byte	.LLST4
 5139 1559 32       		.uleb128 0x32
 5140 155a 00230000 		.4byte	.LASF444
 5141 155e 01       		.byte	0x1
 5142 155f 0401     		.2byte	0x104
 5143 1561 94000000 		.4byte	0x94
 5144 1565 83010000 		.4byte	.LLST5
 5145 1569 2E       		.uleb128 0x2e
 5146 156a 3A000000 		.4byte	.LVL15
 5147 156e 73140000 		.4byte	0x1473
 5148 1572 90150000 		.4byte	0x1590
 5149 1576 2F       		.uleb128 0x2f
 5150 1577 01       		.uleb128 0x1
ARM GAS  C:\Users\haske\AppData\Local\Temp\ccWSfRiA.s 			page 147


 5151 1578 50       		.byte	0x50
 5152 1579 02       		.uleb128 0x2
 5153 157a 75       		.byte	0x75
 5154 157b 00       		.sleb128 0
 5155 157c 2F       		.uleb128 0x2f
 5156 157d 01       		.uleb128 0x1
 5157 157e 51       		.byte	0x51
 5158 157f 0F       		.uleb128 0xf
 5159 1580 F3       		.byte	0xf3
 5160 1581 01       		.uleb128 0x1
 5161 1582 52       		.byte	0x52
 5162 1583 74       		.byte	0x74
 5163 1584 00       		.sleb128 0
 5164 1585 1C       		.byte	0x1c
 5165 1586 32       		.byte	0x32
 5166 1587 24       		.byte	0x24
 5167 1588 03       		.byte	0x3
 5168 1589 50000000 		.4byte	.LANCHOR2+80
 5169 158d 22       		.byte	0x22
 5170 158e 06       		.byte	0x6
 5171 158f 00       		.byte	0
 5172 1590 2E       		.uleb128 0x2e
 5173 1591 4C000000 		.4byte	.LVL19
 5174 1595 73140000 		.4byte	0x1473
 5175 1599 B7150000 		.4byte	0x15b7
 5176 159d 2F       		.uleb128 0x2f
 5177 159e 01       		.uleb128 0x1
 5178 159f 50       		.byte	0x50
 5179 15a0 02       		.uleb128 0x2
 5180 15a1 75       		.byte	0x75
 5181 15a2 00       		.sleb128 0
 5182 15a3 2F       		.uleb128 0x2f
 5183 15a4 01       		.uleb128 0x1
 5184 15a5 51       		.byte	0x51
 5185 15a6 0F       		.uleb128 0xf
 5186 15a7 F3       		.byte	0xf3
 5187 15a8 01       		.uleb128 0x1
 5188 15a9 52       		.byte	0x52
 5189 15aa 74       		.byte	0x74
 5190 15ab 00       		.sleb128 0
 5191 15ac 1C       		.byte	0x1c
 5192 15ad 32       		.byte	0x32
 5193 15ae 24       		.byte	0x24
 5194 15af 03       		.byte	0x3
 5195 15b0 74000000 		.4byte	.LANCHOR2+116
 5196 15b4 22       		.byte	0x22
 5197 15b5 06       		.byte	0x6
 5198 15b6 00       		.byte	0
 5199 15b7 2E       		.uleb128 0x2e
 5200 15b8 60000000 		.4byte	.LVL23
 5201 15bc 73140000 		.4byte	0x1473
 5202 15c0 DE150000 		.4byte	0x15de
 5203 15c4 2F       		.uleb128 0x2f
 5204 15c5 01       		.uleb128 0x1
 5205 15c6 50       		.byte	0x50
 5206 15c7 02       		.uleb128 0x2
 5207 15c8 75       		.byte	0x75
ARM GAS  C:\Users\haske\AppData\Local\Temp\ccWSfRiA.s 			page 148


 5208 15c9 00       		.sleb128 0
 5209 15ca 2F       		.uleb128 0x2f
 5210 15cb 01       		.uleb128 0x1
 5211 15cc 51       		.byte	0x51
 5212 15cd 0F       		.uleb128 0xf
 5213 15ce F3       		.byte	0xf3
 5214 15cf 01       		.uleb128 0x1
 5215 15d0 52       		.byte	0x52
 5216 15d1 74       		.byte	0x74
 5217 15d2 00       		.sleb128 0
 5218 15d3 1C       		.byte	0x1c
 5219 15d4 32       		.byte	0x32
 5220 15d5 24       		.byte	0x24
 5221 15d6 03       		.byte	0x3
 5222 15d7 9C000000 		.4byte	.LANCHOR2+156
 5223 15db 22       		.byte	0x22
 5224 15dc 06       		.byte	0x6
 5225 15dd 00       		.byte	0
 5226 15de 2E       		.uleb128 0x2e
 5227 15df 74000000 		.4byte	.LVL27
 5228 15e3 73140000 		.4byte	0x1473
 5229 15e7 05160000 		.4byte	0x1605
 5230 15eb 2F       		.uleb128 0x2f
 5231 15ec 01       		.uleb128 0x1
 5232 15ed 50       		.byte	0x50
 5233 15ee 02       		.uleb128 0x2
 5234 15ef 75       		.byte	0x75
 5235 15f0 00       		.sleb128 0
 5236 15f1 2F       		.uleb128 0x2f
 5237 15f2 01       		.uleb128 0x1
 5238 15f3 51       		.byte	0x51
 5239 15f4 0F       		.uleb128 0xf
 5240 15f5 F3       		.byte	0xf3
 5241 15f6 01       		.uleb128 0x1
 5242 15f7 52       		.byte	0x52
 5243 15f8 74       		.byte	0x74
 5244 15f9 00       		.sleb128 0
 5245 15fa 1C       		.byte	0x1c
 5246 15fb 32       		.byte	0x32
 5247 15fc 24       		.byte	0x24
 5248 15fd 03       		.byte	0x3
 5249 15fe D8000000 		.4byte	.LANCHOR2+216
 5250 1602 22       		.byte	0x22
 5251 1603 06       		.byte	0x6
 5252 1604 00       		.byte	0
 5253 1605 2E       		.uleb128 0x2e
 5254 1606 88000000 		.4byte	.LVL31
 5255 160a 73140000 		.4byte	0x1473
 5256 160e 2C160000 		.4byte	0x162c
 5257 1612 2F       		.uleb128 0x2f
 5258 1613 01       		.uleb128 0x1
 5259 1614 50       		.byte	0x50
 5260 1615 02       		.uleb128 0x2
 5261 1616 75       		.byte	0x75
 5262 1617 00       		.sleb128 0
 5263 1618 2F       		.uleb128 0x2f
 5264 1619 01       		.uleb128 0x1
ARM GAS  C:\Users\haske\AppData\Local\Temp\ccWSfRiA.s 			page 149


 5265 161a 51       		.byte	0x51
 5266 161b 0F       		.uleb128 0xf
 5267 161c F3       		.byte	0xf3
 5268 161d 01       		.uleb128 0x1
 5269 161e 52       		.byte	0x52
 5270 161f 74       		.byte	0x74
 5271 1620 00       		.sleb128 0
 5272 1621 1C       		.byte	0x1c
 5273 1622 32       		.byte	0x32
 5274 1623 24       		.byte	0x24
 5275 1624 03       		.byte	0x3
 5276 1625 04010000 		.4byte	.LANCHOR2+260
 5277 1629 22       		.byte	0x22
 5278 162a 06       		.byte	0x6
 5279 162b 00       		.byte	0
 5280 162c 2E       		.uleb128 0x2e
 5281 162d 9C000000 		.4byte	.LVL35
 5282 1631 73140000 		.4byte	0x1473
 5283 1635 53160000 		.4byte	0x1653
 5284 1639 2F       		.uleb128 0x2f
 5285 163a 01       		.uleb128 0x1
 5286 163b 50       		.byte	0x50
 5287 163c 02       		.uleb128 0x2
 5288 163d 75       		.byte	0x75
 5289 163e 00       		.sleb128 0
 5290 163f 2F       		.uleb128 0x2f
 5291 1640 01       		.uleb128 0x1
 5292 1641 51       		.byte	0x51
 5293 1642 0F       		.uleb128 0xf
 5294 1643 F3       		.byte	0xf3
 5295 1644 01       		.uleb128 0x1
 5296 1645 52       		.byte	0x52
 5297 1646 74       		.byte	0x74
 5298 1647 00       		.sleb128 0
 5299 1648 1C       		.byte	0x1c
 5300 1649 32       		.byte	0x32
 5301 164a 24       		.byte	0x24
 5302 164b 03       		.byte	0x3
 5303 164c 2C010000 		.4byte	.LANCHOR2+300
 5304 1650 22       		.byte	0x22
 5305 1651 06       		.byte	0x6
 5306 1652 00       		.byte	0
 5307 1653 2E       		.uleb128 0x2e
 5308 1654 B0000000 		.4byte	.LVL39
 5309 1658 73140000 		.4byte	0x1473
 5310 165c 7A160000 		.4byte	0x167a
 5311 1660 2F       		.uleb128 0x2f
 5312 1661 01       		.uleb128 0x1
 5313 1662 50       		.byte	0x50
 5314 1663 02       		.uleb128 0x2
 5315 1664 75       		.byte	0x75
 5316 1665 00       		.sleb128 0
 5317 1666 2F       		.uleb128 0x2f
 5318 1667 01       		.uleb128 0x1
 5319 1668 51       		.byte	0x51
 5320 1669 0F       		.uleb128 0xf
 5321 166a F3       		.byte	0xf3
ARM GAS  C:\Users\haske\AppData\Local\Temp\ccWSfRiA.s 			page 150


 5322 166b 01       		.uleb128 0x1
 5323 166c 52       		.byte	0x52
 5324 166d 74       		.byte	0x74
 5325 166e 00       		.sleb128 0
 5326 166f 1C       		.byte	0x1c
 5327 1670 32       		.byte	0x32
 5328 1671 24       		.byte	0x24
 5329 1672 03       		.byte	0x3
 5330 1673 54010000 		.4byte	.LANCHOR2+340
 5331 1677 22       		.byte	0x22
 5332 1678 06       		.byte	0x6
 5333 1679 00       		.byte	0
 5334 167a 2E       		.uleb128 0x2e
 5335 167b C4000000 		.4byte	.LVL43
 5336 167f 73140000 		.4byte	0x1473
 5337 1683 A1160000 		.4byte	0x16a1
 5338 1687 2F       		.uleb128 0x2f
 5339 1688 01       		.uleb128 0x1
 5340 1689 50       		.byte	0x50
 5341 168a 02       		.uleb128 0x2
 5342 168b 75       		.byte	0x75
 5343 168c 00       		.sleb128 0
 5344 168d 2F       		.uleb128 0x2f
 5345 168e 01       		.uleb128 0x1
 5346 168f 51       		.byte	0x51
 5347 1690 0F       		.uleb128 0xf
 5348 1691 F3       		.byte	0xf3
 5349 1692 01       		.uleb128 0x1
 5350 1693 52       		.byte	0x52
 5351 1694 74       		.byte	0x74
 5352 1695 00       		.sleb128 0
 5353 1696 1C       		.byte	0x1c
 5354 1697 32       		.byte	0x32
 5355 1698 24       		.byte	0x24
 5356 1699 03       		.byte	0x3
 5357 169a 80010000 		.4byte	.LANCHOR2+384
 5358 169e 22       		.byte	0x22
 5359 169f 06       		.byte	0x6
 5360 16a0 00       		.byte	0
 5361 16a1 2E       		.uleb128 0x2e
 5362 16a2 CE000000 		.4byte	.LVL46
 5363 16a6 73140000 		.4byte	0x1473
 5364 16aa BE160000 		.4byte	0x16be
 5365 16ae 2F       		.uleb128 0x2f
 5366 16af 01       		.uleb128 0x1
 5367 16b0 50       		.byte	0x50
 5368 16b1 02       		.uleb128 0x2
 5369 16b2 75       		.byte	0x75
 5370 16b3 00       		.sleb128 0
 5371 16b4 2F       		.uleb128 0x2f
 5372 16b5 01       		.uleb128 0x1
 5373 16b6 51       		.byte	0x51
 5374 16b7 05       		.uleb128 0x5
 5375 16b8 03       		.byte	0x3
 5376 16b9 04000000 		.4byte	.LC1
 5377 16bd 00       		.byte	0
 5378 16be 30       		.uleb128 0x30
ARM GAS  C:\Users\haske\AppData\Local\Temp\ccWSfRiA.s 			page 151


 5379 16bf D8000000 		.4byte	.LVL49
 5380 16c3 73140000 		.4byte	0x1473
 5381 16c7 2F       		.uleb128 0x2f
 5382 16c8 01       		.uleb128 0x1
 5383 16c9 50       		.byte	0x50
 5384 16ca 02       		.uleb128 0x2
 5385 16cb 75       		.byte	0x75
 5386 16cc 00       		.sleb128 0
 5387 16cd 2F       		.uleb128 0x2f
 5388 16ce 01       		.uleb128 0x1
 5389 16cf 51       		.byte	0x51
 5390 16d0 05       		.uleb128 0x5
 5391 16d1 03       		.byte	0x3
 5392 16d2 0C000000 		.4byte	.LC2
 5393 16d6 00       		.byte	0
 5394 16d7 00       		.byte	0
 5395 16d8 31       		.uleb128 0x31
 5396 16d9 8F160000 		.4byte	.LASF445
 5397 16dd 01       		.byte	0x1
 5398 16de 2001     		.2byte	0x120
 5399 16e0 00000000 		.4byte	.LFB974
 5400 16e4 D4000000 		.4byte	.LFE974-.LFB974
 5401 16e8 01       		.uleb128 0x1
 5402 16e9 9C       		.byte	0x9c
 5403 16ea 3B190000 		.4byte	0x193b
 5404 16ee 34       		.uleb128 0x34
 5405 16ef 6400     		.ascii	"d\000"
 5406 16f1 01       		.byte	0x1
 5407 16f2 2101     		.2byte	0x121
 5408 16f4 3B190000 		.4byte	0x193b
 5409 16f8 02       		.uleb128 0x2
 5410 16f9 91       		.byte	0x91
 5411 16fa 5C       		.sleb128 -36
 5412 16fb 34       		.uleb128 0x34
 5413 16fc 733000   		.ascii	"s0\000"
 5414 16ff 01       		.byte	0x1
 5415 1700 2201     		.2byte	0x122
 5416 1702 4B190000 		.4byte	0x194b
 5417 1706 02       		.uleb128 0x2
 5418 1707 91       		.byte	0x91
 5419 1708 4C       		.sleb128 -52
 5420 1709 35       		.uleb128 0x35
 5421 170a 6A090000 		.4byte	.LASF446
 5422 170e 01       		.byte	0x1
 5423 170f 2501     		.2byte	0x125
 5424 1711 94000000 		.4byte	0x94
 5425 1715 85020000 		.4byte	.LLST6
 5426 1719 35       		.uleb128 0x35
 5427 171a E50D0000 		.4byte	.LASF447
 5428 171e 01       		.byte	0x1
 5429 171f 2601     		.2byte	0x126
 5430 1721 94000000 		.4byte	0x94
 5431 1725 A7020000 		.4byte	.LLST7
 5432 1729 35       		.uleb128 0x35
 5433 172a FA040000 		.4byte	.LASF448
 5434 172e 01       		.byte	0x1
 5435 172f 2701     		.2byte	0x127
ARM GAS  C:\Users\haske\AppData\Local\Temp\ccWSfRiA.s 			page 152


 5436 1731 94000000 		.4byte	0x94
 5437 1735 BA020000 		.4byte	.LLST8
 5438 1739 35       		.uleb128 0x35
 5439 173a DA0F0000 		.4byte	.LASF449
 5440 173e 01       		.byte	0x1
 5441 173f 2801     		.2byte	0x128
 5442 1741 94000000 		.4byte	0x94
 5443 1745 CD020000 		.4byte	.LLST9
 5444 1749 35       		.uleb128 0x35
 5445 174a CB0D0000 		.4byte	.LASF450
 5446 174e 01       		.byte	0x1
 5447 174f 2901     		.2byte	0x129
 5448 1751 94000000 		.4byte	0x94
 5449 1755 E0020000 		.4byte	.LLST10
 5450 1759 35       		.uleb128 0x35
 5451 175a C8080000 		.4byte	.LASF451
 5452 175e 01       		.byte	0x1
 5453 175f 2A01     		.2byte	0x12a
 5454 1761 94000000 		.4byte	0x94
 5455 1765 F3020000 		.4byte	.LLST11
 5456 1769 35       		.uleb128 0x35
 5457 176a 0A150000 		.4byte	.LASF452
 5458 176e 01       		.byte	0x1
 5459 176f 2C01     		.2byte	0x12c
 5460 1771 94000000 		.4byte	0x94
 5461 1775 06030000 		.4byte	.LLST12
 5462 1779 35       		.uleb128 0x35
 5463 177a A0080000 		.4byte	.LASF453
 5464 177e 01       		.byte	0x1
 5465 177f 2D01     		.2byte	0x12d
 5466 1781 94000000 		.4byte	0x94
 5467 1785 28030000 		.4byte	.LLST13
 5468 1789 36       		.uleb128 0x36
 5469 178a C5050000 		.4byte	.LASF454
 5470 178e 01       		.byte	0x1
 5471 178f 2E01     		.2byte	0x12e
 5472 1791 94000000 		.4byte	0x94
 5473 1795 00       		.byte	0
 5474 1796 35       		.uleb128 0x35
 5475 1797 5D0A0000 		.4byte	.LASF455
 5476 179b 01       		.byte	0x1
 5477 179c 2F01     		.2byte	0x12f
 5478 179e 94000000 		.4byte	0x94
 5479 17a2 3B030000 		.4byte	.LLST14
 5480 17a6 35       		.uleb128 0x35
 5481 17a7 241D0000 		.4byte	.LASF456
 5482 17ab 01       		.byte	0x1
 5483 17ac 3001     		.2byte	0x130
 5484 17ae 94000000 		.4byte	0x94
 5485 17b2 4E030000 		.4byte	.LLST15
 5486 17b6 2E       		.uleb128 0x2e
 5487 17b7 0C000000 		.4byte	.LVL50
 5488 17bb 22280000 		.4byte	0x2822
 5489 17bf CA170000 		.4byte	0x17ca
 5490 17c3 2F       		.uleb128 0x2f
 5491 17c4 01       		.uleb128 0x1
 5492 17c5 50       		.byte	0x50
ARM GAS  C:\Users\haske\AppData\Local\Temp\ccWSfRiA.s 			page 153


 5493 17c6 02       		.uleb128 0x2
 5494 17c7 91       		.byte	0x91
 5495 17c8 5C       		.sleb128 -36
 5496 17c9 00       		.byte	0
 5497 17ca 2E       		.uleb128 0x2e
 5498 17cb 2E000000 		.4byte	.LVL58
 5499 17cf 2D280000 		.4byte	0x282d
 5500 17d3 E7170000 		.4byte	0x17e7
 5501 17d7 2F       		.uleb128 0x2f
 5502 17d8 01       		.uleb128 0x1
 5503 17d9 50       		.byte	0x50
 5504 17da 02       		.uleb128 0x2
 5505 17db 91       		.byte	0x91
 5506 17dc 4C       		.sleb128 -52
 5507 17dd 2F       		.uleb128 0x2f
 5508 17de 01       		.uleb128 0x1
 5509 17df 51       		.byte	0x51
 5510 17e0 05       		.uleb128 0x5
 5511 17e1 03       		.byte	0x3
 5512 17e2 10000000 		.4byte	.LC3
 5513 17e6 00       		.byte	0
 5514 17e7 2E       		.uleb128 0x2e
 5515 17e8 38000000 		.4byte	.LVL59
 5516 17ec 2D280000 		.4byte	0x282d
 5517 17f0 0A180000 		.4byte	0x180a
 5518 17f4 2F       		.uleb128 0x2f
 5519 17f5 01       		.uleb128 0x1
 5520 17f6 50       		.byte	0x50
 5521 17f7 02       		.uleb128 0x2
 5522 17f8 91       		.byte	0x91
 5523 17f9 4C       		.sleb128 -52
 5524 17fa 2F       		.uleb128 0x2f
 5525 17fb 01       		.uleb128 0x1
 5526 17fc 51       		.byte	0x51
 5527 17fd 05       		.uleb128 0x5
 5528 17fe 03       		.byte	0x3
 5529 17ff 18000000 		.4byte	.LC4
 5530 1803 2F       		.uleb128 0x2f
 5531 1804 01       		.uleb128 0x1
 5532 1805 52       		.byte	0x52
 5533 1806 02       		.uleb128 0x2
 5534 1807 78       		.byte	0x78
 5535 1808 00       		.sleb128 0
 5536 1809 00       		.byte	0
 5537 180a 2E       		.uleb128 0x2e
 5538 180b 42000000 		.4byte	.LVL60
 5539 180f 2D280000 		.4byte	0x282d
 5540 1813 2D180000 		.4byte	0x182d
 5541 1817 2F       		.uleb128 0x2f
 5542 1818 01       		.uleb128 0x1
 5543 1819 50       		.byte	0x50
 5544 181a 02       		.uleb128 0x2
 5545 181b 91       		.byte	0x91
 5546 181c 4C       		.sleb128 -52
 5547 181d 2F       		.uleb128 0x2f
 5548 181e 01       		.uleb128 0x1
 5549 181f 51       		.byte	0x51
ARM GAS  C:\Users\haske\AppData\Local\Temp\ccWSfRiA.s 			page 154


 5550 1820 05       		.uleb128 0x5
 5551 1821 03       		.byte	0x3
 5552 1822 20000000 		.4byte	.LC5
 5553 1826 2F       		.uleb128 0x2f
 5554 1827 01       		.uleb128 0x1
 5555 1828 52       		.byte	0x52
 5556 1829 02       		.uleb128 0x2
 5557 182a 77       		.byte	0x77
 5558 182b 00       		.sleb128 0
 5559 182c 00       		.byte	0
 5560 182d 2E       		.uleb128 0x2e
 5561 182e 4C000000 		.4byte	.LVL61
 5562 1832 2D280000 		.4byte	0x282d
 5563 1836 50180000 		.4byte	0x1850
 5564 183a 2F       		.uleb128 0x2f
 5565 183b 01       		.uleb128 0x1
 5566 183c 50       		.byte	0x50
 5567 183d 02       		.uleb128 0x2
 5568 183e 91       		.byte	0x91
 5569 183f 4C       		.sleb128 -52
 5570 1840 2F       		.uleb128 0x2f
 5571 1841 01       		.uleb128 0x1
 5572 1842 51       		.byte	0x51
 5573 1843 05       		.uleb128 0x5
 5574 1844 03       		.byte	0x3
 5575 1845 28000000 		.4byte	.LC6
 5576 1849 2F       		.uleb128 0x2f
 5577 184a 01       		.uleb128 0x1
 5578 184b 52       		.byte	0x52
 5579 184c 02       		.uleb128 0x2
 5580 184d 76       		.byte	0x76
 5581 184e 00       		.sleb128 0
 5582 184f 00       		.byte	0
 5583 1850 2E       		.uleb128 0x2e
 5584 1851 56000000 		.4byte	.LVL62
 5585 1855 2D280000 		.4byte	0x282d
 5586 1859 73180000 		.4byte	0x1873
 5587 185d 2F       		.uleb128 0x2f
 5588 185e 01       		.uleb128 0x1
 5589 185f 50       		.byte	0x50
 5590 1860 02       		.uleb128 0x2
 5591 1861 91       		.byte	0x91
 5592 1862 4C       		.sleb128 -52
 5593 1863 2F       		.uleb128 0x2f
 5594 1864 01       		.uleb128 0x1
 5595 1865 51       		.byte	0x51
 5596 1866 05       		.uleb128 0x5
 5597 1867 03       		.byte	0x3
 5598 1868 30000000 		.4byte	.LC7
 5599 186c 2F       		.uleb128 0x2f
 5600 186d 01       		.uleb128 0x1
 5601 186e 52       		.byte	0x52
 5602 186f 02       		.uleb128 0x2
 5603 1870 75       		.byte	0x75
 5604 1871 00       		.sleb128 0
 5605 1872 00       		.byte	0
 5606 1873 2E       		.uleb128 0x2e
ARM GAS  C:\Users\haske\AppData\Local\Temp\ccWSfRiA.s 			page 155


 5607 1874 60000000 		.4byte	.LVL63
 5608 1878 2D280000 		.4byte	0x282d
 5609 187c 96180000 		.4byte	0x1896
 5610 1880 2F       		.uleb128 0x2f
 5611 1881 01       		.uleb128 0x1
 5612 1882 50       		.byte	0x50
 5613 1883 02       		.uleb128 0x2
 5614 1884 91       		.byte	0x91
 5615 1885 4C       		.sleb128 -52
 5616 1886 2F       		.uleb128 0x2f
 5617 1887 01       		.uleb128 0x1
 5618 1888 51       		.byte	0x51
 5619 1889 05       		.uleb128 0x5
 5620 188a 03       		.byte	0x3
 5621 188b 3C000000 		.4byte	.LC8
 5622 188f 2F       		.uleb128 0x2f
 5623 1890 01       		.uleb128 0x1
 5624 1891 52       		.byte	0x52
 5625 1892 02       		.uleb128 0x2
 5626 1893 74       		.byte	0x74
 5627 1894 00       		.sleb128 0
 5628 1895 00       		.byte	0
 5629 1896 2E       		.uleb128 0x2e
 5630 1897 7A000000 		.4byte	.LVL69
 5631 189b 2D280000 		.4byte	0x282d
 5632 189f B3180000 		.4byte	0x18b3
 5633 18a3 2F       		.uleb128 0x2f
 5634 18a4 01       		.uleb128 0x1
 5635 18a5 50       		.byte	0x50
 5636 18a6 02       		.uleb128 0x2
 5637 18a7 91       		.byte	0x91
 5638 18a8 4C       		.sleb128 -52
 5639 18a9 2F       		.uleb128 0x2f
 5640 18aa 01       		.uleb128 0x1
 5641 18ab 51       		.byte	0x51
 5642 18ac 05       		.uleb128 0x5
 5643 18ad 03       		.byte	0x3
 5644 18ae 44000000 		.4byte	.LC9
 5645 18b2 00       		.byte	0
 5646 18b3 2E       		.uleb128 0x2e
 5647 18b4 84000000 		.4byte	.LVL70
 5648 18b8 2D280000 		.4byte	0x282d
 5649 18bc D6180000 		.4byte	0x18d6
 5650 18c0 2F       		.uleb128 0x2f
 5651 18c1 01       		.uleb128 0x1
 5652 18c2 50       		.byte	0x50
 5653 18c3 02       		.uleb128 0x2
 5654 18c4 91       		.byte	0x91
 5655 18c5 4C       		.sleb128 -52
 5656 18c6 2F       		.uleb128 0x2f
 5657 18c7 01       		.uleb128 0x1
 5658 18c8 51       		.byte	0x51
 5659 18c9 05       		.uleb128 0x5
 5660 18ca 03       		.byte	0x3
 5661 18cb 4C000000 		.4byte	.LC10
 5662 18cf 2F       		.uleb128 0x2f
 5663 18d0 01       		.uleb128 0x1
ARM GAS  C:\Users\haske\AppData\Local\Temp\ccWSfRiA.s 			page 156


 5664 18d1 52       		.byte	0x52
 5665 18d2 02       		.uleb128 0x2
 5666 18d3 76       		.byte	0x76
 5667 18d4 00       		.sleb128 0
 5668 18d5 00       		.byte	0
 5669 18d6 2E       		.uleb128 0x2e
 5670 18d7 8E000000 		.4byte	.LVL71
 5671 18db 2D280000 		.4byte	0x282d
 5672 18df F8180000 		.4byte	0x18f8
 5673 18e3 2F       		.uleb128 0x2f
 5674 18e4 01       		.uleb128 0x1
 5675 18e5 50       		.byte	0x50
 5676 18e6 02       		.uleb128 0x2
 5677 18e7 91       		.byte	0x91
 5678 18e8 4C       		.sleb128 -52
 5679 18e9 2F       		.uleb128 0x2f
 5680 18ea 01       		.uleb128 0x1
 5681 18eb 51       		.byte	0x51
 5682 18ec 05       		.uleb128 0x5
 5683 18ed 03       		.byte	0x3
 5684 18ee 54000000 		.4byte	.LC11
 5685 18f2 2F       		.uleb128 0x2f
 5686 18f3 01       		.uleb128 0x1
 5687 18f4 52       		.byte	0x52
 5688 18f5 01       		.uleb128 0x1
 5689 18f6 30       		.byte	0x30
 5690 18f7 00       		.byte	0
 5691 18f8 2E       		.uleb128 0x2e
 5692 18f9 98000000 		.4byte	.LVL72
 5693 18fd 2D280000 		.4byte	0x282d
 5694 1901 1B190000 		.4byte	0x191b
 5695 1905 2F       		.uleb128 0x2f
 5696 1906 01       		.uleb128 0x1
 5697 1907 50       		.byte	0x50
 5698 1908 02       		.uleb128 0x2
 5699 1909 91       		.byte	0x91
 5700 190a 4C       		.sleb128 -52
 5701 190b 2F       		.uleb128 0x2f
 5702 190c 01       		.uleb128 0x1
 5703 190d 51       		.byte	0x51
 5704 190e 05       		.uleb128 0x5
 5705 190f 03       		.byte	0x3
 5706 1910 5C000000 		.4byte	.LC12
 5707 1914 2F       		.uleb128 0x2f
 5708 1915 01       		.uleb128 0x1
 5709 1916 52       		.byte	0x52
 5710 1917 02       		.uleb128 0x2
 5711 1918 75       		.byte	0x75
 5712 1919 00       		.sleb128 0
 5713 191a 00       		.byte	0
 5714 191b 30       		.uleb128 0x30
 5715 191c A2000000 		.4byte	.LVL73
 5716 1920 2D280000 		.4byte	0x282d
 5717 1924 2F       		.uleb128 0x2f
 5718 1925 01       		.uleb128 0x1
 5719 1926 50       		.byte	0x50
 5720 1927 02       		.uleb128 0x2
ARM GAS  C:\Users\haske\AppData\Local\Temp\ccWSfRiA.s 			page 157


 5721 1928 91       		.byte	0x91
 5722 1929 4C       		.sleb128 -52
 5723 192a 2F       		.uleb128 0x2f
 5724 192b 01       		.uleb128 0x1
 5725 192c 51       		.byte	0x51
 5726 192d 05       		.uleb128 0x5
 5727 192e 03       		.byte	0x3
 5728 192f 64000000 		.4byte	.LC13
 5729 1933 2F       		.uleb128 0x2f
 5730 1934 01       		.uleb128 0x1
 5731 1935 52       		.byte	0x52
 5732 1936 02       		.uleb128 0x2
 5733 1937 74       		.byte	0x74
 5734 1938 00       		.sleb128 0
 5735 1939 00       		.byte	0
 5736 193a 00       		.byte	0
 5737 193b 07       		.uleb128 0x7
 5738 193c 7C080000 		.4byte	0x87c
 5739 1940 4B190000 		.4byte	0x194b
 5740 1944 08       		.uleb128 0x8
 5741 1945 D9000000 		.4byte	0xd9
 5742 1949 0A       		.byte	0xa
 5743 194a 00       		.byte	0
 5744 194b 07       		.uleb128 0x7
 5745 194c 67080000 		.4byte	0x867
 5746 1950 5B190000 		.4byte	0x195b
 5747 1954 08       		.uleb128 0x8
 5748 1955 D9000000 		.4byte	0xd9
 5749 1959 0F       		.byte	0xf
 5750 195a 00       		.byte	0
 5751 195b 31       		.uleb128 0x31
 5752 195c 14110000 		.4byte	.LASF457
 5753 1960 01       		.byte	0x1
 5754 1961 9C01     		.2byte	0x19c
 5755 1963 00000000 		.4byte	.LFB975
 5756 1967 A0000000 		.4byte	.LFE975-.LFB975
 5757 196b 01       		.uleb128 0x1
 5758 196c 9C       		.byte	0x9c
 5759 196d 8D1C0000 		.4byte	0x1c8d
 5760 1971 37       		.uleb128 0x37
 5761 1972 0E130000 		.4byte	0x130e
 5762 1976 0C000000 		.4byte	.LBB98
 5763 197a 0A000000 		.4byte	.LBE98-.LBB98
 5764 197e 01       		.byte	0x1
 5765 197f A101     		.2byte	0x1a1
 5766 1981 A1190000 		.4byte	0x19a1
 5767 1985 38       		.uleb128 0x38
 5768 1986 33130000 		.4byte	0x1333
 5769 198a 61030000 		.4byte	.LLST16
 5770 198e 38       		.uleb128 0x38
 5771 198f 27130000 		.4byte	0x1327
 5772 1993 75030000 		.4byte	.LLST17
 5773 1997 38       		.uleb128 0x38
 5774 1998 1B130000 		.4byte	0x131b
 5775 199c 89030000 		.4byte	.LLST18
 5776 19a0 00       		.byte	0
 5777 19a1 37       		.uleb128 0x37
ARM GAS  C:\Users\haske\AppData\Local\Temp\ccWSfRiA.s 			page 158


 5778 19a2 0E130000 		.4byte	0x130e
 5779 19a6 16000000 		.4byte	.LBB100
 5780 19aa 06000000 		.4byte	.LBE100-.LBB100
 5781 19ae 01       		.byte	0x1
 5782 19af A201     		.2byte	0x1a2
 5783 19b1 D1190000 		.4byte	0x19d1
 5784 19b5 38       		.uleb128 0x38
 5785 19b6 33130000 		.4byte	0x1333
 5786 19ba A1030000 		.4byte	.LLST19
 5787 19be 38       		.uleb128 0x38
 5788 19bf 27130000 		.4byte	0x1327
 5789 19c3 B5030000 		.4byte	.LLST20
 5790 19c7 38       		.uleb128 0x38
 5791 19c8 1B130000 		.4byte	0x131b
 5792 19cc C9030000 		.4byte	.LLST21
 5793 19d0 00       		.byte	0
 5794 19d1 37       		.uleb128 0x37
 5795 19d2 0E130000 		.4byte	0x130e
 5796 19d6 1C000000 		.4byte	.LBB102
 5797 19da 0C000000 		.4byte	.LBE102-.LBB102
 5798 19de 01       		.byte	0x1
 5799 19df A301     		.2byte	0x1a3
 5800 19e1 011A0000 		.4byte	0x1a01
 5801 19e5 38       		.uleb128 0x38
 5802 19e6 33130000 		.4byte	0x1333
 5803 19ea E1030000 		.4byte	.LLST22
 5804 19ee 38       		.uleb128 0x38
 5805 19ef 27130000 		.4byte	0x1327
 5806 19f3 F5030000 		.4byte	.LLST23
 5807 19f7 38       		.uleb128 0x38
 5808 19f8 1B130000 		.4byte	0x131b
 5809 19fc 09040000 		.4byte	.LLST24
 5810 1a00 00       		.byte	0
 5811 1a01 37       		.uleb128 0x37
 5812 1a02 0E130000 		.4byte	0x130e
 5813 1a06 28000000 		.4byte	.LBB104
 5814 1a0a 08000000 		.4byte	.LBE104-.LBB104
 5815 1a0e 01       		.byte	0x1
 5816 1a0f A401     		.2byte	0x1a4
 5817 1a11 311A0000 		.4byte	0x1a31
 5818 1a15 38       		.uleb128 0x38
 5819 1a16 33130000 		.4byte	0x1333
 5820 1a1a 21040000 		.4byte	.LLST25
 5821 1a1e 38       		.uleb128 0x38
 5822 1a1f 27130000 		.4byte	0x1327
 5823 1a23 35040000 		.4byte	.LLST26
 5824 1a27 38       		.uleb128 0x38
 5825 1a28 1B130000 		.4byte	0x131b
 5826 1a2c 49040000 		.4byte	.LLST27
 5827 1a30 00       		.byte	0
 5828 1a31 37       		.uleb128 0x37
 5829 1a32 0E130000 		.4byte	0x130e
 5830 1a36 38000000 		.4byte	.LBB106
 5831 1a3a 04000000 		.4byte	.LBE106-.LBB106
 5832 1a3e 01       		.byte	0x1
 5833 1a3f A901     		.2byte	0x1a9
 5834 1a41 611A0000 		.4byte	0x1a61
ARM GAS  C:\Users\haske\AppData\Local\Temp\ccWSfRiA.s 			page 159


 5835 1a45 38       		.uleb128 0x38
 5836 1a46 33130000 		.4byte	0x1333
 5837 1a4a 61040000 		.4byte	.LLST28
 5838 1a4e 38       		.uleb128 0x38
 5839 1a4f 27130000 		.4byte	0x1327
 5840 1a53 75040000 		.4byte	.LLST29
 5841 1a57 38       		.uleb128 0x38
 5842 1a58 1B130000 		.4byte	0x131b
 5843 1a5c 89040000 		.4byte	.LLST30
 5844 1a60 00       		.byte	0
 5845 1a61 37       		.uleb128 0x37
 5846 1a62 0E130000 		.4byte	0x130e
 5847 1a66 3C000000 		.4byte	.LBB108
 5848 1a6a 04000000 		.4byte	.LBE108-.LBB108
 5849 1a6e 01       		.byte	0x1
 5850 1a6f AA01     		.2byte	0x1aa
 5851 1a71 911A0000 		.4byte	0x1a91
 5852 1a75 38       		.uleb128 0x38
 5853 1a76 33130000 		.4byte	0x1333
 5854 1a7a A1040000 		.4byte	.LLST31
 5855 1a7e 38       		.uleb128 0x38
 5856 1a7f 27130000 		.4byte	0x1327
 5857 1a83 B5040000 		.4byte	.LLST32
 5858 1a87 38       		.uleb128 0x38
 5859 1a88 1B130000 		.4byte	0x131b
 5860 1a8c C9040000 		.4byte	.LLST33
 5861 1a90 00       		.byte	0
 5862 1a91 37       		.uleb128 0x37
 5863 1a92 0E130000 		.4byte	0x130e
 5864 1a96 40000000 		.4byte	.LBB110
 5865 1a9a 04000000 		.4byte	.LBE110-.LBB110
 5866 1a9e 01       		.byte	0x1
 5867 1a9f AB01     		.2byte	0x1ab
 5868 1aa1 C11A0000 		.4byte	0x1ac1
 5869 1aa5 38       		.uleb128 0x38
 5870 1aa6 33130000 		.4byte	0x1333
 5871 1aaa E1040000 		.4byte	.LLST34
 5872 1aae 38       		.uleb128 0x38
 5873 1aaf 27130000 		.4byte	0x1327
 5874 1ab3 F5040000 		.4byte	.LLST35
 5875 1ab7 38       		.uleb128 0x38
 5876 1ab8 1B130000 		.4byte	0x131b
 5877 1abc 09050000 		.4byte	.LLST36
 5878 1ac0 00       		.byte	0
 5879 1ac1 37       		.uleb128 0x37
 5880 1ac2 0E130000 		.4byte	0x130e
 5881 1ac6 44000000 		.4byte	.LBB112
 5882 1aca 02000000 		.4byte	.LBE112-.LBB112
 5883 1ace 01       		.byte	0x1
 5884 1acf AC01     		.2byte	0x1ac
 5885 1ad1 F11A0000 		.4byte	0x1af1
 5886 1ad5 38       		.uleb128 0x38
 5887 1ad6 33130000 		.4byte	0x1333
 5888 1ada 21050000 		.4byte	.LLST37
 5889 1ade 38       		.uleb128 0x38
 5890 1adf 27130000 		.4byte	0x1327
 5891 1ae3 35050000 		.4byte	.LLST38
ARM GAS  C:\Users\haske\AppData\Local\Temp\ccWSfRiA.s 			page 160


 5892 1ae7 38       		.uleb128 0x38
 5893 1ae8 1B130000 		.4byte	0x131b
 5894 1aec 49050000 		.4byte	.LLST39
 5895 1af0 00       		.byte	0
 5896 1af1 37       		.uleb128 0x37
 5897 1af2 0E130000 		.4byte	0x130e
 5898 1af6 4C000000 		.4byte	.LBB114
 5899 1afa 04000000 		.4byte	.LBE114-.LBB114
 5900 1afe 01       		.byte	0x1
 5901 1aff B101     		.2byte	0x1b1
 5902 1b01 211B0000 		.4byte	0x1b21
 5903 1b05 38       		.uleb128 0x38
 5904 1b06 33130000 		.4byte	0x1333
 5905 1b0a 61050000 		.4byte	.LLST40
 5906 1b0e 38       		.uleb128 0x38
 5907 1b0f 27130000 		.4byte	0x1327
 5908 1b13 75050000 		.4byte	.LLST41
 5909 1b17 38       		.uleb128 0x38
 5910 1b18 1B130000 		.4byte	0x131b
 5911 1b1c 89050000 		.4byte	.LLST42
 5912 1b20 00       		.byte	0
 5913 1b21 37       		.uleb128 0x37
 5914 1b22 0E130000 		.4byte	0x130e
 5915 1b26 50000000 		.4byte	.LBB116
 5916 1b2a 02000000 		.4byte	.LBE116-.LBB116
 5917 1b2e 01       		.byte	0x1
 5918 1b2f B201     		.2byte	0x1b2
 5919 1b31 511B0000 		.4byte	0x1b51
 5920 1b35 38       		.uleb128 0x38
 5921 1b36 33130000 		.4byte	0x1333
 5922 1b3a A1050000 		.4byte	.LLST43
 5923 1b3e 38       		.uleb128 0x38
 5924 1b3f 27130000 		.4byte	0x1327
 5925 1b43 B5050000 		.4byte	.LLST44
 5926 1b47 38       		.uleb128 0x38
 5927 1b48 1B130000 		.4byte	0x131b
 5928 1b4c C9050000 		.4byte	.LLST45
 5929 1b50 00       		.byte	0
 5930 1b51 37       		.uleb128 0x37
 5931 1b52 0E130000 		.4byte	0x130e
 5932 1b56 52000000 		.4byte	.LBB118
 5933 1b5a 08000000 		.4byte	.LBE118-.LBB118
 5934 1b5e 01       		.byte	0x1
 5935 1b5f B301     		.2byte	0x1b3
 5936 1b61 811B0000 		.4byte	0x1b81
 5937 1b65 38       		.uleb128 0x38
 5938 1b66 33130000 		.4byte	0x1333
 5939 1b6a E1050000 		.4byte	.LLST46
 5940 1b6e 38       		.uleb128 0x38
 5941 1b6f 27130000 		.4byte	0x1327
 5942 1b73 F5050000 		.4byte	.LLST47
 5943 1b77 38       		.uleb128 0x38
 5944 1b78 1B130000 		.4byte	0x131b
 5945 1b7c 09060000 		.4byte	.LLST48
 5946 1b80 00       		.byte	0
 5947 1b81 37       		.uleb128 0x37
 5948 1b82 0E130000 		.4byte	0x130e
ARM GAS  C:\Users\haske\AppData\Local\Temp\ccWSfRiA.s 			page 161


 5949 1b86 5A000000 		.4byte	.LBB120
 5950 1b8a 0A000000 		.4byte	.LBE120-.LBB120
 5951 1b8e 01       		.byte	0x1
 5952 1b8f B401     		.2byte	0x1b4
 5953 1b91 B11B0000 		.4byte	0x1bb1
 5954 1b95 38       		.uleb128 0x38
 5955 1b96 33130000 		.4byte	0x1333
 5956 1b9a 21060000 		.4byte	.LLST49
 5957 1b9e 38       		.uleb128 0x38
 5958 1b9f 27130000 		.4byte	0x1327
 5959 1ba3 35060000 		.4byte	.LLST50
 5960 1ba7 38       		.uleb128 0x38
 5961 1ba8 1B130000 		.4byte	0x131b
 5962 1bac 49060000 		.4byte	.LLST51
 5963 1bb0 00       		.byte	0
 5964 1bb1 37       		.uleb128 0x37
 5965 1bb2 0E130000 		.4byte	0x130e
 5966 1bb6 6A000000 		.4byte	.LBB122
 5967 1bba 04000000 		.4byte	.LBE122-.LBB122
 5968 1bbe 01       		.byte	0x1
 5969 1bbf B901     		.2byte	0x1b9
 5970 1bc1 E11B0000 		.4byte	0x1be1
 5971 1bc5 38       		.uleb128 0x38
 5972 1bc6 33130000 		.4byte	0x1333
 5973 1bca 61060000 		.4byte	.LLST52
 5974 1bce 38       		.uleb128 0x38
 5975 1bcf 27130000 		.4byte	0x1327
 5976 1bd3 75060000 		.4byte	.LLST53
 5977 1bd7 38       		.uleb128 0x38
 5978 1bd8 1B130000 		.4byte	0x131b
 5979 1bdc 89060000 		.4byte	.LLST54
 5980 1be0 00       		.byte	0
 5981 1be1 37       		.uleb128 0x37
 5982 1be2 0E130000 		.4byte	0x130e
 5983 1be6 6E000000 		.4byte	.LBB124
 5984 1bea 06000000 		.4byte	.LBE124-.LBB124
 5985 1bee 01       		.byte	0x1
 5986 1bef BA01     		.2byte	0x1ba
 5987 1bf1 111C0000 		.4byte	0x1c11
 5988 1bf5 38       		.uleb128 0x38
 5989 1bf6 33130000 		.4byte	0x1333
 5990 1bfa A1060000 		.4byte	.LLST55
 5991 1bfe 38       		.uleb128 0x38
 5992 1bff 27130000 		.4byte	0x1327
 5993 1c03 B5060000 		.4byte	.LLST56
 5994 1c07 38       		.uleb128 0x38
 5995 1c08 1B130000 		.4byte	0x131b
 5996 1c0c C9060000 		.4byte	.LLST57
 5997 1c10 00       		.byte	0
 5998 1c11 37       		.uleb128 0x37
 5999 1c12 0E130000 		.4byte	0x130e
 6000 1c16 74000000 		.4byte	.LBB126
 6001 1c1a 04000000 		.4byte	.LBE126-.LBB126
 6002 1c1e 01       		.byte	0x1
 6003 1c1f BB01     		.2byte	0x1bb
 6004 1c21 411C0000 		.4byte	0x1c41
 6005 1c25 38       		.uleb128 0x38
ARM GAS  C:\Users\haske\AppData\Local\Temp\ccWSfRiA.s 			page 162


 6006 1c26 33130000 		.4byte	0x1333
 6007 1c2a E1060000 		.4byte	.LLST58
 6008 1c2e 38       		.uleb128 0x38
 6009 1c2f 27130000 		.4byte	0x1327
 6010 1c33 F5060000 		.4byte	.LLST59
 6011 1c37 38       		.uleb128 0x38
 6012 1c38 1B130000 		.4byte	0x131b
 6013 1c3c 09070000 		.4byte	.LLST60
 6014 1c40 00       		.byte	0
 6015 1c41 37       		.uleb128 0x37
 6016 1c42 0E130000 		.4byte	0x130e
 6017 1c46 78000000 		.4byte	.LBB128
 6018 1c4a 02000000 		.4byte	.LBE128-.LBB128
 6019 1c4e 01       		.byte	0x1
 6020 1c4f BC01     		.2byte	0x1bc
 6021 1c51 711C0000 		.4byte	0x1c71
 6022 1c55 38       		.uleb128 0x38
 6023 1c56 33130000 		.4byte	0x1333
 6024 1c5a 21070000 		.4byte	.LLST61
 6025 1c5e 38       		.uleb128 0x38
 6026 1c5f 27130000 		.4byte	0x1327
 6027 1c63 35070000 		.4byte	.LLST62
 6028 1c67 38       		.uleb128 0x38
 6029 1c68 1B130000 		.4byte	0x131b
 6030 1c6c 49070000 		.4byte	.LLST63
 6031 1c70 00       		.byte	0
 6032 1c71 39       		.uleb128 0x39
 6033 1c72 38000000 		.4byte	.LVL80
 6034 1c76 38280000 		.4byte	0x2838
 6035 1c7a 39       		.uleb128 0x39
 6036 1c7b 4C000000 		.4byte	.LVL85
 6037 1c7f 38280000 		.4byte	0x2838
 6038 1c83 39       		.uleb128 0x39
 6039 1c84 6A000000 		.4byte	.LVL90
 6040 1c88 38280000 		.4byte	0x2838
 6041 1c8c 00       		.byte	0
 6042 1c8d 31       		.uleb128 0x31
 6043 1c8e C70A0000 		.4byte	.LASF458
 6044 1c92 01       		.byte	0x1
 6045 1c93 CE01     		.2byte	0x1ce
 6046 1c95 00000000 		.4byte	.LFB976
 6047 1c99 88000000 		.4byte	.LFE976-.LFB976
 6048 1c9d 01       		.uleb128 0x1
 6049 1c9e 9C       		.byte	0x9c
 6050 1c9f B41C0000 		.4byte	0x1cb4
 6051 1ca3 32       		.uleb128 0x32
 6052 1ca4 00230000 		.4byte	.LASF444
 6053 1ca8 01       		.byte	0x1
 6054 1ca9 CE01     		.2byte	0x1ce
 6055 1cab 94000000 		.4byte	0x94
 6056 1caf 61070000 		.4byte	.LLST64
 6057 1cb3 00       		.byte	0
 6058 1cb4 31       		.uleb128 0x31
 6059 1cb5 470D0000 		.4byte	.LASF459
 6060 1cb9 01       		.byte	0x1
 6061 1cba EC01     		.2byte	0x1ec
 6062 1cbc 00000000 		.4byte	.LFB977
ARM GAS  C:\Users\haske\AppData\Local\Temp\ccWSfRiA.s 			page 163


 6063 1cc0 84000000 		.4byte	.LFE977-.LFB977
 6064 1cc4 01       		.uleb128 0x1
 6065 1cc5 9C       		.byte	0x9c
 6066 1cc6 DB1C0000 		.4byte	0x1cdb
 6067 1cca 32       		.uleb128 0x32
 6068 1ccb 00230000 		.4byte	.LASF444
 6069 1ccf 01       		.byte	0x1
 6070 1cd0 EC01     		.2byte	0x1ec
 6071 1cd2 94000000 		.4byte	0x94
 6072 1cd6 81070000 		.4byte	.LLST65
 6073 1cda 00       		.byte	0
 6074 1cdb 31       		.uleb128 0x31
 6075 1cdc E20F0000 		.4byte	.LASF460
 6076 1ce0 01       		.byte	0x1
 6077 1ce1 0702     		.2byte	0x207
 6078 1ce3 00000000 		.4byte	.LFB978
 6079 1ce7 C8000000 		.4byte	.LFE978-.LFB978
 6080 1ceb 01       		.uleb128 0x1
 6081 1cec 9C       		.byte	0x9c
 6082 1ced BF200000 		.4byte	0x20bf
 6083 1cf1 32       		.uleb128 0x32
 6084 1cf2 00230000 		.4byte	.LASF444
 6085 1cf6 01       		.byte	0x1
 6086 1cf7 0702     		.2byte	0x207
 6087 1cf9 94000000 		.4byte	0x94
 6088 1cfd A1070000 		.4byte	.LLST66
 6089 1d01 37       		.uleb128 0x37
 6090 1d02 46130000 		.4byte	0x1346
 6091 1d06 08000000 		.4byte	.LBB130
 6092 1d0a 08000000 		.4byte	.LBE130-.LBB130
 6093 1d0e 01       		.byte	0x1
 6094 1d0f 0E02     		.2byte	0x20e
 6095 1d11 4A1D0000 		.4byte	0x1d4a
 6096 1d15 38       		.uleb128 0x38
 6097 1d16 52130000 		.4byte	0x1352
 6098 1d1a E5070000 		.4byte	.LLST67
 6099 1d1e 3A       		.uleb128 0x3a
 6100 1d1f D6120000 		.4byte	0x12d6
 6101 1d23 08000000 		.4byte	.LBB131
 6102 1d27 08000000 		.4byte	.LBE131-.LBB131
 6103 1d2b 13       		.byte	0x13
 6104 1d2c AB       		.byte	0xab
 6105 1d2d 38       		.uleb128 0x38
 6106 1d2e FB120000 		.4byte	0x12fb
 6107 1d32 E5070000 		.4byte	.LLST67
 6108 1d36 38       		.uleb128 0x38
 6109 1d37 EF120000 		.4byte	0x12ef
 6110 1d3b F9070000 		.4byte	.LLST69
 6111 1d3f 38       		.uleb128 0x38
 6112 1d40 E3120000 		.4byte	0x12e3
 6113 1d44 0D080000 		.4byte	.LLST70
 6114 1d48 00       		.byte	0
 6115 1d49 00       		.byte	0
 6116 1d4a 37       		.uleb128 0x37
 6117 1d4b 46130000 		.4byte	0x1346
 6118 1d4f 50000000 		.4byte	.LBB133
 6119 1d53 0A000000 		.4byte	.LBE133-.LBB133
ARM GAS  C:\Users\haske\AppData\Local\Temp\ccWSfRiA.s 			page 164


 6120 1d57 01       		.byte	0x1
 6121 1d58 1E02     		.2byte	0x21e
 6122 1d5a 931D0000 		.4byte	0x1d93
 6123 1d5e 38       		.uleb128 0x38
 6124 1d5f 52130000 		.4byte	0x1352
 6125 1d63 25080000 		.4byte	.LLST71
 6126 1d67 3A       		.uleb128 0x3a
 6127 1d68 D6120000 		.4byte	0x12d6
 6128 1d6c 50000000 		.4byte	.LBB134
 6129 1d70 0A000000 		.4byte	.LBE134-.LBB134
 6130 1d74 13       		.byte	0x13
 6131 1d75 AB       		.byte	0xab
 6132 1d76 38       		.uleb128 0x38
 6133 1d77 FB120000 		.4byte	0x12fb
 6134 1d7b 39080000 		.4byte	.LLST72
 6135 1d7f 38       		.uleb128 0x38
 6136 1d80 EF120000 		.4byte	0x12ef
 6137 1d84 4D080000 		.4byte	.LLST73
 6138 1d88 38       		.uleb128 0x38
 6139 1d89 E3120000 		.4byte	0x12e3
 6140 1d8d 61080000 		.4byte	.LLST74
 6141 1d91 00       		.byte	0
 6142 1d92 00       		.byte	0
 6143 1d93 37       		.uleb128 0x37
 6144 1d94 46130000 		.4byte	0x1346
 6145 1d98 5A000000 		.4byte	.LBB136
 6146 1d9c 0A000000 		.4byte	.LBE136-.LBB136
 6147 1da0 01       		.byte	0x1
 6148 1da1 1F02     		.2byte	0x21f
 6149 1da3 DC1D0000 		.4byte	0x1ddc
 6150 1da7 38       		.uleb128 0x38
 6151 1da8 52130000 		.4byte	0x1352
 6152 1dac 79080000 		.4byte	.LLST75
 6153 1db0 3A       		.uleb128 0x3a
 6154 1db1 D6120000 		.4byte	0x12d6
 6155 1db5 5A000000 		.4byte	.LBB137
 6156 1db9 0A000000 		.4byte	.LBE137-.LBB137
 6157 1dbd 13       		.byte	0x13
 6158 1dbe AB       		.byte	0xab
 6159 1dbf 38       		.uleb128 0x38
 6160 1dc0 FB120000 		.4byte	0x12fb
 6161 1dc4 8D080000 		.4byte	.LLST76
 6162 1dc8 38       		.uleb128 0x38
 6163 1dc9 EF120000 		.4byte	0x12ef
 6164 1dcd A1080000 		.4byte	.LLST77
 6165 1dd1 38       		.uleb128 0x38
 6166 1dd2 E3120000 		.4byte	0x12e3
 6167 1dd6 B5080000 		.4byte	.LLST78
 6168 1dda 00       		.byte	0
 6169 1ddb 00       		.byte	0
 6170 1ddc 37       		.uleb128 0x37
 6171 1ddd 46130000 		.4byte	0x1346
 6172 1de1 64000000 		.4byte	.LBB139
 6173 1de5 0A000000 		.4byte	.LBE139-.LBB139
 6174 1de9 01       		.byte	0x1
 6175 1dea 2002     		.2byte	0x220
 6176 1dec 251E0000 		.4byte	0x1e25
ARM GAS  C:\Users\haske\AppData\Local\Temp\ccWSfRiA.s 			page 165


 6177 1df0 38       		.uleb128 0x38
 6178 1df1 52130000 		.4byte	0x1352
 6179 1df5 CD080000 		.4byte	.LLST79
 6180 1df9 3A       		.uleb128 0x3a
 6181 1dfa D6120000 		.4byte	0x12d6
 6182 1dfe 64000000 		.4byte	.LBB140
 6183 1e02 0A000000 		.4byte	.LBE140-.LBB140
 6184 1e06 13       		.byte	0x13
 6185 1e07 AB       		.byte	0xab
 6186 1e08 38       		.uleb128 0x38
 6187 1e09 FB120000 		.4byte	0x12fb
 6188 1e0d E1080000 		.4byte	.LLST80
 6189 1e11 38       		.uleb128 0x38
 6190 1e12 EF120000 		.4byte	0x12ef
 6191 1e16 F5080000 		.4byte	.LLST81
 6192 1e1a 38       		.uleb128 0x38
 6193 1e1b E3120000 		.4byte	0x12e3
 6194 1e1f 09090000 		.4byte	.LLST82
 6195 1e23 00       		.byte	0
 6196 1e24 00       		.byte	0
 6197 1e25 37       		.uleb128 0x37
 6198 1e26 46130000 		.4byte	0x1346
 6199 1e2a 6E000000 		.4byte	.LBB142
 6200 1e2e 0A000000 		.4byte	.LBE142-.LBB142
 6201 1e32 01       		.byte	0x1
 6202 1e33 2102     		.2byte	0x221
 6203 1e35 6E1E0000 		.4byte	0x1e6e
 6204 1e39 38       		.uleb128 0x38
 6205 1e3a 52130000 		.4byte	0x1352
 6206 1e3e 21090000 		.4byte	.LLST83
 6207 1e42 3A       		.uleb128 0x3a
 6208 1e43 D6120000 		.4byte	0x12d6
 6209 1e47 6E000000 		.4byte	.LBB143
 6210 1e4b 0A000000 		.4byte	.LBE143-.LBB143
 6211 1e4f 13       		.byte	0x13
 6212 1e50 AB       		.byte	0xab
 6213 1e51 38       		.uleb128 0x38
 6214 1e52 FB120000 		.4byte	0x12fb
 6215 1e56 36090000 		.4byte	.LLST84
 6216 1e5a 38       		.uleb128 0x38
 6217 1e5b EF120000 		.4byte	0x12ef
 6218 1e5f 4B090000 		.4byte	.LLST85
 6219 1e63 38       		.uleb128 0x38
 6220 1e64 E3120000 		.4byte	0x12e3
 6221 1e68 5F090000 		.4byte	.LLST86
 6222 1e6c 00       		.byte	0
 6223 1e6d 00       		.byte	0
 6224 1e6e 37       		.uleb128 0x37
 6225 1e6f 46130000 		.4byte	0x1346
 6226 1e73 78000000 		.4byte	.LBB145
 6227 1e77 0A000000 		.4byte	.LBE145-.LBB145
 6228 1e7b 01       		.byte	0x1
 6229 1e7c 2202     		.2byte	0x222
 6230 1e7e B71E0000 		.4byte	0x1eb7
 6231 1e82 38       		.uleb128 0x38
 6232 1e83 52130000 		.4byte	0x1352
 6233 1e87 77090000 		.4byte	.LLST87
ARM GAS  C:\Users\haske\AppData\Local\Temp\ccWSfRiA.s 			page 166


 6234 1e8b 3A       		.uleb128 0x3a
 6235 1e8c D6120000 		.4byte	0x12d6
 6236 1e90 78000000 		.4byte	.LBB146
 6237 1e94 0A000000 		.4byte	.LBE146-.LBB146
 6238 1e98 13       		.byte	0x13
 6239 1e99 AB       		.byte	0xab
 6240 1e9a 38       		.uleb128 0x38
 6241 1e9b FB120000 		.4byte	0x12fb
 6242 1e9f 8C090000 		.4byte	.LLST88
 6243 1ea3 38       		.uleb128 0x38
 6244 1ea4 EF120000 		.4byte	0x12ef
 6245 1ea8 A1090000 		.4byte	.LLST89
 6246 1eac 38       		.uleb128 0x38
 6247 1ead E3120000 		.4byte	0x12e3
 6248 1eb1 B5090000 		.4byte	.LLST90
 6249 1eb5 00       		.byte	0
 6250 1eb6 00       		.byte	0
 6251 1eb7 37       		.uleb128 0x37
 6252 1eb8 46130000 		.4byte	0x1346
 6253 1ebc 82000000 		.4byte	.LBB148
 6254 1ec0 0A000000 		.4byte	.LBE148-.LBB148
 6255 1ec4 01       		.byte	0x1
 6256 1ec5 2302     		.2byte	0x223
 6257 1ec7 001F0000 		.4byte	0x1f00
 6258 1ecb 38       		.uleb128 0x38
 6259 1ecc 52130000 		.4byte	0x1352
 6260 1ed0 CD090000 		.4byte	.LLST91
 6261 1ed4 3A       		.uleb128 0x3a
 6262 1ed5 D6120000 		.4byte	0x12d6
 6263 1ed9 82000000 		.4byte	.LBB149
 6264 1edd 0A000000 		.4byte	.LBE149-.LBB149
 6265 1ee1 13       		.byte	0x13
 6266 1ee2 AB       		.byte	0xab
 6267 1ee3 38       		.uleb128 0x38
 6268 1ee4 FB120000 		.4byte	0x12fb
 6269 1ee8 E2090000 		.4byte	.LLST92
 6270 1eec 38       		.uleb128 0x38
 6271 1eed EF120000 		.4byte	0x12ef
 6272 1ef1 F7090000 		.4byte	.LLST93
 6273 1ef5 38       		.uleb128 0x38
 6274 1ef6 E3120000 		.4byte	0x12e3
 6275 1efa 0B0A0000 		.4byte	.LLST94
 6276 1efe 00       		.byte	0
 6277 1eff 00       		.byte	0
 6278 1f00 37       		.uleb128 0x37
 6279 1f01 46130000 		.4byte	0x1346
 6280 1f05 8C000000 		.4byte	.LBB151
 6281 1f09 0A000000 		.4byte	.LBE151-.LBB151
 6282 1f0d 01       		.byte	0x1
 6283 1f0e 2402     		.2byte	0x224
 6284 1f10 491F0000 		.4byte	0x1f49
 6285 1f14 38       		.uleb128 0x38
 6286 1f15 52130000 		.4byte	0x1352
 6287 1f19 230A0000 		.4byte	.LLST95
 6288 1f1d 3A       		.uleb128 0x3a
 6289 1f1e D6120000 		.4byte	0x12d6
 6290 1f22 8C000000 		.4byte	.LBB152
ARM GAS  C:\Users\haske\AppData\Local\Temp\ccWSfRiA.s 			page 167


 6291 1f26 0A000000 		.4byte	.LBE152-.LBB152
 6292 1f2a 13       		.byte	0x13
 6293 1f2b AB       		.byte	0xab
 6294 1f2c 38       		.uleb128 0x38
 6295 1f2d FB120000 		.4byte	0x12fb
 6296 1f31 380A0000 		.4byte	.LLST96
 6297 1f35 38       		.uleb128 0x38
 6298 1f36 EF120000 		.4byte	0x12ef
 6299 1f3a 4D0A0000 		.4byte	.LLST97
 6300 1f3e 38       		.uleb128 0x38
 6301 1f3f E3120000 		.4byte	0x12e3
 6302 1f43 610A0000 		.4byte	.LLST98
 6303 1f47 00       		.byte	0
 6304 1f48 00       		.byte	0
 6305 1f49 37       		.uleb128 0x37
 6306 1f4a 46130000 		.4byte	0x1346
 6307 1f4e 96000000 		.4byte	.LBB154
 6308 1f52 0A000000 		.4byte	.LBE154-.LBB154
 6309 1f56 01       		.byte	0x1
 6310 1f57 2502     		.2byte	0x225
 6311 1f59 921F0000 		.4byte	0x1f92
 6312 1f5d 38       		.uleb128 0x38
 6313 1f5e 52130000 		.4byte	0x1352
 6314 1f62 790A0000 		.4byte	.LLST99
 6315 1f66 3A       		.uleb128 0x3a
 6316 1f67 D6120000 		.4byte	0x12d6
 6317 1f6b 96000000 		.4byte	.LBB155
 6318 1f6f 0A000000 		.4byte	.LBE155-.LBB155
 6319 1f73 13       		.byte	0x13
 6320 1f74 AB       		.byte	0xab
 6321 1f75 38       		.uleb128 0x38
 6322 1f76 FB120000 		.4byte	0x12fb
 6323 1f7a 8E0A0000 		.4byte	.LLST100
 6324 1f7e 38       		.uleb128 0x38
 6325 1f7f EF120000 		.4byte	0x12ef
 6326 1f83 A30A0000 		.4byte	.LLST101
 6327 1f87 38       		.uleb128 0x38
 6328 1f88 E3120000 		.4byte	0x12e3
 6329 1f8c B70A0000 		.4byte	.LLST102
 6330 1f90 00       		.byte	0
 6331 1f91 00       		.byte	0
 6332 1f92 37       		.uleb128 0x37
 6333 1f93 46130000 		.4byte	0x1346
 6334 1f97 A0000000 		.4byte	.LBB157
 6335 1f9b 0A000000 		.4byte	.LBE157-.LBB157
 6336 1f9f 01       		.byte	0x1
 6337 1fa0 2602     		.2byte	0x226
 6338 1fa2 DB1F0000 		.4byte	0x1fdb
 6339 1fa6 38       		.uleb128 0x38
 6340 1fa7 52130000 		.4byte	0x1352
 6341 1fab CF0A0000 		.4byte	.LLST103
 6342 1faf 3A       		.uleb128 0x3a
 6343 1fb0 D6120000 		.4byte	0x12d6
 6344 1fb4 A0000000 		.4byte	.LBB158
 6345 1fb8 0A000000 		.4byte	.LBE158-.LBB158
 6346 1fbc 13       		.byte	0x13
 6347 1fbd AB       		.byte	0xab
ARM GAS  C:\Users\haske\AppData\Local\Temp\ccWSfRiA.s 			page 168


 6348 1fbe 38       		.uleb128 0x38
 6349 1fbf FB120000 		.4byte	0x12fb
 6350 1fc3 E40A0000 		.4byte	.LLST104
 6351 1fc7 38       		.uleb128 0x38
 6352 1fc8 EF120000 		.4byte	0x12ef
 6353 1fcc F90A0000 		.4byte	.LLST105
 6354 1fd0 38       		.uleb128 0x38
 6355 1fd1 E3120000 		.4byte	0x12e3
 6356 1fd5 0D0B0000 		.4byte	.LLST106
 6357 1fd9 00       		.byte	0
 6358 1fda 00       		.byte	0
 6359 1fdb 37       		.uleb128 0x37
 6360 1fdc 46130000 		.4byte	0x1346
 6361 1fe0 AA000000 		.4byte	.LBB160
 6362 1fe4 0C000000 		.4byte	.LBE160-.LBB160
 6363 1fe8 01       		.byte	0x1
 6364 1fe9 2702     		.2byte	0x227
 6365 1feb 24200000 		.4byte	0x2024
 6366 1fef 38       		.uleb128 0x38
 6367 1ff0 52130000 		.4byte	0x1352
 6368 1ff4 250B0000 		.4byte	.LLST107
 6369 1ff8 3A       		.uleb128 0x3a
 6370 1ff9 D6120000 		.4byte	0x12d6
 6371 1ffd AA000000 		.4byte	.LBB161
 6372 2001 0C000000 		.4byte	.LBE161-.LBB161
 6373 2005 13       		.byte	0x13
 6374 2006 AB       		.byte	0xab
 6375 2007 38       		.uleb128 0x38
 6376 2008 FB120000 		.4byte	0x12fb
 6377 200c 3B0B0000 		.4byte	.LLST108
 6378 2010 38       		.uleb128 0x38
 6379 2011 EF120000 		.4byte	0x12ef
 6380 2015 510B0000 		.4byte	.LLST109
 6381 2019 38       		.uleb128 0x38
 6382 201a E3120000 		.4byte	0x12e3
 6383 201e 650B0000 		.4byte	.LLST110
 6384 2022 00       		.byte	0
 6385 2023 00       		.byte	0
 6386 2024 37       		.uleb128 0x37
 6387 2025 46130000 		.4byte	0x1346
 6388 2029 B6000000 		.4byte	.LBB163
 6389 202d 12000000 		.4byte	.LBE163-.LBB163
 6390 2031 01       		.byte	0x1
 6391 2032 2802     		.2byte	0x228
 6392 2034 6A200000 		.4byte	0x206a
 6393 2038 3B       		.uleb128 0x3b
 6394 2039 52130000 		.4byte	0x1352
 6395 203d 00       		.byte	0
 6396 203e 3A       		.uleb128 0x3a
 6397 203f D6120000 		.4byte	0x12d6
 6398 2043 B6000000 		.4byte	.LBB164
 6399 2047 12000000 		.4byte	.LBE164-.LBB164
 6400 204b 13       		.byte	0x13
 6401 204c AB       		.byte	0xab
 6402 204d 38       		.uleb128 0x38
 6403 204e FB120000 		.4byte	0x12fb
 6404 2052 7D0B0000 		.4byte	.LLST111
ARM GAS  C:\Users\haske\AppData\Local\Temp\ccWSfRiA.s 			page 169


 6405 2056 38       		.uleb128 0x38
 6406 2057 EF120000 		.4byte	0x12ef
 6407 205b 910B0000 		.4byte	.LLST112
 6408 205f 38       		.uleb128 0x38
 6409 2060 E3120000 		.4byte	0x12e3
 6410 2064 A50B0000 		.4byte	.LLST113
 6411 2068 00       		.byte	0
 6412 2069 00       		.byte	0
 6413 206a 39       		.uleb128 0x39
 6414 206b 08000000 		.4byte	.LVL100
 6415 206f 44280000 		.4byte	0x2844
 6416 2073 2E       		.uleb128 0x2e
 6417 2074 16000000 		.4byte	.LVL102
 6418 2078 4F280000 		.4byte	0x284f
 6419 207c 8B200000 		.4byte	0x208b
 6420 2080 2F       		.uleb128 0x2f
 6421 2081 01       		.uleb128 0x1
 6422 2082 50       		.byte	0x50
 6423 2083 01       		.uleb128 0x1
 6424 2084 36       		.byte	0x36
 6425 2085 2F       		.uleb128 0x2f
 6426 2086 01       		.uleb128 0x1
 6427 2087 51       		.byte	0x51
 6428 2088 01       		.uleb128 0x1
 6429 2089 30       		.byte	0x30
 6430 208a 00       		.byte	0
 6431 208b 39       		.uleb128 0x39
 6432 208c 26000000 		.4byte	.LVL104
 6433 2090 5A280000 		.4byte	0x285a
 6434 2094 2E       		.uleb128 0x2e
 6435 2095 2E000000 		.4byte	.LVL105
 6436 2099 4F280000 		.4byte	0x284f
 6437 209d AC200000 		.4byte	0x20ac
 6438 20a1 2F       		.uleb128 0x2f
 6439 20a2 01       		.uleb128 0x1
 6440 20a3 50       		.byte	0x50
 6441 20a4 01       		.uleb128 0x1
 6442 20a5 36       		.byte	0x36
 6443 20a6 2F       		.uleb128 0x2f
 6444 20a7 01       		.uleb128 0x1
 6445 20a8 51       		.byte	0x51
 6446 20a9 01       		.uleb128 0x1
 6447 20aa 31       		.byte	0x31
 6448 20ab 00       		.byte	0
 6449 20ac 39       		.uleb128 0x39
 6450 20ad 36000000 		.4byte	.LVL106
 6451 20b1 B41C0000 		.4byte	0x1cb4
 6452 20b5 39       		.uleb128 0x39
 6453 20b6 3C000000 		.4byte	.LVL107
 6454 20ba 8D1C0000 		.4byte	0x1c8d
 6455 20be 00       		.byte	0
 6456 20bf 3C       		.uleb128 0x3c
 6457 20c0 E1170000 		.4byte	.LASF461
 6458 20c4 01       		.byte	0x1
 6459 20c5 3A02     		.2byte	0x23a
 6460 20c7 00000000 		.4byte	.LFB979
 6461 20cb 60000000 		.4byte	.LFE979-.LFB979
ARM GAS  C:\Users\haske\AppData\Local\Temp\ccWSfRiA.s 			page 170


 6462 20cf 01       		.uleb128 0x1
 6463 20d0 9C       		.byte	0x9c
 6464 20d1 31       		.uleb128 0x31
 6465 20d2 B2080000 		.4byte	.LASF462
 6466 20d6 01       		.byte	0x1
 6467 20d7 6402     		.2byte	0x264
 6468 20d9 00000000 		.4byte	.LFB980
 6469 20dd 02000000 		.4byte	.LFE980-.LFB980
 6470 20e1 01       		.uleb128 0x1
 6471 20e2 9C       		.byte	0x9c
 6472 20e3 F6200000 		.4byte	0x20f6
 6473 20e7 3D       		.uleb128 0x3d
 6474 20e8 00230000 		.4byte	.LASF444
 6475 20ec 01       		.byte	0x1
 6476 20ed 6402     		.2byte	0x264
 6477 20ef 94000000 		.4byte	0x94
 6478 20f3 01       		.uleb128 0x1
 6479 20f4 50       		.byte	0x50
 6480 20f5 00       		.byte	0
 6481 20f6 31       		.uleb128 0x31
 6482 20f7 4D1B0000 		.4byte	.LASF463
 6483 20fb 01       		.byte	0x1
 6484 20fc 7802     		.2byte	0x278
 6485 20fe 00000000 		.4byte	.LFB981
 6486 2102 40000000 		.4byte	.LFE981-.LFB981
 6487 2106 01       		.uleb128 0x1
 6488 2107 9C       		.byte	0x9c
 6489 2108 49210000 		.4byte	0x2149
 6490 210c 32       		.uleb128 0x32
 6491 210d 00230000 		.4byte	.LASF444
 6492 2111 01       		.byte	0x1
 6493 2112 7802     		.2byte	0x278
 6494 2114 94000000 		.4byte	0x94
 6495 2118 BD0B0000 		.4byte	.LLST114
 6496 211c 2E       		.uleb128 0x2e
 6497 211d 26000000 		.4byte	.LVL134
 6498 2121 4F280000 		.4byte	0x284f
 6499 2125 34210000 		.4byte	0x2134
 6500 2129 2F       		.uleb128 0x2f
 6501 212a 01       		.uleb128 0x1
 6502 212b 50       		.byte	0x50
 6503 212c 01       		.uleb128 0x1
 6504 212d 33       		.byte	0x33
 6505 212e 2F       		.uleb128 0x2f
 6506 212f 01       		.uleb128 0x1
 6507 2130 51       		.byte	0x51
 6508 2131 01       		.uleb128 0x1
 6509 2132 31       		.byte	0x31
 6510 2133 00       		.byte	0
 6511 2134 30       		.uleb128 0x30
 6512 2135 34000000 		.4byte	.LVL137
 6513 2139 4F280000 		.4byte	0x284f
 6514 213d 2F       		.uleb128 0x2f
 6515 213e 01       		.uleb128 0x1
 6516 213f 50       		.byte	0x50
 6517 2140 01       		.uleb128 0x1
 6518 2141 33       		.byte	0x33
ARM GAS  C:\Users\haske\AppData\Local\Temp\ccWSfRiA.s 			page 171


 6519 2142 2F       		.uleb128 0x2f
 6520 2143 01       		.uleb128 0x1
 6521 2144 51       		.byte	0x51
 6522 2145 01       		.uleb128 0x1
 6523 2146 30       		.byte	0x30
 6524 2147 00       		.byte	0
 6525 2148 00       		.byte	0
 6526 2149 31       		.uleb128 0x31
 6527 214a CE1F0000 		.4byte	.LASF464
 6528 214e 01       		.byte	0x1
 6529 214f 9002     		.2byte	0x290
 6530 2151 00000000 		.4byte	.LFB982
 6531 2155 34000000 		.4byte	.LFE982-.LFB982
 6532 2159 01       		.uleb128 0x1
 6533 215a 9C       		.byte	0x9c
 6534 215b 2E220000 		.4byte	0x222e
 6535 215f 32       		.uleb128 0x32
 6536 2160 00230000 		.4byte	.LASF444
 6537 2164 01       		.byte	0x1
 6538 2165 9002     		.2byte	0x290
 6539 2167 94000000 		.4byte	0x94
 6540 216b F70B0000 		.4byte	.LLST115
 6541 216f 37       		.uleb128 0x37
 6542 2170 5E130000 		.4byte	0x135e
 6543 2174 06000000 		.4byte	.LBB166
 6544 2178 0A000000 		.4byte	.LBE166-.LBB166
 6545 217c 01       		.byte	0x1
 6546 217d 9702     		.2byte	0x297
 6547 217f B8210000 		.4byte	0x21b8
 6548 2183 38       		.uleb128 0x38
 6549 2184 6A130000 		.4byte	0x136a
 6550 2188 470C0000 		.4byte	.LLST116
 6551 218c 3A       		.uleb128 0x3a
 6552 218d D6120000 		.4byte	0x12d6
 6553 2191 06000000 		.4byte	.LBB167
 6554 2195 0A000000 		.4byte	.LBE167-.LBB167
 6555 2199 14       		.byte	0x14
 6556 219a AB       		.byte	0xab
 6557 219b 38       		.uleb128 0x38
 6558 219c FB120000 		.4byte	0x12fb
 6559 21a0 5B0C0000 		.4byte	.LLST117
 6560 21a4 38       		.uleb128 0x38
 6561 21a5 EF120000 		.4byte	0x12ef
 6562 21a9 5B0C0000 		.4byte	.LLST117
 6563 21ad 38       		.uleb128 0x38
 6564 21ae E3120000 		.4byte	0x12e3
 6565 21b2 6F0C0000 		.4byte	.LLST119
 6566 21b6 00       		.byte	0
 6567 21b7 00       		.byte	0
 6568 21b8 37       		.uleb128 0x37
 6569 21b9 5E130000 		.4byte	0x135e
 6570 21bd 10000000 		.4byte	.LBB169
 6571 21c1 0A000000 		.4byte	.LBE169-.LBB169
 6572 21c5 01       		.byte	0x1
 6573 21c6 9A02     		.2byte	0x29a
 6574 21c8 01220000 		.4byte	0x2201
 6575 21cc 38       		.uleb128 0x38
ARM GAS  C:\Users\haske\AppData\Local\Temp\ccWSfRiA.s 			page 172


 6576 21cd 6A130000 		.4byte	0x136a
 6577 21d1 870C0000 		.4byte	.LLST120
 6578 21d5 3A       		.uleb128 0x3a
 6579 21d6 D6120000 		.4byte	0x12d6
 6580 21da 10000000 		.4byte	.LBB170
 6581 21de 0A000000 		.4byte	.LBE170-.LBB170
 6582 21e2 14       		.byte	0x14
 6583 21e3 AB       		.byte	0xab
 6584 21e4 38       		.uleb128 0x38
 6585 21e5 FB120000 		.4byte	0x12fb
 6586 21e9 870C0000 		.4byte	.LLST120
 6587 21ed 38       		.uleb128 0x38
 6588 21ee EF120000 		.4byte	0x12ef
 6589 21f2 9D0C0000 		.4byte	.LLST122
 6590 21f6 38       		.uleb128 0x38
 6591 21f7 E3120000 		.4byte	0x12e3
 6592 21fb B10C0000 		.4byte	.LLST123
 6593 21ff 00       		.byte	0
 6594 2200 00       		.byte	0
 6595 2201 2E       		.uleb128 0x2e
 6596 2202 24000000 		.4byte	.LVL144
 6597 2206 4F280000 		.4byte	0x284f
 6598 220a 19220000 		.4byte	0x2219
 6599 220e 2F       		.uleb128 0x2f
 6600 220f 01       		.uleb128 0x1
 6601 2210 50       		.byte	0x50
 6602 2211 01       		.uleb128 0x1
 6603 2212 32       		.byte	0x32
 6604 2213 2F       		.uleb128 0x2f
 6605 2214 01       		.uleb128 0x1
 6606 2215 51       		.byte	0x51
 6607 2216 01       		.uleb128 0x1
 6608 2217 30       		.byte	0x30
 6609 2218 00       		.byte	0
 6610 2219 30       		.uleb128 0x30
 6611 221a 2E000000 		.4byte	.LVL147
 6612 221e 4F280000 		.4byte	0x284f
 6613 2222 2F       		.uleb128 0x2f
 6614 2223 01       		.uleb128 0x1
 6615 2224 50       		.byte	0x50
 6616 2225 01       		.uleb128 0x1
 6617 2226 32       		.byte	0x32
 6618 2227 2F       		.uleb128 0x2f
 6619 2228 01       		.uleb128 0x1
 6620 2229 51       		.byte	0x51
 6621 222a 01       		.uleb128 0x1
 6622 222b 31       		.byte	0x31
 6623 222c 00       		.byte	0
 6624 222d 00       		.byte	0
 6625 222e 31       		.uleb128 0x31
 6626 222f 2E040000 		.4byte	.LASF465
 6627 2233 01       		.byte	0x1
 6628 2234 BC02     		.2byte	0x2bc
 6629 2236 00000000 		.4byte	.LFB983
 6630 223a 3A000000 		.4byte	.LFE983-.LFB983
 6631 223e 01       		.uleb128 0x1
 6632 223f 9C       		.byte	0x9c
ARM GAS  C:\Users\haske\AppData\Local\Temp\ccWSfRiA.s 			page 173


 6633 2240 CA220000 		.4byte	0x22ca
 6634 2244 32       		.uleb128 0x32
 6635 2245 A3050000 		.4byte	.LASF443
 6636 2249 01       		.byte	0x1
 6637 224a BC02     		.2byte	0x2bc
 6638 224c 94000000 		.4byte	0x94
 6639 2250 C90C0000 		.4byte	.LLST124
 6640 2254 32       		.uleb128 0x32
 6641 2255 00230000 		.4byte	.LASF444
 6642 2259 01       		.byte	0x1
 6643 225a BC02     		.2byte	0x2bc
 6644 225c 94000000 		.4byte	0x94
 6645 2260 F70C0000 		.4byte	.LLST125
 6646 2264 2E       		.uleb128 0x2e
 6647 2265 18000000 		.4byte	.LVL151
 6648 2269 49210000 		.4byte	0x2149
 6649 226d 79220000 		.4byte	0x2279
 6650 2271 2F       		.uleb128 0x2f
 6651 2272 01       		.uleb128 0x1
 6652 2273 50       		.byte	0x50
 6653 2274 03       		.uleb128 0x3
 6654 2275 F3       		.byte	0xf3
 6655 2276 01       		.uleb128 0x1
 6656 2277 51       		.byte	0x51
 6657 2278 00       		.byte	0
 6658 2279 2E       		.uleb128 0x2e
 6659 227a 20000000 		.4byte	.LVL153
 6660 227e F6200000 		.4byte	0x20f6
 6661 2282 8E220000 		.4byte	0x228e
 6662 2286 2F       		.uleb128 0x2f
 6663 2287 01       		.uleb128 0x1
 6664 2288 50       		.byte	0x50
 6665 2289 03       		.uleb128 0x3
 6666 228a F3       		.byte	0xf3
 6667 228b 01       		.uleb128 0x1
 6668 228c 51       		.byte	0x51
 6669 228d 00       		.byte	0
 6670 228e 2E       		.uleb128 0x2e
 6671 228f 28000000 		.4byte	.LVL155
 6672 2293 8D1C0000 		.4byte	0x1c8d
 6673 2297 A3220000 		.4byte	0x22a3
 6674 229b 2F       		.uleb128 0x2f
 6675 229c 01       		.uleb128 0x1
 6676 229d 50       		.byte	0x50
 6677 229e 03       		.uleb128 0x3
 6678 229f F3       		.byte	0xf3
 6679 22a0 01       		.uleb128 0x1
 6680 22a1 51       		.byte	0x51
 6681 22a2 00       		.byte	0
 6682 22a3 2E       		.uleb128 0x2e
 6683 22a4 30000000 		.4byte	.LVL157
 6684 22a8 DB1C0000 		.4byte	0x1cdb
 6685 22ac B8220000 		.4byte	0x22b8
 6686 22b0 2F       		.uleb128 0x2f
 6687 22b1 01       		.uleb128 0x1
 6688 22b2 50       		.byte	0x50
 6689 22b3 03       		.uleb128 0x3
ARM GAS  C:\Users\haske\AppData\Local\Temp\ccWSfRiA.s 			page 174


 6690 22b4 F3       		.byte	0xf3
 6691 22b5 01       		.uleb128 0x1
 6692 22b6 51       		.byte	0x51
 6693 22b7 00       		.byte	0
 6694 22b8 30       		.uleb128 0x30
 6695 22b9 38000000 		.4byte	.LVL159
 6696 22bd B41C0000 		.4byte	0x1cb4
 6697 22c1 2F       		.uleb128 0x2f
 6698 22c2 01       		.uleb128 0x1
 6699 22c3 50       		.byte	0x50
 6700 22c4 03       		.uleb128 0x3
 6701 22c5 F3       		.byte	0xf3
 6702 22c6 01       		.uleb128 0x1
 6703 22c7 51       		.byte	0x51
 6704 22c8 00       		.byte	0
 6705 22c9 00       		.byte	0
 6706 22ca 31       		.uleb128 0x31
 6707 22cb D8030000 		.4byte	.LASF466
 6708 22cf 01       		.byte	0x1
 6709 22d0 D702     		.2byte	0x2d7
 6710 22d2 00000000 		.4byte	.LFB984
 6711 22d6 24010000 		.4byte	.LFE984-.LFB984
 6712 22da 01       		.uleb128 0x1
 6713 22db 9C       		.byte	0x9c
 6714 22dc 50230000 		.4byte	0x2350
 6715 22e0 32       		.uleb128 0x32
 6716 22e1 29160000 		.4byte	.LASF467
 6717 22e5 01       		.byte	0x1
 6718 22e6 D702     		.2byte	0x2d7
 6719 22e8 50230000 		.4byte	0x2350
 6720 22ec 7C0D0000 		.4byte	.LLST126
 6721 22f0 39       		.uleb128 0x39
 6722 22f1 08000000 		.4byte	.LVL161
 6723 22f5 BF200000 		.4byte	0x20bf
 6724 22f9 39       		.uleb128 0x39
 6725 22fa 0C000000 		.4byte	.LVL162
 6726 22fe 5B190000 		.4byte	0x195b
 6727 2302 2E       		.uleb128 0x2e
 6728 2303 32000000 		.4byte	.LVL165
 6729 2307 23150000 		.4byte	0x1523
 6730 230b 15230000 		.4byte	0x2315
 6731 230f 2F       		.uleb128 0x2f
 6732 2310 01       		.uleb128 0x1
 6733 2311 51       		.byte	0x51
 6734 2312 01       		.uleb128 0x1
 6735 2313 37       		.byte	0x37
 6736 2314 00       		.byte	0
 6737 2315 2E       		.uleb128 0x2e
 6738 2316 40000000 		.4byte	.LVL166
 6739 231a 23150000 		.4byte	0x1523
 6740 231e 29230000 		.4byte	0x2329
 6741 2322 2F       		.uleb128 0x2f
 6742 2323 01       		.uleb128 0x1
 6743 2324 51       		.byte	0x51
 6744 2325 02       		.uleb128 0x2
 6745 2326 08       		.byte	0x8
 6746 2327 3A       		.byte	0x3a
ARM GAS  C:\Users\haske\AppData\Local\Temp\ccWSfRiA.s 			page 175


 6747 2328 00       		.byte	0
 6748 2329 2E       		.uleb128 0x2e
 6749 232a 50000000 		.4byte	.LVL167
 6750 232e 23150000 		.4byte	0x1523
 6751 2332 3D230000 		.4byte	0x233d
 6752 2336 2F       		.uleb128 0x2f
 6753 2337 01       		.uleb128 0x1
 6754 2338 51       		.byte	0x51
 6755 2339 02       		.uleb128 0x2
 6756 233a 08       		.byte	0x8
 6757 233b 6D       		.byte	0x6d
 6758 233c 00       		.byte	0
 6759 233d 39       		.uleb128 0x39
 6760 233e 5A000000 		.4byte	.LVL168
 6761 2342 D8160000 		.4byte	0x16d8
 6762 2346 39       		.uleb128 0x39
 6763 2347 68000000 		.4byte	.LVL169
 6764 234b 2E220000 		.4byte	0x222e
 6765 234f 00       		.byte	0
 6766 2350 16       		.uleb128 0x16
 6767 2351 04       		.byte	0x4
 6768 2352 94000000 		.4byte	0x94
 6769 2356 31       		.uleb128 0x31
 6770 2357 AC120000 		.4byte	.LASF468
 6771 235b 01       		.byte	0x1
 6772 235c 4803     		.2byte	0x348
 6773 235e 00000000 		.4byte	.LFB985
 6774 2362 F0000000 		.4byte	.LFE985-.LFB985
 6775 2366 01       		.uleb128 0x1
 6776 2367 9C       		.byte	0x9c
 6777 2368 A6230000 		.4byte	0x23a6
 6778 236c 3E       		.uleb128 0x3e
 6779 236d 6900     		.ascii	"i\000"
 6780 236f 01       		.byte	0x1
 6781 2370 4903     		.2byte	0x349
 6782 2372 94000000 		.4byte	0x94
 6783 2376 C10D0000 		.4byte	.LLST127
 6784 237a 34       		.uleb128 0x34
 6785 237b 62746E00 		.ascii	"btn\000"
 6786 237f 01       		.byte	0x1
 6787 2380 4A03     		.2byte	0x34a
 6788 2382 A6230000 		.4byte	0x23a6
 6789 2386 02       		.uleb128 0x2
 6790 2387 91       		.byte	0x91
 6791 2388 6C       		.sleb128 -20
 6792 2389 39       		.uleb128 0x39
 6793 238a 3C000000 		.4byte	.LVL178
 6794 238e 65280000 		.4byte	0x2865
 6795 2392 30       		.uleb128 0x30
 6796 2393 A0000000 		.4byte	.LVL180
 6797 2397 CA220000 		.4byte	0x22ca
 6798 239b 2F       		.uleb128 0x2f
 6799 239c 01       		.uleb128 0x1
 6800 239d 50       		.byte	0x50
 6801 239e 05       		.uleb128 0x5
 6802 239f 03       		.byte	0x3
 6803 23a0 60000000 		.4byte	.LANCHOR1+96
ARM GAS  C:\Users\haske\AppData\Local\Temp\ccWSfRiA.s 			page 176


 6804 23a4 00       		.byte	0
 6805 23a5 00       		.byte	0
 6806 23a6 07       		.uleb128 0x7
 6807 23a7 94000000 		.4byte	0x94
 6808 23ab B6230000 		.4byte	0x23b6
 6809 23af 08       		.uleb128 0x8
 6810 23b0 D9000000 		.4byte	0xd9
 6811 23b4 02       		.byte	0x2
 6812 23b5 00       		.byte	0
 6813 23b6 31       		.uleb128 0x31
 6814 23b7 77030000 		.4byte	.LASF469
 6815 23bb 01       		.byte	0x1
 6816 23bc AF03     		.2byte	0x3af
 6817 23be 00000000 		.4byte	.LFB986
 6818 23c2 0C000000 		.4byte	.LFE986-.LFB986
 6819 23c6 01       		.uleb128 0x1
 6820 23c7 9C       		.byte	0x9c
 6821 23c8 DE230000 		.4byte	0x23de
 6822 23cc 30       		.uleb128 0x30
 6823 23cd 0A000000 		.4byte	.LVL188
 6824 23d1 70280000 		.4byte	0x2870
 6825 23d5 2F       		.uleb128 0x2f
 6826 23d6 01       		.uleb128 0x1
 6827 23d7 50       		.byte	0x50
 6828 23d8 03       		.uleb128 0x3
 6829 23d9 40       		.byte	0x40
 6830 23da 45       		.byte	0x45
 6831 23db 24       		.byte	0x24
 6832 23dc 00       		.byte	0
 6833 23dd 00       		.byte	0
 6834 23de 31       		.uleb128 0x31
 6835 23df E5030000 		.4byte	.LASF470
 6836 23e3 01       		.byte	0x1
 6837 23e4 C103     		.2byte	0x3c1
 6838 23e6 00000000 		.4byte	.LFB987
 6839 23ea 18000000 		.4byte	.LFE987-.LFB987
 6840 23ee 01       		.uleb128 0x1
 6841 23ef 9C       		.byte	0x9c
 6842 23f0 2E240000 		.4byte	0x242e
 6843 23f4 3F       		.uleb128 0x3f
 6844 23f5 76130000 		.4byte	0x1376
 6845 23f9 00000000 		.4byte	.LBB172
 6846 23fd 04000000 		.4byte	.LBE172-.LBB172
 6847 2401 01       		.byte	0x1
 6848 2402 C403     		.2byte	0x3c4
 6849 2404 40       		.uleb128 0x40
 6850 2405 83130000 		.4byte	0x1383
 6851 2409 0C000000 		.4byte	.LBB174
 6852 240d 0C000000 		.4byte	.LBE174-.LBB174
 6853 2411 01       		.byte	0x1
 6854 2412 CF03     		.2byte	0x3cf
 6855 2414 41       		.uleb128 0x41
 6856 2415 0C000000 		.4byte	.LBB175
 6857 2419 0C000000 		.4byte	.LBE175-.LBB175
 6858 241d 42       		.uleb128 0x42
 6859 241e 94130000 		.4byte	0x1394
 6860 2422 0C0E0000 		.4byte	.LLST128
ARM GAS  C:\Users\haske\AppData\Local\Temp\ccWSfRiA.s 			page 177


 6861 2426 43       		.uleb128 0x43
 6862 2427 9E130000 		.4byte	0x139e
 6863 242b 00       		.byte	0
 6864 242c 00       		.byte	0
 6865 242d 00       		.byte	0
 6866 242e 44       		.uleb128 0x44
 6867 242f 0D270000 		.4byte	.LASF471
 6868 2433 01       		.byte	0x1
 6869 2434 1C       		.byte	0x1c
 6870 2435 C3000000 		.4byte	0xc3
 6871 2439 05       		.uleb128 0x5
 6872 243a 03       		.byte	0x3
 6873 243b 00000000 		.4byte	ui_timeout
 6874 243f 44       		.uleb128 0x44
 6875 2440 6E1B0000 		.4byte	.LASF472
 6876 2444 01       		.byte	0x1
 6877 2445 1F       		.byte	0x1f
 6878 2446 88080000 		.4byte	0x888
 6879 244a 05       		.uleb128 0x5
 6880 244b 03       		.byte	0x3
 6881 244c 00000000 		.4byte	tens_timeout
 6882 2450 44       		.uleb128 0x44
 6883 2451 80130000 		.4byte	.LASF473
 6884 2455 01       		.byte	0x1
 6885 2456 20       		.byte	0x20
 6886 2457 88080000 		.4byte	0x888
 6887 245b 05       		.uleb128 0x5
 6888 245c 03       		.byte	0x3
 6889 245d 18000000 		.4byte	tens_interval_ms
 6890 2461 44       		.uleb128 0x44
 6891 2462 5E090000 		.4byte	.LASF474
 6892 2466 01       		.byte	0x1
 6893 2467 21       		.byte	0x21
 6894 2468 88080000 		.4byte	0x888
 6895 246c 05       		.uleb128 0x5
 6896 246d 03       		.byte	0x3
 6897 246e 14000000 		.4byte	tens_dur_us
 6898 2472 44       		.uleb128 0x44
 6899 2473 0B080000 		.4byte	.LASF475
 6900 2477 01       		.byte	0x1
 6901 2478 27       		.byte	0x27
 6902 2479 94000000 		.4byte	0x94
 6903 247d 05       		.uleb128 0x5
 6904 247e 03       		.byte	0x3
 6905 247f 6C000000 		.4byte	ui_state
 6906 2483 44       		.uleb128 0x44
 6907 2484 BB160000 		.4byte	.LASF476
 6908 2488 01       		.byte	0x1
 6909 2489 35       		.byte	0x35
 6910 248a 94000000 		.4byte	0x94
 6911 248e 05       		.uleb128 0x5
 6912 248f 03       		.byte	0x3
 6913 2490 50000000 		.4byte	ui_menu
 6914 2494 44       		.uleb128 0x44
 6915 2495 390E0000 		.4byte	.LASF477
 6916 2499 01       		.byte	0x1
 6917 249a 36       		.byte	0x36
ARM GAS  C:\Users\haske\AppData\Local\Temp\ccWSfRiA.s 			page 178


 6918 249b 94000000 		.4byte	0x94
 6919 249f 05       		.uleb128 0x5
 6920 24a0 03       		.byte	0x3
 6921 24a1 4C000000 		.4byte	ui_menu_state
 6922 24a5 07       		.uleb128 0x7
 6923 24a6 94000000 		.4byte	0x94
 6924 24aa B5240000 		.4byte	0x24b5
 6925 24ae 08       		.uleb128 0x8
 6926 24af D9000000 		.4byte	0xd9
 6927 24b3 09       		.byte	0x9
 6928 24b4 00       		.byte	0
 6929 24b5 44       		.uleb128 0x44
 6930 24b6 8F250000 		.4byte	.LASF478
 6931 24ba 01       		.byte	0x1
 6932 24bb 37       		.byte	0x37
 6933 24bc A5240000 		.4byte	0x24a5
 6934 24c0 05       		.uleb128 0x5
 6935 24c1 03       		.byte	0x3
 6936 24c2 1C000000 		.4byte	ui_menu_item
 6937 24c6 44       		.uleb128 0x44
 6938 24c7 C7000000 		.4byte	.LASF479
 6939 24cb 01       		.byte	0x1
 6940 24cc 4C       		.byte	0x4c
 6941 24cd A6230000 		.4byte	0x23a6
 6942 24d1 05       		.uleb128 0x5
 6943 24d2 03       		.byte	0x3
 6944 24d3 54000000 		.4byte	btn_state
 6945 24d7 44       		.uleb128 0x44
 6946 24d8 29160000 		.4byte	.LASF467
 6947 24dc 01       		.byte	0x1
 6948 24dd 4D       		.byte	0x4d
 6949 24de A6230000 		.4byte	0x23a6
 6950 24e2 05       		.uleb128 0x5
 6951 24e3 03       		.byte	0x3
 6952 24e4 60000000 		.4byte	btn_events
 6953 24e8 44       		.uleb128 0x44
 6954 24e9 B6250000 		.4byte	.LASF480
 6955 24ed 01       		.byte	0x1
 6956 24ee 4E       		.byte	0x4e
 6957 24ef A6230000 		.4byte	0x23a6
 6958 24f3 05       		.uleb128 0x5
 6959 24f4 03       		.byte	0x3
 6960 24f5 04000000 		.4byte	btn_timeout
 6961 24f9 45       		.uleb128 0x45
 6962 24fa 97270000 		.4byte	.LASF481
 6963 24fe 01       		.byte	0x1
 6964 24ff 50       		.byte	0x50
 6965 2500 94000000 		.4byte	0x94
 6966 2504 44       		.uleb128 0x44
 6967 2505 1C0E0000 		.4byte	.LASF482
 6968 2509 01       		.byte	0x1
 6969 250a 51       		.byte	0x51
 6970 250b 94000000 		.4byte	0x94
 6971 250f 05       		.uleb128 0x5
 6972 2510 03       		.byte	0x3
 6973 2511 48000000 		.4byte	vibe_amp
 6974 2515 44       		.uleb128 0x44
ARM GAS  C:\Users\haske\AppData\Local\Temp\ccWSfRiA.s 			page 179


 6975 2516 D5060000 		.4byte	.LASF483
 6976 251a 01       		.byte	0x1
 6977 251b 52       		.byte	0x52
 6978 251c 94000000 		.4byte	0x94
 6979 2520 05       		.uleb128 0x5
 6980 2521 03       		.byte	0x3
 6981 2522 10000000 		.4byte	vibe_timeout
 6982 2526 44       		.uleb128 0x44
 6983 2527 DD0A0000 		.4byte	.LASF484
 6984 252b 01       		.byte	0x1
 6985 252c 54       		.byte	0x54
 6986 252d 94000000 		.4byte	0x94
 6987 2531 05       		.uleb128 0x5
 6988 2532 03       		.byte	0x3
 6989 2533 44000000 		.4byte	vibe_state
 6990 2537 46       		.uleb128 0x46
 6991 2538 1C160000 		.4byte	.LASF485
 6992 253c 15       		.byte	0x15
 6993 253d F907     		.2byte	0x7f9
 6994 253f 43250000 		.4byte	0x2543
 6995 2543 05       		.uleb128 0x5
 6996 2544 C3000000 		.4byte	0xc3
 6997 2548 47       		.uleb128 0x47
 6998 2549 D9200000 		.4byte	.LASF486
 6999 254d 0A       		.byte	0xa
 7000 254e A7       		.byte	0xa7
 7001 254f 53250000 		.4byte	0x2553
 7002 2553 16       		.uleb128 0x16
 7003 2554 04       		.byte	0x4
 7004 2555 59250000 		.4byte	0x2559
 7005 2559 06       		.uleb128 0x6
 7006 255a 50080000 		.4byte	0x850
 7007 255e 46       		.uleb128 0x46
 7008 255f B4240000 		.4byte	.LASF487
 7009 2563 04       		.byte	0x4
 7010 2564 2202     		.2byte	0x222
 7011 2566 28120000 		.4byte	0x1228
 7012 256a 07       		.uleb128 0x7
 7013 256b F7110000 		.4byte	0x11f7
 7014 256f 7A250000 		.4byte	0x257a
 7015 2573 08       		.uleb128 0x8
 7016 2574 D9000000 		.4byte	0xd9
 7017 2578 00       		.byte	0
 7018 2579 00       		.byte	0
 7019 257a 46       		.uleb128 0x46
 7020 257b 7D0A0000 		.4byte	.LASF488
 7021 257f 04       		.byte	0x4
 7022 2580 2C02     		.2byte	0x22c
 7023 2582 6A250000 		.4byte	0x256a
 7024 2586 07       		.uleb128 0x7
 7025 2587 70120000 		.4byte	0x1270
 7026 258b 96250000 		.4byte	0x2596
 7027 258f 08       		.uleb128 0x8
 7028 2590 D9000000 		.4byte	0xd9
 7029 2594 00       		.byte	0
 7030 2595 00       		.byte	0
 7031 2596 46       		.uleb128 0x46
ARM GAS  C:\Users\haske\AppData\Local\Temp\ccWSfRiA.s 			page 180


 7032 2597 76230000 		.4byte	.LASF489
 7033 259b 04       		.byte	0x4
 7034 259c 2D02     		.2byte	0x22d
 7035 259e 86250000 		.4byte	0x2586
 7036 25a2 47       		.uleb128 0x47
 7037 25a3 06170000 		.4byte	.LASF490
 7038 25a7 16       		.byte	0x16
 7039 25a8 5E       		.byte	0x5e
 7040 25a9 320D0000 		.4byte	0xd32
 7041 25ad 47       		.uleb128 0x47
 7042 25ae B91B0000 		.4byte	.LASF491
 7043 25b2 17       		.byte	0x17
 7044 25b3 1F       		.byte	0x1f
 7045 25b4 B8250000 		.4byte	0x25b8
 7046 25b8 06       		.uleb128 0x6
 7047 25b9 770E0000 		.4byte	0xe77
 7048 25bd 47       		.uleb128 0x47
 7049 25be 38070000 		.4byte	.LASF492
 7050 25c2 18       		.byte	0x18
 7051 25c3 1F       		.byte	0x1f
 7052 25c4 B8250000 		.4byte	0x25b8
 7053 25c8 47       		.uleb128 0x47
 7054 25c9 67280000 		.4byte	.LASF493
 7055 25cd 13       		.byte	0x13
 7056 25ce 1F       		.byte	0x1f
 7057 25cf B8250000 		.4byte	0x25b8
 7058 25d3 46       		.uleb128 0x46
 7059 25d4 7C1F0000 		.4byte	.LASF494
 7060 25d8 12       		.byte	0x12
 7061 25d9 6001     		.2byte	0x160
 7062 25db CE000000 		.4byte	0xce
 7063 25df 07       		.uleb128 0x7
 7064 25e0 EF250000 		.4byte	0x25ef
 7065 25e4 EF250000 		.4byte	0x25ef
 7066 25e8 08       		.uleb128 0x8
 7067 25e9 D9000000 		.4byte	0xd9
 7068 25ed 00       		.byte	0
 7069 25ee 00       		.byte	0
 7070 25ef 06       		.uleb128 0x6
 7071 25f0 CB120000 		.4byte	0x12cb
 7072 25f4 46       		.uleb128 0x46
 7073 25f5 721E0000 		.4byte	.LASF495
 7074 25f9 12       		.byte	0x12
 7075 25fa 6401     		.2byte	0x164
 7076 25fc 00260000 		.4byte	0x2600
 7077 2600 06       		.uleb128 0x6
 7078 2601 DF250000 		.4byte	0x25df
 7079 2605 47       		.uleb128 0x47
 7080 2606 D1000000 		.4byte	.LASF496
 7081 260a 14       		.byte	0x14
 7082 260b 1F       		.byte	0x1f
 7083 260c B8250000 		.4byte	0x25b8
 7084 2610 47       		.uleb128 0x47
 7085 2611 8E000000 		.4byte	.LASF497
 7086 2615 19       		.byte	0x19
 7087 2616 1F       		.byte	0x1f
 7088 2617 B8250000 		.4byte	0x25b8
ARM GAS  C:\Users\haske\AppData\Local\Temp\ccWSfRiA.s 			page 181


 7089 261b 47       		.uleb128 0x47
 7090 261c 4D010000 		.4byte	.LASF498
 7091 2620 1A       		.byte	0x1a
 7092 2621 24       		.byte	0x24
 7093 2622 26260000 		.4byte	0x2626
 7094 2626 06       		.uleb128 0x6
 7095 2627 6B0B0000 		.4byte	0xb6b
 7096 262b 47       		.uleb128 0x47
 7097 262c 30050000 		.4byte	.LASF499
 7098 2630 1A       		.byte	0x1a
 7099 2631 27       		.byte	0x27
 7100 2632 A2000000 		.4byte	0xa2
 7101 2636 47       		.uleb128 0x47
 7102 2637 031A0000 		.4byte	.LASF500
 7103 263b 1B       		.byte	0x1b
 7104 263c 1F       		.byte	0x1f
 7105 263d B8250000 		.4byte	0x25b8
 7106 2641 47       		.uleb128 0x47
 7107 2642 4C000000 		.4byte	.LASF501
 7108 2646 1C       		.byte	0x1c
 7109 2647 1F       		.byte	0x1f
 7110 2648 B8250000 		.4byte	0x25b8
 7111 264c 48       		.uleb128 0x48
 7112 264d 64200000 		.4byte	.LASF502
 7113 2651 1D       		.byte	0x1d
 7114 2652 86       		.byte	0x86
 7115 2653 5B000000 		.4byte	0x5b
 7116 2657 05       		.uleb128 0x5
 7117 2658 03       		.byte	0x3
 7118 2659 00000000 		.4byte	cacheMemIndexRow
 7119 265d 48       		.uleb128 0x48
 7120 265e 5F1F0000 		.4byte	.LASF503
 7121 2662 1D       		.byte	0x1d
 7122 2663 88       		.byte	0x88
 7123 2664 5B000000 		.4byte	0x5b
 7124 2668 05       		.uleb128 0x5
 7125 2669 03       		.byte	0x3
 7126 266a 00000000 		.4byte	cacheMemIndexCol
 7127 266e 07       		.uleb128 0x7
 7128 266f 7E260000 		.4byte	0x267e
 7129 2673 7E260000 		.4byte	0x267e
 7130 2677 08       		.uleb128 0x8
 7131 2678 D9000000 		.4byte	0xd9
 7132 267c 09       		.byte	0x9
 7133 267d 00       		.byte	0
 7134 267e 06       		.uleb128 0x6
 7135 267f 880E0000 		.4byte	0xe88
 7136 2683 48       		.uleb128 0x48
 7137 2684 63250000 		.4byte	.LASF504
 7138 2688 01       		.byte	0x1
 7139 2689 39       		.byte	0x39
 7140 268a 94260000 		.4byte	0x2694
 7141 268e 05       		.uleb128 0x5
 7142 268f 03       		.byte	0x3
 7143 2690 00000000 		.4byte	UI_TITLES
 7144 2694 06       		.uleb128 0x6
 7145 2695 6E260000 		.4byte	0x266e
ARM GAS  C:\Users\haske\AppData\Local\Temp\ccWSfRiA.s 			page 182


 7146 2699 07       		.uleb128 0x7
 7147 269a 7E260000 		.4byte	0x267e
 7148 269e A9260000 		.4byte	0x26a9
 7149 26a2 08       		.uleb128 0x8
 7150 26a3 D9000000 		.4byte	0xd9
 7151 26a7 08       		.byte	0x8
 7152 26a8 00       		.byte	0
 7153 26a9 48       		.uleb128 0x48
 7154 26aa F4080000 		.4byte	.LASF505
 7155 26ae 01       		.byte	0x1
 7156 26af 3B       		.byte	0x3b
 7157 26b0 BA260000 		.4byte	0x26ba
 7158 26b4 05       		.uleb128 0x5
 7159 26b5 03       		.byte	0x3
 7160 26b6 00000000 		.4byte	UI_MAIN_MENU_ITEMS
 7161 26ba 06       		.uleb128 0x6
 7162 26bb 99260000 		.4byte	0x2699
 7163 26bf 48       		.uleb128 0x48
 7164 26c0 B1000000 		.4byte	.LASF506
 7165 26c4 01       		.byte	0x1
 7166 26c5 3C       		.byte	0x3c
 7167 26c6 D0260000 		.4byte	0x26d0
 7168 26ca 05       		.uleb128 0x5
 7169 26cb 03       		.byte	0x3
 7170 26cc 00000000 		.4byte	UI_PRESETS_MENU_ITEMS
 7171 26d0 06       		.uleb128 0x6
 7172 26d1 6E260000 		.4byte	0x266e
 7173 26d5 07       		.uleb128 0x7
 7174 26d6 7E260000 		.4byte	0x267e
 7175 26da E5260000 		.4byte	0x26e5
 7176 26de 08       		.uleb128 0x8
 7177 26df D9000000 		.4byte	0xd9
 7178 26e3 0E       		.byte	0xe
 7179 26e4 00       		.byte	0
 7180 26e5 48       		.uleb128 0x48
 7181 26e6 86050000 		.4byte	.LASF507
 7182 26ea 01       		.byte	0x1
 7183 26eb 3D       		.byte	0x3d
 7184 26ec F6260000 		.4byte	0x26f6
 7185 26f0 05       		.uleb128 0x5
 7186 26f1 03       		.byte	0x3
 7187 26f2 00000000 		.4byte	UI_TEMP_MENU_ITEMS
 7188 26f6 06       		.uleb128 0x6
 7189 26f7 D5260000 		.4byte	0x26d5
 7190 26fb 07       		.uleb128 0x7
 7191 26fc 7E260000 		.4byte	0x267e
 7192 2700 0B270000 		.4byte	0x270b
 7193 2704 08       		.uleb128 0x8
 7194 2705 D9000000 		.4byte	0xd9
 7195 2709 0A       		.byte	0xa
 7196 270a 00       		.byte	0
 7197 270b 48       		.uleb128 0x48
 7198 270c C8210000 		.4byte	.LASF508
 7199 2710 01       		.byte	0x1
 7200 2711 3E       		.byte	0x3e
 7201 2712 1C270000 		.4byte	0x271c
 7202 2716 05       		.uleb128 0x5
ARM GAS  C:\Users\haske\AppData\Local\Temp\ccWSfRiA.s 			page 183


 7203 2717 03       		.byte	0x3
 7204 2718 00000000 		.4byte	UI_VIBE_AMP_MENU_ITEMS
 7205 271c 06       		.uleb128 0x6
 7206 271d FB260000 		.4byte	0x26fb
 7207 2721 48       		.uleb128 0x48
 7208 2722 800C0000 		.4byte	.LASF509
 7209 2726 01       		.byte	0x1
 7210 2727 3F       		.byte	0x3f
 7211 2728 32270000 		.4byte	0x2732
 7212 272c 05       		.uleb128 0x5
 7213 272d 03       		.byte	0x3
 7214 272e 00000000 		.4byte	UI_VIBE_FREQ_MENU_ITEMS
 7215 2732 06       		.uleb128 0x6
 7216 2733 6E260000 		.4byte	0x266e
 7217 2737 48       		.uleb128 0x48
 7218 2738 47070000 		.4byte	.LASF510
 7219 273c 01       		.byte	0x1
 7220 273d 40       		.byte	0x40
 7221 273e 48270000 		.4byte	0x2748
 7222 2742 05       		.uleb128 0x5
 7223 2743 03       		.byte	0x3
 7224 2744 00000000 		.4byte	UI_TENS_FREQ_MENU_ITEMS
 7225 2748 06       		.uleb128 0x6
 7226 2749 6E260000 		.4byte	0x266e
 7227 274d 48       		.uleb128 0x48
 7228 274e C2200000 		.4byte	.LASF511
 7229 2752 01       		.byte	0x1
 7230 2753 41       		.byte	0x41
 7231 2754 5E270000 		.4byte	0x275e
 7232 2758 05       		.uleb128 0x5
 7233 2759 03       		.byte	0x3
 7234 275a 00000000 		.4byte	UI_TENS_AMP_MENU_ITEMS
 7235 275e 06       		.uleb128 0x6
 7236 275f FB260000 		.4byte	0x26fb
 7237 2763 48       		.uleb128 0x48
 7238 2764 F6260000 		.4byte	.LASF512
 7239 2768 01       		.byte	0x1
 7240 2769 42       		.byte	0x42
 7241 276a 74270000 		.4byte	0x2774
 7242 276e 05       		.uleb128 0x5
 7243 276f 03       		.byte	0x3
 7244 2770 00000000 		.4byte	UI_TENS_DUR_MENU_ITEMS
 7245 2774 06       		.uleb128 0x6
 7246 2775 6E260000 		.4byte	0x266e
 7247 2779 07       		.uleb128 0x7
 7248 277a 7E260000 		.4byte	0x267e
 7249 277e 89270000 		.4byte	0x2789
 7250 2782 08       		.uleb128 0x8
 7251 2783 D9000000 		.4byte	0xd9
 7252 2787 00       		.byte	0
 7253 2788 00       		.byte	0
 7254 2789 48       		.uleb128 0x48
 7255 278a DE260000 		.4byte	.LASF513
 7256 278e 01       		.byte	0x1
 7257 278f 43       		.byte	0x43
 7258 2790 9A270000 		.4byte	0x279a
 7259 2794 05       		.uleb128 0x5
ARM GAS  C:\Users\haske\AppData\Local\Temp\ccWSfRiA.s 			page 184


 7260 2795 03       		.byte	0x3
 7261 2796 00000000 		.4byte	UI_BLUETOOTH_MENU_ITEMS
 7262 279a 06       		.uleb128 0x6
 7263 279b 79270000 		.4byte	0x2779
 7264 279f 48       		.uleb128 0x48
 7265 27a0 64020000 		.4byte	.LASF514
 7266 27a4 01       		.byte	0x1
 7267 27a5 44       		.byte	0x44
 7268 27a6 B0270000 		.4byte	0x27b0
 7269 27aa 05       		.uleb128 0x5
 7270 27ab 03       		.byte	0x3
 7271 27ac 00000000 		.4byte	UI_DIAG_MENU_ITEMS
 7272 27b0 06       		.uleb128 0x6
 7273 27b1 79270000 		.4byte	0x2779
 7274 27b5 07       		.uleb128 0x7
 7275 27b6 C5270000 		.4byte	0x27c5
 7276 27ba C5270000 		.4byte	0x27c5
 7277 27be 08       		.uleb128 0x8
 7278 27bf D9000000 		.4byte	0xd9
 7279 27c3 09       		.byte	0x9
 7280 27c4 00       		.byte	0
 7281 27c5 06       		.uleb128 0x6
 7282 27c6 94000000 		.4byte	0x94
 7283 27ca 48       		.uleb128 0x48
 7284 27cb 231E0000 		.4byte	.LASF515
 7285 27cf 01       		.byte	0x1
 7286 27d0 48       		.byte	0x48
 7287 27d1 DB270000 		.4byte	0x27db
 7288 27d5 05       		.uleb128 0x5
 7289 27d6 03       		.byte	0x3
 7290 27d7 00000000 		.4byte	UI_MENU_ITEMS_INIT
 7291 27db 06       		.uleb128 0x6
 7292 27dc B5270000 		.4byte	0x27b5
 7293 27e0 48       		.uleb128 0x48
 7294 27e1 B0020000 		.4byte	.LASF516
 7295 27e5 01       		.byte	0x1
 7296 27e6 49       		.byte	0x49
 7297 27e7 F1270000 		.4byte	0x27f1
 7298 27eb 05       		.uleb128 0x5
 7299 27ec 03       		.byte	0x3
 7300 27ed 00000000 		.4byte	UI_MENU_ITEMS_MAX
 7301 27f1 06       		.uleb128 0x6
 7302 27f2 B5270000 		.4byte	0x27b5
 7303 27f6 48       		.uleb128 0x48
 7304 27f7 9D0D0000 		.4byte	.LASF517
 7305 27fb 01       		.byte	0x1
 7306 27fc 4A       		.byte	0x4a
 7307 27fd 07280000 		.4byte	0x2807
 7308 2801 05       		.uleb128 0x5
 7309 2802 03       		.byte	0x3
 7310 2803 00000000 		.4byte	UI_MENU_ITEMS_MIN
 7311 2807 06       		.uleb128 0x6
 7312 2808 B5270000 		.4byte	0x27b5
 7313 280c 49       		.uleb128 0x49
 7314 280d 41110000 		.4byte	.LASF518
 7315 2811 41110000 		.4byte	.LASF518
 7316 2815 1E       		.byte	0x1e
ARM GAS  C:\Users\haske\AppData\Local\Temp\ccWSfRiA.s 			page 185


 7317 2816 1E       		.byte	0x1e
 7318 2817 49       		.uleb128 0x49
 7319 2818 DF210000 		.4byte	.LASF519
 7320 281c DF210000 		.4byte	.LASF519
 7321 2820 1E       		.byte	0x1e
 7322 2821 2A       		.byte	0x2a
 7323 2822 49       		.uleb128 0x49
 7324 2823 EC220000 		.4byte	.LASF520
 7325 2827 EC220000 		.4byte	.LASF520
 7326 282b 1F       		.byte	0x1f
 7327 282c 14       		.byte	0x14
 7328 282d 49       		.uleb128 0x49
 7329 282e FD120000 		.4byte	.LASF521
 7330 2832 FD120000 		.4byte	.LASF521
 7331 2836 20       		.byte	0x20
 7332 2837 E7       		.byte	0xe7
 7333 2838 4A       		.uleb128 0x4a
 7334 2839 BD220000 		.4byte	.LASF522
 7335 283d BD220000 		.4byte	.LASF522
 7336 2841 0B       		.byte	0xb
 7337 2842 8A03     		.2byte	0x38a
 7338 2844 49       		.uleb128 0x49
 7339 2845 86090000 		.4byte	.LASF523
 7340 2849 86090000 		.4byte	.LASF523
 7341 284d 1F       		.byte	0x1f
 7342 284e 17       		.byte	0x17
 7343 284f 49       		.uleb128 0x49
 7344 2850 F70F0000 		.4byte	.LASF524
 7345 2854 F70F0000 		.4byte	.LASF524
 7346 2858 1F       		.byte	0x1f
 7347 2859 15       		.byte	0x15
 7348 285a 49       		.uleb128 0x49
 7349 285b 9D180000 		.4byte	.LASF525
 7350 285f 9D180000 		.4byte	.LASF525
 7351 2863 1F       		.byte	0x1f
 7352 2864 16       		.byte	0x16
 7353 2865 49       		.uleb128 0x49
 7354 2866 E3040000 		.4byte	.LASF526
 7355 286a E3040000 		.4byte	.LASF526
 7356 286e 1F       		.byte	0x1f
 7357 286f 11       		.byte	0x11
 7358 2870 4A       		.uleb128 0x4a
 7359 2871 E71A0000 		.4byte	.LASF527
 7360 2875 E71A0000 		.4byte	.LASF527
 7361 2879 0C       		.byte	0xc
 7362 287a 4D06     		.2byte	0x64d
 7363 287c 00       		.byte	0
 7364              		.section	.debug_abbrev,"",%progbits
 7365              	.Ldebug_abbrev0:
 7366 0000 01       		.uleb128 0x1
 7367 0001 11       		.uleb128 0x11
 7368 0002 01       		.byte	0x1
 7369 0003 25       		.uleb128 0x25
 7370 0004 0E       		.uleb128 0xe
 7371 0005 13       		.uleb128 0x13
 7372 0006 0B       		.uleb128 0xb
 7373 0007 03       		.uleb128 0x3
ARM GAS  C:\Users\haske\AppData\Local\Temp\ccWSfRiA.s 			page 186


 7374 0008 0E       		.uleb128 0xe
 7375 0009 1B       		.uleb128 0x1b
 7376 000a 0E       		.uleb128 0xe
 7377 000b 55       		.uleb128 0x55
 7378 000c 17       		.uleb128 0x17
 7379 000d 11       		.uleb128 0x11
 7380 000e 01       		.uleb128 0x1
 7381 000f 10       		.uleb128 0x10
 7382 0010 17       		.uleb128 0x17
 7383 0011 00       		.byte	0
 7384 0012 00       		.byte	0
 7385 0013 02       		.uleb128 0x2
 7386 0014 24       		.uleb128 0x24
 7387 0015 00       		.byte	0
 7388 0016 0B       		.uleb128 0xb
 7389 0017 0B       		.uleb128 0xb
 7390 0018 3E       		.uleb128 0x3e
 7391 0019 0B       		.uleb128 0xb
 7392 001a 03       		.uleb128 0x3
 7393 001b 0E       		.uleb128 0xe
 7394 001c 00       		.byte	0
 7395 001d 00       		.byte	0
 7396 001e 03       		.uleb128 0x3
 7397 001f 16       		.uleb128 0x16
 7398 0020 00       		.byte	0
 7399 0021 03       		.uleb128 0x3
 7400 0022 0E       		.uleb128 0xe
 7401 0023 3A       		.uleb128 0x3a
 7402 0024 0B       		.uleb128 0xb
 7403 0025 3B       		.uleb128 0x3b
 7404 0026 0B       		.uleb128 0xb
 7405 0027 49       		.uleb128 0x49
 7406 0028 13       		.uleb128 0x13
 7407 0029 00       		.byte	0
 7408 002a 00       		.byte	0
 7409 002b 04       		.uleb128 0x4
 7410 002c 24       		.uleb128 0x24
 7411 002d 00       		.byte	0
 7412 002e 0B       		.uleb128 0xb
 7413 002f 0B       		.uleb128 0xb
 7414 0030 3E       		.uleb128 0x3e
 7415 0031 0B       		.uleb128 0xb
 7416 0032 03       		.uleb128 0x3
 7417 0033 08       		.uleb128 0x8
 7418 0034 00       		.byte	0
 7419 0035 00       		.byte	0
 7420 0036 05       		.uleb128 0x5
 7421 0037 35       		.uleb128 0x35
 7422 0038 00       		.byte	0
 7423 0039 49       		.uleb128 0x49
 7424 003a 13       		.uleb128 0x13
 7425 003b 00       		.byte	0
 7426 003c 00       		.byte	0
 7427 003d 06       		.uleb128 0x6
 7428 003e 26       		.uleb128 0x26
 7429 003f 00       		.byte	0
 7430 0040 49       		.uleb128 0x49
ARM GAS  C:\Users\haske\AppData\Local\Temp\ccWSfRiA.s 			page 187


 7431 0041 13       		.uleb128 0x13
 7432 0042 00       		.byte	0
 7433 0043 00       		.byte	0
 7434 0044 07       		.uleb128 0x7
 7435 0045 01       		.uleb128 0x1
 7436 0046 01       		.byte	0x1
 7437 0047 49       		.uleb128 0x49
 7438 0048 13       		.uleb128 0x13
 7439 0049 01       		.uleb128 0x1
 7440 004a 13       		.uleb128 0x13
 7441 004b 00       		.byte	0
 7442 004c 00       		.byte	0
 7443 004d 08       		.uleb128 0x8
 7444 004e 21       		.uleb128 0x21
 7445 004f 00       		.byte	0
 7446 0050 49       		.uleb128 0x49
 7447 0051 13       		.uleb128 0x13
 7448 0052 2F       		.uleb128 0x2f
 7449 0053 0B       		.uleb128 0xb
 7450 0054 00       		.byte	0
 7451 0055 00       		.byte	0
 7452 0056 09       		.uleb128 0x9
 7453 0057 13       		.uleb128 0x13
 7454 0058 01       		.byte	0x1
 7455 0059 0B       		.uleb128 0xb
 7456 005a 0B       		.uleb128 0xb
 7457 005b 3A       		.uleb128 0x3a
 7458 005c 0B       		.uleb128 0xb
 7459 005d 3B       		.uleb128 0x3b
 7460 005e 0B       		.uleb128 0xb
 7461 005f 01       		.uleb128 0x1
 7462 0060 13       		.uleb128 0x13
 7463 0061 00       		.byte	0
 7464 0062 00       		.byte	0
 7465 0063 0A       		.uleb128 0xa
 7466 0064 0D       		.uleb128 0xd
 7467 0065 00       		.byte	0
 7468 0066 03       		.uleb128 0x3
 7469 0067 08       		.uleb128 0x8
 7470 0068 3A       		.uleb128 0x3a
 7471 0069 0B       		.uleb128 0xb
 7472 006a 3B       		.uleb128 0x3b
 7473 006b 0B       		.uleb128 0xb
 7474 006c 49       		.uleb128 0x49
 7475 006d 13       		.uleb128 0x13
 7476 006e 38       		.uleb128 0x38
 7477 006f 0B       		.uleb128 0xb
 7478 0070 00       		.byte	0
 7479 0071 00       		.byte	0
 7480 0072 0B       		.uleb128 0xb
 7481 0073 0D       		.uleb128 0xd
 7482 0074 00       		.byte	0
 7483 0075 03       		.uleb128 0x3
 7484 0076 0E       		.uleb128 0xe
 7485 0077 3A       		.uleb128 0x3a
 7486 0078 0B       		.uleb128 0xb
 7487 0079 3B       		.uleb128 0x3b
ARM GAS  C:\Users\haske\AppData\Local\Temp\ccWSfRiA.s 			page 188


 7488 007a 0B       		.uleb128 0xb
 7489 007b 49       		.uleb128 0x49
 7490 007c 13       		.uleb128 0x13
 7491 007d 38       		.uleb128 0x38
 7492 007e 0B       		.uleb128 0xb
 7493 007f 00       		.byte	0
 7494 0080 00       		.byte	0
 7495 0081 0C       		.uleb128 0xc
 7496 0082 13       		.uleb128 0x13
 7497 0083 01       		.byte	0x1
 7498 0084 0B       		.uleb128 0xb
 7499 0085 05       		.uleb128 0x5
 7500 0086 3A       		.uleb128 0x3a
 7501 0087 0B       		.uleb128 0xb
 7502 0088 3B       		.uleb128 0x3b
 7503 0089 0B       		.uleb128 0xb
 7504 008a 01       		.uleb128 0x1
 7505 008b 13       		.uleb128 0x13
 7506 008c 00       		.byte	0
 7507 008d 00       		.byte	0
 7508 008e 0D       		.uleb128 0xd
 7509 008f 0D       		.uleb128 0xd
 7510 0090 00       		.byte	0
 7511 0091 03       		.uleb128 0x3
 7512 0092 0E       		.uleb128 0xe
 7513 0093 3A       		.uleb128 0x3a
 7514 0094 0B       		.uleb128 0xb
 7515 0095 3B       		.uleb128 0x3b
 7516 0096 0B       		.uleb128 0xb
 7517 0097 49       		.uleb128 0x49
 7518 0098 13       		.uleb128 0x13
 7519 0099 38       		.uleb128 0x38
 7520 009a 05       		.uleb128 0x5
 7521 009b 00       		.byte	0
 7522 009c 00       		.byte	0
 7523 009d 0E       		.uleb128 0xe
 7524 009e 0D       		.uleb128 0xd
 7525 009f 00       		.byte	0
 7526 00a0 03       		.uleb128 0x3
 7527 00a1 08       		.uleb128 0x8
 7528 00a2 3A       		.uleb128 0x3a
 7529 00a3 0B       		.uleb128 0xb
 7530 00a4 3B       		.uleb128 0x3b
 7531 00a5 0B       		.uleb128 0xb
 7532 00a6 49       		.uleb128 0x49
 7533 00a7 13       		.uleb128 0x13
 7534 00a8 38       		.uleb128 0x38
 7535 00a9 05       		.uleb128 0x5
 7536 00aa 00       		.byte	0
 7537 00ab 00       		.byte	0
 7538 00ac 0F       		.uleb128 0xf
 7539 00ad 16       		.uleb128 0x16
 7540 00ae 00       		.byte	0
 7541 00af 03       		.uleb128 0x3
 7542 00b0 0E       		.uleb128 0xe
 7543 00b1 3A       		.uleb128 0x3a
 7544 00b2 0B       		.uleb128 0xb
ARM GAS  C:\Users\haske\AppData\Local\Temp\ccWSfRiA.s 			page 189


 7545 00b3 3B       		.uleb128 0x3b
 7546 00b4 05       		.uleb128 0x5
 7547 00b5 49       		.uleb128 0x49
 7548 00b6 13       		.uleb128 0x13
 7549 00b7 00       		.byte	0
 7550 00b8 00       		.byte	0
 7551 00b9 10       		.uleb128 0x10
 7552 00ba 0F       		.uleb128 0xf
 7553 00bb 00       		.byte	0
 7554 00bc 0B       		.uleb128 0xb
 7555 00bd 0B       		.uleb128 0xb
 7556 00be 00       		.byte	0
 7557 00bf 00       		.byte	0
 7558 00c0 11       		.uleb128 0x11
 7559 00c1 04       		.uleb128 0x4
 7560 00c2 01       		.byte	0x1
 7561 00c3 0B       		.uleb128 0xb
 7562 00c4 0B       		.uleb128 0xb
 7563 00c5 49       		.uleb128 0x49
 7564 00c6 13       		.uleb128 0x13
 7565 00c7 3A       		.uleb128 0x3a
 7566 00c8 0B       		.uleb128 0xb
 7567 00c9 3B       		.uleb128 0x3b
 7568 00ca 05       		.uleb128 0x5
 7569 00cb 01       		.uleb128 0x1
 7570 00cc 13       		.uleb128 0x13
 7571 00cd 00       		.byte	0
 7572 00ce 00       		.byte	0
 7573 00cf 12       		.uleb128 0x12
 7574 00d0 28       		.uleb128 0x28
 7575 00d1 00       		.byte	0
 7576 00d2 03       		.uleb128 0x3
 7577 00d3 0E       		.uleb128 0xe
 7578 00d4 1C       		.uleb128 0x1c
 7579 00d5 06       		.uleb128 0x6
 7580 00d6 00       		.byte	0
 7581 00d7 00       		.byte	0
 7582 00d8 13       		.uleb128 0x13
 7583 00d9 28       		.uleb128 0x28
 7584 00da 00       		.byte	0
 7585 00db 03       		.uleb128 0x3
 7586 00dc 0E       		.uleb128 0xe
 7587 00dd 1C       		.uleb128 0x1c
 7588 00de 0B       		.uleb128 0xb
 7589 00df 00       		.byte	0
 7590 00e0 00       		.byte	0
 7591 00e1 14       		.uleb128 0x14
 7592 00e2 13       		.uleb128 0x13
 7593 00e3 01       		.byte	0x1
 7594 00e4 0B       		.uleb128 0xb
 7595 00e5 0B       		.uleb128 0xb
 7596 00e6 3A       		.uleb128 0x3a
 7597 00e7 0B       		.uleb128 0xb
 7598 00e8 3B       		.uleb128 0x3b
 7599 00e9 05       		.uleb128 0x5
 7600 00ea 01       		.uleb128 0x1
 7601 00eb 13       		.uleb128 0x13
ARM GAS  C:\Users\haske\AppData\Local\Temp\ccWSfRiA.s 			page 190


 7602 00ec 00       		.byte	0
 7603 00ed 00       		.byte	0
 7604 00ee 15       		.uleb128 0x15
 7605 00ef 0D       		.uleb128 0xd
 7606 00f0 00       		.byte	0
 7607 00f1 03       		.uleb128 0x3
 7608 00f2 0E       		.uleb128 0xe
 7609 00f3 3A       		.uleb128 0x3a
 7610 00f4 0B       		.uleb128 0xb
 7611 00f5 3B       		.uleb128 0x3b
 7612 00f6 05       		.uleb128 0x5
 7613 00f7 49       		.uleb128 0x49
 7614 00f8 13       		.uleb128 0x13
 7615 00f9 38       		.uleb128 0x38
 7616 00fa 0B       		.uleb128 0xb
 7617 00fb 00       		.byte	0
 7618 00fc 00       		.byte	0
 7619 00fd 16       		.uleb128 0x16
 7620 00fe 0F       		.uleb128 0xf
 7621 00ff 00       		.byte	0
 7622 0100 0B       		.uleb128 0xb
 7623 0101 0B       		.uleb128 0xb
 7624 0102 49       		.uleb128 0x49
 7625 0103 13       		.uleb128 0x13
 7626 0104 00       		.byte	0
 7627 0105 00       		.byte	0
 7628 0106 17       		.uleb128 0x17
 7629 0107 15       		.uleb128 0x15
 7630 0108 01       		.byte	0x1
 7631 0109 27       		.uleb128 0x27
 7632 010a 19       		.uleb128 0x19
 7633 010b 01       		.uleb128 0x1
 7634 010c 13       		.uleb128 0x13
 7635 010d 00       		.byte	0
 7636 010e 00       		.byte	0
 7637 010f 18       		.uleb128 0x18
 7638 0110 05       		.uleb128 0x5
 7639 0111 00       		.byte	0
 7640 0112 49       		.uleb128 0x49
 7641 0113 13       		.uleb128 0x13
 7642 0114 00       		.byte	0
 7643 0115 00       		.byte	0
 7644 0116 19       		.uleb128 0x19
 7645 0117 13       		.uleb128 0x13
 7646 0118 01       		.byte	0x1
 7647 0119 03       		.uleb128 0x3
 7648 011a 0E       		.uleb128 0xe
 7649 011b 0B       		.uleb128 0xb
 7650 011c 0B       		.uleb128 0xb
 7651 011d 3A       		.uleb128 0x3a
 7652 011e 0B       		.uleb128 0xb
 7653 011f 3B       		.uleb128 0x3b
 7654 0120 05       		.uleb128 0x5
 7655 0121 01       		.uleb128 0x1
 7656 0122 13       		.uleb128 0x13
 7657 0123 00       		.byte	0
 7658 0124 00       		.byte	0
ARM GAS  C:\Users\haske\AppData\Local\Temp\ccWSfRiA.s 			page 191


 7659 0125 1A       		.uleb128 0x1a
 7660 0126 13       		.uleb128 0x13
 7661 0127 01       		.byte	0x1
 7662 0128 03       		.uleb128 0x3
 7663 0129 0E       		.uleb128 0xe
 7664 012a 0B       		.uleb128 0xb
 7665 012b 0B       		.uleb128 0xb
 7666 012c 3A       		.uleb128 0x3a
 7667 012d 0B       		.uleb128 0xb
 7668 012e 3B       		.uleb128 0x3b
 7669 012f 0B       		.uleb128 0xb
 7670 0130 01       		.uleb128 0x1
 7671 0131 13       		.uleb128 0x13
 7672 0132 00       		.byte	0
 7673 0133 00       		.byte	0
 7674 0134 1B       		.uleb128 0x1b
 7675 0135 28       		.uleb128 0x28
 7676 0136 00       		.byte	0
 7677 0137 03       		.uleb128 0x3
 7678 0138 0E       		.uleb128 0xe
 7679 0139 1C       		.uleb128 0x1c
 7680 013a 05       		.uleb128 0x5
 7681 013b 00       		.byte	0
 7682 013c 00       		.byte	0
 7683 013d 1C       		.uleb128 0x1c
 7684 013e 04       		.uleb128 0x4
 7685 013f 01       		.byte	0x1
 7686 0140 0B       		.uleb128 0xb
 7687 0141 0B       		.uleb128 0xb
 7688 0142 49       		.uleb128 0x49
 7689 0143 13       		.uleb128 0x13
 7690 0144 3A       		.uleb128 0x3a
 7691 0145 0B       		.uleb128 0xb
 7692 0146 3B       		.uleb128 0x3b
 7693 0147 0B       		.uleb128 0xb
 7694 0148 01       		.uleb128 0x1
 7695 0149 13       		.uleb128 0x13
 7696 014a 00       		.byte	0
 7697 014b 00       		.byte	0
 7698 014c 1D       		.uleb128 0x1d
 7699 014d 2E       		.uleb128 0x2e
 7700 014e 01       		.byte	0x1
 7701 014f 03       		.uleb128 0x3
 7702 0150 0E       		.uleb128 0xe
 7703 0151 3A       		.uleb128 0x3a
 7704 0152 0B       		.uleb128 0xb
 7705 0153 3B       		.uleb128 0x3b
 7706 0154 05       		.uleb128 0x5
 7707 0155 27       		.uleb128 0x27
 7708 0156 19       		.uleb128 0x19
 7709 0157 20       		.uleb128 0x20
 7710 0158 0B       		.uleb128 0xb
 7711 0159 01       		.uleb128 0x1
 7712 015a 13       		.uleb128 0x13
 7713 015b 00       		.byte	0
 7714 015c 00       		.byte	0
 7715 015d 1E       		.uleb128 0x1e
ARM GAS  C:\Users\haske\AppData\Local\Temp\ccWSfRiA.s 			page 192


 7716 015e 05       		.uleb128 0x5
 7717 015f 00       		.byte	0
 7718 0160 03       		.uleb128 0x3
 7719 0161 0E       		.uleb128 0xe
 7720 0162 3A       		.uleb128 0x3a
 7721 0163 0B       		.uleb128 0xb
 7722 0164 3B       		.uleb128 0x3b
 7723 0165 05       		.uleb128 0x5
 7724 0166 49       		.uleb128 0x49
 7725 0167 13       		.uleb128 0x13
 7726 0168 00       		.byte	0
 7727 0169 00       		.byte	0
 7728 016a 1F       		.uleb128 0x1f
 7729 016b 2E       		.uleb128 0x2e
 7730 016c 01       		.byte	0x1
 7731 016d 03       		.uleb128 0x3
 7732 016e 0E       		.uleb128 0xe
 7733 016f 3A       		.uleb128 0x3a
 7734 0170 0B       		.uleb128 0xb
 7735 0171 3B       		.uleb128 0x3b
 7736 0172 0B       		.uleb128 0xb
 7737 0173 27       		.uleb128 0x27
 7738 0174 19       		.uleb128 0x19
 7739 0175 20       		.uleb128 0x20
 7740 0176 0B       		.uleb128 0xb
 7741 0177 01       		.uleb128 0x1
 7742 0178 13       		.uleb128 0x13
 7743 0179 00       		.byte	0
 7744 017a 00       		.byte	0
 7745 017b 20       		.uleb128 0x20
 7746 017c 05       		.uleb128 0x5
 7747 017d 00       		.byte	0
 7748 017e 03       		.uleb128 0x3
 7749 017f 0E       		.uleb128 0xe
 7750 0180 3A       		.uleb128 0x3a
 7751 0181 0B       		.uleb128 0xb
 7752 0182 3B       		.uleb128 0x3b
 7753 0183 0B       		.uleb128 0xb
 7754 0184 49       		.uleb128 0x49
 7755 0185 13       		.uleb128 0x13
 7756 0186 00       		.byte	0
 7757 0187 00       		.byte	0
 7758 0188 21       		.uleb128 0x21
 7759 0189 2E       		.uleb128 0x2e
 7760 018a 00       		.byte	0
 7761 018b 03       		.uleb128 0x3
 7762 018c 0E       		.uleb128 0xe
 7763 018d 3A       		.uleb128 0x3a
 7764 018e 0B       		.uleb128 0xb
 7765 018f 3B       		.uleb128 0x3b
 7766 0190 05       		.uleb128 0x5
 7767 0191 27       		.uleb128 0x27
 7768 0192 19       		.uleb128 0x19
 7769 0193 49       		.uleb128 0x49
 7770 0194 13       		.uleb128 0x13
 7771 0195 20       		.uleb128 0x20
 7772 0196 0B       		.uleb128 0xb
ARM GAS  C:\Users\haske\AppData\Local\Temp\ccWSfRiA.s 			page 193


 7773 0197 00       		.byte	0
 7774 0198 00       		.byte	0
 7775 0199 22       		.uleb128 0x22
 7776 019a 2E       		.uleb128 0x2e
 7777 019b 01       		.byte	0x1
 7778 019c 03       		.uleb128 0x3
 7779 019d 0E       		.uleb128 0xe
 7780 019e 3A       		.uleb128 0x3a
 7781 019f 0B       		.uleb128 0xb
 7782 01a0 3B       		.uleb128 0x3b
 7783 01a1 05       		.uleb128 0x5
 7784 01a2 27       		.uleb128 0x27
 7785 01a3 19       		.uleb128 0x19
 7786 01a4 49       		.uleb128 0x49
 7787 01a5 13       		.uleb128 0x13
 7788 01a6 20       		.uleb128 0x20
 7789 01a7 0B       		.uleb128 0xb
 7790 01a8 01       		.uleb128 0x1
 7791 01a9 13       		.uleb128 0x13
 7792 01aa 00       		.byte	0
 7793 01ab 00       		.byte	0
 7794 01ac 23       		.uleb128 0x23
 7795 01ad 34       		.uleb128 0x34
 7796 01ae 00       		.byte	0
 7797 01af 03       		.uleb128 0x3
 7798 01b0 08       		.uleb128 0x8
 7799 01b1 3A       		.uleb128 0x3a
 7800 01b2 0B       		.uleb128 0xb
 7801 01b3 3B       		.uleb128 0x3b
 7802 01b4 05       		.uleb128 0x5
 7803 01b5 49       		.uleb128 0x49
 7804 01b6 13       		.uleb128 0x13
 7805 01b7 00       		.byte	0
 7806 01b8 00       		.byte	0
 7807 01b9 24       		.uleb128 0x24
 7808 01ba 34       		.uleb128 0x34
 7809 01bb 00       		.byte	0
 7810 01bc 03       		.uleb128 0x3
 7811 01bd 0E       		.uleb128 0xe
 7812 01be 3A       		.uleb128 0x3a
 7813 01bf 0B       		.uleb128 0xb
 7814 01c0 3B       		.uleb128 0x3b
 7815 01c1 05       		.uleb128 0x5
 7816 01c2 49       		.uleb128 0x49
 7817 01c3 13       		.uleb128 0x13
 7818 01c4 00       		.byte	0
 7819 01c5 00       		.byte	0
 7820 01c6 25       		.uleb128 0x25
 7821 01c7 2E       		.uleb128 0x2e
 7822 01c8 01       		.byte	0x1
 7823 01c9 3F       		.uleb128 0x3f
 7824 01ca 19       		.uleb128 0x19
 7825 01cb 03       		.uleb128 0x3
 7826 01cc 0E       		.uleb128 0xe
 7827 01cd 3A       		.uleb128 0x3a
 7828 01ce 0B       		.uleb128 0xb
 7829 01cf 3B       		.uleb128 0x3b
ARM GAS  C:\Users\haske\AppData\Local\Temp\ccWSfRiA.s 			page 194


 7830 01d0 0B       		.uleb128 0xb
 7831 01d1 27       		.uleb128 0x27
 7832 01d2 19       		.uleb128 0x19
 7833 01d3 11       		.uleb128 0x11
 7834 01d4 01       		.uleb128 0x1
 7835 01d5 12       		.uleb128 0x12
 7836 01d6 06       		.uleb128 0x6
 7837 01d7 40       		.uleb128 0x40
 7838 01d8 18       		.uleb128 0x18
 7839 01d9 9742     		.uleb128 0x2117
 7840 01db 19       		.uleb128 0x19
 7841 01dc 01       		.uleb128 0x1
 7842 01dd 13       		.uleb128 0x13
 7843 01de 00       		.byte	0
 7844 01df 00       		.byte	0
 7845 01e0 26       		.uleb128 0x26
 7846 01e1 34       		.uleb128 0x34
 7847 01e2 00       		.byte	0
 7848 01e3 03       		.uleb128 0x3
 7849 01e4 08       		.uleb128 0x8
 7850 01e5 3A       		.uleb128 0x3a
 7851 01e6 0B       		.uleb128 0xb
 7852 01e7 3B       		.uleb128 0x3b
 7853 01e8 0B       		.uleb128 0xb
 7854 01e9 49       		.uleb128 0x49
 7855 01ea 13       		.uleb128 0x13
 7856 01eb 02       		.uleb128 0x2
 7857 01ec 17       		.uleb128 0x17
 7858 01ed 00       		.byte	0
 7859 01ee 00       		.byte	0
 7860 01ef 27       		.uleb128 0x27
 7861 01f0 2E       		.uleb128 0x2e
 7862 01f1 00       		.byte	0
 7863 01f2 3F       		.uleb128 0x3f
 7864 01f3 19       		.uleb128 0x19
 7865 01f4 03       		.uleb128 0x3
 7866 01f5 0E       		.uleb128 0xe
 7867 01f6 3A       		.uleb128 0x3a
 7868 01f7 0B       		.uleb128 0xb
 7869 01f8 3B       		.uleb128 0x3b
 7870 01f9 0B       		.uleb128 0xb
 7871 01fa 27       		.uleb128 0x27
 7872 01fb 19       		.uleb128 0x19
 7873 01fc 11       		.uleb128 0x11
 7874 01fd 01       		.uleb128 0x1
 7875 01fe 12       		.uleb128 0x12
 7876 01ff 06       		.uleb128 0x6
 7877 0200 40       		.uleb128 0x40
 7878 0201 18       		.uleb128 0x18
 7879 0202 9742     		.uleb128 0x2117
 7880 0204 19       		.uleb128 0x19
 7881 0205 00       		.byte	0
 7882 0206 00       		.byte	0
 7883 0207 28       		.uleb128 0x28
 7884 0208 05       		.uleb128 0x5
 7885 0209 00       		.byte	0
 7886 020a 03       		.uleb128 0x3
ARM GAS  C:\Users\haske\AppData\Local\Temp\ccWSfRiA.s 			page 195


 7887 020b 0E       		.uleb128 0xe
 7888 020c 3A       		.uleb128 0x3a
 7889 020d 0B       		.uleb128 0xb
 7890 020e 3B       		.uleb128 0x3b
 7891 020f 0B       		.uleb128 0xb
 7892 0210 49       		.uleb128 0x49
 7893 0211 13       		.uleb128 0x13
 7894 0212 02       		.uleb128 0x2
 7895 0213 18       		.uleb128 0x18
 7896 0214 00       		.byte	0
 7897 0215 00       		.byte	0
 7898 0216 29       		.uleb128 0x29
 7899 0217 05       		.uleb128 0x5
 7900 0218 00       		.byte	0
 7901 0219 03       		.uleb128 0x3
 7902 021a 08       		.uleb128 0x8
 7903 021b 3A       		.uleb128 0x3a
 7904 021c 0B       		.uleb128 0xb
 7905 021d 3B       		.uleb128 0x3b
 7906 021e 0B       		.uleb128 0xb
 7907 021f 49       		.uleb128 0x49
 7908 0220 13       		.uleb128 0x13
 7909 0221 02       		.uleb128 0x2
 7910 0222 18       		.uleb128 0x18
 7911 0223 00       		.byte	0
 7912 0224 00       		.byte	0
 7913 0225 2A       		.uleb128 0x2a
 7914 0226 05       		.uleb128 0x5
 7915 0227 00       		.byte	0
 7916 0228 03       		.uleb128 0x3
 7917 0229 08       		.uleb128 0x8
 7918 022a 3A       		.uleb128 0x3a
 7919 022b 0B       		.uleb128 0xb
 7920 022c 3B       		.uleb128 0x3b
 7921 022d 0B       		.uleb128 0xb
 7922 022e 49       		.uleb128 0x49
 7923 022f 13       		.uleb128 0x13
 7924 0230 02       		.uleb128 0x2
 7925 0231 17       		.uleb128 0x17
 7926 0232 00       		.byte	0
 7927 0233 00       		.byte	0
 7928 0234 2B       		.uleb128 0x2b
 7929 0235 05       		.uleb128 0x5
 7930 0236 00       		.byte	0
 7931 0237 03       		.uleb128 0x3
 7932 0238 0E       		.uleb128 0xe
 7933 0239 3A       		.uleb128 0x3a
 7934 023a 0B       		.uleb128 0xb
 7935 023b 3B       		.uleb128 0x3b
 7936 023c 0B       		.uleb128 0xb
 7937 023d 49       		.uleb128 0x49
 7938 023e 13       		.uleb128 0x13
 7939 023f 02       		.uleb128 0x2
 7940 0240 17       		.uleb128 0x17
 7941 0241 00       		.byte	0
 7942 0242 00       		.byte	0
 7943 0243 2C       		.uleb128 0x2c
ARM GAS  C:\Users\haske\AppData\Local\Temp\ccWSfRiA.s 			page 196


 7944 0244 34       		.uleb128 0x34
 7945 0245 00       		.byte	0
 7946 0246 03       		.uleb128 0x3
 7947 0247 08       		.uleb128 0x8
 7948 0248 3A       		.uleb128 0x3a
 7949 0249 0B       		.uleb128 0xb
 7950 024a 3B       		.uleb128 0x3b
 7951 024b 0B       		.uleb128 0xb
 7952 024c 49       		.uleb128 0x49
 7953 024d 13       		.uleb128 0x13
 7954 024e 02       		.uleb128 0x2
 7955 024f 18       		.uleb128 0x18
 7956 0250 00       		.byte	0
 7957 0251 00       		.byte	0
 7958 0252 2D       		.uleb128 0x2d
 7959 0253 34       		.uleb128 0x34
 7960 0254 00       		.byte	0
 7961 0255 03       		.uleb128 0x3
 7962 0256 08       		.uleb128 0x8
 7963 0257 3A       		.uleb128 0x3a
 7964 0258 0B       		.uleb128 0xb
 7965 0259 3B       		.uleb128 0x3b
 7966 025a 0B       		.uleb128 0xb
 7967 025b 49       		.uleb128 0x49
 7968 025c 13       		.uleb128 0x13
 7969 025d 00       		.byte	0
 7970 025e 00       		.byte	0
 7971 025f 2E       		.uleb128 0x2e
 7972 0260 898201   		.uleb128 0x4109
 7973 0263 01       		.byte	0x1
 7974 0264 11       		.uleb128 0x11
 7975 0265 01       		.uleb128 0x1
 7976 0266 31       		.uleb128 0x31
 7977 0267 13       		.uleb128 0x13
 7978 0268 01       		.uleb128 0x1
 7979 0269 13       		.uleb128 0x13
 7980 026a 00       		.byte	0
 7981 026b 00       		.byte	0
 7982 026c 2F       		.uleb128 0x2f
 7983 026d 8A8201   		.uleb128 0x410a
 7984 0270 00       		.byte	0
 7985 0271 02       		.uleb128 0x2
 7986 0272 18       		.uleb128 0x18
 7987 0273 9142     		.uleb128 0x2111
 7988 0275 18       		.uleb128 0x18
 7989 0276 00       		.byte	0
 7990 0277 00       		.byte	0
 7991 0278 30       		.uleb128 0x30
 7992 0279 898201   		.uleb128 0x4109
 7993 027c 01       		.byte	0x1
 7994 027d 11       		.uleb128 0x11
 7995 027e 01       		.uleb128 0x1
 7996 027f 31       		.uleb128 0x31
 7997 0280 13       		.uleb128 0x13
 7998 0281 00       		.byte	0
 7999 0282 00       		.byte	0
 8000 0283 31       		.uleb128 0x31
ARM GAS  C:\Users\haske\AppData\Local\Temp\ccWSfRiA.s 			page 197


 8001 0284 2E       		.uleb128 0x2e
 8002 0285 01       		.byte	0x1
 8003 0286 3F       		.uleb128 0x3f
 8004 0287 19       		.uleb128 0x19
 8005 0288 03       		.uleb128 0x3
 8006 0289 0E       		.uleb128 0xe
 8007 028a 3A       		.uleb128 0x3a
 8008 028b 0B       		.uleb128 0xb
 8009 028c 3B       		.uleb128 0x3b
 8010 028d 05       		.uleb128 0x5
 8011 028e 27       		.uleb128 0x27
 8012 028f 19       		.uleb128 0x19
 8013 0290 11       		.uleb128 0x11
 8014 0291 01       		.uleb128 0x1
 8015 0292 12       		.uleb128 0x12
 8016 0293 06       		.uleb128 0x6
 8017 0294 40       		.uleb128 0x40
 8018 0295 18       		.uleb128 0x18
 8019 0296 9742     		.uleb128 0x2117
 8020 0298 19       		.uleb128 0x19
 8021 0299 01       		.uleb128 0x1
 8022 029a 13       		.uleb128 0x13
 8023 029b 00       		.byte	0
 8024 029c 00       		.byte	0
 8025 029d 32       		.uleb128 0x32
 8026 029e 05       		.uleb128 0x5
 8027 029f 00       		.byte	0
 8028 02a0 03       		.uleb128 0x3
 8029 02a1 0E       		.uleb128 0xe
 8030 02a2 3A       		.uleb128 0x3a
 8031 02a3 0B       		.uleb128 0xb
 8032 02a4 3B       		.uleb128 0x3b
 8033 02a5 05       		.uleb128 0x5
 8034 02a6 49       		.uleb128 0x49
 8035 02a7 13       		.uleb128 0x13
 8036 02a8 02       		.uleb128 0x2
 8037 02a9 17       		.uleb128 0x17
 8038 02aa 00       		.byte	0
 8039 02ab 00       		.byte	0
 8040 02ac 33       		.uleb128 0x33
 8041 02ad 05       		.uleb128 0x5
 8042 02ae 00       		.byte	0
 8043 02af 03       		.uleb128 0x3
 8044 02b0 08       		.uleb128 0x8
 8045 02b1 3A       		.uleb128 0x3a
 8046 02b2 0B       		.uleb128 0xb
 8047 02b3 3B       		.uleb128 0x3b
 8048 02b4 05       		.uleb128 0x5
 8049 02b5 49       		.uleb128 0x49
 8050 02b6 13       		.uleb128 0x13
 8051 02b7 02       		.uleb128 0x2
 8052 02b8 17       		.uleb128 0x17
 8053 02b9 00       		.byte	0
 8054 02ba 00       		.byte	0
 8055 02bb 34       		.uleb128 0x34
 8056 02bc 34       		.uleb128 0x34
 8057 02bd 00       		.byte	0
ARM GAS  C:\Users\haske\AppData\Local\Temp\ccWSfRiA.s 			page 198


 8058 02be 03       		.uleb128 0x3
 8059 02bf 08       		.uleb128 0x8
 8060 02c0 3A       		.uleb128 0x3a
 8061 02c1 0B       		.uleb128 0xb
 8062 02c2 3B       		.uleb128 0x3b
 8063 02c3 05       		.uleb128 0x5
 8064 02c4 49       		.uleb128 0x49
 8065 02c5 13       		.uleb128 0x13
 8066 02c6 02       		.uleb128 0x2
 8067 02c7 18       		.uleb128 0x18
 8068 02c8 00       		.byte	0
 8069 02c9 00       		.byte	0
 8070 02ca 35       		.uleb128 0x35
 8071 02cb 34       		.uleb128 0x34
 8072 02cc 00       		.byte	0
 8073 02cd 03       		.uleb128 0x3
 8074 02ce 0E       		.uleb128 0xe
 8075 02cf 3A       		.uleb128 0x3a
 8076 02d0 0B       		.uleb128 0xb
 8077 02d1 3B       		.uleb128 0x3b
 8078 02d2 05       		.uleb128 0x5
 8079 02d3 49       		.uleb128 0x49
 8080 02d4 13       		.uleb128 0x13
 8081 02d5 02       		.uleb128 0x2
 8082 02d6 17       		.uleb128 0x17
 8083 02d7 00       		.byte	0
 8084 02d8 00       		.byte	0
 8085 02d9 36       		.uleb128 0x36
 8086 02da 34       		.uleb128 0x34
 8087 02db 00       		.byte	0
 8088 02dc 03       		.uleb128 0x3
 8089 02dd 0E       		.uleb128 0xe
 8090 02de 3A       		.uleb128 0x3a
 8091 02df 0B       		.uleb128 0xb
 8092 02e0 3B       		.uleb128 0x3b
 8093 02e1 05       		.uleb128 0x5
 8094 02e2 49       		.uleb128 0x49
 8095 02e3 13       		.uleb128 0x13
 8096 02e4 1C       		.uleb128 0x1c
 8097 02e5 0B       		.uleb128 0xb
 8098 02e6 00       		.byte	0
 8099 02e7 00       		.byte	0
 8100 02e8 37       		.uleb128 0x37
 8101 02e9 1D       		.uleb128 0x1d
 8102 02ea 01       		.byte	0x1
 8103 02eb 31       		.uleb128 0x31
 8104 02ec 13       		.uleb128 0x13
 8105 02ed 11       		.uleb128 0x11
 8106 02ee 01       		.uleb128 0x1
 8107 02ef 12       		.uleb128 0x12
 8108 02f0 06       		.uleb128 0x6
 8109 02f1 58       		.uleb128 0x58
 8110 02f2 0B       		.uleb128 0xb
 8111 02f3 59       		.uleb128 0x59
 8112 02f4 05       		.uleb128 0x5
 8113 02f5 01       		.uleb128 0x1
 8114 02f6 13       		.uleb128 0x13
ARM GAS  C:\Users\haske\AppData\Local\Temp\ccWSfRiA.s 			page 199


 8115 02f7 00       		.byte	0
 8116 02f8 00       		.byte	0
 8117 02f9 38       		.uleb128 0x38
 8118 02fa 05       		.uleb128 0x5
 8119 02fb 00       		.byte	0
 8120 02fc 31       		.uleb128 0x31
 8121 02fd 13       		.uleb128 0x13
 8122 02fe 02       		.uleb128 0x2
 8123 02ff 17       		.uleb128 0x17
 8124 0300 00       		.byte	0
 8125 0301 00       		.byte	0
 8126 0302 39       		.uleb128 0x39
 8127 0303 898201   		.uleb128 0x4109
 8128 0306 00       		.byte	0
 8129 0307 11       		.uleb128 0x11
 8130 0308 01       		.uleb128 0x1
 8131 0309 31       		.uleb128 0x31
 8132 030a 13       		.uleb128 0x13
 8133 030b 00       		.byte	0
 8134 030c 00       		.byte	0
 8135 030d 3A       		.uleb128 0x3a
 8136 030e 1D       		.uleb128 0x1d
 8137 030f 01       		.byte	0x1
 8138 0310 31       		.uleb128 0x31
 8139 0311 13       		.uleb128 0x13
 8140 0312 11       		.uleb128 0x11
 8141 0313 01       		.uleb128 0x1
 8142 0314 12       		.uleb128 0x12
 8143 0315 06       		.uleb128 0x6
 8144 0316 58       		.uleb128 0x58
 8145 0317 0B       		.uleb128 0xb
 8146 0318 59       		.uleb128 0x59
 8147 0319 0B       		.uleb128 0xb
 8148 031a 00       		.byte	0
 8149 031b 00       		.byte	0
 8150 031c 3B       		.uleb128 0x3b
 8151 031d 05       		.uleb128 0x5
 8152 031e 00       		.byte	0
 8153 031f 31       		.uleb128 0x31
 8154 0320 13       		.uleb128 0x13
 8155 0321 1C       		.uleb128 0x1c
 8156 0322 0B       		.uleb128 0xb
 8157 0323 00       		.byte	0
 8158 0324 00       		.byte	0
 8159 0325 3C       		.uleb128 0x3c
 8160 0326 2E       		.uleb128 0x2e
 8161 0327 00       		.byte	0
 8162 0328 3F       		.uleb128 0x3f
 8163 0329 19       		.uleb128 0x19
 8164 032a 03       		.uleb128 0x3
 8165 032b 0E       		.uleb128 0xe
 8166 032c 3A       		.uleb128 0x3a
 8167 032d 0B       		.uleb128 0xb
 8168 032e 3B       		.uleb128 0x3b
 8169 032f 05       		.uleb128 0x5
 8170 0330 27       		.uleb128 0x27
 8171 0331 19       		.uleb128 0x19
ARM GAS  C:\Users\haske\AppData\Local\Temp\ccWSfRiA.s 			page 200


 8172 0332 11       		.uleb128 0x11
 8173 0333 01       		.uleb128 0x1
 8174 0334 12       		.uleb128 0x12
 8175 0335 06       		.uleb128 0x6
 8176 0336 40       		.uleb128 0x40
 8177 0337 18       		.uleb128 0x18
 8178 0338 9742     		.uleb128 0x2117
 8179 033a 19       		.uleb128 0x19
 8180 033b 00       		.byte	0
 8181 033c 00       		.byte	0
 8182 033d 3D       		.uleb128 0x3d
 8183 033e 05       		.uleb128 0x5
 8184 033f 00       		.byte	0
 8185 0340 03       		.uleb128 0x3
 8186 0341 0E       		.uleb128 0xe
 8187 0342 3A       		.uleb128 0x3a
 8188 0343 0B       		.uleb128 0xb
 8189 0344 3B       		.uleb128 0x3b
 8190 0345 05       		.uleb128 0x5
 8191 0346 49       		.uleb128 0x49
 8192 0347 13       		.uleb128 0x13
 8193 0348 02       		.uleb128 0x2
 8194 0349 18       		.uleb128 0x18
 8195 034a 00       		.byte	0
 8196 034b 00       		.byte	0
 8197 034c 3E       		.uleb128 0x3e
 8198 034d 34       		.uleb128 0x34
 8199 034e 00       		.byte	0
 8200 034f 03       		.uleb128 0x3
 8201 0350 08       		.uleb128 0x8
 8202 0351 3A       		.uleb128 0x3a
 8203 0352 0B       		.uleb128 0xb
 8204 0353 3B       		.uleb128 0x3b
 8205 0354 05       		.uleb128 0x5
 8206 0355 49       		.uleb128 0x49
 8207 0356 13       		.uleb128 0x13
 8208 0357 02       		.uleb128 0x2
 8209 0358 17       		.uleb128 0x17
 8210 0359 00       		.byte	0
 8211 035a 00       		.byte	0
 8212 035b 3F       		.uleb128 0x3f
 8213 035c 1D       		.uleb128 0x1d
 8214 035d 00       		.byte	0
 8215 035e 31       		.uleb128 0x31
 8216 035f 13       		.uleb128 0x13
 8217 0360 11       		.uleb128 0x11
 8218 0361 01       		.uleb128 0x1
 8219 0362 12       		.uleb128 0x12
 8220 0363 06       		.uleb128 0x6
 8221 0364 58       		.uleb128 0x58
 8222 0365 0B       		.uleb128 0xb
 8223 0366 59       		.uleb128 0x59
 8224 0367 05       		.uleb128 0x5
 8225 0368 00       		.byte	0
 8226 0369 00       		.byte	0
 8227 036a 40       		.uleb128 0x40
 8228 036b 1D       		.uleb128 0x1d
ARM GAS  C:\Users\haske\AppData\Local\Temp\ccWSfRiA.s 			page 201


 8229 036c 01       		.byte	0x1
 8230 036d 31       		.uleb128 0x31
 8231 036e 13       		.uleb128 0x13
 8232 036f 11       		.uleb128 0x11
 8233 0370 01       		.uleb128 0x1
 8234 0371 12       		.uleb128 0x12
 8235 0372 06       		.uleb128 0x6
 8236 0373 58       		.uleb128 0x58
 8237 0374 0B       		.uleb128 0xb
 8238 0375 59       		.uleb128 0x59
 8239 0376 05       		.uleb128 0x5
 8240 0377 00       		.byte	0
 8241 0378 00       		.byte	0
 8242 0379 41       		.uleb128 0x41
 8243 037a 0B       		.uleb128 0xb
 8244 037b 01       		.byte	0x1
 8245 037c 11       		.uleb128 0x11
 8246 037d 01       		.uleb128 0x1
 8247 037e 12       		.uleb128 0x12
 8248 037f 06       		.uleb128 0x6
 8249 0380 00       		.byte	0
 8250 0381 00       		.byte	0
 8251 0382 42       		.uleb128 0x42
 8252 0383 34       		.uleb128 0x34
 8253 0384 00       		.byte	0
 8254 0385 31       		.uleb128 0x31
 8255 0386 13       		.uleb128 0x13
 8256 0387 02       		.uleb128 0x2
 8257 0388 17       		.uleb128 0x17
 8258 0389 00       		.byte	0
 8259 038a 00       		.byte	0
 8260 038b 43       		.uleb128 0x43
 8261 038c 34       		.uleb128 0x34
 8262 038d 00       		.byte	0
 8263 038e 31       		.uleb128 0x31
 8264 038f 13       		.uleb128 0x13
 8265 0390 00       		.byte	0
 8266 0391 00       		.byte	0
 8267 0392 44       		.uleb128 0x44
 8268 0393 34       		.uleb128 0x34
 8269 0394 00       		.byte	0
 8270 0395 03       		.uleb128 0x3
 8271 0396 0E       		.uleb128 0xe
 8272 0397 3A       		.uleb128 0x3a
 8273 0398 0B       		.uleb128 0xb
 8274 0399 3B       		.uleb128 0x3b
 8275 039a 0B       		.uleb128 0xb
 8276 039b 49       		.uleb128 0x49
 8277 039c 13       		.uleb128 0x13
 8278 039d 02       		.uleb128 0x2
 8279 039e 18       		.uleb128 0x18
 8280 039f 00       		.byte	0
 8281 03a0 00       		.byte	0
 8282 03a1 45       		.uleb128 0x45
 8283 03a2 34       		.uleb128 0x34
 8284 03a3 00       		.byte	0
 8285 03a4 03       		.uleb128 0x3
ARM GAS  C:\Users\haske\AppData\Local\Temp\ccWSfRiA.s 			page 202


 8286 03a5 0E       		.uleb128 0xe
 8287 03a6 3A       		.uleb128 0x3a
 8288 03a7 0B       		.uleb128 0xb
 8289 03a8 3B       		.uleb128 0x3b
 8290 03a9 0B       		.uleb128 0xb
 8291 03aa 49       		.uleb128 0x49
 8292 03ab 13       		.uleb128 0x13
 8293 03ac 00       		.byte	0
 8294 03ad 00       		.byte	0
 8295 03ae 46       		.uleb128 0x46
 8296 03af 34       		.uleb128 0x34
 8297 03b0 00       		.byte	0
 8298 03b1 03       		.uleb128 0x3
 8299 03b2 0E       		.uleb128 0xe
 8300 03b3 3A       		.uleb128 0x3a
 8301 03b4 0B       		.uleb128 0xb
 8302 03b5 3B       		.uleb128 0x3b
 8303 03b6 05       		.uleb128 0x5
 8304 03b7 49       		.uleb128 0x49
 8305 03b8 13       		.uleb128 0x13
 8306 03b9 3F       		.uleb128 0x3f
 8307 03ba 19       		.uleb128 0x19
 8308 03bb 3C       		.uleb128 0x3c
 8309 03bc 19       		.uleb128 0x19
 8310 03bd 00       		.byte	0
 8311 03be 00       		.byte	0
 8312 03bf 47       		.uleb128 0x47
 8313 03c0 34       		.uleb128 0x34
 8314 03c1 00       		.byte	0
 8315 03c2 03       		.uleb128 0x3
 8316 03c3 0E       		.uleb128 0xe
 8317 03c4 3A       		.uleb128 0x3a
 8318 03c5 0B       		.uleb128 0xb
 8319 03c6 3B       		.uleb128 0x3b
 8320 03c7 0B       		.uleb128 0xb
 8321 03c8 49       		.uleb128 0x49
 8322 03c9 13       		.uleb128 0x13
 8323 03ca 3F       		.uleb128 0x3f
 8324 03cb 19       		.uleb128 0x19
 8325 03cc 3C       		.uleb128 0x3c
 8326 03cd 19       		.uleb128 0x19
 8327 03ce 00       		.byte	0
 8328 03cf 00       		.byte	0
 8329 03d0 48       		.uleb128 0x48
 8330 03d1 34       		.uleb128 0x34
 8331 03d2 00       		.byte	0
 8332 03d3 03       		.uleb128 0x3
 8333 03d4 0E       		.uleb128 0xe
 8334 03d5 3A       		.uleb128 0x3a
 8335 03d6 0B       		.uleb128 0xb
 8336 03d7 3B       		.uleb128 0x3b
 8337 03d8 0B       		.uleb128 0xb
 8338 03d9 49       		.uleb128 0x49
 8339 03da 13       		.uleb128 0x13
 8340 03db 3F       		.uleb128 0x3f
 8341 03dc 19       		.uleb128 0x19
 8342 03dd 02       		.uleb128 0x2
ARM GAS  C:\Users\haske\AppData\Local\Temp\ccWSfRiA.s 			page 203


 8343 03de 18       		.uleb128 0x18
 8344 03df 00       		.byte	0
 8345 03e0 00       		.byte	0
 8346 03e1 49       		.uleb128 0x49
 8347 03e2 2E       		.uleb128 0x2e
 8348 03e3 00       		.byte	0
 8349 03e4 3F       		.uleb128 0x3f
 8350 03e5 19       		.uleb128 0x19
 8351 03e6 3C       		.uleb128 0x3c
 8352 03e7 19       		.uleb128 0x19
 8353 03e8 6E       		.uleb128 0x6e
 8354 03e9 0E       		.uleb128 0xe
 8355 03ea 03       		.uleb128 0x3
 8356 03eb 0E       		.uleb128 0xe
 8357 03ec 3A       		.uleb128 0x3a
 8358 03ed 0B       		.uleb128 0xb
 8359 03ee 3B       		.uleb128 0x3b
 8360 03ef 0B       		.uleb128 0xb
 8361 03f0 00       		.byte	0
 8362 03f1 00       		.byte	0
 8363 03f2 4A       		.uleb128 0x4a
 8364 03f3 2E       		.uleb128 0x2e
 8365 03f4 00       		.byte	0
 8366 03f5 3F       		.uleb128 0x3f
 8367 03f6 19       		.uleb128 0x19
 8368 03f7 3C       		.uleb128 0x3c
 8369 03f8 19       		.uleb128 0x19
 8370 03f9 6E       		.uleb128 0x6e
 8371 03fa 0E       		.uleb128 0xe
 8372 03fb 03       		.uleb128 0x3
 8373 03fc 0E       		.uleb128 0xe
 8374 03fd 3A       		.uleb128 0x3a
 8375 03fe 0B       		.uleb128 0xb
 8376 03ff 3B       		.uleb128 0x3b
 8377 0400 05       		.uleb128 0x5
 8378 0401 00       		.byte	0
 8379 0402 00       		.byte	0
 8380 0403 00       		.byte	0
 8381              		.section	.debug_loc,"",%progbits
 8382              	.Ldebug_loc0:
 8383              	.LLST0:
 8384 0000 34000000 		.4byte	.LVL0
 8385 0004 5C000000 		.4byte	.LVL2
 8386 0008 0100     		.2byte	0x1
 8387 000a 53       		.byte	0x53
 8388 000b 00000000 		.4byte	0
 8389 000f 00000000 		.4byte	0
 8390              	.LLST1:
 8391 0013 00000000 		.4byte	.LVL6
 8392 0017 06000000 		.4byte	.LVL7
 8393 001b 0100     		.2byte	0x1
 8394 001d 50       		.byte	0x50
 8395 001e 06000000 		.4byte	.LVL7
 8396 0022 24000000 		.4byte	.LFE972
 8397 0026 0400     		.2byte	0x4
 8398 0028 F3       		.byte	0xf3
 8399 0029 01       		.uleb128 0x1
ARM GAS  C:\Users\haske\AppData\Local\Temp\ccWSfRiA.s 			page 204


 8400 002a 50       		.byte	0x50
 8401 002b 9F       		.byte	0x9f
 8402 002c 00000000 		.4byte	0
 8403 0030 00000000 		.4byte	0
 8404              	.LLST2:
 8405 0034 00000000 		.4byte	.LVL6
 8406 0038 09000000 		.4byte	.LVL8-1
 8407 003c 0100     		.2byte	0x1
 8408 003e 51       		.byte	0x51
 8409 003f 09000000 		.4byte	.LVL8-1
 8410 0043 24000000 		.4byte	.LFE972
 8411 0047 0400     		.2byte	0x4
 8412 0049 F3       		.byte	0xf3
 8413 004a 01       		.uleb128 0x1
 8414 004b 51       		.byte	0x51
 8415 004c 9F       		.byte	0x9f
 8416 004d 00000000 		.4byte	0
 8417 0051 00000000 		.4byte	0
 8418              	.LLST3:
 8419 0055 00000000 		.4byte	.LVL11
 8420 0059 36000000 		.4byte	.LVL14
 8421 005d 0100     		.2byte	0x1
 8422 005f 50       		.byte	0x50
 8423 0060 36000000 		.4byte	.LVL14
 8424 0064 3C000000 		.4byte	.LVL16
 8425 0068 0400     		.2byte	0x4
 8426 006a F3       		.byte	0xf3
 8427 006b 01       		.uleb128 0x1
 8428 006c 50       		.byte	0x50
 8429 006d 9F       		.byte	0x9f
 8430 006e 3C000000 		.4byte	.LVL16
 8431 0072 48000000 		.4byte	.LVL18
 8432 0076 0100     		.2byte	0x1
 8433 0078 50       		.byte	0x50
 8434 0079 48000000 		.4byte	.LVL18
 8435 007d 4E000000 		.4byte	.LVL20
 8436 0081 0400     		.2byte	0x4
 8437 0083 F3       		.byte	0xf3
 8438 0084 01       		.uleb128 0x1
 8439 0085 50       		.byte	0x50
 8440 0086 9F       		.byte	0x9f
 8441 0087 4E000000 		.4byte	.LVL20
 8442 008b 5C000000 		.4byte	.LVL22
 8443 008f 0100     		.2byte	0x1
 8444 0091 50       		.byte	0x50
 8445 0092 5C000000 		.4byte	.LVL22
 8446 0096 62000000 		.4byte	.LVL24
 8447 009a 0400     		.2byte	0x4
 8448 009c F3       		.byte	0xf3
 8449 009d 01       		.uleb128 0x1
 8450 009e 50       		.byte	0x50
 8451 009f 9F       		.byte	0x9f
 8452 00a0 62000000 		.4byte	.LVL24
 8453 00a4 70000000 		.4byte	.LVL26
 8454 00a8 0100     		.2byte	0x1
 8455 00aa 50       		.byte	0x50
 8456 00ab 70000000 		.4byte	.LVL26
ARM GAS  C:\Users\haske\AppData\Local\Temp\ccWSfRiA.s 			page 205


 8457 00af 76000000 		.4byte	.LVL28
 8458 00b3 0400     		.2byte	0x4
 8459 00b5 F3       		.byte	0xf3
 8460 00b6 01       		.uleb128 0x1
 8461 00b7 50       		.byte	0x50
 8462 00b8 9F       		.byte	0x9f
 8463 00b9 76000000 		.4byte	.LVL28
 8464 00bd 84000000 		.4byte	.LVL30
 8465 00c1 0100     		.2byte	0x1
 8466 00c3 50       		.byte	0x50
 8467 00c4 84000000 		.4byte	.LVL30
 8468 00c8 8A000000 		.4byte	.LVL32
 8469 00cc 0400     		.2byte	0x4
 8470 00ce F3       		.byte	0xf3
 8471 00cf 01       		.uleb128 0x1
 8472 00d0 50       		.byte	0x50
 8473 00d1 9F       		.byte	0x9f
 8474 00d2 8A000000 		.4byte	.LVL32
 8475 00d6 98000000 		.4byte	.LVL34
 8476 00da 0100     		.2byte	0x1
 8477 00dc 50       		.byte	0x50
 8478 00dd 98000000 		.4byte	.LVL34
 8479 00e1 9E000000 		.4byte	.LVL36
 8480 00e5 0400     		.2byte	0x4
 8481 00e7 F3       		.byte	0xf3
 8482 00e8 01       		.uleb128 0x1
 8483 00e9 50       		.byte	0x50
 8484 00ea 9F       		.byte	0x9f
 8485 00eb 9E000000 		.4byte	.LVL36
 8486 00ef AC000000 		.4byte	.LVL38
 8487 00f3 0100     		.2byte	0x1
 8488 00f5 50       		.byte	0x50
 8489 00f6 AC000000 		.4byte	.LVL38
 8490 00fa B2000000 		.4byte	.LVL40
 8491 00fe 0400     		.2byte	0x4
 8492 0100 F3       		.byte	0xf3
 8493 0101 01       		.uleb128 0x1
 8494 0102 50       		.byte	0x50
 8495 0103 9F       		.byte	0x9f
 8496 0104 B2000000 		.4byte	.LVL40
 8497 0108 C0000000 		.4byte	.LVL42
 8498 010c 0100     		.2byte	0x1
 8499 010e 50       		.byte	0x50
 8500 010f C0000000 		.4byte	.LVL42
 8501 0113 C6000000 		.4byte	.LVL44
 8502 0117 0400     		.2byte	0x4
 8503 0119 F3       		.byte	0xf3
 8504 011a 01       		.uleb128 0x1
 8505 011b 50       		.byte	0x50
 8506 011c 9F       		.byte	0x9f
 8507 011d C6000000 		.4byte	.LVL44
 8508 0121 CA000000 		.4byte	.LVL45
 8509 0125 0100     		.2byte	0x1
 8510 0127 50       		.byte	0x50
 8511 0128 CA000000 		.4byte	.LVL45
 8512 012c D0000000 		.4byte	.LVL47
 8513 0130 0400     		.2byte	0x4
ARM GAS  C:\Users\haske\AppData\Local\Temp\ccWSfRiA.s 			page 206


 8514 0132 F3       		.byte	0xf3
 8515 0133 01       		.uleb128 0x1
 8516 0134 50       		.byte	0x50
 8517 0135 9F       		.byte	0x9f
 8518 0136 D0000000 		.4byte	.LVL47
 8519 013a D4000000 		.4byte	.LVL48
 8520 013e 0100     		.2byte	0x1
 8521 0140 50       		.byte	0x50
 8522 0141 D4000000 		.4byte	.LVL48
 8523 0145 E8000000 		.4byte	.LFE973
 8524 0149 0400     		.2byte	0x4
 8525 014b F3       		.byte	0xf3
 8526 014c 01       		.uleb128 0x1
 8527 014d 50       		.byte	0x50
 8528 014e 9F       		.byte	0x9f
 8529 014f 00000000 		.4byte	0
 8530 0153 00000000 		.4byte	0
 8531              	.LLST4:
 8532 0157 00000000 		.4byte	.LVL11
 8533 015b 20000000 		.4byte	.LVL12
 8534 015f 0100     		.2byte	0x1
 8535 0161 51       		.byte	0x51
 8536 0162 20000000 		.4byte	.LVL12
 8537 0166 D8000000 		.4byte	.LVL49
 8538 016a 0100     		.2byte	0x1
 8539 016c 55       		.byte	0x55
 8540 016d D8000000 		.4byte	.LVL49
 8541 0171 E8000000 		.4byte	.LFE973
 8542 0175 0400     		.2byte	0x4
 8543 0177 F3       		.byte	0xf3
 8544 0178 01       		.uleb128 0x1
 8545 0179 51       		.byte	0x51
 8546 017a 9F       		.byte	0x9f
 8547 017b 00000000 		.4byte	0
 8548 017f 00000000 		.4byte	0
 8549              	.LLST5:
 8550 0183 00000000 		.4byte	.LVL11
 8551 0187 2C000000 		.4byte	.LVL13
 8552 018b 0100     		.2byte	0x1
 8553 018d 52       		.byte	0x52
 8554 018e 2C000000 		.4byte	.LVL13
 8555 0192 3C000000 		.4byte	.LVL16
 8556 0196 0400     		.2byte	0x4
 8557 0198 F3       		.byte	0xf3
 8558 0199 01       		.uleb128 0x1
 8559 019a 52       		.byte	0x52
 8560 019b 9F       		.byte	0x9f
 8561 019c 3C000000 		.4byte	.LVL16
 8562 01a0 3E000000 		.4byte	.LVL17
 8563 01a4 0100     		.2byte	0x1
 8564 01a6 52       		.byte	0x52
 8565 01a7 3E000000 		.4byte	.LVL17
 8566 01ab 4E000000 		.4byte	.LVL20
 8567 01af 0400     		.2byte	0x4
 8568 01b1 F3       		.byte	0xf3
 8569 01b2 01       		.uleb128 0x1
 8570 01b3 52       		.byte	0x52
ARM GAS  C:\Users\haske\AppData\Local\Temp\ccWSfRiA.s 			page 207


 8571 01b4 9F       		.byte	0x9f
 8572 01b5 4E000000 		.4byte	.LVL20
 8573 01b9 50000000 		.4byte	.LVL21
 8574 01bd 0100     		.2byte	0x1
 8575 01bf 52       		.byte	0x52
 8576 01c0 50000000 		.4byte	.LVL21
 8577 01c4 62000000 		.4byte	.LVL24
 8578 01c8 0400     		.2byte	0x4
 8579 01ca F3       		.byte	0xf3
 8580 01cb 01       		.uleb128 0x1
 8581 01cc 52       		.byte	0x52
 8582 01cd 9F       		.byte	0x9f
 8583 01ce 62000000 		.4byte	.LVL24
 8584 01d2 64000000 		.4byte	.LVL25
 8585 01d6 0100     		.2byte	0x1
 8586 01d8 52       		.byte	0x52
 8587 01d9 64000000 		.4byte	.LVL25
 8588 01dd 76000000 		.4byte	.LVL28
 8589 01e1 0400     		.2byte	0x4
 8590 01e3 F3       		.byte	0xf3
 8591 01e4 01       		.uleb128 0x1
 8592 01e5 52       		.byte	0x52
 8593 01e6 9F       		.byte	0x9f
 8594 01e7 76000000 		.4byte	.LVL28
 8595 01eb 78000000 		.4byte	.LVL29
 8596 01ef 0100     		.2byte	0x1
 8597 01f1 52       		.byte	0x52
 8598 01f2 78000000 		.4byte	.LVL29
 8599 01f6 8A000000 		.4byte	.LVL32
 8600 01fa 0400     		.2byte	0x4
 8601 01fc F3       		.byte	0xf3
 8602 01fd 01       		.uleb128 0x1
 8603 01fe 52       		.byte	0x52
 8604 01ff 9F       		.byte	0x9f
 8605 0200 8A000000 		.4byte	.LVL32
 8606 0204 8C000000 		.4byte	.LVL33
 8607 0208 0100     		.2byte	0x1
 8608 020a 52       		.byte	0x52
 8609 020b 8C000000 		.4byte	.LVL33
 8610 020f 9E000000 		.4byte	.LVL36
 8611 0213 0400     		.2byte	0x4
 8612 0215 F3       		.byte	0xf3
 8613 0216 01       		.uleb128 0x1
 8614 0217 52       		.byte	0x52
 8615 0218 9F       		.byte	0x9f
 8616 0219 9E000000 		.4byte	.LVL36
 8617 021d A0000000 		.4byte	.LVL37
 8618 0221 0100     		.2byte	0x1
 8619 0223 52       		.byte	0x52
 8620 0224 A0000000 		.4byte	.LVL37
 8621 0228 B2000000 		.4byte	.LVL40
 8622 022c 0400     		.2byte	0x4
 8623 022e F3       		.byte	0xf3
 8624 022f 01       		.uleb128 0x1
 8625 0230 52       		.byte	0x52
 8626 0231 9F       		.byte	0x9f
 8627 0232 B2000000 		.4byte	.LVL40
ARM GAS  C:\Users\haske\AppData\Local\Temp\ccWSfRiA.s 			page 208


 8628 0236 B4000000 		.4byte	.LVL41
 8629 023a 0100     		.2byte	0x1
 8630 023c 52       		.byte	0x52
 8631 023d B4000000 		.4byte	.LVL41
 8632 0241 C6000000 		.4byte	.LVL44
 8633 0245 0400     		.2byte	0x4
 8634 0247 F3       		.byte	0xf3
 8635 0248 01       		.uleb128 0x1
 8636 0249 52       		.byte	0x52
 8637 024a 9F       		.byte	0x9f
 8638 024b C6000000 		.4byte	.LVL44
 8639 024f CD000000 		.4byte	.LVL46-1
 8640 0253 0100     		.2byte	0x1
 8641 0255 52       		.byte	0x52
 8642 0256 CD000000 		.4byte	.LVL46-1
 8643 025a D0000000 		.4byte	.LVL47
 8644 025e 0400     		.2byte	0x4
 8645 0260 F3       		.byte	0xf3
 8646 0261 01       		.uleb128 0x1
 8647 0262 52       		.byte	0x52
 8648 0263 9F       		.byte	0x9f
 8649 0264 D0000000 		.4byte	.LVL47
 8650 0268 D7000000 		.4byte	.LVL49-1
 8651 026c 0100     		.2byte	0x1
 8652 026e 52       		.byte	0x52
 8653 026f D7000000 		.4byte	.LVL49-1
 8654 0273 E8000000 		.4byte	.LFE973
 8655 0277 0400     		.2byte	0x4
 8656 0279 F3       		.byte	0xf3
 8657 027a 01       		.uleb128 0x1
 8658 027b 52       		.byte	0x52
 8659 027c 9F       		.byte	0x9f
 8660 027d 00000000 		.4byte	0
 8661 0281 00000000 		.4byte	0
 8662              	.LLST6:
 8663 0285 10000000 		.4byte	.LVL51
 8664 0289 26000000 		.4byte	.LVL57
 8665 028d 0500     		.2byte	0x5
 8666 028f 72       		.byte	0x72
 8667 0290 00       		.sleb128 0
 8668 0291 36       		.byte	0x36
 8669 0292 25       		.byte	0x25
 8670 0293 9F       		.byte	0x9f
 8671 0294 26000000 		.4byte	.LVL57
 8672 0298 2D000000 		.4byte	.LVL58-1
 8673 029c 0100     		.2byte	0x1
 8674 029e 52       		.byte	0x52
 8675 029f 00000000 		.4byte	0
 8676 02a3 00000000 		.4byte	0
 8677              	.LLST7:
 8678 02a7 14000000 		.4byte	.LVL52
 8679 02ab A8000000 		.4byte	.LVL74
 8680 02af 0100     		.2byte	0x1
 8681 02b1 58       		.byte	0x58
 8682 02b2 00000000 		.4byte	0
 8683 02b6 00000000 		.4byte	0
 8684              	.LLST8:
ARM GAS  C:\Users\haske\AppData\Local\Temp\ccWSfRiA.s 			page 209


 8685 02ba 18000000 		.4byte	.LVL53
 8686 02be A8000000 		.4byte	.LVL74
 8687 02c2 0100     		.2byte	0x1
 8688 02c4 57       		.byte	0x57
 8689 02c5 00000000 		.4byte	0
 8690 02c9 00000000 		.4byte	0
 8691              	.LLST9:
 8692 02cd 1C000000 		.4byte	.LVL54
 8693 02d1 68000000 		.4byte	.LVL65
 8694 02d5 0100     		.2byte	0x1
 8695 02d7 56       		.byte	0x56
 8696 02d8 00000000 		.4byte	0
 8697 02dc 00000000 		.4byte	0
 8698              	.LLST10:
 8699 02e0 20000000 		.4byte	.LVL55
 8700 02e4 6C000000 		.4byte	.LVL66
 8701 02e8 0100     		.2byte	0x1
 8702 02ea 55       		.byte	0x55
 8703 02eb 00000000 		.4byte	0
 8704 02ef 00000000 		.4byte	0
 8705              	.LLST11:
 8706 02f3 24000000 		.4byte	.LVL56
 8707 02f7 70000000 		.4byte	.LVL67
 8708 02fb 0100     		.2byte	0x1
 8709 02fd 54       		.byte	0x54
 8710 02fe 00000000 		.4byte	0
 8711 0302 00000000 		.4byte	0
 8712              	.LLST12:
 8713 0306 64000000 		.4byte	.LVL64
 8714 030a 72000000 		.4byte	.LVL68
 8715 030e 0500     		.2byte	0x5
 8716 0310 72       		.byte	0x72
 8717 0311 00       		.sleb128 0
 8718 0312 37       		.byte	0x37
 8719 0313 25       		.byte	0x25
 8720 0314 9F       		.byte	0x9f
 8721 0315 72000000 		.4byte	.LVL68
 8722 0319 79000000 		.4byte	.LVL69-1
 8723 031d 0100     		.2byte	0x1
 8724 031f 52       		.byte	0x52
 8725 0320 00000000 		.4byte	0
 8726 0324 00000000 		.4byte	0
 8727              	.LLST13:
 8728 0328 68000000 		.4byte	.LVL65
 8729 032c A8000000 		.4byte	.LVL74
 8730 0330 0100     		.2byte	0x1
 8731 0332 56       		.byte	0x56
 8732 0333 00000000 		.4byte	0
 8733 0337 00000000 		.4byte	0
 8734              	.LLST14:
 8735 033b 6C000000 		.4byte	.LVL66
 8736 033f A8000000 		.4byte	.LVL74
 8737 0343 0100     		.2byte	0x1
 8738 0345 55       		.byte	0x55
 8739 0346 00000000 		.4byte	0
 8740 034a 00000000 		.4byte	0
 8741              	.LLST15:
ARM GAS  C:\Users\haske\AppData\Local\Temp\ccWSfRiA.s 			page 210


 8742 034e 70000000 		.4byte	.LVL67
 8743 0352 A8000000 		.4byte	.LVL74
 8744 0356 0100     		.2byte	0x1
 8745 0358 54       		.byte	0x54
 8746 0359 00000000 		.4byte	0
 8747 035d 00000000 		.4byte	0
 8748              	.LLST16:
 8749 0361 0C000000 		.4byte	.LVL75
 8750 0365 16000000 		.4byte	.LVL76
 8751 0369 0200     		.2byte	0x2
 8752 036b 31       		.byte	0x31
 8753 036c 9F       		.byte	0x9f
 8754 036d 00000000 		.4byte	0
 8755 0371 00000000 		.4byte	0
 8756              	.LLST17:
 8757 0375 0C000000 		.4byte	.LVL75
 8758 0379 16000000 		.4byte	.LVL76
 8759 037d 0200     		.2byte	0x2
 8760 037f 33       		.byte	0x33
 8761 0380 9F       		.byte	0x9f
 8762 0381 00000000 		.4byte	0
 8763 0385 00000000 		.4byte	0
 8764              	.LLST18:
 8765 0389 0C000000 		.4byte	.LVL75
 8766 038d 16000000 		.4byte	.LVL76
 8767 0391 0600     		.2byte	0x6
 8768 0393 0C       		.byte	0xc
 8769 0394 00033240 		.4byte	0x40320300
 8770 0398 9F       		.byte	0x9f
 8771 0399 00000000 		.4byte	0
 8772 039d 00000000 		.4byte	0
 8773              	.LLST19:
 8774 03a1 16000000 		.4byte	.LVL76
 8775 03a5 1C000000 		.4byte	.LVL77
 8776 03a9 0200     		.2byte	0x2
 8777 03ab 31       		.byte	0x31
 8778 03ac 9F       		.byte	0x9f
 8779 03ad 00000000 		.4byte	0
 8780 03b1 00000000 		.4byte	0
 8781              	.LLST20:
 8782 03b5 16000000 		.4byte	.LVL76
 8783 03b9 1C000000 		.4byte	.LVL77
 8784 03bd 0200     		.2byte	0x2
 8785 03bf 37       		.byte	0x37
 8786 03c0 9F       		.byte	0x9f
 8787 03c1 00000000 		.4byte	0
 8788 03c5 00000000 		.4byte	0
 8789              	.LLST21:
 8790 03c9 16000000 		.4byte	.LVL76
 8791 03cd 1C000000 		.4byte	.LVL77
 8792 03d1 0600     		.2byte	0x6
 8793 03d3 0C       		.byte	0xc
 8794 03d4 80033240 		.4byte	0x40320380
 8795 03d8 9F       		.byte	0x9f
 8796 03d9 00000000 		.4byte	0
 8797 03dd 00000000 		.4byte	0
 8798              	.LLST22:
ARM GAS  C:\Users\haske\AppData\Local\Temp\ccWSfRiA.s 			page 211


 8799 03e1 1C000000 		.4byte	.LVL77
 8800 03e5 28000000 		.4byte	.LVL78
 8801 03e9 0200     		.2byte	0x2
 8802 03eb 31       		.byte	0x31
 8803 03ec 9F       		.byte	0x9f
 8804 03ed 00000000 		.4byte	0
 8805 03f1 00000000 		.4byte	0
 8806              	.LLST23:
 8807 03f5 1C000000 		.4byte	.LVL77
 8808 03f9 28000000 		.4byte	.LVL78
 8809 03fd 0200     		.2byte	0x2
 8810 03ff 32       		.byte	0x32
 8811 0400 9F       		.byte	0x9f
 8812 0401 00000000 		.4byte	0
 8813 0405 00000000 		.4byte	0
 8814              	.LLST24:
 8815 0409 1C000000 		.4byte	.LVL77
 8816 040d 28000000 		.4byte	.LVL78
 8817 0411 0600     		.2byte	0x6
 8818 0413 0C       		.byte	0xc
 8819 0414 00053240 		.4byte	0x40320500
 8820 0418 9F       		.byte	0x9f
 8821 0419 00000000 		.4byte	0
 8822 041d 00000000 		.4byte	0
 8823              	.LLST25:
 8824 0421 28000000 		.4byte	.LVL78
 8825 0425 30000000 		.4byte	.LVL79
 8826 0429 0200     		.2byte	0x2
 8827 042b 31       		.byte	0x31
 8828 042c 9F       		.byte	0x9f
 8829 042d 00000000 		.4byte	0
 8830 0431 00000000 		.4byte	0
 8831              	.LLST26:
 8832 0435 28000000 		.4byte	.LVL78
 8833 0439 30000000 		.4byte	.LVL79
 8834 043d 0200     		.2byte	0x2
 8835 043f 37       		.byte	0x37
 8836 0440 9F       		.byte	0x9f
 8837 0441 00000000 		.4byte	0
 8838 0445 00000000 		.4byte	0
 8839              	.LLST27:
 8840 0449 28000000 		.4byte	.LVL78
 8841 044d 30000000 		.4byte	.LVL79
 8842 0451 0600     		.2byte	0x6
 8843 0453 0C       		.byte	0xc
 8844 0454 00063240 		.4byte	0x40320600
 8845 0458 9F       		.byte	0x9f
 8846 0459 00000000 		.4byte	0
 8847 045d 00000000 		.4byte	0
 8848              	.LLST28:
 8849 0461 38000000 		.4byte	.LVL80
 8850 0465 3C000000 		.4byte	.LVL81
 8851 0469 0200     		.2byte	0x2
 8852 046b 30       		.byte	0x30
 8853 046c 9F       		.byte	0x9f
 8854 046d 00000000 		.4byte	0
 8855 0471 00000000 		.4byte	0
ARM GAS  C:\Users\haske\AppData\Local\Temp\ccWSfRiA.s 			page 212


 8856              	.LLST29:
 8857 0475 38000000 		.4byte	.LVL80
 8858 0479 3C000000 		.4byte	.LVL81
 8859 047d 0200     		.2byte	0x2
 8860 047f 32       		.byte	0x32
 8861 0480 9F       		.byte	0x9f
 8862 0481 00000000 		.4byte	0
 8863 0485 00000000 		.4byte	0
 8864              	.LLST30:
 8865 0489 38000000 		.4byte	.LVL80
 8866 048d 3C000000 		.4byte	.LVL81
 8867 0491 0600     		.2byte	0x6
 8868 0493 0C       		.byte	0xc
 8869 0494 00053240 		.4byte	0x40320500
 8870 0498 9F       		.byte	0x9f
 8871 0499 00000000 		.4byte	0
 8872 049d 00000000 		.4byte	0
 8873              	.LLST31:
 8874 04a1 3C000000 		.4byte	.LVL81
 8875 04a5 40000000 		.4byte	.LVL82
 8876 04a9 0200     		.2byte	0x2
 8877 04ab 30       		.byte	0x30
 8878 04ac 9F       		.byte	0x9f
 8879 04ad 00000000 		.4byte	0
 8880 04b1 00000000 		.4byte	0
 8881              	.LLST32:
 8882 04b5 3C000000 		.4byte	.LVL81
 8883 04b9 40000000 		.4byte	.LVL82
 8884 04bd 0200     		.2byte	0x2
 8885 04bf 37       		.byte	0x37
 8886 04c0 9F       		.byte	0x9f
 8887 04c1 00000000 		.4byte	0
 8888 04c5 00000000 		.4byte	0
 8889              	.LLST33:
 8890 04c9 3C000000 		.4byte	.LVL81
 8891 04cd 40000000 		.4byte	.LVL82
 8892 04d1 0600     		.2byte	0x6
 8893 04d3 0C       		.byte	0xc
 8894 04d4 00063240 		.4byte	0x40320600
 8895 04d8 9F       		.byte	0x9f
 8896 04d9 00000000 		.4byte	0
 8897 04dd 00000000 		.4byte	0
 8898              	.LLST34:
 8899 04e1 40000000 		.4byte	.LVL82
 8900 04e5 44000000 		.4byte	.LVL83
 8901 04e9 0200     		.2byte	0x2
 8902 04eb 30       		.byte	0x30
 8903 04ec 9F       		.byte	0x9f
 8904 04ed 00000000 		.4byte	0
 8905 04f1 00000000 		.4byte	0
 8906              	.LLST35:
 8907 04f5 40000000 		.4byte	.LVL82
 8908 04f9 44000000 		.4byte	.LVL83
 8909 04fd 0200     		.2byte	0x2
 8910 04ff 33       		.byte	0x33
 8911 0500 9F       		.byte	0x9f
 8912 0501 00000000 		.4byte	0
ARM GAS  C:\Users\haske\AppData\Local\Temp\ccWSfRiA.s 			page 213


 8913 0505 00000000 		.4byte	0
 8914              	.LLST36:
 8915 0509 40000000 		.4byte	.LVL82
 8916 050d 44000000 		.4byte	.LVL83
 8917 0511 0600     		.2byte	0x6
 8918 0513 0C       		.byte	0xc
 8919 0514 00033240 		.4byte	0x40320300
 8920 0518 9F       		.byte	0x9f
 8921 0519 00000000 		.4byte	0
 8922 051d 00000000 		.4byte	0
 8923              	.LLST37:
 8924 0521 44000000 		.4byte	.LVL83
 8925 0525 46000000 		.4byte	.LVL84
 8926 0529 0200     		.2byte	0x2
 8927 052b 30       		.byte	0x30
 8928 052c 9F       		.byte	0x9f
 8929 052d 00000000 		.4byte	0
 8930 0531 00000000 		.4byte	0
 8931              	.LLST38:
 8932 0535 44000000 		.4byte	.LVL83
 8933 0539 46000000 		.4byte	.LVL84
 8934 053d 0200     		.2byte	0x2
 8935 053f 37       		.byte	0x37
 8936 0540 9F       		.byte	0x9f
 8937 0541 00000000 		.4byte	0
 8938 0545 00000000 		.4byte	0
 8939              	.LLST39:
 8940 0549 44000000 		.4byte	.LVL83
 8941 054d 46000000 		.4byte	.LVL84
 8942 0551 0600     		.2byte	0x6
 8943 0553 0C       		.byte	0xc
 8944 0554 80033240 		.4byte	0x40320380
 8945 0558 9F       		.byte	0x9f
 8946 0559 00000000 		.4byte	0
 8947 055d 00000000 		.4byte	0
 8948              	.LLST40:
 8949 0561 4C000000 		.4byte	.LVL85
 8950 0565 50000000 		.4byte	.LVL86
 8951 0569 0200     		.2byte	0x2
 8952 056b 31       		.byte	0x31
 8953 056c 9F       		.byte	0x9f
 8954 056d 00000000 		.4byte	0
 8955 0571 00000000 		.4byte	0
 8956              	.LLST41:
 8957 0575 4C000000 		.4byte	.LVL85
 8958 0579 50000000 		.4byte	.LVL86
 8959 057d 0200     		.2byte	0x2
 8960 057f 33       		.byte	0x33
 8961 0580 9F       		.byte	0x9f
 8962 0581 00000000 		.4byte	0
 8963 0585 00000000 		.4byte	0
 8964              	.LLST42:
 8965 0589 4C000000 		.4byte	.LVL85
 8966 058d 50000000 		.4byte	.LVL86
 8967 0591 0600     		.2byte	0x6
 8968 0593 0C       		.byte	0xc
 8969 0594 00033240 		.4byte	0x40320300
ARM GAS  C:\Users\haske\AppData\Local\Temp\ccWSfRiA.s 			page 214


 8970 0598 9F       		.byte	0x9f
 8971 0599 00000000 		.4byte	0
 8972 059d 00000000 		.4byte	0
 8973              	.LLST43:
 8974 05a1 50000000 		.4byte	.LVL86
 8975 05a5 52000000 		.4byte	.LVL87
 8976 05a9 0200     		.2byte	0x2
 8977 05ab 31       		.byte	0x31
 8978 05ac 9F       		.byte	0x9f
 8979 05ad 00000000 		.4byte	0
 8980 05b1 00000000 		.4byte	0
 8981              	.LLST44:
 8982 05b5 50000000 		.4byte	.LVL86
 8983 05b9 52000000 		.4byte	.LVL87
 8984 05bd 0200     		.2byte	0x2
 8985 05bf 37       		.byte	0x37
 8986 05c0 9F       		.byte	0x9f
 8987 05c1 00000000 		.4byte	0
 8988 05c5 00000000 		.4byte	0
 8989              	.LLST45:
 8990 05c9 50000000 		.4byte	.LVL86
 8991 05cd 52000000 		.4byte	.LVL87
 8992 05d1 0600     		.2byte	0x6
 8993 05d3 0C       		.byte	0xc
 8994 05d4 80033240 		.4byte	0x40320380
 8995 05d8 9F       		.byte	0x9f
 8996 05d9 00000000 		.4byte	0
 8997 05dd 00000000 		.4byte	0
 8998              	.LLST46:
 8999 05e1 52000000 		.4byte	.LVL87
 9000 05e5 5A000000 		.4byte	.LVL88
 9001 05e9 0200     		.2byte	0x2
 9002 05eb 31       		.byte	0x31
 9003 05ec 9F       		.byte	0x9f
 9004 05ed 00000000 		.4byte	0
 9005 05f1 00000000 		.4byte	0
 9006              	.LLST47:
 9007 05f5 52000000 		.4byte	.LVL87
 9008 05f9 5A000000 		.4byte	.LVL88
 9009 05fd 0200     		.2byte	0x2
 9010 05ff 36       		.byte	0x36
 9011 0600 9F       		.byte	0x9f
 9012 0601 00000000 		.4byte	0
 9013 0605 00000000 		.4byte	0
 9014              	.LLST48:
 9015 0609 52000000 		.4byte	.LVL87
 9016 060d 5A000000 		.4byte	.LVL88
 9017 0611 0600     		.2byte	0x6
 9018 0613 0C       		.byte	0xc
 9019 0614 00063240 		.4byte	0x40320600
 9020 0618 9F       		.byte	0x9f
 9021 0619 00000000 		.4byte	0
 9022 061d 00000000 		.4byte	0
 9023              	.LLST49:
 9024 0621 5A000000 		.4byte	.LVL88
 9025 0625 64000000 		.4byte	.LVL89
 9026 0629 0200     		.2byte	0x2
ARM GAS  C:\Users\haske\AppData\Local\Temp\ccWSfRiA.s 			page 215


 9027 062b 31       		.byte	0x31
 9028 062c 9F       		.byte	0x9f
 9029 062d 00000000 		.4byte	0
 9030 0631 00000000 		.4byte	0
 9031              	.LLST50:
 9032 0635 5A000000 		.4byte	.LVL88
 9033 0639 64000000 		.4byte	.LVL89
 9034 063d 0200     		.2byte	0x2
 9035 063f 35       		.byte	0x35
 9036 0640 9F       		.byte	0x9f
 9037 0641 00000000 		.4byte	0
 9038 0645 00000000 		.4byte	0
 9039              	.LLST51:
 9040 0649 5A000000 		.4byte	.LVL88
 9041 064d 64000000 		.4byte	.LVL89
 9042 0651 0600     		.2byte	0x6
 9043 0653 0C       		.byte	0xc
 9044 0654 80023240 		.4byte	0x40320280
 9045 0658 9F       		.byte	0x9f
 9046 0659 00000000 		.4byte	0
 9047 065d 00000000 		.4byte	0
 9048              	.LLST52:
 9049 0661 6A000000 		.4byte	.LVL90
 9050 0665 6E000000 		.4byte	.LVL91
 9051 0669 0200     		.2byte	0x2
 9052 066b 30       		.byte	0x30
 9053 066c 9F       		.byte	0x9f
 9054 066d 00000000 		.4byte	0
 9055 0671 00000000 		.4byte	0
 9056              	.LLST53:
 9057 0675 6A000000 		.4byte	.LVL90
 9058 0679 6E000000 		.4byte	.LVL91
 9059 067d 0200     		.2byte	0x2
 9060 067f 36       		.byte	0x36
 9061 0680 9F       		.byte	0x9f
 9062 0681 00000000 		.4byte	0
 9063 0685 00000000 		.4byte	0
 9064              	.LLST54:
 9065 0689 6A000000 		.4byte	.LVL90
 9066 068d 6E000000 		.4byte	.LVL91
 9067 0691 0600     		.2byte	0x6
 9068 0693 0C       		.byte	0xc
 9069 0694 00063240 		.4byte	0x40320600
 9070 0698 9F       		.byte	0x9f
 9071 0699 00000000 		.4byte	0
 9072 069d 00000000 		.4byte	0
 9073              	.LLST55:
 9074 06a1 6E000000 		.4byte	.LVL91
 9075 06a5 74000000 		.4byte	.LVL92
 9076 06a9 0200     		.2byte	0x2
 9077 06ab 30       		.byte	0x30
 9078 06ac 9F       		.byte	0x9f
 9079 06ad 00000000 		.4byte	0
 9080 06b1 00000000 		.4byte	0
 9081              	.LLST56:
 9082 06b5 6E000000 		.4byte	.LVL91
 9083 06b9 74000000 		.4byte	.LVL92
ARM GAS  C:\Users\haske\AppData\Local\Temp\ccWSfRiA.s 			page 216


 9084 06bd 0200     		.2byte	0x2
 9085 06bf 35       		.byte	0x35
 9086 06c0 9F       		.byte	0x9f
 9087 06c1 00000000 		.4byte	0
 9088 06c5 00000000 		.4byte	0
 9089              	.LLST57:
 9090 06c9 6E000000 		.4byte	.LVL91
 9091 06cd 74000000 		.4byte	.LVL92
 9092 06d1 0600     		.2byte	0x6
 9093 06d3 0C       		.byte	0xc
 9094 06d4 80023240 		.4byte	0x40320280
 9095 06d8 9F       		.byte	0x9f
 9096 06d9 00000000 		.4byte	0
 9097 06dd 00000000 		.4byte	0
 9098              	.LLST58:
 9099 06e1 74000000 		.4byte	.LVL92
 9100 06e5 78000000 		.4byte	.LVL93
 9101 06e9 0200     		.2byte	0x2
 9102 06eb 30       		.byte	0x30
 9103 06ec 9F       		.byte	0x9f
 9104 06ed 00000000 		.4byte	0
 9105 06f1 00000000 		.4byte	0
 9106              	.LLST59:
 9107 06f5 74000000 		.4byte	.LVL92
 9108 06f9 78000000 		.4byte	.LVL93
 9109 06fd 0200     		.2byte	0x2
 9110 06ff 33       		.byte	0x33
 9111 0700 9F       		.byte	0x9f
 9112 0701 00000000 		.4byte	0
 9113 0705 00000000 		.4byte	0
 9114              	.LLST60:
 9115 0709 74000000 		.4byte	.LVL92
 9116 070d 78000000 		.4byte	.LVL93
 9117 0711 0600     		.2byte	0x6
 9118 0713 0C       		.byte	0xc
 9119 0714 00033240 		.4byte	0x40320300
 9120 0718 9F       		.byte	0x9f
 9121 0719 00000000 		.4byte	0
 9122 071d 00000000 		.4byte	0
 9123              	.LLST61:
 9124 0721 78000000 		.4byte	.LVL93
 9125 0725 7A000000 		.4byte	.LVL94
 9126 0729 0200     		.2byte	0x2
 9127 072b 30       		.byte	0x30
 9128 072c 9F       		.byte	0x9f
 9129 072d 00000000 		.4byte	0
 9130 0731 00000000 		.4byte	0
 9131              	.LLST62:
 9132 0735 78000000 		.4byte	.LVL93
 9133 0739 7A000000 		.4byte	.LVL94
 9134 073d 0200     		.2byte	0x2
 9135 073f 37       		.byte	0x37
 9136 0740 9F       		.byte	0x9f
 9137 0741 00000000 		.4byte	0
 9138 0745 00000000 		.4byte	0
 9139              	.LLST63:
 9140 0749 78000000 		.4byte	.LVL93
ARM GAS  C:\Users\haske\AppData\Local\Temp\ccWSfRiA.s 			page 217


 9141 074d 7A000000 		.4byte	.LVL94
 9142 0751 0600     		.2byte	0x6
 9143 0753 0C       		.byte	0xc
 9144 0754 80033240 		.4byte	0x40320380
 9145 0758 9F       		.byte	0x9f
 9146 0759 00000000 		.4byte	0
 9147 075d 00000000 		.4byte	0
 9148              	.LLST64:
 9149 0761 00000000 		.4byte	.LVL95
 9150 0765 02000000 		.4byte	.LVL96
 9151 0769 0100     		.2byte	0x1
 9152 076b 50       		.byte	0x50
 9153 076c 02000000 		.4byte	.LVL96
 9154 0770 88000000 		.4byte	.LFE976
 9155 0774 0300     		.2byte	0x3
 9156 0776 70       		.byte	0x70
 9157 0777 01       		.sleb128 1
 9158 0778 9F       		.byte	0x9f
 9159 0779 00000000 		.4byte	0
 9160 077d 00000000 		.4byte	0
 9161              	.LLST65:
 9162 0781 00000000 		.4byte	.LVL97
 9163 0785 02000000 		.4byte	.LVL98
 9164 0789 0100     		.2byte	0x1
 9165 078b 50       		.byte	0x50
 9166 078c 02000000 		.4byte	.LVL98
 9167 0790 84000000 		.4byte	.LFE977
 9168 0794 0300     		.2byte	0x3
 9169 0796 70       		.byte	0x70
 9170 0797 01       		.sleb128 1
 9171 0798 9F       		.byte	0x9f
 9172 0799 00000000 		.4byte	0
 9173 079d 00000000 		.4byte	0
 9174              	.LLST66:
 9175 07a1 00000000 		.4byte	.LVL99
 9176 07a5 07000000 		.4byte	.LVL100-1
 9177 07a9 0100     		.2byte	0x1
 9178 07ab 50       		.byte	0x50
 9179 07ac 07000000 		.4byte	.LVL100-1
 9180 07b0 20000000 		.4byte	.LVL103
 9181 07b4 0400     		.2byte	0x4
 9182 07b6 F3       		.byte	0xf3
 9183 07b7 01       		.uleb128 0x1
 9184 07b8 50       		.byte	0x50
 9185 07b9 9F       		.byte	0x9f
 9186 07ba 20000000 		.4byte	.LVL103
 9187 07be 25000000 		.4byte	.LVL104-1
 9188 07c2 0100     		.2byte	0x1
 9189 07c4 50       		.byte	0x50
 9190 07c5 25000000 		.4byte	.LVL104-1
 9191 07c9 C0000000 		.4byte	.LVL130
 9192 07cd 0100     		.2byte	0x1
 9193 07cf 54       		.byte	0x54
 9194 07d0 C0000000 		.4byte	.LVL130
 9195 07d4 C8000000 		.4byte	.LFE978
 9196 07d8 0300     		.2byte	0x3
 9197 07da 70       		.byte	0x70
ARM GAS  C:\Users\haske\AppData\Local\Temp\ccWSfRiA.s 			page 218


 9198 07db 01       		.sleb128 1
 9199 07dc 9F       		.byte	0x9f
 9200 07dd 00000000 		.4byte	0
 9201 07e1 00000000 		.4byte	0
 9202              	.LLST67:
 9203 07e5 08000000 		.4byte	.LVL100
 9204 07e9 10000000 		.4byte	.LVL101
 9205 07ed 0200     		.2byte	0x2
 9206 07ef 30       		.byte	0x30
 9207 07f0 9F       		.byte	0x9f
 9208 07f1 00000000 		.4byte	0
 9209 07f5 00000000 		.4byte	0
 9210              	.LLST69:
 9211 07f9 08000000 		.4byte	.LVL100
 9212 07fd 10000000 		.4byte	.LVL101
 9213 0801 0200     		.2byte	0x2
 9214 0803 37       		.byte	0x37
 9215 0804 9F       		.byte	0x9f
 9216 0805 00000000 		.4byte	0
 9217 0809 00000000 		.4byte	0
 9218              	.LLST70:
 9219 080d 08000000 		.4byte	.LVL100
 9220 0811 10000000 		.4byte	.LVL101
 9221 0815 0600     		.2byte	0x6
 9222 0817 0C       		.byte	0xc
 9223 0818 00003840 		.4byte	0x40380000
 9224 081c 9F       		.byte	0x9f
 9225 081d 00000000 		.4byte	0
 9226 0821 00000000 		.4byte	0
 9227              	.LLST71:
 9228 0825 50000000 		.4byte	.LVL108
 9229 0829 5A000000 		.4byte	.LVL110
 9230 082d 0200     		.2byte	0x2
 9231 082f 31       		.byte	0x31
 9232 0830 9F       		.byte	0x9f
 9233 0831 00000000 		.4byte	0
 9234 0835 00000000 		.4byte	0
 9235              	.LLST72:
 9236 0839 50000000 		.4byte	.LVL108
 9237 083d 58000000 		.4byte	.LVL109
 9238 0841 0200     		.2byte	0x2
 9239 0843 31       		.byte	0x31
 9240 0844 9F       		.byte	0x9f
 9241 0845 00000000 		.4byte	0
 9242 0849 00000000 		.4byte	0
 9243              	.LLST73:
 9244 084d 50000000 		.4byte	.LVL108
 9245 0851 58000000 		.4byte	.LVL109
 9246 0855 0200     		.2byte	0x2
 9247 0857 37       		.byte	0x37
 9248 0858 9F       		.byte	0x9f
 9249 0859 00000000 		.4byte	0
 9250 085d 00000000 		.4byte	0
 9251              	.LLST74:
 9252 0861 50000000 		.4byte	.LVL108
 9253 0865 58000000 		.4byte	.LVL109
 9254 0869 0600     		.2byte	0x6
ARM GAS  C:\Users\haske\AppData\Local\Temp\ccWSfRiA.s 			page 219


 9255 086b 0C       		.byte	0xc
 9256 086c 00003840 		.4byte	0x40380000
 9257 0870 9F       		.byte	0x9f
 9258 0871 00000000 		.4byte	0
 9259 0875 00000000 		.4byte	0
 9260              	.LLST75:
 9261 0879 5A000000 		.4byte	.LVL110
 9262 087d 64000000 		.4byte	.LVL112
 9263 0881 0200     		.2byte	0x2
 9264 0883 38       		.byte	0x38
 9265 0884 9F       		.byte	0x9f
 9266 0885 00000000 		.4byte	0
 9267 0889 00000000 		.4byte	0
 9268              	.LLST76:
 9269 088d 5A000000 		.4byte	.LVL110
 9270 0891 62000000 		.4byte	.LVL111
 9271 0895 0200     		.2byte	0x2
 9272 0897 38       		.byte	0x38
 9273 0898 9F       		.byte	0x9f
 9274 0899 00000000 		.4byte	0
 9275 089d 00000000 		.4byte	0
 9276              	.LLST77:
 9277 08a1 5A000000 		.4byte	.LVL110
 9278 08a5 62000000 		.4byte	.LVL111
 9279 08a9 0200     		.2byte	0x2
 9280 08ab 37       		.byte	0x37
 9281 08ac 9F       		.byte	0x9f
 9282 08ad 00000000 		.4byte	0
 9283 08b1 00000000 		.4byte	0
 9284              	.LLST78:
 9285 08b5 5A000000 		.4byte	.LVL110
 9286 08b9 62000000 		.4byte	.LVL111
 9287 08bd 0600     		.2byte	0x6
 9288 08bf 0C       		.byte	0xc
 9289 08c0 00003840 		.4byte	0x40380000
 9290 08c4 9F       		.byte	0x9f
 9291 08c5 00000000 		.4byte	0
 9292 08c9 00000000 		.4byte	0
 9293              	.LLST79:
 9294 08cd 64000000 		.4byte	.LVL112
 9295 08d1 6E000000 		.4byte	.LVL114
 9296 08d5 0200     		.2byte	0x2
 9297 08d7 45       		.byte	0x45
 9298 08d8 9F       		.byte	0x9f
 9299 08d9 00000000 		.4byte	0
 9300 08dd 00000000 		.4byte	0
 9301              	.LLST80:
 9302 08e1 64000000 		.4byte	.LVL112
 9303 08e5 6C000000 		.4byte	.LVL113
 9304 08e9 0200     		.2byte	0x2
 9305 08eb 45       		.byte	0x45
 9306 08ec 9F       		.byte	0x9f
 9307 08ed 00000000 		.4byte	0
 9308 08f1 00000000 		.4byte	0
 9309              	.LLST81:
 9310 08f5 64000000 		.4byte	.LVL112
 9311 08f9 6C000000 		.4byte	.LVL113
ARM GAS  C:\Users\haske\AppData\Local\Temp\ccWSfRiA.s 			page 220


 9312 08fd 0200     		.2byte	0x2
 9313 08ff 37       		.byte	0x37
 9314 0900 9F       		.byte	0x9f
 9315 0901 00000000 		.4byte	0
 9316 0905 00000000 		.4byte	0
 9317              	.LLST82:
 9318 0909 64000000 		.4byte	.LVL112
 9319 090d 6C000000 		.4byte	.LVL113
 9320 0911 0600     		.2byte	0x6
 9321 0913 0C       		.byte	0xc
 9322 0914 00003840 		.4byte	0x40380000
 9323 0918 9F       		.byte	0x9f
 9324 0919 00000000 		.4byte	0
 9325 091d 00000000 		.4byte	0
 9326              	.LLST83:
 9327 0921 6E000000 		.4byte	.LVL114
 9328 0925 78000000 		.4byte	.LVL116
 9329 0929 0300     		.2byte	0x3
 9330 092b 08       		.byte	0x8
 9331 092c 21       		.byte	0x21
 9332 092d 9F       		.byte	0x9f
 9333 092e 00000000 		.4byte	0
 9334 0932 00000000 		.4byte	0
 9335              	.LLST84:
 9336 0936 6E000000 		.4byte	.LVL114
 9337 093a 76000000 		.4byte	.LVL115
 9338 093e 0300     		.2byte	0x3
 9339 0940 08       		.byte	0x8
 9340 0941 21       		.byte	0x21
 9341 0942 9F       		.byte	0x9f
 9342 0943 00000000 		.4byte	0
 9343 0947 00000000 		.4byte	0
 9344              	.LLST85:
 9345 094b 6E000000 		.4byte	.LVL114
 9346 094f 76000000 		.4byte	.LVL115
 9347 0953 0200     		.2byte	0x2
 9348 0955 37       		.byte	0x37
 9349 0956 9F       		.byte	0x9f
 9350 0957 00000000 		.4byte	0
 9351 095b 00000000 		.4byte	0
 9352              	.LLST86:
 9353 095f 6E000000 		.4byte	.LVL114
 9354 0963 76000000 		.4byte	.LVL115
 9355 0967 0600     		.2byte	0x6
 9356 0969 0C       		.byte	0xc
 9357 096a 00003840 		.4byte	0x40380000
 9358 096e 9F       		.byte	0x9f
 9359 096f 00000000 		.4byte	0
 9360 0973 00000000 		.4byte	0
 9361              	.LLST87:
 9362 0977 78000000 		.4byte	.LVL116
 9363 097b 82000000 		.4byte	.LVL118
 9364 097f 0300     		.2byte	0x3
 9365 0981 08       		.byte	0x8
 9366 0982 2D       		.byte	0x2d
 9367 0983 9F       		.byte	0x9f
 9368 0984 00000000 		.4byte	0
ARM GAS  C:\Users\haske\AppData\Local\Temp\ccWSfRiA.s 			page 221


 9369 0988 00000000 		.4byte	0
 9370              	.LLST88:
 9371 098c 78000000 		.4byte	.LVL116
 9372 0990 80000000 		.4byte	.LVL117
 9373 0994 0300     		.2byte	0x3
 9374 0996 08       		.byte	0x8
 9375 0997 2D       		.byte	0x2d
 9376 0998 9F       		.byte	0x9f
 9377 0999 00000000 		.4byte	0
 9378 099d 00000000 		.4byte	0
 9379              	.LLST89:
 9380 09a1 78000000 		.4byte	.LVL116
 9381 09a5 80000000 		.4byte	.LVL117
 9382 09a9 0200     		.2byte	0x2
 9383 09ab 37       		.byte	0x37
 9384 09ac 9F       		.byte	0x9f
 9385 09ad 00000000 		.4byte	0
 9386 09b1 00000000 		.4byte	0
 9387              	.LLST90:
 9388 09b5 78000000 		.4byte	.LVL116
 9389 09b9 80000000 		.4byte	.LVL117
 9390 09bd 0600     		.2byte	0x6
 9391 09bf 0C       		.byte	0xc
 9392 09c0 00003840 		.4byte	0x40380000
 9393 09c4 9F       		.byte	0x9f
 9394 09c5 00000000 		.4byte	0
 9395 09c9 00000000 		.4byte	0
 9396              	.LLST91:
 9397 09cd 82000000 		.4byte	.LVL118
 9398 09d1 8C000000 		.4byte	.LVL120
 9399 09d5 0300     		.2byte	0x3
 9400 09d7 08       		.byte	0x8
 9401 09d8 3A       		.byte	0x3a
 9402 09d9 9F       		.byte	0x9f
 9403 09da 00000000 		.4byte	0
 9404 09de 00000000 		.4byte	0
 9405              	.LLST92:
 9406 09e2 82000000 		.4byte	.LVL118
 9407 09e6 8A000000 		.4byte	.LVL119
 9408 09ea 0300     		.2byte	0x3
 9409 09ec 08       		.byte	0x8
 9410 09ed 3A       		.byte	0x3a
 9411 09ee 9F       		.byte	0x9f
 9412 09ef 00000000 		.4byte	0
 9413 09f3 00000000 		.4byte	0
 9414              	.LLST93:
 9415 09f7 82000000 		.4byte	.LVL118
 9416 09fb 8A000000 		.4byte	.LVL119
 9417 09ff 0200     		.2byte	0x2
 9418 0a01 37       		.byte	0x37
 9419 0a02 9F       		.byte	0x9f
 9420 0a03 00000000 		.4byte	0
 9421 0a07 00000000 		.4byte	0
 9422              	.LLST94:
 9423 0a0b 82000000 		.4byte	.LVL118
 9424 0a0f 8A000000 		.4byte	.LVL119
 9425 0a13 0600     		.2byte	0x6
ARM GAS  C:\Users\haske\AppData\Local\Temp\ccWSfRiA.s 			page 222


 9426 0a15 0C       		.byte	0xc
 9427 0a16 00003840 		.4byte	0x40380000
 9428 0a1a 9F       		.byte	0x9f
 9429 0a1b 00000000 		.4byte	0
 9430 0a1f 00000000 		.4byte	0
 9431              	.LLST95:
 9432 0a23 8C000000 		.4byte	.LVL120
 9433 0a27 96000000 		.4byte	.LVL122
 9434 0a2b 0300     		.2byte	0x3
 9435 0a2d 08       		.byte	0x8
 9436 0a2e 47       		.byte	0x47
 9437 0a2f 9F       		.byte	0x9f
 9438 0a30 00000000 		.4byte	0
 9439 0a34 00000000 		.4byte	0
 9440              	.LLST96:
 9441 0a38 8C000000 		.4byte	.LVL120
 9442 0a3c 94000000 		.4byte	.LVL121
 9443 0a40 0300     		.2byte	0x3
 9444 0a42 08       		.byte	0x8
 9445 0a43 47       		.byte	0x47
 9446 0a44 9F       		.byte	0x9f
 9447 0a45 00000000 		.4byte	0
 9448 0a49 00000000 		.4byte	0
 9449              	.LLST97:
 9450 0a4d 8C000000 		.4byte	.LVL120
 9451 0a51 94000000 		.4byte	.LVL121
 9452 0a55 0200     		.2byte	0x2
 9453 0a57 37       		.byte	0x37
 9454 0a58 9F       		.byte	0x9f
 9455 0a59 00000000 		.4byte	0
 9456 0a5d 00000000 		.4byte	0
 9457              	.LLST98:
 9458 0a61 8C000000 		.4byte	.LVL120
 9459 0a65 94000000 		.4byte	.LVL121
 9460 0a69 0600     		.2byte	0x6
 9461 0a6b 0C       		.byte	0xc
 9462 0a6c 00003840 		.4byte	0x40380000
 9463 0a70 9F       		.byte	0x9f
 9464 0a71 00000000 		.4byte	0
 9465 0a75 00000000 		.4byte	0
 9466              	.LLST99:
 9467 0a79 96000000 		.4byte	.LVL122
 9468 0a7d A0000000 		.4byte	.LVL124
 9469 0a81 0300     		.2byte	0x3
 9470 0a83 08       		.byte	0x8
 9471 0a84 53       		.byte	0x53
 9472 0a85 9F       		.byte	0x9f
 9473 0a86 00000000 		.4byte	0
 9474 0a8a 00000000 		.4byte	0
 9475              	.LLST100:
 9476 0a8e 96000000 		.4byte	.LVL122
 9477 0a92 9E000000 		.4byte	.LVL123
 9478 0a96 0300     		.2byte	0x3
 9479 0a98 08       		.byte	0x8
 9480 0a99 53       		.byte	0x53
 9481 0a9a 9F       		.byte	0x9f
 9482 0a9b 00000000 		.4byte	0
ARM GAS  C:\Users\haske\AppData\Local\Temp\ccWSfRiA.s 			page 223


 9483 0a9f 00000000 		.4byte	0
 9484              	.LLST101:
 9485 0aa3 96000000 		.4byte	.LVL122
 9486 0aa7 9E000000 		.4byte	.LVL123
 9487 0aab 0200     		.2byte	0x2
 9488 0aad 37       		.byte	0x37
 9489 0aae 9F       		.byte	0x9f
 9490 0aaf 00000000 		.4byte	0
 9491 0ab3 00000000 		.4byte	0
 9492              	.LLST102:
 9493 0ab7 96000000 		.4byte	.LVL122
 9494 0abb 9E000000 		.4byte	.LVL123
 9495 0abf 0600     		.2byte	0x6
 9496 0ac1 0C       		.byte	0xc
 9497 0ac2 00003840 		.4byte	0x40380000
 9498 0ac6 9F       		.byte	0x9f
 9499 0ac7 00000000 		.4byte	0
 9500 0acb 00000000 		.4byte	0
 9501              	.LLST103:
 9502 0acf A0000000 		.4byte	.LVL124
 9503 0ad3 AA000000 		.4byte	.LVL126
 9504 0ad7 0300     		.2byte	0x3
 9505 0ad9 08       		.byte	0x8
 9506 0ada 7C       		.byte	0x7c
 9507 0adb 9F       		.byte	0x9f
 9508 0adc 00000000 		.4byte	0
 9509 0ae0 00000000 		.4byte	0
 9510              	.LLST104:
 9511 0ae4 A0000000 		.4byte	.LVL124
 9512 0ae8 A8000000 		.4byte	.LVL125
 9513 0aec 0300     		.2byte	0x3
 9514 0aee 08       		.byte	0x8
 9515 0aef 7C       		.byte	0x7c
 9516 0af0 9F       		.byte	0x9f
 9517 0af1 00000000 		.4byte	0
 9518 0af5 00000000 		.4byte	0
 9519              	.LLST105:
 9520 0af9 A0000000 		.4byte	.LVL124
 9521 0afd A8000000 		.4byte	.LVL125
 9522 0b01 0200     		.2byte	0x2
 9523 0b03 37       		.byte	0x37
 9524 0b04 9F       		.byte	0x9f
 9525 0b05 00000000 		.4byte	0
 9526 0b09 00000000 		.4byte	0
 9527              	.LLST106:
 9528 0b0d A0000000 		.4byte	.LVL124
 9529 0b11 A8000000 		.4byte	.LVL125
 9530 0b15 0600     		.2byte	0x6
 9531 0b17 0C       		.byte	0xc
 9532 0b18 00003840 		.4byte	0x40380000
 9533 0b1c 9F       		.byte	0x9f
 9534 0b1d 00000000 		.4byte	0
 9535 0b21 00000000 		.4byte	0
 9536              	.LLST107:
 9537 0b25 AA000000 		.4byte	.LVL126
 9538 0b29 B6000000 		.4byte	.LVL128
 9539 0b2d 0400     		.2byte	0x4
ARM GAS  C:\Users\haske\AppData\Local\Temp\ccWSfRiA.s 			page 224


 9540 0b2f 0A       		.byte	0xa
 9541 0b30 2E02     		.2byte	0x22e
 9542 0b32 9F       		.byte	0x9f
 9543 0b33 00000000 		.4byte	0
 9544 0b37 00000000 		.4byte	0
 9545              	.LLST108:
 9546 0b3b AA000000 		.4byte	.LVL126
 9547 0b3f B4000000 		.4byte	.LVL127
 9548 0b43 0400     		.2byte	0x4
 9549 0b45 0A       		.byte	0xa
 9550 0b46 2E02     		.2byte	0x22e
 9551 0b48 9F       		.byte	0x9f
 9552 0b49 00000000 		.4byte	0
 9553 0b4d 00000000 		.4byte	0
 9554              	.LLST109:
 9555 0b51 AA000000 		.4byte	.LVL126
 9556 0b55 B4000000 		.4byte	.LVL127
 9557 0b59 0200     		.2byte	0x2
 9558 0b5b 37       		.byte	0x37
 9559 0b5c 9F       		.byte	0x9f
 9560 0b5d 00000000 		.4byte	0
 9561 0b61 00000000 		.4byte	0
 9562              	.LLST110:
 9563 0b65 AA000000 		.4byte	.LVL126
 9564 0b69 B4000000 		.4byte	.LVL127
 9565 0b6d 0600     		.2byte	0x6
 9566 0b6f 0C       		.byte	0xc
 9567 0b70 00003840 		.4byte	0x40380000
 9568 0b74 9F       		.byte	0x9f
 9569 0b75 00000000 		.4byte	0
 9570 0b79 00000000 		.4byte	0
 9571              	.LLST111:
 9572 0b7d B6000000 		.4byte	.LVL128
 9573 0b81 BE000000 		.4byte	.LVL129
 9574 0b85 0200     		.2byte	0x2
 9575 0b87 30       		.byte	0x30
 9576 0b88 9F       		.byte	0x9f
 9577 0b89 00000000 		.4byte	0
 9578 0b8d 00000000 		.4byte	0
 9579              	.LLST112:
 9580 0b91 B6000000 		.4byte	.LVL128
 9581 0b95 BE000000 		.4byte	.LVL129
 9582 0b99 0200     		.2byte	0x2
 9583 0b9b 37       		.byte	0x37
 9584 0b9c 9F       		.byte	0x9f
 9585 0b9d 00000000 		.4byte	0
 9586 0ba1 00000000 		.4byte	0
 9587              	.LLST113:
 9588 0ba5 B6000000 		.4byte	.LVL128
 9589 0ba9 BE000000 		.4byte	.LVL129
 9590 0bad 0600     		.2byte	0x6
 9591 0baf 0C       		.byte	0xc
 9592 0bb0 00003840 		.4byte	0x40380000
 9593 0bb4 9F       		.byte	0x9f
 9594 0bb5 00000000 		.4byte	0
 9595 0bb9 00000000 		.4byte	0
 9596              	.LLST114:
ARM GAS  C:\Users\haske\AppData\Local\Temp\ccWSfRiA.s 			page 225


 9597 0bbd 00000000 		.4byte	.LVL132
 9598 0bc1 0C000000 		.4byte	.LVL133
 9599 0bc5 0100     		.2byte	0x1
 9600 0bc7 50       		.byte	0x50
 9601 0bc8 0C000000 		.4byte	.LVL133
 9602 0bcc 28000000 		.4byte	.LVL135
 9603 0bd0 0400     		.2byte	0x4
 9604 0bd2 F3       		.byte	0xf3
 9605 0bd3 01       		.uleb128 0x1
 9606 0bd4 50       		.byte	0x50
 9607 0bd5 9F       		.byte	0x9f
 9608 0bd6 28000000 		.4byte	.LVL135
 9609 0bda 30000000 		.4byte	.LVL136
 9610 0bde 0100     		.2byte	0x1
 9611 0be0 50       		.byte	0x50
 9612 0be1 30000000 		.4byte	.LVL136
 9613 0be5 40000000 		.4byte	.LFE981
 9614 0be9 0400     		.2byte	0x4
 9615 0beb F3       		.byte	0xf3
 9616 0bec 01       		.uleb128 0x1
 9617 0bed 50       		.byte	0x50
 9618 0bee 9F       		.byte	0x9f
 9619 0bef 00000000 		.4byte	0
 9620 0bf3 00000000 		.4byte	0
 9621              	.LLST115:
 9622 0bf7 00000000 		.4byte	.LVL138
 9623 0bfb 20000000 		.4byte	.LVL143
 9624 0bff 0100     		.2byte	0x1
 9625 0c01 50       		.byte	0x50
 9626 0c02 20000000 		.4byte	.LVL143
 9627 0c06 23000000 		.4byte	.LVL144-1
 9628 0c0a 0100     		.2byte	0x1
 9629 0c0c 53       		.byte	0x53
 9630 0c0d 23000000 		.4byte	.LVL144-1
 9631 0c11 26000000 		.4byte	.LVL145
 9632 0c15 0400     		.2byte	0x4
 9633 0c17 F3       		.byte	0xf3
 9634 0c18 01       		.uleb128 0x1
 9635 0c19 50       		.byte	0x50
 9636 0c1a 9F       		.byte	0x9f
 9637 0c1b 26000000 		.4byte	.LVL145
 9638 0c1f 2A000000 		.4byte	.LVL146
 9639 0c23 0100     		.2byte	0x1
 9640 0c25 50       		.byte	0x50
 9641 0c26 2A000000 		.4byte	.LVL146
 9642 0c2a 2D000000 		.4byte	.LVL147-1
 9643 0c2e 0100     		.2byte	0x1
 9644 0c30 53       		.byte	0x53
 9645 0c31 2D000000 		.4byte	.LVL147-1
 9646 0c35 34000000 		.4byte	.LFE982
 9647 0c39 0400     		.2byte	0x4
 9648 0c3b F3       		.byte	0xf3
 9649 0c3c 01       		.uleb128 0x1
 9650 0c3d 50       		.byte	0x50
 9651 0c3e 9F       		.byte	0x9f
 9652 0c3f 00000000 		.4byte	0
 9653 0c43 00000000 		.4byte	0
ARM GAS  C:\Users\haske\AppData\Local\Temp\ccWSfRiA.s 			page 226


 9654              	.LLST116:
 9655 0c47 06000000 		.4byte	.LVL139
 9656 0c4b 10000000 		.4byte	.LVL141
 9657 0c4f 0200     		.2byte	0x2
 9658 0c51 30       		.byte	0x30
 9659 0c52 9F       		.byte	0x9f
 9660 0c53 00000000 		.4byte	0
 9661 0c57 00000000 		.4byte	0
 9662              	.LLST117:
 9663 0c5b 06000000 		.4byte	.LVL139
 9664 0c5f 0E000000 		.4byte	.LVL140
 9665 0c63 0200     		.2byte	0x2
 9666 0c65 30       		.byte	0x30
 9667 0c66 9F       		.byte	0x9f
 9668 0c67 00000000 		.4byte	0
 9669 0c6b 00000000 		.4byte	0
 9670              	.LLST119:
 9671 0c6f 06000000 		.4byte	.LVL139
 9672 0c73 0E000000 		.4byte	.LVL140
 9673 0c77 0600     		.2byte	0x6
 9674 0c79 0C       		.byte	0xc
 9675 0c7a 00003840 		.4byte	0x40380000
 9676 0c7e 9F       		.byte	0x9f
 9677 0c7f 00000000 		.4byte	0
 9678 0c83 00000000 		.4byte	0
 9679              	.LLST120:
 9680 0c87 10000000 		.4byte	.LVL141
 9681 0c8b 1A000000 		.4byte	.LVL142
 9682 0c8f 0400     		.2byte	0x4
 9683 0c91 0A       		.byte	0xa
 9684 0c92 0101     		.2byte	0x101
 9685 0c94 9F       		.byte	0x9f
 9686 0c95 00000000 		.4byte	0
 9687 0c99 00000000 		.4byte	0
 9688              	.LLST122:
 9689 0c9d 10000000 		.4byte	.LVL141
 9690 0ca1 1A000000 		.4byte	.LVL142
 9691 0ca5 0200     		.2byte	0x2
 9692 0ca7 30       		.byte	0x30
 9693 0ca8 9F       		.byte	0x9f
 9694 0ca9 00000000 		.4byte	0
 9695 0cad 00000000 		.4byte	0
 9696              	.LLST123:
 9697 0cb1 10000000 		.4byte	.LVL141
 9698 0cb5 1A000000 		.4byte	.LVL142
 9699 0cb9 0600     		.2byte	0x6
 9700 0cbb 0C       		.byte	0xc
 9701 0cbc 00003840 		.4byte	0x40380000
 9702 0cc0 9F       		.byte	0x9f
 9703 0cc1 00000000 		.4byte	0
 9704 0cc5 00000000 		.4byte	0
 9705              	.LLST124:
 9706 0cc9 00000000 		.4byte	.LVL148
 9707 0ccd 04000000 		.4byte	.LVL149
 9708 0cd1 0100     		.2byte	0x1
 9709 0cd3 50       		.byte	0x50
 9710 0cd4 04000000 		.4byte	.LVL149
ARM GAS  C:\Users\haske\AppData\Local\Temp\ccWSfRiA.s 			page 227


 9711 0cd8 14000000 		.4byte	.LVL150
 9712 0cdc 0300     		.2byte	0x3
 9713 0cde 70       		.byte	0x70
 9714 0cdf 02       		.sleb128 2
 9715 0ce0 9F       		.byte	0x9f
 9716 0ce1 14000000 		.4byte	.LVL150
 9717 0ce5 3A000000 		.4byte	.LFE983
 9718 0ce9 0400     		.2byte	0x4
 9719 0ceb F3       		.byte	0xf3
 9720 0cec 01       		.uleb128 0x1
 9721 0ced 50       		.byte	0x50
 9722 0cee 9F       		.byte	0x9f
 9723 0cef 00000000 		.4byte	0
 9724 0cf3 00000000 		.4byte	0
 9725              	.LLST125:
 9726 0cf7 00000000 		.4byte	.LVL148
 9727 0cfb 17000000 		.4byte	.LVL151-1
 9728 0cff 0100     		.2byte	0x1
 9729 0d01 51       		.byte	0x51
 9730 0d02 17000000 		.4byte	.LVL151-1
 9731 0d06 1A000000 		.4byte	.LVL152
 9732 0d0a 0400     		.2byte	0x4
 9733 0d0c F3       		.byte	0xf3
 9734 0d0d 01       		.uleb128 0x1
 9735 0d0e 51       		.byte	0x51
 9736 0d0f 9F       		.byte	0x9f
 9737 0d10 1A000000 		.4byte	.LVL152
 9738 0d14 1F000000 		.4byte	.LVL153-1
 9739 0d18 0100     		.2byte	0x1
 9740 0d1a 51       		.byte	0x51
 9741 0d1b 1F000000 		.4byte	.LVL153-1
 9742 0d1f 22000000 		.4byte	.LVL154
 9743 0d23 0400     		.2byte	0x4
 9744 0d25 F3       		.byte	0xf3
 9745 0d26 01       		.uleb128 0x1
 9746 0d27 51       		.byte	0x51
 9747 0d28 9F       		.byte	0x9f
 9748 0d29 22000000 		.4byte	.LVL154
 9749 0d2d 27000000 		.4byte	.LVL155-1
 9750 0d31 0100     		.2byte	0x1
 9751 0d33 51       		.byte	0x51
 9752 0d34 27000000 		.4byte	.LVL155-1
 9753 0d38 2A000000 		.4byte	.LVL156
 9754 0d3c 0400     		.2byte	0x4
 9755 0d3e F3       		.byte	0xf3
 9756 0d3f 01       		.uleb128 0x1
 9757 0d40 51       		.byte	0x51
 9758 0d41 9F       		.byte	0x9f
 9759 0d42 2A000000 		.4byte	.LVL156
 9760 0d46 2F000000 		.4byte	.LVL157-1
 9761 0d4a 0100     		.2byte	0x1
 9762 0d4c 51       		.byte	0x51
 9763 0d4d 2F000000 		.4byte	.LVL157-1
 9764 0d51 32000000 		.4byte	.LVL158
 9765 0d55 0400     		.2byte	0x4
 9766 0d57 F3       		.byte	0xf3
 9767 0d58 01       		.uleb128 0x1
ARM GAS  C:\Users\haske\AppData\Local\Temp\ccWSfRiA.s 			page 228


 9768 0d59 51       		.byte	0x51
 9769 0d5a 9F       		.byte	0x9f
 9770 0d5b 32000000 		.4byte	.LVL158
 9771 0d5f 37000000 		.4byte	.LVL159-1
 9772 0d63 0100     		.2byte	0x1
 9773 0d65 51       		.byte	0x51
 9774 0d66 37000000 		.4byte	.LVL159-1
 9775 0d6a 3A000000 		.4byte	.LFE983
 9776 0d6e 0400     		.2byte	0x4
 9777 0d70 F3       		.byte	0xf3
 9778 0d71 01       		.uleb128 0x1
 9779 0d72 51       		.byte	0x51
 9780 0d73 9F       		.byte	0x9f
 9781 0d74 00000000 		.4byte	0
 9782 0d78 00000000 		.4byte	0
 9783              	.LLST126:
 9784 0d7c 00000000 		.4byte	.LVL160
 9785 0d80 07000000 		.4byte	.LVL161-1
 9786 0d84 0100     		.2byte	0x1
 9787 0d86 50       		.byte	0x50
 9788 0d87 07000000 		.4byte	.LVL161-1
 9789 0d8b 22000000 		.4byte	.LVL164
 9790 0d8f 0100     		.2byte	0x1
 9791 0d91 54       		.byte	0x54
 9792 0d92 22000000 		.4byte	.LVL164
 9793 0d96 70000000 		.4byte	.LVL170
 9794 0d9a 0400     		.2byte	0x4
 9795 0d9c F3       		.byte	0xf3
 9796 0d9d 01       		.uleb128 0x1
 9797 0d9e 50       		.byte	0x50
 9798 0d9f 9F       		.byte	0x9f
 9799 0da0 70000000 		.4byte	.LVL170
 9800 0da4 1A010000 		.4byte	.LVL175
 9801 0da8 0100     		.2byte	0x1
 9802 0daa 54       		.byte	0x54
 9803 0dab 1A010000 		.4byte	.LVL175
 9804 0daf 24010000 		.4byte	.LFE984
 9805 0db3 0400     		.2byte	0x4
 9806 0db5 F3       		.byte	0xf3
 9807 0db6 01       		.uleb128 0x1
 9808 0db7 50       		.byte	0x50
 9809 0db8 9F       		.byte	0x9f
 9810 0db9 00000000 		.4byte	0
 9811 0dbd 00000000 		.4byte	0
 9812              	.LLST127:
 9813 0dc1 04000000 		.4byte	.LVL176
 9814 0dc5 08000000 		.4byte	.LVL177
 9815 0dc9 0200     		.2byte	0x2
 9816 0dcb 30       		.byte	0x30
 9817 0dcc 9F       		.byte	0x9f
 9818 0dcd 08000000 		.4byte	.LVL177
 9819 0dd1 A2000000 		.4byte	.LVL181
 9820 0dd5 0100     		.2byte	0x1
 9821 0dd7 54       		.byte	0x54
 9822 0dd8 A2000000 		.4byte	.LVL181
 9823 0ddc B6000000 		.4byte	.LVL183
 9824 0de0 0100     		.2byte	0x1
ARM GAS  C:\Users\haske\AppData\Local\Temp\ccWSfRiA.s 			page 229


 9825 0de2 52       		.byte	0x52
 9826 0de3 B6000000 		.4byte	.LVL183
 9827 0de7 B8000000 		.4byte	.LVL184
 9828 0deb 0100     		.2byte	0x1
 9829 0ded 54       		.byte	0x54
 9830 0dee B8000000 		.4byte	.LVL184
 9831 0df2 BE000000 		.4byte	.LVL185
 9832 0df6 0100     		.2byte	0x1
 9833 0df8 52       		.byte	0x52
 9834 0df9 C4000000 		.4byte	.LVL186
 9835 0dfd DE000000 		.4byte	.LVL187
 9836 0e01 0100     		.2byte	0x1
 9837 0e03 54       		.byte	0x54
 9838 0e04 00000000 		.4byte	0
 9839 0e08 00000000 		.4byte	0
 9840              	.LLST128:
 9841 0e0c 0C000000 		.4byte	.LVL189
 9842 0e10 12000000 		.4byte	.LVL191
 9843 0e14 0100     		.2byte	0x1
 9844 0e16 53       		.byte	0x53
 9845 0e17 00000000 		.4byte	0
 9846 0e1b 00000000 		.4byte	0
 9847              		.section	.debug_aranges,"",%progbits
 9848 0000 C4000000 		.4byte	0xc4
 9849 0004 0200     		.2byte	0x2
 9850 0006 00000000 		.4byte	.Ldebug_info0
 9851 000a 04       		.byte	0x4
 9852 000b 00       		.byte	0
 9853 000c 0000     		.2byte	0
 9854 000e 0000     		.2byte	0
 9855 0010 00000000 		.4byte	.LFB966
 9856 0014 7C000000 		.4byte	.LFE966-.LFB966
 9857 0018 00000000 		.4byte	.LFB967
 9858 001c 02000000 		.4byte	.LFE967-.LFB967
 9859 0020 00000000 		.4byte	.LFB968
 9860 0024 02000000 		.4byte	.LFE968-.LFB968
 9861 0028 00000000 		.4byte	.LFB969
 9862 002c 02000000 		.4byte	.LFE969-.LFB969
 9863 0030 00000000 		.4byte	.LFB970
 9864 0034 02000000 		.4byte	.LFE970-.LFB970
 9865 0038 00000000 		.4byte	.LFB971
 9866 003c 02000000 		.4byte	.LFE971-.LFB971
 9867 0040 00000000 		.4byte	.LFB972
 9868 0044 24000000 		.4byte	.LFE972-.LFB972
 9869 0048 00000000 		.4byte	.LFB973
 9870 004c E8000000 		.4byte	.LFE973-.LFB973
 9871 0050 00000000 		.4byte	.LFB974
 9872 0054 D4000000 		.4byte	.LFE974-.LFB974
 9873 0058 00000000 		.4byte	.LFB975
 9874 005c A0000000 		.4byte	.LFE975-.LFB975
 9875 0060 00000000 		.4byte	.LFB976
 9876 0064 88000000 		.4byte	.LFE976-.LFB976
 9877 0068 00000000 		.4byte	.LFB977
 9878 006c 84000000 		.4byte	.LFE977-.LFB977
 9879 0070 00000000 		.4byte	.LFB978
 9880 0074 C8000000 		.4byte	.LFE978-.LFB978
 9881 0078 00000000 		.4byte	.LFB979
ARM GAS  C:\Users\haske\AppData\Local\Temp\ccWSfRiA.s 			page 230


 9882 007c 60000000 		.4byte	.LFE979-.LFB979
 9883 0080 00000000 		.4byte	.LFB980
 9884 0084 02000000 		.4byte	.LFE980-.LFB980
 9885 0088 00000000 		.4byte	.LFB981
 9886 008c 40000000 		.4byte	.LFE981-.LFB981
 9887 0090 00000000 		.4byte	.LFB982
 9888 0094 34000000 		.4byte	.LFE982-.LFB982
 9889 0098 00000000 		.4byte	.LFB983
 9890 009c 3A000000 		.4byte	.LFE983-.LFB983
 9891 00a0 00000000 		.4byte	.LFB984
 9892 00a4 24010000 		.4byte	.LFE984-.LFB984
 9893 00a8 00000000 		.4byte	.LFB985
 9894 00ac F0000000 		.4byte	.LFE985-.LFB985
 9895 00b0 00000000 		.4byte	.LFB986
 9896 00b4 0C000000 		.4byte	.LFE986-.LFB986
 9897 00b8 00000000 		.4byte	.LFB987
 9898 00bc 18000000 		.4byte	.LFE987-.LFB987
 9899 00c0 00000000 		.4byte	0
 9900 00c4 00000000 		.4byte	0
 9901              		.section	.debug_ranges,"",%progbits
 9902              	.Ldebug_ranges0:
 9903 0000 00000000 		.4byte	.LFB966
 9904 0004 7C000000 		.4byte	.LFE966
 9905 0008 00000000 		.4byte	.LFB967
 9906 000c 02000000 		.4byte	.LFE967
 9907 0010 00000000 		.4byte	.LFB968
 9908 0014 02000000 		.4byte	.LFE968
 9909 0018 00000000 		.4byte	.LFB969
 9910 001c 02000000 		.4byte	.LFE969
 9911 0020 00000000 		.4byte	.LFB970
 9912 0024 02000000 		.4byte	.LFE970
 9913 0028 00000000 		.4byte	.LFB971
 9914 002c 02000000 		.4byte	.LFE971
 9915 0030 00000000 		.4byte	.LFB972
 9916 0034 24000000 		.4byte	.LFE972
 9917 0038 00000000 		.4byte	.LFB973
 9918 003c E8000000 		.4byte	.LFE973
 9919 0040 00000000 		.4byte	.LFB974
 9920 0044 D4000000 		.4byte	.LFE974
 9921 0048 00000000 		.4byte	.LFB975
 9922 004c A0000000 		.4byte	.LFE975
 9923 0050 00000000 		.4byte	.LFB976
 9924 0054 88000000 		.4byte	.LFE976
 9925 0058 00000000 		.4byte	.LFB977
 9926 005c 84000000 		.4byte	.LFE977
 9927 0060 00000000 		.4byte	.LFB978
 9928 0064 C8000000 		.4byte	.LFE978
 9929 0068 00000000 		.4byte	.LFB979
 9930 006c 60000000 		.4byte	.LFE979
 9931 0070 00000000 		.4byte	.LFB980
 9932 0074 02000000 		.4byte	.LFE980
 9933 0078 00000000 		.4byte	.LFB981
 9934 007c 40000000 		.4byte	.LFE981
 9935 0080 00000000 		.4byte	.LFB982
 9936 0084 34000000 		.4byte	.LFE982
 9937 0088 00000000 		.4byte	.LFB983
 9938 008c 3A000000 		.4byte	.LFE983
ARM GAS  C:\Users\haske\AppData\Local\Temp\ccWSfRiA.s 			page 231


 9939 0090 00000000 		.4byte	.LFB984
 9940 0094 24010000 		.4byte	.LFE984
 9941 0098 00000000 		.4byte	.LFB985
 9942 009c F0000000 		.4byte	.LFE985
 9943 00a0 00000000 		.4byte	.LFB986
 9944 00a4 0C000000 		.4byte	.LFE986
 9945 00a8 00000000 		.4byte	.LFB987
 9946 00ac 18000000 		.4byte	.LFE987
 9947 00b0 00000000 		.4byte	0
 9948 00b4 00000000 		.4byte	0
 9949              		.section	.debug_line,"",%progbits
 9950              	.Ldebug_line0:
 9951 0000 5C080000 		.section	.debug_str,"MS",%progbits,1
 9951      02009205 
 9951      00000201 
 9951      FB0E0D00 
 9951      01010101 
 9952              	.LASF287:
 9953 0000 43595F42 		.ascii	"CY_BLE_EVT_PENDING_FLASH_WRITE\000"
 9953      4C455F45 
 9953      56545F50 
 9953      454E4449 
 9953      4E475F46 
 9954              	.LASF368:
 9955 001f 43595F42 		.ascii	"CY_BLE_EVT_GATTC_READ_BY_TYPE_RSP\000"
 9955      4C455F45 
 9955      56545F47 
 9955      41545443 
 9955      5F524541 
 9956              	.LASF76:
 9957 0041 63727970 		.ascii	"cryptoBase\000"
 9957      746F4261 
 9957      736500
 9958              	.LASF501:
 9959 004c 50574D5F 		.ascii	"PWM_PEL2_config\000"
 9959      50454C32 
 9959      5F636F6E 
 9959      66696700 
 9960              	.LASF140:
 9961 005c 63707573 		.ascii	"cpussCm0StatusOffset\000"
 9961      73436D30 
 9961      53746174 
 9961      75734F66 
 9961      66736574 
 9962              	.LASF187:
 9963 0071 43595F49 		.ascii	"CY_I2S_WS_ONE_CHANNEL_LENGTH\000"
 9963      32535F57 
 9963      535F4F4E 
 9963      455F4348 
 9963      414E4E45 
 9964              	.LASF497:
 9965 008e 4C43445F 		.ascii	"LCD_PWM_config\000"
 9965      50574D5F 
 9965      636F6E66 
 9965      696700
 9966              	.LASF234:
 9967 009d 6368616E 		.ascii	"chanConfig\000"
ARM GAS  C:\Users\haske\AppData\Local\Temp\ccWSfRiA.s 			page 232


 9967      436F6E66 
 9967      696700
 9968              	.LASF19:
 9969 00a8 73697A65 		.ascii	"sizetype\000"
 9969      74797065 
 9969      00
 9970              	.LASF506:
 9971 00b1 55495F50 		.ascii	"UI_PRESETS_MENU_ITEMS\000"
 9971      52455345 
 9971      54535F4D 
 9971      454E555F 
 9971      4954454D 
 9972              	.LASF479:
 9973 00c7 62746E5F 		.ascii	"btn_state\000"
 9973      73746174 
 9973      6500
 9974              	.LASF496:
 9975 00d1 50574D5F 		.ascii	"PWM_FAN_config\000"
 9975      46414E5F 
 9975      636F6E66 
 9975      696700
 9976              	.LASF51:
 9977 00e0 54525F43 		.ascii	"TR_CTRL0\000"
 9977      54524C30 
 9977      00
 9978              	.LASF52:
 9979 00e9 54525F43 		.ascii	"TR_CTRL1\000"
 9979      54524C31 
 9979      00
 9980              	.LASF53:
 9981 00f2 54525F43 		.ascii	"TR_CTRL2\000"
 9981      54524C32 
 9981      00
 9982              	.LASF233:
 9983 00fb 6368616E 		.ascii	"chanEn\000"
 9983      456E00
 9984              	.LASF61:
 9985 0102 494E5452 		.ascii	"INTR_CAUSE\000"
 9985      5F434155 
 9985      534500
 9986              	.LASF245:
 9987 010d 72784275 		.ascii	"rxBuf\000"
 9987      6600
 9988              	.LASF103:
 9989 0113 63727970 		.ascii	"cryptoMemSize\000"
 9989      746F4D65 
 9989      6D53697A 
 9989      6500
 9990              	.LASF56:
 9991 0121 4354524C 		.ascii	"CTRL_SET\000"
 9991      5F534554 
 9991      00
 9992              	.LASF321:
 9993 012a 43595F42 		.ascii	"CY_BLE_EVT_SET_CLK_CONFIG_COMPLETE\000"
 9993      4C455F45 
 9993      56545F53 
 9993      45545F43 
ARM GAS  C:\Users\haske\AppData\Local\Temp\ccWSfRiA.s 			page 233


 9993      4C4B5F43 
 9994              	.LASF498:
 9995 014d 4932535F 		.ascii	"I2S_config\000"
 9995      636F6E66 
 9995      696700
 9996              	.LASF72:
 9997 0158 6873696F 		.ascii	"hsiomBase\000"
 9997      6D426173 
 9997      6500
 9998              	.LASF320:
 9999 0162 43595F42 		.ascii	"CY_BLE_EVT_GET_CLK_CONFIG_COMPLETE\000"
 9999      4C455F45 
 9999      56545F47 
 9999      45545F43 
 9999      4C4B5F43 
 10000              	.LASF413:
 10001 0185 43595F42 		.ascii	"CY_BLE_CONN_STATE_CLIENT_DESCR_DISCOVERING\000"
 10001      4C455F43 
 10001      4F4E4E5F 
 10001      53544154 
 10001      455F434C 
 10002              	.LASF417:
 10003 01b0 6E756D43 		.ascii	"numChannels\000"
 10003      68616E6E 
 10003      656C7300 
 10004              	.LASF326:
 10005 01bc 43595F42 		.ascii	"CY_BLE_EVT_SET_SLAVE_LATENCY_MODE_COMPLETE\000"
 10005      4C455F45 
 10005      56545F53 
 10005      45545F53 
 10005      4C415645 
 10006              	.LASF404:
 10007 01e7 43595F42 		.ascii	"CY_BLE_ADV_STATE_ADVERTISING\000"
 10007      4C455F41 
 10007      44565F53 
 10007      54415445 
 10007      5F414456 
 10008              	.LASF293:
 10009 0204 43595F42 		.ascii	"CY_BLE_EVT_LE_SET_EVENT_MASK_COMPLETE\000"
 10009      4C455F45 
 10009      56545F4C 
 10009      455F5345 
 10009      545F4556 
 10010              	.LASF428:
 10011 022a 50574D5F 		.ascii	"PWM_TENS_SetCompare0\000"
 10011      54454E53 
 10011      5F536574 
 10011      436F6D70 
 10011      61726530 
 10012              	.LASF289:
 10013 023f 43595F42 		.ascii	"CY_BLE_EVT_HARDWARE_ERROR\000"
 10013      4C455F45 
 10013      56545F48 
 10013      41524457 
 10013      4152455F 
 10014              	.LASF86:
 10015 0259 63707573 		.ascii	"cpussIpcNr\000"
ARM GAS  C:\Users\haske\AppData\Local\Temp\ccWSfRiA.s 			page 234


 10015      73497063 
 10015      4E7200
 10016              	.LASF514:
 10017 0264 55495F44 		.ascii	"UI_DIAG_MENU_ITEMS\000"
 10017      4941475F 
 10017      4D454E55 
 10017      5F495445 
 10017      4D5300
 10018              	.LASF290:
 10019 0277 43595F42 		.ascii	"CY_BLE_EVT_WRITE_AUTH_PAYLOAD_TO_COMPLETE\000"
 10019      4C455F45 
 10019      56545F57 
 10019      52495445 
 10019      5F415554 
 10020              	.LASF398:
 10021 02a1 43595F42 		.ascii	"CY_BLE_EVT_MAX\000"
 10021      4C455F45 
 10021      56545F4D 
 10021      415800
 10022              	.LASF516:
 10023 02b0 55495F4D 		.ascii	"UI_MENU_ITEMS_MAX\000"
 10023      454E555F 
 10023      4954454D 
 10023      535F4D41 
 10023      5800
 10024              	.LASF21:
 10025 02c2 4F55545F 		.ascii	"OUT_SET\000"
 10025      53455400 
 10026              	.LASF133:
 10027 02ca 6770696F 		.ascii	"gpioPrtCfgOffset\000"
 10027      50727443 
 10027      66674F66 
 10027      66736574 
 10027      00
 10028              	.LASF49:
 10029 02db 50455249 		.ascii	"PERIOD\000"
 10029      4F4400
 10030              	.LASF20:
 10031 02e2 4F55545F 		.ascii	"OUT_CLR\000"
 10031      434C5200 
 10032              	.LASF264:
 10033 02ea 636F6D70 		.ascii	"compare0\000"
 10033      61726530 
 10033      00
 10034              	.LASF265:
 10035 02f3 636F6D70 		.ascii	"compare1\000"
 10035      61726531 
 10035      00
 10036              	.LASF95:
 10037 02fc 73727373 		.ascii	"srssNumHfroot\000"
 10037      4E756D48 
 10037      66726F6F 
 10037      7400
 10038              	.LASF226:
 10039 030a 63795F65 		.ascii	"cy_en_sar_range_detect_condition_t\000"
 10039      6E5F7361 
 10039      725F7261 
ARM GAS  C:\Users\haske\AppData\Local\Temp\ccWSfRiA.s 			page 235


 10039      6E67655F 
 10039      64657465 
 10040              	.LASF373:
 10041 032d 43595F42 		.ascii	"CY_BLE_EVT_GATTC_READ_MULTI_RSP\000"
 10041      4C455F45 
 10041      56545F47 
 10041      41545443 
 10041      5F524541 
 10042              	.LASF220:
 10043 034d 72784669 		.ascii	"rxFifoTriggerLevel\000"
 10043      666F5472 
 10043      69676765 
 10043      724C6576 
 10043      656C00
 10044              	.LASF258:
 10045 0360 70776D41 		.ascii	"pwmAlignment\000"
 10045      6C69676E 
 10045      6D656E74 
 10045      00
 10046              	.LASF24:
 10047 036d 494E5452 		.ascii	"INTR_MASK\000"
 10047      5F4D4153 
 10047      4B00
 10048              	.LASF469:
 10049 0377 496E6974 		.ascii	"InitUserInterface\000"
 10049      55736572 
 10049      496E7465 
 10049      72666163 
 10049      6500
 10050              	.LASF313:
 10051 0389 43595F42 		.ascii	"CY_BLE_EVT_LL_CNTRL_PROC_PENDING_COMPLETE\000"
 10051      4C455F45 
 10051      56545F4C 
 10051      4C5F434E 
 10051      54524C5F 
 10052              	.LASF279:
 10053 03b3 636F756E 		.ascii	"countInputMode\000"
 10053      74496E70 
 10053      75744D6F 
 10053      646500
 10054              	.LASF175:
 10055 03c2 63795F65 		.ascii	"cy_en_i2s_alignment_t\000"
 10055      6E5F6932 
 10055      735F616C 
 10055      69676E6D 
 10055      656E745F 
 10056              	.LASF466:
 10057 03d8 75695F6D 		.ascii	"ui_menu_task\000"
 10057      656E755F 
 10057      7461736B 
 10057      00
 10058              	.LASF470:
 10059 03e5 55706461 		.ascii	"UpdateLedState\000"
 10059      74654C65 
 10059      64537461 
 10059      746500
 10060              	.LASF379:
ARM GAS  C:\Users\haske\AppData\Local\Temp\ccWSfRiA.s 			page 236


 10061 03f4 43595F42 		.ascii	"CY_BLE_EVT_GATTC_EXEC_WRITE_RSP\000"
 10061      4C455F45 
 10061      56545F47 
 10061      41545443 
 10061      5F455845 
 10062              	.LASF281:
 10063 0414 63795F73 		.ascii	"cy_stc_tcpwm_pwm_config_t\000"
 10063      74635F74 
 10063      6370776D 
 10063      5F70776D 
 10063      5F636F6E 
 10064              	.LASF465:
 10065 042e 75695F73 		.ascii	"ui_settings\000"
 10065      65747469 
 10065      6E677300 
 10066              	.LASF357:
 10067 043a 43595F42 		.ascii	"CY_BLE_EVT_GAP_GEN_SET_LOCAL_P256_KEYS_COMPLETE\000"
 10067      4C455F45 
 10067      56545F47 
 10067      41505F47 
 10067      454E5F53 
 10068              	.LASF215:
 10069 046a 72785363 		.ascii	"rxSckiInversion\000"
 10069      6B69496E 
 10069      76657273 
 10069      696F6E00 
 10070              	.LASF386:
 10071 047a 43595F42 		.ascii	"CY_BLE_EVT_GATTC_LONG_PROCEDURE_END\000"
 10071      4C455F45 
 10071      56545F47 
 10071      41545443 
 10071      5F4C4F4E 
 10072              	.LASF205:
 10073 049e 7478576F 		.ascii	"txWordLength\000"
 10073      72644C65 
 10073      6E677468 
 10073      00
 10074              	.LASF391:
 10075 04ab 43595F42 		.ascii	"CY_BLE_EVT_L2CAP_CBFC_CONN_CNF\000"
 10075      4C455F45 
 10075      56545F4C 
 10075      32434150 
 10075      5F434246 
 10076              	.LASF399:
 10077 04ca 62644861 		.ascii	"bdHandle\000"
 10077      6E646C65 
 10077      00
 10078              	.LASF433:
 10079 04d3 75695F64 		.ascii	"ui_draw_buttons\000"
 10079      7261775F 
 10079      62757474 
 10079      6F6E7300 
 10080              	.LASF526:
 10081 04e3 706F7765 		.ascii	"power_wakeup\000"
 10081      725F7761 
 10081      6B657570 
 10081      00
ARM GAS  C:\Users\haske\AppData\Local\Temp\ccWSfRiA.s 			page 237


 10082              	.LASF3:
 10083 04f0 5F5F7569 		.ascii	"__uint8_t\000"
 10083      6E74385F 
 10083      7400
 10084              	.LASF448:
 10085 04fa 64706D5F 		.ascii	"dpm_stat\000"
 10085      73746174 
 10085      00
 10086              	.LASF306:
 10087 0503 43595F42 		.ascii	"CY_BLE_EVT_ADD_DEVICE_TO_WHITE_LIST_COMPLETE\000"
 10087      4C455F45 
 10087      56545F41 
 10087      44445F44 
 10087      45564943 
 10088              	.LASF499:
 10089 0530 4932535F 		.ascii	"I2S_initVar\000"
 10089      696E6974 
 10089      56617200 
 10090              	.LASF237:
 10091 053c 72616E67 		.ascii	"rangeIntrMask\000"
 10091      65496E74 
 10091      724D6173 
 10091      6B00
 10092              	.LASF204:
 10093 054a 74784368 		.ascii	"txChannelLength\000"
 10093      616E6E65 
 10093      6C4C656E 
 10093      67746800 
 10094              	.LASF381:
 10095 055a 43595F42 		.ascii	"CY_BLE_EVT_GATTC_HANDLE_VALUE_IND\000"
 10095      4C455F45 
 10095      56545F47 
 10095      41545443 
 10095      5F48414E 
 10096              	.LASF272:
 10097 057c 73776170 		.ascii	"swapInput\000"
 10097      496E7075 
 10097      7400
 10098              	.LASF507:
 10099 0586 55495F54 		.ascii	"UI_TEMP_MENU_ITEMS\000"
 10099      454D505F 
 10099      4D454E55 
 10099      5F495445 
 10099      4D5300
 10100              	.LASF249:
 10101 0599 74784275 		.ascii	"txBufSize\000"
 10101      6653697A 
 10101      6500
 10102              	.LASF443:
 10103 05a3 6D656E75 		.ascii	"menu\000"
 10103      00
 10104              	.LASF285:
 10105 05a8 43595F42 		.ascii	"CY_BLE_EVT_STACK_BUSY_STATUS\000"
 10105      4C455F45 
 10105      56545F53 
 10105      5441434B 
 10105      5F425553 
ARM GAS  C:\Users\haske\AppData\Local\Temp\ccWSfRiA.s 			page 238


 10106              	.LASF454:
 10107 05c5 63687267 		.ascii	"chrg_fault\000"
 10107      5F666175 
 10107      6C7400
 10108              	.LASF364:
 10109 05d0 43595F42 		.ascii	"CY_BLE_EVT_GATT_DISCONNECT_IND\000"
 10109      4C455F45 
 10109      56545F47 
 10109      4154545F 
 10109      44495343 
 10110              	.LASF8:
 10111 05ef 6C6F6E67 		.ascii	"long int\000"
 10111      20696E74 
 10111      00
 10112              	.LASF35:
 10113 05f8 494E5452 		.ascii	"INTR_CAUSE0\000"
 10113      5F434155 
 10113      53453000 
 10114              	.LASF365:
 10115 0604 43595F42 		.ascii	"CY_BLE_EVT_GATTS_XCNHG_MTU_REQ\000"
 10115      4C455F45 
 10115      56545F47 
 10115      41545453 
 10115      5F58434E 
 10116              	.LASF37:
 10117 0623 494E5452 		.ascii	"INTR_CAUSE2\000"
 10117      5F434155 
 10117      53453200 
 10118              	.LASF38:
 10119 062f 494E5452 		.ascii	"INTR_CAUSE3\000"
 10119      5F434155 
 10119      53453300 
 10120              	.LASF331:
 10121 063b 43595F42 		.ascii	"CY_BLE_EVT_SET_EVENT_MASK_COMPLETE\000"
 10121      4C455F45 
 10121      56545F53 
 10121      45545F45 
 10121      56454E54 
 10122              	.LASF414:
 10123 065e 43595F42 		.ascii	"CY_BLE_CONN_STATE_CLIENT_DISCOVERED\000"
 10123      4C455F43 
 10123      4F4E4E5F 
 10123      53544154 
 10123      455F434C 
 10124              	.LASF85:
 10125 0682 70726F74 		.ascii	"protVersion\000"
 10125      56657273 
 10125      696F6E00 
 10126              	.LASF190:
 10127 068e 7278456E 		.ascii	"rxEnabled\000"
 10127      61626C65 
 10127      6400
 10128              	.LASF374:
 10129 0698 43595F42 		.ascii	"CY_BLE_EVT_GATTS_WRITE_REQ\000"
 10129      4C455F45 
 10129      56545F47 
 10129      41545453 
ARM GAS  C:\Users\haske\AppData\Local\Temp\ccWSfRiA.s 			page 239


 10129      5F575249 
 10130              	.LASF121:
 10131 06b3 70657269 		.ascii	"periTrCmdGrSelMsk\000"
 10131      5472436D 
 10131      64477253 
 10131      656C4D73 
 10131      6B00
 10132              	.LASF273:
 10133 06c5 72656C6F 		.ascii	"reloadInputMode\000"
 10133      6164496E 
 10133      7075744D 
 10133      6F646500 
 10134              	.LASF483:
 10135 06d5 76696265 		.ascii	"vibe_timeout\000"
 10135      5F74696D 
 10135      656F7574 
 10135      00
 10136              	.LASF128:
 10137 06e2 70657269 		.ascii	"periDiv8CtlOffset\000"
 10137      44697638 
 10137      43746C4F 
 10137      66667365 
 10137      7400
 10138              	.LASF123:
 10139 06f4 70657269 		.ascii	"periTrGrSize\000"
 10139      54724772 
 10139      53697A65 
 10139      00
 10140              	.LASF193:
 10141 0701 636C6B44 		.ascii	"clkDiv\000"
 10141      697600
 10142              	.LASF312:
 10143 0708 43595F42 		.ascii	"CY_BLE_EVT_SET_PRIVACY_MODE_COMPLETE\000"
 10143      4C455F45 
 10143      56545F53 
 10143      45545F50 
 10143      52495641 
 10144              	.LASF5:
 10145 072d 5F5F7569 		.ascii	"__uint16_t\000"
 10145      6E743136 
 10145      5F7400
 10146              	.LASF492:
 10147 0738 414D505F 		.ascii	"AMP_PWM_config\000"
 10147      50574D5F 
 10147      636F6E66 
 10147      696700
 10148              	.LASF510:
 10149 0747 55495F54 		.ascii	"UI_TENS_FREQ_MENU_ITEMS\000"
 10149      454E535F 
 10149      46524551 
 10149      5F4D454E 
 10149      555F4954 
 10150              	.LASF344:
 10151 075f 43595F42 		.ascii	"CY_BLE_EVT_GAP_ENCRYPT_CHANGE\000"
 10151      4C455F45 
 10151      56545F47 
 10151      41505F45 
ARM GAS  C:\Users\haske\AppData\Local\Temp\ccWSfRiA.s 			page 240


 10151      4E435259 
 10152              	.LASF54:
 10153 077d 54435057 		.ascii	"TCPWM_CNT_V1_Type\000"
 10153      4D5F434E 
 10153      545F5631 
 10153      5F547970 
 10153      6500
 10154              	.LASF58:
 10155 078f 434D445F 		.ascii	"CMD_RELOAD\000"
 10155      52454C4F 
 10155      414400
 10156              	.LASF303:
 10157 079a 43595F42 		.ascii	"CY_BLE_EVT_SET_HOST_CHANNEL_COMPLETE\000"
 10157      4C455F45 
 10157      56545F53 
 10157      45545F48 
 10157      4F53545F 
 10158              	.LASF403:
 10159 07bf 43595F42 		.ascii	"CY_BLE_ADV_STATE_ADV_INITIATED\000"
 10159      4C455F41 
 10159      44565F53 
 10159      54415445 
 10159      5F414456 
 10160              	.LASF284:
 10161 07de 43595F42 		.ascii	"CY_BLE_EVT_TIMEOUT\000"
 10161      4C455F45 
 10161      56545F54 
 10161      494D454F 
 10161      555400
 10162              	.LASF32:
 10163 07f1 4346475F 		.ascii	"CFG_IN_GPIO5V\000"
 10163      494E5F47 
 10163      50494F35 
 10163      5600
 10164              	.LASF236:
 10165 07ff 73617449 		.ascii	"satIntrMask\000"
 10165      6E74724D 
 10165      61736B00 
 10166              	.LASF475:
 10167 080b 75695F73 		.ascii	"ui_state\000"
 10167      74617465 
 10167      00
 10168              	.LASF305:
 10169 0814 43595F42 		.ascii	"CY_BLE_EVT_REMOVE_DEVICE_FROM_RPA_LIST_COMPLETE\000"
 10169      4C455F45 
 10169      56545F52 
 10169      454D4F56 
 10169      455F4445 
 10170              	.LASF432:
 10171 0844 75695F64 		.ascii	"ui_draw_title\000"
 10171      7261775F 
 10171      7469746C 
 10171      6500
 10172              	.LASF416:
 10173 0852 6368616E 		.ascii	"channelBase\000"
 10173      6E656C42 
 10173      61736500 
ARM GAS  C:\Users\haske\AppData\Local\Temp\ccWSfRiA.s 			page 241


 10174              	.LASF96:
 10175 085e 70657269 		.ascii	"periClockNr\000"
 10175      436C6F63 
 10175      6B4E7200 
 10176              	.LASF1:
 10177 086a 7369676E 		.ascii	"signed char\000"
 10177      65642063 
 10177      68617200 
 10178              	.LASF352:
 10179 0876 43595F42 		.ascii	"CY_BLE_EVT_GAPC_DIRECT_ADV_REPORT\000"
 10179      4C455F45 
 10179      56545F47 
 10179      4150435F 
 10179      44495245 
 10180              	.LASF14:
 10181 0898 75696E74 		.ascii	"uint8_t\000"
 10181      385F7400 
 10182              	.LASF453:
 10183 08a0 6F74675F 		.ascii	"otg_fault\000"
 10183      6661756C 
 10183      7400
 10184              	.LASF262:
 10185 08aa 70657269 		.ascii	"period1\000"
 10185      6F643100 
 10186              	.LASF462:
 10187 08b2 75695F73 		.ascii	"ui_settings_vibe_freq\000"
 10187      65747469 
 10187      6E67735F 
 10187      76696265 
 10187      5F667265 
 10188              	.LASF451:
 10189 08c8 76737973 		.ascii	"vsys_stat\000"
 10189      5F737461 
 10189      7400
 10190              	.LASF126:
 10191 08d2 70657269 		.ascii	"periDivCmdPaDivSelPos\000"
 10191      44697643 
 10191      6D645061 
 10191      44697653 
 10191      656C506F 
 10192              	.LASF147:
 10193 08e8 63707573 		.ascii	"cpussRomCtl\000"
 10193      73526F6D 
 10193      43746C00 
 10194              	.LASF505:
 10195 08f4 55495F4D 		.ascii	"UI_MAIN_MENU_ITEMS\000"
 10195      41494E5F 
 10195      4D454E55 
 10195      5F495445 
 10195      4D5300
 10196              	.LASF200:
 10197 0907 74785364 		.ascii	"txSdoLatchingTime\000"
 10197      6F4C6174 
 10197      6368696E 
 10197      6754696D 
 10197      6500
 10198              	.LASF382:
ARM GAS  C:\Users\haske\AppData\Local\Temp\ccWSfRiA.s 			page 242


 10199 0919 43595F42 		.ascii	"CY_BLE_EVT_GATTS_HANDLE_VALUE_CNF\000"
 10199      4C455F45 
 10199      56545F47 
 10199      41545453 
 10199      5F48414E 
 10200              	.LASF68:
 10201 093b 666C6173 		.ascii	"flashcBase\000"
 10201      68634261 
 10201      736500
 10202              	.LASF33:
 10203 0946 52455345 		.ascii	"RESERVED1\000"
 10203      52564544 
 10203      3100
 10204              	.LASF2:
 10205 0950 756E7369 		.ascii	"unsigned char\000"
 10205      676E6564 
 10205      20636861 
 10205      7200
 10206              	.LASF474:
 10207 095e 74656E73 		.ascii	"tens_dur_us\000"
 10207      5F647572 
 10207      5F757300 
 10208              	.LASF446:
 10209 096a 76627573 		.ascii	"vbus_stat\000"
 10209      5F737461 
 10209      7400
 10210              	.LASF188:
 10211 0974 63795F65 		.ascii	"cy_en_i2s_ws_pw_t\000"
 10211      6E5F6932 
 10211      735F7773 
 10211      5F70775F 
 10211      7400
 10212              	.LASF523:
 10213 0986 706F7765 		.ascii	"power_5v_off\000"
 10213      725F3576 
 10213      5F6F6666 
 10213      00
 10214              	.LASF176:
 10215 0993 43595F49 		.ascii	"CY_I2S_LEN8\000"
 10215      32535F4C 
 10215      454E3800 
 10216              	.LASF354:
 10217 099f 43595F42 		.ascii	"CY_BLE_EVT_GAP_DEVICE_ADDR_GEN_COMPLETE\000"
 10217      4C455F45 
 10217      56545F47 
 10217      41505F44 
 10217      45564943 
 10218              	.LASF166:
 10219 09c7 43595F53 		.ascii	"CY_SYSPM_HIBERNATE_WDT\000"
 10219      5953504D 
 10219      5F484942 
 10219      45524E41 
 10219      54455F57 
 10220              	.LASF412:
 10221 09de 43595F42 		.ascii	"CY_BLE_CONN_STATE_CLIENT_CHAR_DISCOVERING\000"
 10221      4C455F43 
 10221      4F4E4E5F 
ARM GAS  C:\Users\haske\AppData\Local\Temp\ccWSfRiA.s 			page 243


 10221      53544154 
 10221      455F434C 
 10222              	.LASF227:
 10223 0a08 6374726C 		.ascii	"ctrl\000"
 10223      00
 10224              	.LASF369:
 10225 0a0d 43595F42 		.ascii	"CY_BLE_EVT_GATTC_FIND_INFO_RSP\000"
 10225      4C455F45 
 10225      56545F47 
 10225      41545443 
 10225      5F46494E 
 10226              	.LASF337:
 10227 0a2c 43595F42 		.ascii	"CY_BLE_EVT_GAP_PASSKEY_ENTRY_REQUEST\000"
 10227      4C455F45 
 10227      56545F47 
 10227      41505F50 
 10227      4153534B 
 10228              	.LASF241:
 10229 0a51 76726566 		.ascii	"vrefMvValue\000"
 10229      4D765661 
 10229      6C756500 
 10230              	.LASF455:
 10231 0a5d 6261745F 		.ascii	"bat_fault\000"
 10231      6661756C 
 10231      7400
 10232              	.LASF142:
 10233 0a67 63707573 		.ascii	"cpussTrimRamCtlOffset\000"
 10233      73547269 
 10233      6D52616D 
 10233      43746C4F 
 10233      66667365 
 10234              	.LASF488:
 10235 0a7d 63795F62 		.ascii	"cy_ble_connHandle\000"
 10235      6C655F63 
 10235      6F6E6E48 
 10235      616E646C 
 10235      6500
 10236              	.LASF218:
 10237 0a8f 7278576F 		.ascii	"rxWordLength\000"
 10237      72644C65 
 10237      6E677468 
 10237      00
 10238              	.LASF160:
 10239 0a9c 5F426F6F 		.ascii	"_Bool\000"
 10239      6C00
 10240              	.LASF74:
 10241 0aa2 70617373 		.ascii	"passBase\000"
 10241      42617365 
 10241      00
 10242              	.LASF143:
 10243 0aab 63707573 		.ascii	"cpussTrimRomCtlOffset\000"
 10243      73547269 
 10243      6D526F6D 
 10243      43746C4F 
 10243      66667365 
 10244              	.LASF427:
 10245 0ac1 76616C75 		.ascii	"value\000"
ARM GAS  C:\Users\haske\AppData\Local\Temp\ccWSfRiA.s 			page 244


 10245      6500
 10246              	.LASF458:
 10247 0ac7 75695F73 		.ascii	"ui_settings_tens_freq\000"
 10247      65747469 
 10247      6E67735F 
 10247      74656E73 
 10247      5F667265 
 10248              	.LASF484:
 10249 0add 76696265 		.ascii	"vibe_state\000"
 10249      5F737461 
 10249      746500
 10250              	.LASF155:
 10251 0ae8 63686172 		.ascii	"char\000"
 10251      00
 10252              	.LASF384:
 10253 0aed 43595F42 		.ascii	"CY_BLE_EVT_GATTC_STOP_CMD_COMPLETE\000"
 10253      4C455F45 
 10253      56545F47 
 10253      41545443 
 10253      5F53544F 
 10254              	.LASF164:
 10255 0b10 43595F53 		.ascii	"CY_SYSPM_HIBERNATE_LPCOMP1_HIGH\000"
 10255      5953504D 
 10255      5F484942 
 10255      45524E41 
 10255      54455F4C 
 10256              	.LASF254:
 10257 0b30 63795F73 		.ascii	"cy_stc_scb_spi_context\000"
 10257      74635F73 
 10257      63625F73 
 10257      70695F63 
 10257      6F6E7465 
 10258              	.LASF308:
 10259 0b47 43595F42 		.ascii	"CY_BLE_EVT_GET_PHY_COMPLETE\000"
 10259      4C455F45 
 10259      56545F47 
 10259      45545F50 
 10259      48595F43 
 10260              	.LASF310:
 10261 0b63 43595F42 		.ascii	"CY_BLE_EVT_SET_PHY_COMPLETE\000"
 10261      4C455F45 
 10261      56545F53 
 10261      45545F50 
 10261      48595F43 
 10262              	.LASF173:
 10263 0b7f 43595F49 		.ascii	"CY_I2S_TDM_MODE_A\000"
 10263      32535F54 
 10263      444D5F4D 
 10263      4F44455F 
 10263      4100
 10264              	.LASF325:
 10265 0b91 43595F42 		.ascii	"CY_BLE_EVT_AES_CCM_DECRYPT_COMPLETE\000"
 10265      4C455F45 
 10265      56545F41 
 10265      45535F43 
 10265      434D5F44 
 10266              	.LASF260:
ARM GAS  C:\Users\haske\AppData\Local\Temp\ccWSfRiA.s 			page 245


 10267 0bb5 72756E4D 		.ascii	"runMode\000"
 10267      6F646500 
 10268              	.LASF44:
 10269 0bbd 4750494F 		.ascii	"GPIO_V1_Type\000"
 10269      5F56315F 
 10269      54797065 
 10269      00
 10270              	.LASF246:
 10271 0bca 72784275 		.ascii	"rxBufSize\000"
 10271      6653697A 
 10271      6500
 10272              	.LASF216:
 10273 0bd4 72784368 		.ascii	"rxChannels\000"
 10273      616E6E65 
 10273      6C7300
 10274              	.LASF195:
 10275 0bdf 74784D61 		.ascii	"txMasterMode\000"
 10275      73746572 
 10275      4D6F6465 
 10275      00
 10276              	.LASF185:
 10277 0bec 63795F65 		.ascii	"cy_en_i2s_overhead_t\000"
 10277      6E5F6932 
 10277      735F6F76 
 10277      65726865 
 10277      61645F74 
 10278              	.LASF257:
 10279 0c01 636C6F63 		.ascii	"clockPrescaler\000"
 10279      6B507265 
 10279      7363616C 
 10279      657200
 10280              	.LASF171:
 10281 0c10 43595F49 		.ascii	"CY_I2S_LEFT_JUSTIFIED\000"
 10281      32535F4C 
 10281      4546545F 
 10281      4A555354 
 10281      49464945 
 10282              	.LASF335:
 10283 0c26 43595F42 		.ascii	"CY_BLE_EVT_GAPC_SCAN_PROGRESS_RESULT\000"
 10283      4C455F45 
 10283      56545F47 
 10283      4150435F 
 10283      5343414E 
 10284              	.LASF172:
 10285 0c4b 43595F49 		.ascii	"CY_I2S_I2S_MODE\000"
 10285      32535F49 
 10285      32535F4D 
 10285      4F444500 
 10286              	.LASF351:
 10287 0c5b 43595F42 		.ascii	"CY_BLE_EVT_GAP_ENHANCE_CONN_COMPLETE\000"
 10287      4C455F45 
 10287      56545F47 
 10287      41505F45 
 10287      4E48414E 
 10288              	.LASF509:
 10289 0c80 55495F56 		.ascii	"UI_VIBE_FREQ_MENU_ITEMS\000"
 10289      4942455F 
ARM GAS  C:\Users\haske\AppData\Local\Temp\ccWSfRiA.s 			page 246


 10289      46524551 
 10289      5F4D454E 
 10289      555F4954 
 10290              	.LASF387:
 10291 0c98 43595F42 		.ascii	"CY_BLE_EVT_L2CAP_CONN_PARAM_UPDATE_REQ\000"
 10291      4C455F45 
 10291      56545F4C 
 10291      32434150 
 10291      5F434F4E 
 10292              	.LASF340:
 10293 0cbf 43595F42 		.ascii	"CY_BLE_EVT_GAP_AUTH_FAILED\000"
 10293      4C455F45 
 10293      56545F47 
 10293      41505F41 
 10293      5554485F 
 10294              	.LASF194:
 10295 0cda 65787443 		.ascii	"extClk\000"
 10295      6C6B00
 10296              	.LASF198:
 10297 0ce1 74785761 		.ascii	"txWatchdogEnable\000"
 10297      74636864 
 10297      6F67456E 
 10297      61626C65 
 10297      00
 10298              	.LASF28:
 10299 0cf2 4346475F 		.ascii	"CFG_IN\000"
 10299      494E00
 10300              	.LASF531:
 10301 0cf9 43795F42 		.ascii	"Cy_BLE_GetAdvertisementState\000"
 10301      4C455F47 
 10301      65744164 
 10301      76657274 
 10301      6973656D 
 10302              	.LASF242:
 10303 0d16 63795F73 		.ascii	"cy_stc_sar_config_t\000"
 10303      74635F73 
 10303      61725F63 
 10303      6F6E6669 
 10303      675F7400 
 10304              	.LASF170:
 10305 0d2a 43595F53 		.ascii	"CY_SYSPM_HIBERNATE_PIN1_HIGH\000"
 10305      5953504D 
 10305      5F484942 
 10305      45524E41 
 10305      54455F50 
 10306              	.LASF459:
 10307 0d47 75695F73 		.ascii	"ui_settings_tens_dur\000"
 10307      65747469 
 10307      6E67735F 
 10307      74656E73 
 10307      5F647572 
 10308              	.LASF436:
 10309 0d5c 63656E74 		.ascii	"center\000"
 10309      657200
 10310              	.LASF118:
 10311 0d63 64775374 		.ascii	"dwStatusChIdxPos\000"
 10311      61747573 
ARM GAS  C:\Users\haske\AppData\Local\Temp\ccWSfRiA.s 			page 247


 10311      43684964 
 10311      78506F73 
 10311      00
 10312              	.LASF41:
 10313 0d74 5644445F 		.ascii	"VDD_INTR_MASK\000"
 10313      494E5452 
 10313      5F4D4153 
 10313      4B00
 10314              	.LASF375:
 10315 0d82 43595F42 		.ascii	"CY_BLE_EVT_GATTC_WRITE_RSP\000"
 10315      4C455F45 
 10315      56545F47 
 10315      41545443 
 10315      5F575249 
 10316              	.LASF517:
 10317 0d9d 55495F4D 		.ascii	"UI_MENU_ITEMS_MIN\000"
 10317      454E555F 
 10317      4954454D 
 10317      535F4D49 
 10317      4E00
 10318              	.LASF434:
 10319 0daf 74657874 		.ascii	"text\000"
 10319      00
 10320              	.LASF137:
 10321 0db4 63707573 		.ascii	"cpussCm0ClockCtlOffset\000"
 10321      73436D30 
 10321      436C6F63 
 10321      6B43746C 
 10321      4F666673 
 10322              	.LASF450:
 10323 0dcb 74686572 		.ascii	"therm_stat\000"
 10323      6D5F7374 
 10323      617400
 10324              	.LASF122:
 10325 0dd6 70657269 		.ascii	"periTrGrOffset\000"
 10325      54724772 
 10325      4F666673 
 10325      657400
 10326              	.LASF447:
 10327 0de5 63687267 		.ascii	"chrg_stat\000"
 10327      5F737461 
 10327      7400
 10328              	.LASF162:
 10329 0def 43595F53 		.ascii	"CY_SYSPM_HIBERNATE_LPCOMP0_HIGH\000"
 10329      5953504D 
 10329      5F484942 
 10329      45524E41 
 10329      54455F4C 
 10330              	.LASF90:
 10331 0e0f 63707573 		.ascii	"cpussIpc0Irq\000"
 10331      73497063 
 10331      30497271 
 10331      00
 10332              	.LASF482:
 10333 0e1c 76696265 		.ascii	"vibe_amp\000"
 10333      5F616D70 
 10333      00
ARM GAS  C:\Users\haske\AppData\Local\Temp\ccWSfRiA.s 			page 248


 10334              	.LASF152:
 10335 0e25 6970634C 		.ascii	"ipcLockStatusOffset\000"
 10335      6F636B53 
 10335      74617475 
 10335      734F6666 
 10335      73657400 
 10336              	.LASF477:
 10337 0e39 75695F6D 		.ascii	"ui_menu_state\000"
 10337      656E755F 
 10337      73746174 
 10337      6500
 10338              	.LASF380:
 10339 0e47 43595F42 		.ascii	"CY_BLE_EVT_GATTC_HANDLE_VALUE_NTF\000"
 10339      4C455F45 
 10339      56545F47 
 10339      41545443 
 10339      5F48414E 
 10340              	.LASF350:
 10341 0e69 43595F42 		.ascii	"CY_BLE_EVT_GAP_OOB_GENERATED_NOTIFICATION\000"
 10341      4C455F45 
 10341      56545F47 
 10341      41505F4F 
 10341      4F425F47 
 10342              	.LASF333:
 10343 0e93 43595F42 		.ascii	"CY_BLE_EVT_SET_CONN_PRIORITY_COMPLETE\000"
 10343      4C455F45 
 10343      56545F53 
 10343      45545F43 
 10343      4F4E4E5F 
 10344              	.LASF255:
 10345 0eb9 63795F73 		.ascii	"cy_stc_tcpwm_pwm_config\000"
 10345      74635F74 
 10345      6370776D 
 10345      5F70776D 
 10345      5F636F6E 
 10346              	.LASF309:
 10347 0ed1 43595F42 		.ascii	"CY_BLE_EVT_SET_DEFAULT_PHY_COMPLETE\000"
 10347      4C455F45 
 10347      56545F53 
 10347      45545F44 
 10347      45464155 
 10348              	.LASF163:
 10349 0ef5 43595F53 		.ascii	"CY_SYSPM_HIBERNATE_LPCOMP1_LOW\000"
 10349      5953504D 
 10349      5F484942 
 10349      45524E41 
 10349      54455F4C 
 10350              	.LASF31:
 10351 0f14 52455345 		.ascii	"RESERVED\000"
 10351      52564544 
 10351      00
 10352              	.LASF141:
 10353 0f1d 63707573 		.ascii	"cpussCm4PwrCtlOffset\000"
 10353      73436D34 
 10353      50777243 
 10353      746C4F66 
 10353      66736574 
ARM GAS  C:\Users\haske\AppData\Local\Temp\ccWSfRiA.s 			page 249


 10354              	.LASF315:
 10355 0f32 43595F42 		.ascii	"CY_BLE_EVT_SET_DEVICE_ADDR_COMPLETE\000"
 10355      4C455F45 
 10355      56545F53 
 10355      45545F44 
 10355      45564943 
 10356              	.LASF113:
 10357 0f56 666C6173 		.ascii	"flashCtlMainWs4Freq\000"
 10357      6843746C 
 10357      4D61696E 
 10357      57733446 
 10357      72657100 
 10358              	.LASF435:
 10359 0f6a 6C656674 		.ascii	"left\000"
 10359      00
 10360              	.LASF362:
 10361 0f6f 43595F42 		.ascii	"CY_BLE_EVT_GATTC_ERROR_RSP\000"
 10361      4C455F45 
 10361      56545F47 
 10361      41545443 
 10361      5F455252 
 10362              	.LASF377:
 10363 0f8a 43595F42 		.ascii	"CY_BLE_EVT_GATTS_PREP_WRITE_REQ\000"
 10363      4C455F45 
 10363      56545F47 
 10363      41545453 
 10363      5F505245 
 10364              	.LASF418:
 10365 0faa 6877436F 		.ascii	"hwConfigStc\000"
 10365      6E666967 
 10365      53746300 
 10366              	.LASF396:
 10367 0fb6 43595F42 		.ascii	"CY_BLE_EVT_L2CAP_CBFC_TX_CREDIT_IND\000"
 10367      4C455F45 
 10367      56545F4C 
 10367      32434150 
 10367      5F434246 
 10368              	.LASF449:
 10369 0fda 70675F73 		.ascii	"pg_stat\000"
 10369      74617400 
 10370              	.LASF460:
 10371 0fe2 75695F73 		.ascii	"ui_settings_tens_amp\000"
 10371      65747469 
 10371      6E67735F 
 10371      74656E73 
 10371      5F616D70 
 10372              	.LASF524:
 10373 0ff7 706F7765 		.ascii	"power_flags_update\000"
 10373      725F666C 
 10373      6167735F 
 10373      75706461 
 10373      746500
 10374              	.LASF182:
 10375 100a 63795F65 		.ascii	"cy_en_i2s_len_t\000"
 10375      6E5F6932 
 10375      735F6C65 
 10375      6E5F7400 
ARM GAS  C:\Users\haske\AppData\Local\Temp\ccWSfRiA.s 			page 250


 10376              	.LASF270:
 10377 101a 6B696C6C 		.ascii	"killMode\000"
 10377      4D6F6465 
 10377      00
 10378              	.LASF134:
 10379 1023 6770696F 		.ascii	"gpioPrtCfgInOffset\000"
 10379      50727443 
 10379      6667496E 
 10379      4F666673 
 10379      657400
 10380              	.LASF69:
 10381 1036 70657269 		.ascii	"periBase\000"
 10381      42617365 
 10381      00
 10382              	.LASF390:
 10383 103f 43595F42 		.ascii	"CY_BLE_EVT_L2CAP_CBFC_CONN_IND\000"
 10383      4C455F45 
 10383      56545F4C 
 10383      32434150 
 10383      5F434246 
 10384              	.LASF317:
 10385 105e 43595F42 		.ascii	"CY_BLE_EVT_GET_RSSI_COMPLETE\000"
 10385      4C455F45 
 10385      56545F47 
 10385      45545F52 
 10385      5353495F 
 10386              	.LASF268:
 10387 107b 696E7665 		.ascii	"invertPWMOut\000"
 10387      72745057 
 10387      4D4F7574 
 10387      00
 10388              	.LASF424:
 10389 1088 43795F54 		.ascii	"Cy_TCPWM_PWM_SetCompare0\000"
 10389      4350574D 
 10389      5F50574D 
 10389      5F536574 
 10389      436F6D70 
 10390              	.LASF89:
 10391 10a1 63707573 		.ascii	"cpussFlashPaSize\000"
 10391      73466C61 
 10391      73685061 
 10391      53697A65 
 10391      00
 10392              	.LASF251:
 10393 10b2 63624576 		.ascii	"cbEvents\000"
 10393      656E7473 
 10393      00
 10394              	.LASF367:
 10395 10bb 43595F42 		.ascii	"CY_BLE_EVT_GATTC_READ_BY_GROUP_TYPE_RSP\000"
 10395      4C455F45 
 10395      56545F47 
 10395      41545443 
 10395      5F524541 
 10396              	.LASF10:
 10397 10e3 6C6F6E67 		.ascii	"long unsigned int\000"
 10397      20756E73 
 10397      69676E65 
ARM GAS  C:\Users\haske\AppData\Local\Temp\ccWSfRiA.s 			page 251


 10397      6420696E 
 10397      7400
 10398              	.LASF431:
 10399 10f5 75695F74 		.ascii	"ui_timer\000"
 10399      696D6572 
 10399      00
 10400              	.LASF438:
 10401 10fe 75695F64 		.ascii	"ui_draw_splash_screen\000"
 10401      7261775F 
 10401      73706C61 
 10401      73685F73 
 10401      63726565 
 10402              	.LASF457:
 10403 1114 75695F74 		.ascii	"ui_tens_task\000"
 10403      656E735F 
 10403      7461736B 
 10403      00
 10404              	.LASF346:
 10405 1121 43595F42 		.ascii	"CY_BLE_EVT_GAPC_SCAN_START_STOP\000"
 10405      4C455F45 
 10405      56545F47 
 10405      4150435F 
 10405      5343414E 
 10406              	.LASF518:
 10407 1141 73747263 		.ascii	"strcpy\000"
 10407      707900
 10408              	.LASF208:
 10409 1148 72784D61 		.ascii	"rxMasterMode\000"
 10409      73746572 
 10409      4D6F6465 
 10409      00
 10410              	.LASF99:
 10411 1155 65704D6F 		.ascii	"epMonitorNr\000"
 10411      6E69746F 
 10411      724E7200 
 10412              	.LASF358:
 10413 1161 43595F42 		.ascii	"CY_BLE_EVT_GAP_CREATE_CONN_CANCEL_COMPLETE\000"
 10413      4C455F45 
 10413      56545F47 
 10413      41505F43 
 10413      52454154 
 10414              	.LASF301:
 10415 118c 43595F42 		.ascii	"CY_BLE_EVT_SET_RPA_TO_COMPLETE\000"
 10415      4C455F45 
 10415      56545F53 
 10415      45545F52 
 10415      50415F54 
 10416              	.LASF150:
 10417 11ab 63707573 		.ascii	"cpussRam2Ctl0\000"
 10417      7352616D 
 10417      3243746C 
 10417      3000
 10418              	.LASF429:
 10419 11b9 50574D5F 		.ascii	"PWM_FAN_SetCompare0\000"
 10419      46414E5F 
 10419      53657443 
 10419      6F6D7061 
ARM GAS  C:\Users\haske\AppData\Local\Temp\ccWSfRiA.s 			page 252


 10419      72653000 
 10420              	.LASF225:
 10421 11cd 43595F53 		.ascii	"CY_SAR_RANGE_COND_OUTSIDE\000"
 10421      41525F52 
 10421      414E4745 
 10421      5F434F4E 
 10421      445F4F55 
 10422              	.LASF217:
 10423 11e7 72784368 		.ascii	"rxChannelLength\000"
 10423      616E6E65 
 10423      6C4C656E 
 10423      67746800 
 10424              	.LASF94:
 10425 11f7 73727373 		.ascii	"srssNumPll\000"
 10425      4E756D50 
 10425      6C6C00
 10426              	.LASF77:
 10427 1202 63707573 		.ascii	"cpussVersion\000"
 10427      73566572 
 10427      73696F6E 
 10427      00
 10428              	.LASF283:
 10429 120f 43595F42 		.ascii	"CY_BLE_EVT_STACK_ON\000"
 10429      4C455F45 
 10429      56545F53 
 10429      5441434B 
 10429      5F4F4E00 
 10430              	.LASF169:
 10431 1223 43595F53 		.ascii	"CY_SYSPM_HIBERNATE_PIN1_LOW\000"
 10431      5953504D 
 10431      5F484942 
 10431      45524E41 
 10431      54455F50 
 10432              	.LASF389:
 10433 123f 43595F42 		.ascii	"CY_BLE_EVT_L2CAP_COMMAND_REJ\000"
 10433      4C455F45 
 10433      56545F4C 
 10433      32434150 
 10433      5F434F4D 
 10434              	.LASF91:
 10435 125c 63707573 		.ascii	"cpussFmIrq\000"
 10435      73466D49 
 10435      727100
 10436              	.LASF199:
 10437 1267 74785761 		.ascii	"txWatchdogValue\000"
 10437      74636864 
 10437      6F675661 
 10437      6C756500 
 10438              	.LASF219:
 10439 1277 72785369 		.ascii	"rxSignExtension\000"
 10439      676E4578 
 10439      74656E73 
 10439      696F6E00 
 10440              	.LASF263:
 10441 1287 656E6162 		.ascii	"enablePeriodSwap\000"
 10441      6C655065 
 10441      72696F64 
ARM GAS  C:\Users\haske\AppData\Local\Temp\ccWSfRiA.s 			page 253


 10441      53776170 
 10441      00
 10442              	.LASF115:
 10443 1298 64774368 		.ascii	"dwChSize\000"
 10443      53697A65 
 10443      00
 10444              	.LASF420:
 10445 12a1 636C6B44 		.ascii	"clkDivider\000"
 10445      69766964 
 10445      657200
 10446              	.LASF468:
 10447 12ac 75695F74 		.ascii	"ui_task\000"
 10447      61736B00 
 10448              	.LASF430:
 10449 12b4 636F6E6E 		.ascii	"connNum\000"
 10449      4E756D00 
 10450              	.LASF23:
 10451 12bc 494E5452 		.ascii	"INTR\000"
 10451      00
 10452              	.LASF370:
 10453 12c1 43595F42 		.ascii	"CY_BLE_EVT_GATTC_FIND_BY_TYPE_VALUE_RSP\000"
 10453      4C455F45 
 10453      56545F47 
 10453      41545443 
 10453      5F46494E 
 10454              	.LASF27:
 10455 12e9 494E5452 		.ascii	"INTR_CFG\000"
 10455      5F434647 
 10455      00
 10456              	.LASF65:
 10457 12f2 54435057 		.ascii	"TCPWM_Type\000"
 10457      4D5F5479 
 10457      706500
 10458              	.LASF521:
 10459 12fd 73707269 		.ascii	"sprintf\000"
 10459      6E746600 
 10460              	.LASF371:
 10461 1305 43595F42 		.ascii	"CY_BLE_EVT_GATTC_READ_RSP\000"
 10461      4C455F45 
 10461      56545F47 
 10461      41545443 
 10461      5F524541 
 10462              	.LASF97:
 10463 131f 736D6966 		.ascii	"smifDeviceNr\000"
 10463      44657669 
 10463      63654E72 
 10463      00
 10464              	.LASF211:
 10465 132c 72785761 		.ascii	"rxWatchdogEnable\000"
 10465      74636864 
 10465      6F67456E 
 10465      61626C65 
 10465      00
 10466              	.LASF250:
 10467 133d 74784275 		.ascii	"txBufIdx\000"
 10467      66496478 
 10467      00
ARM GAS  C:\Users\haske\AppData\Local\Temp\ccWSfRiA.s 			page 254


 10468              	.LASF42:
 10469 1346 5644445F 		.ascii	"VDD_INTR_MASKED\000"
 10469      494E5452 
 10469      5F4D4153 
 10469      4B454400 
 10470              	.LASF410:
 10471 1356 43595F42 		.ascii	"CY_BLE_CONN_STATE_CLIENT_SRVC_DISCOVERING\000"
 10471      4C455F43 
 10471      4F4E4E5F 
 10471      53544154 
 10471      455F434C 
 10472              	.LASF473:
 10473 1380 74656E73 		.ascii	"tens_interval_ms\000"
 10473      5F696E74 
 10473      65727661 
 10473      6C5F6D73 
 10473      00
 10474              	.LASF322:
 10475 1391 43595F42 		.ascii	"CY_BLE_EVT_RANDOM_NUM_GEN_COMPLETE\000"
 10475      4C455F45 
 10475      56545F52 
 10475      414E444F 
 10475      4D5F4E55 
 10476              	.LASF129:
 10477 13b4 70657269 		.ascii	"periDiv16CtlOffset\000"
 10477      44697631 
 10477      3643746C 
 10477      4F666673 
 10477      657400
 10478              	.LASF105:
 10479 13c7 666C6173 		.ascii	"flashPipeRequired\000"
 10479      68506970 
 10479      65526571 
 10479      75697265 
 10479      6400
 10480              	.LASF144:
 10481 13d9 63707573 		.ascii	"cpussSysTickCtlOffset\000"
 10481      73537973 
 10481      5469636B 
 10481      43746C4F 
 10481      66667365 
 10482              	.LASF267:
 10483 13ef 696E7465 		.ascii	"interruptSources\000"
 10483      72727570 
 10483      74536F75 
 10483      72636573 
 10483      00
 10484              	.LASF191:
 10485 1400 7478446D 		.ascii	"txDmaTrigger\000"
 10485      61547269 
 10485      67676572 
 10485      00
 10486              	.LASF378:
 10487 140d 43595F42 		.ascii	"CY_BLE_EVT_GATTS_EXEC_WRITE_REQ\000"
 10487      4C455F45 
 10487      56545F47 
 10487      41545453 
ARM GAS  C:\Users\haske\AppData\Local\Temp\ccWSfRiA.s 			page 255


 10487      5F455845 
 10488              	.LASF125:
 10489 142d 70657269 		.ascii	"periDivCmdTypeSelPos\000"
 10489      44697643 
 10489      6D645479 
 10489      70655365 
 10489      6C506F73 
 10490              	.LASF67:
 10491 1442 63707573 		.ascii	"cpussBase\000"
 10491      73426173 
 10491      6500
 10492              	.LASF71:
 10493 144c 70726F74 		.ascii	"protBase\000"
 10493      42617365 
 10493      00
 10494              	.LASF271:
 10495 1455 73776170 		.ascii	"swapInputMode\000"
 10495      496E7075 
 10495      744D6F64 
 10495      6500
 10496              	.LASF83:
 10497 1463 69706356 		.ascii	"ipcVersion\000"
 10497      65727369 
 10497      6F6E00
 10498              	.LASF286:
 10499 146e 43595F42 		.ascii	"CY_BLE_EVT_MEMORY_REQUEST\000"
 10499      4C455F45 
 10499      56545F4D 
 10499      454D4F52 
 10499      595F5245 
 10500              	.LASF9:
 10501 1488 5F5F7569 		.ascii	"__uint32_t\000"
 10501      6E743332 
 10501      5F7400
 10502              	.LASF437:
 10503 1493 72696768 		.ascii	"right\000"
 10503      7400
 10504              	.LASF98:
 10505 1499 70617373 		.ascii	"passSarChannels\000"
 10505      53617243 
 10505      68616E6E 
 10505      656C7300 
 10506              	.LASF11:
 10507 14a9 6C6F6E67 		.ascii	"long long int\000"
 10507      206C6F6E 
 10507      6720696E 
 10507      7400
 10508              	.LASF441:
 10509 14b7 75695F64 		.ascii	"ui_draw_icon_text\000"
 10509      7261775F 
 10509      69636F6E 
 10509      5F746578 
 10509      7400
 10510              	.LASF29:
 10511 14c9 4346475F 		.ascii	"CFG_OUT\000"
 10511      4F555400 
 10512              	.LASF393:
ARM GAS  C:\Users\haske\AppData\Local\Temp\ccWSfRiA.s 			page 256


 10513 14d1 43595F42 		.ascii	"CY_BLE_EVT_L2CAP_CBFC_DISCONN_CNF\000"
 10513      4C455F45 
 10513      56545F4C 
 10513      32434150 
 10513      5F434246 
 10514              	.LASF415:
 10515 14f3 63795F65 		.ascii	"cy_en_ble_conn_state_t\000"
 10515      6E5F626C 
 10515      655F636F 
 10515      6E6E5F73 
 10515      74617465 
 10516              	.LASF452:
 10517 150a 7774645F 		.ascii	"wtd_fault\000"
 10517      6661756C 
 10517      7400
 10518              	.LASF153:
 10519 1514 63795F73 		.ascii	"cy_stc_device_t\000"
 10519      74635F64 
 10519      65766963 
 10519      655F7400 
 10520              	.LASF229:
 10521 1524 73616D70 		.ascii	"sampleTime01\000"
 10521      6C655469 
 10521      6D653031 
 10521      00
 10522              	.LASF55:
 10523 1531 4354524C 		.ascii	"CTRL_CLR\000"
 10523      5F434C52 
 10523      00
 10524              	.LASF161:
 10525 153a 43595F53 		.ascii	"CY_SYSPM_HIBERNATE_LPCOMP0_LOW\000"
 10525      5953504D 
 10525      5F484942 
 10525      45524E41 
 10525      54455F4C 
 10526              	.LASF311:
 10527 1559 43595F42 		.ascii	"CY_BLE_EVT_PHY_UPDATE_COMPLETE\000"
 10527      4C455F45 
 10527      56545F50 
 10527      48595F55 
 10527      50444154 
 10528              	.LASF157:
 10529 1578 646F7562 		.ascii	"double\000"
 10529      6C6500
 10530              	.LASF135:
 10531 157f 6770696F 		.ascii	"gpioPrtCfgOutOffset\000"
 10531      50727443 
 10531      66674F75 
 10531      744F6666 
 10531      73657400 
 10532              	.LASF78:
 10533 1593 63727970 		.ascii	"cryptoVersion\000"
 10533      746F5665 
 10533      7273696F 
 10533      6E00
 10534              	.LASF394:
 10535 15a1 43595F42 		.ascii	"CY_BLE_EVT_L2CAP_CBFC_DATA_READ\000"
ARM GAS  C:\Users\haske\AppData\Local\Temp\ccWSfRiA.s 			page 257


 10535      4C455F45 
 10535      56545F4C 
 10535      32434150 
 10535      5F434246 
 10536              	.LASF106:
 10537 15c1 666C6173 		.ascii	"flashWriteDelay\000"
 10537      68577269 
 10537      74654465 
 10537      6C617900 
 10538              	.LASF104:
 10539 15d1 666C6173 		.ascii	"flashRwwRequired\000"
 10539      68527777 
 10539      52657175 
 10539      69726564 
 10539      00
 10540              	.LASF112:
 10541 15e2 666C6173 		.ascii	"flashCtlMainWs3Freq\000"
 10541      6843746C 
 10541      4D61696E 
 10541      57733346 
 10541      72657100 
 10542              	.LASF48:
 10543 15f6 43435F42 		.ascii	"CC_BUFF\000"
 10543      55464600 
 10544              	.LASF247:
 10545 15fe 72784275 		.ascii	"rxBufIdx\000"
 10545      66496478 
 10545      00
 10546              	.LASF130:
 10547 1607 70657269 		.ascii	"periDiv16_5CtlOffset\000"
 10547      44697631 
 10547      365F3543 
 10547      746C4F66 
 10547      66736574 
 10548              	.LASF485:
 10549 161c 49544D5F 		.ascii	"ITM_RxBuffer\000"
 10549      52784275 
 10549      66666572 
 10549      00
 10550              	.LASF467:
 10551 1629 62746E5F 		.ascii	"btn_events\000"
 10551      6576656E 
 10551      747300
 10552              	.LASF297:
 10553 1634 43595F42 		.ascii	"CY_BLE_EVT_GET_DATA_LENGTH_COMPLETE\000"
 10553      4C455F45 
 10553      56545F47 
 10553      45545F44 
 10553      4154415F 
 10554              	.LASF156:
 10555 1658 666C6F61 		.ascii	"float\000"
 10555      7400
 10556              	.LASF359:
 10557 165e 43595F42 		.ascii	"CY_BLE_EVT_GAP_CONN_ESTB\000"
 10557      4C455F45 
 10557      56545F47 
 10557      41505F43 
ARM GAS  C:\Users\haske\AppData\Local\Temp\ccWSfRiA.s 			page 258


 10557      4F4E4E5F 
 10558              	.LASF336:
 10559 1677 43595F42 		.ascii	"CY_BLE_EVT_GAP_AUTH_REQ\000"
 10559      4C455F45 
 10559      56545F47 
 10559      41505F41 
 10559      5554485F 
 10560              	.LASF445:
 10561 168f 75695F64 		.ascii	"ui_draw_diag\000"
 10561      7261775F 
 10561      64696167 
 10561      00
 10562              	.LASF63:
 10563 169c 4750494F 		.ascii	"GPIO_PRT_Type\000"
 10563      5F505254 
 10563      5F547970 
 10563      6500
 10564              	.LASF529:
 10565 16aa 75736572 		.ascii	"user_interface.c\000"
 10565      5F696E74 
 10565      65726661 
 10565      63652E63 
 10565      00
 10566              	.LASF476:
 10567 16bb 75695F6D 		.ascii	"ui_menu\000"
 10567      656E7500 
 10568              	.LASF13:
 10569 16c3 756E7369 		.ascii	"unsigned int\000"
 10569      676E6564 
 10569      20696E74 
 10569      00
 10570              	.LASF45:
 10571 16d0 4354524C 		.ascii	"CTRL\000"
 10571      00
 10572              	.LASF408:
 10573 16d5 43595F42 		.ascii	"CY_BLE_CONN_STATE_CLIENT_DISCONNECTED_DISCOVERED\000"
 10573      4C455F43 
 10573      4F4E4E5F 
 10573      53544154 
 10573      455F434C 
 10574              	.LASF490:
 10575 1706 5350495F 		.ascii	"SPI_context\000"
 10575      636F6E74 
 10575      65787400 
 10576              	.LASF221:
 10577 1712 63795F73 		.ascii	"cy_stc_i2s_config_t\000"
 10577      74635F69 
 10577      32735F63 
 10577      6F6E6669 
 10577      675F7400 
 10578              	.LASF528:
 10579 1726 474E5520 		.ascii	"GNU C11 5.4.1 20160609 (release) [ARM/embedded-5-br"
 10579      43313120 
 10579      352E342E 
 10579      31203230 
 10579      31363036 
 10580 1759 616E6368 		.ascii	"anch revision 237715] -mcpu=cortex-m4 -mfloat-abi=s"
ARM GAS  C:\Users\haske\AppData\Local\Temp\ccWSfRiA.s 			page 259


 10580      20726576 
 10580      6973696F 
 10580      6E203233 
 10580      37373135 
 10581 178c 6F667466 		.ascii	"oftfp -mfpu=fpv4-sp-d16 -mthumb -g -Og -ffunction-s"
 10581      70202D6D 
 10581      6670753D 
 10581      66707634 
 10581      2D73702D 
 10582 17bf 65637469 		.ascii	"ections -ffat-lto-objects\000"
 10582      6F6E7320 
 10582      2D666661 
 10582      742D6C74 
 10582      6F2D6F62 
 10583              	.LASF256:
 10584 17d9 70776D4D 		.ascii	"pwmMode\000"
 10584      6F646500 
 10585              	.LASF461:
 10586 17e1 75695F76 		.ascii	"ui_vibe_task\000"
 10586      6962655F 
 10586      7461736B 
 10586      00
 10587              	.LASF165:
 10588 17ee 43595F53 		.ascii	"CY_SYSPM_HIBERNATE_RTC_ALARM\000"
 10588      5953504D 
 10588      5F484942 
 10588      45524E41 
 10588      54455F52 
 10589              	.LASF80:
 10590 180b 666C6173 		.ascii	"flashcVersion\000"
 10590      68635665 
 10590      7273696F 
 10590      6E00
 10591              	.LASF266:
 10592 1819 656E6162 		.ascii	"enableCompareSwap\000"
 10592      6C65436F 
 10592      6D706172 
 10592      65537761 
 10592      7000
 10593              	.LASF230:
 10594 182b 73616D70 		.ascii	"sampleTime23\000"
 10594      6C655469 
 10594      6D653233 
 10594      00
 10595              	.LASF278:
 10596 1838 6B696C6C 		.ascii	"killInput\000"
 10596      496E7075 
 10596      7400
 10597              	.LASF349:
 10598 1842 43595F42 		.ascii	"CY_BLE_EVT_GAP_KEYPRESS_NOTIFICATION\000"
 10598      4C455F45 
 10598      56545F47 
 10598      41505F4B 
 10598      45595052 
 10599              	.LASF292:
 10600 1867 43595F42 		.ascii	"CY_BLE_EVT_GET_CHANNEL_MAP_COMPLETE\000"
 10600      4C455F45 
ARM GAS  C:\Users\haske\AppData\Local\Temp\ccWSfRiA.s 			page 260


 10600      56545F47 
 10600      45545F43 
 10600      48414E4E 
 10601              	.LASF174:
 10602 188b 43595F49 		.ascii	"CY_I2S_TDM_MODE_B\000"
 10602      32535F54 
 10602      444D5F4D 
 10602      4F44455F 
 10602      4200
 10603              	.LASF525:
 10604 189d 706F7765 		.ascii	"power_5v_on\000"
 10604      725F3576 
 10604      5F6F6E00 
 10605              	.LASF132:
 10606 18a9 6770696F 		.ascii	"gpioPrtIntrCfgOffset\000"
 10606      50727449 
 10606      6E747243 
 10606      66674F66 
 10606      66736574 
 10607              	.LASF149:
 10608 18be 63707573 		.ascii	"cpussRam1Ctl0\000"
 10608      7352616D 
 10608      3143746C 
 10608      3000
 10609              	.LASF298:
 10610 18cc 43595F42 		.ascii	"CY_BLE_EVT_DATA_LENGTH_CHANGE\000"
 10610      4C455F45 
 10610      56545F44 
 10610      4154415F 
 10610      4C454E47 
 10611              	.LASF280:
 10612 18ea 636F756E 		.ascii	"countInput\000"
 10612      74496E70 
 10612      757400
 10613              	.LASF411:
 10614 18f5 43595F42 		.ascii	"CY_BLE_CONN_STATE_CLIENT_INCL_DISCOVERING\000"
 10614      4C455F43 
 10614      4F4E4E5F 
 10614      53544154 
 10614      455F434C 
 10615              	.LASF167:
 10616 191f 43595F53 		.ascii	"CY_SYSPM_HIBERNATE_PIN0_LOW\000"
 10616      5953504D 
 10616      5F484942 
 10616      45524E41 
 10616      54455F50 
 10617              	.LASF47:
 10618 193b 434F554E 		.ascii	"COUNTER\000"
 10618      54455200 
 10619              	.LASF363:
 10620 1943 43595F42 		.ascii	"CY_BLE_EVT_GATT_CONNECT_IND\000"
 10620      4C455F45 
 10620      56545F47 
 10620      4154545F 
 10620      434F4E4E 
 10621              	.LASF57:
 10622 195f 434D445F 		.ascii	"CMD_CAPTURE\000"
ARM GAS  C:\Users\haske\AppData\Local\Temp\ccWSfRiA.s 			page 261


 10622      43415054 
 10622      55524500 
 10623              	.LASF189:
 10624 196b 7478456E 		.ascii	"txEnabled\000"
 10624      61626C65 
 10624      6400
 10625              	.LASF402:
 10626 1975 43595F42 		.ascii	"CY_BLE_ADV_STATE_STOPPED\000"
 10626      4C455F41 
 10626      44565F53 
 10626      54415445 
 10626      5F53544F 
 10627              	.LASF406:
 10628 198e 63795F65 		.ascii	"cy_en_ble_adv_state_t\000"
 10628      6E5F626C 
 10628      655F6164 
 10628      765F7374 
 10628      6174655F 
 10629              	.LASF222:
 10630 19a4 43595F53 		.ascii	"CY_SAR_RANGE_COND_BELOW\000"
 10630      41525F52 
 10630      414E4745 
 10630      5F434F4E 
 10630      445F4245 
 10631              	.LASF426:
 10632 19bc 70696E4E 		.ascii	"pinNum\000"
 10632      756D00
 10633              	.LASF334:
 10634 19c3 43595F42 		.ascii	"CY_BLE_EVT_HCI_PKT_RCVD\000"
 10634      4C455F45 
 10634      56545F48 
 10634      43495F50 
 10634      4B545F52 
 10635              	.LASF224:
 10636 19db 43595F53 		.ascii	"CY_SAR_RANGE_COND_ABOVE\000"
 10636      41525F52 
 10636      414E4745 
 10636      5F434F4E 
 10636      445F4142 
 10637              	.LASF201:
 10638 19f3 74785363 		.ascii	"txSckoInversion\000"
 10638      6B6F496E 
 10638      76657273 
 10638      696F6E00 
 10639              	.LASF500:
 10640 1a03 50574D5F 		.ascii	"PWM_PEL1_config\000"
 10640      50454C31 
 10640      5F636F6E 
 10640      66696700 
 10641              	.LASF282:
 10642 1a13 43595F42 		.ascii	"CY_BLE_EVT_INVALID\000"
 10642      4C455F45 
 10642      56545F49 
 10642      4E56414C 
 10642      494400
 10643              	.LASF87:
 10644 1a26 63707573 		.ascii	"cpussIpcIrqNr\000"
ARM GAS  C:\Users\haske\AppData\Local\Temp\ccWSfRiA.s 			page 262


 10644      73497063 
 10644      4972714E 
 10644      7200
 10645              	.LASF376:
 10646 1a34 43595F42 		.ascii	"CY_BLE_EVT_GATTS_WRITE_CMD_REQ\000"
 10646      4C455F45 
 10646      56545F47 
 10646      41545453 
 10646      5F575249 
 10647              	.LASF231:
 10648 1a53 72616E67 		.ascii	"rangeThres\000"
 10648      65546872 
 10648      657300
 10649              	.LASF119:
 10650 1a5e 64775374 		.ascii	"dwStatusChIdxMsk\000"
 10650      61747573 
 10650      43684964 
 10650      784D736B 
 10650      00
 10651              	.LASF207:
 10652 1a6f 74784669 		.ascii	"txFifoTriggerLevel\000"
 10652      666F5472 
 10652      69676765 
 10652      724C6576 
 10652      656C00
 10653              	.LASF332:
 10654 1a82 43595F42 		.ascii	"CY_BLE_EVT_SET_CE_LENGTH_COMPLETE\000"
 10654      4C455F45 
 10654      56545F53 
 10654      45545F43 
 10654      455F4C45 
 10655              	.LASF108:
 10656 1aa4 666C6173 		.ascii	"flashEraseDelay\000"
 10656      68457261 
 10656      73654465 
 10656      6C617900 
 10657              	.LASF40:
 10658 1ab4 5644445F 		.ascii	"VDD_INTR\000"
 10658      494E5452 
 10658      00
 10659              	.LASF192:
 10660 1abd 7278446D 		.ascii	"rxDmaTrigger\000"
 10660      61547269 
 10660      67676572 
 10660      00
 10661              	.LASF339:
 10662 1aca 43595F42 		.ascii	"CY_BLE_EVT_GAP_AUTH_COMPLETE\000"
 10662      4C455F45 
 10662      56545F47 
 10662      41505F41 
 10662      5554485F 
 10663              	.LASF527:
 10664 1ae7 43795F53 		.ascii	"Cy_SysPm_SetHibernateWakeupSource\000"
 10664      7973506D 
 10664      5F536574 
 10664      48696265 
 10664      726E6174 
ARM GAS  C:\Users\haske\AppData\Local\Temp\ccWSfRiA.s 			page 263


 10665              	.LASF66:
 10666 1b09 6C6F6E67 		.ascii	"long double\000"
 10666      20646F75 
 10666      626C6500 
 10667              	.LASF26:
 10668 1b15 494E5452 		.ascii	"INTR_SET\000"
 10668      5F534554 
 10668      00
 10669              	.LASF295:
 10670 1b1e 43595F42 		.ascii	"CY_BLE_EVT_SET_DATA_LENGTH_COMPLETE\000"
 10670      4C455F45 
 10670      56545F53 
 10670      45545F44 
 10670      4154415F 
 10671              	.LASF419:
 10672 1b42 6D697363 		.ascii	"miscConfig\000"
 10672      436F6E66 
 10672      696700
 10673              	.LASF463:
 10674 1b4d 75695F73 		.ascii	"ui_settings_vibe_amp\000"
 10674      65747469 
 10674      6E67735F 
 10674      76696265 
 10674      5F616D70 
 10675              	.LASF25:
 10676 1b62 494E5452 		.ascii	"INTR_MASKED\000"
 10676      5F4D4153 
 10676      4B454400 
 10677              	.LASF472:
 10678 1b6e 74656E73 		.ascii	"tens_timeout\000"
 10678      5F74696D 
 10678      656F7574 
 10678      00
 10679              	.LASF64:
 10680 1b7b 4750494F 		.ascii	"GPIO_Type\000"
 10680      5F547970 
 10680      6500
 10681              	.LASF146:
 10682 1b85 63707573 		.ascii	"cpussCm4NmiCtlOffset\000"
 10682      73436D34 
 10682      4E6D6943 
 10682      746C4F66 
 10682      66736574 
 10683              	.LASF60:
 10684 1b9a 434D445F 		.ascii	"CMD_START\000"
 10684      53544152 
 10684      5400
 10685              	.LASF145:
 10686 1ba4 63707573 		.ascii	"cpussCm0NmiCtlOffset\000"
 10686      73436D30 
 10686      4E6D6943 
 10686      746C4F66 
 10686      66736574 
 10687              	.LASF491:
 10688 1bb9 50574D5F 		.ascii	"PWM_TENS2_config\000"
 10688      54454E53 
 10688      325F636F 
ARM GAS  C:\Users\haske\AppData\Local\Temp\ccWSfRiA.s 			page 264


 10688      6E666967 
 10688      00
 10689              	.LASF302:
 10690 1bca 43595F42 		.ascii	"CY_BLE_EVT_SET_RPA_ENABLE_COMPLETE\000"
 10690      4C455F45 
 10690      56545F53 
 10690      45545F52 
 10690      50415F45 
 10691              	.LASF111:
 10692 1bed 666C6173 		.ascii	"flashCtlMainWs2Freq\000"
 10692      6843746C 
 10692      4D61696E 
 10692      57733246 
 10692      72657100 
 10693              	.LASF345:
 10694 1c01 43595F42 		.ascii	"CY_BLE_EVT_GAP_CONNECTION_UPDATE_COMPLETE\000"
 10694      4C455F45 
 10694      56545F47 
 10694      41505F43 
 10694      4F4E4E45 
 10695              	.LASF240:
 10696 1c2b 636F6E66 		.ascii	"configRouting\000"
 10696      6967526F 
 10696      7574696E 
 10696      6700
 10697              	.LASF154:
 10698 1c39 63686172 		.ascii	"char_t\000"
 10698      5F7400
 10699              	.LASF338:
 10700 1c40 43595F42 		.ascii	"CY_BLE_EVT_GAP_PASSKEY_DISPLAY_REQUEST\000"
 10700      4C455F45 
 10700      56545F47 
 10700      41505F50 
 10700      4153534B 
 10701              	.LASF12:
 10702 1c67 6C6F6E67 		.ascii	"long long unsigned int\000"
 10702      206C6F6E 
 10702      6720756E 
 10702      7369676E 
 10702      65642069 
 10703              	.LASF184:
 10704 1c7e 43595F49 		.ascii	"CY_I2S_OVHDATA_ONE\000"
 10704      32535F4F 
 10704      56484441 
 10704      54415F4F 
 10704      4E4500
 10705              	.LASF186:
 10706 1c91 43595F49 		.ascii	"CY_I2S_WS_ONE_SCK_CYCLE\000"
 10706      32535F57 
 10706      535F4F4E 
 10706      455F5343 
 10706      4B5F4359 
 10707              	.LASF294:
 10708 1ca9 43595F42 		.ascii	"CY_BLE_EVT_LE_PING_AUTH_TIMEOUT\000"
 10708      4C455F45 
 10708      56545F4C 
 10708      455F5049 
ARM GAS  C:\Users\haske\AppData\Local\Temp\ccWSfRiA.s 			page 265


 10708      4E475F41 
 10709              	.LASF16:
 10710 1cc9 75696E74 		.ascii	"uint16_t\000"
 10710      31365F74 
 10710      00
 10711              	.LASF324:
 10712 1cd2 43595F42 		.ascii	"CY_BLE_EVT_AES_CCM_ENCRYPT_COMPLETE\000"
 10712      4C455F45 
 10712      56545F41 
 10712      45535F43 
 10712      434D5F45 
 10713              	.LASF168:
 10714 1cf6 43595F53 		.ascii	"CY_SYSPM_HIBERNATE_PIN0_HIGH\000"
 10714      5953504D 
 10714      5F484942 
 10714      45524E41 
 10714      54455F50 
 10715              	.LASF34:
 10716 1d13 4750494F 		.ascii	"GPIO_PRT_V1_Type\000"
 10716      5F505254 
 10716      5F56315F 
 10716      54797065 
 10716      00
 10717              	.LASF456:
 10718 1d24 6E74635F 		.ascii	"ntc_fault\000"
 10718      6661756C 
 10718      7400
 10719              	.LASF356:
 10720 1d2e 43595F42 		.ascii	"CY_BLE_EVT_GAP_RESOLVE_DEVICE_COMPLETE\000"
 10720      4C455F45 
 10720      56545F47 
 10720      41505F52 
 10720      45534F4C 
 10721              	.LASF366:
 10722 1d55 43595F42 		.ascii	"CY_BLE_EVT_GATTC_XCHNG_MTU_RSP\000"
 10722      4C455F45 
 10722      56545F47 
 10722      41545443 
 10722      5F584348 
 10723              	.LASF93:
 10724 1d74 73727373 		.ascii	"srssNumClkpath\000"
 10724      4E756D43 
 10724      6C6B7061 
 10724      746800
 10725              	.LASF392:
 10726 1d83 43595F42 		.ascii	"CY_BLE_EVT_L2CAP_CBFC_DISCONN_IND\000"
 10726      4C455F45 
 10726      56545F4C 
 10726      32434150 
 10726      5F434246 
 10727              	.LASF299:
 10728 1da5 43595F42 		.ascii	"CY_BLE_EVT_GET_PEER_RPA_COMPLETE\000"
 10728      4C455F45 
 10728      56545F47 
 10728      45545F50 
 10728      4545525F 
 10729              	.LASF395:
ARM GAS  C:\Users\haske\AppData\Local\Temp\ccWSfRiA.s 			page 266


 10730 1dc6 43595F42 		.ascii	"CY_BLE_EVT_L2CAP_CBFC_RX_CREDIT_IND\000"
 10730      4C455F45 
 10730      56545F4C 
 10730      32434150 
 10730      5F434246 
 10731              	.LASF228:
 10732 1dea 73616D70 		.ascii	"sampleCtrl\000"
 10732      6C654374 
 10732      726C00
 10733              	.LASF210:
 10734 1df5 72785773 		.ascii	"rxWsPulseWidth\000"
 10734      50756C73 
 10734      65576964 
 10734      746800
 10735              	.LASF314:
 10736 1e04 43595F42 		.ascii	"CY_BLE_EVT_SOFT_RESET_COMPLETE\000"
 10736      4C455F45 
 10736      56545F53 
 10736      4F46545F 
 10736      52455345 
 10737              	.LASF515:
 10738 1e23 55495F4D 		.ascii	"UI_MENU_ITEMS_INIT\000"
 10738      454E555F 
 10738      4954454D 
 10738      535F494E 
 10738      495400
 10739              	.LASF248:
 10740 1e36 74784275 		.ascii	"txBuf\000"
 10740      6600
 10741              	.LASF361:
 10742 1e3c 43595F42 		.ascii	"CY_BLE_EVT_GAP_ADV_TX\000"
 10742      4C455F45 
 10742      56545F47 
 10742      41505F41 
 10742      44565F54 
 10743              	.LASF405:
 10744 1e52 43595F42 		.ascii	"CY_BLE_ADV_STATE_STOP_INITIATED\000"
 10744      4C455F41 
 10744      44565F53 
 10744      54415445 
 10744      5F53544F 
 10745              	.LASF495:
 10746 1e72 4144435F 		.ascii	"ADC_allConfigs\000"
 10746      616C6C43 
 10746      6F6E6669 
 10746      677300
 10747              	.LASF397:
 10748 1e81 43595F42 		.ascii	"CY_BLE_EVT_L2CAP_CBFC_DATA_WRITE_IND\000"
 10748      4C455F45 
 10748      56545F4C 
 10748      32434150 
 10748      5F434246 
 10749              	.LASF138:
 10750 1ea6 63707573 		.ascii	"cpussCm4ClockCtlOffset\000"
 10750      73436D34 
 10750      436C6F63 
 10750      6B43746C 
ARM GAS  C:\Users\haske\AppData\Local\Temp\ccWSfRiA.s 			page 267


 10750      4F666673 
 10751              	.LASF81:
 10752 1ebd 6770696F 		.ascii	"gpioVersion\000"
 10752      56657273 
 10752      696F6E00 
 10753              	.LASF197:
 10754 1ec9 74785773 		.ascii	"txWsPulseWidth\000"
 10754      50756C73 
 10754      65576964 
 10754      746800
 10755              	.LASF17:
 10756 1ed8 696E7433 		.ascii	"int32_t\000"
 10756      325F7400 
 10757              	.LASF43:
 10758 1ee0 5644445F 		.ascii	"VDD_INTR_SET\000"
 10758      494E5452 
 10758      5F534554 
 10758      00
 10759              	.LASF88:
 10760 1eed 63707573 		.ascii	"cpussDwChNr\000"
 10760      73447743 
 10760      684E7200 
 10761              	.LASF131:
 10762 1ef9 70657269 		.ascii	"periDiv24_5CtlOffset\000"
 10762      44697632 
 10762      345F3543 
 10762      746C4F66 
 10762      66736574 
 10763              	.LASF212:
 10764 1f0e 72785761 		.ascii	"rxWatchdogValue\000"
 10764      74636864 
 10764      6F675661 
 10764      6C756500 
 10765              	.LASF148:
 10766 1f1e 63707573 		.ascii	"cpussRam0Ctl0\000"
 10766      7352616D 
 10766      3043746C 
 10766      3000
 10767              	.LASF253:
 10768 1f2c 63795F73 		.ascii	"cy_stc_scb_spi_context_t\000"
 10768      74635F73 
 10768      63625F73 
 10768      70695F63 
 10768      6F6E7465 
 10769              	.LASF532:
 10770 1f45 43795F42 		.ascii	"Cy_BLE_GetNumOfActiveConn\000"
 10770      4C455F47 
 10770      65744E75 
 10770      6D4F6641 
 10770      63746976 
 10771              	.LASF503:
 10772 1f5f 63616368 		.ascii	"cacheMemIndexCol\000"
 10772      654D656D 
 10772      496E6465 
 10772      78436F6C 
 10772      00
 10773              	.LASF209:
ARM GAS  C:\Users\haske\AppData\Local\Temp\ccWSfRiA.s 			page 268


 10774 1f70 7278416C 		.ascii	"rxAlignment\000"
 10774      69676E6D 
 10774      656E7400 
 10775              	.LASF494:
 10776 1f7c 4144435F 		.ascii	"ADC_currentConfig\000"
 10776      63757272 
 10776      656E7443 
 10776      6F6E6669 
 10776      6700
 10777              	.LASF440:
 10778 1f8e 75695F63 		.ascii	"ui_clear_icon\000"
 10778      6C656172 
 10778      5F69636F 
 10778      6E00
 10779              	.LASF4:
 10780 1f9c 5F5F696E 		.ascii	"__int16_t\000"
 10780      7431365F 
 10780      7400
 10781              	.LASF353:
 10782 1fa6 43595F42 		.ascii	"CY_BLE_EVT_GAP_SMP_NEGOTIATED_AUTH_INFO\000"
 10782      4C455F45 
 10782      56545F47 
 10782      41505F53 
 10782      4D505F4E 
 10783              	.LASF464:
 10784 1fce 75695F73 		.ascii	"ui_settings_temp\000"
 10784      65747469 
 10784      6E67735F 
 10784      74656D70 
 10784      00
 10785              	.LASF46:
 10786 1fdf 53544154 		.ascii	"STATUS\000"
 10786      555300
 10787              	.LASF124:
 10788 1fe6 70657269 		.ascii	"periDivCmdDivSelMsk\000"
 10788      44697643 
 10788      6D644469 
 10788      7653656C 
 10788      4D736B00 
 10789              	.LASF388:
 10790 1ffa 43595F42 		.ascii	"CY_BLE_EVT_L2CAP_CONN_PARAM_UPDATE_RSP\000"
 10790      4C455F45 
 10790      56545F4C 
 10790      32434150 
 10790      5F434F4E 
 10791              	.LASF59:
 10792 2021 434D445F 		.ascii	"CMD_STOP\000"
 10792      53544F50 
 10792      00
 10793              	.LASF79:
 10794 202a 64775665 		.ascii	"dwVersion\000"
 10794      7273696F 
 10794      6E00
 10795              	.LASF30:
 10796 2034 4346475F 		.ascii	"CFG_SIO\000"
 10796      53494F00 
 10797              	.LASF372:
ARM GAS  C:\Users\haske\AppData\Local\Temp\ccWSfRiA.s 			page 269


 10798 203c 43595F42 		.ascii	"CY_BLE_EVT_GATTC_READ_BLOB_RSP\000"
 10798      4C455F45 
 10798      56545F47 
 10798      41545443 
 10798      5F524541 
 10799              	.LASF73:
 10800 205b 6770696F 		.ascii	"gpioBase\000"
 10800      42617365 
 10800      00
 10801              	.LASF502:
 10802 2064 63616368 		.ascii	"cacheMemIndexRow\000"
 10802      654D656D 
 10802      496E6465 
 10802      78526F77 
 10802      00
 10803              	.LASF102:
 10804 2075 70726F74 		.ascii	"protBusMasterMask\000"
 10804      4275734D 
 10804      61737465 
 10804      724D6173 
 10804      6B00
 10805              	.LASF101:
 10806 2087 73797350 		.ascii	"sysPmSimoPresent\000"
 10806      6D53696D 
 10806      6F507265 
 10806      73656E74 
 10806      00
 10807              	.LASF385:
 10808 2098 43595F42 		.ascii	"CY_BLE_EVT_GATTS_READ_CHAR_VAL_ACCESS_REQ\000"
 10808      4C455F45 
 10808      56545F47 
 10808      41545453 
 10808      5F524541 
 10809              	.LASF511:
 10810 20c2 55495F54 		.ascii	"UI_TENS_AMP_MENU_ITEMS\000"
 10810      454E535F 
 10810      414D505F 
 10810      4D454E55 
 10810      5F495445 
 10811              	.LASF486:
 10812 20d9 63795F64 		.ascii	"cy_device\000"
 10812      65766963 
 10812      6500
 10813              	.LASF177:
 10814 20e3 43595F49 		.ascii	"CY_I2S_LEN16\000"
 10814      32535F4C 
 10814      454E3136 
 10814      00
 10815              	.LASF178:
 10816 20f0 43595F49 		.ascii	"CY_I2S_LEN18\000"
 10816      32535F4C 
 10816      454E3138 
 10816      00
 10817              	.LASF401:
 10818 20fd 63795F73 		.ascii	"cy_stc_ble_conn_handle_t\000"
 10818      74635F62 
 10818      6C655F63 
ARM GAS  C:\Users\haske\AppData\Local\Temp\ccWSfRiA.s 			page 270


 10818      6F6E6E5F 
 10818      68616E64 
 10819              	.LASF341:
 10820 2116 43595F42 		.ascii	"CY_BLE_EVT_GAPP_ADVERTISEMENT_START_STOP\000"
 10820      4C455F45 
 10820      56545F47 
 10820      4150505F 
 10820      41445645 
 10821              	.LASF275:
 10822 213f 73746172 		.ascii	"startInputMode\000"
 10822      74496E70 
 10822      75744D6F 
 10822      646500
 10823              	.LASF238:
 10824 214e 6D757853 		.ascii	"muxSwitch\000"
 10824      77697463 
 10824      6800
 10825              	.LASF409:
 10826 2158 43595F42 		.ascii	"CY_BLE_CONN_STATE_CONNECTED\000"
 10826      4C455F43 
 10826      4F4E4E5F 
 10826      53544154 
 10826      455F434F 
 10827              	.LASF50:
 10828 2174 50455249 		.ascii	"PERIOD_BUFF\000"
 10828      4F445F42 
 10828      55464600 
 10829              	.LASF223:
 10830 2180 43595F53 		.ascii	"CY_SAR_RANGE_COND_INSIDE\000"
 10830      41525F52 
 10830      414E4745 
 10830      5F434F4E 
 10830      445F494E 
 10831              	.LASF291:
 10832 2199 43595F42 		.ascii	"CY_BLE_EVT_READ_AUTH_PAYLOAD_TO_COMPLETE\000"
 10832      4C455F45 
 10832      56545F52 
 10832      4541445F 
 10832      41555448 
 10833              	.LASF158:
 10834 21c2 75696E74 		.ascii	"uint8\000"
 10834      3800
 10835              	.LASF508:
 10836 21c8 55495F56 		.ascii	"UI_VIBE_AMP_MENU_ITEMS\000"
 10836      4942455F 
 10836      414D505F 
 10836      4D454E55 
 10836      5F495445 
 10837              	.LASF519:
 10838 21df 73747274 		.ascii	"strtok\000"
 10838      6F6B00
 10839              	.LASF179:
 10840 21e6 43595F49 		.ascii	"CY_I2S_LEN20\000"
 10840      32535F4C 
 10840      454E3230 
 10840      00
 10841              	.LASF252:
ARM GAS  C:\Users\haske\AppData\Local\Temp\ccWSfRiA.s 			page 271


 10842 21f3 696E6974 		.ascii	"initKey\000"
 10842      4B657900 
 10843              	.LASF84:
 10844 21fb 70657269 		.ascii	"periVersion\000"
 10844      56657273 
 10844      696F6E00 
 10845              	.LASF180:
 10846 2207 43595F49 		.ascii	"CY_I2S_LEN24\000"
 10846      32535F4C 
 10846      454E3234 
 10846      00
 10847              	.LASF407:
 10848 2214 43595F42 		.ascii	"CY_BLE_CONN_STATE_DISCONNECTED\000"
 10848      4C455F43 
 10848      4F4E4E5F 
 10848      53544154 
 10848      455F4449 
 10849              	.LASF0:
 10850 2233 73686F72 		.ascii	"short int\000"
 10850      7420696E 
 10850      7400
 10851              	.LASF327:
 10852 223d 43595F42 		.ascii	"CY_BLE_EVT_STACK_SHUTDOWN_COMPLETE\000"
 10852      4C455F45 
 10852      56545F53 
 10852      5441434B 
 10852      5F534855 
 10853              	.LASF213:
 10854 2260 72785364 		.ascii	"rxSdiLatchingTime\000"
 10854      694C6174 
 10854      6368696E 
 10854      6754696D 
 10854      6500
 10855              	.LASF318:
 10856 2272 43595F42 		.ascii	"CY_BLE_EVT_GET_TX_PWR_COMPLETE\000"
 10856      4C455F45 
 10856      56545F47 
 10856      45545F54 
 10856      585F5057 
 10857              	.LASF316:
 10858 2291 43595F42 		.ascii	"CY_BLE_EVT_GET_DEVICE_ADDR_COMPLETE\000"
 10858      4C455F45 
 10858      56545F47 
 10858      45545F44 
 10858      45564943 
 10859              	.LASF15:
 10860 22b5 696E7431 		.ascii	"int16_t\000"
 10860      365F7400 
 10861              	.LASF522:
 10862 22bd 43795F53 		.ascii	"Cy_SysLib_DelayUs\000"
 10862      79734C69 
 10862      625F4465 
 10862      6C617955 
 10862      7300
 10863              	.LASF110:
 10864 22cf 666C6173 		.ascii	"flashCtlMainWs1Freq\000"
 10864      6843746C 
ARM GAS  C:\Users\haske\AppData\Local\Temp\ccWSfRiA.s 			page 272


 10864      4D61696E 
 10864      57733146 
 10864      72657100 
 10865              	.LASF235:
 10866 22e3 696E7472 		.ascii	"intrMask\000"
 10866      4D61736B 
 10866      00
 10867              	.LASF520:
 10868 22ec 706F7765 		.ascii	"power_get_diag_data\000"
 10868      725F6765 
 10868      745F6469 
 10868      61675F64 
 10868      61746100 
 10869              	.LASF444:
 10870 2300 6974656D 		.ascii	"item\000"
 10870      00
 10871              	.LASF181:
 10872 2305 43595F49 		.ascii	"CY_I2S_LEN32\000"
 10872      32535F4C 
 10872      454E3332 
 10872      00
 10873              	.LASF383:
 10874 2312 43595F42 		.ascii	"CY_BLE_EVT_GATTS_DATA_SIGNED_CMD_REQ\000"
 10874      4C455F45 
 10874      56545F47 
 10874      41545453 
 10874      5F444154 
 10875              	.LASF342:
 10876 2337 43595F42 		.ascii	"CY_BLE_EVT_GAP_DEVICE_CONNECTED\000"
 10876      4C455F45 
 10876      56545F47 
 10876      41505F44 
 10876      45564943 
 10877              	.LASF329:
 10878 2357 43595F42 		.ascii	"CY_BLE_EVT_RADIO_VOLTAGE_LEVEL\000"
 10878      4C455F45 
 10878      56545F52 
 10878      4144494F 
 10878      5F564F4C 
 10879              	.LASF489:
 10880 2376 63795F62 		.ascii	"cy_ble_connState\000"
 10880      6C655F63 
 10880      6F6E6E53 
 10880      74617465 
 10880      00
 10881              	.LASF107:
 10882 2387 666C6173 		.ascii	"flashProgramDelay\000"
 10882      6850726F 
 10882      6772616D 
 10882      44656C61 
 10882      7900
 10883              	.LASF288:
 10884 2399 43595F42 		.ascii	"CY_BLE_EVT_FLASH_CORRUPT\000"
 10884      4C455F45 
 10884      56545F46 
 10884      4C415348 
 10884      5F434F52 
ARM GAS  C:\Users\haske\AppData\Local\Temp\ccWSfRiA.s 			page 273


 10885              	.LASF70:
 10886 23b2 75646242 		.ascii	"udbBase\000"
 10886      61736500 
 10887              	.LASF259:
 10888 23ba 64656164 		.ascii	"deadTimeClocks\000"
 10888      54696D65 
 10888      436C6F63 
 10888      6B7300
 10889              	.LASF300:
 10890 23c9 43595F42 		.ascii	"CY_BLE_EVT_GET_LOCAL_RPA_COMPLETE\000"
 10890      4C455F45 
 10890      56545F47 
 10890      45545F4C 
 10890      4F43414C 
 10891              	.LASF206:
 10892 23eb 74784F76 		.ascii	"txOverheadValue\000"
 10892      65726865 
 10892      61645661 
 10892      6C756500 
 10893              	.LASF39:
 10894 23fb 5644445F 		.ascii	"VDD_ACTIVE\000"
 10894      41435449 
 10894      564500
 10895              	.LASF243:
 10896 2406 63795F63 		.ascii	"cy_cb_scb_spi_handle_events_t\000"
 10896      625F7363 
 10896      625F7370 
 10896      695F6861 
 10896      6E646C65 
 10897              	.LASF530:
 10898 2424 433A5C50 		.ascii	"C:\\Projects\\PainDrain\\firmware\\PainDrain\\PainD"
 10898      726F6A65 
 10898      6374735C 
 10898      5061696E 
 10898      44726169 
 10899 2452 7261696E 		.ascii	"rain.cydsn\000"
 10899      2E637964 
 10899      736E00
 10900              	.LASF62:
 10901 245d 54435057 		.ascii	"TCPWM_V1_Type\000"
 10901      4D5F5631 
 10901      5F547970 
 10901      6500
 10902              	.LASF136:
 10903 246b 6770696F 		.ascii	"gpioPrtCfgSioOffset\000"
 10903      50727443 
 10903      66675369 
 10903      6F4F6666 
 10903      73657400 
 10904              	.LASF92:
 10905 247f 63707573 		.ascii	"cpussNotConnectedIrq\000"
 10905      734E6F74 
 10905      436F6E6E 
 10905      65637465 
 10905      64497271 
 10906              	.LASF202:
 10907 2494 74785363 		.ascii	"txSckiInversion\000"
ARM GAS  C:\Users\haske\AppData\Local\Temp\ccWSfRiA.s 			page 274


 10907      6B69496E 
 10907      76657273 
 10907      696F6E00 
 10908              	.LASF239:
 10909 24a4 6D757853 		.ascii	"muxSwitchSqCtrl\000"
 10909      77697463 
 10909      68537143 
 10909      74726C00 
 10910              	.LASF487:
 10911 24b4 63795F62 		.ascii	"cy_ble_advState\000"
 10911      6C655F61 
 10911      64765374 
 10911      61746500 
 10912              	.LASF421:
 10913 24c4 4144435F 		.ascii	"ADC_CONFIG_STRUCT\000"
 10913      434F4E46 
 10913      49475F53 
 10913      54525543 
 10913      5400
 10914              	.LASF22:
 10915 24d6 4F55545F 		.ascii	"OUT_INV\000"
 10915      494E5600 
 10916              	.LASF277:
 10917 24de 6B696C6C 		.ascii	"killInputMode\000"
 10917      496E7075 
 10917      744D6F64 
 10917      6500
 10918              	.LASF330:
 10919 24ec 43595F42 		.ascii	"CY_BLE_EVT_AES_CMAC_GEN_COMPLETE\000"
 10919      4C455F45 
 10919      56545F41 
 10919      45535F43 
 10919      4D41435F 
 10920              	.LASF100:
 10921 250d 75646250 		.ascii	"udbPresent\000"
 10921      72657365 
 10921      6E7400
 10922              	.LASF244:
 10923 2518 73746174 		.ascii	"status\000"
 10923      757300
 10924              	.LASF423:
 10925 251f 636E744E 		.ascii	"cntNum\000"
 10925      756D00
 10926              	.LASF183:
 10927 2526 43595F49 		.ascii	"CY_I2S_OVHDATA_ZERO\000"
 10927      32535F4F 
 10927      56484441 
 10927      54415F5A 
 10927      45524F00 
 10928              	.LASF323:
 10929 253a 43595F42 		.ascii	"CY_BLE_EVT_AES_ENCRYPT_COMPLETE\000"
 10929      4C455F45 
 10929      56545F41 
 10929      45535F45 
 10929      4E435259 
 10930              	.LASF18:
 10931 255a 75696E74 		.ascii	"uint32_t\000"
ARM GAS  C:\Users\haske\AppData\Local\Temp\ccWSfRiA.s 			page 275


 10931      33325F74 
 10931      00
 10932              	.LASF504:
 10933 2563 55495F54 		.ascii	"UI_TITLES\000"
 10933      49544C45 
 10933      5300
 10934              	.LASF232:
 10935 256d 72616E67 		.ascii	"rangeCond\000"
 10935      65436F6E 
 10935      6400
 10936              	.LASF261:
 10937 2577 70657269 		.ascii	"period0\000"
 10937      6F643000 
 10938              	.LASF214:
 10939 257f 72785363 		.ascii	"rxSckoInversion\000"
 10939      6B6F496E 
 10939      76657273 
 10939      696F6E00 
 10940              	.LASF478:
 10941 258f 75695F6D 		.ascii	"ui_menu_item\000"
 10941      656E755F 
 10941      6974656D 
 10941      00
 10942              	.LASF203:
 10943 259c 74784368 		.ascii	"txChannels\000"
 10943      616E6E65 
 10943      6C7300
 10944              	.LASF116:
 10945 25a7 64774368 		.ascii	"dwChCtlPrioPos\000"
 10945      43746C50 
 10945      72696F50 
 10945      6F7300
 10946              	.LASF480:
 10947 25b6 62746E5F 		.ascii	"btn_timeout\000"
 10947      74696D65 
 10947      6F757400 
 10948              	.LASF139:
 10949 25c2 63707573 		.ascii	"cpussCm4StatusOffset\000"
 10949      73436D34 
 10949      53746174 
 10949      75734F66 
 10949      66736574 
 10950              	.LASF117:
 10951 25d7 64774368 		.ascii	"dwChCtlPreemptablePos\000"
 10951      43746C50 
 10951      7265656D 
 10951      70746162 
 10951      6C65506F 
 10952              	.LASF6:
 10953 25ed 73686F72 		.ascii	"short unsigned int\000"
 10953      7420756E 
 10953      7369676E 
 10953      65642069 
 10953      6E7400
 10954              	.LASF348:
 10955 2600 43595F42 		.ascii	"CY_BLE_EVT_GAP_NUMERIC_COMPARISON_REQUEST\000"
 10955      4C455F45 
ARM GAS  C:\Users\haske\AppData\Local\Temp\ccWSfRiA.s 			page 276


 10955      56545F47 
 10955      41505F4E 
 10955      554D4552 
 10956              	.LASF75:
 10957 262a 69706342 		.ascii	"ipcBase\000"
 10957      61736500 
 10958              	.LASF422:
 10959 2632 62617365 		.ascii	"base\000"
 10959      00
 10960              	.LASF343:
 10961 2637 43595F42 		.ascii	"CY_BLE_EVT_GAP_DEVICE_DISCONNECTED\000"
 10961      4C455F45 
 10961      56545F47 
 10961      41505F44 
 10961      45564943 
 10962              	.LASF442:
 10963 265a 75695F64 		.ascii	"ui_draw_icons\000"
 10963      7261775F 
 10963      69636F6E 
 10963      7300
 10964              	.LASF328:
 10965 2668 43595F42 		.ascii	"CY_BLE_EVT_RADIO_TEMPERATURE\000"
 10965      4C455F45 
 10965      56545F52 
 10965      4144494F 
 10965      5F54454D 
 10966              	.LASF159:
 10967 2685 696E7433 		.ascii	"int32\000"
 10967      3200
 10968              	.LASF127:
 10969 268b 70657269 		.ascii	"periDivCmdPaTypeSelPos\000"
 10969      44697643 
 10969      6D645061 
 10969      54797065 
 10969      53656C50 
 10970              	.LASF360:
 10971 26a2 43595F42 		.ascii	"CY_BLE_EVT_GAPP_UPDATE_ADV_SCAN_DATA_COMPLETE\000"
 10971      4C455F45 
 10971      56545F47 
 10971      4150505F 
 10971      55504441 
 10972              	.LASF151:
 10973 26d0 69706353 		.ascii	"ipcStructSize\000"
 10973      74727563 
 10973      7453697A 
 10973      6500
 10974              	.LASF513:
 10975 26de 55495F42 		.ascii	"UI_BLUETOOTH_MENU_ITEMS\000"
 10975      4C554554 
 10975      4F4F5448 
 10975      5F4D454E 
 10975      555F4954 
 10976              	.LASF512:
 10977 26f6 55495F54 		.ascii	"UI_TENS_DUR_MENU_ITEMS\000"
 10977      454E535F 
 10977      4455525F 
 10977      4D454E55 
ARM GAS  C:\Users\haske\AppData\Local\Temp\ccWSfRiA.s 			page 277


 10977      5F495445 
 10978              	.LASF471:
 10979 270d 75695F74 		.ascii	"ui_timeout\000"
 10979      696D656F 
 10979      757400
 10980              	.LASF120:
 10981 2718 70657269 		.ascii	"periTrCmdOffset\000"
 10981      5472436D 
 10981      644F6666 
 10981      73657400 
 10982              	.LASF7:
 10983 2728 5F5F696E 		.ascii	"__int32_t\000"
 10983      7433325F 
 10983      7400
 10984              	.LASF269:
 10985 2732 696E7665 		.ascii	"invertPWMOutN\000"
 10985      72745057 
 10985      4D4F7574 
 10985      4E00
 10986              	.LASF196:
 10987 2740 7478416C 		.ascii	"txAlignment\000"
 10987      69676E6D 
 10987      656E7400 
 10988              	.LASF400:
 10989 274c 61747449 		.ascii	"attId\000"
 10989      6400
 10990              	.LASF274:
 10991 2752 72656C6F 		.ascii	"reloadInput\000"
 10991      6164496E 
 10991      70757400 
 10992              	.LASF36:
 10993 275e 494E5452 		.ascii	"INTR_CAUSE1\000"
 10993      5F434155 
 10993      53453100 
 10994              	.LASF319:
 10995 276a 43595F42 		.ascii	"CY_BLE_EVT_SET_TX_PWR_COMPLETE\000"
 10995      4C455F45 
 10995      56545F53 
 10995      45545F54 
 10995      585F5057 
 10996              	.LASF425:
 10997 2789 43795F47 		.ascii	"Cy_GPIO_Write\000"
 10997      50494F5F 
 10997      57726974 
 10997      6500
 10998              	.LASF481:
 10999 2797 76696265 		.ascii	"vibe_freq\000"
 10999      5F667265 
 10999      7100
 11000              	.LASF439:
 11001 27a1 75695F64 		.ascii	"ui_draw_select_window\000"
 11001      7261775F 
 11001      73656C65 
 11001      63745F77 
 11001      696E646F 
 11002              	.LASF307:
 11003 27b7 43595F42 		.ascii	"CY_BLE_EVT_REMOVE_DEVICE_FROM_WHITE_LIST_COMPLETE\000"
ARM GAS  C:\Users\haske\AppData\Local\Temp\ccWSfRiA.s 			page 278


 11003      4C455F45 
 11003      56545F52 
 11003      454D4F56 
 11003      455F4445 
 11004              	.LASF304:
 11005 27e9 43595F42 		.ascii	"CY_BLE_EVT_ADD_DEVICE_TO_RPA_LIST_COMPLETE\000"
 11005      4C455F45 
 11005      56545F41 
 11005      44445F44 
 11005      45564943 
 11006              	.LASF296:
 11007 2814 43595F42 		.ascii	"CY_BLE_EVT_SET_SUGGESTED_DATA_LENGTH_COMPLETE\000"
 11007      4C455F45 
 11007      56545F53 
 11007      45545F53 
 11007      55474745 
 11008              	.LASF347:
 11009 2842 43595F42 		.ascii	"CY_BLE_EVT_GAP_KEYINFO_EXCHNGE_CMPLT\000"
 11009      4C455F45 
 11009      56545F47 
 11009      41505F4B 
 11009      4559494E 
 11010              	.LASF493:
 11011 2867 50574D5F 		.ascii	"PWM_TENS_config\000"
 11011      54454E53 
 11011      5F636F6E 
 11011      66696700 
 11012              	.LASF276:
 11013 2877 73746172 		.ascii	"startInput\000"
 11013      74496E70 
 11013      757400
 11014              	.LASF109:
 11015 2882 666C6173 		.ascii	"flashCtlMainWs0Freq\000"
 11015      6843746C 
 11015      4D61696E 
 11015      57733046 
 11015      72657100 
 11016              	.LASF82:
 11017 2896 6873696F 		.ascii	"hsiomVersion\000"
 11017      6D566572 
 11017      73696F6E 
 11017      00
 11018              	.LASF355:
 11019 28a3 43595F42 		.ascii	"CY_BLE_EVT_GAP_KEYS_GEN_COMPLETE\000"
 11019      4C455F45 
 11019      56545F47 
 11019      41505F4B 
 11019      4559535F 
 11020              	.LASF114:
 11021 28c4 64774368 		.ascii	"dwChOffset\000"
 11021      4F666673 
 11021      657400
 11022              		.ident	"GCC: (GNU Tools for ARM Embedded Processors) 5.4.1 20160609 (release) [ARM/embedded-5-bran
