ARM GAS  C:\Users\haske\AppData\Local\Temp\cckhubq2.s 			page 1


   1              		.syntax unified
   2              		.cpu cortex-m4
   3              		.eabi_attribute 27, 1
   4              		.fpu fpv4-sp-d16
   5              		.eabi_attribute 20, 1
   6              		.eabi_attribute 21, 1
   7              		.eabi_attribute 23, 3
   8              		.eabi_attribute 24, 1
   9              		.eabi_attribute 25, 1
  10              		.eabi_attribute 26, 1
  11              		.eabi_attribute 30, 1
  12              		.eabi_attribute 34, 1
  13              		.eabi_attribute 18, 4
  14              		.thumb
  15              		.syntax unified
  16              		.file	"tens.c"
  17              		.text
  18              	.Ltext0:
  19              		.cfi_sections	.debug_frame
  20              		.section	.text.set_channel_one,"ax",%progbits
  21              		.align	2
  22              		.thumb
  23              		.thumb_func
  24              		.type	set_channel_one, %function
  25              	set_channel_one:
  26              	.LFB864:
  27              		.file 1 "..\\..\\PainDrain\\PainDrain.cydsn\\tens.c"
   1:..\..\PainDrain\PainDrain.cydsn/tens.c **** /* ========================================
   2:..\..\PainDrain\PainDrain.cydsn/tens.c ****  *
   3:..\..\PainDrain\PainDrain.cydsn/tens.c ****  * Copyright YOUR COMPANY, THE YEAR
   4:..\..\PainDrain\PainDrain.cydsn/tens.c ****  * All Rights Reserved
   5:..\..\PainDrain\PainDrain.cydsn/tens.c ****  * UNPUBLISHED, LICENSED SOFTWARE.
   6:..\..\PainDrain\PainDrain.cydsn/tens.c ****  *
   7:..\..\PainDrain\PainDrain.cydsn/tens.c ****  * CONFIDENTIAL AND PROPRIETARY INFORMATION
   8:..\..\PainDrain\PainDrain.cydsn/tens.c ****  * WHICH IS THE PROPERTY OF your company.
   9:..\..\PainDrain\PainDrain.cydsn/tens.c ****  *
  10:..\..\PainDrain\PainDrain.cydsn/tens.c ****  * ========================================
  11:..\..\PainDrain\PainDrain.cydsn/tens.c **** */
  12:..\..\PainDrain\PainDrain.cydsn/tens.c **** 
  13:..\..\PainDrain\PainDrain.cydsn/tens.c **** 
  14:..\..\PainDrain\PainDrain.cydsn/tens.c **** #include <project.h>
  15:..\..\PainDrain\PainDrain.cydsn/tens.c **** #include <stdlib.h>
  16:..\..\PainDrain\PainDrain.cydsn/tens.c **** #include "debug.h"
  17:..\..\PainDrain\PainDrain.cydsn/tens.c **** 
  18:..\..\PainDrain\PainDrain.cydsn/tens.c **** #define TENS_TIMER_INTERVAL_MS 10
  19:..\..\PainDrain\PainDrain.cydsn/tens.c **** #define TENS_INTERVAL_MS 100
  20:..\..\PainDrain\PainDrain.cydsn/tens.c **** #define MAX_TENS_PWM_VALUE 312
  21:..\..\PainDrain\PainDrain.cydsn/tens.c **** 
  22:..\..\PainDrain\PainDrain.cydsn/tens.c **** static int32 tens_timeout = -1;
  23:..\..\PainDrain\PainDrain.cydsn/tens.c **** static int32 tens_full_timeout = 0; // Used for Phase Shift 180 Degrees
  24:..\..\PainDrain\PainDrain.cydsn/tens.c **** static int32 tens_interval_ms = 0;
  25:..\..\PainDrain\PainDrain.cydsn/tens.c **** static int32 tens_one_dur_us = 0;
  26:..\..\PainDrain\PainDrain.cydsn/tens.c **** static int32 tens_two_dur_us = 0;
  27:..\..\PainDrain\PainDrain.cydsn/tens.c **** static int32 tens_phase_shift = 0;
  28:..\..\PainDrain\PainDrain.cydsn/tens.c **** 
  29:..\..\PainDrain\PainDrain.cydsn/tens.c **** static void set_channel_one(void);
  30:..\..\PainDrain\PainDrain.cydsn/tens.c **** 
ARM GAS  C:\Users\haske\AppData\Local\Temp\cckhubq2.s 			page 2


  31:..\..\PainDrain\PainDrain.cydsn/tens.c **** void tens_timer(void){
  32:..\..\PainDrain\PainDrain.cydsn/tens.c ****     if (tens_timeout > 0) {
  33:..\..\PainDrain\PainDrain.cydsn/tens.c ****         tens_timeout -= TENS_TIMER_INTERVAL_MS;
  34:..\..\PainDrain\PainDrain.cydsn/tens.c ****         DBG_PRINTF("tens_timeout: %d \r\n", tens_timeout);
  35:..\..\PainDrain\PainDrain.cydsn/tens.c ****         if (tens_timeout < 0) {
  36:..\..\PainDrain\PainDrain.cydsn/tens.c ****             tens_timeout = 0;
  37:..\..\PainDrain\PainDrain.cydsn/tens.c ****             tens_full_timeout = tens_timeout;
  38:..\..\PainDrain\PainDrain.cydsn/tens.c ****         }
  39:..\..\PainDrain\PainDrain.cydsn/tens.c ****     }
  40:..\..\PainDrain\PainDrain.cydsn/tens.c **** }
  41:..\..\PainDrain\PainDrain.cydsn/tens.c **** 
  42:..\..\PainDrain\PainDrain.cydsn/tens.c **** void set_channel_one(void) {
  28              		.loc 1 42 0
  29              		.cfi_startproc
  30              		@ args = 0, pretend = 0, frame = 0
  31              		@ frame_needed = 0, uses_anonymous_args = 0
  32 0000 F8B5     		push	{r3, r4, r5, r6, r7, lr}
  33              		.cfi_def_cfa_offset 24
  34              		.cfi_offset 3, -24
  35              		.cfi_offset 4, -20
  36              		.cfi_offset 5, -16
  37              		.cfi_offset 6, -12
  38              		.cfi_offset 7, -8
  39              		.cfi_offset 14, -4
  43:..\..\PainDrain\PainDrain.cydsn/tens.c ****     //On positive direction
  44:..\..\PainDrain\PainDrain.cydsn/tens.c ****     DBG_PRINTF("Channel 1 On positive direction \r\n");
  40              		.loc 1 44 0
  41 0002 0948     		ldr	r0, .L3
  42 0004 FFF7FEFF 		bl	myprintf
  43              	.LVL0:
  44              	.LBB51:
  45              	.LBB52:
  46              		.file 2 "Generated_Source\\PSoC6\\pdl\\drivers/peripheral/gpio/cy_gpio.h"
   1:Generated_Source\PSoC6\pdl\drivers/peripheral/gpio/cy_gpio.h **** /***************************************************************************//**
   2:Generated_Source\PSoC6\pdl\drivers/peripheral/gpio/cy_gpio.h **** * \file cy_gpio.h
   3:Generated_Source\PSoC6\pdl\drivers/peripheral/gpio/cy_gpio.h **** * \version 1.20
   4:Generated_Source\PSoC6\pdl\drivers/peripheral/gpio/cy_gpio.h **** *
   5:Generated_Source\PSoC6\pdl\drivers/peripheral/gpio/cy_gpio.h **** * Provides an API declaration of the GPIO driver
   6:Generated_Source\PSoC6\pdl\drivers/peripheral/gpio/cy_gpio.h **** *
   7:Generated_Source\PSoC6\pdl\drivers/peripheral/gpio/cy_gpio.h **** ********************************************************************************
   8:Generated_Source\PSoC6\pdl\drivers/peripheral/gpio/cy_gpio.h **** * \copyright
   9:Generated_Source\PSoC6\pdl\drivers/peripheral/gpio/cy_gpio.h **** * Copyright 2016-2018, Cypress Semiconductor Corporation. All rights reserved.
  10:Generated_Source\PSoC6\pdl\drivers/peripheral/gpio/cy_gpio.h **** * You may use this file only in accordance with the license, terms, conditions,
  11:Generated_Source\PSoC6\pdl\drivers/peripheral/gpio/cy_gpio.h **** * disclaimers, and limitations in the end user license agreement accompanying
  12:Generated_Source\PSoC6\pdl\drivers/peripheral/gpio/cy_gpio.h **** * the software package with which this file was provided.
  13:Generated_Source\PSoC6\pdl\drivers/peripheral/gpio/cy_gpio.h **** *******************************************************************************/
  14:Generated_Source\PSoC6\pdl\drivers/peripheral/gpio/cy_gpio.h **** 
  15:Generated_Source\PSoC6\pdl\drivers/peripheral/gpio/cy_gpio.h **** /**
  16:Generated_Source\PSoC6\pdl\drivers/peripheral/gpio/cy_gpio.h **** * \addtogroup group_gpio
  17:Generated_Source\PSoC6\pdl\drivers/peripheral/gpio/cy_gpio.h **** * \{
  18:Generated_Source\PSoC6\pdl\drivers/peripheral/gpio/cy_gpio.h **** * The GPIO driver provides an API to configure and access device Input/Output pins.
  19:Generated_Source\PSoC6\pdl\drivers/peripheral/gpio/cy_gpio.h **** *
  20:Generated_Source\PSoC6\pdl\drivers/peripheral/gpio/cy_gpio.h **** * The functions and other declarations used in this driver are in cy_gpio.h. 
  21:Generated_Source\PSoC6\pdl\drivers/peripheral/gpio/cy_gpio.h **** * You can include cy_pdl.h (ModusToolbox only) to get access to all functions 
  22:Generated_Source\PSoC6\pdl\drivers/peripheral/gpio/cy_gpio.h **** * and declarations in the PDL.
  23:Generated_Source\PSoC6\pdl\drivers/peripheral/gpio/cy_gpio.h **** *
  24:Generated_Source\PSoC6\pdl\drivers/peripheral/gpio/cy_gpio.h **** * IO pins include all general purpose types such as GPIO, SIO, HSIO, AUXIO, and
ARM GAS  C:\Users\haske\AppData\Local\Temp\cckhubq2.s 			page 3


  25:Generated_Source\PSoC6\pdl\drivers/peripheral/gpio/cy_gpio.h **** * their variants.
  26:Generated_Source\PSoC6\pdl\drivers/peripheral/gpio/cy_gpio.h **** *
  27:Generated_Source\PSoC6\pdl\drivers/peripheral/gpio/cy_gpio.h **** * Initialization can be performed either at the port level or by configuring the
  28:Generated_Source\PSoC6\pdl\drivers/peripheral/gpio/cy_gpio.h **** * individual pins. For efficient use of code space, port
  29:Generated_Source\PSoC6\pdl\drivers/peripheral/gpio/cy_gpio.h **** * configuration should be used in the field. Refer to the product device header files 
  30:Generated_Source\PSoC6\pdl\drivers/peripheral/gpio/cy_gpio.h **** * for the list of supported ports and pins.
  31:Generated_Source\PSoC6\pdl\drivers/peripheral/gpio/cy_gpio.h **** * 
  32:Generated_Source\PSoC6\pdl\drivers/peripheral/gpio/cy_gpio.h **** * - Single pin configuration is performed by using \ref Cy_GPIO_Pin_FastInit 
  33:Generated_Source\PSoC6\pdl\drivers/peripheral/gpio/cy_gpio.h **** *   (provide specific values) or \ref Cy_GPIO_Pin_Init (provide a filled
  34:Generated_Source\PSoC6\pdl\drivers/peripheral/gpio/cy_gpio.h **** *   cy_stc_gpio_pin_config_t structure).
  35:Generated_Source\PSoC6\pdl\drivers/peripheral/gpio/cy_gpio.h **** * - An entire port can be configured using \ref Cy_GPIO_Port_Init. Provide a filled 
  36:Generated_Source\PSoC6\pdl\drivers/peripheral/gpio/cy_gpio.h **** *   cy_stc_gpio_prt_config_t structure. The values in the structure are 
  37:Generated_Source\PSoC6\pdl\drivers/peripheral/gpio/cy_gpio.h **** *   bitfields representing the desired value for each pin in the port.
  38:Generated_Source\PSoC6\pdl\drivers/peripheral/gpio/cy_gpio.h **** * - Pin configuration and management is based on the port address and pin number.
  39:Generated_Source\PSoC6\pdl\drivers/peripheral/gpio/cy_gpio.h **** *   \ref Cy_GPIO_PortToAddr function can optionally be used to calculate the port
  40:Generated_Source\PSoC6\pdl\drivers/peripheral/gpio/cy_gpio.h **** *   address from the port number at run-time.
  41:Generated_Source\PSoC6\pdl\drivers/peripheral/gpio/cy_gpio.h **** *
  42:Generated_Source\PSoC6\pdl\drivers/peripheral/gpio/cy_gpio.h **** * Once the pin/port initialization is complete, each pin can be accessed by 
  43:Generated_Source\PSoC6\pdl\drivers/peripheral/gpio/cy_gpio.h **** * specifying the port (GPIO_PRT_Type) and the pin (0-7) in the provided API 
  44:Generated_Source\PSoC6\pdl\drivers/peripheral/gpio/cy_gpio.h **** * functions.
  45:Generated_Source\PSoC6\pdl\drivers/peripheral/gpio/cy_gpio.h **** *
  46:Generated_Source\PSoC6\pdl\drivers/peripheral/gpio/cy_gpio.h **** * \section group_gpio_configuration Configuration Considerations
  47:Generated_Source\PSoC6\pdl\drivers/peripheral/gpio/cy_gpio.h **** *
  48:Generated_Source\PSoC6\pdl\drivers/peripheral/gpio/cy_gpio.h **** * 1. Pin multiplexing is controlled through the High-Speed IO Matrix (HSIOM) selection.
  49:Generated_Source\PSoC6\pdl\drivers/peripheral/gpio/cy_gpio.h **** *    This allows the pin to connect to signal sources/sinks throughout the device,
  50:Generated_Source\PSoC6\pdl\drivers/peripheral/gpio/cy_gpio.h **** *    as defined by the pin HSIOM selection options (en_hsiom_sel_t).
  51:Generated_Source\PSoC6\pdl\drivers/peripheral/gpio/cy_gpio.h **** * 2. All pins are initialized to High-Z drive mode with HSIOM connected to CPU (SW
  52:Generated_Source\PSoC6\pdl\drivers/peripheral/gpio/cy_gpio.h **** *    control digital pin only) at Power-On-Reset(POR).
  53:Generated_Source\PSoC6\pdl\drivers/peripheral/gpio/cy_gpio.h **** * 3. Some API functions perform read-modify-write operations on shared port
  54:Generated_Source\PSoC6\pdl\drivers/peripheral/gpio/cy_gpio.h **** *    registers. These functions are not thread safe and care must be taken when
  55:Generated_Source\PSoC6\pdl\drivers/peripheral/gpio/cy_gpio.h **** *    called by the application.
  56:Generated_Source\PSoC6\pdl\drivers/peripheral/gpio/cy_gpio.h **** * 4. Digital input buffer provides a high-impedance buffer for the external 
  57:Generated_Source\PSoC6\pdl\drivers/peripheral/gpio/cy_gpio.h **** *    digital input. The input buffer is connected to the HSIOM for routing to 
  58:Generated_Source\PSoC6\pdl\drivers/peripheral/gpio/cy_gpio.h **** *    the CPU port registers and selected peripheral. Enabling the input 
  59:Generated_Source\PSoC6\pdl\drivers/peripheral/gpio/cy_gpio.h **** *    buffer provides possibility to read the pin state via the CPU.
  60:Generated_Source\PSoC6\pdl\drivers/peripheral/gpio/cy_gpio.h **** *    If pin is connected to an analog signal, the input buffer should be 
  61:Generated_Source\PSoC6\pdl\drivers/peripheral/gpio/cy_gpio.h **** *    disabled to avoid crowbar currents. For more information refer to device 
  62:Generated_Source\PSoC6\pdl\drivers/peripheral/gpio/cy_gpio.h **** *    TRM and the device datasheet.
  63:Generated_Source\PSoC6\pdl\drivers/peripheral/gpio/cy_gpio.h **** *
  64:Generated_Source\PSoC6\pdl\drivers/peripheral/gpio/cy_gpio.h **** * Multiple pins on a port can be updated using direct port register writes with an
  65:Generated_Source\PSoC6\pdl\drivers/peripheral/gpio/cy_gpio.h **** * appropriate port mask. An example is shown below, highlighting the different ways of 
  66:Generated_Source\PSoC6\pdl\drivers/peripheral/gpio/cy_gpio.h **** * configuring Port 1 pins using:
  67:Generated_Source\PSoC6\pdl\drivers/peripheral/gpio/cy_gpio.h **** * 
  68:Generated_Source\PSoC6\pdl\drivers/peripheral/gpio/cy_gpio.h **** * - Port output data register
  69:Generated_Source\PSoC6\pdl\drivers/peripheral/gpio/cy_gpio.h **** * - Port output data set register
  70:Generated_Source\PSoC6\pdl\drivers/peripheral/gpio/cy_gpio.h **** * - Port output data clear register
  71:Generated_Source\PSoC6\pdl\drivers/peripheral/gpio/cy_gpio.h **** *
  72:Generated_Source\PSoC6\pdl\drivers/peripheral/gpio/cy_gpio.h **** * \snippet gpio/gpio_v1_10_sut_01.cydsn/main_cm4.c Cy_GPIO_Snippet
  73:Generated_Source\PSoC6\pdl\drivers/peripheral/gpio/cy_gpio.h **** *
  74:Generated_Source\PSoC6\pdl\drivers/peripheral/gpio/cy_gpio.h **** * \section group_gpio_more_information More Information
  75:Generated_Source\PSoC6\pdl\drivers/peripheral/gpio/cy_gpio.h **** *
  76:Generated_Source\PSoC6\pdl\drivers/peripheral/gpio/cy_gpio.h **** * Refer to the technical reference manual (TRM) and the device datasheet.
  77:Generated_Source\PSoC6\pdl\drivers/peripheral/gpio/cy_gpio.h **** *
  78:Generated_Source\PSoC6\pdl\drivers/peripheral/gpio/cy_gpio.h **** * \section group_gpio_MISRA MISRA-C Compliance
  79:Generated_Source\PSoC6\pdl\drivers/peripheral/gpio/cy_gpio.h **** * The GPIO driver has the following specific deviations:
  80:Generated_Source\PSoC6\pdl\drivers/peripheral/gpio/cy_gpio.h **** *
  81:Generated_Source\PSoC6\pdl\drivers/peripheral/gpio/cy_gpio.h **** * <table class="doxtable">
ARM GAS  C:\Users\haske\AppData\Local\Temp\cckhubq2.s 			page 4


  82:Generated_Source\PSoC6\pdl\drivers/peripheral/gpio/cy_gpio.h **** *   <tr>
  83:Generated_Source\PSoC6\pdl\drivers/peripheral/gpio/cy_gpio.h **** *     <th>MISRA Rule</th>
  84:Generated_Source\PSoC6\pdl\drivers/peripheral/gpio/cy_gpio.h **** *     <th>Rule Class (Required/Advisory)</th>
  85:Generated_Source\PSoC6\pdl\drivers/peripheral/gpio/cy_gpio.h **** *     <th>Rule Description</th>
  86:Generated_Source\PSoC6\pdl\drivers/peripheral/gpio/cy_gpio.h **** *     <th>Description of Deviation(s)</th>
  87:Generated_Source\PSoC6\pdl\drivers/peripheral/gpio/cy_gpio.h **** *   </tr>
  88:Generated_Source\PSoC6\pdl\drivers/peripheral/gpio/cy_gpio.h **** *   <tr>
  89:Generated_Source\PSoC6\pdl\drivers/peripheral/gpio/cy_gpio.h **** *     <td>11.4</td>
  90:Generated_Source\PSoC6\pdl\drivers/peripheral/gpio/cy_gpio.h **** *     <td>A</td>
  91:Generated_Source\PSoC6\pdl\drivers/peripheral/gpio/cy_gpio.h **** *     <td>A cast should not be performed between a pointer to object type and
  92:Generated_Source\PSoC6\pdl\drivers/peripheral/gpio/cy_gpio.h **** *         a different pointer to object type.</td>
  93:Generated_Source\PSoC6\pdl\drivers/peripheral/gpio/cy_gpio.h **** *     <td> This code is safe because the elements of both GPIO_PRT_V1_Type and GPIO_PRT_V2_Type 
  94:Generated_Source\PSoC6\pdl\drivers/peripheral/gpio/cy_gpio.h **** *          types have identical alignment.</td>
  95:Generated_Source\PSoC6\pdl\drivers/peripheral/gpio/cy_gpio.h **** *   </tr>
  96:Generated_Source\PSoC6\pdl\drivers/peripheral/gpio/cy_gpio.h **** *   <tr>
  97:Generated_Source\PSoC6\pdl\drivers/peripheral/gpio/cy_gpio.h **** *     <td>16.7</td>
  98:Generated_Source\PSoC6\pdl\drivers/peripheral/gpio/cy_gpio.h **** *     <td>A</td>
  99:Generated_Source\PSoC6\pdl\drivers/peripheral/gpio/cy_gpio.h **** *     <td>A pointer parameter in a function prototype should be declared as pointer 
 100:Generated_Source\PSoC6\pdl\drivers/peripheral/gpio/cy_gpio.h **** *         to const if the pointer is not used to modify the addressed object.</td>
 101:Generated_Source\PSoC6\pdl\drivers/peripheral/gpio/cy_gpio.h **** *     <td>The objects pointed to by the base addresses of the GPIO port are not always modified.
 102:Generated_Source\PSoC6\pdl\drivers/peripheral/gpio/cy_gpio.h **** *         While a const qualifier can be used in select scenarios, it brings little benefit
 103:Generated_Source\PSoC6\pdl\drivers/peripheral/gpio/cy_gpio.h **** *         in adding this to the affected functions. </td>
 104:Generated_Source\PSoC6\pdl\drivers/peripheral/gpio/cy_gpio.h **** *   </tr>
 105:Generated_Source\PSoC6\pdl\drivers/peripheral/gpio/cy_gpio.h **** * </table>
 106:Generated_Source\PSoC6\pdl\drivers/peripheral/gpio/cy_gpio.h **** *
 107:Generated_Source\PSoC6\pdl\drivers/peripheral/gpio/cy_gpio.h **** * \section group_gpio_changelog Changelog
 108:Generated_Source\PSoC6\pdl\drivers/peripheral/gpio/cy_gpio.h **** * <table class="doxtable">
 109:Generated_Source\PSoC6\pdl\drivers/peripheral/gpio/cy_gpio.h **** *   <tr><th>Version</th><th>Changes</th><th>Reason for Change</th></tr>
 110:Generated_Source\PSoC6\pdl\drivers/peripheral/gpio/cy_gpio.h **** *   <tr>
 111:Generated_Source\PSoC6\pdl\drivers/peripheral/gpio/cy_gpio.h **** *     <td rowspan="3">1.20</td>
 112:Generated_Source\PSoC6\pdl\drivers/peripheral/gpio/cy_gpio.h **** *     <td>Flattened the organization of the driver source code into the single source directory and
 113:Generated_Source\PSoC6\pdl\drivers/peripheral/gpio/cy_gpio.h **** *     <td>Driver library directory-structure simplification.</td>
 114:Generated_Source\PSoC6\pdl\drivers/peripheral/gpio/cy_gpio.h **** *   </tr>
 115:Generated_Source\PSoC6\pdl\drivers/peripheral/gpio/cy_gpio.h **** *   <tr>
 116:Generated_Source\PSoC6\pdl\drivers/peripheral/gpio/cy_gpio.h **** *     <td>Added the functions for configuring the AMux bus splitter switch cells:
 117:Generated_Source\PSoC6\pdl\drivers/peripheral/gpio/cy_gpio.h **** *     - \ref Cy_GPIO_SetAmuxSplit
 118:Generated_Source\PSoC6\pdl\drivers/peripheral/gpio/cy_gpio.h **** *     - \ref Cy_GPIO_GetAmuxSplit
 119:Generated_Source\PSoC6\pdl\drivers/peripheral/gpio/cy_gpio.h **** *     </td>
 120:Generated_Source\PSoC6\pdl\drivers/peripheral/gpio/cy_gpio.h **** *     <td>Added a new functionality related to AMux bus.</td>
 121:Generated_Source\PSoC6\pdl\drivers/peripheral/gpio/cy_gpio.h **** *   </tr>
 122:Generated_Source\PSoC6\pdl\drivers/peripheral/gpio/cy_gpio.h **** *   <tr>
 123:Generated_Source\PSoC6\pdl\drivers/peripheral/gpio/cy_gpio.h **** *     <td>Added register access layer. Use register access macros instead
 124:Generated_Source\PSoC6\pdl\drivers/peripheral/gpio/cy_gpio.h **** *         of direct register access using dereferenced pointers.</td>
 125:Generated_Source\PSoC6\pdl\drivers/peripheral/gpio/cy_gpio.h **** *     <td>Makes register access device-independent, so that the PDL does 
 126:Generated_Source\PSoC6\pdl\drivers/peripheral/gpio/cy_gpio.h **** *         not need to be recompiled for each supported part number.</td>
 127:Generated_Source\PSoC6\pdl\drivers/peripheral/gpio/cy_gpio.h **** *   </tr>
 128:Generated_Source\PSoC6\pdl\drivers/peripheral/gpio/cy_gpio.h **** *   <tr>
 129:Generated_Source\PSoC6\pdl\drivers/peripheral/gpio/cy_gpio.h **** *     <td>1.10.1</td>
 130:Generated_Source\PSoC6\pdl\drivers/peripheral/gpio/cy_gpio.h **** *     <td>Updated description for the functions: \ref Cy_GPIO_GetInterruptStatus, 
 131:Generated_Source\PSoC6\pdl\drivers/peripheral/gpio/cy_gpio.h **** *         \ref Cy_GPIO_GetInterruptMask, \ref Cy_GPIO_GetInterruptStatusMasked.
 132:Generated_Source\PSoC6\pdl\drivers/peripheral/gpio/cy_gpio.h **** *
 133:Generated_Source\PSoC6\pdl\drivers/peripheral/gpio/cy_gpio.h **** *         Minor documentation edits.
 134:Generated_Source\PSoC6\pdl\drivers/peripheral/gpio/cy_gpio.h **** *     </td>
 135:Generated_Source\PSoC6\pdl\drivers/peripheral/gpio/cy_gpio.h **** *     <td>Documentation update and clarification</td>
 136:Generated_Source\PSoC6\pdl\drivers/peripheral/gpio/cy_gpio.h **** *   </tr>
 137:Generated_Source\PSoC6\pdl\drivers/peripheral/gpio/cy_gpio.h **** *   <tr>
 138:Generated_Source\PSoC6\pdl\drivers/peripheral/gpio/cy_gpio.h **** *     <td>1.10</td>
ARM GAS  C:\Users\haske\AppData\Local\Temp\cckhubq2.s 			page 5


 139:Generated_Source\PSoC6\pdl\drivers/peripheral/gpio/cy_gpio.h **** *     <td>Added input parameter validation to the API functions</td>
 140:Generated_Source\PSoC6\pdl\drivers/peripheral/gpio/cy_gpio.h **** *     <td></td>
 141:Generated_Source\PSoC6\pdl\drivers/peripheral/gpio/cy_gpio.h **** *   </tr>
 142:Generated_Source\PSoC6\pdl\drivers/peripheral/gpio/cy_gpio.h **** *   <tr>
 143:Generated_Source\PSoC6\pdl\drivers/peripheral/gpio/cy_gpio.h **** *     <td>1.0</td>
 144:Generated_Source\PSoC6\pdl\drivers/peripheral/gpio/cy_gpio.h **** *     <td>Initial version</td>
 145:Generated_Source\PSoC6\pdl\drivers/peripheral/gpio/cy_gpio.h **** *     <td></td>
 146:Generated_Source\PSoC6\pdl\drivers/peripheral/gpio/cy_gpio.h **** *   </tr>
 147:Generated_Source\PSoC6\pdl\drivers/peripheral/gpio/cy_gpio.h **** * </table>
 148:Generated_Source\PSoC6\pdl\drivers/peripheral/gpio/cy_gpio.h **** *
 149:Generated_Source\PSoC6\pdl\drivers/peripheral/gpio/cy_gpio.h **** * \defgroup group_gpio_macros Macros
 150:Generated_Source\PSoC6\pdl\drivers/peripheral/gpio/cy_gpio.h **** * \defgroup group_gpio_functions Functions
 151:Generated_Source\PSoC6\pdl\drivers/peripheral/gpio/cy_gpio.h **** * \{
 152:Generated_Source\PSoC6\pdl\drivers/peripheral/gpio/cy_gpio.h **** *   \defgroup group_gpio_functions_init       Initialization Functions
 153:Generated_Source\PSoC6\pdl\drivers/peripheral/gpio/cy_gpio.h **** *   \defgroup group_gpio_functions_gpio       GPIO Functions
 154:Generated_Source\PSoC6\pdl\drivers/peripheral/gpio/cy_gpio.h **** *   \defgroup group_gpio_functions_sio        SIO Functions
 155:Generated_Source\PSoC6\pdl\drivers/peripheral/gpio/cy_gpio.h **** *   \defgroup group_gpio_functions_interrupt  Port Interrupt Functions
 156:Generated_Source\PSoC6\pdl\drivers/peripheral/gpio/cy_gpio.h **** * \}
 157:Generated_Source\PSoC6\pdl\drivers/peripheral/gpio/cy_gpio.h **** * \defgroup group_gpio_data_structures Data Structures
 158:Generated_Source\PSoC6\pdl\drivers/peripheral/gpio/cy_gpio.h **** * \defgroup group_gpio_enums Enumerated Types
 159:Generated_Source\PSoC6\pdl\drivers/peripheral/gpio/cy_gpio.h **** */
 160:Generated_Source\PSoC6\pdl\drivers/peripheral/gpio/cy_gpio.h **** 
 161:Generated_Source\PSoC6\pdl\drivers/peripheral/gpio/cy_gpio.h **** #if !defined(CY_GPIO_H)
 162:Generated_Source\PSoC6\pdl\drivers/peripheral/gpio/cy_gpio.h **** #define CY_GPIO_H
 163:Generated_Source\PSoC6\pdl\drivers/peripheral/gpio/cy_gpio.h **** 
 164:Generated_Source\PSoC6\pdl\drivers/peripheral/gpio/cy_gpio.h **** #include <stddef.h>
 165:Generated_Source\PSoC6\pdl\drivers/peripheral/gpio/cy_gpio.h **** #include "cy_device.h"
 166:Generated_Source\PSoC6\pdl\drivers/peripheral/gpio/cy_gpio.h **** #include "cy_device_headers.h"
 167:Generated_Source\PSoC6\pdl\drivers/peripheral/gpio/cy_gpio.h **** #include "cy_syslib.h"
 168:Generated_Source\PSoC6\pdl\drivers/peripheral/gpio/cy_gpio.h **** 
 169:Generated_Source\PSoC6\pdl\drivers/peripheral/gpio/cy_gpio.h **** #if defined(__cplusplus)
 170:Generated_Source\PSoC6\pdl\drivers/peripheral/gpio/cy_gpio.h **** extern "C" {
 171:Generated_Source\PSoC6\pdl\drivers/peripheral/gpio/cy_gpio.h **** #endif
 172:Generated_Source\PSoC6\pdl\drivers/peripheral/gpio/cy_gpio.h **** 
 173:Generated_Source\PSoC6\pdl\drivers/peripheral/gpio/cy_gpio.h **** /** \addtogroup group_gpio_macros
 174:Generated_Source\PSoC6\pdl\drivers/peripheral/gpio/cy_gpio.h **** * \{
 175:Generated_Source\PSoC6\pdl\drivers/peripheral/gpio/cy_gpio.h **** */
 176:Generated_Source\PSoC6\pdl\drivers/peripheral/gpio/cy_gpio.h **** 
 177:Generated_Source\PSoC6\pdl\drivers/peripheral/gpio/cy_gpio.h **** /** Driver major version */
 178:Generated_Source\PSoC6\pdl\drivers/peripheral/gpio/cy_gpio.h **** #define CY_GPIO_DRV_VERSION_MAJOR       1
 179:Generated_Source\PSoC6\pdl\drivers/peripheral/gpio/cy_gpio.h **** 
 180:Generated_Source\PSoC6\pdl\drivers/peripheral/gpio/cy_gpio.h **** /** Driver minor version */
 181:Generated_Source\PSoC6\pdl\drivers/peripheral/gpio/cy_gpio.h **** #define CY_GPIO_DRV_VERSION_MINOR       20
 182:Generated_Source\PSoC6\pdl\drivers/peripheral/gpio/cy_gpio.h **** 
 183:Generated_Source\PSoC6\pdl\drivers/peripheral/gpio/cy_gpio.h **** /** GPIO driver ID */
 184:Generated_Source\PSoC6\pdl\drivers/peripheral/gpio/cy_gpio.h **** #define CY_GPIO_ID CY_PDL_DRV_ID(0x16U)
 185:Generated_Source\PSoC6\pdl\drivers/peripheral/gpio/cy_gpio.h **** 
 186:Generated_Source\PSoC6\pdl\drivers/peripheral/gpio/cy_gpio.h **** /** \} group_gpio_macros */
 187:Generated_Source\PSoC6\pdl\drivers/peripheral/gpio/cy_gpio.h **** 
 188:Generated_Source\PSoC6\pdl\drivers/peripheral/gpio/cy_gpio.h **** 
 189:Generated_Source\PSoC6\pdl\drivers/peripheral/gpio/cy_gpio.h **** /***************************************
 190:Generated_Source\PSoC6\pdl\drivers/peripheral/gpio/cy_gpio.h **** *       Enumerations
 191:Generated_Source\PSoC6\pdl\drivers/peripheral/gpio/cy_gpio.h **** ***************************************/
 192:Generated_Source\PSoC6\pdl\drivers/peripheral/gpio/cy_gpio.h **** /**
 193:Generated_Source\PSoC6\pdl\drivers/peripheral/gpio/cy_gpio.h **** * \addtogroup group_gpio_enums
 194:Generated_Source\PSoC6\pdl\drivers/peripheral/gpio/cy_gpio.h **** * \{
 195:Generated_Source\PSoC6\pdl\drivers/peripheral/gpio/cy_gpio.h **** */
ARM GAS  C:\Users\haske\AppData\Local\Temp\cckhubq2.s 			page 6


 196:Generated_Source\PSoC6\pdl\drivers/peripheral/gpio/cy_gpio.h **** 
 197:Generated_Source\PSoC6\pdl\drivers/peripheral/gpio/cy_gpio.h **** /** GPIO Driver error codes */
 198:Generated_Source\PSoC6\pdl\drivers/peripheral/gpio/cy_gpio.h **** typedef enum 
 199:Generated_Source\PSoC6\pdl\drivers/peripheral/gpio/cy_gpio.h **** {
 200:Generated_Source\PSoC6\pdl\drivers/peripheral/gpio/cy_gpio.h ****     CY_GPIO_SUCCESS   = 0x00U,                                    /**< Returned successful */
 201:Generated_Source\PSoC6\pdl\drivers/peripheral/gpio/cy_gpio.h ****     CY_GPIO_BAD_PARAM = CY_GPIO_ID | CY_PDL_STATUS_ERROR | 0x01U, /**< Bad parameter was passed */
 202:Generated_Source\PSoC6\pdl\drivers/peripheral/gpio/cy_gpio.h **** } cy_en_gpio_status_t;
 203:Generated_Source\PSoC6\pdl\drivers/peripheral/gpio/cy_gpio.h **** 
 204:Generated_Source\PSoC6\pdl\drivers/peripheral/gpio/cy_gpio.h **** /** AMux switch open/close config */
 205:Generated_Source\PSoC6\pdl\drivers/peripheral/gpio/cy_gpio.h **** typedef enum
 206:Generated_Source\PSoC6\pdl\drivers/peripheral/gpio/cy_gpio.h **** {
 207:Generated_Source\PSoC6\pdl\drivers/peripheral/gpio/cy_gpio.h ****     CY_GPIO_AMUX_OPENALL,   /**< Open ground switch. Open right switch. Open left switch */
 208:Generated_Source\PSoC6\pdl\drivers/peripheral/gpio/cy_gpio.h ****     CY_GPIO_AMUX_L,         /**< Open ground switch. Open right switch. Close left switch */
 209:Generated_Source\PSoC6\pdl\drivers/peripheral/gpio/cy_gpio.h ****     CY_GPIO_AMUX_R,         /**< Open ground switch. Close right switch. Open left switch */
 210:Generated_Source\PSoC6\pdl\drivers/peripheral/gpio/cy_gpio.h ****     CY_GPIO_AMUX_LR,        /**< Open ground switch. Close right switch. Close left switch */
 211:Generated_Source\PSoC6\pdl\drivers/peripheral/gpio/cy_gpio.h ****     CY_GPIO_AMUX_G,         /**< Close ground switch. Open right switch. Open left switch */
 212:Generated_Source\PSoC6\pdl\drivers/peripheral/gpio/cy_gpio.h ****     CY_GPIO_AMUX_GL,        /**< Close ground switch. Open right switch. Close left switch */
 213:Generated_Source\PSoC6\pdl\drivers/peripheral/gpio/cy_gpio.h ****     CY_GPIO_AMUX_GR,        /**< Close ground switch. Close right switch. Open left switch */
 214:Generated_Source\PSoC6\pdl\drivers/peripheral/gpio/cy_gpio.h ****     CY_GPIO_AMUX_GLR,       /**< Close ground switch. Close right switch. Close left switch */
 215:Generated_Source\PSoC6\pdl\drivers/peripheral/gpio/cy_gpio.h **** }cy_en_gpio_amuxconnect_t;
 216:Generated_Source\PSoC6\pdl\drivers/peripheral/gpio/cy_gpio.h **** 
 217:Generated_Source\PSoC6\pdl\drivers/peripheral/gpio/cy_gpio.h **** /**
 218:Generated_Source\PSoC6\pdl\drivers/peripheral/gpio/cy_gpio.h **** * AMux Bus selection
 219:Generated_Source\PSoC6\pdl\drivers/peripheral/gpio/cy_gpio.h **** */
 220:Generated_Source\PSoC6\pdl\drivers/peripheral/gpio/cy_gpio.h **** typedef enum
 221:Generated_Source\PSoC6\pdl\drivers/peripheral/gpio/cy_gpio.h **** {
 222:Generated_Source\PSoC6\pdl\drivers/peripheral/gpio/cy_gpio.h ****     CY_GPIO_AMUXBUSA,       /**< AMuxBus A */
 223:Generated_Source\PSoC6\pdl\drivers/peripheral/gpio/cy_gpio.h ****     CY_GPIO_AMUXBUSB        /**< AMuxBus B */
 224:Generated_Source\PSoC6\pdl\drivers/peripheral/gpio/cy_gpio.h **** }cy_en_gpio_amuxselect_t;
 225:Generated_Source\PSoC6\pdl\drivers/peripheral/gpio/cy_gpio.h **** 
 226:Generated_Source\PSoC6\pdl\drivers/peripheral/gpio/cy_gpio.h **** /** \} group_gpio_enums */
 227:Generated_Source\PSoC6\pdl\drivers/peripheral/gpio/cy_gpio.h **** 
 228:Generated_Source\PSoC6\pdl\drivers/peripheral/gpio/cy_gpio.h **** 
 229:Generated_Source\PSoC6\pdl\drivers/peripheral/gpio/cy_gpio.h **** /***************************************
 230:Generated_Source\PSoC6\pdl\drivers/peripheral/gpio/cy_gpio.h **** *       Configuration Structures
 231:Generated_Source\PSoC6\pdl\drivers/peripheral/gpio/cy_gpio.h **** ***************************************/
 232:Generated_Source\PSoC6\pdl\drivers/peripheral/gpio/cy_gpio.h **** 
 233:Generated_Source\PSoC6\pdl\drivers/peripheral/gpio/cy_gpio.h **** /**
 234:Generated_Source\PSoC6\pdl\drivers/peripheral/gpio/cy_gpio.h **** * \addtogroup group_gpio_data_structures
 235:Generated_Source\PSoC6\pdl\drivers/peripheral/gpio/cy_gpio.h **** * \{
 236:Generated_Source\PSoC6\pdl\drivers/peripheral/gpio/cy_gpio.h **** */
 237:Generated_Source\PSoC6\pdl\drivers/peripheral/gpio/cy_gpio.h **** 
 238:Generated_Source\PSoC6\pdl\drivers/peripheral/gpio/cy_gpio.h **** /** This structure is used to initialize a port of GPIO pins */
 239:Generated_Source\PSoC6\pdl\drivers/peripheral/gpio/cy_gpio.h **** typedef struct 
 240:Generated_Source\PSoC6\pdl\drivers/peripheral/gpio/cy_gpio.h **** {
 241:Generated_Source\PSoC6\pdl\drivers/peripheral/gpio/cy_gpio.h ****     uint32_t out;           /**< Initial output data for the IO pins in the port */
 242:Generated_Source\PSoC6\pdl\drivers/peripheral/gpio/cy_gpio.h ****     uint32_t intrMask;      /**< Interrupt enable mask for the port interrupt */
 243:Generated_Source\PSoC6\pdl\drivers/peripheral/gpio/cy_gpio.h ****     uint32_t intrCfg;       /**< Port pin interrupt edge detection configuration */
 244:Generated_Source\PSoC6\pdl\drivers/peripheral/gpio/cy_gpio.h ****     uint32_t cfg;           /**< Port pin drive modes and input buffer enable configuration */
 245:Generated_Source\PSoC6\pdl\drivers/peripheral/gpio/cy_gpio.h ****     uint32_t cfgIn;         /**< Port pin input buffer configuration */
 246:Generated_Source\PSoC6\pdl\drivers/peripheral/gpio/cy_gpio.h ****     uint32_t cfgOut;        /**< Port pin output buffer configuration */
 247:Generated_Source\PSoC6\pdl\drivers/peripheral/gpio/cy_gpio.h ****     uint32_t cfgSIO;        /**< Port SIO pins configuration */
 248:Generated_Source\PSoC6\pdl\drivers/peripheral/gpio/cy_gpio.h ****     uint32_t sel0Active;    /**< HSIOM selection for port pins 0,1,2,3 */
 249:Generated_Source\PSoC6\pdl\drivers/peripheral/gpio/cy_gpio.h ****     uint32_t sel1Active;    /**< HSIOM selection for port pins 4,5,6,7 */
 250:Generated_Source\PSoC6\pdl\drivers/peripheral/gpio/cy_gpio.h **** } cy_stc_gpio_prt_config_t;
 251:Generated_Source\PSoC6\pdl\drivers/peripheral/gpio/cy_gpio.h **** 
 252:Generated_Source\PSoC6\pdl\drivers/peripheral/gpio/cy_gpio.h **** /** This structure is used to initialize a single GPIO pin */
ARM GAS  C:\Users\haske\AppData\Local\Temp\cckhubq2.s 			page 7


 253:Generated_Source\PSoC6\pdl\drivers/peripheral/gpio/cy_gpio.h **** typedef struct
 254:Generated_Source\PSoC6\pdl\drivers/peripheral/gpio/cy_gpio.h **** {
 255:Generated_Source\PSoC6\pdl\drivers/peripheral/gpio/cy_gpio.h ****     uint32_t outVal;         /**< Pin output state */
 256:Generated_Source\PSoC6\pdl\drivers/peripheral/gpio/cy_gpio.h ****     uint32_t driveMode;      /**< Drive mode */
 257:Generated_Source\PSoC6\pdl\drivers/peripheral/gpio/cy_gpio.h ****     en_hsiom_sel_t hsiom;    /**< HSIOM selection */
 258:Generated_Source\PSoC6\pdl\drivers/peripheral/gpio/cy_gpio.h ****     uint32_t intEdge;        /**< Interrupt Edge type */
 259:Generated_Source\PSoC6\pdl\drivers/peripheral/gpio/cy_gpio.h ****     uint32_t intMask;        /**< Interrupt enable mask */
 260:Generated_Source\PSoC6\pdl\drivers/peripheral/gpio/cy_gpio.h ****     uint32_t vtrip;          /**< Input buffer voltage trip type */
 261:Generated_Source\PSoC6\pdl\drivers/peripheral/gpio/cy_gpio.h ****     uint32_t slewRate;       /**< Output buffer slew rate */
 262:Generated_Source\PSoC6\pdl\drivers/peripheral/gpio/cy_gpio.h ****     uint32_t driveSel;       /**< Drive strength */
 263:Generated_Source\PSoC6\pdl\drivers/peripheral/gpio/cy_gpio.h ****     uint32_t vregEn;         /**< SIO pair output buffer mode */
 264:Generated_Source\PSoC6\pdl\drivers/peripheral/gpio/cy_gpio.h ****     uint32_t ibufMode;       /**< SIO pair input buffer mode */
 265:Generated_Source\PSoC6\pdl\drivers/peripheral/gpio/cy_gpio.h ****     uint32_t vtripSel;       /**< SIO pair input buffer trip point */
 266:Generated_Source\PSoC6\pdl\drivers/peripheral/gpio/cy_gpio.h ****     uint32_t vrefSel;        /**< SIO pair reference voltage for input buffer trip point */
 267:Generated_Source\PSoC6\pdl\drivers/peripheral/gpio/cy_gpio.h ****     uint32_t vohSel;         /**< SIO pair regulated voltage output level */
 268:Generated_Source\PSoC6\pdl\drivers/peripheral/gpio/cy_gpio.h **** } cy_stc_gpio_pin_config_t;
 269:Generated_Source\PSoC6\pdl\drivers/peripheral/gpio/cy_gpio.h **** 
 270:Generated_Source\PSoC6\pdl\drivers/peripheral/gpio/cy_gpio.h **** /** \} group_gpio_data_structures */
 271:Generated_Source\PSoC6\pdl\drivers/peripheral/gpio/cy_gpio.h **** 
 272:Generated_Source\PSoC6\pdl\drivers/peripheral/gpio/cy_gpio.h **** /***************************************
 273:Generated_Source\PSoC6\pdl\drivers/peripheral/gpio/cy_gpio.h **** *        Constants
 274:Generated_Source\PSoC6\pdl\drivers/peripheral/gpio/cy_gpio.h **** ***************************************/
 275:Generated_Source\PSoC6\pdl\drivers/peripheral/gpio/cy_gpio.h **** 
 276:Generated_Source\PSoC6\pdl\drivers/peripheral/gpio/cy_gpio.h **** /** \cond INTERNAL */
 277:Generated_Source\PSoC6\pdl\drivers/peripheral/gpio/cy_gpio.h **** 
 278:Generated_Source\PSoC6\pdl\drivers/peripheral/gpio/cy_gpio.h **** /* General Constants */
 279:Generated_Source\PSoC6\pdl\drivers/peripheral/gpio/cy_gpio.h **** #define CY_GPIO_PRT_HALF                       (4UL)      /**< Half-way point of a GPIO port */
 280:Generated_Source\PSoC6\pdl\drivers/peripheral/gpio/cy_gpio.h **** #define CY_GPIO_PRT_DEINIT                     (0UL)      /**< De-init value for port registers */
 281:Generated_Source\PSoC6\pdl\drivers/peripheral/gpio/cy_gpio.h **** 
 282:Generated_Source\PSoC6\pdl\drivers/peripheral/gpio/cy_gpio.h **** /* GPIO Masks */
 283:Generated_Source\PSoC6\pdl\drivers/peripheral/gpio/cy_gpio.h **** #define CY_GPIO_HSIOM_MASK                     (0x1FUL)   /**< HSIOM selection mask */
 284:Generated_Source\PSoC6\pdl\drivers/peripheral/gpio/cy_gpio.h **** #define CY_GPIO_OUT_MASK                       (0x01UL)   /**< Single pin mask for OUT register */
 285:Generated_Source\PSoC6\pdl\drivers/peripheral/gpio/cy_gpio.h **** #define CY_GPIO_IN_MASK                        (0x01UL)   /**< Single pin mask for IN register */
 286:Generated_Source\PSoC6\pdl\drivers/peripheral/gpio/cy_gpio.h **** #define CY_GPIO_CFG_DM_MASK                    (0x0FUL)   /**< Single pin mask for drive mode in CF
 287:Generated_Source\PSoC6\pdl\drivers/peripheral/gpio/cy_gpio.h **** #define CY_GPIO_CFG_IN_VTRIP_SEL_MASK          (0x01UL)   /**< Single pin mask for VTRIP selection 
 288:Generated_Source\PSoC6\pdl\drivers/peripheral/gpio/cy_gpio.h **** #define CY_GPIO_CFG_OUT_SLOW_MASK              (0x01UL)   /**< Single pin mask for slew rate in CFG
 289:Generated_Source\PSoC6\pdl\drivers/peripheral/gpio/cy_gpio.h **** #define CY_GPIO_CFG_OUT_DRIVE_SEL_MASK         (0x03UL)   /**< Single pin mask for drive strength i
 290:Generated_Source\PSoC6\pdl\drivers/peripheral/gpio/cy_gpio.h **** #define CY_GPIO_INTR_STATUS_MASK               (0x01UL)   /**< Single pin mask for interrupt status
 291:Generated_Source\PSoC6\pdl\drivers/peripheral/gpio/cy_gpio.h **** #define CY_GPIO_INTR_EN_MASK                   (0x01UL)   /**< Single pin mask for interrupt status
 292:Generated_Source\PSoC6\pdl\drivers/peripheral/gpio/cy_gpio.h **** #define CY_GPIO_INTR_MASKED_MASK               (0x01UL)   /**< Single pin mask for masked interrupt
 293:Generated_Source\PSoC6\pdl\drivers/peripheral/gpio/cy_gpio.h **** #define CY_GPIO_INTR_SET_MASK                  (0x01UL)   /**< Single pin mask for setting the inte
 294:Generated_Source\PSoC6\pdl\drivers/peripheral/gpio/cy_gpio.h **** #define CY_GPIO_INTR_EDGE_MASK                 (0x03UL)   /**< Single pin mask for interrupt edge t
 295:Generated_Source\PSoC6\pdl\drivers/peripheral/gpio/cy_gpio.h **** #define CY_GPIO_INTR_FLT_EDGE_MASK             (0x07UL)   /**< Single pin mask for setting filtered
 296:Generated_Source\PSoC6\pdl\drivers/peripheral/gpio/cy_gpio.h **** 
 297:Generated_Source\PSoC6\pdl\drivers/peripheral/gpio/cy_gpio.h **** /* SIO Masks */
 298:Generated_Source\PSoC6\pdl\drivers/peripheral/gpio/cy_gpio.h **** #define CY_GPIO_VREG_EN_MASK                   (0x01UL)   /**< Single SIO pin mask for voltage regu
 299:Generated_Source\PSoC6\pdl\drivers/peripheral/gpio/cy_gpio.h **** #define CY_GPIO_IBUF_MASK                      (0x01UL)   /**< Single SIO pin mask for input buffer
 300:Generated_Source\PSoC6\pdl\drivers/peripheral/gpio/cy_gpio.h **** #define CY_GPIO_IBUF_SHIFT                     (0x01UL)   /**< Single SIO pin shift for input buffe
 301:Generated_Source\PSoC6\pdl\drivers/peripheral/gpio/cy_gpio.h **** #define CY_GPIO_VTRIP_SEL_MASK                 (0x01UL)   /**< Single SIO pin mask for the input bu
 302:Generated_Source\PSoC6\pdl\drivers/peripheral/gpio/cy_gpio.h **** #define CY_GPIO_VTRIP_SEL_SHIFT                (0x02UL)   /**< Single SIO pin shift for the input b
 303:Generated_Source\PSoC6\pdl\drivers/peripheral/gpio/cy_gpio.h **** #define CY_GPIO_VREF_SEL_MASK                  (0x03UL)   /**< Single SIO pin mask for voltage refe
 304:Generated_Source\PSoC6\pdl\drivers/peripheral/gpio/cy_gpio.h **** #define CY_GPIO_VREF_SEL_SHIFT                 (0x03UL)   /**< Single SIO pin shift for voltage ref
 305:Generated_Source\PSoC6\pdl\drivers/peripheral/gpio/cy_gpio.h **** #define CY_GPIO_VOH_SEL_MASK                   (0x07UL)   /**< Single SIO pin mask for VOH */
 306:Generated_Source\PSoC6\pdl\drivers/peripheral/gpio/cy_gpio.h **** #define CY_GPIO_VOH_SEL_SHIFT                  (0x05UL)   /**< Single SIO pin shift for VOH */
 307:Generated_Source\PSoC6\pdl\drivers/peripheral/gpio/cy_gpio.h **** 
 308:Generated_Source\PSoC6\pdl\drivers/peripheral/gpio/cy_gpio.h **** /* Special mask for SIO pin pair setting */
 309:Generated_Source\PSoC6\pdl\drivers/peripheral/gpio/cy_gpio.h **** #define CY_GPIO_SIO_ODD_PIN_MASK               (0x00FEUL) /**< SIO pin pair selection mask */
ARM GAS  C:\Users\haske\AppData\Local\Temp\cckhubq2.s 			page 8


 310:Generated_Source\PSoC6\pdl\drivers/peripheral/gpio/cy_gpio.h **** #define CY_GPIO_SIO_PIN_MASK                   (0x00FFUL) /**< SIO pin pair mask */
 311:Generated_Source\PSoC6\pdl\drivers/peripheral/gpio/cy_gpio.h **** 
 312:Generated_Source\PSoC6\pdl\drivers/peripheral/gpio/cy_gpio.h **** /* Offsets */
 313:Generated_Source\PSoC6\pdl\drivers/peripheral/gpio/cy_gpio.h **** #define CY_GPIO_HSIOM_OFFSET                   (3UL)      /**< Offset for HSIOM */
 314:Generated_Source\PSoC6\pdl\drivers/peripheral/gpio/cy_gpio.h **** #define CY_GPIO_DRIVE_MODE_OFFSET              (2UL)      /**< Offset for Drive mode */
 315:Generated_Source\PSoC6\pdl\drivers/peripheral/gpio/cy_gpio.h **** #define CY_GPIO_INBUF_OFFSET                   (3UL)      /**< Offset for input buffer */
 316:Generated_Source\PSoC6\pdl\drivers/peripheral/gpio/cy_gpio.h **** #define CY_GPIO_CFG_OUT_DRIVE_OFFSET           (16UL)     /**< Offset for drive strength */
 317:Generated_Source\PSoC6\pdl\drivers/peripheral/gpio/cy_gpio.h **** #define CY_GPIO_INTR_CFG_OFFSET                (1UL)      /**< Offset for interrupt config */
 318:Generated_Source\PSoC6\pdl\drivers/peripheral/gpio/cy_gpio.h **** #define CY_GPIO_INTR_FILT_OFFSET               (18UL)     /**< Offset for filtered interrupt config
 319:Generated_Source\PSoC6\pdl\drivers/peripheral/gpio/cy_gpio.h **** #define CY_GPIO_CFG_SIO_OFFSET                 (2UL)      /**< Offset for SIO config */
 320:Generated_Source\PSoC6\pdl\drivers/peripheral/gpio/cy_gpio.h **** 
 321:Generated_Source\PSoC6\pdl\drivers/peripheral/gpio/cy_gpio.h **** /* Parameter validation constants */
 322:Generated_Source\PSoC6\pdl\drivers/peripheral/gpio/cy_gpio.h **** #define CY_GPIO_PINS_MAX                       (8UL)      /**< Number of pins in the port */
 323:Generated_Source\PSoC6\pdl\drivers/peripheral/gpio/cy_gpio.h **** #define CY_GPIO_PRT_PINS_MASK                  (0x0000000FFUL)
 324:Generated_Source\PSoC6\pdl\drivers/peripheral/gpio/cy_gpio.h **** #define CY_GPIO_PRT_INTR_CFG_EDGE_SEL_MASK     (GPIO_PRT_INTR_CFG_EDGE0_SEL_Msk | \
 325:Generated_Source\PSoC6\pdl\drivers/peripheral/gpio/cy_gpio.h ****                                                 GPIO_PRT_INTR_CFG_EDGE1_SEL_Msk | \
 326:Generated_Source\PSoC6\pdl\drivers/peripheral/gpio/cy_gpio.h ****                                                 GPIO_PRT_INTR_CFG_EDGE2_SEL_Msk | \
 327:Generated_Source\PSoC6\pdl\drivers/peripheral/gpio/cy_gpio.h ****                                                 GPIO_PRT_INTR_CFG_EDGE3_SEL_Msk | \
 328:Generated_Source\PSoC6\pdl\drivers/peripheral/gpio/cy_gpio.h ****                                                 GPIO_PRT_INTR_CFG_EDGE4_SEL_Msk | \
 329:Generated_Source\PSoC6\pdl\drivers/peripheral/gpio/cy_gpio.h ****                                                 GPIO_PRT_INTR_CFG_EDGE5_SEL_Msk | \
 330:Generated_Source\PSoC6\pdl\drivers/peripheral/gpio/cy_gpio.h ****                                                 GPIO_PRT_INTR_CFG_EDGE6_SEL_Msk | \
 331:Generated_Source\PSoC6\pdl\drivers/peripheral/gpio/cy_gpio.h ****                                                 GPIO_PRT_INTR_CFG_EDGE7_SEL_Msk)
 332:Generated_Source\PSoC6\pdl\drivers/peripheral/gpio/cy_gpio.h **** #define CY_GPIO_PRT_INTR_CFG_RANGE_MASK        (CY_GPIO_PRT_INTR_CFG_EDGE_SEL_MASK | \
 333:Generated_Source\PSoC6\pdl\drivers/peripheral/gpio/cy_gpio.h ****                                                 GPIO_PRT_INTR_CFG_FLT_EDGE_SEL_Msk | \
 334:Generated_Source\PSoC6\pdl\drivers/peripheral/gpio/cy_gpio.h ****                                                 GPIO_PRT_INTR_CFG_FLT_SEL_Msk)
 335:Generated_Source\PSoC6\pdl\drivers/peripheral/gpio/cy_gpio.h **** #define CY_GPIO_PRT_INT_MASK_MASK              (0x0000001FFUL)
 336:Generated_Source\PSoC6\pdl\drivers/peripheral/gpio/cy_gpio.h **** #define CY_GPIO_PRT_SEL_ACTIVE_MASK            (0x1FFFFFFFUL)
 337:Generated_Source\PSoC6\pdl\drivers/peripheral/gpio/cy_gpio.h **** 
 338:Generated_Source\PSoC6\pdl\drivers/peripheral/gpio/cy_gpio.h **** #define GPIO_MAX_SPLIT_CELL_SEGMENTS           (9U)
 339:Generated_Source\PSoC6\pdl\drivers/peripheral/gpio/cy_gpio.h **** 
 340:Generated_Source\PSoC6\pdl\drivers/peripheral/gpio/cy_gpio.h **** /* Parameter validation macros */
 341:Generated_Source\PSoC6\pdl\drivers/peripheral/gpio/cy_gpio.h **** #define CY_GPIO_IS_PIN_VALID(pinNum)           (CY_GPIO_PINS_MAX > (pinNum))
 342:Generated_Source\PSoC6\pdl\drivers/peripheral/gpio/cy_gpio.h **** #define CY_GPIO_IS_FILTER_PIN_VALID(pinNum)    (CY_GPIO_PINS_MAX >= (pinNum))
 343:Generated_Source\PSoC6\pdl\drivers/peripheral/gpio/cy_gpio.h **** #define CY_GPIO_IS_VALUE_VALID(outVal)         (1UL >= (outVal))
 344:Generated_Source\PSoC6\pdl\drivers/peripheral/gpio/cy_gpio.h **** #define CY_GPIO_IS_DM_VALID(driveMode)         (0U == ((driveMode) & (uint32_t)~CY_GPIO_CFG_DM_MASK
 345:Generated_Source\PSoC6\pdl\drivers/peripheral/gpio/cy_gpio.h **** 
 346:Generated_Source\PSoC6\pdl\drivers/peripheral/gpio/cy_gpio.h **** #define CY_GPIO_IS_HSIOM_VALID(hsiom)          (0U == ((hsiom) & (uint32_t)~CY_GPIO_HSIOM_MASK))
 347:Generated_Source\PSoC6\pdl\drivers/peripheral/gpio/cy_gpio.h **** 
 348:Generated_Source\PSoC6\pdl\drivers/peripheral/gpio/cy_gpio.h **** #define CY_GPIO_IS_INT_EDGE_VALID(intEdge)     ((CY_GPIO_INTR_DISABLE  == (intEdge)) || \
 349:Generated_Source\PSoC6\pdl\drivers/peripheral/gpio/cy_gpio.h ****                                                 (CY_GPIO_INTR_RISING   == (intEdge)) || \
 350:Generated_Source\PSoC6\pdl\drivers/peripheral/gpio/cy_gpio.h ****                                                 (CY_GPIO_INTR_FALLING  == (intEdge)) || \
 351:Generated_Source\PSoC6\pdl\drivers/peripheral/gpio/cy_gpio.h ****                                                 (CY_GPIO_INTR_BOTH     == (intEdge)))
 352:Generated_Source\PSoC6\pdl\drivers/peripheral/gpio/cy_gpio.h **** 
 353:Generated_Source\PSoC6\pdl\drivers/peripheral/gpio/cy_gpio.h **** #define CY_GPIO_IS_DRIVE_SEL_VALID(driveSel)   ((CY_GPIO_DRIVE_FULL    == (driveSel)) || \
 354:Generated_Source\PSoC6\pdl\drivers/peripheral/gpio/cy_gpio.h ****                                                 (CY_GPIO_DRIVE_1_2     == (driveSel)) || \
 355:Generated_Source\PSoC6\pdl\drivers/peripheral/gpio/cy_gpio.h ****                                                 (CY_GPIO_DRIVE_1_4     == (driveSel)) || \
 356:Generated_Source\PSoC6\pdl\drivers/peripheral/gpio/cy_gpio.h ****                                                 (CY_GPIO_DRIVE_1_8     == (driveSel)))
 357:Generated_Source\PSoC6\pdl\drivers/peripheral/gpio/cy_gpio.h **** 
 358:Generated_Source\PSoC6\pdl\drivers/peripheral/gpio/cy_gpio.h **** #define CY_GPIO_IS_VREF_SEL_VALID(vrefSel)     ((CY_SIO_VREF_PINREF    == (vrefSel)) || \
 359:Generated_Source\PSoC6\pdl\drivers/peripheral/gpio/cy_gpio.h ****                                                 (CY_SIO_VREF_1_2V      == (vrefSel)) || \
 360:Generated_Source\PSoC6\pdl\drivers/peripheral/gpio/cy_gpio.h ****                                                 (CY_SIO_VREF_AMUX_A    == (vrefSel)) || \
 361:Generated_Source\PSoC6\pdl\drivers/peripheral/gpio/cy_gpio.h ****                                                 (CY_SIO_VREF_AMUX_B    == (vrefSel)))
 362:Generated_Source\PSoC6\pdl\drivers/peripheral/gpio/cy_gpio.h **** 
 363:Generated_Source\PSoC6\pdl\drivers/peripheral/gpio/cy_gpio.h **** #define CY_GPIO_IS_VOH_SEL_VALID(vrefSel)      ((CY_SIO_VOH_1_00       == (vrefSel)) || \
 364:Generated_Source\PSoC6\pdl\drivers/peripheral/gpio/cy_gpio.h ****                                                 (CY_SIO_VOH_1_25       == (vrefSel)) || \
 365:Generated_Source\PSoC6\pdl\drivers/peripheral/gpio/cy_gpio.h ****                                                 (CY_SIO_VOH_1_49       == (vrefSel)) || \
 366:Generated_Source\PSoC6\pdl\drivers/peripheral/gpio/cy_gpio.h ****                                                 (CY_SIO_VOH_1_67       == (vrefSel)) || \
ARM GAS  C:\Users\haske\AppData\Local\Temp\cckhubq2.s 			page 9


 367:Generated_Source\PSoC6\pdl\drivers/peripheral/gpio/cy_gpio.h ****                                                 (CY_SIO_VOH_2_08       == (vrefSel)) || \
 368:Generated_Source\PSoC6\pdl\drivers/peripheral/gpio/cy_gpio.h ****                                                 (CY_SIO_VOH_2_50       == (vrefSel)) || \
 369:Generated_Source\PSoC6\pdl\drivers/peripheral/gpio/cy_gpio.h ****                                                 (CY_SIO_VOH_2_78       == (vrefSel)) || \
 370:Generated_Source\PSoC6\pdl\drivers/peripheral/gpio/cy_gpio.h ****                                                 (CY_SIO_VOH_4_16       == (vrefSel)))
 371:Generated_Source\PSoC6\pdl\drivers/peripheral/gpio/cy_gpio.h ****                    
 372:Generated_Source\PSoC6\pdl\drivers/peripheral/gpio/cy_gpio.h **** #define CY_GPIO_IS_PIN_BIT_VALID(pinBit)       (0U == ((pinBit) & (uint32_t)~CY_GPIO_PRT_PINS_MASK)
 373:Generated_Source\PSoC6\pdl\drivers/peripheral/gpio/cy_gpio.h **** #define CY_GPIO_IS_INTR_CFG_VALID(intrCfg)     (0U == ((intrCfg) & (uint32_t)~CY_GPIO_PRT_INTR_CFG_
 374:Generated_Source\PSoC6\pdl\drivers/peripheral/gpio/cy_gpio.h **** #define CY_GPIO_IS_INTR_MASK_VALID(intrMask)   (0U == ((intrMask) & (uint32_t)~CY_GPIO_PRT_INT_MASK
 375:Generated_Source\PSoC6\pdl\drivers/peripheral/gpio/cy_gpio.h **** #define CY_GPIO_IS_SEL_ACT_VALID(selActive)    (0U == ((selActive) & (uint32_t)~CY_GPIO_PRT_SEL_ACT
 376:Generated_Source\PSoC6\pdl\drivers/peripheral/gpio/cy_gpio.h **** 
 377:Generated_Source\PSoC6\pdl\drivers/peripheral/gpio/cy_gpio.h **** #define CY_GPIO_IS_AMUX_SPLIT_VALID(switchCtrl)       (((uint32_t) (switchCtrl)) < GPIO_MAX_SPLIT_C
 378:Generated_Source\PSoC6\pdl\drivers/peripheral/gpio/cy_gpio.h **** 
 379:Generated_Source\PSoC6\pdl\drivers/peripheral/gpio/cy_gpio.h **** #define CY_GPIO_IS_AMUX_CONNECT_VALID(amuxConnect)    ((CY_GPIO_AMUX_OPENALL == (amuxConnect)) || \
 380:Generated_Source\PSoC6\pdl\drivers/peripheral/gpio/cy_gpio.h ****                                                        (CY_GPIO_AMUX_L       == (amuxConnect)) || \
 381:Generated_Source\PSoC6\pdl\drivers/peripheral/gpio/cy_gpio.h ****                                                        (CY_GPIO_AMUX_R       == (amuxConnect)) || \
 382:Generated_Source\PSoC6\pdl\drivers/peripheral/gpio/cy_gpio.h ****                                                        (CY_GPIO_AMUX_LR      == (amuxConnect)) || \
 383:Generated_Source\PSoC6\pdl\drivers/peripheral/gpio/cy_gpio.h ****                                                        (CY_GPIO_AMUX_G       == (amuxConnect)) || \
 384:Generated_Source\PSoC6\pdl\drivers/peripheral/gpio/cy_gpio.h ****                                                        (CY_GPIO_AMUX_GL      == (amuxConnect)) || \
 385:Generated_Source\PSoC6\pdl\drivers/peripheral/gpio/cy_gpio.h ****                                                        (CY_GPIO_AMUX_GR      == (amuxConnect)) || \
 386:Generated_Source\PSoC6\pdl\drivers/peripheral/gpio/cy_gpio.h ****                                                        (CY_GPIO_AMUX_GLR     == (amuxConnect)))
 387:Generated_Source\PSoC6\pdl\drivers/peripheral/gpio/cy_gpio.h **** 
 388:Generated_Source\PSoC6\pdl\drivers/peripheral/gpio/cy_gpio.h **** #define CY_GPIO_IS_AMUX_SELECT_VALID(amuxBus)       ((CY_GPIO_AMUXBUSA       == (amuxBus)) || \
 389:Generated_Source\PSoC6\pdl\drivers/peripheral/gpio/cy_gpio.h ****                                                      (CY_GPIO_AMUXBUSB       == (amuxBus)))
 390:Generated_Source\PSoC6\pdl\drivers/peripheral/gpio/cy_gpio.h **** /** \endcond */
 391:Generated_Source\PSoC6\pdl\drivers/peripheral/gpio/cy_gpio.h **** 
 392:Generated_Source\PSoC6\pdl\drivers/peripheral/gpio/cy_gpio.h **** 
 393:Generated_Source\PSoC6\pdl\drivers/peripheral/gpio/cy_gpio.h **** /***************************************
 394:Generated_Source\PSoC6\pdl\drivers/peripheral/gpio/cy_gpio.h **** *        Function Constants
 395:Generated_Source\PSoC6\pdl\drivers/peripheral/gpio/cy_gpio.h **** ***************************************/
 396:Generated_Source\PSoC6\pdl\drivers/peripheral/gpio/cy_gpio.h **** 
 397:Generated_Source\PSoC6\pdl\drivers/peripheral/gpio/cy_gpio.h **** /**
 398:Generated_Source\PSoC6\pdl\drivers/peripheral/gpio/cy_gpio.h **** * \addtogroup group_gpio_macros
 399:Generated_Source\PSoC6\pdl\drivers/peripheral/gpio/cy_gpio.h **** * \{
 400:Generated_Source\PSoC6\pdl\drivers/peripheral/gpio/cy_gpio.h **** */
 401:Generated_Source\PSoC6\pdl\drivers/peripheral/gpio/cy_gpio.h **** 
 402:Generated_Source\PSoC6\pdl\drivers/peripheral/gpio/cy_gpio.h **** /**
 403:Generated_Source\PSoC6\pdl\drivers/peripheral/gpio/cy_gpio.h **** * \defgroup group_gpio_driveModes Pin drive mode
 404:Generated_Source\PSoC6\pdl\drivers/peripheral/gpio/cy_gpio.h **** * \{
 405:Generated_Source\PSoC6\pdl\drivers/peripheral/gpio/cy_gpio.h **** * Constants to be used for setting the drive mode of the pin.
 406:Generated_Source\PSoC6\pdl\drivers/peripheral/gpio/cy_gpio.h **** */
 407:Generated_Source\PSoC6\pdl\drivers/peripheral/gpio/cy_gpio.h **** #define CY_GPIO_DM_ANALOG                      (0x00UL) /**< Analog High-Z. Input buffer off */
 408:Generated_Source\PSoC6\pdl\drivers/peripheral/gpio/cy_gpio.h **** #define CY_GPIO_DM_PULLUP_IN_OFF               (0x02UL) /**< Resistive Pull-Up. Input buffer off */
 409:Generated_Source\PSoC6\pdl\drivers/peripheral/gpio/cy_gpio.h **** #define CY_GPIO_DM_PULLDOWN_IN_OFF             (0x03UL) /**< Resistive Pull-Down. Input buffer off 
 410:Generated_Source\PSoC6\pdl\drivers/peripheral/gpio/cy_gpio.h **** #define CY_GPIO_DM_OD_DRIVESLOW_IN_OFF         (0x04UL) /**< Open Drain, Drives Low. Input buffer o
 411:Generated_Source\PSoC6\pdl\drivers/peripheral/gpio/cy_gpio.h **** #define CY_GPIO_DM_OD_DRIVESHIGH_IN_OFF        (0x05UL) /**< Open Drain, Drives High. Input buffer 
 412:Generated_Source\PSoC6\pdl\drivers/peripheral/gpio/cy_gpio.h **** #define CY_GPIO_DM_STRONG_IN_OFF               (0x06UL) /**< Strong Drive. Input buffer off */
 413:Generated_Source\PSoC6\pdl\drivers/peripheral/gpio/cy_gpio.h **** #define CY_GPIO_DM_PULLUP_DOWN_IN_OFF          (0x07UL) /**< Resistive Pull-Up/Down. Input buffer o
 414:Generated_Source\PSoC6\pdl\drivers/peripheral/gpio/cy_gpio.h **** #define CY_GPIO_DM_HIGHZ                       (0x08UL) /**< Digital High-Z. Input buffer on */
 415:Generated_Source\PSoC6\pdl\drivers/peripheral/gpio/cy_gpio.h **** #define CY_GPIO_DM_PULLUP                      (0x0AUL) /**< Resistive Pull-Up. Input buffer on */
 416:Generated_Source\PSoC6\pdl\drivers/peripheral/gpio/cy_gpio.h **** #define CY_GPIO_DM_PULLDOWN                    (0x0BUL) /**< Resistive Pull-Down. Input buffer on *
 417:Generated_Source\PSoC6\pdl\drivers/peripheral/gpio/cy_gpio.h **** #define CY_GPIO_DM_OD_DRIVESLOW                (0x0CUL) /**< Open Drain, Drives Low. Input buffer o
 418:Generated_Source\PSoC6\pdl\drivers/peripheral/gpio/cy_gpio.h **** #define CY_GPIO_DM_OD_DRIVESHIGH               (0x0DUL) /**< Open Drain, Drives High. Input buffer 
 419:Generated_Source\PSoC6\pdl\drivers/peripheral/gpio/cy_gpio.h **** #define CY_GPIO_DM_STRONG                      (0x0EUL) /**< Strong Drive. Input buffer on */
 420:Generated_Source\PSoC6\pdl\drivers/peripheral/gpio/cy_gpio.h **** #define CY_GPIO_DM_PULLUP_DOWN                 (0x0FUL) /**< Resistive Pull-Up/Down. Input buffer o
 421:Generated_Source\PSoC6\pdl\drivers/peripheral/gpio/cy_gpio.h **** /** \} */
 422:Generated_Source\PSoC6\pdl\drivers/peripheral/gpio/cy_gpio.h **** 
 423:Generated_Source\PSoC6\pdl\drivers/peripheral/gpio/cy_gpio.h **** /**
ARM GAS  C:\Users\haske\AppData\Local\Temp\cckhubq2.s 			page 10


 424:Generated_Source\PSoC6\pdl\drivers/peripheral/gpio/cy_gpio.h **** * \defgroup group_gpio_vtrip Voltage trip mode
 425:Generated_Source\PSoC6\pdl\drivers/peripheral/gpio/cy_gpio.h **** * \{
 426:Generated_Source\PSoC6\pdl\drivers/peripheral/gpio/cy_gpio.h **** * Constants to be used for setting the voltage trip type on the pin.
 427:Generated_Source\PSoC6\pdl\drivers/peripheral/gpio/cy_gpio.h **** */
 428:Generated_Source\PSoC6\pdl\drivers/peripheral/gpio/cy_gpio.h **** #define CY_GPIO_VTRIP_CMOS                     (0x00UL) /**< Input buffer compatible with CMOS and 
 429:Generated_Source\PSoC6\pdl\drivers/peripheral/gpio/cy_gpio.h **** #define CY_GPIO_VTRIP_TTL                      (0x01UL) /**< Input buffer compatible with TTL and M
 430:Generated_Source\PSoC6\pdl\drivers/peripheral/gpio/cy_gpio.h **** /** \} */
 431:Generated_Source\PSoC6\pdl\drivers/peripheral/gpio/cy_gpio.h **** 
 432:Generated_Source\PSoC6\pdl\drivers/peripheral/gpio/cy_gpio.h **** /**
 433:Generated_Source\PSoC6\pdl\drivers/peripheral/gpio/cy_gpio.h **** * \defgroup group_gpio_slewRate Slew Rate Mode
 434:Generated_Source\PSoC6\pdl\drivers/peripheral/gpio/cy_gpio.h **** * \{
 435:Generated_Source\PSoC6\pdl\drivers/peripheral/gpio/cy_gpio.h **** * Constants to be used for setting the slew rate of the pin.
 436:Generated_Source\PSoC6\pdl\drivers/peripheral/gpio/cy_gpio.h **** */
 437:Generated_Source\PSoC6\pdl\drivers/peripheral/gpio/cy_gpio.h **** #define CY_GPIO_SLEW_FAST                      (0x00UL) /**< Fast slew rate */
 438:Generated_Source\PSoC6\pdl\drivers/peripheral/gpio/cy_gpio.h **** #define CY_GPIO_SLEW_SLOW                      (0x01UL) /**< Slow slew rate */
 439:Generated_Source\PSoC6\pdl\drivers/peripheral/gpio/cy_gpio.h **** /** \} */
 440:Generated_Source\PSoC6\pdl\drivers/peripheral/gpio/cy_gpio.h **** 
 441:Generated_Source\PSoC6\pdl\drivers/peripheral/gpio/cy_gpio.h **** /**
 442:Generated_Source\PSoC6\pdl\drivers/peripheral/gpio/cy_gpio.h **** * \defgroup group_gpio_driveStrength Pin drive strength
 443:Generated_Source\PSoC6\pdl\drivers/peripheral/gpio/cy_gpio.h **** * \{
 444:Generated_Source\PSoC6\pdl\drivers/peripheral/gpio/cy_gpio.h **** * Constants to be used for setting the drive strength of the pin.
 445:Generated_Source\PSoC6\pdl\drivers/peripheral/gpio/cy_gpio.h **** */
 446:Generated_Source\PSoC6\pdl\drivers/peripheral/gpio/cy_gpio.h **** #define CY_GPIO_DRIVE_FULL                     (0x00UL) /**< Full drive strength: Max drive current
 447:Generated_Source\PSoC6\pdl\drivers/peripheral/gpio/cy_gpio.h **** #define CY_GPIO_DRIVE_1_2                      (0x01UL) /**< 1/2 drive strength: 1/2 drive current 
 448:Generated_Source\PSoC6\pdl\drivers/peripheral/gpio/cy_gpio.h **** #define CY_GPIO_DRIVE_1_4                      (0x02UL) /**< 1/4 drive strength: 1/4 drive current 
 449:Generated_Source\PSoC6\pdl\drivers/peripheral/gpio/cy_gpio.h **** #define CY_GPIO_DRIVE_1_8                      (0x03UL) /**< 1/8 drive strength: 1/8 drive current 
 450:Generated_Source\PSoC6\pdl\drivers/peripheral/gpio/cy_gpio.h **** /** \} */
 451:Generated_Source\PSoC6\pdl\drivers/peripheral/gpio/cy_gpio.h **** 
 452:Generated_Source\PSoC6\pdl\drivers/peripheral/gpio/cy_gpio.h **** /**
 453:Generated_Source\PSoC6\pdl\drivers/peripheral/gpio/cy_gpio.h **** * \defgroup group_gpio_interruptTrigger Interrupt trigger type
 454:Generated_Source\PSoC6\pdl\drivers/peripheral/gpio/cy_gpio.h **** * \{
 455:Generated_Source\PSoC6\pdl\drivers/peripheral/gpio/cy_gpio.h **** * Constants to be used for setting the interrupt trigger type on the pin.
 456:Generated_Source\PSoC6\pdl\drivers/peripheral/gpio/cy_gpio.h **** */
 457:Generated_Source\PSoC6\pdl\drivers/peripheral/gpio/cy_gpio.h **** #define CY_GPIO_INTR_DISABLE                   (0x00UL) /**< Disable the pin interrupt generation *
 458:Generated_Source\PSoC6\pdl\drivers/peripheral/gpio/cy_gpio.h **** #define CY_GPIO_INTR_RISING                    (0x01UL) /**< Rising-Edge interrupt */
 459:Generated_Source\PSoC6\pdl\drivers/peripheral/gpio/cy_gpio.h **** #define CY_GPIO_INTR_FALLING                   (0x02UL) /**< Falling-Edge interrupt */
 460:Generated_Source\PSoC6\pdl\drivers/peripheral/gpio/cy_gpio.h **** #define CY_GPIO_INTR_BOTH                      (0x03UL) /**< Both-Edge interrupt */
 461:Generated_Source\PSoC6\pdl\drivers/peripheral/gpio/cy_gpio.h **** /** \} */
 462:Generated_Source\PSoC6\pdl\drivers/peripheral/gpio/cy_gpio.h **** 
 463:Generated_Source\PSoC6\pdl\drivers/peripheral/gpio/cy_gpio.h **** /**
 464:Generated_Source\PSoC6\pdl\drivers/peripheral/gpio/cy_gpio.h **** * \defgroup group_gpio_sioVreg SIO output buffer mode
 465:Generated_Source\PSoC6\pdl\drivers/peripheral/gpio/cy_gpio.h **** * \{
 466:Generated_Source\PSoC6\pdl\drivers/peripheral/gpio/cy_gpio.h **** * Constants to be used for setting the SIO output buffer mode on the pin.
 467:Generated_Source\PSoC6\pdl\drivers/peripheral/gpio/cy_gpio.h **** */
 468:Generated_Source\PSoC6\pdl\drivers/peripheral/gpio/cy_gpio.h **** #define CY_SIO_VREG_UNREGULATED                (0x00UL) /**< Unregulated output buffer */
 469:Generated_Source\PSoC6\pdl\drivers/peripheral/gpio/cy_gpio.h **** #define CY_SIO_VREG_REGULATED                  (0x01UL) /**< Regulated output buffer */
 470:Generated_Source\PSoC6\pdl\drivers/peripheral/gpio/cy_gpio.h **** /** \} */
 471:Generated_Source\PSoC6\pdl\drivers/peripheral/gpio/cy_gpio.h **** 
 472:Generated_Source\PSoC6\pdl\drivers/peripheral/gpio/cy_gpio.h **** /**
 473:Generated_Source\PSoC6\pdl\drivers/peripheral/gpio/cy_gpio.h **** * \defgroup group_gpio_sioIbuf SIO input buffer mode
 474:Generated_Source\PSoC6\pdl\drivers/peripheral/gpio/cy_gpio.h **** * \{
 475:Generated_Source\PSoC6\pdl\drivers/peripheral/gpio/cy_gpio.h **** * Constants to be used for setting the SIO input buffer mode on the pin.
 476:Generated_Source\PSoC6\pdl\drivers/peripheral/gpio/cy_gpio.h **** */
 477:Generated_Source\PSoC6\pdl\drivers/peripheral/gpio/cy_gpio.h **** #define CY_SIO_IBUF_SINGLEENDED                (0x00UL) /**< Single ended input buffer */
 478:Generated_Source\PSoC6\pdl\drivers/peripheral/gpio/cy_gpio.h **** #define CY_SIO_IBUF_DIFFERENTIAL               (0x01UL) /**< Differential input buffer */
 479:Generated_Source\PSoC6\pdl\drivers/peripheral/gpio/cy_gpio.h **** /** \} */
 480:Generated_Source\PSoC6\pdl\drivers/peripheral/gpio/cy_gpio.h **** 
ARM GAS  C:\Users\haske\AppData\Local\Temp\cckhubq2.s 			page 11


 481:Generated_Source\PSoC6\pdl\drivers/peripheral/gpio/cy_gpio.h **** /**
 482:Generated_Source\PSoC6\pdl\drivers/peripheral/gpio/cy_gpio.h **** * \defgroup group_gpio_sioVtrip SIO input buffer trip-point
 483:Generated_Source\PSoC6\pdl\drivers/peripheral/gpio/cy_gpio.h **** * \{
 484:Generated_Source\PSoC6\pdl\drivers/peripheral/gpio/cy_gpio.h **** * Constants to be used for setting the SIO input buffer trip-point of the pin.
 485:Generated_Source\PSoC6\pdl\drivers/peripheral/gpio/cy_gpio.h **** */
 486:Generated_Source\PSoC6\pdl\drivers/peripheral/gpio/cy_gpio.h **** #define CY_SIO_VTRIP_CMOS                      (0x00UL) /**< CMOS input buffer (single-ended) */
 487:Generated_Source\PSoC6\pdl\drivers/peripheral/gpio/cy_gpio.h **** #define CY_SIO_VTRIP_TTL                       (0x01UL) /**< TTL input buffer (single-ended) */
 488:Generated_Source\PSoC6\pdl\drivers/peripheral/gpio/cy_gpio.h **** #define CY_SIO_VTRIP_0_5VDDIO_0_5VOH           (0x00UL) /**< 0.5xVddio or 0.5xVoh (differential) */
 489:Generated_Source\PSoC6\pdl\drivers/peripheral/gpio/cy_gpio.h **** #define CY_SIO_VTRIP_0_4VDDIO_1_0VREF          (0x01UL) /**< 0.4xVddio or 0.4xVoh (differential) */
 490:Generated_Source\PSoC6\pdl\drivers/peripheral/gpio/cy_gpio.h **** /** \} */
 491:Generated_Source\PSoC6\pdl\drivers/peripheral/gpio/cy_gpio.h **** 
 492:Generated_Source\PSoC6\pdl\drivers/peripheral/gpio/cy_gpio.h **** /**
 493:Generated_Source\PSoC6\pdl\drivers/peripheral/gpio/cy_gpio.h **** * \defgroup group_gpio_sioVref SIO reference voltage for input buffer trip-point
 494:Generated_Source\PSoC6\pdl\drivers/peripheral/gpio/cy_gpio.h **** * \{
 495:Generated_Source\PSoC6\pdl\drivers/peripheral/gpio/cy_gpio.h **** * Constants to be used for setting the reference voltage of SIO input buffer trip-point.
 496:Generated_Source\PSoC6\pdl\drivers/peripheral/gpio/cy_gpio.h **** */
 497:Generated_Source\PSoC6\pdl\drivers/peripheral/gpio/cy_gpio.h **** #define CY_SIO_VREF_PINREF                     (0x00UL) /**< Vref from analog pin */
 498:Generated_Source\PSoC6\pdl\drivers/peripheral/gpio/cy_gpio.h **** #define CY_SIO_VREF_1_2V                       (0x01UL) /**< Vref from internal 1.2V reference */
 499:Generated_Source\PSoC6\pdl\drivers/peripheral/gpio/cy_gpio.h **** #define CY_SIO_VREF_AMUX_A                     (0x02UL) /**< Vref from AMUXBUS_A */
 500:Generated_Source\PSoC6\pdl\drivers/peripheral/gpio/cy_gpio.h **** #define CY_SIO_VREF_AMUX_B                     (0x03UL) /**< Vref from AMUXBUS_B */
 501:Generated_Source\PSoC6\pdl\drivers/peripheral/gpio/cy_gpio.h **** /** \} */
 502:Generated_Source\PSoC6\pdl\drivers/peripheral/gpio/cy_gpio.h **** 
 503:Generated_Source\PSoC6\pdl\drivers/peripheral/gpio/cy_gpio.h **** /**
 504:Generated_Source\PSoC6\pdl\drivers/peripheral/gpio/cy_gpio.h **** * \defgroup group_gpio_sioVoh Regulated output voltage level (Voh) and input buffer trip-point of a
 505:Generated_Source\PSoC6\pdl\drivers/peripheral/gpio/cy_gpio.h **** * \{
 506:Generated_Source\PSoC6\pdl\drivers/peripheral/gpio/cy_gpio.h **** * Constants to be used for setting the Voh and input buffer trip-point of an SIO pair
 507:Generated_Source\PSoC6\pdl\drivers/peripheral/gpio/cy_gpio.h **** */
 508:Generated_Source\PSoC6\pdl\drivers/peripheral/gpio/cy_gpio.h **** #define CY_SIO_VOH_1_00                        (0x00UL) /**< Voh = 1 x Reference */
 509:Generated_Source\PSoC6\pdl\drivers/peripheral/gpio/cy_gpio.h **** #define CY_SIO_VOH_1_25                        (0x01UL) /**< Voh = 1.25 x Reference */
 510:Generated_Source\PSoC6\pdl\drivers/peripheral/gpio/cy_gpio.h **** #define CY_SIO_VOH_1_49                        (0x02UL) /**< Voh = 1.49 x Reference */
 511:Generated_Source\PSoC6\pdl\drivers/peripheral/gpio/cy_gpio.h **** #define CY_SIO_VOH_1_67                        (0x03UL) /**< Voh = 1.67 x Reference */
 512:Generated_Source\PSoC6\pdl\drivers/peripheral/gpio/cy_gpio.h **** #define CY_SIO_VOH_2_08                        (0x04UL) /**< Voh = 2.08 x Reference */
 513:Generated_Source\PSoC6\pdl\drivers/peripheral/gpio/cy_gpio.h **** #define CY_SIO_VOH_2_50                        (0x05UL) /**< Voh = 2.50 x Reference */
 514:Generated_Source\PSoC6\pdl\drivers/peripheral/gpio/cy_gpio.h **** #define CY_SIO_VOH_2_78                        (0x06UL) /**< Voh = 2.78 x Reference */
 515:Generated_Source\PSoC6\pdl\drivers/peripheral/gpio/cy_gpio.h **** #define CY_SIO_VOH_4_16                        (0x07UL) /**< Voh = 4.16 x Reference */
 516:Generated_Source\PSoC6\pdl\drivers/peripheral/gpio/cy_gpio.h **** /** \} */
 517:Generated_Source\PSoC6\pdl\drivers/peripheral/gpio/cy_gpio.h **** 
 518:Generated_Source\PSoC6\pdl\drivers/peripheral/gpio/cy_gpio.h **** /** \} group_gpio_macros */
 519:Generated_Source\PSoC6\pdl\drivers/peripheral/gpio/cy_gpio.h **** 
 520:Generated_Source\PSoC6\pdl\drivers/peripheral/gpio/cy_gpio.h **** /***************************************
 521:Generated_Source\PSoC6\pdl\drivers/peripheral/gpio/cy_gpio.h **** *        Function Prototypes
 522:Generated_Source\PSoC6\pdl\drivers/peripheral/gpio/cy_gpio.h **** ***************************************/
 523:Generated_Source\PSoC6\pdl\drivers/peripheral/gpio/cy_gpio.h **** 
 524:Generated_Source\PSoC6\pdl\drivers/peripheral/gpio/cy_gpio.h **** /**
 525:Generated_Source\PSoC6\pdl\drivers/peripheral/gpio/cy_gpio.h **** * \addtogroup group_gpio_functions
 526:Generated_Source\PSoC6\pdl\drivers/peripheral/gpio/cy_gpio.h **** * \{
 527:Generated_Source\PSoC6\pdl\drivers/peripheral/gpio/cy_gpio.h **** */
 528:Generated_Source\PSoC6\pdl\drivers/peripheral/gpio/cy_gpio.h **** 
 529:Generated_Source\PSoC6\pdl\drivers/peripheral/gpio/cy_gpio.h **** /**
 530:Generated_Source\PSoC6\pdl\drivers/peripheral/gpio/cy_gpio.h **** * \addtogroup group_gpio_functions_init
 531:Generated_Source\PSoC6\pdl\drivers/peripheral/gpio/cy_gpio.h **** * \{
 532:Generated_Source\PSoC6\pdl\drivers/peripheral/gpio/cy_gpio.h **** */
 533:Generated_Source\PSoC6\pdl\drivers/peripheral/gpio/cy_gpio.h **** 
 534:Generated_Source\PSoC6\pdl\drivers/peripheral/gpio/cy_gpio.h **** cy_en_gpio_status_t Cy_GPIO_Pin_Init(GPIO_PRT_Type* base, uint32_t pinNum, const cy_stc_gpio_pin_co
 535:Generated_Source\PSoC6\pdl\drivers/peripheral/gpio/cy_gpio.h **** cy_en_gpio_status_t Cy_GPIO_Port_Init(GPIO_PRT_Type* base, const cy_stc_gpio_prt_config_t *config);
 536:Generated_Source\PSoC6\pdl\drivers/peripheral/gpio/cy_gpio.h **** void Cy_GPIO_Pin_FastInit(GPIO_PRT_Type* base, uint32_t pinNum, uint32_t driveMode, uint32_t outVal
 537:Generated_Source\PSoC6\pdl\drivers/peripheral/gpio/cy_gpio.h **** void Cy_GPIO_Port_Deinit(GPIO_PRT_Type* base);
ARM GAS  C:\Users\haske\AppData\Local\Temp\cckhubq2.s 			page 12


 538:Generated_Source\PSoC6\pdl\drivers/peripheral/gpio/cy_gpio.h **** __STATIC_INLINE void Cy_GPIO_SetHSIOM(GPIO_PRT_Type* base, uint32_t pinNum, en_hsiom_sel_t value);
 539:Generated_Source\PSoC6\pdl\drivers/peripheral/gpio/cy_gpio.h **** __STATIC_INLINE en_hsiom_sel_t Cy_GPIO_GetHSIOM(GPIO_PRT_Type* base, uint32_t pinNum);
 540:Generated_Source\PSoC6\pdl\drivers/peripheral/gpio/cy_gpio.h **** __STATIC_INLINE GPIO_PRT_Type* Cy_GPIO_PortToAddr(uint32_t portNum);
 541:Generated_Source\PSoC6\pdl\drivers/peripheral/gpio/cy_gpio.h **** 
 542:Generated_Source\PSoC6\pdl\drivers/peripheral/gpio/cy_gpio.h **** /** \} group_gpio_functions_init */
 543:Generated_Source\PSoC6\pdl\drivers/peripheral/gpio/cy_gpio.h **** 
 544:Generated_Source\PSoC6\pdl\drivers/peripheral/gpio/cy_gpio.h **** /**
 545:Generated_Source\PSoC6\pdl\drivers/peripheral/gpio/cy_gpio.h **** * \addtogroup group_gpio_functions_gpio
 546:Generated_Source\PSoC6\pdl\drivers/peripheral/gpio/cy_gpio.h **** * \{
 547:Generated_Source\PSoC6\pdl\drivers/peripheral/gpio/cy_gpio.h **** */
 548:Generated_Source\PSoC6\pdl\drivers/peripheral/gpio/cy_gpio.h **** 
 549:Generated_Source\PSoC6\pdl\drivers/peripheral/gpio/cy_gpio.h **** void Cy_GPIO_SetAmuxSplit(cy_en_amux_split_t switchCtrl, cy_en_gpio_amuxconnect_t amuxConnect, cy_e
 550:Generated_Source\PSoC6\pdl\drivers/peripheral/gpio/cy_gpio.h **** cy_en_gpio_amuxconnect_t Cy_GPIO_GetAmuxSplit(cy_en_amux_split_t switchCtrl, cy_en_gpio_amuxselect_
 551:Generated_Source\PSoC6\pdl\drivers/peripheral/gpio/cy_gpio.h **** 
 552:Generated_Source\PSoC6\pdl\drivers/peripheral/gpio/cy_gpio.h **** __STATIC_INLINE uint32_t Cy_GPIO_Read(GPIO_PRT_Type* base, uint32_t pinNum);
 553:Generated_Source\PSoC6\pdl\drivers/peripheral/gpio/cy_gpio.h **** __STATIC_INLINE void Cy_GPIO_Write(GPIO_PRT_Type* base, uint32_t pinNum, uint32_t value);
 554:Generated_Source\PSoC6\pdl\drivers/peripheral/gpio/cy_gpio.h **** __STATIC_INLINE uint32_t Cy_GPIO_ReadOut(GPIO_PRT_Type* base, uint32_t pinNum);
 555:Generated_Source\PSoC6\pdl\drivers/peripheral/gpio/cy_gpio.h **** __STATIC_INLINE void Cy_GPIO_Set(GPIO_PRT_Type* base, uint32_t pinNum);
 556:Generated_Source\PSoC6\pdl\drivers/peripheral/gpio/cy_gpio.h **** __STATIC_INLINE void Cy_GPIO_Clr(GPIO_PRT_Type* base, uint32_t pinNum);
 557:Generated_Source\PSoC6\pdl\drivers/peripheral/gpio/cy_gpio.h **** __STATIC_INLINE void Cy_GPIO_Inv(GPIO_PRT_Type* base, uint32_t pinNum);
 558:Generated_Source\PSoC6\pdl\drivers/peripheral/gpio/cy_gpio.h **** __STATIC_INLINE void Cy_GPIO_SetDrivemode(GPIO_PRT_Type* base, uint32_t pinNum, uint32_t value);
 559:Generated_Source\PSoC6\pdl\drivers/peripheral/gpio/cy_gpio.h **** __STATIC_INLINE uint32_t Cy_GPIO_GetDrivemode(GPIO_PRT_Type* base, uint32_t pinNum);
 560:Generated_Source\PSoC6\pdl\drivers/peripheral/gpio/cy_gpio.h **** __STATIC_INLINE void Cy_GPIO_SetVtrip(GPIO_PRT_Type* base, uint32_t pinNum, uint32_t value);
 561:Generated_Source\PSoC6\pdl\drivers/peripheral/gpio/cy_gpio.h **** __STATIC_INLINE uint32_t Cy_GPIO_GetVtrip(GPIO_PRT_Type* base, uint32_t pinNum);
 562:Generated_Source\PSoC6\pdl\drivers/peripheral/gpio/cy_gpio.h **** __STATIC_INLINE void Cy_GPIO_SetSlewRate(GPIO_PRT_Type* base, uint32_t pinNum, uint32_t value);
 563:Generated_Source\PSoC6\pdl\drivers/peripheral/gpio/cy_gpio.h **** __STATIC_INLINE uint32_t Cy_GPIO_GetSlewRate(GPIO_PRT_Type* base, uint32_t pinNum);
 564:Generated_Source\PSoC6\pdl\drivers/peripheral/gpio/cy_gpio.h **** __STATIC_INLINE void Cy_GPIO_SetDriveSel(GPIO_PRT_Type* base, uint32_t pinNum, uint32_t value);
 565:Generated_Source\PSoC6\pdl\drivers/peripheral/gpio/cy_gpio.h **** __STATIC_INLINE uint32_t Cy_GPIO_GetDriveSel(GPIO_PRT_Type* base, uint32_t pinNum);
 566:Generated_Source\PSoC6\pdl\drivers/peripheral/gpio/cy_gpio.h **** 
 567:Generated_Source\PSoC6\pdl\drivers/peripheral/gpio/cy_gpio.h **** /** \} group_gpio_functions_gpio */
 568:Generated_Source\PSoC6\pdl\drivers/peripheral/gpio/cy_gpio.h **** 
 569:Generated_Source\PSoC6\pdl\drivers/peripheral/gpio/cy_gpio.h **** /**
 570:Generated_Source\PSoC6\pdl\drivers/peripheral/gpio/cy_gpio.h **** * \addtogroup group_gpio_functions_sio
 571:Generated_Source\PSoC6\pdl\drivers/peripheral/gpio/cy_gpio.h **** * \{
 572:Generated_Source\PSoC6\pdl\drivers/peripheral/gpio/cy_gpio.h **** */
 573:Generated_Source\PSoC6\pdl\drivers/peripheral/gpio/cy_gpio.h **** 
 574:Generated_Source\PSoC6\pdl\drivers/peripheral/gpio/cy_gpio.h **** __STATIC_INLINE void Cy_GPIO_SetVregEn(GPIO_PRT_Type* base, uint32_t pinNum, uint32_t value);
 575:Generated_Source\PSoC6\pdl\drivers/peripheral/gpio/cy_gpio.h **** __STATIC_INLINE uint32_t Cy_GPIO_GetVregEn(GPIO_PRT_Type* base, uint32_t pinNum);
 576:Generated_Source\PSoC6\pdl\drivers/peripheral/gpio/cy_gpio.h **** __STATIC_INLINE void Cy_GPIO_SetIbufMode(GPIO_PRT_Type* base, uint32_t pinNum, uint32_t value);
 577:Generated_Source\PSoC6\pdl\drivers/peripheral/gpio/cy_gpio.h **** __STATIC_INLINE uint32_t Cy_GPIO_GetIbufMode(GPIO_PRT_Type* base, uint32_t pinNum);
 578:Generated_Source\PSoC6\pdl\drivers/peripheral/gpio/cy_gpio.h **** __STATIC_INLINE void Cy_GPIO_SetVtripSel(GPIO_PRT_Type* base, uint32_t pinNum, uint32_t value);
 579:Generated_Source\PSoC6\pdl\drivers/peripheral/gpio/cy_gpio.h **** __STATIC_INLINE uint32_t Cy_GPIO_GetVtripSel(GPIO_PRT_Type* base, uint32_t pinNum);
 580:Generated_Source\PSoC6\pdl\drivers/peripheral/gpio/cy_gpio.h **** __STATIC_INLINE void Cy_GPIO_SetVrefSel(GPIO_PRT_Type* base, uint32_t pinNum, uint32_t value);
 581:Generated_Source\PSoC6\pdl\drivers/peripheral/gpio/cy_gpio.h **** __STATIC_INLINE uint32_t Cy_GPIO_GetVrefSel(GPIO_PRT_Type* base, uint32_t pinNum);
 582:Generated_Source\PSoC6\pdl\drivers/peripheral/gpio/cy_gpio.h **** __STATIC_INLINE void Cy_GPIO_SetVohSel(GPIO_PRT_Type* base, uint32_t pinNum, uint32_t value);
 583:Generated_Source\PSoC6\pdl\drivers/peripheral/gpio/cy_gpio.h **** __STATIC_INLINE uint32_t Cy_GPIO_GetVohSel(GPIO_PRT_Type* base, uint32_t pinNum);
 584:Generated_Source\PSoC6\pdl\drivers/peripheral/gpio/cy_gpio.h **** 
 585:Generated_Source\PSoC6\pdl\drivers/peripheral/gpio/cy_gpio.h **** /** \} group_gpio_functions_sio */
 586:Generated_Source\PSoC6\pdl\drivers/peripheral/gpio/cy_gpio.h **** 
 587:Generated_Source\PSoC6\pdl\drivers/peripheral/gpio/cy_gpio.h **** /**
 588:Generated_Source\PSoC6\pdl\drivers/peripheral/gpio/cy_gpio.h **** * \addtogroup group_gpio_functions_interrupt
 589:Generated_Source\PSoC6\pdl\drivers/peripheral/gpio/cy_gpio.h **** * \{
 590:Generated_Source\PSoC6\pdl\drivers/peripheral/gpio/cy_gpio.h **** */
 591:Generated_Source\PSoC6\pdl\drivers/peripheral/gpio/cy_gpio.h **** 
 592:Generated_Source\PSoC6\pdl\drivers/peripheral/gpio/cy_gpio.h **** __STATIC_INLINE uint32_t Cy_GPIO_GetInterruptStatus(GPIO_PRT_Type* base, uint32_t pinNum);
 593:Generated_Source\PSoC6\pdl\drivers/peripheral/gpio/cy_gpio.h **** __STATIC_INLINE void Cy_GPIO_ClearInterrupt(GPIO_PRT_Type* base, uint32_t pinNum);
 594:Generated_Source\PSoC6\pdl\drivers/peripheral/gpio/cy_gpio.h **** __STATIC_INLINE void Cy_GPIO_SetInterruptMask(GPIO_PRT_Type* base, uint32_t pinNum, uint32_t value)
ARM GAS  C:\Users\haske\AppData\Local\Temp\cckhubq2.s 			page 13


 595:Generated_Source\PSoC6\pdl\drivers/peripheral/gpio/cy_gpio.h **** __STATIC_INLINE uint32_t Cy_GPIO_GetInterruptMask(GPIO_PRT_Type* base, uint32_t pinNum);
 596:Generated_Source\PSoC6\pdl\drivers/peripheral/gpio/cy_gpio.h **** __STATIC_INLINE uint32_t Cy_GPIO_GetInterruptStatusMasked(GPIO_PRT_Type* base, uint32_t pinNum);
 597:Generated_Source\PSoC6\pdl\drivers/peripheral/gpio/cy_gpio.h **** __STATIC_INLINE void Cy_GPIO_SetSwInterrupt(GPIO_PRT_Type* base, uint32_t pinNum);
 598:Generated_Source\PSoC6\pdl\drivers/peripheral/gpio/cy_gpio.h **** __STATIC_INLINE void Cy_GPIO_SetInterruptEdge(GPIO_PRT_Type* base, uint32_t pinNum, uint32_t value)
 599:Generated_Source\PSoC6\pdl\drivers/peripheral/gpio/cy_gpio.h **** __STATIC_INLINE uint32_t Cy_GPIO_GetInterruptEdge(GPIO_PRT_Type* base, uint32_t pinNum);
 600:Generated_Source\PSoC6\pdl\drivers/peripheral/gpio/cy_gpio.h **** __STATIC_INLINE void Cy_GPIO_SetFilter(GPIO_PRT_Type* base, uint32_t value);
 601:Generated_Source\PSoC6\pdl\drivers/peripheral/gpio/cy_gpio.h **** __STATIC_INLINE uint32_t Cy_GPIO_GetFilter(GPIO_PRT_Type* base);
 602:Generated_Source\PSoC6\pdl\drivers/peripheral/gpio/cy_gpio.h **** 
 603:Generated_Source\PSoC6\pdl\drivers/peripheral/gpio/cy_gpio.h **** __STATIC_INLINE uint32_t Cy_GPIO_GetInterruptCause0(void);
 604:Generated_Source\PSoC6\pdl\drivers/peripheral/gpio/cy_gpio.h **** __STATIC_INLINE uint32_t Cy_GPIO_GetInterruptCause1(void);
 605:Generated_Source\PSoC6\pdl\drivers/peripheral/gpio/cy_gpio.h **** __STATIC_INLINE uint32_t Cy_GPIO_GetInterruptCause2(void);
 606:Generated_Source\PSoC6\pdl\drivers/peripheral/gpio/cy_gpio.h **** __STATIC_INLINE uint32_t Cy_GPIO_GetInterruptCause3(void);
 607:Generated_Source\PSoC6\pdl\drivers/peripheral/gpio/cy_gpio.h **** 
 608:Generated_Source\PSoC6\pdl\drivers/peripheral/gpio/cy_gpio.h **** /** \} group_gpio_functions_interrupt */
 609:Generated_Source\PSoC6\pdl\drivers/peripheral/gpio/cy_gpio.h **** 
 610:Generated_Source\PSoC6\pdl\drivers/peripheral/gpio/cy_gpio.h **** 
 611:Generated_Source\PSoC6\pdl\drivers/peripheral/gpio/cy_gpio.h **** /**
 612:Generated_Source\PSoC6\pdl\drivers/peripheral/gpio/cy_gpio.h **** * \addtogroup group_gpio_functions_init
 613:Generated_Source\PSoC6\pdl\drivers/peripheral/gpio/cy_gpio.h **** * \{
 614:Generated_Source\PSoC6\pdl\drivers/peripheral/gpio/cy_gpio.h **** */
 615:Generated_Source\PSoC6\pdl\drivers/peripheral/gpio/cy_gpio.h **** 
 616:Generated_Source\PSoC6\pdl\drivers/peripheral/gpio/cy_gpio.h **** /*******************************************************************************
 617:Generated_Source\PSoC6\pdl\drivers/peripheral/gpio/cy_gpio.h **** * Function Name: Cy_GPIO_SetHSIOM
 618:Generated_Source\PSoC6\pdl\drivers/peripheral/gpio/cy_gpio.h **** ****************************************************************************//**
 619:Generated_Source\PSoC6\pdl\drivers/peripheral/gpio/cy_gpio.h **** *
 620:Generated_Source\PSoC6\pdl\drivers/peripheral/gpio/cy_gpio.h **** * Configures the HSIOM connection to the pin.
 621:Generated_Source\PSoC6\pdl\drivers/peripheral/gpio/cy_gpio.h **** *
 622:Generated_Source\PSoC6\pdl\drivers/peripheral/gpio/cy_gpio.h **** * Connects the specified High-Speed Input Output Multiplexer (HSIOM) selection
 623:Generated_Source\PSoC6\pdl\drivers/peripheral/gpio/cy_gpio.h **** * to the pin.
 624:Generated_Source\PSoC6\pdl\drivers/peripheral/gpio/cy_gpio.h **** *
 625:Generated_Source\PSoC6\pdl\drivers/peripheral/gpio/cy_gpio.h **** * \param base
 626:Generated_Source\PSoC6\pdl\drivers/peripheral/gpio/cy_gpio.h **** * Pointer to the pin's port register base address
 627:Generated_Source\PSoC6\pdl\drivers/peripheral/gpio/cy_gpio.h **** *
 628:Generated_Source\PSoC6\pdl\drivers/peripheral/gpio/cy_gpio.h **** * \param pinNum
 629:Generated_Source\PSoC6\pdl\drivers/peripheral/gpio/cy_gpio.h **** * Position of the pin bit-field within the port register
 630:Generated_Source\PSoC6\pdl\drivers/peripheral/gpio/cy_gpio.h **** *
 631:Generated_Source\PSoC6\pdl\drivers/peripheral/gpio/cy_gpio.h **** * \param value
 632:Generated_Source\PSoC6\pdl\drivers/peripheral/gpio/cy_gpio.h **** * HSIOM input selection
 633:Generated_Source\PSoC6\pdl\drivers/peripheral/gpio/cy_gpio.h **** *
 634:Generated_Source\PSoC6\pdl\drivers/peripheral/gpio/cy_gpio.h **** * \note 
 635:Generated_Source\PSoC6\pdl\drivers/peripheral/gpio/cy_gpio.h **** * This function modifies a port register in a read-modify-write operation. It is
 636:Generated_Source\PSoC6\pdl\drivers/peripheral/gpio/cy_gpio.h **** * not thread safe as the resource is shared among multiple pins on a port.
 637:Generated_Source\PSoC6\pdl\drivers/peripheral/gpio/cy_gpio.h **** *
 638:Generated_Source\PSoC6\pdl\drivers/peripheral/gpio/cy_gpio.h **** * \funcusage
 639:Generated_Source\PSoC6\pdl\drivers/peripheral/gpio/cy_gpio.h **** * \snippet gpio/gpio_v1_10_sut_01.cydsn/main_cm4.c snippet_Cy_GPIO_SetHSIOM
 640:Generated_Source\PSoC6\pdl\drivers/peripheral/gpio/cy_gpio.h **** *
 641:Generated_Source\PSoC6\pdl\drivers/peripheral/gpio/cy_gpio.h **** *******************************************************************************/
 642:Generated_Source\PSoC6\pdl\drivers/peripheral/gpio/cy_gpio.h **** __STATIC_INLINE void Cy_GPIO_SetHSIOM(GPIO_PRT_Type* base, uint32_t pinNum, en_hsiom_sel_t value)
 643:Generated_Source\PSoC6\pdl\drivers/peripheral/gpio/cy_gpio.h **** {
 644:Generated_Source\PSoC6\pdl\drivers/peripheral/gpio/cy_gpio.h ****     uint32_t portNum;
 645:Generated_Source\PSoC6\pdl\drivers/peripheral/gpio/cy_gpio.h ****     uint32_t tempReg;
 646:Generated_Source\PSoC6\pdl\drivers/peripheral/gpio/cy_gpio.h ****     HSIOM_PRT_V1_Type* portAddrHSIOM;
 647:Generated_Source\PSoC6\pdl\drivers/peripheral/gpio/cy_gpio.h **** 
 648:Generated_Source\PSoC6\pdl\drivers/peripheral/gpio/cy_gpio.h ****     CY_ASSERT_L2(CY_GPIO_IS_PIN_VALID(pinNum));
 649:Generated_Source\PSoC6\pdl\drivers/peripheral/gpio/cy_gpio.h ****     CY_ASSERT_L2(CY_GPIO_IS_HSIOM_VALID(value));
 650:Generated_Source\PSoC6\pdl\drivers/peripheral/gpio/cy_gpio.h **** 
 651:Generated_Source\PSoC6\pdl\drivers/peripheral/gpio/cy_gpio.h ****     portNum = ((uint32_t)(base) - CY_GPIO_BASE) / GPIO_PRT_SECTION_SIZE;
ARM GAS  C:\Users\haske\AppData\Local\Temp\cckhubq2.s 			page 14


 652:Generated_Source\PSoC6\pdl\drivers/peripheral/gpio/cy_gpio.h ****     portAddrHSIOM = (HSIOM_PRT_V1_Type*)(CY_HSIOM_BASE + (HSIOM_PRT_SECTION_SIZE * portNum));
 653:Generated_Source\PSoC6\pdl\drivers/peripheral/gpio/cy_gpio.h **** 
 654:Generated_Source\PSoC6\pdl\drivers/peripheral/gpio/cy_gpio.h ****     if(pinNum < CY_GPIO_PRT_HALF)
 655:Generated_Source\PSoC6\pdl\drivers/peripheral/gpio/cy_gpio.h ****     {
 656:Generated_Source\PSoC6\pdl\drivers/peripheral/gpio/cy_gpio.h ****         tempReg = HSIOM_PRT_PORT_SEL0(portAddrHSIOM) & ~(CY_GPIO_HSIOM_MASK << (pinNum << CY_GPIO_H
 657:Generated_Source\PSoC6\pdl\drivers/peripheral/gpio/cy_gpio.h ****         HSIOM_PRT_PORT_SEL0(portAddrHSIOM) = tempReg | ((value & CY_GPIO_HSIOM_MASK) << (pinNum << 
 658:Generated_Source\PSoC6\pdl\drivers/peripheral/gpio/cy_gpio.h ****     }
 659:Generated_Source\PSoC6\pdl\drivers/peripheral/gpio/cy_gpio.h ****     else
 660:Generated_Source\PSoC6\pdl\drivers/peripheral/gpio/cy_gpio.h ****     {
 661:Generated_Source\PSoC6\pdl\drivers/peripheral/gpio/cy_gpio.h ****         pinNum -= CY_GPIO_PRT_HALF;
 662:Generated_Source\PSoC6\pdl\drivers/peripheral/gpio/cy_gpio.h ****         tempReg = HSIOM_PRT_PORT_SEL1(portAddrHSIOM) & ~(CY_GPIO_HSIOM_MASK << (pinNum << CY_GPIO_H
 663:Generated_Source\PSoC6\pdl\drivers/peripheral/gpio/cy_gpio.h ****         HSIOM_PRT_PORT_SEL1(portAddrHSIOM) = tempReg | ((value & CY_GPIO_HSIOM_MASK) << (pinNum << 
 664:Generated_Source\PSoC6\pdl\drivers/peripheral/gpio/cy_gpio.h ****     }
 665:Generated_Source\PSoC6\pdl\drivers/peripheral/gpio/cy_gpio.h **** }
 666:Generated_Source\PSoC6\pdl\drivers/peripheral/gpio/cy_gpio.h **** 
 667:Generated_Source\PSoC6\pdl\drivers/peripheral/gpio/cy_gpio.h **** 
 668:Generated_Source\PSoC6\pdl\drivers/peripheral/gpio/cy_gpio.h **** /*******************************************************************************
 669:Generated_Source\PSoC6\pdl\drivers/peripheral/gpio/cy_gpio.h **** * Function Name: Cy_GPIO_GetHSIOM
 670:Generated_Source\PSoC6\pdl\drivers/peripheral/gpio/cy_gpio.h **** ****************************************************************************//**
 671:Generated_Source\PSoC6\pdl\drivers/peripheral/gpio/cy_gpio.h **** *
 672:Generated_Source\PSoC6\pdl\drivers/peripheral/gpio/cy_gpio.h **** * Returns the current HSIOM multiplexer connection to the pin.
 673:Generated_Source\PSoC6\pdl\drivers/peripheral/gpio/cy_gpio.h **** *
 674:Generated_Source\PSoC6\pdl\drivers/peripheral/gpio/cy_gpio.h **** * \param base
 675:Generated_Source\PSoC6\pdl\drivers/peripheral/gpio/cy_gpio.h **** * Pointer to the pin's port register base address
 676:Generated_Source\PSoC6\pdl\drivers/peripheral/gpio/cy_gpio.h **** *
 677:Generated_Source\PSoC6\pdl\drivers/peripheral/gpio/cy_gpio.h **** * \param pinNum
 678:Generated_Source\PSoC6\pdl\drivers/peripheral/gpio/cy_gpio.h **** * Position of the pin bit-field within the port register
 679:Generated_Source\PSoC6\pdl\drivers/peripheral/gpio/cy_gpio.h **** *
 680:Generated_Source\PSoC6\pdl\drivers/peripheral/gpio/cy_gpio.h **** * \return
 681:Generated_Source\PSoC6\pdl\drivers/peripheral/gpio/cy_gpio.h **** * HSIOM input selection
 682:Generated_Source\PSoC6\pdl\drivers/peripheral/gpio/cy_gpio.h **** *
 683:Generated_Source\PSoC6\pdl\drivers/peripheral/gpio/cy_gpio.h **** * \funcusage
 684:Generated_Source\PSoC6\pdl\drivers/peripheral/gpio/cy_gpio.h **** * \snippet gpio/gpio_v1_10_sut_01.cydsn/main_cm4.c snippet_Cy_GPIO_SetHSIOM
 685:Generated_Source\PSoC6\pdl\drivers/peripheral/gpio/cy_gpio.h **** *
 686:Generated_Source\PSoC6\pdl\drivers/peripheral/gpio/cy_gpio.h **** *******************************************************************************/
 687:Generated_Source\PSoC6\pdl\drivers/peripheral/gpio/cy_gpio.h **** __STATIC_INLINE en_hsiom_sel_t Cy_GPIO_GetHSIOM(GPIO_PRT_Type* base, uint32_t pinNum)
 688:Generated_Source\PSoC6\pdl\drivers/peripheral/gpio/cy_gpio.h **** {
 689:Generated_Source\PSoC6\pdl\drivers/peripheral/gpio/cy_gpio.h ****     uint32_t returnValue;
 690:Generated_Source\PSoC6\pdl\drivers/peripheral/gpio/cy_gpio.h ****     uint32_t portNum;
 691:Generated_Source\PSoC6\pdl\drivers/peripheral/gpio/cy_gpio.h ****     HSIOM_PRT_V1_Type* portAddrHSIOM;
 692:Generated_Source\PSoC6\pdl\drivers/peripheral/gpio/cy_gpio.h ****     
 693:Generated_Source\PSoC6\pdl\drivers/peripheral/gpio/cy_gpio.h ****     CY_ASSERT_L2(CY_GPIO_IS_PIN_VALID(pinNum));
 694:Generated_Source\PSoC6\pdl\drivers/peripheral/gpio/cy_gpio.h **** 
 695:Generated_Source\PSoC6\pdl\drivers/peripheral/gpio/cy_gpio.h ****     portNum = ((uint32_t)(base) - CY_GPIO_BASE) / GPIO_PRT_SECTION_SIZE;
 696:Generated_Source\PSoC6\pdl\drivers/peripheral/gpio/cy_gpio.h ****     portAddrHSIOM = (HSIOM_PRT_V1_Type*)(CY_HSIOM_BASE + (HSIOM_PRT_SECTION_SIZE * portNum));
 697:Generated_Source\PSoC6\pdl\drivers/peripheral/gpio/cy_gpio.h **** 
 698:Generated_Source\PSoC6\pdl\drivers/peripheral/gpio/cy_gpio.h ****     if(pinNum < CY_GPIO_PRT_HALF)
 699:Generated_Source\PSoC6\pdl\drivers/peripheral/gpio/cy_gpio.h ****     {
 700:Generated_Source\PSoC6\pdl\drivers/peripheral/gpio/cy_gpio.h ****         returnValue = (HSIOM_PRT_PORT_SEL0(portAddrHSIOM) >> (pinNum << CY_GPIO_HSIOM_OFFSET)) & CY
 701:Generated_Source\PSoC6\pdl\drivers/peripheral/gpio/cy_gpio.h ****     }
 702:Generated_Source\PSoC6\pdl\drivers/peripheral/gpio/cy_gpio.h ****     else
 703:Generated_Source\PSoC6\pdl\drivers/peripheral/gpio/cy_gpio.h ****     {
 704:Generated_Source\PSoC6\pdl\drivers/peripheral/gpio/cy_gpio.h ****         pinNum -= CY_GPIO_PRT_HALF;
 705:Generated_Source\PSoC6\pdl\drivers/peripheral/gpio/cy_gpio.h ****         returnValue = (HSIOM_PRT_PORT_SEL1(portAddrHSIOM) >> (pinNum << CY_GPIO_HSIOM_OFFSET)) & CY
 706:Generated_Source\PSoC6\pdl\drivers/peripheral/gpio/cy_gpio.h ****     }
 707:Generated_Source\PSoC6\pdl\drivers/peripheral/gpio/cy_gpio.h **** 
 708:Generated_Source\PSoC6\pdl\drivers/peripheral/gpio/cy_gpio.h ****     return (en_hsiom_sel_t)returnValue;
ARM GAS  C:\Users\haske\AppData\Local\Temp\cckhubq2.s 			page 15


 709:Generated_Source\PSoC6\pdl\drivers/peripheral/gpio/cy_gpio.h **** }
 710:Generated_Source\PSoC6\pdl\drivers/peripheral/gpio/cy_gpio.h **** 
 711:Generated_Source\PSoC6\pdl\drivers/peripheral/gpio/cy_gpio.h **** 
 712:Generated_Source\PSoC6\pdl\drivers/peripheral/gpio/cy_gpio.h **** /*******************************************************************************
 713:Generated_Source\PSoC6\pdl\drivers/peripheral/gpio/cy_gpio.h **** * Function Name: Cy_GPIO_PortToAddr
 714:Generated_Source\PSoC6\pdl\drivers/peripheral/gpio/cy_gpio.h **** ****************************************************************************//**
 715:Generated_Source\PSoC6\pdl\drivers/peripheral/gpio/cy_gpio.h **** *
 716:Generated_Source\PSoC6\pdl\drivers/peripheral/gpio/cy_gpio.h **** * Retrieves the port address based on the given port number.
 717:Generated_Source\PSoC6\pdl\drivers/peripheral/gpio/cy_gpio.h **** *
 718:Generated_Source\PSoC6\pdl\drivers/peripheral/gpio/cy_gpio.h **** * This is a helper function to calculate the port base address when given a port
 719:Generated_Source\PSoC6\pdl\drivers/peripheral/gpio/cy_gpio.h **** * number. It is to be used when pin access needs to be calculated at runtime.
 720:Generated_Source\PSoC6\pdl\drivers/peripheral/gpio/cy_gpio.h **** *
 721:Generated_Source\PSoC6\pdl\drivers/peripheral/gpio/cy_gpio.h **** * \param portNum
 722:Generated_Source\PSoC6\pdl\drivers/peripheral/gpio/cy_gpio.h **** * Port number
 723:Generated_Source\PSoC6\pdl\drivers/peripheral/gpio/cy_gpio.h **** *
 724:Generated_Source\PSoC6\pdl\drivers/peripheral/gpio/cy_gpio.h **** * \return
 725:Generated_Source\PSoC6\pdl\drivers/peripheral/gpio/cy_gpio.h **** * Base address of the port register structure
 726:Generated_Source\PSoC6\pdl\drivers/peripheral/gpio/cy_gpio.h **** *
 727:Generated_Source\PSoC6\pdl\drivers/peripheral/gpio/cy_gpio.h **** * \funcusage
 728:Generated_Source\PSoC6\pdl\drivers/peripheral/gpio/cy_gpio.h **** * \snippet gpio/gpio_v1_10_sut_01.cydsn/main_cm4.c snippet_Cy_GPIO_PortToAddr
 729:Generated_Source\PSoC6\pdl\drivers/peripheral/gpio/cy_gpio.h **** *
 730:Generated_Source\PSoC6\pdl\drivers/peripheral/gpio/cy_gpio.h **** *******************************************************************************/
 731:Generated_Source\PSoC6\pdl\drivers/peripheral/gpio/cy_gpio.h **** __STATIC_INLINE GPIO_PRT_Type* Cy_GPIO_PortToAddr(uint32_t portNum)
 732:Generated_Source\PSoC6\pdl\drivers/peripheral/gpio/cy_gpio.h **** {
 733:Generated_Source\PSoC6\pdl\drivers/peripheral/gpio/cy_gpio.h ****     GPIO_PRT_Type* portBase;
 734:Generated_Source\PSoC6\pdl\drivers/peripheral/gpio/cy_gpio.h ****     
 735:Generated_Source\PSoC6\pdl\drivers/peripheral/gpio/cy_gpio.h ****     if(portNum < (uint32_t)IOSS_GPIO_GPIO_PORT_NR)
 736:Generated_Source\PSoC6\pdl\drivers/peripheral/gpio/cy_gpio.h ****     {
 737:Generated_Source\PSoC6\pdl\drivers/peripheral/gpio/cy_gpio.h ****         portBase = (GPIO_PRT_Type *)(CY_GPIO_BASE + (GPIO_PRT_SECTION_SIZE * portNum));
 738:Generated_Source\PSoC6\pdl\drivers/peripheral/gpio/cy_gpio.h ****     }
 739:Generated_Source\PSoC6\pdl\drivers/peripheral/gpio/cy_gpio.h ****     else
 740:Generated_Source\PSoC6\pdl\drivers/peripheral/gpio/cy_gpio.h ****     {
 741:Generated_Source\PSoC6\pdl\drivers/peripheral/gpio/cy_gpio.h ****         /* Error: Return default base address */
 742:Generated_Source\PSoC6\pdl\drivers/peripheral/gpio/cy_gpio.h ****         portBase = (GPIO_PRT_Type *)(CY_GPIO_BASE);
 743:Generated_Source\PSoC6\pdl\drivers/peripheral/gpio/cy_gpio.h ****     }
 744:Generated_Source\PSoC6\pdl\drivers/peripheral/gpio/cy_gpio.h **** 
 745:Generated_Source\PSoC6\pdl\drivers/peripheral/gpio/cy_gpio.h ****     return (portBase);
 746:Generated_Source\PSoC6\pdl\drivers/peripheral/gpio/cy_gpio.h **** }
 747:Generated_Source\PSoC6\pdl\drivers/peripheral/gpio/cy_gpio.h **** 
 748:Generated_Source\PSoC6\pdl\drivers/peripheral/gpio/cy_gpio.h **** /** \} group_gpio_functions_init */
 749:Generated_Source\PSoC6\pdl\drivers/peripheral/gpio/cy_gpio.h **** 
 750:Generated_Source\PSoC6\pdl\drivers/peripheral/gpio/cy_gpio.h **** /**
 751:Generated_Source\PSoC6\pdl\drivers/peripheral/gpio/cy_gpio.h **** * \addtogroup group_gpio_functions_gpio
 752:Generated_Source\PSoC6\pdl\drivers/peripheral/gpio/cy_gpio.h **** * \{
 753:Generated_Source\PSoC6\pdl\drivers/peripheral/gpio/cy_gpio.h **** */
 754:Generated_Source\PSoC6\pdl\drivers/peripheral/gpio/cy_gpio.h **** 
 755:Generated_Source\PSoC6\pdl\drivers/peripheral/gpio/cy_gpio.h **** /*******************************************************************************
 756:Generated_Source\PSoC6\pdl\drivers/peripheral/gpio/cy_gpio.h **** * Function Name: Cy_GPIO_Read
 757:Generated_Source\PSoC6\pdl\drivers/peripheral/gpio/cy_gpio.h **** ****************************************************************************//**
 758:Generated_Source\PSoC6\pdl\drivers/peripheral/gpio/cy_gpio.h **** *
 759:Generated_Source\PSoC6\pdl\drivers/peripheral/gpio/cy_gpio.h **** * Reads the current logic level on the input buffer of the pin.
 760:Generated_Source\PSoC6\pdl\drivers/peripheral/gpio/cy_gpio.h **** *
 761:Generated_Source\PSoC6\pdl\drivers/peripheral/gpio/cy_gpio.h **** * \param base
 762:Generated_Source\PSoC6\pdl\drivers/peripheral/gpio/cy_gpio.h **** * Pointer to the pin's port register base address
 763:Generated_Source\PSoC6\pdl\drivers/peripheral/gpio/cy_gpio.h **** *
 764:Generated_Source\PSoC6\pdl\drivers/peripheral/gpio/cy_gpio.h **** * \param pinNum
 765:Generated_Source\PSoC6\pdl\drivers/peripheral/gpio/cy_gpio.h **** * Position of the pin bit-field within the port register.
ARM GAS  C:\Users\haske\AppData\Local\Temp\cckhubq2.s 			page 16


 766:Generated_Source\PSoC6\pdl\drivers/peripheral/gpio/cy_gpio.h **** * Bit position 8 is the routed pin through the port glitch filter.
 767:Generated_Source\PSoC6\pdl\drivers/peripheral/gpio/cy_gpio.h **** *
 768:Generated_Source\PSoC6\pdl\drivers/peripheral/gpio/cy_gpio.h **** * \return
 769:Generated_Source\PSoC6\pdl\drivers/peripheral/gpio/cy_gpio.h **** * Logic level present on the pin
 770:Generated_Source\PSoC6\pdl\drivers/peripheral/gpio/cy_gpio.h **** *
 771:Generated_Source\PSoC6\pdl\drivers/peripheral/gpio/cy_gpio.h **** * \funcusage
 772:Generated_Source\PSoC6\pdl\drivers/peripheral/gpio/cy_gpio.h **** * \snippet gpio/gpio_v1_10_sut_01.cydsn/main_cm4.c snippet_Cy_GPIO_Read
 773:Generated_Source\PSoC6\pdl\drivers/peripheral/gpio/cy_gpio.h **** *
 774:Generated_Source\PSoC6\pdl\drivers/peripheral/gpio/cy_gpio.h **** *******************************************************************************/
 775:Generated_Source\PSoC6\pdl\drivers/peripheral/gpio/cy_gpio.h **** __STATIC_INLINE uint32_t Cy_GPIO_Read(GPIO_PRT_Type* base, uint32_t pinNum)
 776:Generated_Source\PSoC6\pdl\drivers/peripheral/gpio/cy_gpio.h **** {
 777:Generated_Source\PSoC6\pdl\drivers/peripheral/gpio/cy_gpio.h ****     CY_ASSERT_L2(CY_GPIO_IS_FILTER_PIN_VALID(pinNum));
 778:Generated_Source\PSoC6\pdl\drivers/peripheral/gpio/cy_gpio.h ****     
 779:Generated_Source\PSoC6\pdl\drivers/peripheral/gpio/cy_gpio.h ****     return (GPIO_PRT_IN(base) >> (pinNum)) & CY_GPIO_IN_MASK;
 780:Generated_Source\PSoC6\pdl\drivers/peripheral/gpio/cy_gpio.h **** }
 781:Generated_Source\PSoC6\pdl\drivers/peripheral/gpio/cy_gpio.h **** 
 782:Generated_Source\PSoC6\pdl\drivers/peripheral/gpio/cy_gpio.h **** 
 783:Generated_Source\PSoC6\pdl\drivers/peripheral/gpio/cy_gpio.h **** /*******************************************************************************
 784:Generated_Source\PSoC6\pdl\drivers/peripheral/gpio/cy_gpio.h **** * Function Name: Cy_GPIO_Write
 785:Generated_Source\PSoC6\pdl\drivers/peripheral/gpio/cy_gpio.h **** ****************************************************************************//**
 786:Generated_Source\PSoC6\pdl\drivers/peripheral/gpio/cy_gpio.h **** *
 787:Generated_Source\PSoC6\pdl\drivers/peripheral/gpio/cy_gpio.h **** * Write a logic 0 or logic 1 state to the output driver.
 788:Generated_Source\PSoC6\pdl\drivers/peripheral/gpio/cy_gpio.h **** *
 789:Generated_Source\PSoC6\pdl\drivers/peripheral/gpio/cy_gpio.h **** * This function should be used only for software driven pins. It does not have
 790:Generated_Source\PSoC6\pdl\drivers/peripheral/gpio/cy_gpio.h **** * any effect on peripheral driven pins.
 791:Generated_Source\PSoC6\pdl\drivers/peripheral/gpio/cy_gpio.h **** *
 792:Generated_Source\PSoC6\pdl\drivers/peripheral/gpio/cy_gpio.h **** * \param base
 793:Generated_Source\PSoC6\pdl\drivers/peripheral/gpio/cy_gpio.h **** * Pointer to the pin's port register base address
 794:Generated_Source\PSoC6\pdl\drivers/peripheral/gpio/cy_gpio.h **** *
 795:Generated_Source\PSoC6\pdl\drivers/peripheral/gpio/cy_gpio.h **** * \param pinNum
 796:Generated_Source\PSoC6\pdl\drivers/peripheral/gpio/cy_gpio.h **** * Position of the pin bit-field within the port register
 797:Generated_Source\PSoC6\pdl\drivers/peripheral/gpio/cy_gpio.h **** *
 798:Generated_Source\PSoC6\pdl\drivers/peripheral/gpio/cy_gpio.h **** * \param value
 799:Generated_Source\PSoC6\pdl\drivers/peripheral/gpio/cy_gpio.h **** * Logic level to drive out on the pin
 800:Generated_Source\PSoC6\pdl\drivers/peripheral/gpio/cy_gpio.h **** *
 801:Generated_Source\PSoC6\pdl\drivers/peripheral/gpio/cy_gpio.h **** * \funcusage
 802:Generated_Source\PSoC6\pdl\drivers/peripheral/gpio/cy_gpio.h **** * \snippet gpio/gpio_v1_10_sut_01.cydsn/main_cm4.c snippet_Cy_GPIO_Write
 803:Generated_Source\PSoC6\pdl\drivers/peripheral/gpio/cy_gpio.h **** *
 804:Generated_Source\PSoC6\pdl\drivers/peripheral/gpio/cy_gpio.h **** *******************************************************************************/
 805:Generated_Source\PSoC6\pdl\drivers/peripheral/gpio/cy_gpio.h **** __STATIC_INLINE void Cy_GPIO_Write(GPIO_PRT_Type* base, uint32_t pinNum, uint32_t value)
 806:Generated_Source\PSoC6\pdl\drivers/peripheral/gpio/cy_gpio.h **** {
 807:Generated_Source\PSoC6\pdl\drivers/peripheral/gpio/cy_gpio.h ****     CY_ASSERT_L2(CY_GPIO_IS_PIN_VALID(pinNum));
 808:Generated_Source\PSoC6\pdl\drivers/peripheral/gpio/cy_gpio.h ****     CY_ASSERT_L2(CY_GPIO_IS_VALUE_VALID(value));
 809:Generated_Source\PSoC6\pdl\drivers/peripheral/gpio/cy_gpio.h **** 
 810:Generated_Source\PSoC6\pdl\drivers/peripheral/gpio/cy_gpio.h ****     /* Thread-safe: Directly access the pin registers instead of base->OUT */
 811:Generated_Source\PSoC6\pdl\drivers/peripheral/gpio/cy_gpio.h ****     if(0UL == value)
 812:Generated_Source\PSoC6\pdl\drivers/peripheral/gpio/cy_gpio.h ****     {
 813:Generated_Source\PSoC6\pdl\drivers/peripheral/gpio/cy_gpio.h ****         GPIO_PRT_OUT_CLR(base) = CY_GPIO_OUT_MASK << pinNum;
 814:Generated_Source\PSoC6\pdl\drivers/peripheral/gpio/cy_gpio.h ****     }
 815:Generated_Source\PSoC6\pdl\drivers/peripheral/gpio/cy_gpio.h ****     else
 816:Generated_Source\PSoC6\pdl\drivers/peripheral/gpio/cy_gpio.h ****     {
 817:Generated_Source\PSoC6\pdl\drivers/peripheral/gpio/cy_gpio.h ****         GPIO_PRT_OUT_SET(base) = CY_GPIO_OUT_MASK << pinNum;
  47              		.loc 2 817 0
  48 0008 084C     		ldr	r4, .L3+4
  49 000a 0825     		movs	r5, #8
  50 000c A560     		str	r5, [r4, #8]
  51              	.LVL1:
ARM GAS  C:\Users\haske\AppData\Local\Temp\cckhubq2.s 			page 17


  52              	.LBE52:
  53              	.LBE51:
  54              	.LBB53:
  55              	.LBB54:
  56 000e 084E     		ldr	r6, .L3+8
  57 0010 0427     		movs	r7, #4
  58 0012 B760     		str	r7, [r6, #8]
  59              	.LVL2:
  60              	.LBE54:
  61              	.LBE53:
  45:..\..\PainDrain\PainDrain.cydsn/tens.c ****     
  46:..\..\PainDrain\PainDrain.cydsn/tens.c ****     // Channel 1 Positive Direction
  47:..\..\PainDrain\PainDrain.cydsn/tens.c ****     Cy_GPIO_Write(TENS_USER_EN1_PORT, TENS_USER_EN1_NUM, 1);        
  48:..\..\PainDrain\PainDrain.cydsn/tens.c ****     Cy_GPIO_Write(TENS_POS1_PORT, TENS_POS1_NUM, 1);
  49:..\..\PainDrain\PainDrain.cydsn/tens.c ****     
  50:..\..\PainDrain\PainDrain.cydsn/tens.c ****     CyDelayUs(tens_one_dur_us);
  62              		.loc 1 50 0
  63 0014 074B     		ldr	r3, .L3+12
  64 0016 1888     		ldrh	r0, [r3]
  65 0018 FFF7FEFF 		bl	Cy_SysLib_DelayUs
  66              	.LVL3:
  51:..\..\PainDrain\PainDrain.cydsn/tens.c ****     
  52:..\..\PainDrain\PainDrain.cydsn/tens.c ****     //Off state in between
  53:..\..\PainDrain\PainDrain.cydsn/tens.c ****     DBG_PRINTF("Channel 1 Off state in between \r\n");
  67              		.loc 1 53 0
  68 001c 0648     		ldr	r0, .L3+16
  69 001e FFF7FEFF 		bl	myprintf
  70              	.LVL4:
  71              	.LBB55:
  72              	.LBB56:
 813:Generated_Source\PSoC6\pdl\drivers/peripheral/gpio/cy_gpio.h ****     }
  73              		.loc 2 813 0
  74 0022 7760     		str	r7, [r6, #4]
  75              	.LVL5:
  76              	.LBE56:
  77              	.LBE55:
  78              	.LBB57:
  79              	.LBB58:
  80 0024 6560     		str	r5, [r4, #4]
  81              	.LVL6:
  82 0026 F8BD     		pop	{r3, r4, r5, r6, r7, pc}
  83              	.L4:
  84              		.align	2
  85              	.L3:
  86 0028 00000000 		.word	.LC0
  87 002c 00033240 		.word	1077019392
  88 0030 00053240 		.word	1077019904
  89 0034 00000000 		.word	.LANCHOR0
  90 0038 24000000 		.word	.LC1
  91              	.LBE58:
  92              	.LBE57:
  93              		.cfi_endproc
  94              	.LFE864:
  95              		.size	set_channel_one, .-set_channel_one
  96              		.section	.text.tens_timer,"ax",%progbits
  97              		.align	2
  98              		.global	tens_timer
ARM GAS  C:\Users\haske\AppData\Local\Temp\cckhubq2.s 			page 18


  99              		.thumb
 100              		.thumb_func
 101              		.type	tens_timer, %function
 102              	tens_timer:
 103              	.LFB863:
  31:..\..\PainDrain\PainDrain.cydsn/tens.c ****     if (tens_timeout > 0) {
 104              		.loc 1 31 0
 105              		.cfi_startproc
 106              		@ args = 0, pretend = 0, frame = 0
 107              		@ frame_needed = 0, uses_anonymous_args = 0
  32:..\..\PainDrain\PainDrain.cydsn/tens.c ****         tens_timeout -= TENS_TIMER_INTERVAL_MS;
 108              		.loc 1 32 0
 109 0000 094B     		ldr	r3, .L9
 110 0002 1968     		ldr	r1, [r3]
 111 0004 0029     		cmp	r1, #0
 112 0006 0EDD     		ble	.L8
  31:..\..\PainDrain\PainDrain.cydsn/tens.c ****     if (tens_timeout > 0) {
 113              		.loc 1 31 0
 114 0008 10B5     		push	{r4, lr}
 115              		.cfi_def_cfa_offset 8
 116              		.cfi_offset 4, -8
 117              		.cfi_offset 14, -4
  33:..\..\PainDrain\PainDrain.cydsn/tens.c ****         DBG_PRINTF("tens_timeout: %d \r\n", tens_timeout);
 118              		.loc 1 33 0
 119 000a 0A39     		subs	r1, r1, #10
 120 000c 1C46     		mov	r4, r3
 121 000e 1960     		str	r1, [r3]
  34:..\..\PainDrain\PainDrain.cydsn/tens.c ****         if (tens_timeout < 0) {
 122              		.loc 1 34 0
 123 0010 0648     		ldr	r0, .L9+4
 124 0012 FFF7FEFF 		bl	myprintf
 125              	.LVL7:
  35:..\..\PainDrain\PainDrain.cydsn/tens.c ****             tens_timeout = 0;
 126              		.loc 1 35 0
 127 0016 2368     		ldr	r3, [r4]
 128 0018 002B     		cmp	r3, #0
 129 001a 03DA     		bge	.L5
  36:..\..\PainDrain\PainDrain.cydsn/tens.c ****             tens_full_timeout = tens_timeout;
 130              		.loc 1 36 0
 131 001c 0023     		movs	r3, #0
 132 001e 2360     		str	r3, [r4]
  37:..\..\PainDrain\PainDrain.cydsn/tens.c ****         }
 133              		.loc 1 37 0
 134 0020 034A     		ldr	r2, .L9+8
 135 0022 5360     		str	r3, [r2, #4]
 136              	.L5:
 137 0024 10BD     		pop	{r4, pc}
 138              	.L8:
 139              		.cfi_def_cfa_offset 0
 140              		.cfi_restore 4
 141              		.cfi_restore 14
 142 0026 7047     		bx	lr
 143              	.L10:
 144              		.align	2
 145              	.L9:
 146 0028 00000000 		.word	.LANCHOR1
 147 002c 48000000 		.word	.LC2
ARM GAS  C:\Users\haske\AppData\Local\Temp\cckhubq2.s 			page 19


 148 0030 00000000 		.word	.LANCHOR0
 149              		.cfi_endproc
 150              	.LFE863:
 151              		.size	tens_timer, .-tens_timer
 152              		.section	.text.set_tens_task,"ax",%progbits
 153              		.align	2
 154              		.global	set_tens_task
 155              		.thumb
 156              		.thumb_func
 157              		.type	set_tens_task, %function
 158              	set_tens_task:
 159              	.LFB865:
  54:..\..\PainDrain\PainDrain.cydsn/tens.c ****     
  55:..\..\PainDrain\PainDrain.cydsn/tens.c ****     // Channel 1 Negative Direction
  56:..\..\PainDrain\PainDrain.cydsn/tens.c ****     Cy_GPIO_Write(TENS_POS1_PORT, TENS_POS1_NUM, 0);
  57:..\..\PainDrain\PainDrain.cydsn/tens.c ****     Cy_GPIO_Write(TENS_USER_EN1_PORT, TENS_USER_EN1_NUM, 0);  
  58:..\..\PainDrain\PainDrain.cydsn/tens.c **** }
  59:..\..\PainDrain\PainDrain.cydsn/tens.c **** 
  60:..\..\PainDrain\PainDrain.cydsn/tens.c **** void set_tens_task( void ) {
 160              		.loc 1 60 0
 161              		.cfi_startproc
 162              		@ args = 0, pretend = 0, frame = 0
 163              		@ frame_needed = 0, uses_anonymous_args = 0
 164 0000 70B5     		push	{r4, r5, r6, lr}
 165              		.cfi_def_cfa_offset 16
 166              		.cfi_offset 4, -16
 167              		.cfi_offset 5, -12
 168              		.cfi_offset 6, -8
 169              		.cfi_offset 14, -4
  61:..\..\PainDrain\PainDrain.cydsn/tens.c ****     // Checks if there is a phase delay selected and executes at 50% of the tens_timer for 180 degr
  62:..\..\PainDrain\PainDrain.cydsn/tens.c ****     if(tens_phase_shift > 0 && (tens_timeout == tens_full_timeout/2) && tens_one_dur_us > 0){
 170              		.loc 1 62 0
 171 0002 244B     		ldr	r3, .L18
 172 0004 9A68     		ldr	r2, [r3, #8]
 173 0006 002A     		cmp	r2, #0
 174 0008 0EDD     		ble	.L12
 175              		.loc 1 62 0 is_stmt 0 discriminator 1
 176 000a 5B68     		ldr	r3, [r3, #4]
 177 000c 03EBD373 		add	r3, r3, r3, lsr #31
 178 0010 2149     		ldr	r1, .L18+4
 179 0012 0968     		ldr	r1, [r1]
 180 0014 B1EB630F 		cmp	r1, r3, asr #1
 181 0018 06D1     		bne	.L12
 182              		.loc 1 62 0 discriminator 2
 183 001a 1E4B     		ldr	r3, .L18
 184 001c 1B68     		ldr	r3, [r3]
 185 001e 002B     		cmp	r3, #0
 186 0020 02DD     		ble	.L12
  63:..\..\PainDrain\PainDrain.cydsn/tens.c ****         set_channel_one();
 187              		.loc 1 63 0 is_stmt 1
 188 0022 FFF7FEFF 		bl	set_channel_one
 189              	.LVL8:
 190 0026 0AE0     		b	.L13
 191              	.L12:
  64:..\..\PainDrain\PainDrain.cydsn/tens.c ****     } else if (tens_phase_shift <= 0 && tens_timeout == 0 && tens_one_dur_us > 0){
 192              		.loc 1 64 0
 193 0028 002A     		cmp	r2, #0
ARM GAS  C:\Users\haske\AppData\Local\Temp\cckhubq2.s 			page 20


 194 002a 08DC     		bgt	.L13
 195              		.loc 1 64 0 is_stmt 0 discriminator 1
 196 002c 1A4B     		ldr	r3, .L18+4
 197 002e 1B68     		ldr	r3, [r3]
 198 0030 2BB9     		cbnz	r3, .L13
 199              		.loc 1 64 0 discriminator 2
 200 0032 184B     		ldr	r3, .L18
 201 0034 1B68     		ldr	r3, [r3]
 202 0036 002B     		cmp	r3, #0
 203 0038 01DD     		ble	.L13
  65:..\..\PainDrain\PainDrain.cydsn/tens.c ****         set_channel_one();
 204              		.loc 1 65 0 is_stmt 1
 205 003a FFF7FEFF 		bl	set_channel_one
 206              	.LVL9:
 207              	.L13:
  66:..\..\PainDrain\PainDrain.cydsn/tens.c ****     }
  67:..\..\PainDrain\PainDrain.cydsn/tens.c ****     // Checks if Channel 2 is on, otherwise update the tens_timeout
  68:..\..\PainDrain\PainDrain.cydsn/tens.c ****     if (tens_timeout == 0 && tens_two_dur_us > 0) {
 208              		.loc 1 68 0
 209 003e 164B     		ldr	r3, .L18+4
 210 0040 1B68     		ldr	r3, [r3]
 211 0042 ABB9     		cbnz	r3, .L14
 212              		.loc 1 68 0 is_stmt 0 discriminator 1
 213 0044 134A     		ldr	r2, .L18
 214 0046 D268     		ldr	r2, [r2, #12]
 215 0048 002A     		cmp	r2, #0
 216 004a 11DD     		ble	.L14
  69:..\..\PainDrain\PainDrain.cydsn/tens.c ****         //On positive direction
  70:..\..\PainDrain\PainDrain.cydsn/tens.c ****         DBG_PRINTF("Channel 2 On positive direction \r\n");
 217              		.loc 1 70 0 is_stmt 1
 218 004c 1348     		ldr	r0, .L18+8
 219 004e FFF7FEFF 		bl	myprintf
 220              	.LVL10:
 221              	.LBB59:
 222              	.LBB60:
 223              		.loc 2 817 0
 224 0052 134D     		ldr	r5, .L18+12
 225 0054 8024     		movs	r4, #128
 226 0056 AC60     		str	r4, [r5, #8]
 227              	.LVL11:
 228              	.LBE60:
 229              	.LBE59:
 230              	.LBB61:
 231              	.LBB62:
 232 0058 124E     		ldr	r6, .L18+16
 233 005a B460     		str	r4, [r6, #8]
 234              	.LVL12:
 235              	.LBE62:
 236              	.LBE61:
  71:..\..\PainDrain\PainDrain.cydsn/tens.c ****             
  72:..\..\PainDrain\PainDrain.cydsn/tens.c ****         // Channel 2 Positive Direction
  73:..\..\PainDrain\PainDrain.cydsn/tens.c ****         Cy_GPIO_Write(TENS_USER_EN2_PORT, TENS_USER_EN2_NUM, 1);
  74:..\..\PainDrain\PainDrain.cydsn/tens.c ****         Cy_GPIO_Write(TENS_POS2_PORT, TENS_POS2_NUM, 1);
  75:..\..\PainDrain\PainDrain.cydsn/tens.c ****         
  76:..\..\PainDrain\PainDrain.cydsn/tens.c ****         CyDelayUs(tens_two_dur_us);
 237              		.loc 1 76 0
 238 005c 0D4B     		ldr	r3, .L18
ARM GAS  C:\Users\haske\AppData\Local\Temp\cckhubq2.s 			page 21


 239 005e 9889     		ldrh	r0, [r3, #12]
 240 0060 FFF7FEFF 		bl	Cy_SysLib_DelayUs
 241              	.LVL13:
  77:..\..\PainDrain\PainDrain.cydsn/tens.c ****         
  78:..\..\PainDrain\PainDrain.cydsn/tens.c ****         //Off state in between
  79:..\..\PainDrain\PainDrain.cydsn/tens.c ****         DBG_PRINTF("Channel 2 Off state in between \r\n");
 242              		.loc 1 79 0
 243 0064 1048     		ldr	r0, .L18+20
 244 0066 FFF7FEFF 		bl	myprintf
 245              	.LVL14:
 246              	.LBB63:
 247              	.LBB64:
 813:Generated_Source\PSoC6\pdl\drivers/peripheral/gpio/cy_gpio.h ****     }
 248              		.loc 2 813 0
 249 006a 7460     		str	r4, [r6, #4]
 250              	.LVL15:
 251              	.LBE64:
 252              	.LBE63:
 253              	.LBB65:
 254              	.LBB66:
 255 006c 6C60     		str	r4, [r5, #4]
 256 006e 70BD     		pop	{r4, r5, r6, pc}
 257              	.LVL16:
 258              	.L14:
 259              	.LBE66:
 260              	.LBE65:
  80:..\..\PainDrain\PainDrain.cydsn/tens.c ****         
  81:..\..\PainDrain\PainDrain.cydsn/tens.c ****         // Channel 2 Negative Direction
  82:..\..\PainDrain\PainDrain.cydsn/tens.c ****         Cy_GPIO_Write(TENS_POS2_PORT, TENS_POS2_NUM, 0);
  83:..\..\PainDrain\PainDrain.cydsn/tens.c ****         Cy_GPIO_Write(TENS_USER_EN2_PORT, TENS_USER_EN2_NUM, 0);
  84:..\..\PainDrain\PainDrain.cydsn/tens.c ****     } else if (tens_timeout == 0 && tens_interval_ms > 0 && (tens_one_dur_us > 0 || tens_two_dur_us
 261              		.loc 1 84 0
 262 0070 7BB9     		cbnz	r3, .L11
 263              		.loc 1 84 0 is_stmt 0 discriminator 1
 264 0072 084B     		ldr	r3, .L18
 265 0074 1B69     		ldr	r3, [r3, #16]
 266 0076 002B     		cmp	r3, #0
 267 0078 0BDD     		ble	.L11
 268              		.loc 1 84 0 discriminator 2
 269 007a 064A     		ldr	r2, .L18
 270 007c 1268     		ldr	r2, [r2]
 271 007e 002A     		cmp	r2, #0
 272 0080 03DC     		bgt	.L16
 273              		.loc 1 84 0 discriminator 3
 274 0082 044A     		ldr	r2, .L18
 275 0084 D268     		ldr	r2, [r2, #12]
 276 0086 002A     		cmp	r2, #0
 277 0088 03DD     		ble	.L11
 278              	.L16:
  85:..\..\PainDrain\PainDrain.cydsn/tens.c ****         tens_timeout = tens_interval_ms;
 279              		.loc 1 85 0 is_stmt 1
 280 008a 034A     		ldr	r2, .L18+4
 281 008c 1360     		str	r3, [r2]
  86:..\..\PainDrain\PainDrain.cydsn/tens.c ****         tens_full_timeout = tens_timeout;     
 282              		.loc 1 86 0
 283 008e 014A     		ldr	r2, .L18
 284 0090 5360     		str	r3, [r2, #4]
ARM GAS  C:\Users\haske\AppData\Local\Temp\cckhubq2.s 			page 22


 285              	.L11:
 286 0092 70BD     		pop	{r4, r5, r6, pc}
 287              	.L19:
 288              		.align	2
 289              	.L18:
 290 0094 00000000 		.word	.LANCHOR0
 291 0098 00000000 		.word	.LANCHOR1
 292 009c 5C000000 		.word	.LC3
 293 00a0 80033240 		.word	1077019520
 294 00a4 00063240 		.word	1077020160
 295 00a8 80000000 		.word	.LC4
 296              		.cfi_endproc
 297              	.LFE865:
 298              		.size	set_tens_task, .-set_tens_task
 299              		.global	__aeabi_dmul
 300              		.global	__aeabi_d2iz
 301              		.section	.text.set_tens_freq,"ax",%progbits
 302              		.align	2
 303              		.global	set_tens_freq
 304              		.thumb
 305              		.thumb_func
 306              		.type	set_tens_freq, %function
 307              	set_tens_freq:
 308              	.LFB866:
  87:..\..\PainDrain\PainDrain.cydsn/tens.c ****     }
  88:..\..\PainDrain\PainDrain.cydsn/tens.c **** }
  89:..\..\PainDrain\PainDrain.cydsn/tens.c **** 
  90:..\..\PainDrain\PainDrain.cydsn/tens.c **** void set_tens_freq (double period) {
 309              		.loc 1 90 0
 310              		.cfi_startproc
 311              		@ args = 0, pretend = 0, frame = 0
 312              		@ frame_needed = 0, uses_anonymous_args = 0
 313              	.LVL17:
 314 0000 10B5     		push	{r4, lr}
 315              		.cfi_def_cfa_offset 8
 316              		.cfi_offset 4, -8
 317              		.cfi_offset 14, -4
  91:..\..\PainDrain\PainDrain.cydsn/tens.c ****     
  92:..\..\PainDrain\PainDrain.cydsn/tens.c ****     tens_interval_ms = (int) (period*TENS_INTERVAL_MS);
 318              		.loc 1 92 0
 319 0002 0022     		movs	r2, #0
 320 0004 084B     		ldr	r3, .L23
 321 0006 FFF7FEFF 		bl	__aeabi_dmul
 322              	.LVL18:
 323 000a FFF7FEFF 		bl	__aeabi_d2iz
 324              	.LVL19:
 325 000e 0146     		mov	r1, r0
 326 0010 064C     		ldr	r4, .L23+4
 327 0012 2061     		str	r0, [r4, #16]
  93:..\..\PainDrain\PainDrain.cydsn/tens.c ****     
  94:..\..\PainDrain\PainDrain.cydsn/tens.c ****     DBG_PRINTF("tens_interval_ms: %d \r\n", tens_interval_ms);
 328              		.loc 1 94 0
 329 0014 0648     		ldr	r0, .L23+8
 330 0016 FFF7FEFF 		bl	myprintf
 331              	.LVL20:
  95:..\..\PainDrain\PainDrain.cydsn/tens.c ****     if (tens_interval_ms > 0) {
 332              		.loc 1 95 0
ARM GAS  C:\Users\haske\AppData\Local\Temp\cckhubq2.s 			page 23


 333 001a 2369     		ldr	r3, [r4, #16]
 334 001c 002B     		cmp	r3, #0
 335 001e 02DD     		ble	.L20
  96:..\..\PainDrain\PainDrain.cydsn/tens.c ****         tens_timeout = tens_interval_ms;
 336              		.loc 1 96 0
 337 0020 044A     		ldr	r2, .L23+12
 338 0022 1360     		str	r3, [r2]
  97:..\..\PainDrain\PainDrain.cydsn/tens.c ****         tens_full_timeout = tens_timeout;
 339              		.loc 1 97 0
 340 0024 6360     		str	r3, [r4, #4]
 341              	.L20:
 342 0026 10BD     		pop	{r4, pc}
 343              	.L24:
 344              		.align	2
 345              	.L23:
 346 0028 00005940 		.word	1079574528
 347 002c 00000000 		.word	.LANCHOR0
 348 0030 A4000000 		.word	.LC5
 349 0034 00000000 		.word	.LANCHOR1
 350              		.cfi_endproc
 351              	.LFE866:
 352              		.size	set_tens_freq, .-set_tens_freq
 353              		.section	.text.set_tens_dur,"ax",%progbits
 354              		.align	2
 355              		.global	set_tens_dur
 356              		.thumb
 357              		.thumb_func
 358              		.type	set_tens_dur, %function
 359              	set_tens_dur:
 360              	.LFB867:
  98:..\..\PainDrain\PainDrain.cydsn/tens.c ****     }
  99:..\..\PainDrain\PainDrain.cydsn/tens.c **** }
 100:..\..\PainDrain\PainDrain.cydsn/tens.c **** 
 101:..\..\PainDrain\PainDrain.cydsn/tens.c **** void set_tens_dur(int duration, int32 *tens_dur_us){
 361              		.loc 1 101 0
 362              		.cfi_startproc
 363              		@ args = 0, pretend = 0, frame = 0
 364              		@ frame_needed = 0, uses_anonymous_args = 0
 365              		@ link register save eliminated.
 366              	.LVL21:
 102:..\..\PainDrain\PainDrain.cydsn/tens.c ****     switch (duration) {
 367              		.loc 1 102 0
 368 0000 0138     		subs	r0, r0, #1
 369              	.LVL22:
 370 0002 0928     		cmp	r0, #9
 371 0004 06D8     		bhi	.L26
 372 0006 DFE800F0 		tbb	[pc, r0]
 373              	.L28:
 374 000a 08       		.byte	(.L27-.L28)/2
 375 000b 0B       		.byte	(.L29-.L28)/2
 376 000c 0E       		.byte	(.L30-.L28)/2
 377 000d 12       		.byte	(.L31-.L28)/2
 378 000e 16       		.byte	(.L32-.L28)/2
 379 000f 1A       		.byte	(.L33-.L28)/2
 380 0010 1E       		.byte	(.L34-.L28)/2
 381 0011 22       		.byte	(.L35-.L28)/2
 382 0012 26       		.byte	(.L36-.L28)/2
ARM GAS  C:\Users\haske\AppData\Local\Temp\cckhubq2.s 			page 24


 383 0013 2A       		.byte	(.L37-.L28)/2
 384              		.p2align 1
 385              	.L26:
 103:..\..\PainDrain\PainDrain.cydsn/tens.c ****         default: *tens_dur_us = 0; break;   
 386              		.loc 1 103 0
 387 0014 0023     		movs	r3, #0
 388 0016 0B60     		str	r3, [r1]
 389 0018 7047     		bx	lr
 390              	.L27:
 104:..\..\PainDrain\PainDrain.cydsn/tens.c ****         case 1: *tens_dur_us = 100; break;
 391              		.loc 1 104 0
 392 001a 6423     		movs	r3, #100
 393 001c 0B60     		str	r3, [r1]
 394 001e 7047     		bx	lr
 395              	.L29:
 105:..\..\PainDrain\PainDrain.cydsn/tens.c ****         case 2: *tens_dur_us = 200; break;
 396              		.loc 1 105 0
 397 0020 C823     		movs	r3, #200
 398 0022 0B60     		str	r3, [r1]
 399 0024 7047     		bx	lr
 400              	.L30:
 106:..\..\PainDrain\PainDrain.cydsn/tens.c ****         case 3: *tens_dur_us = 300; break;
 401              		.loc 1 106 0
 402 0026 4FF49673 		mov	r3, #300
 403 002a 0B60     		str	r3, [r1]
 404 002c 7047     		bx	lr
 405              	.L31:
 107:..\..\PainDrain\PainDrain.cydsn/tens.c ****         case 4: *tens_dur_us = 400; break;
 406              		.loc 1 107 0
 407 002e 4FF4C873 		mov	r3, #400
 408 0032 0B60     		str	r3, [r1]
 409 0034 7047     		bx	lr
 410              	.L32:
 108:..\..\PainDrain\PainDrain.cydsn/tens.c ****         case 5: *tens_dur_us = 500; break;
 411              		.loc 1 108 0
 412 0036 4FF4FA73 		mov	r3, #500
 413 003a 0B60     		str	r3, [r1]
 414 003c 7047     		bx	lr
 415              	.L33:
 109:..\..\PainDrain\PainDrain.cydsn/tens.c ****         case 6: *tens_dur_us = 600; break;
 416              		.loc 1 109 0
 417 003e 4FF41673 		mov	r3, #600
 418 0042 0B60     		str	r3, [r1]
 419 0044 7047     		bx	lr
 420              	.L34:
 110:..\..\PainDrain\PainDrain.cydsn/tens.c ****         case 7: *tens_dur_us = 700; break;
 421              		.loc 1 110 0
 422 0046 4FF42F73 		mov	r3, #700
 423 004a 0B60     		str	r3, [r1]
 424 004c 7047     		bx	lr
 425              	.L35:
 111:..\..\PainDrain\PainDrain.cydsn/tens.c ****         case 8: *tens_dur_us = 800; break;
 426              		.loc 1 111 0
 427 004e 4FF44873 		mov	r3, #800
 428 0052 0B60     		str	r3, [r1]
 429 0054 7047     		bx	lr
 430              	.L36:
ARM GAS  C:\Users\haske\AppData\Local\Temp\cckhubq2.s 			page 25


 112:..\..\PainDrain\PainDrain.cydsn/tens.c ****         case 9: *tens_dur_us = 900; break;
 431              		.loc 1 112 0
 432 0056 4FF46173 		mov	r3, #900
 433 005a 0B60     		str	r3, [r1]
 434 005c 7047     		bx	lr
 435              	.L37:
 113:..\..\PainDrain\PainDrain.cydsn/tens.c ****         case 10: *tens_dur_us = 1000; break;
 436              		.loc 1 113 0
 437 005e 4FF47A73 		mov	r3, #1000
 438 0062 0B60     		str	r3, [r1]
 439 0064 7047     		bx	lr
 440              		.cfi_endproc
 441              	.LFE867:
 442              		.size	set_tens_dur, .-set_tens_dur
 443 0066 00BF     		.section	.text.set_tens_amp,"ax",%progbits
 444              		.align	2
 445              		.global	set_tens_amp
 446              		.thumb
 447              		.thumb_func
 448              		.type	set_tens_amp, %function
 449              	set_tens_amp:
 450              	.LFB868:
 114:..\..\PainDrain\PainDrain.cydsn/tens.c ****     }
 115:..\..\PainDrain\PainDrain.cydsn/tens.c **** }
 116:..\..\PainDrain\PainDrain.cydsn/tens.c **** 
 117:..\..\PainDrain\PainDrain.cydsn/tens.c **** void set_tens_amp (int amplitude) {
 451              		.loc 1 117 0
 452              		.cfi_startproc
 453              		@ args = 0, pretend = 0, frame = 0
 454              		@ frame_needed = 0, uses_anonymous_args = 0
 455              	.LVL23:
 456 0000 38B5     		push	{r3, r4, r5, lr}
 457              		.cfi_def_cfa_offset 16
 458              		.cfi_offset 3, -16
 459              		.cfi_offset 4, -12
 460              		.cfi_offset 5, -8
 461              		.cfi_offset 14, -4
 118:..\..\PainDrain\PainDrain.cydsn/tens.c **** 
 119:..\..\PainDrain\PainDrain.cydsn/tens.c ****     if (amplitude == 0) {
 462              		.loc 1 119 0
 463 0002 50B9     		cbnz	r0, .L40
 464              	.LVL24:
 465              	.LBB67:
 466              	.LBB68:
 467              	.LBB69:
 468              		.file 3 "Generated_Source\\PSoC6\\pdl\\drivers/peripheral/tcpwm/cy_tcpwm_pwm.h"
   1:Generated_Source\PSoC6\pdl\drivers/peripheral/tcpwm/cy_tcpwm_pwm.h **** /***************************************************************************//**
   2:Generated_Source\PSoC6\pdl\drivers/peripheral/tcpwm/cy_tcpwm_pwm.h **** * \file cy_tcpwm_pwm.h
   3:Generated_Source\PSoC6\pdl\drivers/peripheral/tcpwm/cy_tcpwm_pwm.h **** * \version 1.10
   4:Generated_Source\PSoC6\pdl\drivers/peripheral/tcpwm/cy_tcpwm_pwm.h **** *
   5:Generated_Source\PSoC6\pdl\drivers/peripheral/tcpwm/cy_tcpwm_pwm.h **** * \brief
   6:Generated_Source\PSoC6\pdl\drivers/peripheral/tcpwm/cy_tcpwm_pwm.h **** * The header file of the TCPWM PWM driver.
   7:Generated_Source\PSoC6\pdl\drivers/peripheral/tcpwm/cy_tcpwm_pwm.h **** *
   8:Generated_Source\PSoC6\pdl\drivers/peripheral/tcpwm/cy_tcpwm_pwm.h **** ********************************************************************************
   9:Generated_Source\PSoC6\pdl\drivers/peripheral/tcpwm/cy_tcpwm_pwm.h **** * \copyright
  10:Generated_Source\PSoC6\pdl\drivers/peripheral/tcpwm/cy_tcpwm_pwm.h **** * Copyright 2016-2018, Cypress Semiconductor Corporation. All rights reserved.
  11:Generated_Source\PSoC6\pdl\drivers/peripheral/tcpwm/cy_tcpwm_pwm.h **** * You may use this file only in accordance with the license, terms, conditions,
ARM GAS  C:\Users\haske\AppData\Local\Temp\cckhubq2.s 			page 26


  12:Generated_Source\PSoC6\pdl\drivers/peripheral/tcpwm/cy_tcpwm_pwm.h **** * disclaimers, and limitations in the end user license agreement accompanying
  13:Generated_Source\PSoC6\pdl\drivers/peripheral/tcpwm/cy_tcpwm_pwm.h **** * the software package with which this file was provided.
  14:Generated_Source\PSoC6\pdl\drivers/peripheral/tcpwm/cy_tcpwm_pwm.h **** *******************************************************************************/
  15:Generated_Source\PSoC6\pdl\drivers/peripheral/tcpwm/cy_tcpwm_pwm.h **** 
  16:Generated_Source\PSoC6\pdl\drivers/peripheral/tcpwm/cy_tcpwm_pwm.h **** #if !defined(CY_TCPWM_PWM_H)
  17:Generated_Source\PSoC6\pdl\drivers/peripheral/tcpwm/cy_tcpwm_pwm.h **** #define CY_TCPWM_PWM_H
  18:Generated_Source\PSoC6\pdl\drivers/peripheral/tcpwm/cy_tcpwm_pwm.h **** 
  19:Generated_Source\PSoC6\pdl\drivers/peripheral/tcpwm/cy_tcpwm_pwm.h **** #include "cy_tcpwm.h"
  20:Generated_Source\PSoC6\pdl\drivers/peripheral/tcpwm/cy_tcpwm_pwm.h **** 
  21:Generated_Source\PSoC6\pdl\drivers/peripheral/tcpwm/cy_tcpwm_pwm.h **** #if defined(__cplusplus)
  22:Generated_Source\PSoC6\pdl\drivers/peripheral/tcpwm/cy_tcpwm_pwm.h **** extern "C" {
  23:Generated_Source\PSoC6\pdl\drivers/peripheral/tcpwm/cy_tcpwm_pwm.h **** #endif
  24:Generated_Source\PSoC6\pdl\drivers/peripheral/tcpwm/cy_tcpwm_pwm.h **** 
  25:Generated_Source\PSoC6\pdl\drivers/peripheral/tcpwm/cy_tcpwm_pwm.h **** /**
  26:Generated_Source\PSoC6\pdl\drivers/peripheral/tcpwm/cy_tcpwm_pwm.h **** * \addtogroup group_tcpwm_pwm
  27:Generated_Source\PSoC6\pdl\drivers/peripheral/tcpwm/cy_tcpwm_pwm.h **** * Driver API for PWM.
  28:Generated_Source\PSoC6\pdl\drivers/peripheral/tcpwm/cy_tcpwm_pwm.h **** *
  29:Generated_Source\PSoC6\pdl\drivers/peripheral/tcpwm/cy_tcpwm_pwm.h **** * The functions and other declarations used in this part of the driver are in cy_tcpwm_pwm.h. 
  30:Generated_Source\PSoC6\pdl\drivers/peripheral/tcpwm/cy_tcpwm_pwm.h **** * You can also include cy_pdl.h (ModusToolbox only) to get access to all  
  31:Generated_Source\PSoC6\pdl\drivers/peripheral/tcpwm/cy_tcpwm_pwm.h **** * functions and declarations in the PDL.
  32:Generated_Source\PSoC6\pdl\drivers/peripheral/tcpwm/cy_tcpwm_pwm.h **** * \{
  33:Generated_Source\PSoC6\pdl\drivers/peripheral/tcpwm/cy_tcpwm_pwm.h **** */
  34:Generated_Source\PSoC6\pdl\drivers/peripheral/tcpwm/cy_tcpwm_pwm.h **** 
  35:Generated_Source\PSoC6\pdl\drivers/peripheral/tcpwm/cy_tcpwm_pwm.h **** /**
  36:Generated_Source\PSoC6\pdl\drivers/peripheral/tcpwm/cy_tcpwm_pwm.h **** * \defgroup group_tcpwm_macros_pwm          Macros
  37:Generated_Source\PSoC6\pdl\drivers/peripheral/tcpwm/cy_tcpwm_pwm.h **** * \defgroup group_tcpwm_functions_pwm       Functions
  38:Generated_Source\PSoC6\pdl\drivers/peripheral/tcpwm/cy_tcpwm_pwm.h **** * \defgroup group_tcpwm_data_structures_pwm Data Structures
  39:Generated_Source\PSoC6\pdl\drivers/peripheral/tcpwm/cy_tcpwm_pwm.h **** * \} */
  40:Generated_Source\PSoC6\pdl\drivers/peripheral/tcpwm/cy_tcpwm_pwm.h **** 
  41:Generated_Source\PSoC6\pdl\drivers/peripheral/tcpwm/cy_tcpwm_pwm.h **** /**
  42:Generated_Source\PSoC6\pdl\drivers/peripheral/tcpwm/cy_tcpwm_pwm.h **** * \addtogroup group_tcpwm_data_structures_pwm
  43:Generated_Source\PSoC6\pdl\drivers/peripheral/tcpwm/cy_tcpwm_pwm.h **** * \{
  44:Generated_Source\PSoC6\pdl\drivers/peripheral/tcpwm/cy_tcpwm_pwm.h **** */
  45:Generated_Source\PSoC6\pdl\drivers/peripheral/tcpwm/cy_tcpwm_pwm.h **** 
  46:Generated_Source\PSoC6\pdl\drivers/peripheral/tcpwm/cy_tcpwm_pwm.h **** /** PWM configuration structure */
  47:Generated_Source\PSoC6\pdl\drivers/peripheral/tcpwm/cy_tcpwm_pwm.h **** typedef struct cy_stc_tcpwm_pwm_config
  48:Generated_Source\PSoC6\pdl\drivers/peripheral/tcpwm/cy_tcpwm_pwm.h **** {
  49:Generated_Source\PSoC6\pdl\drivers/peripheral/tcpwm/cy_tcpwm_pwm.h ****     uint32_t    pwmMode;            /**< Sets the PWM mode. See \ref group_tcpwm_pwm_modes */
  50:Generated_Source\PSoC6\pdl\drivers/peripheral/tcpwm/cy_tcpwm_pwm.h ****     /** Sets the clock prescaler inside the TCWPM block. See \ref group_tcpwm_pwm_clk_prescalers */
  51:Generated_Source\PSoC6\pdl\drivers/peripheral/tcpwm/cy_tcpwm_pwm.h ****     uint32_t     clockPrescaler;
  52:Generated_Source\PSoC6\pdl\drivers/peripheral/tcpwm/cy_tcpwm_pwm.h ****     uint32_t    pwmAlignment;       /**< Sets the PWM alignment. See \ref group_tcpwm_pwm_alignment
  53:Generated_Source\PSoC6\pdl\drivers/peripheral/tcpwm/cy_tcpwm_pwm.h ****     uint32_t    deadTimeClocks;     /**< The number of dead time-clocks if PWM with dead time is ch
  54:Generated_Source\PSoC6\pdl\drivers/peripheral/tcpwm/cy_tcpwm_pwm.h ****     uint32_t    runMode;            /**< Sets the PWM run mode. See \ref group_tcpwm_pwm_run_modes 
  55:Generated_Source\PSoC6\pdl\drivers/peripheral/tcpwm/cy_tcpwm_pwm.h ****     uint32_t    period0;            /**< Sets the period0 of the pwm */
  56:Generated_Source\PSoC6\pdl\drivers/peripheral/tcpwm/cy_tcpwm_pwm.h ****     uint32_t    period1;            /**< Sets the period1 of the pwm */
  57:Generated_Source\PSoC6\pdl\drivers/peripheral/tcpwm/cy_tcpwm_pwm.h ****     bool        enablePeriodSwap;   /**< Enables swapping of period 0 and period 1 on terminal coun
  58:Generated_Source\PSoC6\pdl\drivers/peripheral/tcpwm/cy_tcpwm_pwm.h ****     uint32_t    compare0;           /**< Sets the value for Compare0 */
  59:Generated_Source\PSoC6\pdl\drivers/peripheral/tcpwm/cy_tcpwm_pwm.h ****     uint32_t    compare1;           /**< Sets the value for Compare1 */
  60:Generated_Source\PSoC6\pdl\drivers/peripheral/tcpwm/cy_tcpwm_pwm.h ****     bool        enableCompareSwap;  /**< If enabled, the compare values are swapped on the terminal
  61:Generated_Source\PSoC6\pdl\drivers/peripheral/tcpwm/cy_tcpwm_pwm.h ****     /** Enables an interrupt on the terminal count, capture or compare. See \ref group_tcpwm_interr
  62:Generated_Source\PSoC6\pdl\drivers/peripheral/tcpwm/cy_tcpwm_pwm.h ****     uint32_t    interruptSources;
  63:Generated_Source\PSoC6\pdl\drivers/peripheral/tcpwm/cy_tcpwm_pwm.h ****     uint32_t    invertPWMOut;       /**< Inverts the PWM output */
  64:Generated_Source\PSoC6\pdl\drivers/peripheral/tcpwm/cy_tcpwm_pwm.h ****     uint32_t    invertPWMOutN;      /**< Inverts the PWM_n output */
  65:Generated_Source\PSoC6\pdl\drivers/peripheral/tcpwm/cy_tcpwm_pwm.h ****     uint32_t    killMode;           /**< Configures the PWM kill modes. See \ref group_tcpwm_pwm_ki
  66:Generated_Source\PSoC6\pdl\drivers/peripheral/tcpwm/cy_tcpwm_pwm.h ****     uint32_t    swapInputMode;      /**< Configures how the swap input behaves. See \ref group_tcpw
  67:Generated_Source\PSoC6\pdl\drivers/peripheral/tcpwm/cy_tcpwm_pwm.h ****     /** Selects which input the swap uses. Inputs are device-specific. See \ref group_tcpwm_input_s
  68:Generated_Source\PSoC6\pdl\drivers/peripheral/tcpwm/cy_tcpwm_pwm.h ****     uint32_t    swapInput;
ARM GAS  C:\Users\haske\AppData\Local\Temp\cckhubq2.s 			page 27


  69:Generated_Source\PSoC6\pdl\drivers/peripheral/tcpwm/cy_tcpwm_pwm.h ****     uint32_t    reloadInputMode;    /**< Configures how the reload input behaves. See \ref group_tc
  70:Generated_Source\PSoC6\pdl\drivers/peripheral/tcpwm/cy_tcpwm_pwm.h ****     /** Selects which input the reload uses. The inputs are device-specific. See \ref group_tcpwm_i
  71:Generated_Source\PSoC6\pdl\drivers/peripheral/tcpwm/cy_tcpwm_pwm.h ****     uint32_t    reloadInput;            
  72:Generated_Source\PSoC6\pdl\drivers/peripheral/tcpwm/cy_tcpwm_pwm.h ****     uint32_t    startInputMode;     /**< Configures how the start input behaves. See \ref group_tcp
  73:Generated_Source\PSoC6\pdl\drivers/peripheral/tcpwm/cy_tcpwm_pwm.h ****     /** Selects which input the start uses. The inputs are device-specific. See \ref group_tcpwm_in
  74:Generated_Source\PSoC6\pdl\drivers/peripheral/tcpwm/cy_tcpwm_pwm.h ****     uint32_t    startInput;                
  75:Generated_Source\PSoC6\pdl\drivers/peripheral/tcpwm/cy_tcpwm_pwm.h ****     uint32_t    killInputMode;      /**< Configures how the kill input behaves. See \ref group_tcpw
  76:Generated_Source\PSoC6\pdl\drivers/peripheral/tcpwm/cy_tcpwm_pwm.h ****     /** Selects which input the kill uses. The inputs are device-specific. See \ref group_tcpwm_inp
  77:Generated_Source\PSoC6\pdl\drivers/peripheral/tcpwm/cy_tcpwm_pwm.h ****     uint32_t    killInput;
  78:Generated_Source\PSoC6\pdl\drivers/peripheral/tcpwm/cy_tcpwm_pwm.h ****     uint32_t    countInputMode;     /**< Configures how the count input behaves. See \ref group_tcp
  79:Generated_Source\PSoC6\pdl\drivers/peripheral/tcpwm/cy_tcpwm_pwm.h ****     /** Selects which input the count uses. The inputs are device-specific. See \ref group_tcpwm_in
  80:Generated_Source\PSoC6\pdl\drivers/peripheral/tcpwm/cy_tcpwm_pwm.h ****     uint32_t    countInput;
  81:Generated_Source\PSoC6\pdl\drivers/peripheral/tcpwm/cy_tcpwm_pwm.h **** }cy_stc_tcpwm_pwm_config_t;
  82:Generated_Source\PSoC6\pdl\drivers/peripheral/tcpwm/cy_tcpwm_pwm.h **** /** \} group_tcpwm_data_structures_pwm */
  83:Generated_Source\PSoC6\pdl\drivers/peripheral/tcpwm/cy_tcpwm_pwm.h **** 
  84:Generated_Source\PSoC6\pdl\drivers/peripheral/tcpwm/cy_tcpwm_pwm.h **** /**
  85:Generated_Source\PSoC6\pdl\drivers/peripheral/tcpwm/cy_tcpwm_pwm.h **** * \addtogroup group_tcpwm_macros_pwm
  86:Generated_Source\PSoC6\pdl\drivers/peripheral/tcpwm/cy_tcpwm_pwm.h **** * \{
  87:Generated_Source\PSoC6\pdl\drivers/peripheral/tcpwm/cy_tcpwm_pwm.h **** * \defgroup group_tcpwm_pwm_run_modes PWM run modes
  88:Generated_Source\PSoC6\pdl\drivers/peripheral/tcpwm/cy_tcpwm_pwm.h **** * \{
  89:Generated_Source\PSoC6\pdl\drivers/peripheral/tcpwm/cy_tcpwm_pwm.h **** * Run modes for the pwm timer.
  90:Generated_Source\PSoC6\pdl\drivers/peripheral/tcpwm/cy_tcpwm_pwm.h **** */
  91:Generated_Source\PSoC6\pdl\drivers/peripheral/tcpwm/cy_tcpwm_pwm.h **** #define CY_TCPWM_PWM_ONESHOT            (1U)    /**< Counter runs once and then stops */
  92:Generated_Source\PSoC6\pdl\drivers/peripheral/tcpwm/cy_tcpwm_pwm.h **** #define CY_TCPWM_PWM_CONTINUOUS         (0U)    /**< Counter runs forever */
  93:Generated_Source\PSoC6\pdl\drivers/peripheral/tcpwm/cy_tcpwm_pwm.h **** /** \} group_tcpwm_pwm_run_modes */
  94:Generated_Source\PSoC6\pdl\drivers/peripheral/tcpwm/cy_tcpwm_pwm.h **** 
  95:Generated_Source\PSoC6\pdl\drivers/peripheral/tcpwm/cy_tcpwm_pwm.h **** /** \defgroup group_tcpwm_pwm_modes PWM modes 
  96:Generated_Source\PSoC6\pdl\drivers/peripheral/tcpwm/cy_tcpwm_pwm.h **** * \{
  97:Generated_Source\PSoC6\pdl\drivers/peripheral/tcpwm/cy_tcpwm_pwm.h **** * Sets the PWM modes.
  98:Generated_Source\PSoC6\pdl\drivers/peripheral/tcpwm/cy_tcpwm_pwm.h **** */
  99:Generated_Source\PSoC6\pdl\drivers/peripheral/tcpwm/cy_tcpwm_pwm.h **** #define CY_TCPWM_PWM_MODE_PWM           (4U) /**< Standard PWM Mode*/
 100:Generated_Source\PSoC6\pdl\drivers/peripheral/tcpwm/cy_tcpwm_pwm.h **** #define CY_TCPWM_PWM_MODE_DEADTIME      (5U)    /**< PWM with deadtime mode*/
 101:Generated_Source\PSoC6\pdl\drivers/peripheral/tcpwm/cy_tcpwm_pwm.h **** #define CY_TCPWM_PWM_MODE_PSEUDORANDOM  (6U)    /**< Pseudo Random PWM */
 102:Generated_Source\PSoC6\pdl\drivers/peripheral/tcpwm/cy_tcpwm_pwm.h **** /** \} group_tcpwm_pwm_modes */
 103:Generated_Source\PSoC6\pdl\drivers/peripheral/tcpwm/cy_tcpwm_pwm.h **** 
 104:Generated_Source\PSoC6\pdl\drivers/peripheral/tcpwm/cy_tcpwm_pwm.h **** /** \defgroup group_tcpwm_pwm_alignment PWM Alignment
 105:Generated_Source\PSoC6\pdl\drivers/peripheral/tcpwm/cy_tcpwm_pwm.h **** * Sets the alignment of the PWM.
 106:Generated_Source\PSoC6\pdl\drivers/peripheral/tcpwm/cy_tcpwm_pwm.h **** * \{
 107:Generated_Source\PSoC6\pdl\drivers/peripheral/tcpwm/cy_tcpwm_pwm.h **** */
 108:Generated_Source\PSoC6\pdl\drivers/peripheral/tcpwm/cy_tcpwm_pwm.h **** #define CY_TCPWM_PWM_LEFT_ALIGN         (0U)     /**< PWM is left aligned, meaning it starts high *
 109:Generated_Source\PSoC6\pdl\drivers/peripheral/tcpwm/cy_tcpwm_pwm.h **** #define CY_TCPWM_PWM_RIGHT_ALIGN        (1U)        /**< PWM is right aligned, meaning it starts lo
 110:Generated_Source\PSoC6\pdl\drivers/peripheral/tcpwm/cy_tcpwm_pwm.h **** /** PWM is centered aligned, terminal count only occurs on underflow */
 111:Generated_Source\PSoC6\pdl\drivers/peripheral/tcpwm/cy_tcpwm_pwm.h **** #define CY_TCPWM_PWM_CENTER_ALIGN       (2U)
 112:Generated_Source\PSoC6\pdl\drivers/peripheral/tcpwm/cy_tcpwm_pwm.h **** /** PWM is asymmetrically aligned, terminal count occurs on overflow and underflow */
 113:Generated_Source\PSoC6\pdl\drivers/peripheral/tcpwm/cy_tcpwm_pwm.h **** #define CY_TCPWM_PWM_ASYMMETRIC_ALIGN   (3U)
 114:Generated_Source\PSoC6\pdl\drivers/peripheral/tcpwm/cy_tcpwm_pwm.h **** /** \} group_tcpwm_pwm_alignment */
 115:Generated_Source\PSoC6\pdl\drivers/peripheral/tcpwm/cy_tcpwm_pwm.h **** 
 116:Generated_Source\PSoC6\pdl\drivers/peripheral/tcpwm/cy_tcpwm_pwm.h **** /** \defgroup group_tcpwm_pwm_kill_modes PWM kill modes
 117:Generated_Source\PSoC6\pdl\drivers/peripheral/tcpwm/cy_tcpwm_pwm.h **** * Sets the kill mode for the PWM.
 118:Generated_Source\PSoC6\pdl\drivers/peripheral/tcpwm/cy_tcpwm_pwm.h **** * \{
 119:Generated_Source\PSoC6\pdl\drivers/peripheral/tcpwm/cy_tcpwm_pwm.h **** */
 120:Generated_Source\PSoC6\pdl\drivers/peripheral/tcpwm/cy_tcpwm_pwm.h **** #define CY_TCPWM_PWM_STOP_ON_KILL       (2U)    /**< PWM stops counting on kill */
 121:Generated_Source\PSoC6\pdl\drivers/peripheral/tcpwm/cy_tcpwm_pwm.h **** #define CY_TCPWM_PWM_SYNCH_KILL         (1U)    /**< PWM output is killed after next TC*/
 122:Generated_Source\PSoC6\pdl\drivers/peripheral/tcpwm/cy_tcpwm_pwm.h **** #define CY_TCPWM_PWM_ASYNC_KILL         (0U)    /**< PWM output is killed instantly */
 123:Generated_Source\PSoC6\pdl\drivers/peripheral/tcpwm/cy_tcpwm_pwm.h **** /** \} group_tcpwm_pwm_kill_modes */
 124:Generated_Source\PSoC6\pdl\drivers/peripheral/tcpwm/cy_tcpwm_pwm.h **** 
 125:Generated_Source\PSoC6\pdl\drivers/peripheral/tcpwm/cy_tcpwm_pwm.h **** /** \defgroup group_tcpwm_pwm_clk_prescalers PWM CLK Prescaler values
ARM GAS  C:\Users\haske\AppData\Local\Temp\cckhubq2.s 			page 28


 126:Generated_Source\PSoC6\pdl\drivers/peripheral/tcpwm/cy_tcpwm_pwm.h **** * \{
 127:Generated_Source\PSoC6\pdl\drivers/peripheral/tcpwm/cy_tcpwm_pwm.h **** * Clock prescaler values.
 128:Generated_Source\PSoC6\pdl\drivers/peripheral/tcpwm/cy_tcpwm_pwm.h **** */
 129:Generated_Source\PSoC6\pdl\drivers/peripheral/tcpwm/cy_tcpwm_pwm.h **** #define CY_TCPWM_PWM_PRESCALER_DIVBY_1      (0U) /**< Divide by 1 */
 130:Generated_Source\PSoC6\pdl\drivers/peripheral/tcpwm/cy_tcpwm_pwm.h **** #define CY_TCPWM_PWM_PRESCALER_DIVBY_2      (1U) /**< Divide by 2 */
 131:Generated_Source\PSoC6\pdl\drivers/peripheral/tcpwm/cy_tcpwm_pwm.h **** #define CY_TCPWM_PWM_PRESCALER_DIVBY_4      (2U) /**< Divide by 4 */
 132:Generated_Source\PSoC6\pdl\drivers/peripheral/tcpwm/cy_tcpwm_pwm.h **** #define CY_TCPWM_PWM_PRESCALER_DIVBY_8      (3U) /**< Divide by 8 */
 133:Generated_Source\PSoC6\pdl\drivers/peripheral/tcpwm/cy_tcpwm_pwm.h **** #define CY_TCPWM_PWM_PRESCALER_DIVBY_16     (4U) /**< Divide by 16 */
 134:Generated_Source\PSoC6\pdl\drivers/peripheral/tcpwm/cy_tcpwm_pwm.h **** #define CY_TCPWM_PWM_PRESCALER_DIVBY_32     (5U) /**< Divide by 32 */
 135:Generated_Source\PSoC6\pdl\drivers/peripheral/tcpwm/cy_tcpwm_pwm.h **** #define CY_TCPWM_PWM_PRESCALER_DIVBY_64     (6U) /**< Divide by 64 */
 136:Generated_Source\PSoC6\pdl\drivers/peripheral/tcpwm/cy_tcpwm_pwm.h **** #define CY_TCPWM_PWM_PRESCALER_DIVBY_128    (7U) /**< Divide by 128 */
 137:Generated_Source\PSoC6\pdl\drivers/peripheral/tcpwm/cy_tcpwm_pwm.h **** /** \} group_tcpwm_pwm_clk_prescalers */
 138:Generated_Source\PSoC6\pdl\drivers/peripheral/tcpwm/cy_tcpwm_pwm.h **** 
 139:Generated_Source\PSoC6\pdl\drivers/peripheral/tcpwm/cy_tcpwm_pwm.h **** /** \defgroup group_tcpwm_pwm_output_invert PWM output invert
 140:Generated_Source\PSoC6\pdl\drivers/peripheral/tcpwm/cy_tcpwm_pwm.h **** * \{
 141:Generated_Source\PSoC6\pdl\drivers/peripheral/tcpwm/cy_tcpwm_pwm.h **** * Output invert modes.
 142:Generated_Source\PSoC6\pdl\drivers/peripheral/tcpwm/cy_tcpwm_pwm.h **** */
 143:Generated_Source\PSoC6\pdl\drivers/peripheral/tcpwm/cy_tcpwm_pwm.h **** #define CY_TCPWM_PWM_INVERT_ENABLE          (1U)  /**< Invert the output mode */
 144:Generated_Source\PSoC6\pdl\drivers/peripheral/tcpwm/cy_tcpwm_pwm.h **** #define CY_TCPWM_PWM_INVERT_DISABLE         (0U)  /**< Do not invert the output mode */
 145:Generated_Source\PSoC6\pdl\drivers/peripheral/tcpwm/cy_tcpwm_pwm.h **** /** \} group_tcpwm_pwm_output_invert */
 146:Generated_Source\PSoC6\pdl\drivers/peripheral/tcpwm/cy_tcpwm_pwm.h **** 
 147:Generated_Source\PSoC6\pdl\drivers/peripheral/tcpwm/cy_tcpwm_pwm.h **** /** \defgroup group_tcpwm_pwm_status PWM Status
 148:Generated_Source\PSoC6\pdl\drivers/peripheral/tcpwm/cy_tcpwm_pwm.h **** * \{
 149:Generated_Source\PSoC6\pdl\drivers/peripheral/tcpwm/cy_tcpwm_pwm.h **** * The counter status.
 150:Generated_Source\PSoC6\pdl\drivers/peripheral/tcpwm/cy_tcpwm_pwm.h **** */
 151:Generated_Source\PSoC6\pdl\drivers/peripheral/tcpwm/cy_tcpwm_pwm.h **** #define CY_TCPWM_PWM_STATUS_DOWN_COUNTING   (0x1UL)        /**< PWM is down counting */
 152:Generated_Source\PSoC6\pdl\drivers/peripheral/tcpwm/cy_tcpwm_pwm.h **** #define CY_TCPWM_PWM_STATUS_UP_COUNTING     (0x2UL)        /**< PWM is up counting */
 153:Generated_Source\PSoC6\pdl\drivers/peripheral/tcpwm/cy_tcpwm_pwm.h **** #define CY_TCPWM_PWM_STATUS_COUNTER_RUNNING (TCPWM_CNT_STATUS_RUNNING_Msk)     /**< PWM counter is 
 154:Generated_Source\PSoC6\pdl\drivers/peripheral/tcpwm/cy_tcpwm_pwm.h **** /** \} group_tcpwm_pwm_status */
 155:Generated_Source\PSoC6\pdl\drivers/peripheral/tcpwm/cy_tcpwm_pwm.h **** /** \} group_tcpwm_macros_pwm */
 156:Generated_Source\PSoC6\pdl\drivers/peripheral/tcpwm/cy_tcpwm_pwm.h **** 
 157:Generated_Source\PSoC6\pdl\drivers/peripheral/tcpwm/cy_tcpwm_pwm.h **** 
 158:Generated_Source\PSoC6\pdl\drivers/peripheral/tcpwm/cy_tcpwm_pwm.h **** /***************************************
 159:Generated_Source\PSoC6\pdl\drivers/peripheral/tcpwm/cy_tcpwm_pwm.h **** *        Registers Constants
 160:Generated_Source\PSoC6\pdl\drivers/peripheral/tcpwm/cy_tcpwm_pwm.h **** ***************************************/
 161:Generated_Source\PSoC6\pdl\drivers/peripheral/tcpwm/cy_tcpwm_pwm.h **** 
 162:Generated_Source\PSoC6\pdl\drivers/peripheral/tcpwm/cy_tcpwm_pwm.h **** /** \cond INTERNAL */
 163:Generated_Source\PSoC6\pdl\drivers/peripheral/tcpwm/cy_tcpwm_pwm.h **** #define CY_TCPWM_PWM_CTRL_SYNC_KILL_OR_STOP_ON_KILL_POS  (2U)
 164:Generated_Source\PSoC6\pdl\drivers/peripheral/tcpwm/cy_tcpwm_pwm.h **** #define CY_TCPWM_PWM_CTRL_SYNC_KILL_OR_STOP_ON_KILL_MASK (0x3UL << CY_TCPWM_PWM_CTRL_SYNC_KILL_OR_S
 165:Generated_Source\PSoC6\pdl\drivers/peripheral/tcpwm/cy_tcpwm_pwm.h **** 
 166:Generated_Source\PSoC6\pdl\drivers/peripheral/tcpwm/cy_tcpwm_pwm.h **** #define CY_TCPWM_PWM_TR_CTRL2_SET           (0UL) /**< Set define for PWM output signal configurati
 167:Generated_Source\PSoC6\pdl\drivers/peripheral/tcpwm/cy_tcpwm_pwm.h **** #define CY_TCPWM_PWM_TR_CTRL2_CLEAR         (1UL) /**< Clear define for PWM output signal configura
 168:Generated_Source\PSoC6\pdl\drivers/peripheral/tcpwm/cy_tcpwm_pwm.h **** #define CY_TCPWM_PWM_TR_CTRL2_INVERT        (2UL) /**< Invert define for PWM output signal configur
 169:Generated_Source\PSoC6\pdl\drivers/peripheral/tcpwm/cy_tcpwm_pwm.h **** #define CY_TCPWM_PWM_TR_CTRL2_NO_CHANGE     (3UL) /**< No change define for PWM output signal confi
 170:Generated_Source\PSoC6\pdl\drivers/peripheral/tcpwm/cy_tcpwm_pwm.h **** 
 171:Generated_Source\PSoC6\pdl\drivers/peripheral/tcpwm/cy_tcpwm_pwm.h **** /** The configuration of PWM output signal in Pseudo Random Mode */
 172:Generated_Source\PSoC6\pdl\drivers/peripheral/tcpwm/cy_tcpwm_pwm.h **** #define CY_TCPWM_PWM_MODE_PR         (_VAL2FLD(TCPWM_CNT_TR_CTRL2_CC_MATCH_MODE, CY_TCPWM_PWM_TR_CT
 173:Generated_Source\PSoC6\pdl\drivers/peripheral/tcpwm/cy_tcpwm_pwm.h ****                                       _VAL2FLD(TCPWM_CNT_TR_CTRL2_OVERFLOW_MODE, CY_TCPWM_PWM_TR_CT
 174:Generated_Source\PSoC6\pdl\drivers/peripheral/tcpwm/cy_tcpwm_pwm.h ****                                       _VAL2FLD(TCPWM_CNT_TR_CTRL2_UNDERFLOW_MODE, CY_TCPWM_PWM_TR_C
 175:Generated_Source\PSoC6\pdl\drivers/peripheral/tcpwm/cy_tcpwm_pwm.h **** 
 176:Generated_Source\PSoC6\pdl\drivers/peripheral/tcpwm/cy_tcpwm_pwm.h **** /** The configuration of PWM output signal for Left alignment */
 177:Generated_Source\PSoC6\pdl\drivers/peripheral/tcpwm/cy_tcpwm_pwm.h **** #define CY_TCPWM_PWM_MODE_LEFT       (_VAL2FLD(TCPWM_CNT_TR_CTRL2_CC_MATCH_MODE, CY_TCPWM_PWM_TR_CT
 178:Generated_Source\PSoC6\pdl\drivers/peripheral/tcpwm/cy_tcpwm_pwm.h ****                                       _VAL2FLD(TCPWM_CNT_TR_CTRL2_OVERFLOW_MODE, CY_TCPWM_PWM_TR_CT
 179:Generated_Source\PSoC6\pdl\drivers/peripheral/tcpwm/cy_tcpwm_pwm.h ****                                       _VAL2FLD(TCPWM_CNT_TR_CTRL2_UNDERFLOW_MODE, CY_TCPWM_PWM_TR_C
 180:Generated_Source\PSoC6\pdl\drivers/peripheral/tcpwm/cy_tcpwm_pwm.h **** 
 181:Generated_Source\PSoC6\pdl\drivers/peripheral/tcpwm/cy_tcpwm_pwm.h **** /** The configuration of PWM output signal for Right alignment */
 182:Generated_Source\PSoC6\pdl\drivers/peripheral/tcpwm/cy_tcpwm_pwm.h **** #define CY_TCPWM_PWM_MODE_RIGHT      (_VAL2FLD(TCPWM_CNT_TR_CTRL2_CC_MATCH_MODE, CY_TCPWM_PWM_TR_CT
ARM GAS  C:\Users\haske\AppData\Local\Temp\cckhubq2.s 			page 29


 183:Generated_Source\PSoC6\pdl\drivers/peripheral/tcpwm/cy_tcpwm_pwm.h ****                                       _VAL2FLD(TCPWM_CNT_TR_CTRL2_OVERFLOW_MODE, CY_TCPWM_PWM_TR_CT
 184:Generated_Source\PSoC6\pdl\drivers/peripheral/tcpwm/cy_tcpwm_pwm.h ****                                       _VAL2FLD(TCPWM_CNT_TR_CTRL2_UNDERFLOW_MODE, CY_TCPWM_PWM_TR_C
 185:Generated_Source\PSoC6\pdl\drivers/peripheral/tcpwm/cy_tcpwm_pwm.h **** 
 186:Generated_Source\PSoC6\pdl\drivers/peripheral/tcpwm/cy_tcpwm_pwm.h **** /** The configuration of PWM output signal for Center and Asymmetric alignment */
 187:Generated_Source\PSoC6\pdl\drivers/peripheral/tcpwm/cy_tcpwm_pwm.h **** #define CY_TCPWM_PWM_MODE_CNTR_OR_ASYMM (_VAL2FLD(TCPWM_CNT_TR_CTRL2_CC_MATCH_MODE, CY_TCPWM_PWM_TR
 188:Generated_Source\PSoC6\pdl\drivers/peripheral/tcpwm/cy_tcpwm_pwm.h ****                                          _VAL2FLD(TCPWM_CNT_TR_CTRL2_OVERFLOW_MODE, CY_TCPWM_PWM_TR
 189:Generated_Source\PSoC6\pdl\drivers/peripheral/tcpwm/cy_tcpwm_pwm.h ****                                          _VAL2FLD(TCPWM_CNT_TR_CTRL2_UNDERFLOW_MODE, CY_TCPWM_PWM_T
 190:Generated_Source\PSoC6\pdl\drivers/peripheral/tcpwm/cy_tcpwm_pwm.h **** /** \endcond */
 191:Generated_Source\PSoC6\pdl\drivers/peripheral/tcpwm/cy_tcpwm_pwm.h **** 
 192:Generated_Source\PSoC6\pdl\drivers/peripheral/tcpwm/cy_tcpwm_pwm.h **** 
 193:Generated_Source\PSoC6\pdl\drivers/peripheral/tcpwm/cy_tcpwm_pwm.h **** /*******************************************************************************
 194:Generated_Source\PSoC6\pdl\drivers/peripheral/tcpwm/cy_tcpwm_pwm.h **** *        Function Prototypes
 195:Generated_Source\PSoC6\pdl\drivers/peripheral/tcpwm/cy_tcpwm_pwm.h **** *******************************************************************************/
 196:Generated_Source\PSoC6\pdl\drivers/peripheral/tcpwm/cy_tcpwm_pwm.h **** 
 197:Generated_Source\PSoC6\pdl\drivers/peripheral/tcpwm/cy_tcpwm_pwm.h **** /**
 198:Generated_Source\PSoC6\pdl\drivers/peripheral/tcpwm/cy_tcpwm_pwm.h **** * \addtogroup group_tcpwm_functions_pwm
 199:Generated_Source\PSoC6\pdl\drivers/peripheral/tcpwm/cy_tcpwm_pwm.h **** * \{
 200:Generated_Source\PSoC6\pdl\drivers/peripheral/tcpwm/cy_tcpwm_pwm.h **** */
 201:Generated_Source\PSoC6\pdl\drivers/peripheral/tcpwm/cy_tcpwm_pwm.h **** 
 202:Generated_Source\PSoC6\pdl\drivers/peripheral/tcpwm/cy_tcpwm_pwm.h **** cy_en_tcpwm_status_t Cy_TCPWM_PWM_Init(TCPWM_Type *base, uint32_t cntNum, cy_stc_tcpwm_pwm_config_t
 203:Generated_Source\PSoC6\pdl\drivers/peripheral/tcpwm/cy_tcpwm_pwm.h **** void Cy_TCPWM_PWM_DeInit(TCPWM_Type *base, uint32_t cntNum, cy_stc_tcpwm_pwm_config_t const *config
 204:Generated_Source\PSoC6\pdl\drivers/peripheral/tcpwm/cy_tcpwm_pwm.h **** __STATIC_INLINE void Cy_TCPWM_PWM_Enable(TCPWM_Type *base, uint32_t cntNum);
 205:Generated_Source\PSoC6\pdl\drivers/peripheral/tcpwm/cy_tcpwm_pwm.h **** __STATIC_INLINE void Cy_TCPWM_PWM_Disable(TCPWM_Type *base, uint32_t cntNum);
 206:Generated_Source\PSoC6\pdl\drivers/peripheral/tcpwm/cy_tcpwm_pwm.h **** __STATIC_INLINE uint32_t Cy_TCPWM_PWM_GetStatus(TCPWM_Type const *base, uint32_t cntNum);
 207:Generated_Source\PSoC6\pdl\drivers/peripheral/tcpwm/cy_tcpwm_pwm.h **** __STATIC_INLINE void Cy_TCPWM_PWM_SetCompare0(TCPWM_Type *base, uint32_t cntNum, uint32_t compare0)
 208:Generated_Source\PSoC6\pdl\drivers/peripheral/tcpwm/cy_tcpwm_pwm.h **** __STATIC_INLINE uint32_t Cy_TCPWM_PWM_GetCompare0(TCPWM_Type const *base, uint32_t cntNum);
 209:Generated_Source\PSoC6\pdl\drivers/peripheral/tcpwm/cy_tcpwm_pwm.h **** __STATIC_INLINE void Cy_TCPWM_PWM_SetCompare1(TCPWM_Type *base, uint32_t cntNum, uint32_t compare1)
 210:Generated_Source\PSoC6\pdl\drivers/peripheral/tcpwm/cy_tcpwm_pwm.h **** __STATIC_INLINE uint32_t Cy_TCPWM_PWM_GetCompare1(TCPWM_Type const *base, uint32_t cntNum);
 211:Generated_Source\PSoC6\pdl\drivers/peripheral/tcpwm/cy_tcpwm_pwm.h **** __STATIC_INLINE void Cy_TCPWM_PWM_EnableCompareSwap(TCPWM_Type *base, uint32_t cntNum, bool enable)
 212:Generated_Source\PSoC6\pdl\drivers/peripheral/tcpwm/cy_tcpwm_pwm.h **** __STATIC_INLINE void Cy_TCPWM_PWM_SetCounter(TCPWM_Type *base, uint32_t cntNum, uint32_t count);
 213:Generated_Source\PSoC6\pdl\drivers/peripheral/tcpwm/cy_tcpwm_pwm.h **** __STATIC_INLINE uint32_t Cy_TCPWM_PWM_GetCounter(TCPWM_Type const *base, uint32_t cntNum);
 214:Generated_Source\PSoC6\pdl\drivers/peripheral/tcpwm/cy_tcpwm_pwm.h **** __STATIC_INLINE void Cy_TCPWM_PWM_SetPeriod0(TCPWM_Type *base, uint32_t cntNum, uint32_t period0);
 215:Generated_Source\PSoC6\pdl\drivers/peripheral/tcpwm/cy_tcpwm_pwm.h **** __STATIC_INLINE uint32_t Cy_TCPWM_PWM_GetPeriod0(TCPWM_Type const *base, uint32_t cntNum);
 216:Generated_Source\PSoC6\pdl\drivers/peripheral/tcpwm/cy_tcpwm_pwm.h **** __STATIC_INLINE void Cy_TCPWM_PWM_SetPeriod1(TCPWM_Type *base, uint32_t cntNum, uint32_t period1);
 217:Generated_Source\PSoC6\pdl\drivers/peripheral/tcpwm/cy_tcpwm_pwm.h **** __STATIC_INLINE uint32_t Cy_TCPWM_PWM_GetPeriod1(TCPWM_Type const *base, uint32_t cntNum);
 218:Generated_Source\PSoC6\pdl\drivers/peripheral/tcpwm/cy_tcpwm_pwm.h **** __STATIC_INLINE void Cy_TCPWM_PWM_EnablePeriodSwap(TCPWM_Type *base, uint32_t cntNum, bool enable);
 219:Generated_Source\PSoC6\pdl\drivers/peripheral/tcpwm/cy_tcpwm_pwm.h **** 
 220:Generated_Source\PSoC6\pdl\drivers/peripheral/tcpwm/cy_tcpwm_pwm.h **** 
 221:Generated_Source\PSoC6\pdl\drivers/peripheral/tcpwm/cy_tcpwm_pwm.h **** /*******************************************************************************
 222:Generated_Source\PSoC6\pdl\drivers/peripheral/tcpwm/cy_tcpwm_pwm.h **** * Function Name: Cy_TCPWM_PWM_Enable
 223:Generated_Source\PSoC6\pdl\drivers/peripheral/tcpwm/cy_tcpwm_pwm.h **** ****************************************************************************//**
 224:Generated_Source\PSoC6\pdl\drivers/peripheral/tcpwm/cy_tcpwm_pwm.h **** *
 225:Generated_Source\PSoC6\pdl\drivers/peripheral/tcpwm/cy_tcpwm_pwm.h **** * Enables the counter in the TCPWM block for the PWM operation.
 226:Generated_Source\PSoC6\pdl\drivers/peripheral/tcpwm/cy_tcpwm_pwm.h **** *
 227:Generated_Source\PSoC6\pdl\drivers/peripheral/tcpwm/cy_tcpwm_pwm.h **** * \param base
 228:Generated_Source\PSoC6\pdl\drivers/peripheral/tcpwm/cy_tcpwm_pwm.h **** * The pointer to a TCPWM instance.
 229:Generated_Source\PSoC6\pdl\drivers/peripheral/tcpwm/cy_tcpwm_pwm.h **** *
 230:Generated_Source\PSoC6\pdl\drivers/peripheral/tcpwm/cy_tcpwm_pwm.h **** * \param cntNum 
 231:Generated_Source\PSoC6\pdl\drivers/peripheral/tcpwm/cy_tcpwm_pwm.h **** * The Counter instance number in the selected TCPWM.
 232:Generated_Source\PSoC6\pdl\drivers/peripheral/tcpwm/cy_tcpwm_pwm.h **** *
 233:Generated_Source\PSoC6\pdl\drivers/peripheral/tcpwm/cy_tcpwm_pwm.h **** * \funcusage
 234:Generated_Source\PSoC6\pdl\drivers/peripheral/tcpwm/cy_tcpwm_pwm.h **** * \snippet tcpwm\1.10\pwm\snippet\main.c snippet_Cy_TCPWM_PWM_Init
 235:Generated_Source\PSoC6\pdl\drivers/peripheral/tcpwm/cy_tcpwm_pwm.h **** *
 236:Generated_Source\PSoC6\pdl\drivers/peripheral/tcpwm/cy_tcpwm_pwm.h **** *******************************************************************************/
 237:Generated_Source\PSoC6\pdl\drivers/peripheral/tcpwm/cy_tcpwm_pwm.h **** __STATIC_INLINE void Cy_TCPWM_PWM_Enable(TCPWM_Type *base, uint32_t cntNum)
 238:Generated_Source\PSoC6\pdl\drivers/peripheral/tcpwm/cy_tcpwm_pwm.h **** {
 239:Generated_Source\PSoC6\pdl\drivers/peripheral/tcpwm/cy_tcpwm_pwm.h ****     TCPWM_CTRL_SET(base) = (1UL << cntNum);
ARM GAS  C:\Users\haske\AppData\Local\Temp\cckhubq2.s 			page 30


 240:Generated_Source\PSoC6\pdl\drivers/peripheral/tcpwm/cy_tcpwm_pwm.h **** }
 241:Generated_Source\PSoC6\pdl\drivers/peripheral/tcpwm/cy_tcpwm_pwm.h **** 
 242:Generated_Source\PSoC6\pdl\drivers/peripheral/tcpwm/cy_tcpwm_pwm.h **** /*******************************************************************************
 243:Generated_Source\PSoC6\pdl\drivers/peripheral/tcpwm/cy_tcpwm_pwm.h **** * Function Name: Cy_TCPWM_PWM_Disable
 244:Generated_Source\PSoC6\pdl\drivers/peripheral/tcpwm/cy_tcpwm_pwm.h **** ****************************************************************************//**
 245:Generated_Source\PSoC6\pdl\drivers/peripheral/tcpwm/cy_tcpwm_pwm.h **** *
 246:Generated_Source\PSoC6\pdl\drivers/peripheral/tcpwm/cy_tcpwm_pwm.h **** * Disables the counter in the TCPWM block.
 247:Generated_Source\PSoC6\pdl\drivers/peripheral/tcpwm/cy_tcpwm_pwm.h **** *
 248:Generated_Source\PSoC6\pdl\drivers/peripheral/tcpwm/cy_tcpwm_pwm.h **** * \param base
 249:Generated_Source\PSoC6\pdl\drivers/peripheral/tcpwm/cy_tcpwm_pwm.h **** * The pointer to a TCPWM instance.
 250:Generated_Source\PSoC6\pdl\drivers/peripheral/tcpwm/cy_tcpwm_pwm.h **** *
 251:Generated_Source\PSoC6\pdl\drivers/peripheral/tcpwm/cy_tcpwm_pwm.h **** * \param cntNum 
 252:Generated_Source\PSoC6\pdl\drivers/peripheral/tcpwm/cy_tcpwm_pwm.h **** * The Counter instance number in the selected TCPWM.
 253:Generated_Source\PSoC6\pdl\drivers/peripheral/tcpwm/cy_tcpwm_pwm.h **** *
 254:Generated_Source\PSoC6\pdl\drivers/peripheral/tcpwm/cy_tcpwm_pwm.h **** * \funcusage
 255:Generated_Source\PSoC6\pdl\drivers/peripheral/tcpwm/cy_tcpwm_pwm.h **** * \snippet tcpwm\1.10\pwm\snippet\main.c snippet_Cy_TCPWM_PWM_DeInit
 256:Generated_Source\PSoC6\pdl\drivers/peripheral/tcpwm/cy_tcpwm_pwm.h **** *
 257:Generated_Source\PSoC6\pdl\drivers/peripheral/tcpwm/cy_tcpwm_pwm.h **** *******************************************************************************/
 258:Generated_Source\PSoC6\pdl\drivers/peripheral/tcpwm/cy_tcpwm_pwm.h **** __STATIC_INLINE void Cy_TCPWM_PWM_Disable(TCPWM_Type *base, uint32_t cntNum)
 259:Generated_Source\PSoC6\pdl\drivers/peripheral/tcpwm/cy_tcpwm_pwm.h **** {
 260:Generated_Source\PSoC6\pdl\drivers/peripheral/tcpwm/cy_tcpwm_pwm.h ****     TCPWM_CTRL_CLR(base) = (1UL << cntNum);
 261:Generated_Source\PSoC6\pdl\drivers/peripheral/tcpwm/cy_tcpwm_pwm.h **** }
 262:Generated_Source\PSoC6\pdl\drivers/peripheral/tcpwm/cy_tcpwm_pwm.h **** 
 263:Generated_Source\PSoC6\pdl\drivers/peripheral/tcpwm/cy_tcpwm_pwm.h **** 
 264:Generated_Source\PSoC6\pdl\drivers/peripheral/tcpwm/cy_tcpwm_pwm.h **** /*******************************************************************************
 265:Generated_Source\PSoC6\pdl\drivers/peripheral/tcpwm/cy_tcpwm_pwm.h **** * Function Name: Cy_TCPWM_PWM_GetStatus
 266:Generated_Source\PSoC6\pdl\drivers/peripheral/tcpwm/cy_tcpwm_pwm.h **** ****************************************************************************//**
 267:Generated_Source\PSoC6\pdl\drivers/peripheral/tcpwm/cy_tcpwm_pwm.h **** *
 268:Generated_Source\PSoC6\pdl\drivers/peripheral/tcpwm/cy_tcpwm_pwm.h **** * Returns the status of the PWM.
 269:Generated_Source\PSoC6\pdl\drivers/peripheral/tcpwm/cy_tcpwm_pwm.h **** *
 270:Generated_Source\PSoC6\pdl\drivers/peripheral/tcpwm/cy_tcpwm_pwm.h **** * \param base
 271:Generated_Source\PSoC6\pdl\drivers/peripheral/tcpwm/cy_tcpwm_pwm.h **** * The pointer to a TCPWM instance.
 272:Generated_Source\PSoC6\pdl\drivers/peripheral/tcpwm/cy_tcpwm_pwm.h **** *
 273:Generated_Source\PSoC6\pdl\drivers/peripheral/tcpwm/cy_tcpwm_pwm.h **** * \param cntNum 
 274:Generated_Source\PSoC6\pdl\drivers/peripheral/tcpwm/cy_tcpwm_pwm.h **** * The Counter instance number in the selected TCPWM.
 275:Generated_Source\PSoC6\pdl\drivers/peripheral/tcpwm/cy_tcpwm_pwm.h **** *
 276:Generated_Source\PSoC6\pdl\drivers/peripheral/tcpwm/cy_tcpwm_pwm.h **** * \return
 277:Generated_Source\PSoC6\pdl\drivers/peripheral/tcpwm/cy_tcpwm_pwm.h **** * The status. See \ref group_tcpwm_pwm_status
 278:Generated_Source\PSoC6\pdl\drivers/peripheral/tcpwm/cy_tcpwm_pwm.h **** *
 279:Generated_Source\PSoC6\pdl\drivers/peripheral/tcpwm/cy_tcpwm_pwm.h **** * \funcusage
 280:Generated_Source\PSoC6\pdl\drivers/peripheral/tcpwm/cy_tcpwm_pwm.h **** * \snippet tcpwm\1.10\pwm\snippet\main.c snippet_Cy_TCPWM_PWM_GetStatus
 281:Generated_Source\PSoC6\pdl\drivers/peripheral/tcpwm/cy_tcpwm_pwm.h **** *
 282:Generated_Source\PSoC6\pdl\drivers/peripheral/tcpwm/cy_tcpwm_pwm.h **** *******************************************************************************/
 283:Generated_Source\PSoC6\pdl\drivers/peripheral/tcpwm/cy_tcpwm_pwm.h **** __STATIC_INLINE uint32_t Cy_TCPWM_PWM_GetStatus(TCPWM_Type const *base, uint32_t cntNum)
 284:Generated_Source\PSoC6\pdl\drivers/peripheral/tcpwm/cy_tcpwm_pwm.h **** {
 285:Generated_Source\PSoC6\pdl\drivers/peripheral/tcpwm/cy_tcpwm_pwm.h ****     uint32_t status = TCPWM_CNT_STATUS(base, cntNum);
 286:Generated_Source\PSoC6\pdl\drivers/peripheral/tcpwm/cy_tcpwm_pwm.h ****     
 287:Generated_Source\PSoC6\pdl\drivers/peripheral/tcpwm/cy_tcpwm_pwm.h ****     /* Generates proper up counting status, does not generated by HW */
 288:Generated_Source\PSoC6\pdl\drivers/peripheral/tcpwm/cy_tcpwm_pwm.h ****     status &= ~CY_TCPWM_PWM_STATUS_UP_COUNTING;
 289:Generated_Source\PSoC6\pdl\drivers/peripheral/tcpwm/cy_tcpwm_pwm.h ****     status |= ((~status & CY_TCPWM_PWM_STATUS_DOWN_COUNTING & (status >> TCPWM_CNT_STATUS_RUNNING_P
 290:Generated_Source\PSoC6\pdl\drivers/peripheral/tcpwm/cy_tcpwm_pwm.h ****                CY_TCPWM_CNT_STATUS_UP_POS);
 291:Generated_Source\PSoC6\pdl\drivers/peripheral/tcpwm/cy_tcpwm_pwm.h ****     
 292:Generated_Source\PSoC6\pdl\drivers/peripheral/tcpwm/cy_tcpwm_pwm.h ****     return(status);
 293:Generated_Source\PSoC6\pdl\drivers/peripheral/tcpwm/cy_tcpwm_pwm.h **** }
 294:Generated_Source\PSoC6\pdl\drivers/peripheral/tcpwm/cy_tcpwm_pwm.h **** 
 295:Generated_Source\PSoC6\pdl\drivers/peripheral/tcpwm/cy_tcpwm_pwm.h **** 
 296:Generated_Source\PSoC6\pdl\drivers/peripheral/tcpwm/cy_tcpwm_pwm.h **** /*******************************************************************************
ARM GAS  C:\Users\haske\AppData\Local\Temp\cckhubq2.s 			page 31


 297:Generated_Source\PSoC6\pdl\drivers/peripheral/tcpwm/cy_tcpwm_pwm.h **** * Function Name: Cy_TCPWM_PWM_SetCompare0
 298:Generated_Source\PSoC6\pdl\drivers/peripheral/tcpwm/cy_tcpwm_pwm.h **** ****************************************************************************//**
 299:Generated_Source\PSoC6\pdl\drivers/peripheral/tcpwm/cy_tcpwm_pwm.h **** *
 300:Generated_Source\PSoC6\pdl\drivers/peripheral/tcpwm/cy_tcpwm_pwm.h **** * Sets the compare value for Compare0 when the compare mode enabled.
 301:Generated_Source\PSoC6\pdl\drivers/peripheral/tcpwm/cy_tcpwm_pwm.h **** *
 302:Generated_Source\PSoC6\pdl\drivers/peripheral/tcpwm/cy_tcpwm_pwm.h **** * \param base
 303:Generated_Source\PSoC6\pdl\drivers/peripheral/tcpwm/cy_tcpwm_pwm.h **** * The pointer to a TCPWM instance.
 304:Generated_Source\PSoC6\pdl\drivers/peripheral/tcpwm/cy_tcpwm_pwm.h **** *
 305:Generated_Source\PSoC6\pdl\drivers/peripheral/tcpwm/cy_tcpwm_pwm.h **** * \param cntNum 
 306:Generated_Source\PSoC6\pdl\drivers/peripheral/tcpwm/cy_tcpwm_pwm.h **** * The Counter instance number in the selected TCPWM.
 307:Generated_Source\PSoC6\pdl\drivers/peripheral/tcpwm/cy_tcpwm_pwm.h **** *
 308:Generated_Source\PSoC6\pdl\drivers/peripheral/tcpwm/cy_tcpwm_pwm.h **** * \param compare0
 309:Generated_Source\PSoC6\pdl\drivers/peripheral/tcpwm/cy_tcpwm_pwm.h **** * The Compare0 value.
 310:Generated_Source\PSoC6\pdl\drivers/peripheral/tcpwm/cy_tcpwm_pwm.h **** *
 311:Generated_Source\PSoC6\pdl\drivers/peripheral/tcpwm/cy_tcpwm_pwm.h **** * \funcusage
 312:Generated_Source\PSoC6\pdl\drivers/peripheral/tcpwm/cy_tcpwm_pwm.h **** * \snippet tcpwm\1.10\pwm\snippet\main.c snippet_Cy_TCPWM_PWM_SetCompare0
 313:Generated_Source\PSoC6\pdl\drivers/peripheral/tcpwm/cy_tcpwm_pwm.h **** *
 314:Generated_Source\PSoC6\pdl\drivers/peripheral/tcpwm/cy_tcpwm_pwm.h **** *******************************************************************************/
 315:Generated_Source\PSoC6\pdl\drivers/peripheral/tcpwm/cy_tcpwm_pwm.h **** __STATIC_INLINE void Cy_TCPWM_PWM_SetCompare0(TCPWM_Type *base, uint32_t cntNum,  uint32_t compare0
 316:Generated_Source\PSoC6\pdl\drivers/peripheral/tcpwm/cy_tcpwm_pwm.h **** {
 317:Generated_Source\PSoC6\pdl\drivers/peripheral/tcpwm/cy_tcpwm_pwm.h ****     TCPWM_CNT_CC(base, cntNum) = compare0;
 469              		.loc 3 317 0
 470 0004 164B     		ldr	r3, .L43
 471 0006 0022     		movs	r2, #0
 472 0008 C3F8CC22 		str	r2, [r3, #716]
 473              	.LVL25:
 474              	.LBE69:
 475              	.LBE68:
 476              	.LBE67:
 477              	.LBB70:
 478              	.LBB71:
 479              	.LBB72:
 480 000c C3F80C22 		str	r2, [r3, #524]
 481              	.LVL26:
 482              	.LBE72:
 483              	.LBE71:
 484              	.LBE70:
 120:..\..\PainDrain\PainDrain.cydsn/tens.c ****         PWM_TENS_SetCompare0(0);
 121:..\..\PainDrain\PainDrain.cydsn/tens.c ****         PWM_TENS2_SetCompare0(0);
 122:..\..\PainDrain\PainDrain.cydsn/tens.c ****         //power_flags_update(UI_MENU_TENS_AMP, 0);      
 123:..\..\PainDrain\PainDrain.cydsn/tens.c ****         tens_interval_ms = -1; //Disable timer
 485              		.loc 1 123 0
 486 0010 4FF0FF32 		mov	r2, #-1
 487 0014 134B     		ldr	r3, .L43+4
 488 0016 1A61     		str	r2, [r3, #16]
 489 0018 38BD     		pop	{r3, r4, r5, pc}
 490              	.L40:
 491 001a 0346     		mov	r3, r0
 492              	.LBB73:
 124:..\..\PainDrain\PainDrain.cydsn/tens.c ****         
 125:..\..\PainDrain\PainDrain.cydsn/tens.c ****     } else {           
 126:..\..\PainDrain\PainDrain.cydsn/tens.c ****         // Limiting PWM Value
 127:..\..\PainDrain\PainDrain.cydsn/tens.c ****         int scaled_pwm_value = (amplitude * MAX_TENS_PWM_VALUE) / 100;
 493              		.loc 1 127 0
 494 001c 4FF49C72 		mov	r2, #312
 495 0020 02FB03F3 		mul	r3, r2, r3
 496 0024 104C     		ldr	r4, .L43+8
ARM GAS  C:\Users\haske\AppData\Local\Temp\cckhubq2.s 			page 32


 497 0026 84FB0324 		smull	r2, r4, r4, r3
 498 002a DB17     		asrs	r3, r3, #31
 499 002c C3EB6414 		rsb	r4, r3, r4, asr #5
 500              	.LVL27:
 501              	.LBB74:
 502              	.LBB75:
 503              	.LBB76:
 504              		.loc 3 317 0
 505 0030 0B4D     		ldr	r5, .L43
 506 0032 C5F8CC42 		str	r4, [r5, #716]
 507              	.LVL28:
 508              	.LBE76:
 509              	.LBE75:
 510              	.LBE74:
 511              	.LBB77:
 512              	.LBB78:
 513              	.LBB79:
 318:Generated_Source\PSoC6\pdl\drivers/peripheral/tcpwm/cy_tcpwm_pwm.h **** }
 319:Generated_Source\PSoC6\pdl\drivers/peripheral/tcpwm/cy_tcpwm_pwm.h **** 
 320:Generated_Source\PSoC6\pdl\drivers/peripheral/tcpwm/cy_tcpwm_pwm.h **** 
 321:Generated_Source\PSoC6\pdl\drivers/peripheral/tcpwm/cy_tcpwm_pwm.h **** /*******************************************************************************
 322:Generated_Source\PSoC6\pdl\drivers/peripheral/tcpwm/cy_tcpwm_pwm.h **** * Function Name: Cy_TCPWM_PWM_GetCompare0
 323:Generated_Source\PSoC6\pdl\drivers/peripheral/tcpwm/cy_tcpwm_pwm.h **** ****************************************************************************//**
 324:Generated_Source\PSoC6\pdl\drivers/peripheral/tcpwm/cy_tcpwm_pwm.h **** *
 325:Generated_Source\PSoC6\pdl\drivers/peripheral/tcpwm/cy_tcpwm_pwm.h **** * Returns compare value 0.
 326:Generated_Source\PSoC6\pdl\drivers/peripheral/tcpwm/cy_tcpwm_pwm.h **** *
 327:Generated_Source\PSoC6\pdl\drivers/peripheral/tcpwm/cy_tcpwm_pwm.h **** * \param base
 328:Generated_Source\PSoC6\pdl\drivers/peripheral/tcpwm/cy_tcpwm_pwm.h **** * The pointer to a TCPWM instance.
 329:Generated_Source\PSoC6\pdl\drivers/peripheral/tcpwm/cy_tcpwm_pwm.h **** *
 330:Generated_Source\PSoC6\pdl\drivers/peripheral/tcpwm/cy_tcpwm_pwm.h **** * \param cntNum 
 331:Generated_Source\PSoC6\pdl\drivers/peripheral/tcpwm/cy_tcpwm_pwm.h **** * The Counter instance number in the selected TCPWM.
 332:Generated_Source\PSoC6\pdl\drivers/peripheral/tcpwm/cy_tcpwm_pwm.h **** *
 333:Generated_Source\PSoC6\pdl\drivers/peripheral/tcpwm/cy_tcpwm_pwm.h **** * \return
 334:Generated_Source\PSoC6\pdl\drivers/peripheral/tcpwm/cy_tcpwm_pwm.h **** * Compare value 0.
 335:Generated_Source\PSoC6\pdl\drivers/peripheral/tcpwm/cy_tcpwm_pwm.h **** *
 336:Generated_Source\PSoC6\pdl\drivers/peripheral/tcpwm/cy_tcpwm_pwm.h **** * \funcusage
 337:Generated_Source\PSoC6\pdl\drivers/peripheral/tcpwm/cy_tcpwm_pwm.h **** * \snippet tcpwm\1.10\pwm\snippet\main.c snippet_Cy_TCPWM_PWM_SetCompare0
 338:Generated_Source\PSoC6\pdl\drivers/peripheral/tcpwm/cy_tcpwm_pwm.h **** *
 339:Generated_Source\PSoC6\pdl\drivers/peripheral/tcpwm/cy_tcpwm_pwm.h **** *******************************************************************************/
 340:Generated_Source\PSoC6\pdl\drivers/peripheral/tcpwm/cy_tcpwm_pwm.h **** __STATIC_INLINE uint32_t Cy_TCPWM_PWM_GetCompare0(TCPWM_Type const *base, uint32_t cntNum)
 341:Generated_Source\PSoC6\pdl\drivers/peripheral/tcpwm/cy_tcpwm_pwm.h **** {
 342:Generated_Source\PSoC6\pdl\drivers/peripheral/tcpwm/cy_tcpwm_pwm.h ****     return(TCPWM_CNT_CC(base, cntNum));
 514              		.loc 3 342 0
 515 0036 D5F8CC12 		ldr	r1, [r5, #716]
 516              	.LVL29:
 517              	.LBE79:
 518              	.LBE78:
 519              	.LBE77:
 128:..\..\PainDrain\PainDrain.cydsn/tens.c ****         
 129:..\..\PainDrain\PainDrain.cydsn/tens.c ****         // Set TENS1 and wait before setting TENS2
 130:..\..\PainDrain\PainDrain.cydsn/tens.c ****         PWM_TENS_SetCompare0(scaled_pwm_value);
 131:..\..\PainDrain\PainDrain.cydsn/tens.c ****         DBG_PRINTF("Tens 1 PWM: %d\r\n", PWM_TENS_GetCompare0());
 520              		.loc 1 131 0
 521 003a 0C48     		ldr	r0, .L43+12
 522              	.LVL30:
 523 003c FFF7FEFF 		bl	myprintf
 524              	.LVL31:
ARM GAS  C:\Users\haske\AppData\Local\Temp\cckhubq2.s 			page 33


 132:..\..\PainDrain\PainDrain.cydsn/tens.c ****         CyDelayUs((1000000 / tens_interval_ms) / 2); //Delay of 5-50uS
 525              		.loc 1 132 0
 526 0040 084B     		ldr	r3, .L43+4
 527 0042 1869     		ldr	r0, [r3, #16]
 528 0044 0A4B     		ldr	r3, .L43+16
 529 0046 93FBF0F0 		sdiv	r0, r3, r0
 530 004a 80B2     		uxth	r0, r0
 531 004c FFF7FEFF 		bl	Cy_SysLib_DelayUs
 532              	.LVL32:
 533              	.LBB80:
 534              	.LBB81:
 535              	.LBB82:
 317:Generated_Source\PSoC6\pdl\drivers/peripheral/tcpwm/cy_tcpwm_pwm.h **** }
 536              		.loc 3 317 0
 537 0050 C5F80C42 		str	r4, [r5, #524]
 538              	.LVL33:
 539              	.LBE82:
 540              	.LBE81:
 541              	.LBE80:
 542              	.LBB83:
 543              	.LBB84:
 544              	.LBB85:
 545              		.loc 3 342 0
 546 0054 D5F80C12 		ldr	r1, [r5, #524]
 547              	.LVL34:
 548              	.LBE85:
 549              	.LBE84:
 550              	.LBE83:
 133:..\..\PainDrain\PainDrain.cydsn/tens.c ****         
 134:..\..\PainDrain\PainDrain.cydsn/tens.c ****         // Set TENS2
 135:..\..\PainDrain\PainDrain.cydsn/tens.c ****         PWM_TENS2_SetCompare0(scaled_pwm_value);
 136:..\..\PainDrain\PainDrain.cydsn/tens.c ****         DBG_PRINTF("Tens 2 PWM: %d\r\n", PWM_TENS2_GetCompare0());
 551              		.loc 1 136 0
 552 0058 0648     		ldr	r0, .L43+20
 553 005a FFF7FEFF 		bl	myprintf
 554              	.LVL35:
 555 005e 38BD     		pop	{r3, r4, r5, pc}
 556              	.LVL36:
 557              	.L44:
 558              		.align	2
 559              	.L43:
 560 0060 00003840 		.word	1077411840
 561 0064 00000000 		.word	.LANCHOR0
 562 0068 1F85EB51 		.word	1374389535
 563 006c BC000000 		.word	.LC6
 564 0070 20A10700 		.word	500000
 565 0074 D0000000 		.word	.LC7
 566              	.LBE73:
 567              		.cfi_endproc
 568              	.LFE868:
 569              		.size	set_tens_amp, .-set_tens_amp
 570              		.section	.text.set_tens_signal,"ax",%progbits
 571              		.align	2
 572              		.global	set_tens_signal
 573              		.thumb
 574              		.thumb_func
 575              		.type	set_tens_signal, %function
ARM GAS  C:\Users\haske\AppData\Local\Temp\cckhubq2.s 			page 34


 576              	set_tens_signal:
 577              	.LFB869:
 137:..\..\PainDrain\PainDrain.cydsn/tens.c ****     }   
 138:..\..\PainDrain\PainDrain.cydsn/tens.c **** }
 139:..\..\PainDrain\PainDrain.cydsn/tens.c **** 
 140:..\..\PainDrain\PainDrain.cydsn/tens.c **** // Helper function to make setting a signal easier to channel 1 and 2
 141:..\..\PainDrain\PainDrain.cydsn/tens.c **** void set_tens_signal(int amplitude, double duration, double period, int channel, int phase) {
 578              		.loc 1 141 0
 579              		.cfi_startproc
 580              		@ args = 16, pretend = 0, frame = 0
 581              		@ frame_needed = 0, uses_anonymous_args = 0
 582              	.LVL37:
 583 0000 70B5     		push	{r4, r5, r6, lr}
 584              		.cfi_def_cfa_offset 16
 585              		.cfi_offset 4, -16
 586              		.cfi_offset 5, -12
 587              		.cfi_offset 6, -8
 588              		.cfi_offset 14, -4
 589 0002 0546     		mov	r5, r0
 590 0004 1046     		mov	r0, r2
 591              	.LVL38:
 592 0006 1946     		mov	r1, r3
 593 0008 069C     		ldr	r4, [sp, #24]
 142:..\..\PainDrain\PainDrain.cydsn/tens.c ****     
 143:..\..\PainDrain\PainDrain.cydsn/tens.c ****     int duration_case = (int)(duration*10);
 594              		.loc 1 143 0
 595 000a 0022     		movs	r2, #0
 596              	.LVL39:
 597 000c 1C4B     		ldr	r3, .L51
 598 000e FFF7FEFF 		bl	__aeabi_dmul
 599              	.LVL40:
 600 0012 FFF7FEFF 		bl	__aeabi_d2iz
 601              	.LVL41:
 602 0016 0646     		mov	r6, r0
 603              	.LVL42:
 144:..\..\PainDrain\PainDrain.cydsn/tens.c ****     // Amplitude and Period will be the same for both channels.   
 145:..\..\PainDrain\PainDrain.cydsn/tens.c ****     set_tens_amp(amplitude);
 604              		.loc 1 145 0
 605 0018 2846     		mov	r0, r5
 606              	.LVL43:
 607 001a FFF7FEFF 		bl	set_tens_amp
 608              	.LVL44:
 146:..\..\PainDrain\PainDrain.cydsn/tens.c ****     set_tens_freq(period);
 609              		.loc 1 146 0
 610 001e DDE90401 		ldrd	r0, [sp, #16]
 611 0022 FFF7FEFF 		bl	set_tens_freq
 612              	.LVL45:
 147:..\..\PainDrain\PainDrain.cydsn/tens.c ****     tens_phase_shift = phase;
 613              		.loc 1 147 0
 614 0026 174B     		ldr	r3, .L51+4
 615 0028 079A     		ldr	r2, [sp, #28]
 616 002a 9A60     		str	r2, [r3, #8]
 148:..\..\PainDrain\PainDrain.cydsn/tens.c ****     if(channel == 0){
 617              		.loc 1 148 0
 618 002c 3CB9     		cbnz	r4, .L46
 149:..\..\PainDrain\PainDrain.cydsn/tens.c ****         // Amplitude and Period will be the same for both channels.
 150:..\..\PainDrain\PainDrain.cydsn/tens.c ****         set_tens_amp(amplitude);
ARM GAS  C:\Users\haske\AppData\Local\Temp\cckhubq2.s 			page 35


 619              		.loc 1 150 0
 620 002e 2846     		mov	r0, r5
 621 0030 FFF7FEFF 		bl	set_tens_amp
 622              	.LVL46:
 151:..\..\PainDrain\PainDrain.cydsn/tens.c ****         set_tens_freq(period);
 623              		.loc 1 151 0
 624 0034 DDE90401 		ldrd	r0, [sp, #16]
 625 0038 FFF7FEFF 		bl	set_tens_freq
 626              	.LVL47:
 627 003c 70BD     		pop	{r4, r5, r6, pc}
 628              	.LVL48:
 629              	.L46:
 152:..\..\PainDrain\PainDrain.cydsn/tens.c ****     } else if(channel == 1){
 630              		.loc 1 152 0
 631 003e 012C     		cmp	r4, #1
 632 0040 04D1     		bne	.L48
 153:..\..\PainDrain\PainDrain.cydsn/tens.c ****         set_tens_dur(duration_case, &tens_one_dur_us);
 633              		.loc 1 153 0
 634 0042 1049     		ldr	r1, .L51+4
 635 0044 3046     		mov	r0, r6
 636 0046 FFF7FEFF 		bl	set_tens_dur
 637              	.LVL49:
 638 004a 70BD     		pop	{r4, r5, r6, pc}
 639              	.LVL50:
 640              	.L48:
 154:..\..\PainDrain\PainDrain.cydsn/tens.c ****     } else if(channel == 2){  
 641              		.loc 1 154 0
 642 004c 022C     		cmp	r4, #2
 643 004e 04D1     		bne	.L49
 155:..\..\PainDrain\PainDrain.cydsn/tens.c ****         set_tens_dur(duration_case, &tens_two_dur_us);        
 644              		.loc 1 155 0
 645 0050 0D49     		ldr	r1, .L51+8
 646 0052 3046     		mov	r0, r6
 647 0054 FFF7FEFF 		bl	set_tens_dur
 648              	.LVL51:
 649 0058 70BD     		pop	{r4, r5, r6, pc}
 650              	.LVL52:
 651              	.L49:
 156:..\..\PainDrain\PainDrain.cydsn/tens.c ****     } else {
 157:..\..\PainDrain\PainDrain.cydsn/tens.c ****         // disable the signal
 158:..\..\PainDrain\PainDrain.cydsn/tens.c ****         set_tens_amp(0);
 652              		.loc 1 158 0
 653 005a 0020     		movs	r0, #0
 654 005c FFF7FEFF 		bl	set_tens_amp
 655              	.LVL53:
 159:..\..\PainDrain\PainDrain.cydsn/tens.c ****         set_tens_freq(0);
 656              		.loc 1 159 0
 657 0060 0020     		movs	r0, #0
 658 0062 0021     		movs	r1, #0
 659 0064 FFF7FEFF 		bl	set_tens_freq
 660              	.LVL54:
 160:..\..\PainDrain\PainDrain.cydsn/tens.c ****         set_tens_dur(0, &tens_one_dur_us);
 661              		.loc 1 160 0
 662 0068 064C     		ldr	r4, .L51+4
 663 006a 2146     		mov	r1, r4
 664 006c 0020     		movs	r0, #0
 665 006e FFF7FEFF 		bl	set_tens_dur
ARM GAS  C:\Users\haske\AppData\Local\Temp\cckhubq2.s 			page 36


 666              	.LVL55:
 161:..\..\PainDrain\PainDrain.cydsn/tens.c ****         set_tens_dur(0, &tens_two_dur_us);
 667              		.loc 1 161 0
 668 0072 04F10C01 		add	r1, r4, #12
 669 0076 0020     		movs	r0, #0
 670 0078 FFF7FEFF 		bl	set_tens_dur
 671              	.LVL56:
 672 007c 70BD     		pop	{r4, r5, r6, pc}
 673              	.LVL57:
 674              	.L52:
 675 007e 00BF     		.align	2
 676              	.L51:
 677 0080 00002440 		.word	1076101120
 678 0084 00000000 		.word	.LANCHOR0
 679 0088 0C000000 		.word	.LANCHOR0+12
 680              		.cfi_endproc
 681              	.LFE869:
 682              		.size	set_tens_signal, .-set_tens_signal
 683              		.data
 684              		.align	2
 685              		.set	.LANCHOR1,. + 0
 686              		.type	tens_timeout, %object
 687              		.size	tens_timeout, 4
 688              	tens_timeout:
 689 0000 FFFFFFFF 		.word	-1
 690              		.section	.rodata.str1.4,"aMS",%progbits,1
 691              		.align	2
 692              	.LC0:
 693 0000 4368616E 		.ascii	"Channel 1 On positive direction \015\012\000"
 693      6E656C20 
 693      31204F6E 
 693      20706F73 
 693      69746976 
 694 0023 00       		.space	1
 695              	.LC1:
 696 0024 4368616E 		.ascii	"Channel 1 Off state in between \015\012\000"
 696      6E656C20 
 696      31204F66 
 696      66207374 
 696      61746520 
 697 0046 0000     		.space	2
 698              	.LC2:
 699 0048 74656E73 		.ascii	"tens_timeout: %d \015\012\000"
 699      5F74696D 
 699      656F7574 
 699      3A202564 
 699      200D0A00 
 700              	.LC3:
 701 005c 4368616E 		.ascii	"Channel 2 On positive direction \015\012\000"
 701      6E656C20 
 701      32204F6E 
 701      20706F73 
 701      69746976 
 702 007f 00       		.space	1
 703              	.LC4:
 704 0080 4368616E 		.ascii	"Channel 2 Off state in between \015\012\000"
 704      6E656C20 
ARM GAS  C:\Users\haske\AppData\Local\Temp\cckhubq2.s 			page 37


 704      32204F66 
 704      66207374 
 704      61746520 
 705 00a2 0000     		.space	2
 706              	.LC5:
 707 00a4 74656E73 		.ascii	"tens_interval_ms: %d \015\012\000"
 707      5F696E74 
 707      65727661 
 707      6C5F6D73 
 707      3A202564 
 708              	.LC6:
 709 00bc 54656E73 		.ascii	"Tens 1 PWM: %d\015\012\000"
 709      20312050 
 709      574D3A20 
 709      25640D0A 
 709      00
 710 00cd 000000   		.space	3
 711              	.LC7:
 712 00d0 54656E73 		.ascii	"Tens 2 PWM: %d\015\012\000"
 712      20322050 
 712      574D3A20 
 712      25640D0A 
 712      00
 713              		.bss
 714              		.align	2
 715              		.set	.LANCHOR0,. + 0
 716              		.type	tens_one_dur_us, %object
 717              		.size	tens_one_dur_us, 4
 718              	tens_one_dur_us:
 719 0000 00000000 		.space	4
 720              		.type	tens_full_timeout, %object
 721              		.size	tens_full_timeout, 4
 722              	tens_full_timeout:
 723 0004 00000000 		.space	4
 724              		.type	tens_phase_shift, %object
 725              		.size	tens_phase_shift, 4
 726              	tens_phase_shift:
 727 0008 00000000 		.space	4
 728              		.type	tens_two_dur_us, %object
 729              		.size	tens_two_dur_us, 4
 730              	tens_two_dur_us:
 731 000c 00000000 		.space	4
 732              		.type	tens_interval_ms, %object
 733              		.size	tens_interval_ms, 4
 734              	tens_interval_ms:
 735 0010 00000000 		.space	4
 736              		.text
 737              	.Letext0:
 738              		.file 4 "c:\\program files (x86)\\cypress\\psoc creator\\4.4\\psoc creator\\import\\gnu\\arm\\5.4.
 739              		.file 5 "c:\\program files (x86)\\cypress\\psoc creator\\4.4\\psoc creator\\import\\gnu\\arm\\5.4.
 740              		.file 6 "Generated_Source\\PSoC6\\pdl\\devices/psoc6/include/ip/cyip_gpio.h"
 741              		.file 7 "Generated_Source\\PSoC6\\pdl\\devices/psoc6/include/ip/cyip_tcpwm.h"
 742              		.file 8 "Generated_Source\\PSoC6\\pdl\\devices/psoc6/include/psoc6_01_config.h"
 743              		.file 9 "Generated_Source\\PSoC6\\pdl\\drivers/peripheral/device/cy_device.h"
 744              		.file 10 "Generated_Source\\PSoC6\\pdl\\drivers/peripheral/syslib/cy_syslib.h"
 745              		.file 11 "Generated_Source\\PSoC6\\pdl\\drivers/peripheral/i2s/cy_i2s.h"
 746              		.file 12 "Generated_Source\\PSoC6\\pdl\\drivers/peripheral/sar/cy_sar.h"
ARM GAS  C:\Users\haske\AppData\Local\Temp\cckhubq2.s 			page 38


 747              		.file 13 "Generated_Source\\PSoC6\\pdl\\drivers/peripheral/scb/cy_scb_spi.h"
 748              		.file 14 "Generated_Source\\PSoC6\\pdl\\middleware/ble/cy_ble_stack.h"
 749              		.file 15 "Generated_Source\\PSoC6\\pdl\\middleware/ble/cy_ble_stack_host_main.h"
 750              		.file 16 "Generated_Source\\PSoC6\\pdl\\middleware/ble/cy_ble_gap.h"
 751              		.file 17 "Generated_Source\\PSoC6/ADC.h"
 752              		.file 18 "Generated_Source\\PSoC6/PWM_TENS2.h"
 753              		.file 19 "Generated_Source\\PSoC6/PWM_TENS.h"
 754              		.file 20 "Generated_Source\\PSoC6\\pdl\\cmsis/include/core_cm4.h"
 755              		.file 21 "Generated_Source\\PSoC6/SPI.h"
 756              		.file 22 "Generated_Source\\PSoC6/LCD_PWM.h"
 757              		.file 23 "Generated_Source\\PSoC6/I2S.h"
 758              		.file 24 "Generated_Source\\PSoC6/AMP_PWM.h"
 759              		.file 25 "Generated_Source\\PSoC6/PWM_FAN.h"
 760              		.file 26 "Generated_Source\\PSoC6/PWM_PEL1.h"
 761              		.file 27 "Generated_Source\\PSoC6/PWM_PEL2.h"
 762              		.file 28 "..\\..\\PainDrain\\PainDrain.cydsn\\myprintf.h"