ARM GAS  C:\Users\haske\AppData\Local\Temp\cckhubq2.s 			page 1


   1              		.syntax unified
   2              		.cpu cortex-m4
   3              		.eabi_attribute 27, 1
   4              		.fpu fpv4-sp-d16
   5              		.eabi_attribute 20, 1
   6              		.eabi_attribute 21, 1
   7              		.eabi_attribute 23, 3
   8              		.eabi_attribute 24, 1
   9              		.eabi_attribute 25, 1
  10              		.eabi_attribute 26, 1
  11              		.eabi_attribute 30, 1
  12              		.eabi_attribute 34, 1
  13              		.eabi_attribute 18, 4
  14              		.thumb
  15              		.syntax unified
  16              		.file	"tens.c"
  17              		.text
  18              	.Ltext0:
  19              		.cfi_sections	.debug_frame
  20              		.section	.text.set_channel_one,"ax",%progbits
  21              		.align	2
  22              		.thumb
  23              		.thumb_func
  24              		.type	set_channel_one, %function
  25              	set_channel_one:
  26              	.LFB864:
  27              		.file 1 "..\\..\\PainDrain\\PainDrain.cydsn\\tens.c"
   1:..\..\PainDrain\PainDrain.cydsn/tens.c **** /* ========================================
   2:..\..\PainDrain\PainDrain.cydsn/tens.c ****  *
   3:..\..\PainDrain\PainDrain.cydsn/tens.c ****  * Copyright YOUR COMPANY, THE YEAR
   4:..\..\PainDrain\PainDrain.cydsn/tens.c ****  * All Rights Reserved
   5:..\..\PainDrain\PainDrain.cydsn/tens.c ****  * UNPUBLISHED, LICENSED SOFTWARE.
   6:..\..\PainDrain\PainDrain.cydsn/tens.c ****  *
   7:..\..\PainDrain\PainDrain.cydsn/tens.c ****  * CONFIDENTIAL AND PROPRIETARY INFORMATION
   8:..\..\PainDrain\PainDrain.cydsn/tens.c ****  * WHICH IS THE PROPERTY OF your company.
   9:..\..\PainDrain\PainDrain.cydsn/tens.c ****  *
  10:..\..\PainDrain\PainDrain.cydsn/tens.c ****  * ========================================
  11:..\..\PainDrain\PainDrain.cydsn/tens.c **** */
  12:..\..\PainDrain\PainDrain.cydsn/tens.c **** 
  13:..\..\PainDrain\PainDrain.cydsn/tens.c **** 
  14:..\..\PainDrain\PainDrain.cydsn/tens.c **** #include <project.h>
  15:..\..\PainDrain\PainDrain.cydsn/tens.c **** #include <stdlib.h>
  16:..\..\PainDrain\PainDrain.cydsn/tens.c **** #include "debug.h"
  17:..\..\PainDrain\PainDrain.cydsn/tens.c **** 
  18:..\..\PainDrain\PainDrain.cydsn/tens.c **** #define TENS_TIMER_INTERVAL_MS 10
  19:..\..\PainDrain\PainDrain.cydsn/tens.c **** #define TENS_INTERVAL_MS 100
  20:..\..\PainDrain\PainDrain.cydsn/tens.c **** #define MAX_TENS_PWM_VALUE 312
  21:..\..\PainDrain\PainDrain.cydsn/tens.c **** 
  22:..\..\PainDrain\PainDrain.cydsn/tens.c **** static int32 tens_timeout = -1;
  23:..\..\PainDrain\PainDrain.cydsn/tens.c **** static int32 tens_full_timeout = 0; // Used for Phase Shift 180 Degrees
  24:..\..\PainDrain\PainDrain.cydsn/tens.c **** static int32 tens_interval_ms = 0;
  25:..\..\PainDrain\PainDrain.cydsn/tens.c **** static int32 tens_one_dur_us = 0;
  26:..\..\PainDrain\PainDrain.cydsn/tens.c **** static int32 tens_two_dur_us = 0;
  27:..\..\PainDrain\PainDrain.cydsn/tens.c **** static int32 tens_phase_shift = 0;
  28:..\..\PainDrain\PainDrain.cydsn/tens.c **** 
  29:..\..\PainDrain\PainDrain.cydsn/tens.c **** static void set_channel_one(void);
  30:..\..\PainDrain\PainDrain.cydsn/tens.c **** 
ARM GAS  C:\Users\haske\AppData\Local\Temp\cckhubq2.s 			page 2


  31:..\..\PainDrain\PainDrain.cydsn/tens.c **** void tens_timer(void){
  32:..\..\PainDrain\PainDrain.cydsn/tens.c ****     if (tens_timeout > 0) {
  33:..\..\PainDrain\PainDrain.cydsn/tens.c ****         tens_timeout -= TENS_TIMER_INTERVAL_MS;
  34:..\..\PainDrain\PainDrain.cydsn/tens.c ****         DBG_PRINTF("tens_timeout: %d \r\n", tens_timeout);
  35:..\..\PainDrain\PainDrain.cydsn/tens.c ****         if (tens_timeout < 0) {
  36:..\..\PainDrain\PainDrain.cydsn/tens.c ****             tens_timeout = 0;
  37:..\..\PainDrain\PainDrain.cydsn/tens.c ****             tens_full_timeout = tens_timeout;
  38:..\..\PainDrain\PainDrain.cydsn/tens.c ****         }
  39:..\..\PainDrain\PainDrain.cydsn/tens.c ****     }
  40:..\..\PainDrain\PainDrain.cydsn/tens.c **** }
  41:..\..\PainDrain\PainDrain.cydsn/tens.c **** 
  42:..\..\PainDrain\PainDrain.cydsn/tens.c **** void set_channel_one(void) {
  28              		.loc 1 42 0
  29              		.cfi_startproc
  30              		@ args = 0, pretend = 0, frame = 0
  31              		@ frame_needed = 0, uses_anonymous_args = 0
  32 0000 F8B5     		push	{r3, r4, r5, r6, r7, lr}
  33              		.cfi_def_cfa_offset 24
  34              		.cfi_offset 3, -24
  35              		.cfi_offset 4, -20
  36              		.cfi_offset 5, -16
  37              		.cfi_offset 6, -12
  38              		.cfi_offset 7, -8
  39              		.cfi_offset 14, -4
  43:..\..\PainDrain\PainDrain.cydsn/tens.c ****     //On positive direction
  44:..\..\PainDrain\PainDrain.cydsn/tens.c ****     DBG_PRINTF("Channel 1 On positive direction \r\n");
  40              		.loc 1 44 0
  41 0002 0948     		ldr	r0, .L3
  42 0004 FFF7FEFF 		bl	myprintf
  43              	.LVL0:
  44              	.LBB51:
  45              	.LBB52:
  46              		.file 2 "Generated_Source\\PSoC6\\pdl\\drivers/peripheral/gpio/cy_gpio.h"
   1:Generated_Source\PSoC6\pdl\drivers/peripheral/gpio/cy_gpio.h **** /***************************************************************************//**
   2:Generated_Source\PSoC6\pdl\drivers/peripheral/gpio/cy_gpio.h **** * \file cy_gpio.h
   3:Generated_Source\PSoC6\pdl\drivers/peripheral/gpio/cy_gpio.h **** * \version 1.20
   4:Generated_Source\PSoC6\pdl\drivers/peripheral/gpio/cy_gpio.h **** *
   5:Generated_Source\PSoC6\pdl\drivers/peripheral/gpio/cy_gpio.h **** * Provides an API declaration of the GPIO driver
   6:Generated_Source\PSoC6\pdl\drivers/peripheral/gpio/cy_gpio.h **** *
   7:Generated_Source\PSoC6\pdl\drivers/peripheral/gpio/cy_gpio.h **** ********************************************************************************
   8:Generated_Source\PSoC6\pdl\drivers/peripheral/gpio/cy_gpio.h **** * \copyright
   9:Generated_Source\PSoC6\pdl\drivers/peripheral/gpio/cy_gpio.h **** * Copyright 2016-2018, Cypress Semiconductor Corporation. All rights reserved.
  10:Generated_Source\PSoC6\pdl\drivers/peripheral/gpio/cy_gpio.h **** * You may use this file only in accordance with the license, terms, conditions,
  11:Generated_Source\PSoC6\pdl\drivers/peripheral/gpio/cy_gpio.h **** * disclaimers, and limitations in the end user license agreement accompanying
  12:Generated_Source\PSoC6\pdl\drivers/peripheral/gpio/cy_gpio.h **** * the software package with which this file was provided.
  13:Generated_Source\PSoC6\pdl\drivers/peripheral/gpio/cy_gpio.h **** *******************************************************************************/
  14:Generated_Source\PSoC6\pdl\drivers/peripheral/gpio/cy_gpio.h **** 
  15:Generated_Source\PSoC6\pdl\drivers/peripheral/gpio/cy_gpio.h **** /**
  16:Generated_Source\PSoC6\pdl\drivers/peripheral/gpio/cy_gpio.h **** * \addtogroup group_gpio
  17:Generated_Source\PSoC6\pdl\drivers/peripheral/gpio/cy_gpio.h **** * \{
  18:Generated_Source\PSoC6\pdl\drivers/peripheral/gpio/cy_gpio.h **** * The GPIO driver provides an API to configure and access device Input/Output pins.
  19:Generated_Source\PSoC6\pdl\drivers/peripheral/gpio/cy_gpio.h **** *
  20:Generated_Source\PSoC6\pdl\drivers/peripheral/gpio/cy_gpio.h **** * The functions and other declarations used in this driver are in cy_gpio.h. 
  21:Generated_Source\PSoC6\pdl\drivers/peripheral/gpio/cy_gpio.h **** * You can include cy_pdl.h (ModusToolbox only) to get access to all functions 
  22:Generated_Source\PSoC6\pdl\drivers/peripheral/gpio/cy_gpio.h **** * and declarations in the PDL.
  23:Generated_Source\PSoC6\pdl\drivers/peripheral/gpio/cy_gpio.h **** *
  24:Generated_Source\PSoC6\pdl\drivers/peripheral/gpio/cy_gpio.h **** * IO pins include all general purpose types such as GPIO, SIO, HSIO, AUXIO, and
ARM GAS  C:\Users\haske\AppData\Local\Temp\cckhubq2.s 			page 3


  25:Generated_Source\PSoC6\pdl\drivers/peripheral/gpio/cy_gpio.h **** * their variants.
  26:Generated_Source\PSoC6\pdl\drivers/peripheral/gpio/cy_gpio.h **** *
  27:Generated_Source\PSoC6\pdl\drivers/peripheral/gpio/cy_gpio.h **** * Initialization can be performed either at the port level or by configuring the
  28:Generated_Source\PSoC6\pdl\drivers/peripheral/gpio/cy_gpio.h **** * individual pins. For efficient use of code space, port
  29:Generated_Source\PSoC6\pdl\drivers/peripheral/gpio/cy_gpio.h **** * configuration should be used in the field. Refer to the product device header files 
  30:Generated_Source\PSoC6\pdl\drivers/peripheral/gpio/cy_gpio.h **** * for the list of supported ports and pins.
  31:Generated_Source\PSoC6\pdl\drivers/peripheral/gpio/cy_gpio.h **** * 
  32:Generated_Source\PSoC6\pdl\drivers/peripheral/gpio/cy_gpio.h **** * - Single pin configuration is performed by using \ref Cy_GPIO_Pin_FastInit 
  33:Generated_Source\PSoC6\pdl\drivers/peripheral/gpio/cy_gpio.h **** *   (provide specific values) or \ref Cy_GPIO_Pin_Init (provide a filled
  34:Generated_Source\PSoC6\pdl\drivers/peripheral/gpio/cy_gpio.h **** *   cy_stc_gpio_pin_config_t structure).
  35:Generated_Source\PSoC6\pdl\drivers/peripheral/gpio/cy_gpio.h **** * - An entire port can be configured using \ref Cy_GPIO_Port_Init. Provide a filled 
  36:Generated_Source\PSoC6\pdl\drivers/peripheral/gpio/cy_gpio.h **** *   cy_stc_gpio_prt_config_t structure. The values in the structure are 
  37:Generated_Source\PSoC6\pdl\drivers/peripheral/gpio/cy_gpio.h **** *   bitfields representing the desired value for each pin in the port.
  38:Generated_Source\PSoC6\pdl\drivers/peripheral/gpio/cy_gpio.h **** * - Pin configuration and management is based on the port address and pin number.
  39:Generated_Source\PSoC6\pdl\drivers/peripheral/gpio/cy_gpio.h **** *   \ref Cy_GPIO_PortToAddr function can optionally be used to calculate the port
  40:Generated_Source\PSoC6\pdl\drivers/peripheral/gpio/cy_gpio.h **** *   address from the port number at run-time.
  41:Generated_Source\PSoC6\pdl\drivers/peripheral/gpio/cy_gpio.h **** *
  42:Generated_Source\PSoC6\pdl\drivers/peripheral/gpio/cy_gpio.h **** * Once the pin/port initialization is complete, each pin can be accessed by 
  43:Generated_Source\PSoC6\pdl\drivers/peripheral/gpio/cy_gpio.h **** * specifying the port (GPIO_PRT_Type) and the pin (0-7) in the provided API 
  44:Generated_Source\PSoC6\pdl\drivers/peripheral/gpio/cy_gpio.h **** * functions.
  45:Generated_Source\PSoC6\pdl\drivers/peripheral/gpio/cy_gpio.h **** *
  46:Generated_Source\PSoC6\pdl\drivers/peripheral/gpio/cy_gpio.h **** * \section group_gpio_configuration Configuration Considerations
  47:Generated_Source\PSoC6\pdl\drivers/peripheral/gpio/cy_gpio.h **** *
  48:Generated_Source\PSoC6\pdl\drivers/peripheral/gpio/cy_gpio.h **** * 1. Pin multiplexing is controlled through the High-Speed IO Matrix (HSIOM) selection.
  49:Generated_Source\PSoC6\pdl\drivers/peripheral/gpio/cy_gpio.h **** *    This allows the pin to connect to signal sources/sinks throughout the device,
  50:Generated_Source\PSoC6\pdl\drivers/peripheral/gpio/cy_gpio.h **** *    as defined by the pin HSIOM selection options (en_hsiom_sel_t).
  51:Generated_Source\PSoC6\pdl\drivers/peripheral/gpio/cy_gpio.h **** * 2. All pins are initialized to High-Z drive mode with HSIOM connected to CPU (SW
  52:Generated_Source\PSoC6\pdl\drivers/peripheral/gpio/cy_gpio.h **** *    control digital pin only) at Power-On-Reset(POR).
  53:Generated_Source\PSoC6\pdl\drivers/peripheral/gpio/cy_gpio.h **** * 3. Some API functions perform read-modify-write operations on shared port
  54:Generated_Source\PSoC6\pdl\drivers/peripheral/gpio/cy_gpio.h **** *    registers. These functions are not thread safe and care must be taken when
  55:Generated_Source\PSoC6\pdl\drivers/peripheral/gpio/cy_gpio.h **** *    called by the application.
  56:Generated_Source\PSoC6\pdl\drivers/peripheral/gpio/cy_gpio.h **** * 4. Digital input buffer provides a high-impedance buffer for the external 
  57:Generated_Source\PSoC6\pdl\drivers/peripheral/gpio/cy_gpio.h **** *    digital input. The input buffer is connected to the HSIOM for routing to 
  58:Generated_Source\PSoC6\pdl\drivers/peripheral/gpio/cy_gpio.h **** *    the CPU port registers and selected peripheral. Enabling the input 
  59:Generated_Source\PSoC6\pdl\drivers/peripheral/gpio/cy_gpio.h **** *    buffer provides possibility to read the pin state via the CPU.
  60:Generated_Source\PSoC6\pdl\drivers/peripheral/gpio/cy_gpio.h **** *    If pin is connected to an analog signal, the input buffer should be 
  61:Generated_Source\PSoC6\pdl\drivers/peripheral/gpio/cy_gpio.h **** *    disabled to avoid crowbar currents. For more information refer to device 
  62:Generated_Source\PSoC6\pdl\drivers/peripheral/gpio/cy_gpio.h **** *    TRM and the device datasheet.
  63:Generated_Source\PSoC6\pdl\drivers/peripheral/gpio/cy_gpio.h **** *
  64:Generated_Source\PSoC6\pdl\drivers/peripheral/gpio/cy_gpio.h **** * Multiple pins on a port can be updated using direct port register writes with an
  65:Generated_Source\PSoC6\pdl\drivers/peripheral/gpio/cy_gpio.h **** * appropriate port mask. An example is shown below, highlighting the different ways of 
  66:Generated_Source\PSoC6\pdl\drivers/peripheral/gpio/cy_gpio.h **** * configuring Port 1 pins using:
  67:Generated_Source\PSoC6\pdl\drivers/peripheral/gpio/cy_gpio.h **** * 
  68:Generated_Source\PSoC6\pdl\drivers/peripheral/gpio/cy_gpio.h **** * - Port output data register
  69:Generated_Source\PSoC6\pdl\drivers/peripheral/gpio/cy_gpio.h **** * - Port output data set register
  70:Generated_Source\PSoC6\pdl\drivers/peripheral/gpio/cy_gpio.h **** * - Port output data clear register
  71:Generated_Source\PSoC6\pdl\drivers/peripheral/gpio/cy_gpio.h **** *
  72:Generated_Source\PSoC6\pdl\drivers/peripheral/gpio/cy_gpio.h **** * \snippet gpio/gpio_v1_10_sut_01.cydsn/main_cm4.c Cy_GPIO_Snippet
  73:Generated_Source\PSoC6\pdl\drivers/peripheral/gpio/cy_gpio.h **** *
  74:Generated_Source\PSoC6\pdl\drivers/peripheral/gpio/cy_gpio.h **** * \section group_gpio_more_information More Information
  75:Generated_Source\PSoC6\pdl\drivers/peripheral/gpio/cy_gpio.h **** *
  76:Generated_Source\PSoC6\pdl\drivers/peripheral/gpio/cy_gpio.h **** * Refer to the technical reference manual (TRM) and the device datasheet.
  77:Generated_Source\PSoC6\pdl\drivers/peripheral/gpio/cy_gpio.h **** *
  78:Generated_Source\PSoC6\pdl\drivers/peripheral/gpio/cy_gpio.h **** * \section group_gpio_MISRA MISRA-C Compliance
  79:Generated_Source\PSoC6\pdl\drivers/peripheral/gpio/cy_gpio.h **** * The GPIO driver has the following specific deviations:
  80:Generated_Source\PSoC6\pdl\drivers/peripheral/gpio/cy_gpio.h **** *
  81:Generated_Source\PSoC6\pdl\drivers/peripheral/gpio/cy_gpio.h **** * <table class="doxtable">
ARM GAS  C:\Users\haske\AppData\Local\Temp\cckhubq2.s 			page 4


  82:Generated_Source\PSoC6\pdl\drivers/peripheral/gpio/cy_gpio.h **** *   <tr>
  83:Generated_Source\PSoC6\pdl\drivers/peripheral/gpio/cy_gpio.h **** *     <th>MISRA Rule</th>
  84:Generated_Source\PSoC6\pdl\drivers/peripheral/gpio/cy_gpio.h **** *     <th>Rule Class (Required/Advisory)</th>
  85:Generated_Source\PSoC6\pdl\drivers/peripheral/gpio/cy_gpio.h **** *     <th>Rule Description</th>
  86:Generated_Source\PSoC6\pdl\drivers/peripheral/gpio/cy_gpio.h **** *     <th>Description of Deviation(s)</th>
  87:Generated_Source\PSoC6\pdl\drivers/peripheral/gpio/cy_gpio.h **** *   </tr>
  88:Generated_Source\PSoC6\pdl\drivers/peripheral/gpio/cy_gpio.h **** *   <tr>
  89:Generated_Source\PSoC6\pdl\drivers/peripheral/gpio/cy_gpio.h **** *     <td>11.4</td>
  90:Generated_Source\PSoC6\pdl\drivers/peripheral/gpio/cy_gpio.h **** *     <td>A</td>
  91:Generated_Source\PSoC6\pdl\drivers/peripheral/gpio/cy_gpio.h **** *     <td>A cast should not be performed between a pointer to object type and
  92:Generated_Source\PSoC6\pdl\drivers/peripheral/gpio/cy_gpio.h **** *         a different pointer to object type.</td>
  93:Generated_Source\PSoC6\pdl\drivers/peripheral/gpio/cy_gpio.h **** *     <td> This code is safe because the elements of both GPIO_PRT_V1_Type and GPIO_PRT_V2_Type 
  94:Generated_Source\PSoC6\pdl\drivers/peripheral/gpio/cy_gpio.h **** *          types have identical alignment.</td>
  95:Generated_Source\PSoC6\pdl\drivers/peripheral/gpio/cy_gpio.h **** *   </tr>
  96:Generated_Source\PSoC6\pdl\drivers/peripheral/gpio/cy_gpio.h **** *   <tr>
  97:Generated_Source\PSoC6\pdl\drivers/peripheral/gpio/cy_gpio.h **** *     <td>16.7</td>
  98:Generated_Source\PSoC6\pdl\drivers/peripheral/gpio/cy_gpio.h **** *     <td>A</td>
  99:Generated_Source\PSoC6\pdl\drivers/peripheral/gpio/cy_gpio.h **** *     <td>A pointer parameter in a function prototype should be declared as pointer 
 100:Generated_Source\PSoC6\pdl\drivers/peripheral/gpio/cy_gpio.h **** *         to const if the pointer is not used to modify the addressed object.</td>
 101:Generated_Source\PSoC6\pdl\drivers/peripheral/gpio/cy_gpio.h **** *     <td>The objects pointed to by the base addresses of the GPIO port are not always modified.
 102:Generated_Source\PSoC6\pdl\drivers/peripheral/gpio/cy_gpio.h **** *         While a const qualifier can be used in select scenarios, it brings little benefit
 103:Generated_Source\PSoC6\pdl\drivers/peripheral/gpio/cy_gpio.h **** *         in adding this to the affected functions. </td>
 104:Generated_Source\PSoC6\pdl\drivers/peripheral/gpio/cy_gpio.h **** *   </tr>
 105:Generated_Source\PSoC6\pdl\drivers/peripheral/gpio/cy_gpio.h **** * </table>
 106:Generated_Source\PSoC6\pdl\drivers/peripheral/gpio/cy_gpio.h **** *
 107:Generated_Source\PSoC6\pdl\drivers/peripheral/gpio/cy_gpio.h **** * \section group_gpio_changelog Changelog
 108:Generated_Source\PSoC6\pdl\drivers/peripheral/gpio/cy_gpio.h **** * <table class="doxtable">
 109:Generated_Source\PSoC6\pdl\drivers/peripheral/gpio/cy_gpio.h **** *   <tr><th>Version</th><th>Changes</th><th>Reason for Change</th></tr>
 110:Generated_Source\PSoC6\pdl\drivers/peripheral/gpio/cy_gpio.h **** *   <tr>
 111:Generated_Source\PSoC6\pdl\drivers/peripheral/gpio/cy_gpio.h **** *     <td rowspan="3">1.20</td>
 112:Generated_Source\PSoC6\pdl\drivers/peripheral/gpio/cy_gpio.h **** *     <td>Flattened the organization of the driver source code into the single source directory and
 113:Generated_Source\PSoC6\pdl\drivers/peripheral/gpio/cy_gpio.h **** *     <td>Driver library directory-structure simplification.</td>
 114:Generated_Source\PSoC6\pdl\drivers/peripheral/gpio/cy_gpio.h **** *   </tr>
 115:Generated_Source\PSoC6\pdl\drivers/peripheral/gpio/cy_gpio.h **** *   <tr>
 116:Generated_Source\PSoC6\pdl\drivers/peripheral/gpio/cy_gpio.h **** *     <td>Added the functions for configuring the AMux bus splitter switch cells:
 117:Generated_Source\PSoC6\pdl\drivers/peripheral/gpio/cy_gpio.h **** *     - \ref Cy_GPIO_SetAmuxSplit
 118:Generated_Source\PSoC6\pdl\drivers/peripheral/gpio/cy_gpio.h **** *     - \ref Cy_GPIO_GetAmuxSplit
 119:Generated_Source\PSoC6\pdl\drivers/peripheral/gpio/cy_gpio.h **** *     </td>
 120:Generated_Source\PSoC6\pdl\drivers/peripheral/gpio/cy_gpio.h **** *     <td>Added a new functionality related to AMux bus.</td>
 121:Generated_Source\PSoC6\pdl\drivers/peripheral/gpio/cy_gpio.h **** *   </tr>
 122:Generated_Source\PSoC6\pdl\drivers/peripheral/gpio/cy_gpio.h **** *   <tr>
 123:Generated_Source\PSoC6\pdl\drivers/peripheral/gpio/cy_gpio.h **** *     <td>Added register access layer. Use register access macros instead
 124:Generated_Source\PSoC6\pdl\drivers/peripheral/gpio/cy_gpio.h **** *         of direct register access using dereferenced pointers.</td>
 125:Generated_Source\PSoC6\pdl\drivers/peripheral/gpio/cy_gpio.h **** *     <td>Makes register access device-independent, so that the PDL does 
 126:Generated_Source\PSoC6\pdl\drivers/peripheral/gpio/cy_gpio.h **** *         not need to be recompiled for each supported part number.</td>
 127:Generated_Source\PSoC6\pdl\drivers/peripheral/gpio/cy_gpio.h **** *   </tr>
 128:Generated_Source\PSoC6\pdl\drivers/peripheral/gpio/cy_gpio.h **** *   <tr>
 129:Generated_Source\PSoC6\pdl\drivers/peripheral/gpio/cy_gpio.h **** *     <td>1.10.1</td>
 130:Generated_Source\PSoC6\pdl\drivers/peripheral/gpio/cy_gpio.h **** *     <td>Updated description for the functions: \ref Cy_GPIO_GetInterruptStatus, 
 131:Generated_Source\PSoC6\pdl\drivers/peripheral/gpio/cy_gpio.h **** *         \ref Cy_GPIO_GetInterruptMask, \ref Cy_GPIO_GetInterruptStatusMasked.
 132:Generated_Source\PSoC6\pdl\drivers/peripheral/gpio/cy_gpio.h **** *
 133:Generated_Source\PSoC6\pdl\drivers/peripheral/gpio/cy_gpio.h **** *         Minor documentation edits.
 134:Generated_Source\PSoC6\pdl\drivers/peripheral/gpio/cy_gpio.h **** *     </td>
 135:Generated_Source\PSoC6\pdl\drivers/peripheral/gpio/cy_gpio.h **** *     <td>Documentation update and clarification</td>
 136:Generated_Source\PSoC6\pdl\drivers/peripheral/gpio/cy_gpio.h **** *   </tr>
 137:Generated_Source\PSoC6\pdl\drivers/peripheral/gpio/cy_gpio.h **** *   <tr>
 138:Generated_Source\PSoC6\pdl\drivers/peripheral/gpio/cy_gpio.h **** *     <td>1.10</td>
ARM GAS  C:\Users\haske\AppData\Local\Temp\cckhubq2.s 			page 5


 139:Generated_Source\PSoC6\pdl\drivers/peripheral/gpio/cy_gpio.h **** *     <td>Added input parameter validation to the API functions</td>
 140:Generated_Source\PSoC6\pdl\drivers/peripheral/gpio/cy_gpio.h **** *     <td></td>
 141:Generated_Source\PSoC6\pdl\drivers/peripheral/gpio/cy_gpio.h **** *   </tr>
 142:Generated_Source\PSoC6\pdl\drivers/peripheral/gpio/cy_gpio.h **** *   <tr>
 143:Generated_Source\PSoC6\pdl\drivers/peripheral/gpio/cy_gpio.h **** *     <td>1.0</td>
 144:Generated_Source\PSoC6\pdl\drivers/peripheral/gpio/cy_gpio.h **** *     <td>Initial version</td>
 145:Generated_Source\PSoC6\pdl\drivers/peripheral/gpio/cy_gpio.h **** *     <td></td>
 146:Generated_Source\PSoC6\pdl\drivers/peripheral/gpio/cy_gpio.h **** *   </tr>
 147:Generated_Source\PSoC6\pdl\drivers/peripheral/gpio/cy_gpio.h **** * </table>
 148:Generated_Source\PSoC6\pdl\drivers/peripheral/gpio/cy_gpio.h **** *
 149:Generated_Source\PSoC6\pdl\drivers/peripheral/gpio/cy_gpio.h **** * \defgroup group_gpio_macros Macros
 150:Generated_Source\PSoC6\pdl\drivers/peripheral/gpio/cy_gpio.h **** * \defgroup group_gpio_functions Functions
 151:Generated_Source\PSoC6\pdl\drivers/peripheral/gpio/cy_gpio.h **** * \{
 152:Generated_Source\PSoC6\pdl\drivers/peripheral/gpio/cy_gpio.h **** *   \defgroup group_gpio_functions_init       Initialization Functions
 153:Generated_Source\PSoC6\pdl\drivers/peripheral/gpio/cy_gpio.h **** *   \defgroup group_gpio_functions_gpio       GPIO Functions
 154:Generated_Source\PSoC6\pdl\drivers/peripheral/gpio/cy_gpio.h **** *   \defgroup group_gpio_functions_sio        SIO Functions
 155:Generated_Source\PSoC6\pdl\drivers/peripheral/gpio/cy_gpio.h **** *   \defgroup group_gpio_functions_interrupt  Port Interrupt Functions
 156:Generated_Source\PSoC6\pdl\drivers/peripheral/gpio/cy_gpio.h **** * \}
 157:Generated_Source\PSoC6\pdl\drivers/peripheral/gpio/cy_gpio.h **** * \defgroup group_gpio_data_structures Data Structures
 158:Generated_Source\PSoC6\pdl\drivers/peripheral/gpio/cy_gpio.h **** * \defgroup group_gpio_enums Enumerated Types
 159:Generated_Source\PSoC6\pdl\drivers/peripheral/gpio/cy_gpio.h **** */
 160:Generated_Source\PSoC6\pdl\drivers/peripheral/gpio/cy_gpio.h **** 
 161:Generated_Source\PSoC6\pdl\drivers/peripheral/gpio/cy_gpio.h **** #if !defined(CY_GPIO_H)
 162:Generated_Source\PSoC6\pdl\drivers/peripheral/gpio/cy_gpio.h **** #define CY_GPIO_H
 163:Generated_Source\PSoC6\pdl\drivers/peripheral/gpio/cy_gpio.h **** 
 164:Generated_Source\PSoC6\pdl\drivers/peripheral/gpio/cy_gpio.h **** #include <stddef.h>
 165:Generated_Source\PSoC6\pdl\drivers/peripheral/gpio/cy_gpio.h **** #include "cy_device.h"
 166:Generated_Source\PSoC6\pdl\drivers/peripheral/gpio/cy_gpio.h **** #include "cy_device_headers.h"
 167:Generated_Source\PSoC6\pdl\drivers/peripheral/gpio/cy_gpio.h **** #include "cy_syslib.h"
 168:Generated_Source\PSoC6\pdl\drivers/peripheral/gpio/cy_gpio.h **** 
 169:Generated_Source\PSoC6\pdl\drivers/peripheral/gpio/cy_gpio.h **** #if defined(__cplusplus)
 170:Generated_Source\PSoC6\pdl\drivers/peripheral/gpio/cy_gpio.h **** extern "C" {
 171:Generated_Source\PSoC6\pdl\drivers/peripheral/gpio/cy_gpio.h **** #endif
 172:Generated_Source\PSoC6\pdl\drivers/peripheral/gpio/cy_gpio.h **** 
 173:Generated_Source\PSoC6\pdl\drivers/peripheral/gpio/cy_gpio.h **** /** \addtogroup group_gpio_macros
 174:Generated_Source\PSoC6\pdl\drivers/peripheral/gpio/cy_gpio.h **** * \{
 175:Generated_Source\PSoC6\pdl\drivers/peripheral/gpio/cy_gpio.h **** */
 176:Generated_Source\PSoC6\pdl\drivers/peripheral/gpio/cy_gpio.h **** 
 177:Generated_Source\PSoC6\pdl\drivers/peripheral/gpio/cy_gpio.h **** /** Driver major version */
 178:Generated_Source\PSoC6\pdl\drivers/peripheral/gpio/cy_gpio.h **** #define CY_GPIO_DRV_VERSION_MAJOR       1
 179:Generated_Source\PSoC6\pdl\drivers/peripheral/gpio/cy_gpio.h **** 
 180:Generated_Source\PSoC6\pdl\drivers/peripheral/gpio/cy_gpio.h **** /** Driver minor version */
 181:Generated_Source\PSoC6\pdl\drivers/peripheral/gpio/cy_gpio.h **** #define CY_GPIO_DRV_VERSION_MINOR       20
 182:Generated_Source\PSoC6\pdl\drivers/peripheral/gpio/cy_gpio.h **** 
 183:Generated_Source\PSoC6\pdl\drivers/peripheral/gpio/cy_gpio.h **** /** GPIO driver ID */
 184:Generated_Source\PSoC6\pdl\drivers/peripheral/gpio/cy_gpio.h **** #define CY_GPIO_ID CY_PDL_DRV_ID(0x16U)
 185:Generated_Source\PSoC6\pdl\drivers/peripheral/gpio/cy_gpio.h **** 
 186:Generated_Source\PSoC6\pdl\drivers/peripheral/gpio/cy_gpio.h **** /** \} group_gpio_macros */
 187:Generated_Source\PSoC6\pdl\drivers/peripheral/gpio/cy_gpio.h **** 
 188:Generated_Source\PSoC6\pdl\drivers/peripheral/gpio/cy_gpio.h **** 
 189:Generated_Source\PSoC6\pdl\drivers/peripheral/gpio/cy_gpio.h **** /***************************************
 190:Generated_Source\PSoC6\pdl\drivers/peripheral/gpio/cy_gpio.h **** *       Enumerations
 191:Generated_Source\PSoC6\pdl\drivers/peripheral/gpio/cy_gpio.h **** ***************************************/
 192:Generated_Source\PSoC6\pdl\drivers/peripheral/gpio/cy_gpio.h **** /**
 193:Generated_Source\PSoC6\pdl\drivers/peripheral/gpio/cy_gpio.h **** * \addtogroup group_gpio_enums
 194:Generated_Source\PSoC6\pdl\drivers/peripheral/gpio/cy_gpio.h **** * \{
 195:Generated_Source\PSoC6\pdl\drivers/peripheral/gpio/cy_gpio.h **** */
ARM GAS  C:\Users\haske\AppData\Local\Temp\cckhubq2.s 			page 6


 196:Generated_Source\PSoC6\pdl\drivers/peripheral/gpio/cy_gpio.h **** 
 197:Generated_Source\PSoC6\pdl\drivers/peripheral/gpio/cy_gpio.h **** /** GPIO Driver error codes */
 198:Generated_Source\PSoC6\pdl\drivers/peripheral/gpio/cy_gpio.h **** typedef enum 
 199:Generated_Source\PSoC6\pdl\drivers/peripheral/gpio/cy_gpio.h **** {
 200:Generated_Source\PSoC6\pdl\drivers/peripheral/gpio/cy_gpio.h ****     CY_GPIO_SUCCESS   = 0x00U,                                    /**< Returned successful */
 201:Generated_Source\PSoC6\pdl\drivers/peripheral/gpio/cy_gpio.h ****     CY_GPIO_BAD_PARAM = CY_GPIO_ID | CY_PDL_STATUS_ERROR | 0x01U, /**< Bad parameter was passed */
 202:Generated_Source\PSoC6\pdl\drivers/peripheral/gpio/cy_gpio.h **** } cy_en_gpio_status_t;
 203:Generated_Source\PSoC6\pdl\drivers/peripheral/gpio/cy_gpio.h **** 
 204:Generated_Source\PSoC6\pdl\drivers/peripheral/gpio/cy_gpio.h **** /** AMux switch open/close config */
 205:Generated_Source\PSoC6\pdl\drivers/peripheral/gpio/cy_gpio.h **** typedef enum
 206:Generated_Source\PSoC6\pdl\drivers/peripheral/gpio/cy_gpio.h **** {
 207:Generated_Source\PSoC6\pdl\drivers/peripheral/gpio/cy_gpio.h ****     CY_GPIO_AMUX_OPENALL,   /**< Open ground switch. Open right switch. Open left switch */
 208:Generated_Source\PSoC6\pdl\drivers/peripheral/gpio/cy_gpio.h ****     CY_GPIO_AMUX_L,         /**< Open ground switch. Open right switch. Close left switch */
 209:Generated_Source\PSoC6\pdl\drivers/peripheral/gpio/cy_gpio.h ****     CY_GPIO_AMUX_R,         /**< Open ground switch. Close right switch. Open left switch */
 210:Generated_Source\PSoC6\pdl\drivers/peripheral/gpio/cy_gpio.h ****     CY_GPIO_AMUX_LR,        /**< Open ground switch. Close right switch. Close left switch */
 211:Generated_Source\PSoC6\pdl\drivers/peripheral/gpio/cy_gpio.h ****     CY_GPIO_AMUX_G,         /**< Close ground switch. Open right switch. Open left switch */
 212:Generated_Source\PSoC6\pdl\drivers/peripheral/gpio/cy_gpio.h ****     CY_GPIO_AMUX_GL,        /**< Close ground switch. Open right switch. Close left switch */
 213:Generated_Source\PSoC6\pdl\drivers/peripheral/gpio/cy_gpio.h ****     CY_GPIO_AMUX_GR,        /**< Close ground switch. Close right switch. Open left switch */
 214:Generated_Source\PSoC6\pdl\drivers/peripheral/gpio/cy_gpio.h ****     CY_GPIO_AMUX_GLR,       /**< Close ground switch. Close right switch. Close left switch */
 215:Generated_Source\PSoC6\pdl\drivers/peripheral/gpio/cy_gpio.h **** }cy_en_gpio_amuxconnect_t;
 216:Generated_Source\PSoC6\pdl\drivers/peripheral/gpio/cy_gpio.h **** 
 217:Generated_Source\PSoC6\pdl\drivers/peripheral/gpio/cy_gpio.h **** /**
 218:Generated_Source\PSoC6\pdl\drivers/peripheral/gpio/cy_gpio.h **** * AMux Bus selection
 219:Generated_Source\PSoC6\pdl\drivers/peripheral/gpio/cy_gpio.h **** */
 220:Generated_Source\PSoC6\pdl\drivers/peripheral/gpio/cy_gpio.h **** typedef enum
 221:Generated_Source\PSoC6\pdl\drivers/peripheral/gpio/cy_gpio.h **** {
 222:Generated_Source\PSoC6\pdl\drivers/peripheral/gpio/cy_gpio.h ****     CY_GPIO_AMUXBUSA,       /**< AMuxBus A */
 223:Generated_Source\PSoC6\pdl\drivers/peripheral/gpio/cy_gpio.h ****     CY_GPIO_AMUXBUSB        /**< AMuxBus B */
 224:Generated_Source\PSoC6\pdl\drivers/peripheral/gpio/cy_gpio.h **** }cy_en_gpio_amuxselect_t;
 225:Generated_Source\PSoC6\pdl\drivers/peripheral/gpio/cy_gpio.h **** 
 226:Generated_Source\PSoC6\pdl\drivers/peripheral/gpio/cy_gpio.h **** /** \} group_gpio_enums */
 227:Generated_Source\PSoC6\pdl\drivers/peripheral/gpio/cy_gpio.h **** 
 228:Generated_Source\PSoC6\pdl\drivers/peripheral/gpio/cy_gpio.h **** 
 229:Generated_Source\PSoC6\pdl\drivers/peripheral/gpio/cy_gpio.h **** /***************************************
 230:Generated_Source\PSoC6\pdl\drivers/peripheral/gpio/cy_gpio.h **** *       Configuration Structures
 231:Generated_Source\PSoC6\pdl\drivers/peripheral/gpio/cy_gpio.h **** ***************************************/
 232:Generated_Source\PSoC6\pdl\drivers/peripheral/gpio/cy_gpio.h **** 
 233:Generated_Source\PSoC6\pdl\drivers/peripheral/gpio/cy_gpio.h **** /**
 234:Generated_Source\PSoC6\pdl\drivers/peripheral/gpio/cy_gpio.h **** * \addtogroup group_gpio_data_structures
 235:Generated_Source\PSoC6\pdl\drivers/peripheral/gpio/cy_gpio.h **** * \{
 236:Generated_Source\PSoC6\pdl\drivers/peripheral/gpio/cy_gpio.h **** */
 237:Generated_Source\PSoC6\pdl\drivers/peripheral/gpio/cy_gpio.h **** 
 238:Generated_Source\PSoC6\pdl\drivers/peripheral/gpio/cy_gpio.h **** /** This structure is used to initialize a port of GPIO pins */
 239:Generated_Source\PSoC6\pdl\drivers/peripheral/gpio/cy_gpio.h **** typedef struct 
 240:Generated_Source\PSoC6\pdl\drivers/peripheral/gpio/cy_gpio.h **** {
 241:Generated_Source\PSoC6\pdl\drivers/peripheral/gpio/cy_gpio.h ****     uint32_t out;           /**< Initial output data for the IO pins in the port */
 242:Generated_Source\PSoC6\pdl\drivers/peripheral/gpio/cy_gpio.h ****     uint32_t intrMask;      /**< Interrupt enable mask for the port interrupt */
 243:Generated_Source\PSoC6\pdl\drivers/peripheral/gpio/cy_gpio.h ****     uint32_t intrCfg;       /**< Port pin interrupt edge detection configuration */
 244:Generated_Source\PSoC6\pdl\drivers/peripheral/gpio/cy_gpio.h ****     uint32_t cfg;           /**< Port pin drive modes and input buffer enable configuration */
 245:Generated_Source\PSoC6\pdl\drivers/peripheral/gpio/cy_gpio.h ****     uint32_t cfgIn;         /**< Port pin input buffer configuration */
 246:Generated_Source\PSoC6\pdl\drivers/peripheral/gpio/cy_gpio.h ****     uint32_t cfgOut;        /**< Port pin output buffer configuration */
 247:Generated_Source\PSoC6\pdl\drivers/peripheral/gpio/cy_gpio.h ****     uint32_t cfgSIO;        /**< Port SIO pins configuration */
 248:Generated_Source\PSoC6\pdl\drivers/peripheral/gpio/cy_gpio.h ****     uint32_t sel0Active;    /**< HSIOM selection for port pins 0,1,2,3 */
 249:Generated_Source\PSoC6\pdl\drivers/peripheral/gpio/cy_gpio.h ****     uint32_t sel1Active;    /**< HSIOM selection for port pins 4,5,6,7 */
 250:Generated_Source\PSoC6\pdl\drivers/peripheral/gpio/cy_gpio.h **** } cy_stc_gpio_prt_config_t;
 251:Generated_Source\PSoC6\pdl\drivers/peripheral/gpio/cy_gpio.h **** 
 252:Generated_Source\PSoC6\pdl\drivers/peripheral/gpio/cy_gpio.h **** /** This structure is used to initialize a single GPIO pin */
ARM GAS  C:\Users\haske\AppData\Local\Temp\cckhubq2.s 			page 7


 253:Generated_Source\PSoC6\pdl\drivers/peripheral/gpio/cy_gpio.h **** typedef struct
 254:Generated_Source\PSoC6\pdl\drivers/peripheral/gpio/cy_gpio.h **** {
 255:Generated_Source\PSoC6\pdl\drivers/peripheral/gpio/cy_gpio.h ****     uint32_t outVal;         /**< Pin output state */
 256:Generated_Source\PSoC6\pdl\drivers/peripheral/gpio/cy_gpio.h ****     uint32_t driveMode;      /**< Drive mode */
 257:Generated_Source\PSoC6\pdl\drivers/peripheral/gpio/cy_gpio.h ****     en_hsiom_sel_t hsiom;    /**< HSIOM selection */
 258:Generated_Source\PSoC6\pdl\drivers/peripheral/gpio/cy_gpio.h ****     uint32_t intEdge;        /**< Interrupt Edge type */
 259:Generated_Source\PSoC6\pdl\drivers/peripheral/gpio/cy_gpio.h ****     uint32_t intMask;        /**< Interrupt enable mask */
 260:Generated_Source\PSoC6\pdl\drivers/peripheral/gpio/cy_gpio.h ****     uint32_t vtrip;          /**< Input buffer voltage trip type */
 261:Generated_Source\PSoC6\pdl\drivers/peripheral/gpio/cy_gpio.h ****     uint32_t slewRate;       /**< Output buffer slew rate */
 262:Generated_Source\PSoC6\pdl\drivers/peripheral/gpio/cy_gpio.h ****     uint32_t driveSel;       /**< Drive strength */
 263:Generated_Source\PSoC6\pdl\drivers/peripheral/gpio/cy_gpio.h ****     uint32_t vregEn;         /**< SIO pair output buffer mode */
 264:Generated_Source\PSoC6\pdl\drivers/peripheral/gpio/cy_gpio.h ****     uint32_t ibufMode;       /**< SIO pair input buffer mode */
 265:Generated_Source\PSoC6\pdl\drivers/peripheral/gpio/cy_gpio.h ****     uint32_t vtripSel;       /**< SIO pair input buffer trip point */
 266:Generated_Source\PSoC6\pdl\drivers/peripheral/gpio/cy_gpio.h ****     uint32_t vrefSel;        /**< SIO pair reference voltage for input buffer trip point */
 267:Generated_Source\PSoC6\pdl\drivers/peripheral/gpio/cy_gpio.h ****     uint32_t vohSel;         /**< SIO pair regulated voltage output level */
 268:Generated_Source\PSoC6\pdl\drivers/peripheral/gpio/cy_gpio.h **** } cy_stc_gpio_pin_config_t;
 269:Generated_Source\PSoC6\pdl\drivers/peripheral/gpio/cy_gpio.h **** 
 270:Generated_Source\PSoC6\pdl\drivers/peripheral/gpio/cy_gpio.h **** /** \} group_gpio_data_structures */
 271:Generated_Source\PSoC6\pdl\drivers/peripheral/gpio/cy_gpio.h **** 
 272:Generated_Source\PSoC6\pdl\drivers/peripheral/gpio/cy_gpio.h **** /***************************************
 273:Generated_Source\PSoC6\pdl\drivers/peripheral/gpio/cy_gpio.h **** *        Constants
 274:Generated_Source\PSoC6\pdl\drivers/peripheral/gpio/cy_gpio.h **** ***************************************/
 275:Generated_Source\PSoC6\pdl\drivers/peripheral/gpio/cy_gpio.h **** 
 276:Generated_Source\PSoC6\pdl\drivers/peripheral/gpio/cy_gpio.h **** /** \cond INTERNAL */
 277:Generated_Source\PSoC6\pdl\drivers/peripheral/gpio/cy_gpio.h **** 
 278:Generated_Source\PSoC6\pdl\drivers/peripheral/gpio/cy_gpio.h **** /* General Constants */
 279:Generated_Source\PSoC6\pdl\drivers/peripheral/gpio/cy_gpio.h **** #define CY_GPIO_PRT_HALF                       (4UL)      /**< Half-way point of a GPIO port */
 280:Generated_Source\PSoC6\pdl\drivers/peripheral/gpio/cy_gpio.h **** #define CY_GPIO_PRT_DEINIT                     (0UL)      /**< De-init value for port registers */
 281:Generated_Source\PSoC6\pdl\drivers/peripheral/gpio/cy_gpio.h **** 
 282:Generated_Source\PSoC6\pdl\drivers/peripheral/gpio/cy_gpio.h **** /* GPIO Masks */
 283:Generated_Source\PSoC6\pdl\drivers/peripheral/gpio/cy_gpio.h **** #define CY_GPIO_HSIOM_MASK                     (0x1FUL)   /**< HSIOM selection mask */
 284:Generated_Source\PSoC6\pdl\drivers/peripheral/gpio/cy_gpio.h **** #define CY_GPIO_OUT_MASK                       (0x01UL)   /**< Single pin mask for OUT register */
 285:Generated_Source\PSoC6\pdl\drivers/peripheral/gpio/cy_gpio.h **** #define CY_GPIO_IN_MASK                        (0x01UL)   /**< Single pin mask for IN register */
 286:Generated_Source\PSoC6\pdl\drivers/peripheral/gpio/cy_gpio.h **** #define CY_GPIO_CFG_DM_MASK                    (0x0FUL)   /**< Single pin mask for drive mode in CF
 287:Generated_Source\PSoC6\pdl\drivers/peripheral/gpio/cy_gpio.h **** #define CY_GPIO_CFG_IN_VTRIP_SEL_MASK          (0x01UL)   /**< Single pin mask for VTRIP selection 
 288:Generated_Source\PSoC6\pdl\drivers/peripheral/gpio/cy_gpio.h **** #define CY_GPIO_CFG_OUT_SLOW_MASK              (0x01UL)   /**< Single pin mask for slew rate in CFG
 289:Generated_Source\PSoC6\pdl\drivers/peripheral/gpio/cy_gpio.h **** #define CY_GPIO_CFG_OUT_DRIVE_SEL_MASK         (0x03UL)   /**< Single pin mask for drive strength i
 290:Generated_Source\PSoC6\pdl\drivers/peripheral/gpio/cy_gpio.h **** #define CY_GPIO_INTR_STATUS_MASK               (0x01UL)   /**< Single pin mask for interrupt status
 291:Generated_Source\PSoC6\pdl\drivers/peripheral/gpio/cy_gpio.h **** #define CY_GPIO_INTR_EN_MASK                   (0x01UL)   /**< Single pin mask for interrupt status
 292:Generated_Source\PSoC6\pdl\drivers/peripheral/gpio/cy_gpio.h **** #define CY_GPIO_INTR_MASKED_MASK               (0x01UL)   /**< Single pin mask for masked interrupt
 293:Generated_Source\PSoC6\pdl\drivers/peripheral/gpio/cy_gpio.h **** #define CY_GPIO_INTR_SET_MASK                  (0x01UL)   /**< Single pin mask for setting the inte
 294:Generated_Source\PSoC6\pdl\drivers/peripheral/gpio/cy_gpio.h **** #define CY_GPIO_INTR_EDGE_MASK                 (0x03UL)   /**< Single pin mask for interrupt edge t
 295:Generated_Source\PSoC6\pdl\drivers/peripheral/gpio/cy_gpio.h **** #define CY_GPIO_INTR_FLT_EDGE_MASK             (0x07UL)   /**< Single pin mask for setting filtered
 296:Generated_Source\PSoC6\pdl\drivers/peripheral/gpio/cy_gpio.h **** 
 297:Generated_Source\PSoC6\pdl\drivers/peripheral/gpio/cy_gpio.h **** /* SIO Masks */
 298:Generated_Source\PSoC6\pdl\drivers/peripheral/gpio/cy_gpio.h **** #define CY_GPIO_VREG_EN_MASK                   (0x01UL)   /**< Single SIO pin mask for voltage regu
 299:Generated_Source\PSoC6\pdl\drivers/peripheral/gpio/cy_gpio.h **** #define CY_GPIO_IBUF_MASK                      (0x01UL)   /**< Single SIO pin mask for input buffer
 300:Generated_Source\PSoC6\pdl\drivers/peripheral/gpio/cy_gpio.h **** #define CY_GPIO_IBUF_SHIFT                     (0x01UL)   /**< Single SIO pin shift for input buffe
 301:Generated_Source\PSoC6\pdl\drivers/peripheral/gpio/cy_gpio.h **** #define CY_GPIO_VTRIP_SEL_MASK                 (0x01UL)   /**< Single SIO pin mask for the input bu
 302:Generated_Source\PSoC6\pdl\drivers/peripheral/gpio/cy_gpio.h **** #define CY_GPIO_VTRIP_SEL_SHIFT                (0x02UL)   /**< Single SIO pin shift for the input b
 303:Generated_Source\PSoC6\pdl\drivers/peripheral/gpio/cy_gpio.h **** #define CY_GPIO_VREF_SEL_MASK                  (0x03UL)   /**< Single SIO pin mask for voltage refe
 304:Generated_Source\PSoC6\pdl\drivers/peripheral/gpio/cy_gpio.h **** #define CY_GPIO_VREF_SEL_SHIFT                 (0x03UL)   /**< Single SIO pin shift for voltage ref
 305:Generated_Source\PSoC6\pdl\drivers/peripheral/gpio/cy_gpio.h **** #define CY_GPIO_VOH_SEL_MASK                   (0x07UL)   /**< Single SIO pin mask for VOH */
 306:Generated_Source\PSoC6\pdl\drivers/peripheral/gpio/cy_gpio.h **** #define CY_GPIO_VOH_SEL_SHIFT                  (0x05UL)   /**< Single SIO pin shift for VOH */
 307:Generated_Source\PSoC6\pdl\drivers/peripheral/gpio/cy_gpio.h **** 
 308:Generated_Source\PSoC6\pdl\drivers/peripheral/gpio/cy_gpio.h **** /* Special mask for SIO pin pair setting */
 309:Generated_Source\PSoC6\pdl\drivers/peripheral/gpio/cy_gpio.h **** #define CY_GPIO_SIO_ODD_PIN_MASK               (0x00FEUL) /**< SIO pin pair selection mask */
ARM GAS  C:\Users\haske\AppData\Local\Temp\cckhubq2.s 			page 8


 310:Generated_Source\PSoC6\pdl\drivers/peripheral/gpio/cy_gpio.h **** #define CY_GPIO_SIO_PIN_MASK                   (0x00FFUL) /**< SIO pin pair mask */
 311:Generated_Source\PSoC6\pdl\drivers/peripheral/gpio/cy_gpio.h **** 
 312:Generated_Source\PSoC6\pdl\drivers/peripheral/gpio/cy_gpio.h **** /* Offsets */
 313:Generated_Source\PSoC6\pdl\drivers/peripheral/gpio/cy_gpio.h **** #define CY_GPIO_HSIOM_OFFSET                   (3UL)      /**< Offset for HSIOM */
 314:Generated_Source\PSoC6\pdl\drivers/peripheral/gpio/cy_gpio.h **** #define CY_GPIO_DRIVE_MODE_OFFSET              (2UL)      /**< Offset for Drive mode */
 315:Generated_Source\PSoC6\pdl\drivers/peripheral/gpio/cy_gpio.h **** #define CY_GPIO_INBUF_OFFSET                   (3UL)      /**< Offset for input buffer */
 316:Generated_Source\PSoC6\pdl\drivers/peripheral/gpio/cy_gpio.h **** #define CY_GPIO_CFG_OUT_DRIVE_OFFSET           (16UL)     /**< Offset for drive strength */
 317:Generated_Source\PSoC6\pdl\drivers/peripheral/gpio/cy_gpio.h **** #define CY_GPIO_INTR_CFG_OFFSET                (1UL)      /**< Offset for interrupt config */
 318:Generated_Source\PSoC6\pdl\drivers/peripheral/gpio/cy_gpio.h **** #define CY_GPIO_INTR_FILT_OFFSET               (18UL)     /**< Offset for filtered interrupt config
 319:Generated_Source\PSoC6\pdl\drivers/peripheral/gpio/cy_gpio.h **** #define CY_GPIO_CFG_SIO_OFFSET                 (2UL)      /**< Offset for SIO config */
 320:Generated_Source\PSoC6\pdl\drivers/peripheral/gpio/cy_gpio.h **** 
 321:Generated_Source\PSoC6\pdl\drivers/peripheral/gpio/cy_gpio.h **** /* Parameter validation constants */
 322:Generated_Source\PSoC6\pdl\drivers/peripheral/gpio/cy_gpio.h **** #define CY_GPIO_PINS_MAX                       (8UL)      /**< Number of pins in the port */
 323:Generated_Source\PSoC6\pdl\drivers/peripheral/gpio/cy_gpio.h **** #define CY_GPIO_PRT_PINS_MASK                  (0x0000000FFUL)
 324:Generated_Source\PSoC6\pdl\drivers/peripheral/gpio/cy_gpio.h **** #define CY_GPIO_PRT_INTR_CFG_EDGE_SEL_MASK     (GPIO_PRT_INTR_CFG_EDGE0_SEL_Msk | \
 325:Generated_Source\PSoC6\pdl\drivers/peripheral/gpio/cy_gpio.h ****                                                 GPIO_PRT_INTR_CFG_EDGE1_SEL_Msk | \
 326:Generated_Source\PSoC6\pdl\drivers/peripheral/gpio/cy_gpio.h ****                                                 GPIO_PRT_INTR_CFG_EDGE2_SEL_Msk | \
 327:Generated_Source\PSoC6\pdl\drivers/peripheral/gpio/cy_gpio.h ****                                                 GPIO_PRT_INTR_CFG_EDGE3_SEL_Msk | \
 328:Generated_Source\PSoC6\pdl\drivers/peripheral/gpio/cy_gpio.h ****                                                 GPIO_PRT_INTR_CFG_EDGE4_SEL_Msk | \
 329:Generated_Source\PSoC6\pdl\drivers/peripheral/gpio/cy_gpio.h ****                                                 GPIO_PRT_INTR_CFG_EDGE5_SEL_Msk | \
 330:Generated_Source\PSoC6\pdl\drivers/peripheral/gpio/cy_gpio.h ****                                                 GPIO_PRT_INTR_CFG_EDGE6_SEL_Msk | \
 331:Generated_Source\PSoC6\pdl\drivers/peripheral/gpio/cy_gpio.h ****                                                 GPIO_PRT_INTR_CFG_EDGE7_SEL_Msk)
 332:Generated_Source\PSoC6\pdl\drivers/peripheral/gpio/cy_gpio.h **** #define CY_GPIO_PRT_INTR_CFG_RANGE_MASK        (CY_GPIO_PRT_INTR_CFG_EDGE_SEL_MASK | \
 333:Generated_Source\PSoC6\pdl\drivers/peripheral/gpio/cy_gpio.h ****                                                 GPIO_PRT_INTR_CFG_FLT_EDGE_SEL_Msk | \
 334:Generated_Source\PSoC6\pdl\drivers/peripheral/gpio/cy_gpio.h ****                                                 GPIO_PRT_INTR_CFG_FLT_SEL_Msk)
 335:Generated_Source\PSoC6\pdl\drivers/peripheral/gpio/cy_gpio.h **** #define CY_GPIO_PRT_INT_MASK_MASK              (0x0000001FFUL)
 336:Generated_Source\PSoC6\pdl\drivers/peripheral/gpio/cy_gpio.h **** #define CY_GPIO_PRT_SEL_ACTIVE_MASK            (0x1FFFFFFFUL)
 337:Generated_Source\PSoC6\pdl\drivers/peripheral/gpio/cy_gpio.h **** 
 338:Generated_Source\PSoC6\pdl\drivers/peripheral/gpio/cy_gpio.h **** #define GPIO_MAX_SPLIT_CELL_SEGMENTS           (9U)
 339:Generated_Source\PSoC6\pdl\drivers/peripheral/gpio/cy_gpio.h **** 
 340:Generated_Source\PSoC6\pdl\drivers/peripheral/gpio/cy_gpio.h **** /* Parameter validation macros */
 341:Generated_Source\PSoC6\pdl\drivers/peripheral/gpio/cy_gpio.h **** #define CY_GPIO_IS_PIN_VALID(pinNum)           (CY_GPIO_PINS_MAX > (pinNum))
 342:Generated_Source\PSoC6\pdl\drivers/peripheral/gpio/cy_gpio.h **** #define CY_GPIO_IS_FILTER_PIN_VALID(pinNum)    (CY_GPIO_PINS_MAX >= (pinNum))
 343:Generated_Source\PSoC6\pdl\drivers/peripheral/gpio/cy_gpio.h **** #define CY_GPIO_IS_VALUE_VALID(outVal)         (1UL >= (outVal))
 344:Generated_Source\PSoC6\pdl\drivers/peripheral/gpio/cy_gpio.h **** #define CY_GPIO_IS_DM_VALID(driveMode)         (0U == ((driveMode) & (uint32_t)~CY_GPIO_CFG_DM_MASK
 345:Generated_Source\PSoC6\pdl\drivers/peripheral/gpio/cy_gpio.h **** 
 346:Generated_Source\PSoC6\pdl\drivers/peripheral/gpio/cy_gpio.h **** #define CY_GPIO_IS_HSIOM_VALID(hsiom)          (0U == ((hsiom) & (uint32_t)~CY_GPIO_HSIOM_MASK))
 347:Generated_Source\PSoC6\pdl\drivers/peripheral/gpio/cy_gpio.h **** 
 348:Generated_Source\PSoC6\pdl\drivers/peripheral/gpio/cy_gpio.h **** #define CY_GPIO_IS_INT_EDGE_VALID(intEdge)     ((CY_GPIO_INTR_DISABLE  == (intEdge)) || \
 349:Generated_Source\PSoC6\pdl\drivers/peripheral/gpio/cy_gpio.h ****                                                 (CY_GPIO_INTR_RISING   == (intEdge)) || \
 350:Generated_Source\PSoC6\pdl\drivers/peripheral/gpio/cy_gpio.h ****                                                 (CY_GPIO_INTR_FALLING  == (intEdge)) || \
 351:Generated_Source\PSoC6\pdl\drivers/peripheral/gpio/cy_gpio.h ****                                                 (CY_GPIO_INTR_BOTH     == (intEdge)))
 352:Generated_Source\PSoC6\pdl\drivers/peripheral/gpio/cy_gpio.h **** 
 353:Generated_Source\PSoC6\pdl\drivers/peripheral/gpio/cy_gpio.h **** #define CY_GPIO_IS_DRIVE_SEL_VALID(driveSel)   ((CY_GPIO_DRIVE_FULL    == (driveSel)) || \
 354:Generated_Source\PSoC6\pdl\drivers/peripheral/gpio/cy_gpio.h ****                                                 (CY_GPIO_DRIVE_1_2     == (driveSel)) || \
 355:Generated_Source\PSoC6\pdl\drivers/peripheral/gpio/cy_gpio.h ****                                                 (CY_GPIO_DRIVE_1_4     == (driveSel)) || \
 356:Generated_Source\PSoC6\pdl\drivers/peripheral/gpio/cy_gpio.h ****                                                 (CY_GPIO_DRIVE_1_8     == (driveSel)))
 357:Generated_Source\PSoC6\pdl\drivers/peripheral/gpio/cy_gpio.h **** 
 358:Generated_Source\PSoC6\pdl\drivers/peripheral/gpio/cy_gpio.h **** #define CY_GPIO_IS_VREF_SEL_VALID(vrefSel)     ((CY_SIO_VREF_PINREF    == (vrefSel)) || \
 359:Generated_Source\PSoC6\pdl\drivers/peripheral/gpio/cy_gpio.h ****                                                 (CY_SIO_VREF_1_2V      == (vrefSel)) || \
 360:Generated_Source\PSoC6\pdl\drivers/peripheral/gpio/cy_gpio.h ****                                                 (CY_SIO_VREF_AMUX_A    == (vrefSel)) || \
 361:Generated_Source\PSoC6\pdl\drivers/peripheral/gpio/cy_gpio.h ****                                                 (CY_SIO_VREF_AMUX_B    == (vrefSel)))
 362:Generated_Source\PSoC6\pdl\drivers/peripheral/gpio/cy_gpio.h **** 
 363:Generated_Source\PSoC6\pdl\drivers/peripheral/gpio/cy_gpio.h **** #define CY_GPIO_IS_VOH_SEL_VALID(vrefSel)      ((CY_SIO_VOH_1_00       == (vrefSel)) || \
 364:Generated_Source\PSoC6\pdl\drivers/peripheral/gpio/cy_gpio.h ****                                                 (CY_SIO_VOH_1_25       == (vrefSel)) || \
 365:Generated_Source\PSoC6\pdl\drivers/peripheral/gpio/cy_gpio.h ****                                                 (CY_SIO_VOH_1_49       == (vrefSel)) || \
 366:Generated_Source\PSoC6\pdl\drivers/peripheral/gpio/cy_gpio.h ****                                                 (CY_SIO_VOH_1_67       == (vrefSel)) || \
ARM GAS  C:\Users\haske\AppData\Local\Temp\cckhubq2.s 			page 9


 367:Generated_Source\PSoC6\pdl\drivers/peripheral/gpio/cy_gpio.h ****                                                 (CY_SIO_VOH_2_08       == (vrefSel)) || \
 368:Generated_Source\PSoC6\pdl\drivers/peripheral/gpio/cy_gpio.h ****                                                 (CY_SIO_VOH_2_50       == (vrefSel)) || \
 369:Generated_Source\PSoC6\pdl\drivers/peripheral/gpio/cy_gpio.h ****                                                 (CY_SIO_VOH_2_78       == (vrefSel)) || \
 370:Generated_Source\PSoC6\pdl\drivers/peripheral/gpio/cy_gpio.h ****                                                 (CY_SIO_VOH_4_16       == (vrefSel)))
 371:Generated_Source\PSoC6\pdl\drivers/peripheral/gpio/cy_gpio.h ****                    
 372:Generated_Source\PSoC6\pdl\drivers/peripheral/gpio/cy_gpio.h **** #define CY_GPIO_IS_PIN_BIT_VALID(pinBit)       (0U == ((pinBit) & (uint32_t)~CY_GPIO_PRT_PINS_MASK)
 373:Generated_Source\PSoC6\pdl\drivers/peripheral/gpio/cy_gpio.h **** #define CY_GPIO_IS_INTR_CFG_VALID(intrCfg)     (0U == ((intrCfg) & (uint32_t)~CY_GPIO_PRT_INTR_CFG_
 374:Generated_Source\PSoC6\pdl\drivers/peripheral/gpio/cy_gpio.h **** #define CY_GPIO_IS_INTR_MASK_VALID(intrMask)   (0U == ((intrMask) & (uint32_t)~CY_GPIO_PRT_INT_MASK
 375:Generated_Source\PSoC6\pdl\drivers/peripheral/gpio/cy_gpio.h **** #define CY_GPIO_IS_SEL_ACT_VALID(selActive)    (0U == ((selActive) & (uint32_t)~CY_GPIO_PRT_SEL_ACT
 376:Generated_Source\PSoC6\pdl\drivers/peripheral/gpio/cy_gpio.h **** 
 377:Generated_Source\PSoC6\pdl\drivers/peripheral/gpio/cy_gpio.h **** #define CY_GPIO_IS_AMUX_SPLIT_VALID(switchCtrl)       (((uint32_t) (switchCtrl)) < GPIO_MAX_SPLIT_C
 378:Generated_Source\PSoC6\pdl\drivers/peripheral/gpio/cy_gpio.h **** 
 379:Generated_Source\PSoC6\pdl\drivers/peripheral/gpio/cy_gpio.h **** #define CY_GPIO_IS_AMUX_CONNECT_VALID(amuxConnect)    ((CY_GPIO_AMUX_OPENALL == (amuxConnect)) || \
 380:Generated_Source\PSoC6\pdl\drivers/peripheral/gpio/cy_gpio.h ****                                                        (CY_GPIO_AMUX_L       == (amuxConnect)) || \
 381:Generated_Source\PSoC6\pdl\drivers/peripheral/gpio/cy_gpio.h ****                                                        (CY_GPIO_AMUX_R       == (amuxConnect)) || \
 382:Generated_Source\PSoC6\pdl\drivers/peripheral/gpio/cy_gpio.h ****                                                        (CY_GPIO_AMUX_LR      == (amuxConnect)) || \
 383:Generated_Source\PSoC6\pdl\drivers/peripheral/gpio/cy_gpio.h ****                                                        (CY_GPIO_AMUX_G       == (amuxConnect)) || \
 384:Generated_Source\PSoC6\pdl\drivers/peripheral/gpio/cy_gpio.h ****                                                        (CY_GPIO_AMUX_GL      == (amuxConnect)) || \
 385:Generated_Source\PSoC6\pdl\drivers/peripheral/gpio/cy_gpio.h ****                                                        (CY_GPIO_AMUX_GR      == (amuxConnect)) || \
 386:Generated_Source\PSoC6\pdl\drivers/peripheral/gpio/cy_gpio.h ****                                                        (CY_GPIO_AMUX_GLR     == (amuxConnect)))
 387:Generated_Source\PSoC6\pdl\drivers/peripheral/gpio/cy_gpio.h **** 
 388:Generated_Source\PSoC6\pdl\drivers/peripheral/gpio/cy_gpio.h **** #define CY_GPIO_IS_AMUX_SELECT_VALID(amuxBus)       ((CY_GPIO_AMUXBUSA       == (amuxBus)) || \
 389:Generated_Source\PSoC6\pdl\drivers/peripheral/gpio/cy_gpio.h ****                                                      (CY_GPIO_AMUXBUSB       == (amuxBus)))
 390:Generated_Source\PSoC6\pdl\drivers/peripheral/gpio/cy_gpio.h **** /** \endcond */
 391:Generated_Source\PSoC6\pdl\drivers/peripheral/gpio/cy_gpio.h **** 
 392:Generated_Source\PSoC6\pdl\drivers/peripheral/gpio/cy_gpio.h **** 
 393:Generated_Source\PSoC6\pdl\drivers/peripheral/gpio/cy_gpio.h **** /***************************************
 394:Generated_Source\PSoC6\pdl\drivers/peripheral/gpio/cy_gpio.h **** *        Function Constants
 395:Generated_Source\PSoC6\pdl\drivers/peripheral/gpio/cy_gpio.h **** ***************************************/
 396:Generated_Source\PSoC6\pdl\drivers/peripheral/gpio/cy_gpio.h **** 
 397:Generated_Source\PSoC6\pdl\drivers/peripheral/gpio/cy_gpio.h **** /**
 398:Generated_Source\PSoC6\pdl\drivers/peripheral/gpio/cy_gpio.h **** * \addtogroup group_gpio_macros
 399:Generated_Source\PSoC6\pdl\drivers/peripheral/gpio/cy_gpio.h **** * \{
 400:Generated_Source\PSoC6\pdl\drivers/peripheral/gpio/cy_gpio.h **** */
 401:Generated_Source\PSoC6\pdl\drivers/peripheral/gpio/cy_gpio.h **** 
 402:Generated_Source\PSoC6\pdl\drivers/peripheral/gpio/cy_gpio.h **** /**
 403:Generated_Source\PSoC6\pdl\drivers/peripheral/gpio/cy_gpio.h **** * \defgroup group_gpio_driveModes Pin drive mode
 404:Generated_Source\PSoC6\pdl\drivers/peripheral/gpio/cy_gpio.h **** * \{
 405:Generated_Source\PSoC6\pdl\drivers/peripheral/gpio/cy_gpio.h **** * Constants to be used for setting the drive mode of the pin.
 406:Generated_Source\PSoC6\pdl\drivers/peripheral/gpio/cy_gpio.h **** */
 407:Generated_Source\PSoC6\pdl\drivers/peripheral/gpio/cy_gpio.h **** #define CY_GPIO_DM_ANALOG                      (0x00UL) /**< Analog High-Z. Input buffer off */
 408:Generated_Source\PSoC6\pdl\drivers/peripheral/gpio/cy_gpio.h **** #define CY_GPIO_DM_PULLUP_IN_OFF               (0x02UL) /**< Resistive Pull-Up. Input buffer off */
 409:Generated_Source\PSoC6\pdl\drivers/peripheral/gpio/cy_gpio.h **** #define CY_GPIO_DM_PULLDOWN_IN_OFF             (0x03UL) /**< Resistive Pull-Down. Input buffer off 
 410:Generated_Source\PSoC6\pdl\drivers/peripheral/gpio/cy_gpio.h **** #define CY_GPIO_DM_OD_DRIVESLOW_IN_OFF         (0x04UL) /**< Open Drain, Drives Low. Input buffer o
 411:Generated_Source\PSoC6\pdl\drivers/peripheral/gpio/cy_gpio.h **** #define CY_GPIO_DM_OD_DRIVESHIGH_IN_OFF        (0x05UL) /**< Open Drain, Drives High. Input buffer 
 412:Generated_Source\PSoC6\pdl\drivers/peripheral/gpio/cy_gpio.h **** #define CY_GPIO_DM_STRONG_IN_OFF               (0x06UL) /**< Strong Drive. Input buffer off */
 413:Generated_Source\PSoC6\pdl\drivers/peripheral/gpio/cy_gpio.h **** #define CY_GPIO_DM_PULLUP_DOWN_IN_OFF          (0x07UL) /**< Resistive Pull-Up/Down. Input buffer o
 414:Generated_Source\PSoC6\pdl\drivers/peripheral/gpio/cy_gpio.h **** #define CY_GPIO_DM_HIGHZ                       (0x08UL) /**< Digital High-Z. Input buffer on */
 415:Generated_Source\PSoC6\pdl\drivers/peripheral/gpio/cy_gpio.h **** #define CY_GPIO_DM_PULLUP                      (0x0AUL) /**< Resistive Pull-Up. Input buffer on */
 416:Generated_Source\PSoC6\pdl\drivers/peripheral/gpio/cy_gpio.h **** #define CY_GPIO_DM_PULLDOWN                    (0x0BUL) /**< Resistive Pull-Down. Input buffer on *
 417:Generated_Source\PSoC6\pdl\drivers/peripheral/gpio/cy_gpio.h **** #define CY_GPIO_DM_OD_DRIVESLOW                (0x0CUL) /**< Open Drain, Drives Low. Input buffer o
 418:Generated_Source\PSoC6\pdl\drivers/peripheral/gpio/cy_gpio.h **** #define CY_GPIO_DM_OD_DRIVESHIGH               (0x0DUL) /**< Open Drain, Drives High. Input buffer 
 419:Generated_Source\PSoC6\pdl\drivers/peripheral/gpio/cy_gpio.h **** #define CY_GPIO_DM_STRONG                      (0x0EUL) /**< Strong Drive. Input buffer on */
 420:Generated_Source\PSoC6\pdl\drivers/peripheral/gpio/cy_gpio.h **** #define CY_GPIO_DM_PULLUP_DOWN                 (0x0FUL) /**< Resistive Pull-Up/Down. Input buffer o
 421:Generated_Source\PSoC6\pdl\drivers/peripheral/gpio/cy_gpio.h **** /** \} */
 422:Generated_Source\PSoC6\pdl\drivers/peripheral/gpio/cy_gpio.h **** 
 423:Generated_Source\PSoC6\pdl\drivers/peripheral/gpio/cy_gpio.h **** /**
ARM GAS  C:\Users\haske\AppData\Local\Temp\cckhubq2.s 			page 10


 424:Generated_Source\PSoC6\pdl\drivers/peripheral/gpio/cy_gpio.h **** * \defgroup group_gpio_vtrip Voltage trip mode
 425:Generated_Source\PSoC6\pdl\drivers/peripheral/gpio/cy_gpio.h **** * \{
 426:Generated_Source\PSoC6\pdl\drivers/peripheral/gpio/cy_gpio.h **** * Constants to be used for setting the voltage trip type on the pin.
 427:Generated_Source\PSoC6\pdl\drivers/peripheral/gpio/cy_gpio.h **** */
 428:Generated_Source\PSoC6\pdl\drivers/peripheral/gpio/cy_gpio.h **** #define CY_GPIO_VTRIP_CMOS                     (0x00UL) /**< Input buffer compatible with CMOS and 
 429:Generated_Source\PSoC6\pdl\drivers/peripheral/gpio/cy_gpio.h **** #define CY_GPIO_VTRIP_TTL                      (0x01UL) /**< Input buffer compatible with TTL and M
 430:Generated_Source\PSoC6\pdl\drivers/peripheral/gpio/cy_gpio.h **** /** \} */
 431:Generated_Source\PSoC6\pdl\drivers/peripheral/gpio/cy_gpio.h **** 
 432:Generated_Source\PSoC6\pdl\drivers/peripheral/gpio/cy_gpio.h **** /**
 433:Generated_Source\PSoC6\pdl\drivers/peripheral/gpio/cy_gpio.h **** * \defgroup group_gpio_slewRate Slew Rate Mode
 434:Generated_Source\PSoC6\pdl\drivers/peripheral/gpio/cy_gpio.h **** * \{
 435:Generated_Source\PSoC6\pdl\drivers/peripheral/gpio/cy_gpio.h **** * Constants to be used for setting the slew rate of the pin.
 436:Generated_Source\PSoC6\pdl\drivers/peripheral/gpio/cy_gpio.h **** */
 437:Generated_Source\PSoC6\pdl\drivers/peripheral/gpio/cy_gpio.h **** #define CY_GPIO_SLEW_FAST                      (0x00UL) /**< Fast slew rate */
 438:Generated_Source\PSoC6\pdl\drivers/peripheral/gpio/cy_gpio.h **** #define CY_GPIO_SLEW_SLOW                      (0x01UL) /**< Slow slew rate */
 439:Generated_Source\PSoC6\pdl\drivers/peripheral/gpio/cy_gpio.h **** /** \} */
 440:Generated_Source\PSoC6\pdl\drivers/peripheral/gpio/cy_gpio.h **** 
 441:Generated_Source\PSoC6\pdl\drivers/peripheral/gpio/cy_gpio.h **** /**
 442:Generated_Source\PSoC6\pdl\drivers/peripheral/gpio/cy_gpio.h **** * \defgroup group_gpio_driveStrength Pin drive strength
 443:Generated_Source\PSoC6\pdl\drivers/peripheral/gpio/cy_gpio.h **** * \{
 444:Generated_Source\PSoC6\pdl\drivers/peripheral/gpio/cy_gpio.h **** * Constants to be used for setting the drive strength of the pin.
 445:Generated_Source\PSoC6\pdl\drivers/peripheral/gpio/cy_gpio.h **** */
 446:Generated_Source\PSoC6\pdl\drivers/peripheral/gpio/cy_gpio.h **** #define CY_GPIO_DRIVE_FULL                     (0x00UL) /**< Full drive strength: Max drive current
 447:Generated_Source\PSoC6\pdl\drivers/peripheral/gpio/cy_gpio.h **** #define CY_GPIO_DRIVE_1_2                      (0x01UL) /**< 1/2 drive strength: 1/2 drive current 
 448:Generated_Source\PSoC6\pdl\drivers/peripheral/gpio/cy_gpio.h **** #define CY_GPIO_DRIVE_1_4                      (0x02UL) /**< 1/4 drive strength: 1/4 drive current 
 449:Generated_Source\PSoC6\pdl\drivers/peripheral/gpio/cy_gpio.h **** #define CY_GPIO_DRIVE_1_8                      (0x03UL) /**< 1/8 drive strength: 1/8 drive current 
 450:Generated_Source\PSoC6\pdl\drivers/peripheral/gpio/cy_gpio.h **** /** \} */
 451:Generated_Source\PSoC6\pdl\drivers/peripheral/gpio/cy_gpio.h **** 
 452:Generated_Source\PSoC6\pdl\drivers/peripheral/gpio/cy_gpio.h **** /**
 453:Generated_Source\PSoC6\pdl\drivers/peripheral/gpio/cy_gpio.h **** * \defgroup group_gpio_interruptTrigger Interrupt trigger type
 454:Generated_Source\PSoC6\pdl\drivers/peripheral/gpio/cy_gpio.h **** * \{
 455:Generated_Source\PSoC6\pdl\drivers/peripheral/gpio/cy_gpio.h **** * Constants to be used for setting the interrupt trigger type on the pin.
 456:Generated_Source\PSoC6\pdl\drivers/peripheral/gpio/cy_gpio.h **** */
 457:Generated_Source\PSoC6\pdl\drivers/peripheral/gpio/cy_gpio.h **** #define CY_GPIO_INTR_DISABLE                   (0x00UL) /**< Disable the pin interrupt generation *
 458:Generated_Source\PSoC6\pdl\drivers/peripheral/gpio/cy_gpio.h **** #define CY_GPIO_INTR_RISING                    (0x01UL) /**< Rising-Edge interrupt */
 459:Generated_Source\PSoC6\pdl\drivers/peripheral/gpio/cy_gpio.h **** #define CY_GPIO_INTR_FALLING                   (0x02UL) /**< Falling-Edge interrupt */
 460:Generated_Source\PSoC6\pdl\drivers/peripheral/gpio/cy_gpio.h **** #define CY_GPIO_INTR_BOTH                      (0x03UL) /**< Both-Edge interrupt */
 461:Generated_Source\PSoC6\pdl\drivers/peripheral/gpio/cy_gpio.h **** /** \} */
 462:Generated_Source\PSoC6\pdl\drivers/peripheral/gpio/cy_gpio.h **** 
 463:Generated_Source\PSoC6\pdl\drivers/peripheral/gpio/cy_gpio.h **** /**
 464:Generated_Source\PSoC6\pdl\drivers/peripheral/gpio/cy_gpio.h **** * \defgroup group_gpio_sioVreg SIO output buffer mode
 465:Generated_Source\PSoC6\pdl\drivers/peripheral/gpio/cy_gpio.h **** * \{
 466:Generated_Source\PSoC6\pdl\drivers/peripheral/gpio/cy_gpio.h **** * Constants to be used for setting the SIO output buffer mode on the pin.
 467:Generated_Source\PSoC6\pdl\drivers/peripheral/gpio/cy_gpio.h **** */
 468:Generated_Source\PSoC6\pdl\drivers/peripheral/gpio/cy_gpio.h **** #define CY_SIO_VREG_UNREGULATED                (0x00UL) /**< Unregulated output buffer */
 469:Generated_Source\PSoC6\pdl\drivers/peripheral/gpio/cy_gpio.h **** #define CY_SIO_VREG_REGULATED                  (0x01UL) /**< Regulated output buffer */
 470:Generated_Source\PSoC6\pdl\drivers/peripheral/gpio/cy_gpio.h **** /** \} */
 471:Generated_Source\PSoC6\pdl\drivers/peripheral/gpio/cy_gpio.h **** 
 472:Generated_Source\PSoC6\pdl\drivers/peripheral/gpio/cy_gpio.h **** /**
 473:Generated_Source\PSoC6\pdl\drivers/peripheral/gpio/cy_gpio.h **** * \defgroup group_gpio_sioIbuf SIO input buffer mode
 474:Generated_Source\PSoC6\pdl\drivers/peripheral/gpio/cy_gpio.h **** * \{
 475:Generated_Source\PSoC6\pdl\drivers/peripheral/gpio/cy_gpio.h **** * Constants to be used for setting the SIO input buffer mode on the pin.
 476:Generated_Source\PSoC6\pdl\drivers/peripheral/gpio/cy_gpio.h **** */
 477:Generated_Source\PSoC6\pdl\drivers/peripheral/gpio/cy_gpio.h **** #define CY_SIO_IBUF_SINGLEENDED                (0x00UL) /**< Single ended input buffer */
 478:Generated_Source\PSoC6\pdl\drivers/peripheral/gpio/cy_gpio.h **** #define CY_SIO_IBUF_DIFFERENTIAL               (0x01UL) /**< Differential input buffer */
 479:Generated_Source\PSoC6\pdl\drivers/peripheral/gpio/cy_gpio.h **** /** \} */
 480:Generated_Source\PSoC6\pdl\drivers/peripheral/gpio/cy_gpio.h **** 
ARM GAS  C:\Users\haske\AppData\Local\Temp\cckhubq2.s 			page 11


 481:Generated_Source\PSoC6\pdl\drivers/peripheral/gpio/cy_gpio.h **** /**
 482:Generated_Source\PSoC6\pdl\drivers/peripheral/gpio/cy_gpio.h **** * \defgroup group_gpio_sioVtrip SIO input buffer trip-point
 483:Generated_Source\PSoC6\pdl\drivers/peripheral/gpio/cy_gpio.h **** * \{
 484:Generated_Source\PSoC6\pdl\drivers/peripheral/gpio/cy_gpio.h **** * Constants to be used for setting the SIO input buffer trip-point of the pin.
 485:Generated_Source\PSoC6\pdl\drivers/peripheral/gpio/cy_gpio.h **** */
 486:Generated_Source\PSoC6\pdl\drivers/peripheral/gpio/cy_gpio.h **** #define CY_SIO_VTRIP_CMOS                      (0x00UL) /**< CMOS input buffer (single-ended) */
 487:Generated_Source\PSoC6\pdl\drivers/peripheral/gpio/cy_gpio.h **** #define CY_SIO_VTRIP_TTL                       (0x01UL) /**< TTL input buffer (single-ended) */
 488:Generated_Source\PSoC6\pdl\drivers/peripheral/gpio/cy_gpio.h **** #define CY_SIO_VTRIP_0_5VDDIO_0_5VOH           (0x00UL) /**< 0.5xVddio or 0.5xVoh (differential) */
 489:Generated_Source\PSoC6\pdl\drivers/peripheral/gpio/cy_gpio.h **** #define CY_SIO_VTRIP_0_4VDDIO_1_0VREF          (0x01UL) /**< 0.4xVddio or 0.4xVoh (differential) */
 490:Generated_Source\PSoC6\pdl\drivers/peripheral/gpio/cy_gpio.h **** /** \} */
 491:Generated_Source\PSoC6\pdl\drivers/peripheral/gpio/cy_gpio.h **** 
 492:Generated_Source\PSoC6\pdl\drivers/peripheral/gpio/cy_gpio.h **** /**
 493:Generated_Source\PSoC6\pdl\drivers/peripheral/gpio/cy_gpio.h **** * \defgroup group_gpio_sioVref SIO reference voltage for input buffer trip-point
 494:Generated_Source\PSoC6\pdl\drivers/peripheral/gpio/cy_gpio.h **** * \{
 495:Generated_Source\PSoC6\pdl\drivers/peripheral/gpio/cy_gpio.h **** * Constants to be used for setting the reference voltage of SIO input buffer trip-point.
 496:Generated_Source\PSoC6\pdl\drivers/peripheral/gpio/cy_gpio.h **** */
 497:Generated_Source\PSoC6\pdl\drivers/peripheral/gpio/cy_gpio.h **** #define CY_SIO_VREF_PINREF                     (0x00UL) /**< Vref from analog pin */
 498:Generated_Source\PSoC6\pdl\drivers/peripheral/gpio/cy_gpio.h **** #define CY_SIO_VREF_1_2V                       (0x01UL) /**< Vref from internal 1.2V reference */
 499:Generated_Source\PSoC6\pdl\drivers/peripheral/gpio/cy_gpio.h **** #define CY_SIO_VREF_AMUX_A                     (0x02UL) /**< Vref from AMUXBUS_A */
 500:Generated_Source\PSoC6\pdl\drivers/peripheral/gpio/cy_gpio.h **** #define CY_SIO_VREF_AMUX_B                     (0x03UL) /**< Vref from AMUXBUS_B */
 501:Generated_Source\PSoC6\pdl\drivers/peripheral/gpio/cy_gpio.h **** /** \} */
 502:Generated_Source\PSoC6\pdl\drivers/peripheral/gpio/cy_gpio.h **** 
 503:Generated_Source\PSoC6\pdl\drivers/peripheral/gpio/cy_gpio.h **** /**
 504:Generated_Source\PSoC6\pdl\drivers/peripheral/gpio/cy_gpio.h **** * \defgroup group_gpio_sioVoh Regulated output voltage level (Voh) and input buffer trip-point of a
 505:Generated_Source\PSoC6\pdl\drivers/peripheral/gpio/cy_gpio.h **** * \{
 506:Generated_Source\PSoC6\pdl\drivers/peripheral/gpio/cy_gpio.h **** * Constants to be used for setting the Voh and input buffer trip-point of an SIO pair
 507:Generated_Source\PSoC6\pdl\drivers/peripheral/gpio/cy_gpio.h **** */
 508:Generated_Source\PSoC6\pdl\drivers/peripheral/gpio/cy_gpio.h **** #define CY_SIO_VOH_1_00                        (0x00UL) /**< Voh = 1 x Reference */
 509:Generated_Source\PSoC6\pdl\drivers/peripheral/gpio/cy_gpio.h **** #define CY_SIO_VOH_1_25                        (0x01UL) /**< Voh = 1.25 x Reference */
 510:Generated_Source\PSoC6\pdl\drivers/peripheral/gpio/cy_gpio.h **** #define CY_SIO_VOH_1_49                        (0x02UL) /**< Voh = 1.49 x Reference */
 511:Generated_Source\PSoC6\pdl\drivers/peripheral/gpio/cy_gpio.h **** #define CY_SIO_VOH_1_67                        (0x03UL) /**< Voh = 1.67 x Reference */
 512:Generated_Source\PSoC6\pdl\drivers/peripheral/gpio/cy_gpio.h **** #define CY_SIO_VOH_2_08                        (0x04UL) /**< Voh = 2.08 x Reference */
 513:Generated_Source\PSoC6\pdl\drivers/peripheral/gpio/cy_gpio.h **** #define CY_SIO_VOH_2_50                        (0x05UL) /**< Voh = 2.50 x Reference */
 514:Generated_Source\PSoC6\pdl\drivers/peripheral/gpio/cy_gpio.h **** #define CY_SIO_VOH_2_78                        (0x06UL) /**< Voh = 2.78 x Reference */
 515:Generated_Source\PSoC6\pdl\drivers/peripheral/gpio/cy_gpio.h **** #define CY_SIO_VOH_4_16                        (0x07UL) /**< Voh = 4.16 x Reference */
 516:Generated_Source\PSoC6\pdl\drivers/peripheral/gpio/cy_gpio.h **** /** \} */
 517:Generated_Source\PSoC6\pdl\drivers/peripheral/gpio/cy_gpio.h **** 
 518:Generated_Source\PSoC6\pdl\drivers/peripheral/gpio/cy_gpio.h **** /** \} group_gpio_macros */
 519:Generated_Source\PSoC6\pdl\drivers/peripheral/gpio/cy_gpio.h **** 
 520:Generated_Source\PSoC6\pdl\drivers/peripheral/gpio/cy_gpio.h **** /***************************************
 521:Generated_Source\PSoC6\pdl\drivers/peripheral/gpio/cy_gpio.h **** *        Function Prototypes
 522:Generated_Source\PSoC6\pdl\drivers/peripheral/gpio/cy_gpio.h **** ***************************************/
 523:Generated_Source\PSoC6\pdl\drivers/peripheral/gpio/cy_gpio.h **** 
 524:Generated_Source\PSoC6\pdl\drivers/peripheral/gpio/cy_gpio.h **** /**
 525:Generated_Source\PSoC6\pdl\drivers/peripheral/gpio/cy_gpio.h **** * \addtogroup group_gpio_functions
 526:Generated_Source\PSoC6\pdl\drivers/peripheral/gpio/cy_gpio.h **** * \{
 527:Generated_Source\PSoC6\pdl\drivers/peripheral/gpio/cy_gpio.h **** */
 528:Generated_Source\PSoC6\pdl\drivers/peripheral/gpio/cy_gpio.h **** 
 529:Generated_Source\PSoC6\pdl\drivers/peripheral/gpio/cy_gpio.h **** /**
 530:Generated_Source\PSoC6\pdl\drivers/peripheral/gpio/cy_gpio.h **** * \addtogroup group_gpio_functions_init
 531:Generated_Source\PSoC6\pdl\drivers/peripheral/gpio/cy_gpio.h **** * \{
 532:Generated_Source\PSoC6\pdl\drivers/peripheral/gpio/cy_gpio.h **** */
 533:Generated_Source\PSoC6\pdl\drivers/peripheral/gpio/cy_gpio.h **** 
 534:Generated_Source\PSoC6\pdl\drivers/peripheral/gpio/cy_gpio.h **** cy_en_gpio_status_t Cy_GPIO_Pin_Init(GPIO_PRT_Type* base, uint32_t pinNum, const cy_stc_gpio_pin_co
 535:Generated_Source\PSoC6\pdl\drivers/peripheral/gpio/cy_gpio.h **** cy_en_gpio_status_t Cy_GPIO_Port_Init(GPIO_PRT_Type* base, const cy_stc_gpio_prt_config_t *config);
 536:Generated_Source\PSoC6\pdl\drivers/peripheral/gpio/cy_gpio.h **** void Cy_GPIO_Pin_FastInit(GPIO_PRT_Type* base, uint32_t pinNum, uint32_t driveMode, uint32_t outVal
 537:Generated_Source\PSoC6\pdl\drivers/peripheral/gpio/cy_gpio.h **** void Cy_GPIO_Port_Deinit(GPIO_PRT_Type* base);
ARM GAS  C:\Users\haske\AppData\Local\Temp\cckhubq2.s 			page 12


 538:Generated_Source\PSoC6\pdl\drivers/peripheral/gpio/cy_gpio.h **** __STATIC_INLINE void Cy_GPIO_SetHSIOM(GPIO_PRT_Type* base, uint32_t pinNum, en_hsiom_sel_t value);
 539:Generated_Source\PSoC6\pdl\drivers/peripheral/gpio/cy_gpio.h **** __STATIC_INLINE en_hsiom_sel_t Cy_GPIO_GetHSIOM(GPIO_PRT_Type* base, uint32_t pinNum);
 540:Generated_Source\PSoC6\pdl\drivers/peripheral/gpio/cy_gpio.h **** __STATIC_INLINE GPIO_PRT_Type* Cy_GPIO_PortToAddr(uint32_t portNum);
 541:Generated_Source\PSoC6\pdl\drivers/peripheral/gpio/cy_gpio.h **** 
 542:Generated_Source\PSoC6\pdl\drivers/peripheral/gpio/cy_gpio.h **** /** \} group_gpio_functions_init */
 543:Generated_Source\PSoC6\pdl\drivers/peripheral/gpio/cy_gpio.h **** 
 544:Generated_Source\PSoC6\pdl\drivers/peripheral/gpio/cy_gpio.h **** /**
 545:Generated_Source\PSoC6\pdl\drivers/peripheral/gpio/cy_gpio.h **** * \addtogroup group_gpio_functions_gpio
 546:Generated_Source\PSoC6\pdl\drivers/peripheral/gpio/cy_gpio.h **** * \{
 547:Generated_Source\PSoC6\pdl\drivers/peripheral/gpio/cy_gpio.h **** */
 548:Generated_Source\PSoC6\pdl\drivers/peripheral/gpio/cy_gpio.h **** 
 549:Generated_Source\PSoC6\pdl\drivers/peripheral/gpio/cy_gpio.h **** void Cy_GPIO_SetAmuxSplit(cy_en_amux_split_t switchCtrl, cy_en_gpio_amuxconnect_t amuxConnect, cy_e
 550:Generated_Source\PSoC6\pdl\drivers/peripheral/gpio/cy_gpio.h **** cy_en_gpio_amuxconnect_t Cy_GPIO_GetAmuxSplit(cy_en_amux_split_t switchCtrl, cy_en_gpio_amuxselect_
 551:Generated_Source\PSoC6\pdl\drivers/peripheral/gpio/cy_gpio.h **** 
 552:Generated_Source\PSoC6\pdl\drivers/peripheral/gpio/cy_gpio.h **** __STATIC_INLINE uint32_t Cy_GPIO_Read(GPIO_PRT_Type* base, uint32_t pinNum);
 553:Generated_Source\PSoC6\pdl\drivers/peripheral/gpio/cy_gpio.h **** __STATIC_INLINE void Cy_GPIO_Write(GPIO_PRT_Type* base, uint32_t pinNum, uint32_t value);
 554:Generated_Source\PSoC6\pdl\drivers/peripheral/gpio/cy_gpio.h **** __STATIC_INLINE uint32_t Cy_GPIO_ReadOut(GPIO_PRT_Type* base, uint32_t pinNum);
 555:Generated_Source\PSoC6\pdl\drivers/peripheral/gpio/cy_gpio.h **** __STATIC_INLINE void Cy_GPIO_Set(GPIO_PRT_Type* base, uint32_t pinNum);
 556:Generated_Source\PSoC6\pdl\drivers/peripheral/gpio/cy_gpio.h **** __STATIC_INLINE void Cy_GPIO_Clr(GPIO_PRT_Type* base, uint32_t pinNum);
 557:Generated_Source\PSoC6\pdl\drivers/peripheral/gpio/cy_gpio.h **** __STATIC_INLINE void Cy_GPIO_Inv(GPIO_PRT_Type* base, uint32_t pinNum);
 558:Generated_Source\PSoC6\pdl\drivers/peripheral/gpio/cy_gpio.h **** __STATIC_INLINE void Cy_GPIO_SetDrivemode(GPIO_PRT_Type* base, uint32_t pinNum, uint32_t value);
 559:Generated_Source\PSoC6\pdl\drivers/peripheral/gpio/cy_gpio.h **** __STATIC_INLINE uint32_t Cy_GPIO_GetDrivemode(GPIO_PRT_Type* base, uint32_t pinNum);
 560:Generated_Source\PSoC6\pdl\drivers/peripheral/gpio/cy_gpio.h **** __STATIC_INLINE void Cy_GPIO_SetVtrip(GPIO_PRT_Type* base, uint32_t pinNum, uint32_t value);
 561:Generated_Source\PSoC6\pdl\drivers/peripheral/gpio/cy_gpio.h **** __STATIC_INLINE uint32_t Cy_GPIO_GetVtrip(GPIO_PRT_Type* base, uint32_t pinNum);
 562:Generated_Source\PSoC6\pdl\drivers/peripheral/gpio/cy_gpio.h **** __STATIC_INLINE void Cy_GPIO_SetSlewRate(GPIO_PRT_Type* base, uint32_t pinNum, uint32_t value);
 563:Generated_Source\PSoC6\pdl\drivers/peripheral/gpio/cy_gpio.h **** __STATIC_INLINE uint32_t Cy_GPIO_GetSlewRate(GPIO_PRT_Type* base, uint32_t pinNum);
 564:Generated_Source\PSoC6\pdl\drivers/peripheral/gpio/cy_gpio.h **** __STATIC_INLINE void Cy_GPIO_SetDriveSel(GPIO_PRT_Type* base, uint32_t pinNum, uint32_t value);
 565:Generated_Source\PSoC6\pdl\drivers/peripheral/gpio/cy_gpio.h **** __STATIC_INLINE uint32_t Cy_GPIO_GetDriveSel(GPIO_PRT_Type* base, uint32_t pinNum);
 566:Generated_Source\PSoC6\pdl\drivers/peripheral/gpio/cy_gpio.h **** 
 567:Generated_Source\PSoC6\pdl\drivers/peripheral/gpio/cy_gpio.h **** /** \} group_gpio_functions_gpio */
 568:Generated_Source\PSoC6\pdl\drivers/peripheral/gpio/cy_gpio.h **** 
 569:Generated_Source\PSoC6\pdl\drivers/peripheral/gpio/cy_gpio.h **** /**
 570:Generated_Source\PSoC6\pdl\drivers/peripheral/gpio/cy_gpio.h **** * \addtogroup group_gpio_functions_sio
 571:Generated_Source\PSoC6\pdl\drivers/peripheral/gpio/cy_gpio.h **** * \{
 572:Generated_Source\PSoC6\pdl\drivers/peripheral/gpio/cy_gpio.h **** */
 573:Generated_Source\PSoC6\pdl\drivers/peripheral/gpio/cy_gpio.h **** 
 574:Generated_Source\PSoC6\pdl\drivers/peripheral/gpio/cy_gpio.h **** __STATIC_INLINE void Cy_GPIO_SetVregEn(GPIO_PRT_Type* base, uint32_t pinNum, uint32_t value);
 575:Generated_Source\PSoC6\pdl\drivers/peripheral/gpio/cy_gpio.h **** __STATIC_INLINE uint32_t Cy_GPIO_GetVregEn(GPIO_PRT_Type* base, uint32_t pinNum);
 576:Generated_Source\PSoC6\pdl\drivers/peripheral/gpio/cy_gpio.h **** __STATIC_INLINE void Cy_GPIO_SetIbufMode(GPIO_PRT_Type* base, uint32_t pinNum, uint32_t value);
 577:Generated_Source\PSoC6\pdl\drivers/peripheral/gpio/cy_gpio.h **** __STATIC_INLINE uint32_t Cy_GPIO_GetIbufMode(GPIO_PRT_Type* base, uint32_t pinNum);
 578:Generated_Source\PSoC6\pdl\drivers/peripheral/gpio/cy_gpio.h **** __STATIC_INLINE void Cy_GPIO_SetVtripSel(GPIO_PRT_Type* base, uint32_t pinNum, uint32_t value);
 579:Generated_Source\PSoC6\pdl\drivers/peripheral/gpio/cy_gpio.h **** __STATIC_INLINE uint32_t Cy_GPIO_GetVtripSel(GPIO_PRT_Type* base, uint32_t pinNum);
 580:Generated_Source\PSoC6\pdl\drivers/peripheral/gpio/cy_gpio.h **** __STATIC_INLINE void Cy_GPIO_SetVrefSel(GPIO_PRT_Type* base, uint32_t pinNum, uint32_t value);
 581:Generated_Source\PSoC6\pdl\drivers/peripheral/gpio/cy_gpio.h **** __STATIC_INLINE uint32_t Cy_GPIO_GetVrefSel(GPIO_PRT_Type* base, uint32_t pinNum);
 582:Generated_Source\PSoC6\pdl\drivers/peripheral/gpio/cy_gpio.h **** __STATIC_INLINE void Cy_GPIO_SetVohSel(GPIO_PRT_Type* base, uint32_t pinNum, uint32_t value);
 583:Generated_Source\PSoC6\pdl\drivers/peripheral/gpio/cy_gpio.h **** __STATIC_INLINE uint32_t Cy_GPIO_GetVohSel(GPIO_PRT_Type* base, uint32_t pinNum);
 584:Generated_Source\PSoC6\pdl\drivers/peripheral/gpio/cy_gpio.h **** 
 585:Generated_Source\PSoC6\pdl\drivers/peripheral/gpio/cy_gpio.h **** /** \} group_gpio_functions_sio */
 586:Generated_Source\PSoC6\pdl\drivers/peripheral/gpio/cy_gpio.h **** 
 587:Generated_Source\PSoC6\pdl\drivers/peripheral/gpio/cy_gpio.h **** /**
 588:Generated_Source\PSoC6\pdl\drivers/peripheral/gpio/cy_gpio.h **** * \addtogroup group_gpio_functions_interrupt
 589:Generated_Source\PSoC6\pdl\drivers/peripheral/gpio/cy_gpio.h **** * \{
 590:Generated_Source\PSoC6\pdl\drivers/peripheral/gpio/cy_gpio.h **** */
 591:Generated_Source\PSoC6\pdl\drivers/peripheral/gpio/cy_gpio.h **** 
 592:Generated_Source\PSoC6\pdl\drivers/peripheral/gpio/cy_gpio.h **** __STATIC_INLINE uint32_t Cy_GPIO_GetInterruptStatus(GPIO_PRT_Type* base, uint32_t pinNum);
 593:Generated_Source\PSoC6\pdl\drivers/peripheral/gpio/cy_gpio.h **** __STATIC_INLINE void Cy_GPIO_ClearInterrupt(GPIO_PRT_Type* base, uint32_t pinNum);
 594:Generated_Source\PSoC6\pdl\drivers/peripheral/gpio/cy_gpio.h **** __STATIC_INLINE void Cy_GPIO_SetInterruptMask(GPIO_PRT_Type* base, uint32_t pinNum, uint32_t value)
ARM GAS  C:\Users\haske\AppData\Local\Temp\cckhubq2.s 			page 13


 595:Generated_Source\PSoC6\pdl\drivers/peripheral/gpio/cy_gpio.h **** __STATIC_INLINE uint32_t Cy_GPIO_GetInterruptMask(GPIO_PRT_Type* base, uint32_t pinNum);
 596:Generated_Source\PSoC6\pdl\drivers/peripheral/gpio/cy_gpio.h **** __STATIC_INLINE uint32_t Cy_GPIO_GetInterruptStatusMasked(GPIO_PRT_Type* base, uint32_t pinNum);
 597:Generated_Source\PSoC6\pdl\drivers/peripheral/gpio/cy_gpio.h **** __STATIC_INLINE void Cy_GPIO_SetSwInterrupt(GPIO_PRT_Type* base, uint32_t pinNum);
 598:Generated_Source\PSoC6\pdl\drivers/peripheral/gpio/cy_gpio.h **** __STATIC_INLINE void Cy_GPIO_SetInterruptEdge(GPIO_PRT_Type* base, uint32_t pinNum, uint32_t value)
 599:Generated_Source\PSoC6\pdl\drivers/peripheral/gpio/cy_gpio.h **** __STATIC_INLINE uint32_t Cy_GPIO_GetInterruptEdge(GPIO_PRT_Type* base, uint32_t pinNum);
 600:Generated_Source\PSoC6\pdl\drivers/peripheral/gpio/cy_gpio.h **** __STATIC_INLINE void Cy_GPIO_SetFilter(GPIO_PRT_Type* base, uint32_t value);
 601:Generated_Source\PSoC6\pdl\drivers/peripheral/gpio/cy_gpio.h **** __STATIC_INLINE uint32_t Cy_GPIO_GetFilter(GPIO_PRT_Type* base);
 602:Generated_Source\PSoC6\pdl\drivers/peripheral/gpio/cy_gpio.h **** 
 603:Generated_Source\PSoC6\pdl\drivers/peripheral/gpio/cy_gpio.h **** __STATIC_INLINE uint32_t Cy_GPIO_GetInterruptCause0(void);
 604:Generated_Source\PSoC6\pdl\drivers/peripheral/gpio/cy_gpio.h **** __STATIC_INLINE uint32_t Cy_GPIO_GetInterruptCause1(void);
 605:Generated_Source\PSoC6\pdl\drivers/peripheral/gpio/cy_gpio.h **** __STATIC_INLINE uint32_t Cy_GPIO_GetInterruptCause2(void);
 606:Generated_Source\PSoC6\pdl\drivers/peripheral/gpio/cy_gpio.h **** __STATIC_INLINE uint32_t Cy_GPIO_GetInterruptCause3(void);
 607:Generated_Source\PSoC6\pdl\drivers/peripheral/gpio/cy_gpio.h **** 
 608:Generated_Source\PSoC6\pdl\drivers/peripheral/gpio/cy_gpio.h **** /** \} group_gpio_functions_interrupt */
 609:Generated_Source\PSoC6\pdl\drivers/peripheral/gpio/cy_gpio.h **** 
 610:Generated_Source\PSoC6\pdl\drivers/peripheral/gpio/cy_gpio.h **** 
 611:Generated_Source\PSoC6\pdl\drivers/peripheral/gpio/cy_gpio.h **** /**
 612:Generated_Source\PSoC6\pdl\drivers/peripheral/gpio/cy_gpio.h **** * \addtogroup group_gpio_functions_init
 613:Generated_Source\PSoC6\pdl\drivers/peripheral/gpio/cy_gpio.h **** * \{
 614:Generated_Source\PSoC6\pdl\drivers/peripheral/gpio/cy_gpio.h **** */
 615:Generated_Source\PSoC6\pdl\drivers/peripheral/gpio/cy_gpio.h **** 
 616:Generated_Source\PSoC6\pdl\drivers/peripheral/gpio/cy_gpio.h **** /*******************************************************************************
 617:Generated_Source\PSoC6\pdl\drivers/peripheral/gpio/cy_gpio.h **** * Function Name: Cy_GPIO_SetHSIOM
 618:Generated_Source\PSoC6\pdl\drivers/peripheral/gpio/cy_gpio.h **** ****************************************************************************//**
 619:Generated_Source\PSoC6\pdl\drivers/peripheral/gpio/cy_gpio.h **** *
 620:Generated_Source\PSoC6\pdl\drivers/peripheral/gpio/cy_gpio.h **** * Configures the HSIOM connection to the pin.
 621:Generated_Source\PSoC6\pdl\drivers/peripheral/gpio/cy_gpio.h **** *
 622:Generated_Source\PSoC6\pdl\drivers/peripheral/gpio/cy_gpio.h **** * Connects the specified High-Speed Input Output Multiplexer (HSIOM) selection
 623:Generated_Source\PSoC6\pdl\drivers/peripheral/gpio/cy_gpio.h **** * to the pin.
 624:Generated_Source\PSoC6\pdl\drivers/peripheral/gpio/cy_gpio.h **** *
 625:Generated_Source\PSoC6\pdl\drivers/peripheral/gpio/cy_gpio.h **** * \param base
 626:Generated_Source\PSoC6\pdl\drivers/peripheral/gpio/cy_gpio.h **** * Pointer to the pin's port register base address
 627:Generated_Source\PSoC6\pdl\drivers/peripheral/gpio/cy_gpio.h **** *
 628:Generated_Source\PSoC6\pdl\drivers/peripheral/gpio/cy_gpio.h **** * \param pinNum
 629:Generated_Source\PSoC6\pdl\drivers/peripheral/gpio/cy_gpio.h **** * Position of the pin bit-field within the port register
 630:Generated_Source\PSoC6\pdl\drivers/peripheral/gpio/cy_gpio.h **** *
 631:Generated_Source\PSoC6\pdl\drivers/peripheral/gpio/cy_gpio.h **** * \param value
 632:Generated_Source\PSoC6\pdl\drivers/peripheral/gpio/cy_gpio.h **** * HSIOM input selection
 633:Generated_Source\PSoC6\pdl\drivers/peripheral/gpio/cy_gpio.h **** *
 634:Generated_Source\PSoC6\pdl\drivers/peripheral/gpio/cy_gpio.h **** * \note 
 635:Generated_Source\PSoC6\pdl\drivers/peripheral/gpio/cy_gpio.h **** * This function modifies a port register in a read-modify-write operation. It is
 636:Generated_Source\PSoC6\pdl\drivers/peripheral/gpio/cy_gpio.h **** * not thread safe as the resource is shared among multiple pins on a port.
 637:Generated_Source\PSoC6\pdl\drivers/peripheral/gpio/cy_gpio.h **** *
 638:Generated_Source\PSoC6\pdl\drivers/peripheral/gpio/cy_gpio.h **** * \funcusage
 639:Generated_Source\PSoC6\pdl\drivers/peripheral/gpio/cy_gpio.h **** * \snippet gpio/gpio_v1_10_sut_01.cydsn/main_cm4.c snippet_Cy_GPIO_SetHSIOM
 640:Generated_Source\PSoC6\pdl\drivers/peripheral/gpio/cy_gpio.h **** *
 641:Generated_Source\PSoC6\pdl\drivers/peripheral/gpio/cy_gpio.h **** *******************************************************************************/
 642:Generated_Source\PSoC6\pdl\drivers/peripheral/gpio/cy_gpio.h **** __STATIC_INLINE void Cy_GPIO_SetHSIOM(GPIO_PRT_Type* base, uint32_t pinNum, en_hsiom_sel_t value)
 643:Generated_Source\PSoC6\pdl\drivers/peripheral/gpio/cy_gpio.h **** {
 644:Generated_Source\PSoC6\pdl\drivers/peripheral/gpio/cy_gpio.h ****     uint32_t portNum;
 645:Generated_Source\PSoC6\pdl\drivers/peripheral/gpio/cy_gpio.h ****     uint32_t tempReg;
 646:Generated_Source\PSoC6\pdl\drivers/peripheral/gpio/cy_gpio.h ****     HSIOM_PRT_V1_Type* portAddrHSIOM;
 647:Generated_Source\PSoC6\pdl\drivers/peripheral/gpio/cy_gpio.h **** 
 648:Generated_Source\PSoC6\pdl\drivers/peripheral/gpio/cy_gpio.h ****     CY_ASSERT_L2(CY_GPIO_IS_PIN_VALID(pinNum));
 649:Generated_Source\PSoC6\pdl\drivers/peripheral/gpio/cy_gpio.h ****     CY_ASSERT_L2(CY_GPIO_IS_HSIOM_VALID(value));
 650:Generated_Source\PSoC6\pdl\drivers/peripheral/gpio/cy_gpio.h **** 
 651:Generated_Source\PSoC6\pdl\drivers/peripheral/gpio/cy_gpio.h ****     portNum = ((uint32_t)(base) - CY_GPIO_BASE) / GPIO_PRT_SECTION_SIZE;
ARM GAS  C:\Users\haske\AppData\Local\Temp\cckhubq2.s 			page 14


 652:Generated_Source\PSoC6\pdl\drivers/peripheral/gpio/cy_gpio.h ****     portAddrHSIOM = (HSIOM_PRT_V1_Type*)(CY_HSIOM_BASE + (HSIOM_PRT_SECTION_SIZE * portNum));
 653:Generated_Source\PSoC6\pdl\drivers/peripheral/gpio/cy_gpio.h **** 
 654:Generated_Source\PSoC6\pdl\drivers/peripheral/gpio/cy_gpio.h ****     if(pinNum < CY_GPIO_PRT_HALF)
 655:Generated_Source\PSoC6\pdl\drivers/peripheral/gpio/cy_gpio.h ****     {
 656:Generated_Source\PSoC6\pdl\drivers/peripheral/gpio/cy_gpio.h ****         tempReg = HSIOM_PRT_PORT_SEL0(portAddrHSIOM) & ~(CY_GPIO_HSIOM_MASK << (pinNum << CY_GPIO_H
 657:Generated_Source\PSoC6\pdl\drivers/peripheral/gpio/cy_gpio.h ****         HSIOM_PRT_PORT_SEL0(portAddrHSIOM) = tempReg | ((value & CY_GPIO_HSIOM_MASK) << (pinNum << 
 658:Generated_Source\PSoC6\pdl\drivers/peripheral/gpio/cy_gpio.h ****     }
 659:Generated_Source\PSoC6\pdl\drivers/peripheral/gpio/cy_gpio.h ****     else
 660:Generated_Source\PSoC6\pdl\drivers/peripheral/gpio/cy_gpio.h ****     {
 661:Generated_Source\PSoC6\pdl\drivers/peripheral/gpio/cy_gpio.h ****         pinNum -= CY_GPIO_PRT_HALF;
 662:Generated_Source\PSoC6\pdl\drivers/peripheral/gpio/cy_gpio.h ****         tempReg = HSIOM_PRT_PORT_SEL1(portAddrHSIOM) & ~(CY_GPIO_HSIOM_MASK << (pinNum << CY_GPIO_H
 663:Generated_Source\PSoC6\pdl\drivers/peripheral/gpio/cy_gpio.h ****         HSIOM_PRT_PORT_SEL1(portAddrHSIOM) = tempReg | ((value & CY_GPIO_HSIOM_MASK) << (pinNum << 
 664:Generated_Source\PSoC6\pdl\drivers/peripheral/gpio/cy_gpio.h ****     }
 665:Generated_Source\PSoC6\pdl\drivers/peripheral/gpio/cy_gpio.h **** }
 666:Generated_Source\PSoC6\pdl\drivers/peripheral/gpio/cy_gpio.h **** 
 667:Generated_Source\PSoC6\pdl\drivers/peripheral/gpio/cy_gpio.h **** 
 668:Generated_Source\PSoC6\pdl\drivers/peripheral/gpio/cy_gpio.h **** /*******************************************************************************
 669:Generated_Source\PSoC6\pdl\drivers/peripheral/gpio/cy_gpio.h **** * Function Name: Cy_GPIO_GetHSIOM
 670:Generated_Source\PSoC6\pdl\drivers/peripheral/gpio/cy_gpio.h **** ****************************************************************************//**
 671:Generated_Source\PSoC6\pdl\drivers/peripheral/gpio/cy_gpio.h **** *
 672:Generated_Source\PSoC6\pdl\drivers/peripheral/gpio/cy_gpio.h **** * Returns the current HSIOM multiplexer connection to the pin.
 673:Generated_Source\PSoC6\pdl\drivers/peripheral/gpio/cy_gpio.h **** *
 674:Generated_Source\PSoC6\pdl\drivers/peripheral/gpio/cy_gpio.h **** * \param base
 675:Generated_Source\PSoC6\pdl\drivers/peripheral/gpio/cy_gpio.h **** * Pointer to the pin's port register base address
 676:Generated_Source\PSoC6\pdl\drivers/peripheral/gpio/cy_gpio.h **** *
 677:Generated_Source\PSoC6\pdl\drivers/peripheral/gpio/cy_gpio.h **** * \param pinNum
 678:Generated_Source\PSoC6\pdl\drivers/peripheral/gpio/cy_gpio.h **** * Position of the pin bit-field within the port register
 679:Generated_Source\PSoC6\pdl\drivers/peripheral/gpio/cy_gpio.h **** *
 680:Generated_Source\PSoC6\pdl\drivers/peripheral/gpio/cy_gpio.h **** * \return
 681:Generated_Source\PSoC6\pdl\drivers/peripheral/gpio/cy_gpio.h **** * HSIOM input selection
 682:Generated_Source\PSoC6\pdl\drivers/peripheral/gpio/cy_gpio.h **** *
 683:Generated_Source\PSoC6\pdl\drivers/peripheral/gpio/cy_gpio.h **** * \funcusage
 684:Generated_Source\PSoC6\pdl\drivers/peripheral/gpio/cy_gpio.h **** * \snippet gpio/gpio_v1_10_sut_01.cydsn/main_cm4.c snippet_Cy_GPIO_SetHSIOM
 685:Generated_Source\PSoC6\pdl\drivers/peripheral/gpio/cy_gpio.h **** *
 686:Generated_Source\PSoC6\pdl\drivers/peripheral/gpio/cy_gpio.h **** *******************************************************************************/
 687:Generated_Source\PSoC6\pdl\drivers/peripheral/gpio/cy_gpio.h **** __STATIC_INLINE en_hsiom_sel_t Cy_GPIO_GetHSIOM(GPIO_PRT_Type* base, uint32_t pinNum)
 688:Generated_Source\PSoC6\pdl\drivers/peripheral/gpio/cy_gpio.h **** {
 689:Generated_Source\PSoC6\pdl\drivers/peripheral/gpio/cy_gpio.h ****     uint32_t returnValue;
 690:Generated_Source\PSoC6\pdl\drivers/peripheral/gpio/cy_gpio.h ****     uint32_t portNum;
 691:Generated_Source\PSoC6\pdl\drivers/peripheral/gpio/cy_gpio.h ****     HSIOM_PRT_V1_Type* portAddrHSIOM;
 692:Generated_Source\PSoC6\pdl\drivers/peripheral/gpio/cy_gpio.h ****     
 693:Generated_Source\PSoC6\pdl\drivers/peripheral/gpio/cy_gpio.h ****     CY_ASSERT_L2(CY_GPIO_IS_PIN_VALID(pinNum));
 694:Generated_Source\PSoC6\pdl\drivers/peripheral/gpio/cy_gpio.h **** 
 695:Generated_Source\PSoC6\pdl\drivers/peripheral/gpio/cy_gpio.h ****     portNum = ((uint32_t)(base) - CY_GPIO_BASE) / GPIO_PRT_SECTION_SIZE;
 696:Generated_Source\PSoC6\pdl\drivers/peripheral/gpio/cy_gpio.h ****     portAddrHSIOM = (HSIOM_PRT_V1_Type*)(CY_HSIOM_BASE + (HSIOM_PRT_SECTION_SIZE * portNum));
 697:Generated_Source\PSoC6\pdl\drivers/peripheral/gpio/cy_gpio.h **** 
 698:Generated_Source\PSoC6\pdl\drivers/peripheral/gpio/cy_gpio.h ****     if(pinNum < CY_GPIO_PRT_HALF)
 699:Generated_Source\PSoC6\pdl\drivers/peripheral/gpio/cy_gpio.h ****     {
 700:Generated_Source\PSoC6\pdl\drivers/peripheral/gpio/cy_gpio.h ****         returnValue = (HSIOM_PRT_PORT_SEL0(portAddrHSIOM) >> (pinNum << CY_GPIO_HSIOM_OFFSET)) & CY
 701:Generated_Source\PSoC6\pdl\drivers/peripheral/gpio/cy_gpio.h ****     }
 702:Generated_Source\PSoC6\pdl\drivers/peripheral/gpio/cy_gpio.h ****     else
 703:Generated_Source\PSoC6\pdl\drivers/peripheral/gpio/cy_gpio.h ****     {
 704:Generated_Source\PSoC6\pdl\drivers/peripheral/gpio/cy_gpio.h ****         pinNum -= CY_GPIO_PRT_HALF;
 705:Generated_Source\PSoC6\pdl\drivers/peripheral/gpio/cy_gpio.h ****         returnValue = (HSIOM_PRT_PORT_SEL1(portAddrHSIOM) >> (pinNum << CY_GPIO_HSIOM_OFFSET)) & CY
 706:Generated_Source\PSoC6\pdl\drivers/peripheral/gpio/cy_gpio.h ****     }
 707:Generated_Source\PSoC6\pdl\drivers/peripheral/gpio/cy_gpio.h **** 
 708:Generated_Source\PSoC6\pdl\drivers/peripheral/gpio/cy_gpio.h ****     return (en_hsiom_sel_t)returnValue;
ARM GAS  C:\Users\haske\AppData\Local\Temp\cckhubq2.s 			page 15


 709:Generated_Source\PSoC6\pdl\drivers/peripheral/gpio/cy_gpio.h **** }
 710:Generated_Source\PSoC6\pdl\drivers/peripheral/gpio/cy_gpio.h **** 
 711:Generated_Source\PSoC6\pdl\drivers/peripheral/gpio/cy_gpio.h **** 
 712:Generated_Source\PSoC6\pdl\drivers/peripheral/gpio/cy_gpio.h **** /*******************************************************************************
 713:Generated_Source\PSoC6\pdl\drivers/peripheral/gpio/cy_gpio.h **** * Function Name: Cy_GPIO_PortToAddr
 714:Generated_Source\PSoC6\pdl\drivers/peripheral/gpio/cy_gpio.h **** ****************************************************************************//**
 715:Generated_Source\PSoC6\pdl\drivers/peripheral/gpio/cy_gpio.h **** *
 716:Generated_Source\PSoC6\pdl\drivers/peripheral/gpio/cy_gpio.h **** * Retrieves the port address based on the given port number.
 717:Generated_Source\PSoC6\pdl\drivers/peripheral/gpio/cy_gpio.h **** *
 718:Generated_Source\PSoC6\pdl\drivers/peripheral/gpio/cy_gpio.h **** * This is a helper function to calculate the port base address when given a port
 719:Generated_Source\PSoC6\pdl\drivers/peripheral/gpio/cy_gpio.h **** * number. It is to be used when pin access needs to be calculated at runtime.
 720:Generated_Source\PSoC6\pdl\drivers/peripheral/gpio/cy_gpio.h **** *
 721:Generated_Source\PSoC6\pdl\drivers/peripheral/gpio/cy_gpio.h **** * \param portNum
 722:Generated_Source\PSoC6\pdl\drivers/peripheral/gpio/cy_gpio.h **** * Port number
 723:Generated_Source\PSoC6\pdl\drivers/peripheral/gpio/cy_gpio.h **** *
 724:Generated_Source\PSoC6\pdl\drivers/peripheral/gpio/cy_gpio.h **** * \return
 725:Generated_Source\PSoC6\pdl\drivers/peripheral/gpio/cy_gpio.h **** * Base address of the port register structure
 726:Generated_Source\PSoC6\pdl\drivers/peripheral/gpio/cy_gpio.h **** *
 727:Generated_Source\PSoC6\pdl\drivers/peripheral/gpio/cy_gpio.h **** * \funcusage
 728:Generated_Source\PSoC6\pdl\drivers/peripheral/gpio/cy_gpio.h **** * \snippet gpio/gpio_v1_10_sut_01.cydsn/main_cm4.c snippet_Cy_GPIO_PortToAddr
 729:Generated_Source\PSoC6\pdl\drivers/peripheral/gpio/cy_gpio.h **** *
 730:Generated_Source\PSoC6\pdl\drivers/peripheral/gpio/cy_gpio.h **** *******************************************************************************/
 731:Generated_Source\PSoC6\pdl\drivers/peripheral/gpio/cy_gpio.h **** __STATIC_INLINE GPIO_PRT_Type* Cy_GPIO_PortToAddr(uint32_t portNum)
 732:Generated_Source\PSoC6\pdl\drivers/peripheral/gpio/cy_gpio.h **** {
 733:Generated_Source\PSoC6\pdl\drivers/peripheral/gpio/cy_gpio.h ****     GPIO_PRT_Type* portBase;
 734:Generated_Source\PSoC6\pdl\drivers/peripheral/gpio/cy_gpio.h ****     
 735:Generated_Source\PSoC6\pdl\drivers/peripheral/gpio/cy_gpio.h ****     if(portNum < (uint32_t)IOSS_GPIO_GPIO_PORT_NR)
 736:Generated_Source\PSoC6\pdl\drivers/peripheral/gpio/cy_gpio.h ****     {
 737:Generated_Source\PSoC6\pdl\drivers/peripheral/gpio/cy_gpio.h ****         portBase = (GPIO_PRT_Type *)(CY_GPIO_BASE + (GPIO_PRT_SECTION_SIZE * portNum));
 738:Generated_Source\PSoC6\pdl\drivers/peripheral/gpio/cy_gpio.h ****     }
 739:Generated_Source\PSoC6\pdl\drivers/peripheral/gpio/cy_gpio.h ****     else
 740:Generated_Source\PSoC6\pdl\drivers/peripheral/gpio/cy_gpio.h ****     {
 741:Generated_Source\PSoC6\pdl\drivers/peripheral/gpio/cy_gpio.h ****         /* Error: Return default base address */
 742:Generated_Source\PSoC6\pdl\drivers/peripheral/gpio/cy_gpio.h ****         portBase = (GPIO_PRT_Type *)(CY_GPIO_BASE);
 743:Generated_Source\PSoC6\pdl\drivers/peripheral/gpio/cy_gpio.h ****     }
 744:Generated_Source\PSoC6\pdl\drivers/peripheral/gpio/cy_gpio.h **** 
 745:Generated_Source\PSoC6\pdl\drivers/peripheral/gpio/cy_gpio.h ****     return (portBase);
 746:Generated_Source\PSoC6\pdl\drivers/peripheral/gpio/cy_gpio.h **** }
 747:Generated_Source\PSoC6\pdl\drivers/peripheral/gpio/cy_gpio.h **** 
 748:Generated_Source\PSoC6\pdl\drivers/peripheral/gpio/cy_gpio.h **** /** \} group_gpio_functions_init */
 749:Generated_Source\PSoC6\pdl\drivers/peripheral/gpio/cy_gpio.h **** 
 750:Generated_Source\PSoC6\pdl\drivers/peripheral/gpio/cy_gpio.h **** /**
 751:Generated_Source\PSoC6\pdl\drivers/peripheral/gpio/cy_gpio.h **** * \addtogroup group_gpio_functions_gpio
 752:Generated_Source\PSoC6\pdl\drivers/peripheral/gpio/cy_gpio.h **** * \{
 753:Generated_Source\PSoC6\pdl\drivers/peripheral/gpio/cy_gpio.h **** */
 754:Generated_Source\PSoC6\pdl\drivers/peripheral/gpio/cy_gpio.h **** 
 755:Generated_Source\PSoC6\pdl\drivers/peripheral/gpio/cy_gpio.h **** /*******************************************************************************
 756:Generated_Source\PSoC6\pdl\drivers/peripheral/gpio/cy_gpio.h **** * Function Name: Cy_GPIO_Read
 757:Generated_Source\PSoC6\pdl\drivers/peripheral/gpio/cy_gpio.h **** ****************************************************************************//**
 758:Generated_Source\PSoC6\pdl\drivers/peripheral/gpio/cy_gpio.h **** *
 759:Generated_Source\PSoC6\pdl\drivers/peripheral/gpio/cy_gpio.h **** * Reads the current logic level on the input buffer of the pin.
 760:Generated_Source\PSoC6\pdl\drivers/peripheral/gpio/cy_gpio.h **** *
 761:Generated_Source\PSoC6\pdl\drivers/peripheral/gpio/cy_gpio.h **** * \param base
 762:Generated_Source\PSoC6\pdl\drivers/peripheral/gpio/cy_gpio.h **** * Pointer to the pin's port register base address
 763:Generated_Source\PSoC6\pdl\drivers/peripheral/gpio/cy_gpio.h **** *
 764:Generated_Source\PSoC6\pdl\drivers/peripheral/gpio/cy_gpio.h **** * \param pinNum
 765:Generated_Source\PSoC6\pdl\drivers/peripheral/gpio/cy_gpio.h **** * Position of the pin bit-field within the port register.
ARM GAS  C:\Users\haske\AppData\Local\Temp\cckhubq2.s 			page 16


 766:Generated_Source\PSoC6\pdl\drivers/peripheral/gpio/cy_gpio.h **** * Bit position 8 is the routed pin through the port glitch filter.
 767:Generated_Source\PSoC6\pdl\drivers/peripheral/gpio/cy_gpio.h **** *
 768:Generated_Source\PSoC6\pdl\drivers/peripheral/gpio/cy_gpio.h **** * \return
 769:Generated_Source\PSoC6\pdl\drivers/peripheral/gpio/cy_gpio.h **** * Logic level present on the pin
 770:Generated_Source\PSoC6\pdl\drivers/peripheral/gpio/cy_gpio.h **** *
 771:Generated_Source\PSoC6\pdl\drivers/peripheral/gpio/cy_gpio.h **** * \funcusage
 772:Generated_Source\PSoC6\pdl\drivers/peripheral/gpio/cy_gpio.h **** * \snippet gpio/gpio_v1_10_sut_01.cydsn/main_cm4.c snippet_Cy_GPIO_Read
 773:Generated_Source\PSoC6\pdl\drivers/peripheral/gpio/cy_gpio.h **** *
 774:Generated_Source\PSoC6\pdl\drivers/peripheral/gpio/cy_gpio.h **** *******************************************************************************/
 775:Generated_Source\PSoC6\pdl\drivers/peripheral/gpio/cy_gpio.h **** __STATIC_INLINE uint32_t Cy_GPIO_Read(GPIO_PRT_Type* base, uint32_t pinNum)
 776:Generated_Source\PSoC6\pdl\drivers/peripheral/gpio/cy_gpio.h **** {
 777:Generated_Source\PSoC6\pdl\drivers/peripheral/gpio/cy_gpio.h ****     CY_ASSERT_L2(CY_GPIO_IS_FILTER_PIN_VALID(pinNum));
 778:Generated_Source\PSoC6\pdl\drivers/peripheral/gpio/cy_gpio.h ****     
 779:Generated_Source\PSoC6\pdl\drivers/peripheral/gpio/cy_gpio.h ****     return (GPIO_PRT_IN(base) >> (pinNum)) & CY_GPIO_IN_MASK;
 780:Generated_Source\PSoC6\pdl\drivers/peripheral/gpio/cy_gpio.h **** }
 781:Generated_Source\PSoC6\pdl\drivers/peripheral/gpio/cy_gpio.h **** 
 782:Generated_Source\PSoC6\pdl\drivers/peripheral/gpio/cy_gpio.h **** 
 783:Generated_Source\PSoC6\pdl\drivers/peripheral/gpio/cy_gpio.h **** /*******************************************************************************
 784:Generated_Source\PSoC6\pdl\drivers/peripheral/gpio/cy_gpio.h **** * Function Name: Cy_GPIO_Write
 785:Generated_Source\PSoC6\pdl\drivers/peripheral/gpio/cy_gpio.h **** ****************************************************************************//**
 786:Generated_Source\PSoC6\pdl\drivers/peripheral/gpio/cy_gpio.h **** *
 787:Generated_Source\PSoC6\pdl\drivers/peripheral/gpio/cy_gpio.h **** * Write a logic 0 or logic 1 state to the output driver.
 788:Generated_Source\PSoC6\pdl\drivers/peripheral/gpio/cy_gpio.h **** *
 789:Generated_Source\PSoC6\pdl\drivers/peripheral/gpio/cy_gpio.h **** * This function should be used only for software driven pins. It does not have
 790:Generated_Source\PSoC6\pdl\drivers/peripheral/gpio/cy_gpio.h **** * any effect on peripheral driven pins.
 791:Generated_Source\PSoC6\pdl\drivers/peripheral/gpio/cy_gpio.h **** *
 792:Generated_Source\PSoC6\pdl\drivers/peripheral/gpio/cy_gpio.h **** * \param base
 793:Generated_Source\PSoC6\pdl\drivers/peripheral/gpio/cy_gpio.h **** * Pointer to the pin's port register base address
 794:Generated_Source\PSoC6\pdl\drivers/peripheral/gpio/cy_gpio.h **** *
 795:Generated_Source\PSoC6\pdl\drivers/peripheral/gpio/cy_gpio.h **** * \param pinNum
 796:Generated_Source\PSoC6\pdl\drivers/peripheral/gpio/cy_gpio.h **** * Position of the pin bit-field within the port register
 797:Generated_Source\PSoC6\pdl\drivers/peripheral/gpio/cy_gpio.h **** *
 798:Generated_Source\PSoC6\pdl\drivers/peripheral/gpio/cy_gpio.h **** * \param value
 799:Generated_Source\PSoC6\pdl\drivers/peripheral/gpio/cy_gpio.h **** * Logic level to drive out on the pin
 800:Generated_Source\PSoC6\pdl\drivers/peripheral/gpio/cy_gpio.h **** *
 801:Generated_Source\PSoC6\pdl\drivers/peripheral/gpio/cy_gpio.h **** * \funcusage
 802:Generated_Source\PSoC6\pdl\drivers/peripheral/gpio/cy_gpio.h **** * \snippet gpio/gpio_v1_10_sut_01.cydsn/main_cm4.c snippet_Cy_GPIO_Write
 803:Generated_Source\PSoC6\pdl\drivers/peripheral/gpio/cy_gpio.h **** *
 804:Generated_Source\PSoC6\pdl\drivers/peripheral/gpio/cy_gpio.h **** *******************************************************************************/
 805:Generated_Source\PSoC6\pdl\drivers/peripheral/gpio/cy_gpio.h **** __STATIC_INLINE void Cy_GPIO_Write(GPIO_PRT_Type* base, uint32_t pinNum, uint32_t value)
 806:Generated_Source\PSoC6\pdl\drivers/peripheral/gpio/cy_gpio.h **** {
 807:Generated_Source\PSoC6\pdl\drivers/peripheral/gpio/cy_gpio.h ****     CY_ASSERT_L2(CY_GPIO_IS_PIN_VALID(pinNum));
 808:Generated_Source\PSoC6\pdl\drivers/peripheral/gpio/cy_gpio.h ****     CY_ASSERT_L2(CY_GPIO_IS_VALUE_VALID(value));
 809:Generated_Source\PSoC6\pdl\drivers/peripheral/gpio/cy_gpio.h **** 
 810:Generated_Source\PSoC6\pdl\drivers/peripheral/gpio/cy_gpio.h ****     /* Thread-safe: Directly access the pin registers instead of base->OUT */
 811:Generated_Source\PSoC6\pdl\drivers/peripheral/gpio/cy_gpio.h ****     if(0UL == value)
 812:Generated_Source\PSoC6\pdl\drivers/peripheral/gpio/cy_gpio.h ****     {
 813:Generated_Source\PSoC6\pdl\drivers/peripheral/gpio/cy_gpio.h ****         GPIO_PRT_OUT_CLR(base) = CY_GPIO_OUT_MASK << pinNum;
 814:Generated_Source\PSoC6\pdl\drivers/peripheral/gpio/cy_gpio.h ****     }
 815:Generated_Source\PSoC6\pdl\drivers/peripheral/gpio/cy_gpio.h ****     else
 816:Generated_Source\PSoC6\pdl\drivers/peripheral/gpio/cy_gpio.h ****     {
 817:Generated_Source\PSoC6\pdl\drivers/peripheral/gpio/cy_gpio.h ****         GPIO_PRT_OUT_SET(base) = CY_GPIO_OUT_MASK << pinNum;
  47              		.loc 2 817 0
  48 0008 084C     		ldr	r4, .L3+4
  49 000a 0825     		movs	r5, #8
  50 000c A560     		str	r5, [r4, #8]
  51              	.LVL1:
ARM GAS  C:\Users\haske\AppData\Local\Temp\cckhubq2.s 			page 17


  52              	.LBE52:
  53              	.LBE51:
  54              	.LBB53:
  55              	.LBB54:
  56 000e 084E     		ldr	r6, .L3+8
  57 0010 0427     		movs	r7, #4
  58 0012 B760     		str	r7, [r6, #8]
  59              	.LVL2:
  60              	.LBE54:
  61              	.LBE53:
  45:..\..\PainDrain\PainDrain.cydsn/tens.c ****     
  46:..\..\PainDrain\PainDrain.cydsn/tens.c ****     // Channel 1 Positive Direction
  47:..\..\PainDrain\PainDrain.cydsn/tens.c ****     Cy_GPIO_Write(TENS_USER_EN1_PORT, TENS_USER_EN1_NUM, 1);        
  48:..\..\PainDrain\PainDrain.cydsn/tens.c ****     Cy_GPIO_Write(TENS_POS1_PORT, TENS_POS1_NUM, 1);
  49:..\..\PainDrain\PainDrain.cydsn/tens.c ****     
  50:..\..\PainDrain\PainDrain.cydsn/tens.c ****     CyDelayUs(tens_one_dur_us);
  62              		.loc 1 50 0
  63 0014 074B     		ldr	r3, .L3+12
  64 0016 1888     		ldrh	r0, [r3]
  65 0018 FFF7FEFF 		bl	Cy_SysLib_DelayUs
  66              	.LVL3:
  51:..\..\PainDrain\PainDrain.cydsn/tens.c ****     
  52:..\..\PainDrain\PainDrain.cydsn/tens.c ****     //Off state in between
  53:..\..\PainDrain\PainDrain.cydsn/tens.c ****     DBG_PRINTF("Channel 1 Off state in between \r\n");
  67              		.loc 1 53 0
  68 001c 0648     		ldr	r0, .L3+16
  69 001e FFF7FEFF 		bl	myprintf
  70              	.LVL4:
  71              	.LBB55:
  72              	.LBB56:
 813:Generated_Source\PSoC6\pdl\drivers/peripheral/gpio/cy_gpio.h ****     }
  73              		.loc 2 813 0
  74 0022 7760     		str	r7, [r6, #4]
  75              	.LVL5:
  76              	.LBE56:
  77              	.LBE55:
  78              	.LBB57:
  79              	.LBB58:
  80 0024 6560     		str	r5, [r4, #4]
  81              	.LVL6:
  82 0026 F8BD     		pop	{r3, r4, r5, r6, r7, pc}
  83              	.L4:
  84              		.align	2
  85              	.L3:
  86 0028 00000000 		.word	.LC0
  87 002c 00033240 		.word	1077019392
  88 0030 00053240 		.word	1077019904
  89 0034 00000000 		.word	.LANCHOR0
  90 0038 24000000 		.word	.LC1
  91              	.LBE58:
  92              	.LBE57:
  93              		.cfi_endproc
  94              	.LFE864:
  95              		.size	set_channel_one, .-set_channel_one
  96              		.section	.text.tens_timer,"ax",%progbits
  97              		.align	2
  98              		.global	tens_timer
ARM GAS  C:\Users\haske\AppData\Local\Temp\cckhubq2.s 			page 18


  99              		.thumb
 100              		.thumb_func
 101              		.type	tens_timer, %function
 102              	tens_timer:
 103              	.LFB863:
  31:..\..\PainDrain\PainDrain.cydsn/tens.c ****     if (tens_timeout > 0) {
 104              		.loc 1 31 0
 105              		.cfi_startproc
 106              		@ args = 0, pretend = 0, frame = 0
 107              		@ frame_needed = 0, uses_anonymous_args = 0
  32:..\..\PainDrain\PainDrain.cydsn/tens.c ****         tens_timeout -= TENS_TIMER_INTERVAL_MS;
 108              		.loc 1 32 0
 109 0000 094B     		ldr	r3, .L9
 110 0002 1968     		ldr	r1, [r3]
 111 0004 0029     		cmp	r1, #0
 112 0006 0EDD     		ble	.L8
  31:..\..\PainDrain\PainDrain.cydsn/tens.c ****     if (tens_timeout > 0) {
 113              		.loc 1 31 0
 114 0008 10B5     		push	{r4, lr}
 115              		.cfi_def_cfa_offset 8
 116              		.cfi_offset 4, -8
 117              		.cfi_offset 14, -4
  33:..\..\PainDrain\PainDrain.cydsn/tens.c ****         DBG_PRINTF("tens_timeout: %d \r\n", tens_timeout);
 118              		.loc 1 33 0
 119 000a 0A39     		subs	r1, r1, #10
 120 000c 1C46     		mov	r4, r3
 121 000e 1960     		str	r1, [r3]
  34:..\..\PainDrain\PainDrain.cydsn/tens.c ****         if (tens_timeout < 0) {
 122              		.loc 1 34 0
 123 0010 0648     		ldr	r0, .L9+4
 124 0012 FFF7FEFF 		bl	myprintf
 125              	.LVL7:
  35:..\..\PainDrain\PainDrain.cydsn/tens.c ****             tens_timeout = 0;
 126              		.loc 1 35 0
 127 0016 2368     		ldr	r3, [r4]
 128 0018 002B     		cmp	r3, #0
 129 001a 03DA     		bge	.L5
  36:..\..\PainDrain\PainDrain.cydsn/tens.c ****             tens_full_timeout = tens_timeout;
 130              		.loc 1 36 0
 131 001c 0023     		movs	r3, #0
 132 001e 2360     		str	r3, [r4]
  37:..\..\PainDrain\PainDrain.cydsn/tens.c ****         }
 133              		.loc 1 37 0
 134 0020 034A     		ldr	r2, .L9+8
 135 0022 5360     		str	r3, [r2, #4]
 136              	.L5:
 137 0024 10BD     		pop	{r4, pc}
 138              	.L8:
 139              		.cfi_def_cfa_offset 0
 140              		.cfi_restore 4
 141              		.cfi_restore 14
 142 0026 7047     		bx	lr
 143              	.L10:
 144              		.align	2
 145              	.L9:
 146 0028 00000000 		.word	.LANCHOR1
 147 002c 48000000 		.word	.LC2
ARM GAS  C:\Users\haske\AppData\Local\Temp\cckhubq2.s 			page 19


 148 0030 00000000 		.word	.LANCHOR0
 149              		.cfi_endproc
 150              	.LFE863:
 151              		.size	tens_timer, .-tens_timer
 152              		.section	.text.set_tens_task,"ax",%progbits
 153              		.align	2
 154              		.global	set_tens_task
 155              		.thumb
 156              		.thumb_func
 157              		.type	set_tens_task, %function
 158              	set_tens_task:
 159              	.LFB865:
  54:..\..\PainDrain\PainDrain.cydsn/tens.c ****     
  55:..\..\PainDrain\PainDrain.cydsn/tens.c ****     // Channel 1 Negative Direction
  56:..\..\PainDrain\PainDrain.cydsn/tens.c ****     Cy_GPIO_Write(TENS_POS1_PORT, TENS_POS1_NUM, 0);
  57:..\..\PainDrain\PainDrain.cydsn/tens.c ****     Cy_GPIO_Write(TENS_USER_EN1_PORT, TENS_USER_EN1_NUM, 0);  
  58:..\..\PainDrain\PainDrain.cydsn/tens.c **** }
  59:..\..\PainDrain\PainDrain.cydsn/tens.c **** 
  60:..\..\PainDrain\PainDrain.cydsn/tens.c **** void set_tens_task( void ) {
 160              		.loc 1 60 0
 161              		.cfi_startproc
 162              		@ args = 0, pretend = 0, frame = 0
 163              		@ frame_needed = 0, uses_anonymous_args = 0
 164 0000 70B5     		push	{r4, r5, r6, lr}
 165              		.cfi_def_cfa_offset 16
 166              		.cfi_offset 4, -16
 167              		.cfi_offset 5, -12
 168              		.cfi_offset 6, -8
 169              		.cfi_offset 14, -4
  61:..\..\PainDrain\PainDrain.cydsn/tens.c ****     // Checks if there is a phase delay selected and executes at 50% of the tens_timer for 180 degr
  62:..\..\PainDrain\PainDrain.cydsn/tens.c ****     if(tens_phase_shift > 0 && (tens_timeout == tens_full_timeout/2) && tens_one_dur_us > 0){
 170              		.loc 1 62 0
 171 0002 244B     		ldr	r3, .L18
 172 0004 9A68     		ldr	r2, [r3, #8]
 173 0006 002A     		cmp	r2, #0
 174 0008 0EDD     		ble	.L12
 175              		.loc 1 62 0 is_stmt 0 discriminator 1
 176 000a 5B68     		ldr	r3, [r3, #4]
 177 000c 03EBD373 		add	r3, r3, r3, lsr #31
 178 0010 2149     		ldr	r1, .L18+4
 179 0012 0968     		ldr	r1, [r1]
 180 0014 B1EB630F 		cmp	r1, r3, asr #1
 181 0018 06D1     		bne	.L12
 182              		.loc 1 62 0 discriminator 2
 183 001a 1E4B     		ldr	r3, .L18
 184 001c 1B68     		ldr	r3, [r3]
 185 001e 002B     		cmp	r3, #0
 186 0020 02DD     		ble	.L12
  63:..\..\PainDrain\PainDrain.cydsn/tens.c ****         set_channel_one();
 187              		.loc 1 63 0 is_stmt 1
 188 0022 FFF7FEFF 		bl	set_channel_one
 189              	.LVL8:
 190 0026 0AE0     		b	.L13
 191              	.L12:
  64:..\..\PainDrain\PainDrain.cydsn/tens.c ****     } else if (tens_phase_shift <= 0 && tens_timeout == 0 && tens_one_dur_us > 0){
 192              		.loc 1 64 0
 193 0028 002A     		cmp	r2, #0
ARM GAS  C:\Users\haske\AppData\Local\Temp\cckhubq2.s 			page 20


 194 002a 08DC     		bgt	.L13
 195              		.loc 1 64 0 is_stmt 0 discriminator 1
 196 002c 1A4B     		ldr	r3, .L18+4
 197 002e 1B68     		ldr	r3, [r3]
 198 0030 2BB9     		cbnz	r3, .L13
 199              		.loc 1 64 0 discriminator 2
 200 0032 184B     		ldr	r3, .L18
 201 0034 1B68     		ldr	r3, [r3]
 202 0036 002B     		cmp	r3, #0
 203 0038 01DD     		ble	.L13
  65:..\..\PainDrain\PainDrain.cydsn/tens.c ****         set_channel_one();
 204              		.loc 1 65 0 is_stmt 1
 205 003a FFF7FEFF 		bl	set_channel_one
 206              	.LVL9:
 207              	.L13:
  66:..\..\PainDrain\PainDrain.cydsn/tens.c ****     }
  67:..\..\PainDrain\PainDrain.cydsn/tens.c ****     // Checks if Channel 2 is on, otherwise update the tens_timeout
  68:..\..\PainDrain\PainDrain.cydsn/tens.c ****     if (tens_timeout == 0 && tens_two_dur_us > 0) {
 208              		.loc 1 68 0
 209 003e 164B     		ldr	r3, .L18+4
 210 0040 1B68     		ldr	r3, [r3]
 211 0042 ABB9     		cbnz	r3, .L14
 212              		.loc 1 68 0 is_stmt 0 discriminator 1
 213 0044 134A     		ldr	r2, .L18
 214 0046 D268     		ldr	r2, [r2, #12]
 215 0048 002A     		cmp	r2, #0
 216 004a 11DD     		ble	.L14
  69:..\..\PainDrain\PainDrain.cydsn/tens.c ****         //On positive direction
  70:..\..\PainDrain\PainDrain.cydsn/tens.c ****         DBG_PRINTF("Channel 2 On positive direction \r\n");
 217              		.loc 1 70 0 is_stmt 1
 218 004c 1348     		ldr	r0, .L18+8
 219 004e FFF7FEFF 		bl	myprintf
 220              	.LVL10:
 221              	.LBB59:
 222              	.LBB60:
 223              		.loc 2 817 0
 224 0052 134D     		ldr	r5, .L18+12
 225 0054 8024     		movs	r4, #128
 226 0056 AC60     		str	r4, [r5, #8]
 227              	.LVL11:
 228              	.LBE60:
 229              	.LBE59:
 230              	.LBB61:
 231              	.LBB62:
 232 0058 124E     		ldr	r6, .L18+16
 233 005a B460     		str	r4, [r6, #8]
 234              	.LVL12:
 235              	.LBE62:
 236              	.LBE61:
  71:..\..\PainDrain\PainDrain.cydsn/tens.c ****             
  72:..\..\PainDrain\PainDrain.cydsn/tens.c ****         // Channel 2 Positive Direction
  73:..\..\PainDrain\PainDrain.cydsn/tens.c ****         Cy_GPIO_Write(TENS_USER_EN2_PORT, TENS_USER_EN2_NUM, 1);
  74:..\..\PainDrain\PainDrain.cydsn/tens.c ****         Cy_GPIO_Write(TENS_POS2_PORT, TENS_POS2_NUM, 1);
  75:..\..\PainDrain\PainDrain.cydsn/tens.c ****         
  76:..\..\PainDrain\PainDrain.cydsn/tens.c ****         CyDelayUs(tens_two_dur_us);
 237              		.loc 1 76 0
 238 005c 0D4B     		ldr	r3, .L18
ARM GAS  C:\Users\haske\AppData\Local\Temp\cckhubq2.s 			page 21


 239 005e 9889     		ldrh	r0, [r3, #12]
 240 0060 FFF7FEFF 		bl	Cy_SysLib_DelayUs
 241              	.LVL13:
  77:..\..\PainDrain\PainDrain.cydsn/tens.c ****         
  78:..\..\PainDrain\PainDrain.cydsn/tens.c ****         //Off state in between
  79:..\..\PainDrain\PainDrain.cydsn/tens.c ****         DBG_PRINTF("Channel 2 Off state in between \r\n");
 242              		.loc 1 79 0
 243 0064 1048     		ldr	r0, .L18+20
 244 0066 FFF7FEFF 		bl	myprintf
 245              	.LVL14:
 246              	.LBB63:
 247              	.LBB64:
 813:Generated_Source\PSoC6\pdl\drivers/peripheral/gpio/cy_gpio.h ****     }
 248              		.loc 2 813 0
 249 006a 7460     		str	r4, [r6, #4]
 250              	.LVL15:
 251              	.LBE64:
 252              	.LBE63:
 253              	.LBB65:
 254              	.LBB66:
 255 006c 6C60     		str	r4, [r5, #4]
 256 006e 70BD     		pop	{r4, r5, r6, pc}
 257              	.LVL16:
 258              	.L14:
 259              	.LBE66:
 260              	.LBE65:
  80:..\..\PainDrain\PainDrain.cydsn/tens.c ****         
  81:..\..\PainDrain\PainDrain.cydsn/tens.c ****         // Channel 2 Negative Direction
  82:..\..\PainDrain\PainDrain.cydsn/tens.c ****         Cy_GPIO_Write(TENS_POS2_PORT, TENS_POS2_NUM, 0);
  83:..\..\PainDrain\PainDrain.cydsn/tens.c ****         Cy_GPIO_Write(TENS_USER_EN2_PORT, TENS_USER_EN2_NUM, 0);
  84:..\..\PainDrain\PainDrain.cydsn/tens.c ****     } else if (tens_timeout == 0 && tens_interval_ms > 0 && (tens_one_dur_us > 0 || tens_two_dur_us
 261              		.loc 1 84 0
 262 0070 7BB9     		cbnz	r3, .L11
 263              		.loc 1 84 0 is_stmt 0 discriminator 1
 264 0072 084B     		ldr	r3, .L18
 265 0074 1B69     		ldr	r3, [r3, #16]
 266 0076 002B     		cmp	r3, #0
 267 0078 0BDD     		ble	.L11
 268              		.loc 1 84 0 discriminator 2
 269 007a 064A     		ldr	r2, .L18
 270 007c 1268     		ldr	r2, [r2]
 271 007e 002A     		cmp	r2, #0
 272 0080 03DC     		bgt	.L16
 273              		.loc 1 84 0 discriminator 3
 274 0082 044A     		ldr	r2, .L18
 275 0084 D268     		ldr	r2, [r2, #12]
 276 0086 002A     		cmp	r2, #0
 277 0088 03DD     		ble	.L11
 278              	.L16:
  85:..\..\PainDrain\PainDrain.cydsn/tens.c ****         tens_timeout = tens_interval_ms;
 279              		.loc 1 85 0 is_stmt 1
 280 008a 034A     		ldr	r2, .L18+4
 281 008c 1360     		str	r3, [r2]
  86:..\..\PainDrain\PainDrain.cydsn/tens.c ****         tens_full_timeout = tens_timeout;     
 282              		.loc 1 86 0
 283 008e 014A     		ldr	r2, .L18
 284 0090 5360     		str	r3, [r2, #4]
ARM GAS  C:\Users\haske\AppData\Local\Temp\cckhubq2.s 			page 22


 285              	.L11:
 286 0092 70BD     		pop	{r4, r5, r6, pc}
 287              	.L19:
 288              		.align	2
 289              	.L18:
 290 0094 00000000 		.word	.LANCHOR0
 291 0098 00000000 		.word	.LANCHOR1
 292 009c 5C000000 		.word	.LC3
 293 00a0 80033240 		.word	1077019520
 294 00a4 00063240 		.word	1077020160
 295 00a8 80000000 		.word	.LC4
 296              		.cfi_endproc
 297              	.LFE865:
 298              		.size	set_tens_task, .-set_tens_task
 299              		.global	__aeabi_dmul
 300              		.global	__aeabi_d2iz
 301              		.section	.text.set_tens_freq,"ax",%progbits
 302              		.align	2
 303              		.global	set_tens_freq
 304              		.thumb
 305              		.thumb_func
 306              		.type	set_tens_freq, %function
 307              	set_tens_freq:
 308              	.LFB866:
  87:..\..\PainDrain\PainDrain.cydsn/tens.c ****     }
  88:..\..\PainDrain\PainDrain.cydsn/tens.c **** }
  89:..\..\PainDrain\PainDrain.cydsn/tens.c **** 
  90:..\..\PainDrain\PainDrain.cydsn/tens.c **** void set_tens_freq (double period) {
 309              		.loc 1 90 0
 310              		.cfi_startproc
 311              		@ args = 0, pretend = 0, frame = 0
 312              		@ frame_needed = 0, uses_anonymous_args = 0
 313              	.LVL17:
 314 0000 10B5     		push	{r4, lr}
 315              		.cfi_def_cfa_offset 8
 316              		.cfi_offset 4, -8
 317              		.cfi_offset 14, -4
  91:..\..\PainDrain\PainDrain.cydsn/tens.c ****     
  92:..\..\PainDrain\PainDrain.cydsn/tens.c ****     tens_interval_ms = (int) (period*TENS_INTERVAL_MS);
 318              		.loc 1 92 0
 319 0002 0022     		movs	r2, #0
 320 0004 084B     		ldr	r3, .L23
 321 0006 FFF7FEFF 		bl	__aeabi_dmul
 322              	.LVL18:
 323 000a FFF7FEFF 		bl	__aeabi_d2iz
 324              	.LVL19:
 325 000e 0146     		mov	r1, r0
 326 0010 064C     		ldr	r4, .L23+4
 327 0012 2061     		str	r0, [r4, #16]
  93:..\..\PainDrain\PainDrain.cydsn/tens.c ****     
  94:..\..\PainDrain\PainDrain.cydsn/tens.c ****     DBG_PRINTF("tens_interval_ms: %d \r\n", tens_interval_ms);
 328              		.loc 1 94 0
 329 0014 0648     		ldr	r0, .L23+8
 330 0016 FFF7FEFF 		bl	myprintf
 331              	.LVL20:
  95:..\..\PainDrain\PainDrain.cydsn/tens.c ****     if (tens_interval_ms > 0) {
 332              		.loc 1 95 0
ARM GAS  C:\Users\haske\AppData\Local\Temp\cckhubq2.s 			page 23


 333 001a 2369     		ldr	r3, [r4, #16]
 334 001c 002B     		cmp	r3, #0
 335 001e 02DD     		ble	.L20
  96:..\..\PainDrain\PainDrain.cydsn/tens.c ****         tens_timeout = tens_interval_ms;
 336              		.loc 1 96 0
 337 0020 044A     		ldr	r2, .L23+12
 338 0022 1360     		str	r3, [r2]
  97:..\..\PainDrain\PainDrain.cydsn/tens.c ****         tens_full_timeout = tens_timeout;
 339              		.loc 1 97 0
 340 0024 6360     		str	r3, [r4, #4]
 341              	.L20:
 342 0026 10BD     		pop	{r4, pc}
 343              	.L24:
 344              		.align	2
 345              	.L23:
 346 0028 00005940 		.word	1079574528
 347 002c 00000000 		.word	.LANCHOR0
 348 0030 A4000000 		.word	.LC5
 349 0034 00000000 		.word	.LANCHOR1
 350              		.cfi_endproc
 351              	.LFE866:
 352              		.size	set_tens_freq, .-set_tens_freq
 353              		.section	.text.set_tens_dur,"ax",%progbits
 354              		.align	2
 355              		.global	set_tens_dur
 356              		.thumb
 357              		.thumb_func
 358              		.type	set_tens_dur, %function
 359              	set_tens_dur:
 360              	.LFB867:
  98:..\..\PainDrain\PainDrain.cydsn/tens.c ****     }
  99:..\..\PainDrain\PainDrain.cydsn/tens.c **** }
 100:..\..\PainDrain\PainDrain.cydsn/tens.c **** 
 101:..\..\PainDrain\PainDrain.cydsn/tens.c **** void set_tens_dur(int duration, int32 *tens_dur_us){
 361              		.loc 1 101 0
 362              		.cfi_startproc
 363              		@ args = 0, pretend = 0, frame = 0
 364              		@ frame_needed = 0, uses_anonymous_args = 0
 365              		@ link register save eliminated.
 366              	.LVL21:
 102:..\..\PainDrain\PainDrain.cydsn/tens.c ****     switch (duration) {
 367              		.loc 1 102 0
 368 0000 0138     		subs	r0, r0, #1
 369              	.LVL22:
 370 0002 0928     		cmp	r0, #9
 371 0004 06D8     		bhi	.L26
 372 0006 DFE800F0 		tbb	[pc, r0]
 373              	.L28:
 374 000a 08       		.byte	(.L27-.L28)/2
 375 000b 0B       		.byte	(.L29-.L28)/2
 376 000c 0E       		.byte	(.L30-.L28)/2
 377 000d 12       		.byte	(.L31-.L28)/2
 378 000e 16       		.byte	(.L32-.L28)/2
 379 000f 1A       		.byte	(.L33-.L28)/2
 380 0010 1E       		.byte	(.L34-.L28)/2
 381 0011 22       		.byte	(.L35-.L28)/2
 382 0012 26       		.byte	(.L36-.L28)/2
ARM GAS  C:\Users\haske\AppData\Local\Temp\cckhubq2.s 			page 24


 383 0013 2A       		.byte	(.L37-.L28)/2
 384              		.p2align 1
 385              	.L26:
 103:..\..\PainDrain\PainDrain.cydsn/tens.c ****         default: *tens_dur_us = 0; break;   
 386              		.loc 1 103 0
 387 0014 0023     		movs	r3, #0
 388 0016 0B60     		str	r3, [r1]
 389 0018 7047     		bx	lr
 390              	.L27:
 104:..\..\PainDrain\PainDrain.cydsn/tens.c ****         case 1: *tens_dur_us = 100; break;
 391              		.loc 1 104 0
 392 001a 6423     		movs	r3, #100
 393 001c 0B60     		str	r3, [r1]
 394 001e 7047     		bx	lr
 395              	.L29:
 105:..\..\PainDrain\PainDrain.cydsn/tens.c ****         case 2: *tens_dur_us = 200; break;
 396              		.loc 1 105 0
 397 0020 C823     		movs	r3, #200
 398 0022 0B60     		str	r3, [r1]
 399 0024 7047     		bx	lr
 400              	.L30:
 106:..\..\PainDrain\PainDrain.cydsn/tens.c ****         case 3: *tens_dur_us = 300; break;
 401              		.loc 1 106 0
 402 0026 4FF49673 		mov	r3, #300
 403 002a 0B60     		str	r3, [r1]
 404 002c 7047     		bx	lr
 405              	.L31:
 107:..\..\PainDrain\PainDrain.cydsn/tens.c ****         case 4: *tens_dur_us = 400; break;
 406              		.loc 1 107 0
 407 002e 4FF4C873 		mov	r3, #400
 408 0032 0B60     		str	r3, [r1]
 409 0034 7047     		bx	lr
 410              	.L32:
 108:..\..\PainDrain\PainDrain.cydsn/tens.c ****         case 5: *tens_dur_us = 500; break;
 411              		.loc 1 108 0
 412 0036 4FF4FA73 		mov	r3, #500
 413 003a 0B60     		str	r3, [r1]
 414 003c 7047     		bx	lr
 415              	.L33:
 109:..\..\PainDrain\PainDrain.cydsn/tens.c ****         case 6: *tens_dur_us = 600; break;
 416              		.loc 1 109 0
 417 003e 4FF41673 		mov	r3, #600
 418 0042 0B60     		str	r3, [r1]
 419 0044 7047     		bx	lr
 420              	.L34:
 110:..\..\PainDrain\PainDrain.cydsn/tens.c ****         case 7: *tens_dur_us = 700; break;
 421              		.loc 1 110 0
 422 0046 4FF42F73 		mov	r3, #700
 423 004a 0B60     		str	r3, [r1]
 424 004c 7047     		bx	lr
 425              	.L35:
 111:..\..\PainDrain\PainDrain.cydsn/tens.c ****         case 8: *tens_dur_us = 800; break;
 426              		.loc 1 111 0
 427 004e 4FF44873 		mov	r3, #800
 428 0052 0B60     		str	r3, [r1]
 429 0054 7047     		bx	lr
 430              	.L36:
ARM GAS  C:\Users\haske\AppData\Local\Temp\cckhubq2.s 			page 25


 112:..\..\PainDrain\PainDrain.cydsn/tens.c ****         case 9: *tens_dur_us = 900; break;
 431              		.loc 1 112 0
 432 0056 4FF46173 		mov	r3, #900
 433 005a 0B60     		str	r3, [r1]
 434 005c 7047     		bx	lr
 435              	.L37:
 113:..\..\PainDrain\PainDrain.cydsn/tens.c ****         case 10: *tens_dur_us = 1000; break;
 436              		.loc 1 113 0
 437 005e 4FF47A73 		mov	r3, #1000
 438 0062 0B60     		str	r3, [r1]
 439 0064 7047     		bx	lr
 440              		.cfi_endproc
 441              	.LFE867:
 442              		.size	set_tens_dur, .-set_tens_dur
 443 0066 00BF     		.section	.text.set_tens_amp,"ax",%progbits
 444              		.align	2
 445              		.global	set_tens_amp
 446              		.thumb
 447              		.thumb_func
 448              		.type	set_tens_amp, %function
 449              	set_tens_amp:
 450              	.LFB868:
 114:..\..\PainDrain\PainDrain.cydsn/tens.c ****     }
 115:..\..\PainDrain\PainDrain.cydsn/tens.c **** }
 116:..\..\PainDrain\PainDrain.cydsn/tens.c **** 
 117:..\..\PainDrain\PainDrain.cydsn/tens.c **** void set_tens_amp (int amplitude) {
 451              		.loc 1 117 0
 452              		.cfi_startproc
 453              		@ args = 0, pretend = 0, frame = 0
 454              		@ frame_needed = 0, uses_anonymous_args = 0
 455              	.LVL23:
 456 0000 38B5     		push	{r3, r4, r5, lr}
 457              		.cfi_def_cfa_offset 16
 458              		.cfi_offset 3, -16
 459              		.cfi_offset 4, -12
 460              		.cfi_offset 5, -8
 461              		.cfi_offset 14, -4
 118:..\..\PainDrain\PainDrain.cydsn/tens.c **** 
 119:..\..\PainDrain\PainDrain.cydsn/tens.c ****     if (amplitude == 0) {
 462              		.loc 1 119 0
 463 0002 50B9     		cbnz	r0, .L40
 464              	.LVL24:
 465              	.LBB67:
 466              	.LBB68:
 467              	.LBB69:
 468              		.file 3 "Generated_Source\\PSoC6\\pdl\\drivers/peripheral/tcpwm/cy_tcpwm_pwm.h"
   1:Generated_Source\PSoC6\pdl\drivers/peripheral/tcpwm/cy_tcpwm_pwm.h **** /***************************************************************************//**
   2:Generated_Source\PSoC6\pdl\drivers/peripheral/tcpwm/cy_tcpwm_pwm.h **** * \file cy_tcpwm_pwm.h
   3:Generated_Source\PSoC6\pdl\drivers/peripheral/tcpwm/cy_tcpwm_pwm.h **** * \version 1.10
   4:Generated_Source\PSoC6\pdl\drivers/peripheral/tcpwm/cy_tcpwm_pwm.h **** *
   5:Generated_Source\PSoC6\pdl\drivers/peripheral/tcpwm/cy_tcpwm_pwm.h **** * \brief
   6:Generated_Source\PSoC6\pdl\drivers/peripheral/tcpwm/cy_tcpwm_pwm.h **** * The header file of the TCPWM PWM driver.
   7:Generated_Source\PSoC6\pdl\drivers/peripheral/tcpwm/cy_tcpwm_pwm.h **** *
   8:Generated_Source\PSoC6\pdl\drivers/peripheral/tcpwm/cy_tcpwm_pwm.h **** ********************************************************************************
   9:Generated_Source\PSoC6\pdl\drivers/peripheral/tcpwm/cy_tcpwm_pwm.h **** * \copyright
  10:Generated_Source\PSoC6\pdl\drivers/peripheral/tcpwm/cy_tcpwm_pwm.h **** * Copyright 2016-2018, Cypress Semiconductor Corporation. All rights reserved.
  11:Generated_Source\PSoC6\pdl\drivers/peripheral/tcpwm/cy_tcpwm_pwm.h **** * You may use this file only in accordance with the license, terms, conditions,
ARM GAS  C:\Users\haske\AppData\Local\Temp\cckhubq2.s 			page 26


  12:Generated_Source\PSoC6\pdl\drivers/peripheral/tcpwm/cy_tcpwm_pwm.h **** * disclaimers, and limitations in the end user license agreement accompanying
  13:Generated_Source\PSoC6\pdl\drivers/peripheral/tcpwm/cy_tcpwm_pwm.h **** * the software package with which this file was provided.
  14:Generated_Source\PSoC6\pdl\drivers/peripheral/tcpwm/cy_tcpwm_pwm.h **** *******************************************************************************/
  15:Generated_Source\PSoC6\pdl\drivers/peripheral/tcpwm/cy_tcpwm_pwm.h **** 
  16:Generated_Source\PSoC6\pdl\drivers/peripheral/tcpwm/cy_tcpwm_pwm.h **** #if !defined(CY_TCPWM_PWM_H)
  17:Generated_Source\PSoC6\pdl\drivers/peripheral/tcpwm/cy_tcpwm_pwm.h **** #define CY_TCPWM_PWM_H
  18:Generated_Source\PSoC6\pdl\drivers/peripheral/tcpwm/cy_tcpwm_pwm.h **** 
  19:Generated_Source\PSoC6\pdl\drivers/peripheral/tcpwm/cy_tcpwm_pwm.h **** #include "cy_tcpwm.h"
  20:Generated_Source\PSoC6\pdl\drivers/peripheral/tcpwm/cy_tcpwm_pwm.h **** 
  21:Generated_Source\PSoC6\pdl\drivers/peripheral/tcpwm/cy_tcpwm_pwm.h **** #if defined(__cplusplus)
  22:Generated_Source\PSoC6\pdl\drivers/peripheral/tcpwm/cy_tcpwm_pwm.h **** extern "C" {
  23:Generated_Source\PSoC6\pdl\drivers/peripheral/tcpwm/cy_tcpwm_pwm.h **** #endif
  24:Generated_Source\PSoC6\pdl\drivers/peripheral/tcpwm/cy_tcpwm_pwm.h **** 
  25:Generated_Source\PSoC6\pdl\drivers/peripheral/tcpwm/cy_tcpwm_pwm.h **** /**
  26:Generated_Source\PSoC6\pdl\drivers/peripheral/tcpwm/cy_tcpwm_pwm.h **** * \addtogroup group_tcpwm_pwm
  27:Generated_Source\PSoC6\pdl\drivers/peripheral/tcpwm/cy_tcpwm_pwm.h **** * Driver API for PWM.
  28:Generated_Source\PSoC6\pdl\drivers/peripheral/tcpwm/cy_tcpwm_pwm.h **** *
  29:Generated_Source\PSoC6\pdl\drivers/peripheral/tcpwm/cy_tcpwm_pwm.h **** * The functions and other declarations used in this part of the driver are in cy_tcpwm_pwm.h. 
  30:Generated_Source\PSoC6\pdl\drivers/peripheral/tcpwm/cy_tcpwm_pwm.h **** * You can also include cy_pdl.h (ModusToolbox only) to get access to all  
  31:Generated_Source\PSoC6\pdl\drivers/peripheral/tcpwm/cy_tcpwm_pwm.h **** * functions and declarations in the PDL.
  32:Generated_Source\PSoC6\pdl\drivers/peripheral/tcpwm/cy_tcpwm_pwm.h **** * \{
  33:Generated_Source\PSoC6\pdl\drivers/peripheral/tcpwm/cy_tcpwm_pwm.h **** */
  34:Generated_Source\PSoC6\pdl\drivers/peripheral/tcpwm/cy_tcpwm_pwm.h **** 
  35:Generated_Source\PSoC6\pdl\drivers/peripheral/tcpwm/cy_tcpwm_pwm.h **** /**
  36:Generated_Source\PSoC6\pdl\drivers/peripheral/tcpwm/cy_tcpwm_pwm.h **** * \defgroup group_tcpwm_macros_pwm          Macros
  37:Generated_Source\PSoC6\pdl\drivers/peripheral/tcpwm/cy_tcpwm_pwm.h **** * \defgroup group_tcpwm_functions_pwm       Functions
  38:Generated_Source\PSoC6\pdl\drivers/peripheral/tcpwm/cy_tcpwm_pwm.h **** * \defgroup group_tcpwm_data_structures_pwm Data Structures
  39:Generated_Source\PSoC6\pdl\drivers/peripheral/tcpwm/cy_tcpwm_pwm.h **** * \} */
  40:Generated_Source\PSoC6\pdl\drivers/peripheral/tcpwm/cy_tcpwm_pwm.h **** 
  41:Generated_Source\PSoC6\pdl\drivers/peripheral/tcpwm/cy_tcpwm_pwm.h **** /**
  42:Generated_Source\PSoC6\pdl\drivers/peripheral/tcpwm/cy_tcpwm_pwm.h **** * \addtogroup group_tcpwm_data_structures_pwm
  43:Generated_Source\PSoC6\pdl\drivers/peripheral/tcpwm/cy_tcpwm_pwm.h **** * \{
  44:Generated_Source\PSoC6\pdl\drivers/peripheral/tcpwm/cy_tcpwm_pwm.h **** */
  45:Generated_Source\PSoC6\pdl\drivers/peripheral/tcpwm/cy_tcpwm_pwm.h **** 
  46:Generated_Source\PSoC6\pdl\drivers/peripheral/tcpwm/cy_tcpwm_pwm.h **** /** PWM configuration structure */
  47:Generated_Source\PSoC6\pdl\drivers/peripheral/tcpwm/cy_tcpwm_pwm.h **** typedef struct cy_stc_tcpwm_pwm_config
  48:Generated_Source\PSoC6\pdl\drivers/peripheral/tcpwm/cy_tcpwm_pwm.h **** {
  49:Generated_Source\PSoC6\pdl\drivers/peripheral/tcpwm/cy_tcpwm_pwm.h ****     uint32_t    pwmMode;            /**< Sets the PWM mode. See \ref group_tcpwm_pwm_modes */
  50:Generated_Source\PSoC6\pdl\drivers/peripheral/tcpwm/cy_tcpwm_pwm.h ****     /** Sets the clock prescaler inside the TCWPM block. See \ref group_tcpwm_pwm_clk_prescalers */
  51:Generated_Source\PSoC6\pdl\drivers/peripheral/tcpwm/cy_tcpwm_pwm.h ****     uint32_t     clockPrescaler;
  52:Generated_Source\PSoC6\pdl\drivers/peripheral/tcpwm/cy_tcpwm_pwm.h ****     uint32_t    pwmAlignment;       /**< Sets the PWM alignment. See \ref group_tcpwm_pwm_alignment
  53:Generated_Source\PSoC6\pdl\drivers/peripheral/tcpwm/cy_tcpwm_pwm.h ****     uint32_t    deadTimeClocks;     /**< The number of dead time-clocks if PWM with dead time is ch
  54:Generated_Source\PSoC6\pdl\drivers/peripheral/tcpwm/cy_tcpwm_pwm.h ****     uint32_t    runMode;            /**< Sets the PWM run mode. See \ref group_tcpwm_pwm_run_modes 
  55:Generated_Source\PSoC6\pdl\drivers/peripheral/tcpwm/cy_tcpwm_pwm.h ****     uint32_t    period0;            /**< Sets the period0 of the pwm */
  56:Generated_Source\PSoC6\pdl\drivers/peripheral/tcpwm/cy_tcpwm_pwm.h ****     uint32_t    period1;            /**< Sets the period1 of the pwm */
  57:Generated_Source\PSoC6\pdl\drivers/peripheral/tcpwm/cy_tcpwm_pwm.h ****     bool        enablePeriodSwap;   /**< Enables swapping of period 0 and period 1 on terminal coun
  58:Generated_Source\PSoC6\pdl\drivers/peripheral/tcpwm/cy_tcpwm_pwm.h ****     uint32_t    compare0;           /**< Sets the value for Compare0 */
  59:Generated_Source\PSoC6\pdl\drivers/peripheral/tcpwm/cy_tcpwm_pwm.h ****     uint32_t    compare1;           /**< Sets the value for Compare1 */
  60:Generated_Source\PSoC6\pdl\drivers/peripheral/tcpwm/cy_tcpwm_pwm.h ****     bool        enableCompareSwap;  /**< If enabled, the compare values are swapped on the terminal
  61:Generated_Source\PSoC6\pdl\drivers/peripheral/tcpwm/cy_tcpwm_pwm.h ****     /** Enables an interrupt on the terminal count, capture or compare. See \ref group_tcpwm_interr
  62:Generated_Source\PSoC6\pdl\drivers/peripheral/tcpwm/cy_tcpwm_pwm.h ****     uint32_t    interruptSources;
  63:Generated_Source\PSoC6\pdl\drivers/peripheral/tcpwm/cy_tcpwm_pwm.h ****     uint32_t    invertPWMOut;       /**< Inverts the PWM output */
  64:Generated_Source\PSoC6\pdl\drivers/peripheral/tcpwm/cy_tcpwm_pwm.h ****     uint32_t    invertPWMOutN;      /**< Inverts the PWM_n output */
  65:Generated_Source\PSoC6\pdl\drivers/peripheral/tcpwm/cy_tcpwm_pwm.h ****     uint32_t    killMode;           /**< Configures the PWM kill modes. See \ref group_tcpwm_pwm_ki
  66:Generated_Source\PSoC6\pdl\drivers/peripheral/tcpwm/cy_tcpwm_pwm.h ****     uint32_t    swapInputMode;      /**< Configures how the swap input behaves. See \ref group_tcpw
  67:Generated_Source\PSoC6\pdl\drivers/peripheral/tcpwm/cy_tcpwm_pwm.h ****     /** Selects which input the swap uses. Inputs are device-specific. See \ref group_tcpwm_input_s
  68:Generated_Source\PSoC6\pdl\drivers/peripheral/tcpwm/cy_tcpwm_pwm.h ****     uint32_t    swapInput;
ARM GAS  C:\Users\haske\AppData\Local\Temp\cckhubq2.s 			page 27


  69:Generated_Source\PSoC6\pdl\drivers/peripheral/tcpwm/cy_tcpwm_pwm.h ****     uint32_t    reloadInputMode;    /**< Configures how the reload input behaves. See \ref group_tc
  70:Generated_Source\PSoC6\pdl\drivers/peripheral/tcpwm/cy_tcpwm_pwm.h ****     /** Selects which input the reload uses. The inputs are device-specific. See \ref group_tcpwm_i
  71:Generated_Source\PSoC6\pdl\drivers/peripheral/tcpwm/cy_tcpwm_pwm.h ****     uint32_t    reloadInput;            
  72:Generated_Source\PSoC6\pdl\drivers/peripheral/tcpwm/cy_tcpwm_pwm.h ****     uint32_t    startInputMode;     /**< Configures how the start input behaves. See \ref group_tcp
  73:Generated_Source\PSoC6\pdl\drivers/peripheral/tcpwm/cy_tcpwm_pwm.h ****     /** Selects which input the start uses. The inputs are device-specific. See \ref group_tcpwm_in
  74:Generated_Source\PSoC6\pdl\drivers/peripheral/tcpwm/cy_tcpwm_pwm.h ****     uint32_t    startInput;                
  75:Generated_Source\PSoC6\pdl\drivers/peripheral/tcpwm/cy_tcpwm_pwm.h ****     uint32_t    killInputMode;      /**< Configures how the kill input behaves. See \ref group_tcpw
  76:Generated_Source\PSoC6\pdl\drivers/peripheral/tcpwm/cy_tcpwm_pwm.h ****     /** Selects which input the kill uses. The inputs are device-specific. See \ref group_tcpwm_inp
  77:Generated_Source\PSoC6\pdl\drivers/peripheral/tcpwm/cy_tcpwm_pwm.h ****     uint32_t    killInput;
  78:Generated_Source\PSoC6\pdl\drivers/peripheral/tcpwm/cy_tcpwm_pwm.h ****     uint32_t    countInputMode;     /**< Configures how the count input behaves. See \ref group_tcp
  79:Generated_Source\PSoC6\pdl\drivers/peripheral/tcpwm/cy_tcpwm_pwm.h ****     /** Selects which input the count uses. The inputs are device-specific. See \ref group_tcpwm_in
  80:Generated_Source\PSoC6\pdl\drivers/peripheral/tcpwm/cy_tcpwm_pwm.h ****     uint32_t    countInput;
  81:Generated_Source\PSoC6\pdl\drivers/peripheral/tcpwm/cy_tcpwm_pwm.h **** }cy_stc_tcpwm_pwm_config_t;
  82:Generated_Source\PSoC6\pdl\drivers/peripheral/tcpwm/cy_tcpwm_pwm.h **** /** \} group_tcpwm_data_structures_pwm */
  83:Generated_Source\PSoC6\pdl\drivers/peripheral/tcpwm/cy_tcpwm_pwm.h **** 
  84:Generated_Source\PSoC6\pdl\drivers/peripheral/tcpwm/cy_tcpwm_pwm.h **** /**
  85:Generated_Source\PSoC6\pdl\drivers/peripheral/tcpwm/cy_tcpwm_pwm.h **** * \addtogroup group_tcpwm_macros_pwm
  86:Generated_Source\PSoC6\pdl\drivers/peripheral/tcpwm/cy_tcpwm_pwm.h **** * \{
  87:Generated_Source\PSoC6\pdl\drivers/peripheral/tcpwm/cy_tcpwm_pwm.h **** * \defgroup group_tcpwm_pwm_run_modes PWM run modes
  88:Generated_Source\PSoC6\pdl\drivers/peripheral/tcpwm/cy_tcpwm_pwm.h **** * \{
  89:Generated_Source\PSoC6\pdl\drivers/peripheral/tcpwm/cy_tcpwm_pwm.h **** * Run modes for the pwm timer.
  90:Generated_Source\PSoC6\pdl\drivers/peripheral/tcpwm/cy_tcpwm_pwm.h **** */
  91:Generated_Source\PSoC6\pdl\drivers/peripheral/tcpwm/cy_tcpwm_pwm.h **** #define CY_TCPWM_PWM_ONESHOT            (1U)    /**< Counter runs once and then stops */
  92:Generated_Source\PSoC6\pdl\drivers/peripheral/tcpwm/cy_tcpwm_pwm.h **** #define CY_TCPWM_PWM_CONTINUOUS         (0U)    /**< Counter runs forever */
  93:Generated_Source\PSoC6\pdl\drivers/peripheral/tcpwm/cy_tcpwm_pwm.h **** /** \} group_tcpwm_pwm_run_modes */
  94:Generated_Source\PSoC6\pdl\drivers/peripheral/tcpwm/cy_tcpwm_pwm.h **** 
  95:Generated_Source\PSoC6\pdl\drivers/peripheral/tcpwm/cy_tcpwm_pwm.h **** /** \defgroup group_tcpwm_pwm_modes PWM modes 
  96:Generated_Source\PSoC6\pdl\drivers/peripheral/tcpwm/cy_tcpwm_pwm.h **** * \{
  97:Generated_Source\PSoC6\pdl\drivers/peripheral/tcpwm/cy_tcpwm_pwm.h **** * Sets the PWM modes.
  98:Generated_Source\PSoC6\pdl\drivers/peripheral/tcpwm/cy_tcpwm_pwm.h **** */
  99:Generated_Source\PSoC6\pdl\drivers/peripheral/tcpwm/cy_tcpwm_pwm.h **** #define CY_TCPWM_PWM_MODE_PWM           (4U) /**< Standard PWM Mode*/
 100:Generated_Source\PSoC6\pdl\drivers/peripheral/tcpwm/cy_tcpwm_pwm.h **** #define CY_TCPWM_PWM_MODE_DEADTIME      (5U)    /**< PWM with deadtime mode*/
 101:Generated_Source\PSoC6\pdl\drivers/peripheral/tcpwm/cy_tcpwm_pwm.h **** #define CY_TCPWM_PWM_MODE_PSEUDORANDOM  (6U)    /**< Pseudo Random PWM */
 102:Generated_Source\PSoC6\pdl\drivers/peripheral/tcpwm/cy_tcpwm_pwm.h **** /** \} group_tcpwm_pwm_modes */
 103:Generated_Source\PSoC6\pdl\drivers/peripheral/tcpwm/cy_tcpwm_pwm.h **** 
 104:Generated_Source\PSoC6\pdl\drivers/peripheral/tcpwm/cy_tcpwm_pwm.h **** /** \defgroup group_tcpwm_pwm_alignment PWM Alignment
 105:Generated_Source\PSoC6\pdl\drivers/peripheral/tcpwm/cy_tcpwm_pwm.h **** * Sets the alignment of the PWM.
 106:Generated_Source\PSoC6\pdl\drivers/peripheral/tcpwm/cy_tcpwm_pwm.h **** * \{
 107:Generated_Source\PSoC6\pdl\drivers/peripheral/tcpwm/cy_tcpwm_pwm.h **** */
 108:Generated_Source\PSoC6\pdl\drivers/peripheral/tcpwm/cy_tcpwm_pwm.h **** #define CY_TCPWM_PWM_LEFT_ALIGN         (0U)     /**< PWM is left aligned, meaning it starts high *
 109:Generated_Source\PSoC6\pdl\drivers/peripheral/tcpwm/cy_tcpwm_pwm.h **** #define CY_TCPWM_PWM_RIGHT_ALIGN        (1U)        /**< PWM is right aligned, meaning it starts lo
 110:Generated_Source\PSoC6\pdl\drivers/peripheral/tcpwm/cy_tcpwm_pwm.h **** /** PWM is centered aligned, terminal count only occurs on underflow */
 111:Generated_Source\PSoC6\pdl\drivers/peripheral/tcpwm/cy_tcpwm_pwm.h **** #define CY_TCPWM_PWM_CENTER_ALIGN       (2U)
 112:Generated_Source\PSoC6\pdl\drivers/peripheral/tcpwm/cy_tcpwm_pwm.h **** /** PWM is asymmetrically aligned, terminal count occurs on overflow and underflow */
 113:Generated_Source\PSoC6\pdl\drivers/peripheral/tcpwm/cy_tcpwm_pwm.h **** #define CY_TCPWM_PWM_ASYMMETRIC_ALIGN   (3U)
 114:Generated_Source\PSoC6\pdl\drivers/peripheral/tcpwm/cy_tcpwm_pwm.h **** /** \} group_tcpwm_pwm_alignment */
 115:Generated_Source\PSoC6\pdl\drivers/peripheral/tcpwm/cy_tcpwm_pwm.h **** 
 116:Generated_Source\PSoC6\pdl\drivers/peripheral/tcpwm/cy_tcpwm_pwm.h **** /** \defgroup group_tcpwm_pwm_kill_modes PWM kill modes
 117:Generated_Source\PSoC6\pdl\drivers/peripheral/tcpwm/cy_tcpwm_pwm.h **** * Sets the kill mode for the PWM.
 118:Generated_Source\PSoC6\pdl\drivers/peripheral/tcpwm/cy_tcpwm_pwm.h **** * \{
 119:Generated_Source\PSoC6\pdl\drivers/peripheral/tcpwm/cy_tcpwm_pwm.h **** */
 120:Generated_Source\PSoC6\pdl\drivers/peripheral/tcpwm/cy_tcpwm_pwm.h **** #define CY_TCPWM_PWM_STOP_ON_KILL       (2U)    /**< PWM stops counting on kill */
 121:Generated_Source\PSoC6\pdl\drivers/peripheral/tcpwm/cy_tcpwm_pwm.h **** #define CY_TCPWM_PWM_SYNCH_KILL         (1U)    /**< PWM output is killed after next TC*/
 122:Generated_Source\PSoC6\pdl\drivers/peripheral/tcpwm/cy_tcpwm_pwm.h **** #define CY_TCPWM_PWM_ASYNC_KILL         (0U)    /**< PWM output is killed instantly */
 123:Generated_Source\PSoC6\pdl\drivers/peripheral/tcpwm/cy_tcpwm_pwm.h **** /** \} group_tcpwm_pwm_kill_modes */
 124:Generated_Source\PSoC6\pdl\drivers/peripheral/tcpwm/cy_tcpwm_pwm.h **** 
 125:Generated_Source\PSoC6\pdl\drivers/peripheral/tcpwm/cy_tcpwm_pwm.h **** /** \defgroup group_tcpwm_pwm_clk_prescalers PWM CLK Prescaler values
ARM GAS  C:\Users\haske\AppData\Local\Temp\cckhubq2.s 			page 28


 126:Generated_Source\PSoC6\pdl\drivers/peripheral/tcpwm/cy_tcpwm_pwm.h **** * \{
 127:Generated_Source\PSoC6\pdl\drivers/peripheral/tcpwm/cy_tcpwm_pwm.h **** * Clock prescaler values.
 128:Generated_Source\PSoC6\pdl\drivers/peripheral/tcpwm/cy_tcpwm_pwm.h **** */
 129:Generated_Source\PSoC6\pdl\drivers/peripheral/tcpwm/cy_tcpwm_pwm.h **** #define CY_TCPWM_PWM_PRESCALER_DIVBY_1      (0U) /**< Divide by 1 */
 130:Generated_Source\PSoC6\pdl\drivers/peripheral/tcpwm/cy_tcpwm_pwm.h **** #define CY_TCPWM_PWM_PRESCALER_DIVBY_2      (1U) /**< Divide by 2 */
 131:Generated_Source\PSoC6\pdl\drivers/peripheral/tcpwm/cy_tcpwm_pwm.h **** #define CY_TCPWM_PWM_PRESCALER_DIVBY_4      (2U) /**< Divide by 4 */
 132:Generated_Source\PSoC6\pdl\drivers/peripheral/tcpwm/cy_tcpwm_pwm.h **** #define CY_TCPWM_PWM_PRESCALER_DIVBY_8      (3U) /**< Divide by 8 */
 133:Generated_Source\PSoC6\pdl\drivers/peripheral/tcpwm/cy_tcpwm_pwm.h **** #define CY_TCPWM_PWM_PRESCALER_DIVBY_16     (4U) /**< Divide by 16 */
 134:Generated_Source\PSoC6\pdl\drivers/peripheral/tcpwm/cy_tcpwm_pwm.h **** #define CY_TCPWM_PWM_PRESCALER_DIVBY_32     (5U) /**< Divide by 32 */
 135:Generated_Source\PSoC6\pdl\drivers/peripheral/tcpwm/cy_tcpwm_pwm.h **** #define CY_TCPWM_PWM_PRESCALER_DIVBY_64     (6U) /**< Divide by 64 */
 136:Generated_Source\PSoC6\pdl\drivers/peripheral/tcpwm/cy_tcpwm_pwm.h **** #define CY_TCPWM_PWM_PRESCALER_DIVBY_128    (7U) /**< Divide by 128 */
 137:Generated_Source\PSoC6\pdl\drivers/peripheral/tcpwm/cy_tcpwm_pwm.h **** /** \} group_tcpwm_pwm_clk_prescalers */
 138:Generated_Source\PSoC6\pdl\drivers/peripheral/tcpwm/cy_tcpwm_pwm.h **** 
 139:Generated_Source\PSoC6\pdl\drivers/peripheral/tcpwm/cy_tcpwm_pwm.h **** /** \defgroup group_tcpwm_pwm_output_invert PWM output invert
 140:Generated_Source\PSoC6\pdl\drivers/peripheral/tcpwm/cy_tcpwm_pwm.h **** * \{
 141:Generated_Source\PSoC6\pdl\drivers/peripheral/tcpwm/cy_tcpwm_pwm.h **** * Output invert modes.
 142:Generated_Source\PSoC6\pdl\drivers/peripheral/tcpwm/cy_tcpwm_pwm.h **** */
 143:Generated_Source\PSoC6\pdl\drivers/peripheral/tcpwm/cy_tcpwm_pwm.h **** #define CY_TCPWM_PWM_INVERT_ENABLE          (1U)  /**< Invert the output mode */
 144:Generated_Source\PSoC6\pdl\drivers/peripheral/tcpwm/cy_tcpwm_pwm.h **** #define CY_TCPWM_PWM_INVERT_DISABLE         (0U)  /**< Do not invert the output mode */
 145:Generated_Source\PSoC6\pdl\drivers/peripheral/tcpwm/cy_tcpwm_pwm.h **** /** \} group_tcpwm_pwm_output_invert */
 146:Generated_Source\PSoC6\pdl\drivers/peripheral/tcpwm/cy_tcpwm_pwm.h **** 
 147:Generated_Source\PSoC6\pdl\drivers/peripheral/tcpwm/cy_tcpwm_pwm.h **** /** \defgroup group_tcpwm_pwm_status PWM Status
 148:Generated_Source\PSoC6\pdl\drivers/peripheral/tcpwm/cy_tcpwm_pwm.h **** * \{
 149:Generated_Source\PSoC6\pdl\drivers/peripheral/tcpwm/cy_tcpwm_pwm.h **** * The counter status.
 150:Generated_Source\PSoC6\pdl\drivers/peripheral/tcpwm/cy_tcpwm_pwm.h **** */
 151:Generated_Source\PSoC6\pdl\drivers/peripheral/tcpwm/cy_tcpwm_pwm.h **** #define CY_TCPWM_PWM_STATUS_DOWN_COUNTING   (0x1UL)        /**< PWM is down counting */
 152:Generated_Source\PSoC6\pdl\drivers/peripheral/tcpwm/cy_tcpwm_pwm.h **** #define CY_TCPWM_PWM_STATUS_UP_COUNTING     (0x2UL)        /**< PWM is up counting */
 153:Generated_Source\PSoC6\pdl\drivers/peripheral/tcpwm/cy_tcpwm_pwm.h **** #define CY_TCPWM_PWM_STATUS_COUNTER_RUNNING (TCPWM_CNT_STATUS_RUNNING_Msk)     /**< PWM counter is 
 154:Generated_Source\PSoC6\pdl\drivers/peripheral/tcpwm/cy_tcpwm_pwm.h **** /** \} group_tcpwm_pwm_status */
 155:Generated_Source\PSoC6\pdl\drivers/peripheral/tcpwm/cy_tcpwm_pwm.h **** /** \} group_tcpwm_macros_pwm */
 156:Generated_Source\PSoC6\pdl\drivers/peripheral/tcpwm/cy_tcpwm_pwm.h **** 
 157:Generated_Source\PSoC6\pdl\drivers/peripheral/tcpwm/cy_tcpwm_pwm.h **** 
 158:Generated_Source\PSoC6\pdl\drivers/peripheral/tcpwm/cy_tcpwm_pwm.h **** /***************************************
 159:Generated_Source\PSoC6\pdl\drivers/peripheral/tcpwm/cy_tcpwm_pwm.h **** *        Registers Constants
 160:Generated_Source\PSoC6\pdl\drivers/peripheral/tcpwm/cy_tcpwm_pwm.h **** ***************************************/
 161:Generated_Source\PSoC6\pdl\drivers/peripheral/tcpwm/cy_tcpwm_pwm.h **** 
 162:Generated_Source\PSoC6\pdl\drivers/peripheral/tcpwm/cy_tcpwm_pwm.h **** /** \cond INTERNAL */
 163:Generated_Source\PSoC6\pdl\drivers/peripheral/tcpwm/cy_tcpwm_pwm.h **** #define CY_TCPWM_PWM_CTRL_SYNC_KILL_OR_STOP_ON_KILL_POS  (2U)
 164:Generated_Source\PSoC6\pdl\drivers/peripheral/tcpwm/cy_tcpwm_pwm.h **** #define CY_TCPWM_PWM_CTRL_SYNC_KILL_OR_STOP_ON_KILL_MASK (0x3UL << CY_TCPWM_PWM_CTRL_SYNC_KILL_OR_S
 165:Generated_Source\PSoC6\pdl\drivers/peripheral/tcpwm/cy_tcpwm_pwm.h **** 
 166:Generated_Source\PSoC6\pdl\drivers/peripheral/tcpwm/cy_tcpwm_pwm.h **** #define CY_TCPWM_PWM_TR_CTRL2_SET           (0UL) /**< Set define for PWM output signal configurati
 167:Generated_Source\PSoC6\pdl\drivers/peripheral/tcpwm/cy_tcpwm_pwm.h **** #define CY_TCPWM_PWM_TR_CTRL2_CLEAR         (1UL) /**< Clear define for PWM output signal configura
 168:Generated_Source\PSoC6\pdl\drivers/peripheral/tcpwm/cy_tcpwm_pwm.h **** #define CY_TCPWM_PWM_TR_CTRL2_INVERT        (2UL) /**< Invert define for PWM output signal configur
 169:Generated_Source\PSoC6\pdl\drivers/peripheral/tcpwm/cy_tcpwm_pwm.h **** #define CY_TCPWM_PWM_TR_CTRL2_NO_CHANGE     (3UL) /**< No change define for PWM output signal confi
 170:Generated_Source\PSoC6\pdl\drivers/peripheral/tcpwm/cy_tcpwm_pwm.h **** 
 171:Generated_Source\PSoC6\pdl\drivers/peripheral/tcpwm/cy_tcpwm_pwm.h **** /** The configuration of PWM output signal in Pseudo Random Mode */
 172:Generated_Source\PSoC6\pdl\drivers/peripheral/tcpwm/cy_tcpwm_pwm.h **** #define CY_TCPWM_PWM_MODE_PR         (_VAL2FLD(TCPWM_CNT_TR_CTRL2_CC_MATCH_MODE, CY_TCPWM_PWM_TR_CT
 173:Generated_Source\PSoC6\pdl\drivers/peripheral/tcpwm/cy_tcpwm_pwm.h ****                                       _VAL2FLD(TCPWM_CNT_TR_CTRL2_OVERFLOW_MODE, CY_TCPWM_PWM_TR_CT
 174:Generated_Source\PSoC6\pdl\drivers/peripheral/tcpwm/cy_tcpwm_pwm.h ****                                       _VAL2FLD(TCPWM_CNT_TR_CTRL2_UNDERFLOW_MODE, CY_TCPWM_PWM_TR_C
 175:Generated_Source\PSoC6\pdl\drivers/peripheral/tcpwm/cy_tcpwm_pwm.h **** 
 176:Generated_Source\PSoC6\pdl\drivers/peripheral/tcpwm/cy_tcpwm_pwm.h **** /** The configuration of PWM output signal for Left alignment */
 177:Generated_Source\PSoC6\pdl\drivers/peripheral/tcpwm/cy_tcpwm_pwm.h **** #define CY_TCPWM_PWM_MODE_LEFT       (_VAL2FLD(TCPWM_CNT_TR_CTRL2_CC_MATCH_MODE, CY_TCPWM_PWM_TR_CT
 178:Generated_Source\PSoC6\pdl\drivers/peripheral/tcpwm/cy_tcpwm_pwm.h ****                                       _VAL2FLD(TCPWM_CNT_TR_CTRL2_OVERFLOW_MODE, CY_TCPWM_PWM_TR_CT
 179:Generated_Source\PSoC6\pdl\drivers/peripheral/tcpwm/cy_tcpwm_pwm.h ****                                       _VAL2FLD(TCPWM_CNT_TR_CTRL2_UNDERFLOW_MODE, CY_TCPWM_PWM_TR_C
 180:Generated_Source\PSoC6\pdl\drivers/peripheral/tcpwm/cy_tcpwm_pwm.h **** 
 181:Generated_Source\PSoC6\pdl\drivers/peripheral/tcpwm/cy_tcpwm_pwm.h **** /** The configuration of PWM output signal for Right alignment */
 182:Generated_Source\PSoC6\pdl\drivers/peripheral/tcpwm/cy_tcpwm_pwm.h **** #define CY_TCPWM_PWM_MODE_RIGHT      (_VAL2FLD(TCPWM_CNT_TR_CTRL2_CC_MATCH_MODE, CY_TCPWM_PWM_TR_CT
ARM GAS  C:\Users\haske\AppData\Local\Temp\cckhubq2.s 			page 29


 183:Generated_Source\PSoC6\pdl\drivers/peripheral/tcpwm/cy_tcpwm_pwm.h ****                                       _VAL2FLD(TCPWM_CNT_TR_CTRL2_OVERFLOW_MODE, CY_TCPWM_PWM_TR_CT
 184:Generated_Source\PSoC6\pdl\drivers/peripheral/tcpwm/cy_tcpwm_pwm.h ****                                       _VAL2FLD(TCPWM_CNT_TR_CTRL2_UNDERFLOW_MODE, CY_TCPWM_PWM_TR_C
 185:Generated_Source\PSoC6\pdl\drivers/peripheral/tcpwm/cy_tcpwm_pwm.h **** 
 186:Generated_Source\PSoC6\pdl\drivers/peripheral/tcpwm/cy_tcpwm_pwm.h **** /** The configuration of PWM output signal for Center and Asymmetric alignment */
 187:Generated_Source\PSoC6\pdl\drivers/peripheral/tcpwm/cy_tcpwm_pwm.h **** #define CY_TCPWM_PWM_MODE_CNTR_OR_ASYMM (_VAL2FLD(TCPWM_CNT_TR_CTRL2_CC_MATCH_MODE, CY_TCPWM_PWM_TR
 188:Generated_Source\PSoC6\pdl\drivers/peripheral/tcpwm/cy_tcpwm_pwm.h ****                                          _VAL2FLD(TCPWM_CNT_TR_CTRL2_OVERFLOW_MODE, CY_TCPWM_PWM_TR
 189:Generated_Source\PSoC6\pdl\drivers/peripheral/tcpwm/cy_tcpwm_pwm.h ****                                          _VAL2FLD(TCPWM_CNT_TR_CTRL2_UNDERFLOW_MODE, CY_TCPWM_PWM_T
 190:Generated_Source\PSoC6\pdl\drivers/peripheral/tcpwm/cy_tcpwm_pwm.h **** /** \endcond */
 191:Generated_Source\PSoC6\pdl\drivers/peripheral/tcpwm/cy_tcpwm_pwm.h **** 
 192:Generated_Source\PSoC6\pdl\drivers/peripheral/tcpwm/cy_tcpwm_pwm.h **** 
 193:Generated_Source\PSoC6\pdl\drivers/peripheral/tcpwm/cy_tcpwm_pwm.h **** /*******************************************************************************
 194:Generated_Source\PSoC6\pdl\drivers/peripheral/tcpwm/cy_tcpwm_pwm.h **** *        Function Prototypes
 195:Generated_Source\PSoC6\pdl\drivers/peripheral/tcpwm/cy_tcpwm_pwm.h **** *******************************************************************************/
 196:Generated_Source\PSoC6\pdl\drivers/peripheral/tcpwm/cy_tcpwm_pwm.h **** 
 197:Generated_Source\PSoC6\pdl\drivers/peripheral/tcpwm/cy_tcpwm_pwm.h **** /**
 198:Generated_Source\PSoC6\pdl\drivers/peripheral/tcpwm/cy_tcpwm_pwm.h **** * \addtogroup group_tcpwm_functions_pwm
 199:Generated_Source\PSoC6\pdl\drivers/peripheral/tcpwm/cy_tcpwm_pwm.h **** * \{
 200:Generated_Source\PSoC6\pdl\drivers/peripheral/tcpwm/cy_tcpwm_pwm.h **** */
 201:Generated_Source\PSoC6\pdl\drivers/peripheral/tcpwm/cy_tcpwm_pwm.h **** 
 202:Generated_Source\PSoC6\pdl\drivers/peripheral/tcpwm/cy_tcpwm_pwm.h **** cy_en_tcpwm_status_t Cy_TCPWM_PWM_Init(TCPWM_Type *base, uint32_t cntNum, cy_stc_tcpwm_pwm_config_t
 203:Generated_Source\PSoC6\pdl\drivers/peripheral/tcpwm/cy_tcpwm_pwm.h **** void Cy_TCPWM_PWM_DeInit(TCPWM_Type *base, uint32_t cntNum, cy_stc_tcpwm_pwm_config_t const *config
 204:Generated_Source\PSoC6\pdl\drivers/peripheral/tcpwm/cy_tcpwm_pwm.h **** __STATIC_INLINE void Cy_TCPWM_PWM_Enable(TCPWM_Type *base, uint32_t cntNum);
 205:Generated_Source\PSoC6\pdl\drivers/peripheral/tcpwm/cy_tcpwm_pwm.h **** __STATIC_INLINE void Cy_TCPWM_PWM_Disable(TCPWM_Type *base, uint32_t cntNum);
 206:Generated_Source\PSoC6\pdl\drivers/peripheral/tcpwm/cy_tcpwm_pwm.h **** __STATIC_INLINE uint32_t Cy_TCPWM_PWM_GetStatus(TCPWM_Type const *base, uint32_t cntNum);
 207:Generated_Source\PSoC6\pdl\drivers/peripheral/tcpwm/cy_tcpwm_pwm.h **** __STATIC_INLINE void Cy_TCPWM_PWM_SetCompare0(TCPWM_Type *base, uint32_t cntNum, uint32_t compare0)
 208:Generated_Source\PSoC6\pdl\drivers/peripheral/tcpwm/cy_tcpwm_pwm.h **** __STATIC_INLINE uint32_t Cy_TCPWM_PWM_GetCompare0(TCPWM_Type const *base, uint32_t cntNum);
 209:Generated_Source\PSoC6\pdl\drivers/peripheral/tcpwm/cy_tcpwm_pwm.h **** __STATIC_INLINE void Cy_TCPWM_PWM_SetCompare1(TCPWM_Type *base, uint32_t cntNum, uint32_t compare1)
 210:Generated_Source\PSoC6\pdl\drivers/peripheral/tcpwm/cy_tcpwm_pwm.h **** __STATIC_INLINE uint32_t Cy_TCPWM_PWM_GetCompare1(TCPWM_Type const *base, uint32_t cntNum);
 211:Generated_Source\PSoC6\pdl\drivers/peripheral/tcpwm/cy_tcpwm_pwm.h **** __STATIC_INLINE void Cy_TCPWM_PWM_EnableCompareSwap(TCPWM_Type *base, uint32_t cntNum, bool enable)
 212:Generated_Source\PSoC6\pdl\drivers/peripheral/tcpwm/cy_tcpwm_pwm.h **** __STATIC_INLINE void Cy_TCPWM_PWM_SetCounter(TCPWM_Type *base, uint32_t cntNum, uint32_t count);
 213:Generated_Source\PSoC6\pdl\drivers/peripheral/tcpwm/cy_tcpwm_pwm.h **** __STATIC_INLINE uint32_t Cy_TCPWM_PWM_GetCounter(TCPWM_Type const *base, uint32_t cntNum);
 214:Generated_Source\PSoC6\pdl\drivers/peripheral/tcpwm/cy_tcpwm_pwm.h **** __STATIC_INLINE void Cy_TCPWM_PWM_SetPeriod0(TCPWM_Type *base, uint32_t cntNum, uint32_t period0);
 215:Generated_Source\PSoC6\pdl\drivers/peripheral/tcpwm/cy_tcpwm_pwm.h **** __STATIC_INLINE uint32_t Cy_TCPWM_PWM_GetPeriod0(TCPWM_Type const *base, uint32_t cntNum);
 216:Generated_Source\PSoC6\pdl\drivers/peripheral/tcpwm/cy_tcpwm_pwm.h **** __STATIC_INLINE void Cy_TCPWM_PWM_SetPeriod1(TCPWM_Type *base, uint32_t cntNum, uint32_t period1);
 217:Generated_Source\PSoC6\pdl\drivers/peripheral/tcpwm/cy_tcpwm_pwm.h **** __STATIC_INLINE uint32_t Cy_TCPWM_PWM_GetPeriod1(TCPWM_Type const *base, uint32_t cntNum);
 218:Generated_Source\PSoC6\pdl\drivers/peripheral/tcpwm/cy_tcpwm_pwm.h **** __STATIC_INLINE void Cy_TCPWM_PWM_EnablePeriodSwap(TCPWM_Type *base, uint32_t cntNum, bool enable);
 219:Generated_Source\PSoC6\pdl\drivers/peripheral/tcpwm/cy_tcpwm_pwm.h **** 
 220:Generated_Source\PSoC6\pdl\drivers/peripheral/tcpwm/cy_tcpwm_pwm.h **** 
 221:Generated_Source\PSoC6\pdl\drivers/peripheral/tcpwm/cy_tcpwm_pwm.h **** /*******************************************************************************
 222:Generated_Source\PSoC6\pdl\drivers/peripheral/tcpwm/cy_tcpwm_pwm.h **** * Function Name: Cy_TCPWM_PWM_Enable
 223:Generated_Source\PSoC6\pdl\drivers/peripheral/tcpwm/cy_tcpwm_pwm.h **** ****************************************************************************//**
 224:Generated_Source\PSoC6\pdl\drivers/peripheral/tcpwm/cy_tcpwm_pwm.h **** *
 225:Generated_Source\PSoC6\pdl\drivers/peripheral/tcpwm/cy_tcpwm_pwm.h **** * Enables the counter in the TCPWM block for the PWM operation.
 226:Generated_Source\PSoC6\pdl\drivers/peripheral/tcpwm/cy_tcpwm_pwm.h **** *
 227:Generated_Source\PSoC6\pdl\drivers/peripheral/tcpwm/cy_tcpwm_pwm.h **** * \param base
 228:Generated_Source\PSoC6\pdl\drivers/peripheral/tcpwm/cy_tcpwm_pwm.h **** * The pointer to a TCPWM instance.
 229:Generated_Source\PSoC6\pdl\drivers/peripheral/tcpwm/cy_tcpwm_pwm.h **** *
 230:Generated_Source\PSoC6\pdl\drivers/peripheral/tcpwm/cy_tcpwm_pwm.h **** * \param cntNum 
 231:Generated_Source\PSoC6\pdl\drivers/peripheral/tcpwm/cy_tcpwm_pwm.h **** * The Counter instance number in the selected TCPWM.
 232:Generated_Source\PSoC6\pdl\drivers/peripheral/tcpwm/cy_tcpwm_pwm.h **** *
 233:Generated_Source\PSoC6\pdl\drivers/peripheral/tcpwm/cy_tcpwm_pwm.h **** * \funcusage
 234:Generated_Source\PSoC6\pdl\drivers/peripheral/tcpwm/cy_tcpwm_pwm.h **** * \snippet tcpwm\1.10\pwm\snippet\main.c snippet_Cy_TCPWM_PWM_Init
 235:Generated_Source\PSoC6\pdl\drivers/peripheral/tcpwm/cy_tcpwm_pwm.h **** *
 236:Generated_Source\PSoC6\pdl\drivers/peripheral/tcpwm/cy_tcpwm_pwm.h **** *******************************************************************************/
 237:Generated_Source\PSoC6\pdl\drivers/peripheral/tcpwm/cy_tcpwm_pwm.h **** __STATIC_INLINE void Cy_TCPWM_PWM_Enable(TCPWM_Type *base, uint32_t cntNum)
 238:Generated_Source\PSoC6\pdl\drivers/peripheral/tcpwm/cy_tcpwm_pwm.h **** {
 239:Generated_Source\PSoC6\pdl\drivers/peripheral/tcpwm/cy_tcpwm_pwm.h ****     TCPWM_CTRL_SET(base) = (1UL << cntNum);
ARM GAS  C:\Users\haske\AppData\Local\Temp\cckhubq2.s 			page 30


 240:Generated_Source\PSoC6\pdl\drivers/peripheral/tcpwm/cy_tcpwm_pwm.h **** }
 241:Generated_Source\PSoC6\pdl\drivers/peripheral/tcpwm/cy_tcpwm_pwm.h **** 
 242:Generated_Source\PSoC6\pdl\drivers/peripheral/tcpwm/cy_tcpwm_pwm.h **** /*******************************************************************************
 243:Generated_Source\PSoC6\pdl\drivers/peripheral/tcpwm/cy_tcpwm_pwm.h **** * Function Name: Cy_TCPWM_PWM_Disable
 244:Generated_Source\PSoC6\pdl\drivers/peripheral/tcpwm/cy_tcpwm_pwm.h **** ****************************************************************************//**
 245:Generated_Source\PSoC6\pdl\drivers/peripheral/tcpwm/cy_tcpwm_pwm.h **** *
 246:Generated_Source\PSoC6\pdl\drivers/peripheral/tcpwm/cy_tcpwm_pwm.h **** * Disables the counter in the TCPWM block.
 247:Generated_Source\PSoC6\pdl\drivers/peripheral/tcpwm/cy_tcpwm_pwm.h **** *
 248:Generated_Source\PSoC6\pdl\drivers/peripheral/tcpwm/cy_tcpwm_pwm.h **** * \param base
 249:Generated_Source\PSoC6\pdl\drivers/peripheral/tcpwm/cy_tcpwm_pwm.h **** * The pointer to a TCPWM instance.
 250:Generated_Source\PSoC6\pdl\drivers/peripheral/tcpwm/cy_tcpwm_pwm.h **** *
 251:Generated_Source\PSoC6\pdl\drivers/peripheral/tcpwm/cy_tcpwm_pwm.h **** * \param cntNum 
 252:Generated_Source\PSoC6\pdl\drivers/peripheral/tcpwm/cy_tcpwm_pwm.h **** * The Counter instance number in the selected TCPWM.
 253:Generated_Source\PSoC6\pdl\drivers/peripheral/tcpwm/cy_tcpwm_pwm.h **** *
 254:Generated_Source\PSoC6\pdl\drivers/peripheral/tcpwm/cy_tcpwm_pwm.h **** * \funcusage
 255:Generated_Source\PSoC6\pdl\drivers/peripheral/tcpwm/cy_tcpwm_pwm.h **** * \snippet tcpwm\1.10\pwm\snippet\main.c snippet_Cy_TCPWM_PWM_DeInit
 256:Generated_Source\PSoC6\pdl\drivers/peripheral/tcpwm/cy_tcpwm_pwm.h **** *
 257:Generated_Source\PSoC6\pdl\drivers/peripheral/tcpwm/cy_tcpwm_pwm.h **** *******************************************************************************/
 258:Generated_Source\PSoC6\pdl\drivers/peripheral/tcpwm/cy_tcpwm_pwm.h **** __STATIC_INLINE void Cy_TCPWM_PWM_Disable(TCPWM_Type *base, uint32_t cntNum)
 259:Generated_Source\PSoC6\pdl\drivers/peripheral/tcpwm/cy_tcpwm_pwm.h **** {
 260:Generated_Source\PSoC6\pdl\drivers/peripheral/tcpwm/cy_tcpwm_pwm.h ****     TCPWM_CTRL_CLR(base) = (1UL << cntNum);
 261:Generated_Source\PSoC6\pdl\drivers/peripheral/tcpwm/cy_tcpwm_pwm.h **** }
 262:Generated_Source\PSoC6\pdl\drivers/peripheral/tcpwm/cy_tcpwm_pwm.h **** 
 263:Generated_Source\PSoC6\pdl\drivers/peripheral/tcpwm/cy_tcpwm_pwm.h **** 
 264:Generated_Source\PSoC6\pdl\drivers/peripheral/tcpwm/cy_tcpwm_pwm.h **** /*******************************************************************************
 265:Generated_Source\PSoC6\pdl\drivers/peripheral/tcpwm/cy_tcpwm_pwm.h **** * Function Name: Cy_TCPWM_PWM_GetStatus
 266:Generated_Source\PSoC6\pdl\drivers/peripheral/tcpwm/cy_tcpwm_pwm.h **** ****************************************************************************//**
 267:Generated_Source\PSoC6\pdl\drivers/peripheral/tcpwm/cy_tcpwm_pwm.h **** *
 268:Generated_Source\PSoC6\pdl\drivers/peripheral/tcpwm/cy_tcpwm_pwm.h **** * Returns the status of the PWM.
 269:Generated_Source\PSoC6\pdl\drivers/peripheral/tcpwm/cy_tcpwm_pwm.h **** *
 270:Generated_Source\PSoC6\pdl\drivers/peripheral/tcpwm/cy_tcpwm_pwm.h **** * \param base
 271:Generated_Source\PSoC6\pdl\drivers/peripheral/tcpwm/cy_tcpwm_pwm.h **** * The pointer to a TCPWM instance.
 272:Generated_Source\PSoC6\pdl\drivers/peripheral/tcpwm/cy_tcpwm_pwm.h **** *
 273:Generated_Source\PSoC6\pdl\drivers/peripheral/tcpwm/cy_tcpwm_pwm.h **** * \param cntNum 
 274:Generated_Source\PSoC6\pdl\drivers/peripheral/tcpwm/cy_tcpwm_pwm.h **** * The Counter instance number in the selected TCPWM.
 275:Generated_Source\PSoC6\pdl\drivers/peripheral/tcpwm/cy_tcpwm_pwm.h **** *
 276:Generated_Source\PSoC6\pdl\drivers/peripheral/tcpwm/cy_tcpwm_pwm.h **** * \return
 277:Generated_Source\PSoC6\pdl\drivers/peripheral/tcpwm/cy_tcpwm_pwm.h **** * The status. See \ref group_tcpwm_pwm_status
 278:Generated_Source\PSoC6\pdl\drivers/peripheral/tcpwm/cy_tcpwm_pwm.h **** *
 279:Generated_Source\PSoC6\pdl\drivers/peripheral/tcpwm/cy_tcpwm_pwm.h **** * \funcusage
 280:Generated_Source\PSoC6\pdl\drivers/peripheral/tcpwm/cy_tcpwm_pwm.h **** * \snippet tcpwm\1.10\pwm\snippet\main.c snippet_Cy_TCPWM_PWM_GetStatus
 281:Generated_Source\PSoC6\pdl\drivers/peripheral/tcpwm/cy_tcpwm_pwm.h **** *
 282:Generated_Source\PSoC6\pdl\drivers/peripheral/tcpwm/cy_tcpwm_pwm.h **** *******************************************************************************/
 283:Generated_Source\PSoC6\pdl\drivers/peripheral/tcpwm/cy_tcpwm_pwm.h **** __STATIC_INLINE uint32_t Cy_TCPWM_PWM_GetStatus(TCPWM_Type const *base, uint32_t cntNum)
 284:Generated_Source\PSoC6\pdl\drivers/peripheral/tcpwm/cy_tcpwm_pwm.h **** {
 285:Generated_Source\PSoC6\pdl\drivers/peripheral/tcpwm/cy_tcpwm_pwm.h ****     uint32_t status = TCPWM_CNT_STATUS(base, cntNum);
 286:Generated_Source\PSoC6\pdl\drivers/peripheral/tcpwm/cy_tcpwm_pwm.h ****     
 287:Generated_Source\PSoC6\pdl\drivers/peripheral/tcpwm/cy_tcpwm_pwm.h ****     /* Generates proper up counting status, does not generated by HW */
 288:Generated_Source\PSoC6\pdl\drivers/peripheral/tcpwm/cy_tcpwm_pwm.h ****     status &= ~CY_TCPWM_PWM_STATUS_UP_COUNTING;
 289:Generated_Source\PSoC6\pdl\drivers/peripheral/tcpwm/cy_tcpwm_pwm.h ****     status |= ((~status & CY_TCPWM_PWM_STATUS_DOWN_COUNTING & (status >> TCPWM_CNT_STATUS_RUNNING_P
 290:Generated_Source\PSoC6\pdl\drivers/peripheral/tcpwm/cy_tcpwm_pwm.h ****                CY_TCPWM_CNT_STATUS_UP_POS);
 291:Generated_Source\PSoC6\pdl\drivers/peripheral/tcpwm/cy_tcpwm_pwm.h ****     
 292:Generated_Source\PSoC6\pdl\drivers/peripheral/tcpwm/cy_tcpwm_pwm.h ****     return(status);
 293:Generated_Source\PSoC6\pdl\drivers/peripheral/tcpwm/cy_tcpwm_pwm.h **** }
 294:Generated_Source\PSoC6\pdl\drivers/peripheral/tcpwm/cy_tcpwm_pwm.h **** 
 295:Generated_Source\PSoC6\pdl\drivers/peripheral/tcpwm/cy_tcpwm_pwm.h **** 
 296:Generated_Source\PSoC6\pdl\drivers/peripheral/tcpwm/cy_tcpwm_pwm.h **** /*******************************************************************************
ARM GAS  C:\Users\haske\AppData\Local\Temp\cckhubq2.s 			page 31


 297:Generated_Source\PSoC6\pdl\drivers/peripheral/tcpwm/cy_tcpwm_pwm.h **** * Function Name: Cy_TCPWM_PWM_SetCompare0
 298:Generated_Source\PSoC6\pdl\drivers/peripheral/tcpwm/cy_tcpwm_pwm.h **** ****************************************************************************//**
 299:Generated_Source\PSoC6\pdl\drivers/peripheral/tcpwm/cy_tcpwm_pwm.h **** *
 300:Generated_Source\PSoC6\pdl\drivers/peripheral/tcpwm/cy_tcpwm_pwm.h **** * Sets the compare value for Compare0 when the compare mode enabled.
 301:Generated_Source\PSoC6\pdl\drivers/peripheral/tcpwm/cy_tcpwm_pwm.h **** *
 302:Generated_Source\PSoC6\pdl\drivers/peripheral/tcpwm/cy_tcpwm_pwm.h **** * \param base
 303:Generated_Source\PSoC6\pdl\drivers/peripheral/tcpwm/cy_tcpwm_pwm.h **** * The pointer to a TCPWM instance.
 304:Generated_Source\PSoC6\pdl\drivers/peripheral/tcpwm/cy_tcpwm_pwm.h **** *
 305:Generated_Source\PSoC6\pdl\drivers/peripheral/tcpwm/cy_tcpwm_pwm.h **** * \param cntNum 
 306:Generated_Source\PSoC6\pdl\drivers/peripheral/tcpwm/cy_tcpwm_pwm.h **** * The Counter instance number in the selected TCPWM.
 307:Generated_Source\PSoC6\pdl\drivers/peripheral/tcpwm/cy_tcpwm_pwm.h **** *
 308:Generated_Source\PSoC6\pdl\drivers/peripheral/tcpwm/cy_tcpwm_pwm.h **** * \param compare0
 309:Generated_Source\PSoC6\pdl\drivers/peripheral/tcpwm/cy_tcpwm_pwm.h **** * The Compare0 value.
 310:Generated_Source\PSoC6\pdl\drivers/peripheral/tcpwm/cy_tcpwm_pwm.h **** *
 311:Generated_Source\PSoC6\pdl\drivers/peripheral/tcpwm/cy_tcpwm_pwm.h **** * \funcusage
 312:Generated_Source\PSoC6\pdl\drivers/peripheral/tcpwm/cy_tcpwm_pwm.h **** * \snippet tcpwm\1.10\pwm\snippet\main.c snippet_Cy_TCPWM_PWM_SetCompare0
 313:Generated_Source\PSoC6\pdl\drivers/peripheral/tcpwm/cy_tcpwm_pwm.h **** *
 314:Generated_Source\PSoC6\pdl\drivers/peripheral/tcpwm/cy_tcpwm_pwm.h **** *******************************************************************************/
 315:Generated_Source\PSoC6\pdl\drivers/peripheral/tcpwm/cy_tcpwm_pwm.h **** __STATIC_INLINE void Cy_TCPWM_PWM_SetCompare0(TCPWM_Type *base, uint32_t cntNum,  uint32_t compare0
 316:Generated_Source\PSoC6\pdl\drivers/peripheral/tcpwm/cy_tcpwm_pwm.h **** {
 317:Generated_Source\PSoC6\pdl\drivers/peripheral/tcpwm/cy_tcpwm_pwm.h ****     TCPWM_CNT_CC(base, cntNum) = compare0;
 469              		.loc 3 317 0
 470 0004 164B     		ldr	r3, .L43
 471 0006 0022     		movs	r2, #0
 472 0008 C3F8CC22 		str	r2, [r3, #716]
 473              	.LVL25:
 474              	.LBE69:
 475              	.LBE68:
 476              	.LBE67:
 477              	.LBB70:
 478              	.LBB71:
 479              	.LBB72:
 480 000c C3F80C22 		str	r2, [r3, #524]
 481              	.LVL26:
 482              	.LBE72:
 483              	.LBE71:
 484              	.LBE70:
 120:..\..\PainDrain\PainDrain.cydsn/tens.c ****         PWM_TENS_SetCompare0(0);
 121:..\..\PainDrain\PainDrain.cydsn/tens.c ****         PWM_TENS2_SetCompare0(0);
 122:..\..\PainDrain\PainDrain.cydsn/tens.c ****         //power_flags_update(UI_MENU_TENS_AMP, 0);      
 123:..\..\PainDrain\PainDrain.cydsn/tens.c ****         tens_interval_ms = -1; //Disable timer
 485              		.loc 1 123 0
 486 0010 4FF0FF32 		mov	r2, #-1
 487 0014 134B     		ldr	r3, .L43+4
 488 0016 1A61     		str	r2, [r3, #16]
 489 0018 38BD     		pop	{r3, r4, r5, pc}
 490              	.L40:
 491 001a 0346     		mov	r3, r0
 492              	.LBB73:
 124:..\..\PainDrain\PainDrain.cydsn/tens.c ****         
 125:..\..\PainDrain\PainDrain.cydsn/tens.c ****     } else {           
 126:..\..\PainDrain\PainDrain.cydsn/tens.c ****         // Limiting PWM Value
 127:..\..\PainDrain\PainDrain.cydsn/tens.c ****         int scaled_pwm_value = (amplitude * MAX_TENS_PWM_VALUE) / 100;
 493              		.loc 1 127 0
 494 001c 4FF49C72 		mov	r2, #312
 495 0020 02FB03F3 		mul	r3, r2, r3
 496 0024 104C     		ldr	r4, .L43+8
ARM GAS  C:\Users\haske\AppData\Local\Temp\cckhubq2.s 			page 32


 497 0026 84FB0324 		smull	r2, r4, r4, r3
 498 002a DB17     		asrs	r3, r3, #31
 499 002c C3EB6414 		rsb	r4, r3, r4, asr #5
 500              	.LVL27:
 501              	.LBB74:
 502              	.LBB75:
 503              	.LBB76:
 504              		.loc 3 317 0
 505 0030 0B4D     		ldr	r5, .L43
 506 0032 C5F8CC42 		str	r4, [r5, #716]
 507              	.LVL28:
 508              	.LBE76:
 509              	.LBE75:
 510              	.LBE74:
 511              	.LBB77:
 512              	.LBB78:
 513              	.LBB79:
 318:Generated_Source\PSoC6\pdl\drivers/peripheral/tcpwm/cy_tcpwm_pwm.h **** }
 319:Generated_Source\PSoC6\pdl\drivers/peripheral/tcpwm/cy_tcpwm_pwm.h **** 
 320:Generated_Source\PSoC6\pdl\drivers/peripheral/tcpwm/cy_tcpwm_pwm.h **** 
 321:Generated_Source\PSoC6\pdl\drivers/peripheral/tcpwm/cy_tcpwm_pwm.h **** /*******************************************************************************
 322:Generated_Source\PSoC6\pdl\drivers/peripheral/tcpwm/cy_tcpwm_pwm.h **** * Function Name: Cy_TCPWM_PWM_GetCompare0
 323:Generated_Source\PSoC6\pdl\drivers/peripheral/tcpwm/cy_tcpwm_pwm.h **** ****************************************************************************//**
 324:Generated_Source\PSoC6\pdl\drivers/peripheral/tcpwm/cy_tcpwm_pwm.h **** *
 325:Generated_Source\PSoC6\pdl\drivers/peripheral/tcpwm/cy_tcpwm_pwm.h **** * Returns compare value 0.
 326:Generated_Source\PSoC6\pdl\drivers/peripheral/tcpwm/cy_tcpwm_pwm.h **** *
 327:Generated_Source\PSoC6\pdl\drivers/peripheral/tcpwm/cy_tcpwm_pwm.h **** * \param base
 328:Generated_Source\PSoC6\pdl\drivers/peripheral/tcpwm/cy_tcpwm_pwm.h **** * The pointer to a TCPWM instance.
 329:Generated_Source\PSoC6\pdl\drivers/peripheral/tcpwm/cy_tcpwm_pwm.h **** *
 330:Generated_Source\PSoC6\pdl\drivers/peripheral/tcpwm/cy_tcpwm_pwm.h **** * \param cntNum 
 331:Generated_Source\PSoC6\pdl\drivers/peripheral/tcpwm/cy_tcpwm_pwm.h **** * The Counter instance number in the selected TCPWM.
 332:Generated_Source\PSoC6\pdl\drivers/peripheral/tcpwm/cy_tcpwm_pwm.h **** *
 333:Generated_Source\PSoC6\pdl\drivers/peripheral/tcpwm/cy_tcpwm_pwm.h **** * \return
 334:Generated_Source\PSoC6\pdl\drivers/peripheral/tcpwm/cy_tcpwm_pwm.h **** * Compare value 0.
 335:Generated_Source\PSoC6\pdl\drivers/peripheral/tcpwm/cy_tcpwm_pwm.h **** *
 336:Generated_Source\PSoC6\pdl\drivers/peripheral/tcpwm/cy_tcpwm_pwm.h **** * \funcusage
 337:Generated_Source\PSoC6\pdl\drivers/peripheral/tcpwm/cy_tcpwm_pwm.h **** * \snippet tcpwm\1.10\pwm\snippet\main.c snippet_Cy_TCPWM_PWM_SetCompare0
 338:Generated_Source\PSoC6\pdl\drivers/peripheral/tcpwm/cy_tcpwm_pwm.h **** *
 339:Generated_Source\PSoC6\pdl\drivers/peripheral/tcpwm/cy_tcpwm_pwm.h **** *******************************************************************************/
 340:Generated_Source\PSoC6\pdl\drivers/peripheral/tcpwm/cy_tcpwm_pwm.h **** __STATIC_INLINE uint32_t Cy_TCPWM_PWM_GetCompare0(TCPWM_Type const *base, uint32_t cntNum)
 341:Generated_Source\PSoC6\pdl\drivers/peripheral/tcpwm/cy_tcpwm_pwm.h **** {
 342:Generated_Source\PSoC6\pdl\drivers/peripheral/tcpwm/cy_tcpwm_pwm.h ****     return(TCPWM_CNT_CC(base, cntNum));
 514              		.loc 3 342 0
 515 0036 D5F8CC12 		ldr	r1, [r5, #716]
 516              	.LVL29:
 517              	.LBE79:
 518              	.LBE78:
 519              	.LBE77:
 128:..\..\PainDrain\PainDrain.cydsn/tens.c ****         
 129:..\..\PainDrain\PainDrain.cydsn/tens.c ****         // Set TENS1 and wait before setting TENS2
 130:..\..\PainDrain\PainDrain.cydsn/tens.c ****         PWM_TENS_SetCompare0(scaled_pwm_value);
 131:..\..\PainDrain\PainDrain.cydsn/tens.c ****         DBG_PRINTF("Tens 1 PWM: %d\r\n", PWM_TENS_GetCompare0());
 520              		.loc 1 131 0
 521 003a 0C48     		ldr	r0, .L43+12
 522              	.LVL30:
 523 003c FFF7FEFF 		bl	myprintf
 524              	.LVL31:
ARM GAS  C:\Users\haske\AppData\Local\Temp\cckhubq2.s 			page 33


 132:..\..\PainDrain\PainDrain.cydsn/tens.c ****         CyDelayUs((1000000 / tens_interval_ms) / 2); //Delay of 5-50uS
 525              		.loc 1 132 0
 526 0040 084B     		ldr	r3, .L43+4
 527 0042 1869     		ldr	r0, [r3, #16]
 528 0044 0A4B     		ldr	r3, .L43+16
 529 0046 93FBF0F0 		sdiv	r0, r3, r0
 530 004a 80B2     		uxth	r0, r0
 531 004c FFF7FEFF 		bl	Cy_SysLib_DelayUs
 532              	.LVL32:
 533              	.LBB80:
 534              	.LBB81:
 535              	.LBB82:
 317:Generated_Source\PSoC6\pdl\drivers/peripheral/tcpwm/cy_tcpwm_pwm.h **** }
 536              		.loc 3 317 0
 537 0050 C5F80C42 		str	r4, [r5, #524]
 538              	.LVL33:
 539              	.LBE82:
 540              	.LBE81:
 541              	.LBE80:
 542              	.LBB83:
 543              	.LBB84:
 544              	.LBB85:
 545              		.loc 3 342 0
 546 0054 D5F80C12 		ldr	r1, [r5, #524]
 547              	.LVL34:
 548              	.LBE85:
 549              	.LBE84:
 550              	.LBE83:
 133:..\..\PainDrain\PainDrain.cydsn/tens.c ****         
 134:..\..\PainDrain\PainDrain.cydsn/tens.c ****         // Set TENS2
 135:..\..\PainDrain\PainDrain.cydsn/tens.c ****         PWM_TENS2_SetCompare0(scaled_pwm_value);
 136:..\..\PainDrain\PainDrain.cydsn/tens.c ****         DBG_PRINTF("Tens 2 PWM: %d\r\n", PWM_TENS2_GetCompare0());
 551              		.loc 1 136 0
 552 0058 0648     		ldr	r0, .L43+20
 553 005a FFF7FEFF 		bl	myprintf
 554              	.LVL35:
 555 005e 38BD     		pop	{r3, r4, r5, pc}
 556              	.LVL36:
 557              	.L44:
 558              		.align	2
 559              	.L43:
 560 0060 00003840 		.word	1077411840
 561 0064 00000000 		.word	.LANCHOR0
 562 0068 1F85EB51 		.word	1374389535
 563 006c BC000000 		.word	.LC6
 564 0070 20A10700 		.word	500000
 565 0074 D0000000 		.word	.LC7
 566              	.LBE73:
 567              		.cfi_endproc
 568              	.LFE868:
 569              		.size	set_tens_amp, .-set_tens_amp
 570              		.section	.text.set_tens_signal,"ax",%progbits
 571              		.align	2
 572              		.global	set_tens_signal
 573              		.thumb
 574              		.thumb_func
 575              		.type	set_tens_signal, %function
ARM GAS  C:\Users\haske\AppData\Local\Temp\cckhubq2.s 			page 34


 576              	set_tens_signal:
 577              	.LFB869:
 137:..\..\PainDrain\PainDrain.cydsn/tens.c ****     }   
 138:..\..\PainDrain\PainDrain.cydsn/tens.c **** }
 139:..\..\PainDrain\PainDrain.cydsn/tens.c **** 
 140:..\..\PainDrain\PainDrain.cydsn/tens.c **** // Helper function to make setting a signal easier to channel 1 and 2
 141:..\..\PainDrain\PainDrain.cydsn/tens.c **** void set_tens_signal(int amplitude, double duration, double period, int channel, int phase) {
 578              		.loc 1 141 0
 579              		.cfi_startproc
 580              		@ args = 16, pretend = 0, frame = 0
 581              		@ frame_needed = 0, uses_anonymous_args = 0
 582              	.LVL37:
 583 0000 70B5     		push	{r4, r5, r6, lr}
 584              		.cfi_def_cfa_offset 16
 585              		.cfi_offset 4, -16
 586              		.cfi_offset 5, -12
 587              		.cfi_offset 6, -8
 588              		.cfi_offset 14, -4
 589 0002 0546     		mov	r5, r0
 590 0004 1046     		mov	r0, r2
 591              	.LVL38:
 592 0006 1946     		mov	r1, r3
 593 0008 069C     		ldr	r4, [sp, #24]
 142:..\..\PainDrain\PainDrain.cydsn/tens.c ****     
 143:..\..\PainDrain\PainDrain.cydsn/tens.c ****     int duration_case = (int)(duration*10);
 594              		.loc 1 143 0
 595 000a 0022     		movs	r2, #0
 596              	.LVL39:
 597 000c 1C4B     		ldr	r3, .L51
 598 000e FFF7FEFF 		bl	__aeabi_dmul
 599              	.LVL40:
 600 0012 FFF7FEFF 		bl	__aeabi_d2iz
 601              	.LVL41:
 602 0016 0646     		mov	r6, r0
 603              	.LVL42:
 144:..\..\PainDrain\PainDrain.cydsn/tens.c ****     // Amplitude and Period will be the same for both channels.   
 145:..\..\PainDrain\PainDrain.cydsn/tens.c ****     set_tens_amp(amplitude);
 604              		.loc 1 145 0
 605 0018 2846     		mov	r0, r5
 606              	.LVL43:
 607 001a FFF7FEFF 		bl	set_tens_amp
 608              	.LVL44:
 146:..\..\PainDrain\PainDrain.cydsn/tens.c ****     set_tens_freq(period);
 609              		.loc 1 146 0
 610 001e DDE90401 		ldrd	r0, [sp, #16]
 611 0022 FFF7FEFF 		bl	set_tens_freq
 612              	.LVL45:
 147:..\..\PainDrain\PainDrain.cydsn/tens.c ****     tens_phase_shift = phase;
 613              		.loc 1 147 0
 614 0026 174B     		ldr	r3, .L51+4
 615 0028 079A     		ldr	r2, [sp, #28]
 616 002a 9A60     		str	r2, [r3, #8]
 148:..\..\PainDrain\PainDrain.cydsn/tens.c ****     if(channel == 0){
 617              		.loc 1 148 0
 618 002c 3CB9     		cbnz	r4, .L46
 149:..\..\PainDrain\PainDrain.cydsn/tens.c ****         // Amplitude and Period will be the same for both channels.
 150:..\..\PainDrain\PainDrain.cydsn/tens.c ****         set_tens_amp(amplitude);
ARM GAS  C:\Users\haske\AppData\Local\Temp\cckhubq2.s 			page 35


 619              		.loc 1 150 0
 620 002e 2846     		mov	r0, r5
 621 0030 FFF7FEFF 		bl	set_tens_amp
 622              	.LVL46:
 151:..\..\PainDrain\PainDrain.cydsn/tens.c ****         set_tens_freq(period);
 623              		.loc 1 151 0
 624 0034 DDE90401 		ldrd	r0, [sp, #16]
 625 0038 FFF7FEFF 		bl	set_tens_freq
 626              	.LVL47:
 627 003c 70BD     		pop	{r4, r5, r6, pc}
 628              	.LVL48:
 629              	.L46:
 152:..\..\PainDrain\PainDrain.cydsn/tens.c ****     } else if(channel == 1){
 630              		.loc 1 152 0
 631 003e 012C     		cmp	r4, #1
 632 0040 04D1     		bne	.L48
 153:..\..\PainDrain\PainDrain.cydsn/tens.c ****         set_tens_dur(duration_case, &tens_one_dur_us);
 633              		.loc 1 153 0
 634 0042 1049     		ldr	r1, .L51+4
 635 0044 3046     		mov	r0, r6
 636 0046 FFF7FEFF 		bl	set_tens_dur
 637              	.LVL49:
 638 004a 70BD     		pop	{r4, r5, r6, pc}
 639              	.LVL50:
 640              	.L48:
 154:..\..\PainDrain\PainDrain.cydsn/tens.c ****     } else if(channel == 2){  
 641              		.loc 1 154 0
 642 004c 022C     		cmp	r4, #2
 643 004e 04D1     		bne	.L49
 155:..\..\PainDrain\PainDrain.cydsn/tens.c ****         set_tens_dur(duration_case, &tens_two_dur_us);        
 644              		.loc 1 155 0
 645 0050 0D49     		ldr	r1, .L51+8
 646 0052 3046     		mov	r0, r6
 647 0054 FFF7FEFF 		bl	set_tens_dur
 648              	.LVL51:
 649 0058 70BD     		pop	{r4, r5, r6, pc}
 650              	.LVL52:
 651              	.L49:
 156:..\..\PainDrain\PainDrain.cydsn/tens.c ****     } else {
 157:..\..\PainDrain\PainDrain.cydsn/tens.c ****         // disable the signal
 158:..\..\PainDrain\PainDrain.cydsn/tens.c ****         set_tens_amp(0);
 652              		.loc 1 158 0
 653 005a 0020     		movs	r0, #0
 654 005c FFF7FEFF 		bl	set_tens_amp
 655              	.LVL53:
 159:..\..\PainDrain\PainDrain.cydsn/tens.c ****         set_tens_freq(0);
 656              		.loc 1 159 0
 657 0060 0020     		movs	r0, #0
 658 0062 0021     		movs	r1, #0
 659 0064 FFF7FEFF 		bl	set_tens_freq
 660              	.LVL54:
 160:..\..\PainDrain\PainDrain.cydsn/tens.c ****         set_tens_dur(0, &tens_one_dur_us);
 661              		.loc 1 160 0
 662 0068 064C     		ldr	r4, .L51+4
 663 006a 2146     		mov	r1, r4
 664 006c 0020     		movs	r0, #0
 665 006e FFF7FEFF 		bl	set_tens_dur
ARM GAS  C:\Users\haske\AppData\Local\Temp\cckhubq2.s 			page 36


 666              	.LVL55:
 161:..\..\PainDrain\PainDrain.cydsn/tens.c ****         set_tens_dur(0, &tens_two_dur_us);
 667              		.loc 1 161 0
 668 0072 04F10C01 		add	r1, r4, #12
 669 0076 0020     		movs	r0, #0
 670 0078 FFF7FEFF 		bl	set_tens_dur
 671              	.LVL56:
 672 007c 70BD     		pop	{r4, r5, r6, pc}
 673              	.LVL57:
 674              	.L52:
 675 007e 00BF     		.align	2
 676              	.L51:
 677 0080 00002440 		.word	1076101120
 678 0084 00000000 		.word	.LANCHOR0
 679 0088 0C000000 		.word	.LANCHOR0+12
 680              		.cfi_endproc
 681              	.LFE869:
 682              		.size	set_tens_signal, .-set_tens_signal
 683              		.data
 684              		.align	2
 685              		.set	.LANCHOR1,. + 0
 686              		.type	tens_timeout, %object
 687              		.size	tens_timeout, 4
 688              	tens_timeout:
 689 0000 FFFFFFFF 		.word	-1
 690              		.section	.rodata.str1.4,"aMS",%progbits,1
 691              		.align	2
 692              	.LC0:
 693 0000 4368616E 		.ascii	"Channel 1 On positive direction \015\012\000"
 693      6E656C20 
 693      31204F6E 
 693      20706F73 
 693      69746976 
 694 0023 00       		.space	1
 695              	.LC1:
 696 0024 4368616E 		.ascii	"Channel 1 Off state in between \015\012\000"
 696      6E656C20 
 696      31204F66 
 696      66207374 
 696      61746520 
 697 0046 0000     		.space	2
 698              	.LC2:
 699 0048 74656E73 		.ascii	"tens_timeout: %d \015\012\000"
 699      5F74696D 
 699      656F7574 
 699      3A202564 
 699      200D0A00 
 700              	.LC3:
 701 005c 4368616E 		.ascii	"Channel 2 On positive direction \015\012\000"
 701      6E656C20 
 701      32204F6E 
 701      20706F73 
 701      69746976 
 702 007f 00       		.space	1
 703              	.LC4:
 704 0080 4368616E 		.ascii	"Channel 2 Off state in between \015\012\000"
 704      6E656C20 
ARM GAS  C:\Users\haske\AppData\Local\Temp\cckhubq2.s 			page 37


 704      32204F66 
 704      66207374 
 704      61746520 
 705 00a2 0000     		.space	2
 706              	.LC5:
 707 00a4 74656E73 		.ascii	"tens_interval_ms: %d \015\012\000"
 707      5F696E74 
 707      65727661 
 707      6C5F6D73 
 707      3A202564 
 708              	.LC6:
 709 00bc 54656E73 		.ascii	"Tens 1 PWM: %d\015\012\000"
 709      20312050 
 709      574D3A20 
 709      25640D0A 
 709      00
 710 00cd 000000   		.space	3
 711              	.LC7:
 712 00d0 54656E73 		.ascii	"Tens 2 PWM: %d\015\012\000"
 712      20322050 
 712      574D3A20 
 712      25640D0A 
 712      00
 713              		.bss
 714              		.align	2
 715              		.set	.LANCHOR0,. + 0
 716              		.type	tens_one_dur_us, %object
 717              		.size	tens_one_dur_us, 4
 718              	tens_one_dur_us:
 719 0000 00000000 		.space	4
 720              		.type	tens_full_timeout, %object
 721              		.size	tens_full_timeout, 4
 722              	tens_full_timeout:
 723 0004 00000000 		.space	4
 724              		.type	tens_phase_shift, %object
 725              		.size	tens_phase_shift, 4
 726              	tens_phase_shift:
 727 0008 00000000 		.space	4
 728              		.type	tens_two_dur_us, %object
 729              		.size	tens_two_dur_us, 4
 730              	tens_two_dur_us:
 731 000c 00000000 		.space	4
 732              		.type	tens_interval_ms, %object
 733              		.size	tens_interval_ms, 4
 734              	tens_interval_ms:
 735 0010 00000000 		.space	4
 736              		.text
 737              	.Letext0:
 738              		.file 4 "c:\\program files (x86)\\cypress\\psoc creator\\4.4\\psoc creator\\import\\gnu\\arm\\5.4.
 739              		.file 5 "c:\\program files (x86)\\cypress\\psoc creator\\4.4\\psoc creator\\import\\gnu\\arm\\5.4.
 740              		.file 6 "Generated_Source\\PSoC6\\pdl\\devices/psoc6/include/ip/cyip_gpio.h"
 741              		.file 7 "Generated_Source\\PSoC6\\pdl\\devices/psoc6/include/ip/cyip_tcpwm.h"
 742              		.file 8 "Generated_Source\\PSoC6\\pdl\\devices/psoc6/include/psoc6_01_config.h"
 743              		.file 9 "Generated_Source\\PSoC6\\pdl\\drivers/peripheral/device/cy_device.h"
 744              		.file 10 "Generated_Source\\PSoC6\\pdl\\drivers/peripheral/syslib/cy_syslib.h"
 745              		.file 11 "Generated_Source\\PSoC6\\pdl\\drivers/peripheral/i2s/cy_i2s.h"
 746              		.file 12 "Generated_Source\\PSoC6\\pdl\\drivers/peripheral/sar/cy_sar.h"
ARM GAS  C:\Users\haske\AppData\Local\Temp\cckhubq2.s 			page 38


 747              		.file 13 "Generated_Source\\PSoC6\\pdl\\drivers/peripheral/scb/cy_scb_spi.h"
 748              		.file 14 "Generated_Source\\PSoC6\\pdl\\middleware/ble/cy_ble_stack.h"
 749              		.file 15 "Generated_Source\\PSoC6\\pdl\\middleware/ble/cy_ble_stack_host_main.h"
 750              		.file 16 "Generated_Source\\PSoC6\\pdl\\middleware/ble/cy_ble_gap.h"
 751              		.file 17 "Generated_Source\\PSoC6/ADC.h"
 752              		.file 18 "Generated_Source\\PSoC6/PWM_TENS2.h"
 753              		.file 19 "Generated_Source\\PSoC6/PWM_TENS.h"
 754              		.file 20 "Generated_Source\\PSoC6\\pdl\\cmsis/include/core_cm4.h"
 755              		.file 21 "Generated_Source\\PSoC6/SPI.h"
 756              		.file 22 "Generated_Source\\PSoC6/LCD_PWM.h"
 757              		.file 23 "Generated_Source\\PSoC6/I2S.h"
 758              		.file 24 "Generated_Source\\PSoC6/AMP_PWM.h"
 759              		.file 25 "Generated_Source\\PSoC6/PWM_FAN.h"
 760              		.file 26 "Generated_Source\\PSoC6/PWM_PEL1.h"
 761              		.file 27 "Generated_Source\\PSoC6/PWM_PEL2.h"
 762              		.file 28 "..\\..\\PainDrain\\PainDrain.cydsn\\myprintf.h"
 763              		.section	.debug_info,"",%progbits
 764              	.Ldebug_info0:
 765 0000 D31A0000 		.4byte	0x1ad3
 766 0004 0400     		.2byte	0x4
 767 0006 00000000 		.4byte	.Ldebug_abbrev0
 768 000a 04       		.byte	0x4
 769 000b 01       		.uleb128 0x1
 770 000c A5050000 		.4byte	.LASF460
 771 0010 0C       		.byte	0xc
 772 0011 B4180000 		.4byte	.LASF461
 773 0015 BF230000 		.4byte	.LASF462
 774 0019 00000000 		.4byte	.Ldebug_ranges0+0
 775 001d 00000000 		.4byte	0
 776 0021 00000000 		.4byte	.Ldebug_line0
 777 0025 02       		.uleb128 0x2
 778 0026 08       		.byte	0x8
 779 0027 04       		.byte	0x4
 780 0028 AA0C0000 		.4byte	.LASF0
 781 002c 02       		.uleb128 0x2
 782 002d 08       		.byte	0x8
 783 002e 07       		.byte	0x7
 784 002f 8B090000 		.4byte	.LASF1
 785 0033 02       		.uleb128 0x2
 786 0034 04       		.byte	0x4
 787 0035 07       		.byte	0x7
 788 0036 A9020000 		.4byte	.LASF2
 789 003a 03       		.uleb128 0x3
 790 003b 04       		.byte	0x4
 791 003c 05       		.byte	0x5
 792 003d 696E7400 		.ascii	"int\000"
 793 0041 02       		.uleb128 0x2
 794 0042 02       		.byte	0x2
 795 0043 05       		.byte	0x5
 796 0044 D5190000 		.4byte	.LASF3
 797 0048 02       		.uleb128 0x2
 798 0049 01       		.byte	0x1
 799 004a 06       		.byte	0x6
 800 004b 67210000 		.4byte	.LASF4
 801 004f 04       		.uleb128 0x4
 802 0050 641C0000 		.4byte	.LASF6
 803 0054 04       		.byte	0x4
ARM GAS  C:\Users\haske\AppData\Local\Temp\cckhubq2.s 			page 39


 804 0055 1D       		.byte	0x1d
 805 0056 5A000000 		.4byte	0x5a
 806 005a 02       		.uleb128 0x2
 807 005b 01       		.byte	0x1
 808 005c 08       		.byte	0x8
 809 005d DA1E0000 		.4byte	.LASF5
 810 0061 04       		.uleb128 0x4
 811 0062 84130000 		.4byte	.LASF7
 812 0066 04       		.byte	0x4
 813 0067 29       		.byte	0x29
 814 0068 41000000 		.4byte	0x41
 815 006c 04       		.uleb128 0x4
 816 006d A10E0000 		.4byte	.LASF8
 817 0071 04       		.byte	0x4
 818 0072 2B       		.byte	0x2b
 819 0073 77000000 		.4byte	0x77
 820 0077 02       		.uleb128 0x2
 821 0078 02       		.byte	0x2
 822 0079 07       		.byte	0x7
 823 007a F1160000 		.4byte	.LASF9
 824 007e 04       		.uleb128 0x4
 825 007f 69030000 		.4byte	.LASF10
 826 0083 04       		.byte	0x4
 827 0084 3F       		.byte	0x3f
 828 0085 89000000 		.4byte	0x89
 829 0089 02       		.uleb128 0x2
 830 008a 04       		.byte	0x4
 831 008b 05       		.byte	0x5
 832 008c 4C1A0000 		.4byte	.LASF11
 833 0090 04       		.uleb128 0x4
 834 0091 0D1F0000 		.4byte	.LASF12
 835 0095 04       		.byte	0x4
 836 0096 41       		.byte	0x41
 837 0097 9B000000 		.4byte	0x9b
 838 009b 02       		.uleb128 0x2
 839 009c 04       		.byte	0x4
 840 009d 07       		.byte	0x7
 841 009e AE1D0000 		.4byte	.LASF13
 842 00a2 02       		.uleb128 0x2
 843 00a3 08       		.byte	0x8
 844 00a4 05       		.byte	0x5
 845 00a5 94120000 		.4byte	.LASF14
 846 00a9 04       		.uleb128 0x4
 847 00aa 5F110000 		.4byte	.LASF15
 848 00ae 05       		.byte	0x5
 849 00af 18       		.byte	0x18
 850 00b0 4F000000 		.4byte	0x4f
 851 00b4 04       		.uleb128 0x4
 852 00b5 27090000 		.4byte	.LASF16
 853 00b9 05       		.byte	0x5
 854 00ba 20       		.byte	0x20
 855 00bb 61000000 		.4byte	0x61
 856 00bf 04       		.uleb128 0x4
 857 00c0 39170000 		.4byte	.LASF17
 858 00c4 05       		.byte	0x5
 859 00c5 24       		.byte	0x24
 860 00c6 6C000000 		.4byte	0x6c
ARM GAS  C:\Users\haske\AppData\Local\Temp\cckhubq2.s 			page 40


 861 00ca 04       		.uleb128 0x4
 862 00cb D21D0000 		.4byte	.LASF18
 863 00cf 05       		.byte	0x5
 864 00d0 2C       		.byte	0x2c
 865 00d1 7E000000 		.4byte	0x7e
 866 00d5 04       		.uleb128 0x4
 867 00d6 21080000 		.4byte	.LASF19
 868 00da 05       		.byte	0x5
 869 00db 30       		.byte	0x30
 870 00dc 90000000 		.4byte	0x90
 871 00e0 02       		.uleb128 0x2
 872 00e1 04       		.byte	0x4
 873 00e2 07       		.byte	0x7
 874 00e3 FF180000 		.4byte	.LASF20
 875 00e7 05       		.uleb128 0x5
 876 00e8 D5000000 		.4byte	0xd5
 877 00ec 06       		.uleb128 0x6
 878 00ed E7000000 		.4byte	0xe7
 879 00f1 07       		.uleb128 0x7
 880 00f2 EC000000 		.4byte	0xec
 881 00f6 01010000 		.4byte	0x101
 882 00fa 08       		.uleb128 0x8
 883 00fb E0000000 		.4byte	0xe0
 884 00ff 0F       		.byte	0xf
 885 0100 00       		.byte	0
 886 0101 09       		.uleb128 0x9
 887 0102 80       		.byte	0x80
 888 0103 06       		.byte	0x6
 889 0104 22       		.byte	0x22
 890 0105 D5010000 		.4byte	0x1d5
 891 0109 0A       		.uleb128 0xa
 892 010a 4F555400 		.ascii	"OUT\000"
 893 010e 06       		.byte	0x6
 894 010f 23       		.byte	0x23
 895 0110 E7000000 		.4byte	0xe7
 896 0114 00       		.byte	0
 897 0115 0B       		.uleb128 0xb
 898 0116 0A090000 		.4byte	.LASF21
 899 011a 06       		.byte	0x6
 900 011b 24       		.byte	0x24
 901 011c E7000000 		.4byte	0xe7
 902 0120 04       		.byte	0x4
 903 0121 0B       		.uleb128 0xb
 904 0122 440C0000 		.4byte	.LASF22
 905 0126 06       		.byte	0x6
 906 0127 25       		.byte	0x25
 907 0128 E7000000 		.4byte	0xe7
 908 012c 08       		.byte	0x8
 909 012d 0B       		.uleb128 0xb
 910 012e E5000000 		.4byte	.LASF23
 911 0132 06       		.byte	0x6
 912 0133 26       		.byte	0x26
 913 0134 E7000000 		.4byte	0xe7
 914 0138 0C       		.byte	0xc
 915 0139 0A       		.uleb128 0xa
 916 013a 494E00   		.ascii	"IN\000"
 917 013d 06       		.byte	0x6
ARM GAS  C:\Users\haske\AppData\Local\Temp\cckhubq2.s 			page 41


 918 013e 27       		.byte	0x27
 919 013f EC000000 		.4byte	0xec
 920 0143 10       		.byte	0x10
 921 0144 0B       		.uleb128 0xb
 922 0145 0E140000 		.4byte	.LASF24
 923 0149 06       		.byte	0x6
 924 014a 28       		.byte	0x28
 925 014b E7000000 		.4byte	0xe7
 926 014f 14       		.byte	0x14
 927 0150 0B       		.uleb128 0xb
 928 0151 AC0E0000 		.4byte	.LASF25
 929 0155 06       		.byte	0x6
 930 0156 29       		.byte	0x29
 931 0157 E7000000 		.4byte	0xe7
 932 015b 18       		.byte	0x18
 933 015c 0B       		.uleb128 0xb
 934 015d 361D0000 		.4byte	.LASF26
 935 0161 06       		.byte	0x6
 936 0162 2A       		.byte	0x2a
 937 0163 EC000000 		.4byte	0xec
 938 0167 1C       		.byte	0x1c
 939 0168 0B       		.uleb128 0xb
 940 0169 D0040000 		.4byte	.LASF27
 941 016d 06       		.byte	0x6
 942 016e 2B       		.byte	0x2b
 943 016f E7000000 		.4byte	0xe7
 944 0173 20       		.byte	0x20
 945 0174 0B       		.uleb128 0xb
 946 0175 5F1F0000 		.4byte	.LASF28
 947 0179 06       		.byte	0x6
 948 017a 2C       		.byte	0x2c
 949 017b E7000000 		.4byte	0xe7
 950 017f 24       		.byte	0x24
 951 0180 0A       		.uleb128 0xa
 952 0181 43464700 		.ascii	"CFG\000"
 953 0185 06       		.byte	0x6
 954 0186 2D       		.byte	0x2d
 955 0187 E7000000 		.4byte	0xe7
 956 018b 28       		.byte	0x28
 957 018c 0B       		.uleb128 0xb
 958 018d 5B070000 		.4byte	.LASF29
 959 0191 06       		.byte	0x6
 960 0192 2E       		.byte	0x2e
 961 0193 E7000000 		.4byte	0xe7
 962 0197 2C       		.byte	0x2c
 963 0198 0B       		.uleb128 0xb
 964 0199 BE0B0000 		.4byte	.LASF30
 965 019d 06       		.byte	0x6
 966 019e 2F       		.byte	0x2f
 967 019f E7000000 		.4byte	0xe7
 968 01a3 30       		.byte	0x30
 969 01a4 0B       		.uleb128 0xb
 970 01a5 C5220000 		.4byte	.LASF31
 971 01a9 06       		.byte	0x6
 972 01aa 30       		.byte	0x30
 973 01ab E7000000 		.4byte	0xe7
 974 01af 34       		.byte	0x34
ARM GAS  C:\Users\haske\AppData\Local\Temp\cckhubq2.s 			page 42


 975 01b0 0B       		.uleb128 0xb
 976 01b1 35000000 		.4byte	.LASF32
 977 01b5 06       		.byte	0x6
 978 01b6 31       		.byte	0x31
 979 01b7 EC000000 		.4byte	0xec
 980 01bb 38       		.byte	0x38
 981 01bc 0B       		.uleb128 0xb
 982 01bd 6B1B0000 		.4byte	.LASF33
 983 01c1 06       		.byte	0x6
 984 01c2 32       		.byte	0x32
 985 01c3 E7000000 		.4byte	0xe7
 986 01c7 3C       		.byte	0x3c
 987 01c8 0B       		.uleb128 0xb
 988 01c9 9F220000 		.4byte	.LASF34
 989 01cd 06       		.byte	0x6
 990 01ce 33       		.byte	0x33
 991 01cf DA010000 		.4byte	0x1da
 992 01d3 40       		.byte	0x40
 993 01d4 00       		.byte	0
 994 01d5 05       		.uleb128 0x5
 995 01d6 F1000000 		.4byte	0xf1
 996 01da 06       		.uleb128 0x6
 997 01db D5010000 		.4byte	0x1d5
 998 01df 04       		.uleb128 0x4
 999 01e0 F61A0000 		.4byte	.LASF35
 1000 01e4 06       		.byte	0x6
 1001 01e5 34       		.byte	0x34
 1002 01e6 01010000 		.4byte	0x101
 1003 01ea 0C       		.uleb128 0xc
 1004 01eb 2440     		.2byte	0x4024
 1005 01ed 06       		.byte	0x6
 1006 01ee 39       		.byte	0x39
 1007 01ef 75020000 		.4byte	0x275
 1008 01f3 0A       		.uleb128 0xa
 1009 01f4 50525400 		.ascii	"PRT\000"
 1010 01f8 06       		.byte	0x6
 1011 01f9 3A       		.byte	0x3a
 1012 01fa 75020000 		.4byte	0x275
 1013 01fe 00       		.byte	0
 1014 01ff 0D       		.uleb128 0xd
 1015 0200 49000000 		.4byte	.LASF36
 1016 0204 06       		.byte	0x6
 1017 0205 3B       		.byte	0x3b
 1018 0206 EC000000 		.4byte	0xec
 1019 020a 0040     		.2byte	0x4000
 1020 020c 0D       		.uleb128 0xd
 1021 020d 55000000 		.4byte	.LASF37
 1022 0211 06       		.byte	0x6
 1023 0212 3C       		.byte	0x3c
 1024 0213 EC000000 		.4byte	0xec
 1025 0217 0440     		.2byte	0x4004
 1026 0219 0D       		.uleb128 0xd
 1027 021a 93110000 		.4byte	.LASF38
 1028 021e 06       		.byte	0x6
 1029 021f 3D       		.byte	0x3d
 1030 0220 EC000000 		.4byte	0xec
 1031 0224 0840     		.2byte	0x4008
ARM GAS  C:\Users\haske\AppData\Local\Temp\cckhubq2.s 			page 43


 1032 0226 0D       		.uleb128 0xd
 1033 0227 9F110000 		.4byte	.LASF39
 1034 022b 06       		.byte	0x6
 1035 022c 3E       		.byte	0x3e
 1036 022d EC000000 		.4byte	0xec
 1037 0231 0C40     		.2byte	0x400c
 1038 0233 0D       		.uleb128 0xd
 1039 0234 3E000000 		.4byte	.LASF40
 1040 0238 06       		.byte	0x6
 1041 0239 3F       		.byte	0x3f
 1042 023a EC000000 		.4byte	0xec
 1043 023e 1040     		.2byte	0x4010
 1044 0240 0D       		.uleb128 0xd
 1045 0241 130D0000 		.4byte	.LASF41
 1046 0245 06       		.byte	0x6
 1047 0246 40       		.byte	0x40
 1048 0247 E7000000 		.4byte	0xe7
 1049 024b 1440     		.2byte	0x4014
 1050 024d 0D       		.uleb128 0xd
 1051 024e 4D210000 		.4byte	.LASF42
 1052 0252 06       		.byte	0x6
 1053 0253 41       		.byte	0x41
 1054 0254 E7000000 		.4byte	0xe7
 1055 0258 1840     		.2byte	0x4018
 1056 025a 0D       		.uleb128 0xd
 1057 025b 14000000 		.4byte	.LASF43
 1058 025f 06       		.byte	0x6
 1059 0260 42       		.byte	0x42
 1060 0261 EC000000 		.4byte	0xec
 1061 0265 1C40     		.2byte	0x401c
 1062 0267 0D       		.uleb128 0xd
 1063 0268 5C170000 		.4byte	.LASF44
 1064 026c 06       		.byte	0x6
 1065 026d 43       		.byte	0x43
 1066 026e E7000000 		.4byte	0xe7
 1067 0272 2040     		.2byte	0x4020
 1068 0274 00       		.byte	0
 1069 0275 07       		.uleb128 0x7
 1070 0276 DF010000 		.4byte	0x1df
 1071 027a 85020000 		.4byte	0x285
 1072 027e 08       		.uleb128 0x8
 1073 027f E0000000 		.4byte	0xe0
 1074 0283 7F       		.byte	0x7f
 1075 0284 00       		.byte	0
 1076 0285 04       		.uleb128 0x4
 1077 0286 3D080000 		.4byte	.LASF45
 1078 028a 06       		.byte	0x6
 1079 028b 44       		.byte	0x44
 1080 028c EA010000 		.4byte	0x1ea
 1081 0290 09       		.uleb128 0x9
 1082 0291 40       		.byte	0x40
 1083 0292 07       		.byte	0x7
 1084 0293 22       		.byte	0x22
 1085 0294 58030000 		.4byte	0x358
 1086 0298 0B       		.uleb128 0xb
 1087 0299 66240000 		.4byte	.LASF46
 1088 029d 07       		.byte	0x7
ARM GAS  C:\Users\haske\AppData\Local\Temp\cckhubq2.s 			page 44


 1089 029e 23       		.byte	0x23
 1090 029f E7000000 		.4byte	0xe7
 1091 02a3 00       		.byte	0
 1092 02a4 0B       		.uleb128 0xb
 1093 02a5 BE220000 		.4byte	.LASF47
 1094 02a9 07       		.byte	0x7
 1095 02aa 24       		.byte	0x24
 1096 02ab EC000000 		.4byte	0xec
 1097 02af 04       		.byte	0x4
 1098 02b0 0B       		.uleb128 0xb
 1099 02b1 E2170000 		.4byte	.LASF48
 1100 02b5 07       		.byte	0x7
 1101 02b6 25       		.byte	0x25
 1102 02b7 E7000000 		.4byte	0xe7
 1103 02bb 08       		.byte	0x8
 1104 02bc 0A       		.uleb128 0xa
 1105 02bd 434300   		.ascii	"CC\000"
 1106 02c0 07       		.byte	0x7
 1107 02c1 26       		.byte	0x26
 1108 02c2 E7000000 		.4byte	0xe7
 1109 02c6 0C       		.byte	0xc
 1110 02c7 0B       		.uleb128 0xb
 1111 02c8 421D0000 		.4byte	.LASF49
 1112 02cc 07       		.byte	0x7
 1113 02cd 27       		.byte	0x27
 1114 02ce E7000000 		.4byte	0xe7
 1115 02d2 10       		.byte	0x10
 1116 02d3 0B       		.uleb128 0xb
 1117 02d4 950F0000 		.4byte	.LASF50
 1118 02d8 07       		.byte	0x7
 1119 02d9 28       		.byte	0x28
 1120 02da E7000000 		.4byte	0xe7
 1121 02de 14       		.byte	0x14
 1122 02df 0B       		.uleb128 0xb
 1123 02e0 50240000 		.4byte	.LASF51
 1124 02e4 07       		.byte	0x7
 1125 02e5 29       		.byte	0x29
 1126 02e6 E7000000 		.4byte	0xe7
 1127 02ea 18       		.byte	0x18
 1128 02eb 0B       		.uleb128 0xb
 1129 02ec 35000000 		.4byte	.LASF32
 1130 02f0 07       		.byte	0x7
 1131 02f1 2A       		.byte	0x2a
 1132 02f2 EC000000 		.4byte	0xec
 1133 02f6 1C       		.byte	0x1c
 1134 02f7 0B       		.uleb128 0xb
 1135 02f8 FB210000 		.4byte	.LASF52
 1136 02fc 07       		.byte	0x7
 1137 02fd 2B       		.byte	0x2b
 1138 02fe E7000000 		.4byte	0xe7
 1139 0302 20       		.byte	0x20
 1140 0303 0B       		.uleb128 0xb
 1141 0304 04220000 		.4byte	.LASF53
 1142 0308 07       		.byte	0x7
 1143 0309 2C       		.byte	0x2c
 1144 030a E7000000 		.4byte	0xe7
 1145 030e 24       		.byte	0x24
ARM GAS  C:\Users\haske\AppData\Local\Temp\cckhubq2.s 			page 45


 1146 030f 0B       		.uleb128 0xb
 1147 0310 0D220000 		.4byte	.LASF54
 1148 0314 07       		.byte	0x7
 1149 0315 2D       		.byte	0x2d
 1150 0316 E7000000 		.4byte	0xe7
 1151 031a 28       		.byte	0x28
 1152 031b 0B       		.uleb128 0xb
 1153 031c 9F220000 		.4byte	.LASF34
 1154 0320 07       		.byte	0x7
 1155 0321 2E       		.byte	0x2e
 1156 0322 EC000000 		.4byte	0xec
 1157 0326 2C       		.byte	0x2c
 1158 0327 0B       		.uleb128 0xb
 1159 0328 0E140000 		.4byte	.LASF24
 1160 032c 07       		.byte	0x7
 1161 032d 2F       		.byte	0x2f
 1162 032e E7000000 		.4byte	0xe7
 1163 0332 30       		.byte	0x30
 1164 0333 0B       		.uleb128 0xb
 1165 0334 D0040000 		.4byte	.LASF27
 1166 0338 07       		.byte	0x7
 1167 0339 30       		.byte	0x30
 1168 033a E7000000 		.4byte	0xe7
 1169 033e 34       		.byte	0x34
 1170 033f 0B       		.uleb128 0xb
 1171 0340 AC0E0000 		.4byte	.LASF25
 1172 0344 07       		.byte	0x7
 1173 0345 31       		.byte	0x31
 1174 0346 E7000000 		.4byte	0xe7
 1175 034a 38       		.byte	0x38
 1176 034b 0B       		.uleb128 0xb
 1177 034c 361D0000 		.4byte	.LASF26
 1178 0350 07       		.byte	0x7
 1179 0351 32       		.byte	0x32
 1180 0352 EC000000 		.4byte	0xec
 1181 0356 3C       		.byte	0x3c
 1182 0357 00       		.byte	0
 1183 0358 04       		.uleb128 0x4
 1184 0359 FB140000 		.4byte	.LASF55
 1185 035d 07       		.byte	0x7
 1186 035e 33       		.byte	0x33
 1187 035f 90020000 		.4byte	0x290
 1188 0363 0C       		.uleb128 0xc
 1189 0364 0009     		.2byte	0x900
 1190 0366 07       		.byte	0x7
 1191 0367 38       		.byte	0x38
 1192 0368 E6030000 		.4byte	0x3e6
 1193 036c 0B       		.uleb128 0xb
 1194 036d 66240000 		.4byte	.LASF46
 1195 0371 07       		.byte	0x7
 1196 0372 39       		.byte	0x39
 1197 0373 E7000000 		.4byte	0xe7
 1198 0377 00       		.byte	0
 1199 0378 0B       		.uleb128 0xb
 1200 0379 AA120000 		.4byte	.LASF56
 1201 037d 07       		.byte	0x7
 1202 037e 3A       		.byte	0x3a
ARM GAS  C:\Users\haske\AppData\Local\Temp\cckhubq2.s 			page 46


 1203 037f E7000000 		.4byte	0xe7
 1204 0383 04       		.byte	0x4
 1205 0384 0B       		.uleb128 0xb
 1206 0385 B90F0000 		.4byte	.LASF57
 1207 0389 07       		.byte	0x7
 1208 038a 3B       		.byte	0x3b
 1209 038b E7000000 		.4byte	0xe7
 1210 038f 08       		.byte	0x8
 1211 0390 0B       		.uleb128 0xb
 1212 0391 B0000000 		.4byte	.LASF58
 1213 0395 07       		.byte	0x7
 1214 0396 3C       		.byte	0x3c
 1215 0397 E7000000 		.4byte	0xe7
 1216 039b 0C       		.byte	0xc
 1217 039c 0B       		.uleb128 0xb
 1218 039d B6020000 		.4byte	.LASF59
 1219 03a1 07       		.byte	0x7
 1220 03a2 3D       		.byte	0x3d
 1221 03a3 E7000000 		.4byte	0xe7
 1222 03a7 10       		.byte	0x10
 1223 03a8 0B       		.uleb128 0xb
 1224 03a9 01090000 		.4byte	.LASF60
 1225 03ad 07       		.byte	0x7
 1226 03ae 3E       		.byte	0x3e
 1227 03af E7000000 		.4byte	0xe7
 1228 03b3 14       		.byte	0x14
 1229 03b4 0B       		.uleb128 0xb
 1230 03b5 25200000 		.4byte	.LASF61
 1231 03b9 07       		.byte	0x7
 1232 03ba 3F       		.byte	0x3f
 1233 03bb E7000000 		.4byte	0xe7
 1234 03bf 18       		.byte	0x18
 1235 03c0 0B       		.uleb128 0xb
 1236 03c1 E3020000 		.4byte	.LASF62
 1237 03c5 07       		.byte	0x7
 1238 03c6 40       		.byte	0x40
 1239 03c7 EC000000 		.4byte	0xec
 1240 03cb 1C       		.byte	0x1c
 1241 03cc 0B       		.uleb128 0xb
 1242 03cd 35000000 		.4byte	.LASF32
 1243 03d1 07       		.byte	0x7
 1244 03d2 41       		.byte	0x41
 1245 03d3 FB030000 		.4byte	0x3fb
 1246 03d7 20       		.byte	0x20
 1247 03d8 0E       		.uleb128 0xe
 1248 03d9 434E5400 		.ascii	"CNT\000"
 1249 03dd 07       		.byte	0x7
 1250 03de 42       		.byte	0x42
 1251 03df 00040000 		.4byte	0x400
 1252 03e3 0001     		.2byte	0x100
 1253 03e5 00       		.byte	0
 1254 03e6 07       		.uleb128 0x7
 1255 03e7 EC000000 		.4byte	0xec
 1256 03eb F6030000 		.4byte	0x3f6
 1257 03ef 08       		.uleb128 0x8
 1258 03f0 E0000000 		.4byte	0xe0
 1259 03f4 37       		.byte	0x37
ARM GAS  C:\Users\haske\AppData\Local\Temp\cckhubq2.s 			page 47


 1260 03f5 00       		.byte	0
 1261 03f6 05       		.uleb128 0x5
 1262 03f7 E6030000 		.4byte	0x3e6
 1263 03fb 06       		.uleb128 0x6
 1264 03fc F6030000 		.4byte	0x3f6
 1265 0400 07       		.uleb128 0x7
 1266 0401 58030000 		.4byte	0x358
 1267 0405 10040000 		.4byte	0x410
 1268 0409 08       		.uleb128 0x8
 1269 040a E0000000 		.4byte	0xe0
 1270 040e 1F       		.byte	0x1f
 1271 040f 00       		.byte	0
 1272 0410 04       		.uleb128 0x4
 1273 0411 E3070000 		.4byte	.LASF63
 1274 0415 07       		.byte	0x7
 1275 0416 43       		.byte	0x43
 1276 0417 63030000 		.4byte	0x363
 1277 041b 0F       		.uleb128 0xf
 1278 041c 490E0000 		.4byte	.LASF64
 1279 0420 08       		.byte	0x8
 1280 0421 3106     		.2byte	0x631
 1281 0423 DF010000 		.4byte	0x1df
 1282 0427 0F       		.uleb128 0xf
 1283 0428 361F0000 		.4byte	.LASF65
 1284 042c 08       		.byte	0x8
 1285 042d 3206     		.2byte	0x632
 1286 042f 85020000 		.4byte	0x285
 1287 0433 0F       		.uleb128 0xf
 1288 0434 89120000 		.4byte	.LASF66
 1289 0438 08       		.byte	0x8
 1290 0439 4206     		.2byte	0x642
 1291 043b 10040000 		.4byte	0x410
 1292 043f 02       		.uleb128 0x2
 1293 0440 08       		.byte	0x8
 1294 0441 04       		.byte	0x4
 1295 0442 04170000 		.4byte	.LASF67
 1296 0446 09       		.uleb128 0x9
 1297 0447 B8       		.byte	0xb8
 1298 0448 09       		.byte	0x9
 1299 0449 34       		.byte	0x34
 1300 044a 57080000 		.4byte	0x857
 1301 044e 0B       		.uleb128 0xb
 1302 044f 8E030000 		.4byte	.LASF68
 1303 0453 09       		.byte	0x9
 1304 0454 37       		.byte	0x37
 1305 0455 D5000000 		.4byte	0xd5
 1306 0459 00       		.byte	0
 1307 045a 0B       		.uleb128 0xb
 1308 045b 41020000 		.4byte	.LASF69
 1309 045f 09       		.byte	0x9
 1310 0460 38       		.byte	0x38
 1311 0461 D5000000 		.4byte	0xd5
 1312 0465 04       		.byte	0x4
 1313 0466 0B       		.uleb128 0xb
 1314 0467 E9010000 		.4byte	.LASF70
 1315 046b 09       		.byte	0x9
 1316 046c 39       		.byte	0x39
ARM GAS  C:\Users\haske\AppData\Local\Temp\cckhubq2.s 			page 48


 1317 046d D5000000 		.4byte	0xd5
 1318 0471 08       		.byte	0x8
 1319 0472 0B       		.uleb128 0xb
 1320 0473 630A0000 		.4byte	.LASF71
 1321 0477 09       		.byte	0x9
 1322 0478 3A       		.byte	0x3a
 1323 0479 D5000000 		.4byte	0xd5
 1324 047d 0C       		.byte	0xc
 1325 047e 0B       		.uleb128 0xb
 1326 047f CD1A0000 		.4byte	.LASF72
 1327 0483 09       		.byte	0x9
 1328 0484 3B       		.byte	0x3b
 1329 0485 D5000000 		.4byte	0xd5
 1330 0489 10       		.byte	0x10
 1331 048a 0B       		.uleb128 0xb
 1332 048b B1130000 		.4byte	.LASF73
 1333 048f 09       		.byte	0x9
 1334 0490 3C       		.byte	0x3c
 1335 0491 D5000000 		.4byte	0xd5
 1336 0495 14       		.byte	0x14
 1337 0496 0B       		.uleb128 0xb
 1338 0497 3F0D0000 		.4byte	.LASF74
 1339 049b 09       		.byte	0x9
 1340 049c 3D       		.byte	0x3d
 1341 049d D5000000 		.4byte	0xd5
 1342 04a1 18       		.byte	0x18
 1343 04a2 0B       		.uleb128 0xb
 1344 04a3 82220000 		.4byte	.LASF75
 1345 04a7 09       		.byte	0x9
 1346 04a8 3E       		.byte	0x3e
 1347 04a9 D5000000 		.4byte	0xd5
 1348 04ad 1C       		.byte	0x1c
 1349 04ae 0B       		.uleb128 0xb
 1350 04af A2120000 		.4byte	.LASF76
 1351 04b3 09       		.byte	0x9
 1352 04b4 3F       		.byte	0x3f
 1353 04b5 D5000000 		.4byte	0xd5
 1354 04b9 20       		.byte	0x20
 1355 04ba 0B       		.uleb128 0xb
 1356 04bb DC0E0000 		.4byte	.LASF77
 1357 04bf 09       		.byte	0x9
 1358 04c0 40       		.byte	0x40
 1359 04c1 D5000000 		.4byte	0xd5
 1360 04c5 24       		.byte	0x24
 1361 04c6 0B       		.uleb128 0xb
 1362 04c7 551A0000 		.4byte	.LASF78
 1363 04cb 09       		.byte	0x9
 1364 04cc 43       		.byte	0x43
 1365 04cd A9000000 		.4byte	0xa9
 1366 04d1 28       		.byte	0x28
 1367 04d2 0B       		.uleb128 0xb
 1368 04d3 E2080000 		.4byte	.LASF79
 1369 04d7 09       		.byte	0x9
 1370 04d8 44       		.byte	0x44
 1371 04d9 A9000000 		.4byte	0xa9
 1372 04dd 29       		.byte	0x29
 1373 04de 0B       		.uleb128 0xb
ARM GAS  C:\Users\haske\AppData\Local\Temp\cckhubq2.s 			page 49


 1374 04df 170E0000 		.4byte	.LASF80
 1375 04e3 09       		.byte	0x9
 1376 04e4 45       		.byte	0x45
 1377 04e5 A9000000 		.4byte	0xa9
 1378 04e9 2A       		.byte	0x2a
 1379 04ea 0B       		.uleb128 0xb
 1380 04eb AD1A0000 		.4byte	.LASF81
 1381 04ef 09       		.byte	0x9
 1382 04f0 46       		.byte	0x46
 1383 04f1 A9000000 		.4byte	0xa9
 1384 04f5 2B       		.byte	0x2b
 1385 04f6 0B       		.uleb128 0xb
 1386 04f7 73030000 		.4byte	.LASF82
 1387 04fb 09       		.byte	0x9
 1388 04fc 47       		.byte	0x47
 1389 04fd A9000000 		.4byte	0xa9
 1390 0501 2C       		.byte	0x2c
 1391 0502 0B       		.uleb128 0xb
 1392 0503 A11D0000 		.4byte	.LASF83
 1393 0507 09       		.byte	0x9
 1394 0508 48       		.byte	0x48
 1395 0509 A9000000 		.4byte	0xa9
 1396 050d 2D       		.byte	0x2d
 1397 050e 0B       		.uleb128 0xb
 1398 050f 12240000 		.4byte	.LASF84
 1399 0513 09       		.byte	0x9
 1400 0514 49       		.byte	0x49
 1401 0515 A9000000 		.4byte	0xa9
 1402 0519 2E       		.byte	0x2e
 1403 051a 0B       		.uleb128 0xb
 1404 051b 41220000 		.4byte	.LASF85
 1405 051f 09       		.byte	0x9
 1406 0520 4A       		.byte	0x4a
 1407 0521 A9000000 		.4byte	0xa9
 1408 0525 2F       		.byte	0x2f
 1409 0526 0B       		.uleb128 0xb
 1410 0527 FB0D0000 		.4byte	.LASF86
 1411 052b 09       		.byte	0x9
 1412 052c 4B       		.byte	0x4b
 1413 052d A9000000 		.4byte	0xa9
 1414 0531 30       		.byte	0x30
 1415 0532 0B       		.uleb128 0xb
 1416 0533 0D150000 		.4byte	.LASF87
 1417 0537 09       		.byte	0x9
 1418 0538 4E       		.byte	0x4e
 1419 0539 A9000000 		.4byte	0xa9
 1420 053d 31       		.byte	0x31
 1421 053e 0B       		.uleb128 0xb
 1422 053f 85210000 		.4byte	.LASF88
 1423 0543 09       		.byte	0x9
 1424 0544 4F       		.byte	0x4f
 1425 0545 A9000000 		.4byte	0xa9
 1426 0549 32       		.byte	0x32
 1427 054a 0B       		.uleb128 0xb
 1428 054b 52140000 		.4byte	.LASF89
 1429 054f 09       		.byte	0x9
 1430 0550 50       		.byte	0x50
ARM GAS  C:\Users\haske\AppData\Local\Temp\cckhubq2.s 			page 50


 1431 0551 A9000000 		.4byte	0xa9
 1432 0555 33       		.byte	0x33
 1433 0556 0B       		.uleb128 0xb
 1434 0557 5A0F0000 		.4byte	.LASF90
 1435 055b 09       		.byte	0x9
 1436 055c 51       		.byte	0x51
 1437 055d A9000000 		.4byte	0xa9
 1438 0561 34       		.byte	0x34
 1439 0562 0B       		.uleb128 0xb
 1440 0563 0C0A0000 		.4byte	.LASF91
 1441 0567 09       		.byte	0x9
 1442 0568 52       		.byte	0x52
 1443 0569 B4000000 		.4byte	0xb4
 1444 056d 36       		.byte	0x36
 1445 056e 0B       		.uleb128 0xb
 1446 056f 0C040000 		.4byte	.LASF92
 1447 0573 09       		.byte	0x9
 1448 0574 53       		.byte	0x53
 1449 0575 B4000000 		.4byte	0xb4
 1450 0579 38       		.byte	0x38
 1451 057a 0B       		.uleb128 0xb
 1452 057b 5A040000 		.4byte	.LASF93
 1453 057f 09       		.byte	0x9
 1454 0580 54       		.byte	0x54
 1455 0581 B4000000 		.4byte	0xb4
 1456 0585 3A       		.byte	0x3a
 1457 0586 0B       		.uleb128 0xb
 1458 0587 7F030000 		.4byte	.LASF94
 1459 058b 09       		.byte	0x9
 1460 058c 55       		.byte	0x55
 1461 058d A9000000 		.4byte	0xa9
 1462 0591 3C       		.byte	0x3c
 1463 0592 0B       		.uleb128 0xb
 1464 0593 1A0C0000 		.4byte	.LASF95
 1465 0597 09       		.byte	0x9
 1466 0598 56       		.byte	0x56
 1467 0599 A9000000 		.4byte	0xa9
 1468 059d 3D       		.byte	0x3d
 1469 059e 0B       		.uleb128 0xb
 1470 059f D4170000 		.4byte	.LASF96
 1471 05a3 09       		.byte	0x9
 1472 05a4 57       		.byte	0x57
 1473 05a5 A9000000 		.4byte	0xa9
 1474 05a9 3E       		.byte	0x3e
 1475 05aa 0B       		.uleb128 0xb
 1476 05ab 67010000 		.4byte	.LASF97
 1477 05af 09       		.byte	0x9
 1478 05b0 58       		.byte	0x58
 1479 05b1 A9000000 		.4byte	0xa9
 1480 05b5 3F       		.byte	0x3f
 1481 05b6 0B       		.uleb128 0xb
 1482 05b7 EE020000 		.4byte	.LASF98
 1483 05bb 09       		.byte	0x9
 1484 05bc 59       		.byte	0x59
 1485 05bd A9000000 		.4byte	0xa9
 1486 05c1 40       		.byte	0x40
 1487 05c2 0B       		.uleb128 0xb
ARM GAS  C:\Users\haske\AppData\Local\Temp\cckhubq2.s 			page 51


 1488 05c3 84150000 		.4byte	.LASF99
 1489 05c7 09       		.byte	0x9
 1490 05c8 5A       		.byte	0x5a
 1491 05c9 A9000000 		.4byte	0xa9
 1492 05cd 41       		.byte	0x41
 1493 05ce 0B       		.uleb128 0xb
 1494 05cf F0080000 		.4byte	.LASF100
 1495 05d3 09       		.byte	0x9
 1496 05d4 5B       		.byte	0x5b
 1497 05d5 A9000000 		.4byte	0xa9
 1498 05d9 42       		.byte	0x42
 1499 05da 0B       		.uleb128 0xb
 1500 05db 3E0E0000 		.4byte	.LASF101
 1501 05df 09       		.byte	0x9
 1502 05e0 5C       		.byte	0x5c
 1503 05e1 A9000000 		.4byte	0xa9
 1504 05e5 43       		.byte	0x43
 1505 05e6 0B       		.uleb128 0xb
 1506 05e7 65100000 		.4byte	.LASF102
 1507 05eb 09       		.byte	0x9
 1508 05ec 5D       		.byte	0x5d
 1509 05ed A9000000 		.4byte	0xa9
 1510 05f1 44       		.byte	0x44
 1511 05f2 0B       		.uleb128 0xb
 1512 05f3 BB1A0000 		.4byte	.LASF103
 1513 05f7 09       		.byte	0x9
 1514 05f8 5E       		.byte	0x5e
 1515 05f9 D5000000 		.4byte	0xd5
 1516 05fd 48       		.byte	0x48
 1517 05fe 0B       		.uleb128 0xb
 1518 05ff D9040000 		.4byte	.LASF104
 1519 0603 09       		.byte	0x9
 1520 0604 5F       		.byte	0x5f
 1521 0605 D5000000 		.4byte	0xd5
 1522 0609 4C       		.byte	0x4c
 1523 060a 0B       		.uleb128 0xb
 1524 060b E2200000 		.4byte	.LASF105
 1525 060f 09       		.byte	0x9
 1526 0610 60       		.byte	0x60
 1527 0611 A9000000 		.4byte	0xa9
 1528 0615 50       		.byte	0x50
 1529 0616 0B       		.uleb128 0xb
 1530 0617 820C0000 		.4byte	.LASF106
 1531 061b 09       		.byte	0x9
 1532 061c 61       		.byte	0x61
 1533 061d A9000000 		.4byte	0xa9
 1534 0621 51       		.byte	0x51
 1535 0622 0B       		.uleb128 0xb
 1536 0623 070E0000 		.4byte	.LASF107
 1537 0627 09       		.byte	0x9
 1538 0628 62       		.byte	0x62
 1539 0629 A9000000 		.4byte	0xa9
 1540 062d 52       		.byte	0x52
 1541 062e 0B       		.uleb128 0xb
 1542 062f A0160000 		.4byte	.LASF108
 1543 0633 09       		.byte	0x9
 1544 0634 63       		.byte	0x63
ARM GAS  C:\Users\haske\AppData\Local\Temp\cckhubq2.s 			page 52


 1545 0635 A9000000 		.4byte	0xa9
 1546 0639 53       		.byte	0x53
 1547 063a 0B       		.uleb128 0xb
 1548 063b 15200000 		.4byte	.LASF109
 1549 063f 09       		.byte	0x9
 1550 0640 64       		.byte	0x64
 1551 0641 A9000000 		.4byte	0xa9
 1552 0645 54       		.byte	0x54
 1553 0646 0B       		.uleb128 0xb
 1554 0647 DD0C0000 		.4byte	.LASF110
 1555 064b 09       		.byte	0x9
 1556 064c 65       		.byte	0x65
 1557 064d A9000000 		.4byte	0xa9
 1558 0651 55       		.byte	0x55
 1559 0652 0B       		.uleb128 0xb
 1560 0653 00000000 		.4byte	.LASF111
 1561 0657 09       		.byte	0x9
 1562 0658 66       		.byte	0x66
 1563 0659 A9000000 		.4byte	0xa9
 1564 065d 56       		.byte	0x56
 1565 065e 0B       		.uleb128 0xb
 1566 065f 8B220000 		.4byte	.LASF112
 1567 0663 09       		.byte	0x9
 1568 0664 67       		.byte	0x67
 1569 0665 A9000000 		.4byte	0xa9
 1570 0669 57       		.byte	0x57
 1571 066a 0B       		.uleb128 0xb
 1572 066b F60B0000 		.4byte	.LASF113
 1573 066f 09       		.byte	0x9
 1574 0670 68       		.byte	0x68
 1575 0671 A9000000 		.4byte	0xa9
 1576 0675 58       		.byte	0x58
 1577 0676 0B       		.uleb128 0xb
 1578 0677 CD220000 		.4byte	.LASF114
 1579 067b 09       		.byte	0x9
 1580 067c 69       		.byte	0x69
 1581 067d A9000000 		.4byte	0xa9
 1582 0681 59       		.byte	0x59
 1583 0682 0B       		.uleb128 0xb
 1584 0683 7A210000 		.4byte	.LASF115
 1585 0687 09       		.byte	0x9
 1586 0688 6E       		.byte	0x6e
 1587 0689 BF000000 		.4byte	0xbf
 1588 068d 5A       		.byte	0x5a
 1589 068e 0B       		.uleb128 0xb
 1590 068f 61020000 		.4byte	.LASF116
 1591 0693 09       		.byte	0x9
 1592 0694 6F       		.byte	0x6f
 1593 0695 BF000000 		.4byte	0xbf
 1594 0699 5C       		.byte	0x5c
 1595 069a 0B       		.uleb128 0xb
 1596 069b 4F030000 		.4byte	.LASF117
 1597 069f 09       		.byte	0x9
 1598 06a0 70       		.byte	0x70
 1599 06a1 A9000000 		.4byte	0xa9
 1600 06a5 5E       		.byte	0x5e
 1601 06a6 0B       		.uleb128 0xb
ARM GAS  C:\Users\haske\AppData\Local\Temp\cckhubq2.s 			page 53


 1602 06a7 93210000 		.4byte	.LASF118
 1603 06ab 09       		.byte	0x9
 1604 06ac 71       		.byte	0x71
 1605 06ad A9000000 		.4byte	0xa9
 1606 06b1 5F       		.byte	0x5f
 1607 06b2 0B       		.uleb128 0xb
 1608 06b3 900E0000 		.4byte	.LASF119
 1609 06b7 09       		.byte	0x9
 1610 06b8 72       		.byte	0x72
 1611 06b9 A9000000 		.4byte	0xa9
 1612 06bd 60       		.byte	0x60
 1613 06be 0B       		.uleb128 0xb
 1614 06bf 43110000 		.4byte	.LASF120
 1615 06c3 09       		.byte	0x9
 1616 06c4 73       		.byte	0x73
 1617 06c5 D5000000 		.4byte	0xd5
 1618 06c9 64       		.byte	0x64
 1619 06ca 0B       		.uleb128 0xb
 1620 06cb 2F180000 		.4byte	.LASF121
 1621 06cf 09       		.byte	0x9
 1622 06d0 76       		.byte	0x76
 1623 06d1 BF000000 		.4byte	0xbf
 1624 06d5 68       		.byte	0x68
 1625 06d6 0B       		.uleb128 0xb
 1626 06d7 48040000 		.4byte	.LASF122
 1627 06db 09       		.byte	0x9
 1628 06dc 77       		.byte	0x77
 1629 06dd BF000000 		.4byte	0xbf
 1630 06e1 6A       		.byte	0x6a
 1631 06e2 0B       		.uleb128 0xb
 1632 06e3 FF130000 		.4byte	.LASF123
 1633 06e7 09       		.byte	0x9
 1634 06e8 78       		.byte	0x78
 1635 06e9 BF000000 		.4byte	0xbf
 1636 06ed 6C       		.byte	0x6c
 1637 06ee 0B       		.uleb128 0xb
 1638 06ef 94040000 		.4byte	.LASF124
 1639 06f3 09       		.byte	0x9
 1640 06f4 79       		.byte	0x79
 1641 06f5 BF000000 		.4byte	0xbf
 1642 06f9 6E       		.byte	0x6e
 1643 06fa 0B       		.uleb128 0xb
 1644 06fb 6A0B0000 		.4byte	.LASF125
 1645 06ff 09       		.byte	0x9
 1646 0700 7B       		.byte	0x7b
 1647 0701 A9000000 		.4byte	0xa9
 1648 0705 70       		.byte	0x70
 1649 0706 0B       		.uleb128 0xb
 1650 0707 EF060000 		.4byte	.LASF126
 1651 070b 09       		.byte	0x9
 1652 070c 7C       		.byte	0x7c
 1653 070d A9000000 		.4byte	0xa9
 1654 0711 71       		.byte	0x71
 1655 0712 0B       		.uleb128 0xb
 1656 0713 B30A0000 		.4byte	.LASF127
 1657 0717 09       		.byte	0x9
 1658 0718 7D       		.byte	0x7d
ARM GAS  C:\Users\haske\AppData\Local\Temp\cckhubq2.s 			page 54


 1659 0719 A9000000 		.4byte	0xa9
 1660 071d 72       		.byte	0x72
 1661 071e 0B       		.uleb128 0xb
 1662 071f 15030000 		.4byte	.LASF128
 1663 0723 09       		.byte	0x9
 1664 0724 7E       		.byte	0x7e
 1665 0725 A9000000 		.4byte	0xa9
 1666 0729 73       		.byte	0x73
 1667 072a 0B       		.uleb128 0xb
 1668 072b 6E190000 		.4byte	.LASF129
 1669 072f 09       		.byte	0x9
 1670 0730 80       		.byte	0x80
 1671 0731 BF000000 		.4byte	0xbf
 1672 0735 74       		.byte	0x74
 1673 0736 0B       		.uleb128 0xb
 1674 0737 B2160000 		.4byte	.LASF130
 1675 073b 09       		.byte	0x9
 1676 073c 81       		.byte	0x81
 1677 073d BF000000 		.4byte	0xbf
 1678 0741 76       		.byte	0x76
 1679 0742 0B       		.uleb128 0xb
 1680 0743 A9220000 		.4byte	.LASF131
 1681 0747 09       		.byte	0x9
 1682 0748 82       		.byte	0x82
 1683 0749 BF000000 		.4byte	0xbf
 1684 074d 78       		.byte	0x78
 1685 074e 0B       		.uleb128 0xb
 1686 074f A2090000 		.4byte	.LASF132
 1687 0753 09       		.byte	0x9
 1688 0754 83       		.byte	0x83
 1689 0755 BF000000 		.4byte	0xbf
 1690 0759 7A       		.byte	0x7a
 1691 075a 0B       		.uleb128 0xb
 1692 075b 791C0000 		.4byte	.LASF133
 1693 075f 09       		.byte	0x9
 1694 0760 86       		.byte	0x86
 1695 0761 A9000000 		.4byte	0xa9
 1696 0765 7C       		.byte	0x7c
 1697 0766 0B       		.uleb128 0xb
 1698 0767 18210000 		.4byte	.LASF134
 1699 076b 09       		.byte	0x9
 1700 076c 87       		.byte	0x87
 1701 076d A9000000 		.4byte	0xa9
 1702 0771 7D       		.byte	0x7d
 1703 0772 0B       		.uleb128 0xb
 1704 0773 47090000 		.4byte	.LASF135
 1705 0777 09       		.byte	0x9
 1706 0778 88       		.byte	0x88
 1707 0779 A9000000 		.4byte	0xa9
 1708 077d 7E       		.byte	0x7e
 1709 077e 0B       		.uleb128 0xb
 1710 077f 74080000 		.4byte	.LASF136
 1711 0783 09       		.byte	0x9
 1712 0784 89       		.byte	0x89
 1713 0785 A9000000 		.4byte	0xa9
 1714 0789 7F       		.byte	0x7f
 1715 078a 0B       		.uleb128 0xb
ARM GAS  C:\Users\haske\AppData\Local\Temp\cckhubq2.s 			page 55


 1716 078b B7090000 		.4byte	.LASF137
 1717 078f 09       		.byte	0x9
 1718 0790 8A       		.byte	0x8a
 1719 0791 A9000000 		.4byte	0xa9
 1720 0795 80       		.byte	0x80
 1721 0796 0B       		.uleb128 0xb
 1722 0797 50010000 		.4byte	.LASF138
 1723 079b 09       		.byte	0x9
 1724 079c 8D       		.byte	0x8d
 1725 079d D5000000 		.4byte	0xd5
 1726 07a1 84       		.byte	0x84
 1727 07a2 0B       		.uleb128 0xb
 1728 07a3 001D0000 		.4byte	.LASF139
 1729 07a7 09       		.byte	0x9
 1730 07a8 8E       		.byte	0x8e
 1731 07a9 D5000000 		.4byte	0xd5
 1732 07ad 88       		.byte	0x88
 1733 07ae 0B       		.uleb128 0xb
 1734 07af 5F150000 		.4byte	.LASF140
 1735 07b3 09       		.byte	0x9
 1736 07b4 8F       		.byte	0x8f
 1737 07b5 D5000000 		.4byte	0xd5
 1738 07b9 8C       		.byte	0x8c
 1739 07ba 0B       		.uleb128 0xb
 1740 07bb 59190000 		.4byte	.LASF141
 1741 07bf 09       		.byte	0x9
 1742 07c0 90       		.byte	0x90
 1743 07c1 D5000000 		.4byte	0xd5
 1744 07c5 90       		.byte	0x90
 1745 07c6 0B       		.uleb128 0xb
 1746 07c7 4F1C0000 		.4byte	.LASF142
 1747 07cb 09       		.byte	0x9
 1748 07cc 91       		.byte	0x91
 1749 07cd D5000000 		.4byte	0xd5
 1750 07d1 94       		.byte	0x94
 1751 07d2 0B       		.uleb128 0xb
 1752 07d3 04070000 		.4byte	.LASF143
 1753 07d7 09       		.byte	0x9
 1754 07d8 92       		.byte	0x92
 1755 07d9 D5000000 		.4byte	0xd5
 1756 07dd 98       		.byte	0x98
 1757 07de 0B       		.uleb128 0xb
 1758 07df 541D0000 		.4byte	.LASF144
 1759 07e3 09       		.byte	0x9
 1760 07e4 93       		.byte	0x93
 1761 07e5 D5000000 		.4byte	0xd5
 1762 07e9 9C       		.byte	0x9c
 1763 07ea 0B       		.uleb128 0xb
 1764 07eb 6A1D0000 		.4byte	.LASF145
 1765 07ef 09       		.byte	0x9
 1766 07f0 94       		.byte	0x94
 1767 07f1 D5000000 		.4byte	0xd5
 1768 07f5 A0       		.byte	0xa0
 1769 07f6 0B       		.uleb128 0xb
 1770 07f7 4C020000 		.4byte	.LASF146
 1771 07fb 09       		.byte	0x9
 1772 07fc 95       		.byte	0x95
ARM GAS  C:\Users\haske\AppData\Local\Temp\cckhubq2.s 			page 56


 1773 07fd BF000000 		.4byte	0xbf
 1774 0801 A4       		.byte	0xa4
 1775 0802 0B       		.uleb128 0xb
 1776 0803 44190000 		.4byte	.LASF147
 1777 0807 09       		.byte	0x9
 1778 0808 96       		.byte	0x96
 1779 0809 BF000000 		.4byte	0xbf
 1780 080d A6       		.byte	0xa6
 1781 080e 0B       		.uleb128 0xb
 1782 080f C01D0000 		.4byte	.LASF148
 1783 0813 09       		.byte	0x9
 1784 0814 97       		.byte	0x97
 1785 0815 BF000000 		.4byte	0xbf
 1786 0819 A8       		.byte	0xa8
 1787 081a 0B       		.uleb128 0xb
 1788 081b 7B120000 		.4byte	.LASF149
 1789 081f 09       		.byte	0x9
 1790 0820 98       		.byte	0x98
 1791 0821 BF000000 		.4byte	0xbf
 1792 0825 AA       		.byte	0xaa
 1793 0826 0B       		.uleb128 0xb
 1794 0827 09050000 		.4byte	.LASF150
 1795 082b 09       		.byte	0x9
 1796 082c 99       		.byte	0x99
 1797 082d BF000000 		.4byte	0xbf
 1798 0831 AC       		.byte	0xac
 1799 0832 0B       		.uleb128 0xb
 1800 0833 94150000 		.4byte	.LASF151
 1801 0837 09       		.byte	0x9
 1802 0838 9A       		.byte	0x9a
 1803 0839 BF000000 		.4byte	0xbf
 1804 083d AE       		.byte	0xae
 1805 083e 0B       		.uleb128 0xb
 1806 083f 3F050000 		.4byte	.LASF152
 1807 0843 09       		.byte	0x9
 1808 0844 9D       		.byte	0x9d
 1809 0845 BF000000 		.4byte	0xbf
 1810 0849 B0       		.byte	0xb0
 1811 084a 0B       		.uleb128 0xb
 1812 084b 401F0000 		.4byte	.LASF153
 1813 084f 09       		.byte	0x9
 1814 0850 9E       		.byte	0x9e
 1815 0851 D5000000 		.4byte	0xd5
 1816 0855 B4       		.byte	0xb4
 1817 0856 00       		.byte	0
 1818 0857 04       		.uleb128 0x4
 1819 0858 EB210000 		.4byte	.LASF154
 1820 085c 09       		.byte	0x9
 1821 085d 9F       		.byte	0x9f
 1822 085e 46040000 		.4byte	0x446
 1823 0862 0F       		.uleb128 0xf
 1824 0863 3C1B0000 		.4byte	.LASF155
 1825 0867 0A       		.byte	0xa
 1826 0868 F601     		.2byte	0x1f6
 1827 086a 6E080000 		.4byte	0x86e
 1828 086e 02       		.uleb128 0x2
 1829 086f 01       		.byte	0x1
ARM GAS  C:\Users\haske\AppData\Local\Temp\cckhubq2.s 			page 57


 1830 0870 08       		.byte	0x8
 1831 0871 B40F0000 		.4byte	.LASF156
 1832 0875 02       		.uleb128 0x2
 1833 0876 04       		.byte	0x4
 1834 0877 04       		.byte	0x4
 1835 0878 CC1D0000 		.4byte	.LASF157
 1836 087c 0F       		.uleb128 0xf
 1837 087d C8080000 		.4byte	.LASF158
 1838 0881 0A       		.byte	0xa
 1839 0882 EF03     		.2byte	0x3ef
 1840 0884 CA000000 		.4byte	0xca
 1841 0888 10       		.uleb128 0x10
 1842 0889 04       		.byte	0x4
 1843 088a 11       		.uleb128 0x11
 1844 088b 01       		.byte	0x1
 1845 088c 5A000000 		.4byte	0x5a
 1846 0890 0B       		.byte	0xb
 1847 0891 0201     		.2byte	0x102
 1848 0893 B0080000 		.4byte	0x8b0
 1849 0897 12       		.uleb128 0x12
 1850 0898 CC100000 		.4byte	.LASF159
 1851 089c 00       		.byte	0
 1852 089d 12       		.uleb128 0x12
 1853 089e D3020000 		.4byte	.LASF160
 1854 08a2 01       		.byte	0x1
 1855 08a3 12       		.uleb128 0x12
 1856 08a4 2F220000 		.4byte	.LASF161
 1857 08a8 02       		.byte	0x2
 1858 08a9 12       		.uleb128 0x12
 1859 08aa 7A110000 		.4byte	.LASF162
 1860 08ae 03       		.byte	0x3
 1861 08af 00       		.byte	0
 1862 08b0 0F       		.uleb128 0xf
 1863 08b1 C41E0000 		.4byte	.LASF163
 1864 08b5 0B       		.byte	0xb
 1865 08b6 0701     		.2byte	0x107
 1866 08b8 8A080000 		.4byte	0x88a
 1867 08bc 11       		.uleb128 0x11
 1868 08bd 01       		.byte	0x1
 1869 08be 5A000000 		.4byte	0x5a
 1870 08c2 0B       		.byte	0xb
 1871 08c3 0D01     		.2byte	0x10d
 1872 08c5 EE080000 		.4byte	0x8ee
 1873 08c9 12       		.uleb128 0x12
 1874 08ca 18150000 		.4byte	.LASF164
 1875 08ce 00       		.byte	0
 1876 08cf 12       		.uleb128 0x12
 1877 08d0 800A0000 		.4byte	.LASF165
 1878 08d4 01       		.byte	0x1
 1879 08d5 12       		.uleb128 0x12
 1880 08d6 A60A0000 		.4byte	.LASF166
 1881 08da 02       		.byte	0x2
 1882 08db 12       		.uleb128 0x12
 1883 08dc 9D0C0000 		.4byte	.LASF167
 1884 08e0 03       		.byte	0x3
 1885 08e1 12       		.uleb128 0x12
 1886 08e2 B10C0000 		.4byte	.LASF168
ARM GAS  C:\Users\haske\AppData\Local\Temp\cckhubq2.s 			page 58


 1887 08e6 04       		.byte	0x4
 1888 08e7 12       		.uleb128 0x12
 1889 08e8 2D0F0000 		.4byte	.LASF169
 1890 08ec 05       		.byte	0x5
 1891 08ed 00       		.byte	0
 1892 08ee 0F       		.uleb128 0xf
 1893 08ef 45100000 		.4byte	.LASF170
 1894 08f3 0B       		.byte	0xb
 1895 08f4 1401     		.2byte	0x114
 1896 08f6 BC080000 		.4byte	0x8bc
 1897 08fa 11       		.uleb128 0x11
 1898 08fb 01       		.byte	0x1
 1899 08fc 5A000000 		.4byte	0x5a
 1900 0900 0B       		.byte	0xb
 1901 0901 1A01     		.2byte	0x11a
 1902 0903 14090000 		.4byte	0x914
 1903 0907 12       		.uleb128 0x12
 1904 0908 E70D0000 		.4byte	.LASF171
 1905 090c 00       		.byte	0
 1906 090d 12       		.uleb128 0x12
 1907 090e 4D130000 		.4byte	.LASF172
 1908 0912 01       		.byte	0x1
 1909 0913 00       		.byte	0
 1910 0914 0F       		.uleb128 0xf
 1911 0915 CD010000 		.4byte	.LASF173
 1912 0919 0B       		.byte	0xb
 1913 091a 1D01     		.2byte	0x11d
 1914 091c FA080000 		.4byte	0x8fa
 1915 0920 11       		.uleb128 0x11
 1916 0921 01       		.byte	0x1
 1917 0922 5A000000 		.4byte	0x5a
 1918 0926 0B       		.byte	0xb
 1919 0927 2301     		.2byte	0x123
 1920 0929 3A090000 		.4byte	0x93a
 1921 092d 12       		.uleb128 0x12
 1922 092e 2F090000 		.4byte	.LASF174
 1923 0932 00       		.byte	0
 1924 0933 12       		.uleb128 0x12
 1925 0934 421E0000 		.4byte	.LASF175
 1926 0938 01       		.byte	0x1
 1927 0939 00       		.byte	0
 1928 093a 0F       		.uleb128 0xf
 1929 093b D0200000 		.4byte	.LASF176
 1930 093f 0B       		.byte	0xb
 1931 0940 2601     		.2byte	0x126
 1932 0942 20090000 		.4byte	0x920
 1933 0946 13       		.uleb128 0x13
 1934 0947 28       		.byte	0x28
 1935 0948 0B       		.byte	0xb
 1936 0949 3201     		.2byte	0x132
 1937 094b F00A0000 		.4byte	0xaf0
 1938 094f 14       		.uleb128 0x14
 1939 0950 DA120000 		.4byte	.LASF177
 1940 0954 0B       		.byte	0xb
 1941 0955 3401     		.2byte	0x134
 1942 0957 F00A0000 		.4byte	0xaf0
 1943 095b 00       		.byte	0
ARM GAS  C:\Users\haske\AppData\Local\Temp\cckhubq2.s 			page 59


 1944 095c 14       		.uleb128 0x14
 1945 095d 71170000 		.4byte	.LASF178
 1946 0961 0B       		.byte	0xb
 1947 0962 3501     		.2byte	0x135
 1948 0964 F00A0000 		.4byte	0xaf0
 1949 0968 01       		.byte	0x1
 1950 0969 14       		.uleb128 0x14
 1951 096a 6A020000 		.4byte	.LASF179
 1952 096e 0B       		.byte	0xb
 1953 096f 3601     		.2byte	0x136
 1954 0971 F00A0000 		.4byte	0xaf0
 1955 0975 02       		.byte	0x2
 1956 0976 14       		.uleb128 0x14
 1957 0977 D90B0000 		.4byte	.LASF180
 1958 097b 0B       		.byte	0xb
 1959 097c 3701     		.2byte	0x137
 1960 097e F00A0000 		.4byte	0xaf0
 1961 0982 03       		.byte	0x3
 1962 0983 14       		.uleb128 0x14
 1963 0984 D3120000 		.4byte	.LASF181
 1964 0988 0B       		.byte	0xb
 1965 0989 3801     		.2byte	0x138
 1966 098b A9000000 		.4byte	0xa9
 1967 098f 04       		.byte	0x4
 1968 0990 14       		.uleb128 0x14
 1969 0991 8C110000 		.4byte	.LASF182
 1970 0995 0B       		.byte	0xb
 1971 0996 3901     		.2byte	0x139
 1972 0998 F00A0000 		.4byte	0xaf0
 1973 099c 05       		.byte	0x5
 1974 099d 14       		.uleb128 0x14
 1975 099e 7F040000 		.4byte	.LASF183
 1976 09a2 0B       		.byte	0xb
 1977 09a3 3A01     		.2byte	0x13a
 1978 09a5 F00A0000 		.4byte	0xaf0
 1979 09a9 06       		.byte	0x6
 1980 09aa 14       		.uleb128 0x14
 1981 09ab A81E0000 		.4byte	.LASF184
 1982 09af 0B       		.byte	0xb
 1983 09b0 3B01     		.2byte	0x13b
 1984 09b2 B0080000 		.4byte	0x8b0
 1985 09b6 07       		.byte	0x7
 1986 09b7 14       		.uleb128 0x14
 1987 09b8 681F0000 		.4byte	.LASF185
 1988 09bc 0B       		.byte	0xb
 1989 09bd 3C01     		.2byte	0x13c
 1990 09bf 3A090000 		.4byte	0x93a
 1991 09c3 08       		.byte	0x8
 1992 09c4 14       		.uleb128 0x14
 1993 09c5 D2070000 		.4byte	.LASF186
 1994 09c9 0B       		.byte	0xb
 1995 09ca 3F01     		.2byte	0x13f
 1996 09cc F00A0000 		.4byte	0xaf0
 1997 09d0 09       		.byte	0x9
 1998 09d1 14       		.uleb128 0x14
 1999 09d2 1C120000 		.4byte	.LASF187
 2000 09d6 0B       		.byte	0xb
ARM GAS  C:\Users\haske\AppData\Local\Temp\cckhubq2.s 			page 60


 2001 09d7 4001     		.2byte	0x140
 2002 09d9 D5000000 		.4byte	0xd5
 2003 09dd 0C       		.byte	0xc
 2004 09de 14       		.uleb128 0x14
 2005 09df DF190000 		.4byte	.LASF188
 2006 09e3 0B       		.byte	0xb
 2007 09e4 4101     		.2byte	0x141
 2008 09e6 F00A0000 		.4byte	0xaf0
 2009 09ea 10       		.byte	0x10
 2010 09eb 14       		.uleb128 0x14
 2011 09ec 6F040000 		.4byte	.LASF189
 2012 09f0 0B       		.byte	0xb
 2013 09f1 4901     		.2byte	0x149
 2014 09f3 F00A0000 		.4byte	0xaf0
 2015 09f7 11       		.byte	0x11
 2016 09f8 14       		.uleb128 0x14
 2017 09f9 1F180000 		.4byte	.LASF190
 2018 09fd 0B       		.byte	0xb
 2019 09fe 5001     		.2byte	0x150
 2020 0a00 F00A0000 		.4byte	0xaf0
 2021 0a04 12       		.byte	0x12
 2022 0a05 14       		.uleb128 0x14
 2023 0a06 9A170000 		.4byte	.LASF191
 2024 0a0a 0B       		.byte	0xb
 2025 0a0b 5701     		.2byte	0x157
 2026 0a0d A9000000 		.4byte	0xa9
 2027 0a11 13       		.byte	0x13
 2028 0a12 14       		.uleb128 0x14
 2029 0a13 AE0B0000 		.4byte	.LASF192
 2030 0a17 0B       		.byte	0xb
 2031 0a18 5A01     		.2byte	0x15a
 2032 0a1a EE080000 		.4byte	0x8ee
 2033 0a1e 14       		.byte	0x14
 2034 0a1f 14       		.uleb128 0x14
 2035 0a20 91140000 		.4byte	.LASF193
 2036 0a24 0B       		.byte	0xb
 2037 0a25 5D01     		.2byte	0x15d
 2038 0a27 EE080000 		.4byte	0x8ee
 2039 0a2b 15       		.byte	0x15
 2040 0a2c 14       		.uleb128 0x14
 2041 0a2d B41E0000 		.4byte	.LASF194
 2042 0a31 0B       		.byte	0xb
 2043 0a32 5F01     		.2byte	0x15f
 2044 0a34 14090000 		.4byte	0x914
 2045 0a38 16       		.byte	0x16
 2046 0a39 14       		.uleb128 0x14
 2047 0a3a 5F1E0000 		.4byte	.LASF195
 2048 0a3e 0B       		.byte	0xb
 2049 0a3f 6101     		.2byte	0x161
 2050 0a41 A9000000 		.4byte	0xa9
 2051 0a45 17       		.byte	0x17
 2052 0a46 14       		.uleb128 0x14
 2053 0a47 421C0000 		.4byte	.LASF196
 2054 0a4b 0B       		.byte	0xb
 2055 0a4c 6201     		.2byte	0x162
 2056 0a4e F00A0000 		.4byte	0xaf0
 2057 0a52 18       		.byte	0x18
ARM GAS  C:\Users\haske\AppData\Local\Temp\cckhubq2.s 			page 61


 2058 0a53 14       		.uleb128 0x14
 2059 0a54 39100000 		.4byte	.LASF197
 2060 0a58 0B       		.byte	0xb
 2061 0a59 6301     		.2byte	0x163
 2062 0a5b B0080000 		.4byte	0x8b0
 2063 0a5f 19       		.byte	0x19
 2064 0a60 14       		.uleb128 0x14
 2065 0a61 E0060000 		.4byte	.LASF198
 2066 0a65 0B       		.byte	0xb
 2067 0a66 6401     		.2byte	0x164
 2068 0a68 3A090000 		.4byte	0x93a
 2069 0a6c 1A       		.byte	0x1a
 2070 0a6d 14       		.uleb128 0x14
 2071 0a6e 8F160000 		.4byte	.LASF199
 2072 0a72 0B       		.byte	0xb
 2073 0a73 6701     		.2byte	0x167
 2074 0a75 F00A0000 		.4byte	0xaf0
 2075 0a79 1B       		.byte	0x1b
 2076 0a7a 14       		.uleb128 0x14
 2077 0a7b D2160000 		.4byte	.LASF200
 2078 0a7f 0B       		.byte	0xb
 2079 0a80 6801     		.2byte	0x168
 2080 0a82 D5000000 		.4byte	0xd5
 2081 0a86 1C       		.byte	0x1c
 2082 0a87 14       		.uleb128 0x14
 2083 0a88 81070000 		.4byte	.LASF201
 2084 0a8c 0B       		.byte	0xb
 2085 0a8d 6901     		.2byte	0x169
 2086 0a8f F00A0000 		.4byte	0xaf0
 2087 0a93 20       		.byte	0x20
 2088 0a94 14       		.uleb128 0x14
 2089 0a95 190A0000 		.4byte	.LASF202
 2090 0a99 0B       		.byte	0xb
 2091 0a9a 7101     		.2byte	0x171
 2092 0a9c F00A0000 		.4byte	0xaf0
 2093 0aa0 21       		.byte	0x21
 2094 0aa1 14       		.uleb128 0x14
 2095 0aa2 7C180000 		.4byte	.LASF203
 2096 0aa6 0B       		.byte	0xb
 2097 0aa7 7801     		.2byte	0x178
 2098 0aa9 F00A0000 		.4byte	0xaf0
 2099 0aad 22       		.byte	0x22
 2100 0aae 14       		.uleb128 0x14
 2101 0aaf BC070000 		.4byte	.LASF204
 2102 0ab3 0B       		.byte	0xb
 2103 0ab4 7F01     		.2byte	0x17f
 2104 0ab6 A9000000 		.4byte	0xa9
 2105 0aba 23       		.byte	0x23
 2106 0abb 14       		.uleb128 0x14
 2107 0abc 55100000 		.4byte	.LASF205
 2108 0ac0 0B       		.byte	0xb
 2109 0ac1 8201     		.2byte	0x182
 2110 0ac3 EE080000 		.4byte	0x8ee
 2111 0ac7 24       		.byte	0x24
 2112 0ac8 14       		.uleb128 0x14
 2113 0ac9 29210000 		.4byte	.LASF206
 2114 0acd 0B       		.byte	0xb
ARM GAS  C:\Users\haske\AppData\Local\Temp\cckhubq2.s 			page 62


 2115 0ace 8501     		.2byte	0x185
 2116 0ad0 EE080000 		.4byte	0x8ee
 2117 0ad4 25       		.byte	0x25
 2118 0ad5 14       		.uleb128 0x14
 2119 0ad6 DF130000 		.4byte	.LASF207
 2120 0ada 0B       		.byte	0xb
 2121 0adb 8701     		.2byte	0x187
 2122 0add F00A0000 		.4byte	0xaf0
 2123 0ae1 26       		.byte	0x26
 2124 0ae2 14       		.uleb128 0x14
 2125 0ae3 2A080000 		.4byte	.LASF208
 2126 0ae7 0B       		.byte	0xb
 2127 0ae8 8A01     		.2byte	0x18a
 2128 0aea A9000000 		.4byte	0xa9
 2129 0aee 27       		.byte	0x27
 2130 0aef 00       		.byte	0
 2131 0af0 02       		.uleb128 0x2
 2132 0af1 01       		.byte	0x1
 2133 0af2 02       		.byte	0x2
 2134 0af3 BE0C0000 		.4byte	.LASF209
 2135 0af7 0F       		.uleb128 0xf
 2136 0af8 CE080000 		.4byte	.LASF210
 2137 0afc 0B       		.byte	0xb
 2138 0afd 8C01     		.2byte	0x18c
 2139 0aff 46090000 		.4byte	0x946
 2140 0b03 11       		.uleb128 0x11
 2141 0b04 01       		.byte	0x1
 2142 0b05 5A000000 		.4byte	0x5a
 2143 0b09 0C       		.byte	0xc
 2144 0b0a 1304     		.2byte	0x413
 2145 0b0c 290B0000 		.4byte	0xb29
 2146 0b10 12       		.uleb128 0x12
 2147 0b11 7F060000 		.4byte	.LASF211
 2148 0b15 00       		.byte	0
 2149 0b16 12       		.uleb128 0x12
 2150 0b17 8D0A0000 		.4byte	.LASF212
 2151 0b1b 01       		.byte	0x1
 2152 0b1c 12       		.uleb128 0x12
 2153 0b1d 9C0F0000 		.4byte	.LASF213
 2154 0b21 02       		.byte	0x2
 2155 0b22 12       		.uleb128 0x12
 2156 0b23 FB020000 		.4byte	.LASF214
 2157 0b27 03       		.byte	0x3
 2158 0b28 00       		.byte	0
 2159 0b29 0F       		.uleb128 0xf
 2160 0b2a 00230000 		.4byte	.LASF215
 2161 0b2e 0C       		.byte	0xc
 2162 0b2f 1804     		.2byte	0x418
 2163 0b31 030B0000 		.4byte	0xb03
 2164 0b35 13       		.uleb128 0x13
 2165 0b36 78       		.byte	0x78
 2166 0b37 0C       		.byte	0xc
 2167 0b38 0205     		.2byte	0x502
 2168 0b3a 020C0000 		.4byte	0xc02
 2169 0b3e 14       		.uleb128 0x14
 2170 0b3f 6E200000 		.4byte	.LASF216
 2171 0b43 0C       		.byte	0xc
ARM GAS  C:\Users\haske\AppData\Local\Temp\cckhubq2.s 			page 63


 2172 0b44 0405     		.2byte	0x504
 2173 0b46 D5000000 		.4byte	0xd5
 2174 0b4a 00       		.byte	0
 2175 0b4b 14       		.uleb128 0x14
 2176 0b4c 9D1E0000 		.4byte	.LASF217
 2177 0b50 0C       		.byte	0xc
 2178 0b51 0505     		.2byte	0x505
 2179 0b53 D5000000 		.4byte	0xd5
 2180 0b57 04       		.byte	0x4
 2181 0b58 14       		.uleb128 0x14
 2182 0b59 A5170000 		.4byte	.LASF218
 2183 0b5d 0C       		.byte	0xc
 2184 0b5e 0605     		.2byte	0x506
 2185 0b60 D5000000 		.4byte	0xd5
 2186 0b64 08       		.byte	0x8
 2187 0b65 14       		.uleb128 0x14
 2188 0b66 750C0000 		.4byte	.LASF219
 2189 0b6a 0C       		.byte	0xc
 2190 0b6b 0705     		.2byte	0x507
 2191 0b6d D5000000 		.4byte	0xd5
 2192 0b71 0C       		.byte	0xc
 2193 0b72 14       		.uleb128 0x14
 2194 0b73 390A0000 		.4byte	.LASF220
 2195 0b77 0C       		.byte	0xc
 2196 0b78 0805     		.2byte	0x508
 2197 0b7a D5000000 		.4byte	0xd5
 2198 0b7e 10       		.byte	0x10
 2199 0b7f 14       		.uleb128 0x14
 2200 0b80 2C120000 		.4byte	.LASF221
 2201 0b84 0C       		.byte	0xc
 2202 0b85 0905     		.2byte	0x509
 2203 0b87 290B0000 		.4byte	0xb29
 2204 0b8b 14       		.byte	0x14
 2205 0b8c 14       		.uleb128 0x14
 2206 0b8d 17100000 		.4byte	.LASF222
 2207 0b91 0C       		.byte	0xc
 2208 0b92 0A05     		.2byte	0x50a
 2209 0b94 D5000000 		.4byte	0xd5
 2210 0b98 18       		.byte	0x18
 2211 0b99 14       		.uleb128 0x14
 2212 0b9a 9E140000 		.4byte	.LASF223
 2213 0b9e 0C       		.byte	0xc
 2214 0b9f 0B05     		.2byte	0x50b
 2215 0ba1 020C0000 		.4byte	0xc02
 2216 0ba5 1C       		.byte	0x1c
 2217 0ba6 14       		.uleb128 0x14
 2218 0ba7 47240000 		.4byte	.LASF224
 2219 0bab 0C       		.byte	0xc
 2220 0bac 0C05     		.2byte	0x50c
 2221 0bae D5000000 		.4byte	0xd5
 2222 0bb2 5C       		.byte	0x5c
 2223 0bb3 14       		.uleb128 0x14
 2224 0bb4 FD040000 		.4byte	.LASF225
 2225 0bb8 0C       		.byte	0xc
 2226 0bb9 0D05     		.2byte	0x50d
 2227 0bbb D5000000 		.4byte	0xd5
 2228 0bbf 60       		.byte	0x60
ARM GAS  C:\Users\haske\AppData\Local\Temp\cckhubq2.s 			page 64


 2229 0bc0 14       		.uleb128 0x14
 2230 0bc1 E1220000 		.4byte	.LASF226
 2231 0bc5 0C       		.byte	0xc
 2232 0bc6 0E05     		.2byte	0x50e
 2233 0bc8 D5000000 		.4byte	0xd5
 2234 0bcc 64       		.byte	0x64
 2235 0bcd 14       		.uleb128 0x14
 2236 0bce 15180000 		.4byte	.LASF227
 2237 0bd2 0C       		.byte	0xc
 2238 0bd3 0F05     		.2byte	0x50f
 2239 0bd5 D5000000 		.4byte	0xd5
 2240 0bd9 68       		.byte	0x68
 2241 0bda 14       		.uleb128 0x14
 2242 0bdb FC110000 		.4byte	.LASF228
 2243 0bdf 0C       		.byte	0xc
 2244 0be0 1005     		.2byte	0x510
 2245 0be2 D5000000 		.4byte	0xd5
 2246 0be6 6C       		.byte	0x6c
 2247 0be7 14       		.uleb128 0x14
 2248 0be8 74220000 		.4byte	.LASF229
 2249 0bec 0C       		.byte	0xc
 2250 0bed 1105     		.2byte	0x511
 2251 0bef F00A0000 		.4byte	0xaf0
 2252 0bf3 70       		.byte	0x70
 2253 0bf4 14       		.uleb128 0x14
 2254 0bf5 D00E0000 		.4byte	.LASF230
 2255 0bf9 0C       		.byte	0xc
 2256 0bfa 1205     		.2byte	0x512
 2257 0bfc D5000000 		.4byte	0xd5
 2258 0c00 74       		.byte	0x74
 2259 0c01 00       		.byte	0
 2260 0c02 07       		.uleb128 0x7
 2261 0c03 D5000000 		.4byte	0xd5
 2262 0c07 120C0000 		.4byte	0xc12
 2263 0c0b 08       		.uleb128 0x8
 2264 0c0c E0000000 		.4byte	0xe0
 2265 0c10 0F       		.byte	0xf
 2266 0c11 00       		.byte	0
 2267 0c12 0F       		.uleb128 0xf
 2268 0c13 ED0A0000 		.4byte	.LASF231
 2269 0c17 0C       		.byte	0xc
 2270 0c18 1305     		.2byte	0x513
 2271 0c1a 350B0000 		.4byte	0xb35
 2272 0c1e 15       		.uleb128 0x15
 2273 0c1f 04       		.byte	0x4
 2274 0c20 240C0000 		.4byte	0xc24
 2275 0c24 16       		.uleb128 0x16
 2276 0c25 2F0C0000 		.4byte	0xc2f
 2277 0c29 17       		.uleb128 0x17
 2278 0c2a D5000000 		.4byte	0xd5
 2279 0c2e 00       		.byte	0
 2280 0c2f 0F       		.uleb128 0xf
 2281 0c30 92000000 		.4byte	.LASF232
 2282 0c34 0D       		.byte	0xd
 2283 0c35 F201     		.2byte	0x1f2
 2284 0c37 1E0C0000 		.4byte	0xc1e
 2285 0c3b 18       		.uleb128 0x18
ARM GAS  C:\Users\haske\AppData\Local\Temp\cckhubq2.s 			page 65


 2286 0c3c FE1F0000 		.4byte	.LASF243
 2287 0c40 24       		.byte	0x24
 2288 0c41 0D       		.byte	0xd
 2289 0c42 7402     		.2byte	0x274
 2290 0c44 BE0C0000 		.4byte	0xcbe
 2291 0c48 14       		.uleb128 0x14
 2292 0c49 67110000 		.4byte	.LASF233
 2293 0c4d 0D       		.byte	0xd
 2294 0c4e 7702     		.2byte	0x277
 2295 0c50 E7000000 		.4byte	0xe7
 2296 0c54 00       		.byte	0
 2297 0c55 14       		.uleb128 0x14
 2298 0c56 C60B0000 		.4byte	.LASF234
 2299 0c5a 0D       		.byte	0xd
 2300 0c5b 7902     		.2byte	0x279
 2301 0c5d 88080000 		.4byte	0x888
 2302 0c61 04       		.byte	0x4
 2303 0c62 14       		.uleb128 0x14
 2304 0c63 5C240000 		.4byte	.LASF235
 2305 0c67 0D       		.byte	0xd
 2306 0c68 7A02     		.2byte	0x27a
 2307 0c6a D5000000 		.4byte	0xd5
 2308 0c6e 08       		.byte	0x8
 2309 0c6f 14       		.uleb128 0x14
 2310 0c70 08110000 		.4byte	.LASF236
 2311 0c74 0D       		.byte	0xd
 2312 0c75 7B02     		.2byte	0x27b
 2313 0c77 E7000000 		.4byte	0xe7
 2314 0c7b 0C       		.byte	0xc
 2315 0c7c 14       		.uleb128 0x14
 2316 0c7d 89160000 		.4byte	.LASF237
 2317 0c81 0D       		.byte	0xd
 2318 0c82 7D02     		.2byte	0x27d
 2319 0c84 88080000 		.4byte	0x888
 2320 0c88 10       		.byte	0x10
 2321 0c89 14       		.uleb128 0x14
 2322 0c8a C40C0000 		.4byte	.LASF238
 2323 0c8e 0D       		.byte	0xd
 2324 0c8f 7E02     		.2byte	0x27e
 2325 0c91 D5000000 		.4byte	0xd5
 2326 0c95 14       		.byte	0x14
 2327 0c96 14       		.uleb128 0x14
 2328 0c97 60130000 		.4byte	.LASF239
 2329 0c9b 0D       		.byte	0xd
 2330 0c9c 7F02     		.2byte	0x27f
 2331 0c9e E7000000 		.4byte	0xe7
 2332 0ca2 18       		.byte	0x18
 2333 0ca3 14       		.uleb128 0x14
 2334 0ca4 940C0000 		.4byte	.LASF240
 2335 0ca8 0D       		.byte	0xd
 2336 0ca9 8502     		.2byte	0x285
 2337 0cab 2F0C0000 		.4byte	0xc2f
 2338 0caf 1C       		.byte	0x1c
 2339 0cb0 14       		.uleb128 0x14
 2340 0cb1 3B110000 		.4byte	.LASF241
 2341 0cb5 0D       		.byte	0xd
 2342 0cb6 8802     		.2byte	0x288
ARM GAS  C:\Users\haske\AppData\Local\Temp\cckhubq2.s 			page 66


 2343 0cb8 D5000000 		.4byte	0xd5
 2344 0cbc 20       		.byte	0x20
 2345 0cbd 00       		.byte	0
 2346 0cbe 0F       		.uleb128 0xf
 2347 0cbf 20140000 		.4byte	.LASF242
 2348 0cc3 0D       		.byte	0xd
 2349 0cc4 8B02     		.2byte	0x28b
 2350 0cc6 3B0C0000 		.4byte	0xc3b
 2351 0cca 19       		.uleb128 0x19
 2352 0ccb C8060000 		.4byte	.LASF244
 2353 0ccf 64       		.byte	0x64
 2354 0cd0 03       		.byte	0x3
 2355 0cd1 2F       		.byte	0x2f
 2356 0cd2 030E0000 		.4byte	0xe03
 2357 0cd6 0B       		.uleb128 0xb
 2358 0cd7 8C040000 		.4byte	.LASF245
 2359 0cdb 03       		.byte	0x3
 2360 0cdc 31       		.byte	0x31
 2361 0cdd D5000000 		.4byte	0xd5
 2362 0ce1 00       		.byte	0
 2363 0ce2 0B       		.uleb128 0xb
 2364 0ce3 98100000 		.4byte	.LASF246
 2365 0ce7 03       		.byte	0x3
 2366 0ce8 33       		.byte	0x33
 2367 0ce9 D5000000 		.4byte	0xd5
 2368 0ced 04       		.byte	0x4
 2369 0cee 0B       		.uleb128 0xb
 2370 0cef BF0D0000 		.4byte	.LASF247
 2371 0cf3 03       		.byte	0x3
 2372 0cf4 34       		.byte	0x34
 2373 0cf5 D5000000 		.4byte	0xd5
 2374 0cf9 08       		.byte	0x8
 2375 0cfa 0B       		.uleb128 0xb
 2376 0cfb C4120000 		.4byte	.LASF248
 2377 0cff 03       		.byte	0x3
 2378 0d00 35       		.byte	0x35
 2379 0d01 D5000000 		.4byte	0xd5
 2380 0d05 0C       		.byte	0xc
 2381 0d06 0B       		.uleb128 0xb
 2382 0d07 69170000 		.4byte	.LASF249
 2383 0d0b 03       		.byte	0x3
 2384 0d0c 36       		.byte	0x36
 2385 0d0d D5000000 		.4byte	0xd5
 2386 0d11 10       		.byte	0x10
 2387 0d12 0B       		.uleb128 0xb
 2388 0d13 290A0000 		.4byte	.LASF250
 2389 0d17 03       		.byte	0x3
 2390 0d18 37       		.byte	0x37
 2391 0d19 D5000000 		.4byte	0xd5
 2392 0d1d 14       		.byte	0x14
 2393 0d1e 0B       		.uleb128 0xb
 2394 0d1f 310A0000 		.4byte	.LASF251
 2395 0d23 03       		.byte	0x3
 2396 0d24 38       		.byte	0x38
 2397 0d25 D5000000 		.4byte	0xd5
 2398 0d29 18       		.byte	0x18
 2399 0d2a 0B       		.uleb128 0xb
ARM GAS  C:\Users\haske\AppData\Local\Temp\cckhubq2.s 			page 67


 2400 0d2b B3120000 		.4byte	.LASF252
 2401 0d2f 03       		.byte	0x3
 2402 0d30 39       		.byte	0x39
 2403 0d31 F00A0000 		.4byte	0xaf0
 2404 0d35 1C       		.byte	0x1c
 2405 0d36 0B       		.uleb128 0xb
 2406 0d37 93050000 		.4byte	.LASF253
 2407 0d3b 03       		.byte	0x3
 2408 0d3c 3A       		.byte	0x3a
 2409 0d3d D5000000 		.4byte	0xd5
 2410 0d41 20       		.byte	0x20
 2411 0d42 0B       		.uleb128 0xb
 2412 0d43 9C050000 		.4byte	.LASF254
 2413 0d47 03       		.byte	0x3
 2414 0d48 3B       		.byte	0x3b
 2415 0d49 D5000000 		.4byte	0xd5
 2416 0d4d 24       		.byte	0x24
 2417 0d4e 0B       		.uleb128 0xb
 2418 0d4f 181A0000 		.4byte	.LASF255
 2419 0d53 03       		.byte	0x3
 2420 0d54 3C       		.byte	0x3c
 2421 0d55 F00A0000 		.4byte	0xaf0
 2422 0d59 28       		.byte	0x28
 2423 0d5a 0B       		.uleb128 0xb
 2424 0d5b F1070000 		.4byte	.LASF256
 2425 0d5f 03       		.byte	0x3
 2426 0d60 3E       		.byte	0x3e
 2427 0d61 D5000000 		.4byte	0xd5
 2428 0d65 2C       		.byte	0x2c
 2429 0d66 0B       		.uleb128 0xb
 2430 0d67 C5160000 		.4byte	.LASF257
 2431 0d6b 03       		.byte	0x3
 2432 0d6c 3F       		.byte	0x3f
 2433 0d6d D5000000 		.4byte	0xd5
 2434 0d71 30       		.byte	0x30
 2435 0d72 0B       		.uleb128 0xb
 2436 0d73 9B010000 		.4byte	.LASF258
 2437 0d77 03       		.byte	0x3
 2438 0d78 40       		.byte	0x40
 2439 0d79 D5000000 		.4byte	0xd5
 2440 0d7d 34       		.byte	0x34
 2441 0d7e 0B       		.uleb128 0xb
 2442 0d7f 65200000 		.4byte	.LASF259
 2443 0d83 03       		.byte	0x3
 2444 0d84 41       		.byte	0x41
 2445 0d85 D5000000 		.4byte	0xd5
 2446 0d89 38       		.byte	0x38
 2447 0d8a 0B       		.uleb128 0xb
 2448 0d8b 7E1A0000 		.4byte	.LASF260
 2449 0d8f 03       		.byte	0x3
 2450 0d90 42       		.byte	0x42
 2451 0d91 D5000000 		.4byte	0xd5
 2452 0d95 3C       		.byte	0x3c
 2453 0d96 0B       		.uleb128 0xb
 2454 0d97 7A130000 		.4byte	.LASF261
 2455 0d9b 03       		.byte	0x3
 2456 0d9c 44       		.byte	0x44
ARM GAS  C:\Users\haske\AppData\Local\Temp\cckhubq2.s 			page 68


 2457 0d9d D5000000 		.4byte	0xd5
 2458 0da1 40       		.byte	0x40
 2459 0da2 0B       		.uleb128 0xb
 2460 0da3 5E140000 		.4byte	.LASF262
 2461 0da7 03       		.byte	0x3
 2462 0da8 45       		.byte	0x45
 2463 0da9 D5000000 		.4byte	0xd5
 2464 0dad 44       		.byte	0x44
 2465 0dae 0B       		.uleb128 0xb
 2466 0daf 1B090000 		.4byte	.LASF263
 2467 0db3 03       		.byte	0x3
 2468 0db4 47       		.byte	0x47
 2469 0db5 D5000000 		.4byte	0xd5
 2470 0db9 48       		.byte	0x48
 2471 0dba 0B       		.uleb128 0xb
 2472 0dbb 190B0000 		.4byte	.LASF264
 2473 0dbf 03       		.byte	0x3
 2474 0dc0 48       		.byte	0x48
 2475 0dc1 D5000000 		.4byte	0xd5
 2476 0dc5 4C       		.byte	0x4c
 2477 0dc6 0B       		.uleb128 0xb
 2478 0dc7 5E030000 		.4byte	.LASF265
 2479 0dcb 03       		.byte	0x3
 2480 0dcc 4A       		.byte	0x4a
 2481 0dcd D5000000 		.4byte	0xd5
 2482 0dd1 50       		.byte	0x50
 2483 0dd2 0B       		.uleb128 0xb
 2484 0dd3 801D0000 		.4byte	.LASF266
 2485 0dd7 03       		.byte	0x3
 2486 0dd8 4B       		.byte	0x4b
 2487 0dd9 D5000000 		.4byte	0xd5
 2488 0ddd 54       		.byte	0x54
 2489 0dde 0B       		.uleb128 0xb
 2490 0ddf 4A1D0000 		.4byte	.LASF267
 2491 0de3 03       		.byte	0x3
 2492 0de4 4D       		.byte	0x4d
 2493 0de5 D5000000 		.4byte	0xd5
 2494 0de9 58       		.byte	0x58
 2495 0dea 0B       		.uleb128 0xb
 2496 0deb 6F1A0000 		.4byte	.LASF268
 2497 0def 03       		.byte	0x3
 2498 0df0 4E       		.byte	0x4e
 2499 0df1 D5000000 		.4byte	0xd5
 2500 0df5 5C       		.byte	0x5c
 2501 0df6 0B       		.uleb128 0xb
 2502 0df7 541F0000 		.4byte	.LASF269
 2503 0dfb 03       		.byte	0x3
 2504 0dfc 50       		.byte	0x50
 2505 0dfd D5000000 		.4byte	0xd5
 2506 0e01 60       		.byte	0x60
 2507 0e02 00       		.byte	0
 2508 0e03 04       		.uleb128 0x4
 2509 0e04 42170000 		.4byte	.LASF270
 2510 0e08 03       		.byte	0x3
 2511 0e09 51       		.byte	0x51
 2512 0e0a CA0C0000 		.4byte	0xcca
 2513 0e0e 11       		.uleb128 0x11
ARM GAS  C:\Users\haske\AppData\Local\Temp\cckhubq2.s 			page 69


 2514 0e0f 02       		.byte	0x2
 2515 0e10 77000000 		.4byte	0x77
 2516 0e14 0E       		.byte	0xe
 2517 0e15 5401     		.2byte	0x154
 2518 0e17 4E110000 		.4byte	0x114e
 2519 0e1b 12       		.uleb128 0x12
 2520 0e1c BD040000 		.4byte	.LASF271
 2521 0e20 00       		.byte	0
 2522 0e21 1A       		.uleb128 0x1a
 2523 0e22 11020000 		.4byte	.LASF272
 2524 0e26 0010     		.2byte	0x1000
 2525 0e28 1A       		.uleb128 0x1a
 2526 0e29 8E1D0000 		.4byte	.LASF273
 2527 0e2d 0110     		.2byte	0x1001
 2528 0e2f 1A       		.uleb128 0x1a
 2529 0e30 210E0000 		.4byte	.LASF274
 2530 0e34 0210     		.2byte	0x1002
 2531 0e36 1A       		.uleb128 0x1a
 2532 0e37 B60E0000 		.4byte	.LASF275
 2533 0e3b 0310     		.2byte	0x1003
 2534 0e3d 1A       		.uleb128 0x1a
 2535 0e3e 31010000 		.4byte	.LASF276
 2536 0e42 0410     		.2byte	0x1004
 2537 0e44 1A       		.uleb128 0x1a
 2538 0e45 23230000 		.4byte	.LASF277
 2539 0e49 0510     		.2byte	0x1005
 2540 0e4b 1A       		.uleb128 0x1a
 2541 0e4c B2170000 		.4byte	.LASF278
 2542 0e50 0020     		.2byte	0x2000
 2543 0e52 1A       		.uleb128 0x1a
 2544 0e53 F91B0000 		.4byte	.LASF279
 2545 0e57 0120     		.2byte	0x2001
 2546 0e59 1A       		.uleb128 0x1a
 2547 0e5a 10170000 		.4byte	.LASF280
 2548 0e5e 0220     		.2byte	0x2002
 2549 0e60 1A       		.uleb128 0x1a
 2550 0e61 570E0000 		.4byte	.LASF281
 2551 0e65 0320     		.2byte	0x2003
 2552 0e67 1A       		.uleb128 0x1a
 2553 0e68 E2100000 		.4byte	.LASF282
 2554 0e6c 0420     		.2byte	0x2004
 2555 0e6e 1A       		.uleb128 0x1a
 2556 0e6f 2D130000 		.4byte	.LASF283
 2557 0e73 0520     		.2byte	0x2005
 2558 0e75 1A       		.uleb128 0x1a
 2559 0e76 9B0D0000 		.4byte	.LASF284
 2560 0e7a 0620     		.2byte	0x2006
 2561 0e7c 1A       		.uleb128 0x1a
 2562 0e7d 8E1C0000 		.4byte	.LASF285
 2563 0e81 0720     		.2byte	0x2007
 2564 0e83 1A       		.uleb128 0x1a
 2565 0e84 A91F0000 		.4byte	.LASF286
 2566 0e88 0820     		.2byte	0x2008
 2567 0e8a 1A       		.uleb128 0x1a
 2568 0e8b 181F0000 		.4byte	.LASF287
 2569 0e8f 0920     		.2byte	0x2009
 2570 0e91 1A       		.uleb128 0x1a
ARM GAS  C:\Users\haske\AppData\Local\Temp\cckhubq2.s 			page 70


 2571 0e92 A7080000 		.4byte	.LASF288
 2572 0e96 0A20     		.2byte	0x200a
 2573 0e98 1A       		.uleb128 0x1a
 2574 0e99 CB030000 		.4byte	.LASF289
 2575 0e9d 0B20     		.2byte	0x200b
 2576 0e9f 1A       		.uleb128 0x1a
 2577 0ea0 7B170000 		.4byte	.LASF290
 2578 0ea4 0C20     		.2byte	0x200c
 2579 0ea6 1A       		.uleb128 0x1a
 2580 0ea7 6E140000 		.4byte	.LASF291
 2581 0eab 0D20     		.2byte	0x200d
 2582 0ead 1A       		.uleb128 0x1a
 2583 0eae A7100000 		.4byte	.LASF292
 2584 0eb2 0E20     		.2byte	0x200e
 2585 0eb4 1A       		.uleb128 0x1a
 2586 0eb5 2F200000 		.4byte	.LASF293
 2587 0eb9 0F20     		.2byte	0x200f
 2588 0ebb 1A       		.uleb128 0x1a
 2589 0ebc FD120000 		.4byte	.LASF294
 2590 0ec0 1020     		.2byte	0x2010
 2591 0ec2 1A       		.uleb128 0x1a
 2592 0ec3 CE140000 		.4byte	.LASF295
 2593 0ec7 1120     		.2byte	0x2011
 2594 0ec9 1A       		.uleb128 0x1a
 2595 0eca 771F0000 		.4byte	.LASF296
 2596 0ece 1220     		.2byte	0x2012
 2597 0ed0 1A       		.uleb128 0x1a
 2598 0ed1 25020000 		.4byte	.LASF297
 2599 0ed5 1320     		.2byte	0x2013
 2600 0ed7 1A       		.uleb128 0x1a
 2601 0ed8 D8110000 		.4byte	.LASF298
 2602 0edc 1420     		.2byte	0x2014
 2603 0ede 1A       		.uleb128 0x1a
 2604 0edf 4D050000 		.4byte	.LASF299
 2605 0ee3 1520     		.2byte	0x2015
 2606 0ee5 1A       		.uleb128 0x1a
 2607 0ee6 62070000 		.4byte	.LASF300
 2608 0eea 1620     		.2byte	0x2016
 2609 0eec 1A       		.uleb128 0x1a
 2610 0eed 17040000 		.4byte	.LASF301
 2611 0ef1 1720     		.2byte	0x2017
 2612 0ef3 1A       		.uleb128 0x1a
 2613 0ef4 4A080000 		.4byte	.LASF302
 2614 0ef8 0030     		.2byte	0x3000
 2615 0efa 1A       		.uleb128 0x1a
 2616 0efb 250C0000 		.4byte	.LASF303
 2617 0eff 0130     		.2byte	0x3001
 2618 0f01 1A       		.uleb128 0x1a
 2619 0f02 C90A0000 		.4byte	.LASF304
 2620 0f06 0230     		.2byte	0x3002
 2621 0f08 1A       		.uleb128 0x1a
 2622 0f09 BC1C0000 		.4byte	.LASF305
 2623 0f0d 0330     		.2byte	0x3003
 2624 0f0f 1A       		.uleb128 0x1a
 2625 0f10 EF090000 		.4byte	.LASF306
 2626 0f14 0430     		.2byte	0x3004
 2627 0f16 1A       		.uleb128 0x1a
ARM GAS  C:\Users\haske\AppData\Local\Temp\cckhubq2.s 			page 71


 2628 0f17 171D0000 		.4byte	.LASF307
 2629 0f1b 0530     		.2byte	0x3005
 2630 0f1d 1A       		.uleb128 0x1a
 2631 0f1e F2010000 		.4byte	.LASF308
 2632 0f22 0630     		.2byte	0x3006
 2633 0f24 1A       		.uleb128 0x1a
 2634 0f25 C8210000 		.4byte	.LASF309
 2635 0f29 0730     		.2byte	0x3007
 2636 0f2b 1A       		.uleb128 0x1a
 2637 0f2c 8E130000 		.4byte	.LASF310
 2638 0f30 0830     		.2byte	0x3008
 2639 0f32 1A       		.uleb128 0x1a
 2640 0f33 1C0D0000 		.4byte	.LASF311
 2641 0f37 0930     		.2byte	0x3009
 2642 0f39 1A       		.uleb128 0x1a
 2643 0f3a E01C0000 		.4byte	.LASF312
 2644 0f3e 0A30     		.2byte	0x300a
 2645 0f40 1A       		.uleb128 0x1a
 2646 0f41 C20F0000 		.4byte	.LASF313
 2647 0f45 0B30     		.2byte	0x300b
 2648 0f47 1A       		.uleb128 0x1a
 2649 0f48 DB180000 		.4byte	.LASF314
 2650 0f4c 0C30     		.2byte	0x300c
 2651 0f4e 1A       		.uleb128 0x1a
 2652 0f4f 111B0000 		.4byte	.LASF315
 2653 0f53 1130     		.2byte	0x3011
 2654 0f55 1A       		.uleb128 0x1a
 2655 0f56 08190000 		.4byte	.LASF316
 2656 0f5a 1230     		.2byte	0x3012
 2657 0f5c 1A       		.uleb128 0x1a
 2658 0f5d DA1D0000 		.4byte	.LASF317
 2659 0f61 1330     		.2byte	0x3013
 2660 0f63 1A       		.uleb128 0x1a
 2661 0f64 231C0000 		.4byte	.LASF318
 2662 0f68 1430     		.2byte	0x3014
 2663 0f6a 1A       		.uleb128 0x1a
 2664 0f6b 8C1A0000 		.4byte	.LASF319
 2665 0f6f 1530     		.2byte	0x3015
 2666 0f71 1A       		.uleb128 0x1a
 2667 0f72 58120000 		.4byte	.LASF320
 2668 0f76 1630     		.2byte	0x3016
 2669 0f78 1A       		.uleb128 0x1a
 2670 0f79 36120000 		.4byte	.LASF321
 2671 0f7d 1730     		.2byte	0x3017
 2672 0f7f 1A       		.uleb128 0x1a
 2673 0f80 E70E0000 		.4byte	.LASF322
 2674 0f84 1830     		.2byte	0x3018
 2675 0f86 1A       		.uleb128 0x1a
 2676 0f87 001A0000 		.4byte	.LASF323
 2677 0f8b 1930     		.2byte	0x3019
 2678 0f8d 1A       		.uleb128 0x1a
 2679 0f8e C5150000 		.4byte	.LASF324
 2680 0f92 0040     		.2byte	0x4000
 2681 0f94 1A       		.uleb128 0x1a
 2682 0f95 520B0000 		.4byte	.LASF325
 2683 0f99 0140     		.2byte	0x4001
 2684 0f9b 1A       		.uleb128 0x1a
ARM GAS  C:\Users\haske\AppData\Local\Temp\cckhubq2.s 			page 72


 2685 0f9c F3200000 		.4byte	.LASF326
 2686 0fa0 0240     		.2byte	0x4002
 2687 0fa2 1A       		.uleb128 0x1a
 2688 0fa3 1B1E0000 		.4byte	.LASF327
 2689 0fa7 0340     		.2byte	0x4003
 2690 0fa9 1A       		.uleb128 0x1a
 2691 0faa AB110000 		.4byte	.LASF328
 2692 0fae 0440     		.2byte	0x4004
 2693 0fb0 1A       		.uleb128 0x1a
 2694 0fb1 85230000 		.4byte	.LASF329
 2695 0fb5 0540     		.2byte	0x4005
 2696 0fb7 1A       		.uleb128 0x1a
 2697 0fb8 BC000000 		.4byte	.LASF330
 2698 0fbc 0640     		.2byte	0x4006
 2699 0fbe 1A       		.uleb128 0x1a
 2700 0fbf 0D0F0000 		.4byte	.LASF331
 2701 0fc3 0740     		.2byte	0x4007
 2702 0fc5 1A       		.uleb128 0x1a
 2703 0fc6 2C030000 		.4byte	.LASF332
 2704 0fca 0840     		.2byte	0x4008
 2705 0fcc 1A       		.uleb128 0x1a
 2706 0fcd 73200000 		.4byte	.LASF333
 2707 0fd1 0940     		.2byte	0x4009
 2708 0fd3 1A       		.uleb128 0x1a
 2709 0fd4 6B240000 		.4byte	.LASF334
 2710 0fd8 0A40     		.2byte	0x400a
 2711 0fda 1A       		.uleb128 0x1a
 2712 0fdb E60F0000 		.4byte	.LASF335
 2713 0fdf 0B40     		.2byte	0x400b
 2714 0fe1 1A       		.uleb128 0x1a
 2715 0fe2 A9140000 		.4byte	.LASF336
 2716 0fe6 0C40     		.2byte	0x400c
 2717 0fe8 1A       		.uleb128 0x1a
 2718 0fe9 11110000 		.4byte	.LASF337
 2719 0fed 0D40     		.2byte	0x400d
 2720 0fef 1A       		.uleb128 0x1a
 2721 0ff0 1D160000 		.4byte	.LASF338
 2722 0ff4 0E40     		.2byte	0x400e
 2723 0ff6 1A       		.uleb128 0x1a
 2724 0ff7 7E0B0000 		.4byte	.LASF339
 2725 0ffb 0F40     		.2byte	0x400f
 2726 0ffd 1A       		.uleb128 0x1a
 2727 0ffe 66090000 		.4byte	.LASF340
 2728 1002 1040     		.2byte	0x4010
 2729 1004 1A       		.uleb128 0x1a
 2730 1005 DC1F0000 		.4byte	.LASF341
 2731 1009 1140     		.2byte	0x4011
 2732 100b 1A       		.uleb128 0x1a
 2733 100c 650D0000 		.4byte	.LASF342
 2734 1010 1240     		.2byte	0x4012
 2735 1012 1A       		.uleb128 0x1a
 2736 1013 431B0000 		.4byte	.LASF343
 2737 1017 1340     		.2byte	0x4013
 2738 1019 1A       		.uleb128 0x1a
 2739 101a FC150000 		.4byte	.LASF344
 2740 101e 1440     		.2byte	0x4014
 2741 1020 1A       		.uleb128 0x1a
ARM GAS  C:\Users\haske\AppData\Local\Temp\cckhubq2.s 			page 73


 2742 1021 58060000 		.4byte	.LASF345
 2743 1025 1540     		.2byte	0x4015
 2744 1027 1A       		.uleb128 0x1a
 2745 1028 49230000 		.4byte	.LASF346
 2746 102c 1640     		.2byte	0x4016
 2747 102e 1A       		.uleb128 0x1a
 2748 102f EA170000 		.4byte	.LASF347
 2749 1033 1740     		.2byte	0x4017
 2750 1035 1A       		.uleb128 0x1a
 2751 1036 E4120000 		.4byte	.LASF348
 2752 103a 1840     		.2byte	0x4018
 2753 103c 1A       		.uleb128 0x1a
 2754 103d 80190000 		.4byte	.LASF349
 2755 1041 1940     		.2byte	0x4019
 2756 1043 1A       		.uleb128 0x1a
 2757 1044 24150000 		.4byte	.LASF350
 2758 1048 1A40     		.2byte	0x401a
 2759 104a 1A       		.uleb128 0x1a
 2760 104b 61180000 		.4byte	.LASF351
 2761 104f 0050     		.2byte	0x5000
 2762 1051 1A       		.uleb128 0x1a
 2763 1052 A1040000 		.4byte	.LASF352
 2764 1056 0150     		.2byte	0x5001
 2765 1058 1A       		.uleb128 0x1a
 2766 1059 BA1B0000 		.4byte	.LASF353
 2767 105d 0250     		.2byte	0x5002
 2768 105f 1A       		.uleb128 0x1a
 2769 1060 B1200000 		.4byte	.LASF354
 2770 1064 0350     		.2byte	0x5003
 2771 1066 1A       		.uleb128 0x1a
 2772 1067 1A070000 		.4byte	.LASF355
 2773 106b 0450     		.2byte	0x5004
 2774 106d 1A       		.uleb128 0x1a
 2775 106e 8C180000 		.4byte	.LASF356
 2776 1072 0550     		.2byte	0x5005
 2777 1074 1A       		.uleb128 0x1a
 2778 1075 76100000 		.4byte	.LASF357
 2779 1079 0650     		.2byte	0x5006
 2780 107b 1A       		.uleb128 0x1a
 2781 107c ED030000 		.4byte	.LASF358
 2782 1080 0750     		.2byte	0x5007
 2783 1082 1A       		.uleb128 0x1a
 2784 1083 17050000 		.4byte	.LASF359
 2785 1087 0850     		.2byte	0x5008
 2786 1089 1A       		.uleb128 0x1a
 2787 108a A2070000 		.4byte	.LASF360
 2788 108e 0950     		.2byte	0x5009
 2789 1090 1A       		.uleb128 0x1a
 2790 1091 02080000 		.4byte	.LASF361
 2791 1095 0A50     		.2byte	0x500a
 2792 1097 1A       		.uleb128 0x1a
 2793 1098 D61A0000 		.4byte	.LASF362
 2794 109c 0B50     		.2byte	0x500b
 2795 109e 1A       		.uleb128 0x1a
 2796 109f 1E100000 		.4byte	.LASF363
 2797 10a3 0C50     		.2byte	0x500c
 2798 10a5 1A       		.uleb128 0x1a
ARM GAS  C:\Users\haske\AppData\Local\Temp\cckhubq2.s 			page 74


 2799 10a6 CC0D0000 		.4byte	.LASF364
 2800 10aa 0D50     		.2byte	0x500d
 2801 10ac 1A       		.uleb128 0x1a
 2802 10ad A9210000 		.4byte	.LASF365
 2803 10b1 0E50     		.2byte	0x500e
 2804 10b3 1A       		.uleb128 0x1a
 2805 10b4 4C0C0000 		.4byte	.LASF366
 2806 10b8 0F50     		.2byte	0x500f
 2807 10ba 1A       		.uleb128 0x1a
 2808 10bb D91B0000 		.4byte	.LASF367
 2809 10bf 1050     		.2byte	0x5010
 2810 10c1 1A       		.uleb128 0x1a
 2811 10c2 91200000 		.4byte	.LASF368
 2812 10c6 1150     		.2byte	0x5011
 2813 10c8 1A       		.uleb128 0x1a
 2814 10c9 73010000 		.4byte	.LASF369
 2815 10cd 1250     		.2byte	0x5012
 2816 10cf 1A       		.uleb128 0x1a
 2817 10d0 3F180000 		.4byte	.LASF370
 2818 10d4 1350     		.2byte	0x5013
 2819 10d6 1A       		.uleb128 0x1a
 2820 10d7 39070000 		.4byte	.LASF371
 2821 10db 1450     		.2byte	0x5014
 2822 10dd 1A       		.uleb128 0x1a
 2823 10de E81E0000 		.4byte	.LASF372
 2824 10e2 1550     		.2byte	0x5015
 2825 10e4 1A       		.uleb128 0x1a
 2826 10e5 A2150000 		.4byte	.LASF373
 2827 10e9 1650     		.2byte	0x5016
 2828 10eb 1A       		.uleb128 0x1a
 2829 10ec 69050000 		.4byte	.LASF374
 2830 10f0 1750     		.2byte	0x5017
 2831 10f2 1A       		.uleb128 0x1a
 2832 10f3 BB130000 		.4byte	.LASF375
 2833 10f7 1850     		.2byte	0x5018
 2834 10f9 1A       		.uleb128 0x1a
 2835 10fa 4D220000 		.4byte	.LASF376
 2836 10fe 0060     		.2byte	0x6000
 2837 1100 1A       		.uleb128 0x1a
 2838 1101 AE190000 		.4byte	.LASF377
 2839 1105 0160     		.2byte	0x6001
 2840 1107 1A       		.uleb128 0x1a
 2841 1108 FE1D0000 		.4byte	.LASF378
 2842 110c 0260     		.2byte	0x6002
 2843 110e 1A       		.uleb128 0x1a
 2844 110f 791B0000 		.4byte	.LASF379
 2845 1113 0360     		.2byte	0x6003
 2846 1115 1A       		.uleb128 0x1a
 2847 1116 88080000 		.4byte	.LASF380
 2848 111a 0460     		.2byte	0x6004
 2849 111c 1A       		.uleb128 0x1a
 2850 111d 981B0000 		.4byte	.LASF381
 2851 1121 0560     		.2byte	0x6005
 2852 1123 1A       		.uleb128 0x1a
 2853 1124 F10C0000 		.4byte	.LASF382
 2854 1128 0660     		.2byte	0x6006
 2855 112a 1A       		.uleb128 0x1a
ARM GAS  C:\Users\haske\AppData\Local\Temp\cckhubq2.s 			page 75


 2856 112b 61000000 		.4byte	.LASF383
 2857 112f 0760     		.2byte	0x6007
 2858 1131 1A       		.uleb128 0x1a
 2859 1132 77020000 		.4byte	.LASF384
 2860 1136 0860     		.2byte	0x6008
 2861 1138 1A       		.uleb128 0x1a
 2862 1139 0D010000 		.4byte	.LASF385
 2863 113d 0960     		.2byte	0x6009
 2864 113f 1A       		.uleb128 0x1a
 2865 1140 3A150000 		.4byte	.LASF386
 2866 1144 0A60     		.2byte	0x600a
 2867 1146 1A       		.uleb128 0x1a
 2868 1147 CE0C0000 		.4byte	.LASF387
 2869 114b FFFF     		.2byte	0xffff
 2870 114d 00       		.byte	0
 2871 114e 13       		.uleb128 0x13
 2872 114f 02       		.byte	0x2
 2873 1150 0F       		.byte	0xf
 2874 1151 6401     		.2byte	0x164
 2875 1153 72110000 		.4byte	0x1172
 2876 1157 14       		.uleb128 0x14
 2877 1158 36210000 		.4byte	.LASF388
 2878 115c 0F       		.byte	0xf
 2879 115d 6E01     		.2byte	0x16e
 2880 115f A9000000 		.4byte	0xa9
 2881 1163 00       		.byte	0
 2882 1164 14       		.uleb128 0x14
 2883 1165 010B0000 		.4byte	.LASF389
 2884 1169 0F       		.byte	0xf
 2885 116a 7201     		.2byte	0x172
 2886 116c A9000000 		.4byte	0xa9
 2887 1170 01       		.byte	0x1
 2888 1171 00       		.byte	0
 2889 1172 0F       		.uleb128 0xf
 2890 1173 2B190000 		.4byte	.LASF390
 2891 1177 0F       		.byte	0xf
 2892 1178 7401     		.2byte	0x174
 2893 117a 4E110000 		.4byte	0x114e
 2894 117e 1B       		.uleb128 0x1b
 2895 117f 01       		.byte	0x1
 2896 1180 5A000000 		.4byte	0x5a
 2897 1184 10       		.byte	0x10
 2898 1185 7E       		.byte	0x7e
 2899 1186 A3110000 		.4byte	0x11a3
 2900 118a 12       		.uleb128 0x12
 2901 118b 39140000 		.4byte	.LASF391
 2902 118f 00       		.byte	0
 2903 1190 12       		.uleb128 0x12
 2904 1191 440A0000 		.4byte	.LASF392
 2905 1195 01       		.byte	0x1
 2906 1196 12       		.uleb128 0x12
 2907 1197 480D0000 		.4byte	.LASF393
 2908 119b 02       		.byte	0x2
 2909 119c 12       		.uleb128 0x12
 2910 119d 3A0F0000 		.4byte	.LASF394
 2911 11a1 03       		.byte	0x3
 2912 11a2 00       		.byte	0
ARM GAS  C:\Users\haske\AppData\Local\Temp\cckhubq2.s 			page 76


 2913 11a3 04       		.uleb128 0x4
 2914 11a4 D9090000 		.4byte	.LASF395
 2915 11a8 10       		.byte	0x10
 2916 11a9 83       		.byte	0x83
 2917 11aa 7E110000 		.4byte	0x117e
 2918 11ae 1B       		.uleb128 0x1b
 2919 11af 01       		.byte	0x1
 2920 11b0 5A000000 		.4byte	0x5a
 2921 11b4 10       		.byte	0x10
 2922 11b5 87       		.byte	0x87
 2923 11b6 EB110000 		.4byte	0x11eb
 2924 11ba 12       		.uleb128 0x12
 2925 11bb A0230000 		.4byte	.LASF396
 2926 11bf 00       		.byte	0
 2927 11c0 12       		.uleb128 0x12
 2928 11c1 97060000 		.4byte	.LASF397
 2929 11c5 01       		.byte	0x1
 2930 11c6 12       		.uleb128 0x12
 2931 11c7 6D160000 		.4byte	.LASF398
 2932 11cb 02       		.byte	0x2
 2933 11cc 12       		.uleb128 0x12
 2934 11cd 1D240000 		.4byte	.LASF399
 2935 11d1 03       		.byte	0x3
 2936 11d2 12       		.uleb128 0x12
 2937 11d3 280B0000 		.4byte	.LASF400
 2938 11d7 04       		.byte	0x4
 2939 11d8 12       		.uleb128 0x12
 2940 11d9 6B0F0000 		.4byte	.LASF401
 2941 11dd 05       		.byte	0x5
 2942 11de 12       		.uleb128 0x12
 2943 11df 42160000 		.4byte	.LASF402
 2944 11e3 06       		.byte	0x6
 2945 11e4 12       		.uleb128 0x12
 2946 11e5 A9010000 		.4byte	.LASF403
 2947 11e9 07       		.byte	0x7
 2948 11ea 00       		.byte	0
 2949 11eb 04       		.uleb128 0x4
 2950 11ec B4030000 		.4byte	.LASF404
 2951 11f0 10       		.byte	0x10
 2952 11f1 90       		.byte	0x90
 2953 11f2 AE110000 		.4byte	0x11ae
 2954 11f6 09       		.uleb128 0x9
 2955 11f7 14       		.byte	0x14
 2956 11f8 11       		.byte	0x11
 2957 11f9 3B       		.byte	0x3b
 2958 11fa 3B120000 		.4byte	0x123b
 2959 11fe 0B       		.uleb128 0xb
 2960 11ff 98030000 		.4byte	.LASF405
 2961 1203 11       		.byte	0x11
 2962 1204 3D       		.byte	0x3d
 2963 1205 D5000000 		.4byte	0xd5
 2964 1209 00       		.byte	0
 2965 120a 0B       		.uleb128 0xb
 2966 120b 5A090000 		.4byte	.LASF406
 2967 120f 11       		.byte	0x11
 2968 1210 3E       		.byte	0x3e
 2969 1211 D5000000 		.4byte	0xd5
ARM GAS  C:\Users\haske\AppData\Local\Temp\cckhubq2.s 			page 77


 2970 1215 04       		.byte	0x4
 2971 1216 0B       		.uleb128 0xb
 2972 1217 3C040000 		.4byte	.LASF407
 2973 121b 11       		.byte	0x11
 2974 121c 3F       		.byte	0x3f
 2975 121d 3B120000 		.4byte	0x123b
 2976 1221 08       		.byte	0x8
 2977 1222 0B       		.uleb128 0xb
 2978 1223 6E1C0000 		.4byte	.LASF408
 2979 1227 11       		.byte	0x11
 2980 1228 40       		.byte	0x40
 2981 1229 D5000000 		.4byte	0xd5
 2982 122d 0C       		.byte	0xc
 2983 122e 0B       		.uleb128 0xb
 2984 122f 5A200000 		.4byte	.LASF409
 2985 1233 11       		.byte	0x11
 2986 1234 45       		.byte	0x45
 2987 1235 D5000000 		.4byte	0xd5
 2988 1239 10       		.byte	0x10
 2989 123a 00       		.byte	0
 2990 123b 15       		.uleb128 0x15
 2991 123c 04       		.byte	0x4
 2992 123d 41120000 		.4byte	0x1241
 2993 1241 06       		.uleb128 0x6
 2994 1242 120C0000 		.4byte	0xc12
 2995 1246 04       		.uleb128 0x4
 2996 1247 3A1A0000 		.4byte	.LASF410
 2997 124b 11       		.byte	0x11
 2998 124c 48       		.byte	0x48
 2999 124d F6110000 		.4byte	0x11f6
 3000 1251 1C       		.uleb128 0x1c
 3001 1252 721E0000 		.4byte	.LASF413
 3002 1256 03       		.byte	0x3
 3003 1257 3B01     		.2byte	0x13b
 3004 1259 03       		.byte	0x3
 3005 125a 83120000 		.4byte	0x1283
 3006 125e 1D       		.uleb128 0x1d
 3007 125f FC080000 		.4byte	.LASF411
 3008 1263 03       		.byte	0x3
 3009 1264 3B01     		.2byte	0x13b
 3010 1266 83120000 		.4byte	0x1283
 3011 126a 1D       		.uleb128 0x1d
 3012 126b E2010000 		.4byte	.LASF412
 3013 126f 03       		.byte	0x3
 3014 1270 3B01     		.2byte	0x13b
 3015 1272 D5000000 		.4byte	0xd5
 3016 1276 1D       		.uleb128 0x1d
 3017 1277 93050000 		.4byte	.LASF253
 3018 127b 03       		.byte	0x3
 3019 127c 3B01     		.2byte	0x13b
 3020 127e D5000000 		.4byte	0xd5
 3021 1282 00       		.byte	0
 3022 1283 15       		.uleb128 0x15
 3023 1284 04       		.byte	0x4
 3024 1285 33040000 		.4byte	0x433
 3025 1289 1E       		.uleb128 0x1e
 3026 128a 16220000 		.4byte	.LASF463
ARM GAS  C:\Users\haske\AppData\Local\Temp\cckhubq2.s 			page 78


 3027 128e 03       		.byte	0x3
 3028 128f 5401     		.2byte	0x154
 3029 1291 D5000000 		.4byte	0xd5
 3030 1295 03       		.byte	0x3
 3031 1296 B3120000 		.4byte	0x12b3
 3032 129a 1D       		.uleb128 0x1d
 3033 129b FC080000 		.4byte	.LASF411
 3034 129f 03       		.byte	0x3
 3035 12a0 5401     		.2byte	0x154
 3036 12a2 B3120000 		.4byte	0x12b3
 3037 12a6 1D       		.uleb128 0x1d
 3038 12a7 E2010000 		.4byte	.LASF412
 3039 12ab 03       		.byte	0x3
 3040 12ac 5401     		.2byte	0x154
 3041 12ae D5000000 		.4byte	0xd5
 3042 12b2 00       		.byte	0
 3043 12b3 15       		.uleb128 0x15
 3044 12b4 04       		.byte	0x4
 3045 12b5 B9120000 		.4byte	0x12b9
 3046 12b9 06       		.uleb128 0x6
 3047 12ba 33040000 		.4byte	0x433
 3048 12be 1C       		.uleb128 0x1c
 3049 12bf CB090000 		.4byte	.LASF414
 3050 12c3 02       		.byte	0x2
 3051 12c4 2503     		.2byte	0x325
 3052 12c6 03       		.byte	0x3
 3053 12c7 F0120000 		.4byte	0x12f0
 3054 12cb 1D       		.uleb128 0x1d
 3055 12cc FC080000 		.4byte	.LASF411
 3056 12d0 02       		.byte	0x2
 3057 12d1 2503     		.2byte	0x325
 3058 12d3 F0120000 		.4byte	0x12f0
 3059 12d7 1D       		.uleb128 0x1d
 3060 12d8 F71D0000 		.4byte	.LASF415
 3061 12dc 02       		.byte	0x2
 3062 12dd 2503     		.2byte	0x325
 3063 12df D5000000 		.4byte	0xd5
 3064 12e3 1D       		.uleb128 0x1d
 3065 12e4 A80B0000 		.4byte	.LASF416
 3066 12e8 02       		.byte	0x2
 3067 12e9 2503     		.2byte	0x325
 3068 12eb D5000000 		.4byte	0xd5
 3069 12ef 00       		.byte	0
 3070 12f0 15       		.uleb128 0x15
 3071 12f1 04       		.byte	0x4
 3072 12f2 1B040000 		.4byte	0x41b
 3073 12f6 1F       		.uleb128 0x1f
 3074 12f7 F7000000 		.4byte	.LASF417
 3075 12fb 12       		.byte	0x12
 3076 12fc A9       		.byte	0xa9
 3077 12fd 03       		.byte	0x3
 3078 12fe 0E130000 		.4byte	0x130e
 3079 1302 20       		.uleb128 0x20
 3080 1303 93050000 		.4byte	.LASF253
 3081 1307 12       		.byte	0x12
 3082 1308 A9       		.byte	0xa9
 3083 1309 D5000000 		.4byte	0xd5
ARM GAS  C:\Users\haske\AppData\Local\Temp\cckhubq2.s 			page 79


 3084 130d 00       		.byte	0
 3085 130e 1F       		.uleb128 0x1f
 3086 130f 6B0A0000 		.4byte	.LASF418
 3087 1313 13       		.byte	0x13
 3088 1314 A9       		.byte	0xa9
 3089 1315 03       		.byte	0x3
 3090 1316 26130000 		.4byte	0x1326
 3091 131a 20       		.uleb128 0x20
 3092 131b 93050000 		.4byte	.LASF253
 3093 131f 13       		.byte	0x13
 3094 1320 A9       		.byte	0xa9
 3095 1321 D5000000 		.4byte	0xd5
 3096 1325 00       		.byte	0
 3097 1326 21       		.uleb128 0x21
 3098 1327 E7040000 		.4byte	.LASF419
 3099 132b 12       		.byte	0x12
 3100 132c B6       		.byte	0xb6
 3101 132d D5000000 		.4byte	0xd5
 3102 1331 03       		.byte	0x3
 3103 1332 21       		.uleb128 0x21
 3104 1333 7B0E0000 		.4byte	.LASF420
 3105 1337 13       		.byte	0x13
 3106 1338 B6       		.byte	0xb6
 3107 1339 D5000000 		.4byte	0xd5
 3108 133d 03       		.byte	0x3
 3109 133e 22       		.uleb128 0x22
 3110 133f E60B0000 		.4byte	.LASF464
 3111 1343 01       		.byte	0x1
 3112 1344 2A       		.byte	0x2a
 3113 1345 00000000 		.4byte	.LFB864
 3114 1349 3C000000 		.4byte	.LFE864-.LFB864
 3115 134d 01       		.uleb128 0x1
 3116 134e 9C       		.byte	0x9c
 3117 134f 43140000 		.4byte	0x1443
 3118 1353 23       		.uleb128 0x23
 3119 1354 BE120000 		.4byte	0x12be
 3120 1358 08000000 		.4byte	.LBB51
 3121 135c 06000000 		.4byte	.LBE51-.LBB51
 3122 1360 01       		.byte	0x1
 3123 1361 2F       		.byte	0x2f
 3124 1362 82130000 		.4byte	0x1382
 3125 1366 24       		.uleb128 0x24
 3126 1367 E3120000 		.4byte	0x12e3
 3127 136b 00000000 		.4byte	.LLST0
 3128 136f 24       		.uleb128 0x24
 3129 1370 D7120000 		.4byte	0x12d7
 3130 1374 14000000 		.4byte	.LLST1
 3131 1378 24       		.uleb128 0x24
 3132 1379 CB120000 		.4byte	0x12cb
 3133 137d 28000000 		.4byte	.LLST2
 3134 1381 00       		.byte	0
 3135 1382 23       		.uleb128 0x23
 3136 1383 BE120000 		.4byte	0x12be
 3137 1387 0E000000 		.4byte	.LBB53
 3138 138b 06000000 		.4byte	.LBE53-.LBB53
 3139 138f 01       		.byte	0x1
 3140 1390 30       		.byte	0x30
ARM GAS  C:\Users\haske\AppData\Local\Temp\cckhubq2.s 			page 80


 3141 1391 B1130000 		.4byte	0x13b1
 3142 1395 24       		.uleb128 0x24
 3143 1396 E3120000 		.4byte	0x12e3
 3144 139a 40000000 		.4byte	.LLST3
 3145 139e 24       		.uleb128 0x24
 3146 139f D7120000 		.4byte	0x12d7
 3147 13a3 54000000 		.4byte	.LLST4
 3148 13a7 24       		.uleb128 0x24
 3149 13a8 CB120000 		.4byte	0x12cb
 3150 13ac 68000000 		.4byte	.LLST5
 3151 13b0 00       		.byte	0
 3152 13b1 23       		.uleb128 0x23
 3153 13b2 BE120000 		.4byte	0x12be
 3154 13b6 22000000 		.4byte	.LBB55
 3155 13ba 02000000 		.4byte	.LBE55-.LBB55
 3156 13be 01       		.byte	0x1
 3157 13bf 38       		.byte	0x38
 3158 13c0 E0130000 		.4byte	0x13e0
 3159 13c4 24       		.uleb128 0x24
 3160 13c5 E3120000 		.4byte	0x12e3
 3161 13c9 80000000 		.4byte	.LLST6
 3162 13cd 24       		.uleb128 0x24
 3163 13ce D7120000 		.4byte	0x12d7
 3164 13d2 94000000 		.4byte	.LLST7
 3165 13d6 24       		.uleb128 0x24
 3166 13d7 CB120000 		.4byte	0x12cb
 3167 13db A8000000 		.4byte	.LLST8
 3168 13df 00       		.byte	0
 3169 13e0 23       		.uleb128 0x23
 3170 13e1 BE120000 		.4byte	0x12be
 3171 13e5 24000000 		.4byte	.LBB57
 3172 13e9 18000000 		.4byte	.LBE57-.LBB57
 3173 13ed 01       		.byte	0x1
 3174 13ee 39       		.byte	0x39
 3175 13ef 0F140000 		.4byte	0x140f
 3176 13f3 24       		.uleb128 0x24
 3177 13f4 E3120000 		.4byte	0x12e3
 3178 13f8 C0000000 		.4byte	.LLST9
 3179 13fc 24       		.uleb128 0x24
 3180 13fd D7120000 		.4byte	0x12d7
 3181 1401 D4000000 		.4byte	.LLST10
 3182 1405 24       		.uleb128 0x24
 3183 1406 CB120000 		.4byte	0x12cb
 3184 140a E8000000 		.4byte	.LLST11
 3185 140e 00       		.byte	0
 3186 140f 25       		.uleb128 0x25
 3187 1410 08000000 		.4byte	.LVL0
 3188 1414 BF1A0000 		.4byte	0x1abf
 3189 1418 26140000 		.4byte	0x1426
 3190 141c 26       		.uleb128 0x26
 3191 141d 01       		.uleb128 0x1
 3192 141e 50       		.byte	0x50
 3193 141f 05       		.uleb128 0x5
 3194 1420 03       		.byte	0x3
 3195 1421 00000000 		.4byte	.LC0
 3196 1425 00       		.byte	0
 3197 1426 27       		.uleb128 0x27
ARM GAS  C:\Users\haske\AppData\Local\Temp\cckhubq2.s 			page 81


 3198 1427 1C000000 		.4byte	.LVL3
 3199 142b CA1A0000 		.4byte	0x1aca
 3200 142f 28       		.uleb128 0x28
 3201 1430 22000000 		.4byte	.LVL4
 3202 1434 BF1A0000 		.4byte	0x1abf
 3203 1438 26       		.uleb128 0x26
 3204 1439 01       		.uleb128 0x1
 3205 143a 50       		.byte	0x50
 3206 143b 05       		.uleb128 0x5
 3207 143c 03       		.byte	0x3
 3208 143d 24000000 		.4byte	.LC1
 3209 1441 00       		.byte	0
 3210 1442 00       		.byte	0
 3211 1443 29       		.uleb128 0x29
 3212 1444 54110000 		.4byte	.LASF421
 3213 1448 01       		.byte	0x1
 3214 1449 1F       		.byte	0x1f
 3215 144a 00000000 		.4byte	.LFB863
 3216 144e 34000000 		.4byte	.LFE863-.LFB863
 3217 1452 01       		.uleb128 0x1
 3218 1453 9C       		.byte	0x9c
 3219 1454 6C140000 		.4byte	0x146c
 3220 1458 28       		.uleb128 0x28
 3221 1459 16000000 		.4byte	.LVL7
 3222 145d BF1A0000 		.4byte	0x1abf
 3223 1461 26       		.uleb128 0x26
 3224 1462 01       		.uleb128 0x1
 3225 1463 50       		.byte	0x50
 3226 1464 05       		.uleb128 0x5
 3227 1465 03       		.byte	0x3
 3228 1466 48000000 		.4byte	.LC2
 3229 146a 00       		.byte	0
 3230 146b 00       		.byte	0
 3231 146c 29       		.uleb128 0x29
 3232 146d 3F210000 		.4byte	.LASF422
 3233 1471 01       		.byte	0x1
 3234 1472 3C       		.byte	0x3c
 3235 1473 00000000 		.4byte	.LFB865
 3236 1477 AC000000 		.4byte	.LFE865-.LFB865
 3237 147b 01       		.uleb128 0x1
 3238 147c 9C       		.byte	0x9c
 3239 147d 83150000 		.4byte	0x1583
 3240 1481 23       		.uleb128 0x23
 3241 1482 BE120000 		.4byte	0x12be
 3242 1486 52000000 		.4byte	.LBB59
 3243 148a 06000000 		.4byte	.LBE59-.LBB59
 3244 148e 01       		.byte	0x1
 3245 148f 49       		.byte	0x49
 3246 1490 B0140000 		.4byte	0x14b0
 3247 1494 24       		.uleb128 0x24
 3248 1495 E3120000 		.4byte	0x12e3
 3249 1499 00010000 		.4byte	.LLST12
 3250 149d 24       		.uleb128 0x24
 3251 149e D7120000 		.4byte	0x12d7
 3252 14a2 14010000 		.4byte	.LLST13
 3253 14a6 24       		.uleb128 0x24
 3254 14a7 CB120000 		.4byte	0x12cb
ARM GAS  C:\Users\haske\AppData\Local\Temp\cckhubq2.s 			page 82


 3255 14ab 28010000 		.4byte	.LLST14
 3256 14af 00       		.byte	0
 3257 14b0 23       		.uleb128 0x23
 3258 14b1 BE120000 		.4byte	0x12be
 3259 14b5 58000000 		.4byte	.LBB61
 3260 14b9 04000000 		.4byte	.LBE61-.LBB61
 3261 14bd 01       		.byte	0x1
 3262 14be 4A       		.byte	0x4a
 3263 14bf DF140000 		.4byte	0x14df
 3264 14c3 24       		.uleb128 0x24
 3265 14c4 E3120000 		.4byte	0x12e3
 3266 14c8 40010000 		.4byte	.LLST15
 3267 14cc 24       		.uleb128 0x24
 3268 14cd D7120000 		.4byte	0x12d7
 3269 14d1 54010000 		.4byte	.LLST16
 3270 14d5 24       		.uleb128 0x24
 3271 14d6 CB120000 		.4byte	0x12cb
 3272 14da 68010000 		.4byte	.LLST17
 3273 14de 00       		.byte	0
 3274 14df 23       		.uleb128 0x23
 3275 14e0 BE120000 		.4byte	0x12be
 3276 14e4 6A000000 		.4byte	.LBB63
 3277 14e8 02000000 		.4byte	.LBE63-.LBB63
 3278 14ec 01       		.byte	0x1
 3279 14ed 52       		.byte	0x52
 3280 14ee 0E150000 		.4byte	0x150e
 3281 14f2 24       		.uleb128 0x24
 3282 14f3 E3120000 		.4byte	0x12e3
 3283 14f7 80010000 		.4byte	.LLST18
 3284 14fb 24       		.uleb128 0x24
 3285 14fc D7120000 		.4byte	0x12d7
 3286 1500 94010000 		.4byte	.LLST19
 3287 1504 24       		.uleb128 0x24
 3288 1505 CB120000 		.4byte	0x12cb
 3289 1509 A8010000 		.4byte	.LLST20
 3290 150d 00       		.byte	0
 3291 150e 23       		.uleb128 0x23
 3292 150f BE120000 		.4byte	0x12be
 3293 1513 6C000000 		.4byte	.LBB65
 3294 1517 04000000 		.4byte	.LBE65-.LBB65
 3295 151b 01       		.byte	0x1
 3296 151c 53       		.byte	0x53
 3297 151d 3D150000 		.4byte	0x153d
 3298 1521 24       		.uleb128 0x24
 3299 1522 E3120000 		.4byte	0x12e3
 3300 1526 C0010000 		.4byte	.LLST21
 3301 152a 24       		.uleb128 0x24
 3302 152b D7120000 		.4byte	0x12d7
 3303 152f D4010000 		.4byte	.LLST22
 3304 1533 24       		.uleb128 0x24
 3305 1534 CB120000 		.4byte	0x12cb
 3306 1538 E8010000 		.4byte	.LLST23
 3307 153c 00       		.byte	0
 3308 153d 27       		.uleb128 0x27
 3309 153e 26000000 		.4byte	.LVL8
 3310 1542 3E130000 		.4byte	0x133e
 3311 1546 27       		.uleb128 0x27
ARM GAS  C:\Users\haske\AppData\Local\Temp\cckhubq2.s 			page 83


 3312 1547 3E000000 		.4byte	.LVL9
 3313 154b 3E130000 		.4byte	0x133e
 3314 154f 25       		.uleb128 0x25
 3315 1550 52000000 		.4byte	.LVL10
 3316 1554 BF1A0000 		.4byte	0x1abf
 3317 1558 66150000 		.4byte	0x1566
 3318 155c 26       		.uleb128 0x26
 3319 155d 01       		.uleb128 0x1
 3320 155e 50       		.byte	0x50
 3321 155f 05       		.uleb128 0x5
 3322 1560 03       		.byte	0x3
 3323 1561 5C000000 		.4byte	.LC3
 3324 1565 00       		.byte	0
 3325 1566 27       		.uleb128 0x27
 3326 1567 64000000 		.4byte	.LVL13
 3327 156b CA1A0000 		.4byte	0x1aca
 3328 156f 28       		.uleb128 0x28
 3329 1570 6A000000 		.4byte	.LVL14
 3330 1574 BF1A0000 		.4byte	0x1abf
 3331 1578 26       		.uleb128 0x26
 3332 1579 01       		.uleb128 0x1
 3333 157a 50       		.byte	0x50
 3334 157b 05       		.uleb128 0x5
 3335 157c 03       		.byte	0x3
 3336 157d 80000000 		.4byte	.LC4
 3337 1581 00       		.byte	0
 3338 1582 00       		.byte	0
 3339 1583 2A       		.uleb128 0x2a
 3340 1584 8D0D0000 		.4byte	.LASF423
 3341 1588 01       		.byte	0x1
 3342 1589 5A       		.byte	0x5a
 3343 158a 00000000 		.4byte	.LFB866
 3344 158e 38000000 		.4byte	.LFE866-.LFB866
 3345 1592 01       		.uleb128 0x1
 3346 1593 9C       		.byte	0x9c
 3347 1594 BB150000 		.4byte	0x15bb
 3348 1598 2B       		.uleb128 0x2b
 3349 1599 73210000 		.4byte	.LASF425
 3350 159d 01       		.byte	0x1
 3351 159e 5A       		.byte	0x5a
 3352 159f 25000000 		.4byte	0x25
 3353 15a3 00020000 		.4byte	.LLST24
 3354 15a7 28       		.uleb128 0x28
 3355 15a8 1A000000 		.4byte	.LVL20
 3356 15ac BF1A0000 		.4byte	0x1abf
 3357 15b0 26       		.uleb128 0x26
 3358 15b1 01       		.uleb128 0x1
 3359 15b2 50       		.byte	0x50
 3360 15b3 05       		.uleb128 0x5
 3361 15b4 03       		.byte	0x3
 3362 15b5 A4000000 		.4byte	.LC5
 3363 15b9 00       		.byte	0
 3364 15ba 00       		.byte	0
 3365 15bb 29       		.uleb128 0x29
 3366 15bc 3C230000 		.4byte	.LASF424
 3367 15c0 01       		.byte	0x1
 3368 15c1 65       		.byte	0x65
ARM GAS  C:\Users\haske\AppData\Local\Temp\cckhubq2.s 			page 84


 3369 15c2 00000000 		.4byte	.LFB867
 3370 15c6 66000000 		.4byte	.LFE867-.LFB867
 3371 15ca 01       		.uleb128 0x1
 3372 15cb 9C       		.byte	0x9c
 3373 15cc ED150000 		.4byte	0x15ed
 3374 15d0 2B       		.uleb128 0x2b
 3375 15d1 12090000 		.4byte	.LASF426
 3376 15d5 01       		.byte	0x1
 3377 15d6 65       		.byte	0x65
 3378 15d7 3A000000 		.4byte	0x3a
 3379 15db 28020000 		.4byte	.LLST25
 3380 15df 2C       		.uleb128 0x2c
 3381 15e0 5B210000 		.4byte	.LASF427
 3382 15e4 01       		.byte	0x1
 3383 15e5 65       		.byte	0x65
 3384 15e6 ED150000 		.4byte	0x15ed
 3385 15ea 01       		.uleb128 0x1
 3386 15eb 51       		.byte	0x51
 3387 15ec 00       		.byte	0
 3388 15ed 15       		.uleb128 0x15
 3389 15ee 04       		.byte	0x4
 3390 15ef 7C080000 		.4byte	0x87c
 3391 15f3 29       		.uleb128 0x29
 3392 15f4 13140000 		.4byte	.LASF428
 3393 15f8 01       		.byte	0x1
 3394 15f9 75       		.byte	0x75
 3395 15fa 00000000 		.4byte	.LFB868
 3396 15fe 78000000 		.4byte	.LFE868-.LFB868
 3397 1602 01       		.uleb128 0x1
 3398 1603 9C       		.byte	0x9c
 3399 1604 F0170000 		.4byte	0x17f0
 3400 1608 2B       		.uleb128 0x2b
 3401 1609 071B0000 		.4byte	.LASF429
 3402 160d 01       		.byte	0x1
 3403 160e 75       		.byte	0x75
 3404 160f 3A000000 		.4byte	0x3a
 3405 1613 48020000 		.4byte	.LLST26
 3406 1617 23       		.uleb128 0x23
 3407 1618 0E130000 		.4byte	0x130e
 3408 161c 04000000 		.4byte	.LBB67
 3409 1620 08000000 		.4byte	.LBE67-.LBB67
 3410 1624 01       		.byte	0x1
 3411 1625 78       		.byte	0x78
 3412 1626 5F160000 		.4byte	0x165f
 3413 162a 24       		.uleb128 0x24
 3414 162b 1A130000 		.4byte	0x131a
 3415 162f 69020000 		.4byte	.LLST27
 3416 1633 2D       		.uleb128 0x2d
 3417 1634 51120000 		.4byte	0x1251
 3418 1638 04000000 		.4byte	.LBB68
 3419 163c 08000000 		.4byte	.LBE68-.LBB68
 3420 1640 13       		.byte	0x13
 3421 1641 AB       		.byte	0xab
 3422 1642 24       		.uleb128 0x24
 3423 1643 76120000 		.4byte	0x1276
 3424 1647 69020000 		.4byte	.LLST27
 3425 164b 24       		.uleb128 0x24
ARM GAS  C:\Users\haske\AppData\Local\Temp\cckhubq2.s 			page 85


 3426 164c 6A120000 		.4byte	0x126a
 3427 1650 7D020000 		.4byte	.LLST29
 3428 1654 24       		.uleb128 0x24
 3429 1655 5E120000 		.4byte	0x125e
 3430 1659 91020000 		.4byte	.LLST30
 3431 165d 00       		.byte	0
 3432 165e 00       		.byte	0
 3433 165f 23       		.uleb128 0x23
 3434 1660 F6120000 		.4byte	0x12f6
 3435 1664 0C000000 		.4byte	.LBB70
 3436 1668 04000000 		.4byte	.LBE70-.LBB70
 3437 166c 01       		.byte	0x1
 3438 166d 79       		.byte	0x79
 3439 166e A7160000 		.4byte	0x16a7
 3440 1672 24       		.uleb128 0x24
 3441 1673 02130000 		.4byte	0x1302
 3442 1677 A9020000 		.4byte	.LLST31
 3443 167b 2D       		.uleb128 0x2d
 3444 167c 51120000 		.4byte	0x1251
 3445 1680 0C000000 		.4byte	.LBB71
 3446 1684 04000000 		.4byte	.LBE71-.LBB71
 3447 1688 12       		.byte	0x12
 3448 1689 AB       		.byte	0xab
 3449 168a 24       		.uleb128 0x24
 3450 168b 76120000 		.4byte	0x1276
 3451 168f A9020000 		.4byte	.LLST31
 3452 1693 24       		.uleb128 0x24
 3453 1694 6A120000 		.4byte	0x126a
 3454 1698 BD020000 		.4byte	.LLST33
 3455 169c 24       		.uleb128 0x24
 3456 169d 5E120000 		.4byte	0x125e
 3457 16a1 D1020000 		.4byte	.LLST34
 3458 16a5 00       		.byte	0
 3459 16a6 00       		.byte	0
 3460 16a7 2E       		.uleb128 0x2e
 3461 16a8 1C000000 		.4byte	.LBB73
 3462 16ac 5C000000 		.4byte	.LBE73-.LBB73
 3463 16b0 2F       		.uleb128 0x2f
 3464 16b1 EF220000 		.4byte	.LASF433
 3465 16b5 01       		.byte	0x1
 3466 16b6 7F       		.byte	0x7f
 3467 16b7 3A000000 		.4byte	0x3a
 3468 16bb E9020000 		.4byte	.LLST35
 3469 16bf 23       		.uleb128 0x23
 3470 16c0 0E130000 		.4byte	0x130e
 3471 16c4 30000000 		.4byte	.LBB74
 3472 16c8 06000000 		.4byte	.LBE74-.LBB74
 3473 16cc 01       		.byte	0x1
 3474 16cd 82       		.byte	0x82
 3475 16ce 07170000 		.4byte	0x1707
 3476 16d2 24       		.uleb128 0x24
 3477 16d3 1A130000 		.4byte	0x131a
 3478 16d7 2D030000 		.4byte	.LLST36
 3479 16db 2D       		.uleb128 0x2d
 3480 16dc 51120000 		.4byte	0x1251
 3481 16e0 30000000 		.4byte	.LBB75
 3482 16e4 06000000 		.4byte	.LBE75-.LBB75
ARM GAS  C:\Users\haske\AppData\Local\Temp\cckhubq2.s 			page 86


 3483 16e8 13       		.byte	0x13
 3484 16e9 AB       		.byte	0xab
 3485 16ea 24       		.uleb128 0x24
 3486 16eb 76120000 		.4byte	0x1276
 3487 16ef 2D030000 		.4byte	.LLST36
 3488 16f3 24       		.uleb128 0x24
 3489 16f4 6A120000 		.4byte	0x126a
 3490 16f8 40030000 		.4byte	.LLST38
 3491 16fc 24       		.uleb128 0x24
 3492 16fd 5E120000 		.4byte	0x125e
 3493 1701 54030000 		.4byte	.LLST39
 3494 1705 00       		.byte	0
 3495 1706 00       		.byte	0
 3496 1707 23       		.uleb128 0x23
 3497 1708 32130000 		.4byte	0x1332
 3498 170c 36000000 		.4byte	.LBB77
 3499 1710 04000000 		.4byte	.LBE77-.LBB77
 3500 1714 01       		.byte	0x1
 3501 1715 83       		.byte	0x83
 3502 1716 3D170000 		.4byte	0x173d
 3503 171a 2D       		.uleb128 0x2d
 3504 171b 89120000 		.4byte	0x1289
 3505 171f 36000000 		.4byte	.LBB78
 3506 1723 04000000 		.4byte	.LBE78-.LBB78
 3507 1727 13       		.byte	0x13
 3508 1728 B8       		.byte	0xb8
 3509 1729 24       		.uleb128 0x24
 3510 172a A6120000 		.4byte	0x12a6
 3511 172e 6C030000 		.4byte	.LLST40
 3512 1732 24       		.uleb128 0x24
 3513 1733 9A120000 		.4byte	0x129a
 3514 1737 80030000 		.4byte	.LLST41
 3515 173b 00       		.byte	0
 3516 173c 00       		.byte	0
 3517 173d 23       		.uleb128 0x23
 3518 173e F6120000 		.4byte	0x12f6
 3519 1742 50000000 		.4byte	.LBB80
 3520 1746 04000000 		.4byte	.LBE80-.LBB80
 3521 174a 01       		.byte	0x1
 3522 174b 87       		.byte	0x87
 3523 174c 85170000 		.4byte	0x1785
 3524 1750 24       		.uleb128 0x24
 3525 1751 02130000 		.4byte	0x1302
 3526 1755 98030000 		.4byte	.LLST42
 3527 1759 2D       		.uleb128 0x2d
 3528 175a 51120000 		.4byte	0x1251
 3529 175e 50000000 		.4byte	.LBB81
 3530 1762 04000000 		.4byte	.LBE81-.LBB81
 3531 1766 12       		.byte	0x12
 3532 1767 AB       		.byte	0xab
 3533 1768 24       		.uleb128 0x24
 3534 1769 76120000 		.4byte	0x1276
 3535 176d 98030000 		.4byte	.LLST42
 3536 1771 24       		.uleb128 0x24
 3537 1772 6A120000 		.4byte	0x126a
 3538 1776 AB030000 		.4byte	.LLST44
 3539 177a 24       		.uleb128 0x24
ARM GAS  C:\Users\haske\AppData\Local\Temp\cckhubq2.s 			page 87


 3540 177b 5E120000 		.4byte	0x125e
 3541 177f BF030000 		.4byte	.LLST45
 3542 1783 00       		.byte	0
 3543 1784 00       		.byte	0
 3544 1785 23       		.uleb128 0x23
 3545 1786 26130000 		.4byte	0x1326
 3546 178a 54000000 		.4byte	.LBB83
 3547 178e 04000000 		.4byte	.LBE83-.LBB83
 3548 1792 01       		.byte	0x1
 3549 1793 88       		.byte	0x88
 3550 1794 BB170000 		.4byte	0x17bb
 3551 1798 2D       		.uleb128 0x2d
 3552 1799 89120000 		.4byte	0x1289
 3553 179d 54000000 		.4byte	.LBB84
 3554 17a1 04000000 		.4byte	.LBE84-.LBB84
 3555 17a5 12       		.byte	0x12
 3556 17a6 B8       		.byte	0xb8
 3557 17a7 24       		.uleb128 0x24
 3558 17a8 A6120000 		.4byte	0x12a6
 3559 17ac D7030000 		.4byte	.LLST46
 3560 17b0 24       		.uleb128 0x24
 3561 17b1 9A120000 		.4byte	0x129a
 3562 17b5 EB030000 		.4byte	.LLST47
 3563 17b9 00       		.byte	0
 3564 17ba 00       		.byte	0
 3565 17bb 25       		.uleb128 0x25
 3566 17bc 40000000 		.4byte	.LVL31
 3567 17c0 BF1A0000 		.4byte	0x1abf
 3568 17c4 D2170000 		.4byte	0x17d2
 3569 17c8 26       		.uleb128 0x26
 3570 17c9 01       		.uleb128 0x1
 3571 17ca 50       		.byte	0x50
 3572 17cb 05       		.uleb128 0x5
 3573 17cc 03       		.byte	0x3
 3574 17cd BC000000 		.4byte	.LC6
 3575 17d1 00       		.byte	0
 3576 17d2 27       		.uleb128 0x27
 3577 17d3 50000000 		.4byte	.LVL32
 3578 17d7 CA1A0000 		.4byte	0x1aca
 3579 17db 28       		.uleb128 0x28
 3580 17dc 5E000000 		.4byte	.LVL35
 3581 17e0 BF1A0000 		.4byte	0x1abf
 3582 17e4 26       		.uleb128 0x26
 3583 17e5 01       		.uleb128 0x1
 3584 17e6 50       		.byte	0x50
 3585 17e7 05       		.uleb128 0x5
 3586 17e8 03       		.byte	0x3
 3587 17e9 D0000000 		.4byte	.LC7
 3588 17ed 00       		.byte	0
 3589 17ee 00       		.byte	0
 3590 17ef 00       		.byte	0
 3591 17f0 2A       		.uleb128 0x2a
 3592 17f1 C8110000 		.4byte	.LASF430
 3593 17f5 01       		.byte	0x1
 3594 17f6 8D       		.byte	0x8d
 3595 17f7 00000000 		.4byte	.LFB869
 3596 17fb 8C000000 		.4byte	.LFE869-.LFB869
ARM GAS  C:\Users\haske\AppData\Local\Temp\cckhubq2.s 			page 88


 3597 17ff 01       		.uleb128 0x1
 3598 1800 9C       		.byte	0x9c
 3599 1801 44190000 		.4byte	0x1944
 3600 1805 2B       		.uleb128 0x2b
 3601 1806 071B0000 		.4byte	.LASF429
 3602 180a 01       		.byte	0x1
 3603 180b 8D       		.byte	0x8d
 3604 180c 3A000000 		.4byte	0x3a
 3605 1810 03040000 		.4byte	.LLST48
 3606 1814 2B       		.uleb128 0x2b
 3607 1815 12090000 		.4byte	.LASF426
 3608 1819 01       		.byte	0x1
 3609 181a 8D       		.byte	0x8d
 3610 181b 25000000 		.4byte	0x25
 3611 181f 2F040000 		.4byte	.LLST49
 3612 1823 2B       		.uleb128 0x2b
 3613 1824 73210000 		.4byte	.LASF425
 3614 1828 01       		.byte	0x1
 3615 1829 8D       		.byte	0x8d
 3616 182a 25000000 		.4byte	0x25
 3617 182e 57040000 		.4byte	.LLST50
 3618 1832 2B       		.uleb128 0x2b
 3619 1833 CC170000 		.4byte	.LASF431
 3620 1837 01       		.byte	0x1
 3621 1838 8D       		.byte	0x8d
 3622 1839 3A000000 		.4byte	0x3a
 3623 183d 83040000 		.4byte	.LLST51
 3624 1841 2B       		.uleb128 0x2b
 3625 1842 95010000 		.4byte	.LASF432
 3626 1846 01       		.byte	0x1
 3627 1847 8D       		.byte	0x8d
 3628 1848 3A000000 		.4byte	0x3a
 3629 184c AF040000 		.4byte	.LLST52
 3630 1850 2F       		.uleb128 0x2f
 3631 1851 9B020000 		.4byte	.LASF434
 3632 1855 01       		.byte	0x1
 3633 1856 8F       		.byte	0x8f
 3634 1857 3A000000 		.4byte	0x3a
 3635 185b DB040000 		.4byte	.LLST53
 3636 185f 25       		.uleb128 0x25
 3637 1860 1E000000 		.4byte	.LVL44
 3638 1864 F3150000 		.4byte	0x15f3
 3639 1868 73180000 		.4byte	0x1873
 3640 186c 26       		.uleb128 0x26
 3641 186d 01       		.uleb128 0x1
 3642 186e 50       		.byte	0x50
 3643 186f 02       		.uleb128 0x2
 3644 1870 75       		.byte	0x75
 3645 1871 00       		.sleb128 0
 3646 1872 00       		.byte	0
 3647 1873 25       		.uleb128 0x25
 3648 1874 26000000 		.4byte	.LVL45
 3649 1878 83150000 		.4byte	0x1583
 3650 187c 8F180000 		.4byte	0x188f
 3651 1880 26       		.uleb128 0x26
 3652 1881 06       		.uleb128 0x6
 3653 1882 50       		.byte	0x50
ARM GAS  C:\Users\haske\AppData\Local\Temp\cckhubq2.s 			page 89


 3654 1883 93       		.byte	0x93
 3655 1884 04       		.uleb128 0x4
 3656 1885 51       		.byte	0x51
 3657 1886 93       		.byte	0x93
 3658 1887 04       		.uleb128 0x4
 3659 1888 05       		.uleb128 0x5
 3660 1889 91       		.byte	0x91
 3661 188a 00       		.sleb128 0
 3662 188b F6       		.byte	0xf6
 3663 188c 08       		.byte	0x8
 3664 188d 25       		.uleb128 0x25
 3665 188e 00       		.byte	0
 3666 188f 25       		.uleb128 0x25
 3667 1890 34000000 		.4byte	.LVL46
 3668 1894 F3150000 		.4byte	0x15f3
 3669 1898 A3180000 		.4byte	0x18a3
 3670 189c 26       		.uleb128 0x26
 3671 189d 01       		.uleb128 0x1
 3672 189e 50       		.byte	0x50
 3673 189f 02       		.uleb128 0x2
 3674 18a0 75       		.byte	0x75
 3675 18a1 00       		.sleb128 0
 3676 18a2 00       		.byte	0
 3677 18a3 25       		.uleb128 0x25
 3678 18a4 3C000000 		.4byte	.LVL47
 3679 18a8 83150000 		.4byte	0x1583
 3680 18ac BF180000 		.4byte	0x18bf
 3681 18b0 26       		.uleb128 0x26
 3682 18b1 06       		.uleb128 0x6
 3683 18b2 50       		.byte	0x50
 3684 18b3 93       		.byte	0x93
 3685 18b4 04       		.uleb128 0x4
 3686 18b5 51       		.byte	0x51
 3687 18b6 93       		.byte	0x93
 3688 18b7 04       		.uleb128 0x4
 3689 18b8 05       		.uleb128 0x5
 3690 18b9 91       		.byte	0x91
 3691 18ba 00       		.sleb128 0
 3692 18bb F6       		.byte	0xf6
 3693 18bc 08       		.byte	0x8
 3694 18bd 25       		.uleb128 0x25
 3695 18be 00       		.byte	0
 3696 18bf 25       		.uleb128 0x25
 3697 18c0 4A000000 		.4byte	.LVL49
 3698 18c4 BB150000 		.4byte	0x15bb
 3699 18c8 DC180000 		.4byte	0x18dc
 3700 18cc 26       		.uleb128 0x26
 3701 18cd 01       		.uleb128 0x1
 3702 18ce 50       		.byte	0x50
 3703 18cf 02       		.uleb128 0x2
 3704 18d0 76       		.byte	0x76
 3705 18d1 00       		.sleb128 0
 3706 18d2 26       		.uleb128 0x26
 3707 18d3 01       		.uleb128 0x1
 3708 18d4 51       		.byte	0x51
 3709 18d5 05       		.uleb128 0x5
 3710 18d6 03       		.byte	0x3
ARM GAS  C:\Users\haske\AppData\Local\Temp\cckhubq2.s 			page 90


 3711 18d7 00000000 		.4byte	.LANCHOR0
 3712 18db 00       		.byte	0
 3713 18dc 25       		.uleb128 0x25
 3714 18dd 58000000 		.4byte	.LVL51
 3715 18e1 BB150000 		.4byte	0x15bb
 3716 18e5 F9180000 		.4byte	0x18f9
 3717 18e9 26       		.uleb128 0x26
 3718 18ea 01       		.uleb128 0x1
 3719 18eb 50       		.byte	0x50
 3720 18ec 02       		.uleb128 0x2
 3721 18ed 76       		.byte	0x76
 3722 18ee 00       		.sleb128 0
 3723 18ef 26       		.uleb128 0x26
 3724 18f0 01       		.uleb128 0x1
 3725 18f1 51       		.byte	0x51
 3726 18f2 05       		.uleb128 0x5
 3727 18f3 03       		.byte	0x3
 3728 18f4 0C000000 		.4byte	.LANCHOR0+12
 3729 18f8 00       		.byte	0
 3730 18f9 25       		.uleb128 0x25
 3731 18fa 60000000 		.4byte	.LVL53
 3732 18fe F3150000 		.4byte	0x15f3
 3733 1902 0C190000 		.4byte	0x190c
 3734 1906 26       		.uleb128 0x26
 3735 1907 01       		.uleb128 0x1
 3736 1908 50       		.byte	0x50
 3737 1909 01       		.uleb128 0x1
 3738 190a 30       		.byte	0x30
 3739 190b 00       		.byte	0
 3740 190c 27       		.uleb128 0x27
 3741 190d 68000000 		.4byte	.LVL54
 3742 1911 83150000 		.4byte	0x1583
 3743 1915 25       		.uleb128 0x25
 3744 1916 72000000 		.4byte	.LVL55
 3745 191a BB150000 		.4byte	0x15bb
 3746 191e 2E190000 		.4byte	0x192e
 3747 1922 26       		.uleb128 0x26
 3748 1923 01       		.uleb128 0x1
 3749 1924 50       		.byte	0x50
 3750 1925 01       		.uleb128 0x1
 3751 1926 30       		.byte	0x30
 3752 1927 26       		.uleb128 0x26
 3753 1928 01       		.uleb128 0x1
 3754 1929 51       		.byte	0x51
 3755 192a 02       		.uleb128 0x2
 3756 192b 74       		.byte	0x74
 3757 192c 00       		.sleb128 0
 3758 192d 00       		.byte	0
 3759 192e 28       		.uleb128 0x28
 3760 192f 7C000000 		.4byte	.LVL56
 3761 1933 BB150000 		.4byte	0x15bb
 3762 1937 26       		.uleb128 0x26
 3763 1938 01       		.uleb128 0x1
 3764 1939 50       		.byte	0x50
 3765 193a 01       		.uleb128 0x1
 3766 193b 30       		.byte	0x30
 3767 193c 26       		.uleb128 0x26
ARM GAS  C:\Users\haske\AppData\Local\Temp\cckhubq2.s 			page 91


 3768 193d 01       		.uleb128 0x1
 3769 193e 51       		.byte	0x51
 3770 193f 02       		.uleb128 0x2
 3771 1940 74       		.byte	0x74
 3772 1941 0C       		.sleb128 12
 3773 1942 00       		.byte	0
 3774 1943 00       		.byte	0
 3775 1944 30       		.uleb128 0x30
 3776 1945 CC0B0000 		.4byte	.LASF435
 3777 1949 01       		.byte	0x1
 3778 194a 16       		.byte	0x16
 3779 194b 7C080000 		.4byte	0x87c
 3780 194f 05       		.uleb128 0x5
 3781 1950 03       		.byte	0x3
 3782 1951 00000000 		.4byte	tens_timeout
 3783 1955 30       		.uleb128 0x30
 3784 1956 070B0000 		.4byte	.LASF436
 3785 195a 01       		.byte	0x1
 3786 195b 17       		.byte	0x17
 3787 195c 7C080000 		.4byte	0x87c
 3788 1960 05       		.uleb128 0x5
 3789 1961 03       		.byte	0x3
 3790 1962 04000000 		.4byte	tens_full_timeout
 3791 1966 30       		.uleb128 0x30
 3792 1967 06100000 		.4byte	.LASF437
 3793 196b 01       		.byte	0x1
 3794 196c 18       		.byte	0x18
 3795 196d 7C080000 		.4byte	0x87c
 3796 1971 05       		.uleb128 0x5
 3797 1972 03       		.byte	0x3
 3798 1973 10000000 		.4byte	tens_interval_ms
 3799 1977 30       		.uleb128 0x30
 3800 1978 A4030000 		.4byte	.LASF438
 3801 197c 01       		.byte	0x1
 3802 197d 19       		.byte	0x19
 3803 197e 7C080000 		.4byte	0x87c
 3804 1982 05       		.uleb128 0x5
 3805 1983 03       		.byte	0x3
 3806 1984 00000000 		.4byte	tens_one_dur_us
 3807 1988 30       		.uleb128 0x30
 3808 1989 74150000 		.4byte	.LASF439
 3809 198d 01       		.byte	0x1
 3810 198e 1A       		.byte	0x1a
 3811 198f 7C080000 		.4byte	0x87c
 3812 1993 05       		.uleb128 0x5
 3813 1994 03       		.byte	0x3
 3814 1995 0C000000 		.4byte	tens_two_dur_us
 3815 1999 30       		.uleb128 0x30
 3816 199a 81000000 		.4byte	.LASF440
 3817 199e 01       		.byte	0x1
 3818 199f 1B       		.byte	0x1b
 3819 19a0 7C080000 		.4byte	0x87c
 3820 19a4 05       		.uleb128 0x5
 3821 19a5 03       		.byte	0x3
 3822 19a6 08000000 		.4byte	tens_phase_shift
 3823 19aa 31       		.uleb128 0x31
 3824 19ab 621A0000 		.4byte	.LASF441
ARM GAS  C:\Users\haske\AppData\Local\Temp\cckhubq2.s 			page 92


 3825 19af 14       		.byte	0x14
 3826 19b0 F907     		.2byte	0x7f9
 3827 19b2 B6190000 		.4byte	0x19b6
 3828 19b6 05       		.uleb128 0x5
 3829 19b7 CA000000 		.4byte	0xca
 3830 19bb 32       		.uleb128 0x32
 3831 19bc ED000000 		.4byte	.LASF442
 3832 19c0 09       		.byte	0x9
 3833 19c1 A7       		.byte	0xa7
 3834 19c2 C6190000 		.4byte	0x19c6
 3835 19c6 15       		.uleb128 0x15
 3836 19c7 04       		.byte	0x4
 3837 19c8 CC190000 		.4byte	0x19cc
 3838 19cc 06       		.uleb128 0x6
 3839 19cd 57080000 		.4byte	0x857
 3840 19d1 31       		.uleb128 0x31
 3841 19d2 0C120000 		.4byte	.LASF443
 3842 19d6 10       		.byte	0x10
 3843 19d7 2202     		.2byte	0x222
 3844 19d9 A3110000 		.4byte	0x11a3
 3845 19dd 07       		.uleb128 0x7
 3846 19de 72110000 		.4byte	0x1172
 3847 19e2 ED190000 		.4byte	0x19ed
 3848 19e6 08       		.uleb128 0x8
 3849 19e7 E0000000 		.4byte	0xe0
 3850 19eb 00       		.byte	0
 3851 19ec 00       		.byte	0
 3852 19ed 31       		.uleb128 0x31
 3853 19ee C1020000 		.4byte	.LASF444
 3854 19f2 10       		.byte	0x10
 3855 19f3 2C02     		.2byte	0x22c
 3856 19f5 DD190000 		.4byte	0x19dd
 3857 19f9 07       		.uleb128 0x7
 3858 19fa EB110000 		.4byte	0x11eb
 3859 19fe 091A0000 		.4byte	0x1a09
 3860 1a02 08       		.uleb128 0x8
 3861 1a03 E0000000 		.4byte	0xe0
 3862 1a07 00       		.byte	0
 3863 1a08 00       		.byte	0
 3864 1a09 31       		.uleb128 0x31
 3865 1a0a 24000000 		.4byte	.LASF445
 3866 1a0e 10       		.byte	0x10
 3867 1a0f 2D02     		.2byte	0x22d
 3868 1a11 F9190000 		.4byte	0x19f9
 3869 1a15 32       		.uleb128 0x32
 3870 1a16 79230000 		.4byte	.LASF446
 3871 1a1a 15       		.byte	0x15
 3872 1a1b 5E       		.byte	0x5e
 3873 1a1c BE0C0000 		.4byte	0xcbe
 3874 1a20 32       		.uleb128 0x32
 3875 1a21 E2160000 		.4byte	.LASF447
 3876 1a25 16       		.byte	0x16
 3877 1a26 1F       		.byte	0x1f
 3878 1a27 2B1A0000 		.4byte	0x1a2b
 3879 1a2b 06       		.uleb128 0x6
 3880 1a2c 030E0000 		.4byte	0xe03
 3881 1a30 32       		.uleb128 0x32
ARM GAS  C:\Users\haske\AppData\Local\Temp\cckhubq2.s 			page 93


 3882 1a31 C7070000 		.4byte	.LASF448
 3883 1a35 17       		.byte	0x17
 3884 1a36 24       		.byte	0x24
 3885 1a37 3B1A0000 		.4byte	0x1a3b
 3886 1a3b 06       		.uleb128 0x6
 3887 1a3c F70A0000 		.4byte	0xaf7
 3888 1a40 32       		.uleb128 0x32
 3889 1a41 6E110000 		.4byte	.LASF449
 3890 1a45 17       		.byte	0x17
 3891 1a46 27       		.byte	0x27
 3892 1a47 A9000000 		.4byte	0xa9
 3893 1a4b 32       		.uleb128 0x32
 3894 1a4c CD1F0000 		.4byte	.LASF450
 3895 1a50 18       		.byte	0x18
 3896 1a51 1F       		.byte	0x1f
 3897 1a52 2B1A0000 		.4byte	0x1a2b
 3898 1a56 32       		.uleb128 0x32
 3899 1a57 EF130000 		.4byte	.LASF451
 3900 1a5b 13       		.byte	0x13
 3901 1a5c 1F       		.byte	0x1f
 3902 1a5d 2B1A0000 		.4byte	0x1a2b
 3903 1a61 32       		.uleb128 0x32
 3904 1a62 69130000 		.4byte	.LASF452
 3905 1a66 12       		.byte	0x12
 3906 1a67 1F       		.byte	0x1f
 3907 1a68 2B1A0000 		.4byte	0x1a2b
 3908 1a6c 31       		.uleb128 0x31
 3909 1a6d EA150000 		.4byte	.LASF453
 3910 1a71 11       		.byte	0x11
 3911 1a72 6001     		.2byte	0x160
 3912 1a74 D5000000 		.4byte	0xd5
 3913 1a78 07       		.uleb128 0x7
 3914 1a79 881A0000 		.4byte	0x1a88
 3915 1a7d 881A0000 		.4byte	0x1a88
 3916 1a81 08       		.uleb128 0x8
 3917 1a82 E0000000 		.4byte	0xe0
 3918 1a86 00       		.byte	0
 3919 1a87 00       		.byte	0
 3920 1a88 06       		.uleb128 0x6
 3921 1a89 46120000 		.4byte	0x1246
 3922 1a8d 31       		.uleb128 0x31
 3923 1a8e F1190000 		.4byte	.LASF454
 3924 1a92 11       		.byte	0x11
 3925 1a93 6401     		.2byte	0x164
 3926 1a95 991A0000 		.4byte	0x1a99
 3927 1a99 06       		.uleb128 0x6
 3928 1a9a 781A0000 		.4byte	0x1a78
 3929 1a9e 32       		.uleb128 0x32
 3930 1a9f 93070000 		.4byte	.LASF455
 3931 1aa3 19       		.byte	0x19
 3932 1aa4 1F       		.byte	0x1f
 3933 1aa5 2B1A0000 		.4byte	0x1a2b
 3934 1aa9 32       		.uleb128 0x32
 3935 1aaa 0A0C0000 		.4byte	.LASF456
 3936 1aae 1A       		.byte	0x1a
 3937 1aaf 1F       		.byte	0x1f
 3938 1ab0 2B1A0000 		.4byte	0x1a2b
ARM GAS  C:\Users\haske\AppData\Local\Temp\cckhubq2.s 			page 94


 3939 1ab4 32       		.uleb128 0x32
 3940 1ab5 2A1A0000 		.4byte	.LASF457
 3941 1ab9 1B       		.byte	0x1b
 3942 1aba 1F       		.byte	0x1f
 3943 1abb 2B1A0000 		.4byte	0x1a2b
 3944 1abf 33       		.uleb128 0x33
 3945 1ac0 6C0C0000 		.4byte	.LASF458
 3946 1ac4 6C0C0000 		.4byte	.LASF458
 3947 1ac8 1C       		.byte	0x1c
 3948 1ac9 08       		.byte	0x8
 3949 1aca 34       		.uleb128 0x34
 3950 1acb 8B1E0000 		.4byte	.LASF459
 3951 1acf 8B1E0000 		.4byte	.LASF459
 3952 1ad3 0A       		.byte	0xa
 3953 1ad4 8A03     		.2byte	0x38a
 3954 1ad6 00       		.byte	0
 3955              		.section	.debug_abbrev,"",%progbits
 3956              	.Ldebug_abbrev0:
 3957 0000 01       		.uleb128 0x1
 3958 0001 11       		.uleb128 0x11
 3959 0002 01       		.byte	0x1
 3960 0003 25       		.uleb128 0x25
 3961 0004 0E       		.uleb128 0xe
 3962 0005 13       		.uleb128 0x13
 3963 0006 0B       		.uleb128 0xb
 3964 0007 03       		.uleb128 0x3
 3965 0008 0E       		.uleb128 0xe
 3966 0009 1B       		.uleb128 0x1b
 3967 000a 0E       		.uleb128 0xe
 3968 000b 55       		.uleb128 0x55
 3969 000c 17       		.uleb128 0x17
 3970 000d 11       		.uleb128 0x11
 3971 000e 01       		.uleb128 0x1
 3972 000f 10       		.uleb128 0x10
 3973 0010 17       		.uleb128 0x17
 3974 0011 00       		.byte	0
 3975 0012 00       		.byte	0
 3976 0013 02       		.uleb128 0x2
 3977 0014 24       		.uleb128 0x24
 3978 0015 00       		.byte	0
 3979 0016 0B       		.uleb128 0xb
 3980 0017 0B       		.uleb128 0xb
 3981 0018 3E       		.uleb128 0x3e
 3982 0019 0B       		.uleb128 0xb
 3983 001a 03       		.uleb128 0x3
 3984 001b 0E       		.uleb128 0xe
 3985 001c 00       		.byte	0
 3986 001d 00       		.byte	0
 3987 001e 03       		.uleb128 0x3
 3988 001f 24       		.uleb128 0x24
 3989 0020 00       		.byte	0
 3990 0021 0B       		.uleb128 0xb
 3991 0022 0B       		.uleb128 0xb
 3992 0023 3E       		.uleb128 0x3e
 3993 0024 0B       		.uleb128 0xb
 3994 0025 03       		.uleb128 0x3
 3995 0026 08       		.uleb128 0x8
ARM GAS  C:\Users\haske\AppData\Local\Temp\cckhubq2.s 			page 95


 3996 0027 00       		.byte	0
 3997 0028 00       		.byte	0
 3998 0029 04       		.uleb128 0x4
 3999 002a 16       		.uleb128 0x16
 4000 002b 00       		.byte	0
 4001 002c 03       		.uleb128 0x3
 4002 002d 0E       		.uleb128 0xe
 4003 002e 3A       		.uleb128 0x3a
 4004 002f 0B       		.uleb128 0xb
 4005 0030 3B       		.uleb128 0x3b
 4006 0031 0B       		.uleb128 0xb
 4007 0032 49       		.uleb128 0x49
 4008 0033 13       		.uleb128 0x13
 4009 0034 00       		.byte	0
 4010 0035 00       		.byte	0
 4011 0036 05       		.uleb128 0x5
 4012 0037 35       		.uleb128 0x35
 4013 0038 00       		.byte	0
 4014 0039 49       		.uleb128 0x49
 4015 003a 13       		.uleb128 0x13
 4016 003b 00       		.byte	0
 4017 003c 00       		.byte	0
 4018 003d 06       		.uleb128 0x6
 4019 003e 26       		.uleb128 0x26
 4020 003f 00       		.byte	0
 4021 0040 49       		.uleb128 0x49
 4022 0041 13       		.uleb128 0x13
 4023 0042 00       		.byte	0
 4024 0043 00       		.byte	0
 4025 0044 07       		.uleb128 0x7
 4026 0045 01       		.uleb128 0x1
 4027 0046 01       		.byte	0x1
 4028 0047 49       		.uleb128 0x49
 4029 0048 13       		.uleb128 0x13
 4030 0049 01       		.uleb128 0x1
 4031 004a 13       		.uleb128 0x13
 4032 004b 00       		.byte	0
 4033 004c 00       		.byte	0
 4034 004d 08       		.uleb128 0x8
 4035 004e 21       		.uleb128 0x21
 4036 004f 00       		.byte	0
 4037 0050 49       		.uleb128 0x49
 4038 0051 13       		.uleb128 0x13
 4039 0052 2F       		.uleb128 0x2f
 4040 0053 0B       		.uleb128 0xb
 4041 0054 00       		.byte	0
 4042 0055 00       		.byte	0
 4043 0056 09       		.uleb128 0x9
 4044 0057 13       		.uleb128 0x13
 4045 0058 01       		.byte	0x1
 4046 0059 0B       		.uleb128 0xb
 4047 005a 0B       		.uleb128 0xb
 4048 005b 3A       		.uleb128 0x3a
 4049 005c 0B       		.uleb128 0xb
 4050 005d 3B       		.uleb128 0x3b
 4051 005e 0B       		.uleb128 0xb
 4052 005f 01       		.uleb128 0x1
ARM GAS  C:\Users\haske\AppData\Local\Temp\cckhubq2.s 			page 96


 4053 0060 13       		.uleb128 0x13
 4054 0061 00       		.byte	0
 4055 0062 00       		.byte	0
 4056 0063 0A       		.uleb128 0xa
 4057 0064 0D       		.uleb128 0xd
 4058 0065 00       		.byte	0
 4059 0066 03       		.uleb128 0x3
 4060 0067 08       		.uleb128 0x8
 4061 0068 3A       		.uleb128 0x3a
 4062 0069 0B       		.uleb128 0xb
 4063 006a 3B       		.uleb128 0x3b
 4064 006b 0B       		.uleb128 0xb
 4065 006c 49       		.uleb128 0x49
 4066 006d 13       		.uleb128 0x13
 4067 006e 38       		.uleb128 0x38
 4068 006f 0B       		.uleb128 0xb
 4069 0070 00       		.byte	0
 4070 0071 00       		.byte	0
 4071 0072 0B       		.uleb128 0xb
 4072 0073 0D       		.uleb128 0xd
 4073 0074 00       		.byte	0
 4074 0075 03       		.uleb128 0x3
 4075 0076 0E       		.uleb128 0xe
 4076 0077 3A       		.uleb128 0x3a
 4077 0078 0B       		.uleb128 0xb
 4078 0079 3B       		.uleb128 0x3b
 4079 007a 0B       		.uleb128 0xb
 4080 007b 49       		.uleb128 0x49
 4081 007c 13       		.uleb128 0x13
 4082 007d 38       		.uleb128 0x38
 4083 007e 0B       		.uleb128 0xb
 4084 007f 00       		.byte	0
 4085 0080 00       		.byte	0
 4086 0081 0C       		.uleb128 0xc
 4087 0082 13       		.uleb128 0x13
 4088 0083 01       		.byte	0x1
 4089 0084 0B       		.uleb128 0xb
 4090 0085 05       		.uleb128 0x5
 4091 0086 3A       		.uleb128 0x3a
 4092 0087 0B       		.uleb128 0xb
 4093 0088 3B       		.uleb128 0x3b
 4094 0089 0B       		.uleb128 0xb
 4095 008a 01       		.uleb128 0x1
 4096 008b 13       		.uleb128 0x13
 4097 008c 00       		.byte	0
 4098 008d 00       		.byte	0
 4099 008e 0D       		.uleb128 0xd
 4100 008f 0D       		.uleb128 0xd
 4101 0090 00       		.byte	0
 4102 0091 03       		.uleb128 0x3
 4103 0092 0E       		.uleb128 0xe
 4104 0093 3A       		.uleb128 0x3a
 4105 0094 0B       		.uleb128 0xb
 4106 0095 3B       		.uleb128 0x3b
 4107 0096 0B       		.uleb128 0xb
 4108 0097 49       		.uleb128 0x49
 4109 0098 13       		.uleb128 0x13
ARM GAS  C:\Users\haske\AppData\Local\Temp\cckhubq2.s 			page 97


 4110 0099 38       		.uleb128 0x38
 4111 009a 05       		.uleb128 0x5
 4112 009b 00       		.byte	0
 4113 009c 00       		.byte	0
 4114 009d 0E       		.uleb128 0xe
 4115 009e 0D       		.uleb128 0xd
 4116 009f 00       		.byte	0
 4117 00a0 03       		.uleb128 0x3
 4118 00a1 08       		.uleb128 0x8
 4119 00a2 3A       		.uleb128 0x3a
 4120 00a3 0B       		.uleb128 0xb
 4121 00a4 3B       		.uleb128 0x3b
 4122 00a5 0B       		.uleb128 0xb
 4123 00a6 49       		.uleb128 0x49
 4124 00a7 13       		.uleb128 0x13
 4125 00a8 38       		.uleb128 0x38
 4126 00a9 05       		.uleb128 0x5
 4127 00aa 00       		.byte	0
 4128 00ab 00       		.byte	0
 4129 00ac 0F       		.uleb128 0xf
 4130 00ad 16       		.uleb128 0x16
 4131 00ae 00       		.byte	0
 4132 00af 03       		.uleb128 0x3
 4133 00b0 0E       		.uleb128 0xe
 4134 00b1 3A       		.uleb128 0x3a
 4135 00b2 0B       		.uleb128 0xb
 4136 00b3 3B       		.uleb128 0x3b
 4137 00b4 05       		.uleb128 0x5
 4138 00b5 49       		.uleb128 0x49
 4139 00b6 13       		.uleb128 0x13
 4140 00b7 00       		.byte	0
 4141 00b8 00       		.byte	0
 4142 00b9 10       		.uleb128 0x10
 4143 00ba 0F       		.uleb128 0xf
 4144 00bb 00       		.byte	0
 4145 00bc 0B       		.uleb128 0xb
 4146 00bd 0B       		.uleb128 0xb
 4147 00be 00       		.byte	0
 4148 00bf 00       		.byte	0
 4149 00c0 11       		.uleb128 0x11
 4150 00c1 04       		.uleb128 0x4
 4151 00c2 01       		.byte	0x1
 4152 00c3 0B       		.uleb128 0xb
 4153 00c4 0B       		.uleb128 0xb
 4154 00c5 49       		.uleb128 0x49
 4155 00c6 13       		.uleb128 0x13
 4156 00c7 3A       		.uleb128 0x3a
 4157 00c8 0B       		.uleb128 0xb
 4158 00c9 3B       		.uleb128 0x3b
 4159 00ca 05       		.uleb128 0x5
 4160 00cb 01       		.uleb128 0x1
 4161 00cc 13       		.uleb128 0x13
 4162 00cd 00       		.byte	0
 4163 00ce 00       		.byte	0
 4164 00cf 12       		.uleb128 0x12
 4165 00d0 28       		.uleb128 0x28
 4166 00d1 00       		.byte	0
ARM GAS  C:\Users\haske\AppData\Local\Temp\cckhubq2.s 			page 98


 4167 00d2 03       		.uleb128 0x3
 4168 00d3 0E       		.uleb128 0xe
 4169 00d4 1C       		.uleb128 0x1c
 4170 00d5 0B       		.uleb128 0xb
 4171 00d6 00       		.byte	0
 4172 00d7 00       		.byte	0
 4173 00d8 13       		.uleb128 0x13
 4174 00d9 13       		.uleb128 0x13
 4175 00da 01       		.byte	0x1
 4176 00db 0B       		.uleb128 0xb
 4177 00dc 0B       		.uleb128 0xb
 4178 00dd 3A       		.uleb128 0x3a
 4179 00de 0B       		.uleb128 0xb
 4180 00df 3B       		.uleb128 0x3b
 4181 00e0 05       		.uleb128 0x5
 4182 00e1 01       		.uleb128 0x1
 4183 00e2 13       		.uleb128 0x13
 4184 00e3 00       		.byte	0
 4185 00e4 00       		.byte	0
 4186 00e5 14       		.uleb128 0x14
 4187 00e6 0D       		.uleb128 0xd
 4188 00e7 00       		.byte	0
 4189 00e8 03       		.uleb128 0x3
 4190 00e9 0E       		.uleb128 0xe
 4191 00ea 3A       		.uleb128 0x3a
 4192 00eb 0B       		.uleb128 0xb
 4193 00ec 3B       		.uleb128 0x3b
 4194 00ed 05       		.uleb128 0x5
 4195 00ee 49       		.uleb128 0x49
 4196 00ef 13       		.uleb128 0x13
 4197 00f0 38       		.uleb128 0x38
 4198 00f1 0B       		.uleb128 0xb
 4199 00f2 00       		.byte	0
 4200 00f3 00       		.byte	0
 4201 00f4 15       		.uleb128 0x15
 4202 00f5 0F       		.uleb128 0xf
 4203 00f6 00       		.byte	0
 4204 00f7 0B       		.uleb128 0xb
 4205 00f8 0B       		.uleb128 0xb
 4206 00f9 49       		.uleb128 0x49
 4207 00fa 13       		.uleb128 0x13
 4208 00fb 00       		.byte	0
 4209 00fc 00       		.byte	0
 4210 00fd 16       		.uleb128 0x16
 4211 00fe 15       		.uleb128 0x15
 4212 00ff 01       		.byte	0x1
 4213 0100 27       		.uleb128 0x27
 4214 0101 19       		.uleb128 0x19
 4215 0102 01       		.uleb128 0x1
 4216 0103 13       		.uleb128 0x13
 4217 0104 00       		.byte	0
 4218 0105 00       		.byte	0
 4219 0106 17       		.uleb128 0x17
 4220 0107 05       		.uleb128 0x5
 4221 0108 00       		.byte	0
 4222 0109 49       		.uleb128 0x49
 4223 010a 13       		.uleb128 0x13
ARM GAS  C:\Users\haske\AppData\Local\Temp\cckhubq2.s 			page 99


 4224 010b 00       		.byte	0
 4225 010c 00       		.byte	0
 4226 010d 18       		.uleb128 0x18
 4227 010e 13       		.uleb128 0x13
 4228 010f 01       		.byte	0x1
 4229 0110 03       		.uleb128 0x3
 4230 0111 0E       		.uleb128 0xe
 4231 0112 0B       		.uleb128 0xb
 4232 0113 0B       		.uleb128 0xb
 4233 0114 3A       		.uleb128 0x3a
 4234 0115 0B       		.uleb128 0xb
 4235 0116 3B       		.uleb128 0x3b
 4236 0117 05       		.uleb128 0x5
 4237 0118 01       		.uleb128 0x1
 4238 0119 13       		.uleb128 0x13
 4239 011a 00       		.byte	0
 4240 011b 00       		.byte	0
 4241 011c 19       		.uleb128 0x19
 4242 011d 13       		.uleb128 0x13
 4243 011e 01       		.byte	0x1
 4244 011f 03       		.uleb128 0x3
 4245 0120 0E       		.uleb128 0xe
 4246 0121 0B       		.uleb128 0xb
 4247 0122 0B       		.uleb128 0xb
 4248 0123 3A       		.uleb128 0x3a
 4249 0124 0B       		.uleb128 0xb
 4250 0125 3B       		.uleb128 0x3b
 4251 0126 0B       		.uleb128 0xb
 4252 0127 01       		.uleb128 0x1
 4253 0128 13       		.uleb128 0x13
 4254 0129 00       		.byte	0
 4255 012a 00       		.byte	0
 4256 012b 1A       		.uleb128 0x1a
 4257 012c 28       		.uleb128 0x28
 4258 012d 00       		.byte	0
 4259 012e 03       		.uleb128 0x3
 4260 012f 0E       		.uleb128 0xe
 4261 0130 1C       		.uleb128 0x1c
 4262 0131 05       		.uleb128 0x5
 4263 0132 00       		.byte	0
 4264 0133 00       		.byte	0
 4265 0134 1B       		.uleb128 0x1b
 4266 0135 04       		.uleb128 0x4
 4267 0136 01       		.byte	0x1
 4268 0137 0B       		.uleb128 0xb
 4269 0138 0B       		.uleb128 0xb
 4270 0139 49       		.uleb128 0x49
 4271 013a 13       		.uleb128 0x13
 4272 013b 3A       		.uleb128 0x3a
 4273 013c 0B       		.uleb128 0xb
 4274 013d 3B       		.uleb128 0x3b
 4275 013e 0B       		.uleb128 0xb
 4276 013f 01       		.uleb128 0x1
 4277 0140 13       		.uleb128 0x13
 4278 0141 00       		.byte	0
 4279 0142 00       		.byte	0
 4280 0143 1C       		.uleb128 0x1c
ARM GAS  C:\Users\haske\AppData\Local\Temp\cckhubq2.s 			page 100


 4281 0144 2E       		.uleb128 0x2e
 4282 0145 01       		.byte	0x1
 4283 0146 03       		.uleb128 0x3
 4284 0147 0E       		.uleb128 0xe
 4285 0148 3A       		.uleb128 0x3a
 4286 0149 0B       		.uleb128 0xb
 4287 014a 3B       		.uleb128 0x3b
 4288 014b 05       		.uleb128 0x5
 4289 014c 27       		.uleb128 0x27
 4290 014d 19       		.uleb128 0x19
 4291 014e 20       		.uleb128 0x20
 4292 014f 0B       		.uleb128 0xb
 4293 0150 01       		.uleb128 0x1
 4294 0151 13       		.uleb128 0x13
 4295 0152 00       		.byte	0
 4296 0153 00       		.byte	0
 4297 0154 1D       		.uleb128 0x1d
 4298 0155 05       		.uleb128 0x5
 4299 0156 00       		.byte	0
 4300 0157 03       		.uleb128 0x3
 4301 0158 0E       		.uleb128 0xe
 4302 0159 3A       		.uleb128 0x3a
 4303 015a 0B       		.uleb128 0xb
 4304 015b 3B       		.uleb128 0x3b
 4305 015c 05       		.uleb128 0x5
 4306 015d 49       		.uleb128 0x49
 4307 015e 13       		.uleb128 0x13
 4308 015f 00       		.byte	0
 4309 0160 00       		.byte	0
 4310 0161 1E       		.uleb128 0x1e
 4311 0162 2E       		.uleb128 0x2e
 4312 0163 01       		.byte	0x1
 4313 0164 03       		.uleb128 0x3
 4314 0165 0E       		.uleb128 0xe
 4315 0166 3A       		.uleb128 0x3a
 4316 0167 0B       		.uleb128 0xb
 4317 0168 3B       		.uleb128 0x3b
 4318 0169 05       		.uleb128 0x5
 4319 016a 27       		.uleb128 0x27
 4320 016b 19       		.uleb128 0x19
 4321 016c 49       		.uleb128 0x49
 4322 016d 13       		.uleb128 0x13
 4323 016e 20       		.uleb128 0x20
 4324 016f 0B       		.uleb128 0xb
 4325 0170 01       		.uleb128 0x1
 4326 0171 13       		.uleb128 0x13
 4327 0172 00       		.byte	0
 4328 0173 00       		.byte	0
 4329 0174 1F       		.uleb128 0x1f
 4330 0175 2E       		.uleb128 0x2e
 4331 0176 01       		.byte	0x1
 4332 0177 03       		.uleb128 0x3
 4333 0178 0E       		.uleb128 0xe
 4334 0179 3A       		.uleb128 0x3a
 4335 017a 0B       		.uleb128 0xb
 4336 017b 3B       		.uleb128 0x3b
 4337 017c 0B       		.uleb128 0xb
ARM GAS  C:\Users\haske\AppData\Local\Temp\cckhubq2.s 			page 101


 4338 017d 27       		.uleb128 0x27
 4339 017e 19       		.uleb128 0x19
 4340 017f 20       		.uleb128 0x20
 4341 0180 0B       		.uleb128 0xb
 4342 0181 01       		.uleb128 0x1
 4343 0182 13       		.uleb128 0x13
 4344 0183 00       		.byte	0
 4345 0184 00       		.byte	0
 4346 0185 20       		.uleb128 0x20
 4347 0186 05       		.uleb128 0x5
 4348 0187 00       		.byte	0
 4349 0188 03       		.uleb128 0x3
 4350 0189 0E       		.uleb128 0xe
 4351 018a 3A       		.uleb128 0x3a
 4352 018b 0B       		.uleb128 0xb
 4353 018c 3B       		.uleb128 0x3b
 4354 018d 0B       		.uleb128 0xb
 4355 018e 49       		.uleb128 0x49
 4356 018f 13       		.uleb128 0x13
 4357 0190 00       		.byte	0
 4358 0191 00       		.byte	0
 4359 0192 21       		.uleb128 0x21
 4360 0193 2E       		.uleb128 0x2e
 4361 0194 00       		.byte	0
 4362 0195 03       		.uleb128 0x3
 4363 0196 0E       		.uleb128 0xe
 4364 0197 3A       		.uleb128 0x3a
 4365 0198 0B       		.uleb128 0xb
 4366 0199 3B       		.uleb128 0x3b
 4367 019a 0B       		.uleb128 0xb
 4368 019b 27       		.uleb128 0x27
 4369 019c 19       		.uleb128 0x19
 4370 019d 49       		.uleb128 0x49
 4371 019e 13       		.uleb128 0x13
 4372 019f 20       		.uleb128 0x20
 4373 01a0 0B       		.uleb128 0xb
 4374 01a1 00       		.byte	0
 4375 01a2 00       		.byte	0
 4376 01a3 22       		.uleb128 0x22
 4377 01a4 2E       		.uleb128 0x2e
 4378 01a5 01       		.byte	0x1
 4379 01a6 03       		.uleb128 0x3
 4380 01a7 0E       		.uleb128 0xe
 4381 01a8 3A       		.uleb128 0x3a
 4382 01a9 0B       		.uleb128 0xb
 4383 01aa 3B       		.uleb128 0x3b
 4384 01ab 0B       		.uleb128 0xb
 4385 01ac 27       		.uleb128 0x27
 4386 01ad 19       		.uleb128 0x19
 4387 01ae 11       		.uleb128 0x11
 4388 01af 01       		.uleb128 0x1
 4389 01b0 12       		.uleb128 0x12
 4390 01b1 06       		.uleb128 0x6
 4391 01b2 40       		.uleb128 0x40
 4392 01b3 18       		.uleb128 0x18
 4393 01b4 9742     		.uleb128 0x2117
 4394 01b6 19       		.uleb128 0x19
ARM GAS  C:\Users\haske\AppData\Local\Temp\cckhubq2.s 			page 102


 4395 01b7 01       		.uleb128 0x1
 4396 01b8 13       		.uleb128 0x13
 4397 01b9 00       		.byte	0
 4398 01ba 00       		.byte	0
 4399 01bb 23       		.uleb128 0x23
 4400 01bc 1D       		.uleb128 0x1d
 4401 01bd 01       		.byte	0x1
 4402 01be 31       		.uleb128 0x31
 4403 01bf 13       		.uleb128 0x13
 4404 01c0 11       		.uleb128 0x11
 4405 01c1 01       		.uleb128 0x1
 4406 01c2 12       		.uleb128 0x12
 4407 01c3 06       		.uleb128 0x6
 4408 01c4 58       		.uleb128 0x58
 4409 01c5 0B       		.uleb128 0xb
 4410 01c6 59       		.uleb128 0x59
 4411 01c7 0B       		.uleb128 0xb
 4412 01c8 01       		.uleb128 0x1
 4413 01c9 13       		.uleb128 0x13
 4414 01ca 00       		.byte	0
 4415 01cb 00       		.byte	0
 4416 01cc 24       		.uleb128 0x24
 4417 01cd 05       		.uleb128 0x5
 4418 01ce 00       		.byte	0
 4419 01cf 31       		.uleb128 0x31
 4420 01d0 13       		.uleb128 0x13
 4421 01d1 02       		.uleb128 0x2
 4422 01d2 17       		.uleb128 0x17
 4423 01d3 00       		.byte	0
 4424 01d4 00       		.byte	0
 4425 01d5 25       		.uleb128 0x25
 4426 01d6 898201   		.uleb128 0x4109
 4427 01d9 01       		.byte	0x1
 4428 01da 11       		.uleb128 0x11
 4429 01db 01       		.uleb128 0x1
 4430 01dc 31       		.uleb128 0x31
 4431 01dd 13       		.uleb128 0x13
 4432 01de 01       		.uleb128 0x1
 4433 01df 13       		.uleb128 0x13
 4434 01e0 00       		.byte	0
 4435 01e1 00       		.byte	0
 4436 01e2 26       		.uleb128 0x26
 4437 01e3 8A8201   		.uleb128 0x410a
 4438 01e6 00       		.byte	0
 4439 01e7 02       		.uleb128 0x2
 4440 01e8 18       		.uleb128 0x18
 4441 01e9 9142     		.uleb128 0x2111
 4442 01eb 18       		.uleb128 0x18
 4443 01ec 00       		.byte	0
 4444 01ed 00       		.byte	0
 4445 01ee 27       		.uleb128 0x27
 4446 01ef 898201   		.uleb128 0x4109
 4447 01f2 00       		.byte	0
 4448 01f3 11       		.uleb128 0x11
 4449 01f4 01       		.uleb128 0x1
 4450 01f5 31       		.uleb128 0x31
 4451 01f6 13       		.uleb128 0x13
ARM GAS  C:\Users\haske\AppData\Local\Temp\cckhubq2.s 			page 103


 4452 01f7 00       		.byte	0
 4453 01f8 00       		.byte	0
 4454 01f9 28       		.uleb128 0x28
 4455 01fa 898201   		.uleb128 0x4109
 4456 01fd 01       		.byte	0x1
 4457 01fe 11       		.uleb128 0x11
 4458 01ff 01       		.uleb128 0x1
 4459 0200 31       		.uleb128 0x31
 4460 0201 13       		.uleb128 0x13
 4461 0202 00       		.byte	0
 4462 0203 00       		.byte	0
 4463 0204 29       		.uleb128 0x29
 4464 0205 2E       		.uleb128 0x2e
 4465 0206 01       		.byte	0x1
 4466 0207 3F       		.uleb128 0x3f
 4467 0208 19       		.uleb128 0x19
 4468 0209 03       		.uleb128 0x3
 4469 020a 0E       		.uleb128 0xe
 4470 020b 3A       		.uleb128 0x3a
 4471 020c 0B       		.uleb128 0xb
 4472 020d 3B       		.uleb128 0x3b
 4473 020e 0B       		.uleb128 0xb
 4474 020f 27       		.uleb128 0x27
 4475 0210 19       		.uleb128 0x19
 4476 0211 11       		.uleb128 0x11
 4477 0212 01       		.uleb128 0x1
 4478 0213 12       		.uleb128 0x12
 4479 0214 06       		.uleb128 0x6
 4480 0215 40       		.uleb128 0x40
 4481 0216 18       		.uleb128 0x18
 4482 0217 9742     		.uleb128 0x2117
 4483 0219 19       		.uleb128 0x19
 4484 021a 01       		.uleb128 0x1
 4485 021b 13       		.uleb128 0x13
 4486 021c 00       		.byte	0
 4487 021d 00       		.byte	0
 4488 021e 2A       		.uleb128 0x2a
 4489 021f 2E       		.uleb128 0x2e
 4490 0220 01       		.byte	0x1
 4491 0221 3F       		.uleb128 0x3f
 4492 0222 19       		.uleb128 0x19
 4493 0223 03       		.uleb128 0x3
 4494 0224 0E       		.uleb128 0xe
 4495 0225 3A       		.uleb128 0x3a
 4496 0226 0B       		.uleb128 0xb
 4497 0227 3B       		.uleb128 0x3b
 4498 0228 0B       		.uleb128 0xb
 4499 0229 27       		.uleb128 0x27
 4500 022a 19       		.uleb128 0x19
 4501 022b 11       		.uleb128 0x11
 4502 022c 01       		.uleb128 0x1
 4503 022d 12       		.uleb128 0x12
 4504 022e 06       		.uleb128 0x6
 4505 022f 40       		.uleb128 0x40
 4506 0230 18       		.uleb128 0x18
 4507 0231 9642     		.uleb128 0x2116
 4508 0233 19       		.uleb128 0x19
ARM GAS  C:\Users\haske\AppData\Local\Temp\cckhubq2.s 			page 104


 4509 0234 01       		.uleb128 0x1
 4510 0235 13       		.uleb128 0x13
 4511 0236 00       		.byte	0
 4512 0237 00       		.byte	0
 4513 0238 2B       		.uleb128 0x2b
 4514 0239 05       		.uleb128 0x5
 4515 023a 00       		.byte	0
 4516 023b 03       		.uleb128 0x3
 4517 023c 0E       		.uleb128 0xe
 4518 023d 3A       		.uleb128 0x3a
 4519 023e 0B       		.uleb128 0xb
 4520 023f 3B       		.uleb128 0x3b
 4521 0240 0B       		.uleb128 0xb
 4522 0241 49       		.uleb128 0x49
 4523 0242 13       		.uleb128 0x13
 4524 0243 02       		.uleb128 0x2
 4525 0244 17       		.uleb128 0x17
 4526 0245 00       		.byte	0
 4527 0246 00       		.byte	0
 4528 0247 2C       		.uleb128 0x2c
 4529 0248 05       		.uleb128 0x5
 4530 0249 00       		.byte	0
 4531 024a 03       		.uleb128 0x3
 4532 024b 0E       		.uleb128 0xe
 4533 024c 3A       		.uleb128 0x3a
 4534 024d 0B       		.uleb128 0xb
 4535 024e 3B       		.uleb128 0x3b
 4536 024f 0B       		.uleb128 0xb
 4537 0250 49       		.uleb128 0x49
 4538 0251 13       		.uleb128 0x13
 4539 0252 02       		.uleb128 0x2
 4540 0253 18       		.uleb128 0x18
 4541 0254 00       		.byte	0
 4542 0255 00       		.byte	0
 4543 0256 2D       		.uleb128 0x2d
 4544 0257 1D       		.uleb128 0x1d
 4545 0258 01       		.byte	0x1
 4546 0259 31       		.uleb128 0x31
 4547 025a 13       		.uleb128 0x13
 4548 025b 11       		.uleb128 0x11
 4549 025c 01       		.uleb128 0x1
 4550 025d 12       		.uleb128 0x12
 4551 025e 06       		.uleb128 0x6
 4552 025f 58       		.uleb128 0x58
 4553 0260 0B       		.uleb128 0xb
 4554 0261 59       		.uleb128 0x59
 4555 0262 0B       		.uleb128 0xb
 4556 0263 00       		.byte	0
 4557 0264 00       		.byte	0
 4558 0265 2E       		.uleb128 0x2e
 4559 0266 0B       		.uleb128 0xb
 4560 0267 01       		.byte	0x1
 4561 0268 11       		.uleb128 0x11
 4562 0269 01       		.uleb128 0x1
 4563 026a 12       		.uleb128 0x12
 4564 026b 06       		.uleb128 0x6
 4565 026c 00       		.byte	0
ARM GAS  C:\Users\haske\AppData\Local\Temp\cckhubq2.s 			page 105


 4566 026d 00       		.byte	0
 4567 026e 2F       		.uleb128 0x2f
 4568 026f 34       		.uleb128 0x34
 4569 0270 00       		.byte	0
 4570 0271 03       		.uleb128 0x3
 4571 0272 0E       		.uleb128 0xe
 4572 0273 3A       		.uleb128 0x3a
 4573 0274 0B       		.uleb128 0xb
 4574 0275 3B       		.uleb128 0x3b
 4575 0276 0B       		.uleb128 0xb
 4576 0277 49       		.uleb128 0x49
 4577 0278 13       		.uleb128 0x13
 4578 0279 02       		.uleb128 0x2
 4579 027a 17       		.uleb128 0x17
 4580 027b 00       		.byte	0
 4581 027c 00       		.byte	0
 4582 027d 30       		.uleb128 0x30
 4583 027e 34       		.uleb128 0x34
 4584 027f 00       		.byte	0
 4585 0280 03       		.uleb128 0x3
 4586 0281 0E       		.uleb128 0xe
 4587 0282 3A       		.uleb128 0x3a
 4588 0283 0B       		.uleb128 0xb
 4589 0284 3B       		.uleb128 0x3b
 4590 0285 0B       		.uleb128 0xb
 4591 0286 49       		.uleb128 0x49
 4592 0287 13       		.uleb128 0x13
 4593 0288 02       		.uleb128 0x2
 4594 0289 18       		.uleb128 0x18
 4595 028a 00       		.byte	0
 4596 028b 00       		.byte	0
 4597 028c 31       		.uleb128 0x31
 4598 028d 34       		.uleb128 0x34
 4599 028e 00       		.byte	0
 4600 028f 03       		.uleb128 0x3
 4601 0290 0E       		.uleb128 0xe
 4602 0291 3A       		.uleb128 0x3a
 4603 0292 0B       		.uleb128 0xb
 4604 0293 3B       		.uleb128 0x3b
 4605 0294 05       		.uleb128 0x5
 4606 0295 49       		.uleb128 0x49
 4607 0296 13       		.uleb128 0x13
 4608 0297 3F       		.uleb128 0x3f
 4609 0298 19       		.uleb128 0x19
 4610 0299 3C       		.uleb128 0x3c
 4611 029a 19       		.uleb128 0x19
 4612 029b 00       		.byte	0
 4613 029c 00       		.byte	0
 4614 029d 32       		.uleb128 0x32
 4615 029e 34       		.uleb128 0x34
 4616 029f 00       		.byte	0
 4617 02a0 03       		.uleb128 0x3
 4618 02a1 0E       		.uleb128 0xe
 4619 02a2 3A       		.uleb128 0x3a
 4620 02a3 0B       		.uleb128 0xb
 4621 02a4 3B       		.uleb128 0x3b
 4622 02a5 0B       		.uleb128 0xb
ARM GAS  C:\Users\haske\AppData\Local\Temp\cckhubq2.s 			page 106


 4623 02a6 49       		.uleb128 0x49
 4624 02a7 13       		.uleb128 0x13
 4625 02a8 3F       		.uleb128 0x3f
 4626 02a9 19       		.uleb128 0x19
 4627 02aa 3C       		.uleb128 0x3c
 4628 02ab 19       		.uleb128 0x19
 4629 02ac 00       		.byte	0
 4630 02ad 00       		.byte	0
 4631 02ae 33       		.uleb128 0x33
 4632 02af 2E       		.uleb128 0x2e
 4633 02b0 00       		.byte	0
 4634 02b1 3F       		.uleb128 0x3f
 4635 02b2 19       		.uleb128 0x19
 4636 02b3 3C       		.uleb128 0x3c
 4637 02b4 19       		.uleb128 0x19
 4638 02b5 6E       		.uleb128 0x6e
 4639 02b6 0E       		.uleb128 0xe
 4640 02b7 03       		.uleb128 0x3
 4641 02b8 0E       		.uleb128 0xe
 4642 02b9 3A       		.uleb128 0x3a
 4643 02ba 0B       		.uleb128 0xb
 4644 02bb 3B       		.uleb128 0x3b
 4645 02bc 0B       		.uleb128 0xb
 4646 02bd 00       		.byte	0
 4647 02be 00       		.byte	0
 4648 02bf 34       		.uleb128 0x34
 4649 02c0 2E       		.uleb128 0x2e
 4650 02c1 00       		.byte	0
 4651 02c2 3F       		.uleb128 0x3f
 4652 02c3 19       		.uleb128 0x19
 4653 02c4 3C       		.uleb128 0x3c
 4654 02c5 19       		.uleb128 0x19
 4655 02c6 6E       		.uleb128 0x6e
 4656 02c7 0E       		.uleb128 0xe
 4657 02c8 03       		.uleb128 0x3
 4658 02c9 0E       		.uleb128 0xe
 4659 02ca 3A       		.uleb128 0x3a
 4660 02cb 0B       		.uleb128 0xb
 4661 02cc 3B       		.uleb128 0x3b
 4662 02cd 05       		.uleb128 0x5
 4663 02ce 00       		.byte	0
 4664 02cf 00       		.byte	0
 4665 02d0 00       		.byte	0
 4666              		.section	.debug_loc,"",%progbits
 4667              	.Ldebug_loc0:
 4668              	.LLST0:
 4669 0000 08000000 		.4byte	.LVL0
 4670 0004 0E000000 		.4byte	.LVL1
 4671 0008 0200     		.2byte	0x2
 4672 000a 31       		.byte	0x31
 4673 000b 9F       		.byte	0x9f
 4674 000c 00000000 		.4byte	0
 4675 0010 00000000 		.4byte	0
 4676              	.LLST1:
 4677 0014 08000000 		.4byte	.LVL0
 4678 0018 0E000000 		.4byte	.LVL1
 4679 001c 0200     		.2byte	0x2
ARM GAS  C:\Users\haske\AppData\Local\Temp\cckhubq2.s 			page 107


 4680 001e 33       		.byte	0x33
 4681 001f 9F       		.byte	0x9f
 4682 0020 00000000 		.4byte	0
 4683 0024 00000000 		.4byte	0
 4684              	.LLST2:
 4685 0028 08000000 		.4byte	.LVL0
 4686 002c 0E000000 		.4byte	.LVL1
 4687 0030 0600     		.2byte	0x6
 4688 0032 0C       		.byte	0xc
 4689 0033 00033240 		.4byte	0x40320300
 4690 0037 9F       		.byte	0x9f
 4691 0038 00000000 		.4byte	0
 4692 003c 00000000 		.4byte	0
 4693              	.LLST3:
 4694 0040 0E000000 		.4byte	.LVL1
 4695 0044 14000000 		.4byte	.LVL2
 4696 0048 0200     		.2byte	0x2
 4697 004a 31       		.byte	0x31
 4698 004b 9F       		.byte	0x9f
 4699 004c 00000000 		.4byte	0
 4700 0050 00000000 		.4byte	0
 4701              	.LLST4:
 4702 0054 0E000000 		.4byte	.LVL1
 4703 0058 14000000 		.4byte	.LVL2
 4704 005c 0200     		.2byte	0x2
 4705 005e 32       		.byte	0x32
 4706 005f 9F       		.byte	0x9f
 4707 0060 00000000 		.4byte	0
 4708 0064 00000000 		.4byte	0
 4709              	.LLST5:
 4710 0068 0E000000 		.4byte	.LVL1
 4711 006c 14000000 		.4byte	.LVL2
 4712 0070 0600     		.2byte	0x6
 4713 0072 0C       		.byte	0xc
 4714 0073 00053240 		.4byte	0x40320500
 4715 0077 9F       		.byte	0x9f
 4716 0078 00000000 		.4byte	0
 4717 007c 00000000 		.4byte	0
 4718              	.LLST6:
 4719 0080 22000000 		.4byte	.LVL4
 4720 0084 24000000 		.4byte	.LVL5
 4721 0088 0200     		.2byte	0x2
 4722 008a 30       		.byte	0x30
 4723 008b 9F       		.byte	0x9f
 4724 008c 00000000 		.4byte	0
 4725 0090 00000000 		.4byte	0
 4726              	.LLST7:
 4727 0094 22000000 		.4byte	.LVL4
 4728 0098 24000000 		.4byte	.LVL5
 4729 009c 0200     		.2byte	0x2
 4730 009e 32       		.byte	0x32
 4731 009f 9F       		.byte	0x9f
 4732 00a0 00000000 		.4byte	0
 4733 00a4 00000000 		.4byte	0
 4734              	.LLST8:
 4735 00a8 22000000 		.4byte	.LVL4
 4736 00ac 24000000 		.4byte	.LVL5
ARM GAS  C:\Users\haske\AppData\Local\Temp\cckhubq2.s 			page 108


 4737 00b0 0600     		.2byte	0x6
 4738 00b2 0C       		.byte	0xc
 4739 00b3 00053240 		.4byte	0x40320500
 4740 00b7 9F       		.byte	0x9f
 4741 00b8 00000000 		.4byte	0
 4742 00bc 00000000 		.4byte	0
 4743              	.LLST9:
 4744 00c0 24000000 		.4byte	.LVL5
 4745 00c4 26000000 		.4byte	.LVL6
 4746 00c8 0200     		.2byte	0x2
 4747 00ca 30       		.byte	0x30
 4748 00cb 9F       		.byte	0x9f
 4749 00cc 00000000 		.4byte	0
 4750 00d0 00000000 		.4byte	0
 4751              	.LLST10:
 4752 00d4 24000000 		.4byte	.LVL5
 4753 00d8 26000000 		.4byte	.LVL6
 4754 00dc 0200     		.2byte	0x2
 4755 00de 33       		.byte	0x33
 4756 00df 9F       		.byte	0x9f
 4757 00e0 00000000 		.4byte	0
 4758 00e4 00000000 		.4byte	0
 4759              	.LLST11:
 4760 00e8 24000000 		.4byte	.LVL5
 4761 00ec 26000000 		.4byte	.LVL6
 4762 00f0 0600     		.2byte	0x6
 4763 00f2 0C       		.byte	0xc
 4764 00f3 00033240 		.4byte	0x40320300
 4765 00f7 9F       		.byte	0x9f
 4766 00f8 00000000 		.4byte	0
 4767 00fc 00000000 		.4byte	0
 4768              	.LLST12:
 4769 0100 52000000 		.4byte	.LVL10
 4770 0104 58000000 		.4byte	.LVL11
 4771 0108 0200     		.2byte	0x2
 4772 010a 31       		.byte	0x31
 4773 010b 9F       		.byte	0x9f
 4774 010c 00000000 		.4byte	0
 4775 0110 00000000 		.4byte	0
 4776              	.LLST13:
 4777 0114 52000000 		.4byte	.LVL10
 4778 0118 58000000 		.4byte	.LVL11
 4779 011c 0200     		.2byte	0x2
 4780 011e 37       		.byte	0x37
 4781 011f 9F       		.byte	0x9f
 4782 0120 00000000 		.4byte	0
 4783 0124 00000000 		.4byte	0
 4784              	.LLST14:
 4785 0128 52000000 		.4byte	.LVL10
 4786 012c 58000000 		.4byte	.LVL11
 4787 0130 0600     		.2byte	0x6
 4788 0132 0C       		.byte	0xc
 4789 0133 80033240 		.4byte	0x40320380
 4790 0137 9F       		.byte	0x9f
 4791 0138 00000000 		.4byte	0
 4792 013c 00000000 		.4byte	0
 4793              	.LLST15:
ARM GAS  C:\Users\haske\AppData\Local\Temp\cckhubq2.s 			page 109


 4794 0140 58000000 		.4byte	.LVL11
 4795 0144 5C000000 		.4byte	.LVL12
 4796 0148 0200     		.2byte	0x2
 4797 014a 31       		.byte	0x31
 4798 014b 9F       		.byte	0x9f
 4799 014c 00000000 		.4byte	0
 4800 0150 00000000 		.4byte	0
 4801              	.LLST16:
 4802 0154 58000000 		.4byte	.LVL11
 4803 0158 5C000000 		.4byte	.LVL12
 4804 015c 0200     		.2byte	0x2
 4805 015e 37       		.byte	0x37
 4806 015f 9F       		.byte	0x9f
 4807 0160 00000000 		.4byte	0
 4808 0164 00000000 		.4byte	0
 4809              	.LLST17:
 4810 0168 58000000 		.4byte	.LVL11
 4811 016c 5C000000 		.4byte	.LVL12
 4812 0170 0600     		.2byte	0x6
 4813 0172 0C       		.byte	0xc
 4814 0173 00063240 		.4byte	0x40320600
 4815 0177 9F       		.byte	0x9f
 4816 0178 00000000 		.4byte	0
 4817 017c 00000000 		.4byte	0
 4818              	.LLST18:
 4819 0180 6A000000 		.4byte	.LVL14
 4820 0184 6C000000 		.4byte	.LVL15
 4821 0188 0200     		.2byte	0x2
 4822 018a 30       		.byte	0x30
 4823 018b 9F       		.byte	0x9f
 4824 018c 00000000 		.4byte	0
 4825 0190 00000000 		.4byte	0
 4826              	.LLST19:
 4827 0194 6A000000 		.4byte	.LVL14
 4828 0198 6C000000 		.4byte	.LVL15
 4829 019c 0200     		.2byte	0x2
 4830 019e 37       		.byte	0x37
 4831 019f 9F       		.byte	0x9f
 4832 01a0 00000000 		.4byte	0
 4833 01a4 00000000 		.4byte	0
 4834              	.LLST20:
 4835 01a8 6A000000 		.4byte	.LVL14
 4836 01ac 6C000000 		.4byte	.LVL15
 4837 01b0 0600     		.2byte	0x6
 4838 01b2 0C       		.byte	0xc
 4839 01b3 00063240 		.4byte	0x40320600
 4840 01b7 9F       		.byte	0x9f
 4841 01b8 00000000 		.4byte	0
 4842 01bc 00000000 		.4byte	0
 4843              	.LLST21:
 4844 01c0 6C000000 		.4byte	.LVL15
 4845 01c4 70000000 		.4byte	.LVL16
 4846 01c8 0200     		.2byte	0x2
 4847 01ca 30       		.byte	0x30
 4848 01cb 9F       		.byte	0x9f
 4849 01cc 00000000 		.4byte	0
 4850 01d0 00000000 		.4byte	0
ARM GAS  C:\Users\haske\AppData\Local\Temp\cckhubq2.s 			page 110


 4851              	.LLST22:
 4852 01d4 6C000000 		.4byte	.LVL15
 4853 01d8 70000000 		.4byte	.LVL16
 4854 01dc 0200     		.2byte	0x2
 4855 01de 37       		.byte	0x37
 4856 01df 9F       		.byte	0x9f
 4857 01e0 00000000 		.4byte	0
 4858 01e4 00000000 		.4byte	0
 4859              	.LLST23:
 4860 01e8 6C000000 		.4byte	.LVL15
 4861 01ec 70000000 		.4byte	.LVL16
 4862 01f0 0600     		.2byte	0x6
 4863 01f2 0C       		.byte	0xc
 4864 01f3 80033240 		.4byte	0x40320380
 4865 01f7 9F       		.byte	0x9f
 4866 01f8 00000000 		.4byte	0
 4867 01fc 00000000 		.4byte	0
 4868              	.LLST24:
 4869 0200 00000000 		.4byte	.LVL17
 4870 0204 09000000 		.4byte	.LVL18-1
 4871 0208 0600     		.2byte	0x6
 4872 020a 50       		.byte	0x50
 4873 020b 93       		.byte	0x93
 4874 020c 04       		.uleb128 0x4
 4875 020d 51       		.byte	0x51
 4876 020e 93       		.byte	0x93
 4877 020f 04       		.uleb128 0x4
 4878 0210 09000000 		.4byte	.LVL18-1
 4879 0214 38000000 		.4byte	.LFE866
 4880 0218 0600     		.2byte	0x6
 4881 021a F3       		.byte	0xf3
 4882 021b 03       		.uleb128 0x3
 4883 021c F5       		.byte	0xf5
 4884 021d 00       		.uleb128 0
 4885 021e 25       		.uleb128 0x25
 4886 021f 9F       		.byte	0x9f
 4887 0220 00000000 		.4byte	0
 4888 0224 00000000 		.4byte	0
 4889              	.LLST25:
 4890 0228 00000000 		.4byte	.LVL21
 4891 022c 02000000 		.4byte	.LVL22
 4892 0230 0100     		.2byte	0x1
 4893 0232 50       		.byte	0x50
 4894 0233 02000000 		.4byte	.LVL22
 4895 0237 66000000 		.4byte	.LFE867
 4896 023b 0300     		.2byte	0x3
 4897 023d 70       		.byte	0x70
 4898 023e 01       		.sleb128 1
 4899 023f 9F       		.byte	0x9f
 4900 0240 00000000 		.4byte	0
 4901 0244 00000000 		.4byte	0
 4902              	.LLST26:
 4903 0248 00000000 		.4byte	.LVL23
 4904 024c 3C000000 		.4byte	.LVL30
 4905 0250 0100     		.2byte	0x1
 4906 0252 50       		.byte	0x50
 4907 0253 3C000000 		.4byte	.LVL30
ARM GAS  C:\Users\haske\AppData\Local\Temp\cckhubq2.s 			page 111


 4908 0257 78000000 		.4byte	.LFE868
 4909 025b 0400     		.2byte	0x4
 4910 025d F3       		.byte	0xf3
 4911 025e 01       		.uleb128 0x1
 4912 025f 50       		.byte	0x50
 4913 0260 9F       		.byte	0x9f
 4914 0261 00000000 		.4byte	0
 4915 0265 00000000 		.4byte	0
 4916              	.LLST27:
 4917 0269 04000000 		.4byte	.LVL24
 4918 026d 0C000000 		.4byte	.LVL25
 4919 0271 0200     		.2byte	0x2
 4920 0273 30       		.byte	0x30
 4921 0274 9F       		.byte	0x9f
 4922 0275 00000000 		.4byte	0
 4923 0279 00000000 		.4byte	0
 4924              	.LLST29:
 4925 027d 04000000 		.4byte	.LVL24
 4926 0281 0C000000 		.4byte	.LVL25
 4927 0285 0200     		.2byte	0x2
 4928 0287 37       		.byte	0x37
 4929 0288 9F       		.byte	0x9f
 4930 0289 00000000 		.4byte	0
 4931 028d 00000000 		.4byte	0
 4932              	.LLST30:
 4933 0291 04000000 		.4byte	.LVL24
 4934 0295 0C000000 		.4byte	.LVL25
 4935 0299 0600     		.2byte	0x6
 4936 029b 0C       		.byte	0xc
 4937 029c 00003840 		.4byte	0x40380000
 4938 02a0 9F       		.byte	0x9f
 4939 02a1 00000000 		.4byte	0
 4940 02a5 00000000 		.4byte	0
 4941              	.LLST31:
 4942 02a9 0C000000 		.4byte	.LVL25
 4943 02ad 10000000 		.4byte	.LVL26
 4944 02b1 0200     		.2byte	0x2
 4945 02b3 30       		.byte	0x30
 4946 02b4 9F       		.byte	0x9f
 4947 02b5 00000000 		.4byte	0
 4948 02b9 00000000 		.4byte	0
 4949              	.LLST33:
 4950 02bd 0C000000 		.4byte	.LVL25
 4951 02c1 10000000 		.4byte	.LVL26
 4952 02c5 0200     		.2byte	0x2
 4953 02c7 34       		.byte	0x34
 4954 02c8 9F       		.byte	0x9f
 4955 02c9 00000000 		.4byte	0
 4956 02cd 00000000 		.4byte	0
 4957              	.LLST34:
 4958 02d1 0C000000 		.4byte	.LVL25
 4959 02d5 10000000 		.4byte	.LVL26
 4960 02d9 0600     		.2byte	0x6
 4961 02db 0C       		.byte	0xc
 4962 02dc 00003840 		.4byte	0x40380000
 4963 02e0 9F       		.byte	0x9f
 4964 02e1 00000000 		.4byte	0
ARM GAS  C:\Users\haske\AppData\Local\Temp\cckhubq2.s 			page 112


 4965 02e5 00000000 		.4byte	0
 4966              	.LLST35:
 4967 02e9 30000000 		.4byte	.LVL27
 4968 02ed 60000000 		.4byte	.LVL36
 4969 02f1 0100     		.2byte	0x1
 4970 02f3 54       		.byte	0x54
 4971 02f4 60000000 		.4byte	.LVL36
 4972 02f8 78000000 		.4byte	.LFE868
 4973 02fc 2700     		.2byte	0x27
 4974 02fe F3       		.byte	0xf3
 4975 02ff 01       		.uleb128 0x1
 4976 0300 50       		.byte	0x50
 4977 0301 0A       		.byte	0xa
 4978 0302 3801     		.2byte	0x138
 4979 0304 1E       		.byte	0x1e
 4980 0305 F7       		.byte	0xf7
 4981 0306 3A       		.uleb128 0x3a
 4982 0307 F7       		.byte	0xf7
 4983 0308 2C       		.uleb128 0x2c
 4984 0309 0C       		.byte	0xc
 4985 030a 1F85EB51 		.4byte	0x51eb851f
 4986 030e F7       		.byte	0xf7
 4987 030f 2C       		.uleb128 0x2c
 4988 0310 1E       		.byte	0x1e
 4989 0311 08       		.byte	0x8
 4990 0312 20       		.byte	0x20
 4991 0313 F7       		.byte	0xf7
 4992 0314 2C       		.uleb128 0x2c
 4993 0315 25       		.byte	0x25
 4994 0316 F7       		.byte	0xf7
 4995 0317 33       		.uleb128 0x33
 4996 0318 35       		.byte	0x35
 4997 0319 26       		.byte	0x26
 4998 031a F3       		.byte	0xf3
 4999 031b 01       		.uleb128 0x1
 5000 031c 50       		.byte	0x50
 5001 031d 0A       		.byte	0xa
 5002 031e 3801     		.2byte	0x138
 5003 0320 1E       		.byte	0x1e
 5004 0321 4F       		.byte	0x4f
 5005 0322 26       		.byte	0x26
 5006 0323 1C       		.byte	0x1c
 5007 0324 9F       		.byte	0x9f
 5008 0325 00000000 		.4byte	0
 5009 0329 00000000 		.4byte	0
 5010              	.LLST36:
 5011 032d 30000000 		.4byte	.LVL27
 5012 0331 36000000 		.4byte	.LVL28
 5013 0335 0100     		.2byte	0x1
 5014 0337 54       		.byte	0x54
 5015 0338 00000000 		.4byte	0
 5016 033c 00000000 		.4byte	0
 5017              	.LLST38:
 5018 0340 30000000 		.4byte	.LVL27
 5019 0344 36000000 		.4byte	.LVL28
 5020 0348 0200     		.2byte	0x2
 5021 034a 37       		.byte	0x37
ARM GAS  C:\Users\haske\AppData\Local\Temp\cckhubq2.s 			page 113


 5022 034b 9F       		.byte	0x9f
 5023 034c 00000000 		.4byte	0
 5024 0350 00000000 		.4byte	0
 5025              	.LLST39:
 5026 0354 30000000 		.4byte	.LVL27
 5027 0358 36000000 		.4byte	.LVL28
 5028 035c 0600     		.2byte	0x6
 5029 035e 0C       		.byte	0xc
 5030 035f 00003840 		.4byte	0x40380000
 5031 0363 9F       		.byte	0x9f
 5032 0364 00000000 		.4byte	0
 5033 0368 00000000 		.4byte	0
 5034              	.LLST40:
 5035 036c 36000000 		.4byte	.LVL28
 5036 0370 3A000000 		.4byte	.LVL29
 5037 0374 0200     		.2byte	0x2
 5038 0376 37       		.byte	0x37
 5039 0377 9F       		.byte	0x9f
 5040 0378 00000000 		.4byte	0
 5041 037c 00000000 		.4byte	0
 5042              	.LLST41:
 5043 0380 36000000 		.4byte	.LVL28
 5044 0384 3A000000 		.4byte	.LVL29
 5045 0388 0600     		.2byte	0x6
 5046 038a 0C       		.byte	0xc
 5047 038b 00003840 		.4byte	0x40380000
 5048 038f 9F       		.byte	0x9f
 5049 0390 00000000 		.4byte	0
 5050 0394 00000000 		.4byte	0
 5051              	.LLST42:
 5052 0398 50000000 		.4byte	.LVL32
 5053 039c 54000000 		.4byte	.LVL33
 5054 03a0 0100     		.2byte	0x1
 5055 03a2 54       		.byte	0x54
 5056 03a3 00000000 		.4byte	0
 5057 03a7 00000000 		.4byte	0
 5058              	.LLST44:
 5059 03ab 50000000 		.4byte	.LVL32
 5060 03af 54000000 		.4byte	.LVL33
 5061 03b3 0200     		.2byte	0x2
 5062 03b5 34       		.byte	0x34
 5063 03b6 9F       		.byte	0x9f
 5064 03b7 00000000 		.4byte	0
 5065 03bb 00000000 		.4byte	0
 5066              	.LLST45:
 5067 03bf 50000000 		.4byte	.LVL32
 5068 03c3 54000000 		.4byte	.LVL33
 5069 03c7 0600     		.2byte	0x6
 5070 03c9 0C       		.byte	0xc
 5071 03ca 00003840 		.4byte	0x40380000
 5072 03ce 9F       		.byte	0x9f
 5073 03cf 00000000 		.4byte	0
 5074 03d3 00000000 		.4byte	0
 5075              	.LLST46:
 5076 03d7 54000000 		.4byte	.LVL33
 5077 03db 58000000 		.4byte	.LVL34
 5078 03df 0200     		.2byte	0x2
ARM GAS  C:\Users\haske\AppData\Local\Temp\cckhubq2.s 			page 114


 5079 03e1 34       		.byte	0x34
 5080 03e2 9F       		.byte	0x9f
 5081 03e3 00000000 		.4byte	0
 5082 03e7 00000000 		.4byte	0
 5083              	.LLST47:
 5084 03eb 54000000 		.4byte	.LVL33
 5085 03ef 58000000 		.4byte	.LVL34
 5086 03f3 0600     		.2byte	0x6
 5087 03f5 0C       		.byte	0xc
 5088 03f6 00003840 		.4byte	0x40380000
 5089 03fa 9F       		.byte	0x9f
 5090 03fb 00000000 		.4byte	0
 5091 03ff 00000000 		.4byte	0
 5092              	.LLST48:
 5093 0403 00000000 		.4byte	.LVL37
 5094 0407 06000000 		.4byte	.LVL38
 5095 040b 0100     		.2byte	0x1
 5096 040d 50       		.byte	0x50
 5097 040e 06000000 		.4byte	.LVL38
 5098 0412 7E000000 		.4byte	.LVL57
 5099 0416 0100     		.2byte	0x1
 5100 0418 55       		.byte	0x55
 5101 0419 7E000000 		.4byte	.LVL57
 5102 041d 8C000000 		.4byte	.LFE869
 5103 0421 0400     		.2byte	0x4
 5104 0423 F3       		.byte	0xf3
 5105 0424 01       		.uleb128 0x1
 5106 0425 50       		.byte	0x50
 5107 0426 9F       		.byte	0x9f
 5108 0427 00000000 		.4byte	0
 5109 042b 00000000 		.4byte	0
 5110              	.LLST49:
 5111 042f 00000000 		.4byte	.LVL37
 5112 0433 0C000000 		.4byte	.LVL39
 5113 0437 0600     		.2byte	0x6
 5114 0439 52       		.byte	0x52
 5115 043a 93       		.byte	0x93
 5116 043b 04       		.uleb128 0x4
 5117 043c 53       		.byte	0x53
 5118 043d 93       		.byte	0x93
 5119 043e 04       		.uleb128 0x4
 5120 043f 0C000000 		.4byte	.LVL39
 5121 0443 8C000000 		.4byte	.LFE869
 5122 0447 0600     		.2byte	0x6
 5123 0449 F3       		.byte	0xf3
 5124 044a 03       		.uleb128 0x3
 5125 044b F5       		.byte	0xf5
 5126 044c 02       		.uleb128 0x2
 5127 044d 25       		.uleb128 0x25
 5128 044e 9F       		.byte	0x9f
 5129 044f 00000000 		.4byte	0
 5130 0453 00000000 		.4byte	0
 5131              	.LLST50:
 5132 0457 00000000 		.4byte	.LVL37
 5133 045b 3E000000 		.4byte	.LVL48
 5134 045f 0200     		.2byte	0x2
 5135 0461 91       		.byte	0x91
ARM GAS  C:\Users\haske\AppData\Local\Temp\cckhubq2.s 			page 115


 5136 0462 00       		.sleb128 0
 5137 0463 3E000000 		.4byte	.LVL48
 5138 0467 7E000000 		.4byte	.LVL57
 5139 046b 0200     		.2byte	0x2
 5140 046d 91       		.byte	0x91
 5141 046e 00       		.sleb128 0
 5142 046f 7E000000 		.4byte	.LVL57
 5143 0473 8C000000 		.4byte	.LFE869
 5144 0477 0200     		.2byte	0x2
 5145 0479 7D       		.byte	0x7d
 5146 047a 00       		.sleb128 0
 5147 047b 00000000 		.4byte	0
 5148 047f 00000000 		.4byte	0
 5149              	.LLST51:
 5150 0483 00000000 		.4byte	.LVL37
 5151 0487 3E000000 		.4byte	.LVL48
 5152 048b 0200     		.2byte	0x2
 5153 048d 91       		.byte	0x91
 5154 048e 08       		.sleb128 8
 5155 048f 3E000000 		.4byte	.LVL48
 5156 0493 7E000000 		.4byte	.LVL57
 5157 0497 0200     		.2byte	0x2
 5158 0499 91       		.byte	0x91
 5159 049a 08       		.sleb128 8
 5160 049b 7E000000 		.4byte	.LVL57
 5161 049f 8C000000 		.4byte	.LFE869
 5162 04a3 0200     		.2byte	0x2
 5163 04a5 7D       		.byte	0x7d
 5164 04a6 08       		.sleb128 8
 5165 04a7 00000000 		.4byte	0
 5166 04ab 00000000 		.4byte	0
 5167              	.LLST52:
 5168 04af 00000000 		.4byte	.LVL37
 5169 04b3 3E000000 		.4byte	.LVL48
 5170 04b7 0200     		.2byte	0x2
 5171 04b9 91       		.byte	0x91
 5172 04ba 0C       		.sleb128 12
 5173 04bb 3E000000 		.4byte	.LVL48
 5174 04bf 7E000000 		.4byte	.LVL57
 5175 04c3 0200     		.2byte	0x2
 5176 04c5 91       		.byte	0x91
 5177 04c6 0C       		.sleb128 12
 5178 04c7 7E000000 		.4byte	.LVL57
 5179 04cb 8C000000 		.4byte	.LFE869
 5180 04cf 0200     		.2byte	0x2
 5181 04d1 7D       		.byte	0x7d
 5182 04d2 0C       		.sleb128 12
 5183 04d3 00000000 		.4byte	0
 5184 04d7 00000000 		.4byte	0
 5185              	.LLST53:
 5186 04db 18000000 		.4byte	.LVL42
 5187 04df 1A000000 		.4byte	.LVL43
 5188 04e3 0100     		.2byte	0x1
 5189 04e5 50       		.byte	0x50
 5190 04e6 1A000000 		.4byte	.LVL43
 5191 04ea 7E000000 		.4byte	.LVL57
 5192 04ee 0100     		.2byte	0x1
ARM GAS  C:\Users\haske\AppData\Local\Temp\cckhubq2.s 			page 116


 5193 04f0 56       		.byte	0x56
 5194 04f1 00000000 		.4byte	0
 5195 04f5 00000000 		.4byte	0
 5196              		.section	.debug_aranges,"",%progbits
 5197 0000 4C000000 		.4byte	0x4c
 5198 0004 0200     		.2byte	0x2
 5199 0006 00000000 		.4byte	.Ldebug_info0
 5200 000a 04       		.byte	0x4
 5201 000b 00       		.byte	0
 5202 000c 0000     		.2byte	0
 5203 000e 0000     		.2byte	0
 5204 0010 00000000 		.4byte	.LFB864
 5205 0014 3C000000 		.4byte	.LFE864-.LFB864
 5206 0018 00000000 		.4byte	.LFB863
 5207 001c 34000000 		.4byte	.LFE863-.LFB863
 5208 0020 00000000 		.4byte	.LFB865
 5209 0024 AC000000 		.4byte	.LFE865-.LFB865
 5210 0028 00000000 		.4byte	.LFB866
 5211 002c 38000000 		.4byte	.LFE866-.LFB866
 5212 0030 00000000 		.4byte	.LFB867
 5213 0034 66000000 		.4byte	.LFE867-.LFB867
 5214 0038 00000000 		.4byte	.LFB868
 5215 003c 78000000 		.4byte	.LFE868-.LFB868
 5216 0040 00000000 		.4byte	.LFB869
 5217 0044 8C000000 		.4byte	.LFE869-.LFB869
 5218 0048 00000000 		.4byte	0
 5219 004c 00000000 		.4byte	0
 5220              		.section	.debug_ranges,"",%progbits
 5221              	.Ldebug_ranges0:
 5222 0000 00000000 		.4byte	.LFB864
 5223 0004 3C000000 		.4byte	.LFE864
 5224 0008 00000000 		.4byte	.LFB863
 5225 000c 34000000 		.4byte	.LFE863
 5226 0010 00000000 		.4byte	.LFB865
 5227 0014 AC000000 		.4byte	.LFE865
 5228 0018 00000000 		.4byte	.LFB866
 5229 001c 38000000 		.4byte	.LFE866
 5230 0020 00000000 		.4byte	.LFB867
 5231 0024 66000000 		.4byte	.LFE867
 5232 0028 00000000 		.4byte	.LFB868
 5233 002c 78000000 		.4byte	.LFE868
 5234 0030 00000000 		.4byte	.LFB869
 5235 0034 8C000000 		.4byte	.LFE869
 5236 0038 00000000 		.4byte	0
 5237 003c 00000000 		.4byte	0
 5238              		.section	.debug_line,"",%progbits
 5239              	.Ldebug_line0:
 5240 0000 0A060000 		.section	.debug_str,"MS",%progbits,1
 5240      0200DE04 
 5240      00000201 
 5240      FB0E0D00 
 5240      01010101 
 5241              	.LASF111:
 5242 0000 666C6173 		.ascii	"flashCtlMainWs1Freq\000"
 5242      6843746C 
 5242      4D61696E 
 5242      57733146 
ARM GAS  C:\Users\haske\AppData\Local\Temp\cckhubq2.s 			page 117


 5242      72657100 
 5243              	.LASF43:
 5244 0014 5644445F 		.ascii	"VDD_INTR_MASKED\000"
 5244      494E5452 
 5244      5F4D4153 
 5244      4B454400 
 5245              	.LASF445:
 5246 0024 63795F62 		.ascii	"cy_ble_connState\000"
 5246      6C655F63 
 5246      6F6E6E53 
 5246      74617465 
 5246      00
 5247              	.LASF32:
 5248 0035 52455345 		.ascii	"RESERVED\000"
 5248      52564544 
 5248      00
 5249              	.LASF40:
 5250 003e 5644445F 		.ascii	"VDD_ACTIVE\000"
 5250      41435449 
 5250      564500
 5251              	.LASF36:
 5252 0049 494E5452 		.ascii	"INTR_CAUSE0\000"
 5252      5F434155 
 5252      53453000 
 5253              	.LASF37:
 5254 0055 494E5452 		.ascii	"INTR_CAUSE1\000"
 5254      5F434155 
 5254      53453100 
 5255              	.LASF383:
 5256 0061 43595F42 		.ascii	"CY_BLE_EVT_L2CAP_CBFC_DATA_READ\000"
 5256      4C455F45 
 5256      56545F4C 
 5256      32434150 
 5256      5F434246 
 5257              	.LASF440:
 5258 0081 74656E73 		.ascii	"tens_phase_shift\000"
 5258      5F706861 
 5258      73655F73 
 5258      68696674 
 5258      00
 5259              	.LASF232:
 5260 0092 63795F63 		.ascii	"cy_cb_scb_spi_handle_events_t\000"
 5260      625F7363 
 5260      625F7370 
 5260      695F6861 
 5260      6E646C65 
 5261              	.LASF58:
 5262 00b0 434D445F 		.ascii	"CMD_CAPTURE\000"
 5262      43415054 
 5262      55524500 
 5263              	.LASF330:
 5264 00bc 43595F42 		.ascii	"CY_BLE_EVT_GAPP_ADVERTISEMENT_START_STOP\000"
 5264      4C455F45 
 5264      56545F47 
 5264      4150505F 
 5264      41445645 
 5265              	.LASF23:
ARM GAS  C:\Users\haske\AppData\Local\Temp\cckhubq2.s 			page 118


 5266 00e5 4F55545F 		.ascii	"OUT_INV\000"
 5266      494E5600 
 5267              	.LASF442:
 5268 00ed 63795F64 		.ascii	"cy_device\000"
 5268      65766963 
 5268      6500
 5269              	.LASF417:
 5270 00f7 50574D5F 		.ascii	"PWM_TENS2_SetCompare0\000"
 5270      54454E53 
 5270      325F5365 
 5270      74436F6D 
 5270      70617265 
 5271              	.LASF385:
 5272 010d 43595F42 		.ascii	"CY_BLE_EVT_L2CAP_CBFC_TX_CREDIT_IND\000"
 5272      4C455F45 
 5272      56545F4C 
 5272      32434150 
 5272      5F434246 
 5273              	.LASF276:
 5274 0131 43595F42 		.ascii	"CY_BLE_EVT_PENDING_FLASH_WRITE\000"
 5274      4C455F45 
 5274      56545F50 
 5274      454E4449 
 5274      4E475F46 
 5275              	.LASF138:
 5276 0150 63707573 		.ascii	"cpussCm0ClockCtlOffset\000"
 5276      73436D30 
 5276      436C6F63 
 5276      6B43746C 
 5276      4F666673 
 5277              	.LASF97:
 5278 0167 70657269 		.ascii	"periClockNr\000"
 5278      436C6F63 
 5278      6B4E7200 
 5279              	.LASF369:
 5280 0173 43595F42 		.ascii	"CY_BLE_EVT_GATTC_HANDLE_VALUE_NTF\000"
 5280      4C455F45 
 5280      56545F47 
 5280      41545443 
 5280      5F48414E 
 5281              	.LASF432:
 5282 0195 70686173 		.ascii	"phase\000"
 5282      6500
 5283              	.LASF258:
 5284 019b 696E7665 		.ascii	"invertPWMOutN\000"
 5284      72745057 
 5284      4D4F7574 
 5284      4E00
 5285              	.LASF403:
 5286 01a9 43595F42 		.ascii	"CY_BLE_CONN_STATE_CLIENT_DISCOVERED\000"
 5286      4C455F43 
 5286      4F4E4E5F 
 5286      53544154 
 5286      455F434C 
 5287              	.LASF173:
 5288 01cd 63795F65 		.ascii	"cy_en_i2s_overhead_t\000"
 5288      6E5F6932 
ARM GAS  C:\Users\haske\AppData\Local\Temp\cckhubq2.s 			page 119


 5288      735F6F76 
 5288      65726865 
 5288      61645F74 
 5289              	.LASF412:
 5290 01e2 636E744E 		.ascii	"cntNum\000"
 5290      756D00
 5291              	.LASF70:
 5292 01e9 70657269 		.ascii	"periBase\000"
 5292      42617365 
 5292      00
 5293              	.LASF308:
 5294 01f2 43595F42 		.ascii	"CY_BLE_EVT_SET_TX_PWR_COMPLETE\000"
 5294      4C455F45 
 5294      56545F53 
 5294      45545F54 
 5294      585F5057 
 5295              	.LASF272:
 5296 0211 43595F42 		.ascii	"CY_BLE_EVT_STACK_ON\000"
 5296      4C455F45 
 5296      56545F53 
 5296      5441434B 
 5296      5F4F4E00 
 5297              	.LASF297:
 5298 0225 43595F42 		.ascii	"CY_BLE_EVT_GET_PHY_COMPLETE\000"
 5298      4C455F45 
 5298      56545F47 
 5298      45545F50 
 5298      48595F43 
 5299              	.LASF69:
 5300 0241 666C6173 		.ascii	"flashcBase\000"
 5300      68634261 
 5300      736500
 5301              	.LASF146:
 5302 024c 63707573 		.ascii	"cpussCm0NmiCtlOffset\000"
 5302      73436D30 
 5302      4E6D6943 
 5302      746C4F66 
 5302      66736574 
 5303              	.LASF116:
 5304 0261 64774368 		.ascii	"dwChSize\000"
 5304      53697A65 
 5304      00
 5305              	.LASF179:
 5306 026a 7478446D 		.ascii	"txDmaTrigger\000"
 5306      61547269 
 5306      67676572 
 5306      00
 5307              	.LASF384:
 5308 0277 43595F42 		.ascii	"CY_BLE_EVT_L2CAP_CBFC_RX_CREDIT_IND\000"
 5308      4C455F45 
 5308      56545F4C 
 5308      32434150 
 5308      5F434246 
 5309              	.LASF434:
 5310 029b 64757261 		.ascii	"duration_case\000"
 5310      74696F6E 
 5310      5F636173 
ARM GAS  C:\Users\haske\AppData\Local\Temp\cckhubq2.s 			page 120


 5310      6500
 5311              	.LASF2:
 5312 02a9 756E7369 		.ascii	"unsigned int\000"
 5312      676E6564 
 5312      20696E74 
 5312      00
 5313              	.LASF59:
 5314 02b6 434D445F 		.ascii	"CMD_RELOAD\000"
 5314      52454C4F 
 5314      414400
 5315              	.LASF444:
 5316 02c1 63795F62 		.ascii	"cy_ble_connHandle\000"
 5316      6C655F63 
 5316      6F6E6E48 
 5316      616E646C 
 5316      6500
 5317              	.LASF160:
 5318 02d3 43595F49 		.ascii	"CY_I2S_I2S_MODE\000"
 5318      32535F49 
 5318      32535F4D 
 5318      4F444500 
 5319              	.LASF62:
 5320 02e3 494E5452 		.ascii	"INTR_CAUSE\000"
 5320      5F434155 
 5320      534500
 5321              	.LASF98:
 5322 02ee 736D6966 		.ascii	"smifDeviceNr\000"
 5322      44657669 
 5322      63654E72 
 5322      00
 5323              	.LASF214:
 5324 02fb 43595F53 		.ascii	"CY_SAR_RANGE_COND_OUTSIDE\000"
 5324      41525F52 
 5324      414E4745 
 5324      5F434F4E 
 5324      445F4F55 
 5325              	.LASF128:
 5326 0315 70657269 		.ascii	"periDivCmdPaTypeSelPos\000"
 5326      44697643 
 5326      6D645061 
 5326      54797065 
 5326      53656C50 
 5327              	.LASF332:
 5328 032c 43595F42 		.ascii	"CY_BLE_EVT_GAP_DEVICE_DISCONNECTED\000"
 5328      4C455F45 
 5328      56545F47 
 5328      41505F44 
 5328      45564943 
 5329              	.LASF117:
 5330 034f 64774368 		.ascii	"dwChCtlPrioPos\000"
 5330      43746C50 
 5330      72696F50 
 5330      6F7300
 5331              	.LASF265:
 5332 035e 73746172 		.ascii	"startInput\000"
 5332      74496E70 
 5332      757400
ARM GAS  C:\Users\haske\AppData\Local\Temp\cckhubq2.s 			page 121


 5333              	.LASF10:
 5334 0369 5F5F696E 		.ascii	"__int32_t\000"
 5334      7433325F 
 5334      7400
 5335              	.LASF82:
 5336 0373 6770696F 		.ascii	"gpioVersion\000"
 5336      56657273 
 5336      696F6E00 
 5337              	.LASF94:
 5338 037f 73727373 		.ascii	"srssNumClkpath\000"
 5338      4E756D43 
 5338      6C6B7061 
 5338      746800
 5339              	.LASF68:
 5340 038e 63707573 		.ascii	"cpussBase\000"
 5340      73426173 
 5340      6500
 5341              	.LASF405:
 5342 0398 6368616E 		.ascii	"channelBase\000"
 5342      6E656C42 
 5342      61736500 
 5343              	.LASF438:
 5344 03a4 74656E73 		.ascii	"tens_one_dur_us\000"
 5344      5F6F6E65 
 5344      5F647572 
 5344      5F757300 
 5345              	.LASF404:
 5346 03b4 63795F65 		.ascii	"cy_en_ble_conn_state_t\000"
 5346      6E5F626C 
 5346      655F636F 
 5346      6E6E5F73 
 5346      74617465 
 5347              	.LASF289:
 5348 03cb 43595F42 		.ascii	"CY_BLE_EVT_GET_LOCAL_RPA_COMPLETE\000"
 5348      4C455F45 
 5348      56545F47 
 5348      45545F4C 
 5348      4F43414C 
 5349              	.LASF358:
 5350 03ed 43595F42 		.ascii	"CY_BLE_EVT_GATTC_FIND_INFO_RSP\000"
 5350      4C455F45 
 5350      56545F47 
 5350      41545443 
 5350      5F46494E 
 5351              	.LASF92:
 5352 040c 63707573 		.ascii	"cpussFmIrq\000"
 5352      73466D49 
 5352      727100
 5353              	.LASF301:
 5354 0417 43595F42 		.ascii	"CY_BLE_EVT_SET_PRIVACY_MODE_COMPLETE\000"
 5354      4C455F45 
 5354      56545F53 
 5354      45545F50 
 5354      52495641 
 5355              	.LASF407:
 5356 043c 6877436F 		.ascii	"hwConfigStc\000"
 5356      6E666967 
ARM GAS  C:\Users\haske\AppData\Local\Temp\cckhubq2.s 			page 122


 5356      53746300 
 5357              	.LASF122:
 5358 0448 70657269 		.ascii	"periTrCmdGrSelMsk\000"
 5358      5472436D 
 5358      64477253 
 5358      656C4D73 
 5358      6B00
 5359              	.LASF93:
 5360 045a 63707573 		.ascii	"cpussNotConnectedIrq\000"
 5360      734E6F74 
 5360      436F6E6E 
 5360      65637465 
 5360      64497271 
 5361              	.LASF189:
 5362 046f 74785363 		.ascii	"txSckoInversion\000"
 5362      6B6F496E 
 5362      76657273 
 5362      696F6E00 
 5363              	.LASF183:
 5364 047f 74784D61 		.ascii	"txMasterMode\000"
 5364      73746572 
 5364      4D6F6465 
 5364      00
 5365              	.LASF245:
 5366 048c 70776D4D 		.ascii	"pwmMode\000"
 5366      6F646500 
 5367              	.LASF124:
 5368 0494 70657269 		.ascii	"periTrGrSize\000"
 5368      54724772 
 5368      53697A65 
 5368      00
 5369              	.LASF352:
 5370 04a1 43595F42 		.ascii	"CY_BLE_EVT_GATT_CONNECT_IND\000"
 5370      4C455F45 
 5370      56545F47 
 5370      4154545F 
 5370      434F4E4E 
 5371              	.LASF271:
 5372 04bd 43595F42 		.ascii	"CY_BLE_EVT_INVALID\000"
 5372      4C455F45 
 5372      56545F49 
 5372      4E56414C 
 5372      494400
 5373              	.LASF27:
 5374 04d0 494E5452 		.ascii	"INTR_SET\000"
 5374      5F534554 
 5374      00
 5375              	.LASF104:
 5376 04d9 63727970 		.ascii	"cryptoMemSize\000"
 5376      746F4D65 
 5376      6D53697A 
 5376      6500
 5377              	.LASF419:
 5378 04e7 50574D5F 		.ascii	"PWM_TENS2_GetCompare0\000"
 5378      54454E53 
 5378      325F4765 
 5378      74436F6D 
ARM GAS  C:\Users\haske\AppData\Local\Temp\cckhubq2.s 			page 123


 5378      70617265 
 5379              	.LASF225:
 5380 04fd 73617449 		.ascii	"satIntrMask\000"
 5380      6E74724D 
 5380      61736B00 
 5381              	.LASF150:
 5382 0509 63707573 		.ascii	"cpussRam1Ctl0\000"
 5382      7352616D 
 5382      3143746C 
 5382      3000
 5383              	.LASF359:
 5384 0517 43595F42 		.ascii	"CY_BLE_EVT_GATTC_FIND_BY_TYPE_VALUE_RSP\000"
 5384      4C455F45 
 5384      56545F47 
 5384      41545443 
 5384      5F46494E 
 5385              	.LASF152:
 5386 053f 69706353 		.ascii	"ipcStructSize\000"
 5386      74727563 
 5386      7453697A 
 5386      6500
 5387              	.LASF299:
 5388 054d 43595F42 		.ascii	"CY_BLE_EVT_SET_PHY_COMPLETE\000"
 5388      4C455F45 
 5388      56545F53 
 5388      45545F50 
 5388      48595F43 
 5389              	.LASF374:
 5390 0569 43595F42 		.ascii	"CY_BLE_EVT_GATTS_READ_CHAR_VAL_ACCESS_REQ\000"
 5390      4C455F45 
 5390      56545F47 
 5390      41545453 
 5390      5F524541 
 5391              	.LASF253:
 5392 0593 636F6D70 		.ascii	"compare0\000"
 5392      61726530 
 5392      00
 5393              	.LASF254:
 5394 059c 636F6D70 		.ascii	"compare1\000"
 5394      61726531 
 5394      00
 5395              	.LASF460:
 5396 05a5 474E5520 		.ascii	"GNU C11 5.4.1 20160609 (release) [ARM/embedded-5-br"
 5396      43313120 
 5396      352E342E 
 5396      31203230 
 5396      31363036 
 5397 05d8 616E6368 		.ascii	"anch revision 237715] -mcpu=cortex-m4 -mfloat-abi=s"
 5397      20726576 
 5397      6973696F 
 5397      6E203233 
 5397      37373135 
 5398 060b 6F667466 		.ascii	"oftfp -mfpu=fpv4-sp-d16 -mthumb -g -Og -ffunction-s"
 5398      70202D6D 
 5398      6670753D 
 5398      66707634 
 5398      2D73702D 
ARM GAS  C:\Users\haske\AppData\Local\Temp\cckhubq2.s 			page 124


 5399 063e 65637469 		.ascii	"ections -ffat-lto-objects\000"
 5399      6F6E7320 
 5399      2D666661 
 5399      742D6C74 
 5399      6F2D6F62 
 5400              	.LASF345:
 5401 0658 43595F42 		.ascii	"CY_BLE_EVT_GAP_RESOLVE_DEVICE_COMPLETE\000"
 5401      4C455F45 
 5401      56545F47 
 5401      41505F52 
 5401      45534F4C 
 5402              	.LASF211:
 5403 067f 43595F53 		.ascii	"CY_SAR_RANGE_COND_BELOW\000"
 5403      41525F52 
 5403      414E4745 
 5403      5F434F4E 
 5403      445F4245 
 5404              	.LASF397:
 5405 0697 43595F42 		.ascii	"CY_BLE_CONN_STATE_CLIENT_DISCONNECTED_DISCOVERED\000"
 5405      4C455F43 
 5405      4F4E4E5F 
 5405      53544154 
 5405      455F434C 
 5406              	.LASF244:
 5407 06c8 63795F73 		.ascii	"cy_stc_tcpwm_pwm_config\000"
 5407      74635F74 
 5407      6370776D 
 5407      5F70776D 
 5407      5F636F6E 
 5408              	.LASF198:
 5409 06e0 72785773 		.ascii	"rxWsPulseWidth\000"
 5409      50756C73 
 5409      65576964 
 5409      746800
 5410              	.LASF126:
 5411 06ef 70657269 		.ascii	"periDivCmdTypeSelPos\000"
 5411      44697643 
 5411      6D645479 
 5411      70655365 
 5411      6C506F73 
 5412              	.LASF143:
 5413 0704 63707573 		.ascii	"cpussTrimRamCtlOffset\000"
 5413      73547269 
 5413      6D52616D 
 5413      43746C4F 
 5413      66667365 
 5414              	.LASF355:
 5415 071a 43595F42 		.ascii	"CY_BLE_EVT_GATTC_XCHNG_MTU_RSP\000"
 5415      4C455F45 
 5415      56545F47 
 5415      41545443 
 5415      5F584348 
 5416              	.LASF371:
 5417 0739 43595F42 		.ascii	"CY_BLE_EVT_GATTS_HANDLE_VALUE_CNF\000"
 5417      4C455F45 
 5417      56545F47 
 5417      41545453 
ARM GAS  C:\Users\haske\AppData\Local\Temp\cckhubq2.s 			page 125


 5417      5F48414E 
 5418              	.LASF29:
 5419 075b 4346475F 		.ascii	"CFG_IN\000"
 5419      494E00
 5420              	.LASF300:
 5421 0762 43595F42 		.ascii	"CY_BLE_EVT_PHY_UPDATE_COMPLETE\000"
 5421      4C455F45 
 5421      56545F50 
 5421      48595F55 
 5421      50444154 
 5422              	.LASF201:
 5423 0781 72785364 		.ascii	"rxSdiLatchingTime\000"
 5423      694C6174 
 5423      6368696E 
 5423      6754696D 
 5423      6500
 5424              	.LASF455:
 5425 0793 50574D5F 		.ascii	"PWM_FAN_config\000"
 5425      46414E5F 
 5425      636F6E66 
 5425      696700
 5426              	.LASF360:
 5427 07a2 43595F42 		.ascii	"CY_BLE_EVT_GATTC_READ_RSP\000"
 5427      4C455F45 
 5427      56545F47 
 5427      41545443 
 5427      5F524541 
 5428              	.LASF204:
 5429 07bc 72784368 		.ascii	"rxChannels\000"
 5429      616E6E65 
 5429      6C7300
 5430              	.LASF448:
 5431 07c7 4932535F 		.ascii	"I2S_config\000"
 5431      636F6E66 
 5431      696700
 5432              	.LASF186:
 5433 07d2 74785761 		.ascii	"txWatchdogEnable\000"
 5433      74636864 
 5433      6F67456E 
 5433      61626C65 
 5433      00
 5434              	.LASF63:
 5435 07e3 54435057 		.ascii	"TCPWM_V1_Type\000"
 5435      4D5F5631 
 5435      5F547970 
 5435      6500
 5436              	.LASF256:
 5437 07f1 696E7465 		.ascii	"interruptSources\000"
 5437      72727570 
 5437      74536F75 
 5437      72636573 
 5437      00
 5438              	.LASF361:
 5439 0802 43595F42 		.ascii	"CY_BLE_EVT_GATTC_READ_BLOB_RSP\000"
 5439      4C455F45 
 5439      56545F47 
 5439      41545443 
ARM GAS  C:\Users\haske\AppData\Local\Temp\cckhubq2.s 			page 126


 5439      5F524541 
 5440              	.LASF19:
 5441 0821 75696E74 		.ascii	"uint32_t\000"
 5441      33325F74 
 5441      00
 5442              	.LASF208:
 5443 082a 72784669 		.ascii	"rxFifoTriggerLevel\000"
 5443      666F5472 
 5443      69676765 
 5443      724C6576 
 5443      656C00
 5444              	.LASF45:
 5445 083d 4750494F 		.ascii	"GPIO_V1_Type\000"
 5445      5F56315F 
 5445      54797065 
 5445      00
 5446              	.LASF302:
 5447 084a 43595F42 		.ascii	"CY_BLE_EVT_LL_CNTRL_PROC_PENDING_COMPLETE\000"
 5447      4C455F45 
 5447      56545F4C 
 5447      4C5F434E 
 5447      54524C5F 
 5448              	.LASF136:
 5449 0874 6770696F 		.ascii	"gpioPrtCfgOutOffset\000"
 5449      50727443 
 5449      66674F75 
 5449      744F6666 
 5449      73657400 
 5450              	.LASF380:
 5451 0888 43595F42 		.ascii	"CY_BLE_EVT_L2CAP_CBFC_CONN_CNF\000"
 5451      4C455F45 
 5451      56545F4C 
 5451      32434150 
 5451      5F434246 
 5452              	.LASF288:
 5453 08a7 43595F42 		.ascii	"CY_BLE_EVT_GET_PEER_RPA_COMPLETE\000"
 5453      4C455F45 
 5453      56545F47 
 5453      45545F50 
 5453      4545525F 
 5454              	.LASF158:
 5455 08c8 696E7433 		.ascii	"int32\000"
 5455      3200
 5456              	.LASF210:
 5457 08ce 63795F73 		.ascii	"cy_stc_i2s_config_t\000"
 5457      74635F69 
 5457      32735F63 
 5457      6F6E6669 
 5457      675F7400 
 5458              	.LASF79:
 5459 08e2 63727970 		.ascii	"cryptoVersion\000"
 5459      746F5665 
 5459      7273696F 
 5459      6E00
 5460              	.LASF100:
 5461 08f0 65704D6F 		.ascii	"epMonitorNr\000"
 5461      6E69746F 
ARM GAS  C:\Users\haske\AppData\Local\Temp\cckhubq2.s 			page 127


 5461      724E7200 
 5462              	.LASF411:
 5463 08fc 62617365 		.ascii	"base\000"
 5463      00
 5464              	.LASF60:
 5465 0901 434D445F 		.ascii	"CMD_STOP\000"
 5465      53544F50 
 5465      00
 5466              	.LASF21:
 5467 090a 4F55545F 		.ascii	"OUT_CLR\000"
 5467      434C5200 
 5468              	.LASF426:
 5469 0912 64757261 		.ascii	"duration\000"
 5469      74696F6E 
 5469      00
 5470              	.LASF263:
 5471 091b 72656C6F 		.ascii	"reloadInput\000"
 5471      6164496E 
 5471      70757400 
 5472              	.LASF16:
 5473 0927 696E7431 		.ascii	"int16_t\000"
 5473      365F7400 
 5474              	.LASF174:
 5475 092f 43595F49 		.ascii	"CY_I2S_WS_ONE_SCK_CYCLE\000"
 5475      32535F57 
 5475      535F4F4E 
 5475      455F5343 
 5475      4B5F4359 
 5476              	.LASF135:
 5477 0947 6770696F 		.ascii	"gpioPrtCfgInOffset\000"
 5477      50727443 
 5477      6667496E 
 5477      4F666673 
 5477      657400
 5478              	.LASF406:
 5479 095a 6E756D43 		.ascii	"numChannels\000"
 5479      68616E6E 
 5479      656C7300 
 5480              	.LASF340:
 5481 0966 43595F42 		.ascii	"CY_BLE_EVT_GAP_ENHANCE_CONN_COMPLETE\000"
 5481      4C455F45 
 5481      56545F47 
 5481      41505F45 
 5481      4E48414E 
 5482              	.LASF1:
 5483 098b 6C6F6E67 		.ascii	"long long unsigned int\000"
 5483      206C6F6E 
 5483      6720756E 
 5483      7369676E 
 5483      65642069 
 5484              	.LASF132:
 5485 09a2 70657269 		.ascii	"periDiv24_5CtlOffset\000"
 5485      44697632 
 5485      345F3543 
 5485      746C4F66 
 5485      66736574 
 5486              	.LASF137:
ARM GAS  C:\Users\haske\AppData\Local\Temp\cckhubq2.s 			page 128


 5487 09b7 6770696F 		.ascii	"gpioPrtCfgSioOffset\000"
 5487      50727443 
 5487      66675369 
 5487      6F4F6666 
 5487      73657400 
 5488              	.LASF414:
 5489 09cb 43795F47 		.ascii	"Cy_GPIO_Write\000"
 5489      50494F5F 
 5489      57726974 
 5489      6500
 5490              	.LASF395:
 5491 09d9 63795F65 		.ascii	"cy_en_ble_adv_state_t\000"
 5491      6E5F626C 
 5491      655F6164 
 5491      765F7374 
 5491      6174655F 
 5492              	.LASF306:
 5493 09ef 43595F42 		.ascii	"CY_BLE_EVT_GET_RSSI_COMPLETE\000"
 5493      4C455F45 
 5493      56545F47 
 5493      45545F52 
 5493      5353495F 
 5494              	.LASF91:
 5495 0a0c 63707573 		.ascii	"cpussIpc0Irq\000"
 5495      73497063 
 5495      30497271 
 5495      00
 5496              	.LASF202:
 5497 0a19 72785363 		.ascii	"rxSckoInversion\000"
 5497      6B6F496E 
 5497      76657273 
 5497      696F6E00 
 5498              	.LASF250:
 5499 0a29 70657269 		.ascii	"period0\000"
 5499      6F643000 
 5500              	.LASF251:
 5501 0a31 70657269 		.ascii	"period1\000"
 5501      6F643100 
 5502              	.LASF220:
 5503 0a39 72616E67 		.ascii	"rangeThres\000"
 5503      65546872 
 5503      657300
 5504              	.LASF392:
 5505 0a44 43595F42 		.ascii	"CY_BLE_ADV_STATE_ADV_INITIATED\000"
 5505      4C455F41 
 5505      44565F53 
 5505      54415445 
 5505      5F414456 
 5506              	.LASF71:
 5507 0a63 75646242 		.ascii	"udbBase\000"
 5507      61736500 
 5508              	.LASF418:
 5509 0a6b 50574D5F 		.ascii	"PWM_TENS_SetCompare0\000"
 5509      54454E53 
 5509      5F536574 
 5509      436F6D70 
 5509      61726530 
ARM GAS  C:\Users\haske\AppData\Local\Temp\cckhubq2.s 			page 129


 5510              	.LASF165:
 5511 0a80 43595F49 		.ascii	"CY_I2S_LEN16\000"
 5511      32535F4C 
 5511      454E3136 
 5511      00
 5512              	.LASF212:
 5513 0a8d 43595F53 		.ascii	"CY_SAR_RANGE_COND_INSIDE\000"
 5513      41525F52 
 5513      414E4745 
 5513      5F434F4E 
 5513      445F494E 
 5514              	.LASF166:
 5515 0aa6 43595F49 		.ascii	"CY_I2S_LEN18\000"
 5515      32535F4C 
 5515      454E3138 
 5515      00
 5516              	.LASF127:
 5517 0ab3 70657269 		.ascii	"periDivCmdPaDivSelPos\000"
 5517      44697643 
 5517      6D645061 
 5517      44697653 
 5517      656C506F 
 5518              	.LASF304:
 5519 0ac9 43595F42 		.ascii	"CY_BLE_EVT_SET_DEVICE_ADDR_COMPLETE\000"
 5519      4C455F45 
 5519      56545F53 
 5519      45545F44 
 5519      45564943 
 5520              	.LASF231:
 5521 0aed 63795F73 		.ascii	"cy_stc_sar_config_t\000"
 5521      74635F73 
 5521      61725F63 
 5521      6F6E6669 
 5521      675F7400 
 5522              	.LASF389:
 5523 0b01 61747449 		.ascii	"attId\000"
 5523      6400
 5524              	.LASF436:
 5525 0b07 74656E73 		.ascii	"tens_full_timeout\000"
 5525      5F66756C 
 5525      6C5F7469 
 5525      6D656F75 
 5525      7400
 5526              	.LASF264:
 5527 0b19 73746172 		.ascii	"startInputMode\000"
 5527      74496E70 
 5527      75744D6F 
 5527      646500
 5528              	.LASF400:
 5529 0b28 43595F42 		.ascii	"CY_BLE_CONN_STATE_CLIENT_INCL_DISCOVERING\000"
 5529      4C455F43 
 5529      4F4E4E5F 
 5529      53544154 
 5529      455F434C 
 5530              	.LASF325:
 5531 0b52 43595F42 		.ascii	"CY_BLE_EVT_GAP_AUTH_REQ\000"
 5531      4C455F45 
ARM GAS  C:\Users\haske\AppData\Local\Temp\cckhubq2.s 			page 130


 5531      56545F47 
 5531      41505F41 
 5531      5554485F 
 5532              	.LASF125:
 5533 0b6a 70657269 		.ascii	"periDivCmdDivSelMsk\000"
 5533      44697643 
 5533      6D644469 
 5533      7653656C 
 5533      4D736B00 
 5534              	.LASF339:
 5535 0b7e 43595F42 		.ascii	"CY_BLE_EVT_GAP_OOB_GENERATED_NOTIFICATION\000"
 5535      4C455F45 
 5535      56545F47 
 5535      41505F4F 
 5535      4F425F47 
 5536              	.LASF416:
 5537 0ba8 76616C75 		.ascii	"value\000"
 5537      6500
 5538              	.LASF192:
 5539 0bae 74784368 		.ascii	"txChannelLength\000"
 5539      616E6E65 
 5539      6C4C656E 
 5539      67746800 
 5540              	.LASF30:
 5541 0bbe 4346475F 		.ascii	"CFG_OUT\000"
 5541      4F555400 
 5542              	.LASF234:
 5543 0bc6 72784275 		.ascii	"rxBuf\000"
 5543      6600
 5544              	.LASF435:
 5545 0bcc 74656E73 		.ascii	"tens_timeout\000"
 5545      5F74696D 
 5545      656F7574 
 5545      00
 5546              	.LASF180:
 5547 0bd9 7278446D 		.ascii	"rxDmaTrigger\000"
 5547      61547269 
 5547      67676572 
 5547      00
 5548              	.LASF464:
 5549 0be6 7365745F 		.ascii	"set_channel_one\000"
 5549      6368616E 
 5549      6E656C5F 
 5549      6F6E6500 
 5550              	.LASF113:
 5551 0bf6 666C6173 		.ascii	"flashCtlMainWs3Freq\000"
 5551      6843746C 
 5551      4D61696E 
 5551      57733346 
 5551      72657100 
 5552              	.LASF456:
 5553 0c0a 50574D5F 		.ascii	"PWM_PEL1_config\000"
 5553      50454C31 
 5553      5F636F6E 
 5553      66696700 
 5554              	.LASF95:
 5555 0c1a 73727373 		.ascii	"srssNumPll\000"
ARM GAS  C:\Users\haske\AppData\Local\Temp\cckhubq2.s 			page 131


 5555      4E756D50 
 5555      6C6C00
 5556              	.LASF303:
 5557 0c25 43595F42 		.ascii	"CY_BLE_EVT_SOFT_RESET_COMPLETE\000"
 5557      4C455F45 
 5557      56545F53 
 5557      4F46545F 
 5557      52455345 
 5558              	.LASF22:
 5559 0c44 4F55545F 		.ascii	"OUT_SET\000"
 5559      53455400 
 5560              	.LASF366:
 5561 0c4c 43595F42 		.ascii	"CY_BLE_EVT_GATTS_PREP_WRITE_REQ\000"
 5561      4C455F45 
 5561      56545F47 
 5561      41545453 
 5561      5F505245 
 5562              	.LASF458:
 5563 0c6c 6D797072 		.ascii	"myprintf\000"
 5563      696E7466 
 5563      00
 5564              	.LASF219:
 5565 0c75 73616D70 		.ascii	"sampleTime23\000"
 5565      6C655469 
 5565      6D653233 
 5565      00
 5566              	.LASF106:
 5567 0c82 666C6173 		.ascii	"flashPipeRequired\000"
 5567      68506970 
 5567      65526571 
 5567      75697265 
 5567      6400
 5568              	.LASF240:
 5569 0c94 63624576 		.ascii	"cbEvents\000"
 5569      656E7473 
 5569      00
 5570              	.LASF167:
 5571 0c9d 43595F49 		.ascii	"CY_I2S_LEN20\000"
 5571      32535F4C 
 5571      454E3230 
 5571      00
 5572              	.LASF0:
 5573 0caa 646F7562 		.ascii	"double\000"
 5573      6C6500
 5574              	.LASF168:
 5575 0cb1 43595F49 		.ascii	"CY_I2S_LEN24\000"
 5575      32535F4C 
 5575      454E3234 
 5575      00
 5576              	.LASF209:
 5577 0cbe 5F426F6F 		.ascii	"_Bool\000"
 5577      6C00
 5578              	.LASF238:
 5579 0cc4 74784275 		.ascii	"txBufSize\000"
 5579      6653697A 
 5579      6500
 5580              	.LASF387:
ARM GAS  C:\Users\haske\AppData\Local\Temp\cckhubq2.s 			page 132


 5581 0cce 43595F42 		.ascii	"CY_BLE_EVT_MAX\000"
 5581      4C455F45 
 5581      56545F4D 
 5581      415800
 5582              	.LASF110:
 5583 0cdd 666C6173 		.ascii	"flashCtlMainWs0Freq\000"
 5583      6843746C 
 5583      4D61696E 
 5583      57733046 
 5583      72657100 
 5584              	.LASF382:
 5585 0cf1 43595F42 		.ascii	"CY_BLE_EVT_L2CAP_CBFC_DISCONN_CNF\000"
 5585      4C455F45 
 5585      56545F4C 
 5585      32434150 
 5585      5F434246 
 5586              	.LASF41:
 5587 0d13 5644445F 		.ascii	"VDD_INTR\000"
 5587      494E5452 
 5587      00
 5588              	.LASF311:
 5589 0d1c 43595F42 		.ascii	"CY_BLE_EVT_RANDOM_NUM_GEN_COMPLETE\000"
 5589      4C455F45 
 5589      56545F52 
 5589      414E444F 
 5589      4D5F4E55 
 5590              	.LASF74:
 5591 0d3f 6770696F 		.ascii	"gpioBase\000"
 5591      42617365 
 5591      00
 5592              	.LASF393:
 5593 0d48 43595F42 		.ascii	"CY_BLE_ADV_STATE_ADVERTISING\000"
 5593      4C455F41 
 5593      44565F53 
 5593      54415445 
 5593      5F414456 
 5594              	.LASF342:
 5595 0d65 43595F42 		.ascii	"CY_BLE_EVT_GAP_SMP_NEGOTIATED_AUTH_INFO\000"
 5595      4C455F45 
 5595      56545F47 
 5595      41505F53 
 5595      4D505F4E 
 5596              	.LASF423:
 5597 0d8d 7365745F 		.ascii	"set_tens_freq\000"
 5597      74656E73 
 5597      5F667265 
 5597      7100
 5598              	.LASF284:
 5599 0d9b 43595F42 		.ascii	"CY_BLE_EVT_SET_DATA_LENGTH_COMPLETE\000"
 5599      4C455F45 
 5599      56545F53 
 5599      45545F44 
 5599      4154415F 
 5600              	.LASF247:
 5601 0dbf 70776D41 		.ascii	"pwmAlignment\000"
 5601      6C69676E 
 5601      6D656E74 
ARM GAS  C:\Users\haske\AppData\Local\Temp\cckhubq2.s 			page 133


 5601      00
 5602              	.LASF364:
 5603 0dcc 43595F42 		.ascii	"CY_BLE_EVT_GATTC_WRITE_RSP\000"
 5603      4C455F45 
 5603      56545F47 
 5603      41545443 
 5603      5F575249 
 5604              	.LASF171:
 5605 0de7 43595F49 		.ascii	"CY_I2S_OVHDATA_ZERO\000"
 5605      32535F4F 
 5605      56484441 
 5605      54415F5A 
 5605      45524F00 
 5606              	.LASF86:
 5607 0dfb 70726F74 		.ascii	"protVersion\000"
 5607      56657273 
 5607      696F6E00 
 5608              	.LASF107:
 5609 0e07 666C6173 		.ascii	"flashWriteDelay\000"
 5609      68577269 
 5609      74654465 
 5609      6C617900 
 5610              	.LASF80:
 5611 0e17 64775665 		.ascii	"dwVersion\000"
 5611      7273696F 
 5611      6E00
 5612              	.LASF274:
 5613 0e21 43595F42 		.ascii	"CY_BLE_EVT_STACK_BUSY_STATUS\000"
 5613      4C455F45 
 5613      56545F53 
 5613      5441434B 
 5613      5F425553 
 5614              	.LASF101:
 5615 0e3e 75646250 		.ascii	"udbPresent\000"
 5615      72657365 
 5615      6E7400
 5616              	.LASF64:
 5617 0e49 4750494F 		.ascii	"GPIO_PRT_Type\000"
 5617      5F505254 
 5617      5F547970 
 5617      6500
 5618              	.LASF281:
 5619 0e57 43595F42 		.ascii	"CY_BLE_EVT_GET_CHANNEL_MAP_COMPLETE\000"
 5619      4C455F45 
 5619      56545F47 
 5619      45545F43 
 5619      48414E4E 
 5620              	.LASF420:
 5621 0e7b 50574D5F 		.ascii	"PWM_TENS_GetCompare0\000"
 5621      54454E53 
 5621      5F476574 
 5621      436F6D70 
 5621      61726530 
 5622              	.LASF119:
 5623 0e90 64775374 		.ascii	"dwStatusChIdxPos\000"
 5623      61747573 
 5623      43684964 
ARM GAS  C:\Users\haske\AppData\Local\Temp\cckhubq2.s 			page 134


 5623      78506F73 
 5623      00
 5624              	.LASF8:
 5625 0ea1 5F5F7569 		.ascii	"__uint16_t\000"
 5625      6E743136 
 5625      5F7400
 5626              	.LASF25:
 5627 0eac 494E5452 		.ascii	"INTR_MASK\000"
 5627      5F4D4153 
 5627      4B00
 5628              	.LASF275:
 5629 0eb6 43595F42 		.ascii	"CY_BLE_EVT_MEMORY_REQUEST\000"
 5629      4C455F45 
 5629      56545F4D 
 5629      454D4F52 
 5629      595F5245 
 5630              	.LASF230:
 5631 0ed0 76726566 		.ascii	"vrefMvValue\000"
 5631      4D765661 
 5631      6C756500 
 5632              	.LASF77:
 5633 0edc 63727970 		.ascii	"cryptoBase\000"
 5633      746F4261 
 5633      736500
 5634              	.LASF322:
 5635 0ee7 43595F42 		.ascii	"CY_BLE_EVT_SET_CONN_PRIORITY_COMPLETE\000"
 5635      4C455F45 
 5635      56545F53 
 5635      45545F43 
 5635      4F4E4E5F 
 5636              	.LASF331:
 5637 0f0d 43595F42 		.ascii	"CY_BLE_EVT_GAP_DEVICE_CONNECTED\000"
 5637      4C455F45 
 5637      56545F47 
 5637      41505F44 
 5637      45564943 
 5638              	.LASF169:
 5639 0f2d 43595F49 		.ascii	"CY_I2S_LEN32\000"
 5639      32535F4C 
 5639      454E3332 
 5639      00
 5640              	.LASF394:
 5641 0f3a 43595F42 		.ascii	"CY_BLE_ADV_STATE_STOP_INITIATED\000"
 5641      4C455F41 
 5641      44565F53 
 5641      54415445 
 5641      5F53544F 
 5642              	.LASF90:
 5643 0f5a 63707573 		.ascii	"cpussFlashPaSize\000"
 5643      73466C61 
 5643      73685061 
 5643      53697A65 
 5643      00
 5644              	.LASF401:
 5645 0f6b 43595F42 		.ascii	"CY_BLE_CONN_STATE_CLIENT_CHAR_DISCOVERING\000"
 5645      4C455F43 
 5645      4F4E4E5F 
ARM GAS  C:\Users\haske\AppData\Local\Temp\cckhubq2.s 			page 135


 5645      53544154 
 5645      455F434C 
 5646              	.LASF50:
 5647 0f95 50455249 		.ascii	"PERIOD\000"
 5647      4F4400
 5648              	.LASF213:
 5649 0f9c 43595F53 		.ascii	"CY_SAR_RANGE_COND_ABOVE\000"
 5649      41525F52 
 5649      414E4745 
 5649      5F434F4E 
 5649      445F4142 
 5650              	.LASF156:
 5651 0fb4 63686172 		.ascii	"char\000"
 5651      00
 5652              	.LASF57:
 5653 0fb9 4354524C 		.ascii	"CTRL_SET\000"
 5653      5F534554 
 5653      00
 5654              	.LASF313:
 5655 0fc2 43595F42 		.ascii	"CY_BLE_EVT_AES_CCM_ENCRYPT_COMPLETE\000"
 5655      4C455F45 
 5655      56545F41 
 5655      45535F43 
 5655      434D5F45 
 5656              	.LASF335:
 5657 0fe6 43595F42 		.ascii	"CY_BLE_EVT_GAPC_SCAN_START_STOP\000"
 5657      4C455F45 
 5657      56545F47 
 5657      4150435F 
 5657      5343414E 
 5658              	.LASF437:
 5659 1006 74656E73 		.ascii	"tens_interval_ms\000"
 5659      5F696E74 
 5659      65727661 
 5659      6C5F6D73 
 5659      00
 5660              	.LASF222:
 5661 1017 6368616E 		.ascii	"chanEn\000"
 5661      456E00
 5662              	.LASF363:
 5663 101e 43595F42 		.ascii	"CY_BLE_EVT_GATTS_WRITE_REQ\000"
 5663      4C455F45 
 5663      56545F47 
 5663      41545453 
 5663      5F575249 
 5664              	.LASF197:
 5665 1039 7278416C 		.ascii	"rxAlignment\000"
 5665      69676E6D 
 5665      656E7400 
 5666              	.LASF170:
 5667 1045 63795F65 		.ascii	"cy_en_i2s_len_t\000"
 5667      6E5F6932 
 5667      735F6C65 
 5667      6E5F7400 
 5668              	.LASF205:
 5669 1055 72784368 		.ascii	"rxChannelLength\000"
 5669      616E6E65 
ARM GAS  C:\Users\haske\AppData\Local\Temp\cckhubq2.s 			page 136


 5669      6C4C656E 
 5669      67746800 
 5670              	.LASF102:
 5671 1065 73797350 		.ascii	"sysPmSimoPresent\000"
 5671      6D53696D 
 5671      6F507265 
 5671      73656E74 
 5671      00
 5672              	.LASF357:
 5673 1076 43595F42 		.ascii	"CY_BLE_EVT_GATTC_READ_BY_TYPE_RSP\000"
 5673      4C455F45 
 5673      56545F47 
 5673      41545443 
 5673      5F524541 
 5674              	.LASF246:
 5675 1098 636C6F63 		.ascii	"clockPrescaler\000"
 5675      6B507265 
 5675      7363616C 
 5675      657200
 5676              	.LASF292:
 5677 10a7 43595F42 		.ascii	"CY_BLE_EVT_SET_HOST_CHANNEL_COMPLETE\000"
 5677      4C455F45 
 5677      56545F53 
 5677      45545F48 
 5677      4F53545F 
 5678              	.LASF159:
 5679 10cc 43595F49 		.ascii	"CY_I2S_LEFT_JUSTIFIED\000"
 5679      32535F4C 
 5679      4546545F 
 5679      4A555354 
 5679      49464945 
 5680              	.LASF282:
 5681 10e2 43595F42 		.ascii	"CY_BLE_EVT_LE_SET_EVENT_MASK_COMPLETE\000"
 5681      4C455F45 
 5681      56545F4C 
 5681      455F5345 
 5681      545F4556 
 5682              	.LASF236:
 5683 1108 72784275 		.ascii	"rxBufIdx\000"
 5683      66496478 
 5683      00
 5684              	.LASF337:
 5685 1111 43595F42 		.ascii	"CY_BLE_EVT_GAP_NUMERIC_COMPARISON_REQUEST\000"
 5685      4C455F45 
 5685      56545F47 
 5685      41505F4E 
 5685      554D4552 
 5686              	.LASF241:
 5687 113b 696E6974 		.ascii	"initKey\000"
 5687      4B657900 
 5688              	.LASF120:
 5689 1143 64775374 		.ascii	"dwStatusChIdxMsk\000"
 5689      61747573 
 5689      43684964 
 5689      784D736B 
 5689      00
 5690              	.LASF421:
ARM GAS  C:\Users\haske\AppData\Local\Temp\cckhubq2.s 			page 137


 5691 1154 74656E73 		.ascii	"tens_timer\000"
 5691      5F74696D 
 5691      657200
 5692              	.LASF15:
 5693 115f 75696E74 		.ascii	"uint8_t\000"
 5693      385F7400 
 5694              	.LASF233:
 5695 1167 73746174 		.ascii	"status\000"
 5695      757300
 5696              	.LASF449:
 5697 116e 4932535F 		.ascii	"I2S_initVar\000"
 5697      696E6974 
 5697      56617200 
 5698              	.LASF162:
 5699 117a 43595F49 		.ascii	"CY_I2S_TDM_MODE_B\000"
 5699      32535F54 
 5699      444D5F4D 
 5699      4F44455F 
 5699      4200
 5700              	.LASF182:
 5701 118c 65787443 		.ascii	"extClk\000"
 5701      6C6B00
 5702              	.LASF38:
 5703 1193 494E5452 		.ascii	"INTR_CAUSE2\000"
 5703      5F434155 
 5703      53453200 
 5704              	.LASF39:
 5705 119f 494E5452 		.ascii	"INTR_CAUSE3\000"
 5705      5F434155 
 5705      53453300 
 5706              	.LASF328:
 5707 11ab 43595F42 		.ascii	"CY_BLE_EVT_GAP_AUTH_COMPLETE\000"
 5707      4C455F45 
 5707      56545F47 
 5707      41505F41 
 5707      5554485F 
 5708              	.LASF430:
 5709 11c8 7365745F 		.ascii	"set_tens_signal\000"
 5709      74656E73 
 5709      5F736967 
 5709      6E616C00 
 5710              	.LASF298:
 5711 11d8 43595F42 		.ascii	"CY_BLE_EVT_SET_DEFAULT_PHY_COMPLETE\000"
 5711      4C455F45 
 5711      56545F53 
 5711      45545F44 
 5711      45464155 
 5712              	.LASF228:
 5713 11fc 6D757853 		.ascii	"muxSwitchSqCtrl\000"
 5713      77697463 
 5713      68537143 
 5713      74726C00 
 5714              	.LASF443:
 5715 120c 63795F62 		.ascii	"cy_ble_advState\000"
 5715      6C655F61 
 5715      64765374 
 5715      61746500 
ARM GAS  C:\Users\haske\AppData\Local\Temp\cckhubq2.s 			page 138


 5716              	.LASF187:
 5717 121c 74785761 		.ascii	"txWatchdogValue\000"
 5717      74636864 
 5717      6F675661 
 5717      6C756500 
 5718              	.LASF221:
 5719 122c 72616E67 		.ascii	"rangeCond\000"
 5719      65436F6E 
 5719      6400
 5720              	.LASF321:
 5721 1236 43595F42 		.ascii	"CY_BLE_EVT_SET_CE_LENGTH_COMPLETE\000"
 5721      4C455F45 
 5721      56545F53 
 5721      45545F43 
 5721      455F4C45 
 5722              	.LASF320:
 5723 1258 43595F42 		.ascii	"CY_BLE_EVT_SET_EVENT_MASK_COMPLETE\000"
 5723      4C455F45 
 5723      56545F53 
 5723      45545F45 
 5723      56454E54 
 5724              	.LASF149:
 5725 127b 63707573 		.ascii	"cpussRam0Ctl0\000"
 5725      7352616D 
 5725      3043746C 
 5725      3000
 5726              	.LASF66:
 5727 1289 54435057 		.ascii	"TCPWM_Type\000"
 5727      4D5F5479 
 5727      706500
 5728              	.LASF14:
 5729 1294 6C6F6E67 		.ascii	"long long int\000"
 5729      206C6F6E 
 5729      6720696E 
 5729      7400
 5730              	.LASF76:
 5731 12a2 69706342 		.ascii	"ipcBase\000"
 5731      61736500 
 5732              	.LASF56:
 5733 12aa 4354524C 		.ascii	"CTRL_CLR\000"
 5733      5F434C52 
 5733      00
 5734              	.LASF252:
 5735 12b3 656E6162 		.ascii	"enablePeriodSwap\000"
 5735      6C655065 
 5735      72696F64 
 5735      53776170 
 5735      00
 5736              	.LASF248:
 5737 12c4 64656164 		.ascii	"deadTimeClocks\000"
 5737      54696D65 
 5737      436C6F63 
 5737      6B7300
 5738              	.LASF181:
 5739 12d3 636C6B44 		.ascii	"clkDiv\000"
 5739      697600
 5740              	.LASF177:
ARM GAS  C:\Users\haske\AppData\Local\Temp\cckhubq2.s 			page 139


 5741 12da 7478456E 		.ascii	"txEnabled\000"
 5741      61626C65 
 5741      6400
 5742              	.LASF348:
 5743 12e4 43595F42 		.ascii	"CY_BLE_EVT_GAP_CONN_ESTB\000"
 5743      4C455F45 
 5743      56545F47 
 5743      41505F43 
 5743      4F4E4E5F 
 5744              	.LASF294:
 5745 12fd 43595F42 		.ascii	"CY_BLE_EVT_REMOVE_DEVICE_FROM_RPA_LIST_COMPLETE\000"
 5745      4C455F45 
 5745      56545F52 
 5745      454D4F56 
 5745      455F4445 
 5746              	.LASF283:
 5747 132d 43595F42 		.ascii	"CY_BLE_EVT_LE_PING_AUTH_TIMEOUT\000"
 5747      4C455F45 
 5747      56545F4C 
 5747      455F5049 
 5747      4E475F41 
 5748              	.LASF172:
 5749 134d 43595F49 		.ascii	"CY_I2S_OVHDATA_ONE\000"
 5749      32535F4F 
 5749      56484441 
 5749      54415F4F 
 5749      4E4500
 5750              	.LASF239:
 5751 1360 74784275 		.ascii	"txBufIdx\000"
 5751      66496478 
 5751      00
 5752              	.LASF452:
 5753 1369 50574D5F 		.ascii	"PWM_TENS2_config\000"
 5753      54454E53 
 5753      325F636F 
 5753      6E666967 
 5753      00
 5754              	.LASF261:
 5755 137a 73776170 		.ascii	"swapInput\000"
 5755      496E7075 
 5755      7400
 5756              	.LASF7:
 5757 1384 5F5F696E 		.ascii	"__int16_t\000"
 5757      7431365F 
 5757      7400
 5758              	.LASF310:
 5759 138e 43595F42 		.ascii	"CY_BLE_EVT_SET_CLK_CONFIG_COMPLETE\000"
 5759      4C455F45 
 5759      56545F53 
 5759      45545F43 
 5759      4C4B5F43 
 5760              	.LASF73:
 5761 13b1 6873696F 		.ascii	"hsiomBase\000"
 5761      6D426173 
 5761      6500
 5762              	.LASF375:
 5763 13bb 43595F42 		.ascii	"CY_BLE_EVT_GATTC_LONG_PROCEDURE_END\000"
ARM GAS  C:\Users\haske\AppData\Local\Temp\cckhubq2.s 			page 140


 5763      4C455F45 
 5763      56545F47 
 5763      41545443 
 5763      5F4C4F4E 
 5764              	.LASF207:
 5765 13df 72785369 		.ascii	"rxSignExtension\000"
 5765      676E4578 
 5765      74656E73 
 5765      696F6E00 
 5766              	.LASF451:
 5767 13ef 50574D5F 		.ascii	"PWM_TENS_config\000"
 5767      54454E53 
 5767      5F636F6E 
 5767      66696700 
 5768              	.LASF123:
 5769 13ff 70657269 		.ascii	"periTrGrOffset\000"
 5769      54724772 
 5769      4F666673 
 5769      657400
 5770              	.LASF24:
 5771 140e 494E5452 		.ascii	"INTR\000"
 5771      00
 5772              	.LASF428:
 5773 1413 7365745F 		.ascii	"set_tens_amp\000"
 5773      74656E73 
 5773      5F616D70 
 5773      00
 5774              	.LASF242:
 5775 1420 63795F73 		.ascii	"cy_stc_scb_spi_context_t\000"
 5775      74635F73 
 5775      63625F73 
 5775      70695F63 
 5775      6F6E7465 
 5776              	.LASF391:
 5777 1439 43595F42 		.ascii	"CY_BLE_ADV_STATE_STOPPED\000"
 5777      4C455F41 
 5777      44565F53 
 5777      54415445 
 5777      5F53544F 
 5778              	.LASF89:
 5779 1452 63707573 		.ascii	"cpussDwChNr\000"
 5779      73447743 
 5779      684E7200 
 5780              	.LASF262:
 5781 145e 72656C6F 		.ascii	"reloadInputMode\000"
 5781      6164496E 
 5781      7075744D 
 5781      6F646500 
 5782              	.LASF291:
 5783 146e 43595F42 		.ascii	"CY_BLE_EVT_SET_RPA_ENABLE_COMPLETE\000"
 5783      4C455F45 
 5783      56545F53 
 5783      45545F52 
 5783      50415F45 
 5784              	.LASF193:
 5785 1491 7478576F 		.ascii	"txWordLength\000"
 5785      72644C65 
ARM GAS  C:\Users\haske\AppData\Local\Temp\cckhubq2.s 			page 141


 5785      6E677468 
 5785      00
 5786              	.LASF223:
 5787 149e 6368616E 		.ascii	"chanConfig\000"
 5787      436F6E66 
 5787      696700
 5788              	.LASF336:
 5789 14a9 43595F42 		.ascii	"CY_BLE_EVT_GAP_KEYINFO_EXCHNGE_CMPLT\000"
 5789      4C455F45 
 5789      56545F47 
 5789      41505F4B 
 5789      4559494E 
 5790              	.LASF295:
 5791 14ce 43595F42 		.ascii	"CY_BLE_EVT_ADD_DEVICE_TO_WHITE_LIST_COMPLETE\000"
 5791      4C455F45 
 5791      56545F41 
 5791      44445F44 
 5791      45564943 
 5792              	.LASF55:
 5793 14fb 54435057 		.ascii	"TCPWM_CNT_V1_Type\000"
 5793      4D5F434E 
 5793      545F5631 
 5793      5F547970 
 5793      6500
 5794              	.LASF87:
 5795 150d 63707573 		.ascii	"cpussIpcNr\000"
 5795      73497063 
 5795      4E7200
 5796              	.LASF164:
 5797 1518 43595F49 		.ascii	"CY_I2S_LEN8\000"
 5797      32535F4C 
 5797      454E3800 
 5798              	.LASF350:
 5799 1524 43595F42 		.ascii	"CY_BLE_EVT_GAP_ADV_TX\000"
 5799      4C455F45 
 5799      56545F47 
 5799      41505F41 
 5799      44565F54 
 5800              	.LASF386:
 5801 153a 43595F42 		.ascii	"CY_BLE_EVT_L2CAP_CBFC_DATA_WRITE_IND\000"
 5801      4C455F45 
 5801      56545F4C 
 5801      32434150 
 5801      5F434246 
 5802              	.LASF140:
 5803 155f 63707573 		.ascii	"cpussCm4StatusOffset\000"
 5803      73436D34 
 5803      53746174 
 5803      75734F66 
 5803      66736574 
 5804              	.LASF439:
 5805 1574 74656E73 		.ascii	"tens_two_dur_us\000"
 5805      5F74776F 
 5805      5F647572 
 5805      5F757300 
 5806              	.LASF99:
 5807 1584 70617373 		.ascii	"passSarChannels\000"
ARM GAS  C:\Users\haske\AppData\Local\Temp\cckhubq2.s 			page 142


 5807      53617243 
 5807      68616E6E 
 5807      656C7300 
 5808              	.LASF151:
 5809 1594 63707573 		.ascii	"cpussRam2Ctl0\000"
 5809      7352616D 
 5809      3243746C 
 5809      3000
 5810              	.LASF373:
 5811 15a2 43595F42 		.ascii	"CY_BLE_EVT_GATTC_STOP_CMD_COMPLETE\000"
 5811      4C455F45 
 5811      56545F47 
 5811      41545443 
 5811      5F53544F 
 5812              	.LASF324:
 5813 15c5 43595F42 		.ascii	"CY_BLE_EVT_GAPC_SCAN_PROGRESS_RESULT\000"
 5813      4C455F45 
 5813      56545F47 
 5813      4150435F 
 5813      5343414E 
 5814              	.LASF453:
 5815 15ea 4144435F 		.ascii	"ADC_currentConfig\000"
 5815      63757272 
 5815      656E7443 
 5815      6F6E6669 
 5815      6700
 5816              	.LASF344:
 5817 15fc 43595F42 		.ascii	"CY_BLE_EVT_GAP_KEYS_GEN_COMPLETE\000"
 5817      4C455F45 
 5817      56545F47 
 5817      41505F4B 
 5817      4559535F 
 5818              	.LASF338:
 5819 161d 43595F42 		.ascii	"CY_BLE_EVT_GAP_KEYPRESS_NOTIFICATION\000"
 5819      4C455F45 
 5819      56545F47 
 5819      41505F4B 
 5819      45595052 
 5820              	.LASF402:
 5821 1642 43595F42 		.ascii	"CY_BLE_CONN_STATE_CLIENT_DESCR_DISCOVERING\000"
 5821      4C455F43 
 5821      4F4E4E5F 
 5821      53544154 
 5821      455F434C 
 5822              	.LASF398:
 5823 166d 43595F42 		.ascii	"CY_BLE_CONN_STATE_CONNECTED\000"
 5823      4C455F43 
 5823      4F4E4E5F 
 5823      53544154 
 5823      455F434F 
 5824              	.LASF237:
 5825 1689 74784275 		.ascii	"txBuf\000"
 5825      6600
 5826              	.LASF199:
 5827 168f 72785761 		.ascii	"rxWatchdogEnable\000"
 5827      74636864 
 5827      6F67456E 
ARM GAS  C:\Users\haske\AppData\Local\Temp\cckhubq2.s 			page 143


 5827      61626C65 
 5827      00
 5828              	.LASF108:
 5829 16a0 666C6173 		.ascii	"flashProgramDelay\000"
 5829      6850726F 
 5829      6772616D 
 5829      44656C61 
 5829      7900
 5830              	.LASF130:
 5831 16b2 70657269 		.ascii	"periDiv16CtlOffset\000"
 5831      44697631 
 5831      3643746C 
 5831      4F666673 
 5831      657400
 5832              	.LASF257:
 5833 16c5 696E7665 		.ascii	"invertPWMOut\000"
 5833      72745057 
 5833      4D4F7574 
 5833      00
 5834              	.LASF200:
 5835 16d2 72785761 		.ascii	"rxWatchdogValue\000"
 5835      74636864 
 5835      6F675661 
 5835      6C756500 
 5836              	.LASF447:
 5837 16e2 4C43445F 		.ascii	"LCD_PWM_config\000"
 5837      50574D5F 
 5837      636F6E66 
 5837      696700
 5838              	.LASF9:
 5839 16f1 73686F72 		.ascii	"short unsigned int\000"
 5839      7420756E 
 5839      7369676E 
 5839      65642069 
 5839      6E7400
 5840              	.LASF67:
 5841 1704 6C6F6E67 		.ascii	"long double\000"
 5841      20646F75 
 5841      626C6500 
 5842              	.LASF280:
 5843 1710 43595F42 		.ascii	"CY_BLE_EVT_READ_AUTH_PAYLOAD_TO_COMPLETE\000"
 5843      4C455F45 
 5843      56545F52 
 5843      4541445F 
 5843      41555448 
 5844              	.LASF17:
 5845 1739 75696E74 		.ascii	"uint16_t\000"
 5845      31365F74 
 5845      00
 5846              	.LASF270:
 5847 1742 63795F73 		.ascii	"cy_stc_tcpwm_pwm_config_t\000"
 5847      74635F74 
 5847      6370776D 
 5847      5F70776D 
 5847      5F636F6E 
 5848              	.LASF44:
 5849 175c 5644445F 		.ascii	"VDD_INTR_SET\000"
ARM GAS  C:\Users\haske\AppData\Local\Temp\cckhubq2.s 			page 144


 5849      494E5452 
 5849      5F534554 
 5849      00
 5850              	.LASF249:
 5851 1769 72756E4D 		.ascii	"runMode\000"
 5851      6F646500 
 5852              	.LASF178:
 5853 1771 7278456E 		.ascii	"rxEnabled\000"
 5853      61626C65 
 5853      6400
 5854              	.LASF290:
 5855 177b 43595F42 		.ascii	"CY_BLE_EVT_SET_RPA_TO_COMPLETE\000"
 5855      4C455F45 
 5855      56545F53 
 5855      45545F52 
 5855      50415F54 
 5856              	.LASF191:
 5857 179a 74784368 		.ascii	"txChannels\000"
 5857      616E6E65 
 5857      6C7300
 5858              	.LASF218:
 5859 17a5 73616D70 		.ascii	"sampleTime01\000"
 5859      6C655469 
 5859      6D653031 
 5859      00
 5860              	.LASF278:
 5861 17b2 43595F42 		.ascii	"CY_BLE_EVT_HARDWARE_ERROR\000"
 5861      4C455F45 
 5861      56545F48 
 5861      41524457 
 5861      4152455F 
 5862              	.LASF431:
 5863 17cc 6368616E 		.ascii	"channel\000"
 5863      6E656C00 
 5864              	.LASF96:
 5865 17d4 73727373 		.ascii	"srssNumHfroot\000"
 5865      4E756D48 
 5865      66726F6F 
 5865      7400
 5866              	.LASF48:
 5867 17e2 434F554E 		.ascii	"COUNTER\000"
 5867      54455200 
 5868              	.LASF347:
 5869 17ea 43595F42 		.ascii	"CY_BLE_EVT_GAP_CREATE_CONN_CANCEL_COMPLETE\000"
 5869      4C455F45 
 5869      56545F47 
 5869      41505F43 
 5869      52454154 
 5870              	.LASF227:
 5871 1815 6D757853 		.ascii	"muxSwitch\000"
 5871      77697463 
 5871      6800
 5872              	.LASF190:
 5873 181f 74785363 		.ascii	"txSckiInversion\000"
 5873      6B69496E 
 5873      76657273 
 5873      696F6E00 
ARM GAS  C:\Users\haske\AppData\Local\Temp\cckhubq2.s 			page 145


 5874              	.LASF121:
 5875 182f 70657269 		.ascii	"periTrCmdOffset\000"
 5875      5472436D 
 5875      644F6666 
 5875      73657400 
 5876              	.LASF370:
 5877 183f 43595F42 		.ascii	"CY_BLE_EVT_GATTC_HANDLE_VALUE_IND\000"
 5877      4C455F45 
 5877      56545F47 
 5877      41545443 
 5877      5F48414E 
 5878              	.LASF351:
 5879 1861 43595F42 		.ascii	"CY_BLE_EVT_GATTC_ERROR_RSP\000"
 5879      4C455F45 
 5879      56545F47 
 5879      41545443 
 5879      5F455252 
 5880              	.LASF203:
 5881 187c 72785363 		.ascii	"rxSckiInversion\000"
 5881      6B69496E 
 5881      76657273 
 5881      696F6E00 
 5882              	.LASF356:
 5883 188c 43595F42 		.ascii	"CY_BLE_EVT_GATTC_READ_BY_GROUP_TYPE_RSP\000"
 5883      4C455F45 
 5883      56545F47 
 5883      41545443 
 5883      5F524541 
 5884              	.LASF461:
 5885 18b4 2E2E5C2E 		.ascii	"..\\..\\PainDrain\\PainDrain.cydsn\\tens.c\000"
 5885      2E5C5061 
 5885      696E4472 
 5885      61696E5C 
 5885      5061696E 
 5886              	.LASF314:
 5887 18db 43595F42 		.ascii	"CY_BLE_EVT_AES_CCM_DECRYPT_COMPLETE\000"
 5887      4C455F45 
 5887      56545F41 
 5887      45535F43 
 5887      434D5F44 
 5888              	.LASF20:
 5889 18ff 73697A65 		.ascii	"sizetype\000"
 5889      74797065 
 5889      00
 5890              	.LASF316:
 5891 1908 43595F42 		.ascii	"CY_BLE_EVT_STACK_SHUTDOWN_COMPLETE\000"
 5891      4C455F45 
 5891      56545F53 
 5891      5441434B 
 5891      5F534855 
 5892              	.LASF390:
 5893 192b 63795F73 		.ascii	"cy_stc_ble_conn_handle_t\000"
 5893      74635F62 
 5893      6C655F63 
 5893      6F6E6E5F 
 5893      68616E64 
 5894              	.LASF147:
ARM GAS  C:\Users\haske\AppData\Local\Temp\cckhubq2.s 			page 146


 5895 1944 63707573 		.ascii	"cpussCm4NmiCtlOffset\000"
 5895      73436D34 
 5895      4E6D6943 
 5895      746C4F66 
 5895      66736574 
 5896              	.LASF141:
 5897 1959 63707573 		.ascii	"cpussCm0StatusOffset\000"
 5897      73436D30 
 5897      53746174 
 5897      75734F66 
 5897      66736574 
 5898              	.LASF129:
 5899 196e 70657269 		.ascii	"periDiv8CtlOffset\000"
 5899      44697638 
 5899      43746C4F 
 5899      66667365 
 5899      7400
 5900              	.LASF349:
 5901 1980 43595F42 		.ascii	"CY_BLE_EVT_GAPP_UPDATE_ADV_SCAN_DATA_COMPLETE\000"
 5901      4C455F45 
 5901      56545F47 
 5901      4150505F 
 5901      55504441 
 5902              	.LASF377:
 5903 19ae 43595F42 		.ascii	"CY_BLE_EVT_L2CAP_CONN_PARAM_UPDATE_RSP\000"
 5903      4C455F45 
 5903      56545F4C 
 5903      32434150 
 5903      5F434F4E 
 5904              	.LASF3:
 5905 19d5 73686F72 		.ascii	"short int\000"
 5905      7420696E 
 5905      7400
 5906              	.LASF188:
 5907 19df 74785364 		.ascii	"txSdoLatchingTime\000"
 5907      6F4C6174 
 5907      6368696E 
 5907      6754696D 
 5907      6500
 5908              	.LASF454:
 5909 19f1 4144435F 		.ascii	"ADC_allConfigs\000"
 5909      616C6C43 
 5909      6F6E6669 
 5909      677300
 5910              	.LASF323:
 5911 1a00 43595F42 		.ascii	"CY_BLE_EVT_HCI_PKT_RCVD\000"
 5911      4C455F45 
 5911      56545F48 
 5911      43495F50 
 5911      4B545F52 
 5912              	.LASF255:
 5913 1a18 656E6162 		.ascii	"enableCompareSwap\000"
 5913      6C65436F 
 5913      6D706172 
 5913      65537761 
 5913      7000
 5914              	.LASF457:
ARM GAS  C:\Users\haske\AppData\Local\Temp\cckhubq2.s 			page 147


 5915 1a2a 50574D5F 		.ascii	"PWM_PEL2_config\000"
 5915      50454C32 
 5915      5F636F6E 
 5915      66696700 
 5916              	.LASF410:
 5917 1a3a 4144435F 		.ascii	"ADC_CONFIG_STRUCT\000"
 5917      434F4E46 
 5917      49475F53 
 5917      54525543 
 5917      5400
 5918              	.LASF11:
 5919 1a4c 6C6F6E67 		.ascii	"long int\000"
 5919      20696E74 
 5919      00
 5920              	.LASF78:
 5921 1a55 63707573 		.ascii	"cpussVersion\000"
 5921      73566572 
 5921      73696F6E 
 5921      00
 5922              	.LASF441:
 5923 1a62 49544D5F 		.ascii	"ITM_RxBuffer\000"
 5923      52784275 
 5923      66666572 
 5923      00
 5924              	.LASF268:
 5925 1a6f 636F756E 		.ascii	"countInputMode\000"
 5925      74496E70 
 5925      75744D6F 
 5925      646500
 5926              	.LASF260:
 5927 1a7e 73776170 		.ascii	"swapInputMode\000"
 5927      496E7075 
 5927      744D6F64 
 5927      6500
 5928              	.LASF319:
 5929 1a8c 43595F42 		.ascii	"CY_BLE_EVT_AES_CMAC_GEN_COMPLETE\000"
 5929      4C455F45 
 5929      56545F41 
 5929      45535F43 
 5929      4D41435F 
 5930              	.LASF81:
 5931 1aad 666C6173 		.ascii	"flashcVersion\000"
 5931      68635665 
 5931      7273696F 
 5931      6E00
 5932              	.LASF103:
 5933 1abb 70726F74 		.ascii	"protBusMasterMask\000"
 5933      4275734D 
 5933      61737465 
 5933      724D6173 
 5933      6B00
 5934              	.LASF72:
 5935 1acd 70726F74 		.ascii	"protBase\000"
 5935      42617365 
 5935      00
 5936              	.LASF362:
 5937 1ad6 43595F42 		.ascii	"CY_BLE_EVT_GATTC_READ_MULTI_RSP\000"
ARM GAS  C:\Users\haske\AppData\Local\Temp\cckhubq2.s 			page 148


 5937      4C455F45 
 5937      56545F47 
 5937      41545443 
 5937      5F524541 
 5938              	.LASF35:
 5939 1af6 4750494F 		.ascii	"GPIO_PRT_V1_Type\000"
 5939      5F505254 
 5939      5F56315F 
 5939      54797065 
 5939      00
 5940              	.LASF429:
 5941 1b07 616D706C 		.ascii	"amplitude\000"
 5941      69747564 
 5941      6500
 5942              	.LASF315:
 5943 1b11 43595F42 		.ascii	"CY_BLE_EVT_SET_SLAVE_LATENCY_MODE_COMPLETE\000"
 5943      4C455F45 
 5943      56545F53 
 5943      45545F53 
 5943      4C415645 
 5944              	.LASF155:
 5945 1b3c 63686172 		.ascii	"char_t\000"
 5945      5F7400
 5946              	.LASF343:
 5947 1b43 43595F42 		.ascii	"CY_BLE_EVT_GAP_DEVICE_ADDR_GEN_COMPLETE\000"
 5947      4C455F45 
 5947      56545F47 
 5947      41505F44 
 5947      45564943 
 5948              	.LASF33:
 5949 1b6b 4346475F 		.ascii	"CFG_IN_GPIO5V\000"
 5949      494E5F47 
 5949      50494F35 
 5949      5600
 5950              	.LASF379:
 5951 1b79 43595F42 		.ascii	"CY_BLE_EVT_L2CAP_CBFC_CONN_IND\000"
 5951      4C455F45 
 5951      56545F4C 
 5951      32434150 
 5951      5F434246 
 5952              	.LASF381:
 5953 1b98 43595F42 		.ascii	"CY_BLE_EVT_L2CAP_CBFC_DISCONN_IND\000"
 5953      4C455F45 
 5953      56545F4C 
 5953      32434150 
 5953      5F434246 
 5954              	.LASF353:
 5955 1bba 43595F42 		.ascii	"CY_BLE_EVT_GATT_DISCONNECT_IND\000"
 5955      4C455F45 
 5955      56545F47 
 5955      4154545F 
 5955      44495343 
 5956              	.LASF367:
 5957 1bd9 43595F42 		.ascii	"CY_BLE_EVT_GATTS_EXEC_WRITE_REQ\000"
 5957      4C455F45 
 5957      56545F47 
 5957      41545453 
ARM GAS  C:\Users\haske\AppData\Local\Temp\cckhubq2.s 			page 149


 5957      5F455845 
 5958              	.LASF279:
 5959 1bf9 43595F42 		.ascii	"CY_BLE_EVT_WRITE_AUTH_PAYLOAD_TO_COMPLETE\000"
 5959      4C455F45 
 5959      56545F57 
 5959      52495445 
 5959      5F415554 
 5960              	.LASF318:
 5961 1c23 43595F42 		.ascii	"CY_BLE_EVT_RADIO_VOLTAGE_LEVEL\000"
 5961      4C455F45 
 5961      56545F52 
 5961      4144494F 
 5961      5F564F4C 
 5962              	.LASF196:
 5963 1c42 72784D61 		.ascii	"rxMasterMode\000"
 5963      73746572 
 5963      4D6F6465 
 5963      00
 5964              	.LASF142:
 5965 1c4f 63707573 		.ascii	"cpussCm4PwrCtlOffset\000"
 5965      73436D34 
 5965      50777243 
 5965      746C4F66 
 5965      66736574 
 5966              	.LASF6:
 5967 1c64 5F5F7569 		.ascii	"__uint8_t\000"
 5967      6E74385F 
 5967      7400
 5968              	.LASF408:
 5969 1c6e 6D697363 		.ascii	"miscConfig\000"
 5969      436F6E66 
 5969      696700
 5970              	.LASF133:
 5971 1c79 6770696F 		.ascii	"gpioPrtIntrCfgOffset\000"
 5971      50727449 
 5971      6E747243 
 5971      66674F66 
 5971      66736574 
 5972              	.LASF285:
 5973 1c8e 43595F42 		.ascii	"CY_BLE_EVT_SET_SUGGESTED_DATA_LENGTH_COMPLETE\000"
 5973      4C455F45 
 5973      56545F53 
 5973      45545F53 
 5973      55474745 
 5974              	.LASF305:
 5975 1cbc 43595F42 		.ascii	"CY_BLE_EVT_GET_DEVICE_ADDR_COMPLETE\000"
 5975      4C455F45 
 5975      56545F47 
 5975      45545F44 
 5975      45564943 
 5976              	.LASF312:
 5977 1ce0 43595F42 		.ascii	"CY_BLE_EVT_AES_ENCRYPT_COMPLETE\000"
 5977      4C455F45 
 5977      56545F41 
 5977      45535F45 
 5977      4E435259 
 5978              	.LASF139:
ARM GAS  C:\Users\haske\AppData\Local\Temp\cckhubq2.s 			page 150


 5979 1d00 63707573 		.ascii	"cpussCm4ClockCtlOffset\000"
 5979      73436D34 
 5979      436C6F63 
 5979      6B43746C 
 5979      4F666673 
 5980              	.LASF307:
 5981 1d17 43595F42 		.ascii	"CY_BLE_EVT_GET_TX_PWR_COMPLETE\000"
 5981      4C455F45 
 5981      56545F47 
 5981      45545F54 
 5981      585F5057 
 5982              	.LASF26:
 5983 1d36 494E5452 		.ascii	"INTR_MASKED\000"
 5983      5F4D4153 
 5983      4B454400 
 5984              	.LASF49:
 5985 1d42 43435F42 		.ascii	"CC_BUFF\000"
 5985      55464600 
 5986              	.LASF267:
 5987 1d4a 6B696C6C 		.ascii	"killInput\000"
 5987      496E7075 
 5987      7400
 5988              	.LASF144:
 5989 1d54 63707573 		.ascii	"cpussTrimRomCtlOffset\000"
 5989      73547269 
 5989      6D526F6D 
 5989      43746C4F 
 5989      66667365 
 5990              	.LASF145:
 5991 1d6a 63707573 		.ascii	"cpussSysTickCtlOffset\000"
 5991      73537973 
 5991      5469636B 
 5991      43746C4F 
 5991      66667365 
 5992              	.LASF266:
 5993 1d80 6B696C6C 		.ascii	"killInputMode\000"
 5993      496E7075 
 5993      744D6F64 
 5993      6500
 5994              	.LASF273:
 5995 1d8e 43595F42 		.ascii	"CY_BLE_EVT_TIMEOUT\000"
 5995      4C455F45 
 5995      56545F54 
 5995      494D454F 
 5995      555400
 5996              	.LASF83:
 5997 1da1 6873696F 		.ascii	"hsiomVersion\000"
 5997      6D566572 
 5997      73696F6E 
 5997      00
 5998              	.LASF13:
 5999 1dae 6C6F6E67 		.ascii	"long unsigned int\000"
 5999      20756E73 
 5999      69676E65 
 5999      6420696E 
 5999      7400
 6000              	.LASF148:
ARM GAS  C:\Users\haske\AppData\Local\Temp\cckhubq2.s 			page 151


 6001 1dc0 63707573 		.ascii	"cpussRomCtl\000"
 6001      73526F6D 
 6001      43746C00 
 6002              	.LASF157:
 6003 1dcc 666C6F61 		.ascii	"float\000"
 6003      7400
 6004              	.LASF18:
 6005 1dd2 696E7433 		.ascii	"int32_t\000"
 6005      325F7400 
 6006              	.LASF317:
 6007 1dda 43595F42 		.ascii	"CY_BLE_EVT_RADIO_TEMPERATURE\000"
 6007      4C455F45 
 6007      56545F52 
 6007      4144494F 
 6007      5F54454D 
 6008              	.LASF415:
 6009 1df7 70696E4E 		.ascii	"pinNum\000"
 6009      756D00
 6010              	.LASF378:
 6011 1dfe 43595F42 		.ascii	"CY_BLE_EVT_L2CAP_COMMAND_REJ\000"
 6011      4C455F45 
 6011      56545F4C 
 6011      32434150 
 6011      5F434F4D 
 6012              	.LASF327:
 6013 1e1b 43595F42 		.ascii	"CY_BLE_EVT_GAP_PASSKEY_DISPLAY_REQUEST\000"
 6013      4C455F45 
 6013      56545F47 
 6013      41505F50 
 6013      4153534B 
 6014              	.LASF175:
 6015 1e42 43595F49 		.ascii	"CY_I2S_WS_ONE_CHANNEL_LENGTH\000"
 6015      32535F57 
 6015      535F4F4E 
 6015      455F4348 
 6015      414E4E45 
 6016              	.LASF195:
 6017 1e5f 74784669 		.ascii	"txFifoTriggerLevel\000"
 6017      666F5472 
 6017      69676765 
 6017      724C6576 
 6017      656C00
 6018              	.LASF413:
 6019 1e72 43795F54 		.ascii	"Cy_TCPWM_PWM_SetCompare0\000"
 6019      4350574D 
 6019      5F50574D 
 6019      5F536574 
 6019      436F6D70 
 6020              	.LASF459:
 6021 1e8b 43795F53 		.ascii	"Cy_SysLib_DelayUs\000"
 6021      79734C69 
 6021      625F4465 
 6021      6C617955 
 6021      7300
 6022              	.LASF217:
 6023 1e9d 73616D70 		.ascii	"sampleCtrl\000"
 6023      6C654374 
ARM GAS  C:\Users\haske\AppData\Local\Temp\cckhubq2.s 			page 152


 6023      726C00
 6024              	.LASF184:
 6025 1ea8 7478416C 		.ascii	"txAlignment\000"
 6025      69676E6D 
 6025      656E7400 
 6026              	.LASF194:
 6027 1eb4 74784F76 		.ascii	"txOverheadValue\000"
 6027      65726865 
 6027      61645661 
 6027      6C756500 
 6028              	.LASF163:
 6029 1ec4 63795F65 		.ascii	"cy_en_i2s_alignment_t\000"
 6029      6E5F6932 
 6029      735F616C 
 6029      69676E6D 
 6029      656E745F 
 6030              	.LASF5:
 6031 1eda 756E7369 		.ascii	"unsigned char\000"
 6031      676E6564 
 6031      20636861 
 6031      7200
 6032              	.LASF372:
 6033 1ee8 43595F42 		.ascii	"CY_BLE_EVT_GATTS_DATA_SIGNED_CMD_REQ\000"
 6033      4C455F45 
 6033      56545F47 
 6033      41545453 
 6033      5F444154 
 6034              	.LASF12:
 6035 1f0d 5F5F7569 		.ascii	"__uint32_t\000"
 6035      6E743332 
 6035      5F7400
 6036              	.LASF287:
 6037 1f18 43595F42 		.ascii	"CY_BLE_EVT_DATA_LENGTH_CHANGE\000"
 6037      4C455F45 
 6037      56545F44 
 6037      4154415F 
 6037      4C454E47 
 6038              	.LASF65:
 6039 1f36 4750494F 		.ascii	"GPIO_Type\000"
 6039      5F547970 
 6039      6500
 6040              	.LASF153:
 6041 1f40 6970634C 		.ascii	"ipcLockStatusOffset\000"
 6041      6F636B53 
 6041      74617475 
 6041      734F6666 
 6041      73657400 
 6042              	.LASF269:
 6043 1f54 636F756E 		.ascii	"countInput\000"
 6043      74496E70 
 6043      757400
 6044              	.LASF28:
 6045 1f5f 494E5452 		.ascii	"INTR_CFG\000"
 6045      5F434647 
 6045      00
 6046              	.LASF185:
 6047 1f68 74785773 		.ascii	"txWsPulseWidth\000"
ARM GAS  C:\Users\haske\AppData\Local\Temp\cckhubq2.s 			page 153


 6047      50756C73 
 6047      65576964 
 6047      746800
 6048              	.LASF296:
 6049 1f77 43595F42 		.ascii	"CY_BLE_EVT_REMOVE_DEVICE_FROM_WHITE_LIST_COMPLETE\000"
 6049      4C455F45 
 6049      56545F52 
 6049      454D4F56 
 6049      455F4445 
 6050              	.LASF286:
 6051 1fa9 43595F42 		.ascii	"CY_BLE_EVT_GET_DATA_LENGTH_COMPLETE\000"
 6051      4C455F45 
 6051      56545F47 
 6051      45545F44 
 6051      4154415F 
 6052              	.LASF450:
 6053 1fcd 414D505F 		.ascii	"AMP_PWM_config\000"
 6053      50574D5F 
 6053      636F6E66 
 6053      696700
 6054              	.LASF341:
 6055 1fdc 43595F42 		.ascii	"CY_BLE_EVT_GAPC_DIRECT_ADV_REPORT\000"
 6055      4C455F45 
 6055      56545F47 
 6055      4150435F 
 6055      44495245 
 6056              	.LASF243:
 6057 1ffe 63795F73 		.ascii	"cy_stc_scb_spi_context\000"
 6057      74635F73 
 6057      63625F73 
 6057      70695F63 
 6057      6F6E7465 
 6058              	.LASF109:
 6059 2015 666C6173 		.ascii	"flashEraseDelay\000"
 6059      68457261 
 6059      73654465 
 6059      6C617900 
 6060              	.LASF61:
 6061 2025 434D445F 		.ascii	"CMD_START\000"
 6061      53544152 
 6061      5400
 6062              	.LASF293:
 6063 202f 43595F42 		.ascii	"CY_BLE_EVT_ADD_DEVICE_TO_RPA_LIST_COMPLETE\000"
 6063      4C455F45 
 6063      56545F41 
 6063      44445F44 
 6063      45564943 
 6064              	.LASF409:
 6065 205a 636C6B44 		.ascii	"clkDivider\000"
 6065      69766964 
 6065      657200
 6066              	.LASF259:
 6067 2065 6B696C6C 		.ascii	"killMode\000"
 6067      4D6F6465 
 6067      00
 6068              	.LASF216:
 6069 206e 6374726C 		.ascii	"ctrl\000"
ARM GAS  C:\Users\haske\AppData\Local\Temp\cckhubq2.s 			page 154


 6069      00
 6070              	.LASF333:
 6071 2073 43595F42 		.ascii	"CY_BLE_EVT_GAP_ENCRYPT_CHANGE\000"
 6071      4C455F45 
 6071      56545F47 
 6071      41505F45 
 6071      4E435259 
 6072              	.LASF368:
 6073 2091 43595F42 		.ascii	"CY_BLE_EVT_GATTC_EXEC_WRITE_RSP\000"
 6073      4C455F45 
 6073      56545F47 
 6073      41545443 
 6073      5F455845 
 6074              	.LASF354:
 6075 20b1 43595F42 		.ascii	"CY_BLE_EVT_GATTS_XCNHG_MTU_REQ\000"
 6075      4C455F45 
 6075      56545F47 
 6075      41545453 
 6075      5F58434E 
 6076              	.LASF176:
 6077 20d0 63795F65 		.ascii	"cy_en_i2s_ws_pw_t\000"
 6077      6E5F6932 
 6077      735F7773 
 6077      5F70775F 
 6077      7400
 6078              	.LASF105:
 6079 20e2 666C6173 		.ascii	"flashRwwRequired\000"
 6079      68527777 
 6079      52657175 
 6079      69726564 
 6079      00
 6080              	.LASF326:
 6081 20f3 43595F42 		.ascii	"CY_BLE_EVT_GAP_PASSKEY_ENTRY_REQUEST\000"
 6081      4C455F45 
 6081      56545F47 
 6081      41505F50 
 6081      4153534B 
 6082              	.LASF134:
 6083 2118 6770696F 		.ascii	"gpioPrtCfgOffset\000"
 6083      50727443 
 6083      66674F66 
 6083      66736574 
 6083      00
 6084              	.LASF206:
 6085 2129 7278576F 		.ascii	"rxWordLength\000"
 6085      72644C65 
 6085      6E677468 
 6085      00
 6086              	.LASF388:
 6087 2136 62644861 		.ascii	"bdHandle\000"
 6087      6E646C65 
 6087      00
 6088              	.LASF422:
 6089 213f 7365745F 		.ascii	"set_tens_task\000"
 6089      74656E73 
 6089      5F746173 
 6089      6B00
ARM GAS  C:\Users\haske\AppData\Local\Temp\cckhubq2.s 			page 155


 6090              	.LASF42:
 6091 214d 5644445F 		.ascii	"VDD_INTR_MASK\000"
 6091      494E5452 
 6091      5F4D4153 
 6091      4B00
 6092              	.LASF427:
 6093 215b 74656E73 		.ascii	"tens_dur_us\000"
 6093      5F647572 
 6093      5F757300 
 6094              	.LASF4:
 6095 2167 7369676E 		.ascii	"signed char\000"
 6095      65642063 
 6095      68617200 
 6096              	.LASF425:
 6097 2173 70657269 		.ascii	"period\000"
 6097      6F6400
 6098              	.LASF115:
 6099 217a 64774368 		.ascii	"dwChOffset\000"
 6099      4F666673 
 6099      657400
 6100              	.LASF88:
 6101 2185 63707573 		.ascii	"cpussIpcIrqNr\000"
 6101      73497063 
 6101      4972714E 
 6101      7200
 6102              	.LASF118:
 6103 2193 64774368 		.ascii	"dwChCtlPreemptablePos\000"
 6103      43746C50 
 6103      7265656D 
 6103      70746162 
 6103      6C65506F 
 6104              	.LASF365:
 6105 21a9 43595F42 		.ascii	"CY_BLE_EVT_GATTS_WRITE_CMD_REQ\000"
 6105      4C455F45 
 6105      56545F47 
 6105      41545453 
 6105      5F575249 
 6106              	.LASF309:
 6107 21c8 43595F42 		.ascii	"CY_BLE_EVT_GET_CLK_CONFIG_COMPLETE\000"
 6107      4C455F45 
 6107      56545F47 
 6107      45545F43 
 6107      4C4B5F43 
 6108              	.LASF154:
 6109 21eb 63795F73 		.ascii	"cy_stc_device_t\000"
 6109      74635F64 
 6109      65766963 
 6109      655F7400 
 6110              	.LASF52:
 6111 21fb 54525F43 		.ascii	"TR_CTRL0\000"
 6111      54524C30 
 6111      00
 6112              	.LASF53:
 6113 2204 54525F43 		.ascii	"TR_CTRL1\000"
 6113      54524C31 
 6113      00
 6114              	.LASF54:
ARM GAS  C:\Users\haske\AppData\Local\Temp\cckhubq2.s 			page 156


 6115 220d 54525F43 		.ascii	"TR_CTRL2\000"
 6115      54524C32 
 6115      00
 6116              	.LASF463:
 6117 2216 43795F54 		.ascii	"Cy_TCPWM_PWM_GetCompare0\000"
 6117      4350574D 
 6117      5F50574D 
 6117      5F476574 
 6117      436F6D70 
 6118              	.LASF161:
 6119 222f 43595F49 		.ascii	"CY_I2S_TDM_MODE_A\000"
 6119      32535F54 
 6119      444D5F4D 
 6119      4F44455F 
 6119      4100
 6120              	.LASF85:
 6121 2241 70657269 		.ascii	"periVersion\000"
 6121      56657273 
 6121      696F6E00 
 6122              	.LASF376:
 6123 224d 43595F42 		.ascii	"CY_BLE_EVT_L2CAP_CONN_PARAM_UPDATE_REQ\000"
 6123      4C455F45 
 6123      56545F4C 
 6123      32434150 
 6123      5F434F4E 
 6124              	.LASF229:
 6125 2274 636F6E66 		.ascii	"configRouting\000"
 6125      6967526F 
 6125      7574696E 
 6125      6700
 6126              	.LASF75:
 6127 2282 70617373 		.ascii	"passBase\000"
 6127      42617365 
 6127      00
 6128              	.LASF112:
 6129 228b 666C6173 		.ascii	"flashCtlMainWs2Freq\000"
 6129      6843746C 
 6129      4D61696E 
 6129      57733246 
 6129      72657100 
 6130              	.LASF34:
 6131 229f 52455345 		.ascii	"RESERVED1\000"
 6131      52564544 
 6131      3100
 6132              	.LASF131:
 6133 22a9 70657269 		.ascii	"periDiv16_5CtlOffset\000"
 6133      44697631 
 6133      365F3543 
 6133      746C4F66 
 6133      66736574 
 6134              	.LASF47:
 6135 22be 53544154 		.ascii	"STATUS\000"
 6135      555300
 6136              	.LASF31:
 6137 22c5 4346475F 		.ascii	"CFG_SIO\000"
 6137      53494F00 
 6138              	.LASF114:
ARM GAS  C:\Users\haske\AppData\Local\Temp\cckhubq2.s 			page 157


 6139 22cd 666C6173 		.ascii	"flashCtlMainWs4Freq\000"
 6139      6843746C 
 6139      4D61696E 
 6139      57733446 
 6139      72657100 
 6140              	.LASF226:
 6141 22e1 72616E67 		.ascii	"rangeIntrMask\000"
 6141      65496E74 
 6141      724D6173 
 6141      6B00
 6142              	.LASF433:
 6143 22ef 7363616C 		.ascii	"scaled_pwm_value\000"
 6143      65645F70 
 6143      776D5F76 
 6143      616C7565 
 6143      00
 6144              	.LASF215:
 6145 2300 63795F65 		.ascii	"cy_en_sar_range_detect_condition_t\000"
 6145      6E5F7361 
 6145      725F7261 
 6145      6E67655F 
 6145      64657465 
 6146              	.LASF277:
 6147 2323 43595F42 		.ascii	"CY_BLE_EVT_FLASH_CORRUPT\000"
 6147      4C455F45 
 6147      56545F46 
 6147      4C415348 
 6147      5F434F52 
 6148              	.LASF424:
 6149 233c 7365745F 		.ascii	"set_tens_dur\000"
 6149      74656E73 
 6149      5F647572 
 6149      00
 6150              	.LASF346:
 6151 2349 43595F42 		.ascii	"CY_BLE_EVT_GAP_GEN_SET_LOCAL_P256_KEYS_COMPLETE\000"
 6151      4C455F45 
 6151      56545F47 
 6151      41505F47 
 6151      454E5F53 
 6152              	.LASF446:
 6153 2379 5350495F 		.ascii	"SPI_context\000"
 6153      636F6E74 
 6153      65787400 
 6154              	.LASF329:
 6155 2385 43595F42 		.ascii	"CY_BLE_EVT_GAP_AUTH_FAILED\000"
 6155      4C455F45 
 6155      56545F47 
 6155      41505F41 
 6155      5554485F 
 6156              	.LASF396:
 6157 23a0 43595F42 		.ascii	"CY_BLE_CONN_STATE_DISCONNECTED\000"
 6157      4C455F43 
 6157      4F4E4E5F 
 6157      53544154 
 6157      455F4449 
 6158              	.LASF462:
 6159 23bf 433A5C50 		.ascii	"C:\\Projects\\PainDrain\\firmware\\CE217637_BLE_Fin"
ARM GAS  C:\Users\haske\AppData\Local\Temp\cckhubq2.s 			page 158


 6159      726F6A65 
 6159      6374735C 
 6159      5061696E 
 6159      44726169 
 6160 23ee 645F4D65 		.ascii	"d_Me01\\CE217637_BLE_Find_Me01.cydsn\000"
 6160      30315C43 
 6160      45323137 
 6160      3633375F 
 6160      424C455F 
 6161              	.LASF84:
 6162 2412 69706356 		.ascii	"ipcVersion\000"
 6162      65727369 
 6162      6F6E00
 6163              	.LASF399:
 6164 241d 43595F42 		.ascii	"CY_BLE_CONN_STATE_CLIENT_SRVC_DISCOVERING\000"
 6164      4C455F43 
 6164      4F4E4E5F 
 6164      53544154 
 6164      455F434C 
 6165              	.LASF224:
 6166 2447 696E7472 		.ascii	"intrMask\000"
 6166      4D61736B 
 6166      00
 6167              	.LASF51:
 6168 2450 50455249 		.ascii	"PERIOD_BUFF\000"
 6168      4F445F42 
 6168      55464600 
 6169              	.LASF235:
 6170 245c 72784275 		.ascii	"rxBufSize\000"
 6170      6653697A 
 6170      6500
 6171              	.LASF46:
 6172 2466 4354524C 		.ascii	"CTRL\000"
 6172      00
 6173              	.LASF334:
 6174 246b 43595F42 		.ascii	"CY_BLE_EVT_GAP_CONNECTION_UPDATE_COMPLETE\000"
 6174      4C455F45 
 6174      56545F47 
 6174      41505F43 
 6174      4F4E4E45 
 6175              		.ident	"GCC: (GNU Tools for ARM Embedded Processors) 5.4.1 20160609 (release) [ARM/embedded-5-bran
