ARM GAS  C:\Users\haske\AppData\Local\Temp\ccwHV2LW.s 			page 1


   1              		.syntax unified
   2              		.cpu cortex-m0plus
   3              		.fpu softvfp
   4              		.eabi_attribute 20, 1
   5              		.eabi_attribute 21, 1
   6              		.eabi_attribute 23, 3
   7              		.eabi_attribute 24, 1
   8              		.eabi_attribute 25, 1
   9              		.eabi_attribute 26, 1
  10              		.eabi_attribute 30, 1
  11              		.eabi_attribute 34, 0
  12              		.eabi_attribute 18, 4
  13              		.thumb
  14              		.syntax unified
  15              		.file	"lv_async.c"
  16              		.text
  17              	.Ltext0:
  18              		.cfi_sections	.debug_frame
  19              		.section	.text.lv_async_timer_cb,"ax",%progbits
  20              		.align	2
  21              		.code	16
  22              		.thumb_func
  23              		.type	lv_async_timer_cb, %function
  24              	lv_async_timer_cb:
  25              	.LFB4:
  26              		.file 1 "..\\..\\..\\arduinoLCD\\test\\Pain Drain\\libraries\\lvgl\\src\\misc\\lv_async.c"
   1:..\..\..\arduinoLCD\test\Pain Drain\libraries\lvgl\src\misc/lv_async.c **** /**
   2:..\..\..\arduinoLCD\test\Pain Drain\libraries\lvgl\src\misc/lv_async.c ****  * @file lv_async.c
   3:..\..\..\arduinoLCD\test\Pain Drain\libraries\lvgl\src\misc/lv_async.c ****  *
   4:..\..\..\arduinoLCD\test\Pain Drain\libraries\lvgl\src\misc/lv_async.c ****  */
   5:..\..\..\arduinoLCD\test\Pain Drain\libraries\lvgl\src\misc/lv_async.c **** 
   6:..\..\..\arduinoLCD\test\Pain Drain\libraries\lvgl\src\misc/lv_async.c **** /*********************
   7:..\..\..\arduinoLCD\test\Pain Drain\libraries\lvgl\src\misc/lv_async.c ****  *      INCLUDES
   8:..\..\..\arduinoLCD\test\Pain Drain\libraries\lvgl\src\misc/lv_async.c ****  *********************/
   9:..\..\..\arduinoLCD\test\Pain Drain\libraries\lvgl\src\misc/lv_async.c **** 
  10:..\..\..\arduinoLCD\test\Pain Drain\libraries\lvgl\src\misc/lv_async.c **** #include "lv_async.h"
  11:..\..\..\arduinoLCD\test\Pain Drain\libraries\lvgl\src\misc/lv_async.c **** #include "lv_mem.h"
  12:..\..\..\arduinoLCD\test\Pain Drain\libraries\lvgl\src\misc/lv_async.c **** #include "lv_timer.h"
  13:..\..\..\arduinoLCD\test\Pain Drain\libraries\lvgl\src\misc/lv_async.c **** 
  14:..\..\..\arduinoLCD\test\Pain Drain\libraries\lvgl\src\misc/lv_async.c **** /*********************
  15:..\..\..\arduinoLCD\test\Pain Drain\libraries\lvgl\src\misc/lv_async.c ****  *      DEFINES
  16:..\..\..\arduinoLCD\test\Pain Drain\libraries\lvgl\src\misc/lv_async.c ****  *********************/
  17:..\..\..\arduinoLCD\test\Pain Drain\libraries\lvgl\src\misc/lv_async.c **** 
  18:..\..\..\arduinoLCD\test\Pain Drain\libraries\lvgl\src\misc/lv_async.c **** /**********************
  19:..\..\..\arduinoLCD\test\Pain Drain\libraries\lvgl\src\misc/lv_async.c ****  *      TYPEDEFS
  20:..\..\..\arduinoLCD\test\Pain Drain\libraries\lvgl\src\misc/lv_async.c ****  **********************/
  21:..\..\..\arduinoLCD\test\Pain Drain\libraries\lvgl\src\misc/lv_async.c **** 
  22:..\..\..\arduinoLCD\test\Pain Drain\libraries\lvgl\src\misc/lv_async.c **** typedef struct _lv_async_info_t {
  23:..\..\..\arduinoLCD\test\Pain Drain\libraries\lvgl\src\misc/lv_async.c ****     lv_async_cb_t cb;
  24:..\..\..\arduinoLCD\test\Pain Drain\libraries\lvgl\src\misc/lv_async.c ****     void * user_data;
  25:..\..\..\arduinoLCD\test\Pain Drain\libraries\lvgl\src\misc/lv_async.c **** } lv_async_info_t;
  26:..\..\..\arduinoLCD\test\Pain Drain\libraries\lvgl\src\misc/lv_async.c **** 
  27:..\..\..\arduinoLCD\test\Pain Drain\libraries\lvgl\src\misc/lv_async.c **** /**********************
  28:..\..\..\arduinoLCD\test\Pain Drain\libraries\lvgl\src\misc/lv_async.c ****  *  STATIC PROTOTYPES
  29:..\..\..\arduinoLCD\test\Pain Drain\libraries\lvgl\src\misc/lv_async.c ****  **********************/
  30:..\..\..\arduinoLCD\test\Pain Drain\libraries\lvgl\src\misc/lv_async.c **** 
  31:..\..\..\arduinoLCD\test\Pain Drain\libraries\lvgl\src\misc/lv_async.c **** static void lv_async_timer_cb(lv_timer_t * timer);
ARM GAS  C:\Users\haske\AppData\Local\Temp\ccwHV2LW.s 			page 2


  32:..\..\..\arduinoLCD\test\Pain Drain\libraries\lvgl\src\misc/lv_async.c **** 
  33:..\..\..\arduinoLCD\test\Pain Drain\libraries\lvgl\src\misc/lv_async.c **** /**********************
  34:..\..\..\arduinoLCD\test\Pain Drain\libraries\lvgl\src\misc/lv_async.c ****  *  STATIC VARIABLES
  35:..\..\..\arduinoLCD\test\Pain Drain\libraries\lvgl\src\misc/lv_async.c ****  **********************/
  36:..\..\..\arduinoLCD\test\Pain Drain\libraries\lvgl\src\misc/lv_async.c **** 
  37:..\..\..\arduinoLCD\test\Pain Drain\libraries\lvgl\src\misc/lv_async.c **** /**********************
  38:..\..\..\arduinoLCD\test\Pain Drain\libraries\lvgl\src\misc/lv_async.c ****  *      MACROS
  39:..\..\..\arduinoLCD\test\Pain Drain\libraries\lvgl\src\misc/lv_async.c ****  **********************/
  40:..\..\..\arduinoLCD\test\Pain Drain\libraries\lvgl\src\misc/lv_async.c **** 
  41:..\..\..\arduinoLCD\test\Pain Drain\libraries\lvgl\src\misc/lv_async.c **** /**********************
  42:..\..\..\arduinoLCD\test\Pain Drain\libraries\lvgl\src\misc/lv_async.c ****  *   GLOBAL FUNCTIONS
  43:..\..\..\arduinoLCD\test\Pain Drain\libraries\lvgl\src\misc/lv_async.c ****  **********************/
  44:..\..\..\arduinoLCD\test\Pain Drain\libraries\lvgl\src\misc/lv_async.c **** 
  45:..\..\..\arduinoLCD\test\Pain Drain\libraries\lvgl\src\misc/lv_async.c **** lv_res_t lv_async_call(lv_async_cb_t async_xcb, void * user_data)
  46:..\..\..\arduinoLCD\test\Pain Drain\libraries\lvgl\src\misc/lv_async.c **** {
  47:..\..\..\arduinoLCD\test\Pain Drain\libraries\lvgl\src\misc/lv_async.c ****     /*Allocate an info structure*/
  48:..\..\..\arduinoLCD\test\Pain Drain\libraries\lvgl\src\misc/lv_async.c ****     lv_async_info_t * info = lv_mem_alloc(sizeof(lv_async_info_t));
  49:..\..\..\arduinoLCD\test\Pain Drain\libraries\lvgl\src\misc/lv_async.c **** 
  50:..\..\..\arduinoLCD\test\Pain Drain\libraries\lvgl\src\misc/lv_async.c ****     if(info == NULL)
  51:..\..\..\arduinoLCD\test\Pain Drain\libraries\lvgl\src\misc/lv_async.c ****         return LV_RES_INV;
  52:..\..\..\arduinoLCD\test\Pain Drain\libraries\lvgl\src\misc/lv_async.c **** 
  53:..\..\..\arduinoLCD\test\Pain Drain\libraries\lvgl\src\misc/lv_async.c ****     /*Create a new timer*/
  54:..\..\..\arduinoLCD\test\Pain Drain\libraries\lvgl\src\misc/lv_async.c ****     lv_timer_t * timer = lv_timer_create(lv_async_timer_cb, 0, info);
  55:..\..\..\arduinoLCD\test\Pain Drain\libraries\lvgl\src\misc/lv_async.c **** 
  56:..\..\..\arduinoLCD\test\Pain Drain\libraries\lvgl\src\misc/lv_async.c ****     if(timer == NULL) {
  57:..\..\..\arduinoLCD\test\Pain Drain\libraries\lvgl\src\misc/lv_async.c ****         lv_mem_free(info);
  58:..\..\..\arduinoLCD\test\Pain Drain\libraries\lvgl\src\misc/lv_async.c ****         return LV_RES_INV;
  59:..\..\..\arduinoLCD\test\Pain Drain\libraries\lvgl\src\misc/lv_async.c ****     }
  60:..\..\..\arduinoLCD\test\Pain Drain\libraries\lvgl\src\misc/lv_async.c **** 
  61:..\..\..\arduinoLCD\test\Pain Drain\libraries\lvgl\src\misc/lv_async.c ****     info->cb = async_xcb;
  62:..\..\..\arduinoLCD\test\Pain Drain\libraries\lvgl\src\misc/lv_async.c ****     info->user_data = user_data;
  63:..\..\..\arduinoLCD\test\Pain Drain\libraries\lvgl\src\misc/lv_async.c **** 
  64:..\..\..\arduinoLCD\test\Pain Drain\libraries\lvgl\src\misc/lv_async.c ****     lv_timer_set_repeat_count(timer, 1);
  65:..\..\..\arduinoLCD\test\Pain Drain\libraries\lvgl\src\misc/lv_async.c ****     return LV_RES_OK;
  66:..\..\..\arduinoLCD\test\Pain Drain\libraries\lvgl\src\misc/lv_async.c **** }
  67:..\..\..\arduinoLCD\test\Pain Drain\libraries\lvgl\src\misc/lv_async.c **** 
  68:..\..\..\arduinoLCD\test\Pain Drain\libraries\lvgl\src\misc/lv_async.c **** lv_res_t lv_async_call_cancel(lv_async_cb_t async_xcb, void * user_data)
  69:..\..\..\arduinoLCD\test\Pain Drain\libraries\lvgl\src\misc/lv_async.c **** {
  70:..\..\..\arduinoLCD\test\Pain Drain\libraries\lvgl\src\misc/lv_async.c ****     lv_timer_t * timer = lv_timer_get_next(NULL);
  71:..\..\..\arduinoLCD\test\Pain Drain\libraries\lvgl\src\misc/lv_async.c ****     lv_res_t res = LV_RES_INV;
  72:..\..\..\arduinoLCD\test\Pain Drain\libraries\lvgl\src\misc/lv_async.c **** 
  73:..\..\..\arduinoLCD\test\Pain Drain\libraries\lvgl\src\misc/lv_async.c ****     while(timer != NULL) {
  74:..\..\..\arduinoLCD\test\Pain Drain\libraries\lvgl\src\misc/lv_async.c ****         /*Find the next timer node*/
  75:..\..\..\arduinoLCD\test\Pain Drain\libraries\lvgl\src\misc/lv_async.c ****         lv_timer_t * timer_next = lv_timer_get_next(timer);
  76:..\..\..\arduinoLCD\test\Pain Drain\libraries\lvgl\src\misc/lv_async.c **** 
  77:..\..\..\arduinoLCD\test\Pain Drain\libraries\lvgl\src\misc/lv_async.c ****         /*Find async timer callback*/
  78:..\..\..\arduinoLCD\test\Pain Drain\libraries\lvgl\src\misc/lv_async.c ****         if(timer->timer_cb == lv_async_timer_cb) {
  79:..\..\..\arduinoLCD\test\Pain Drain\libraries\lvgl\src\misc/lv_async.c ****             lv_async_info_t * info = (lv_async_info_t *)timer->user_data;
  80:..\..\..\arduinoLCD\test\Pain Drain\libraries\lvgl\src\misc/lv_async.c **** 
  81:..\..\..\arduinoLCD\test\Pain Drain\libraries\lvgl\src\misc/lv_async.c ****             /*Match user function callback and user data*/
  82:..\..\..\arduinoLCD\test\Pain Drain\libraries\lvgl\src\misc/lv_async.c ****             if(info->cb == async_xcb && info->user_data == user_data) {
  83:..\..\..\arduinoLCD\test\Pain Drain\libraries\lvgl\src\misc/lv_async.c ****                 lv_timer_del(timer);
  84:..\..\..\arduinoLCD\test\Pain Drain\libraries\lvgl\src\misc/lv_async.c ****                 lv_mem_free(info);
  85:..\..\..\arduinoLCD\test\Pain Drain\libraries\lvgl\src\misc/lv_async.c ****                 res = LV_RES_OK;
  86:..\..\..\arduinoLCD\test\Pain Drain\libraries\lvgl\src\misc/lv_async.c ****             }
  87:..\..\..\arduinoLCD\test\Pain Drain\libraries\lvgl\src\misc/lv_async.c ****         }
  88:..\..\..\arduinoLCD\test\Pain Drain\libraries\lvgl\src\misc/lv_async.c **** 
ARM GAS  C:\Users\haske\AppData\Local\Temp\ccwHV2LW.s 			page 3


  89:..\..\..\arduinoLCD\test\Pain Drain\libraries\lvgl\src\misc/lv_async.c ****         timer = timer_next;
  90:..\..\..\arduinoLCD\test\Pain Drain\libraries\lvgl\src\misc/lv_async.c ****     }
  91:..\..\..\arduinoLCD\test\Pain Drain\libraries\lvgl\src\misc/lv_async.c **** 
  92:..\..\..\arduinoLCD\test\Pain Drain\libraries\lvgl\src\misc/lv_async.c ****     return res;
  93:..\..\..\arduinoLCD\test\Pain Drain\libraries\lvgl\src\misc/lv_async.c **** }
  94:..\..\..\arduinoLCD\test\Pain Drain\libraries\lvgl\src\misc/lv_async.c **** 
  95:..\..\..\arduinoLCD\test\Pain Drain\libraries\lvgl\src\misc/lv_async.c **** /**********************
  96:..\..\..\arduinoLCD\test\Pain Drain\libraries\lvgl\src\misc/lv_async.c ****  *   STATIC FUNCTIONS
  97:..\..\..\arduinoLCD\test\Pain Drain\libraries\lvgl\src\misc/lv_async.c ****  **********************/
  98:..\..\..\arduinoLCD\test\Pain Drain\libraries\lvgl\src\misc/lv_async.c **** 
  99:..\..\..\arduinoLCD\test\Pain Drain\libraries\lvgl\src\misc/lv_async.c **** static void lv_async_timer_cb(lv_timer_t * timer)
 100:..\..\..\arduinoLCD\test\Pain Drain\libraries\lvgl\src\misc/lv_async.c **** {
  27              		.loc 1 100 0
  28              		.cfi_startproc
  29              		@ args = 0, pretend = 0, frame = 0
  30              		@ frame_needed = 0, uses_anonymous_args = 0
  31              	.LVL0:
  32 0000 10B5     		push	{r4, lr}
  33              		.cfi_def_cfa_offset 8
  34              		.cfi_offset 4, -8
  35              		.cfi_offset 14, -4
 101:..\..\..\arduinoLCD\test\Pain Drain\libraries\lvgl\src\misc/lv_async.c ****     lv_async_info_t * info = (lv_async_info_t *)timer->user_data;
  36              		.loc 1 101 0
  37 0002 C468     		ldr	r4, [r0, #12]
  38              	.LVL1:
 102:..\..\..\arduinoLCD\test\Pain Drain\libraries\lvgl\src\misc/lv_async.c **** 
 103:..\..\..\arduinoLCD\test\Pain Drain\libraries\lvgl\src\misc/lv_async.c ****     info->cb(info->user_data);
  39              		.loc 1 103 0
  40 0004 6068     		ldr	r0, [r4, #4]
  41              	.LVL2:
  42 0006 2368     		ldr	r3, [r4]
  43 0008 9847     		blx	r3
  44              	.LVL3:
 104:..\..\..\arduinoLCD\test\Pain Drain\libraries\lvgl\src\misc/lv_async.c ****     lv_mem_free(info);
  45              		.loc 1 104 0
  46 000a 2000     		movs	r0, r4
  47 000c FFF7FEFF 		bl	lv_mem_free
  48              	.LVL4:
 105:..\..\..\arduinoLCD\test\Pain Drain\libraries\lvgl\src\misc/lv_async.c **** }
  49              		.loc 1 105 0
  50              		@ sp needed
  51              	.LVL5:
  52 0010 10BD     		pop	{r4, pc}
  53              		.cfi_endproc
  54              	.LFE4:
  55              		.size	lv_async_timer_cb, .-lv_async_timer_cb
  56 0012 C046     		.section	.text.lv_async_call,"ax",%progbits
  57              		.align	2
  58              		.global	lv_async_call
  59              		.code	16
  60              		.thumb_func
  61              		.type	lv_async_call, %function
  62              	lv_async_call:
  63              	.LFB2:
  46:..\..\..\arduinoLCD\test\Pain Drain\libraries\lvgl\src\misc/lv_async.c ****     /*Allocate an info structure*/
  64              		.loc 1 46 0
  65              		.cfi_startproc
ARM GAS  C:\Users\haske\AppData\Local\Temp\ccwHV2LW.s 			page 4


  66              		@ args = 0, pretend = 0, frame = 0
  67              		@ frame_needed = 0, uses_anonymous_args = 0
  68              	.LVL6:
  69 0000 70B5     		push	{r4, r5, r6, lr}
  70              		.cfi_def_cfa_offset 16
  71              		.cfi_offset 4, -16
  72              		.cfi_offset 5, -12
  73              		.cfi_offset 6, -8
  74              		.cfi_offset 14, -4
  75 0002 0600     		movs	r6, r0
  76 0004 0D00     		movs	r5, r1
  48:..\..\..\arduinoLCD\test\Pain Drain\libraries\lvgl\src\misc/lv_async.c **** 
  77              		.loc 1 48 0
  78 0006 0820     		movs	r0, #8
  79              	.LVL7:
  80 0008 FFF7FEFF 		bl	lv_mem_alloc
  81              	.LVL8:
  82 000c 041E     		subs	r4, r0, #0
  83              	.LVL9:
  50:..\..\..\arduinoLCD\test\Pain Drain\libraries\lvgl\src\misc/lv_async.c ****         return LV_RES_INV;
  84              		.loc 1 50 0
  85 000e 12D0     		beq	.L5
  54:..\..\..\arduinoLCD\test\Pain Drain\libraries\lvgl\src\misc/lv_async.c **** 
  86              		.loc 1 54 0
  87 0010 0200     		movs	r2, r0
  88 0012 0021     		movs	r1, #0
  89 0014 0948     		ldr	r0, .L6
  90              	.LVL10:
  91 0016 FFF7FEFF 		bl	lv_timer_create
  92              	.LVL11:
  56:..\..\..\arduinoLCD\test\Pain Drain\libraries\lvgl\src\misc/lv_async.c ****         lv_mem_free(info);
  93              		.loc 1 56 0
  94 001a 0028     		cmp	r0, #0
  95 001c 04D1     		bne	.L4
  57:..\..\..\arduinoLCD\test\Pain Drain\libraries\lvgl\src\misc/lv_async.c ****         return LV_RES_INV;
  96              		.loc 1 57 0
  97 001e 2000     		movs	r0, r4
  98              	.LVL12:
  99 0020 FFF7FEFF 		bl	lv_mem_free
 100              	.LVL13:
  58:..\..\..\arduinoLCD\test\Pain Drain\libraries\lvgl\src\misc/lv_async.c ****     }
 101              		.loc 1 58 0
 102 0024 0020     		movs	r0, #0
 103 0026 07E0     		b	.L3
 104              	.LVL14:
 105              	.L4:
  61:..\..\..\arduinoLCD\test\Pain Drain\libraries\lvgl\src\misc/lv_async.c ****     info->user_data = user_data;
 106              		.loc 1 61 0
 107 0028 2660     		str	r6, [r4]
  62:..\..\..\arduinoLCD\test\Pain Drain\libraries\lvgl\src\misc/lv_async.c **** 
 108              		.loc 1 62 0
 109 002a 6560     		str	r5, [r4, #4]
  64:..\..\..\arduinoLCD\test\Pain Drain\libraries\lvgl\src\misc/lv_async.c ****     return LV_RES_OK;
 110              		.loc 1 64 0
 111 002c 0121     		movs	r1, #1
 112 002e FFF7FEFF 		bl	lv_timer_set_repeat_count
 113              	.LVL15:
ARM GAS  C:\Users\haske\AppData\Local\Temp\ccwHV2LW.s 			page 5


  65:..\..\..\arduinoLCD\test\Pain Drain\libraries\lvgl\src\misc/lv_async.c **** }
 114              		.loc 1 65 0
 115 0032 0120     		movs	r0, #1
 116 0034 00E0     		b	.L3
 117              	.LVL16:
 118              	.L5:
  51:..\..\..\arduinoLCD\test\Pain Drain\libraries\lvgl\src\misc/lv_async.c **** 
 119              		.loc 1 51 0
 120 0036 0020     		movs	r0, #0
 121              	.LVL17:
 122              	.L3:
  66:..\..\..\arduinoLCD\test\Pain Drain\libraries\lvgl\src\misc/lv_async.c **** 
 123              		.loc 1 66 0
 124              		@ sp needed
 125              	.LVL18:
 126              	.LVL19:
 127              	.LVL20:
 128 0038 70BD     		pop	{r4, r5, r6, pc}
 129              	.L7:
 130 003a C046     		.align	2
 131              	.L6:
 132 003c 00000000 		.word	lv_async_timer_cb
 133              		.cfi_endproc
 134              	.LFE2:
 135              		.size	lv_async_call, .-lv_async_call
 136              		.section	.text.lv_async_call_cancel,"ax",%progbits
 137              		.align	2
 138              		.global	lv_async_call_cancel
 139              		.code	16
 140              		.thumb_func
 141              		.type	lv_async_call_cancel, %function
 142              	lv_async_call_cancel:
 143              	.LFB3:
  69:..\..\..\arduinoLCD\test\Pain Drain\libraries\lvgl\src\misc/lv_async.c ****     lv_timer_t * timer = lv_timer_get_next(NULL);
 144              		.loc 1 69 0
 145              		.cfi_startproc
 146              		@ args = 0, pretend = 0, frame = 8
 147              		@ frame_needed = 0, uses_anonymous_args = 0
 148              	.LVL21:
 149 0000 F0B5     		push	{r4, r5, r6, r7, lr}
 150              		.cfi_def_cfa_offset 20
 151              		.cfi_offset 4, -20
 152              		.cfi_offset 5, -16
 153              		.cfi_offset 6, -12
 154              		.cfi_offset 7, -8
 155              		.cfi_offset 14, -4
 156 0002 83B0     		sub	sp, sp, #12
 157              		.cfi_def_cfa_offset 32
 158 0004 0700     		movs	r7, r0
 159 0006 0191     		str	r1, [sp, #4]
  70:..\..\..\arduinoLCD\test\Pain Drain\libraries\lvgl\src\misc/lv_async.c ****     lv_res_t res = LV_RES_INV;
 160              		.loc 1 70 0
 161 0008 0020     		movs	r0, #0
 162              	.LVL22:
 163 000a FFF7FEFF 		bl	lv_timer_get_next
 164              	.LVL23:
 165 000e 0400     		movs	r4, r0
ARM GAS  C:\Users\haske\AppData\Local\Temp\ccwHV2LW.s 			page 6


 166              	.LVL24:
  71:..\..\..\arduinoLCD\test\Pain Drain\libraries\lvgl\src\misc/lv_async.c **** 
 167              		.loc 1 71 0
 168 0010 0023     		movs	r3, #0
 169 0012 0093     		str	r3, [sp]
  73:..\..\..\arduinoLCD\test\Pain Drain\libraries\lvgl\src\misc/lv_async.c ****         /*Find the next timer node*/
 170              		.loc 1 73 0
 171 0014 18E0     		b	.L9
 172              	.LVL25:
 173              	.L11:
 174              	.LBB2:
  75:..\..\..\arduinoLCD\test\Pain Drain\libraries\lvgl\src\misc/lv_async.c **** 
 175              		.loc 1 75 0
 176 0016 2000     		movs	r0, r4
 177 0018 FFF7FEFF 		bl	lv_timer_get_next
 178              	.LVL26:
 179 001c 0500     		movs	r5, r0
 180              	.LVL27:
  78:..\..\..\arduinoLCD\test\Pain Drain\libraries\lvgl\src\misc/lv_async.c ****             lv_async_info_t * info = (lv_async_info_t *)timer->user_data;
 181              		.loc 1 78 0
 182 001e 0D4B     		ldr	r3, .L12
 183 0020 A268     		ldr	r2, [r4, #8]
 184 0022 9A42     		cmp	r2, r3
 185 0024 0FD1     		bne	.L10
 186              	.LBB3:
  79:..\..\..\arduinoLCD\test\Pain Drain\libraries\lvgl\src\misc/lv_async.c **** 
 187              		.loc 1 79 0
 188 0026 E668     		ldr	r6, [r4, #12]
 189              	.LVL28:
  82:..\..\..\arduinoLCD\test\Pain Drain\libraries\lvgl\src\misc/lv_async.c ****                 lv_timer_del(timer);
 190              		.loc 1 82 0
 191 0028 3368     		ldr	r3, [r6]
 192 002a BB42     		cmp	r3, r7
 193 002c 0BD1     		bne	.L10
  82:..\..\..\arduinoLCD\test\Pain Drain\libraries\lvgl\src\misc/lv_async.c ****                 lv_timer_del(timer);
 194              		.loc 1 82 0 is_stmt 0 discriminator 1
 195 002e 7368     		ldr	r3, [r6, #4]
 196 0030 019A     		ldr	r2, [sp, #4]
 197 0032 9342     		cmp	r3, r2
 198 0034 07D1     		bne	.L10
  83:..\..\..\arduinoLCD\test\Pain Drain\libraries\lvgl\src\misc/lv_async.c ****                 lv_mem_free(info);
 199              		.loc 1 83 0 is_stmt 1
 200 0036 2000     		movs	r0, r4
 201              	.LVL29:
 202 0038 FFF7FEFF 		bl	lv_timer_del
 203              	.LVL30:
  84:..\..\..\arduinoLCD\test\Pain Drain\libraries\lvgl\src\misc/lv_async.c ****                 res = LV_RES_OK;
 204              		.loc 1 84 0
 205 003c 3000     		movs	r0, r6
 206 003e FFF7FEFF 		bl	lv_mem_free
 207              	.LVL31:
  85:..\..\..\arduinoLCD\test\Pain Drain\libraries\lvgl\src\misc/lv_async.c ****             }
 208              		.loc 1 85 0
 209 0042 0123     		movs	r3, #1
 210 0044 0093     		str	r3, [sp]
 211              	.LVL32:
 212              	.L10:
ARM GAS  C:\Users\haske\AppData\Local\Temp\ccwHV2LW.s 			page 7


 213 0046 2C00     		movs	r4, r5
 214              	.LVL33:
 215              	.L9:
 216              	.LBE3:
 217              	.LBE2:
  73:..\..\..\arduinoLCD\test\Pain Drain\libraries\lvgl\src\misc/lv_async.c ****         /*Find the next timer node*/
 218              		.loc 1 73 0
 219 0048 002C     		cmp	r4, #0
 220 004a E4D1     		bne	.L11
  93:..\..\..\arduinoLCD\test\Pain Drain\libraries\lvgl\src\misc/lv_async.c **** 
 221              		.loc 1 93 0
 222 004c 0098     		ldr	r0, [sp]
 223 004e 03B0     		add	sp, sp, #12
 224              	.LVL34:
 225              		@ sp needed
 226              	.LVL35:
 227              	.LVL36:
 228 0050 F0BD     		pop	{r4, r5, r6, r7, pc}
 229              	.L13:
 230 0052 C046     		.align	2
 231              	.L12:
 232 0054 00000000 		.word	lv_async_timer_cb
 233              		.cfi_endproc
 234              	.LFE3:
 235              		.size	lv_async_call_cancel, .-lv_async_call_cancel
 236              		.text
 237              	.Letext0:
 238              		.file 2 "c:\\program files (x86)\\cypress\\psoc creator\\4.4\\psoc creator\\import\\gnu\\arm\\5.4.
 239              		.file 3 "c:\\program files (x86)\\cypress\\psoc creator\\4.4\\psoc creator\\import\\gnu\\arm\\5.4.
 240              		.file 4 "..\\..\\..\\arduinoLCD\\test\\Pain Drain\\libraries\\lvgl\\src\\misc\\lv_types.h"
 241              		.file 5 "..\\..\\..\\arduinoLCD\\test\\Pain Drain\\libraries\\lvgl\\src\\misc\\lv_async.h"
 242              		.file 6 "..\\..\\..\\arduinoLCD\\test\\Pain Drain\\libraries\\lvgl\\src\\misc\\lv_timer.h"
 243              		.file 7 "..\\..\\..\\arduinoLCD\\test\\Pain Drain\\libraries\\lvgl\\src\\misc\\lv_mem.h"