ARM GAS  C:\Users\haske\AppData\Local\Temp\cc8C2ZcK.s 			page 1


   1              		.syntax unified
   2              		.cpu cortex-m0plus
   3              		.fpu softvfp
   4              		.eabi_attribute 20, 1
   5              		.eabi_attribute 21, 1
   6              		.eabi_attribute 23, 3
   7              		.eabi_attribute 24, 1
   8              		.eabi_attribute 25, 1
   9              		.eabi_attribute 26, 1
  10              		.eabi_attribute 30, 1
  11              		.eabi_attribute 34, 0
  12              		.eabi_attribute 18, 4
  13              		.thumb
  14              		.syntax unified
  15              		.file	"lv_area.c"
  16              		.text
  17              	.Ltext0:
  18              		.cfi_sections	.debug_frame
  19              		.section	.text.lv_point_within_circle,"ax",%progbits
  20              		.align	2
  21              		.code	16
  22              		.thumb_func
  23              		.type	lv_point_within_circle, %function
  24              	lv_point_within_circle:
  25              	.LFB21:
  26              		.file 1 "..\\..\\..\\arduinoLCD\\test\\Pain Drain\\libraries\\lvgl\\src\\misc\\lv_area.c"
   1:..\..\..\arduinoLCD\test\Pain Drain\libraries\lvgl\src\misc/lv_area.c **** /**
   2:..\..\..\arduinoLCD\test\Pain Drain\libraries\lvgl\src\misc/lv_area.c ****  * @file lv_area.c
   3:..\..\..\arduinoLCD\test\Pain Drain\libraries\lvgl\src\misc/lv_area.c ****  *
   4:..\..\..\arduinoLCD\test\Pain Drain\libraries\lvgl\src\misc/lv_area.c ****  */
   5:..\..\..\arduinoLCD\test\Pain Drain\libraries\lvgl\src\misc/lv_area.c **** 
   6:..\..\..\arduinoLCD\test\Pain Drain\libraries\lvgl\src\misc/lv_area.c **** /*********************
   7:..\..\..\arduinoLCD\test\Pain Drain\libraries\lvgl\src\misc/lv_area.c ****  *      INCLUDES
   8:..\..\..\arduinoLCD\test\Pain Drain\libraries\lvgl\src\misc/lv_area.c ****  *********************/
   9:..\..\..\arduinoLCD\test\Pain Drain\libraries\lvgl\src\misc/lv_area.c **** #include "../lv_conf_internal.h"
  10:..\..\..\arduinoLCD\test\Pain Drain\libraries\lvgl\src\misc/lv_area.c **** 
  11:..\..\..\arduinoLCD\test\Pain Drain\libraries\lvgl\src\misc/lv_area.c **** #include "lv_area.h"
  12:..\..\..\arduinoLCD\test\Pain Drain\libraries\lvgl\src\misc/lv_area.c **** #include "lv_math.h"
  13:..\..\..\arduinoLCD\test\Pain Drain\libraries\lvgl\src\misc/lv_area.c **** 
  14:..\..\..\arduinoLCD\test\Pain Drain\libraries\lvgl\src\misc/lv_area.c **** /*********************
  15:..\..\..\arduinoLCD\test\Pain Drain\libraries\lvgl\src\misc/lv_area.c ****  *      DEFINES
  16:..\..\..\arduinoLCD\test\Pain Drain\libraries\lvgl\src\misc/lv_area.c ****  *********************/
  17:..\..\..\arduinoLCD\test\Pain Drain\libraries\lvgl\src\misc/lv_area.c **** 
  18:..\..\..\arduinoLCD\test\Pain Drain\libraries\lvgl\src\misc/lv_area.c **** /**********************
  19:..\..\..\arduinoLCD\test\Pain Drain\libraries\lvgl\src\misc/lv_area.c ****  *      TYPEDEFS
  20:..\..\..\arduinoLCD\test\Pain Drain\libraries\lvgl\src\misc/lv_area.c ****  **********************/
  21:..\..\..\arduinoLCD\test\Pain Drain\libraries\lvgl\src\misc/lv_area.c **** 
  22:..\..\..\arduinoLCD\test\Pain Drain\libraries\lvgl\src\misc/lv_area.c **** /**********************
  23:..\..\..\arduinoLCD\test\Pain Drain\libraries\lvgl\src\misc/lv_area.c ****  *  STATIC PROTOTYPES
  24:..\..\..\arduinoLCD\test\Pain Drain\libraries\lvgl\src\misc/lv_area.c ****  **********************/
  25:..\..\..\arduinoLCD\test\Pain Drain\libraries\lvgl\src\misc/lv_area.c **** 
  26:..\..\..\arduinoLCD\test\Pain Drain\libraries\lvgl\src\misc/lv_area.c **** static bool lv_point_within_circle(const lv_area_t * area, const lv_point_t * p);
  27:..\..\..\arduinoLCD\test\Pain Drain\libraries\lvgl\src\misc/lv_area.c **** 
  28:..\..\..\arduinoLCD\test\Pain Drain\libraries\lvgl\src\misc/lv_area.c **** /**********************
  29:..\..\..\arduinoLCD\test\Pain Drain\libraries\lvgl\src\misc/lv_area.c ****  *  STATIC VARIABLES
  30:..\..\..\arduinoLCD\test\Pain Drain\libraries\lvgl\src\misc/lv_area.c ****  **********************/
  31:..\..\..\arduinoLCD\test\Pain Drain\libraries\lvgl\src\misc/lv_area.c **** 
ARM GAS  C:\Users\haske\AppData\Local\Temp\cc8C2ZcK.s 			page 2


  32:..\..\..\arduinoLCD\test\Pain Drain\libraries\lvgl\src\misc/lv_area.c **** /**********************
  33:..\..\..\arduinoLCD\test\Pain Drain\libraries\lvgl\src\misc/lv_area.c ****  *      MACROS
  34:..\..\..\arduinoLCD\test\Pain Drain\libraries\lvgl\src\misc/lv_area.c ****  **********************/
  35:..\..\..\arduinoLCD\test\Pain Drain\libraries\lvgl\src\misc/lv_area.c **** 
  36:..\..\..\arduinoLCD\test\Pain Drain\libraries\lvgl\src\misc/lv_area.c **** /**********************
  37:..\..\..\arduinoLCD\test\Pain Drain\libraries\lvgl\src\misc/lv_area.c ****  *   GLOBAL FUNCTIONS
  38:..\..\..\arduinoLCD\test\Pain Drain\libraries\lvgl\src\misc/lv_area.c ****  **********************/
  39:..\..\..\arduinoLCD\test\Pain Drain\libraries\lvgl\src\misc/lv_area.c **** 
  40:..\..\..\arduinoLCD\test\Pain Drain\libraries\lvgl\src\misc/lv_area.c **** /**
  41:..\..\..\arduinoLCD\test\Pain Drain\libraries\lvgl\src\misc/lv_area.c ****  * Initialize an area
  42:..\..\..\arduinoLCD\test\Pain Drain\libraries\lvgl\src\misc/lv_area.c ****  * @param area_p pointer to an area
  43:..\..\..\arduinoLCD\test\Pain Drain\libraries\lvgl\src\misc/lv_area.c ****  * @param x1 left coordinate of the area
  44:..\..\..\arduinoLCD\test\Pain Drain\libraries\lvgl\src\misc/lv_area.c ****  * @param y1 top coordinate of the area
  45:..\..\..\arduinoLCD\test\Pain Drain\libraries\lvgl\src\misc/lv_area.c ****  * @param x2 right coordinate of the area
  46:..\..\..\arduinoLCD\test\Pain Drain\libraries\lvgl\src\misc/lv_area.c ****  * @param y2 bottom coordinate of the area
  47:..\..\..\arduinoLCD\test\Pain Drain\libraries\lvgl\src\misc/lv_area.c ****  */
  48:..\..\..\arduinoLCD\test\Pain Drain\libraries\lvgl\src\misc/lv_area.c **** void lv_area_set(lv_area_t * area_p, lv_coord_t x1, lv_coord_t y1, lv_coord_t x2, lv_coord_t y2)
  49:..\..\..\arduinoLCD\test\Pain Drain\libraries\lvgl\src\misc/lv_area.c **** {
  50:..\..\..\arduinoLCD\test\Pain Drain\libraries\lvgl\src\misc/lv_area.c ****     area_p->x1 = x1;
  51:..\..\..\arduinoLCD\test\Pain Drain\libraries\lvgl\src\misc/lv_area.c ****     area_p->y1 = y1;
  52:..\..\..\arduinoLCD\test\Pain Drain\libraries\lvgl\src\misc/lv_area.c ****     area_p->x2 = x2;
  53:..\..\..\arduinoLCD\test\Pain Drain\libraries\lvgl\src\misc/lv_area.c ****     area_p->y2 = y2;
  54:..\..\..\arduinoLCD\test\Pain Drain\libraries\lvgl\src\misc/lv_area.c **** }
  55:..\..\..\arduinoLCD\test\Pain Drain\libraries\lvgl\src\misc/lv_area.c **** 
  56:..\..\..\arduinoLCD\test\Pain Drain\libraries\lvgl\src\misc/lv_area.c **** /**
  57:..\..\..\arduinoLCD\test\Pain Drain\libraries\lvgl\src\misc/lv_area.c ****  * Set the width of an area
  58:..\..\..\arduinoLCD\test\Pain Drain\libraries\lvgl\src\misc/lv_area.c ****  * @param area_p pointer to an area
  59:..\..\..\arduinoLCD\test\Pain Drain\libraries\lvgl\src\misc/lv_area.c ****  * @param w the new width of the area (w == 1 makes x1 == x2)
  60:..\..\..\arduinoLCD\test\Pain Drain\libraries\lvgl\src\misc/lv_area.c ****  */
  61:..\..\..\arduinoLCD\test\Pain Drain\libraries\lvgl\src\misc/lv_area.c **** void lv_area_set_width(lv_area_t * area_p, lv_coord_t w)
  62:..\..\..\arduinoLCD\test\Pain Drain\libraries\lvgl\src\misc/lv_area.c **** {
  63:..\..\..\arduinoLCD\test\Pain Drain\libraries\lvgl\src\misc/lv_area.c ****     area_p->x2 = area_p->x1 + w - 1;
  64:..\..\..\arduinoLCD\test\Pain Drain\libraries\lvgl\src\misc/lv_area.c **** }
  65:..\..\..\arduinoLCD\test\Pain Drain\libraries\lvgl\src\misc/lv_area.c **** 
  66:..\..\..\arduinoLCD\test\Pain Drain\libraries\lvgl\src\misc/lv_area.c **** /**
  67:..\..\..\arduinoLCD\test\Pain Drain\libraries\lvgl\src\misc/lv_area.c ****  * Set the height of an area
  68:..\..\..\arduinoLCD\test\Pain Drain\libraries\lvgl\src\misc/lv_area.c ****  * @param area_p pointer to an area
  69:..\..\..\arduinoLCD\test\Pain Drain\libraries\lvgl\src\misc/lv_area.c ****  * @param h the new height of the area (h == 1 makes y1 == y2)
  70:..\..\..\arduinoLCD\test\Pain Drain\libraries\lvgl\src\misc/lv_area.c ****  */
  71:..\..\..\arduinoLCD\test\Pain Drain\libraries\lvgl\src\misc/lv_area.c **** void lv_area_set_height(lv_area_t * area_p, lv_coord_t h)
  72:..\..\..\arduinoLCD\test\Pain Drain\libraries\lvgl\src\misc/lv_area.c **** {
  73:..\..\..\arduinoLCD\test\Pain Drain\libraries\lvgl\src\misc/lv_area.c ****     area_p->y2 = area_p->y1 + h - 1;
  74:..\..\..\arduinoLCD\test\Pain Drain\libraries\lvgl\src\misc/lv_area.c **** }
  75:..\..\..\arduinoLCD\test\Pain Drain\libraries\lvgl\src\misc/lv_area.c **** 
  76:..\..\..\arduinoLCD\test\Pain Drain\libraries\lvgl\src\misc/lv_area.c **** /**
  77:..\..\..\arduinoLCD\test\Pain Drain\libraries\lvgl\src\misc/lv_area.c ****  * Set the position of an area (width and height will be kept)
  78:..\..\..\arduinoLCD\test\Pain Drain\libraries\lvgl\src\misc/lv_area.c ****  * @param area_p pointer to an area
  79:..\..\..\arduinoLCD\test\Pain Drain\libraries\lvgl\src\misc/lv_area.c ****  * @param x the new x coordinate of the area
  80:..\..\..\arduinoLCD\test\Pain Drain\libraries\lvgl\src\misc/lv_area.c ****  * @param y the new y coordinate of the area
  81:..\..\..\arduinoLCD\test\Pain Drain\libraries\lvgl\src\misc/lv_area.c ****  */
  82:..\..\..\arduinoLCD\test\Pain Drain\libraries\lvgl\src\misc/lv_area.c **** void _lv_area_set_pos(lv_area_t * area_p, lv_coord_t x, lv_coord_t y)
  83:..\..\..\arduinoLCD\test\Pain Drain\libraries\lvgl\src\misc/lv_area.c **** {
  84:..\..\..\arduinoLCD\test\Pain Drain\libraries\lvgl\src\misc/lv_area.c ****     lv_coord_t w = lv_area_get_width(area_p);
  85:..\..\..\arduinoLCD\test\Pain Drain\libraries\lvgl\src\misc/lv_area.c ****     lv_coord_t h = lv_area_get_height(area_p);
  86:..\..\..\arduinoLCD\test\Pain Drain\libraries\lvgl\src\misc/lv_area.c ****     area_p->x1   = x;
  87:..\..\..\arduinoLCD\test\Pain Drain\libraries\lvgl\src\misc/lv_area.c ****     area_p->y1   = y;
  88:..\..\..\arduinoLCD\test\Pain Drain\libraries\lvgl\src\misc/lv_area.c ****     lv_area_set_width(area_p, w);
ARM GAS  C:\Users\haske\AppData\Local\Temp\cc8C2ZcK.s 			page 3


  89:..\..\..\arduinoLCD\test\Pain Drain\libraries\lvgl\src\misc/lv_area.c ****     lv_area_set_height(area_p, h);
  90:..\..\..\arduinoLCD\test\Pain Drain\libraries\lvgl\src\misc/lv_area.c **** }
  91:..\..\..\arduinoLCD\test\Pain Drain\libraries\lvgl\src\misc/lv_area.c **** 
  92:..\..\..\arduinoLCD\test\Pain Drain\libraries\lvgl\src\misc/lv_area.c **** /**
  93:..\..\..\arduinoLCD\test\Pain Drain\libraries\lvgl\src\misc/lv_area.c ****  * Return with area of an area (x * y)
  94:..\..\..\arduinoLCD\test\Pain Drain\libraries\lvgl\src\misc/lv_area.c ****  * @param area_p pointer to an area
  95:..\..\..\arduinoLCD\test\Pain Drain\libraries\lvgl\src\misc/lv_area.c ****  * @return size of area
  96:..\..\..\arduinoLCD\test\Pain Drain\libraries\lvgl\src\misc/lv_area.c ****  */
  97:..\..\..\arduinoLCD\test\Pain Drain\libraries\lvgl\src\misc/lv_area.c **** uint32_t lv_area_get_size(const lv_area_t * area_p)
  98:..\..\..\arduinoLCD\test\Pain Drain\libraries\lvgl\src\misc/lv_area.c **** {
  99:..\..\..\arduinoLCD\test\Pain Drain\libraries\lvgl\src\misc/lv_area.c ****     uint32_t size;
 100:..\..\..\arduinoLCD\test\Pain Drain\libraries\lvgl\src\misc/lv_area.c **** 
 101:..\..\..\arduinoLCD\test\Pain Drain\libraries\lvgl\src\misc/lv_area.c ****     size = (uint32_t)(area_p->x2 - area_p->x1 + 1) * (area_p->y2 - area_p->y1 + 1);
 102:..\..\..\arduinoLCD\test\Pain Drain\libraries\lvgl\src\misc/lv_area.c **** 
 103:..\..\..\arduinoLCD\test\Pain Drain\libraries\lvgl\src\misc/lv_area.c ****     return size;
 104:..\..\..\arduinoLCD\test\Pain Drain\libraries\lvgl\src\misc/lv_area.c **** }
 105:..\..\..\arduinoLCD\test\Pain Drain\libraries\lvgl\src\misc/lv_area.c **** 
 106:..\..\..\arduinoLCD\test\Pain Drain\libraries\lvgl\src\misc/lv_area.c **** void lv_area_increase(lv_area_t * area, lv_coord_t w_extra, lv_coord_t h_extra)
 107:..\..\..\arduinoLCD\test\Pain Drain\libraries\lvgl\src\misc/lv_area.c **** {
 108:..\..\..\arduinoLCD\test\Pain Drain\libraries\lvgl\src\misc/lv_area.c ****     area->x1 -= w_extra;
 109:..\..\..\arduinoLCD\test\Pain Drain\libraries\lvgl\src\misc/lv_area.c ****     area->x2 += w_extra;
 110:..\..\..\arduinoLCD\test\Pain Drain\libraries\lvgl\src\misc/lv_area.c ****     area->y1 -= h_extra;
 111:..\..\..\arduinoLCD\test\Pain Drain\libraries\lvgl\src\misc/lv_area.c ****     area->y2 += h_extra;
 112:..\..\..\arduinoLCD\test\Pain Drain\libraries\lvgl\src\misc/lv_area.c **** }
 113:..\..\..\arduinoLCD\test\Pain Drain\libraries\lvgl\src\misc/lv_area.c **** 
 114:..\..\..\arduinoLCD\test\Pain Drain\libraries\lvgl\src\misc/lv_area.c **** void lv_area_move(lv_area_t * area, lv_coord_t x_ofs, lv_coord_t y_ofs)
 115:..\..\..\arduinoLCD\test\Pain Drain\libraries\lvgl\src\misc/lv_area.c **** {
 116:..\..\..\arduinoLCD\test\Pain Drain\libraries\lvgl\src\misc/lv_area.c ****     area->x1 += x_ofs;
 117:..\..\..\arduinoLCD\test\Pain Drain\libraries\lvgl\src\misc/lv_area.c ****     area->x2 += x_ofs;
 118:..\..\..\arduinoLCD\test\Pain Drain\libraries\lvgl\src\misc/lv_area.c ****     area->y1 += y_ofs;
 119:..\..\..\arduinoLCD\test\Pain Drain\libraries\lvgl\src\misc/lv_area.c ****     area->y2 += y_ofs;
 120:..\..\..\arduinoLCD\test\Pain Drain\libraries\lvgl\src\misc/lv_area.c **** }
 121:..\..\..\arduinoLCD\test\Pain Drain\libraries\lvgl\src\misc/lv_area.c **** 
 122:..\..\..\arduinoLCD\test\Pain Drain\libraries\lvgl\src\misc/lv_area.c **** /**
 123:..\..\..\arduinoLCD\test\Pain Drain\libraries\lvgl\src\misc/lv_area.c ****  * Get the common parts of two areas
 124:..\..\..\arduinoLCD\test\Pain Drain\libraries\lvgl\src\misc/lv_area.c ****  * @param res_p pointer to an area, the result will be stored here
 125:..\..\..\arduinoLCD\test\Pain Drain\libraries\lvgl\src\misc/lv_area.c ****  * @param a1_p pointer to the first area
 126:..\..\..\arduinoLCD\test\Pain Drain\libraries\lvgl\src\misc/lv_area.c ****  * @param a2_p pointer to the second area
 127:..\..\..\arduinoLCD\test\Pain Drain\libraries\lvgl\src\misc/lv_area.c ****  * @return false: the two area has NO common parts, res_p is invalid
 128:..\..\..\arduinoLCD\test\Pain Drain\libraries\lvgl\src\misc/lv_area.c ****  */
 129:..\..\..\arduinoLCD\test\Pain Drain\libraries\lvgl\src\misc/lv_area.c **** bool _lv_area_intersect(lv_area_t * res_p, const lv_area_t * a1_p, const lv_area_t * a2_p)
 130:..\..\..\arduinoLCD\test\Pain Drain\libraries\lvgl\src\misc/lv_area.c **** {
 131:..\..\..\arduinoLCD\test\Pain Drain\libraries\lvgl\src\misc/lv_area.c ****     /*Get the smaller area from 'a1_p' and 'a2_p'*/
 132:..\..\..\arduinoLCD\test\Pain Drain\libraries\lvgl\src\misc/lv_area.c ****     res_p->x1 = LV_MAX(a1_p->x1, a2_p->x1);
 133:..\..\..\arduinoLCD\test\Pain Drain\libraries\lvgl\src\misc/lv_area.c ****     res_p->y1 = LV_MAX(a1_p->y1, a2_p->y1);
 134:..\..\..\arduinoLCD\test\Pain Drain\libraries\lvgl\src\misc/lv_area.c ****     res_p->x2 = LV_MIN(a1_p->x2, a2_p->x2);
 135:..\..\..\arduinoLCD\test\Pain Drain\libraries\lvgl\src\misc/lv_area.c ****     res_p->y2 = LV_MIN(a1_p->y2, a2_p->y2);
 136:..\..\..\arduinoLCD\test\Pain Drain\libraries\lvgl\src\misc/lv_area.c **** 
 137:..\..\..\arduinoLCD\test\Pain Drain\libraries\lvgl\src\misc/lv_area.c ****     /*If x1 or y1 greater than x2 or y2 then the areas union is empty*/
 138:..\..\..\arduinoLCD\test\Pain Drain\libraries\lvgl\src\misc/lv_area.c ****     bool union_ok = true;
 139:..\..\..\arduinoLCD\test\Pain Drain\libraries\lvgl\src\misc/lv_area.c ****     if((res_p->x1 > res_p->x2) || (res_p->y1 > res_p->y2)) {
 140:..\..\..\arduinoLCD\test\Pain Drain\libraries\lvgl\src\misc/lv_area.c ****         union_ok = false;
 141:..\..\..\arduinoLCD\test\Pain Drain\libraries\lvgl\src\misc/lv_area.c ****     }
 142:..\..\..\arduinoLCD\test\Pain Drain\libraries\lvgl\src\misc/lv_area.c **** 
 143:..\..\..\arduinoLCD\test\Pain Drain\libraries\lvgl\src\misc/lv_area.c ****     return union_ok;
 144:..\..\..\arduinoLCD\test\Pain Drain\libraries\lvgl\src\misc/lv_area.c **** }
 145:..\..\..\arduinoLCD\test\Pain Drain\libraries\lvgl\src\misc/lv_area.c **** 
ARM GAS  C:\Users\haske\AppData\Local\Temp\cc8C2ZcK.s 			page 4


 146:..\..\..\arduinoLCD\test\Pain Drain\libraries\lvgl\src\misc/lv_area.c **** /**
 147:..\..\..\arduinoLCD\test\Pain Drain\libraries\lvgl\src\misc/lv_area.c ****  * Join two areas into a third which involves the other two
 148:..\..\..\arduinoLCD\test\Pain Drain\libraries\lvgl\src\misc/lv_area.c ****  * @param res_p pointer to an area, the result will be stored here
 149:..\..\..\arduinoLCD\test\Pain Drain\libraries\lvgl\src\misc/lv_area.c ****  * @param a1_p pointer to the first area
 150:..\..\..\arduinoLCD\test\Pain Drain\libraries\lvgl\src\misc/lv_area.c ****  * @param a2_p pointer to the second area
 151:..\..\..\arduinoLCD\test\Pain Drain\libraries\lvgl\src\misc/lv_area.c ****  */
 152:..\..\..\arduinoLCD\test\Pain Drain\libraries\lvgl\src\misc/lv_area.c **** void _lv_area_join(lv_area_t * a_res_p, const lv_area_t * a1_p, const lv_area_t * a2_p)
 153:..\..\..\arduinoLCD\test\Pain Drain\libraries\lvgl\src\misc/lv_area.c **** {
 154:..\..\..\arduinoLCD\test\Pain Drain\libraries\lvgl\src\misc/lv_area.c ****     a_res_p->x1 = LV_MIN(a1_p->x1, a2_p->x1);
 155:..\..\..\arduinoLCD\test\Pain Drain\libraries\lvgl\src\misc/lv_area.c ****     a_res_p->y1 = LV_MIN(a1_p->y1, a2_p->y1);
 156:..\..\..\arduinoLCD\test\Pain Drain\libraries\lvgl\src\misc/lv_area.c ****     a_res_p->x2 = LV_MAX(a1_p->x2, a2_p->x2);
 157:..\..\..\arduinoLCD\test\Pain Drain\libraries\lvgl\src\misc/lv_area.c ****     a_res_p->y2 = LV_MAX(a1_p->y2, a2_p->y2);
 158:..\..\..\arduinoLCD\test\Pain Drain\libraries\lvgl\src\misc/lv_area.c **** }
 159:..\..\..\arduinoLCD\test\Pain Drain\libraries\lvgl\src\misc/lv_area.c **** 
 160:..\..\..\arduinoLCD\test\Pain Drain\libraries\lvgl\src\misc/lv_area.c **** /**
 161:..\..\..\arduinoLCD\test\Pain Drain\libraries\lvgl\src\misc/lv_area.c ****  * Check if a point is on an area
 162:..\..\..\arduinoLCD\test\Pain Drain\libraries\lvgl\src\misc/lv_area.c ****  * @param a_p pointer to an area
 163:..\..\..\arduinoLCD\test\Pain Drain\libraries\lvgl\src\misc/lv_area.c ****  * @param p_p pointer to a point
 164:..\..\..\arduinoLCD\test\Pain Drain\libraries\lvgl\src\misc/lv_area.c ****  * @param radius radius of area (e.g. for rounded rectangle)
 165:..\..\..\arduinoLCD\test\Pain Drain\libraries\lvgl\src\misc/lv_area.c ****  * @return false:the point is out of the area
 166:..\..\..\arduinoLCD\test\Pain Drain\libraries\lvgl\src\misc/lv_area.c ****  */
 167:..\..\..\arduinoLCD\test\Pain Drain\libraries\lvgl\src\misc/lv_area.c **** bool _lv_area_is_point_on(const lv_area_t * a_p, const lv_point_t * p_p, lv_coord_t radius)
 168:..\..\..\arduinoLCD\test\Pain Drain\libraries\lvgl\src\misc/lv_area.c **** {
 169:..\..\..\arduinoLCD\test\Pain Drain\libraries\lvgl\src\misc/lv_area.c ****     /*First check the basic area*/
 170:..\..\..\arduinoLCD\test\Pain Drain\libraries\lvgl\src\misc/lv_area.c ****     bool is_on_rect = false;
 171:..\..\..\arduinoLCD\test\Pain Drain\libraries\lvgl\src\misc/lv_area.c ****     if((p_p->x >= a_p->x1 && p_p->x <= a_p->x2) && ((p_p->y >= a_p->y1 && p_p->y <= a_p->y2))) {
 172:..\..\..\arduinoLCD\test\Pain Drain\libraries\lvgl\src\misc/lv_area.c ****         is_on_rect = true;
 173:..\..\..\arduinoLCD\test\Pain Drain\libraries\lvgl\src\misc/lv_area.c ****     }
 174:..\..\..\arduinoLCD\test\Pain Drain\libraries\lvgl\src\misc/lv_area.c ****     if(!is_on_rect)
 175:..\..\..\arduinoLCD\test\Pain Drain\libraries\lvgl\src\misc/lv_area.c ****         return false;
 176:..\..\..\arduinoLCD\test\Pain Drain\libraries\lvgl\src\misc/lv_area.c ****     /*Now handle potential rounded rectangles*/
 177:..\..\..\arduinoLCD\test\Pain Drain\libraries\lvgl\src\misc/lv_area.c ****     if(radius <= 0) {
 178:..\..\..\arduinoLCD\test\Pain Drain\libraries\lvgl\src\misc/lv_area.c ****         /*No radius, it is within the rectangle*/
 179:..\..\..\arduinoLCD\test\Pain Drain\libraries\lvgl\src\misc/lv_area.c ****         return true;
 180:..\..\..\arduinoLCD\test\Pain Drain\libraries\lvgl\src\misc/lv_area.c ****     }
 181:..\..\..\arduinoLCD\test\Pain Drain\libraries\lvgl\src\misc/lv_area.c ****     lv_coord_t w = lv_area_get_width(a_p) / 2;
 182:..\..\..\arduinoLCD\test\Pain Drain\libraries\lvgl\src\misc/lv_area.c ****     lv_coord_t h = lv_area_get_height(a_p) / 2;
 183:..\..\..\arduinoLCD\test\Pain Drain\libraries\lvgl\src\misc/lv_area.c ****     lv_coord_t max_radius = LV_MIN(w, h);
 184:..\..\..\arduinoLCD\test\Pain Drain\libraries\lvgl\src\misc/lv_area.c ****     if(radius > max_radius)
 185:..\..\..\arduinoLCD\test\Pain Drain\libraries\lvgl\src\misc/lv_area.c ****         radius = max_radius;
 186:..\..\..\arduinoLCD\test\Pain Drain\libraries\lvgl\src\misc/lv_area.c **** 
 187:..\..\..\arduinoLCD\test\Pain Drain\libraries\lvgl\src\misc/lv_area.c ****     /*Check if it's in one of the corners*/
 188:..\..\..\arduinoLCD\test\Pain Drain\libraries\lvgl\src\misc/lv_area.c ****     lv_area_t corner_area;
 189:..\..\..\arduinoLCD\test\Pain Drain\libraries\lvgl\src\misc/lv_area.c ****     /*Top left*/
 190:..\..\..\arduinoLCD\test\Pain Drain\libraries\lvgl\src\misc/lv_area.c ****     corner_area.x1 = a_p->x1;
 191:..\..\..\arduinoLCD\test\Pain Drain\libraries\lvgl\src\misc/lv_area.c ****     corner_area.x2 = a_p->x1 + radius;
 192:..\..\..\arduinoLCD\test\Pain Drain\libraries\lvgl\src\misc/lv_area.c ****     corner_area.y1 = a_p->y1;
 193:..\..\..\arduinoLCD\test\Pain Drain\libraries\lvgl\src\misc/lv_area.c ****     corner_area.y2 = a_p->y1 + radius;
 194:..\..\..\arduinoLCD\test\Pain Drain\libraries\lvgl\src\misc/lv_area.c ****     if(_lv_area_is_point_on(&corner_area, p_p, 0)) {
 195:..\..\..\arduinoLCD\test\Pain Drain\libraries\lvgl\src\misc/lv_area.c ****         corner_area.x2 += radius;
 196:..\..\..\arduinoLCD\test\Pain Drain\libraries\lvgl\src\misc/lv_area.c ****         corner_area.y2 += radius;
 197:..\..\..\arduinoLCD\test\Pain Drain\libraries\lvgl\src\misc/lv_area.c ****         return lv_point_within_circle(&corner_area, p_p);
 198:..\..\..\arduinoLCD\test\Pain Drain\libraries\lvgl\src\misc/lv_area.c ****     }
 199:..\..\..\arduinoLCD\test\Pain Drain\libraries\lvgl\src\misc/lv_area.c ****     /*Bottom left*/
 200:..\..\..\arduinoLCD\test\Pain Drain\libraries\lvgl\src\misc/lv_area.c ****     corner_area.y1 = a_p->y2 - radius;
 201:..\..\..\arduinoLCD\test\Pain Drain\libraries\lvgl\src\misc/lv_area.c ****     corner_area.y2 = a_p->y2;
 202:..\..\..\arduinoLCD\test\Pain Drain\libraries\lvgl\src\misc/lv_area.c ****     if(_lv_area_is_point_on(&corner_area, p_p, 0)) {
ARM GAS  C:\Users\haske\AppData\Local\Temp\cc8C2ZcK.s 			page 5


 203:..\..\..\arduinoLCD\test\Pain Drain\libraries\lvgl\src\misc/lv_area.c ****         corner_area.x2 += radius;
 204:..\..\..\arduinoLCD\test\Pain Drain\libraries\lvgl\src\misc/lv_area.c ****         corner_area.y1 -= radius;
 205:..\..\..\arduinoLCD\test\Pain Drain\libraries\lvgl\src\misc/lv_area.c ****         return lv_point_within_circle(&corner_area, p_p);
 206:..\..\..\arduinoLCD\test\Pain Drain\libraries\lvgl\src\misc/lv_area.c ****     }
 207:..\..\..\arduinoLCD\test\Pain Drain\libraries\lvgl\src\misc/lv_area.c ****     /*Bottom right*/
 208:..\..\..\arduinoLCD\test\Pain Drain\libraries\lvgl\src\misc/lv_area.c ****     corner_area.x1 = a_p->x2 - radius;
 209:..\..\..\arduinoLCD\test\Pain Drain\libraries\lvgl\src\misc/lv_area.c ****     corner_area.x2 = a_p->x2;
 210:..\..\..\arduinoLCD\test\Pain Drain\libraries\lvgl\src\misc/lv_area.c ****     if(_lv_area_is_point_on(&corner_area, p_p, 0)) {
 211:..\..\..\arduinoLCD\test\Pain Drain\libraries\lvgl\src\misc/lv_area.c ****         corner_area.x1 -= radius;
 212:..\..\..\arduinoLCD\test\Pain Drain\libraries\lvgl\src\misc/lv_area.c ****         corner_area.y1 -= radius;
 213:..\..\..\arduinoLCD\test\Pain Drain\libraries\lvgl\src\misc/lv_area.c ****         return lv_point_within_circle(&corner_area, p_p);
 214:..\..\..\arduinoLCD\test\Pain Drain\libraries\lvgl\src\misc/lv_area.c ****     }
 215:..\..\..\arduinoLCD\test\Pain Drain\libraries\lvgl\src\misc/lv_area.c ****     /*Top right*/
 216:..\..\..\arduinoLCD\test\Pain Drain\libraries\lvgl\src\misc/lv_area.c ****     corner_area.y1 = a_p->y1;
 217:..\..\..\arduinoLCD\test\Pain Drain\libraries\lvgl\src\misc/lv_area.c ****     corner_area.y2 = a_p->y1 + radius;
 218:..\..\..\arduinoLCD\test\Pain Drain\libraries\lvgl\src\misc/lv_area.c ****     if(_lv_area_is_point_on(&corner_area, p_p, 0)) {
 219:..\..\..\arduinoLCD\test\Pain Drain\libraries\lvgl\src\misc/lv_area.c ****         corner_area.x1 -= radius;
 220:..\..\..\arduinoLCD\test\Pain Drain\libraries\lvgl\src\misc/lv_area.c ****         corner_area.y2 += radius;
 221:..\..\..\arduinoLCD\test\Pain Drain\libraries\lvgl\src\misc/lv_area.c ****         return lv_point_within_circle(&corner_area, p_p);
 222:..\..\..\arduinoLCD\test\Pain Drain\libraries\lvgl\src\misc/lv_area.c ****     }
 223:..\..\..\arduinoLCD\test\Pain Drain\libraries\lvgl\src\misc/lv_area.c ****     /*Not within corners*/
 224:..\..\..\arduinoLCD\test\Pain Drain\libraries\lvgl\src\misc/lv_area.c ****     return true;
 225:..\..\..\arduinoLCD\test\Pain Drain\libraries\lvgl\src\misc/lv_area.c **** }
 226:..\..\..\arduinoLCD\test\Pain Drain\libraries\lvgl\src\misc/lv_area.c **** 
 227:..\..\..\arduinoLCD\test\Pain Drain\libraries\lvgl\src\misc/lv_area.c **** /**
 228:..\..\..\arduinoLCD\test\Pain Drain\libraries\lvgl\src\misc/lv_area.c ****  * Check if two area has common parts
 229:..\..\..\arduinoLCD\test\Pain Drain\libraries\lvgl\src\misc/lv_area.c ****  * @param a1_p pointer to an area.
 230:..\..\..\arduinoLCD\test\Pain Drain\libraries\lvgl\src\misc/lv_area.c ****  * @param a2_p pointer to an other area
 231:..\..\..\arduinoLCD\test\Pain Drain\libraries\lvgl\src\misc/lv_area.c ****  * @return false: a1_p and a2_p has no common parts
 232:..\..\..\arduinoLCD\test\Pain Drain\libraries\lvgl\src\misc/lv_area.c ****  */
 233:..\..\..\arduinoLCD\test\Pain Drain\libraries\lvgl\src\misc/lv_area.c **** bool _lv_area_is_on(const lv_area_t * a1_p, const lv_area_t * a2_p)
 234:..\..\..\arduinoLCD\test\Pain Drain\libraries\lvgl\src\misc/lv_area.c **** {
 235:..\..\..\arduinoLCD\test\Pain Drain\libraries\lvgl\src\misc/lv_area.c ****     if((a1_p->x1 <= a2_p->x2) && (a1_p->x2 >= a2_p->x1) && (a1_p->y1 <= a2_p->y2) && (a1_p->y2 >= a
 236:..\..\..\arduinoLCD\test\Pain Drain\libraries\lvgl\src\misc/lv_area.c ****         return true;
 237:..\..\..\arduinoLCD\test\Pain Drain\libraries\lvgl\src\misc/lv_area.c ****     }
 238:..\..\..\arduinoLCD\test\Pain Drain\libraries\lvgl\src\misc/lv_area.c ****     else {
 239:..\..\..\arduinoLCD\test\Pain Drain\libraries\lvgl\src\misc/lv_area.c ****         return false;
 240:..\..\..\arduinoLCD\test\Pain Drain\libraries\lvgl\src\misc/lv_area.c ****     }
 241:..\..\..\arduinoLCD\test\Pain Drain\libraries\lvgl\src\misc/lv_area.c **** }
 242:..\..\..\arduinoLCD\test\Pain Drain\libraries\lvgl\src\misc/lv_area.c **** 
 243:..\..\..\arduinoLCD\test\Pain Drain\libraries\lvgl\src\misc/lv_area.c **** /**
 244:..\..\..\arduinoLCD\test\Pain Drain\libraries\lvgl\src\misc/lv_area.c ****  * Check if an area is fully on an other
 245:..\..\..\arduinoLCD\test\Pain Drain\libraries\lvgl\src\misc/lv_area.c ****  * @param ain_p pointer to an area which could be in 'aholder_p'
 246:..\..\..\arduinoLCD\test\Pain Drain\libraries\lvgl\src\misc/lv_area.c ****  * @param aholder_p pointer to an area which could involve 'ain_p'
 247:..\..\..\arduinoLCD\test\Pain Drain\libraries\lvgl\src\misc/lv_area.c ****  * @param radius radius of `aholder_p` (e.g. for rounded rectangle)
 248:..\..\..\arduinoLCD\test\Pain Drain\libraries\lvgl\src\misc/lv_area.c ****  * @return true: `ain_p` is fully inside `aholder_p`
 249:..\..\..\arduinoLCD\test\Pain Drain\libraries\lvgl\src\misc/lv_area.c ****  */
 250:..\..\..\arduinoLCD\test\Pain Drain\libraries\lvgl\src\misc/lv_area.c **** bool _lv_area_is_in(const lv_area_t * ain_p, const lv_area_t * aholder_p, lv_coord_t radius)
 251:..\..\..\arduinoLCD\test\Pain Drain\libraries\lvgl\src\misc/lv_area.c **** {
 252:..\..\..\arduinoLCD\test\Pain Drain\libraries\lvgl\src\misc/lv_area.c ****     bool is_in = false;
 253:..\..\..\arduinoLCD\test\Pain Drain\libraries\lvgl\src\misc/lv_area.c **** 
 254:..\..\..\arduinoLCD\test\Pain Drain\libraries\lvgl\src\misc/lv_area.c ****     if(ain_p->x1 >= aholder_p->x1 && ain_p->y1 >= aholder_p->y1 && ain_p->x2 <= aholder_p->x2 &&
 255:..\..\..\arduinoLCD\test\Pain Drain\libraries\lvgl\src\misc/lv_area.c ****        ain_p->y2 <= aholder_p->y2) {
 256:..\..\..\arduinoLCD\test\Pain Drain\libraries\lvgl\src\misc/lv_area.c ****         is_in = true;
 257:..\..\..\arduinoLCD\test\Pain Drain\libraries\lvgl\src\misc/lv_area.c ****     }
 258:..\..\..\arduinoLCD\test\Pain Drain\libraries\lvgl\src\misc/lv_area.c **** 
 259:..\..\..\arduinoLCD\test\Pain Drain\libraries\lvgl\src\misc/lv_area.c ****     if(!is_in) return false;
ARM GAS  C:\Users\haske\AppData\Local\Temp\cc8C2ZcK.s 			page 6


 260:..\..\..\arduinoLCD\test\Pain Drain\libraries\lvgl\src\misc/lv_area.c ****     if(radius == 0) return true;
 261:..\..\..\arduinoLCD\test\Pain Drain\libraries\lvgl\src\misc/lv_area.c **** 
 262:..\..\..\arduinoLCD\test\Pain Drain\libraries\lvgl\src\misc/lv_area.c ****     /*Check if the corner points are inside the radius or not*/
 263:..\..\..\arduinoLCD\test\Pain Drain\libraries\lvgl\src\misc/lv_area.c ****     lv_point_t p;
 264:..\..\..\arduinoLCD\test\Pain Drain\libraries\lvgl\src\misc/lv_area.c **** 
 265:..\..\..\arduinoLCD\test\Pain Drain\libraries\lvgl\src\misc/lv_area.c ****     p.x = ain_p->x1;
 266:..\..\..\arduinoLCD\test\Pain Drain\libraries\lvgl\src\misc/lv_area.c ****     p.y = ain_p->y1;
 267:..\..\..\arduinoLCD\test\Pain Drain\libraries\lvgl\src\misc/lv_area.c ****     if(_lv_area_is_point_on(aholder_p, &p, radius) == false) return false;
 268:..\..\..\arduinoLCD\test\Pain Drain\libraries\lvgl\src\misc/lv_area.c **** 
 269:..\..\..\arduinoLCD\test\Pain Drain\libraries\lvgl\src\misc/lv_area.c ****     p.x = ain_p->x2;
 270:..\..\..\arduinoLCD\test\Pain Drain\libraries\lvgl\src\misc/lv_area.c ****     p.y = ain_p->y1;
 271:..\..\..\arduinoLCD\test\Pain Drain\libraries\lvgl\src\misc/lv_area.c ****     if(_lv_area_is_point_on(aholder_p, &p, radius) == false) return false;
 272:..\..\..\arduinoLCD\test\Pain Drain\libraries\lvgl\src\misc/lv_area.c **** 
 273:..\..\..\arduinoLCD\test\Pain Drain\libraries\lvgl\src\misc/lv_area.c ****     p.x = ain_p->x1;
 274:..\..\..\arduinoLCD\test\Pain Drain\libraries\lvgl\src\misc/lv_area.c ****     p.y = ain_p->y2;
 275:..\..\..\arduinoLCD\test\Pain Drain\libraries\lvgl\src\misc/lv_area.c ****     if(_lv_area_is_point_on(aholder_p, &p, radius) == false) return false;
 276:..\..\..\arduinoLCD\test\Pain Drain\libraries\lvgl\src\misc/lv_area.c **** 
 277:..\..\..\arduinoLCD\test\Pain Drain\libraries\lvgl\src\misc/lv_area.c ****     p.x = ain_p->x2;
 278:..\..\..\arduinoLCD\test\Pain Drain\libraries\lvgl\src\misc/lv_area.c ****     p.y = ain_p->y2;
 279:..\..\..\arduinoLCD\test\Pain Drain\libraries\lvgl\src\misc/lv_area.c ****     if(_lv_area_is_point_on(aholder_p, &p, radius) == false) return false;
 280:..\..\..\arduinoLCD\test\Pain Drain\libraries\lvgl\src\misc/lv_area.c **** 
 281:..\..\..\arduinoLCD\test\Pain Drain\libraries\lvgl\src\misc/lv_area.c ****     return true;
 282:..\..\..\arduinoLCD\test\Pain Drain\libraries\lvgl\src\misc/lv_area.c **** }
 283:..\..\..\arduinoLCD\test\Pain Drain\libraries\lvgl\src\misc/lv_area.c **** 
 284:..\..\..\arduinoLCD\test\Pain Drain\libraries\lvgl\src\misc/lv_area.c **** /**
 285:..\..\..\arduinoLCD\test\Pain Drain\libraries\lvgl\src\misc/lv_area.c ****  * Check if an area is fully out of an other
 286:..\..\..\arduinoLCD\test\Pain Drain\libraries\lvgl\src\misc/lv_area.c ****  * @param aout_p pointer to an area which could be in 'aholder_p'
 287:..\..\..\arduinoLCD\test\Pain Drain\libraries\lvgl\src\misc/lv_area.c ****  * @param aholder_p pointer to an area which could involve 'ain_p'
 288:..\..\..\arduinoLCD\test\Pain Drain\libraries\lvgl\src\misc/lv_area.c ****  * @param radius radius of `aholder_p` (e.g. for rounded rectangle)
 289:..\..\..\arduinoLCD\test\Pain Drain\libraries\lvgl\src\misc/lv_area.c ****  * @return true: `aout_p` is fully outside `aholder_p`
 290:..\..\..\arduinoLCD\test\Pain Drain\libraries\lvgl\src\misc/lv_area.c ****  */
 291:..\..\..\arduinoLCD\test\Pain Drain\libraries\lvgl\src\misc/lv_area.c **** bool _lv_area_is_out(const lv_area_t * aout_p, const lv_area_t * aholder_p, lv_coord_t radius)
 292:..\..\..\arduinoLCD\test\Pain Drain\libraries\lvgl\src\misc/lv_area.c **** {
 293:..\..\..\arduinoLCD\test\Pain Drain\libraries\lvgl\src\misc/lv_area.c ****     if(aout_p->x2 < aholder_p->x1 || aout_p->y2 < aholder_p->y1 || aout_p->x1 > aholder_p->x2 ||
 294:..\..\..\arduinoLCD\test\Pain Drain\libraries\lvgl\src\misc/lv_area.c ****        aout_p->y1 > aholder_p->y2) {
 295:..\..\..\arduinoLCD\test\Pain Drain\libraries\lvgl\src\misc/lv_area.c ****         return true;
 296:..\..\..\arduinoLCD\test\Pain Drain\libraries\lvgl\src\misc/lv_area.c ****     }
 297:..\..\..\arduinoLCD\test\Pain Drain\libraries\lvgl\src\misc/lv_area.c **** 
 298:..\..\..\arduinoLCD\test\Pain Drain\libraries\lvgl\src\misc/lv_area.c ****     if(radius == 0) return false;
 299:..\..\..\arduinoLCD\test\Pain Drain\libraries\lvgl\src\misc/lv_area.c **** 
 300:..\..\..\arduinoLCD\test\Pain Drain\libraries\lvgl\src\misc/lv_area.c ****     /*Check if the corner points are outside the radius or not*/
 301:..\..\..\arduinoLCD\test\Pain Drain\libraries\lvgl\src\misc/lv_area.c ****     lv_point_t p;
 302:..\..\..\arduinoLCD\test\Pain Drain\libraries\lvgl\src\misc/lv_area.c **** 
 303:..\..\..\arduinoLCD\test\Pain Drain\libraries\lvgl\src\misc/lv_area.c ****     p.x = aout_p->x1;
 304:..\..\..\arduinoLCD\test\Pain Drain\libraries\lvgl\src\misc/lv_area.c ****     p.y = aout_p->y1;
 305:..\..\..\arduinoLCD\test\Pain Drain\libraries\lvgl\src\misc/lv_area.c ****     if(_lv_area_is_point_on(aholder_p, &p, radius)) return false;
 306:..\..\..\arduinoLCD\test\Pain Drain\libraries\lvgl\src\misc/lv_area.c **** 
 307:..\..\..\arduinoLCD\test\Pain Drain\libraries\lvgl\src\misc/lv_area.c ****     p.x = aout_p->x2;
 308:..\..\..\arduinoLCD\test\Pain Drain\libraries\lvgl\src\misc/lv_area.c ****     p.y = aout_p->y1;
 309:..\..\..\arduinoLCD\test\Pain Drain\libraries\lvgl\src\misc/lv_area.c ****     if(_lv_area_is_point_on(aholder_p, &p, radius)) return false;
 310:..\..\..\arduinoLCD\test\Pain Drain\libraries\lvgl\src\misc/lv_area.c **** 
 311:..\..\..\arduinoLCD\test\Pain Drain\libraries\lvgl\src\misc/lv_area.c ****     p.x = aout_p->x1;
 312:..\..\..\arduinoLCD\test\Pain Drain\libraries\lvgl\src\misc/lv_area.c ****     p.y = aout_p->y2;
 313:..\..\..\arduinoLCD\test\Pain Drain\libraries\lvgl\src\misc/lv_area.c ****     if(_lv_area_is_point_on(aholder_p, &p, radius)) return false;
 314:..\..\..\arduinoLCD\test\Pain Drain\libraries\lvgl\src\misc/lv_area.c **** 
 315:..\..\..\arduinoLCD\test\Pain Drain\libraries\lvgl\src\misc/lv_area.c ****     p.x = aout_p->x2;
 316:..\..\..\arduinoLCD\test\Pain Drain\libraries\lvgl\src\misc/lv_area.c ****     p.y = aout_p->y2;
ARM GAS  C:\Users\haske\AppData\Local\Temp\cc8C2ZcK.s 			page 7


 317:..\..\..\arduinoLCD\test\Pain Drain\libraries\lvgl\src\misc/lv_area.c ****     if(_lv_area_is_point_on(aholder_p, &p, radius)) return false;
 318:..\..\..\arduinoLCD\test\Pain Drain\libraries\lvgl\src\misc/lv_area.c **** 
 319:..\..\..\arduinoLCD\test\Pain Drain\libraries\lvgl\src\misc/lv_area.c ****     return true;
 320:..\..\..\arduinoLCD\test\Pain Drain\libraries\lvgl\src\misc/lv_area.c **** }
 321:..\..\..\arduinoLCD\test\Pain Drain\libraries\lvgl\src\misc/lv_area.c **** 
 322:..\..\..\arduinoLCD\test\Pain Drain\libraries\lvgl\src\misc/lv_area.c **** bool _lv_area_is_equal(const lv_area_t * a, const lv_area_t * b)
 323:..\..\..\arduinoLCD\test\Pain Drain\libraries\lvgl\src\misc/lv_area.c **** {
 324:..\..\..\arduinoLCD\test\Pain Drain\libraries\lvgl\src\misc/lv_area.c ****     return a->x1 == b->x1 && a->x2 == b->x2 && a->y1 == b->y1 && a->y2 == b->y2;
 325:..\..\..\arduinoLCD\test\Pain Drain\libraries\lvgl\src\misc/lv_area.c **** }
 326:..\..\..\arduinoLCD\test\Pain Drain\libraries\lvgl\src\misc/lv_area.c **** 
 327:..\..\..\arduinoLCD\test\Pain Drain\libraries\lvgl\src\misc/lv_area.c **** /**
 328:..\..\..\arduinoLCD\test\Pain Drain\libraries\lvgl\src\misc/lv_area.c ****  * Align an area to an other
 329:..\..\..\arduinoLCD\test\Pain Drain\libraries\lvgl\src\misc/lv_area.c ****  * @param base an are where the other will be aligned
 330:..\..\..\arduinoLCD\test\Pain Drain\libraries\lvgl\src\misc/lv_area.c ****  * @param to_align the area to align
 331:..\..\..\arduinoLCD\test\Pain Drain\libraries\lvgl\src\misc/lv_area.c ****  * @param align `LV_ALIGN_...`
 332:..\..\..\arduinoLCD\test\Pain Drain\libraries\lvgl\src\misc/lv_area.c ****  * @param res x/y coordinates where `to_align` align area should be placed
 333:..\..\..\arduinoLCD\test\Pain Drain\libraries\lvgl\src\misc/lv_area.c ****  */
 334:..\..\..\arduinoLCD\test\Pain Drain\libraries\lvgl\src\misc/lv_area.c **** void lv_area_align(const lv_area_t * base, lv_area_t * to_align, lv_align_t align, lv_coord_t ofs_x
 335:..\..\..\arduinoLCD\test\Pain Drain\libraries\lvgl\src\misc/lv_area.c **** {
 336:..\..\..\arduinoLCD\test\Pain Drain\libraries\lvgl\src\misc/lv_area.c **** 
 337:..\..\..\arduinoLCD\test\Pain Drain\libraries\lvgl\src\misc/lv_area.c ****     lv_coord_t x;
 338:..\..\..\arduinoLCD\test\Pain Drain\libraries\lvgl\src\misc/lv_area.c ****     lv_coord_t y;
 339:..\..\..\arduinoLCD\test\Pain Drain\libraries\lvgl\src\misc/lv_area.c ****     switch(align) {
 340:..\..\..\arduinoLCD\test\Pain Drain\libraries\lvgl\src\misc/lv_area.c ****         case LV_ALIGN_CENTER:
 341:..\..\..\arduinoLCD\test\Pain Drain\libraries\lvgl\src\misc/lv_area.c ****             x = lv_area_get_width(base) / 2 - lv_area_get_width(to_align) / 2;
 342:..\..\..\arduinoLCD\test\Pain Drain\libraries\lvgl\src\misc/lv_area.c ****             y = lv_area_get_height(base) / 2 - lv_area_get_height(to_align) / 2;
 343:..\..\..\arduinoLCD\test\Pain Drain\libraries\lvgl\src\misc/lv_area.c ****             break;
 344:..\..\..\arduinoLCD\test\Pain Drain\libraries\lvgl\src\misc/lv_area.c **** 
 345:..\..\..\arduinoLCD\test\Pain Drain\libraries\lvgl\src\misc/lv_area.c ****         case LV_ALIGN_TOP_LEFT:
 346:..\..\..\arduinoLCD\test\Pain Drain\libraries\lvgl\src\misc/lv_area.c ****             x = 0;
 347:..\..\..\arduinoLCD\test\Pain Drain\libraries\lvgl\src\misc/lv_area.c ****             y = 0;
 348:..\..\..\arduinoLCD\test\Pain Drain\libraries\lvgl\src\misc/lv_area.c ****             break;
 349:..\..\..\arduinoLCD\test\Pain Drain\libraries\lvgl\src\misc/lv_area.c ****         case LV_ALIGN_TOP_MID:
 350:..\..\..\arduinoLCD\test\Pain Drain\libraries\lvgl\src\misc/lv_area.c ****             x = lv_area_get_width(base) / 2 - lv_area_get_width(to_align) / 2;
 351:..\..\..\arduinoLCD\test\Pain Drain\libraries\lvgl\src\misc/lv_area.c ****             y = 0;
 352:..\..\..\arduinoLCD\test\Pain Drain\libraries\lvgl\src\misc/lv_area.c ****             break;
 353:..\..\..\arduinoLCD\test\Pain Drain\libraries\lvgl\src\misc/lv_area.c **** 
 354:..\..\..\arduinoLCD\test\Pain Drain\libraries\lvgl\src\misc/lv_area.c ****         case LV_ALIGN_TOP_RIGHT:
 355:..\..\..\arduinoLCD\test\Pain Drain\libraries\lvgl\src\misc/lv_area.c ****             x = lv_area_get_width(base) - lv_area_get_width(to_align);
 356:..\..\..\arduinoLCD\test\Pain Drain\libraries\lvgl\src\misc/lv_area.c ****             y = 0;
 357:..\..\..\arduinoLCD\test\Pain Drain\libraries\lvgl\src\misc/lv_area.c ****             break;
 358:..\..\..\arduinoLCD\test\Pain Drain\libraries\lvgl\src\misc/lv_area.c **** 
 359:..\..\..\arduinoLCD\test\Pain Drain\libraries\lvgl\src\misc/lv_area.c ****         case LV_ALIGN_BOTTOM_LEFT:
 360:..\..\..\arduinoLCD\test\Pain Drain\libraries\lvgl\src\misc/lv_area.c ****             x = 0;
 361:..\..\..\arduinoLCD\test\Pain Drain\libraries\lvgl\src\misc/lv_area.c ****             y = lv_area_get_height(base) - lv_area_get_height(to_align);
 362:..\..\..\arduinoLCD\test\Pain Drain\libraries\lvgl\src\misc/lv_area.c ****             break;
 363:..\..\..\arduinoLCD\test\Pain Drain\libraries\lvgl\src\misc/lv_area.c ****         case LV_ALIGN_BOTTOM_MID:
 364:..\..\..\arduinoLCD\test\Pain Drain\libraries\lvgl\src\misc/lv_area.c ****             x = lv_area_get_width(base) / 2 - lv_area_get_width(to_align) / 2;
 365:..\..\..\arduinoLCD\test\Pain Drain\libraries\lvgl\src\misc/lv_area.c ****             y = lv_area_get_height(base) - lv_area_get_height(to_align);
 366:..\..\..\arduinoLCD\test\Pain Drain\libraries\lvgl\src\misc/lv_area.c ****             break;
 367:..\..\..\arduinoLCD\test\Pain Drain\libraries\lvgl\src\misc/lv_area.c **** 
 368:..\..\..\arduinoLCD\test\Pain Drain\libraries\lvgl\src\misc/lv_area.c ****         case LV_ALIGN_BOTTOM_RIGHT:
 369:..\..\..\arduinoLCD\test\Pain Drain\libraries\lvgl\src\misc/lv_area.c ****             x = lv_area_get_width(base) - lv_area_get_width(to_align);
 370:..\..\..\arduinoLCD\test\Pain Drain\libraries\lvgl\src\misc/lv_area.c ****             y = lv_area_get_height(base) - lv_area_get_height(to_align);
 371:..\..\..\arduinoLCD\test\Pain Drain\libraries\lvgl\src\misc/lv_area.c ****             break;
 372:..\..\..\arduinoLCD\test\Pain Drain\libraries\lvgl\src\misc/lv_area.c **** 
 373:..\..\..\arduinoLCD\test\Pain Drain\libraries\lvgl\src\misc/lv_area.c ****         case LV_ALIGN_LEFT_MID:
ARM GAS  C:\Users\haske\AppData\Local\Temp\cc8C2ZcK.s 			page 8


 374:..\..\..\arduinoLCD\test\Pain Drain\libraries\lvgl\src\misc/lv_area.c ****             x = 0;
 375:..\..\..\arduinoLCD\test\Pain Drain\libraries\lvgl\src\misc/lv_area.c ****             y = lv_area_get_height(base) / 2 - lv_area_get_height(to_align) / 2;
 376:..\..\..\arduinoLCD\test\Pain Drain\libraries\lvgl\src\misc/lv_area.c ****             break;
 377:..\..\..\arduinoLCD\test\Pain Drain\libraries\lvgl\src\misc/lv_area.c **** 
 378:..\..\..\arduinoLCD\test\Pain Drain\libraries\lvgl\src\misc/lv_area.c ****         case LV_ALIGN_RIGHT_MID:
 379:..\..\..\arduinoLCD\test\Pain Drain\libraries\lvgl\src\misc/lv_area.c ****             x = lv_area_get_width(base) - lv_area_get_width(to_align);
 380:..\..\..\arduinoLCD\test\Pain Drain\libraries\lvgl\src\misc/lv_area.c ****             y = lv_area_get_height(base) / 2 - lv_area_get_height(to_align) / 2;
 381:..\..\..\arduinoLCD\test\Pain Drain\libraries\lvgl\src\misc/lv_area.c ****             break;
 382:..\..\..\arduinoLCD\test\Pain Drain\libraries\lvgl\src\misc/lv_area.c **** 
 383:..\..\..\arduinoLCD\test\Pain Drain\libraries\lvgl\src\misc/lv_area.c ****         case LV_ALIGN_OUT_TOP_LEFT:
 384:..\..\..\arduinoLCD\test\Pain Drain\libraries\lvgl\src\misc/lv_area.c ****             x = 0;
 385:..\..\..\arduinoLCD\test\Pain Drain\libraries\lvgl\src\misc/lv_area.c ****             y = -lv_area_get_height(to_align);
 386:..\..\..\arduinoLCD\test\Pain Drain\libraries\lvgl\src\misc/lv_area.c ****             break;
 387:..\..\..\arduinoLCD\test\Pain Drain\libraries\lvgl\src\misc/lv_area.c **** 
 388:..\..\..\arduinoLCD\test\Pain Drain\libraries\lvgl\src\misc/lv_area.c ****         case LV_ALIGN_OUT_TOP_MID:
 389:..\..\..\arduinoLCD\test\Pain Drain\libraries\lvgl\src\misc/lv_area.c ****             x = lv_area_get_width(base) / 2 - lv_area_get_width(to_align) / 2;
 390:..\..\..\arduinoLCD\test\Pain Drain\libraries\lvgl\src\misc/lv_area.c ****             y = -lv_area_get_height(to_align);
 391:..\..\..\arduinoLCD\test\Pain Drain\libraries\lvgl\src\misc/lv_area.c ****             break;
 392:..\..\..\arduinoLCD\test\Pain Drain\libraries\lvgl\src\misc/lv_area.c **** 
 393:..\..\..\arduinoLCD\test\Pain Drain\libraries\lvgl\src\misc/lv_area.c ****         case LV_ALIGN_OUT_TOP_RIGHT:
 394:..\..\..\arduinoLCD\test\Pain Drain\libraries\lvgl\src\misc/lv_area.c ****             x = lv_area_get_width(base) - lv_area_get_width(to_align);
 395:..\..\..\arduinoLCD\test\Pain Drain\libraries\lvgl\src\misc/lv_area.c ****             y = -lv_area_get_height(to_align);
 396:..\..\..\arduinoLCD\test\Pain Drain\libraries\lvgl\src\misc/lv_area.c ****             break;
 397:..\..\..\arduinoLCD\test\Pain Drain\libraries\lvgl\src\misc/lv_area.c **** 
 398:..\..\..\arduinoLCD\test\Pain Drain\libraries\lvgl\src\misc/lv_area.c ****         case LV_ALIGN_OUT_BOTTOM_LEFT:
 399:..\..\..\arduinoLCD\test\Pain Drain\libraries\lvgl\src\misc/lv_area.c ****             x = 0;
 400:..\..\..\arduinoLCD\test\Pain Drain\libraries\lvgl\src\misc/lv_area.c ****             y = lv_area_get_height(base);
 401:..\..\..\arduinoLCD\test\Pain Drain\libraries\lvgl\src\misc/lv_area.c ****             break;
 402:..\..\..\arduinoLCD\test\Pain Drain\libraries\lvgl\src\misc/lv_area.c **** 
 403:..\..\..\arduinoLCD\test\Pain Drain\libraries\lvgl\src\misc/lv_area.c ****         case LV_ALIGN_OUT_BOTTOM_MID:
 404:..\..\..\arduinoLCD\test\Pain Drain\libraries\lvgl\src\misc/lv_area.c ****             x = lv_area_get_width(base) / 2 - lv_area_get_width(to_align) / 2;
 405:..\..\..\arduinoLCD\test\Pain Drain\libraries\lvgl\src\misc/lv_area.c ****             y = lv_area_get_height(base);
 406:..\..\..\arduinoLCD\test\Pain Drain\libraries\lvgl\src\misc/lv_area.c ****             break;
 407:..\..\..\arduinoLCD\test\Pain Drain\libraries\lvgl\src\misc/lv_area.c **** 
 408:..\..\..\arduinoLCD\test\Pain Drain\libraries\lvgl\src\misc/lv_area.c ****         case LV_ALIGN_OUT_BOTTOM_RIGHT:
 409:..\..\..\arduinoLCD\test\Pain Drain\libraries\lvgl\src\misc/lv_area.c ****             x = lv_area_get_width(base) - lv_area_get_width(to_align);
 410:..\..\..\arduinoLCD\test\Pain Drain\libraries\lvgl\src\misc/lv_area.c ****             y = lv_area_get_height(base);
 411:..\..\..\arduinoLCD\test\Pain Drain\libraries\lvgl\src\misc/lv_area.c ****             break;
 412:..\..\..\arduinoLCD\test\Pain Drain\libraries\lvgl\src\misc/lv_area.c **** 
 413:..\..\..\arduinoLCD\test\Pain Drain\libraries\lvgl\src\misc/lv_area.c ****         case LV_ALIGN_OUT_LEFT_TOP:
 414:..\..\..\arduinoLCD\test\Pain Drain\libraries\lvgl\src\misc/lv_area.c ****             x = -lv_area_get_width(to_align);
 415:..\..\..\arduinoLCD\test\Pain Drain\libraries\lvgl\src\misc/lv_area.c ****             y = 0;
 416:..\..\..\arduinoLCD\test\Pain Drain\libraries\lvgl\src\misc/lv_area.c ****             break;
 417:..\..\..\arduinoLCD\test\Pain Drain\libraries\lvgl\src\misc/lv_area.c **** 
 418:..\..\..\arduinoLCD\test\Pain Drain\libraries\lvgl\src\misc/lv_area.c ****         case LV_ALIGN_OUT_LEFT_MID:
 419:..\..\..\arduinoLCD\test\Pain Drain\libraries\lvgl\src\misc/lv_area.c ****             x = -lv_area_get_width(to_align);
 420:..\..\..\arduinoLCD\test\Pain Drain\libraries\lvgl\src\misc/lv_area.c ****             y = lv_area_get_height(base) / 2 - lv_area_get_height(to_align) / 2;
 421:..\..\..\arduinoLCD\test\Pain Drain\libraries\lvgl\src\misc/lv_area.c ****             break;
 422:..\..\..\arduinoLCD\test\Pain Drain\libraries\lvgl\src\misc/lv_area.c **** 
 423:..\..\..\arduinoLCD\test\Pain Drain\libraries\lvgl\src\misc/lv_area.c ****         case LV_ALIGN_OUT_LEFT_BOTTOM:
 424:..\..\..\arduinoLCD\test\Pain Drain\libraries\lvgl\src\misc/lv_area.c ****             x = -lv_area_get_width(to_align);
 425:..\..\..\arduinoLCD\test\Pain Drain\libraries\lvgl\src\misc/lv_area.c ****             y = lv_area_get_height(base) - lv_area_get_height(to_align);
 426:..\..\..\arduinoLCD\test\Pain Drain\libraries\lvgl\src\misc/lv_area.c ****             break;
 427:..\..\..\arduinoLCD\test\Pain Drain\libraries\lvgl\src\misc/lv_area.c **** 
 428:..\..\..\arduinoLCD\test\Pain Drain\libraries\lvgl\src\misc/lv_area.c ****         case LV_ALIGN_OUT_RIGHT_TOP:
 429:..\..\..\arduinoLCD\test\Pain Drain\libraries\lvgl\src\misc/lv_area.c ****             x = lv_area_get_width(base);
 430:..\..\..\arduinoLCD\test\Pain Drain\libraries\lvgl\src\misc/lv_area.c ****             y = 0;
ARM GAS  C:\Users\haske\AppData\Local\Temp\cc8C2ZcK.s 			page 9


 431:..\..\..\arduinoLCD\test\Pain Drain\libraries\lvgl\src\misc/lv_area.c ****             break;
 432:..\..\..\arduinoLCD\test\Pain Drain\libraries\lvgl\src\misc/lv_area.c **** 
 433:..\..\..\arduinoLCD\test\Pain Drain\libraries\lvgl\src\misc/lv_area.c ****         case LV_ALIGN_OUT_RIGHT_MID:
 434:..\..\..\arduinoLCD\test\Pain Drain\libraries\lvgl\src\misc/lv_area.c ****             x = lv_area_get_width(base);
 435:..\..\..\arduinoLCD\test\Pain Drain\libraries\lvgl\src\misc/lv_area.c ****             y = lv_area_get_height(base) / 2 - lv_area_get_height(to_align) / 2;
 436:..\..\..\arduinoLCD\test\Pain Drain\libraries\lvgl\src\misc/lv_area.c ****             break;
 437:..\..\..\arduinoLCD\test\Pain Drain\libraries\lvgl\src\misc/lv_area.c **** 
 438:..\..\..\arduinoLCD\test\Pain Drain\libraries\lvgl\src\misc/lv_area.c ****         case LV_ALIGN_OUT_RIGHT_BOTTOM:
 439:..\..\..\arduinoLCD\test\Pain Drain\libraries\lvgl\src\misc/lv_area.c ****             x = lv_area_get_width(base);
 440:..\..\..\arduinoLCD\test\Pain Drain\libraries\lvgl\src\misc/lv_area.c ****             y = lv_area_get_height(base) - lv_area_get_height(to_align);
 441:..\..\..\arduinoLCD\test\Pain Drain\libraries\lvgl\src\misc/lv_area.c ****             break;
 442:..\..\..\arduinoLCD\test\Pain Drain\libraries\lvgl\src\misc/lv_area.c ****         default:
 443:..\..\..\arduinoLCD\test\Pain Drain\libraries\lvgl\src\misc/lv_area.c ****             x = 0;
 444:..\..\..\arduinoLCD\test\Pain Drain\libraries\lvgl\src\misc/lv_area.c ****             y = 0;
 445:..\..\..\arduinoLCD\test\Pain Drain\libraries\lvgl\src\misc/lv_area.c ****             break;
 446:..\..\..\arduinoLCD\test\Pain Drain\libraries\lvgl\src\misc/lv_area.c ****     }
 447:..\..\..\arduinoLCD\test\Pain Drain\libraries\lvgl\src\misc/lv_area.c **** 
 448:..\..\..\arduinoLCD\test\Pain Drain\libraries\lvgl\src\misc/lv_area.c ****     x += base->x1;
 449:..\..\..\arduinoLCD\test\Pain Drain\libraries\lvgl\src\misc/lv_area.c ****     y += base->y1;
 450:..\..\..\arduinoLCD\test\Pain Drain\libraries\lvgl\src\misc/lv_area.c **** 
 451:..\..\..\arduinoLCD\test\Pain Drain\libraries\lvgl\src\misc/lv_area.c ****     lv_coord_t w = lv_area_get_width(to_align);
 452:..\..\..\arduinoLCD\test\Pain Drain\libraries\lvgl\src\misc/lv_area.c ****     lv_coord_t h = lv_area_get_height(to_align);
 453:..\..\..\arduinoLCD\test\Pain Drain\libraries\lvgl\src\misc/lv_area.c ****     to_align->x1 = x + ofs_x;
 454:..\..\..\arduinoLCD\test\Pain Drain\libraries\lvgl\src\misc/lv_area.c ****     to_align->y1 = y + ofs_y;
 455:..\..\..\arduinoLCD\test\Pain Drain\libraries\lvgl\src\misc/lv_area.c ****     to_align->x2 = to_align->x1 + w - 1;
 456:..\..\..\arduinoLCD\test\Pain Drain\libraries\lvgl\src\misc/lv_area.c ****     to_align->y2 = to_align->y1 + h - 1;
 457:..\..\..\arduinoLCD\test\Pain Drain\libraries\lvgl\src\misc/lv_area.c **** }
 458:..\..\..\arduinoLCD\test\Pain Drain\libraries\lvgl\src\misc/lv_area.c **** 
 459:..\..\..\arduinoLCD\test\Pain Drain\libraries\lvgl\src\misc/lv_area.c **** #define _LV_TRANSFORM_TRIGO_SHIFT 10
 460:..\..\..\arduinoLCD\test\Pain Drain\libraries\lvgl\src\misc/lv_area.c **** void lv_point_transform(lv_point_t * p, int32_t angle, int32_t zoom, const lv_point_t * pivot)
 461:..\..\..\arduinoLCD\test\Pain Drain\libraries\lvgl\src\misc/lv_area.c **** {
 462:..\..\..\arduinoLCD\test\Pain Drain\libraries\lvgl\src\misc/lv_area.c ****     if(angle == 0 && zoom == 256) {
 463:..\..\..\arduinoLCD\test\Pain Drain\libraries\lvgl\src\misc/lv_area.c ****         return;
 464:..\..\..\arduinoLCD\test\Pain Drain\libraries\lvgl\src\misc/lv_area.c ****     }
 465:..\..\..\arduinoLCD\test\Pain Drain\libraries\lvgl\src\misc/lv_area.c **** 
 466:..\..\..\arduinoLCD\test\Pain Drain\libraries\lvgl\src\misc/lv_area.c ****     p->x -= pivot->x;
 467:..\..\..\arduinoLCD\test\Pain Drain\libraries\lvgl\src\misc/lv_area.c ****     p->y -= pivot->y;
 468:..\..\..\arduinoLCD\test\Pain Drain\libraries\lvgl\src\misc/lv_area.c **** 
 469:..\..\..\arduinoLCD\test\Pain Drain\libraries\lvgl\src\misc/lv_area.c ****     if(angle == 0) {
 470:..\..\..\arduinoLCD\test\Pain Drain\libraries\lvgl\src\misc/lv_area.c ****         p->x = (((int32_t)(p->x) * zoom) >> 8) + pivot->x;
 471:..\..\..\arduinoLCD\test\Pain Drain\libraries\lvgl\src\misc/lv_area.c ****         p->y = (((int32_t)(p->y) * zoom) >> 8) + pivot->y;
 472:..\..\..\arduinoLCD\test\Pain Drain\libraries\lvgl\src\misc/lv_area.c ****         return;
 473:..\..\..\arduinoLCD\test\Pain Drain\libraries\lvgl\src\misc/lv_area.c ****     }
 474:..\..\..\arduinoLCD\test\Pain Drain\libraries\lvgl\src\misc/lv_area.c **** 
 475:..\..\..\arduinoLCD\test\Pain Drain\libraries\lvgl\src\misc/lv_area.c ****     static int32_t angle_prev = INT32_MIN;
 476:..\..\..\arduinoLCD\test\Pain Drain\libraries\lvgl\src\misc/lv_area.c ****     static int32_t sinma;
 477:..\..\..\arduinoLCD\test\Pain Drain\libraries\lvgl\src\misc/lv_area.c ****     static int32_t cosma;
 478:..\..\..\arduinoLCD\test\Pain Drain\libraries\lvgl\src\misc/lv_area.c ****     if(angle_prev != angle) {
 479:..\..\..\arduinoLCD\test\Pain Drain\libraries\lvgl\src\misc/lv_area.c ****         int32_t angle_limited = angle;
 480:..\..\..\arduinoLCD\test\Pain Drain\libraries\lvgl\src\misc/lv_area.c ****         if(angle_limited > 3600) angle_limited -= 3600;
 481:..\..\..\arduinoLCD\test\Pain Drain\libraries\lvgl\src\misc/lv_area.c ****         if(angle_limited < 0) angle_limited += 3600;
 482:..\..\..\arduinoLCD\test\Pain Drain\libraries\lvgl\src\misc/lv_area.c **** 
 483:..\..\..\arduinoLCD\test\Pain Drain\libraries\lvgl\src\misc/lv_area.c ****         int32_t angle_low = angle_limited / 10;
 484:..\..\..\arduinoLCD\test\Pain Drain\libraries\lvgl\src\misc/lv_area.c ****         int32_t angle_high = angle_low + 1;
 485:..\..\..\arduinoLCD\test\Pain Drain\libraries\lvgl\src\misc/lv_area.c ****         int32_t angle_rem = angle_limited  - (angle_low * 10);
 486:..\..\..\arduinoLCD\test\Pain Drain\libraries\lvgl\src\misc/lv_area.c **** 
 487:..\..\..\arduinoLCD\test\Pain Drain\libraries\lvgl\src\misc/lv_area.c ****         int32_t s1 = lv_trigo_sin(angle_low);
ARM GAS  C:\Users\haske\AppData\Local\Temp\cc8C2ZcK.s 			page 10


 488:..\..\..\arduinoLCD\test\Pain Drain\libraries\lvgl\src\misc/lv_area.c ****         int32_t s2 = lv_trigo_sin(angle_high);
 489:..\..\..\arduinoLCD\test\Pain Drain\libraries\lvgl\src\misc/lv_area.c **** 
 490:..\..\..\arduinoLCD\test\Pain Drain\libraries\lvgl\src\misc/lv_area.c ****         int32_t c1 = lv_trigo_sin(angle_low + 90);
 491:..\..\..\arduinoLCD\test\Pain Drain\libraries\lvgl\src\misc/lv_area.c ****         int32_t c2 = lv_trigo_sin(angle_high + 90);
 492:..\..\..\arduinoLCD\test\Pain Drain\libraries\lvgl\src\misc/lv_area.c **** 
 493:..\..\..\arduinoLCD\test\Pain Drain\libraries\lvgl\src\misc/lv_area.c ****         sinma = (s1 * (10 - angle_rem) + s2 * angle_rem) / 10;
 494:..\..\..\arduinoLCD\test\Pain Drain\libraries\lvgl\src\misc/lv_area.c ****         cosma = (c1 * (10 - angle_rem) + c2 * angle_rem) / 10;
 495:..\..\..\arduinoLCD\test\Pain Drain\libraries\lvgl\src\misc/lv_area.c ****         sinma = sinma >> (LV_TRIGO_SHIFT - _LV_TRANSFORM_TRIGO_SHIFT);
 496:..\..\..\arduinoLCD\test\Pain Drain\libraries\lvgl\src\misc/lv_area.c ****         cosma = cosma >> (LV_TRIGO_SHIFT - _LV_TRANSFORM_TRIGO_SHIFT);
 497:..\..\..\arduinoLCD\test\Pain Drain\libraries\lvgl\src\misc/lv_area.c ****         angle_prev = angle;
 498:..\..\..\arduinoLCD\test\Pain Drain\libraries\lvgl\src\misc/lv_area.c ****     }
 499:..\..\..\arduinoLCD\test\Pain Drain\libraries\lvgl\src\misc/lv_area.c ****     int32_t x = p->x;
 500:..\..\..\arduinoLCD\test\Pain Drain\libraries\lvgl\src\misc/lv_area.c ****     int32_t y = p->y;
 501:..\..\..\arduinoLCD\test\Pain Drain\libraries\lvgl\src\misc/lv_area.c ****     if(zoom == 256) {
 502:..\..\..\arduinoLCD\test\Pain Drain\libraries\lvgl\src\misc/lv_area.c ****         p->x = ((cosma * x - sinma * y) >> _LV_TRANSFORM_TRIGO_SHIFT) + pivot->x;
 503:..\..\..\arduinoLCD\test\Pain Drain\libraries\lvgl\src\misc/lv_area.c ****         p->y = ((sinma * x + cosma * y) >> _LV_TRANSFORM_TRIGO_SHIFT) + pivot->y;
 504:..\..\..\arduinoLCD\test\Pain Drain\libraries\lvgl\src\misc/lv_area.c ****     }
 505:..\..\..\arduinoLCD\test\Pain Drain\libraries\lvgl\src\misc/lv_area.c ****     else {
 506:..\..\..\arduinoLCD\test\Pain Drain\libraries\lvgl\src\misc/lv_area.c ****         p->x = (((cosma * x - sinma * y) * zoom) >> (_LV_TRANSFORM_TRIGO_SHIFT + 8)) + pivot->x;
 507:..\..\..\arduinoLCD\test\Pain Drain\libraries\lvgl\src\misc/lv_area.c ****         p->y = (((sinma * x + cosma * y) * zoom) >> (_LV_TRANSFORM_TRIGO_SHIFT + 8)) + pivot->y;
 508:..\..\..\arduinoLCD\test\Pain Drain\libraries\lvgl\src\misc/lv_area.c ****     }
 509:..\..\..\arduinoLCD\test\Pain Drain\libraries\lvgl\src\misc/lv_area.c **** }
 510:..\..\..\arduinoLCD\test\Pain Drain\libraries\lvgl\src\misc/lv_area.c **** 
 511:..\..\..\arduinoLCD\test\Pain Drain\libraries\lvgl\src\misc/lv_area.c **** 
 512:..\..\..\arduinoLCD\test\Pain Drain\libraries\lvgl\src\misc/lv_area.c **** /**********************
 513:..\..\..\arduinoLCD\test\Pain Drain\libraries\lvgl\src\misc/lv_area.c ****  *   STATIC FUNCTIONS
 514:..\..\..\arduinoLCD\test\Pain Drain\libraries\lvgl\src\misc/lv_area.c ****  **********************/
 515:..\..\..\arduinoLCD\test\Pain Drain\libraries\lvgl\src\misc/lv_area.c **** 
 516:..\..\..\arduinoLCD\test\Pain Drain\libraries\lvgl\src\misc/lv_area.c **** static bool lv_point_within_circle(const lv_area_t * area, const lv_point_t * p)
 517:..\..\..\arduinoLCD\test\Pain Drain\libraries\lvgl\src\misc/lv_area.c **** {
  27              		.loc 1 517 0
  28              		.cfi_startproc
  29              		@ args = 0, pretend = 0, frame = 0
  30              		@ frame_needed = 0, uses_anonymous_args = 0
  31              	.LVL0:
  32 0000 70B5     		push	{r4, r5, r6, lr}
  33              		.cfi_def_cfa_offset 16
  34              		.cfi_offset 4, -16
  35              		.cfi_offset 5, -12
  36              		.cfi_offset 6, -8
  37              		.cfi_offset 14, -4
 518:..\..\..\arduinoLCD\test\Pain Drain\libraries\lvgl\src\misc/lv_area.c ****     lv_coord_t r = (area->x2 - area->x1) / 2;
  38              		.loc 1 518 0
  39 0002 0422     		movs	r2, #4
  40 0004 835E     		ldrsh	r3, [r0, r2]
  41 0006 0024     		movs	r4, #0
  42 0008 025F     		ldrsh	r2, [r0, r4]
  43 000a 9B1A     		subs	r3, r3, r2
  44 000c DC0F     		lsrs	r4, r3, #31
  45 000e E318     		adds	r3, r4, r3
  46 0010 5B10     		asrs	r3, r3, #1
  47 0012 1EB2     		sxth	r6, r3
  48              	.LVL1:
 519:..\..\..\arduinoLCD\test\Pain Drain\libraries\lvgl\src\misc/lv_area.c **** 
 520:..\..\..\arduinoLCD\test\Pain Drain\libraries\lvgl\src\misc/lv_area.c ****     /*Circle center*/
 521:..\..\..\arduinoLCD\test\Pain Drain\libraries\lvgl\src\misc/lv_area.c ****     lv_coord_t cx = area->x1 + r;
  49              		.loc 1 521 0
ARM GAS  C:\Users\haske\AppData\Local\Temp\cc8C2ZcK.s 			page 11


  50 0014 9BB2     		uxth	r3, r3
  51 0016 9A18     		adds	r2, r3, r2
  52 0018 95B2     		uxth	r5, r2
  53              	.LVL2:
 522:..\..\..\arduinoLCD\test\Pain Drain\libraries\lvgl\src\misc/lv_area.c ****     lv_coord_t cy = area->y1 + r;
  54              		.loc 1 522 0
  55 001a 0222     		movs	r2, #2
  56 001c 825E     		ldrsh	r2, [r0, r2]
  57              	.LVL3:
  58 001e 9B18     		adds	r3, r3, r2
  59 0020 9BB2     		uxth	r3, r3
  60              	.LVL4:
 523:..\..\..\arduinoLCD\test\Pain Drain\libraries\lvgl\src\misc/lv_area.c **** 
 524:..\..\..\arduinoLCD\test\Pain Drain\libraries\lvgl\src\misc/lv_area.c ****     /*Simplify the code by moving everything to (0, 0)*/
 525:..\..\..\arduinoLCD\test\Pain Drain\libraries\lvgl\src\misc/lv_area.c ****     lv_coord_t px = p->x - cx;
  61              		.loc 1 525 0
  62 0022 0022     		movs	r2, #0
  63 0024 8C5E     		ldrsh	r4, [r1, r2]
  64 0026 601B     		subs	r0, r4, r5
  65 0028 00B2     		sxth	r0, r0
  66              	.LVL5:
 526:..\..\..\arduinoLCD\test\Pain Drain\libraries\lvgl\src\misc/lv_area.c ****     lv_coord_t py = p->y - cy;
  67              		.loc 1 526 0
  68 002a 0222     		movs	r2, #2
  69 002c 895E     		ldrsh	r1, [r1, r2]
  70              	.LVL6:
  71 002e CA1A     		subs	r2, r1, r3
  72 0030 13B2     		sxth	r3, r2
  73              	.LVL7:
 527:..\..\..\arduinoLCD\test\Pain Drain\libraries\lvgl\src\misc/lv_area.c **** 
 528:..\..\..\arduinoLCD\test\Pain Drain\libraries\lvgl\src\misc/lv_area.c ****     uint32_t r_sqrd = r * r;
  74              		.loc 1 528 0
  75 0032 7643     		muls	r6, r6
  76              	.LVL8:
 529:..\..\..\arduinoLCD\test\Pain Drain\libraries\lvgl\src\misc/lv_area.c ****     uint32_t dist = (px * px) + (py * py);
  77              		.loc 1 529 0
  78 0034 4043     		muls	r0, r0
  79              	.LVL9:
  80 0036 5B43     		muls	r3, r3
  81              	.LVL10:
  82 0038 C318     		adds	r3, r0, r3
  83              	.LVL11:
 530:..\..\..\arduinoLCD\test\Pain Drain\libraries\lvgl\src\misc/lv_area.c **** 
 531:..\..\..\arduinoLCD\test\Pain Drain\libraries\lvgl\src\misc/lv_area.c ****     if(dist <= r_sqrd)
  84              		.loc 1 531 0
  85 003a 9E42     		cmp	r6, r3
  86 003c 01D3     		bcc	.L3
 532:..\..\..\arduinoLCD\test\Pain Drain\libraries\lvgl\src\misc/lv_area.c ****         return true;
  87              		.loc 1 532 0
  88 003e 0120     		movs	r0, #1
  89 0040 00E0     		b	.L2
  90              	.L3:
 533:..\..\..\arduinoLCD\test\Pain Drain\libraries\lvgl\src\misc/lv_area.c ****     else
 534:..\..\..\arduinoLCD\test\Pain Drain\libraries\lvgl\src\misc/lv_area.c ****         return false;
  91              		.loc 1 534 0
  92 0042 0020     		movs	r0, #0
  93              	.L2:
ARM GAS  C:\Users\haske\AppData\Local\Temp\cc8C2ZcK.s 			page 12


 535:..\..\..\arduinoLCD\test\Pain Drain\libraries\lvgl\src\misc/lv_area.c **** }
  94              		.loc 1 535 0
  95              		@ sp needed
  96              	.LVL12:
  97              	.LVL13:
  98              	.LVL14:
  99 0044 70BD     		pop	{r4, r5, r6, pc}
 100              		.cfi_endproc
 101              	.LFE21:
 102              		.size	lv_point_within_circle, .-lv_point_within_circle
 103 0046 C046     		.section	.text.lv_area_set,"ax",%progbits
 104              		.align	2
 105              		.global	lv_area_set
 106              		.code	16
 107              		.thumb_func
 108              		.type	lv_area_set, %function
 109              	lv_area_set:
 110              	.LFB5:
  49:..\..\..\arduinoLCD\test\Pain Drain\libraries\lvgl\src\misc/lv_area.c ****     area_p->x1 = x1;
 111              		.loc 1 49 0
 112              		.cfi_startproc
 113              		@ args = 4, pretend = 0, frame = 0
 114              		@ frame_needed = 0, uses_anonymous_args = 0
 115              	.LVL15:
 116 0000 30B5     		push	{r4, r5, lr}
 117              		.cfi_def_cfa_offset 12
 118              		.cfi_offset 4, -12
 119              		.cfi_offset 5, -8
 120              		.cfi_offset 14, -4
 121 0002 03AC     		add	r4, sp, #12
 122              	.LVL16:
 123 0004 0025     		movs	r5, #0
 124 0006 645F     		ldrsh	r4, [r4, r5]
 125              	.LVL17:
  50:..\..\..\arduinoLCD\test\Pain Drain\libraries\lvgl\src\misc/lv_area.c ****     area_p->y1 = y1;
 126              		.loc 1 50 0
 127 0008 0180     		strh	r1, [r0]
  51:..\..\..\arduinoLCD\test\Pain Drain\libraries\lvgl\src\misc/lv_area.c ****     area_p->x2 = x2;
 128              		.loc 1 51 0
 129 000a 4280     		strh	r2, [r0, #2]
  52:..\..\..\arduinoLCD\test\Pain Drain\libraries\lvgl\src\misc/lv_area.c ****     area_p->y2 = y2;
 130              		.loc 1 52 0
 131 000c 8380     		strh	r3, [r0, #4]
  53:..\..\..\arduinoLCD\test\Pain Drain\libraries\lvgl\src\misc/lv_area.c **** }
 132              		.loc 1 53 0
 133 000e C480     		strh	r4, [r0, #6]
  54:..\..\..\arduinoLCD\test\Pain Drain\libraries\lvgl\src\misc/lv_area.c **** 
 134              		.loc 1 54 0
 135              		@ sp needed
 136 0010 30BD     		pop	{r4, r5, pc}
 137              		.cfi_endproc
 138              	.LFE5:
 139              		.size	lv_area_set, .-lv_area_set
 140 0012 C046     		.section	.text.lv_area_set_width,"ax",%progbits
 141              		.align	2
 142              		.global	lv_area_set_width
 143              		.code	16
ARM GAS  C:\Users\haske\AppData\Local\Temp\cc8C2ZcK.s 			page 13


 144              		.thumb_func
 145              		.type	lv_area_set_width, %function
 146              	lv_area_set_width:
 147              	.LFB6:
  62:..\..\..\arduinoLCD\test\Pain Drain\libraries\lvgl\src\misc/lv_area.c ****     area_p->x2 = area_p->x1 + w - 1;
 148              		.loc 1 62 0
 149              		.cfi_startproc
 150              		@ args = 0, pretend = 0, frame = 0
 151              		@ frame_needed = 0, uses_anonymous_args = 0
 152              		@ link register save eliminated.
 153              	.LVL18:
  63:..\..\..\arduinoLCD\test\Pain Drain\libraries\lvgl\src\misc/lv_area.c **** }
 154              		.loc 1 63 0
 155 0000 0022     		movs	r2, #0
 156 0002 835E     		ldrsh	r3, [r0, r2]
 157 0004 5918     		adds	r1, r3, r1
 158              	.LVL19:
 159 0006 0139     		subs	r1, r1, #1
 160 0008 8180     		strh	r1, [r0, #4]
  64:..\..\..\arduinoLCD\test\Pain Drain\libraries\lvgl\src\misc/lv_area.c **** 
 161              		.loc 1 64 0
 162              		@ sp needed
 163 000a 7047     		bx	lr
 164              		.cfi_endproc
 165              	.LFE6:
 166              		.size	lv_area_set_width, .-lv_area_set_width
 167              		.section	.text.lv_area_set_height,"ax",%progbits
 168              		.align	2
 169              		.global	lv_area_set_height
 170              		.code	16
 171              		.thumb_func
 172              		.type	lv_area_set_height, %function
 173              	lv_area_set_height:
 174              	.LFB7:
  72:..\..\..\arduinoLCD\test\Pain Drain\libraries\lvgl\src\misc/lv_area.c ****     area_p->y2 = area_p->y1 + h - 1;
 175              		.loc 1 72 0
 176              		.cfi_startproc
 177              		@ args = 0, pretend = 0, frame = 0
 178              		@ frame_needed = 0, uses_anonymous_args = 0
 179              		@ link register save eliminated.
 180              	.LVL20:
  73:..\..\..\arduinoLCD\test\Pain Drain\libraries\lvgl\src\misc/lv_area.c **** }
 181              		.loc 1 73 0
 182 0000 0222     		movs	r2, #2
 183 0002 835E     		ldrsh	r3, [r0, r2]
 184 0004 5918     		adds	r1, r3, r1
 185              	.LVL21:
 186 0006 0139     		subs	r1, r1, #1
 187 0008 C180     		strh	r1, [r0, #6]
  74:..\..\..\arduinoLCD\test\Pain Drain\libraries\lvgl\src\misc/lv_area.c **** 
 188              		.loc 1 74 0
 189              		@ sp needed
 190 000a 7047     		bx	lr
 191              		.cfi_endproc
 192              	.LFE7:
 193              		.size	lv_area_set_height, .-lv_area_set_height
 194              		.section	.text._lv_area_set_pos,"ax",%progbits
ARM GAS  C:\Users\haske\AppData\Local\Temp\cc8C2ZcK.s 			page 14


 195              		.align	2
 196              		.global	_lv_area_set_pos
 197              		.code	16
 198              		.thumb_func
 199              		.type	_lv_area_set_pos, %function
 200              	_lv_area_set_pos:
 201              	.LFB8:
  83:..\..\..\arduinoLCD\test\Pain Drain\libraries\lvgl\src\misc/lv_area.c ****     lv_coord_t w = lv_area_get_width(area_p);
 202              		.loc 1 83 0
 203              		.cfi_startproc
 204              		@ args = 0, pretend = 0, frame = 0
 205              		@ frame_needed = 0, uses_anonymous_args = 0
 206              	.LVL22:
 207 0000 70B5     		push	{r4, r5, r6, lr}
 208              		.cfi_def_cfa_offset 16
 209              		.cfi_offset 4, -16
 210              		.cfi_offset 5, -12
 211              		.cfi_offset 6, -8
 212              		.cfi_offset 14, -4
 213 0002 0400     		movs	r4, r0
 214 0004 0800     		movs	r0, r1
 215              	.LVL23:
 216              	.LBB118:
 217              	.LBB119:
 218              		.file 2 "..\\..\\..\\arduinoLCD\\test\\Pain Drain\\libraries\\lvgl\\src\\misc\\lv_area.h"
   1:..\..\..\arduinoLCD\test\Pain Drain\libraries\lvgl\src\misc/lv_area.h **** /**
   2:..\..\..\arduinoLCD\test\Pain Drain\libraries\lvgl\src\misc/lv_area.h ****  * @file lv_area.h
   3:..\..\..\arduinoLCD\test\Pain Drain\libraries\lvgl\src\misc/lv_area.h ****  *
   4:..\..\..\arduinoLCD\test\Pain Drain\libraries\lvgl\src\misc/lv_area.h ****  */
   5:..\..\..\arduinoLCD\test\Pain Drain\libraries\lvgl\src\misc/lv_area.h **** 
   6:..\..\..\arduinoLCD\test\Pain Drain\libraries\lvgl\src\misc/lv_area.h **** #ifndef LV_AREA_H
   7:..\..\..\arduinoLCD\test\Pain Drain\libraries\lvgl\src\misc/lv_area.h **** #define LV_AREA_H
   8:..\..\..\arduinoLCD\test\Pain Drain\libraries\lvgl\src\misc/lv_area.h **** 
   9:..\..\..\arduinoLCD\test\Pain Drain\libraries\lvgl\src\misc/lv_area.h **** #ifdef __cplusplus
  10:..\..\..\arduinoLCD\test\Pain Drain\libraries\lvgl\src\misc/lv_area.h **** extern "C" {
  11:..\..\..\arduinoLCD\test\Pain Drain\libraries\lvgl\src\misc/lv_area.h **** #endif
  12:..\..\..\arduinoLCD\test\Pain Drain\libraries\lvgl\src\misc/lv_area.h **** 
  13:..\..\..\arduinoLCD\test\Pain Drain\libraries\lvgl\src\misc/lv_area.h **** /*********************
  14:..\..\..\arduinoLCD\test\Pain Drain\libraries\lvgl\src\misc/lv_area.h ****  *      INCLUDES
  15:..\..\..\arduinoLCD\test\Pain Drain\libraries\lvgl\src\misc/lv_area.h ****  *********************/
  16:..\..\..\arduinoLCD\test\Pain Drain\libraries\lvgl\src\misc/lv_area.h **** #include "../lv_conf_internal.h"
  17:..\..\..\arduinoLCD\test\Pain Drain\libraries\lvgl\src\misc/lv_area.h **** #include <stdbool.h>
  18:..\..\..\arduinoLCD\test\Pain Drain\libraries\lvgl\src\misc/lv_area.h **** #include <stdint.h>
  19:..\..\..\arduinoLCD\test\Pain Drain\libraries\lvgl\src\misc/lv_area.h **** 
  20:..\..\..\arduinoLCD\test\Pain Drain\libraries\lvgl\src\misc/lv_area.h **** /*********************
  21:..\..\..\arduinoLCD\test\Pain Drain\libraries\lvgl\src\misc/lv_area.h ****  *      DEFINES
  22:..\..\..\arduinoLCD\test\Pain Drain\libraries\lvgl\src\misc/lv_area.h ****  *********************/
  23:..\..\..\arduinoLCD\test\Pain Drain\libraries\lvgl\src\misc/lv_area.h **** 
  24:..\..\..\arduinoLCD\test\Pain Drain\libraries\lvgl\src\misc/lv_area.h **** #if LV_USE_LARGE_COORD
  25:..\..\..\arduinoLCD\test\Pain Drain\libraries\lvgl\src\misc/lv_area.h **** typedef int32_t lv_coord_t;
  26:..\..\..\arduinoLCD\test\Pain Drain\libraries\lvgl\src\misc/lv_area.h **** #else
  27:..\..\..\arduinoLCD\test\Pain Drain\libraries\lvgl\src\misc/lv_area.h **** typedef int16_t lv_coord_t;
  28:..\..\..\arduinoLCD\test\Pain Drain\libraries\lvgl\src\misc/lv_area.h **** #endif
  29:..\..\..\arduinoLCD\test\Pain Drain\libraries\lvgl\src\misc/lv_area.h **** 
  30:..\..\..\arduinoLCD\test\Pain Drain\libraries\lvgl\src\misc/lv_area.h **** /**********************
  31:..\..\..\arduinoLCD\test\Pain Drain\libraries\lvgl\src\misc/lv_area.h ****  *      TYPEDEFS
  32:..\..\..\arduinoLCD\test\Pain Drain\libraries\lvgl\src\misc/lv_area.h ****  **********************/
ARM GAS  C:\Users\haske\AppData\Local\Temp\cc8C2ZcK.s 			page 15


  33:..\..\..\arduinoLCD\test\Pain Drain\libraries\lvgl\src\misc/lv_area.h **** 
  34:..\..\..\arduinoLCD\test\Pain Drain\libraries\lvgl\src\misc/lv_area.h **** /**
  35:..\..\..\arduinoLCD\test\Pain Drain\libraries\lvgl\src\misc/lv_area.h ****  * Represents a point on the screen.
  36:..\..\..\arduinoLCD\test\Pain Drain\libraries\lvgl\src\misc/lv_area.h ****  */
  37:..\..\..\arduinoLCD\test\Pain Drain\libraries\lvgl\src\misc/lv_area.h **** typedef struct {
  38:..\..\..\arduinoLCD\test\Pain Drain\libraries\lvgl\src\misc/lv_area.h ****     lv_coord_t x;
  39:..\..\..\arduinoLCD\test\Pain Drain\libraries\lvgl\src\misc/lv_area.h ****     lv_coord_t y;
  40:..\..\..\arduinoLCD\test\Pain Drain\libraries\lvgl\src\misc/lv_area.h **** } lv_point_t;
  41:..\..\..\arduinoLCD\test\Pain Drain\libraries\lvgl\src\misc/lv_area.h **** 
  42:..\..\..\arduinoLCD\test\Pain Drain\libraries\lvgl\src\misc/lv_area.h **** /** Represents an area of the screen.*/
  43:..\..\..\arduinoLCD\test\Pain Drain\libraries\lvgl\src\misc/lv_area.h **** typedef struct {
  44:..\..\..\arduinoLCD\test\Pain Drain\libraries\lvgl\src\misc/lv_area.h ****     lv_coord_t x1;
  45:..\..\..\arduinoLCD\test\Pain Drain\libraries\lvgl\src\misc/lv_area.h ****     lv_coord_t y1;
  46:..\..\..\arduinoLCD\test\Pain Drain\libraries\lvgl\src\misc/lv_area.h ****     lv_coord_t x2;
  47:..\..\..\arduinoLCD\test\Pain Drain\libraries\lvgl\src\misc/lv_area.h ****     lv_coord_t y2;
  48:..\..\..\arduinoLCD\test\Pain Drain\libraries\lvgl\src\misc/lv_area.h **** } lv_area_t;
  49:..\..\..\arduinoLCD\test\Pain Drain\libraries\lvgl\src\misc/lv_area.h **** 
  50:..\..\..\arduinoLCD\test\Pain Drain\libraries\lvgl\src\misc/lv_area.h **** /** Alignments*/
  51:..\..\..\arduinoLCD\test\Pain Drain\libraries\lvgl\src\misc/lv_area.h **** enum {
  52:..\..\..\arduinoLCD\test\Pain Drain\libraries\lvgl\src\misc/lv_area.h ****     LV_ALIGN_DEFAULT = 0,
  53:..\..\..\arduinoLCD\test\Pain Drain\libraries\lvgl\src\misc/lv_area.h ****     LV_ALIGN_TOP_LEFT,
  54:..\..\..\arduinoLCD\test\Pain Drain\libraries\lvgl\src\misc/lv_area.h ****     LV_ALIGN_TOP_MID,
  55:..\..\..\arduinoLCD\test\Pain Drain\libraries\lvgl\src\misc/lv_area.h ****     LV_ALIGN_TOP_RIGHT,
  56:..\..\..\arduinoLCD\test\Pain Drain\libraries\lvgl\src\misc/lv_area.h ****     LV_ALIGN_BOTTOM_LEFT,
  57:..\..\..\arduinoLCD\test\Pain Drain\libraries\lvgl\src\misc/lv_area.h ****     LV_ALIGN_BOTTOM_MID,
  58:..\..\..\arduinoLCD\test\Pain Drain\libraries\lvgl\src\misc/lv_area.h ****     LV_ALIGN_BOTTOM_RIGHT,
  59:..\..\..\arduinoLCD\test\Pain Drain\libraries\lvgl\src\misc/lv_area.h ****     LV_ALIGN_LEFT_MID,
  60:..\..\..\arduinoLCD\test\Pain Drain\libraries\lvgl\src\misc/lv_area.h ****     LV_ALIGN_RIGHT_MID,
  61:..\..\..\arduinoLCD\test\Pain Drain\libraries\lvgl\src\misc/lv_area.h ****     LV_ALIGN_CENTER,
  62:..\..\..\arduinoLCD\test\Pain Drain\libraries\lvgl\src\misc/lv_area.h **** 
  63:..\..\..\arduinoLCD\test\Pain Drain\libraries\lvgl\src\misc/lv_area.h ****     LV_ALIGN_OUT_TOP_LEFT,
  64:..\..\..\arduinoLCD\test\Pain Drain\libraries\lvgl\src\misc/lv_area.h ****     LV_ALIGN_OUT_TOP_MID,
  65:..\..\..\arduinoLCD\test\Pain Drain\libraries\lvgl\src\misc/lv_area.h ****     LV_ALIGN_OUT_TOP_RIGHT,
  66:..\..\..\arduinoLCD\test\Pain Drain\libraries\lvgl\src\misc/lv_area.h ****     LV_ALIGN_OUT_BOTTOM_LEFT,
  67:..\..\..\arduinoLCD\test\Pain Drain\libraries\lvgl\src\misc/lv_area.h ****     LV_ALIGN_OUT_BOTTOM_MID,
  68:..\..\..\arduinoLCD\test\Pain Drain\libraries\lvgl\src\misc/lv_area.h ****     LV_ALIGN_OUT_BOTTOM_RIGHT,
  69:..\..\..\arduinoLCD\test\Pain Drain\libraries\lvgl\src\misc/lv_area.h ****     LV_ALIGN_OUT_LEFT_TOP,
  70:..\..\..\arduinoLCD\test\Pain Drain\libraries\lvgl\src\misc/lv_area.h ****     LV_ALIGN_OUT_LEFT_MID,
  71:..\..\..\arduinoLCD\test\Pain Drain\libraries\lvgl\src\misc/lv_area.h ****     LV_ALIGN_OUT_LEFT_BOTTOM,
  72:..\..\..\arduinoLCD\test\Pain Drain\libraries\lvgl\src\misc/lv_area.h ****     LV_ALIGN_OUT_RIGHT_TOP,
  73:..\..\..\arduinoLCD\test\Pain Drain\libraries\lvgl\src\misc/lv_area.h ****     LV_ALIGN_OUT_RIGHT_MID,
  74:..\..\..\arduinoLCD\test\Pain Drain\libraries\lvgl\src\misc/lv_area.h ****     LV_ALIGN_OUT_RIGHT_BOTTOM,
  75:..\..\..\arduinoLCD\test\Pain Drain\libraries\lvgl\src\misc/lv_area.h **** };
  76:..\..\..\arduinoLCD\test\Pain Drain\libraries\lvgl\src\misc/lv_area.h **** typedef uint8_t lv_align_t;
  77:..\..\..\arduinoLCD\test\Pain Drain\libraries\lvgl\src\misc/lv_area.h **** 
  78:..\..\..\arduinoLCD\test\Pain Drain\libraries\lvgl\src\misc/lv_area.h **** enum {
  79:..\..\..\arduinoLCD\test\Pain Drain\libraries\lvgl\src\misc/lv_area.h ****     LV_DIR_NONE     = 0x00,
  80:..\..\..\arduinoLCD\test\Pain Drain\libraries\lvgl\src\misc/lv_area.h ****     LV_DIR_LEFT     = (1 << 0),
  81:..\..\..\arduinoLCD\test\Pain Drain\libraries\lvgl\src\misc/lv_area.h ****     LV_DIR_RIGHT    = (1 << 1),
  82:..\..\..\arduinoLCD\test\Pain Drain\libraries\lvgl\src\misc/lv_area.h ****     LV_DIR_TOP      = (1 << 2),
  83:..\..\..\arduinoLCD\test\Pain Drain\libraries\lvgl\src\misc/lv_area.h ****     LV_DIR_BOTTOM   = (1 << 3),
  84:..\..\..\arduinoLCD\test\Pain Drain\libraries\lvgl\src\misc/lv_area.h ****     LV_DIR_HOR      = LV_DIR_LEFT | LV_DIR_RIGHT,
  85:..\..\..\arduinoLCD\test\Pain Drain\libraries\lvgl\src\misc/lv_area.h ****     LV_DIR_VER      = LV_DIR_TOP | LV_DIR_BOTTOM,
  86:..\..\..\arduinoLCD\test\Pain Drain\libraries\lvgl\src\misc/lv_area.h ****     LV_DIR_ALL      = LV_DIR_HOR | LV_DIR_VER,
  87:..\..\..\arduinoLCD\test\Pain Drain\libraries\lvgl\src\misc/lv_area.h **** };
  88:..\..\..\arduinoLCD\test\Pain Drain\libraries\lvgl\src\misc/lv_area.h **** 
  89:..\..\..\arduinoLCD\test\Pain Drain\libraries\lvgl\src\misc/lv_area.h **** typedef uint8_t lv_dir_t;
ARM GAS  C:\Users\haske\AppData\Local\Temp\cc8C2ZcK.s 			page 16


  90:..\..\..\arduinoLCD\test\Pain Drain\libraries\lvgl\src\misc/lv_area.h **** 
  91:..\..\..\arduinoLCD\test\Pain Drain\libraries\lvgl\src\misc/lv_area.h **** /**********************
  92:..\..\..\arduinoLCD\test\Pain Drain\libraries\lvgl\src\misc/lv_area.h ****  * GLOBAL PROTOTYPES
  93:..\..\..\arduinoLCD\test\Pain Drain\libraries\lvgl\src\misc/lv_area.h ****  **********************/
  94:..\..\..\arduinoLCD\test\Pain Drain\libraries\lvgl\src\misc/lv_area.h **** 
  95:..\..\..\arduinoLCD\test\Pain Drain\libraries\lvgl\src\misc/lv_area.h **** /**
  96:..\..\..\arduinoLCD\test\Pain Drain\libraries\lvgl\src\misc/lv_area.h ****  * Initialize an area
  97:..\..\..\arduinoLCD\test\Pain Drain\libraries\lvgl\src\misc/lv_area.h ****  * @param area_p pointer to an area
  98:..\..\..\arduinoLCD\test\Pain Drain\libraries\lvgl\src\misc/lv_area.h ****  * @param x1 left coordinate of the area
  99:..\..\..\arduinoLCD\test\Pain Drain\libraries\lvgl\src\misc/lv_area.h ****  * @param y1 top coordinate of the area
 100:..\..\..\arduinoLCD\test\Pain Drain\libraries\lvgl\src\misc/lv_area.h ****  * @param x2 right coordinate of the area
 101:..\..\..\arduinoLCD\test\Pain Drain\libraries\lvgl\src\misc/lv_area.h ****  * @param y2 bottom coordinate of the area
 102:..\..\..\arduinoLCD\test\Pain Drain\libraries\lvgl\src\misc/lv_area.h ****  */
 103:..\..\..\arduinoLCD\test\Pain Drain\libraries\lvgl\src\misc/lv_area.h **** void lv_area_set(lv_area_t * area_p, lv_coord_t x1, lv_coord_t y1, lv_coord_t x2, lv_coord_t y2);
 104:..\..\..\arduinoLCD\test\Pain Drain\libraries\lvgl\src\misc/lv_area.h **** 
 105:..\..\..\arduinoLCD\test\Pain Drain\libraries\lvgl\src\misc/lv_area.h **** /**
 106:..\..\..\arduinoLCD\test\Pain Drain\libraries\lvgl\src\misc/lv_area.h ****  * Copy an area
 107:..\..\..\arduinoLCD\test\Pain Drain\libraries\lvgl\src\misc/lv_area.h ****  * @param dest pointer to the destination area
 108:..\..\..\arduinoLCD\test\Pain Drain\libraries\lvgl\src\misc/lv_area.h ****  * @param src pointer to the source area
 109:..\..\..\arduinoLCD\test\Pain Drain\libraries\lvgl\src\misc/lv_area.h ****  */
 110:..\..\..\arduinoLCD\test\Pain Drain\libraries\lvgl\src\misc/lv_area.h **** inline static void lv_area_copy(lv_area_t * dest, const lv_area_t * src)
 111:..\..\..\arduinoLCD\test\Pain Drain\libraries\lvgl\src\misc/lv_area.h **** {
 112:..\..\..\arduinoLCD\test\Pain Drain\libraries\lvgl\src\misc/lv_area.h ****     dest->x1 = src->x1;
 113:..\..\..\arduinoLCD\test\Pain Drain\libraries\lvgl\src\misc/lv_area.h ****     dest->y1 = src->y1;
 114:..\..\..\arduinoLCD\test\Pain Drain\libraries\lvgl\src\misc/lv_area.h ****     dest->x2 = src->x2;
 115:..\..\..\arduinoLCD\test\Pain Drain\libraries\lvgl\src\misc/lv_area.h ****     dest->y2 = src->y2;
 116:..\..\..\arduinoLCD\test\Pain Drain\libraries\lvgl\src\misc/lv_area.h **** }
 117:..\..\..\arduinoLCD\test\Pain Drain\libraries\lvgl\src\misc/lv_area.h **** 
 118:..\..\..\arduinoLCD\test\Pain Drain\libraries\lvgl\src\misc/lv_area.h **** /**
 119:..\..\..\arduinoLCD\test\Pain Drain\libraries\lvgl\src\misc/lv_area.h ****  * Get the width of an area
 120:..\..\..\arduinoLCD\test\Pain Drain\libraries\lvgl\src\misc/lv_area.h ****  * @param area_p pointer to an area
 121:..\..\..\arduinoLCD\test\Pain Drain\libraries\lvgl\src\misc/lv_area.h ****  * @return the width of the area (if x1 == x2 -> width = 1)
 122:..\..\..\arduinoLCD\test\Pain Drain\libraries\lvgl\src\misc/lv_area.h ****  */
 123:..\..\..\arduinoLCD\test\Pain Drain\libraries\lvgl\src\misc/lv_area.h **** static inline lv_coord_t lv_area_get_width(const lv_area_t * area_p)
 124:..\..\..\arduinoLCD\test\Pain Drain\libraries\lvgl\src\misc/lv_area.h **** {
 125:..\..\..\arduinoLCD\test\Pain Drain\libraries\lvgl\src\misc/lv_area.h ****     return (lv_coord_t)(area_p->x2 - area_p->x1 + 1);
 219              		.loc 2 125 0
 220 0006 0421     		movs	r1, #4
 221 0008 635E     		ldrsh	r3, [r4, r1]
 222              	.LVL24:
 223 000a 0025     		movs	r5, #0
 224 000c 615F     		ldrsh	r1, [r4, r5]
 225 000e 5B1A     		subs	r3, r3, r1
 226 0010 0133     		adds	r3, r3, #1
 227 0012 19B2     		sxth	r1, r3
 228              	.LVL25:
 229              	.LBE119:
 230              	.LBE118:
 231              	.LBB120:
 232              	.LBB121:
 126:..\..\..\arduinoLCD\test\Pain Drain\libraries\lvgl\src\misc/lv_area.h **** }
 127:..\..\..\arduinoLCD\test\Pain Drain\libraries\lvgl\src\misc/lv_area.h **** 
 128:..\..\..\arduinoLCD\test\Pain Drain\libraries\lvgl\src\misc/lv_area.h **** /**
 129:..\..\..\arduinoLCD\test\Pain Drain\libraries\lvgl\src\misc/lv_area.h ****  * Get the height of an area
 130:..\..\..\arduinoLCD\test\Pain Drain\libraries\lvgl\src\misc/lv_area.h ****  * @param area_p pointer to an area
 131:..\..\..\arduinoLCD\test\Pain Drain\libraries\lvgl\src\misc/lv_area.h ****  * @return the height of the area (if y1 == y2 -> height = 1)
 132:..\..\..\arduinoLCD\test\Pain Drain\libraries\lvgl\src\misc/lv_area.h ****  */
ARM GAS  C:\Users\haske\AppData\Local\Temp\cc8C2ZcK.s 			page 17


 133:..\..\..\arduinoLCD\test\Pain Drain\libraries\lvgl\src\misc/lv_area.h **** static inline lv_coord_t lv_area_get_height(const lv_area_t * area_p)
 134:..\..\..\arduinoLCD\test\Pain Drain\libraries\lvgl\src\misc/lv_area.h **** {
 135:..\..\..\arduinoLCD\test\Pain Drain\libraries\lvgl\src\misc/lv_area.h ****     return (lv_coord_t)(area_p->y2 - area_p->y1 + 1);
 233              		.loc 2 135 0
 234 0014 0625     		movs	r5, #6
 235 0016 635F     		ldrsh	r3, [r4, r5]
 236 0018 0226     		movs	r6, #2
 237 001a A55F     		ldrsh	r5, [r4, r6]
 238 001c 5D1B     		subs	r5, r3, r5
 239 001e 0135     		adds	r5, r5, #1
 240 0020 2DB2     		sxth	r5, r5
 241              	.LVL26:
 242              	.LBE121:
 243              	.LBE120:
  86:..\..\..\arduinoLCD\test\Pain Drain\libraries\lvgl\src\misc/lv_area.c ****     area_p->y1   = y;
 244              		.loc 1 86 0
 245 0022 2080     		strh	r0, [r4]
  87:..\..\..\arduinoLCD\test\Pain Drain\libraries\lvgl\src\misc/lv_area.c ****     lv_area_set_width(area_p, w);
 246              		.loc 1 87 0
 247 0024 6280     		strh	r2, [r4, #2]
  88:..\..\..\arduinoLCD\test\Pain Drain\libraries\lvgl\src\misc/lv_area.c ****     lv_area_set_height(area_p, h);
 248              		.loc 1 88 0
 249 0026 2000     		movs	r0, r4
 250 0028 FFF7FEFF 		bl	lv_area_set_width
 251              	.LVL27:
  89:..\..\..\arduinoLCD\test\Pain Drain\libraries\lvgl\src\misc/lv_area.c **** }
 252              		.loc 1 89 0
 253 002c 2900     		movs	r1, r5
 254 002e 2000     		movs	r0, r4
 255 0030 FFF7FEFF 		bl	lv_area_set_height
 256              	.LVL28:
  90:..\..\..\arduinoLCD\test\Pain Drain\libraries\lvgl\src\misc/lv_area.c **** 
 257              		.loc 1 90 0
 258              		@ sp needed
 259              	.LVL29:
 260 0034 70BD     		pop	{r4, r5, r6, pc}
 261              		.cfi_endproc
 262              	.LFE8:
 263              		.size	_lv_area_set_pos, .-_lv_area_set_pos
 264 0036 C046     		.section	.text.lv_area_get_size,"ax",%progbits
 265              		.align	2
 266              		.global	lv_area_get_size
 267              		.code	16
 268              		.thumb_func
 269              		.type	lv_area_get_size, %function
 270              	lv_area_get_size:
 271              	.LFB9:
  98:..\..\..\arduinoLCD\test\Pain Drain\libraries\lvgl\src\misc/lv_area.c ****     uint32_t size;
 272              		.loc 1 98 0
 273              		.cfi_startproc
 274              		@ args = 0, pretend = 0, frame = 0
 275              		@ frame_needed = 0, uses_anonymous_args = 0
 276              		@ link register save eliminated.
 277              	.LVL30:
 101:..\..\..\arduinoLCD\test\Pain Drain\libraries\lvgl\src\misc/lv_area.c **** 
 278              		.loc 1 101 0
 279 0000 0422     		movs	r2, #4
ARM GAS  C:\Users\haske\AppData\Local\Temp\cc8C2ZcK.s 			page 18


 280 0002 835E     		ldrsh	r3, [r0, r2]
 281 0004 0021     		movs	r1, #0
 282 0006 425E     		ldrsh	r2, [r0, r1]
 283 0008 9A1A     		subs	r2, r3, r2
 284 000a 0132     		adds	r2, r2, #1
 285 000c 0621     		movs	r1, #6
 286 000e 435E     		ldrsh	r3, [r0, r1]
 287 0010 0221     		movs	r1, #2
 288 0012 405E     		ldrsh	r0, [r0, r1]
 289              	.LVL31:
 290 0014 1B1A     		subs	r3, r3, r0
 291 0016 0133     		adds	r3, r3, #1
 292 0018 5343     		muls	r3, r2
 293 001a 1800     		movs	r0, r3
 294              	.LVL32:
 104:..\..\..\arduinoLCD\test\Pain Drain\libraries\lvgl\src\misc/lv_area.c **** 
 295              		.loc 1 104 0
 296              		@ sp needed
 297 001c 7047     		bx	lr
 298              		.cfi_endproc
 299              	.LFE9:
 300              		.size	lv_area_get_size, .-lv_area_get_size
 301 001e C046     		.section	.text.lv_area_increase,"ax",%progbits
 302              		.align	2
 303              		.global	lv_area_increase
 304              		.code	16
 305              		.thumb_func
 306              		.type	lv_area_increase, %function
 307              	lv_area_increase:
 308              	.LFB10:
 107:..\..\..\arduinoLCD\test\Pain Drain\libraries\lvgl\src\misc/lv_area.c ****     area->x1 -= w_extra;
 309              		.loc 1 107 0
 310              		.cfi_startproc
 311              		@ args = 0, pretend = 0, frame = 0
 312              		@ frame_needed = 0, uses_anonymous_args = 0
 313              		@ link register save eliminated.
 314              	.LVL33:
 108:..\..\..\arduinoLCD\test\Pain Drain\libraries\lvgl\src\misc/lv_area.c ****     area->x2 += w_extra;
 315              		.loc 1 108 0
 316 0000 89B2     		uxth	r1, r1
 317 0002 0388     		ldrh	r3, [r0]
 318 0004 5B1A     		subs	r3, r3, r1
 319 0006 0380     		strh	r3, [r0]
 109:..\..\..\arduinoLCD\test\Pain Drain\libraries\lvgl\src\misc/lv_area.c ****     area->y1 -= h_extra;
 320              		.loc 1 109 0
 321 0008 8388     		ldrh	r3, [r0, #4]
 322 000a C918     		adds	r1, r1, r3
 323              	.LVL34:
 324 000c 8180     		strh	r1, [r0, #4]
 110:..\..\..\arduinoLCD\test\Pain Drain\libraries\lvgl\src\misc/lv_area.c ****     area->y2 += h_extra;
 325              		.loc 1 110 0
 326 000e 92B2     		uxth	r2, r2
 327 0010 4388     		ldrh	r3, [r0, #2]
 328 0012 9B1A     		subs	r3, r3, r2
 329 0014 4380     		strh	r3, [r0, #2]
 111:..\..\..\arduinoLCD\test\Pain Drain\libraries\lvgl\src\misc/lv_area.c **** }
 330              		.loc 1 111 0
ARM GAS  C:\Users\haske\AppData\Local\Temp\cc8C2ZcK.s 			page 19


 331 0016 C388     		ldrh	r3, [r0, #6]
 332 0018 D218     		adds	r2, r2, r3
 333              	.LVL35:
 334 001a C280     		strh	r2, [r0, #6]
 112:..\..\..\arduinoLCD\test\Pain Drain\libraries\lvgl\src\misc/lv_area.c **** 
 335              		.loc 1 112 0
 336              		@ sp needed
 337 001c 7047     		bx	lr
 338              		.cfi_endproc
 339              	.LFE10:
 340              		.size	lv_area_increase, .-lv_area_increase
 341 001e C046     		.section	.text.lv_area_move,"ax",%progbits
 342              		.align	2
 343              		.global	lv_area_move
 344              		.code	16
 345              		.thumb_func
 346              		.type	lv_area_move, %function
 347              	lv_area_move:
 348              	.LFB11:
 115:..\..\..\arduinoLCD\test\Pain Drain\libraries\lvgl\src\misc/lv_area.c ****     area->x1 += x_ofs;
 349              		.loc 1 115 0
 350              		.cfi_startproc
 351              		@ args = 0, pretend = 0, frame = 0
 352              		@ frame_needed = 0, uses_anonymous_args = 0
 353              		@ link register save eliminated.
 354              	.LVL36:
 116:..\..\..\arduinoLCD\test\Pain Drain\libraries\lvgl\src\misc/lv_area.c ****     area->x2 += x_ofs;
 355              		.loc 1 116 0
 356 0000 89B2     		uxth	r1, r1
 357 0002 0388     		ldrh	r3, [r0]
 358 0004 CB18     		adds	r3, r1, r3
 359 0006 0380     		strh	r3, [r0]
 117:..\..\..\arduinoLCD\test\Pain Drain\libraries\lvgl\src\misc/lv_area.c ****     area->y1 += y_ofs;
 360              		.loc 1 117 0
 361 0008 8388     		ldrh	r3, [r0, #4]
 362 000a C918     		adds	r1, r1, r3
 363              	.LVL37:
 364 000c 8180     		strh	r1, [r0, #4]
 118:..\..\..\arduinoLCD\test\Pain Drain\libraries\lvgl\src\misc/lv_area.c ****     area->y2 += y_ofs;
 365              		.loc 1 118 0
 366 000e 92B2     		uxth	r2, r2
 367 0010 4388     		ldrh	r3, [r0, #2]
 368 0012 D318     		adds	r3, r2, r3
 369 0014 4380     		strh	r3, [r0, #2]
 119:..\..\..\arduinoLCD\test\Pain Drain\libraries\lvgl\src\misc/lv_area.c **** }
 370              		.loc 1 119 0
 371 0016 C388     		ldrh	r3, [r0, #6]
 372 0018 D218     		adds	r2, r2, r3
 373              	.LVL38:
 374 001a C280     		strh	r2, [r0, #6]
 120:..\..\..\arduinoLCD\test\Pain Drain\libraries\lvgl\src\misc/lv_area.c **** 
 375              		.loc 1 120 0
 376              		@ sp needed
 377 001c 7047     		bx	lr
 378              		.cfi_endproc
 379              	.LFE11:
 380              		.size	lv_area_move, .-lv_area_move
ARM GAS  C:\Users\haske\AppData\Local\Temp\cc8C2ZcK.s 			page 20


 381 001e C046     		.section	.text._lv_area_intersect,"ax",%progbits
 382              		.align	2
 383              		.global	_lv_area_intersect
 384              		.code	16
 385              		.thumb_func
 386              		.type	_lv_area_intersect, %function
 387              	_lv_area_intersect:
 388              	.LFB12:
 130:..\..\..\arduinoLCD\test\Pain Drain\libraries\lvgl\src\misc/lv_area.c ****     /*Get the smaller area from 'a1_p' and 'a2_p'*/
 389              		.loc 1 130 0
 390              		.cfi_startproc
 391              		@ args = 0, pretend = 0, frame = 0
 392              		@ frame_needed = 0, uses_anonymous_args = 0
 393              	.LVL39:
 394 0000 F0B5     		push	{r4, r5, r6, r7, lr}
 395              		.cfi_def_cfa_offset 20
 396              		.cfi_offset 4, -20
 397              		.cfi_offset 5, -16
 398              		.cfi_offset 6, -12
 399              		.cfi_offset 7, -8
 400              		.cfi_offset 14, -4
 132:..\..\..\arduinoLCD\test\Pain Drain\libraries\lvgl\src\misc/lv_area.c ****     res_p->y1 = LV_MAX(a1_p->y1, a2_p->y1);
 401              		.loc 1 132 0
 402 0002 0023     		movs	r3, #0
 403 0004 D45E     		ldrsh	r4, [r2, r3]
 404 0006 0023     		movs	r3, #0
 405 0008 CD5E     		ldrsh	r5, [r1, r3]
 406 000a 231C     		adds	r3, r4, #0
 407 000c AC42     		cmp	r4, r5
 408 000e 00DA     		bge	.L12
 409 0010 2B1C     		adds	r3, r5, #0
 410              	.L12:
 411 0012 1EB2     		sxth	r6, r3
 412 0014 0380     		strh	r3, [r0]
 133:..\..\..\arduinoLCD\test\Pain Drain\libraries\lvgl\src\misc/lv_area.c ****     res_p->x2 = LV_MIN(a1_p->x2, a2_p->x2);
 413              		.loc 1 133 0
 414 0016 0223     		movs	r3, #2
 415 0018 D45E     		ldrsh	r4, [r2, r3]
 416 001a 0223     		movs	r3, #2
 417 001c CD5E     		ldrsh	r5, [r1, r3]
 418 001e 231C     		adds	r3, r4, #0
 419 0020 AC42     		cmp	r4, r5
 420 0022 00DA     		bge	.L13
 421 0024 2B1C     		adds	r3, r5, #0
 422              	.L13:
 423 0026 1FB2     		sxth	r7, r3
 424 0028 4380     		strh	r3, [r0, #2]
 134:..\..\..\arduinoLCD\test\Pain Drain\libraries\lvgl\src\misc/lv_area.c ****     res_p->y2 = LV_MIN(a1_p->y2, a2_p->y2);
 425              		.loc 1 134 0
 426 002a 0423     		movs	r3, #4
 427 002c D45E     		ldrsh	r4, [r2, r3]
 428 002e 0423     		movs	r3, #4
 429 0030 CD5E     		ldrsh	r5, [r1, r3]
 430 0032 231C     		adds	r3, r4, #0
 431 0034 AC42     		cmp	r4, r5
 432 0036 00DD     		ble	.L14
 433 0038 2B1C     		adds	r3, r5, #0
ARM GAS  C:\Users\haske\AppData\Local\Temp\cc8C2ZcK.s 			page 21


 434              	.L14:
 435 003a 1CB2     		sxth	r4, r3
 436 003c 8380     		strh	r3, [r0, #4]
 135:..\..\..\arduinoLCD\test\Pain Drain\libraries\lvgl\src\misc/lv_area.c **** 
 437              		.loc 1 135 0
 438 003e 0623     		movs	r3, #6
 439 0040 D25E     		ldrsh	r2, [r2, r3]
 440              	.LVL40:
 441 0042 0623     		movs	r3, #6
 442 0044 C95E     		ldrsh	r1, [r1, r3]
 443              	.LVL41:
 444 0046 131C     		adds	r3, r2, #0
 445 0048 8A42     		cmp	r2, r1
 446 004a 00DD     		ble	.L15
 447 004c 0B1C     		adds	r3, r1, #0
 448              	.L15:
 449 004e 1AB2     		sxth	r2, r3
 450 0050 C380     		strh	r3, [r0, #6]
 451              	.LVL42:
 139:..\..\..\arduinoLCD\test\Pain Drain\libraries\lvgl\src\misc/lv_area.c ****         union_ok = false;
 452              		.loc 1 139 0
 453 0052 A642     		cmp	r6, r4
 454 0054 03DC     		bgt	.L17
 139:..\..\..\arduinoLCD\test\Pain Drain\libraries\lvgl\src\misc/lv_area.c ****         union_ok = false;
 455              		.loc 1 139 0 is_stmt 0 discriminator 1
 456 0056 9742     		cmp	r7, r2
 457 0058 03DC     		bgt	.L18
 138:..\..\..\arduinoLCD\test\Pain Drain\libraries\lvgl\src\misc/lv_area.c ****     if((res_p->x1 > res_p->x2) || (res_p->y1 > res_p->y2)) {
 458              		.loc 1 138 0 is_stmt 1
 459 005a 0120     		movs	r0, #1
 460              	.LVL43:
 461 005c 02E0     		b	.L16
 462              	.LVL44:
 463              	.L17:
 140:..\..\..\arduinoLCD\test\Pain Drain\libraries\lvgl\src\misc/lv_area.c ****     }
 464              		.loc 1 140 0
 465 005e 0020     		movs	r0, #0
 466              	.LVL45:
 467 0060 00E0     		b	.L16
 468              	.LVL46:
 469              	.L18:
 470 0062 0020     		movs	r0, #0
 471              	.LVL47:
 472              	.L16:
 144:..\..\..\arduinoLCD\test\Pain Drain\libraries\lvgl\src\misc/lv_area.c **** 
 473              		.loc 1 144 0
 474              		@ sp needed
 475 0064 F0BD     		pop	{r4, r5, r6, r7, pc}
 476              		.cfi_endproc
 477              	.LFE12:
 478              		.size	_lv_area_intersect, .-_lv_area_intersect
 479 0066 C046     		.section	.text._lv_area_join,"ax",%progbits
 480              		.align	2
 481              		.global	_lv_area_join
 482              		.code	16
 483              		.thumb_func
 484              		.type	_lv_area_join, %function
ARM GAS  C:\Users\haske\AppData\Local\Temp\cc8C2ZcK.s 			page 22


 485              	_lv_area_join:
 486              	.LFB13:
 153:..\..\..\arduinoLCD\test\Pain Drain\libraries\lvgl\src\misc/lv_area.c ****     a_res_p->x1 = LV_MIN(a1_p->x1, a2_p->x1);
 487              		.loc 1 153 0
 488              		.cfi_startproc
 489              		@ args = 0, pretend = 0, frame = 0
 490              		@ frame_needed = 0, uses_anonymous_args = 0
 491              	.LVL48:
 492 0000 30B5     		push	{r4, r5, lr}
 493              		.cfi_def_cfa_offset 12
 494              		.cfi_offset 4, -12
 495              		.cfi_offset 5, -8
 496              		.cfi_offset 14, -4
 154:..\..\..\arduinoLCD\test\Pain Drain\libraries\lvgl\src\misc/lv_area.c ****     a_res_p->y1 = LV_MIN(a1_p->y1, a2_p->y1);
 497              		.loc 1 154 0
 498 0002 0024     		movs	r4, #0
 499 0004 135F     		ldrsh	r3, [r2, r4]
 500 0006 0024     		movs	r4, #0
 501 0008 0D5F     		ldrsh	r5, [r1, r4]
 502 000a 1C1C     		adds	r4, r3, #0
 503 000c AB42     		cmp	r3, r5
 504 000e 00DD     		ble	.L20
 505 0010 2C1C     		adds	r4, r5, #0
 506              	.L20:
 507 0012 0480     		strh	r4, [r0]
 155:..\..\..\arduinoLCD\test\Pain Drain\libraries\lvgl\src\misc/lv_area.c ****     a_res_p->x2 = LV_MAX(a1_p->x2, a2_p->x2);
 508              		.loc 1 155 0
 509 0014 0224     		movs	r4, #2
 510 0016 135F     		ldrsh	r3, [r2, r4]
 511 0018 0224     		movs	r4, #2
 512 001a 0D5F     		ldrsh	r5, [r1, r4]
 513 001c 1C1C     		adds	r4, r3, #0
 514 001e AB42     		cmp	r3, r5
 515 0020 00DD     		ble	.L21
 516 0022 2C1C     		adds	r4, r5, #0
 517              	.L21:
 518 0024 4480     		strh	r4, [r0, #2]
 156:..\..\..\arduinoLCD\test\Pain Drain\libraries\lvgl\src\misc/lv_area.c ****     a_res_p->y2 = LV_MAX(a1_p->y2, a2_p->y2);
 519              		.loc 1 156 0
 520 0026 0424     		movs	r4, #4
 521 0028 135F     		ldrsh	r3, [r2, r4]
 522 002a 0424     		movs	r4, #4
 523 002c 0D5F     		ldrsh	r5, [r1, r4]
 524 002e 1C1C     		adds	r4, r3, #0
 525 0030 AB42     		cmp	r3, r5
 526 0032 00DA     		bge	.L22
 527 0034 2C1C     		adds	r4, r5, #0
 528              	.L22:
 529 0036 8480     		strh	r4, [r0, #4]
 157:..\..\..\arduinoLCD\test\Pain Drain\libraries\lvgl\src\misc/lv_area.c **** }
 530              		.loc 1 157 0
 531 0038 0623     		movs	r3, #6
 532 003a D35E     		ldrsh	r3, [r2, r3]
 533              	.LVL49:
 534 003c 0622     		movs	r2, #6
 535 003e 895E     		ldrsh	r1, [r1, r2]
 536              	.LVL50:
ARM GAS  C:\Users\haske\AppData\Local\Temp\cc8C2ZcK.s 			page 23


 537 0040 1A1C     		adds	r2, r3, #0
 538 0042 8B42     		cmp	r3, r1
 539 0044 00DA     		bge	.L23
 540 0046 0A1C     		adds	r2, r1, #0
 541              	.L23:
 542 0048 C280     		strh	r2, [r0, #6]
 158:..\..\..\arduinoLCD\test\Pain Drain\libraries\lvgl\src\misc/lv_area.c **** 
 543              		.loc 1 158 0
 544              		@ sp needed
 545 004a 30BD     		pop	{r4, r5, pc}
 546              		.cfi_endproc
 547              	.LFE13:
 548              		.size	_lv_area_join, .-_lv_area_join
 549              		.section	.text._lv_area_is_point_on,"ax",%progbits
 550              		.align	2
 551              		.global	_lv_area_is_point_on
 552              		.code	16
 553              		.thumb_func
 554              		.type	_lv_area_is_point_on, %function
 555              	_lv_area_is_point_on:
 556              	.LFB14:
 168:..\..\..\arduinoLCD\test\Pain Drain\libraries\lvgl\src\misc/lv_area.c ****     /*First check the basic area*/
 557              		.loc 1 168 0
 558              		.cfi_startproc
 559              		@ args = 0, pretend = 0, frame = 8
 560              		@ frame_needed = 0, uses_anonymous_args = 0
 561              	.LVL51:
 562 0000 F0B5     		push	{r4, r5, r6, r7, lr}
 563              		.cfi_def_cfa_offset 20
 564              		.cfi_offset 4, -20
 565              		.cfi_offset 5, -16
 566              		.cfi_offset 6, -12
 567              		.cfi_offset 7, -8
 568              		.cfi_offset 14, -4
 569 0002 83B0     		sub	sp, sp, #12
 570              		.cfi_def_cfa_offset 32
 571 0004 0500     		movs	r5, r0
 572 0006 0C00     		movs	r4, r1
 573              	.LVL52:
 171:..\..\..\arduinoLCD\test\Pain Drain\libraries\lvgl\src\misc/lv_area.c ****         is_on_rect = true;
 574              		.loc 1 171 0
 575 0008 0021     		movs	r1, #0
 576 000a 635E     		ldrsh	r3, [r4, r1]
 577              	.LVL53:
 578 000c 0021     		movs	r1, #0
 579 000e 405E     		ldrsh	r0, [r0, r1]
 580              	.LVL54:
 581 0010 8342     		cmp	r3, r0
 582 0012 0FDB     		blt	.L32
 171:..\..\..\arduinoLCD\test\Pain Drain\libraries\lvgl\src\misc/lv_area.c ****         is_on_rect = true;
 583              		.loc 1 171 0 is_stmt 0 discriminator 1
 584 0014 0426     		movs	r6, #4
 585 0016 A95F     		ldrsh	r1, [r5, r6]
 586 0018 8B42     		cmp	r3, r1
 587 001a 0DDC     		bgt	.L33
 171:..\..\..\arduinoLCD\test\Pain Drain\libraries\lvgl\src\misc/lv_area.c ****         is_on_rect = true;
 588              		.loc 1 171 0 discriminator 2
ARM GAS  C:\Users\haske\AppData\Local\Temp\cc8C2ZcK.s 			page 24


 589 001c 0221     		movs	r1, #2
 590 001e 635E     		ldrsh	r3, [r4, r1]
 591 0020 0226     		movs	r6, #2
 592 0022 A95F     		ldrsh	r1, [r5, r6]
 593 0024 8B42     		cmp	r3, r1
 594 0026 09DB     		blt	.L34
 171:..\..\..\arduinoLCD\test\Pain Drain\libraries\lvgl\src\misc/lv_area.c ****         is_on_rect = true;
 595              		.loc 1 171 0 discriminator 3
 596 0028 0626     		movs	r6, #6
 597 002a A95F     		ldrsh	r1, [r5, r6]
 598 002c 8B42     		cmp	r3, r1
 599 002e 07DD     		ble	.L35
 170:..\..\..\arduinoLCD\test\Pain Drain\libraries\lvgl\src\misc/lv_area.c ****     if((p_p->x >= a_p->x1 && p_p->x <= a_p->x2) && ((p_p->y >= a_p->y1 && p_p->y <= a_p->y2))) {
 600              		.loc 1 170 0 is_stmt 1
 601 0030 0023     		movs	r3, #0
 602 0032 06E0     		b	.L25
 603              	.L32:
 604 0034 0023     		movs	r3, #0
 605 0036 04E0     		b	.L25
 606              	.L33:
 607 0038 0023     		movs	r3, #0
 608 003a 02E0     		b	.L25
 609              	.L34:
 610 003c 0023     		movs	r3, #0
 611 003e 00E0     		b	.L25
 612              	.L35:
 172:..\..\..\arduinoLCD\test\Pain Drain\libraries\lvgl\src\misc/lv_area.c ****     }
 613              		.loc 1 172 0
 614 0040 0123     		movs	r3, #1
 615              	.L25:
 616              	.LVL55:
 174:..\..\..\arduinoLCD\test\Pain Drain\libraries\lvgl\src\misc/lv_area.c ****         return false;
 617              		.loc 1 174 0
 618 0042 002B     		cmp	r3, #0
 619 0044 00D1     		bne	.LCB506
 620 0046 8CE0     		b	.L36	@long jump
 621              	.LCB506:
 177:..\..\..\arduinoLCD\test\Pain Drain\libraries\lvgl\src\misc/lv_area.c ****         /*No radius, it is within the rectangle*/
 622              		.loc 1 177 0
 623 0048 002A     		cmp	r2, #0
 624 004a 00DC     		bgt	.LCB508
 625 004c 8BE0     		b	.L37	@long jump
 626              	.LCB508:
 627              	.LVL56:
 628              	.LBB122:
 629              	.LBB123:
 125:..\..\..\arduinoLCD\test\Pain Drain\libraries\lvgl\src\misc/lv_area.h **** }
 630              		.loc 2 125 0
 631 004e 0421     		movs	r1, #4
 632 0050 6B5E     		ldrsh	r3, [r5, r1]
 633              	.LVL57:
 634 0052 1B1A     		subs	r3, r3, r0
 635 0054 0133     		adds	r3, r3, #1
 636 0056 1BB2     		sxth	r3, r3
 637              	.LVL58:
 638              	.LBE123:
 639              	.LBE122:
ARM GAS  C:\Users\haske\AppData\Local\Temp\cc8C2ZcK.s 			page 25


 181:..\..\..\arduinoLCD\test\Pain Drain\libraries\lvgl\src\misc/lv_area.c ****     lv_coord_t h = lv_area_get_height(a_p) / 2;
 640              		.loc 1 181 0
 641 0058 D90F     		lsrs	r1, r3, #31
 642 005a CB18     		adds	r3, r1, r3
 643 005c 5B10     		asrs	r3, r3, #1
 644              	.LVL59:
 645              	.LBB124:
 646              	.LBB125:
 647              		.loc 2 135 0
 648 005e 0626     		movs	r6, #6
 649 0060 A95F     		ldrsh	r1, [r5, r6]
 650 0062 0227     		movs	r7, #2
 651 0064 EE5F     		ldrsh	r6, [r5, r7]
 652 0066 891B     		subs	r1, r1, r6
 653 0068 0131     		adds	r1, r1, #1
 654 006a 09B2     		sxth	r1, r1
 655              	.LVL60:
 656              	.LBE125:
 657              	.LBE124:
 182:..\..\..\arduinoLCD\test\Pain Drain\libraries\lvgl\src\misc/lv_area.c ****     lv_coord_t max_radius = LV_MIN(w, h);
 658              		.loc 1 182 0
 659 006c CE0F     		lsrs	r6, r1, #31
 660 006e 7118     		adds	r1, r6, r1
 661 0070 4910     		asrs	r1, r1, #1
 662              	.LVL61:
 183:..\..\..\arduinoLCD\test\Pain Drain\libraries\lvgl\src\misc/lv_area.c ****     if(radius > max_radius)
 663              		.loc 1 183 0
 664 0072 1E1C     		adds	r6, r3, #0
 665 0074 8B42     		cmp	r3, r1
 666 0076 00DD     		ble	.L27
 667 0078 0E1C     		adds	r6, r1, #0
 668              	.L27:
 669 007a 36B2     		sxth	r6, r6
 670              	.LVL62:
 184:..\..\..\arduinoLCD\test\Pain Drain\libraries\lvgl\src\misc/lv_area.c ****         radius = max_radius;
 671              		.loc 1 184 0
 672 007c B242     		cmp	r2, r6
 673 007e 00DC     		bgt	.L28
 674 0080 1600     		movs	r6, r2
 675              	.LVL63:
 676              	.L28:
 190:..\..\..\arduinoLCD\test\Pain Drain\libraries\lvgl\src\misc/lv_area.c ****     corner_area.x2 = a_p->x1 + radius;
 677              		.loc 1 190 0
 678 0082 6B46     		mov	r3, sp
 679              	.LVL64:
 680 0084 1880     		strh	r0, [r3]
 681              	.LVL65:
 191:..\..\..\arduinoLCD\test\Pain Drain\libraries\lvgl\src\misc/lv_area.c ****     corner_area.y1 = a_p->y1;
 682              		.loc 1 191 0
 683 0086 0022     		movs	r2, #0
 684 0088 AB5E     		ldrsh	r3, [r5, r2]
 685 008a B6B2     		uxth	r6, r6
 686 008c F318     		adds	r3, r6, r3
 687 008e 6A46     		mov	r2, sp
 688 0090 9380     		strh	r3, [r2, #4]
 192:..\..\..\arduinoLCD\test\Pain Drain\libraries\lvgl\src\misc/lv_area.c ****     corner_area.y2 = a_p->y1 + radius;
 689              		.loc 1 192 0
ARM GAS  C:\Users\haske\AppData\Local\Temp\cc8C2ZcK.s 			page 26


 690 0092 0222     		movs	r2, #2
 691 0094 AB5E     		ldrsh	r3, [r5, r2]
 692 0096 6A46     		mov	r2, sp
 693 0098 5380     		strh	r3, [r2, #2]
 193:..\..\..\arduinoLCD\test\Pain Drain\libraries\lvgl\src\misc/lv_area.c ****     if(_lv_area_is_point_on(&corner_area, p_p, 0)) {
 694              		.loc 1 193 0
 695 009a F318     		adds	r3, r6, r3
 696 009c D380     		strh	r3, [r2, #6]
 194:..\..\..\arduinoLCD\test\Pain Drain\libraries\lvgl\src\misc/lv_area.c ****         corner_area.x2 += radius;
 697              		.loc 1 194 0
 698 009e 0022     		movs	r2, #0
 699 00a0 2100     		movs	r1, r4
 700              	.LVL66:
 701 00a2 6846     		mov	r0, sp
 702 00a4 FFF7FEFF 		bl	_lv_area_is_point_on
 703              	.LVL67:
 704 00a8 0028     		cmp	r0, #0
 705 00aa 0CD0     		beq	.L29
 195:..\..\..\arduinoLCD\test\Pain Drain\libraries\lvgl\src\misc/lv_area.c ****         corner_area.y2 += radius;
 706              		.loc 1 195 0
 707 00ac 6B46     		mov	r3, sp
 708 00ae 9B88     		ldrh	r3, [r3, #4]
 709 00b0 F318     		adds	r3, r6, r3
 710 00b2 6A46     		mov	r2, sp
 711 00b4 9380     		strh	r3, [r2, #4]
 196:..\..\..\arduinoLCD\test\Pain Drain\libraries\lvgl\src\misc/lv_area.c ****         return lv_point_within_circle(&corner_area, p_p);
 712              		.loc 1 196 0
 713 00b6 D388     		ldrh	r3, [r2, #6]
 714 00b8 F618     		adds	r6, r6, r3
 715              	.LVL68:
 716 00ba D680     		strh	r6, [r2, #6]
 197:..\..\..\arduinoLCD\test\Pain Drain\libraries\lvgl\src\misc/lv_area.c ****     }
 717              		.loc 1 197 0
 718 00bc 2100     		movs	r1, r4
 719 00be 6846     		mov	r0, sp
 720 00c0 FFF7FEFF 		bl	lv_point_within_circle
 721              	.LVL69:
 722 00c4 52E0     		b	.L26
 723              	.LVL70:
 724              	.L29:
 200:..\..\..\arduinoLCD\test\Pain Drain\libraries\lvgl\src\misc/lv_area.c ****     corner_area.y2 = a_p->y2;
 725              		.loc 1 200 0
 726 00c6 0622     		movs	r2, #6
 727 00c8 AB5E     		ldrsh	r3, [r5, r2]
 728 00ca 9A1B     		subs	r2, r3, r6
 729 00cc 6946     		mov	r1, sp
 730 00ce 4A80     		strh	r2, [r1, #2]
 201:..\..\..\arduinoLCD\test\Pain Drain\libraries\lvgl\src\misc/lv_area.c ****     if(_lv_area_is_point_on(&corner_area, p_p, 0)) {
 731              		.loc 1 201 0
 732 00d0 CB80     		strh	r3, [r1, #6]
 202:..\..\..\arduinoLCD\test\Pain Drain\libraries\lvgl\src\misc/lv_area.c ****         corner_area.x2 += radius;
 733              		.loc 1 202 0
 734 00d2 0022     		movs	r2, #0
 735 00d4 2100     		movs	r1, r4
 736 00d6 6846     		mov	r0, sp
 737 00d8 FFF7FEFF 		bl	_lv_area_is_point_on
 738              	.LVL71:
ARM GAS  C:\Users\haske\AppData\Local\Temp\cc8C2ZcK.s 			page 27


 739 00dc 0028     		cmp	r0, #0
 740 00de 0CD0     		beq	.L30
 203:..\..\..\arduinoLCD\test\Pain Drain\libraries\lvgl\src\misc/lv_area.c ****         corner_area.y1 -= radius;
 741              		.loc 1 203 0
 742 00e0 6B46     		mov	r3, sp
 743 00e2 9B88     		ldrh	r3, [r3, #4]
 744 00e4 F318     		adds	r3, r6, r3
 745 00e6 6A46     		mov	r2, sp
 746 00e8 9380     		strh	r3, [r2, #4]
 204:..\..\..\arduinoLCD\test\Pain Drain\libraries\lvgl\src\misc/lv_area.c ****         return lv_point_within_circle(&corner_area, p_p);
 747              		.loc 1 204 0
 748 00ea 5388     		ldrh	r3, [r2, #2]
 749 00ec 9E1B     		subs	r6, r3, r6
 750              	.LVL72:
 751 00ee 5680     		strh	r6, [r2, #2]
 205:..\..\..\arduinoLCD\test\Pain Drain\libraries\lvgl\src\misc/lv_area.c ****     }
 752              		.loc 1 205 0
 753 00f0 2100     		movs	r1, r4
 754 00f2 6846     		mov	r0, sp
 755 00f4 FFF7FEFF 		bl	lv_point_within_circle
 756              	.LVL73:
 757 00f8 38E0     		b	.L26
 758              	.LVL74:
 759              	.L30:
 208:..\..\..\arduinoLCD\test\Pain Drain\libraries\lvgl\src\misc/lv_area.c ****     corner_area.x2 = a_p->x2;
 760              		.loc 1 208 0
 761 00fa 0422     		movs	r2, #4
 762 00fc AB5E     		ldrsh	r3, [r5, r2]
 763 00fe 9A1B     		subs	r2, r3, r6
 764 0100 6946     		mov	r1, sp
 765 0102 0A80     		strh	r2, [r1]
 209:..\..\..\arduinoLCD\test\Pain Drain\libraries\lvgl\src\misc/lv_area.c ****     if(_lv_area_is_point_on(&corner_area, p_p, 0)) {
 766              		.loc 1 209 0
 767 0104 8B80     		strh	r3, [r1, #4]
 210:..\..\..\arduinoLCD\test\Pain Drain\libraries\lvgl\src\misc/lv_area.c ****         corner_area.x1 -= radius;
 768              		.loc 1 210 0
 769 0106 0022     		movs	r2, #0
 770 0108 2100     		movs	r1, r4
 771 010a 6846     		mov	r0, sp
 772 010c FFF7FEFF 		bl	_lv_area_is_point_on
 773              	.LVL75:
 774 0110 0028     		cmp	r0, #0
 775 0112 0CD0     		beq	.L31
 211:..\..\..\arduinoLCD\test\Pain Drain\libraries\lvgl\src\misc/lv_area.c ****         corner_area.y1 -= radius;
 776              		.loc 1 211 0
 777 0114 6B46     		mov	r3, sp
 778 0116 1B88     		ldrh	r3, [r3]
 779 0118 9B1B     		subs	r3, r3, r6
 780 011a 6A46     		mov	r2, sp
 781 011c 1380     		strh	r3, [r2]
 212:..\..\..\arduinoLCD\test\Pain Drain\libraries\lvgl\src\misc/lv_area.c ****         return lv_point_within_circle(&corner_area, p_p);
 782              		.loc 1 212 0
 783 011e 5388     		ldrh	r3, [r2, #2]
 784 0120 9E1B     		subs	r6, r3, r6
 785              	.LVL76:
 786 0122 5680     		strh	r6, [r2, #2]
 213:..\..\..\arduinoLCD\test\Pain Drain\libraries\lvgl\src\misc/lv_area.c ****     }
ARM GAS  C:\Users\haske\AppData\Local\Temp\cc8C2ZcK.s 			page 28


 787              		.loc 1 213 0
 788 0124 2100     		movs	r1, r4
 789 0126 6846     		mov	r0, sp
 790 0128 FFF7FEFF 		bl	lv_point_within_circle
 791              	.LVL77:
 792 012c 1EE0     		b	.L26
 793              	.LVL78:
 794              	.L31:
 216:..\..\..\arduinoLCD\test\Pain Drain\libraries\lvgl\src\misc/lv_area.c ****     corner_area.y2 = a_p->y1 + radius;
 795              		.loc 1 216 0
 796 012e 0222     		movs	r2, #2
 797 0130 AB5E     		ldrsh	r3, [r5, r2]
 798 0132 6A46     		mov	r2, sp
 799 0134 5380     		strh	r3, [r2, #2]
 217:..\..\..\arduinoLCD\test\Pain Drain\libraries\lvgl\src\misc/lv_area.c ****     if(_lv_area_is_point_on(&corner_area, p_p, 0)) {
 800              		.loc 1 217 0
 801 0136 F318     		adds	r3, r6, r3
 802 0138 D380     		strh	r3, [r2, #6]
 218:..\..\..\arduinoLCD\test\Pain Drain\libraries\lvgl\src\misc/lv_area.c ****         corner_area.x1 -= radius;
 803              		.loc 1 218 0
 804 013a 0022     		movs	r2, #0
 805 013c 2100     		movs	r1, r4
 806 013e 6846     		mov	r0, sp
 807 0140 FFF7FEFF 		bl	_lv_area_is_point_on
 808              	.LVL79:
 809 0144 0028     		cmp	r0, #0
 810 0146 10D0     		beq	.L38
 219:..\..\..\arduinoLCD\test\Pain Drain\libraries\lvgl\src\misc/lv_area.c ****         corner_area.y2 += radius;
 811              		.loc 1 219 0
 812 0148 6B46     		mov	r3, sp
 813 014a 1B88     		ldrh	r3, [r3]
 814 014c 9B1B     		subs	r3, r3, r6
 815 014e 6A46     		mov	r2, sp
 816 0150 1380     		strh	r3, [r2]
 220:..\..\..\arduinoLCD\test\Pain Drain\libraries\lvgl\src\misc/lv_area.c ****         return lv_point_within_circle(&corner_area, p_p);
 817              		.loc 1 220 0
 818 0152 D388     		ldrh	r3, [r2, #6]
 819 0154 F618     		adds	r6, r6, r3
 820              	.LVL80:
 821 0156 D680     		strh	r6, [r2, #6]
 221:..\..\..\arduinoLCD\test\Pain Drain\libraries\lvgl\src\misc/lv_area.c ****     }
 822              		.loc 1 221 0
 823 0158 2100     		movs	r1, r4
 824 015a 6846     		mov	r0, sp
 825 015c FFF7FEFF 		bl	lv_point_within_circle
 826              	.LVL81:
 827 0160 04E0     		b	.L26
 828              	.LVL82:
 829              	.L36:
 175:..\..\..\arduinoLCD\test\Pain Drain\libraries\lvgl\src\misc/lv_area.c ****     /*Now handle potential rounded rectangles*/
 830              		.loc 1 175 0
 831 0162 0020     		movs	r0, #0
 832 0164 02E0     		b	.L26
 833              	.L37:
 179:..\..\..\arduinoLCD\test\Pain Drain\libraries\lvgl\src\misc/lv_area.c ****     }
 834              		.loc 1 179 0
 835 0166 0120     		movs	r0, #1
ARM GAS  C:\Users\haske\AppData\Local\Temp\cc8C2ZcK.s 			page 29


 836 0168 00E0     		b	.L26
 837              	.LVL83:
 838              	.L38:
 224:..\..\..\arduinoLCD\test\Pain Drain\libraries\lvgl\src\misc/lv_area.c **** }
 839              		.loc 1 224 0
 840 016a 0120     		movs	r0, #1
 841              	.LVL84:
 842              	.L26:
 225:..\..\..\arduinoLCD\test\Pain Drain\libraries\lvgl\src\misc/lv_area.c **** 
 843              		.loc 1 225 0
 844 016c 03B0     		add	sp, sp, #12
 845              		@ sp needed
 846              	.LVL85:
 847              	.LVL86:
 848 016e F0BD     		pop	{r4, r5, r6, r7, pc}
 849              		.cfi_endproc
 850              	.LFE14:
 851              		.size	_lv_area_is_point_on, .-_lv_area_is_point_on
 852              		.section	.text._lv_area_is_on,"ax",%progbits
 853              		.align	2
 854              		.global	_lv_area_is_on
 855              		.code	16
 856              		.thumb_func
 857              		.type	_lv_area_is_on, %function
 858              	_lv_area_is_on:
 859              	.LFB15:
 234:..\..\..\arduinoLCD\test\Pain Drain\libraries\lvgl\src\misc/lv_area.c ****     if((a1_p->x1 <= a2_p->x2) && (a1_p->x2 >= a2_p->x1) && (a1_p->y1 <= a2_p->y2) && (a1_p->y2 >= a
 860              		.loc 1 234 0
 861              		.cfi_startproc
 862              		@ args = 0, pretend = 0, frame = 0
 863              		@ frame_needed = 0, uses_anonymous_args = 0
 864              	.LVL87:
 865 0000 10B5     		push	{r4, lr}
 866              		.cfi_def_cfa_offset 8
 867              		.cfi_offset 4, -8
 868              		.cfi_offset 14, -4
 235:..\..\..\arduinoLCD\test\Pain Drain\libraries\lvgl\src\misc/lv_area.c ****         return true;
 869              		.loc 1 235 0
 870 0002 0023     		movs	r3, #0
 871 0004 C25E     		ldrsh	r2, [r0, r3]
 872 0006 0424     		movs	r4, #4
 873 0008 0B5F     		ldrsh	r3, [r1, r4]
 874 000a 9A42     		cmp	r2, r3
 875 000c 13DC     		bgt	.L41
 235:..\..\..\arduinoLCD\test\Pain Drain\libraries\lvgl\src\misc/lv_area.c ****         return true;
 876              		.loc 1 235 0 is_stmt 0 discriminator 1
 877 000e 0423     		movs	r3, #4
 878 0010 C25E     		ldrsh	r2, [r0, r3]
 879 0012 0024     		movs	r4, #0
 880 0014 0B5F     		ldrsh	r3, [r1, r4]
 881 0016 9A42     		cmp	r2, r3
 882 0018 0FDB     		blt	.L42
 235:..\..\..\arduinoLCD\test\Pain Drain\libraries\lvgl\src\misc/lv_area.c ****         return true;
 883              		.loc 1 235 0 discriminator 2
 884 001a 0223     		movs	r3, #2
 885 001c C25E     		ldrsh	r2, [r0, r3]
 886 001e 0624     		movs	r4, #6
ARM GAS  C:\Users\haske\AppData\Local\Temp\cc8C2ZcK.s 			page 30


 887 0020 0B5F     		ldrsh	r3, [r1, r4]
 888 0022 9A42     		cmp	r2, r3
 889 0024 0BDC     		bgt	.L43
 235:..\..\..\arduinoLCD\test\Pain Drain\libraries\lvgl\src\misc/lv_area.c ****         return true;
 890              		.loc 1 235 0 discriminator 3
 891 0026 0623     		movs	r3, #6
 892 0028 C25E     		ldrsh	r2, [r0, r3]
 893 002a 0223     		movs	r3, #2
 894 002c CB5E     		ldrsh	r3, [r1, r3]
 895              	.LVL88:
 896 002e 9A42     		cmp	r2, r3
 897 0030 07DA     		bge	.L44
 239:..\..\..\arduinoLCD\test\Pain Drain\libraries\lvgl\src\misc/lv_area.c ****     }
 898              		.loc 1 239 0 is_stmt 1
 899 0032 0020     		movs	r0, #0
 900              	.LVL89:
 901 0034 06E0     		b	.L40
 902              	.LVL90:
 903              	.L41:
 904 0036 0020     		movs	r0, #0
 905              	.LVL91:
 906 0038 04E0     		b	.L40
 907              	.LVL92:
 908              	.L42:
 909 003a 0020     		movs	r0, #0
 910              	.LVL93:
 911 003c 02E0     		b	.L40
 912              	.LVL94:
 913              	.L43:
 914 003e 0020     		movs	r0, #0
 915              	.LVL95:
 916 0040 00E0     		b	.L40
 917              	.LVL96:
 918              	.L44:
 236:..\..\..\arduinoLCD\test\Pain Drain\libraries\lvgl\src\misc/lv_area.c ****     }
 919              		.loc 1 236 0
 920 0042 0120     		movs	r0, #1
 921              	.LVL97:
 922              	.L40:
 241:..\..\..\arduinoLCD\test\Pain Drain\libraries\lvgl\src\misc/lv_area.c **** 
 923              		.loc 1 241 0
 924              		@ sp needed
 925 0044 10BD     		pop	{r4, pc}
 926              		.cfi_endproc
 927              	.LFE15:
 928              		.size	_lv_area_is_on, .-_lv_area_is_on
 929 0046 C046     		.section	.text._lv_area_is_in,"ax",%progbits
 930              		.align	2
 931              		.global	_lv_area_is_in
 932              		.code	16
 933              		.thumb_func
 934              		.type	_lv_area_is_in, %function
 935              	_lv_area_is_in:
 936              	.LFB16:
 251:..\..\..\arduinoLCD\test\Pain Drain\libraries\lvgl\src\misc/lv_area.c ****     bool is_in = false;
 937              		.loc 1 251 0
 938              		.cfi_startproc
ARM GAS  C:\Users\haske\AppData\Local\Temp\cc8C2ZcK.s 			page 31


 939              		@ args = 0, pretend = 0, frame = 8
 940              		@ frame_needed = 0, uses_anonymous_args = 0
 941              	.LVL98:
 942 0000 F0B5     		push	{r4, r5, r6, r7, lr}
 943              		.cfi_def_cfa_offset 20
 944              		.cfi_offset 4, -20
 945              		.cfi_offset 5, -16
 946              		.cfi_offset 6, -12
 947              		.cfi_offset 7, -8
 948              		.cfi_offset 14, -4
 949 0002 83B0     		sub	sp, sp, #12
 950              		.cfi_def_cfa_offset 32
 951 0004 0400     		movs	r4, r0
 952 0006 0E00     		movs	r6, r1
 953 0008 1500     		movs	r5, r2
 954              	.LVL99:
 254:..\..\..\arduinoLCD\test\Pain Drain\libraries\lvgl\src\misc/lv_area.c ****        ain_p->y2 <= aholder_p->y2) {
 955              		.loc 1 254 0
 956 000a 0022     		movs	r2, #0
 957 000c 835E     		ldrsh	r3, [r0, r2]
 958              	.LVL100:
 959 000e 0021     		movs	r1, #0
 960 0010 725E     		ldrsh	r2, [r6, r1]
 961              	.LVL101:
 962 0012 9342     		cmp	r3, r2
 963 0014 13DB     		blt	.L48
 254:..\..\..\arduinoLCD\test\Pain Drain\libraries\lvgl\src\misc/lv_area.c ****        ain_p->y2 <= aholder_p->y2) {
 964              		.loc 1 254 0 is_stmt 0 discriminator 1
 965 0016 0222     		movs	r2, #2
 966 0018 815E     		ldrsh	r1, [r0, r2]
 967 001a 0220     		movs	r0, #2
 968 001c 325E     		ldrsh	r2, [r6, r0]
 969              	.LVL102:
 970 001e 9142     		cmp	r1, r2
 971 0020 0FDB     		blt	.L49
 254:..\..\..\arduinoLCD\test\Pain Drain\libraries\lvgl\src\misc/lv_area.c ****        ain_p->y2 <= aholder_p->y2) {
 972              		.loc 1 254 0 discriminator 2
 973 0022 0422     		movs	r2, #4
 974 0024 A15E     		ldrsh	r1, [r4, r2]
 975 0026 0420     		movs	r0, #4
 976 0028 325E     		ldrsh	r2, [r6, r0]
 977 002a 9142     		cmp	r1, r2
 978 002c 0BDC     		bgt	.L50
 255:..\..\..\arduinoLCD\test\Pain Drain\libraries\lvgl\src\misc/lv_area.c ****         is_in = true;
 979              		.loc 1 255 0 is_stmt 1 discriminator 3
 980 002e 0622     		movs	r2, #6
 981 0030 A15E     		ldrsh	r1, [r4, r2]
 982 0032 0620     		movs	r0, #6
 983 0034 325E     		ldrsh	r2, [r6, r0]
 254:..\..\..\arduinoLCD\test\Pain Drain\libraries\lvgl\src\misc/lv_area.c ****        ain_p->y2 <= aholder_p->y2) {
 984              		.loc 1 254 0 discriminator 3
 985 0036 9142     		cmp	r1, r2
 986 0038 07DD     		ble	.L51
 252:..\..\..\arduinoLCD\test\Pain Drain\libraries\lvgl\src\misc/lv_area.c **** 
 987              		.loc 1 252 0
 988 003a 0022     		movs	r2, #0
 989 003c 06E0     		b	.L46
ARM GAS  C:\Users\haske\AppData\Local\Temp\cc8C2ZcK.s 			page 32


 990              	.LVL103:
 991              	.L48:
 992 003e 0022     		movs	r2, #0
 993 0040 04E0     		b	.L46
 994              	.LVL104:
 995              	.L49:
 996 0042 0022     		movs	r2, #0
 997 0044 02E0     		b	.L46
 998              	.L50:
 999 0046 0022     		movs	r2, #0
 1000 0048 00E0     		b	.L46
 1001              	.L51:
 256:..\..\..\arduinoLCD\test\Pain Drain\libraries\lvgl\src\misc/lv_area.c ****     }
 1002              		.loc 1 256 0
 1003 004a 0122     		movs	r2, #1
 1004              	.L46:
 1005              	.LVL105:
 259:..\..\..\arduinoLCD\test\Pain Drain\libraries\lvgl\src\misc/lv_area.c ****     if(radius == 0) return true;
 1006              		.loc 1 259 0
 1007 004c 002A     		cmp	r2, #0
 1008 004e 2DD0     		beq	.L52
 260:..\..\..\arduinoLCD\test\Pain Drain\libraries\lvgl\src\misc/lv_area.c **** 
 1009              		.loc 1 260 0
 1010 0050 002D     		cmp	r5, #0
 1011 0052 2DD0     		beq	.L53
 265:..\..\..\arduinoLCD\test\Pain Drain\libraries\lvgl\src\misc/lv_area.c ****     p.y = ain_p->y1;
 1012              		.loc 1 265 0
 1013 0054 01A9     		add	r1, sp, #4
 1014 0056 0B80     		strh	r3, [r1]
 266:..\..\..\arduinoLCD\test\Pain Drain\libraries\lvgl\src\misc/lv_area.c ****     if(_lv_area_is_point_on(aholder_p, &p, radius) == false) return false;
 1015              		.loc 1 266 0
 1016 0058 0222     		movs	r2, #2
 1017 005a A35E     		ldrsh	r3, [r4, r2]
 1018              	.LVL106:
 1019 005c 4B80     		strh	r3, [r1, #2]
 267:..\..\..\arduinoLCD\test\Pain Drain\libraries\lvgl\src\misc/lv_area.c **** 
 1020              		.loc 1 267 0
 1021 005e 2A00     		movs	r2, r5
 1022 0060 3000     		movs	r0, r6
 1023 0062 FFF7FEFF 		bl	_lv_area_is_point_on
 1024              	.LVL107:
 1025 0066 0028     		cmp	r0, #0
 1026 0068 23D0     		beq	.L47
 269:..\..\..\arduinoLCD\test\Pain Drain\libraries\lvgl\src\misc/lv_area.c ****     p.y = ain_p->y1;
 1027              		.loc 1 269 0
 1028 006a 0423     		movs	r3, #4
 1029 006c E75E     		ldrsh	r7, [r4, r3]
 1030 006e 01A9     		add	r1, sp, #4
 1031 0070 0F80     		strh	r7, [r1]
 270:..\..\..\arduinoLCD\test\Pain Drain\libraries\lvgl\src\misc/lv_area.c ****     if(_lv_area_is_point_on(aholder_p, &p, radius) == false) return false;
 1032              		.loc 1 270 0
 1033 0072 0222     		movs	r2, #2
 1034 0074 A35E     		ldrsh	r3, [r4, r2]
 1035 0076 4B80     		strh	r3, [r1, #2]
 271:..\..\..\arduinoLCD\test\Pain Drain\libraries\lvgl\src\misc/lv_area.c **** 
 1036              		.loc 1 271 0
 1037 0078 2A00     		movs	r2, r5
ARM GAS  C:\Users\haske\AppData\Local\Temp\cc8C2ZcK.s 			page 33


 1038 007a 3000     		movs	r0, r6
 1039 007c FFF7FEFF 		bl	_lv_area_is_point_on
 1040              	.LVL108:
 1041 0080 0028     		cmp	r0, #0
 1042 0082 16D0     		beq	.L47
 273:..\..\..\arduinoLCD\test\Pain Drain\libraries\lvgl\src\misc/lv_area.c ****     p.y = ain_p->y2;
 1043              		.loc 1 273 0
 1044 0084 0022     		movs	r2, #0
 1045 0086 A35E     		ldrsh	r3, [r4, r2]
 1046 0088 01A9     		add	r1, sp, #4
 1047 008a 0B80     		strh	r3, [r1]
 274:..\..\..\arduinoLCD\test\Pain Drain\libraries\lvgl\src\misc/lv_area.c ****     if(_lv_area_is_point_on(aholder_p, &p, radius) == false) return false;
 1048              		.loc 1 274 0
 1049 008c 0622     		movs	r2, #6
 1050 008e A35E     		ldrsh	r3, [r4, r2]
 1051 0090 4B80     		strh	r3, [r1, #2]
 275:..\..\..\arduinoLCD\test\Pain Drain\libraries\lvgl\src\misc/lv_area.c **** 
 1052              		.loc 1 275 0
 1053 0092 2A00     		movs	r2, r5
 1054 0094 3000     		movs	r0, r6
 1055 0096 FFF7FEFF 		bl	_lv_area_is_point_on
 1056              	.LVL109:
 1057 009a 0028     		cmp	r0, #0
 1058 009c 09D0     		beq	.L47
 277:..\..\..\arduinoLCD\test\Pain Drain\libraries\lvgl\src\misc/lv_area.c ****     p.y = ain_p->y2;
 1059              		.loc 1 277 0
 1060 009e 01A9     		add	r1, sp, #4
 1061 00a0 0F80     		strh	r7, [r1]
 279:..\..\..\arduinoLCD\test\Pain Drain\libraries\lvgl\src\misc/lv_area.c **** 
 1062              		.loc 1 279 0
 1063 00a2 2A00     		movs	r2, r5
 1064 00a4 3000     		movs	r0, r6
 1065 00a6 FFF7FEFF 		bl	_lv_area_is_point_on
 1066              	.LVL110:
 1067 00aa 02E0     		b	.L47
 1068              	.LVL111:
 1069              	.L52:
 259:..\..\..\arduinoLCD\test\Pain Drain\libraries\lvgl\src\misc/lv_area.c ****     if(radius == 0) return true;
 1070              		.loc 1 259 0
 1071 00ac 0020     		movs	r0, #0
 1072 00ae 00E0     		b	.L47
 1073              	.L53:
 260:..\..\..\arduinoLCD\test\Pain Drain\libraries\lvgl\src\misc/lv_area.c **** 
 1074              		.loc 1 260 0
 1075 00b0 0120     		movs	r0, #1
 1076              	.LVL112:
 1077              	.L47:
 282:..\..\..\arduinoLCD\test\Pain Drain\libraries\lvgl\src\misc/lv_area.c **** 
 1078              		.loc 1 282 0
 1079 00b2 03B0     		add	sp, sp, #12
 1080              		@ sp needed
 1081              	.LVL113:
 1082              	.LVL114:
 1083 00b4 F0BD     		pop	{r4, r5, r6, r7, pc}
 1084              		.cfi_endproc
 1085              	.LFE16:
 1086              		.size	_lv_area_is_in, .-_lv_area_is_in
ARM GAS  C:\Users\haske\AppData\Local\Temp\cc8C2ZcK.s 			page 34


 1087 00b6 C046     		.section	.text._lv_area_is_out,"ax",%progbits
 1088              		.align	2
 1089              		.global	_lv_area_is_out
 1090              		.code	16
 1091              		.thumb_func
 1092              		.type	_lv_area_is_out, %function
 1093              	_lv_area_is_out:
 1094              	.LFB17:
 292:..\..\..\arduinoLCD\test\Pain Drain\libraries\lvgl\src\misc/lv_area.c ****     if(aout_p->x2 < aholder_p->x1 || aout_p->y2 < aholder_p->y1 || aout_p->x1 > aholder_p->x2 ||
 1095              		.loc 1 292 0
 1096              		.cfi_startproc
 1097              		@ args = 0, pretend = 0, frame = 16
 1098              		@ frame_needed = 0, uses_anonymous_args = 0
 1099              	.LVL115:
 1100 0000 F0B5     		push	{r4, r5, r6, r7, lr}
 1101              		.cfi_def_cfa_offset 20
 1102              		.cfi_offset 4, -20
 1103              		.cfi_offset 5, -16
 1104              		.cfi_offset 6, -12
 1105              		.cfi_offset 7, -8
 1106              		.cfi_offset 14, -4
 1107 0002 5746     		mov	r7, r10
 1108 0004 4E46     		mov	r6, r9
 1109 0006 C0B4     		push	{r6, r7}
 1110              		.cfi_def_cfa_offset 28
 1111              		.cfi_offset 9, -28
 1112              		.cfi_offset 10, -24
 1113 0008 85B0     		sub	sp, sp, #20
 1114              		.cfi_def_cfa_offset 48
 1115 000a 0500     		movs	r5, r0
 1116 000c 0C00     		movs	r4, r1
 1117 000e 1000     		movs	r0, r2
 1118              	.LVL116:
 1119 0010 0192     		str	r2, [sp, #4]
 293:..\..\..\arduinoLCD\test\Pain Drain\libraries\lvgl\src\misc/lv_area.c ****        aout_p->y1 > aholder_p->y2) {
 1120              		.loc 1 293 0
 1121 0012 0423     		movs	r3, #4
 1122 0014 EF5E     		ldrsh	r7, [r5, r3]
 1123 0016 0022     		movs	r2, #0
 1124 0018 8B5E     		ldrsh	r3, [r1, r2]
 1125              	.LVL117:
 1126 001a 9F42     		cmp	r7, r3
 1127 001c 3EDB     		blt	.L56
 293:..\..\..\arduinoLCD\test\Pain Drain\libraries\lvgl\src\misc/lv_area.c ****        aout_p->y1 > aholder_p->y2) {
 1128              		.loc 1 293 0 is_stmt 0 discriminator 1
 1129 001e 0622     		movs	r2, #6
 1130 0020 AB5E     		ldrsh	r3, [r5, r2]
 1131 0022 9946     		mov	r9, r3
 1132 0024 0222     		movs	r2, #2
 1133 0026 8B5E     		ldrsh	r3, [r1, r2]
 1134 0028 9945     		cmp	r9, r3
 1135 002a 39DB     		blt	.L57
 293:..\..\..\arduinoLCD\test\Pain Drain\libraries\lvgl\src\misc/lv_area.c ****        aout_p->y1 > aholder_p->y2) {
 1136              		.loc 1 293 0 discriminator 2
 1137 002c 0022     		movs	r2, #0
 1138 002e AB5E     		ldrsh	r3, [r5, r2]
 1139 0030 0421     		movs	r1, #4
ARM GAS  C:\Users\haske\AppData\Local\Temp\cc8C2ZcK.s 			page 35


 1140 0032 625E     		ldrsh	r2, [r4, r1]
 1141              	.LVL118:
 1142 0034 9342     		cmp	r3, r2
 1143 0036 35DC     		bgt	.L58
 294:..\..\..\arduinoLCD\test\Pain Drain\libraries\lvgl\src\misc/lv_area.c ****         return true;
 1144              		.loc 1 294 0 is_stmt 1 discriminator 3
 1145 0038 0221     		movs	r1, #2
 1146 003a 6A5E     		ldrsh	r2, [r5, r1]
 1147 003c 0626     		movs	r6, #6
 1148 003e A15F     		ldrsh	r1, [r4, r6]
 293:..\..\..\arduinoLCD\test\Pain Drain\libraries\lvgl\src\misc/lv_area.c ****        aout_p->y1 > aholder_p->y2) {
 1149              		.loc 1 293 0 discriminator 3
 1150 0040 8A42     		cmp	r2, r1
 1151 0042 31DC     		bgt	.L59
 298:..\..\..\arduinoLCD\test\Pain Drain\libraries\lvgl\src\misc/lv_area.c **** 
 1152              		.loc 1 298 0
 1153 0044 0028     		cmp	r0, #0
 1154 0046 31D0     		beq	.L60
 303:..\..\..\arduinoLCD\test\Pain Drain\libraries\lvgl\src\misc/lv_area.c ****     p.y = aout_p->y1;
 1155              		.loc 1 303 0
 1156 0048 03A9     		add	r1, sp, #12
 1157 004a 0B80     		strh	r3, [r1]
 304:..\..\..\arduinoLCD\test\Pain Drain\libraries\lvgl\src\misc/lv_area.c ****     if(_lv_area_is_point_on(aholder_p, &p, radius)) return false;
 1158              		.loc 1 304 0
 1159 004c 4A80     		strh	r2, [r1, #2]
 305:..\..\..\arduinoLCD\test\Pain Drain\libraries\lvgl\src\misc/lv_area.c **** 
 1160              		.loc 1 305 0
 1161 004e 0200     		movs	r2, r0
 1162 0050 2000     		movs	r0, r4
 1163 0052 FFF7FEFF 		bl	_lv_area_is_point_on
 1164              	.LVL119:
 1165 0056 061E     		subs	r6, r0, #0
 1166 0058 2AD1     		bne	.L61
 307:..\..\..\arduinoLCD\test\Pain Drain\libraries\lvgl\src\misc/lv_area.c ****     p.y = aout_p->y1;
 1167              		.loc 1 307 0
 1168 005a 03A9     		add	r1, sp, #12
 1169 005c 0F80     		strh	r7, [r1]
 308:..\..\..\arduinoLCD\test\Pain Drain\libraries\lvgl\src\misc/lv_area.c ****     if(_lv_area_is_point_on(aholder_p, &p, radius)) return false;
 1170              		.loc 1 308 0
 1171 005e 0222     		movs	r2, #2
 1172 0060 AB5E     		ldrsh	r3, [r5, r2]
 1173 0062 4B80     		strh	r3, [r1, #2]
 309:..\..\..\arduinoLCD\test\Pain Drain\libraries\lvgl\src\misc/lv_area.c **** 
 1174              		.loc 1 309 0
 1175 0064 019A     		ldr	r2, [sp, #4]
 1176 0066 2000     		movs	r0, r4
 1177 0068 FFF7FEFF 		bl	_lv_area_is_point_on
 1178              	.LVL120:
 1179 006c 8246     		mov	r10, r0
 1180 006e 0028     		cmp	r0, #0
 1181 0070 23D1     		bne	.L55
 311:..\..\..\arduinoLCD\test\Pain Drain\libraries\lvgl\src\misc/lv_area.c ****     p.y = aout_p->y2;
 1182              		.loc 1 311 0
 1183 0072 0022     		movs	r2, #0
 1184 0074 AB5E     		ldrsh	r3, [r5, r2]
 1185 0076 03A9     		add	r1, sp, #12
 1186 0078 0B80     		strh	r3, [r1]
ARM GAS  C:\Users\haske\AppData\Local\Temp\cc8C2ZcK.s 			page 36


 312:..\..\..\arduinoLCD\test\Pain Drain\libraries\lvgl\src\misc/lv_area.c ****     if(_lv_area_is_point_on(aholder_p, &p, radius)) return false;
 1187              		.loc 1 312 0
 1188 007a 4B46     		mov	r3, r9
 1189 007c 4B80     		strh	r3, [r1, #2]
 313:..\..\..\arduinoLCD\test\Pain Drain\libraries\lvgl\src\misc/lv_area.c **** 
 1190              		.loc 1 313 0
 1191 007e 019A     		ldr	r2, [sp, #4]
 1192 0080 2000     		movs	r0, r4
 1193 0082 FFF7FEFF 		bl	_lv_area_is_point_on
 1194              	.LVL121:
 1195 0086 061E     		subs	r6, r0, #0
 1196 0088 14D1     		bne	.L62
 315:..\..\..\arduinoLCD\test\Pain Drain\libraries\lvgl\src\misc/lv_area.c ****     p.y = aout_p->y2;
 1197              		.loc 1 315 0
 1198 008a 03A9     		add	r1, sp, #12
 1199 008c 0F80     		strh	r7, [r1]
 317:..\..\..\arduinoLCD\test\Pain Drain\libraries\lvgl\src\misc/lv_area.c **** 
 1200              		.loc 1 317 0
 1201 008e 019A     		ldr	r2, [sp, #4]
 1202 0090 2000     		movs	r0, r4
 1203 0092 FFF7FEFF 		bl	_lv_area_is_point_on
 1204              	.LVL122:
 1205 0096 0028     		cmp	r0, #0
 1206 0098 0ED0     		beq	.L63
 1207 009a 0EE0     		b	.L55
 1208              	.LVL123:
 1209              	.L56:
 295:..\..\..\arduinoLCD\test\Pain Drain\libraries\lvgl\src\misc/lv_area.c ****     }
 1210              		.loc 1 295 0
 1211 009c 0126     		movs	r6, #1
 1212 009e 0CE0     		b	.L55
 1213              	.L57:
 1214 00a0 0126     		movs	r6, #1
 1215 00a2 0AE0     		b	.L55
 1216              	.LVL124:
 1217              	.L58:
 1218 00a4 0126     		movs	r6, #1
 1219 00a6 08E0     		b	.L55
 1220              	.L59:
 1221 00a8 0126     		movs	r6, #1
 1222 00aa 06E0     		b	.L55
 1223              	.L60:
 298:..\..\..\arduinoLCD\test\Pain Drain\libraries\lvgl\src\misc/lv_area.c **** 
 1224              		.loc 1 298 0
 1225 00ac 0026     		movs	r6, #0
 1226 00ae 04E0     		b	.L55
 1227              	.L61:
 305:..\..\..\arduinoLCD\test\Pain Drain\libraries\lvgl\src\misc/lv_area.c **** 
 1228              		.loc 1 305 0
 1229 00b0 0026     		movs	r6, #0
 1230 00b2 02E0     		b	.L55
 1231              	.L62:
 313:..\..\..\arduinoLCD\test\Pain Drain\libraries\lvgl\src\misc/lv_area.c **** 
 1232              		.loc 1 313 0
 1233 00b4 5646     		mov	r6, r10
 1234 00b6 00E0     		b	.L55
 1235              	.L63:
ARM GAS  C:\Users\haske\AppData\Local\Temp\cc8C2ZcK.s 			page 37


 319:..\..\..\arduinoLCD\test\Pain Drain\libraries\lvgl\src\misc/lv_area.c **** }
 1236              		.loc 1 319 0
 1237 00b8 0126     		movs	r6, #1
 1238              	.L55:
 320:..\..\..\arduinoLCD\test\Pain Drain\libraries\lvgl\src\misc/lv_area.c **** 
 1239              		.loc 1 320 0
 1240 00ba 3000     		movs	r0, r6
 1241 00bc 05B0     		add	sp, sp, #20
 1242              		@ sp needed
 1243              	.LVL125:
 1244              	.LVL126:
 1245 00be 0CBC     		pop	{r2, r3}
 1246 00c0 9146     		mov	r9, r2
 1247 00c2 9A46     		mov	r10, r3
 1248 00c4 F0BD     		pop	{r4, r5, r6, r7, pc}
 1249              		.cfi_endproc
 1250              	.LFE17:
 1251              		.size	_lv_area_is_out, .-_lv_area_is_out
 1252 00c6 C046     		.section	.text._lv_area_is_equal,"ax",%progbits
 1253              		.align	2
 1254              		.global	_lv_area_is_equal
 1255              		.code	16
 1256              		.thumb_func
 1257              		.type	_lv_area_is_equal, %function
 1258              	_lv_area_is_equal:
 1259              	.LFB18:
 323:..\..\..\arduinoLCD\test\Pain Drain\libraries\lvgl\src\misc/lv_area.c ****     return a->x1 == b->x1 && a->x2 == b->x2 && a->y1 == b->y1 && a->y2 == b->y2;
 1260              		.loc 1 323 0
 1261              		.cfi_startproc
 1262              		@ args = 0, pretend = 0, frame = 0
 1263              		@ frame_needed = 0, uses_anonymous_args = 0
 1264              	.LVL127:
 1265 0000 10B5     		push	{r4, lr}
 1266              		.cfi_def_cfa_offset 8
 1267              		.cfi_offset 4, -8
 1268              		.cfi_offset 14, -4
 324:..\..\..\arduinoLCD\test\Pain Drain\libraries\lvgl\src\misc/lv_area.c **** }
 1269              		.loc 1 324 0
 1270 0002 0023     		movs	r3, #0
 1271 0004 C25E     		ldrsh	r2, [r0, r3]
 1272 0006 0024     		movs	r4, #0
 1273 0008 0B5F     		ldrsh	r3, [r1, r4]
 1274 000a 9A42     		cmp	r2, r3
 1275 000c 13D1     		bne	.L66
 324:..\..\..\arduinoLCD\test\Pain Drain\libraries\lvgl\src\misc/lv_area.c **** }
 1276              		.loc 1 324 0 is_stmt 0 discriminator 1
 1277 000e 0423     		movs	r3, #4
 1278 0010 C25E     		ldrsh	r2, [r0, r3]
 1279 0012 0424     		movs	r4, #4
 1280 0014 0B5F     		ldrsh	r3, [r1, r4]
 1281 0016 9A42     		cmp	r2, r3
 1282 0018 0FD1     		bne	.L67
 324:..\..\..\arduinoLCD\test\Pain Drain\libraries\lvgl\src\misc/lv_area.c **** }
 1283              		.loc 1 324 0 discriminator 3
 1284 001a 0223     		movs	r3, #2
 1285 001c C25E     		ldrsh	r2, [r0, r3]
 1286 001e 0224     		movs	r4, #2
ARM GAS  C:\Users\haske\AppData\Local\Temp\cc8C2ZcK.s 			page 38


 1287 0020 0B5F     		ldrsh	r3, [r1, r4]
 1288 0022 9A42     		cmp	r2, r3
 1289 0024 0BD1     		bne	.L68
 324:..\..\..\arduinoLCD\test\Pain Drain\libraries\lvgl\src\misc/lv_area.c **** }
 1290              		.loc 1 324 0 discriminator 5
 1291 0026 0623     		movs	r3, #6
 1292 0028 C25E     		ldrsh	r2, [r0, r3]
 1293 002a 0623     		movs	r3, #6
 1294 002c CB5E     		ldrsh	r3, [r1, r3]
 1295              	.LVL128:
 1296 002e 9A42     		cmp	r2, r3
 1297 0030 07D0     		beq	.L69
 324:..\..\..\arduinoLCD\test\Pain Drain\libraries\lvgl\src\misc/lv_area.c **** }
 1298              		.loc 1 324 0
 1299 0032 0020     		movs	r0, #0
 1300              	.LVL129:
 1301 0034 06E0     		b	.L65
 1302              	.LVL130:
 1303              	.L66:
 1304 0036 0020     		movs	r0, #0
 1305              	.LVL131:
 1306 0038 04E0     		b	.L65
 1307              	.LVL132:
 1308              	.L67:
 1309 003a 0020     		movs	r0, #0
 1310              	.LVL133:
 1311 003c 02E0     		b	.L65
 1312              	.LVL134:
 1313              	.L68:
 1314 003e 0020     		movs	r0, #0
 1315              	.LVL135:
 1316 0040 00E0     		b	.L65
 1317              	.LVL136:
 1318              	.L69:
 1319 0042 0120     		movs	r0, #1
 1320              	.LVL137:
 1321              	.L65:
 325:..\..\..\arduinoLCD\test\Pain Drain\libraries\lvgl\src\misc/lv_area.c **** 
 1322              		.loc 1 325 0 is_stmt 1 discriminator 10
 1323              		@ sp needed
 1324 0044 10BD     		pop	{r4, pc}
 1325              		.cfi_endproc
 1326              	.LFE18:
 1327              		.size	_lv_area_is_equal, .-_lv_area_is_equal
 1328 0046 C046     		.section	.text.lv_area_align,"ax",%progbits
 1329              		.align	2
 1330              		.global	lv_area_align
 1331              		.code	16
 1332              		.thumb_func
 1333              		.type	lv_area_align, %function
 1334              	lv_area_align:
 1335              	.LFB19:
 335:..\..\..\arduinoLCD\test\Pain Drain\libraries\lvgl\src\misc/lv_area.c **** 
 1336              		.loc 1 335 0
 1337              		.cfi_startproc
 1338              		@ args = 4, pretend = 0, frame = 0
 1339              		@ frame_needed = 0, uses_anonymous_args = 0
ARM GAS  C:\Users\haske\AppData\Local\Temp\cc8C2ZcK.s 			page 39


 1340              	.LVL138:
 1341 0000 F0B5     		push	{r4, r5, r6, r7, lr}
 1342              		.cfi_def_cfa_offset 20
 1343              		.cfi_offset 4, -20
 1344              		.cfi_offset 5, -16
 1345              		.cfi_offset 6, -12
 1346              		.cfi_offset 7, -8
 1347              		.cfi_offset 14, -4
 1348 0002 9C46     		mov	ip, r3
 1349 0004 05AC     		add	r4, sp, #20
 1350              	.LVL139:
 1351 0006 0026     		movs	r6, #0
 1352 0008 A65F     		ldrsh	r6, [r4, r6]
 1353              	.LVL140:
 339:..\..\..\arduinoLCD\test\Pain Drain\libraries\lvgl\src\misc/lv_area.c ****         case LV_ALIGN_CENTER:
 1354              		.loc 1 339 0
 1355 000a 152A     		cmp	r2, #21
 1356 000c 00D9     		bls	.LCB1195
 1357 000e FDE1     		b	.L93	@long jump
 1358              	.LCB1195:
 1359 0010 9200     		lsls	r2, r2, #2
 1360              	.LVL141:
 1361 0012 F14C     		ldr	r4, .L94
 1362 0014 A258     		ldr	r2, [r4, r2]
 1363 0016 9746     		mov	pc, r2
 1364              		.section	.rodata
 1365              		.align	2
 1366              	.L73:
 1367 0000 0C040000 		.word	.L93
 1368 0004 0C040000 		.word	.L93
 1369 0008 72000000 		.word	.L72
 1370 000c A2000000 		.word	.L74
 1371 0010 C6000000 		.word	.L75
 1372 0014 EA000000 		.word	.L76
 1373 0018 38010000 		.word	.L77
 1374 001c 7A010000 		.word	.L78
 1375 0020 AA010000 		.word	.L79
 1376 0024 18000000 		.word	.L80
 1377 0028 F8010000 		.word	.L81
 1378 002c 0E020000 		.word	.L82
 1379 0030 4E020000 		.word	.L83
 1380 0034 82020000 		.word	.L84
 1381 0038 94020000 		.word	.L85
 1382 003c D0020000 		.word	.L86
 1383 0040 00030000 		.word	.L87
 1384 0044 16030000 		.word	.L88
 1385 0048 56030000 		.word	.L89
 1386 004c 8A030000 		.word	.L90
 1387 0050 9C030000 		.word	.L91
 1388 0054 DC030000 		.word	.L92
 1389              		.section	.text.lv_area_align
 1390              	.L80:
 1391              	.LVL142:
 1392              	.LBB126:
 1393              	.LBB127:
 125:..\..\..\arduinoLCD\test\Pain Drain\libraries\lvgl\src\misc/lv_area.h **** }
 1394              		.loc 2 125 0
ARM GAS  C:\Users\haske\AppData\Local\Temp\cc8C2ZcK.s 			page 40


 1395 0018 0423     		movs	r3, #4
 1396 001a C25E     		ldrsh	r2, [r0, r3]
 1397              	.LVL143:
 1398 001c 0023     		movs	r3, #0
 1399 001e C45E     		ldrsh	r4, [r0, r3]
 1400 0020 121B     		subs	r2, r2, r4
 1401 0022 0132     		adds	r2, r2, #1
 1402 0024 12B2     		sxth	r2, r2
 1403              	.LVL144:
 1404              	.LBE127:
 1405              	.LBE126:
 1406              	.LBB128:
 1407              	.LBB129:
 1408 0026 0423     		movs	r3, #4
 1409 0028 CC5E     		ldrsh	r4, [r1, r3]
 1410 002a 0023     		movs	r3, #0
 1411 002c CD5E     		ldrsh	r5, [r1, r3]
 1412 002e 641B     		subs	r4, r4, r5
 1413 0030 0134     		adds	r4, r4, #1
 1414 0032 24B2     		sxth	r4, r4
 1415              	.LVL145:
 1416              	.LBE129:
 1417              	.LBE128:
 341:..\..\..\arduinoLCD\test\Pain Drain\libraries\lvgl\src\misc/lv_area.c ****             y = lv_area_get_height(base) / 2 - lv_area_get_height(to_align) / 2;
 1418              		.loc 1 341 0
 1419 0034 D70F     		lsrs	r7, r2, #31
 1420 0036 BA18     		adds	r2, r7, r2
 1421 0038 5210     		asrs	r2, r2, #1
 1422 003a E70F     		lsrs	r7, r4, #31
 1423 003c 3C19     		adds	r4, r7, r4
 1424 003e 6410     		asrs	r4, r4, #1
 1425 0040 171B     		subs	r7, r2, r4
 1426 0042 3FB2     		sxth	r7, r7
 1427              	.LVL146:
 1428              	.LBB130:
 1429              	.LBB131:
 1430              		.loc 2 135 0
 1431 0044 0623     		movs	r3, #6
 1432 0046 C25E     		ldrsh	r2, [r0, r3]
 1433 0048 0223     		movs	r3, #2
 1434 004a C55E     		ldrsh	r5, [r0, r3]
 1435 004c 551B     		subs	r5, r2, r5
 1436 004e 0135     		adds	r5, r5, #1
 1437 0050 2DB2     		sxth	r5, r5
 1438              	.LVL147:
 1439              	.LBE131:
 1440              	.LBE130:
 1441              	.LBB132:
 1442              	.LBB133:
 1443 0052 0623     		movs	r3, #6
 1444 0054 CA5E     		ldrsh	r2, [r1, r3]
 1445 0056 0223     		movs	r3, #2
 1446 0058 CC5E     		ldrsh	r4, [r1, r3]
 1447 005a 121B     		subs	r2, r2, r4
 1448 005c 0132     		adds	r2, r2, #1
 1449 005e 12B2     		sxth	r2, r2
 1450              	.LVL148:
ARM GAS  C:\Users\haske\AppData\Local\Temp\cc8C2ZcK.s 			page 41


 1451              	.LBE133:
 1452              	.LBE132:
 342:..\..\..\arduinoLCD\test\Pain Drain\libraries\lvgl\src\misc/lv_area.c ****             break;
 1453              		.loc 1 342 0
 1454 0060 EC0F     		lsrs	r4, r5, #31
 1455 0062 6519     		adds	r5, r4, r5
 1456 0064 6D10     		asrs	r5, r5, #1
 1457 0066 D40F     		lsrs	r4, r2, #31
 1458 0068 A218     		adds	r2, r4, r2
 1459 006a 5210     		asrs	r2, r2, #1
 1460 006c AC1A     		subs	r4, r5, r2
 1461 006e 24B2     		sxth	r4, r4
 1462              	.LVL149:
 343:..\..\..\arduinoLCD\test\Pain Drain\libraries\lvgl\src\misc/lv_area.c **** 
 1463              		.loc 1 343 0
 1464 0070 CEE1     		b	.L71
 1465              	.LVL150:
 1466              	.L72:
 1467              	.LBB134:
 1468              	.LBB135:
 125:..\..\..\arduinoLCD\test\Pain Drain\libraries\lvgl\src\misc/lv_area.h **** }
 1469              		.loc 2 125 0
 1470 0072 0423     		movs	r3, #4
 1471 0074 C25E     		ldrsh	r2, [r0, r3]
 1472              	.LVL151:
 1473 0076 0023     		movs	r3, #0
 1474 0078 C45E     		ldrsh	r4, [r0, r3]
 1475 007a 121B     		subs	r2, r2, r4
 1476 007c 0132     		adds	r2, r2, #1
 1477 007e 12B2     		sxth	r2, r2
 1478              	.LVL152:
 1479              	.LBE135:
 1480              	.LBE134:
 1481              	.LBB136:
 1482              	.LBB137:
 1483 0080 0423     		movs	r3, #4
 1484 0082 CC5E     		ldrsh	r4, [r1, r3]
 1485 0084 0023     		movs	r3, #0
 1486 0086 CD5E     		ldrsh	r5, [r1, r3]
 1487 0088 641B     		subs	r4, r4, r5
 1488 008a 0134     		adds	r4, r4, #1
 1489 008c 24B2     		sxth	r4, r4
 1490              	.LVL153:
 1491              	.LBE137:
 1492              	.LBE136:
 350:..\..\..\arduinoLCD\test\Pain Drain\libraries\lvgl\src\misc/lv_area.c ****             y = 0;
 1493              		.loc 1 350 0
 1494 008e D70F     		lsrs	r7, r2, #31
 1495 0090 BA18     		adds	r2, r7, r2
 1496 0092 5210     		asrs	r2, r2, #1
 1497 0094 E70F     		lsrs	r7, r4, #31
 1498 0096 3C19     		adds	r4, r7, r4
 1499 0098 6410     		asrs	r4, r4, #1
 1500 009a 171B     		subs	r7, r2, r4
 1501 009c 3FB2     		sxth	r7, r7
 1502              	.LVL154:
 351:..\..\..\arduinoLCD\test\Pain Drain\libraries\lvgl\src\misc/lv_area.c ****             break;
ARM GAS  C:\Users\haske\AppData\Local\Temp\cc8C2ZcK.s 			page 42


 1503              		.loc 1 351 0
 1504 009e 0024     		movs	r4, #0
 352:..\..\..\arduinoLCD\test\Pain Drain\libraries\lvgl\src\misc/lv_area.c **** 
 1505              		.loc 1 352 0
 1506 00a0 B6E1     		b	.L71
 1507              	.LVL155:
 1508              	.L74:
 1509              	.LBB138:
 1510              	.LBB139:
 125:..\..\..\arduinoLCD\test\Pain Drain\libraries\lvgl\src\misc/lv_area.h **** }
 1511              		.loc 2 125 0
 1512 00a2 0423     		movs	r3, #4
 1513 00a4 C25E     		ldrsh	r2, [r0, r3]
 1514              	.LVL156:
 1515 00a6 0023     		movs	r3, #0
 1516 00a8 C75E     		ldrsh	r7, [r0, r3]
 1517 00aa D71B     		subs	r7, r2, r7
 1518 00ac 0137     		adds	r7, r7, #1
 1519 00ae BAB2     		uxth	r2, r7
 1520              	.LVL157:
 1521              	.LBE139:
 1522              	.LBE138:
 1523              	.LBB140:
 1524              	.LBB141:
 1525 00b0 0423     		movs	r3, #4
 1526 00b2 CC5E     		ldrsh	r4, [r1, r3]
 1527 00b4 0023     		movs	r3, #0
 1528 00b6 CF5E     		ldrsh	r7, [r1, r3]
 1529 00b8 E71B     		subs	r7, r4, r7
 1530 00ba 0137     		adds	r7, r7, #1
 1531 00bc BFB2     		uxth	r7, r7
 1532              	.LVL158:
 1533              	.LBE141:
 1534              	.LBE140:
 355:..\..\..\arduinoLCD\test\Pain Drain\libraries\lvgl\src\misc/lv_area.c ****             y = 0;
 1535              		.loc 1 355 0
 1536 00be D71B     		subs	r7, r2, r7
 1537 00c0 3FB2     		sxth	r7, r7
 1538              	.LVL159:
 356:..\..\..\arduinoLCD\test\Pain Drain\libraries\lvgl\src\misc/lv_area.c ****             break;
 1539              		.loc 1 356 0
 1540 00c2 0024     		movs	r4, #0
 357:..\..\..\arduinoLCD\test\Pain Drain\libraries\lvgl\src\misc/lv_area.c **** 
 1541              		.loc 1 357 0
 1542 00c4 A4E1     		b	.L71
 1543              	.LVL160:
 1544              	.L75:
 1545              	.LBB142:
 1546              	.LBB143:
 1547              		.loc 2 135 0
 1548 00c6 0623     		movs	r3, #6
 1549 00c8 C25E     		ldrsh	r2, [r0, r3]
 1550              	.LVL161:
 1551 00ca 0223     		movs	r3, #2
 1552 00cc C45E     		ldrsh	r4, [r0, r3]
 1553 00ce 141B     		subs	r4, r2, r4
 1554 00d0 0134     		adds	r4, r4, #1
ARM GAS  C:\Users\haske\AppData\Local\Temp\cc8C2ZcK.s 			page 43


 1555 00d2 A2B2     		uxth	r2, r4
 1556              	.LVL162:
 1557              	.LBE143:
 1558              	.LBE142:
 1559              	.LBB144:
 1560              	.LBB145:
 1561 00d4 0623     		movs	r3, #6
 1562 00d6 CC5E     		ldrsh	r4, [r1, r3]
 1563 00d8 0223     		movs	r3, #2
 1564 00da CD5E     		ldrsh	r5, [r1, r3]
 1565 00dc 641B     		subs	r4, r4, r5
 1566 00de 0134     		adds	r4, r4, #1
 1567 00e0 A4B2     		uxth	r4, r4
 1568              	.LVL163:
 1569              	.LBE145:
 1570              	.LBE144:
 361:..\..\..\arduinoLCD\test\Pain Drain\libraries\lvgl\src\misc/lv_area.c ****             break;
 1571              		.loc 1 361 0
 1572 00e2 141B     		subs	r4, r2, r4
 1573 00e4 24B2     		sxth	r4, r4
 1574              	.LVL164:
 360:..\..\..\arduinoLCD\test\Pain Drain\libraries\lvgl\src\misc/lv_area.c ****             y = lv_area_get_height(base) - lv_area_get_height(to_align);
 1575              		.loc 1 360 0
 1576 00e6 0027     		movs	r7, #0
 362:..\..\..\arduinoLCD\test\Pain Drain\libraries\lvgl\src\misc/lv_area.c ****         case LV_ALIGN_BOTTOM_MID:
 1577              		.loc 1 362 0
 1578 00e8 92E1     		b	.L71
 1579              	.LVL165:
 1580              	.L76:
 1581              	.LBB146:
 1582              	.LBB147:
 125:..\..\..\arduinoLCD\test\Pain Drain\libraries\lvgl\src\misc/lv_area.h **** }
 1583              		.loc 2 125 0
 1584 00ea 0423     		movs	r3, #4
 1585 00ec C25E     		ldrsh	r2, [r0, r3]
 1586              	.LVL166:
 1587 00ee 0023     		movs	r3, #0
 1588 00f0 C45E     		ldrsh	r4, [r0, r3]
 1589 00f2 121B     		subs	r2, r2, r4
 1590 00f4 0132     		adds	r2, r2, #1
 1591 00f6 12B2     		sxth	r2, r2
 1592              	.LVL167:
 1593              	.LBE147:
 1594              	.LBE146:
 1595              	.LBB148:
 1596              	.LBB149:
 1597 00f8 0423     		movs	r3, #4
 1598 00fa CC5E     		ldrsh	r4, [r1, r3]
 1599 00fc 0023     		movs	r3, #0
 1600 00fe CD5E     		ldrsh	r5, [r1, r3]
 1601 0100 641B     		subs	r4, r4, r5
 1602 0102 0134     		adds	r4, r4, #1
 1603 0104 24B2     		sxth	r4, r4
 1604              	.LVL168:
 1605              	.LBE149:
 1606              	.LBE148:
 364:..\..\..\arduinoLCD\test\Pain Drain\libraries\lvgl\src\misc/lv_area.c ****             y = lv_area_get_height(base) - lv_area_get_height(to_align);
ARM GAS  C:\Users\haske\AppData\Local\Temp\cc8C2ZcK.s 			page 44


 1607              		.loc 1 364 0
 1608 0106 D70F     		lsrs	r7, r2, #31
 1609 0108 BA18     		adds	r2, r7, r2
 1610 010a 5210     		asrs	r2, r2, #1
 1611 010c E70F     		lsrs	r7, r4, #31
 1612 010e 3C19     		adds	r4, r7, r4
 1613 0110 6410     		asrs	r4, r4, #1
 1614 0112 171B     		subs	r7, r2, r4
 1615 0114 3FB2     		sxth	r7, r7
 1616              	.LVL169:
 1617              	.LBB150:
 1618              	.LBB151:
 1619              		.loc 2 135 0
 1620 0116 0623     		movs	r3, #6
 1621 0118 C25E     		ldrsh	r2, [r0, r3]
 1622 011a 0223     		movs	r3, #2
 1623 011c C45E     		ldrsh	r4, [r0, r3]
 1624 011e 141B     		subs	r4, r2, r4
 1625 0120 0134     		adds	r4, r4, #1
 1626 0122 A2B2     		uxth	r2, r4
 1627              	.LVL170:
 1628              	.LBE151:
 1629              	.LBE150:
 1630              	.LBB152:
 1631              	.LBB153:
 1632 0124 0623     		movs	r3, #6
 1633 0126 CC5E     		ldrsh	r4, [r1, r3]
 1634 0128 0223     		movs	r3, #2
 1635 012a CD5E     		ldrsh	r5, [r1, r3]
 1636 012c 641B     		subs	r4, r4, r5
 1637 012e 0134     		adds	r4, r4, #1
 1638 0130 A4B2     		uxth	r4, r4
 1639              	.LVL171:
 1640              	.LBE153:
 1641              	.LBE152:
 365:..\..\..\arduinoLCD\test\Pain Drain\libraries\lvgl\src\misc/lv_area.c ****             break;
 1642              		.loc 1 365 0
 1643 0132 141B     		subs	r4, r2, r4
 1644 0134 24B2     		sxth	r4, r4
 1645              	.LVL172:
 366:..\..\..\arduinoLCD\test\Pain Drain\libraries\lvgl\src\misc/lv_area.c **** 
 1646              		.loc 1 366 0
 1647 0136 6BE1     		b	.L71
 1648              	.LVL173:
 1649              	.L77:
 1650              	.LBB154:
 1651              	.LBB155:
 125:..\..\..\arduinoLCD\test\Pain Drain\libraries\lvgl\src\misc/lv_area.h **** }
 1652              		.loc 2 125 0
 1653 0138 0423     		movs	r3, #4
 1654 013a C25E     		ldrsh	r2, [r0, r3]
 1655              	.LVL174:
 1656 013c 0023     		movs	r3, #0
 1657 013e C75E     		ldrsh	r7, [r0, r3]
 1658 0140 D71B     		subs	r7, r2, r7
 1659 0142 0137     		adds	r7, r7, #1
 1660 0144 BAB2     		uxth	r2, r7
ARM GAS  C:\Users\haske\AppData\Local\Temp\cc8C2ZcK.s 			page 45


 1661              	.LVL175:
 1662              	.LBE155:
 1663              	.LBE154:
 1664              	.LBB156:
 1665              	.LBB157:
 1666 0146 0423     		movs	r3, #4
 1667 0148 CC5E     		ldrsh	r4, [r1, r3]
 1668 014a 0023     		movs	r3, #0
 1669 014c CF5E     		ldrsh	r7, [r1, r3]
 1670 014e E71B     		subs	r7, r4, r7
 1671 0150 0137     		adds	r7, r7, #1
 1672 0152 BFB2     		uxth	r7, r7
 1673              	.LVL176:
 1674              	.LBE157:
 1675              	.LBE156:
 369:..\..\..\arduinoLCD\test\Pain Drain\libraries\lvgl\src\misc/lv_area.c ****             y = lv_area_get_height(base) - lv_area_get_height(to_align);
 1676              		.loc 1 369 0
 1677 0154 D71B     		subs	r7, r2, r7
 1678 0156 3FB2     		sxth	r7, r7
 1679              	.LVL177:
 1680              	.LBB158:
 1681              	.LBB159:
 1682              		.loc 2 135 0
 1683 0158 0623     		movs	r3, #6
 1684 015a C25E     		ldrsh	r2, [r0, r3]
 1685 015c 0223     		movs	r3, #2
 1686 015e C45E     		ldrsh	r4, [r0, r3]
 1687 0160 141B     		subs	r4, r2, r4
 1688 0162 0134     		adds	r4, r4, #1
 1689 0164 A2B2     		uxth	r2, r4
 1690              	.LVL178:
 1691              	.LBE159:
 1692              	.LBE158:
 1693              	.LBB160:
 1694              	.LBB161:
 1695 0166 0623     		movs	r3, #6
 1696 0168 CC5E     		ldrsh	r4, [r1, r3]
 1697 016a 0223     		movs	r3, #2
 1698 016c CD5E     		ldrsh	r5, [r1, r3]
 1699 016e 641B     		subs	r4, r4, r5
 1700 0170 0134     		adds	r4, r4, #1
 1701 0172 A4B2     		uxth	r4, r4
 1702              	.LVL179:
 1703              	.LBE161:
 1704              	.LBE160:
 370:..\..\..\arduinoLCD\test\Pain Drain\libraries\lvgl\src\misc/lv_area.c ****             break;
 1705              		.loc 1 370 0
 1706 0174 141B     		subs	r4, r2, r4
 1707 0176 24B2     		sxth	r4, r4
 1708              	.LVL180:
 371:..\..\..\arduinoLCD\test\Pain Drain\libraries\lvgl\src\misc/lv_area.c **** 
 1709              		.loc 1 371 0
 1710 0178 4AE1     		b	.L71
 1711              	.LVL181:
 1712              	.L78:
 1713              	.LBB162:
 1714              	.LBB163:
ARM GAS  C:\Users\haske\AppData\Local\Temp\cc8C2ZcK.s 			page 46


 1715              		.loc 2 135 0
 1716 017a 0623     		movs	r3, #6
 1717 017c C25E     		ldrsh	r2, [r0, r3]
 1718              	.LVL182:
 1719 017e 0223     		movs	r3, #2
 1720 0180 C55E     		ldrsh	r5, [r0, r3]
 1721 0182 551B     		subs	r5, r2, r5
 1722 0184 0135     		adds	r5, r5, #1
 1723 0186 2DB2     		sxth	r5, r5
 1724              	.LVL183:
 1725              	.LBE163:
 1726              	.LBE162:
 1727              	.LBB164:
 1728              	.LBB165:
 1729 0188 0623     		movs	r3, #6
 1730 018a CA5E     		ldrsh	r2, [r1, r3]
 1731 018c 0223     		movs	r3, #2
 1732 018e CC5E     		ldrsh	r4, [r1, r3]
 1733 0190 121B     		subs	r2, r2, r4
 1734 0192 0132     		adds	r2, r2, #1
 1735 0194 12B2     		sxth	r2, r2
 1736              	.LVL184:
 1737              	.LBE165:
 1738              	.LBE164:
 375:..\..\..\arduinoLCD\test\Pain Drain\libraries\lvgl\src\misc/lv_area.c ****             break;
 1739              		.loc 1 375 0
 1740 0196 EC0F     		lsrs	r4, r5, #31
 1741 0198 6519     		adds	r5, r4, r5
 1742 019a 6D10     		asrs	r5, r5, #1
 1743 019c D40F     		lsrs	r4, r2, #31
 1744 019e A218     		adds	r2, r4, r2
 1745 01a0 5210     		asrs	r2, r2, #1
 1746 01a2 AC1A     		subs	r4, r5, r2
 1747 01a4 24B2     		sxth	r4, r4
 1748              	.LVL185:
 374:..\..\..\arduinoLCD\test\Pain Drain\libraries\lvgl\src\misc/lv_area.c ****             y = lv_area_get_height(base) / 2 - lv_area_get_height(to_align) / 2;
 1749              		.loc 1 374 0
 1750 01a6 0027     		movs	r7, #0
 376:..\..\..\arduinoLCD\test\Pain Drain\libraries\lvgl\src\misc/lv_area.c **** 
 1751              		.loc 1 376 0
 1752 01a8 32E1     		b	.L71
 1753              	.LVL186:
 1754              	.L79:
 1755              	.LBB166:
 1756              	.LBB167:
 125:..\..\..\arduinoLCD\test\Pain Drain\libraries\lvgl\src\misc/lv_area.h **** }
 1757              		.loc 2 125 0
 1758 01aa 0423     		movs	r3, #4
 1759 01ac C25E     		ldrsh	r2, [r0, r3]
 1760              	.LVL187:
 1761 01ae 0023     		movs	r3, #0
 1762 01b0 C75E     		ldrsh	r7, [r0, r3]
 1763 01b2 D71B     		subs	r7, r2, r7
 1764 01b4 0137     		adds	r7, r7, #1
 1765 01b6 BAB2     		uxth	r2, r7
 1766              	.LVL188:
 1767              	.LBE167:
ARM GAS  C:\Users\haske\AppData\Local\Temp\cc8C2ZcK.s 			page 47


 1768              	.LBE166:
 1769              	.LBB168:
 1770              	.LBB169:
 1771 01b8 0423     		movs	r3, #4
 1772 01ba CC5E     		ldrsh	r4, [r1, r3]
 1773 01bc 0023     		movs	r3, #0
 1774 01be CF5E     		ldrsh	r7, [r1, r3]
 1775 01c0 E71B     		subs	r7, r4, r7
 1776 01c2 0137     		adds	r7, r7, #1
 1777 01c4 BFB2     		uxth	r7, r7
 1778              	.LVL189:
 1779              	.LBE169:
 1780              	.LBE168:
 379:..\..\..\arduinoLCD\test\Pain Drain\libraries\lvgl\src\misc/lv_area.c ****             y = lv_area_get_height(base) / 2 - lv_area_get_height(to_align) / 2;
 1781              		.loc 1 379 0
 1782 01c6 D71B     		subs	r7, r2, r7
 1783 01c8 3FB2     		sxth	r7, r7
 1784              	.LVL190:
 1785              	.LBB170:
 1786              	.LBB171:
 1787              		.loc 2 135 0
 1788 01ca 0623     		movs	r3, #6
 1789 01cc C25E     		ldrsh	r2, [r0, r3]
 1790 01ce 0223     		movs	r3, #2
 1791 01d0 C55E     		ldrsh	r5, [r0, r3]
 1792 01d2 551B     		subs	r5, r2, r5
 1793 01d4 0135     		adds	r5, r5, #1
 1794 01d6 2DB2     		sxth	r5, r5
 1795              	.LVL191:
 1796              	.LBE171:
 1797              	.LBE170:
 1798              	.LBB172:
 1799              	.LBB173:
 1800 01d8 0623     		movs	r3, #6
 1801 01da CA5E     		ldrsh	r2, [r1, r3]
 1802 01dc 0223     		movs	r3, #2
 1803 01de CC5E     		ldrsh	r4, [r1, r3]
 1804 01e0 121B     		subs	r2, r2, r4
 1805 01e2 0132     		adds	r2, r2, #1
 1806 01e4 12B2     		sxth	r2, r2
 1807              	.LVL192:
 1808              	.LBE173:
 1809              	.LBE172:
 380:..\..\..\arduinoLCD\test\Pain Drain\libraries\lvgl\src\misc/lv_area.c ****             break;
 1810              		.loc 1 380 0
 1811 01e6 EC0F     		lsrs	r4, r5, #31
 1812 01e8 6519     		adds	r5, r4, r5
 1813 01ea 6D10     		asrs	r5, r5, #1
 1814 01ec D40F     		lsrs	r4, r2, #31
 1815 01ee A218     		adds	r2, r4, r2
 1816 01f0 5210     		asrs	r2, r2, #1
 1817 01f2 AC1A     		subs	r4, r5, r2
 1818 01f4 24B2     		sxth	r4, r4
 1819              	.LVL193:
 381:..\..\..\arduinoLCD\test\Pain Drain\libraries\lvgl\src\misc/lv_area.c **** 
 1820              		.loc 1 381 0
 1821 01f6 0BE1     		b	.L71
ARM GAS  C:\Users\haske\AppData\Local\Temp\cc8C2ZcK.s 			page 48


 1822              	.LVL194:
 1823              	.L81:
 1824              	.LBB174:
 1825              	.LBB175:
 1826              		.loc 2 135 0
 1827 01f8 0623     		movs	r3, #6
 1828 01fa CA5E     		ldrsh	r2, [r1, r3]
 1829              	.LVL195:
 1830 01fc 0223     		movs	r3, #2
 1831 01fe CC5E     		ldrsh	r4, [r1, r3]
 1832 0200 141B     		subs	r4, r2, r4
 1833 0202 0134     		adds	r4, r4, #1
 1834 0204 A4B2     		uxth	r4, r4
 1835              	.LVL196:
 1836              	.LBE175:
 1837              	.LBE174:
 385:..\..\..\arduinoLCD\test\Pain Drain\libraries\lvgl\src\misc/lv_area.c ****             break;
 1838              		.loc 1 385 0
 1839 0206 6442     		rsbs	r4, r4, #0
 1840 0208 24B2     		sxth	r4, r4
 1841              	.LVL197:
 384:..\..\..\arduinoLCD\test\Pain Drain\libraries\lvgl\src\misc/lv_area.c ****             y = -lv_area_get_height(to_align);
 1842              		.loc 1 384 0
 1843 020a 0027     		movs	r7, #0
 386:..\..\..\arduinoLCD\test\Pain Drain\libraries\lvgl\src\misc/lv_area.c **** 
 1844              		.loc 1 386 0
 1845 020c 00E1     		b	.L71
 1846              	.LVL198:
 1847              	.L82:
 1848              	.LBB176:
 1849              	.LBB177:
 125:..\..\..\arduinoLCD\test\Pain Drain\libraries\lvgl\src\misc/lv_area.h **** }
 1850              		.loc 2 125 0
 1851 020e 0423     		movs	r3, #4
 1852 0210 C25E     		ldrsh	r2, [r0, r3]
 1853              	.LVL199:
 1854 0212 0023     		movs	r3, #0
 1855 0214 C45E     		ldrsh	r4, [r0, r3]
 1856 0216 121B     		subs	r2, r2, r4
 1857 0218 0132     		adds	r2, r2, #1
 1858 021a 12B2     		sxth	r2, r2
 1859              	.LVL200:
 1860              	.LBE177:
 1861              	.LBE176:
 1862              	.LBB178:
 1863              	.LBB179:
 1864 021c 0423     		movs	r3, #4
 1865 021e CC5E     		ldrsh	r4, [r1, r3]
 1866 0220 0023     		movs	r3, #0
 1867 0222 CD5E     		ldrsh	r5, [r1, r3]
 1868 0224 641B     		subs	r4, r4, r5
 1869 0226 0134     		adds	r4, r4, #1
 1870 0228 24B2     		sxth	r4, r4
 1871              	.LVL201:
 1872              	.LBE179:
 1873              	.LBE178:
 389:..\..\..\arduinoLCD\test\Pain Drain\libraries\lvgl\src\misc/lv_area.c ****             y = -lv_area_get_height(to_align);
ARM GAS  C:\Users\haske\AppData\Local\Temp\cc8C2ZcK.s 			page 49


 1874              		.loc 1 389 0
 1875 022a D70F     		lsrs	r7, r2, #31
 1876 022c BA18     		adds	r2, r7, r2
 1877 022e 5210     		asrs	r2, r2, #1
 1878 0230 E70F     		lsrs	r7, r4, #31
 1879 0232 3C19     		adds	r4, r7, r4
 1880 0234 6410     		asrs	r4, r4, #1
 1881 0236 171B     		subs	r7, r2, r4
 1882 0238 3FB2     		sxth	r7, r7
 1883              	.LVL202:
 1884              	.LBB180:
 1885              	.LBB181:
 1886              		.loc 2 135 0
 1887 023a 0623     		movs	r3, #6
 1888 023c CA5E     		ldrsh	r2, [r1, r3]
 1889 023e 0223     		movs	r3, #2
 1890 0240 CC5E     		ldrsh	r4, [r1, r3]
 1891 0242 141B     		subs	r4, r2, r4
 1892 0244 0134     		adds	r4, r4, #1
 1893 0246 A4B2     		uxth	r4, r4
 1894              	.LVL203:
 1895              	.LBE181:
 1896              	.LBE180:
 390:..\..\..\arduinoLCD\test\Pain Drain\libraries\lvgl\src\misc/lv_area.c ****             break;
 1897              		.loc 1 390 0
 1898 0248 6442     		rsbs	r4, r4, #0
 1899 024a 24B2     		sxth	r4, r4
 1900              	.LVL204:
 391:..\..\..\arduinoLCD\test\Pain Drain\libraries\lvgl\src\misc/lv_area.c **** 
 1901              		.loc 1 391 0
 1902 024c E0E0     		b	.L71
 1903              	.LVL205:
 1904              	.L83:
 1905              	.LBB182:
 1906              	.LBB183:
 125:..\..\..\arduinoLCD\test\Pain Drain\libraries\lvgl\src\misc/lv_area.h **** }
 1907              		.loc 2 125 0
 1908 024e 0423     		movs	r3, #4
 1909 0250 C25E     		ldrsh	r2, [r0, r3]
 1910              	.LVL206:
 1911 0252 0023     		movs	r3, #0
 1912 0254 C75E     		ldrsh	r7, [r0, r3]
 1913 0256 D71B     		subs	r7, r2, r7
 1914 0258 0137     		adds	r7, r7, #1
 1915 025a BAB2     		uxth	r2, r7
 1916              	.LVL207:
 1917              	.LBE183:
 1918              	.LBE182:
 1919              	.LBB184:
 1920              	.LBB185:
 1921 025c 0423     		movs	r3, #4
 1922 025e CC5E     		ldrsh	r4, [r1, r3]
 1923 0260 0023     		movs	r3, #0
 1924 0262 CF5E     		ldrsh	r7, [r1, r3]
 1925 0264 E71B     		subs	r7, r4, r7
 1926 0266 0137     		adds	r7, r7, #1
 1927 0268 BFB2     		uxth	r7, r7
ARM GAS  C:\Users\haske\AppData\Local\Temp\cc8C2ZcK.s 			page 50


 1928              	.LVL208:
 1929              	.LBE185:
 1930              	.LBE184:
 394:..\..\..\arduinoLCD\test\Pain Drain\libraries\lvgl\src\misc/lv_area.c ****             y = -lv_area_get_height(to_align);
 1931              		.loc 1 394 0
 1932 026a D71B     		subs	r7, r2, r7
 1933 026c 3FB2     		sxth	r7, r7
 1934              	.LVL209:
 1935              	.LBB186:
 1936              	.LBB187:
 1937              		.loc 2 135 0
 1938 026e 0623     		movs	r3, #6
 1939 0270 CA5E     		ldrsh	r2, [r1, r3]
 1940 0272 0223     		movs	r3, #2
 1941 0274 CC5E     		ldrsh	r4, [r1, r3]
 1942 0276 141B     		subs	r4, r2, r4
 1943 0278 0134     		adds	r4, r4, #1
 1944 027a A4B2     		uxth	r4, r4
 1945              	.LVL210:
 1946              	.LBE187:
 1947              	.LBE186:
 395:..\..\..\arduinoLCD\test\Pain Drain\libraries\lvgl\src\misc/lv_area.c ****             break;
 1948              		.loc 1 395 0
 1949 027c 6442     		rsbs	r4, r4, #0
 1950 027e 24B2     		sxth	r4, r4
 1951              	.LVL211:
 396:..\..\..\arduinoLCD\test\Pain Drain\libraries\lvgl\src\misc/lv_area.c **** 
 1952              		.loc 1 396 0
 1953 0280 C6E0     		b	.L71
 1954              	.LVL212:
 1955              	.L84:
 1956              	.LBB188:
 1957              	.LBB189:
 1958              		.loc 2 135 0
 1959 0282 0623     		movs	r3, #6
 1960 0284 C25E     		ldrsh	r2, [r0, r3]
 1961              	.LVL213:
 1962 0286 0223     		movs	r3, #2
 1963 0288 C45E     		ldrsh	r4, [r0, r3]
 1964 028a 141B     		subs	r4, r2, r4
 1965 028c 0134     		adds	r4, r4, #1
 1966 028e 24B2     		sxth	r4, r4
 1967              	.LVL214:
 1968              	.LBE189:
 1969              	.LBE188:
 399:..\..\..\arduinoLCD\test\Pain Drain\libraries\lvgl\src\misc/lv_area.c ****             y = lv_area_get_height(base);
 1970              		.loc 1 399 0
 1971 0290 0027     		movs	r7, #0
 401:..\..\..\arduinoLCD\test\Pain Drain\libraries\lvgl\src\misc/lv_area.c **** 
 1972              		.loc 1 401 0
 1973 0292 BDE0     		b	.L71
 1974              	.LVL215:
 1975              	.L85:
 1976              	.LBB190:
 1977              	.LBB191:
 125:..\..\..\arduinoLCD\test\Pain Drain\libraries\lvgl\src\misc/lv_area.h **** }
 1978              		.loc 2 125 0
ARM GAS  C:\Users\haske\AppData\Local\Temp\cc8C2ZcK.s 			page 51


 1979 0294 0423     		movs	r3, #4
 1980 0296 C25E     		ldrsh	r2, [r0, r3]
 1981              	.LVL216:
 1982 0298 0023     		movs	r3, #0
 1983 029a C45E     		ldrsh	r4, [r0, r3]
 1984 029c 121B     		subs	r2, r2, r4
 1985 029e 0132     		adds	r2, r2, #1
 1986 02a0 12B2     		sxth	r2, r2
 1987              	.LVL217:
 1988              	.LBE191:
 1989              	.LBE190:
 1990              	.LBB192:
 1991              	.LBB193:
 1992 02a2 0423     		movs	r3, #4
 1993 02a4 CC5E     		ldrsh	r4, [r1, r3]
 1994 02a6 0023     		movs	r3, #0
 1995 02a8 CD5E     		ldrsh	r5, [r1, r3]
 1996 02aa 641B     		subs	r4, r4, r5
 1997 02ac 0134     		adds	r4, r4, #1
 1998 02ae 24B2     		sxth	r4, r4
 1999              	.LVL218:
 2000              	.LBE193:
 2001              	.LBE192:
 404:..\..\..\arduinoLCD\test\Pain Drain\libraries\lvgl\src\misc/lv_area.c ****             y = lv_area_get_height(base);
 2002              		.loc 1 404 0
 2003 02b0 D70F     		lsrs	r7, r2, #31
 2004 02b2 BA18     		adds	r2, r7, r2
 2005 02b4 5210     		asrs	r2, r2, #1
 2006 02b6 E70F     		lsrs	r7, r4, #31
 2007 02b8 3C19     		adds	r4, r7, r4
 2008 02ba 6410     		asrs	r4, r4, #1
 2009 02bc 171B     		subs	r7, r2, r4
 2010 02be 3FB2     		sxth	r7, r7
 2011              	.LVL219:
 2012              	.LBB194:
 2013              	.LBB195:
 2014              		.loc 2 135 0
 2015 02c0 0623     		movs	r3, #6
 2016 02c2 C25E     		ldrsh	r2, [r0, r3]
 2017 02c4 0223     		movs	r3, #2
 2018 02c6 C45E     		ldrsh	r4, [r0, r3]
 2019 02c8 141B     		subs	r4, r2, r4
 2020 02ca 0134     		adds	r4, r4, #1
 2021 02cc 24B2     		sxth	r4, r4
 2022              	.LVL220:
 2023              	.LBE195:
 2024              	.LBE194:
 406:..\..\..\arduinoLCD\test\Pain Drain\libraries\lvgl\src\misc/lv_area.c **** 
 2025              		.loc 1 406 0
 2026 02ce 9FE0     		b	.L71
 2027              	.LVL221:
 2028              	.L86:
 2029              	.LBB196:
 2030              	.LBB197:
 125:..\..\..\arduinoLCD\test\Pain Drain\libraries\lvgl\src\misc/lv_area.h **** }
 2031              		.loc 2 125 0
 2032 02d0 0423     		movs	r3, #4
ARM GAS  C:\Users\haske\AppData\Local\Temp\cc8C2ZcK.s 			page 52


 2033 02d2 C25E     		ldrsh	r2, [r0, r3]
 2034              	.LVL222:
 2035 02d4 0023     		movs	r3, #0
 2036 02d6 C75E     		ldrsh	r7, [r0, r3]
 2037 02d8 D71B     		subs	r7, r2, r7
 2038 02da 0137     		adds	r7, r7, #1
 2039 02dc BAB2     		uxth	r2, r7
 2040              	.LVL223:
 2041              	.LBE197:
 2042              	.LBE196:
 2043              	.LBB198:
 2044              	.LBB199:
 2045 02de 0423     		movs	r3, #4
 2046 02e0 CC5E     		ldrsh	r4, [r1, r3]
 2047 02e2 0023     		movs	r3, #0
 2048 02e4 CF5E     		ldrsh	r7, [r1, r3]
 2049 02e6 E71B     		subs	r7, r4, r7
 2050 02e8 0137     		adds	r7, r7, #1
 2051 02ea BFB2     		uxth	r7, r7
 2052              	.LVL224:
 2053              	.LBE199:
 2054              	.LBE198:
 409:..\..\..\arduinoLCD\test\Pain Drain\libraries\lvgl\src\misc/lv_area.c ****             y = lv_area_get_height(base);
 2055              		.loc 1 409 0
 2056 02ec D71B     		subs	r7, r2, r7
 2057 02ee 3FB2     		sxth	r7, r7
 2058              	.LVL225:
 2059              	.LBB200:
 2060              	.LBB201:
 2061              		.loc 2 135 0
 2062 02f0 0623     		movs	r3, #6
 2063 02f2 C25E     		ldrsh	r2, [r0, r3]
 2064 02f4 0223     		movs	r3, #2
 2065 02f6 C45E     		ldrsh	r4, [r0, r3]
 2066 02f8 141B     		subs	r4, r2, r4
 2067 02fa 0134     		adds	r4, r4, #1
 2068 02fc 24B2     		sxth	r4, r4
 2069              	.LVL226:
 2070              	.LBE201:
 2071              	.LBE200:
 411:..\..\..\arduinoLCD\test\Pain Drain\libraries\lvgl\src\misc/lv_area.c **** 
 2072              		.loc 1 411 0
 2073 02fe 87E0     		b	.L71
 2074              	.LVL227:
 2075              	.L87:
 2076              	.LBB202:
 2077              	.LBB203:
 125:..\..\..\arduinoLCD\test\Pain Drain\libraries\lvgl\src\misc/lv_area.h **** }
 2078              		.loc 2 125 0
 2079 0300 0423     		movs	r3, #4
 2080 0302 CA5E     		ldrsh	r2, [r1, r3]
 2081              	.LVL228:
 2082 0304 0023     		movs	r3, #0
 2083 0306 CF5E     		ldrsh	r7, [r1, r3]
 2084 0308 D71B     		subs	r7, r2, r7
 2085 030a 0137     		adds	r7, r7, #1
 2086 030c BFB2     		uxth	r7, r7
ARM GAS  C:\Users\haske\AppData\Local\Temp\cc8C2ZcK.s 			page 53


 2087              	.LVL229:
 2088              	.LBE203:
 2089              	.LBE202:
 414:..\..\..\arduinoLCD\test\Pain Drain\libraries\lvgl\src\misc/lv_area.c ****             y = 0;
 2090              		.loc 1 414 0
 2091 030e 7F42     		rsbs	r7, r7, #0
 2092 0310 3FB2     		sxth	r7, r7
 2093              	.LVL230:
 415:..\..\..\arduinoLCD\test\Pain Drain\libraries\lvgl\src\misc/lv_area.c ****             break;
 2094              		.loc 1 415 0
 2095 0312 0024     		movs	r4, #0
 416:..\..\..\arduinoLCD\test\Pain Drain\libraries\lvgl\src\misc/lv_area.c **** 
 2096              		.loc 1 416 0
 2097 0314 7CE0     		b	.L71
 2098              	.LVL231:
 2099              	.L88:
 2100              	.LBB204:
 2101              	.LBB205:
 125:..\..\..\arduinoLCD\test\Pain Drain\libraries\lvgl\src\misc/lv_area.h **** }
 2102              		.loc 2 125 0
 2103 0316 0423     		movs	r3, #4
 2104 0318 CA5E     		ldrsh	r2, [r1, r3]
 2105              	.LVL232:
 2106 031a 0023     		movs	r3, #0
 2107 031c CF5E     		ldrsh	r7, [r1, r3]
 2108 031e D71B     		subs	r7, r2, r7
 2109 0320 0137     		adds	r7, r7, #1
 2110 0322 BFB2     		uxth	r7, r7
 2111              	.LVL233:
 2112              	.LBE205:
 2113              	.LBE204:
 419:..\..\..\arduinoLCD\test\Pain Drain\libraries\lvgl\src\misc/lv_area.c ****             y = lv_area_get_height(base) / 2 - lv_area_get_height(to_align) / 2;
 2114              		.loc 1 419 0
 2115 0324 7F42     		rsbs	r7, r7, #0
 2116 0326 3FB2     		sxth	r7, r7
 2117              	.LVL234:
 2118              	.LBB206:
 2119              	.LBB207:
 2120              		.loc 2 135 0
 2121 0328 0623     		movs	r3, #6
 2122 032a C25E     		ldrsh	r2, [r0, r3]
 2123 032c 0223     		movs	r3, #2
 2124 032e C55E     		ldrsh	r5, [r0, r3]
 2125 0330 551B     		subs	r5, r2, r5
 2126 0332 0135     		adds	r5, r5, #1
 2127 0334 2DB2     		sxth	r5, r5
 2128              	.LVL235:
 2129              	.LBE207:
 2130              	.LBE206:
 2131              	.LBB208:
 2132              	.LBB209:
 2133 0336 0623     		movs	r3, #6
 2134 0338 CA5E     		ldrsh	r2, [r1, r3]
 2135 033a 0223     		movs	r3, #2
 2136 033c CC5E     		ldrsh	r4, [r1, r3]
 2137 033e 121B     		subs	r2, r2, r4
 2138 0340 0132     		adds	r2, r2, #1
ARM GAS  C:\Users\haske\AppData\Local\Temp\cc8C2ZcK.s 			page 54


 2139 0342 12B2     		sxth	r2, r2
 2140              	.LVL236:
 2141              	.LBE209:
 2142              	.LBE208:
 420:..\..\..\arduinoLCD\test\Pain Drain\libraries\lvgl\src\misc/lv_area.c ****             break;
 2143              		.loc 1 420 0
 2144 0344 EC0F     		lsrs	r4, r5, #31
 2145 0346 6519     		adds	r5, r4, r5
 2146 0348 6D10     		asrs	r5, r5, #1
 2147 034a D40F     		lsrs	r4, r2, #31
 2148 034c A218     		adds	r2, r4, r2
 2149 034e 5210     		asrs	r2, r2, #1
 2150 0350 AC1A     		subs	r4, r5, r2
 2151 0352 24B2     		sxth	r4, r4
 2152              	.LVL237:
 421:..\..\..\arduinoLCD\test\Pain Drain\libraries\lvgl\src\misc/lv_area.c **** 
 2153              		.loc 1 421 0
 2154 0354 5CE0     		b	.L71
 2155              	.LVL238:
 2156              	.L89:
 2157              	.LBB210:
 2158              	.LBB211:
 125:..\..\..\arduinoLCD\test\Pain Drain\libraries\lvgl\src\misc/lv_area.h **** }
 2159              		.loc 2 125 0
 2160 0356 0423     		movs	r3, #4
 2161 0358 CA5E     		ldrsh	r2, [r1, r3]
 2162              	.LVL239:
 2163 035a 0023     		movs	r3, #0
 2164 035c CF5E     		ldrsh	r7, [r1, r3]
 2165 035e D71B     		subs	r7, r2, r7
 2166 0360 0137     		adds	r7, r7, #1
 2167 0362 BFB2     		uxth	r7, r7
 2168              	.LVL240:
 2169              	.LBE211:
 2170              	.LBE210:
 424:..\..\..\arduinoLCD\test\Pain Drain\libraries\lvgl\src\misc/lv_area.c ****             y = lv_area_get_height(base) - lv_area_get_height(to_align);
 2171              		.loc 1 424 0
 2172 0364 7F42     		rsbs	r7, r7, #0
 2173 0366 3FB2     		sxth	r7, r7
 2174              	.LVL241:
 2175              	.LBB212:
 2176              	.LBB213:
 2177              		.loc 2 135 0
 2178 0368 0623     		movs	r3, #6
 2179 036a C25E     		ldrsh	r2, [r0, r3]
 2180 036c 0223     		movs	r3, #2
 2181 036e C45E     		ldrsh	r4, [r0, r3]
 2182 0370 141B     		subs	r4, r2, r4
 2183 0372 0134     		adds	r4, r4, #1
 2184 0374 A2B2     		uxth	r2, r4
 2185              	.LVL242:
 2186              	.LBE213:
 2187              	.LBE212:
 2188              	.LBB214:
 2189              	.LBB215:
 2190 0376 0623     		movs	r3, #6
 2191 0378 CC5E     		ldrsh	r4, [r1, r3]
ARM GAS  C:\Users\haske\AppData\Local\Temp\cc8C2ZcK.s 			page 55


 2192 037a 0223     		movs	r3, #2
 2193 037c CD5E     		ldrsh	r5, [r1, r3]
 2194 037e 641B     		subs	r4, r4, r5
 2195 0380 0134     		adds	r4, r4, #1
 2196 0382 A4B2     		uxth	r4, r4
 2197              	.LVL243:
 2198              	.LBE215:
 2199              	.LBE214:
 425:..\..\..\arduinoLCD\test\Pain Drain\libraries\lvgl\src\misc/lv_area.c ****             break;
 2200              		.loc 1 425 0
 2201 0384 141B     		subs	r4, r2, r4
 2202 0386 24B2     		sxth	r4, r4
 2203              	.LVL244:
 426:..\..\..\arduinoLCD\test\Pain Drain\libraries\lvgl\src\misc/lv_area.c **** 
 2204              		.loc 1 426 0
 2205 0388 42E0     		b	.L71
 2206              	.LVL245:
 2207              	.L90:
 2208              	.LBB216:
 2209              	.LBB217:
 125:..\..\..\arduinoLCD\test\Pain Drain\libraries\lvgl\src\misc/lv_area.h **** }
 2210              		.loc 2 125 0
 2211 038a 0423     		movs	r3, #4
 2212 038c C25E     		ldrsh	r2, [r0, r3]
 2213              	.LVL246:
 2214 038e 0023     		movs	r3, #0
 2215 0390 C75E     		ldrsh	r7, [r0, r3]
 2216 0392 D71B     		subs	r7, r2, r7
 2217 0394 0137     		adds	r7, r7, #1
 2218 0396 3FB2     		sxth	r7, r7
 2219              	.LVL247:
 2220              	.LBE217:
 2221              	.LBE216:
 430:..\..\..\arduinoLCD\test\Pain Drain\libraries\lvgl\src\misc/lv_area.c ****             break;
 2222              		.loc 1 430 0
 2223 0398 0024     		movs	r4, #0
 431:..\..\..\arduinoLCD\test\Pain Drain\libraries\lvgl\src\misc/lv_area.c **** 
 2224              		.loc 1 431 0
 2225 039a 39E0     		b	.L71
 2226              	.LVL248:
 2227              	.L91:
 2228              	.LBB218:
 2229              	.LBB219:
 125:..\..\..\arduinoLCD\test\Pain Drain\libraries\lvgl\src\misc/lv_area.h **** }
 2230              		.loc 2 125 0
 2231 039c 0423     		movs	r3, #4
 2232 039e C25E     		ldrsh	r2, [r0, r3]
 2233              	.LVL249:
 2234 03a0 0023     		movs	r3, #0
 2235 03a2 C75E     		ldrsh	r7, [r0, r3]
 2236 03a4 D71B     		subs	r7, r2, r7
 2237 03a6 0137     		adds	r7, r7, #1
 2238 03a8 3FB2     		sxth	r7, r7
 2239              	.LVL250:
 2240              	.LBE219:
 2241              	.LBE218:
 2242              	.LBB220:
ARM GAS  C:\Users\haske\AppData\Local\Temp\cc8C2ZcK.s 			page 56


 2243              	.LBB221:
 2244              		.loc 2 135 0
 2245 03aa 0623     		movs	r3, #6
 2246 03ac C25E     		ldrsh	r2, [r0, r3]
 2247 03ae 0223     		movs	r3, #2
 2248 03b0 C55E     		ldrsh	r5, [r0, r3]
 2249 03b2 551B     		subs	r5, r2, r5
 2250 03b4 0135     		adds	r5, r5, #1
 2251 03b6 2DB2     		sxth	r5, r5
 2252              	.LVL251:
 2253              	.LBE221:
 2254              	.LBE220:
 2255              	.LBB222:
 2256              	.LBB223:
 2257 03b8 0623     		movs	r3, #6
 2258 03ba CA5E     		ldrsh	r2, [r1, r3]
 2259 03bc 0223     		movs	r3, #2
 2260 03be CC5E     		ldrsh	r4, [r1, r3]
 2261 03c0 121B     		subs	r2, r2, r4
 2262 03c2 0132     		adds	r2, r2, #1
 2263 03c4 12B2     		sxth	r2, r2
 2264              	.LVL252:
 2265              	.LBE223:
 2266              	.LBE222:
 435:..\..\..\arduinoLCD\test\Pain Drain\libraries\lvgl\src\misc/lv_area.c ****             break;
 2267              		.loc 1 435 0
 2268 03c6 EC0F     		lsrs	r4, r5, #31
 2269 03c8 6519     		adds	r5, r4, r5
 2270 03ca 6D10     		asrs	r5, r5, #1
 2271 03cc D40F     		lsrs	r4, r2, #31
 2272 03ce A218     		adds	r2, r4, r2
 2273 03d0 5210     		asrs	r2, r2, #1
 2274 03d2 AC1A     		subs	r4, r5, r2
 2275 03d4 24B2     		sxth	r4, r4
 2276              	.LVL253:
 436:..\..\..\arduinoLCD\test\Pain Drain\libraries\lvgl\src\misc/lv_area.c **** 
 2277              		.loc 1 436 0
 2278 03d6 1BE0     		b	.L71
 2279              	.L95:
 2280              		.align	2
 2281              	.L94:
 2282 03d8 00000000 		.word	.L73
 2283              	.LVL254:
 2284              	.L92:
 2285              	.LBB224:
 2286              	.LBB225:
 125:..\..\..\arduinoLCD\test\Pain Drain\libraries\lvgl\src\misc/lv_area.h **** }
 2287              		.loc 2 125 0
 2288 03dc 0423     		movs	r3, #4
 2289 03de C25E     		ldrsh	r2, [r0, r3]
 2290              	.LVL255:
 2291 03e0 0023     		movs	r3, #0
 2292 03e2 C75E     		ldrsh	r7, [r0, r3]
 2293 03e4 D71B     		subs	r7, r2, r7
 2294 03e6 0137     		adds	r7, r7, #1
 2295 03e8 3FB2     		sxth	r7, r7
 2296              	.LVL256:
ARM GAS  C:\Users\haske\AppData\Local\Temp\cc8C2ZcK.s 			page 57


 2297              	.LBE225:
 2298              	.LBE224:
 2299              	.LBB226:
 2300              	.LBB227:
 2301              		.loc 2 135 0
 2302 03ea 0623     		movs	r3, #6
 2303 03ec C25E     		ldrsh	r2, [r0, r3]
 2304 03ee 0223     		movs	r3, #2
 2305 03f0 C45E     		ldrsh	r4, [r0, r3]
 2306 03f2 141B     		subs	r4, r2, r4
 2307 03f4 0134     		adds	r4, r4, #1
 2308 03f6 A2B2     		uxth	r2, r4
 2309              	.LVL257:
 2310              	.LBE227:
 2311              	.LBE226:
 2312              	.LBB228:
 2313              	.LBB229:
 2314 03f8 0623     		movs	r3, #6
 2315 03fa CC5E     		ldrsh	r4, [r1, r3]
 2316 03fc 0223     		movs	r3, #2
 2317 03fe CD5E     		ldrsh	r5, [r1, r3]
 2318 0400 641B     		subs	r4, r4, r5
 2319 0402 0134     		adds	r4, r4, #1
 2320 0404 A4B2     		uxth	r4, r4
 2321              	.LVL258:
 2322              	.LBE229:
 2323              	.LBE228:
 440:..\..\..\arduinoLCD\test\Pain Drain\libraries\lvgl\src\misc/lv_area.c ****             break;
 2324              		.loc 1 440 0
 2325 0406 141B     		subs	r4, r2, r4
 2326 0408 24B2     		sxth	r4, r4
 2327              	.LVL259:
 441:..\..\..\arduinoLCD\test\Pain Drain\libraries\lvgl\src\misc/lv_area.c ****         default:
 2328              		.loc 1 441 0
 2329 040a 01E0     		b	.L71
 2330              	.LVL260:
 2331              	.L93:
 347:..\..\..\arduinoLCD\test\Pain Drain\libraries\lvgl\src\misc/lv_area.c ****             break;
 2332              		.loc 1 347 0
 2333 040c 0024     		movs	r4, #0
 346:..\..\..\arduinoLCD\test\Pain Drain\libraries\lvgl\src\misc/lv_area.c ****             y = 0;
 2334              		.loc 1 346 0
 2335 040e 0027     		movs	r7, #0
 2336              	.LVL261:
 2337              	.L71:
 448:..\..\..\arduinoLCD\test\Pain Drain\libraries\lvgl\src\misc/lv_area.c ****     y += base->y1;
 2338              		.loc 1 448 0
 2339 0410 0025     		movs	r5, #0
 2340 0412 425F     		ldrsh	r2, [r0, r5]
 2341 0414 D719     		adds	r7, r2, r7
 2342              	.LVL262:
 2343 0416 BFB2     		uxth	r7, r7
 2344              	.LVL263:
 449:..\..\..\arduinoLCD\test\Pain Drain\libraries\lvgl\src\misc/lv_area.c **** 
 2345              		.loc 1 449 0
 2346 0418 0222     		movs	r2, #2
 2347 041a 825E     		ldrsh	r2, [r0, r2]
ARM GAS  C:\Users\haske\AppData\Local\Temp\cc8C2ZcK.s 			page 58


 2348              	.LVL264:
 2349 041c 1019     		adds	r0, r2, r4
 2350 041e 82B2     		uxth	r2, r0
 2351              	.LVL265:
 2352              	.LBB230:
 2353              	.LBB231:
 125:..\..\..\arduinoLCD\test\Pain Drain\libraries\lvgl\src\misc/lv_area.h **** }
 2354              		.loc 2 125 0
 2355 0420 0424     		movs	r4, #4
 2356 0422 085F     		ldrsh	r0, [r1, r4]
 2357 0424 0025     		movs	r5, #0
 2358 0426 4C5F     		ldrsh	r4, [r1, r5]
 2359 0428 041B     		subs	r4, r0, r4
 2360 042a 0134     		adds	r4, r4, #1
 2361 042c A4B2     		uxth	r4, r4
 2362              	.LVL266:
 2363              	.LBE231:
 2364              	.LBE230:
 2365              	.LBB232:
 2366              	.LBB233:
 2367              		.loc 2 135 0
 2368 042e 0625     		movs	r5, #6
 2369 0430 485F     		ldrsh	r0, [r1, r5]
 2370 0432 0223     		movs	r3, #2
 2371 0434 CD5E     		ldrsh	r5, [r1, r3]
 2372 0436 401B     		subs	r0, r0, r5
 2373 0438 0130     		adds	r0, r0, #1
 2374 043a 80B2     		uxth	r0, r0
 2375              	.LVL267:
 2376              	.LBE233:
 2377              	.LBE232:
 453:..\..\..\arduinoLCD\test\Pain Drain\libraries\lvgl\src\misc/lv_area.c ****     to_align->y1 = y + ofs_y;
 2378              		.loc 1 453 0
 2379 043c 3B00     		movs	r3, r7
 2380 043e 6344     		add	r3, r3, ip
 2381 0440 9BB2     		uxth	r3, r3
 2382 0442 0B80     		strh	r3, [r1]
 454:..\..\..\arduinoLCD\test\Pain Drain\libraries\lvgl\src\misc/lv_area.c ****     to_align->x2 = to_align->x1 + w - 1;
 2383              		.loc 1 454 0
 2384 0444 9219     		adds	r2, r2, r6
 2385              	.LVL268:
 2386 0446 92B2     		uxth	r2, r2
 2387 0448 4A80     		strh	r2, [r1, #2]
 455:..\..\..\arduinoLCD\test\Pain Drain\libraries\lvgl\src\misc/lv_area.c ****     to_align->y2 = to_align->y1 + h - 1;
 2388              		.loc 1 455 0
 2389 044a 1B19     		adds	r3, r3, r4
 2390 044c 013B     		subs	r3, r3, #1
 2391 044e 8B80     		strh	r3, [r1, #4]
 456:..\..\..\arduinoLCD\test\Pain Drain\libraries\lvgl\src\misc/lv_area.c **** }
 2392              		.loc 1 456 0
 2393 0450 1218     		adds	r2, r2, r0
 2394 0452 013A     		subs	r2, r2, #1
 2395 0454 CA80     		strh	r2, [r1, #6]
 457:..\..\..\arduinoLCD\test\Pain Drain\libraries\lvgl\src\misc/lv_area.c **** 
 2396              		.loc 1 457 0
 2397              		@ sp needed
 2398              	.LVL269:
ARM GAS  C:\Users\haske\AppData\Local\Temp\cc8C2ZcK.s 			page 59


 2399 0456 F0BD     		pop	{r4, r5, r6, r7, pc}
 2400              		.cfi_endproc
 2401              	.LFE19:
 2402              		.size	lv_area_align, .-lv_area_align
 2403              		.global	__aeabi_idiv
 2404              		.section	.text.lv_point_transform,"ax",%progbits
 2405              		.align	2
 2406              		.global	lv_point_transform
 2407              		.code	16
 2408              		.thumb_func
 2409              		.type	lv_point_transform, %function
 2410              	lv_point_transform:
 2411              	.LFB20:
 461:..\..\..\arduinoLCD\test\Pain Drain\libraries\lvgl\src\misc/lv_area.c ****     if(angle == 0 && zoom == 256) {
 2412              		.loc 1 461 0
 2413              		.cfi_startproc
 2414              		@ args = 0, pretend = 0, frame = 16
 2415              		@ frame_needed = 0, uses_anonymous_args = 0
 2416              	.LVL270:
 2417 0000 F0B5     		push	{r4, r5, r6, r7, lr}
 2418              		.cfi_def_cfa_offset 20
 2419              		.cfi_offset 4, -20
 2420              		.cfi_offset 5, -16
 2421              		.cfi_offset 6, -12
 2422              		.cfi_offset 7, -8
 2423              		.cfi_offset 14, -4
 2424 0002 5F46     		mov	r7, fp
 2425 0004 5646     		mov	r6, r10
 2426 0006 4D46     		mov	r5, r9
 2427 0008 4446     		mov	r4, r8
 2428 000a F0B4     		push	{r4, r5, r6, r7}
 2429              		.cfi_def_cfa_offset 36
 2430              		.cfi_offset 8, -36
 2431              		.cfi_offset 9, -32
 2432              		.cfi_offset 10, -28
 2433              		.cfi_offset 11, -24
 2434 000c 85B0     		sub	sp, sp, #20
 2435              		.cfi_def_cfa_offset 56
 2436 000e 0400     		movs	r4, r0
 2437 0010 0D00     		movs	r5, r1
 2438 0012 1700     		movs	r7, r2
 2439 0014 1E00     		movs	r6, r3
 462:..\..\..\arduinoLCD\test\Pain Drain\libraries\lvgl\src\misc/lv_area.c ****         return;
 2440              		.loc 1 462 0
 2441 0016 0029     		cmp	r1, #0
 2442 0018 04D1     		bne	.L97
 462:..\..\..\arduinoLCD\test\Pain Drain\libraries\lvgl\src\misc/lv_area.c ****         return;
 2443              		.loc 1 462 0 is_stmt 0 discriminator 1
 2444 001a 8023     		movs	r3, #128
 2445              	.LVL271:
 2446 001c 5B00     		lsls	r3, r3, #1
 2447 001e 9A42     		cmp	r2, r3
 2448 0020 00D1     		bne	.LCB2231
 2449 0022 B0E0     		b	.L96	@long jump
 2450              	.LCB2231:
 2451              	.L97:
 466:..\..\..\arduinoLCD\test\Pain Drain\libraries\lvgl\src\misc/lv_area.c ****     p->y -= pivot->y;
ARM GAS  C:\Users\haske\AppData\Local\Temp\cc8C2ZcK.s 			page 60


 2452              		.loc 1 466 0 is_stmt 1
 2453 0024 0023     		movs	r3, #0
 2454 0026 F25E     		ldrsh	r2, [r6, r3]
 2455              	.LVL272:
 2456 0028 2388     		ldrh	r3, [r4]
 2457 002a 9A1A     		subs	r2, r3, r2
 2458 002c 12B2     		sxth	r2, r2
 2459 002e 2280     		strh	r2, [r4]
 467:..\..\..\arduinoLCD\test\Pain Drain\libraries\lvgl\src\misc/lv_area.c **** 
 2460              		.loc 1 467 0
 2461 0030 0223     		movs	r3, #2
 2462 0032 F15E     		ldrsh	r1, [r6, r3]
 2463              	.LVL273:
 2464 0034 6388     		ldrh	r3, [r4, #2]
 2465 0036 5B1A     		subs	r3, r3, r1
 2466 0038 1BB2     		sxth	r3, r3
 2467 003a 6380     		strh	r3, [r4, #2]
 469:..\..\..\arduinoLCD\test\Pain Drain\libraries\lvgl\src\misc/lv_area.c ****         p->x = (((int32_t)(p->x) * zoom) >> 8) + pivot->x;
 2468              		.loc 1 469 0
 2469 003c 002D     		cmp	r5, #0
 2470 003e 0CD1     		bne	.L99
 470:..\..\..\arduinoLCD\test\Pain Drain\libraries\lvgl\src\misc/lv_area.c ****         p->y = (((int32_t)(p->y) * zoom) >> 8) + pivot->y;
 2471              		.loc 1 470 0
 2472 0040 7A43     		muls	r2, r7
 2473 0042 1212     		asrs	r2, r2, #8
 2474 0044 0020     		movs	r0, #0
 2475 0046 315E     		ldrsh	r1, [r6, r0]
 2476              	.LVL274:
 2477 0048 5218     		adds	r2, r2, r1
 2478 004a 2280     		strh	r2, [r4]
 471:..\..\..\arduinoLCD\test\Pain Drain\libraries\lvgl\src\misc/lv_area.c ****         return;
 2479              		.loc 1 471 0
 2480 004c 5F43     		muls	r7, r3
 2481              	.LVL275:
 2482 004e 3F12     		asrs	r7, r7, #8
 2483 0050 0222     		movs	r2, #2
 2484 0052 B35E     		ldrsh	r3, [r6, r2]
 2485 0054 FF18     		adds	r7, r7, r3
 2486 0056 6780     		strh	r7, [r4, #2]
 472:..\..\..\arduinoLCD\test\Pain Drain\libraries\lvgl\src\misc/lv_area.c ****     }
 2487              		.loc 1 472 0
 2488 0058 95E0     		b	.L96
 2489              	.LVL276:
 2490              	.L99:
 478:..\..\..\arduinoLCD\test\Pain Drain\libraries\lvgl\src\misc/lv_area.c ****         int32_t angle_limited = angle;
 2491              		.loc 1 478 0
 2492 005a 4E4B     		ldr	r3, .L105
 2493 005c 1B68     		ldr	r3, [r3]
 2494 005e 9D42     		cmp	r5, r3
 2495 0060 56D0     		beq	.L100
 2496              	.LVL277:
 2497              	.LBB234:
 480:..\..\..\arduinoLCD\test\Pain Drain\libraries\lvgl\src\misc/lv_area.c ****         if(angle_limited < 0) angle_limited += 3600;
 2498              		.loc 1 480 0
 2499 0062 E123     		movs	r3, #225
 2500 0064 1B01     		lsls	r3, r3, #4
 2501 0066 9D42     		cmp	r5, r3
ARM GAS  C:\Users\haske\AppData\Local\Temp\cc8C2ZcK.s 			page 61


 2502 0068 03DD     		ble	.L104
 480:..\..\..\arduinoLCD\test\Pain Drain\libraries\lvgl\src\misc/lv_area.c ****         if(angle_limited < 0) angle_limited += 3600;
 2503              		.loc 1 480 0 is_stmt 0 discriminator 1
 2504 006a 4B4B     		ldr	r3, .L105+4
 2505 006c 9B46     		mov	fp, r3
 2506 006e AB44     		add	fp, fp, r5
 2507              	.LVL278:
 2508 0070 00E0     		b	.L101
 2509              	.LVL279:
 2510              	.L104:
 479:..\..\..\arduinoLCD\test\Pain Drain\libraries\lvgl\src\misc/lv_area.c ****         if(angle_limited > 3600) angle_limited -= 3600;
 2511              		.loc 1 479 0 is_stmt 1
 2512 0072 AB46     		mov	fp, r5
 2513              	.LVL280:
 2514              	.L101:
 481:..\..\..\arduinoLCD\test\Pain Drain\libraries\lvgl\src\misc/lv_area.c **** 
 2515              		.loc 1 481 0
 2516 0074 5B46     		mov	r3, fp
 2517 0076 002B     		cmp	r3, #0
 2518 0078 03DA     		bge	.L102
 2519              	.LVL281:
 481:..\..\..\arduinoLCD\test\Pain Drain\libraries\lvgl\src\misc/lv_area.c **** 
 2520              		.loc 1 481 0 is_stmt 0 discriminator 1
 2521 007a E123     		movs	r3, #225
 2522              	.LVL282:
 2523 007c 1B01     		lsls	r3, r3, #4
 2524 007e 9C46     		mov	ip, r3
 2525 0080 E344     		add	fp, fp, ip
 2526              	.LVL283:
 2527              	.L102:
 483:..\..\..\arduinoLCD\test\Pain Drain\libraries\lvgl\src\misc/lv_area.c ****         int32_t angle_high = angle_low + 1;
 2528              		.loc 1 483 0 is_stmt 1
 2529 0082 0A21     		movs	r1, #10
 2530 0084 5846     		mov	r0, fp
 2531              	.LVL284:
 2532 0086 FFF7FEFF 		bl	__aeabi_idiv
 2533              	.LVL285:
 2534 008a 8046     		mov	r8, r0
 2535              	.LVL286:
 484:..\..\..\arduinoLCD\test\Pain Drain\libraries\lvgl\src\misc/lv_area.c ****         int32_t angle_rem = angle_limited  - (angle_low * 10);
 2536              		.loc 1 484 0
 2537 008c 0123     		movs	r3, #1
 2538 008e 4344     		add	r3, r3, r8
 2539 0090 9A46     		mov	r10, r3
 2540              	.LVL287:
 485:..\..\..\arduinoLCD\test\Pain Drain\libraries\lvgl\src\misc/lv_area.c **** 
 2541              		.loc 1 485 0
 2542 0092 0A20     		movs	r0, #10
 2543              	.LVL288:
 2544 0094 4042     		rsbs	r0, r0, #0
 2545 0096 4346     		mov	r3, r8
 2546              	.LVL289:
 2547 0098 5843     		muls	r0, r3
 2548 009a 5844     		add	r0, r0, fp
 2549 009c 8146     		mov	r9, r0
 2550              	.LVL290:
 487:..\..\..\arduinoLCD\test\Pain Drain\libraries\lvgl\src\misc/lv_area.c ****         int32_t s2 = lv_trigo_sin(angle_high);
ARM GAS  C:\Users\haske\AppData\Local\Temp\cc8C2ZcK.s 			page 62


 2551              		.loc 1 487 0
 2552 009e 4346     		mov	r3, r8
 2553 00a0 18B2     		sxth	r0, r3
 2554              	.LVL291:
 2555 00a2 FFF7FEFF 		bl	lv_trigo_sin
 2556              	.LVL292:
 2557 00a6 8346     		mov	fp, r0
 2558              	.LVL293:
 488:..\..\..\arduinoLCD\test\Pain Drain\libraries\lvgl\src\misc/lv_area.c **** 
 2559              		.loc 1 488 0
 2560 00a8 5346     		mov	r3, r10
 2561 00aa 18B2     		sxth	r0, r3
 2562              	.LVL294:
 2563 00ac FFF7FEFF 		bl	lv_trigo_sin
 2564              	.LVL295:
 2565 00b0 0190     		str	r0, [sp, #4]
 2566              	.LVL296:
 490:..\..\..\arduinoLCD\test\Pain Drain\libraries\lvgl\src\misc/lv_area.c ****         int32_t c2 = lv_trigo_sin(angle_high + 90);
 2567              		.loc 1 490 0
 2568 00b2 4346     		mov	r3, r8
 2569 00b4 5A33     		adds	r3, r3, #90
 2570 00b6 18B2     		sxth	r0, r3
 2571              	.LVL297:
 2572 00b8 FFF7FEFF 		bl	lv_trigo_sin
 2573              	.LVL298:
 2574 00bc 0290     		str	r0, [sp, #8]
 2575              	.LVL299:
 491:..\..\..\arduinoLCD\test\Pain Drain\libraries\lvgl\src\misc/lv_area.c **** 
 2576              		.loc 1 491 0
 2577 00be 5346     		mov	r3, r10
 2578 00c0 5A33     		adds	r3, r3, #90
 2579 00c2 18B2     		sxth	r0, r3
 2580              	.LVL300:
 2581 00c4 FFF7FEFF 		bl	lv_trigo_sin
 2582              	.LVL301:
 2583 00c8 0390     		str	r0, [sp, #12]
 2584              	.LVL302:
 493:..\..\..\arduinoLCD\test\Pain Drain\libraries\lvgl\src\misc/lv_area.c ****         cosma = (c1 * (10 - angle_rem) + c2 * angle_rem) / 10;
 2585              		.loc 1 493 0
 2586 00ca 0A20     		movs	r0, #10
 2587              	.LVL303:
 2588 00cc 4946     		mov	r1, r9
 2589 00ce 411A     		subs	r1, r0, r1
 2590 00d0 8846     		mov	r8, r1
 2591              	.LVL304:
 2592 00d2 5B46     		mov	r3, fp
 2593 00d4 4B43     		muls	r3, r1
 2594 00d6 019A     		ldr	r2, [sp, #4]
 2595 00d8 4946     		mov	r1, r9
 2596 00da 4A43     		muls	r2, r1
 2597 00dc 9818     		adds	r0, r3, r2
 2598 00de 0A21     		movs	r1, #10
 2599 00e0 FFF7FEFF 		bl	__aeabi_idiv
 2600              	.LVL305:
 2601 00e4 8346     		mov	fp, r0
 2602              	.LVL306:
 2603 00e6 2D4A     		ldr	r2, .L105+8
ARM GAS  C:\Users\haske\AppData\Local\Temp\cc8C2ZcK.s 			page 63


 2604 00e8 9246     		mov	r10, r2
 2605              	.LVL307:
 494:..\..\..\arduinoLCD\test\Pain Drain\libraries\lvgl\src\misc/lv_area.c ****         sinma = sinma >> (LV_TRIGO_SHIFT - _LV_TRANSFORM_TRIGO_SHIFT);
 2606              		.loc 1 494 0
 2607 00ea 029B     		ldr	r3, [sp, #8]
 2608 00ec 4246     		mov	r2, r8
 2609 00ee 5343     		muls	r3, r2
 2610 00f0 1800     		movs	r0, r3
 2611 00f2 039B     		ldr	r3, [sp, #12]
 2612 00f4 4A46     		mov	r2, r9
 2613 00f6 5343     		muls	r3, r2
 2614 00f8 C018     		adds	r0, r0, r3
 2615 00fa 0A21     		movs	r1, #10
 2616 00fc FFF7FEFF 		bl	__aeabi_idiv
 2617              	.LVL308:
 495:..\..\..\arduinoLCD\test\Pain Drain\libraries\lvgl\src\misc/lv_area.c ****         cosma = cosma >> (LV_TRIGO_SHIFT - _LV_TRANSFORM_TRIGO_SHIFT);
 2618              		.loc 1 495 0
 2619 0100 5B46     		mov	r3, fp
 2620 0102 5B11     		asrs	r3, r3, #5
 2621 0104 5246     		mov	r2, r10
 2622 0106 1360     		str	r3, [r2]
 496:..\..\..\arduinoLCD\test\Pain Drain\libraries\lvgl\src\misc/lv_area.c ****         angle_prev = angle;
 2623              		.loc 1 496 0
 2624 0108 4011     		asrs	r0, r0, #5
 2625 010a 5060     		str	r0, [r2, #4]
 497:..\..\..\arduinoLCD\test\Pain Drain\libraries\lvgl\src\misc/lv_area.c ****     }
 2626              		.loc 1 497 0
 2627 010c 214B     		ldr	r3, .L105
 2628 010e 1D60     		str	r5, [r3]
 2629              	.LVL309:
 2630              	.L100:
 2631              	.LBE234:
 499:..\..\..\arduinoLCD\test\Pain Drain\libraries\lvgl\src\misc/lv_area.c ****     int32_t y = p->y;
 2632              		.loc 1 499 0
 2633 0110 0022     		movs	r2, #0
 2634 0112 A35E     		ldrsh	r3, [r4, r2]
 2635 0114 9C46     		mov	ip, r3
 2636              	.LVL310:
 500:..\..\..\arduinoLCD\test\Pain Drain\libraries\lvgl\src\misc/lv_area.c ****     if(zoom == 256) {
 2637              		.loc 1 500 0
 2638 0116 0223     		movs	r3, #2
 2639 0118 E55E     		ldrsh	r5, [r4, r3]
 2640              	.LVL311:
 501:..\..\..\arduinoLCD\test\Pain Drain\libraries\lvgl\src\misc/lv_area.c ****         p->x = ((cosma * x - sinma * y) >> _LV_TRANSFORM_TRIGO_SHIFT) + pivot->x;
 2641              		.loc 1 501 0
 2642 011a 8023     		movs	r3, #128
 2643 011c 5B00     		lsls	r3, r3, #1
 2644 011e 9F42     		cmp	r7, r3
 2645 0120 17D1     		bne	.L103
 502:..\..\..\arduinoLCD\test\Pain Drain\libraries\lvgl\src\misc/lv_area.c ****         p->y = ((sinma * x + cosma * y) >> _LV_TRANSFORM_TRIGO_SHIFT) + pivot->y;
 2646              		.loc 1 502 0
 2647 0122 1E4B     		ldr	r3, .L105+8
 2648 0124 5A68     		ldr	r2, [r3, #4]
 2649 0126 6046     		mov	r0, ip
 2650 0128 5043     		muls	r0, r2
 2651 012a 1B68     		ldr	r3, [r3]
 2652 012c 1900     		movs	r1, r3
ARM GAS  C:\Users\haske\AppData\Local\Temp\cc8C2ZcK.s 			page 64


 2653 012e 6943     		muls	r1, r5
 2654 0130 401A     		subs	r0, r0, r1
 2655 0132 8012     		asrs	r0, r0, #10
 2656 0134 0027     		movs	r7, #0
 2657 0136 F15F     		ldrsh	r1, [r6, r7]
 2658              	.LVL312:
 2659 0138 4018     		adds	r0, r0, r1
 2660 013a 2080     		strh	r0, [r4]
 503:..\..\..\arduinoLCD\test\Pain Drain\libraries\lvgl\src\misc/lv_area.c ****     }
 2661              		.loc 1 503 0
 2662 013c 6146     		mov	r1, ip
 2663 013e 5943     		muls	r1, r3
 2664 0140 1300     		movs	r3, r2
 2665 0142 6B43     		muls	r3, r5
 2666 0144 CB18     		adds	r3, r1, r3
 2667 0146 9B12     		asrs	r3, r3, #10
 2668 0148 0221     		movs	r1, #2
 2669 014a 725E     		ldrsh	r2, [r6, r1]
 2670 014c 9B18     		adds	r3, r3, r2
 2671 014e 6380     		strh	r3, [r4, #2]
 2672 0150 19E0     		b	.L96
 2673              	.LVL313:
 2674              	.L103:
 506:..\..\..\arduinoLCD\test\Pain Drain\libraries\lvgl\src\misc/lv_area.c ****         p->y = (((sinma * x + cosma * y) * zoom) >> (_LV_TRANSFORM_TRIGO_SHIFT + 8)) + pivot->y;
 2675              		.loc 1 506 0
 2676 0152 1249     		ldr	r1, .L105+8
 2677 0154 4B68     		ldr	r3, [r1, #4]
 2678 0156 6246     		mov	r2, ip
 2679 0158 5A43     		muls	r2, r3
 2680 015a 0968     		ldr	r1, [r1]
 2681 015c 0800     		movs	r0, r1
 2682 015e 6843     		muls	r0, r5
 2683 0160 121A     		subs	r2, r2, r0
 2684 0162 7A43     		muls	r2, r7
 2685 0164 9214     		asrs	r2, r2, #18
 2686 0166 9046     		mov	r8, r2
 2687 0168 0022     		movs	r2, #0
 2688 016a B05E     		ldrsh	r0, [r6, r2]
 2689 016c 0200     		movs	r2, r0
 2690 016e 4244     		add	r2, r2, r8
 2691 0170 2280     		strh	r2, [r4]
 507:..\..\..\arduinoLCD\test\Pain Drain\libraries\lvgl\src\misc/lv_area.c ****     }
 2692              		.loc 1 507 0
 2693 0172 6246     		mov	r2, ip
 2694 0174 5143     		muls	r1, r2
 2695 0176 6B43     		muls	r3, r5
 2696 0178 CB18     		adds	r3, r1, r3
 2697 017a 5F43     		muls	r7, r3
 2698              	.LVL314:
 2699 017c BF14     		asrs	r7, r7, #18
 2700 017e 0222     		movs	r2, #2
 2701 0180 B35E     		ldrsh	r3, [r6, r2]
 2702 0182 FF18     		adds	r7, r7, r3
 2703 0184 6780     		strh	r7, [r4, #2]
 2704              	.LVL315:
 2705              	.L96:
 509:..\..\..\arduinoLCD\test\Pain Drain\libraries\lvgl\src\misc/lv_area.c **** 
ARM GAS  C:\Users\haske\AppData\Local\Temp\cc8C2ZcK.s 			page 65


 2706              		.loc 1 509 0
 2707 0186 05B0     		add	sp, sp, #20
 2708              		@ sp needed
 2709              	.LVL316:
 2710              	.LVL317:
 2711 0188 3CBC     		pop	{r2, r3, r4, r5}
 2712 018a 9046     		mov	r8, r2
 2713 018c 9946     		mov	r9, r3
 2714 018e A246     		mov	r10, r4
 2715 0190 AB46     		mov	fp, r5
 2716 0192 F0BD     		pop	{r4, r5, r6, r7, pc}
 2717              	.L106:
 2718              		.align	2
 2719              	.L105:
 2720 0194 00000000 		.word	.LANCHOR0
 2721 0198 F0F1FFFF 		.word	-3600
 2722 019c 00000000 		.word	.LANCHOR1
 2723              		.cfi_endproc
 2724              	.LFE20:
 2725              		.size	lv_point_transform, .-lv_point_transform
 2726              		.data
 2727              		.align	2
 2728              		.set	.LANCHOR0,. + 0
 2729              		.type	angle_prev.4486, %object
 2730              		.size	angle_prev.4486, 4
 2731              	angle_prev.4486:
 2732 0000 00000080 		.word	-2147483648
 2733              		.bss
 2734              		.align	2
 2735              		.set	.LANCHOR1,. + 0
 2736              		.type	sinma.4487, %object
 2737              		.size	sinma.4487, 4
 2738              	sinma.4487:
 2739 0000 00000000 		.space	4
 2740              		.type	cosma.4488, %object
 2741              		.size	cosma.4488, 4
 2742              	cosma.4488:
 2743 0004 00000000 		.space	4
 2744              		.text
 2745              	.Letext0:
 2746              		.file 3 "c:\\program files (x86)\\cypress\\psoc creator\\4.4\\psoc creator\\import\\gnu\\arm\\5.4.
 2747              		.file 4 "c:\\program files (x86)\\cypress\\psoc creator\\4.4\\psoc creator\\import\\gnu\\arm\\5.4.
 2748              		.file 5 "..\\..\\..\\arduinoLCD\\test\\Pain Drain\\libraries\\lvgl\\src\\misc\\lv_math.h"
 2749              		.section	.debug_info,"",%progbits
 2750              	.Ldebug_info0:
 2751 0000 C6110000 		.4byte	0x11c6
 2752 0004 0400     		.2byte	0x4
 2753 0006 00000000 		.4byte	.Ldebug_abbrev0
 2754 000a 04       		.byte	0x4
 2755 000b 01       		.uleb128 0x1
 2756 000c 8B000000 		.4byte	.LASF99
 2757 0010 0C       		.byte	0xc
 2758 0011 3C010000 		.4byte	.LASF100
 2759 0015 6B030000 		.4byte	.LASF101
 2760 0019 00000000 		.4byte	.Ldebug_ranges0+0
 2761 001d 00000000 		.4byte	0
 2762 0021 00000000 		.4byte	.Ldebug_line0
ARM GAS  C:\Users\haske\AppData\Local\Temp\cc8C2ZcK.s 			page 66


 2763 0025 02       		.uleb128 0x2
 2764 0026 01       		.byte	0x1
 2765 0027 06       		.byte	0x6
 2766 0028 F0030000 		.4byte	.LASF0
 2767 002c 03       		.uleb128 0x3
 2768 002d C9020000 		.4byte	.LASF2
 2769 0031 03       		.byte	0x3
 2770 0032 1D       		.byte	0x1d
 2771 0033 37000000 		.4byte	0x37
 2772 0037 02       		.uleb128 0x2
 2773 0038 01       		.byte	0x1
 2774 0039 08       		.byte	0x8
 2775 003a 2D030000 		.4byte	.LASF1
 2776 003e 03       		.uleb128 0x3
 2777 003f 98050000 		.4byte	.LASF3
 2778 0043 03       		.byte	0x3
 2779 0044 29       		.byte	0x29
 2780 0045 49000000 		.4byte	0x49
 2781 0049 02       		.uleb128 0x2
 2782 004a 02       		.byte	0x2
 2783 004b 05       		.byte	0x5
 2784 004c 81000000 		.4byte	.LASF4
 2785 0050 02       		.uleb128 0x2
 2786 0051 02       		.byte	0x2
 2787 0052 07       		.byte	0x7
 2788 0053 71040000 		.4byte	.LASF5
 2789 0057 03       		.uleb128 0x3
 2790 0058 6C050000 		.4byte	.LASF6
 2791 005c 03       		.byte	0x3
 2792 005d 3F       		.byte	0x3f
 2793 005e 62000000 		.4byte	0x62
 2794 0062 02       		.uleb128 0x2
 2795 0063 04       		.byte	0x4
 2796 0064 05       		.byte	0x5
 2797 0065 94020000 		.4byte	.LASF7
 2798 0069 03       		.uleb128 0x3
 2799 006a 31010000 		.4byte	.LASF8
 2800 006e 03       		.byte	0x3
 2801 006f 41       		.byte	0x41
 2802 0070 74000000 		.4byte	0x74
 2803 0074 02       		.uleb128 0x2
 2804 0075 04       		.byte	0x4
 2805 0076 07       		.byte	0x7
 2806 0077 28050000 		.4byte	.LASF9
 2807 007b 02       		.uleb128 0x2
 2808 007c 08       		.byte	0x8
 2809 007d 05       		.byte	0x5
 2810 007e 52020000 		.4byte	.LASF10
 2811 0082 02       		.uleb128 0x2
 2812 0083 08       		.byte	0x8
 2813 0084 07       		.byte	0x7
 2814 0085 FC030000 		.4byte	.LASF11
 2815 0089 04       		.uleb128 0x4
 2816 008a 04       		.byte	0x4
 2817 008b 05       		.byte	0x5
 2818 008c 696E7400 		.ascii	"int\000"
 2819 0090 02       		.uleb128 0x2
ARM GAS  C:\Users\haske\AppData\Local\Temp\cc8C2ZcK.s 			page 67


 2820 0091 04       		.byte	0x4
 2821 0092 07       		.byte	0x7
 2822 0093 1C040000 		.4byte	.LASF12
 2823 0097 03       		.uleb128 0x3
 2824 0098 FD010000 		.4byte	.LASF13
 2825 009c 04       		.byte	0x4
 2826 009d 18       		.byte	0x18
 2827 009e 2C000000 		.4byte	0x2c
 2828 00a2 03       		.uleb128 0x3
 2829 00a3 BB040000 		.4byte	.LASF14
 2830 00a7 04       		.byte	0x4
 2831 00a8 20       		.byte	0x20
 2832 00a9 3E000000 		.4byte	0x3e
 2833 00ad 03       		.uleb128 0x3
 2834 00ae A8040000 		.4byte	.LASF15
 2835 00b2 04       		.byte	0x4
 2836 00b3 2C       		.byte	0x2c
 2837 00b4 57000000 		.4byte	0x57
 2838 00b8 03       		.uleb128 0x3
 2839 00b9 13040000 		.4byte	.LASF16
 2840 00bd 04       		.byte	0x4
 2841 00be 30       		.byte	0x30
 2842 00bf 69000000 		.4byte	0x69
 2843 00c3 03       		.uleb128 0x3
 2844 00c4 B0040000 		.4byte	.LASF17
 2845 00c8 02       		.byte	0x2
 2846 00c9 1B       		.byte	0x1b
 2847 00ca A2000000 		.4byte	0xa2
 2848 00ce 05       		.uleb128 0x5
 2849 00cf 04       		.byte	0x4
 2850 00d0 02       		.byte	0x2
 2851 00d1 25       		.byte	0x25
 2852 00d2 EB000000 		.4byte	0xeb
 2853 00d6 06       		.uleb128 0x6
 2854 00d7 7800     		.ascii	"x\000"
 2855 00d9 02       		.byte	0x2
 2856 00da 26       		.byte	0x26
 2857 00db C3000000 		.4byte	0xc3
 2858 00df 00       		.byte	0
 2859 00e0 06       		.uleb128 0x6
 2860 00e1 7900     		.ascii	"y\000"
 2861 00e3 02       		.byte	0x2
 2862 00e4 27       		.byte	0x27
 2863 00e5 C3000000 		.4byte	0xc3
 2864 00e9 02       		.byte	0x2
 2865 00ea 00       		.byte	0
 2866 00eb 03       		.uleb128 0x3
 2867 00ec F2010000 		.4byte	.LASF18
 2868 00f0 02       		.byte	0x2
 2869 00f1 28       		.byte	0x28
 2870 00f2 CE000000 		.4byte	0xce
 2871 00f6 05       		.uleb128 0x5
 2872 00f7 08       		.byte	0x8
 2873 00f8 02       		.byte	0x2
 2874 00f9 2B       		.byte	0x2b
 2875 00fa 2B010000 		.4byte	0x12b
 2876 00fe 06       		.uleb128 0x6
ARM GAS  C:\Users\haske\AppData\Local\Temp\cc8C2ZcK.s 			page 68


 2877 00ff 783100   		.ascii	"x1\000"
 2878 0102 02       		.byte	0x2
 2879 0103 2C       		.byte	0x2c
 2880 0104 C3000000 		.4byte	0xc3
 2881 0108 00       		.byte	0
 2882 0109 06       		.uleb128 0x6
 2883 010a 793100   		.ascii	"y1\000"
 2884 010d 02       		.byte	0x2
 2885 010e 2D       		.byte	0x2d
 2886 010f C3000000 		.4byte	0xc3
 2887 0113 02       		.byte	0x2
 2888 0114 06       		.uleb128 0x6
 2889 0115 783200   		.ascii	"x2\000"
 2890 0118 02       		.byte	0x2
 2891 0119 2E       		.byte	0x2e
 2892 011a C3000000 		.4byte	0xc3
 2893 011e 04       		.byte	0x4
 2894 011f 06       		.uleb128 0x6
 2895 0120 793200   		.ascii	"y2\000"
 2896 0123 02       		.byte	0x2
 2897 0124 2F       		.byte	0x2f
 2898 0125 C3000000 		.4byte	0xc3
 2899 0129 06       		.byte	0x6
 2900 012a 00       		.byte	0
 2901 012b 03       		.uleb128 0x3
 2902 012c 82010000 		.4byte	.LASF19
 2903 0130 02       		.byte	0x2
 2904 0131 30       		.byte	0x30
 2905 0132 F6000000 		.4byte	0xf6
 2906 0136 07       		.uleb128 0x7
 2907 0137 01       		.byte	0x1
 2908 0138 37000000 		.4byte	0x37
 2909 013c 02       		.byte	0x2
 2910 013d 33       		.byte	0x33
 2911 013e C7010000 		.4byte	0x1c7
 2912 0142 08       		.uleb128 0x8
 2913 0143 31000000 		.4byte	.LASF20
 2914 0147 00       		.byte	0
 2915 0148 08       		.uleb128 0x8
 2916 0149 B0020000 		.4byte	.LASF21
 2917 014d 01       		.byte	0x1
 2918 014e 08       		.uleb128 0x8
 2919 014f 11060000 		.4byte	.LASF22
 2920 0153 02       		.byte	0x2
 2921 0154 08       		.uleb128 0x8
 2922 0155 59050000 		.4byte	.LASF23
 2923 0159 03       		.byte	0x3
 2924 015a 08       		.uleb128 0x8
 2925 015b AF030000 		.4byte	.LASF24
 2926 015f 04       		.byte	0x4
 2927 0160 08       		.uleb128 0x8
 2928 0161 84050000 		.4byte	.LASF25
 2929 0165 05       		.byte	0x5
 2930 0166 08       		.uleb128 0x8
 2931 0167 35060000 		.4byte	.LASF26
 2932 016b 06       		.byte	0x6
 2933 016c 08       		.uleb128 0x8
ARM GAS  C:\Users\haske\AppData\Local\Temp\cc8C2ZcK.s 			page 69


 2934 016d 96040000 		.4byte	.LASF27
 2935 0171 07       		.byte	0x7
 2936 0172 08       		.uleb128 0x8
 2937 0173 9D020000 		.4byte	.LASF28
 2938 0177 08       		.byte	0x8
 2939 0178 08       		.uleb128 0x8
 2940 0179 5B000000 		.4byte	.LASF29
 2941 017d 09       		.byte	0x9
 2942 017e 08       		.uleb128 0x8
 2943 017f 6B000000 		.4byte	.LASF30
 2944 0183 0A       		.byte	0xa
 2945 0184 08       		.uleb128 0x8
 2946 0185 E5040000 		.4byte	.LASF31
 2947 0189 0B       		.byte	0xb
 2948 018a 08       		.uleb128 0x8
 2949 018b D3020000 		.4byte	.LASF32
 2950 018f 0C       		.byte	0xc
 2951 0190 08       		.uleb128 0x8
 2952 0191 F7020000 		.4byte	.LASF33
 2953 0195 0D       		.byte	0xd
 2954 0196 08       		.uleb128 0x8
 2955 0197 38040000 		.4byte	.LASF34
 2956 019b 0E       		.byte	0xe
 2957 019c 08       		.uleb128 0x8
 2958 019d FA040000 		.4byte	.LASF35
 2959 01a1 0F       		.byte	0xf
 2960 01a2 08       		.uleb128 0x8
 2961 01a3 8C010000 		.4byte	.LASF36
 2962 01a7 10       		.byte	0x10
 2963 01a8 08       		.uleb128 0x8
 2964 01a9 69020000 		.4byte	.LASF37
 2965 01ad 11       		.byte	0x11
 2966 01ae 08       		.uleb128 0x8
 2967 01af 39020000 		.4byte	.LASF38
 2968 01b3 12       		.byte	0x12
 2969 01b4 08       		.uleb128 0x8
 2970 01b5 22020000 		.4byte	.LASF39
 2971 01b9 13       		.byte	0x13
 2972 01ba 08       		.uleb128 0x8
 2973 01bb 16030000 		.4byte	.LASF40
 2974 01bf 14       		.byte	0x14
 2975 01c0 08       		.uleb128 0x8
 2976 01c1 17000000 		.4byte	.LASF41
 2977 01c5 15       		.byte	0x15
 2978 01c6 00       		.byte	0
 2979 01c7 03       		.uleb128 0x3
 2980 01c8 A4030000 		.4byte	.LASF42
 2981 01cc 02       		.byte	0x2
 2982 01cd 4C       		.byte	0x4c
 2983 01ce 97000000 		.4byte	0x97
 2984 01d2 09       		.uleb128 0x9
 2985 01d3 42000000 		.4byte	.LASF43
 2986 01d7 02       		.byte	0x2
 2987 01d8 85       		.byte	0x85
 2988 01d9 C3000000 		.4byte	0xc3
 2989 01dd 03       		.byte	0x3
 2990 01de EE010000 		.4byte	0x1ee
ARM GAS  C:\Users\haske\AppData\Local\Temp\cc8C2ZcK.s 			page 70


 2991 01e2 0A       		.uleb128 0xa
 2992 01e3 C2020000 		.4byte	.LASF45
 2993 01e7 02       		.byte	0x2
 2994 01e8 85       		.byte	0x85
 2995 01e9 EE010000 		.4byte	0x1ee
 2996 01ed 00       		.byte	0
 2997 01ee 0B       		.uleb128 0xb
 2998 01ef 04       		.byte	0x4
 2999 01f0 F4010000 		.4byte	0x1f4
 3000 01f4 0C       		.uleb128 0xc
 3001 01f5 2B010000 		.4byte	0x12b
 3002 01f9 09       		.uleb128 0x9
 3003 01fa BD010000 		.4byte	.LASF44
 3004 01fe 02       		.byte	0x2
 3005 01ff 7B       		.byte	0x7b
 3006 0200 C3000000 		.4byte	0xc3
 3007 0204 03       		.byte	0x3
 3008 0205 15020000 		.4byte	0x215
 3009 0209 0A       		.uleb128 0xa
 3010 020a C2020000 		.4byte	.LASF45
 3011 020e 02       		.byte	0x2
 3012 020f 7B       		.byte	0x7b
 3013 0210 EE010000 		.4byte	0x1ee
 3014 0214 00       		.byte	0
 3015 0215 0D       		.uleb128 0xd
 3016 0216 54030000 		.4byte	.LASF102
 3017 021a 01       		.byte	0x1
 3018 021b 0402     		.2byte	0x204
 3019 021d B6020000 		.4byte	0x2b6
 3020 0221 00000000 		.4byte	.LFB21
 3021 0225 46000000 		.4byte	.LFE21-.LFB21
 3022 0229 01       		.uleb128 0x1
 3023 022a 9C       		.byte	0x9c
 3024 022b B6020000 		.4byte	0x2b6
 3025 022f 0E       		.uleb128 0xe
 3026 0230 0C060000 		.4byte	.LASF46
 3027 0234 01       		.byte	0x1
 3028 0235 0402     		.2byte	0x204
 3029 0237 EE010000 		.4byte	0x1ee
 3030 023b 00000000 		.4byte	.LLST0
 3031 023f 0F       		.uleb128 0xf
 3032 0240 7000     		.ascii	"p\000"
 3033 0242 01       		.byte	0x1
 3034 0243 0402     		.2byte	0x204
 3035 0245 BD020000 		.4byte	0x2bd
 3036 0249 21000000 		.4byte	.LLST1
 3037 024d 10       		.uleb128 0x10
 3038 024e 7200     		.ascii	"r\000"
 3039 0250 01       		.byte	0x1
 3040 0251 0602     		.2byte	0x206
 3041 0253 C3000000 		.4byte	0xc3
 3042 0257 42000000 		.4byte	.LLST2
 3043 025b 10       		.uleb128 0x10
 3044 025c 637800   		.ascii	"cx\000"
 3045 025f 01       		.byte	0x1
 3046 0260 0902     		.2byte	0x209
 3047 0262 C3000000 		.4byte	0xc3
ARM GAS  C:\Users\haske\AppData\Local\Temp\cc8C2ZcK.s 			page 71


 3048 0266 8F000000 		.4byte	.LLST3
 3049 026a 10       		.uleb128 0x10
 3050 026b 637900   		.ascii	"cy\000"
 3051 026e 01       		.byte	0x1
 3052 026f 0A02     		.2byte	0x20a
 3053 0271 C3000000 		.4byte	0xc3
 3054 0275 EA000000 		.4byte	.LLST4
 3055 0279 10       		.uleb128 0x10
 3056 027a 707800   		.ascii	"px\000"
 3057 027d 01       		.byte	0x1
 3058 027e 0D02     		.2byte	0x20d
 3059 0280 C3000000 		.4byte	0xc3
 3060 0284 64010000 		.4byte	.LLST5
 3061 0288 10       		.uleb128 0x10
 3062 0289 707900   		.ascii	"py\000"
 3063 028c 01       		.byte	0x1
 3064 028d 0E02     		.2byte	0x20e
 3065 028f C3000000 		.4byte	0xc3
 3066 0293 F4010000 		.4byte	.LLST6
 3067 0297 11       		.uleb128 0x11
 3068 0298 B3050000 		.4byte	.LASF47
 3069 029c 01       		.byte	0x1
 3070 029d 1002     		.2byte	0x210
 3071 029f B8000000 		.4byte	0xb8
 3072 02a3 12020000 		.4byte	.LLST7
 3073 02a7 12       		.uleb128 0x12
 3074 02a8 61040000 		.4byte	.LASF48
 3075 02ac 01       		.byte	0x1
 3076 02ad 1102     		.2byte	0x211
 3077 02af B8000000 		.4byte	0xb8
 3078 02b3 01       		.uleb128 0x1
 3079 02b4 53       		.byte	0x53
 3080 02b5 00       		.byte	0
 3081 02b6 02       		.uleb128 0x2
 3082 02b7 01       		.byte	0x1
 3083 02b8 02       		.byte	0x2
 3084 02b9 CE040000 		.4byte	.LASF49
 3085 02bd 0B       		.uleb128 0xb
 3086 02be 04       		.byte	0x4
 3087 02bf C3020000 		.4byte	0x2c3
 3088 02c3 0C       		.uleb128 0xc
 3089 02c4 EB000000 		.4byte	0xeb
 3090 02c8 13       		.uleb128 0x13
 3091 02c9 0F020000 		.4byte	.LASF50
 3092 02cd 01       		.byte	0x1
 3093 02ce 30       		.byte	0x30
 3094 02cf 00000000 		.4byte	.LFB5
 3095 02d3 12000000 		.4byte	.LFE5-.LFB5
 3096 02d7 01       		.uleb128 0x1
 3097 02d8 9C       		.byte	0x9c
 3098 02d9 1D030000 		.4byte	0x31d
 3099 02dd 14       		.uleb128 0x14
 3100 02de C2020000 		.4byte	.LASF45
 3101 02e2 01       		.byte	0x1
 3102 02e3 30       		.byte	0x30
 3103 02e4 1D030000 		.4byte	0x31d
 3104 02e8 01       		.uleb128 0x1
ARM GAS  C:\Users\haske\AppData\Local\Temp\cc8C2ZcK.s 			page 72


 3105 02e9 50       		.byte	0x50
 3106 02ea 15       		.uleb128 0x15
 3107 02eb 783100   		.ascii	"x1\000"
 3108 02ee 01       		.byte	0x1
 3109 02ef 30       		.byte	0x30
 3110 02f0 C3000000 		.4byte	0xc3
 3111 02f4 01       		.uleb128 0x1
 3112 02f5 51       		.byte	0x51
 3113 02f6 15       		.uleb128 0x15
 3114 02f7 793100   		.ascii	"y1\000"
 3115 02fa 01       		.byte	0x1
 3116 02fb 30       		.byte	0x30
 3117 02fc C3000000 		.4byte	0xc3
 3118 0300 01       		.uleb128 0x1
 3119 0301 52       		.byte	0x52
 3120 0302 15       		.uleb128 0x15
 3121 0303 783200   		.ascii	"x2\000"
 3122 0306 01       		.byte	0x1
 3123 0307 30       		.byte	0x30
 3124 0308 C3000000 		.4byte	0xc3
 3125 030c 01       		.uleb128 0x1
 3126 030d 53       		.byte	0x53
 3127 030e 16       		.uleb128 0x16
 3128 030f 793200   		.ascii	"y2\000"
 3129 0312 01       		.byte	0x1
 3130 0313 30       		.byte	0x30
 3131 0314 C3000000 		.4byte	0xc3
 3132 0318 97020000 		.4byte	.LLST8
 3133 031c 00       		.byte	0
 3134 031d 0B       		.uleb128 0xb
 3135 031e 04       		.byte	0x4
 3136 031f 2B010000 		.4byte	0x12b
 3137 0323 13       		.uleb128 0x13
 3138 0324 84040000 		.4byte	.LASF51
 3139 0328 01       		.byte	0x1
 3140 0329 3D       		.byte	0x3d
 3141 032a 00000000 		.4byte	.LFB6
 3142 032e 0C000000 		.4byte	.LFE6-.LFB6
 3143 0332 01       		.uleb128 0x1
 3144 0333 9C       		.byte	0x9c
 3145 0334 53030000 		.4byte	0x353
 3146 0338 14       		.uleb128 0x14
 3147 0339 C2020000 		.4byte	.LASF45
 3148 033d 01       		.byte	0x1
 3149 033e 3D       		.byte	0x3d
 3150 033f 1D030000 		.4byte	0x31d
 3151 0343 01       		.uleb128 0x1
 3152 0344 50       		.byte	0x50
 3153 0345 16       		.uleb128 0x16
 3154 0346 7700     		.ascii	"w\000"
 3155 0348 01       		.byte	0x1
 3156 0349 3D       		.byte	0x3d
 3157 034a C3000000 		.4byte	0xc3
 3158 034e C3020000 		.4byte	.LLST9
 3159 0352 00       		.byte	0
 3160 0353 13       		.uleb128 0x13
 3161 0354 BA050000 		.4byte	.LASF52
ARM GAS  C:\Users\haske\AppData\Local\Temp\cc8C2ZcK.s 			page 73


 3162 0358 01       		.byte	0x1
 3163 0359 47       		.byte	0x47
 3164 035a 00000000 		.4byte	.LFB7
 3165 035e 0C000000 		.4byte	.LFE7-.LFB7
 3166 0362 01       		.uleb128 0x1
 3167 0363 9C       		.byte	0x9c
 3168 0364 83030000 		.4byte	0x383
 3169 0368 14       		.uleb128 0x14
 3170 0369 C2020000 		.4byte	.LASF45
 3171 036d 01       		.byte	0x1
 3172 036e 47       		.byte	0x47
 3173 036f 1D030000 		.4byte	0x31d
 3174 0373 01       		.uleb128 0x1
 3175 0374 50       		.byte	0x50
 3176 0375 16       		.uleb128 0x16
 3177 0376 6800     		.ascii	"h\000"
 3178 0378 01       		.byte	0x1
 3179 0379 47       		.byte	0x47
 3180 037a C3000000 		.4byte	0xc3
 3181 037e E4020000 		.4byte	.LLST10
 3182 0382 00       		.byte	0
 3183 0383 13       		.uleb128 0x13
 3184 0384 CD050000 		.4byte	.LASF53
 3185 0388 01       		.byte	0x1
 3186 0389 52       		.byte	0x52
 3187 038a 00000000 		.4byte	.LFB8
 3188 038e 36000000 		.4byte	.LFE8-.LFB8
 3189 0392 01       		.uleb128 0x1
 3190 0393 9C       		.byte	0x9c
 3191 0394 38040000 		.4byte	0x438
 3192 0398 17       		.uleb128 0x17
 3193 0399 C2020000 		.4byte	.LASF45
 3194 039d 01       		.byte	0x1
 3195 039e 52       		.byte	0x52
 3196 039f 1D030000 		.4byte	0x31d
 3197 03a3 05030000 		.4byte	.LLST11
 3198 03a7 16       		.uleb128 0x16
 3199 03a8 7800     		.ascii	"x\000"
 3200 03aa 01       		.byte	0x1
 3201 03ab 52       		.byte	0x52
 3202 03ac C3000000 		.4byte	0xc3
 3203 03b0 31030000 		.4byte	.LLST12
 3204 03b4 16       		.uleb128 0x16
 3205 03b5 7900     		.ascii	"y\000"
 3206 03b7 01       		.byte	0x1
 3207 03b8 52       		.byte	0x52
 3208 03b9 C3000000 		.4byte	0xc3
 3209 03bd 52030000 		.4byte	.LLST13
 3210 03c1 18       		.uleb128 0x18
 3211 03c2 7700     		.ascii	"w\000"
 3212 03c4 01       		.byte	0x1
 3213 03c5 54       		.byte	0x54
 3214 03c6 C3000000 		.4byte	0xc3
 3215 03ca 18       		.uleb128 0x18
 3216 03cb 6800     		.ascii	"h\000"
 3217 03cd 01       		.byte	0x1
 3218 03ce 55       		.byte	0x55
ARM GAS  C:\Users\haske\AppData\Local\Temp\cc8C2ZcK.s 			page 74


 3219 03cf C3000000 		.4byte	0xc3
 3220 03d3 19       		.uleb128 0x19
 3221 03d4 F9010000 		.4byte	0x1f9
 3222 03d8 06000000 		.4byte	.LBB118
 3223 03dc 0E000000 		.4byte	.LBE118-.LBB118
 3224 03e0 01       		.byte	0x1
 3225 03e1 54       		.byte	0x54
 3226 03e2 F0030000 		.4byte	0x3f0
 3227 03e6 1A       		.uleb128 0x1a
 3228 03e7 09020000 		.4byte	0x209
 3229 03eb 73030000 		.4byte	.LLST14
 3230 03ef 00       		.byte	0
 3231 03f0 19       		.uleb128 0x19
 3232 03f1 D2010000 		.4byte	0x1d2
 3233 03f5 14000000 		.4byte	.LBB120
 3234 03f9 0E000000 		.4byte	.LBE120-.LBB120
 3235 03fd 01       		.byte	0x1
 3236 03fe 55       		.byte	0x55
 3237 03ff 0D040000 		.4byte	0x40d
 3238 0403 1A       		.uleb128 0x1a
 3239 0404 E2010000 		.4byte	0x1e2
 3240 0408 86030000 		.4byte	.LLST15
 3241 040c 00       		.byte	0
 3242 040d 1B       		.uleb128 0x1b
 3243 040e 2C000000 		.4byte	.LVL27
 3244 0412 23030000 		.4byte	0x323
 3245 0416 21040000 		.4byte	0x421
 3246 041a 1C       		.uleb128 0x1c
 3247 041b 01       		.uleb128 0x1
 3248 041c 50       		.byte	0x50
 3249 041d 02       		.uleb128 0x2
 3250 041e 74       		.byte	0x74
 3251 041f 00       		.sleb128 0
 3252 0420 00       		.byte	0
 3253 0421 1D       		.uleb128 0x1d
 3254 0422 34000000 		.4byte	.LVL28
 3255 0426 53030000 		.4byte	0x353
 3256 042a 1C       		.uleb128 0x1c
 3257 042b 01       		.uleb128 0x1
 3258 042c 50       		.byte	0x50
 3259 042d 02       		.uleb128 0x2
 3260 042e 74       		.byte	0x74
 3261 042f 00       		.sleb128 0
 3262 0430 1C       		.uleb128 0x1c
 3263 0431 01       		.uleb128 0x1
 3264 0432 51       		.byte	0x51
 3265 0433 02       		.uleb128 0x2
 3266 0434 75       		.byte	0x75
 3267 0435 00       		.sleb128 0
 3268 0436 00       		.byte	0
 3269 0437 00       		.byte	0
 3270 0438 1E       		.uleb128 0x1e
 3271 0439 A2050000 		.4byte	.LASF61
 3272 043d 01       		.byte	0x1
 3273 043e 61       		.byte	0x61
 3274 043f B8000000 		.4byte	0xb8
 3275 0443 00000000 		.4byte	.LFB9
ARM GAS  C:\Users\haske\AppData\Local\Temp\cc8C2ZcK.s 			page 75


 3276 0447 1E000000 		.4byte	.LFE9-.LFB9
 3277 044b 01       		.uleb128 0x1
 3278 044c 9C       		.byte	0x9c
 3279 044d 6E040000 		.4byte	0x46e
 3280 0451 17       		.uleb128 0x17
 3281 0452 C2020000 		.4byte	.LASF45
 3282 0456 01       		.byte	0x1
 3283 0457 61       		.byte	0x61
 3284 0458 EE010000 		.4byte	0x1ee
 3285 045c 99030000 		.4byte	.LLST16
 3286 0460 1F       		.uleb128 0x1f
 3287 0461 4E050000 		.4byte	.LASF54
 3288 0465 01       		.byte	0x1
 3289 0466 63       		.byte	0x63
 3290 0467 B8000000 		.4byte	0xb8
 3291 046b 01       		.uleb128 0x1
 3292 046c 50       		.byte	0x50
 3293 046d 00       		.byte	0
 3294 046e 13       		.uleb128 0x13
 3295 046f 50040000 		.4byte	.LASF55
 3296 0473 01       		.byte	0x1
 3297 0474 6A       		.byte	0x6a
 3298 0475 00000000 		.4byte	.LFB10
 3299 0479 1E000000 		.4byte	.LFE10-.LFB10
 3300 047d 01       		.uleb128 0x1
 3301 047e 9C       		.byte	0x9c
 3302 047f AF040000 		.4byte	0x4af
 3303 0483 14       		.uleb128 0x14
 3304 0484 0C060000 		.4byte	.LASF46
 3305 0488 01       		.byte	0x1
 3306 0489 6A       		.byte	0x6a
 3307 048a 1D030000 		.4byte	0x31d
 3308 048e 01       		.uleb128 0x1
 3309 048f 50       		.byte	0x50
 3310 0490 17       		.uleb128 0x17
 3311 0491 7C050000 		.4byte	.LASF56
 3312 0495 01       		.byte	0x1
 3313 0496 6A       		.byte	0x6a
 3314 0497 C3000000 		.4byte	0xc3
 3315 049b BA030000 		.4byte	.LLST17
 3316 049f 17       		.uleb128 0x17
 3317 04a0 A2010000 		.4byte	.LASF57
 3318 04a4 01       		.byte	0x1
 3319 04a5 6A       		.byte	0x6a
 3320 04a6 C3000000 		.4byte	0xc3
 3321 04aa DB030000 		.4byte	.LLST18
 3322 04ae 00       		.byte	0
 3323 04af 13       		.uleb128 0x13
 3324 04b0 DE050000 		.4byte	.LASF58
 3325 04b4 01       		.byte	0x1
 3326 04b5 72       		.byte	0x72
 3327 04b6 00000000 		.4byte	.LFB11
 3328 04ba 1E000000 		.4byte	.LFE11-.LFB11
 3329 04be 01       		.uleb128 0x1
 3330 04bf 9C       		.byte	0x9c
 3331 04c0 F0040000 		.4byte	0x4f0
 3332 04c4 14       		.uleb128 0x14
ARM GAS  C:\Users\haske\AppData\Local\Temp\cc8C2ZcK.s 			page 76


 3333 04c5 0C060000 		.4byte	.LASF46
 3334 04c9 01       		.byte	0x1
 3335 04ca 72       		.byte	0x72
 3336 04cb 1D030000 		.4byte	0x31d
 3337 04cf 01       		.uleb128 0x1
 3338 04d0 50       		.byte	0x50
 3339 04d1 17       		.uleb128 0x17
 3340 04d2 32040000 		.4byte	.LASF59
 3341 04d6 01       		.byte	0x1
 3342 04d7 72       		.byte	0x72
 3343 04d8 C3000000 		.4byte	0xc3
 3344 04dc FC030000 		.4byte	.LLST19
 3345 04e0 17       		.uleb128 0x17
 3346 04e1 10030000 		.4byte	.LASF60
 3347 04e5 01       		.byte	0x1
 3348 04e6 72       		.byte	0x72
 3349 04e7 C3000000 		.4byte	0xc3
 3350 04eb 1D040000 		.4byte	.LLST20
 3351 04ef 00       		.byte	0
 3352 04f0 1E       		.uleb128 0x1e
 3353 04f1 41030000 		.4byte	.LASF62
 3354 04f5 01       		.byte	0x1
 3355 04f6 81       		.byte	0x81
 3356 04f7 B6020000 		.4byte	0x2b6
 3357 04fb 00000000 		.4byte	.LFB12
 3358 04ff 66000000 		.4byte	.LFE12-.LFB12
 3359 0503 01       		.uleb128 0x1
 3360 0504 9C       		.byte	0x9c
 3361 0505 46050000 		.4byte	0x546
 3362 0509 17       		.uleb128 0x17
 3363 050a 53050000 		.4byte	.LASF63
 3364 050e 01       		.byte	0x1
 3365 050f 81       		.byte	0x81
 3366 0510 1D030000 		.4byte	0x31d
 3367 0514 3E040000 		.4byte	.LLST21
 3368 0518 17       		.uleb128 0x17
 3369 0519 49050000 		.4byte	.LASF64
 3370 051d 01       		.byte	0x1
 3371 051e 81       		.byte	0x81
 3372 051f EE010000 		.4byte	0x1ee
 3373 0523 91040000 		.4byte	.LLST22
 3374 0527 17       		.uleb128 0x17
 3375 0528 E0040000 		.4byte	.LASF65
 3376 052c 01       		.byte	0x1
 3377 052d 81       		.byte	0x81
 3378 052e EE010000 		.4byte	0x1ee
 3379 0532 B2040000 		.4byte	.LLST23
 3380 0536 20       		.uleb128 0x20
 3381 0537 60020000 		.4byte	.LASF66
 3382 053b 01       		.byte	0x1
 3383 053c 8A       		.byte	0x8a
 3384 053d B6020000 		.4byte	0x2b6
 3385 0541 D3040000 		.4byte	.LLST24
 3386 0545 00       		.byte	0
 3387 0546 13       		.uleb128 0x13
 3388 0547 23010000 		.4byte	.LASF67
 3389 054b 01       		.byte	0x1
ARM GAS  C:\Users\haske\AppData\Local\Temp\cc8C2ZcK.s 			page 77


 3390 054c 98       		.byte	0x98
 3391 054d 00000000 		.4byte	.LFB13
 3392 0551 4C000000 		.4byte	.LFE13-.LFB13
 3393 0555 01       		.uleb128 0x1
 3394 0556 9C       		.byte	0x9c
 3395 0557 87050000 		.4byte	0x587
 3396 055b 14       		.uleb128 0x14
 3397 055c 2D060000 		.4byte	.LASF68
 3398 0560 01       		.byte	0x1
 3399 0561 98       		.byte	0x98
 3400 0562 1D030000 		.4byte	0x31d
 3401 0566 01       		.uleb128 0x1
 3402 0567 50       		.byte	0x50
 3403 0568 17       		.uleb128 0x17
 3404 0569 49050000 		.4byte	.LASF64
 3405 056d 01       		.byte	0x1
 3406 056e 98       		.byte	0x98
 3407 056f EE010000 		.4byte	0x1ee
 3408 0573 F2040000 		.4byte	.LLST25
 3409 0577 17       		.uleb128 0x17
 3410 0578 E0040000 		.4byte	.LASF65
 3411 057c 01       		.byte	0x1
 3412 057d 98       		.byte	0x98
 3413 057e EE010000 		.4byte	0x1ee
 3414 0582 13050000 		.4byte	.LLST26
 3415 0586 00       		.byte	0
 3416 0587 1E       		.uleb128 0x1e
 3417 0588 C4030000 		.4byte	.LASF69
 3418 058c 01       		.byte	0x1
 3419 058d A7       		.byte	0xa7
 3420 058e B6020000 		.4byte	0x2b6
 3421 0592 00000000 		.4byte	.LFB14
 3422 0596 70010000 		.4byte	.LFE14-.LFB14
 3423 059a 01       		.uleb128 0x1
 3424 059b 9C       		.byte	0x9c
 3425 059c 2E070000 		.4byte	0x72e
 3426 05a0 16       		.uleb128 0x16
 3427 05a1 615F7000 		.ascii	"a_p\000"
 3428 05a5 01       		.byte	0x1
 3429 05a6 A7       		.byte	0xa7
 3430 05a7 EE010000 		.4byte	0x1ee
 3431 05ab 34050000 		.4byte	.LLST27
 3432 05af 16       		.uleb128 0x16
 3433 05b0 705F7000 		.ascii	"p_p\000"
 3434 05b4 01       		.byte	0x1
 3435 05b5 A7       		.byte	0xa7
 3436 05b6 BD020000 		.4byte	0x2bd
 3437 05ba 60050000 		.4byte	.LLST28
 3438 05be 17       		.uleb128 0x17
 3439 05bf E9030000 		.4byte	.LASF70
 3440 05c3 01       		.byte	0x1
 3441 05c4 A7       		.byte	0xa7
 3442 05c5 C3000000 		.4byte	0xc3
 3443 05c9 8C050000 		.4byte	.LLST29
 3444 05cd 20       		.uleb128 0x20
 3445 05ce D9010000 		.4byte	.LASF71
 3446 05d2 01       		.byte	0x1
ARM GAS  C:\Users\haske\AppData\Local\Temp\cc8C2ZcK.s 			page 78


 3447 05d3 AA       		.byte	0xaa
 3448 05d4 B6020000 		.4byte	0x2b6
 3449 05d8 E1050000 		.4byte	.LLST30
 3450 05dc 21       		.uleb128 0x21
 3451 05dd 7700     		.ascii	"w\000"
 3452 05df 01       		.byte	0x1
 3453 05e0 B5       		.byte	0xb5
 3454 05e1 C3000000 		.4byte	0xc3
 3455 05e5 0B060000 		.4byte	.LLST31
 3456 05e9 21       		.uleb128 0x21
 3457 05ea 6800     		.ascii	"h\000"
 3458 05ec 01       		.byte	0x1
 3459 05ed B6       		.byte	0xb6
 3460 05ee C3000000 		.4byte	0xc3
 3461 05f2 50060000 		.4byte	.LLST32
 3462 05f6 20       		.uleb128 0x20
 3463 05f7 22060000 		.4byte	.LASF72
 3464 05fb 01       		.byte	0x1
 3465 05fc B7       		.byte	0xb7
 3466 05fd C3000000 		.4byte	0xc3
 3467 0601 63060000 		.4byte	.LLST33
 3468 0605 1F       		.uleb128 0x1f
 3469 0606 D4040000 		.4byte	.LASF73
 3470 060a 01       		.byte	0x1
 3471 060b BC       		.byte	0xbc
 3472 060c 2B010000 		.4byte	0x12b
 3473 0610 02       		.uleb128 0x2
 3474 0611 91       		.byte	0x91
 3475 0612 60       		.sleb128 -32
 3476 0613 19       		.uleb128 0x19
 3477 0614 F9010000 		.4byte	0x1f9
 3478 0618 4E000000 		.4byte	.LBB122
 3479 061c 0A000000 		.4byte	.LBE122-.LBB122
 3480 0620 01       		.byte	0x1
 3481 0621 B5       		.byte	0xb5
 3482 0622 30060000 		.4byte	0x630
 3483 0626 1A       		.uleb128 0x1a
 3484 0627 09020000 		.4byte	0x209
 3485 062b 76060000 		.4byte	.LLST34
 3486 062f 00       		.byte	0
 3487 0630 19       		.uleb128 0x19
 3488 0631 D2010000 		.4byte	0x1d2
 3489 0635 5E000000 		.4byte	.LBB124
 3490 0639 0E000000 		.4byte	.LBE124-.LBB124
 3491 063d 01       		.byte	0x1
 3492 063e B6       		.byte	0xb6
 3493 063f 4D060000 		.4byte	0x64d
 3494 0643 1A       		.uleb128 0x1a
 3495 0644 E2010000 		.4byte	0x1e2
 3496 0648 89060000 		.4byte	.LLST35
 3497 064c 00       		.byte	0
 3498 064d 1B       		.uleb128 0x1b
 3499 064e A8000000 		.4byte	.LVL67
 3500 0652 87050000 		.4byte	0x587
 3501 0656 6C060000 		.4byte	0x66c
 3502 065a 1C       		.uleb128 0x1c
 3503 065b 01       		.uleb128 0x1
ARM GAS  C:\Users\haske\AppData\Local\Temp\cc8C2ZcK.s 			page 79


 3504 065c 50       		.byte	0x50
 3505 065d 02       		.uleb128 0x2
 3506 065e 7D       		.byte	0x7d
 3507 065f 00       		.sleb128 0
 3508 0660 1C       		.uleb128 0x1c
 3509 0661 01       		.uleb128 0x1
 3510 0662 51       		.byte	0x51
 3511 0663 02       		.uleb128 0x2
 3512 0664 74       		.byte	0x74
 3513 0665 00       		.sleb128 0
 3514 0666 1C       		.uleb128 0x1c
 3515 0667 01       		.uleb128 0x1
 3516 0668 52       		.byte	0x52
 3517 0669 01       		.uleb128 0x1
 3518 066a 30       		.byte	0x30
 3519 066b 00       		.byte	0
 3520 066c 1B       		.uleb128 0x1b
 3521 066d C4000000 		.4byte	.LVL69
 3522 0671 15020000 		.4byte	0x215
 3523 0675 86060000 		.4byte	0x686
 3524 0679 1C       		.uleb128 0x1c
 3525 067a 01       		.uleb128 0x1
 3526 067b 50       		.byte	0x50
 3527 067c 02       		.uleb128 0x2
 3528 067d 7D       		.byte	0x7d
 3529 067e 00       		.sleb128 0
 3530 067f 1C       		.uleb128 0x1c
 3531 0680 01       		.uleb128 0x1
 3532 0681 51       		.byte	0x51
 3533 0682 02       		.uleb128 0x2
 3534 0683 74       		.byte	0x74
 3535 0684 00       		.sleb128 0
 3536 0685 00       		.byte	0
 3537 0686 1B       		.uleb128 0x1b
 3538 0687 DC000000 		.4byte	.LVL71
 3539 068b 87050000 		.4byte	0x587
 3540 068f A5060000 		.4byte	0x6a5
 3541 0693 1C       		.uleb128 0x1c
 3542 0694 01       		.uleb128 0x1
 3543 0695 50       		.byte	0x50
 3544 0696 02       		.uleb128 0x2
 3545 0697 7D       		.byte	0x7d
 3546 0698 00       		.sleb128 0
 3547 0699 1C       		.uleb128 0x1c
 3548 069a 01       		.uleb128 0x1
 3549 069b 51       		.byte	0x51
 3550 069c 02       		.uleb128 0x2
 3551 069d 74       		.byte	0x74
 3552 069e 00       		.sleb128 0
 3553 069f 1C       		.uleb128 0x1c
 3554 06a0 01       		.uleb128 0x1
 3555 06a1 52       		.byte	0x52
 3556 06a2 01       		.uleb128 0x1
 3557 06a3 30       		.byte	0x30
 3558 06a4 00       		.byte	0
 3559 06a5 1B       		.uleb128 0x1b
 3560 06a6 F8000000 		.4byte	.LVL73
ARM GAS  C:\Users\haske\AppData\Local\Temp\cc8C2ZcK.s 			page 80


 3561 06aa 15020000 		.4byte	0x215
 3562 06ae BF060000 		.4byte	0x6bf
 3563 06b2 1C       		.uleb128 0x1c
 3564 06b3 01       		.uleb128 0x1
 3565 06b4 50       		.byte	0x50
 3566 06b5 02       		.uleb128 0x2
 3567 06b6 7D       		.byte	0x7d
 3568 06b7 00       		.sleb128 0
 3569 06b8 1C       		.uleb128 0x1c
 3570 06b9 01       		.uleb128 0x1
 3571 06ba 51       		.byte	0x51
 3572 06bb 02       		.uleb128 0x2
 3573 06bc 74       		.byte	0x74
 3574 06bd 00       		.sleb128 0
 3575 06be 00       		.byte	0
 3576 06bf 1B       		.uleb128 0x1b
 3577 06c0 10010000 		.4byte	.LVL75
 3578 06c4 87050000 		.4byte	0x587
 3579 06c8 DE060000 		.4byte	0x6de
 3580 06cc 1C       		.uleb128 0x1c
 3581 06cd 01       		.uleb128 0x1
 3582 06ce 50       		.byte	0x50
 3583 06cf 02       		.uleb128 0x2
 3584 06d0 7D       		.byte	0x7d
 3585 06d1 00       		.sleb128 0
 3586 06d2 1C       		.uleb128 0x1c
 3587 06d3 01       		.uleb128 0x1
 3588 06d4 51       		.byte	0x51
 3589 06d5 02       		.uleb128 0x2
 3590 06d6 74       		.byte	0x74
 3591 06d7 00       		.sleb128 0
 3592 06d8 1C       		.uleb128 0x1c
 3593 06d9 01       		.uleb128 0x1
 3594 06da 52       		.byte	0x52
 3595 06db 01       		.uleb128 0x1
 3596 06dc 30       		.byte	0x30
 3597 06dd 00       		.byte	0
 3598 06de 1B       		.uleb128 0x1b
 3599 06df 2C010000 		.4byte	.LVL77
 3600 06e3 15020000 		.4byte	0x215
 3601 06e7 F8060000 		.4byte	0x6f8
 3602 06eb 1C       		.uleb128 0x1c
 3603 06ec 01       		.uleb128 0x1
 3604 06ed 50       		.byte	0x50
 3605 06ee 02       		.uleb128 0x2
 3606 06ef 7D       		.byte	0x7d
 3607 06f0 00       		.sleb128 0
 3608 06f1 1C       		.uleb128 0x1c
 3609 06f2 01       		.uleb128 0x1
 3610 06f3 51       		.byte	0x51
 3611 06f4 02       		.uleb128 0x2
 3612 06f5 74       		.byte	0x74
 3613 06f6 00       		.sleb128 0
 3614 06f7 00       		.byte	0
 3615 06f8 1B       		.uleb128 0x1b
 3616 06f9 44010000 		.4byte	.LVL79
 3617 06fd 87050000 		.4byte	0x587
ARM GAS  C:\Users\haske\AppData\Local\Temp\cc8C2ZcK.s 			page 81


 3618 0701 17070000 		.4byte	0x717
 3619 0705 1C       		.uleb128 0x1c
 3620 0706 01       		.uleb128 0x1
 3621 0707 50       		.byte	0x50
 3622 0708 02       		.uleb128 0x2
 3623 0709 7D       		.byte	0x7d
 3624 070a 00       		.sleb128 0
 3625 070b 1C       		.uleb128 0x1c
 3626 070c 01       		.uleb128 0x1
 3627 070d 51       		.byte	0x51
 3628 070e 02       		.uleb128 0x2
 3629 070f 74       		.byte	0x74
 3630 0710 00       		.sleb128 0
 3631 0711 1C       		.uleb128 0x1c
 3632 0712 01       		.uleb128 0x1
 3633 0713 52       		.byte	0x52
 3634 0714 01       		.uleb128 0x1
 3635 0715 30       		.byte	0x30
 3636 0716 00       		.byte	0
 3637 0717 1D       		.uleb128 0x1d
 3638 0718 60010000 		.4byte	.LVL81
 3639 071c 15020000 		.4byte	0x215
 3640 0720 1C       		.uleb128 0x1c
 3641 0721 01       		.uleb128 0x1
 3642 0722 50       		.byte	0x50
 3643 0723 02       		.uleb128 0x2
 3644 0724 7D       		.byte	0x7d
 3645 0725 00       		.sleb128 0
 3646 0726 1C       		.uleb128 0x1c
 3647 0727 01       		.uleb128 0x1
 3648 0728 51       		.byte	0x51
 3649 0729 02       		.uleb128 0x2
 3650 072a 74       		.byte	0x74
 3651 072b 00       		.sleb128 0
 3652 072c 00       		.byte	0
 3653 072d 00       		.byte	0
 3654 072e 1E       		.uleb128 0x1e
 3655 072f 85020000 		.4byte	.LASF74
 3656 0733 01       		.byte	0x1
 3657 0734 E9       		.byte	0xe9
 3658 0735 B6020000 		.4byte	0x2b6
 3659 0739 00000000 		.4byte	.LFB15
 3660 073d 46000000 		.4byte	.LFE15-.LFB15
 3661 0741 01       		.uleb128 0x1
 3662 0742 9C       		.byte	0x9c
 3663 0743 66070000 		.4byte	0x766
 3664 0747 17       		.uleb128 0x17
 3665 0748 49050000 		.4byte	.LASF64
 3666 074c 01       		.byte	0x1
 3667 074d E9       		.byte	0xe9
 3668 074e EE010000 		.4byte	0x1ee
 3669 0752 9C060000 		.4byte	.LLST36
 3670 0756 17       		.uleb128 0x17
 3671 0757 E0040000 		.4byte	.LASF65
 3672 075b 01       		.byte	0x1
 3673 075c E9       		.byte	0xe9
 3674 075d EE010000 		.4byte	0x1ee
ARM GAS  C:\Users\haske\AppData\Local\Temp\cc8C2ZcK.s 			page 82


 3675 0761 21070000 		.4byte	.LLST37
 3676 0765 00       		.byte	0
 3677 0766 1E       		.uleb128 0x1e
 3678 0767 3A050000 		.4byte	.LASF75
 3679 076b 01       		.byte	0x1
 3680 076c FA       		.byte	0xfa
 3681 076d B6020000 		.4byte	0x2b6
 3682 0771 00000000 		.4byte	.LFB16
 3683 0775 B6000000 		.4byte	.LFE16-.LFB16
 3684 0779 01       		.uleb128 0x1
 3685 077a 9C       		.byte	0x9c
 3686 077b 45080000 		.4byte	0x845
 3687 077f 17       		.uleb128 0x17
 3688 0780 7F020000 		.4byte	.LASF76
 3689 0784 01       		.byte	0x1
 3690 0785 FA       		.byte	0xfa
 3691 0786 EE010000 		.4byte	0x1ee
 3692 078a 5B070000 		.4byte	.LLST38
 3693 078e 17       		.uleb128 0x17
 3694 078f F6050000 		.4byte	.LASF77
 3695 0793 01       		.byte	0x1
 3696 0794 FA       		.byte	0xfa
 3697 0795 EE010000 		.4byte	0x1ee
 3698 0799 9D070000 		.4byte	.LLST39
 3699 079d 17       		.uleb128 0x17
 3700 079e E9030000 		.4byte	.LASF70
 3701 07a2 01       		.byte	0x1
 3702 07a3 FA       		.byte	0xfa
 3703 07a4 C3000000 		.4byte	0xc3
 3704 07a8 C9070000 		.4byte	.LLST40
 3705 07ac 20       		.uleb128 0x20
 3706 07ad 1D010000 		.4byte	.LASF78
 3707 07b1 01       		.byte	0x1
 3708 07b2 FC       		.byte	0xfc
 3709 07b3 B6020000 		.4byte	0x2b6
 3710 07b7 EA070000 		.4byte	.LLST41
 3711 07bb 22       		.uleb128 0x22
 3712 07bc 7000     		.ascii	"p\000"
 3713 07be 01       		.byte	0x1
 3714 07bf 0701     		.2byte	0x107
 3715 07c1 EB000000 		.4byte	0xeb
 3716 07c5 02       		.uleb128 0x2
 3717 07c6 91       		.byte	0x91
 3718 07c7 64       		.sleb128 -28
 3719 07c8 1B       		.uleb128 0x1b
 3720 07c9 66000000 		.4byte	.LVL107
 3721 07cd 87050000 		.4byte	0x587
 3722 07d1 E8070000 		.4byte	0x7e8
 3723 07d5 1C       		.uleb128 0x1c
 3724 07d6 01       		.uleb128 0x1
 3725 07d7 50       		.byte	0x50
 3726 07d8 02       		.uleb128 0x2
 3727 07d9 76       		.byte	0x76
 3728 07da 00       		.sleb128 0
 3729 07db 1C       		.uleb128 0x1c
 3730 07dc 01       		.uleb128 0x1
 3731 07dd 51       		.byte	0x51
ARM GAS  C:\Users\haske\AppData\Local\Temp\cc8C2ZcK.s 			page 83


 3732 07de 02       		.uleb128 0x2
 3733 07df 91       		.byte	0x91
 3734 07e0 64       		.sleb128 -28
 3735 07e1 1C       		.uleb128 0x1c
 3736 07e2 01       		.uleb128 0x1
 3737 07e3 52       		.byte	0x52
 3738 07e4 02       		.uleb128 0x2
 3739 07e5 75       		.byte	0x75
 3740 07e6 00       		.sleb128 0
 3741 07e7 00       		.byte	0
 3742 07e8 1B       		.uleb128 0x1b
 3743 07e9 80000000 		.4byte	.LVL108
 3744 07ed 87050000 		.4byte	0x587
 3745 07f1 08080000 		.4byte	0x808
 3746 07f5 1C       		.uleb128 0x1c
 3747 07f6 01       		.uleb128 0x1
 3748 07f7 50       		.byte	0x50
 3749 07f8 02       		.uleb128 0x2
 3750 07f9 76       		.byte	0x76
 3751 07fa 00       		.sleb128 0
 3752 07fb 1C       		.uleb128 0x1c
 3753 07fc 01       		.uleb128 0x1
 3754 07fd 51       		.byte	0x51
 3755 07fe 02       		.uleb128 0x2
 3756 07ff 91       		.byte	0x91
 3757 0800 64       		.sleb128 -28
 3758 0801 1C       		.uleb128 0x1c
 3759 0802 01       		.uleb128 0x1
 3760 0803 52       		.byte	0x52
 3761 0804 02       		.uleb128 0x2
 3762 0805 75       		.byte	0x75
 3763 0806 00       		.sleb128 0
 3764 0807 00       		.byte	0
 3765 0808 1B       		.uleb128 0x1b
 3766 0809 9A000000 		.4byte	.LVL109
 3767 080d 87050000 		.4byte	0x587
 3768 0811 28080000 		.4byte	0x828
 3769 0815 1C       		.uleb128 0x1c
 3770 0816 01       		.uleb128 0x1
 3771 0817 50       		.byte	0x50
 3772 0818 02       		.uleb128 0x2
 3773 0819 76       		.byte	0x76
 3774 081a 00       		.sleb128 0
 3775 081b 1C       		.uleb128 0x1c
 3776 081c 01       		.uleb128 0x1
 3777 081d 51       		.byte	0x51
 3778 081e 02       		.uleb128 0x2
 3779 081f 91       		.byte	0x91
 3780 0820 64       		.sleb128 -28
 3781 0821 1C       		.uleb128 0x1c
 3782 0822 01       		.uleb128 0x1
 3783 0823 52       		.byte	0x52
 3784 0824 02       		.uleb128 0x2
 3785 0825 75       		.byte	0x75
 3786 0826 00       		.sleb128 0
 3787 0827 00       		.byte	0
 3788 0828 1D       		.uleb128 0x1d
ARM GAS  C:\Users\haske\AppData\Local\Temp\cc8C2ZcK.s 			page 84


 3789 0829 AA000000 		.4byte	.LVL110
 3790 082d 87050000 		.4byte	0x587
 3791 0831 1C       		.uleb128 0x1c
 3792 0832 01       		.uleb128 0x1
 3793 0833 50       		.byte	0x50
 3794 0834 02       		.uleb128 0x2
 3795 0835 76       		.byte	0x76
 3796 0836 00       		.sleb128 0
 3797 0837 1C       		.uleb128 0x1c
 3798 0838 01       		.uleb128 0x1
 3799 0839 51       		.byte	0x51
 3800 083a 02       		.uleb128 0x2
 3801 083b 91       		.byte	0x91
 3802 083c 64       		.sleb128 -28
 3803 083d 1C       		.uleb128 0x1c
 3804 083e 01       		.uleb128 0x1
 3805 083f 52       		.byte	0x52
 3806 0840 02       		.uleb128 0x2
 3807 0841 75       		.byte	0x75
 3808 0842 00       		.sleb128 0
 3809 0843 00       		.byte	0
 3810 0844 00       		.byte	0
 3811 0845 23       		.uleb128 0x23
 3812 0846 D9030000 		.4byte	.LASF79
 3813 084a 01       		.byte	0x1
 3814 084b 2301     		.2byte	0x123
 3815 084d B6020000 		.4byte	0x2b6
 3816 0851 00000000 		.4byte	.LFB17
 3817 0855 C6000000 		.4byte	.LFE17-.LFB17
 3818 0859 01       		.uleb128 0x1
 3819 085a 9C       		.byte	0x9c
 3820 085b 21090000 		.4byte	0x921
 3821 085f 0E       		.uleb128 0xe
 3822 0860 1B020000 		.4byte	.LASF80
 3823 0864 01       		.byte	0x1
 3824 0865 2301     		.2byte	0x123
 3825 0867 EE010000 		.4byte	0x1ee
 3826 086b 14080000 		.4byte	.LLST42
 3827 086f 0E       		.uleb128 0xe
 3828 0870 F6050000 		.4byte	.LASF77
 3829 0874 01       		.byte	0x1
 3830 0875 2301     		.2byte	0x123
 3831 0877 EE010000 		.4byte	0x1ee
 3832 087b 40080000 		.4byte	.LLST43
 3833 087f 0E       		.uleb128 0xe
 3834 0880 E9030000 		.4byte	.LASF70
 3835 0884 01       		.byte	0x1
 3836 0885 2301     		.2byte	0x123
 3837 0887 C3000000 		.4byte	0xc3
 3838 088b 82080000 		.4byte	.LLST44
 3839 088f 22       		.uleb128 0x22
 3840 0890 7000     		.ascii	"p\000"
 3841 0892 01       		.byte	0x1
 3842 0893 2D01     		.2byte	0x12d
 3843 0895 EB000000 		.4byte	0xeb
 3844 0899 02       		.uleb128 0x2
 3845 089a 91       		.byte	0x91
ARM GAS  C:\Users\haske\AppData\Local\Temp\cc8C2ZcK.s 			page 85


 3846 089b 5C       		.sleb128 -36
 3847 089c 1B       		.uleb128 0x1b
 3848 089d 56000000 		.4byte	.LVL119
 3849 08a1 87050000 		.4byte	0x587
 3850 08a5 BE080000 		.4byte	0x8be
 3851 08a9 1C       		.uleb128 0x1c
 3852 08aa 01       		.uleb128 0x1
 3853 08ab 50       		.byte	0x50
 3854 08ac 02       		.uleb128 0x2
 3855 08ad 74       		.byte	0x74
 3856 08ae 00       		.sleb128 0
 3857 08af 1C       		.uleb128 0x1c
 3858 08b0 01       		.uleb128 0x1
 3859 08b1 51       		.byte	0x51
 3860 08b2 02       		.uleb128 0x2
 3861 08b3 91       		.byte	0x91
 3862 08b4 5C       		.sleb128 -36
 3863 08b5 1C       		.uleb128 0x1c
 3864 08b6 01       		.uleb128 0x1
 3865 08b7 52       		.byte	0x52
 3866 08b8 04       		.uleb128 0x4
 3867 08b9 91       		.byte	0x91
 3868 08ba 54       		.sleb128 -44
 3869 08bb 94       		.byte	0x94
 3870 08bc 02       		.byte	0x2
 3871 08bd 00       		.byte	0
 3872 08be 1B       		.uleb128 0x1b
 3873 08bf 6C000000 		.4byte	.LVL120
 3874 08c3 87050000 		.4byte	0x587
 3875 08c7 E0080000 		.4byte	0x8e0
 3876 08cb 1C       		.uleb128 0x1c
 3877 08cc 01       		.uleb128 0x1
 3878 08cd 50       		.byte	0x50
 3879 08ce 02       		.uleb128 0x2
 3880 08cf 74       		.byte	0x74
 3881 08d0 00       		.sleb128 0
 3882 08d1 1C       		.uleb128 0x1c
 3883 08d2 01       		.uleb128 0x1
 3884 08d3 51       		.byte	0x51
 3885 08d4 02       		.uleb128 0x2
 3886 08d5 91       		.byte	0x91
 3887 08d6 5C       		.sleb128 -36
 3888 08d7 1C       		.uleb128 0x1c
 3889 08d8 01       		.uleb128 0x1
 3890 08d9 52       		.byte	0x52
 3891 08da 04       		.uleb128 0x4
 3892 08db 91       		.byte	0x91
 3893 08dc 54       		.sleb128 -44
 3894 08dd 94       		.byte	0x94
 3895 08de 02       		.byte	0x2
 3896 08df 00       		.byte	0
 3897 08e0 1B       		.uleb128 0x1b
 3898 08e1 86000000 		.4byte	.LVL121
 3899 08e5 87050000 		.4byte	0x587
 3900 08e9 02090000 		.4byte	0x902
 3901 08ed 1C       		.uleb128 0x1c
 3902 08ee 01       		.uleb128 0x1
ARM GAS  C:\Users\haske\AppData\Local\Temp\cc8C2ZcK.s 			page 86


 3903 08ef 50       		.byte	0x50
 3904 08f0 02       		.uleb128 0x2
 3905 08f1 74       		.byte	0x74
 3906 08f2 00       		.sleb128 0
 3907 08f3 1C       		.uleb128 0x1c
 3908 08f4 01       		.uleb128 0x1
 3909 08f5 51       		.byte	0x51
 3910 08f6 02       		.uleb128 0x2
 3911 08f7 91       		.byte	0x91
 3912 08f8 5C       		.sleb128 -36
 3913 08f9 1C       		.uleb128 0x1c
 3914 08fa 01       		.uleb128 0x1
 3915 08fb 52       		.byte	0x52
 3916 08fc 04       		.uleb128 0x4
 3917 08fd 91       		.byte	0x91
 3918 08fe 54       		.sleb128 -44
 3919 08ff 94       		.byte	0x94
 3920 0900 02       		.byte	0x2
 3921 0901 00       		.byte	0
 3922 0902 1D       		.uleb128 0x1d
 3923 0903 96000000 		.4byte	.LVL122
 3924 0907 87050000 		.4byte	0x587
 3925 090b 1C       		.uleb128 0x1c
 3926 090c 01       		.uleb128 0x1
 3927 090d 50       		.byte	0x50
 3928 090e 02       		.uleb128 0x2
 3929 090f 74       		.byte	0x74
 3930 0910 00       		.sleb128 0
 3931 0911 1C       		.uleb128 0x1c
 3932 0912 01       		.uleb128 0x1
 3933 0913 51       		.byte	0x51
 3934 0914 02       		.uleb128 0x2
 3935 0915 91       		.byte	0x91
 3936 0916 5C       		.sleb128 -36
 3937 0917 1C       		.uleb128 0x1c
 3938 0918 01       		.uleb128 0x1
 3939 0919 52       		.byte	0x52
 3940 091a 04       		.uleb128 0x4
 3941 091b 91       		.byte	0x91
 3942 091c 54       		.sleb128 -44
 3943 091d 94       		.byte	0x94
 3944 091e 02       		.byte	0x2
 3945 091f 00       		.byte	0
 3946 0920 00       		.byte	0
 3947 0921 23       		.uleb128 0x23
 3948 0922 00000000 		.4byte	.LASF81
 3949 0926 01       		.byte	0x1
 3950 0927 4201     		.2byte	0x142
 3951 0929 B6020000 		.4byte	0x2b6
 3952 092d 00000000 		.4byte	.LFB18
 3953 0931 46000000 		.4byte	.LFE18-.LFB18
 3954 0935 01       		.uleb128 0x1
 3955 0936 9C       		.byte	0x9c
 3956 0937 58090000 		.4byte	0x958
 3957 093b 0F       		.uleb128 0xf
 3958 093c 6100     		.ascii	"a\000"
 3959 093e 01       		.byte	0x1
ARM GAS  C:\Users\haske\AppData\Local\Temp\cc8C2ZcK.s 			page 87


 3960 093f 4201     		.2byte	0x142
 3961 0941 EE010000 		.4byte	0x1ee
 3962 0945 A3080000 		.4byte	.LLST45
 3963 0949 0F       		.uleb128 0xf
 3964 094a 6200     		.ascii	"b\000"
 3965 094c 01       		.byte	0x1
 3966 094d 4201     		.2byte	0x142
 3967 094f EE010000 		.4byte	0x1ee
 3968 0953 28090000 		.4byte	.LLST46
 3969 0957 00       		.byte	0
 3970 0958 24       		.uleb128 0x24
 3971 0959 E4010000 		.4byte	.LASF82
 3972 095d 01       		.byte	0x1
 3973 095e 4E01     		.2byte	0x14e
 3974 0960 00000000 		.4byte	.LFB19
 3975 0964 58040000 		.4byte	.LFE19-.LFB19
 3976 0968 01       		.uleb128 0x1
 3977 0969 9C       		.byte	0x9c
 3978 096a 3D100000 		.4byte	0x103d
 3979 096e 0E       		.uleb128 0xe
 3980 096f F1050000 		.4byte	.LASF83
 3981 0973 01       		.byte	0x1
 3982 0974 4E01     		.2byte	0x14e
 3983 0976 EE010000 		.4byte	0x1ee
 3984 097a 62090000 		.4byte	.LLST47
 3985 097e 25       		.uleb128 0x25
 3986 097f 29040000 		.4byte	.LASF84
 3987 0983 01       		.byte	0x1
 3988 0984 4E01     		.2byte	0x14e
 3989 0986 1D030000 		.4byte	0x31d
 3990 098a 01       		.uleb128 0x1
 3991 098b 51       		.byte	0x51
 3992 098c 0E       		.uleb128 0xe
 3993 098d 76050000 		.4byte	.LASF85
 3994 0991 01       		.byte	0x1
 3995 0992 4E01     		.2byte	0x14e
 3996 0994 C7010000 		.4byte	0x1c7
 3997 0998 83090000 		.4byte	.LLST48
 3998 099c 0E       		.uleb128 0xe
 3999 099d 3B030000 		.4byte	.LASF86
 4000 09a1 01       		.byte	0x1
 4001 09a2 4E01     		.2byte	0x14e
 4002 09a4 C3000000 		.4byte	0xc3
 4003 09a8 A4090000 		.4byte	.LLST49
 4004 09ac 0E       		.uleb128 0xe
 4005 09ad EB050000 		.4byte	.LASF87
 4006 09b1 01       		.byte	0x1
 4007 09b2 4E01     		.2byte	0x14e
 4008 09b4 C3000000 		.4byte	0xc3
 4009 09b8 B90B0000 		.4byte	.LLST50
 4010 09bc 10       		.uleb128 0x10
 4011 09bd 7800     		.ascii	"x\000"
 4012 09bf 01       		.byte	0x1
 4013 09c0 5101     		.2byte	0x151
 4014 09c2 C3000000 		.4byte	0xc3
 4015 09c6 E50B0000 		.4byte	.LLST51
 4016 09ca 10       		.uleb128 0x10
ARM GAS  C:\Users\haske\AppData\Local\Temp\cc8C2ZcK.s 			page 88


 4017 09cb 7900     		.ascii	"y\000"
 4018 09cd 01       		.byte	0x1
 4019 09ce 5201     		.2byte	0x152
 4020 09d0 C3000000 		.4byte	0xc3
 4021 09d4 C20C0000 		.4byte	.LLST52
 4022 09d8 26       		.uleb128 0x26
 4023 09d9 7700     		.ascii	"w\000"
 4024 09db 01       		.byte	0x1
 4025 09dc C301     		.2byte	0x1c3
 4026 09de C3000000 		.4byte	0xc3
 4027 09e2 26       		.uleb128 0x26
 4028 09e3 6800     		.ascii	"h\000"
 4029 09e5 01       		.byte	0x1
 4030 09e6 C401     		.2byte	0x1c4
 4031 09e8 C3000000 		.4byte	0xc3
 4032 09ec 27       		.uleb128 0x27
 4033 09ed F9010000 		.4byte	0x1f9
 4034 09f1 18000000 		.4byte	.LBB126
 4035 09f5 0E000000 		.4byte	.LBE126-.LBB126
 4036 09f9 01       		.byte	0x1
 4037 09fa 5501     		.2byte	0x155
 4038 09fc 0A0A0000 		.4byte	0xa0a
 4039 0a00 1A       		.uleb128 0x1a
 4040 0a01 09020000 		.4byte	0x209
 4041 0a05 9F0D0000 		.4byte	.LLST53
 4042 0a09 00       		.byte	0
 4043 0a0a 27       		.uleb128 0x27
 4044 0a0b F9010000 		.4byte	0x1f9
 4045 0a0f 26000000 		.4byte	.LBB128
 4046 0a13 0E000000 		.4byte	.LBE128-.LBB128
 4047 0a17 01       		.byte	0x1
 4048 0a18 5501     		.2byte	0x155
 4049 0a1a 280A0000 		.4byte	0xa28
 4050 0a1e 1A       		.uleb128 0x1a
 4051 0a1f 09020000 		.4byte	0x209
 4052 0a23 B20D0000 		.4byte	.LLST54
 4053 0a27 00       		.byte	0
 4054 0a28 27       		.uleb128 0x27
 4055 0a29 D2010000 		.4byte	0x1d2
 4056 0a2d 44000000 		.4byte	.LBB130
 4057 0a31 0E000000 		.4byte	.LBE130-.LBB130
 4058 0a35 01       		.byte	0x1
 4059 0a36 5601     		.2byte	0x156
 4060 0a38 460A0000 		.4byte	0xa46
 4061 0a3c 1A       		.uleb128 0x1a
 4062 0a3d E2010000 		.4byte	0x1e2
 4063 0a41 C50D0000 		.4byte	.LLST55
 4064 0a45 00       		.byte	0
 4065 0a46 27       		.uleb128 0x27
 4066 0a47 D2010000 		.4byte	0x1d2
 4067 0a4b 52000000 		.4byte	.LBB132
 4068 0a4f 0E000000 		.4byte	.LBE132-.LBB132
 4069 0a53 01       		.byte	0x1
 4070 0a54 5601     		.2byte	0x156
 4071 0a56 640A0000 		.4byte	0xa64
 4072 0a5a 1A       		.uleb128 0x1a
 4073 0a5b E2010000 		.4byte	0x1e2
ARM GAS  C:\Users\haske\AppData\Local\Temp\cc8C2ZcK.s 			page 89


 4074 0a5f D80D0000 		.4byte	.LLST56
 4075 0a63 00       		.byte	0
 4076 0a64 27       		.uleb128 0x27
 4077 0a65 F9010000 		.4byte	0x1f9
 4078 0a69 72000000 		.4byte	.LBB134
 4079 0a6d 0E000000 		.4byte	.LBE134-.LBB134
 4080 0a71 01       		.byte	0x1
 4081 0a72 5E01     		.2byte	0x15e
 4082 0a74 820A0000 		.4byte	0xa82
 4083 0a78 1A       		.uleb128 0x1a
 4084 0a79 09020000 		.4byte	0x209
 4085 0a7d EB0D0000 		.4byte	.LLST57
 4086 0a81 00       		.byte	0
 4087 0a82 27       		.uleb128 0x27
 4088 0a83 F9010000 		.4byte	0x1f9
 4089 0a87 80000000 		.4byte	.LBB136
 4090 0a8b 0E000000 		.4byte	.LBE136-.LBB136
 4091 0a8f 01       		.byte	0x1
 4092 0a90 5E01     		.2byte	0x15e
 4093 0a92 A00A0000 		.4byte	0xaa0
 4094 0a96 1A       		.uleb128 0x1a
 4095 0a97 09020000 		.4byte	0x209
 4096 0a9b FE0D0000 		.4byte	.LLST58
 4097 0a9f 00       		.byte	0
 4098 0aa0 27       		.uleb128 0x27
 4099 0aa1 F9010000 		.4byte	0x1f9
 4100 0aa5 A2000000 		.4byte	.LBB138
 4101 0aa9 0E000000 		.4byte	.LBE138-.LBB138
 4102 0aad 01       		.byte	0x1
 4103 0aae 6301     		.2byte	0x163
 4104 0ab0 BE0A0000 		.4byte	0xabe
 4105 0ab4 1A       		.uleb128 0x1a
 4106 0ab5 09020000 		.4byte	0x209
 4107 0ab9 110E0000 		.4byte	.LLST59
 4108 0abd 00       		.byte	0
 4109 0abe 27       		.uleb128 0x27
 4110 0abf F9010000 		.4byte	0x1f9
 4111 0ac3 B0000000 		.4byte	.LBB140
 4112 0ac7 0E000000 		.4byte	.LBE140-.LBB140
 4113 0acb 01       		.byte	0x1
 4114 0acc 6301     		.2byte	0x163
 4115 0ace DC0A0000 		.4byte	0xadc
 4116 0ad2 1A       		.uleb128 0x1a
 4117 0ad3 09020000 		.4byte	0x209
 4118 0ad7 240E0000 		.4byte	.LLST60
 4119 0adb 00       		.byte	0
 4120 0adc 27       		.uleb128 0x27
 4121 0add D2010000 		.4byte	0x1d2
 4122 0ae1 C6000000 		.4byte	.LBB142
 4123 0ae5 0E000000 		.4byte	.LBE142-.LBB142
 4124 0ae9 01       		.byte	0x1
 4125 0aea 6901     		.2byte	0x169
 4126 0aec FA0A0000 		.4byte	0xafa
 4127 0af0 1A       		.uleb128 0x1a
 4128 0af1 E2010000 		.4byte	0x1e2
 4129 0af5 370E0000 		.4byte	.LLST61
 4130 0af9 00       		.byte	0
ARM GAS  C:\Users\haske\AppData\Local\Temp\cc8C2ZcK.s 			page 90


 4131 0afa 27       		.uleb128 0x27
 4132 0afb D2010000 		.4byte	0x1d2
 4133 0aff D4000000 		.4byte	.LBB144
 4134 0b03 0E000000 		.4byte	.LBE144-.LBB144
 4135 0b07 01       		.byte	0x1
 4136 0b08 6901     		.2byte	0x169
 4137 0b0a 180B0000 		.4byte	0xb18
 4138 0b0e 1A       		.uleb128 0x1a
 4139 0b0f E2010000 		.4byte	0x1e2
 4140 0b13 4A0E0000 		.4byte	.LLST62
 4141 0b17 00       		.byte	0
 4142 0b18 27       		.uleb128 0x27
 4143 0b19 F9010000 		.4byte	0x1f9
 4144 0b1d EA000000 		.4byte	.LBB146
 4145 0b21 0E000000 		.4byte	.LBE146-.LBB146
 4146 0b25 01       		.byte	0x1
 4147 0b26 6C01     		.2byte	0x16c
 4148 0b28 360B0000 		.4byte	0xb36
 4149 0b2c 1A       		.uleb128 0x1a
 4150 0b2d 09020000 		.4byte	0x209
 4151 0b31 5D0E0000 		.4byte	.LLST63
 4152 0b35 00       		.byte	0
 4153 0b36 27       		.uleb128 0x27
 4154 0b37 F9010000 		.4byte	0x1f9
 4155 0b3b F8000000 		.4byte	.LBB148
 4156 0b3f 0E000000 		.4byte	.LBE148-.LBB148
 4157 0b43 01       		.byte	0x1
 4158 0b44 6C01     		.2byte	0x16c
 4159 0b46 540B0000 		.4byte	0xb54
 4160 0b4a 1A       		.uleb128 0x1a
 4161 0b4b 09020000 		.4byte	0x209
 4162 0b4f 700E0000 		.4byte	.LLST64
 4163 0b53 00       		.byte	0
 4164 0b54 27       		.uleb128 0x27
 4165 0b55 D2010000 		.4byte	0x1d2
 4166 0b59 16010000 		.4byte	.LBB150
 4167 0b5d 0E000000 		.4byte	.LBE150-.LBB150
 4168 0b61 01       		.byte	0x1
 4169 0b62 6D01     		.2byte	0x16d
 4170 0b64 720B0000 		.4byte	0xb72
 4171 0b68 1A       		.uleb128 0x1a
 4172 0b69 E2010000 		.4byte	0x1e2
 4173 0b6d 830E0000 		.4byte	.LLST65
 4174 0b71 00       		.byte	0
 4175 0b72 27       		.uleb128 0x27
 4176 0b73 D2010000 		.4byte	0x1d2
 4177 0b77 24010000 		.4byte	.LBB152
 4178 0b7b 0E000000 		.4byte	.LBE152-.LBB152
 4179 0b7f 01       		.byte	0x1
 4180 0b80 6D01     		.2byte	0x16d
 4181 0b82 900B0000 		.4byte	0xb90
 4182 0b86 1A       		.uleb128 0x1a
 4183 0b87 E2010000 		.4byte	0x1e2
 4184 0b8b 960E0000 		.4byte	.LLST66
 4185 0b8f 00       		.byte	0
 4186 0b90 27       		.uleb128 0x27
 4187 0b91 F9010000 		.4byte	0x1f9
ARM GAS  C:\Users\haske\AppData\Local\Temp\cc8C2ZcK.s 			page 91


 4188 0b95 38010000 		.4byte	.LBB154
 4189 0b99 0E000000 		.4byte	.LBE154-.LBB154
 4190 0b9d 01       		.byte	0x1
 4191 0b9e 7101     		.2byte	0x171
 4192 0ba0 AE0B0000 		.4byte	0xbae
 4193 0ba4 1A       		.uleb128 0x1a
 4194 0ba5 09020000 		.4byte	0x209
 4195 0ba9 A90E0000 		.4byte	.LLST67
 4196 0bad 00       		.byte	0
 4197 0bae 27       		.uleb128 0x27
 4198 0baf F9010000 		.4byte	0x1f9
 4199 0bb3 46010000 		.4byte	.LBB156
 4200 0bb7 0E000000 		.4byte	.LBE156-.LBB156
 4201 0bbb 01       		.byte	0x1
 4202 0bbc 7101     		.2byte	0x171
 4203 0bbe CC0B0000 		.4byte	0xbcc
 4204 0bc2 1A       		.uleb128 0x1a
 4205 0bc3 09020000 		.4byte	0x209
 4206 0bc7 BC0E0000 		.4byte	.LLST68
 4207 0bcb 00       		.byte	0
 4208 0bcc 27       		.uleb128 0x27
 4209 0bcd D2010000 		.4byte	0x1d2
 4210 0bd1 58010000 		.4byte	.LBB158
 4211 0bd5 0E000000 		.4byte	.LBE158-.LBB158
 4212 0bd9 01       		.byte	0x1
 4213 0bda 7201     		.2byte	0x172
 4214 0bdc EA0B0000 		.4byte	0xbea
 4215 0be0 1A       		.uleb128 0x1a
 4216 0be1 E2010000 		.4byte	0x1e2
 4217 0be5 CF0E0000 		.4byte	.LLST69
 4218 0be9 00       		.byte	0
 4219 0bea 27       		.uleb128 0x27
 4220 0beb D2010000 		.4byte	0x1d2
 4221 0bef 66010000 		.4byte	.LBB160
 4222 0bf3 0E000000 		.4byte	.LBE160-.LBB160
 4223 0bf7 01       		.byte	0x1
 4224 0bf8 7201     		.2byte	0x172
 4225 0bfa 080C0000 		.4byte	0xc08
 4226 0bfe 1A       		.uleb128 0x1a
 4227 0bff E2010000 		.4byte	0x1e2
 4228 0c03 E20E0000 		.4byte	.LLST70
 4229 0c07 00       		.byte	0
 4230 0c08 27       		.uleb128 0x27
 4231 0c09 D2010000 		.4byte	0x1d2
 4232 0c0d 7A010000 		.4byte	.LBB162
 4233 0c11 0E000000 		.4byte	.LBE162-.LBB162
 4234 0c15 01       		.byte	0x1
 4235 0c16 7701     		.2byte	0x177
 4236 0c18 260C0000 		.4byte	0xc26
 4237 0c1c 1A       		.uleb128 0x1a
 4238 0c1d E2010000 		.4byte	0x1e2
 4239 0c21 F50E0000 		.4byte	.LLST71
 4240 0c25 00       		.byte	0
 4241 0c26 27       		.uleb128 0x27
 4242 0c27 D2010000 		.4byte	0x1d2
 4243 0c2b 88010000 		.4byte	.LBB164
 4244 0c2f 0E000000 		.4byte	.LBE164-.LBB164
ARM GAS  C:\Users\haske\AppData\Local\Temp\cc8C2ZcK.s 			page 92


 4245 0c33 01       		.byte	0x1
 4246 0c34 7701     		.2byte	0x177
 4247 0c36 440C0000 		.4byte	0xc44
 4248 0c3a 1A       		.uleb128 0x1a
 4249 0c3b E2010000 		.4byte	0x1e2
 4250 0c3f 080F0000 		.4byte	.LLST72
 4251 0c43 00       		.byte	0
 4252 0c44 27       		.uleb128 0x27
 4253 0c45 F9010000 		.4byte	0x1f9
 4254 0c49 AA010000 		.4byte	.LBB166
 4255 0c4d 0E000000 		.4byte	.LBE166-.LBB166
 4256 0c51 01       		.byte	0x1
 4257 0c52 7B01     		.2byte	0x17b
 4258 0c54 620C0000 		.4byte	0xc62
 4259 0c58 1A       		.uleb128 0x1a
 4260 0c59 09020000 		.4byte	0x209
 4261 0c5d 1B0F0000 		.4byte	.LLST73
 4262 0c61 00       		.byte	0
 4263 0c62 27       		.uleb128 0x27
 4264 0c63 F9010000 		.4byte	0x1f9
 4265 0c67 B8010000 		.4byte	.LBB168
 4266 0c6b 0E000000 		.4byte	.LBE168-.LBB168
 4267 0c6f 01       		.byte	0x1
 4268 0c70 7B01     		.2byte	0x17b
 4269 0c72 800C0000 		.4byte	0xc80
 4270 0c76 1A       		.uleb128 0x1a
 4271 0c77 09020000 		.4byte	0x209
 4272 0c7b 2E0F0000 		.4byte	.LLST74
 4273 0c7f 00       		.byte	0
 4274 0c80 27       		.uleb128 0x27
 4275 0c81 D2010000 		.4byte	0x1d2
 4276 0c85 CA010000 		.4byte	.LBB170
 4277 0c89 0E000000 		.4byte	.LBE170-.LBB170
 4278 0c8d 01       		.byte	0x1
 4279 0c8e 7C01     		.2byte	0x17c
 4280 0c90 9E0C0000 		.4byte	0xc9e
 4281 0c94 1A       		.uleb128 0x1a
 4282 0c95 E2010000 		.4byte	0x1e2
 4283 0c99 410F0000 		.4byte	.LLST75
 4284 0c9d 00       		.byte	0
 4285 0c9e 27       		.uleb128 0x27
 4286 0c9f D2010000 		.4byte	0x1d2
 4287 0ca3 D8010000 		.4byte	.LBB172
 4288 0ca7 0E000000 		.4byte	.LBE172-.LBB172
 4289 0cab 01       		.byte	0x1
 4290 0cac 7C01     		.2byte	0x17c
 4291 0cae BC0C0000 		.4byte	0xcbc
 4292 0cb2 1A       		.uleb128 0x1a
 4293 0cb3 E2010000 		.4byte	0x1e2
 4294 0cb7 540F0000 		.4byte	.LLST76
 4295 0cbb 00       		.byte	0
 4296 0cbc 27       		.uleb128 0x27
 4297 0cbd D2010000 		.4byte	0x1d2
 4298 0cc1 F8010000 		.4byte	.LBB174
 4299 0cc5 0E000000 		.4byte	.LBE174-.LBB174
 4300 0cc9 01       		.byte	0x1
 4301 0cca 8101     		.2byte	0x181
ARM GAS  C:\Users\haske\AppData\Local\Temp\cc8C2ZcK.s 			page 93


 4302 0ccc DA0C0000 		.4byte	0xcda
 4303 0cd0 1A       		.uleb128 0x1a
 4304 0cd1 E2010000 		.4byte	0x1e2
 4305 0cd5 670F0000 		.4byte	.LLST77
 4306 0cd9 00       		.byte	0
 4307 0cda 27       		.uleb128 0x27
 4308 0cdb F9010000 		.4byte	0x1f9
 4309 0cdf 0E020000 		.4byte	.LBB176
 4310 0ce3 0E000000 		.4byte	.LBE176-.LBB176
 4311 0ce7 01       		.byte	0x1
 4312 0ce8 8501     		.2byte	0x185
 4313 0cea F80C0000 		.4byte	0xcf8
 4314 0cee 1A       		.uleb128 0x1a
 4315 0cef 09020000 		.4byte	0x209
 4316 0cf3 7A0F0000 		.4byte	.LLST78
 4317 0cf7 00       		.byte	0
 4318 0cf8 27       		.uleb128 0x27
 4319 0cf9 F9010000 		.4byte	0x1f9
 4320 0cfd 1C020000 		.4byte	.LBB178
 4321 0d01 0E000000 		.4byte	.LBE178-.LBB178
 4322 0d05 01       		.byte	0x1
 4323 0d06 8501     		.2byte	0x185
 4324 0d08 160D0000 		.4byte	0xd16
 4325 0d0c 1A       		.uleb128 0x1a
 4326 0d0d 09020000 		.4byte	0x209
 4327 0d11 8D0F0000 		.4byte	.LLST79
 4328 0d15 00       		.byte	0
 4329 0d16 27       		.uleb128 0x27
 4330 0d17 D2010000 		.4byte	0x1d2
 4331 0d1b 3A020000 		.4byte	.LBB180
 4332 0d1f 0E000000 		.4byte	.LBE180-.LBB180
 4333 0d23 01       		.byte	0x1
 4334 0d24 8601     		.2byte	0x186
 4335 0d26 340D0000 		.4byte	0xd34
 4336 0d2a 1A       		.uleb128 0x1a
 4337 0d2b E2010000 		.4byte	0x1e2
 4338 0d2f A00F0000 		.4byte	.LLST80
 4339 0d33 00       		.byte	0
 4340 0d34 27       		.uleb128 0x27
 4341 0d35 F9010000 		.4byte	0x1f9
 4342 0d39 4E020000 		.4byte	.LBB182
 4343 0d3d 0E000000 		.4byte	.LBE182-.LBB182
 4344 0d41 01       		.byte	0x1
 4345 0d42 8A01     		.2byte	0x18a
 4346 0d44 520D0000 		.4byte	0xd52
 4347 0d48 1A       		.uleb128 0x1a
 4348 0d49 09020000 		.4byte	0x209
 4349 0d4d B30F0000 		.4byte	.LLST81
 4350 0d51 00       		.byte	0
 4351 0d52 27       		.uleb128 0x27
 4352 0d53 F9010000 		.4byte	0x1f9
 4353 0d57 5C020000 		.4byte	.LBB184
 4354 0d5b 0E000000 		.4byte	.LBE184-.LBB184
 4355 0d5f 01       		.byte	0x1
 4356 0d60 8A01     		.2byte	0x18a
 4357 0d62 700D0000 		.4byte	0xd70
 4358 0d66 1A       		.uleb128 0x1a
ARM GAS  C:\Users\haske\AppData\Local\Temp\cc8C2ZcK.s 			page 94


 4359 0d67 09020000 		.4byte	0x209
 4360 0d6b C60F0000 		.4byte	.LLST82
 4361 0d6f 00       		.byte	0
 4362 0d70 27       		.uleb128 0x27
 4363 0d71 D2010000 		.4byte	0x1d2
 4364 0d75 6E020000 		.4byte	.LBB186
 4365 0d79 0E000000 		.4byte	.LBE186-.LBB186
 4366 0d7d 01       		.byte	0x1
 4367 0d7e 8B01     		.2byte	0x18b
 4368 0d80 8E0D0000 		.4byte	0xd8e
 4369 0d84 1A       		.uleb128 0x1a
 4370 0d85 E2010000 		.4byte	0x1e2
 4371 0d89 D90F0000 		.4byte	.LLST83
 4372 0d8d 00       		.byte	0
 4373 0d8e 27       		.uleb128 0x27
 4374 0d8f D2010000 		.4byte	0x1d2
 4375 0d93 82020000 		.4byte	.LBB188
 4376 0d97 0E000000 		.4byte	.LBE188-.LBB188
 4377 0d9b 01       		.byte	0x1
 4378 0d9c 9001     		.2byte	0x190
 4379 0d9e AC0D0000 		.4byte	0xdac
 4380 0da2 1A       		.uleb128 0x1a
 4381 0da3 E2010000 		.4byte	0x1e2
 4382 0da7 EC0F0000 		.4byte	.LLST84
 4383 0dab 00       		.byte	0
 4384 0dac 27       		.uleb128 0x27
 4385 0dad F9010000 		.4byte	0x1f9
 4386 0db1 94020000 		.4byte	.LBB190
 4387 0db5 0E000000 		.4byte	.LBE190-.LBB190
 4388 0db9 01       		.byte	0x1
 4389 0dba 9401     		.2byte	0x194
 4390 0dbc CA0D0000 		.4byte	0xdca
 4391 0dc0 1A       		.uleb128 0x1a
 4392 0dc1 09020000 		.4byte	0x209
 4393 0dc5 FF0F0000 		.4byte	.LLST85
 4394 0dc9 00       		.byte	0
 4395 0dca 27       		.uleb128 0x27
 4396 0dcb F9010000 		.4byte	0x1f9
 4397 0dcf A2020000 		.4byte	.LBB192
 4398 0dd3 0E000000 		.4byte	.LBE192-.LBB192
 4399 0dd7 01       		.byte	0x1
 4400 0dd8 9401     		.2byte	0x194
 4401 0dda E80D0000 		.4byte	0xde8
 4402 0dde 1A       		.uleb128 0x1a
 4403 0ddf 09020000 		.4byte	0x209
 4404 0de3 12100000 		.4byte	.LLST86
 4405 0de7 00       		.byte	0
 4406 0de8 27       		.uleb128 0x27
 4407 0de9 D2010000 		.4byte	0x1d2
 4408 0ded C0020000 		.4byte	.LBB194
 4409 0df1 0E000000 		.4byte	.LBE194-.LBB194
 4410 0df5 01       		.byte	0x1
 4411 0df6 9501     		.2byte	0x195
 4412 0df8 060E0000 		.4byte	0xe06
 4413 0dfc 1A       		.uleb128 0x1a
 4414 0dfd E2010000 		.4byte	0x1e2
 4415 0e01 25100000 		.4byte	.LLST87
ARM GAS  C:\Users\haske\AppData\Local\Temp\cc8C2ZcK.s 			page 95


 4416 0e05 00       		.byte	0
 4417 0e06 27       		.uleb128 0x27
 4418 0e07 F9010000 		.4byte	0x1f9
 4419 0e0b D0020000 		.4byte	.LBB196
 4420 0e0f 0E000000 		.4byte	.LBE196-.LBB196
 4421 0e13 01       		.byte	0x1
 4422 0e14 9901     		.2byte	0x199
 4423 0e16 240E0000 		.4byte	0xe24
 4424 0e1a 1A       		.uleb128 0x1a
 4425 0e1b 09020000 		.4byte	0x209
 4426 0e1f 38100000 		.4byte	.LLST88
 4427 0e23 00       		.byte	0
 4428 0e24 27       		.uleb128 0x27
 4429 0e25 F9010000 		.4byte	0x1f9
 4430 0e29 DE020000 		.4byte	.LBB198
 4431 0e2d 0E000000 		.4byte	.LBE198-.LBB198
 4432 0e31 01       		.byte	0x1
 4433 0e32 9901     		.2byte	0x199
 4434 0e34 420E0000 		.4byte	0xe42
 4435 0e38 1A       		.uleb128 0x1a
 4436 0e39 09020000 		.4byte	0x209
 4437 0e3d 4B100000 		.4byte	.LLST89
 4438 0e41 00       		.byte	0
 4439 0e42 27       		.uleb128 0x27
 4440 0e43 D2010000 		.4byte	0x1d2
 4441 0e47 F0020000 		.4byte	.LBB200
 4442 0e4b 0E000000 		.4byte	.LBE200-.LBB200
 4443 0e4f 01       		.byte	0x1
 4444 0e50 9A01     		.2byte	0x19a
 4445 0e52 600E0000 		.4byte	0xe60
 4446 0e56 1A       		.uleb128 0x1a
 4447 0e57 E2010000 		.4byte	0x1e2
 4448 0e5b 5E100000 		.4byte	.LLST90
 4449 0e5f 00       		.byte	0
 4450 0e60 27       		.uleb128 0x27
 4451 0e61 F9010000 		.4byte	0x1f9
 4452 0e65 00030000 		.4byte	.LBB202
 4453 0e69 0E000000 		.4byte	.LBE202-.LBB202
 4454 0e6d 01       		.byte	0x1
 4455 0e6e 9E01     		.2byte	0x19e
 4456 0e70 7E0E0000 		.4byte	0xe7e
 4457 0e74 1A       		.uleb128 0x1a
 4458 0e75 09020000 		.4byte	0x209
 4459 0e79 71100000 		.4byte	.LLST91
 4460 0e7d 00       		.byte	0
 4461 0e7e 27       		.uleb128 0x27
 4462 0e7f F9010000 		.4byte	0x1f9
 4463 0e83 16030000 		.4byte	.LBB204
 4464 0e87 0E000000 		.4byte	.LBE204-.LBB204
 4465 0e8b 01       		.byte	0x1
 4466 0e8c A301     		.2byte	0x1a3
 4467 0e8e 9C0E0000 		.4byte	0xe9c
 4468 0e92 1A       		.uleb128 0x1a
 4469 0e93 09020000 		.4byte	0x209
 4470 0e97 84100000 		.4byte	.LLST92
 4471 0e9b 00       		.byte	0
 4472 0e9c 27       		.uleb128 0x27
ARM GAS  C:\Users\haske\AppData\Local\Temp\cc8C2ZcK.s 			page 96


 4473 0e9d D2010000 		.4byte	0x1d2
 4474 0ea1 28030000 		.4byte	.LBB206
 4475 0ea5 0E000000 		.4byte	.LBE206-.LBB206
 4476 0ea9 01       		.byte	0x1
 4477 0eaa A401     		.2byte	0x1a4
 4478 0eac BA0E0000 		.4byte	0xeba
 4479 0eb0 1A       		.uleb128 0x1a
 4480 0eb1 E2010000 		.4byte	0x1e2
 4481 0eb5 97100000 		.4byte	.LLST93
 4482 0eb9 00       		.byte	0
 4483 0eba 27       		.uleb128 0x27
 4484 0ebb D2010000 		.4byte	0x1d2
 4485 0ebf 36030000 		.4byte	.LBB208
 4486 0ec3 0E000000 		.4byte	.LBE208-.LBB208
 4487 0ec7 01       		.byte	0x1
 4488 0ec8 A401     		.2byte	0x1a4
 4489 0eca D80E0000 		.4byte	0xed8
 4490 0ece 1A       		.uleb128 0x1a
 4491 0ecf E2010000 		.4byte	0x1e2
 4492 0ed3 AA100000 		.4byte	.LLST94
 4493 0ed7 00       		.byte	0
 4494 0ed8 27       		.uleb128 0x27
 4495 0ed9 F9010000 		.4byte	0x1f9
 4496 0edd 56030000 		.4byte	.LBB210
 4497 0ee1 0E000000 		.4byte	.LBE210-.LBB210
 4498 0ee5 01       		.byte	0x1
 4499 0ee6 A801     		.2byte	0x1a8
 4500 0ee8 F60E0000 		.4byte	0xef6
 4501 0eec 1A       		.uleb128 0x1a
 4502 0eed 09020000 		.4byte	0x209
 4503 0ef1 BD100000 		.4byte	.LLST95
 4504 0ef5 00       		.byte	0
 4505 0ef6 27       		.uleb128 0x27
 4506 0ef7 D2010000 		.4byte	0x1d2
 4507 0efb 68030000 		.4byte	.LBB212
 4508 0eff 0E000000 		.4byte	.LBE212-.LBB212
 4509 0f03 01       		.byte	0x1
 4510 0f04 A901     		.2byte	0x1a9
 4511 0f06 140F0000 		.4byte	0xf14
 4512 0f0a 1A       		.uleb128 0x1a
 4513 0f0b E2010000 		.4byte	0x1e2
 4514 0f0f D0100000 		.4byte	.LLST96
 4515 0f13 00       		.byte	0
 4516 0f14 27       		.uleb128 0x27
 4517 0f15 D2010000 		.4byte	0x1d2
 4518 0f19 76030000 		.4byte	.LBB214
 4519 0f1d 0E000000 		.4byte	.LBE214-.LBB214
 4520 0f21 01       		.byte	0x1
 4521 0f22 A901     		.2byte	0x1a9
 4522 0f24 320F0000 		.4byte	0xf32
 4523 0f28 1A       		.uleb128 0x1a
 4524 0f29 E2010000 		.4byte	0x1e2
 4525 0f2d E3100000 		.4byte	.LLST97
 4526 0f31 00       		.byte	0
 4527 0f32 27       		.uleb128 0x27
 4528 0f33 F9010000 		.4byte	0x1f9
 4529 0f37 8A030000 		.4byte	.LBB216
ARM GAS  C:\Users\haske\AppData\Local\Temp\cc8C2ZcK.s 			page 97


 4530 0f3b 0E000000 		.4byte	.LBE216-.LBB216
 4531 0f3f 01       		.byte	0x1
 4532 0f40 AD01     		.2byte	0x1ad
 4533 0f42 500F0000 		.4byte	0xf50
 4534 0f46 1A       		.uleb128 0x1a
 4535 0f47 09020000 		.4byte	0x209
 4536 0f4b F6100000 		.4byte	.LLST98
 4537 0f4f 00       		.byte	0
 4538 0f50 27       		.uleb128 0x27
 4539 0f51 F9010000 		.4byte	0x1f9
 4540 0f55 9C030000 		.4byte	.LBB218
 4541 0f59 0E000000 		.4byte	.LBE218-.LBB218
 4542 0f5d 01       		.byte	0x1
 4543 0f5e B201     		.2byte	0x1b2
 4544 0f60 6E0F0000 		.4byte	0xf6e
 4545 0f64 1A       		.uleb128 0x1a
 4546 0f65 09020000 		.4byte	0x209
 4547 0f69 09110000 		.4byte	.LLST99
 4548 0f6d 00       		.byte	0
 4549 0f6e 27       		.uleb128 0x27
 4550 0f6f D2010000 		.4byte	0x1d2
 4551 0f73 AA030000 		.4byte	.LBB220
 4552 0f77 0E000000 		.4byte	.LBE220-.LBB220
 4553 0f7b 01       		.byte	0x1
 4554 0f7c B301     		.2byte	0x1b3
 4555 0f7e 8C0F0000 		.4byte	0xf8c
 4556 0f82 1A       		.uleb128 0x1a
 4557 0f83 E2010000 		.4byte	0x1e2
 4558 0f87 1C110000 		.4byte	.LLST100
 4559 0f8b 00       		.byte	0
 4560 0f8c 27       		.uleb128 0x27
 4561 0f8d D2010000 		.4byte	0x1d2
 4562 0f91 B8030000 		.4byte	.LBB222
 4563 0f95 0E000000 		.4byte	.LBE222-.LBB222
 4564 0f99 01       		.byte	0x1
 4565 0f9a B301     		.2byte	0x1b3
 4566 0f9c AA0F0000 		.4byte	0xfaa
 4567 0fa0 1A       		.uleb128 0x1a
 4568 0fa1 E2010000 		.4byte	0x1e2
 4569 0fa5 2F110000 		.4byte	.LLST101
 4570 0fa9 00       		.byte	0
 4571 0faa 27       		.uleb128 0x27
 4572 0fab F9010000 		.4byte	0x1f9
 4573 0faf DC030000 		.4byte	.LBB224
 4574 0fb3 0E000000 		.4byte	.LBE224-.LBB224
 4575 0fb7 01       		.byte	0x1
 4576 0fb8 B701     		.2byte	0x1b7
 4577 0fba C80F0000 		.4byte	0xfc8
 4578 0fbe 1A       		.uleb128 0x1a
 4579 0fbf 09020000 		.4byte	0x209
 4580 0fc3 42110000 		.4byte	.LLST102
 4581 0fc7 00       		.byte	0
 4582 0fc8 27       		.uleb128 0x27
 4583 0fc9 D2010000 		.4byte	0x1d2
 4584 0fcd EA030000 		.4byte	.LBB226
 4585 0fd1 0E000000 		.4byte	.LBE226-.LBB226
 4586 0fd5 01       		.byte	0x1
ARM GAS  C:\Users\haske\AppData\Local\Temp\cc8C2ZcK.s 			page 98


 4587 0fd6 B801     		.2byte	0x1b8
 4588 0fd8 E60F0000 		.4byte	0xfe6
 4589 0fdc 1A       		.uleb128 0x1a
 4590 0fdd E2010000 		.4byte	0x1e2
 4591 0fe1 55110000 		.4byte	.LLST103
 4592 0fe5 00       		.byte	0
 4593 0fe6 27       		.uleb128 0x27
 4594 0fe7 D2010000 		.4byte	0x1d2
 4595 0feb F8030000 		.4byte	.LBB228
 4596 0fef 0E000000 		.4byte	.LBE228-.LBB228
 4597 0ff3 01       		.byte	0x1
 4598 0ff4 B801     		.2byte	0x1b8
 4599 0ff6 04100000 		.4byte	0x1004
 4600 0ffa 1A       		.uleb128 0x1a
 4601 0ffb E2010000 		.4byte	0x1e2
 4602 0fff 68110000 		.4byte	.LLST104
 4603 1003 00       		.byte	0
 4604 1004 27       		.uleb128 0x27
 4605 1005 F9010000 		.4byte	0x1f9
 4606 1009 20040000 		.4byte	.LBB230
 4607 100d 0E000000 		.4byte	.LBE230-.LBB230
 4608 1011 01       		.byte	0x1
 4609 1012 C301     		.2byte	0x1c3
 4610 1014 22100000 		.4byte	0x1022
 4611 1018 1A       		.uleb128 0x1a
 4612 1019 09020000 		.4byte	0x209
 4613 101d 7B110000 		.4byte	.LLST105
 4614 1021 00       		.byte	0
 4615 1022 28       		.uleb128 0x28
 4616 1023 D2010000 		.4byte	0x1d2
 4617 1027 2E040000 		.4byte	.LBB232
 4618 102b 0E000000 		.4byte	.LBE232-.LBB232
 4619 102f 01       		.byte	0x1
 4620 1030 C401     		.2byte	0x1c4
 4621 1032 1A       		.uleb128 0x1a
 4622 1033 E2010000 		.4byte	0x1e2
 4623 1037 8E110000 		.4byte	.LLST106
 4624 103b 00       		.byte	0
 4625 103c 00       		.byte	0
 4626 103d 29       		.uleb128 0x29
 4627 103e AA010000 		.4byte	.LASF88
 4628 1042 01       		.byte	0x1
 4629 1043 CC01     		.2byte	0x1cc
 4630 1045 00000000 		.4byte	.LFB20
 4631 1049 A0010000 		.4byte	.LFE20-.LFB20
 4632 104d 01       		.uleb128 0x1
 4633 104e 9C       		.byte	0x9c
 4634 104f B8110000 		.4byte	0x11b8
 4635 1053 0F       		.uleb128 0xf
 4636 1054 7000     		.ascii	"p\000"
 4637 1056 01       		.byte	0x1
 4638 1057 CC01     		.2byte	0x1cc
 4639 1059 B8110000 		.4byte	0x11b8
 4640 105d A1110000 		.4byte	.LLST107
 4641 1061 0E       		.uleb128 0xe
 4642 1062 55000000 		.4byte	.LASF89
 4643 1066 01       		.byte	0x1
ARM GAS  C:\Users\haske\AppData\Local\Temp\cc8C2ZcK.s 			page 99


 4644 1067 CC01     		.2byte	0x1cc
 4645 1069 AD000000 		.4byte	0xad
 4646 106d E3110000 		.4byte	.LLST108
 4647 1071 0E       		.uleb128 0xe
 4648 1072 12000000 		.4byte	.LASF90
 4649 1076 01       		.byte	0x1
 4650 1077 CC01     		.2byte	0x1cc
 4651 1079 AD000000 		.4byte	0xad
 4652 107d 0F120000 		.4byte	.LLST109
 4653 1081 0E       		.uleb128 0xe
 4654 1082 06060000 		.4byte	.LASF91
 4655 1086 01       		.byte	0x1
 4656 1087 CC01     		.2byte	0x1cc
 4657 1089 BD020000 		.4byte	0x2bd
 4658 108d 6D120000 		.4byte	.LLST110
 4659 1091 12       		.uleb128 0x12
 4660 1092 66040000 		.4byte	.LASF92
 4661 1096 01       		.byte	0x1
 4662 1097 DB01     		.2byte	0x1db
 4663 1099 AD000000 		.4byte	0xad
 4664 109d 05       		.uleb128 0x5
 4665 109e 03       		.byte	0x3
 4666 109f 00000000 		.4byte	angle_prev.4486
 4667 10a3 12       		.uleb128 0x12
 4668 10a4 00060000 		.4byte	.LASF93
 4669 10a8 01       		.byte	0x1
 4670 10a9 DC01     		.2byte	0x1dc
 4671 10ab AD000000 		.4byte	0xad
 4672 10af 05       		.uleb128 0x5
 4673 10b0 03       		.byte	0x3
 4674 10b1 00000000 		.4byte	sinma.4487
 4675 10b5 12       		.uleb128 0x12
 4676 10b6 22050000 		.4byte	.LASF94
 4677 10ba 01       		.byte	0x1
 4678 10bb DD01     		.2byte	0x1dd
 4679 10bd AD000000 		.4byte	0xad
 4680 10c1 05       		.uleb128 0x5
 4681 10c2 03       		.byte	0x3
 4682 10c3 04000000 		.4byte	cosma.4488
 4683 10c7 10       		.uleb128 0x10
 4684 10c8 7800     		.ascii	"x\000"
 4685 10ca 01       		.byte	0x1
 4686 10cb F301     		.2byte	0x1f3
 4687 10cd AD000000 		.4byte	0xad
 4688 10d1 99120000 		.4byte	.LLST111
 4689 10d5 10       		.uleb128 0x10
 4690 10d6 7900     		.ascii	"y\000"
 4691 10d8 01       		.byte	0x1
 4692 10d9 F401     		.2byte	0x1f4
 4693 10db AD000000 		.4byte	0xad
 4694 10df B7120000 		.4byte	.LLST112
 4695 10e3 2A       		.uleb128 0x2a
 4696 10e4 62000000 		.4byte	.LBB234
 4697 10e8 AE000000 		.4byte	.LBE234-.LBB234
 4698 10ec 11       		.uleb128 0x11
 4699 10ed 14050000 		.4byte	.LASF95
 4700 10f1 01       		.byte	0x1
ARM GAS  C:\Users\haske\AppData\Local\Temp\cc8C2ZcK.s 			page 100


 4701 10f2 DF01     		.2byte	0x1df
 4702 10f4 AD000000 		.4byte	0xad
 4703 10f8 CA120000 		.4byte	.LLST113
 4704 10fc 11       		.uleb128 0x11
 4705 10fd CF010000 		.4byte	.LASF96
 4706 1101 01       		.byte	0x1
 4707 1102 E301     		.2byte	0x1e3
 4708 1104 AD000000 		.4byte	0xad
 4709 1108 14130000 		.4byte	.LLST114
 4710 110c 11       		.uleb128 0x11
 4711 110d C3040000 		.4byte	.LASF97
 4712 1111 01       		.byte	0x1
 4713 1112 E401     		.2byte	0x1e4
 4714 1114 AD000000 		.4byte	0xad
 4715 1118 32130000 		.4byte	.LLST115
 4716 111c 11       		.uleb128 0x11
 4717 111d 05020000 		.4byte	.LASF98
 4718 1121 01       		.byte	0x1
 4719 1122 E501     		.2byte	0x1e5
 4720 1124 AD000000 		.4byte	0xad
 4721 1128 50130000 		.4byte	.LLST116
 4722 112c 10       		.uleb128 0x10
 4723 112d 733100   		.ascii	"s1\000"
 4724 1130 01       		.byte	0x1
 4725 1131 E701     		.2byte	0x1e7
 4726 1133 AD000000 		.4byte	0xad
 4727 1137 6E130000 		.4byte	.LLST117
 4728 113b 10       		.uleb128 0x10
 4729 113c 733200   		.ascii	"s2\000"
 4730 113f 01       		.byte	0x1
 4731 1140 E801     		.2byte	0x1e8
 4732 1142 AD000000 		.4byte	0xad
 4733 1146 8C130000 		.4byte	.LLST118
 4734 114a 10       		.uleb128 0x10
 4735 114b 633100   		.ascii	"c1\000"
 4736 114e 01       		.byte	0x1
 4737 114f EA01     		.2byte	0x1ea
 4738 1151 AD000000 		.4byte	0xad
 4739 1155 AB130000 		.4byte	.LLST119
 4740 1159 10       		.uleb128 0x10
 4741 115a 633200   		.ascii	"c2\000"
 4742 115d 01       		.byte	0x1
 4743 115e EB01     		.2byte	0x1eb
 4744 1160 AD000000 		.4byte	0xad
 4745 1164 CA130000 		.4byte	.LLST120
 4746 1168 1B       		.uleb128 0x1b
 4747 1169 A6000000 		.4byte	.LVL292
 4748 116d BE110000 		.4byte	0x11be
 4749 1171 7C110000 		.4byte	0x117c
 4750 1175 1C       		.uleb128 0x1c
 4751 1176 01       		.uleb128 0x1
 4752 1177 50       		.byte	0x50
 4753 1178 02       		.uleb128 0x2
 4754 1179 78       		.byte	0x78
 4755 117a 00       		.sleb128 0
 4756 117b 00       		.byte	0
 4757 117c 1B       		.uleb128 0x1b
ARM GAS  C:\Users\haske\AppData\Local\Temp\cc8C2ZcK.s 			page 101


 4758 117d B0000000 		.4byte	.LVL295
 4759 1181 BE110000 		.4byte	0x11be
 4760 1185 90110000 		.4byte	0x1190
 4761 1189 1C       		.uleb128 0x1c
 4762 118a 01       		.uleb128 0x1
 4763 118b 50       		.byte	0x50
 4764 118c 02       		.uleb128 0x2
 4765 118d 7A       		.byte	0x7a
 4766 118e 00       		.sleb128 0
 4767 118f 00       		.byte	0
 4768 1190 1B       		.uleb128 0x1b
 4769 1191 BC000000 		.4byte	.LVL298
 4770 1195 BE110000 		.4byte	0x11be
 4771 1199 A5110000 		.4byte	0x11a5
 4772 119d 1C       		.uleb128 0x1c
 4773 119e 01       		.uleb128 0x1
 4774 119f 50       		.byte	0x50
 4775 11a0 03       		.uleb128 0x3
 4776 11a1 78       		.byte	0x78
 4777 11a2 DA00     		.sleb128 90
 4778 11a4 00       		.byte	0
 4779 11a5 1D       		.uleb128 0x1d
 4780 11a6 C8000000 		.4byte	.LVL301
 4781 11aa BE110000 		.4byte	0x11be
 4782 11ae 1C       		.uleb128 0x1c
 4783 11af 01       		.uleb128 0x1
 4784 11b0 50       		.byte	0x50
 4785 11b1 03       		.uleb128 0x3
 4786 11b2 7A       		.byte	0x7a
 4787 11b3 DA00     		.sleb128 90
 4788 11b5 00       		.byte	0
 4789 11b6 00       		.byte	0
 4790 11b7 00       		.byte	0
 4791 11b8 0B       		.uleb128 0xb
 4792 11b9 04       		.byte	0x4
 4793 11ba EB000000 		.4byte	0xeb
 4794 11be 2B       		.uleb128 0x2b
 4795 11bf EA020000 		.4byte	.LASF103
 4796 11c3 EA020000 		.4byte	.LASF103
 4797 11c7 05       		.byte	0x5
 4798 11c8 2F       		.byte	0x2f
 4799 11c9 00       		.byte	0
 4800              		.section	.debug_abbrev,"",%progbits
 4801              	.Ldebug_abbrev0:
 4802 0000 01       		.uleb128 0x1
 4803 0001 11       		.uleb128 0x11
 4804 0002 01       		.byte	0x1
 4805 0003 25       		.uleb128 0x25
 4806 0004 0E       		.uleb128 0xe
 4807 0005 13       		.uleb128 0x13
 4808 0006 0B       		.uleb128 0xb
 4809 0007 03       		.uleb128 0x3
 4810 0008 0E       		.uleb128 0xe
 4811 0009 1B       		.uleb128 0x1b
 4812 000a 0E       		.uleb128 0xe
 4813 000b 55       		.uleb128 0x55
 4814 000c 17       		.uleb128 0x17
ARM GAS  C:\Users\haske\AppData\Local\Temp\cc8C2ZcK.s 			page 102


 4815 000d 11       		.uleb128 0x11
 4816 000e 01       		.uleb128 0x1
 4817 000f 10       		.uleb128 0x10
 4818 0010 17       		.uleb128 0x17
 4819 0011 00       		.byte	0
 4820 0012 00       		.byte	0
 4821 0013 02       		.uleb128 0x2
 4822 0014 24       		.uleb128 0x24
 4823 0015 00       		.byte	0
 4824 0016 0B       		.uleb128 0xb
 4825 0017 0B       		.uleb128 0xb
 4826 0018 3E       		.uleb128 0x3e
 4827 0019 0B       		.uleb128 0xb
 4828 001a 03       		.uleb128 0x3
 4829 001b 0E       		.uleb128 0xe
 4830 001c 00       		.byte	0
 4831 001d 00       		.byte	0
 4832 001e 03       		.uleb128 0x3
 4833 001f 16       		.uleb128 0x16
 4834 0020 00       		.byte	0
 4835 0021 03       		.uleb128 0x3
 4836 0022 0E       		.uleb128 0xe
 4837 0023 3A       		.uleb128 0x3a
 4838 0024 0B       		.uleb128 0xb
 4839 0025 3B       		.uleb128 0x3b
 4840 0026 0B       		.uleb128 0xb
 4841 0027 49       		.uleb128 0x49
 4842 0028 13       		.uleb128 0x13
 4843 0029 00       		.byte	0
 4844 002a 00       		.byte	0
 4845 002b 04       		.uleb128 0x4
 4846 002c 24       		.uleb128 0x24
 4847 002d 00       		.byte	0
 4848 002e 0B       		.uleb128 0xb
 4849 002f 0B       		.uleb128 0xb
 4850 0030 3E       		.uleb128 0x3e
 4851 0031 0B       		.uleb128 0xb
 4852 0032 03       		.uleb128 0x3
 4853 0033 08       		.uleb128 0x8
 4854 0034 00       		.byte	0
 4855 0035 00       		.byte	0
 4856 0036 05       		.uleb128 0x5
 4857 0037 13       		.uleb128 0x13
 4858 0038 01       		.byte	0x1
 4859 0039 0B       		.uleb128 0xb
 4860 003a 0B       		.uleb128 0xb
 4861 003b 3A       		.uleb128 0x3a
 4862 003c 0B       		.uleb128 0xb
 4863 003d 3B       		.uleb128 0x3b
 4864 003e 0B       		.uleb128 0xb
 4865 003f 01       		.uleb128 0x1
 4866 0040 13       		.uleb128 0x13
 4867 0041 00       		.byte	0
 4868 0042 00       		.byte	0
 4869 0043 06       		.uleb128 0x6
 4870 0044 0D       		.uleb128 0xd
 4871 0045 00       		.byte	0
ARM GAS  C:\Users\haske\AppData\Local\Temp\cc8C2ZcK.s 			page 103


 4872 0046 03       		.uleb128 0x3
 4873 0047 08       		.uleb128 0x8
 4874 0048 3A       		.uleb128 0x3a
 4875 0049 0B       		.uleb128 0xb
 4876 004a 3B       		.uleb128 0x3b
 4877 004b 0B       		.uleb128 0xb
 4878 004c 49       		.uleb128 0x49
 4879 004d 13       		.uleb128 0x13
 4880 004e 38       		.uleb128 0x38
 4881 004f 0B       		.uleb128 0xb
 4882 0050 00       		.byte	0
 4883 0051 00       		.byte	0
 4884 0052 07       		.uleb128 0x7
 4885 0053 04       		.uleb128 0x4
 4886 0054 01       		.byte	0x1
 4887 0055 0B       		.uleb128 0xb
 4888 0056 0B       		.uleb128 0xb
 4889 0057 49       		.uleb128 0x49
 4890 0058 13       		.uleb128 0x13
 4891 0059 3A       		.uleb128 0x3a
 4892 005a 0B       		.uleb128 0xb
 4893 005b 3B       		.uleb128 0x3b
 4894 005c 0B       		.uleb128 0xb
 4895 005d 01       		.uleb128 0x1
 4896 005e 13       		.uleb128 0x13
 4897 005f 00       		.byte	0
 4898 0060 00       		.byte	0
 4899 0061 08       		.uleb128 0x8
 4900 0062 28       		.uleb128 0x28
 4901 0063 00       		.byte	0
 4902 0064 03       		.uleb128 0x3
 4903 0065 0E       		.uleb128 0xe
 4904 0066 1C       		.uleb128 0x1c
 4905 0067 0B       		.uleb128 0xb
 4906 0068 00       		.byte	0
 4907 0069 00       		.byte	0
 4908 006a 09       		.uleb128 0x9
 4909 006b 2E       		.uleb128 0x2e
 4910 006c 01       		.byte	0x1
 4911 006d 03       		.uleb128 0x3
 4912 006e 0E       		.uleb128 0xe
 4913 006f 3A       		.uleb128 0x3a
 4914 0070 0B       		.uleb128 0xb
 4915 0071 3B       		.uleb128 0x3b
 4916 0072 0B       		.uleb128 0xb
 4917 0073 27       		.uleb128 0x27
 4918 0074 19       		.uleb128 0x19
 4919 0075 49       		.uleb128 0x49
 4920 0076 13       		.uleb128 0x13
 4921 0077 20       		.uleb128 0x20
 4922 0078 0B       		.uleb128 0xb
 4923 0079 01       		.uleb128 0x1
 4924 007a 13       		.uleb128 0x13
 4925 007b 00       		.byte	0
 4926 007c 00       		.byte	0
 4927 007d 0A       		.uleb128 0xa
 4928 007e 05       		.uleb128 0x5
ARM GAS  C:\Users\haske\AppData\Local\Temp\cc8C2ZcK.s 			page 104


 4929 007f 00       		.byte	0
 4930 0080 03       		.uleb128 0x3
 4931 0081 0E       		.uleb128 0xe
 4932 0082 3A       		.uleb128 0x3a
 4933 0083 0B       		.uleb128 0xb
 4934 0084 3B       		.uleb128 0x3b
 4935 0085 0B       		.uleb128 0xb
 4936 0086 49       		.uleb128 0x49
 4937 0087 13       		.uleb128 0x13
 4938 0088 00       		.byte	0
 4939 0089 00       		.byte	0
 4940 008a 0B       		.uleb128 0xb
 4941 008b 0F       		.uleb128 0xf
 4942 008c 00       		.byte	0
 4943 008d 0B       		.uleb128 0xb
 4944 008e 0B       		.uleb128 0xb
 4945 008f 49       		.uleb128 0x49
 4946 0090 13       		.uleb128 0x13
 4947 0091 00       		.byte	0
 4948 0092 00       		.byte	0
 4949 0093 0C       		.uleb128 0xc
 4950 0094 26       		.uleb128 0x26
 4951 0095 00       		.byte	0
 4952 0096 49       		.uleb128 0x49
 4953 0097 13       		.uleb128 0x13
 4954 0098 00       		.byte	0
 4955 0099 00       		.byte	0
 4956 009a 0D       		.uleb128 0xd
 4957 009b 2E       		.uleb128 0x2e
 4958 009c 01       		.byte	0x1
 4959 009d 03       		.uleb128 0x3
 4960 009e 0E       		.uleb128 0xe
 4961 009f 3A       		.uleb128 0x3a
 4962 00a0 0B       		.uleb128 0xb
 4963 00a1 3B       		.uleb128 0x3b
 4964 00a2 05       		.uleb128 0x5
 4965 00a3 27       		.uleb128 0x27
 4966 00a4 19       		.uleb128 0x19
 4967 00a5 49       		.uleb128 0x49
 4968 00a6 13       		.uleb128 0x13
 4969 00a7 11       		.uleb128 0x11
 4970 00a8 01       		.uleb128 0x1
 4971 00a9 12       		.uleb128 0x12
 4972 00aa 06       		.uleb128 0x6
 4973 00ab 40       		.uleb128 0x40
 4974 00ac 18       		.uleb128 0x18
 4975 00ad 9742     		.uleb128 0x2117
 4976 00af 19       		.uleb128 0x19
 4977 00b0 01       		.uleb128 0x1
 4978 00b1 13       		.uleb128 0x13
 4979 00b2 00       		.byte	0
 4980 00b3 00       		.byte	0
 4981 00b4 0E       		.uleb128 0xe
 4982 00b5 05       		.uleb128 0x5
 4983 00b6 00       		.byte	0
 4984 00b7 03       		.uleb128 0x3
 4985 00b8 0E       		.uleb128 0xe
ARM GAS  C:\Users\haske\AppData\Local\Temp\cc8C2ZcK.s 			page 105


 4986 00b9 3A       		.uleb128 0x3a
 4987 00ba 0B       		.uleb128 0xb
 4988 00bb 3B       		.uleb128 0x3b
 4989 00bc 05       		.uleb128 0x5
 4990 00bd 49       		.uleb128 0x49
 4991 00be 13       		.uleb128 0x13
 4992 00bf 02       		.uleb128 0x2
 4993 00c0 17       		.uleb128 0x17
 4994 00c1 00       		.byte	0
 4995 00c2 00       		.byte	0
 4996 00c3 0F       		.uleb128 0xf
 4997 00c4 05       		.uleb128 0x5
 4998 00c5 00       		.byte	0
 4999 00c6 03       		.uleb128 0x3
 5000 00c7 08       		.uleb128 0x8
 5001 00c8 3A       		.uleb128 0x3a
 5002 00c9 0B       		.uleb128 0xb
 5003 00ca 3B       		.uleb128 0x3b
 5004 00cb 05       		.uleb128 0x5
 5005 00cc 49       		.uleb128 0x49
 5006 00cd 13       		.uleb128 0x13
 5007 00ce 02       		.uleb128 0x2
 5008 00cf 17       		.uleb128 0x17
 5009 00d0 00       		.byte	0
 5010 00d1 00       		.byte	0
 5011 00d2 10       		.uleb128 0x10
 5012 00d3 34       		.uleb128 0x34
 5013 00d4 00       		.byte	0
 5014 00d5 03       		.uleb128 0x3
 5015 00d6 08       		.uleb128 0x8
 5016 00d7 3A       		.uleb128 0x3a
 5017 00d8 0B       		.uleb128 0xb
 5018 00d9 3B       		.uleb128 0x3b
 5019 00da 05       		.uleb128 0x5
 5020 00db 49       		.uleb128 0x49
 5021 00dc 13       		.uleb128 0x13
 5022 00dd 02       		.uleb128 0x2
 5023 00de 17       		.uleb128 0x17
 5024 00df 00       		.byte	0
 5025 00e0 00       		.byte	0
 5026 00e1 11       		.uleb128 0x11
 5027 00e2 34       		.uleb128 0x34
 5028 00e3 00       		.byte	0
 5029 00e4 03       		.uleb128 0x3
 5030 00e5 0E       		.uleb128 0xe
 5031 00e6 3A       		.uleb128 0x3a
 5032 00e7 0B       		.uleb128 0xb
 5033 00e8 3B       		.uleb128 0x3b
 5034 00e9 05       		.uleb128 0x5
 5035 00ea 49       		.uleb128 0x49
 5036 00eb 13       		.uleb128 0x13
 5037 00ec 02       		.uleb128 0x2
 5038 00ed 17       		.uleb128 0x17
 5039 00ee 00       		.byte	0
 5040 00ef 00       		.byte	0
 5041 00f0 12       		.uleb128 0x12
 5042 00f1 34       		.uleb128 0x34
ARM GAS  C:\Users\haske\AppData\Local\Temp\cc8C2ZcK.s 			page 106


 5043 00f2 00       		.byte	0
 5044 00f3 03       		.uleb128 0x3
 5045 00f4 0E       		.uleb128 0xe
 5046 00f5 3A       		.uleb128 0x3a
 5047 00f6 0B       		.uleb128 0xb
 5048 00f7 3B       		.uleb128 0x3b
 5049 00f8 05       		.uleb128 0x5
 5050 00f9 49       		.uleb128 0x49
 5051 00fa 13       		.uleb128 0x13
 5052 00fb 02       		.uleb128 0x2
 5053 00fc 18       		.uleb128 0x18
 5054 00fd 00       		.byte	0
 5055 00fe 00       		.byte	0
 5056 00ff 13       		.uleb128 0x13
 5057 0100 2E       		.uleb128 0x2e
 5058 0101 01       		.byte	0x1
 5059 0102 3F       		.uleb128 0x3f
 5060 0103 19       		.uleb128 0x19
 5061 0104 03       		.uleb128 0x3
 5062 0105 0E       		.uleb128 0xe
 5063 0106 3A       		.uleb128 0x3a
 5064 0107 0B       		.uleb128 0xb
 5065 0108 3B       		.uleb128 0x3b
 5066 0109 0B       		.uleb128 0xb
 5067 010a 27       		.uleb128 0x27
 5068 010b 19       		.uleb128 0x19
 5069 010c 11       		.uleb128 0x11
 5070 010d 01       		.uleb128 0x1
 5071 010e 12       		.uleb128 0x12
 5072 010f 06       		.uleb128 0x6
 5073 0110 40       		.uleb128 0x40
 5074 0111 18       		.uleb128 0x18
 5075 0112 9742     		.uleb128 0x2117
 5076 0114 19       		.uleb128 0x19
 5077 0115 01       		.uleb128 0x1
 5078 0116 13       		.uleb128 0x13
 5079 0117 00       		.byte	0
 5080 0118 00       		.byte	0
 5081 0119 14       		.uleb128 0x14
 5082 011a 05       		.uleb128 0x5
 5083 011b 00       		.byte	0
 5084 011c 03       		.uleb128 0x3
 5085 011d 0E       		.uleb128 0xe
 5086 011e 3A       		.uleb128 0x3a
 5087 011f 0B       		.uleb128 0xb
 5088 0120 3B       		.uleb128 0x3b
 5089 0121 0B       		.uleb128 0xb
 5090 0122 49       		.uleb128 0x49
 5091 0123 13       		.uleb128 0x13
 5092 0124 02       		.uleb128 0x2
 5093 0125 18       		.uleb128 0x18
 5094 0126 00       		.byte	0
 5095 0127 00       		.byte	0
 5096 0128 15       		.uleb128 0x15
 5097 0129 05       		.uleb128 0x5
 5098 012a 00       		.byte	0
 5099 012b 03       		.uleb128 0x3
ARM GAS  C:\Users\haske\AppData\Local\Temp\cc8C2ZcK.s 			page 107


 5100 012c 08       		.uleb128 0x8
 5101 012d 3A       		.uleb128 0x3a
 5102 012e 0B       		.uleb128 0xb
 5103 012f 3B       		.uleb128 0x3b
 5104 0130 0B       		.uleb128 0xb
 5105 0131 49       		.uleb128 0x49
 5106 0132 13       		.uleb128 0x13
 5107 0133 02       		.uleb128 0x2
 5108 0134 18       		.uleb128 0x18
 5109 0135 00       		.byte	0
 5110 0136 00       		.byte	0
 5111 0137 16       		.uleb128 0x16
 5112 0138 05       		.uleb128 0x5
 5113 0139 00       		.byte	0
 5114 013a 03       		.uleb128 0x3
 5115 013b 08       		.uleb128 0x8
 5116 013c 3A       		.uleb128 0x3a
 5117 013d 0B       		.uleb128 0xb
 5118 013e 3B       		.uleb128 0x3b
 5119 013f 0B       		.uleb128 0xb
 5120 0140 49       		.uleb128 0x49
 5121 0141 13       		.uleb128 0x13
 5122 0142 02       		.uleb128 0x2
 5123 0143 17       		.uleb128 0x17
 5124 0144 00       		.byte	0
 5125 0145 00       		.byte	0
 5126 0146 17       		.uleb128 0x17
 5127 0147 05       		.uleb128 0x5
 5128 0148 00       		.byte	0
 5129 0149 03       		.uleb128 0x3
 5130 014a 0E       		.uleb128 0xe
 5131 014b 3A       		.uleb128 0x3a
 5132 014c 0B       		.uleb128 0xb
 5133 014d 3B       		.uleb128 0x3b
 5134 014e 0B       		.uleb128 0xb
 5135 014f 49       		.uleb128 0x49
 5136 0150 13       		.uleb128 0x13
 5137 0151 02       		.uleb128 0x2
 5138 0152 17       		.uleb128 0x17
 5139 0153 00       		.byte	0
 5140 0154 00       		.byte	0
 5141 0155 18       		.uleb128 0x18
 5142 0156 34       		.uleb128 0x34
 5143 0157 00       		.byte	0
 5144 0158 03       		.uleb128 0x3
 5145 0159 08       		.uleb128 0x8
 5146 015a 3A       		.uleb128 0x3a
 5147 015b 0B       		.uleb128 0xb
 5148 015c 3B       		.uleb128 0x3b
 5149 015d 0B       		.uleb128 0xb
 5150 015e 49       		.uleb128 0x49
 5151 015f 13       		.uleb128 0x13
 5152 0160 00       		.byte	0
 5153 0161 00       		.byte	0
 5154 0162 19       		.uleb128 0x19
 5155 0163 1D       		.uleb128 0x1d
 5156 0164 01       		.byte	0x1
ARM GAS  C:\Users\haske\AppData\Local\Temp\cc8C2ZcK.s 			page 108


 5157 0165 31       		.uleb128 0x31
 5158 0166 13       		.uleb128 0x13
 5159 0167 11       		.uleb128 0x11
 5160 0168 01       		.uleb128 0x1
 5161 0169 12       		.uleb128 0x12
 5162 016a 06       		.uleb128 0x6
 5163 016b 58       		.uleb128 0x58
 5164 016c 0B       		.uleb128 0xb
 5165 016d 59       		.uleb128 0x59
 5166 016e 0B       		.uleb128 0xb
 5167 016f 01       		.uleb128 0x1
 5168 0170 13       		.uleb128 0x13
 5169 0171 00       		.byte	0
 5170 0172 00       		.byte	0
 5171 0173 1A       		.uleb128 0x1a
 5172 0174 05       		.uleb128 0x5
 5173 0175 00       		.byte	0
 5174 0176 31       		.uleb128 0x31
 5175 0177 13       		.uleb128 0x13
 5176 0178 02       		.uleb128 0x2
 5177 0179 17       		.uleb128 0x17
 5178 017a 00       		.byte	0
 5179 017b 00       		.byte	0
 5180 017c 1B       		.uleb128 0x1b
 5181 017d 898201   		.uleb128 0x4109
 5182 0180 01       		.byte	0x1
 5183 0181 11       		.uleb128 0x11
 5184 0182 01       		.uleb128 0x1
 5185 0183 31       		.uleb128 0x31
 5186 0184 13       		.uleb128 0x13
 5187 0185 01       		.uleb128 0x1
 5188 0186 13       		.uleb128 0x13
 5189 0187 00       		.byte	0
 5190 0188 00       		.byte	0
 5191 0189 1C       		.uleb128 0x1c
 5192 018a 8A8201   		.uleb128 0x410a
 5193 018d 00       		.byte	0
 5194 018e 02       		.uleb128 0x2
 5195 018f 18       		.uleb128 0x18
 5196 0190 9142     		.uleb128 0x2111
 5197 0192 18       		.uleb128 0x18
 5198 0193 00       		.byte	0
 5199 0194 00       		.byte	0
 5200 0195 1D       		.uleb128 0x1d
 5201 0196 898201   		.uleb128 0x4109
 5202 0199 01       		.byte	0x1
 5203 019a 11       		.uleb128 0x11
 5204 019b 01       		.uleb128 0x1
 5205 019c 31       		.uleb128 0x31
 5206 019d 13       		.uleb128 0x13
 5207 019e 00       		.byte	0
 5208 019f 00       		.byte	0
 5209 01a0 1E       		.uleb128 0x1e
 5210 01a1 2E       		.uleb128 0x2e
 5211 01a2 01       		.byte	0x1
 5212 01a3 3F       		.uleb128 0x3f
 5213 01a4 19       		.uleb128 0x19
ARM GAS  C:\Users\haske\AppData\Local\Temp\cc8C2ZcK.s 			page 109


 5214 01a5 03       		.uleb128 0x3
 5215 01a6 0E       		.uleb128 0xe
 5216 01a7 3A       		.uleb128 0x3a
 5217 01a8 0B       		.uleb128 0xb
 5218 01a9 3B       		.uleb128 0x3b
 5219 01aa 0B       		.uleb128 0xb
 5220 01ab 27       		.uleb128 0x27
 5221 01ac 19       		.uleb128 0x19
 5222 01ad 49       		.uleb128 0x49
 5223 01ae 13       		.uleb128 0x13
 5224 01af 11       		.uleb128 0x11
 5225 01b0 01       		.uleb128 0x1
 5226 01b1 12       		.uleb128 0x12
 5227 01b2 06       		.uleb128 0x6
 5228 01b3 40       		.uleb128 0x40
 5229 01b4 18       		.uleb128 0x18
 5230 01b5 9742     		.uleb128 0x2117
 5231 01b7 19       		.uleb128 0x19
 5232 01b8 01       		.uleb128 0x1
 5233 01b9 13       		.uleb128 0x13
 5234 01ba 00       		.byte	0
 5235 01bb 00       		.byte	0
 5236 01bc 1F       		.uleb128 0x1f
 5237 01bd 34       		.uleb128 0x34
 5238 01be 00       		.byte	0
 5239 01bf 03       		.uleb128 0x3
 5240 01c0 0E       		.uleb128 0xe
 5241 01c1 3A       		.uleb128 0x3a
 5242 01c2 0B       		.uleb128 0xb
 5243 01c3 3B       		.uleb128 0x3b
 5244 01c4 0B       		.uleb128 0xb
 5245 01c5 49       		.uleb128 0x49
 5246 01c6 13       		.uleb128 0x13
 5247 01c7 02       		.uleb128 0x2
 5248 01c8 18       		.uleb128 0x18
 5249 01c9 00       		.byte	0
 5250 01ca 00       		.byte	0
 5251 01cb 20       		.uleb128 0x20
 5252 01cc 34       		.uleb128 0x34
 5253 01cd 00       		.byte	0
 5254 01ce 03       		.uleb128 0x3
 5255 01cf 0E       		.uleb128 0xe
 5256 01d0 3A       		.uleb128 0x3a
 5257 01d1 0B       		.uleb128 0xb
 5258 01d2 3B       		.uleb128 0x3b
 5259 01d3 0B       		.uleb128 0xb
 5260 01d4 49       		.uleb128 0x49
 5261 01d5 13       		.uleb128 0x13
 5262 01d6 02       		.uleb128 0x2
 5263 01d7 17       		.uleb128 0x17
 5264 01d8 00       		.byte	0
 5265 01d9 00       		.byte	0
 5266 01da 21       		.uleb128 0x21
 5267 01db 34       		.uleb128 0x34
 5268 01dc 00       		.byte	0
 5269 01dd 03       		.uleb128 0x3
 5270 01de 08       		.uleb128 0x8
ARM GAS  C:\Users\haske\AppData\Local\Temp\cc8C2ZcK.s 			page 110


 5271 01df 3A       		.uleb128 0x3a
 5272 01e0 0B       		.uleb128 0xb
 5273 01e1 3B       		.uleb128 0x3b
 5274 01e2 0B       		.uleb128 0xb
 5275 01e3 49       		.uleb128 0x49
 5276 01e4 13       		.uleb128 0x13
 5277 01e5 02       		.uleb128 0x2
 5278 01e6 17       		.uleb128 0x17
 5279 01e7 00       		.byte	0
 5280 01e8 00       		.byte	0
 5281 01e9 22       		.uleb128 0x22
 5282 01ea 34       		.uleb128 0x34
 5283 01eb 00       		.byte	0
 5284 01ec 03       		.uleb128 0x3
 5285 01ed 08       		.uleb128 0x8
 5286 01ee 3A       		.uleb128 0x3a
 5287 01ef 0B       		.uleb128 0xb
 5288 01f0 3B       		.uleb128 0x3b
 5289 01f1 05       		.uleb128 0x5
 5290 01f2 49       		.uleb128 0x49
 5291 01f3 13       		.uleb128 0x13
 5292 01f4 02       		.uleb128 0x2
 5293 01f5 18       		.uleb128 0x18
 5294 01f6 00       		.byte	0
 5295 01f7 00       		.byte	0
 5296 01f8 23       		.uleb128 0x23
 5297 01f9 2E       		.uleb128 0x2e
 5298 01fa 01       		.byte	0x1
 5299 01fb 3F       		.uleb128 0x3f
 5300 01fc 19       		.uleb128 0x19
 5301 01fd 03       		.uleb128 0x3
 5302 01fe 0E       		.uleb128 0xe
 5303 01ff 3A       		.uleb128 0x3a
 5304 0200 0B       		.uleb128 0xb
 5305 0201 3B       		.uleb128 0x3b
 5306 0202 05       		.uleb128 0x5
 5307 0203 27       		.uleb128 0x27
 5308 0204 19       		.uleb128 0x19
 5309 0205 49       		.uleb128 0x49
 5310 0206 13       		.uleb128 0x13
 5311 0207 11       		.uleb128 0x11
 5312 0208 01       		.uleb128 0x1
 5313 0209 12       		.uleb128 0x12
 5314 020a 06       		.uleb128 0x6
 5315 020b 40       		.uleb128 0x40
 5316 020c 18       		.uleb128 0x18
 5317 020d 9742     		.uleb128 0x2117
 5318 020f 19       		.uleb128 0x19
 5319 0210 01       		.uleb128 0x1
 5320 0211 13       		.uleb128 0x13
 5321 0212 00       		.byte	0
 5322 0213 00       		.byte	0
 5323 0214 24       		.uleb128 0x24
 5324 0215 2E       		.uleb128 0x2e
 5325 0216 01       		.byte	0x1
 5326 0217 3F       		.uleb128 0x3f
 5327 0218 19       		.uleb128 0x19
ARM GAS  C:\Users\haske\AppData\Local\Temp\cc8C2ZcK.s 			page 111


 5328 0219 03       		.uleb128 0x3
 5329 021a 0E       		.uleb128 0xe
 5330 021b 3A       		.uleb128 0x3a
 5331 021c 0B       		.uleb128 0xb
 5332 021d 3B       		.uleb128 0x3b
 5333 021e 05       		.uleb128 0x5
 5334 021f 27       		.uleb128 0x27
 5335 0220 19       		.uleb128 0x19
 5336 0221 11       		.uleb128 0x11
 5337 0222 01       		.uleb128 0x1
 5338 0223 12       		.uleb128 0x12
 5339 0224 06       		.uleb128 0x6
 5340 0225 40       		.uleb128 0x40
 5341 0226 18       		.uleb128 0x18
 5342 0227 9742     		.uleb128 0x2117
 5343 0229 19       		.uleb128 0x19
 5344 022a 01       		.uleb128 0x1
 5345 022b 13       		.uleb128 0x13
 5346 022c 00       		.byte	0
 5347 022d 00       		.byte	0
 5348 022e 25       		.uleb128 0x25
 5349 022f 05       		.uleb128 0x5
 5350 0230 00       		.byte	0
 5351 0231 03       		.uleb128 0x3
 5352 0232 0E       		.uleb128 0xe
 5353 0233 3A       		.uleb128 0x3a
 5354 0234 0B       		.uleb128 0xb
 5355 0235 3B       		.uleb128 0x3b
 5356 0236 05       		.uleb128 0x5
 5357 0237 49       		.uleb128 0x49
 5358 0238 13       		.uleb128 0x13
 5359 0239 02       		.uleb128 0x2
 5360 023a 18       		.uleb128 0x18
 5361 023b 00       		.byte	0
 5362 023c 00       		.byte	0
 5363 023d 26       		.uleb128 0x26
 5364 023e 34       		.uleb128 0x34
 5365 023f 00       		.byte	0
 5366 0240 03       		.uleb128 0x3
 5367 0241 08       		.uleb128 0x8
 5368 0242 3A       		.uleb128 0x3a
 5369 0243 0B       		.uleb128 0xb
 5370 0244 3B       		.uleb128 0x3b
 5371 0245 05       		.uleb128 0x5
 5372 0246 49       		.uleb128 0x49
 5373 0247 13       		.uleb128 0x13
 5374 0248 00       		.byte	0
 5375 0249 00       		.byte	0
 5376 024a 27       		.uleb128 0x27
 5377 024b 1D       		.uleb128 0x1d
 5378 024c 01       		.byte	0x1
 5379 024d 31       		.uleb128 0x31
 5380 024e 13       		.uleb128 0x13
 5381 024f 11       		.uleb128 0x11
 5382 0250 01       		.uleb128 0x1
 5383 0251 12       		.uleb128 0x12
 5384 0252 06       		.uleb128 0x6
ARM GAS  C:\Users\haske\AppData\Local\Temp\cc8C2ZcK.s 			page 112


 5385 0253 58       		.uleb128 0x58
 5386 0254 0B       		.uleb128 0xb
 5387 0255 59       		.uleb128 0x59
 5388 0256 05       		.uleb128 0x5
 5389 0257 01       		.uleb128 0x1
 5390 0258 13       		.uleb128 0x13
 5391 0259 00       		.byte	0
 5392 025a 00       		.byte	0
 5393 025b 28       		.uleb128 0x28
 5394 025c 1D       		.uleb128 0x1d
 5395 025d 01       		.byte	0x1
 5396 025e 31       		.uleb128 0x31
 5397 025f 13       		.uleb128 0x13
 5398 0260 11       		.uleb128 0x11
 5399 0261 01       		.uleb128 0x1
 5400 0262 12       		.uleb128 0x12
 5401 0263 06       		.uleb128 0x6
 5402 0264 58       		.uleb128 0x58
 5403 0265 0B       		.uleb128 0xb
 5404 0266 59       		.uleb128 0x59
 5405 0267 05       		.uleb128 0x5
 5406 0268 00       		.byte	0
 5407 0269 00       		.byte	0
 5408 026a 29       		.uleb128 0x29
 5409 026b 2E       		.uleb128 0x2e
 5410 026c 01       		.byte	0x1
 5411 026d 3F       		.uleb128 0x3f
 5412 026e 19       		.uleb128 0x19
 5413 026f 03       		.uleb128 0x3
 5414 0270 0E       		.uleb128 0xe
 5415 0271 3A       		.uleb128 0x3a
 5416 0272 0B       		.uleb128 0xb
 5417 0273 3B       		.uleb128 0x3b
 5418 0274 05       		.uleb128 0x5
 5419 0275 27       		.uleb128 0x27
 5420 0276 19       		.uleb128 0x19
 5421 0277 11       		.uleb128 0x11
 5422 0278 01       		.uleb128 0x1
 5423 0279 12       		.uleb128 0x12
 5424 027a 06       		.uleb128 0x6
 5425 027b 40       		.uleb128 0x40
 5426 027c 18       		.uleb128 0x18
 5427 027d 9642     		.uleb128 0x2116
 5428 027f 19       		.uleb128 0x19
 5429 0280 01       		.uleb128 0x1
 5430 0281 13       		.uleb128 0x13
 5431 0282 00       		.byte	0
 5432 0283 00       		.byte	0
 5433 0284 2A       		.uleb128 0x2a
 5434 0285 0B       		.uleb128 0xb
 5435 0286 01       		.byte	0x1
 5436 0287 11       		.uleb128 0x11
 5437 0288 01       		.uleb128 0x1
 5438 0289 12       		.uleb128 0x12
 5439 028a 06       		.uleb128 0x6
 5440 028b 00       		.byte	0
 5441 028c 00       		.byte	0
ARM GAS  C:\Users\haske\AppData\Local\Temp\cc8C2ZcK.s 			page 113


 5442 028d 2B       		.uleb128 0x2b
 5443 028e 2E       		.uleb128 0x2e
 5444 028f 00       		.byte	0
 5445 0290 3F       		.uleb128 0x3f
 5446 0291 19       		.uleb128 0x19
 5447 0292 3C       		.uleb128 0x3c
 5448 0293 19       		.uleb128 0x19
 5449 0294 6E       		.uleb128 0x6e
 5450 0295 0E       		.uleb128 0xe
 5451 0296 03       		.uleb128 0x3
 5452 0297 0E       		.uleb128 0xe
 5453 0298 3A       		.uleb128 0x3a
 5454 0299 0B       		.uleb128 0xb
 5455 029a 3B       		.uleb128 0x3b
 5456 029b 0B       		.uleb128 0xb
 5457 029c 00       		.byte	0
 5458 029d 00       		.byte	0
 5459 029e 00       		.byte	0
 5460              		.section	.debug_loc,"",%progbits
 5461              	.Ldebug_loc0:
 5462              	.LLST0:
 5463 0000 00000000 		.4byte	.LVL0
 5464 0004 1E000000 		.4byte	.LVL3
 5465 0008 0100     		.2byte	0x1
 5466 000a 50       		.byte	0x50
 5467 000b 1E000000 		.4byte	.LVL3
 5468 000f 46000000 		.4byte	.LFE21
 5469 0013 0400     		.2byte	0x4
 5470 0015 F3       		.byte	0xf3
 5471 0016 01       		.uleb128 0x1
 5472 0017 50       		.byte	0x50
 5473 0018 9F       		.byte	0x9f
 5474 0019 00000000 		.4byte	0
 5475 001d 00000000 		.4byte	0
 5476              	.LLST1:
 5477 0021 00000000 		.4byte	.LVL0
 5478 0025 2E000000 		.4byte	.LVL6
 5479 0029 0100     		.2byte	0x1
 5480 002b 51       		.byte	0x51
 5481 002c 2E000000 		.4byte	.LVL6
 5482 0030 46000000 		.4byte	.LFE21
 5483 0034 0400     		.2byte	0x4
 5484 0036 F3       		.byte	0xf3
 5485 0037 01       		.uleb128 0x1
 5486 0038 51       		.byte	0x51
 5487 0039 9F       		.byte	0x9f
 5488 003a 00000000 		.4byte	0
 5489 003e 00000000 		.4byte	0
 5490              	.LLST2:
 5491 0042 14000000 		.4byte	.LVL1
 5492 0046 34000000 		.4byte	.LVL8
 5493 004a 0100     		.2byte	0x1
 5494 004c 56       		.byte	0x56
 5495 004d 34000000 		.4byte	.LVL8
 5496 0051 46000000 		.4byte	.LFE21
 5497 0055 3000     		.2byte	0x30
 5498 0057 F3       		.byte	0xf3
ARM GAS  C:\Users\haske\AppData\Local\Temp\cc8C2ZcK.s 			page 114


 5499 0058 01       		.uleb128 0x1
 5500 0059 50       		.byte	0x50
 5501 005a 23       		.byte	0x23
 5502 005b 04       		.uleb128 0x4
 5503 005c 94       		.byte	0x94
 5504 005d 02       		.byte	0x2
 5505 005e 40       		.byte	0x40
 5506 005f 24       		.byte	0x24
 5507 0060 40       		.byte	0x40
 5508 0061 26       		.byte	0x26
 5509 0062 F3       		.byte	0xf3
 5510 0063 01       		.uleb128 0x1
 5511 0064 50       		.byte	0x50
 5512 0065 94       		.byte	0x94
 5513 0066 02       		.byte	0x2
 5514 0067 40       		.byte	0x40
 5515 0068 24       		.byte	0x24
 5516 0069 40       		.byte	0x40
 5517 006a 26       		.byte	0x26
 5518 006b 1C       		.byte	0x1c
 5519 006c 4F       		.byte	0x4f
 5520 006d 25       		.byte	0x25
 5521 006e F3       		.byte	0xf3
 5522 006f 01       		.uleb128 0x1
 5523 0070 50       		.byte	0x50
 5524 0071 23       		.byte	0x23
 5525 0072 04       		.uleb128 0x4
 5526 0073 94       		.byte	0x94
 5527 0074 02       		.byte	0x2
 5528 0075 40       		.byte	0x40
 5529 0076 24       		.byte	0x24
 5530 0077 40       		.byte	0x40
 5531 0078 26       		.byte	0x26
 5532 0079 F3       		.byte	0xf3
 5533 007a 01       		.uleb128 0x1
 5534 007b 50       		.byte	0x50
 5535 007c 94       		.byte	0x94
 5536 007d 02       		.byte	0x2
 5537 007e 40       		.byte	0x40
 5538 007f 24       		.byte	0x24
 5539 0080 40       		.byte	0x40
 5540 0081 26       		.byte	0x26
 5541 0082 1C       		.byte	0x1c
 5542 0083 22       		.byte	0x22
 5543 0084 31       		.byte	0x31
 5544 0085 26       		.byte	0x26
 5545 0086 9F       		.byte	0x9f
 5546 0087 00000000 		.4byte	0
 5547 008b 00000000 		.4byte	0
 5548              	.LLST3:
 5549 008f 1A000000 		.4byte	.LVL2
 5550 0093 44000000 		.4byte	.LVL13
 5551 0097 0100     		.2byte	0x1
 5552 0099 55       		.byte	0x55
 5553 009a 44000000 		.4byte	.LVL13
 5554 009e 46000000 		.4byte	.LFE21
 5555 00a2 3E00     		.2byte	0x3e
ARM GAS  C:\Users\haske\AppData\Local\Temp\cc8C2ZcK.s 			page 115


 5556 00a4 F3       		.byte	0xf3
 5557 00a5 01       		.uleb128 0x1
 5558 00a6 50       		.byte	0x50
 5559 00a7 23       		.byte	0x23
 5560 00a8 04       		.uleb128 0x4
 5561 00a9 94       		.byte	0x94
 5562 00aa 02       		.byte	0x2
 5563 00ab 40       		.byte	0x40
 5564 00ac 24       		.byte	0x24
 5565 00ad 40       		.byte	0x40
 5566 00ae 26       		.byte	0x26
 5567 00af F3       		.byte	0xf3
 5568 00b0 01       		.uleb128 0x1
 5569 00b1 50       		.byte	0x50
 5570 00b2 94       		.byte	0x94
 5571 00b3 02       		.byte	0x2
 5572 00b4 40       		.byte	0x40
 5573 00b5 24       		.byte	0x24
 5574 00b6 40       		.byte	0x40
 5575 00b7 26       		.byte	0x26
 5576 00b8 1C       		.byte	0x1c
 5577 00b9 4F       		.byte	0x4f
 5578 00ba 25       		.byte	0x25
 5579 00bb F3       		.byte	0xf3
 5580 00bc 01       		.uleb128 0x1
 5581 00bd 50       		.byte	0x50
 5582 00be 23       		.byte	0x23
 5583 00bf 04       		.uleb128 0x4
 5584 00c0 94       		.byte	0x94
 5585 00c1 02       		.byte	0x2
 5586 00c2 40       		.byte	0x40
 5587 00c3 24       		.byte	0x24
 5588 00c4 40       		.byte	0x40
 5589 00c5 26       		.byte	0x26
 5590 00c6 F3       		.byte	0xf3
 5591 00c7 01       		.uleb128 0x1
 5592 00c8 50       		.byte	0x50
 5593 00c9 94       		.byte	0x94
 5594 00ca 02       		.byte	0x2
 5595 00cb 40       		.byte	0x40
 5596 00cc 24       		.byte	0x24
 5597 00cd 40       		.byte	0x40
 5598 00ce 26       		.byte	0x26
 5599 00cf 1C       		.byte	0x1c
 5600 00d0 22       		.byte	0x22
 5601 00d1 31       		.byte	0x31
 5602 00d2 26       		.byte	0x26
 5603 00d3 0A       		.byte	0xa
 5604 00d4 FFFF     		.2byte	0xffff
 5605 00d6 1A       		.byte	0x1a
 5606 00d7 F3       		.byte	0xf3
 5607 00d8 01       		.uleb128 0x1
 5608 00d9 50       		.byte	0x50
 5609 00da 94       		.byte	0x94
 5610 00db 02       		.byte	0x2
 5611 00dc 40       		.byte	0x40
 5612 00dd 24       		.byte	0x24
ARM GAS  C:\Users\haske\AppData\Local\Temp\cc8C2ZcK.s 			page 116


 5613 00de 40       		.byte	0x40
 5614 00df 26       		.byte	0x26
 5615 00e0 22       		.byte	0x22
 5616 00e1 9F       		.byte	0x9f
 5617 00e2 00000000 		.4byte	0
 5618 00e6 00000000 		.4byte	0
 5619              	.LLST4:
 5620 00ea 22000000 		.4byte	.LVL4
 5621 00ee 32000000 		.4byte	.LVL7
 5622 00f2 0100     		.2byte	0x1
 5623 00f4 53       		.byte	0x53
 5624 00f5 32000000 		.4byte	.LVL7
 5625 00f9 34000000 		.4byte	.LVL8
 5626 00fd 1300     		.2byte	0x13
 5627 00ff 76       		.byte	0x76
 5628 0100 00       		.sleb128 0
 5629 0101 0A       		.byte	0xa
 5630 0102 FFFF     		.2byte	0xffff
 5631 0104 1A       		.byte	0x1a
 5632 0105 F3       		.byte	0xf3
 5633 0106 01       		.uleb128 0x1
 5634 0107 50       		.byte	0x50
 5635 0108 23       		.byte	0x23
 5636 0109 02       		.uleb128 0x2
 5637 010a 94       		.byte	0x94
 5638 010b 02       		.byte	0x2
 5639 010c 40       		.byte	0x40
 5640 010d 24       		.byte	0x24
 5641 010e 40       		.byte	0x40
 5642 010f 26       		.byte	0x26
 5643 0110 22       		.byte	0x22
 5644 0111 9F       		.byte	0x9f
 5645 0112 34000000 		.4byte	.LVL8
 5646 0116 46000000 		.4byte	.LFE21
 5647 011a 4000     		.2byte	0x40
 5648 011c F3       		.byte	0xf3
 5649 011d 01       		.uleb128 0x1
 5650 011e 50       		.byte	0x50
 5651 011f 23       		.byte	0x23
 5652 0120 04       		.uleb128 0x4
 5653 0121 94       		.byte	0x94
 5654 0122 02       		.byte	0x2
 5655 0123 40       		.byte	0x40
 5656 0124 24       		.byte	0x24
 5657 0125 40       		.byte	0x40
 5658 0126 26       		.byte	0x26
 5659 0127 F3       		.byte	0xf3
 5660 0128 01       		.uleb128 0x1
 5661 0129 50       		.byte	0x50
 5662 012a 94       		.byte	0x94
 5663 012b 02       		.byte	0x2
 5664 012c 40       		.byte	0x40
 5665 012d 24       		.byte	0x24
 5666 012e 40       		.byte	0x40
 5667 012f 26       		.byte	0x26
 5668 0130 1C       		.byte	0x1c
 5669 0131 4F       		.byte	0x4f
ARM GAS  C:\Users\haske\AppData\Local\Temp\cc8C2ZcK.s 			page 117


 5670 0132 25       		.byte	0x25
 5671 0133 F3       		.byte	0xf3
 5672 0134 01       		.uleb128 0x1
 5673 0135 50       		.byte	0x50
 5674 0136 23       		.byte	0x23
 5675 0137 04       		.uleb128 0x4
 5676 0138 94       		.byte	0x94
 5677 0139 02       		.byte	0x2
 5678 013a 40       		.byte	0x40
 5679 013b 24       		.byte	0x24
 5680 013c 40       		.byte	0x40
 5681 013d 26       		.byte	0x26
 5682 013e F3       		.byte	0xf3
 5683 013f 01       		.uleb128 0x1
 5684 0140 50       		.byte	0x50
 5685 0141 94       		.byte	0x94
 5686 0142 02       		.byte	0x2
 5687 0143 40       		.byte	0x40
 5688 0144 24       		.byte	0x24
 5689 0145 40       		.byte	0x40
 5690 0146 26       		.byte	0x26
 5691 0147 1C       		.byte	0x1c
 5692 0148 22       		.byte	0x22
 5693 0149 31       		.byte	0x31
 5694 014a 26       		.byte	0x26
 5695 014b 0A       		.byte	0xa
 5696 014c FFFF     		.2byte	0xffff
 5697 014e 1A       		.byte	0x1a
 5698 014f F3       		.byte	0xf3
 5699 0150 01       		.uleb128 0x1
 5700 0151 50       		.byte	0x50
 5701 0152 23       		.byte	0x23
 5702 0153 02       		.uleb128 0x2
 5703 0154 94       		.byte	0x94
 5704 0155 02       		.byte	0x2
 5705 0156 40       		.byte	0x40
 5706 0157 24       		.byte	0x24
 5707 0158 40       		.byte	0x40
 5708 0159 26       		.byte	0x26
 5709 015a 22       		.byte	0x22
 5710 015b 9F       		.byte	0x9f
 5711 015c 00000000 		.4byte	0
 5712 0160 00000000 		.4byte	0
 5713              	.LLST5:
 5714 0164 2A000000 		.4byte	.LVL5
 5715 0168 36000000 		.4byte	.LVL9
 5716 016c 0100     		.2byte	0x1
 5717 016e 50       		.byte	0x50
 5718 016f 36000000 		.4byte	.LVL9
 5719 0173 44000000 		.4byte	.LVL12
 5720 0177 0600     		.2byte	0x6
 5721 0179 74       		.byte	0x74
 5722 017a 00       		.sleb128 0
 5723 017b 75       		.byte	0x75
 5724 017c 00       		.sleb128 0
 5725 017d 1C       		.byte	0x1c
 5726 017e 9F       		.byte	0x9f
ARM GAS  C:\Users\haske\AppData\Local\Temp\cc8C2ZcK.s 			page 118


 5727 017f 44000000 		.4byte	.LVL12
 5728 0183 44000000 		.4byte	.LVL13
 5729 0187 0D00     		.2byte	0xd
 5730 0189 F3       		.byte	0xf3
 5731 018a 01       		.uleb128 0x1
 5732 018b 51       		.byte	0x51
 5733 018c 94       		.byte	0x94
 5734 018d 02       		.byte	0x2
 5735 018e 40       		.byte	0x40
 5736 018f 24       		.byte	0x24
 5737 0190 40       		.byte	0x40
 5738 0191 26       		.byte	0x26
 5739 0192 75       		.byte	0x75
 5740 0193 00       		.sleb128 0
 5741 0194 1C       		.byte	0x1c
 5742 0195 9F       		.byte	0x9f
 5743 0196 44000000 		.4byte	.LVL13
 5744 019a 46000000 		.4byte	.LFE21
 5745 019e 4C00     		.2byte	0x4c
 5746 01a0 F3       		.byte	0xf3
 5747 01a1 01       		.uleb128 0x1
 5748 01a2 51       		.byte	0x51
 5749 01a3 94       		.byte	0x94
 5750 01a4 02       		.byte	0x2
 5751 01a5 40       		.byte	0x40
 5752 01a6 24       		.byte	0x24
 5753 01a7 40       		.byte	0x40
 5754 01a8 26       		.byte	0x26
 5755 01a9 F3       		.byte	0xf3
 5756 01aa 01       		.uleb128 0x1
 5757 01ab 50       		.byte	0x50
 5758 01ac 23       		.byte	0x23
 5759 01ad 04       		.uleb128 0x4
 5760 01ae 94       		.byte	0x94
 5761 01af 02       		.byte	0x2
 5762 01b0 40       		.byte	0x40
 5763 01b1 24       		.byte	0x24
 5764 01b2 40       		.byte	0x40
 5765 01b3 26       		.byte	0x26
 5766 01b4 F3       		.byte	0xf3
 5767 01b5 01       		.uleb128 0x1
 5768 01b6 50       		.byte	0x50
 5769 01b7 94       		.byte	0x94
 5770 01b8 02       		.byte	0x2
 5771 01b9 40       		.byte	0x40
 5772 01ba 24       		.byte	0x24
 5773 01bb 40       		.byte	0x40
 5774 01bc 26       		.byte	0x26
 5775 01bd 1C       		.byte	0x1c
 5776 01be 4F       		.byte	0x4f
 5777 01bf 25       		.byte	0x25
 5778 01c0 F3       		.byte	0xf3
 5779 01c1 01       		.uleb128 0x1
 5780 01c2 50       		.byte	0x50
 5781 01c3 23       		.byte	0x23
 5782 01c4 04       		.uleb128 0x4
 5783 01c5 94       		.byte	0x94
ARM GAS  C:\Users\haske\AppData\Local\Temp\cc8C2ZcK.s 			page 119


 5784 01c6 02       		.byte	0x2
 5785 01c7 40       		.byte	0x40
 5786 01c8 24       		.byte	0x24
 5787 01c9 40       		.byte	0x40
 5788 01ca 26       		.byte	0x26
 5789 01cb F3       		.byte	0xf3
 5790 01cc 01       		.uleb128 0x1
 5791 01cd 50       		.byte	0x50
 5792 01ce 94       		.byte	0x94
 5793 01cf 02       		.byte	0x2
 5794 01d0 40       		.byte	0x40
 5795 01d1 24       		.byte	0x24
 5796 01d2 40       		.byte	0x40
 5797 01d3 26       		.byte	0x26
 5798 01d4 1C       		.byte	0x1c
 5799 01d5 22       		.byte	0x22
 5800 01d6 31       		.byte	0x31
 5801 01d7 26       		.byte	0x26
 5802 01d8 0A       		.byte	0xa
 5803 01d9 FFFF     		.2byte	0xffff
 5804 01db 1A       		.byte	0x1a
 5805 01dc F3       		.byte	0xf3
 5806 01dd 01       		.uleb128 0x1
 5807 01de 50       		.byte	0x50
 5808 01df 94       		.byte	0x94
 5809 01e0 02       		.byte	0x2
 5810 01e1 40       		.byte	0x40
 5811 01e2 24       		.byte	0x24
 5812 01e3 40       		.byte	0x40
 5813 01e4 26       		.byte	0x26
 5814 01e5 22       		.byte	0x22
 5815 01e6 0A       		.byte	0xa
 5816 01e7 FFFF     		.2byte	0xffff
 5817 01e9 1A       		.byte	0x1a
 5818 01ea 1C       		.byte	0x1c
 5819 01eb 9F       		.byte	0x9f
 5820 01ec 00000000 		.4byte	0
 5821 01f0 00000000 		.4byte	0
 5822              	.LLST6:
 5823 01f4 32000000 		.4byte	.LVL7
 5824 01f8 38000000 		.4byte	.LVL10
 5825 01fc 0100     		.2byte	0x1
 5826 01fe 53       		.byte	0x53
 5827 01ff 38000000 		.4byte	.LVL10
 5828 0203 46000000 		.4byte	.LFE21
 5829 0207 0100     		.2byte	0x1
 5830 0209 52       		.byte	0x52
 5831 020a 00000000 		.4byte	0
 5832 020e 00000000 		.4byte	0
 5833              	.LLST7:
 5834 0212 34000000 		.4byte	.LVL8
 5835 0216 44000000 		.4byte	.LVL14
 5836 021a 0100     		.2byte	0x1
 5837 021c 56       		.byte	0x56
 5838 021d 44000000 		.4byte	.LVL14
 5839 0221 46000000 		.4byte	.LFE21
 5840 0225 6800     		.2byte	0x68
ARM GAS  C:\Users\haske\AppData\Local\Temp\cc8C2ZcK.s 			page 120


 5841 0227 F3       		.byte	0xf3
 5842 0228 01       		.uleb128 0x1
 5843 0229 50       		.byte	0x50
 5844 022a 23       		.byte	0x23
 5845 022b 04       		.uleb128 0x4
 5846 022c 94       		.byte	0x94
 5847 022d 02       		.byte	0x2
 5848 022e 40       		.byte	0x40
 5849 022f 24       		.byte	0x24
 5850 0230 40       		.byte	0x40
 5851 0231 26       		.byte	0x26
 5852 0232 F3       		.byte	0xf3
 5853 0233 01       		.uleb128 0x1
 5854 0234 50       		.byte	0x50
 5855 0235 94       		.byte	0x94
 5856 0236 02       		.byte	0x2
 5857 0237 40       		.byte	0x40
 5858 0238 24       		.byte	0x24
 5859 0239 40       		.byte	0x40
 5860 023a 26       		.byte	0x26
 5861 023b 1C       		.byte	0x1c
 5862 023c 4F       		.byte	0x4f
 5863 023d 25       		.byte	0x25
 5864 023e F3       		.byte	0xf3
 5865 023f 01       		.uleb128 0x1
 5866 0240 50       		.byte	0x50
 5867 0241 23       		.byte	0x23
 5868 0242 04       		.uleb128 0x4
 5869 0243 94       		.byte	0x94
 5870 0244 02       		.byte	0x2
 5871 0245 40       		.byte	0x40
 5872 0246 24       		.byte	0x24
 5873 0247 40       		.byte	0x40
 5874 0248 26       		.byte	0x26
 5875 0249 F3       		.byte	0xf3
 5876 024a 01       		.uleb128 0x1
 5877 024b 50       		.byte	0x50
 5878 024c 94       		.byte	0x94
 5879 024d 02       		.byte	0x2
 5880 024e 40       		.byte	0x40
 5881 024f 24       		.byte	0x24
 5882 0250 40       		.byte	0x40
 5883 0251 26       		.byte	0x26
 5884 0252 1C       		.byte	0x1c
 5885 0253 22       		.byte	0x22
 5886 0254 31       		.byte	0x31
 5887 0255 26       		.byte	0x26
 5888 0256 40       		.byte	0x40
 5889 0257 24       		.byte	0x24
 5890 0258 40       		.byte	0x40
 5891 0259 26       		.byte	0x26
 5892 025a F3       		.byte	0xf3
 5893 025b 01       		.uleb128 0x1
 5894 025c 50       		.byte	0x50
 5895 025d 23       		.byte	0x23
 5896 025e 04       		.uleb128 0x4
 5897 025f 94       		.byte	0x94
ARM GAS  C:\Users\haske\AppData\Local\Temp\cc8C2ZcK.s 			page 121


 5898 0260 02       		.byte	0x2
 5899 0261 40       		.byte	0x40
 5900 0262 24       		.byte	0x24
 5901 0263 40       		.byte	0x40
 5902 0264 26       		.byte	0x26
 5903 0265 F3       		.byte	0xf3
 5904 0266 01       		.uleb128 0x1
 5905 0267 50       		.byte	0x50
 5906 0268 94       		.byte	0x94
 5907 0269 02       		.byte	0x2
 5908 026a 40       		.byte	0x40
 5909 026b 24       		.byte	0x24
 5910 026c 40       		.byte	0x40
 5911 026d 26       		.byte	0x26
 5912 026e 1C       		.byte	0x1c
 5913 026f 4F       		.byte	0x4f
 5914 0270 25       		.byte	0x25
 5915 0271 F3       		.byte	0xf3
 5916 0272 01       		.uleb128 0x1
 5917 0273 50       		.byte	0x50
 5918 0274 23       		.byte	0x23
 5919 0275 04       		.uleb128 0x4
 5920 0276 94       		.byte	0x94
 5921 0277 02       		.byte	0x2
 5922 0278 40       		.byte	0x40
 5923 0279 24       		.byte	0x24
 5924 027a 40       		.byte	0x40
 5925 027b 26       		.byte	0x26
 5926 027c F3       		.byte	0xf3
 5927 027d 01       		.uleb128 0x1
 5928 027e 50       		.byte	0x50
 5929 027f 94       		.byte	0x94
 5930 0280 02       		.byte	0x2
 5931 0281 40       		.byte	0x40
 5932 0282 24       		.byte	0x24
 5933 0283 40       		.byte	0x40
 5934 0284 26       		.byte	0x26
 5935 0285 1C       		.byte	0x1c
 5936 0286 22       		.byte	0x22
 5937 0287 31       		.byte	0x31
 5938 0288 26       		.byte	0x26
 5939 0289 40       		.byte	0x40
 5940 028a 24       		.byte	0x24
 5941 028b 40       		.byte	0x40
 5942 028c 26       		.byte	0x26
 5943 028d 1E       		.byte	0x1e
 5944 028e 9F       		.byte	0x9f
 5945 028f 00000000 		.4byte	0
 5946 0293 00000000 		.4byte	0
 5947              	.LLST8:
 5948 0297 00000000 		.4byte	.LVL15
 5949 029b 04000000 		.4byte	.LVL16
 5950 029f 0200     		.2byte	0x2
 5951 02a1 91       		.byte	0x91
 5952 02a2 00       		.sleb128 0
 5953 02a3 04000000 		.4byte	.LVL16
 5954 02a7 08000000 		.4byte	.LVL17
ARM GAS  C:\Users\haske\AppData\Local\Temp\cc8C2ZcK.s 			page 122


 5955 02ab 0200     		.2byte	0x2
 5956 02ad 74       		.byte	0x74
 5957 02ae 00       		.sleb128 0
 5958 02af 08000000 		.4byte	.LVL17
 5959 02b3 12000000 		.4byte	.LFE5
 5960 02b7 0200     		.2byte	0x2
 5961 02b9 91       		.byte	0x91
 5962 02ba 00       		.sleb128 0
 5963 02bb 00000000 		.4byte	0
 5964 02bf 00000000 		.4byte	0
 5965              	.LLST9:
 5966 02c3 00000000 		.4byte	.LVL18
 5967 02c7 06000000 		.4byte	.LVL19
 5968 02cb 0100     		.2byte	0x1
 5969 02cd 51       		.byte	0x51
 5970 02ce 06000000 		.4byte	.LVL19
 5971 02d2 0C000000 		.4byte	.LFE6
 5972 02d6 0400     		.2byte	0x4
 5973 02d8 F3       		.byte	0xf3
 5974 02d9 01       		.uleb128 0x1
 5975 02da 51       		.byte	0x51
 5976 02db 9F       		.byte	0x9f
 5977 02dc 00000000 		.4byte	0
 5978 02e0 00000000 		.4byte	0
 5979              	.LLST10:
 5980 02e4 00000000 		.4byte	.LVL20
 5981 02e8 06000000 		.4byte	.LVL21
 5982 02ec 0100     		.2byte	0x1
 5983 02ee 51       		.byte	0x51
 5984 02ef 06000000 		.4byte	.LVL21
 5985 02f3 0C000000 		.4byte	.LFE7
 5986 02f7 0400     		.2byte	0x4
 5987 02f9 F3       		.byte	0xf3
 5988 02fa 01       		.uleb128 0x1
 5989 02fb 51       		.byte	0x51
 5990 02fc 9F       		.byte	0x9f
 5991 02fd 00000000 		.4byte	0
 5992 0301 00000000 		.4byte	0
 5993              	.LLST11:
 5994 0305 00000000 		.4byte	.LVL22
 5995 0309 06000000 		.4byte	.LVL23
 5996 030d 0100     		.2byte	0x1
 5997 030f 50       		.byte	0x50
 5998 0310 06000000 		.4byte	.LVL23
 5999 0314 34000000 		.4byte	.LVL29
 6000 0318 0100     		.2byte	0x1
 6001 031a 54       		.byte	0x54
 6002 031b 34000000 		.4byte	.LVL29
 6003 031f 36000000 		.4byte	.LFE8
 6004 0323 0400     		.2byte	0x4
 6005 0325 F3       		.byte	0xf3
 6006 0326 01       		.uleb128 0x1
 6007 0327 50       		.byte	0x50
 6008 0328 9F       		.byte	0x9f
 6009 0329 00000000 		.4byte	0
 6010 032d 00000000 		.4byte	0
 6011              	.LLST12:
ARM GAS  C:\Users\haske\AppData\Local\Temp\cc8C2ZcK.s 			page 123


 6012 0331 00000000 		.4byte	.LVL22
 6013 0335 0A000000 		.4byte	.LVL24
 6014 0339 0100     		.2byte	0x1
 6015 033b 51       		.byte	0x51
 6016 033c 0A000000 		.4byte	.LVL24
 6017 0340 36000000 		.4byte	.LFE8
 6018 0344 0400     		.2byte	0x4
 6019 0346 F3       		.byte	0xf3
 6020 0347 01       		.uleb128 0x1
 6021 0348 51       		.byte	0x51
 6022 0349 9F       		.byte	0x9f
 6023 034a 00000000 		.4byte	0
 6024 034e 00000000 		.4byte	0
 6025              	.LLST13:
 6026 0352 00000000 		.4byte	.LVL22
 6027 0356 2B000000 		.4byte	.LVL27-1
 6028 035a 0100     		.2byte	0x1
 6029 035c 52       		.byte	0x52
 6030 035d 2B000000 		.4byte	.LVL27-1
 6031 0361 36000000 		.4byte	.LFE8
 6032 0365 0400     		.2byte	0x4
 6033 0367 F3       		.byte	0xf3
 6034 0368 01       		.uleb128 0x1
 6035 0369 52       		.byte	0x52
 6036 036a 9F       		.byte	0x9f
 6037 036b 00000000 		.4byte	0
 6038 036f 00000000 		.4byte	0
 6039              	.LLST14:
 6040 0373 06000000 		.4byte	.LVL23
 6041 0377 14000000 		.4byte	.LVL25
 6042 037b 0100     		.2byte	0x1
 6043 037d 54       		.byte	0x54
 6044 037e 00000000 		.4byte	0
 6045 0382 00000000 		.4byte	0
 6046              	.LLST15:
 6047 0386 14000000 		.4byte	.LVL25
 6048 038a 22000000 		.4byte	.LVL26
 6049 038e 0100     		.2byte	0x1
 6050 0390 54       		.byte	0x54
 6051 0391 00000000 		.4byte	0
 6052 0395 00000000 		.4byte	0
 6053              	.LLST16:
 6054 0399 00000000 		.4byte	.LVL30
 6055 039d 14000000 		.4byte	.LVL31
 6056 03a1 0100     		.2byte	0x1
 6057 03a3 50       		.byte	0x50
 6058 03a4 14000000 		.4byte	.LVL31
 6059 03a8 1E000000 		.4byte	.LFE9
 6060 03ac 0400     		.2byte	0x4
 6061 03ae F3       		.byte	0xf3
 6062 03af 01       		.uleb128 0x1
 6063 03b0 50       		.byte	0x50
 6064 03b1 9F       		.byte	0x9f
 6065 03b2 00000000 		.4byte	0
 6066 03b6 00000000 		.4byte	0
 6067              	.LLST17:
 6068 03ba 00000000 		.4byte	.LVL33
ARM GAS  C:\Users\haske\AppData\Local\Temp\cc8C2ZcK.s 			page 124


 6069 03be 0C000000 		.4byte	.LVL34
 6070 03c2 0100     		.2byte	0x1
 6071 03c4 51       		.byte	0x51
 6072 03c5 0C000000 		.4byte	.LVL34
 6073 03c9 1E000000 		.4byte	.LFE10
 6074 03cd 0400     		.2byte	0x4
 6075 03cf F3       		.byte	0xf3
 6076 03d0 01       		.uleb128 0x1
 6077 03d1 51       		.byte	0x51
 6078 03d2 9F       		.byte	0x9f
 6079 03d3 00000000 		.4byte	0
 6080 03d7 00000000 		.4byte	0
 6081              	.LLST18:
 6082 03db 00000000 		.4byte	.LVL33
 6083 03df 1A000000 		.4byte	.LVL35
 6084 03e3 0100     		.2byte	0x1
 6085 03e5 52       		.byte	0x52
 6086 03e6 1A000000 		.4byte	.LVL35
 6087 03ea 1E000000 		.4byte	.LFE10
 6088 03ee 0400     		.2byte	0x4
 6089 03f0 F3       		.byte	0xf3
 6090 03f1 01       		.uleb128 0x1
 6091 03f2 52       		.byte	0x52
 6092 03f3 9F       		.byte	0x9f
 6093 03f4 00000000 		.4byte	0
 6094 03f8 00000000 		.4byte	0
 6095              	.LLST19:
 6096 03fc 00000000 		.4byte	.LVL36
 6097 0400 0C000000 		.4byte	.LVL37
 6098 0404 0100     		.2byte	0x1
 6099 0406 51       		.byte	0x51
 6100 0407 0C000000 		.4byte	.LVL37
 6101 040b 1E000000 		.4byte	.LFE11
 6102 040f 0400     		.2byte	0x4
 6103 0411 F3       		.byte	0xf3
 6104 0412 01       		.uleb128 0x1
 6105 0413 51       		.byte	0x51
 6106 0414 9F       		.byte	0x9f
 6107 0415 00000000 		.4byte	0
 6108 0419 00000000 		.4byte	0
 6109              	.LLST20:
 6110 041d 00000000 		.4byte	.LVL36
 6111 0421 1A000000 		.4byte	.LVL38
 6112 0425 0100     		.2byte	0x1
 6113 0427 52       		.byte	0x52
 6114 0428 1A000000 		.4byte	.LVL38
 6115 042c 1E000000 		.4byte	.LFE11
 6116 0430 0400     		.2byte	0x4
 6117 0432 F3       		.byte	0xf3
 6118 0433 01       		.uleb128 0x1
 6119 0434 52       		.byte	0x52
 6120 0435 9F       		.byte	0x9f
 6121 0436 00000000 		.4byte	0
 6122 043a 00000000 		.4byte	0
 6123              	.LLST21:
 6124 043e 00000000 		.4byte	.LVL39
 6125 0442 5C000000 		.4byte	.LVL43
ARM GAS  C:\Users\haske\AppData\Local\Temp\cc8C2ZcK.s 			page 125


 6126 0446 0100     		.2byte	0x1
 6127 0448 50       		.byte	0x50
 6128 0449 5C000000 		.4byte	.LVL43
 6129 044d 5E000000 		.4byte	.LVL44
 6130 0451 0400     		.2byte	0x4
 6131 0453 F3       		.byte	0xf3
 6132 0454 01       		.uleb128 0x1
 6133 0455 50       		.byte	0x50
 6134 0456 9F       		.byte	0x9f
 6135 0457 5E000000 		.4byte	.LVL44
 6136 045b 60000000 		.4byte	.LVL45
 6137 045f 0100     		.2byte	0x1
 6138 0461 50       		.byte	0x50
 6139 0462 60000000 		.4byte	.LVL45
 6140 0466 62000000 		.4byte	.LVL46
 6141 046a 0400     		.2byte	0x4
 6142 046c F3       		.byte	0xf3
 6143 046d 01       		.uleb128 0x1
 6144 046e 50       		.byte	0x50
 6145 046f 9F       		.byte	0x9f
 6146 0470 62000000 		.4byte	.LVL46
 6147 0474 64000000 		.4byte	.LVL47
 6148 0478 0100     		.2byte	0x1
 6149 047a 50       		.byte	0x50
 6150 047b 64000000 		.4byte	.LVL47
 6151 047f 66000000 		.4byte	.LFE12
 6152 0483 0400     		.2byte	0x4
 6153 0485 F3       		.byte	0xf3
 6154 0486 01       		.uleb128 0x1
 6155 0487 50       		.byte	0x50
 6156 0488 9F       		.byte	0x9f
 6157 0489 00000000 		.4byte	0
 6158 048d 00000000 		.4byte	0
 6159              	.LLST22:
 6160 0491 00000000 		.4byte	.LVL39
 6161 0495 46000000 		.4byte	.LVL41
 6162 0499 0100     		.2byte	0x1
 6163 049b 51       		.byte	0x51
 6164 049c 46000000 		.4byte	.LVL41
 6165 04a0 66000000 		.4byte	.LFE12
 6166 04a4 0400     		.2byte	0x4
 6167 04a6 F3       		.byte	0xf3
 6168 04a7 01       		.uleb128 0x1
 6169 04a8 51       		.byte	0x51
 6170 04a9 9F       		.byte	0x9f
 6171 04aa 00000000 		.4byte	0
 6172 04ae 00000000 		.4byte	0
 6173              	.LLST23:
 6174 04b2 00000000 		.4byte	.LVL39
 6175 04b6 42000000 		.4byte	.LVL40
 6176 04ba 0100     		.2byte	0x1
 6177 04bc 52       		.byte	0x52
 6178 04bd 42000000 		.4byte	.LVL40
 6179 04c1 66000000 		.4byte	.LFE12
 6180 04c5 0400     		.2byte	0x4
 6181 04c7 F3       		.byte	0xf3
 6182 04c8 01       		.uleb128 0x1
ARM GAS  C:\Users\haske\AppData\Local\Temp\cc8C2ZcK.s 			page 126


 6183 04c9 52       		.byte	0x52
 6184 04ca 9F       		.byte	0x9f
 6185 04cb 00000000 		.4byte	0
 6186 04cf 00000000 		.4byte	0
 6187              	.LLST24:
 6188 04d3 52000000 		.4byte	.LVL42
 6189 04d7 64000000 		.4byte	.LVL47
 6190 04db 0200     		.2byte	0x2
 6191 04dd 31       		.byte	0x31
 6192 04de 9F       		.byte	0x9f
 6193 04df 64000000 		.4byte	.LVL47
 6194 04e3 66000000 		.4byte	.LFE12
 6195 04e7 0100     		.2byte	0x1
 6196 04e9 50       		.byte	0x50
 6197 04ea 00000000 		.4byte	0
 6198 04ee 00000000 		.4byte	0
 6199              	.LLST25:
 6200 04f2 00000000 		.4byte	.LVL48
 6201 04f6 40000000 		.4byte	.LVL50
 6202 04fa 0100     		.2byte	0x1
 6203 04fc 51       		.byte	0x51
 6204 04fd 40000000 		.4byte	.LVL50
 6205 0501 4C000000 		.4byte	.LFE13
 6206 0505 0400     		.2byte	0x4
 6207 0507 F3       		.byte	0xf3
 6208 0508 01       		.uleb128 0x1
 6209 0509 51       		.byte	0x51
 6210 050a 9F       		.byte	0x9f
 6211 050b 00000000 		.4byte	0
 6212 050f 00000000 		.4byte	0
 6213              	.LLST26:
 6214 0513 00000000 		.4byte	.LVL48
 6215 0517 3C000000 		.4byte	.LVL49
 6216 051b 0100     		.2byte	0x1
 6217 051d 52       		.byte	0x52
 6218 051e 3C000000 		.4byte	.LVL49
 6219 0522 4C000000 		.4byte	.LFE13
 6220 0526 0400     		.2byte	0x4
 6221 0528 F3       		.byte	0xf3
 6222 0529 01       		.uleb128 0x1
 6223 052a 52       		.byte	0x52
 6224 052b 9F       		.byte	0x9f
 6225 052c 00000000 		.4byte	0
 6226 0530 00000000 		.4byte	0
 6227              	.LLST27:
 6228 0534 00000000 		.4byte	.LVL51
 6229 0538 10000000 		.4byte	.LVL54
 6230 053c 0100     		.2byte	0x1
 6231 053e 50       		.byte	0x50
 6232 053f 10000000 		.4byte	.LVL54
 6233 0543 6E010000 		.4byte	.LVL86
 6234 0547 0100     		.2byte	0x1
 6235 0549 55       		.byte	0x55
 6236 054a 6E010000 		.4byte	.LVL86
 6237 054e 70010000 		.4byte	.LFE14
 6238 0552 0400     		.2byte	0x4
 6239 0554 F3       		.byte	0xf3
ARM GAS  C:\Users\haske\AppData\Local\Temp\cc8C2ZcK.s 			page 127


 6240 0555 01       		.uleb128 0x1
 6241 0556 50       		.byte	0x50
 6242 0557 9F       		.byte	0x9f
 6243 0558 00000000 		.4byte	0
 6244 055c 00000000 		.4byte	0
 6245              	.LLST28:
 6246 0560 00000000 		.4byte	.LVL51
 6247 0564 0C000000 		.4byte	.LVL53
 6248 0568 0100     		.2byte	0x1
 6249 056a 51       		.byte	0x51
 6250 056b 0C000000 		.4byte	.LVL53
 6251 056f 6E010000 		.4byte	.LVL85
 6252 0573 0100     		.2byte	0x1
 6253 0575 54       		.byte	0x54
 6254 0576 6E010000 		.4byte	.LVL85
 6255 057a 70010000 		.4byte	.LFE14
 6256 057e 0400     		.2byte	0x4
 6257 0580 F3       		.byte	0xf3
 6258 0581 01       		.uleb128 0x1
 6259 0582 51       		.byte	0x51
 6260 0583 9F       		.byte	0x9f
 6261 0584 00000000 		.4byte	0
 6262 0588 00000000 		.4byte	0
 6263              	.LLST29:
 6264 058c 00000000 		.4byte	.LVL51
 6265 0590 82000000 		.4byte	.LVL63
 6266 0594 0100     		.2byte	0x1
 6267 0596 52       		.byte	0x52
 6268 0597 82000000 		.4byte	.LVL63
 6269 059b BA000000 		.4byte	.LVL68
 6270 059f 0100     		.2byte	0x1
 6271 05a1 56       		.byte	0x56
 6272 05a2 C6000000 		.4byte	.LVL70
 6273 05a6 EE000000 		.4byte	.LVL72
 6274 05aa 0100     		.2byte	0x1
 6275 05ac 56       		.byte	0x56
 6276 05ad FA000000 		.4byte	.LVL74
 6277 05b1 22010000 		.4byte	.LVL76
 6278 05b5 0100     		.2byte	0x1
 6279 05b7 56       		.byte	0x56
 6280 05b8 2E010000 		.4byte	.LVL78
 6281 05bc 56010000 		.4byte	.LVL80
 6282 05c0 0100     		.2byte	0x1
 6283 05c2 56       		.byte	0x56
 6284 05c3 62010000 		.4byte	.LVL82
 6285 05c7 6A010000 		.4byte	.LVL83
 6286 05cb 0100     		.2byte	0x1
 6287 05cd 52       		.byte	0x52
 6288 05ce 6A010000 		.4byte	.LVL83
 6289 05d2 6C010000 		.4byte	.LVL84
 6290 05d6 0100     		.2byte	0x1
 6291 05d8 56       		.byte	0x56
 6292 05d9 00000000 		.4byte	0
 6293 05dd 00000000 		.4byte	0
 6294              	.LLST30:
 6295 05e1 08000000 		.4byte	.LVL52
 6296 05e5 42000000 		.4byte	.LVL55
ARM GAS  C:\Users\haske\AppData\Local\Temp\cc8C2ZcK.s 			page 128


 6297 05e9 0200     		.2byte	0x2
 6298 05eb 30       		.byte	0x30
 6299 05ec 9F       		.byte	0x9f
 6300 05ed 42000000 		.4byte	.LVL55
 6301 05f1 52000000 		.4byte	.LVL57
 6302 05f5 0100     		.2byte	0x1
 6303 05f7 53       		.byte	0x53
 6304 05f8 62010000 		.4byte	.LVL82
 6305 05fc 6A010000 		.4byte	.LVL83
 6306 0600 0100     		.2byte	0x1
 6307 0602 53       		.byte	0x53
 6308 0603 00000000 		.4byte	0
 6309 0607 00000000 		.4byte	0
 6310              	.LLST31:
 6311 060b 5E000000 		.4byte	.LVL59
 6312 060f 84000000 		.4byte	.LVL64
 6313 0613 0100     		.2byte	0x1
 6314 0615 53       		.byte	0x53
 6315 0616 84000000 		.4byte	.LVL64
 6316 061a 86000000 		.4byte	.LVL65
 6317 061e 2800     		.2byte	0x28
 6318 0620 75       		.byte	0x75
 6319 0621 04       		.sleb128 4
 6320 0622 94       		.byte	0x94
 6321 0623 02       		.byte	0x2
 6322 0624 40       		.byte	0x40
 6323 0625 24       		.byte	0x24
 6324 0626 40       		.byte	0x40
 6325 0627 26       		.byte	0x26
 6326 0628 70       		.byte	0x70
 6327 0629 00       		.sleb128 0
 6328 062a 1C       		.byte	0x1c
 6329 062b 23       		.byte	0x23
 6330 062c 01       		.uleb128 0x1
 6331 062d 40       		.byte	0x40
 6332 062e 24       		.byte	0x24
 6333 062f 40       		.byte	0x40
 6334 0630 26       		.byte	0x26
 6335 0631 4F       		.byte	0x4f
 6336 0632 25       		.byte	0x25
 6337 0633 75       		.byte	0x75
 6338 0634 04       		.sleb128 4
 6339 0635 94       		.byte	0x94
 6340 0636 02       		.byte	0x2
 6341 0637 40       		.byte	0x40
 6342 0638 24       		.byte	0x24
 6343 0639 40       		.byte	0x40
 6344 063a 26       		.byte	0x26
 6345 063b 70       		.byte	0x70
 6346 063c 00       		.sleb128 0
 6347 063d 1C       		.byte	0x1c
 6348 063e 23       		.byte	0x23
 6349 063f 01       		.uleb128 0x1
 6350 0640 40       		.byte	0x40
 6351 0641 24       		.byte	0x24
 6352 0642 40       		.byte	0x40
 6353 0643 26       		.byte	0x26
ARM GAS  C:\Users\haske\AppData\Local\Temp\cc8C2ZcK.s 			page 129


 6354 0644 22       		.byte	0x22
 6355 0645 31       		.byte	0x31
 6356 0646 26       		.byte	0x26
 6357 0647 9F       		.byte	0x9f
 6358 0648 00000000 		.4byte	0
 6359 064c 00000000 		.4byte	0
 6360              	.LLST32:
 6361 0650 72000000 		.4byte	.LVL61
 6362 0654 A2000000 		.4byte	.LVL66
 6363 0658 0100     		.2byte	0x1
 6364 065a 51       		.byte	0x51
 6365 065b 00000000 		.4byte	0
 6366 065f 00000000 		.4byte	0
 6367              	.LLST33:
 6368 0663 7C000000 		.4byte	.LVL62
 6369 0667 82000000 		.4byte	.LVL63
 6370 066b 0100     		.2byte	0x1
 6371 066d 56       		.byte	0x56
 6372 066e 00000000 		.4byte	0
 6373 0672 00000000 		.4byte	0
 6374              	.LLST34:
 6375 0676 4E000000 		.4byte	.LVL56
 6376 067a 58000000 		.4byte	.LVL58
 6377 067e 0100     		.2byte	0x1
 6378 0680 55       		.byte	0x55
 6379 0681 00000000 		.4byte	0
 6380 0685 00000000 		.4byte	0
 6381              	.LLST35:
 6382 0689 5E000000 		.4byte	.LVL59
 6383 068d 6C000000 		.4byte	.LVL60
 6384 0691 0100     		.2byte	0x1
 6385 0693 55       		.byte	0x55
 6386 0694 00000000 		.4byte	0
 6387 0698 00000000 		.4byte	0
 6388              	.LLST36:
 6389 069c 00000000 		.4byte	.LVL87
 6390 06a0 34000000 		.4byte	.LVL89
 6391 06a4 0100     		.2byte	0x1
 6392 06a6 50       		.byte	0x50
 6393 06a7 34000000 		.4byte	.LVL89
 6394 06ab 36000000 		.4byte	.LVL90
 6395 06af 0400     		.2byte	0x4
 6396 06b1 F3       		.byte	0xf3
 6397 06b2 01       		.uleb128 0x1
 6398 06b3 50       		.byte	0x50
 6399 06b4 9F       		.byte	0x9f
 6400 06b5 36000000 		.4byte	.LVL90
 6401 06b9 38000000 		.4byte	.LVL91
 6402 06bd 0100     		.2byte	0x1
 6403 06bf 50       		.byte	0x50
 6404 06c0 38000000 		.4byte	.LVL91
 6405 06c4 3A000000 		.4byte	.LVL92
 6406 06c8 0400     		.2byte	0x4
 6407 06ca F3       		.byte	0xf3
 6408 06cb 01       		.uleb128 0x1
 6409 06cc 50       		.byte	0x50
 6410 06cd 9F       		.byte	0x9f
ARM GAS  C:\Users\haske\AppData\Local\Temp\cc8C2ZcK.s 			page 130


 6411 06ce 3A000000 		.4byte	.LVL92
 6412 06d2 3C000000 		.4byte	.LVL93
 6413 06d6 0100     		.2byte	0x1
 6414 06d8 50       		.byte	0x50
 6415 06d9 3C000000 		.4byte	.LVL93
 6416 06dd 3E000000 		.4byte	.LVL94
 6417 06e1 0400     		.2byte	0x4
 6418 06e3 F3       		.byte	0xf3
 6419 06e4 01       		.uleb128 0x1
 6420 06e5 50       		.byte	0x50
 6421 06e6 9F       		.byte	0x9f
 6422 06e7 3E000000 		.4byte	.LVL94
 6423 06eb 40000000 		.4byte	.LVL95
 6424 06ef 0100     		.2byte	0x1
 6425 06f1 50       		.byte	0x50
 6426 06f2 40000000 		.4byte	.LVL95
 6427 06f6 42000000 		.4byte	.LVL96
 6428 06fa 0400     		.2byte	0x4
 6429 06fc F3       		.byte	0xf3
 6430 06fd 01       		.uleb128 0x1
 6431 06fe 50       		.byte	0x50
 6432 06ff 9F       		.byte	0x9f
 6433 0700 42000000 		.4byte	.LVL96
 6434 0704 44000000 		.4byte	.LVL97
 6435 0708 0100     		.2byte	0x1
 6436 070a 50       		.byte	0x50
 6437 070b 44000000 		.4byte	.LVL97
 6438 070f 46000000 		.4byte	.LFE15
 6439 0713 0400     		.2byte	0x4
 6440 0715 F3       		.byte	0xf3
 6441 0716 01       		.uleb128 0x1
 6442 0717 50       		.byte	0x50
 6443 0718 9F       		.byte	0x9f
 6444 0719 00000000 		.4byte	0
 6445 071d 00000000 		.4byte	0
 6446              	.LLST37:
 6447 0721 00000000 		.4byte	.LVL87
 6448 0725 2E000000 		.4byte	.LVL88
 6449 0729 0100     		.2byte	0x1
 6450 072b 51       		.byte	0x51
 6451 072c 2E000000 		.4byte	.LVL88
 6452 0730 36000000 		.4byte	.LVL90
 6453 0734 0400     		.2byte	0x4
 6454 0736 F3       		.byte	0xf3
 6455 0737 01       		.uleb128 0x1
 6456 0738 51       		.byte	0x51
 6457 0739 9F       		.byte	0x9f
 6458 073a 36000000 		.4byte	.LVL90
 6459 073e 42000000 		.4byte	.LVL96
 6460 0742 0100     		.2byte	0x1
 6461 0744 51       		.byte	0x51
 6462 0745 42000000 		.4byte	.LVL96
 6463 0749 46000000 		.4byte	.LFE15
 6464 074d 0400     		.2byte	0x4
 6465 074f F3       		.byte	0xf3
 6466 0750 01       		.uleb128 0x1
 6467 0751 51       		.byte	0x51
ARM GAS  C:\Users\haske\AppData\Local\Temp\cc8C2ZcK.s 			page 131


 6468 0752 9F       		.byte	0x9f
 6469 0753 00000000 		.4byte	0
 6470 0757 00000000 		.4byte	0
 6471              	.LLST38:
 6472 075b 00000000 		.4byte	.LVL98
 6473 075f 1E000000 		.4byte	.LVL102
 6474 0763 0100     		.2byte	0x1
 6475 0765 50       		.byte	0x50
 6476 0766 1E000000 		.4byte	.LVL102
 6477 076a 3E000000 		.4byte	.LVL103
 6478 076e 0100     		.2byte	0x1
 6479 0770 54       		.byte	0x54
 6480 0771 3E000000 		.4byte	.LVL103
 6481 0775 42000000 		.4byte	.LVL104
 6482 0779 0100     		.2byte	0x1
 6483 077b 50       		.byte	0x50
 6484 077c 42000000 		.4byte	.LVL104
 6485 0780 B4000000 		.4byte	.LVL113
 6486 0784 0100     		.2byte	0x1
 6487 0786 54       		.byte	0x54
 6488 0787 B4000000 		.4byte	.LVL113
 6489 078b B6000000 		.4byte	.LFE16
 6490 078f 0400     		.2byte	0x4
 6491 0791 F3       		.byte	0xf3
 6492 0792 01       		.uleb128 0x1
 6493 0793 50       		.byte	0x50
 6494 0794 9F       		.byte	0x9f
 6495 0795 00000000 		.4byte	0
 6496 0799 00000000 		.4byte	0
 6497              	.LLST39:
 6498 079d 00000000 		.4byte	.LVL98
 6499 07a1 12000000 		.4byte	.LVL101
 6500 07a5 0100     		.2byte	0x1
 6501 07a7 51       		.byte	0x51
 6502 07a8 12000000 		.4byte	.LVL101
 6503 07ac B4000000 		.4byte	.LVL114
 6504 07b0 0100     		.2byte	0x1
 6505 07b2 56       		.byte	0x56
 6506 07b3 B4000000 		.4byte	.LVL114
 6507 07b7 B6000000 		.4byte	.LFE16
 6508 07bb 0400     		.2byte	0x4
 6509 07bd F3       		.byte	0xf3
 6510 07be 01       		.uleb128 0x1
 6511 07bf 51       		.byte	0x51
 6512 07c0 9F       		.byte	0x9f
 6513 07c1 00000000 		.4byte	0
 6514 07c5 00000000 		.4byte	0
 6515              	.LLST40:
 6516 07c9 00000000 		.4byte	.LVL98
 6517 07cd 0E000000 		.4byte	.LVL100
 6518 07d1 0100     		.2byte	0x1
 6519 07d3 52       		.byte	0x52
 6520 07d4 0E000000 		.4byte	.LVL100
 6521 07d8 B6000000 		.4byte	.LFE16
 6522 07dc 0400     		.2byte	0x4
 6523 07de F3       		.byte	0xf3
 6524 07df 01       		.uleb128 0x1
ARM GAS  C:\Users\haske\AppData\Local\Temp\cc8C2ZcK.s 			page 132


 6525 07e0 52       		.byte	0x52
 6526 07e1 9F       		.byte	0x9f
 6527 07e2 00000000 		.4byte	0
 6528 07e6 00000000 		.4byte	0
 6529              	.LLST41:
 6530 07ea 0A000000 		.4byte	.LVL99
 6531 07ee 4C000000 		.4byte	.LVL105
 6532 07f2 0200     		.2byte	0x2
 6533 07f4 30       		.byte	0x30
 6534 07f5 9F       		.byte	0x9f
 6535 07f6 4C000000 		.4byte	.LVL105
 6536 07fa 5C000000 		.4byte	.LVL106
 6537 07fe 0100     		.2byte	0x1
 6538 0800 52       		.byte	0x52
 6539 0801 AC000000 		.4byte	.LVL111
 6540 0805 B2000000 		.4byte	.LVL112
 6541 0809 0100     		.2byte	0x1
 6542 080b 52       		.byte	0x52
 6543 080c 00000000 		.4byte	0
 6544 0810 00000000 		.4byte	0
 6545              	.LLST42:
 6546 0814 00000000 		.4byte	.LVL115
 6547 0818 10000000 		.4byte	.LVL116
 6548 081c 0100     		.2byte	0x1
 6549 081e 50       		.byte	0x50
 6550 081f 10000000 		.4byte	.LVL116
 6551 0823 BE000000 		.4byte	.LVL126
 6552 0827 0100     		.2byte	0x1
 6553 0829 55       		.byte	0x55
 6554 082a BE000000 		.4byte	.LVL126
 6555 082e C6000000 		.4byte	.LFE17
 6556 0832 0400     		.2byte	0x4
 6557 0834 F3       		.byte	0xf3
 6558 0835 01       		.uleb128 0x1
 6559 0836 50       		.byte	0x50
 6560 0837 9F       		.byte	0x9f
 6561 0838 00000000 		.4byte	0
 6562 083c 00000000 		.4byte	0
 6563              	.LLST43:
 6564 0840 00000000 		.4byte	.LVL115
 6565 0844 34000000 		.4byte	.LVL118
 6566 0848 0100     		.2byte	0x1
 6567 084a 51       		.byte	0x51
 6568 084b 34000000 		.4byte	.LVL118
 6569 084f 9C000000 		.4byte	.LVL123
 6570 0853 0100     		.2byte	0x1
 6571 0855 54       		.byte	0x54
 6572 0856 9C000000 		.4byte	.LVL123
 6573 085a A4000000 		.4byte	.LVL124
 6574 085e 0100     		.2byte	0x1
 6575 0860 51       		.byte	0x51
 6576 0861 A4000000 		.4byte	.LVL124
 6577 0865 BE000000 		.4byte	.LVL125
 6578 0869 0100     		.2byte	0x1
 6579 086b 54       		.byte	0x54
 6580 086c BE000000 		.4byte	.LVL125
 6581 0870 C6000000 		.4byte	.LFE17
ARM GAS  C:\Users\haske\AppData\Local\Temp\cc8C2ZcK.s 			page 133


 6582 0874 0400     		.2byte	0x4
 6583 0876 F3       		.byte	0xf3
 6584 0877 01       		.uleb128 0x1
 6585 0878 51       		.byte	0x51
 6586 0879 9F       		.byte	0x9f
 6587 087a 00000000 		.4byte	0
 6588 087e 00000000 		.4byte	0
 6589              	.LLST44:
 6590 0882 00000000 		.4byte	.LVL115
 6591 0886 1A000000 		.4byte	.LVL117
 6592 088a 0100     		.2byte	0x1
 6593 088c 52       		.byte	0x52
 6594 088d 1A000000 		.4byte	.LVL117
 6595 0891 C6000000 		.4byte	.LFE17
 6596 0895 0400     		.2byte	0x4
 6597 0897 F3       		.byte	0xf3
 6598 0898 01       		.uleb128 0x1
 6599 0899 52       		.byte	0x52
 6600 089a 9F       		.byte	0x9f
 6601 089b 00000000 		.4byte	0
 6602 089f 00000000 		.4byte	0
 6603              	.LLST45:
 6604 08a3 00000000 		.4byte	.LVL127
 6605 08a7 34000000 		.4byte	.LVL129
 6606 08ab 0100     		.2byte	0x1
 6607 08ad 50       		.byte	0x50
 6608 08ae 34000000 		.4byte	.LVL129
 6609 08b2 36000000 		.4byte	.LVL130
 6610 08b6 0400     		.2byte	0x4
 6611 08b8 F3       		.byte	0xf3
 6612 08b9 01       		.uleb128 0x1
 6613 08ba 50       		.byte	0x50
 6614 08bb 9F       		.byte	0x9f
 6615 08bc 36000000 		.4byte	.LVL130
 6616 08c0 38000000 		.4byte	.LVL131
 6617 08c4 0100     		.2byte	0x1
 6618 08c6 50       		.byte	0x50
 6619 08c7 38000000 		.4byte	.LVL131
 6620 08cb 3A000000 		.4byte	.LVL132
 6621 08cf 0400     		.2byte	0x4
 6622 08d1 F3       		.byte	0xf3
 6623 08d2 01       		.uleb128 0x1
 6624 08d3 50       		.byte	0x50
 6625 08d4 9F       		.byte	0x9f
 6626 08d5 3A000000 		.4byte	.LVL132
 6627 08d9 3C000000 		.4byte	.LVL133
 6628 08dd 0100     		.2byte	0x1
 6629 08df 50       		.byte	0x50
 6630 08e0 3C000000 		.4byte	.LVL133
 6631 08e4 3E000000 		.4byte	.LVL134
 6632 08e8 0400     		.2byte	0x4
 6633 08ea F3       		.byte	0xf3
 6634 08eb 01       		.uleb128 0x1
 6635 08ec 50       		.byte	0x50
 6636 08ed 9F       		.byte	0x9f
 6637 08ee 3E000000 		.4byte	.LVL134
 6638 08f2 40000000 		.4byte	.LVL135
ARM GAS  C:\Users\haske\AppData\Local\Temp\cc8C2ZcK.s 			page 134


 6639 08f6 0100     		.2byte	0x1
 6640 08f8 50       		.byte	0x50
 6641 08f9 40000000 		.4byte	.LVL135
 6642 08fd 42000000 		.4byte	.LVL136
 6643 0901 0400     		.2byte	0x4
 6644 0903 F3       		.byte	0xf3
 6645 0904 01       		.uleb128 0x1
 6646 0905 50       		.byte	0x50
 6647 0906 9F       		.byte	0x9f
 6648 0907 42000000 		.4byte	.LVL136
 6649 090b 44000000 		.4byte	.LVL137
 6650 090f 0100     		.2byte	0x1
 6651 0911 50       		.byte	0x50
 6652 0912 44000000 		.4byte	.LVL137
 6653 0916 46000000 		.4byte	.LFE18
 6654 091a 0400     		.2byte	0x4
 6655 091c F3       		.byte	0xf3
 6656 091d 01       		.uleb128 0x1
 6657 091e 50       		.byte	0x50
 6658 091f 9F       		.byte	0x9f
 6659 0920 00000000 		.4byte	0
 6660 0924 00000000 		.4byte	0
 6661              	.LLST46:
 6662 0928 00000000 		.4byte	.LVL127
 6663 092c 2E000000 		.4byte	.LVL128
 6664 0930 0100     		.2byte	0x1
 6665 0932 51       		.byte	0x51
 6666 0933 2E000000 		.4byte	.LVL128
 6667 0937 36000000 		.4byte	.LVL130
 6668 093b 0400     		.2byte	0x4
 6669 093d F3       		.byte	0xf3
 6670 093e 01       		.uleb128 0x1
 6671 093f 51       		.byte	0x51
 6672 0940 9F       		.byte	0x9f
 6673 0941 36000000 		.4byte	.LVL130
 6674 0945 42000000 		.4byte	.LVL136
 6675 0949 0100     		.2byte	0x1
 6676 094b 51       		.byte	0x51
 6677 094c 42000000 		.4byte	.LVL136
 6678 0950 46000000 		.4byte	.LFE18
 6679 0954 0400     		.2byte	0x4
 6680 0956 F3       		.byte	0xf3
 6681 0957 01       		.uleb128 0x1
 6682 0958 51       		.byte	0x51
 6683 0959 9F       		.byte	0x9f
 6684 095a 00000000 		.4byte	0
 6685 095e 00000000 		.4byte	0
 6686              	.LLST47:
 6687 0962 00000000 		.4byte	.LVL138
 6688 0966 1C040000 		.4byte	.LVL264
 6689 096a 0100     		.2byte	0x1
 6690 096c 50       		.byte	0x50
 6691 096d 1C040000 		.4byte	.LVL264
 6692 0971 58040000 		.4byte	.LFE19
 6693 0975 0400     		.2byte	0x4
 6694 0977 F3       		.byte	0xf3
 6695 0978 01       		.uleb128 0x1
ARM GAS  C:\Users\haske\AppData\Local\Temp\cc8C2ZcK.s 			page 135


 6696 0979 50       		.byte	0x50
 6697 097a 9F       		.byte	0x9f
 6698 097b 00000000 		.4byte	0
 6699 097f 00000000 		.4byte	0
 6700              	.LLST48:
 6701 0983 00000000 		.4byte	.LVL138
 6702 0987 12000000 		.4byte	.LVL141
 6703 098b 0100     		.2byte	0x1
 6704 098d 52       		.byte	0x52
 6705 098e 12000000 		.4byte	.LVL141
 6706 0992 58040000 		.4byte	.LFE19
 6707 0996 0400     		.2byte	0x4
 6708 0998 F3       		.byte	0xf3
 6709 0999 01       		.uleb128 0x1
 6710 099a 52       		.byte	0x52
 6711 099b 9F       		.byte	0x9f
 6712 099c 00000000 		.4byte	0
 6713 09a0 00000000 		.4byte	0
 6714              	.LLST49:
 6715 09a4 00000000 		.4byte	.LVL138
 6716 09a8 1C000000 		.4byte	.LVL143
 6717 09ac 0100     		.2byte	0x1
 6718 09ae 53       		.byte	0x53
 6719 09af 1C000000 		.4byte	.LVL143
 6720 09b3 72000000 		.4byte	.LVL150
 6721 09b7 0400     		.2byte	0x4
 6722 09b9 F3       		.byte	0xf3
 6723 09ba 01       		.uleb128 0x1
 6724 09bb 53       		.byte	0x53
 6725 09bc 9F       		.byte	0x9f
 6726 09bd 72000000 		.4byte	.LVL150
 6727 09c1 76000000 		.4byte	.LVL151
 6728 09c5 0100     		.2byte	0x1
 6729 09c7 53       		.byte	0x53
 6730 09c8 76000000 		.4byte	.LVL151
 6731 09cc A2000000 		.4byte	.LVL155
 6732 09d0 0400     		.2byte	0x4
 6733 09d2 F3       		.byte	0xf3
 6734 09d3 01       		.uleb128 0x1
 6735 09d4 53       		.byte	0x53
 6736 09d5 9F       		.byte	0x9f
 6737 09d6 A2000000 		.4byte	.LVL155
 6738 09da A6000000 		.4byte	.LVL156
 6739 09de 0100     		.2byte	0x1
 6740 09e0 53       		.byte	0x53
 6741 09e1 A6000000 		.4byte	.LVL156
 6742 09e5 C6000000 		.4byte	.LVL160
 6743 09e9 0400     		.2byte	0x4
 6744 09eb F3       		.byte	0xf3
 6745 09ec 01       		.uleb128 0x1
 6746 09ed 53       		.byte	0x53
 6747 09ee 9F       		.byte	0x9f
 6748 09ef C6000000 		.4byte	.LVL160
 6749 09f3 CA000000 		.4byte	.LVL161
 6750 09f7 0100     		.2byte	0x1
 6751 09f9 53       		.byte	0x53
 6752 09fa CA000000 		.4byte	.LVL161
ARM GAS  C:\Users\haske\AppData\Local\Temp\cc8C2ZcK.s 			page 136


 6753 09fe EA000000 		.4byte	.LVL165
 6754 0a02 0400     		.2byte	0x4
 6755 0a04 F3       		.byte	0xf3
 6756 0a05 01       		.uleb128 0x1
 6757 0a06 53       		.byte	0x53
 6758 0a07 9F       		.byte	0x9f
 6759 0a08 EA000000 		.4byte	.LVL165
 6760 0a0c EE000000 		.4byte	.LVL166
 6761 0a10 0100     		.2byte	0x1
 6762 0a12 53       		.byte	0x53
 6763 0a13 EE000000 		.4byte	.LVL166
 6764 0a17 38010000 		.4byte	.LVL173
 6765 0a1b 0400     		.2byte	0x4
 6766 0a1d F3       		.byte	0xf3
 6767 0a1e 01       		.uleb128 0x1
 6768 0a1f 53       		.byte	0x53
 6769 0a20 9F       		.byte	0x9f
 6770 0a21 38010000 		.4byte	.LVL173
 6771 0a25 3C010000 		.4byte	.LVL174
 6772 0a29 0100     		.2byte	0x1
 6773 0a2b 53       		.byte	0x53
 6774 0a2c 3C010000 		.4byte	.LVL174
 6775 0a30 7A010000 		.4byte	.LVL181
 6776 0a34 0400     		.2byte	0x4
 6777 0a36 F3       		.byte	0xf3
 6778 0a37 01       		.uleb128 0x1
 6779 0a38 53       		.byte	0x53
 6780 0a39 9F       		.byte	0x9f
 6781 0a3a 7A010000 		.4byte	.LVL181
 6782 0a3e 7E010000 		.4byte	.LVL182
 6783 0a42 0100     		.2byte	0x1
 6784 0a44 53       		.byte	0x53
 6785 0a45 7E010000 		.4byte	.LVL182
 6786 0a49 AA010000 		.4byte	.LVL186
 6787 0a4d 0400     		.2byte	0x4
 6788 0a4f F3       		.byte	0xf3
 6789 0a50 01       		.uleb128 0x1
 6790 0a51 53       		.byte	0x53
 6791 0a52 9F       		.byte	0x9f
 6792 0a53 AA010000 		.4byte	.LVL186
 6793 0a57 AE010000 		.4byte	.LVL187
 6794 0a5b 0100     		.2byte	0x1
 6795 0a5d 53       		.byte	0x53
 6796 0a5e AE010000 		.4byte	.LVL187
 6797 0a62 F8010000 		.4byte	.LVL194
 6798 0a66 0400     		.2byte	0x4
 6799 0a68 F3       		.byte	0xf3
 6800 0a69 01       		.uleb128 0x1
 6801 0a6a 53       		.byte	0x53
 6802 0a6b 9F       		.byte	0x9f
 6803 0a6c F8010000 		.4byte	.LVL194
 6804 0a70 FC010000 		.4byte	.LVL195
 6805 0a74 0100     		.2byte	0x1
 6806 0a76 53       		.byte	0x53
 6807 0a77 FC010000 		.4byte	.LVL195
 6808 0a7b 0E020000 		.4byte	.LVL198
 6809 0a7f 0400     		.2byte	0x4
ARM GAS  C:\Users\haske\AppData\Local\Temp\cc8C2ZcK.s 			page 137


 6810 0a81 F3       		.byte	0xf3
 6811 0a82 01       		.uleb128 0x1
 6812 0a83 53       		.byte	0x53
 6813 0a84 9F       		.byte	0x9f
 6814 0a85 0E020000 		.4byte	.LVL198
 6815 0a89 12020000 		.4byte	.LVL199
 6816 0a8d 0100     		.2byte	0x1
 6817 0a8f 53       		.byte	0x53
 6818 0a90 12020000 		.4byte	.LVL199
 6819 0a94 4E020000 		.4byte	.LVL205
 6820 0a98 0400     		.2byte	0x4
 6821 0a9a F3       		.byte	0xf3
 6822 0a9b 01       		.uleb128 0x1
 6823 0a9c 53       		.byte	0x53
 6824 0a9d 9F       		.byte	0x9f
 6825 0a9e 4E020000 		.4byte	.LVL205
 6826 0aa2 52020000 		.4byte	.LVL206
 6827 0aa6 0100     		.2byte	0x1
 6828 0aa8 53       		.byte	0x53
 6829 0aa9 52020000 		.4byte	.LVL206
 6830 0aad 82020000 		.4byte	.LVL212
 6831 0ab1 0400     		.2byte	0x4
 6832 0ab3 F3       		.byte	0xf3
 6833 0ab4 01       		.uleb128 0x1
 6834 0ab5 53       		.byte	0x53
 6835 0ab6 9F       		.byte	0x9f
 6836 0ab7 82020000 		.4byte	.LVL212
 6837 0abb 86020000 		.4byte	.LVL213
 6838 0abf 0100     		.2byte	0x1
 6839 0ac1 53       		.byte	0x53
 6840 0ac2 86020000 		.4byte	.LVL213
 6841 0ac6 94020000 		.4byte	.LVL215
 6842 0aca 0400     		.2byte	0x4
 6843 0acc F3       		.byte	0xf3
 6844 0acd 01       		.uleb128 0x1
 6845 0ace 53       		.byte	0x53
 6846 0acf 9F       		.byte	0x9f
 6847 0ad0 94020000 		.4byte	.LVL215
 6848 0ad4 98020000 		.4byte	.LVL216
 6849 0ad8 0100     		.2byte	0x1
 6850 0ada 53       		.byte	0x53
 6851 0adb 98020000 		.4byte	.LVL216
 6852 0adf D0020000 		.4byte	.LVL221
 6853 0ae3 0400     		.2byte	0x4
 6854 0ae5 F3       		.byte	0xf3
 6855 0ae6 01       		.uleb128 0x1
 6856 0ae7 53       		.byte	0x53
 6857 0ae8 9F       		.byte	0x9f
 6858 0ae9 D0020000 		.4byte	.LVL221
 6859 0aed D4020000 		.4byte	.LVL222
 6860 0af1 0100     		.2byte	0x1
 6861 0af3 53       		.byte	0x53
 6862 0af4 D4020000 		.4byte	.LVL222
 6863 0af8 00030000 		.4byte	.LVL227
 6864 0afc 0400     		.2byte	0x4
 6865 0afe F3       		.byte	0xf3
 6866 0aff 01       		.uleb128 0x1
ARM GAS  C:\Users\haske\AppData\Local\Temp\cc8C2ZcK.s 			page 138


 6867 0b00 53       		.byte	0x53
 6868 0b01 9F       		.byte	0x9f
 6869 0b02 00030000 		.4byte	.LVL227
 6870 0b06 04030000 		.4byte	.LVL228
 6871 0b0a 0100     		.2byte	0x1
 6872 0b0c 53       		.byte	0x53
 6873 0b0d 04030000 		.4byte	.LVL228
 6874 0b11 16030000 		.4byte	.LVL231
 6875 0b15 0400     		.2byte	0x4
 6876 0b17 F3       		.byte	0xf3
 6877 0b18 01       		.uleb128 0x1
 6878 0b19 53       		.byte	0x53
 6879 0b1a 9F       		.byte	0x9f
 6880 0b1b 16030000 		.4byte	.LVL231
 6881 0b1f 1A030000 		.4byte	.LVL232
 6882 0b23 0100     		.2byte	0x1
 6883 0b25 53       		.byte	0x53
 6884 0b26 1A030000 		.4byte	.LVL232
 6885 0b2a 56030000 		.4byte	.LVL238
 6886 0b2e 0400     		.2byte	0x4
 6887 0b30 F3       		.byte	0xf3
 6888 0b31 01       		.uleb128 0x1
 6889 0b32 53       		.byte	0x53
 6890 0b33 9F       		.byte	0x9f
 6891 0b34 56030000 		.4byte	.LVL238
 6892 0b38 5A030000 		.4byte	.LVL239
 6893 0b3c 0100     		.2byte	0x1
 6894 0b3e 53       		.byte	0x53
 6895 0b3f 5A030000 		.4byte	.LVL239
 6896 0b43 8A030000 		.4byte	.LVL245
 6897 0b47 0400     		.2byte	0x4
 6898 0b49 F3       		.byte	0xf3
 6899 0b4a 01       		.uleb128 0x1
 6900 0b4b 53       		.byte	0x53
 6901 0b4c 9F       		.byte	0x9f
 6902 0b4d 8A030000 		.4byte	.LVL245
 6903 0b51 8E030000 		.4byte	.LVL246
 6904 0b55 0100     		.2byte	0x1
 6905 0b57 53       		.byte	0x53
 6906 0b58 8E030000 		.4byte	.LVL246
 6907 0b5c 9C030000 		.4byte	.LVL248
 6908 0b60 0400     		.2byte	0x4
 6909 0b62 F3       		.byte	0xf3
 6910 0b63 01       		.uleb128 0x1
 6911 0b64 53       		.byte	0x53
 6912 0b65 9F       		.byte	0x9f
 6913 0b66 9C030000 		.4byte	.LVL248
 6914 0b6a A0030000 		.4byte	.LVL249
 6915 0b6e 0100     		.2byte	0x1
 6916 0b70 53       		.byte	0x53
 6917 0b71 A0030000 		.4byte	.LVL249
 6918 0b75 DC030000 		.4byte	.LVL254
 6919 0b79 0400     		.2byte	0x4
 6920 0b7b F3       		.byte	0xf3
 6921 0b7c 01       		.uleb128 0x1
 6922 0b7d 53       		.byte	0x53
 6923 0b7e 9F       		.byte	0x9f
ARM GAS  C:\Users\haske\AppData\Local\Temp\cc8C2ZcK.s 			page 139


 6924 0b7f DC030000 		.4byte	.LVL254
 6925 0b83 E0030000 		.4byte	.LVL255
 6926 0b87 0100     		.2byte	0x1
 6927 0b89 53       		.byte	0x53
 6928 0b8a E0030000 		.4byte	.LVL255
 6929 0b8e 0C040000 		.4byte	.LVL260
 6930 0b92 0400     		.2byte	0x4
 6931 0b94 F3       		.byte	0xf3
 6932 0b95 01       		.uleb128 0x1
 6933 0b96 53       		.byte	0x53
 6934 0b97 9F       		.byte	0x9f
 6935 0b98 0C040000 		.4byte	.LVL260
 6936 0b9c 10040000 		.4byte	.LVL261
 6937 0ba0 0100     		.2byte	0x1
 6938 0ba2 53       		.byte	0x53
 6939 0ba3 10040000 		.4byte	.LVL261
 6940 0ba7 58040000 		.4byte	.LFE19
 6941 0bab 0400     		.2byte	0x4
 6942 0bad F3       		.byte	0xf3
 6943 0bae 01       		.uleb128 0x1
 6944 0baf 53       		.byte	0x53
 6945 0bb0 9F       		.byte	0x9f
 6946 0bb1 00000000 		.4byte	0
 6947 0bb5 00000000 		.4byte	0
 6948              	.LLST50:
 6949 0bb9 00000000 		.4byte	.LVL138
 6950 0bbd 06000000 		.4byte	.LVL139
 6951 0bc1 0200     		.2byte	0x2
 6952 0bc3 91       		.byte	0x91
 6953 0bc4 00       		.sleb128 0
 6954 0bc5 06000000 		.4byte	.LVL139
 6955 0bc9 0A000000 		.4byte	.LVL140
 6956 0bcd 0200     		.2byte	0x2
 6957 0bcf 74       		.byte	0x74
 6958 0bd0 00       		.sleb128 0
 6959 0bd1 0A000000 		.4byte	.LVL140
 6960 0bd5 58040000 		.4byte	.LFE19
 6961 0bd9 0200     		.2byte	0x2
 6962 0bdb 91       		.byte	0x91
 6963 0bdc 00       		.sleb128 0
 6964 0bdd 00000000 		.4byte	0
 6965 0be1 00000000 		.4byte	0
 6966              	.LLST51:
 6967 0be5 44000000 		.4byte	.LVL146
 6968 0be9 72000000 		.4byte	.LVL150
 6969 0bed 0100     		.2byte	0x1
 6970 0bef 57       		.byte	0x57
 6971 0bf0 9E000000 		.4byte	.LVL154
 6972 0bf4 A2000000 		.4byte	.LVL155
 6973 0bf8 0100     		.2byte	0x1
 6974 0bfa 57       		.byte	0x57
 6975 0bfb C2000000 		.4byte	.LVL159
 6976 0bff C6000000 		.4byte	.LVL160
 6977 0c03 0100     		.2byte	0x1
 6978 0c05 57       		.byte	0x57
 6979 0c06 C6000000 		.4byte	.LVL160
 6980 0c0a EA000000 		.4byte	.LVL165
ARM GAS  C:\Users\haske\AppData\Local\Temp\cc8C2ZcK.s 			page 140


 6981 0c0e 0200     		.2byte	0x2
 6982 0c10 30       		.byte	0x30
 6983 0c11 9F       		.byte	0x9f
 6984 0c12 16010000 		.4byte	.LVL169
 6985 0c16 38010000 		.4byte	.LVL173
 6986 0c1a 0100     		.2byte	0x1
 6987 0c1c 57       		.byte	0x57
 6988 0c1d 58010000 		.4byte	.LVL177
 6989 0c21 7A010000 		.4byte	.LVL181
 6990 0c25 0100     		.2byte	0x1
 6991 0c27 57       		.byte	0x57
 6992 0c28 7A010000 		.4byte	.LVL181
 6993 0c2c AA010000 		.4byte	.LVL186
 6994 0c30 0200     		.2byte	0x2
 6995 0c32 30       		.byte	0x30
 6996 0c33 9F       		.byte	0x9f
 6997 0c34 CA010000 		.4byte	.LVL190
 6998 0c38 F8010000 		.4byte	.LVL194
 6999 0c3c 0100     		.2byte	0x1
 7000 0c3e 57       		.byte	0x57
 7001 0c3f F8010000 		.4byte	.LVL194
 7002 0c43 0E020000 		.4byte	.LVL198
 7003 0c47 0200     		.2byte	0x2
 7004 0c49 30       		.byte	0x30
 7005 0c4a 9F       		.byte	0x9f
 7006 0c4b 3A020000 		.4byte	.LVL202
 7007 0c4f 4E020000 		.4byte	.LVL205
 7008 0c53 0100     		.2byte	0x1
 7009 0c55 57       		.byte	0x57
 7010 0c56 6E020000 		.4byte	.LVL209
 7011 0c5a 82020000 		.4byte	.LVL212
 7012 0c5e 0100     		.2byte	0x1
 7013 0c60 57       		.byte	0x57
 7014 0c61 82020000 		.4byte	.LVL212
 7015 0c65 94020000 		.4byte	.LVL215
 7016 0c69 0200     		.2byte	0x2
 7017 0c6b 30       		.byte	0x30
 7018 0c6c 9F       		.byte	0x9f
 7019 0c6d C0020000 		.4byte	.LVL219
 7020 0c71 D0020000 		.4byte	.LVL221
 7021 0c75 0100     		.2byte	0x1
 7022 0c77 57       		.byte	0x57
 7023 0c78 F0020000 		.4byte	.LVL225
 7024 0c7c 00030000 		.4byte	.LVL227
 7025 0c80 0100     		.2byte	0x1
 7026 0c82 57       		.byte	0x57
 7027 0c83 12030000 		.4byte	.LVL230
 7028 0c87 16030000 		.4byte	.LVL231
 7029 0c8b 0100     		.2byte	0x1
 7030 0c8d 57       		.byte	0x57
 7031 0c8e 28030000 		.4byte	.LVL234
 7032 0c92 56030000 		.4byte	.LVL238
 7033 0c96 0100     		.2byte	0x1
 7034 0c98 57       		.byte	0x57
 7035 0c99 68030000 		.4byte	.LVL241
 7036 0c9d 8A030000 		.4byte	.LVL245
 7037 0ca1 0100     		.2byte	0x1
ARM GAS  C:\Users\haske\AppData\Local\Temp\cc8C2ZcK.s 			page 141


 7038 0ca3 57       		.byte	0x57
 7039 0ca4 10040000 		.4byte	.LVL261
 7040 0ca8 16040000 		.4byte	.LVL262
 7041 0cac 0100     		.2byte	0x1
 7042 0cae 57       		.byte	0x57
 7043 0caf 18040000 		.4byte	.LVL263
 7044 0cb3 56040000 		.4byte	.LVL269
 7045 0cb7 0100     		.2byte	0x1
 7046 0cb9 57       		.byte	0x57
 7047 0cba 00000000 		.4byte	0
 7048 0cbe 00000000 		.4byte	0
 7049              	.LLST52:
 7050 0cc2 70000000 		.4byte	.LVL149
 7051 0cc6 72000000 		.4byte	.LVL150
 7052 0cca 0100     		.2byte	0x1
 7053 0ccc 54       		.byte	0x54
 7054 0ccd 9E000000 		.4byte	.LVL154
 7055 0cd1 A2000000 		.4byte	.LVL155
 7056 0cd5 0200     		.2byte	0x2
 7057 0cd7 30       		.byte	0x30
 7058 0cd8 9F       		.byte	0x9f
 7059 0cd9 C2000000 		.4byte	.LVL159
 7060 0cdd C6000000 		.4byte	.LVL160
 7061 0ce1 0200     		.2byte	0x2
 7062 0ce3 30       		.byte	0x30
 7063 0ce4 9F       		.byte	0x9f
 7064 0ce5 E6000000 		.4byte	.LVL164
 7065 0ce9 EA000000 		.4byte	.LVL165
 7066 0ced 0100     		.2byte	0x1
 7067 0cef 54       		.byte	0x54
 7068 0cf0 36010000 		.4byte	.LVL172
 7069 0cf4 38010000 		.4byte	.LVL173
 7070 0cf8 0100     		.2byte	0x1
 7071 0cfa 54       		.byte	0x54
 7072 0cfb 78010000 		.4byte	.LVL180
 7073 0cff 7A010000 		.4byte	.LVL181
 7074 0d03 0100     		.2byte	0x1
 7075 0d05 54       		.byte	0x54
 7076 0d06 A6010000 		.4byte	.LVL185
 7077 0d0a AA010000 		.4byte	.LVL186
 7078 0d0e 0100     		.2byte	0x1
 7079 0d10 54       		.byte	0x54
 7080 0d11 F6010000 		.4byte	.LVL193
 7081 0d15 F8010000 		.4byte	.LVL194
 7082 0d19 0100     		.2byte	0x1
 7083 0d1b 54       		.byte	0x54
 7084 0d1c 0A020000 		.4byte	.LVL197
 7085 0d20 0E020000 		.4byte	.LVL198
 7086 0d24 0100     		.2byte	0x1
 7087 0d26 54       		.byte	0x54
 7088 0d27 4C020000 		.4byte	.LVL204
 7089 0d2b 4E020000 		.4byte	.LVL205
 7090 0d2f 0100     		.2byte	0x1
 7091 0d31 54       		.byte	0x54
 7092 0d32 80020000 		.4byte	.LVL211
 7093 0d36 82020000 		.4byte	.LVL212
 7094 0d3a 0100     		.2byte	0x1
ARM GAS  C:\Users\haske\AppData\Local\Temp\cc8C2ZcK.s 			page 142


 7095 0d3c 54       		.byte	0x54
 7096 0d3d 12030000 		.4byte	.LVL230
 7097 0d41 16030000 		.4byte	.LVL231
 7098 0d45 0200     		.2byte	0x2
 7099 0d47 30       		.byte	0x30
 7100 0d48 9F       		.byte	0x9f
 7101 0d49 54030000 		.4byte	.LVL237
 7102 0d4d 56030000 		.4byte	.LVL238
 7103 0d51 0100     		.2byte	0x1
 7104 0d53 54       		.byte	0x54
 7105 0d54 88030000 		.4byte	.LVL244
 7106 0d58 8A030000 		.4byte	.LVL245
 7107 0d5c 0100     		.2byte	0x1
 7108 0d5e 54       		.byte	0x54
 7109 0d5f 98030000 		.4byte	.LVL247
 7110 0d63 9C030000 		.4byte	.LVL248
 7111 0d67 0200     		.2byte	0x2
 7112 0d69 30       		.byte	0x30
 7113 0d6a 9F       		.byte	0x9f
 7114 0d6b D6030000 		.4byte	.LVL253
 7115 0d6f DC030000 		.4byte	.LVL254
 7116 0d73 0100     		.2byte	0x1
 7117 0d75 54       		.byte	0x54
 7118 0d76 0A040000 		.4byte	.LVL259
 7119 0d7a 0C040000 		.4byte	.LVL260
 7120 0d7e 0100     		.2byte	0x1
 7121 0d80 54       		.byte	0x54
 7122 0d81 10040000 		.4byte	.LVL261
 7123 0d85 20040000 		.4byte	.LVL265
 7124 0d89 0100     		.2byte	0x1
 7125 0d8b 54       		.byte	0x54
 7126 0d8c 20040000 		.4byte	.LVL265
 7127 0d90 46040000 		.4byte	.LVL268
 7128 0d94 0100     		.2byte	0x1
 7129 0d96 52       		.byte	0x52
 7130 0d97 00000000 		.4byte	0
 7131 0d9b 00000000 		.4byte	0
 7132              	.LLST53:
 7133 0d9f 18000000 		.4byte	.LVL142
 7134 0da3 26000000 		.4byte	.LVL144
 7135 0da7 0100     		.2byte	0x1
 7136 0da9 50       		.byte	0x50
 7137 0daa 00000000 		.4byte	0
 7138 0dae 00000000 		.4byte	0
 7139              	.LLST54:
 7140 0db2 26000000 		.4byte	.LVL144
 7141 0db6 34000000 		.4byte	.LVL145
 7142 0dba 0100     		.2byte	0x1
 7143 0dbc 51       		.byte	0x51
 7144 0dbd 00000000 		.4byte	0
 7145 0dc1 00000000 		.4byte	0
 7146              	.LLST55:
 7147 0dc5 44000000 		.4byte	.LVL146
 7148 0dc9 52000000 		.4byte	.LVL147
 7149 0dcd 0100     		.2byte	0x1
 7150 0dcf 50       		.byte	0x50
 7151 0dd0 00000000 		.4byte	0
ARM GAS  C:\Users\haske\AppData\Local\Temp\cc8C2ZcK.s 			page 143


 7152 0dd4 00000000 		.4byte	0
 7153              	.LLST56:
 7154 0dd8 52000000 		.4byte	.LVL147
 7155 0ddc 60000000 		.4byte	.LVL148
 7156 0de0 0100     		.2byte	0x1
 7157 0de2 51       		.byte	0x51
 7158 0de3 00000000 		.4byte	0
 7159 0de7 00000000 		.4byte	0
 7160              	.LLST57:
 7161 0deb 72000000 		.4byte	.LVL150
 7162 0def 80000000 		.4byte	.LVL152
 7163 0df3 0100     		.2byte	0x1
 7164 0df5 50       		.byte	0x50
 7165 0df6 00000000 		.4byte	0
 7166 0dfa 00000000 		.4byte	0
 7167              	.LLST58:
 7168 0dfe 80000000 		.4byte	.LVL152
 7169 0e02 8E000000 		.4byte	.LVL153
 7170 0e06 0100     		.2byte	0x1
 7171 0e08 51       		.byte	0x51
 7172 0e09 00000000 		.4byte	0
 7173 0e0d 00000000 		.4byte	0
 7174              	.LLST59:
 7175 0e11 A2000000 		.4byte	.LVL155
 7176 0e15 B0000000 		.4byte	.LVL157
 7177 0e19 0100     		.2byte	0x1
 7178 0e1b 50       		.byte	0x50
 7179 0e1c 00000000 		.4byte	0
 7180 0e20 00000000 		.4byte	0
 7181              	.LLST60:
 7182 0e24 B0000000 		.4byte	.LVL157
 7183 0e28 BE000000 		.4byte	.LVL158
 7184 0e2c 0100     		.2byte	0x1
 7185 0e2e 51       		.byte	0x51
 7186 0e2f 00000000 		.4byte	0
 7187 0e33 00000000 		.4byte	0
 7188              	.LLST61:
 7189 0e37 C6000000 		.4byte	.LVL160
 7190 0e3b D4000000 		.4byte	.LVL162
 7191 0e3f 0100     		.2byte	0x1
 7192 0e41 50       		.byte	0x50
 7193 0e42 00000000 		.4byte	0
 7194 0e46 00000000 		.4byte	0
 7195              	.LLST62:
 7196 0e4a D4000000 		.4byte	.LVL162
 7197 0e4e E2000000 		.4byte	.LVL163
 7198 0e52 0100     		.2byte	0x1
 7199 0e54 51       		.byte	0x51
 7200 0e55 00000000 		.4byte	0
 7201 0e59 00000000 		.4byte	0
 7202              	.LLST63:
 7203 0e5d EA000000 		.4byte	.LVL165
 7204 0e61 F8000000 		.4byte	.LVL167
 7205 0e65 0100     		.2byte	0x1
 7206 0e67 50       		.byte	0x50
 7207 0e68 00000000 		.4byte	0
 7208 0e6c 00000000 		.4byte	0
ARM GAS  C:\Users\haske\AppData\Local\Temp\cc8C2ZcK.s 			page 144


 7209              	.LLST64:
 7210 0e70 F8000000 		.4byte	.LVL167
 7211 0e74 06010000 		.4byte	.LVL168
 7212 0e78 0100     		.2byte	0x1
 7213 0e7a 51       		.byte	0x51
 7214 0e7b 00000000 		.4byte	0
 7215 0e7f 00000000 		.4byte	0
 7216              	.LLST65:
 7217 0e83 16010000 		.4byte	.LVL169
 7218 0e87 24010000 		.4byte	.LVL170
 7219 0e8b 0100     		.2byte	0x1
 7220 0e8d 50       		.byte	0x50
 7221 0e8e 00000000 		.4byte	0
 7222 0e92 00000000 		.4byte	0
 7223              	.LLST66:
 7224 0e96 24010000 		.4byte	.LVL170
 7225 0e9a 32010000 		.4byte	.LVL171
 7226 0e9e 0100     		.2byte	0x1
 7227 0ea0 51       		.byte	0x51
 7228 0ea1 00000000 		.4byte	0
 7229 0ea5 00000000 		.4byte	0
 7230              	.LLST67:
 7231 0ea9 38010000 		.4byte	.LVL173
 7232 0ead 46010000 		.4byte	.LVL175
 7233 0eb1 0100     		.2byte	0x1
 7234 0eb3 50       		.byte	0x50
 7235 0eb4 00000000 		.4byte	0
 7236 0eb8 00000000 		.4byte	0
 7237              	.LLST68:
 7238 0ebc 46010000 		.4byte	.LVL175
 7239 0ec0 54010000 		.4byte	.LVL176
 7240 0ec4 0100     		.2byte	0x1
 7241 0ec6 51       		.byte	0x51
 7242 0ec7 00000000 		.4byte	0
 7243 0ecb 00000000 		.4byte	0
 7244              	.LLST69:
 7245 0ecf 58010000 		.4byte	.LVL177
 7246 0ed3 66010000 		.4byte	.LVL178
 7247 0ed7 0100     		.2byte	0x1
 7248 0ed9 50       		.byte	0x50
 7249 0eda 00000000 		.4byte	0
 7250 0ede 00000000 		.4byte	0
 7251              	.LLST70:
 7252 0ee2 66010000 		.4byte	.LVL178
 7253 0ee6 74010000 		.4byte	.LVL179
 7254 0eea 0100     		.2byte	0x1
 7255 0eec 51       		.byte	0x51
 7256 0eed 00000000 		.4byte	0
 7257 0ef1 00000000 		.4byte	0
 7258              	.LLST71:
 7259 0ef5 7A010000 		.4byte	.LVL181
 7260 0ef9 88010000 		.4byte	.LVL183
 7261 0efd 0100     		.2byte	0x1
 7262 0eff 50       		.byte	0x50
 7263 0f00 00000000 		.4byte	0
 7264 0f04 00000000 		.4byte	0
 7265              	.LLST72:
ARM GAS  C:\Users\haske\AppData\Local\Temp\cc8C2ZcK.s 			page 145


 7266 0f08 88010000 		.4byte	.LVL183
 7267 0f0c 96010000 		.4byte	.LVL184
 7268 0f10 0100     		.2byte	0x1
 7269 0f12 51       		.byte	0x51
 7270 0f13 00000000 		.4byte	0
 7271 0f17 00000000 		.4byte	0
 7272              	.LLST73:
 7273 0f1b AA010000 		.4byte	.LVL186
 7274 0f1f B8010000 		.4byte	.LVL188
 7275 0f23 0100     		.2byte	0x1
 7276 0f25 50       		.byte	0x50
 7277 0f26 00000000 		.4byte	0
 7278 0f2a 00000000 		.4byte	0
 7279              	.LLST74:
 7280 0f2e B8010000 		.4byte	.LVL188
 7281 0f32 C6010000 		.4byte	.LVL189
 7282 0f36 0100     		.2byte	0x1
 7283 0f38 51       		.byte	0x51
 7284 0f39 00000000 		.4byte	0
 7285 0f3d 00000000 		.4byte	0
 7286              	.LLST75:
 7287 0f41 CA010000 		.4byte	.LVL190
 7288 0f45 D8010000 		.4byte	.LVL191
 7289 0f49 0100     		.2byte	0x1
 7290 0f4b 50       		.byte	0x50
 7291 0f4c 00000000 		.4byte	0
 7292 0f50 00000000 		.4byte	0
 7293              	.LLST76:
 7294 0f54 D8010000 		.4byte	.LVL191
 7295 0f58 E6010000 		.4byte	.LVL192
 7296 0f5c 0100     		.2byte	0x1
 7297 0f5e 51       		.byte	0x51
 7298 0f5f 00000000 		.4byte	0
 7299 0f63 00000000 		.4byte	0
 7300              	.LLST77:
 7301 0f67 F8010000 		.4byte	.LVL194
 7302 0f6b 06020000 		.4byte	.LVL196
 7303 0f6f 0100     		.2byte	0x1
 7304 0f71 51       		.byte	0x51
 7305 0f72 00000000 		.4byte	0
 7306 0f76 00000000 		.4byte	0
 7307              	.LLST78:
 7308 0f7a 0E020000 		.4byte	.LVL198
 7309 0f7e 1C020000 		.4byte	.LVL200
 7310 0f82 0100     		.2byte	0x1
 7311 0f84 50       		.byte	0x50
 7312 0f85 00000000 		.4byte	0
 7313 0f89 00000000 		.4byte	0
 7314              	.LLST79:
 7315 0f8d 1C020000 		.4byte	.LVL200
 7316 0f91 2A020000 		.4byte	.LVL201
 7317 0f95 0100     		.2byte	0x1
 7318 0f97 51       		.byte	0x51
 7319 0f98 00000000 		.4byte	0
 7320 0f9c 00000000 		.4byte	0
 7321              	.LLST80:
 7322 0fa0 3A020000 		.4byte	.LVL202
ARM GAS  C:\Users\haske\AppData\Local\Temp\cc8C2ZcK.s 			page 146


 7323 0fa4 48020000 		.4byte	.LVL203
 7324 0fa8 0100     		.2byte	0x1
 7325 0faa 51       		.byte	0x51
 7326 0fab 00000000 		.4byte	0
 7327 0faf 00000000 		.4byte	0
 7328              	.LLST81:
 7329 0fb3 4E020000 		.4byte	.LVL205
 7330 0fb7 5C020000 		.4byte	.LVL207
 7331 0fbb 0100     		.2byte	0x1
 7332 0fbd 50       		.byte	0x50
 7333 0fbe 00000000 		.4byte	0
 7334 0fc2 00000000 		.4byte	0
 7335              	.LLST82:
 7336 0fc6 5C020000 		.4byte	.LVL207
 7337 0fca 6A020000 		.4byte	.LVL208
 7338 0fce 0100     		.2byte	0x1
 7339 0fd0 51       		.byte	0x51
 7340 0fd1 00000000 		.4byte	0
 7341 0fd5 00000000 		.4byte	0
 7342              	.LLST83:
 7343 0fd9 6E020000 		.4byte	.LVL209
 7344 0fdd 7C020000 		.4byte	.LVL210
 7345 0fe1 0100     		.2byte	0x1
 7346 0fe3 51       		.byte	0x51
 7347 0fe4 00000000 		.4byte	0
 7348 0fe8 00000000 		.4byte	0
 7349              	.LLST84:
 7350 0fec 82020000 		.4byte	.LVL212
 7351 0ff0 90020000 		.4byte	.LVL214
 7352 0ff4 0100     		.2byte	0x1
 7353 0ff6 50       		.byte	0x50
 7354 0ff7 00000000 		.4byte	0
 7355 0ffb 00000000 		.4byte	0
 7356              	.LLST85:
 7357 0fff 94020000 		.4byte	.LVL215
 7358 1003 A2020000 		.4byte	.LVL217
 7359 1007 0100     		.2byte	0x1
 7360 1009 50       		.byte	0x50
 7361 100a 00000000 		.4byte	0
 7362 100e 00000000 		.4byte	0
 7363              	.LLST86:
 7364 1012 A2020000 		.4byte	.LVL217
 7365 1016 B0020000 		.4byte	.LVL218
 7366 101a 0100     		.2byte	0x1
 7367 101c 51       		.byte	0x51
 7368 101d 00000000 		.4byte	0
 7369 1021 00000000 		.4byte	0
 7370              	.LLST87:
 7371 1025 C0020000 		.4byte	.LVL219
 7372 1029 CE020000 		.4byte	.LVL220
 7373 102d 0100     		.2byte	0x1
 7374 102f 50       		.byte	0x50
 7375 1030 00000000 		.4byte	0
 7376 1034 00000000 		.4byte	0
 7377              	.LLST88:
 7378 1038 D0020000 		.4byte	.LVL221
 7379 103c DE020000 		.4byte	.LVL223
ARM GAS  C:\Users\haske\AppData\Local\Temp\cc8C2ZcK.s 			page 147


 7380 1040 0100     		.2byte	0x1
 7381 1042 50       		.byte	0x50
 7382 1043 00000000 		.4byte	0
 7383 1047 00000000 		.4byte	0
 7384              	.LLST89:
 7385 104b DE020000 		.4byte	.LVL223
 7386 104f EC020000 		.4byte	.LVL224
 7387 1053 0100     		.2byte	0x1
 7388 1055 51       		.byte	0x51
 7389 1056 00000000 		.4byte	0
 7390 105a 00000000 		.4byte	0
 7391              	.LLST90:
 7392 105e F0020000 		.4byte	.LVL225
 7393 1062 FE020000 		.4byte	.LVL226
 7394 1066 0100     		.2byte	0x1
 7395 1068 50       		.byte	0x50
 7396 1069 00000000 		.4byte	0
 7397 106d 00000000 		.4byte	0
 7398              	.LLST91:
 7399 1071 00030000 		.4byte	.LVL227
 7400 1075 0E030000 		.4byte	.LVL229
 7401 1079 0100     		.2byte	0x1
 7402 107b 51       		.byte	0x51
 7403 107c 00000000 		.4byte	0
 7404 1080 00000000 		.4byte	0
 7405              	.LLST92:
 7406 1084 16030000 		.4byte	.LVL231
 7407 1088 24030000 		.4byte	.LVL233
 7408 108c 0100     		.2byte	0x1
 7409 108e 51       		.byte	0x51
 7410 108f 00000000 		.4byte	0
 7411 1093 00000000 		.4byte	0
 7412              	.LLST93:
 7413 1097 28030000 		.4byte	.LVL234
 7414 109b 36030000 		.4byte	.LVL235
 7415 109f 0100     		.2byte	0x1
 7416 10a1 50       		.byte	0x50
 7417 10a2 00000000 		.4byte	0
 7418 10a6 00000000 		.4byte	0
 7419              	.LLST94:
 7420 10aa 36030000 		.4byte	.LVL235
 7421 10ae 44030000 		.4byte	.LVL236
 7422 10b2 0100     		.2byte	0x1
 7423 10b4 51       		.byte	0x51
 7424 10b5 00000000 		.4byte	0
 7425 10b9 00000000 		.4byte	0
 7426              	.LLST95:
 7427 10bd 56030000 		.4byte	.LVL238
 7428 10c1 64030000 		.4byte	.LVL240
 7429 10c5 0100     		.2byte	0x1
 7430 10c7 51       		.byte	0x51
 7431 10c8 00000000 		.4byte	0
 7432 10cc 00000000 		.4byte	0
 7433              	.LLST96:
 7434 10d0 68030000 		.4byte	.LVL241
 7435 10d4 76030000 		.4byte	.LVL242
 7436 10d8 0100     		.2byte	0x1
ARM GAS  C:\Users\haske\AppData\Local\Temp\cc8C2ZcK.s 			page 148


 7437 10da 50       		.byte	0x50
 7438 10db 00000000 		.4byte	0
 7439 10df 00000000 		.4byte	0
 7440              	.LLST97:
 7441 10e3 76030000 		.4byte	.LVL242
 7442 10e7 84030000 		.4byte	.LVL243
 7443 10eb 0100     		.2byte	0x1
 7444 10ed 51       		.byte	0x51
 7445 10ee 00000000 		.4byte	0
 7446 10f2 00000000 		.4byte	0
 7447              	.LLST98:
 7448 10f6 8A030000 		.4byte	.LVL245
 7449 10fa 98030000 		.4byte	.LVL247
 7450 10fe 0100     		.2byte	0x1
 7451 1100 50       		.byte	0x50
 7452 1101 00000000 		.4byte	0
 7453 1105 00000000 		.4byte	0
 7454              	.LLST99:
 7455 1109 9C030000 		.4byte	.LVL248
 7456 110d AA030000 		.4byte	.LVL250
 7457 1111 0100     		.2byte	0x1
 7458 1113 50       		.byte	0x50
 7459 1114 00000000 		.4byte	0
 7460 1118 00000000 		.4byte	0
 7461              	.LLST100:
 7462 111c AA030000 		.4byte	.LVL250
 7463 1120 B8030000 		.4byte	.LVL251
 7464 1124 0100     		.2byte	0x1
 7465 1126 50       		.byte	0x50
 7466 1127 00000000 		.4byte	0
 7467 112b 00000000 		.4byte	0
 7468              	.LLST101:
 7469 112f B8030000 		.4byte	.LVL251
 7470 1133 C6030000 		.4byte	.LVL252
 7471 1137 0100     		.2byte	0x1
 7472 1139 51       		.byte	0x51
 7473 113a 00000000 		.4byte	0
 7474 113e 00000000 		.4byte	0
 7475              	.LLST102:
 7476 1142 DC030000 		.4byte	.LVL254
 7477 1146 EA030000 		.4byte	.LVL256
 7478 114a 0100     		.2byte	0x1
 7479 114c 50       		.byte	0x50
 7480 114d 00000000 		.4byte	0
 7481 1151 00000000 		.4byte	0
 7482              	.LLST103:
 7483 1155 EA030000 		.4byte	.LVL256
 7484 1159 F8030000 		.4byte	.LVL257
 7485 115d 0100     		.2byte	0x1
 7486 115f 50       		.byte	0x50
 7487 1160 00000000 		.4byte	0
 7488 1164 00000000 		.4byte	0
 7489              	.LLST104:
 7490 1168 F8030000 		.4byte	.LVL257
 7491 116c 06040000 		.4byte	.LVL258
 7492 1170 0100     		.2byte	0x1
 7493 1172 51       		.byte	0x51
ARM GAS  C:\Users\haske\AppData\Local\Temp\cc8C2ZcK.s 			page 149


 7494 1173 00000000 		.4byte	0
 7495 1177 00000000 		.4byte	0
 7496              	.LLST105:
 7497 117b 20040000 		.4byte	.LVL265
 7498 117f 2E040000 		.4byte	.LVL266
 7499 1183 0100     		.2byte	0x1
 7500 1185 51       		.byte	0x51
 7501 1186 00000000 		.4byte	0
 7502 118a 00000000 		.4byte	0
 7503              	.LLST106:
 7504 118e 2E040000 		.4byte	.LVL266
 7505 1192 3C040000 		.4byte	.LVL267
 7506 1196 0100     		.2byte	0x1
 7507 1198 51       		.byte	0x51
 7508 1199 00000000 		.4byte	0
 7509 119d 00000000 		.4byte	0
 7510              	.LLST107:
 7511 11a1 00000000 		.4byte	.LVL270
 7512 11a5 48000000 		.4byte	.LVL274
 7513 11a9 0100     		.2byte	0x1
 7514 11ab 50       		.byte	0x50
 7515 11ac 48000000 		.4byte	.LVL274
 7516 11b0 5A000000 		.4byte	.LVL276
 7517 11b4 0100     		.2byte	0x1
 7518 11b6 54       		.byte	0x54
 7519 11b7 5A000000 		.4byte	.LVL276
 7520 11bb 86000000 		.4byte	.LVL284
 7521 11bf 0100     		.2byte	0x1
 7522 11c1 50       		.byte	0x50
 7523 11c2 86000000 		.4byte	.LVL284
 7524 11c6 88010000 		.4byte	.LVL316
 7525 11ca 0100     		.2byte	0x1
 7526 11cc 54       		.byte	0x54
 7527 11cd 88010000 		.4byte	.LVL316
 7528 11d1 A0010000 		.4byte	.LFE20
 7529 11d5 0400     		.2byte	0x4
 7530 11d7 F3       		.byte	0xf3
 7531 11d8 01       		.uleb128 0x1
 7532 11d9 50       		.byte	0x50
 7533 11da 9F       		.byte	0x9f
 7534 11db 00000000 		.4byte	0
 7535 11df 00000000 		.4byte	0
 7536              	.LLST108:
 7537 11e3 00000000 		.4byte	.LVL270
 7538 11e7 34000000 		.4byte	.LVL273
 7539 11eb 0100     		.2byte	0x1
 7540 11ed 51       		.byte	0x51
 7541 11ee 34000000 		.4byte	.LVL273
 7542 11f2 1A010000 		.4byte	.LVL311
 7543 11f6 0100     		.2byte	0x1
 7544 11f8 55       		.byte	0x55
 7545 11f9 1A010000 		.4byte	.LVL311
 7546 11fd A0010000 		.4byte	.LFE20
 7547 1201 0400     		.2byte	0x4
 7548 1203 F3       		.byte	0xf3
 7549 1204 01       		.uleb128 0x1
 7550 1205 51       		.byte	0x51
ARM GAS  C:\Users\haske\AppData\Local\Temp\cc8C2ZcK.s 			page 150


 7551 1206 9F       		.byte	0x9f
 7552 1207 00000000 		.4byte	0
 7553 120b 00000000 		.4byte	0
 7554              	.LLST109:
 7555 120f 00000000 		.4byte	.LVL270
 7556 1213 28000000 		.4byte	.LVL272
 7557 1217 0100     		.2byte	0x1
 7558 1219 52       		.byte	0x52
 7559 121a 28000000 		.4byte	.LVL272
 7560 121e 4E000000 		.4byte	.LVL275
 7561 1222 0100     		.2byte	0x1
 7562 1224 57       		.byte	0x57
 7563 1225 4E000000 		.4byte	.LVL275
 7564 1229 5A000000 		.4byte	.LVL276
 7565 122d 0400     		.2byte	0x4
 7566 122f F3       		.byte	0xf3
 7567 1230 01       		.uleb128 0x1
 7568 1231 52       		.byte	0x52
 7569 1232 9F       		.byte	0x9f
 7570 1233 5A000000 		.4byte	.LVL276
 7571 1237 38010000 		.4byte	.LVL312
 7572 123b 0100     		.2byte	0x1
 7573 123d 57       		.byte	0x57
 7574 123e 38010000 		.4byte	.LVL312
 7575 1242 52010000 		.4byte	.LVL313
 7576 1246 0400     		.2byte	0x4
 7577 1248 F3       		.byte	0xf3
 7578 1249 01       		.uleb128 0x1
 7579 124a 52       		.byte	0x52
 7580 124b 9F       		.byte	0x9f
 7581 124c 52010000 		.4byte	.LVL313
 7582 1250 7C010000 		.4byte	.LVL314
 7583 1254 0100     		.2byte	0x1
 7584 1256 57       		.byte	0x57
 7585 1257 7C010000 		.4byte	.LVL314
 7586 125b A0010000 		.4byte	.LFE20
 7587 125f 0400     		.2byte	0x4
 7588 1261 F3       		.byte	0xf3
 7589 1262 01       		.uleb128 0x1
 7590 1263 52       		.byte	0x52
 7591 1264 9F       		.byte	0x9f
 7592 1265 00000000 		.4byte	0
 7593 1269 00000000 		.4byte	0
 7594              	.LLST110:
 7595 126d 00000000 		.4byte	.LVL270
 7596 1271 1C000000 		.4byte	.LVL271
 7597 1275 0100     		.2byte	0x1
 7598 1277 53       		.byte	0x53
 7599 1278 1C000000 		.4byte	.LVL271
 7600 127c 88010000 		.4byte	.LVL317
 7601 1280 0100     		.2byte	0x1
 7602 1282 56       		.byte	0x56
 7603 1283 88010000 		.4byte	.LVL317
 7604 1287 A0010000 		.4byte	.LFE20
 7605 128b 0400     		.2byte	0x4
 7606 128d F3       		.byte	0xf3
 7607 128e 01       		.uleb128 0x1
ARM GAS  C:\Users\haske\AppData\Local\Temp\cc8C2ZcK.s 			page 151


 7608 128f 53       		.byte	0x53
 7609 1290 9F       		.byte	0x9f
 7610 1291 00000000 		.4byte	0
 7611 1295 00000000 		.4byte	0
 7612              	.LLST111:
 7613 1299 16010000 		.4byte	.LVL310
 7614 129d 1A010000 		.4byte	.LVL311
 7615 12a1 0100     		.2byte	0x1
 7616 12a3 53       		.byte	0x53
 7617 12a4 1A010000 		.4byte	.LVL311
 7618 12a8 86010000 		.4byte	.LVL315
 7619 12ac 0100     		.2byte	0x1
 7620 12ae 5C       		.byte	0x5c
 7621 12af 00000000 		.4byte	0
 7622 12b3 00000000 		.4byte	0
 7623              	.LLST112:
 7624 12b7 1A010000 		.4byte	.LVL311
 7625 12bb 86010000 		.4byte	.LVL315
 7626 12bf 0100     		.2byte	0x1
 7627 12c1 55       		.byte	0x55
 7628 12c2 00000000 		.4byte	0
 7629 12c6 00000000 		.4byte	0
 7630              	.LLST113:
 7631 12ca 62000000 		.4byte	.LVL277
 7632 12ce 70000000 		.4byte	.LVL278
 7633 12d2 0100     		.2byte	0x1
 7634 12d4 55       		.byte	0x55
 7635 12d5 70000000 		.4byte	.LVL278
 7636 12d9 72000000 		.4byte	.LVL279
 7637 12dd 0100     		.2byte	0x1
 7638 12df 5B       		.byte	0x5b
 7639 12e0 72000000 		.4byte	.LVL279
 7640 12e4 74000000 		.4byte	.LVL280
 7641 12e8 0100     		.2byte	0x1
 7642 12ea 55       		.byte	0x55
 7643 12eb 74000000 		.4byte	.LVL280
 7644 12ef 7A000000 		.4byte	.LVL281
 7645 12f3 0100     		.2byte	0x1
 7646 12f5 5B       		.byte	0x5b
 7647 12f6 7A000000 		.4byte	.LVL281
 7648 12fa 7C000000 		.4byte	.LVL282
 7649 12fe 0100     		.2byte	0x1
 7650 1300 53       		.byte	0x53
 7651 1301 7C000000 		.4byte	.LVL282
 7652 1305 A8000000 		.4byte	.LVL293
 7653 1309 0100     		.2byte	0x1
 7654 130b 5B       		.byte	0x5b
 7655 130c 00000000 		.4byte	0
 7656 1310 00000000 		.4byte	0
 7657              	.LLST114:
 7658 1314 8C000000 		.4byte	.LVL286
 7659 1318 94000000 		.4byte	.LVL288
 7660 131c 0100     		.2byte	0x1
 7661 131e 50       		.byte	0x50
 7662 131f 94000000 		.4byte	.LVL288
 7663 1323 D2000000 		.4byte	.LVL304
 7664 1327 0100     		.2byte	0x1
ARM GAS  C:\Users\haske\AppData\Local\Temp\cc8C2ZcK.s 			page 152


 7665 1329 58       		.byte	0x58
 7666 132a 00000000 		.4byte	0
 7667 132e 00000000 		.4byte	0
 7668              	.LLST115:
 7669 1332 92000000 		.4byte	.LVL287
 7670 1336 98000000 		.4byte	.LVL289
 7671 133a 0100     		.2byte	0x1
 7672 133c 53       		.byte	0x53
 7673 133d 98000000 		.4byte	.LVL289
 7674 1341 EA000000 		.4byte	.LVL307
 7675 1345 0100     		.2byte	0x1
 7676 1347 5A       		.byte	0x5a
 7677 1348 00000000 		.4byte	0
 7678 134c 00000000 		.4byte	0
 7679              	.LLST116:
 7680 1350 9E000000 		.4byte	.LVL290
 7681 1354 A2000000 		.4byte	.LVL291
 7682 1358 0100     		.2byte	0x1
 7683 135a 50       		.byte	0x50
 7684 135b A2000000 		.4byte	.LVL291
 7685 135f 10010000 		.4byte	.LVL309
 7686 1363 0100     		.2byte	0x1
 7687 1365 59       		.byte	0x59
 7688 1366 00000000 		.4byte	0
 7689 136a 00000000 		.4byte	0
 7690              	.LLST117:
 7691 136e A8000000 		.4byte	.LVL293
 7692 1372 AC000000 		.4byte	.LVL294
 7693 1376 0100     		.2byte	0x1
 7694 1378 50       		.byte	0x50
 7695 1379 AC000000 		.4byte	.LVL294
 7696 137d E6000000 		.4byte	.LVL306
 7697 1381 0100     		.2byte	0x1
 7698 1383 5B       		.byte	0x5b
 7699 1384 00000000 		.4byte	0
 7700 1388 00000000 		.4byte	0
 7701              	.LLST118:
 7702 138c B2000000 		.4byte	.LVL296
 7703 1390 B8000000 		.4byte	.LVL297
 7704 1394 0100     		.2byte	0x1
 7705 1396 50       		.byte	0x50
 7706 1397 B8000000 		.4byte	.LVL297
 7707 139b 10010000 		.4byte	.LVL309
 7708 139f 0200     		.2byte	0x2
 7709 13a1 91       		.byte	0x91
 7710 13a2 4C       		.sleb128 -52
 7711 13a3 00000000 		.4byte	0
 7712 13a7 00000000 		.4byte	0
 7713              	.LLST119:
 7714 13ab BE000000 		.4byte	.LVL299
 7715 13af C4000000 		.4byte	.LVL300
 7716 13b3 0100     		.2byte	0x1
 7717 13b5 50       		.byte	0x50
 7718 13b6 C4000000 		.4byte	.LVL300
 7719 13ba 10010000 		.4byte	.LVL309
 7720 13be 0200     		.2byte	0x2
 7721 13c0 91       		.byte	0x91
ARM GAS  C:\Users\haske\AppData\Local\Temp\cc8C2ZcK.s 			page 153


 7722 13c1 50       		.sleb128 -48
 7723 13c2 00000000 		.4byte	0
 7724 13c6 00000000 		.4byte	0
 7725              	.LLST120:
 7726 13ca CA000000 		.4byte	.LVL302
 7727 13ce CC000000 		.4byte	.LVL303
 7728 13d2 0100     		.2byte	0x1
 7729 13d4 50       		.byte	0x50
 7730 13d5 CC000000 		.4byte	.LVL303
 7731 13d9 10010000 		.4byte	.LVL309
 7732 13dd 0200     		.2byte	0x2
 7733 13df 91       		.byte	0x91
 7734 13e0 54       		.sleb128 -44
 7735 13e1 00000000 		.4byte	0
 7736 13e5 00000000 		.4byte	0
 7737              		.section	.debug_aranges,"",%progbits
 7738 0000 9C000000 		.4byte	0x9c
 7739 0004 0200     		.2byte	0x2
 7740 0006 00000000 		.4byte	.Ldebug_info0
 7741 000a 04       		.byte	0x4
 7742 000b 00       		.byte	0
 7743 000c 0000     		.2byte	0
 7744 000e 0000     		.2byte	0
 7745 0010 00000000 		.4byte	.LFB21
 7746 0014 46000000 		.4byte	.LFE21-.LFB21
 7747 0018 00000000 		.4byte	.LFB5
 7748 001c 12000000 		.4byte	.LFE5-.LFB5
 7749 0020 00000000 		.4byte	.LFB6
 7750 0024 0C000000 		.4byte	.LFE6-.LFB6
 7751 0028 00000000 		.4byte	.LFB7
 7752 002c 0C000000 		.4byte	.LFE7-.LFB7
 7753 0030 00000000 		.4byte	.LFB8
 7754 0034 36000000 		.4byte	.LFE8-.LFB8
 7755 0038 00000000 		.4byte	.LFB9
 7756 003c 1E000000 		.4byte	.LFE9-.LFB9
 7757 0040 00000000 		.4byte	.LFB10
 7758 0044 1E000000 		.4byte	.LFE10-.LFB10
 7759 0048 00000000 		.4byte	.LFB11
 7760 004c 1E000000 		.4byte	.LFE11-.LFB11
 7761 0050 00000000 		.4byte	.LFB12
 7762 0054 66000000 		.4byte	.LFE12-.LFB12
 7763 0058 00000000 		.4byte	.LFB13
 7764 005c 4C000000 		.4byte	.LFE13-.LFB13
 7765 0060 00000000 		.4byte	.LFB14
 7766 0064 70010000 		.4byte	.LFE14-.LFB14
 7767 0068 00000000 		.4byte	.LFB15
 7768 006c 46000000 		.4byte	.LFE15-.LFB15
 7769 0070 00000000 		.4byte	.LFB16
 7770 0074 B6000000 		.4byte	.LFE16-.LFB16
 7771 0078 00000000 		.4byte	.LFB17
 7772 007c C6000000 		.4byte	.LFE17-.LFB17
 7773 0080 00000000 		.4byte	.LFB18
 7774 0084 46000000 		.4byte	.LFE18-.LFB18
 7775 0088 00000000 		.4byte	.LFB19
 7776 008c 58040000 		.4byte	.LFE19-.LFB19
 7777 0090 00000000 		.4byte	.LFB20
 7778 0094 A0010000 		.4byte	.LFE20-.LFB20
ARM GAS  C:\Users\haske\AppData\Local\Temp\cc8C2ZcK.s 			page 154


 7779 0098 00000000 		.4byte	0
 7780 009c 00000000 		.4byte	0
 7781              		.section	.debug_ranges,"",%progbits
 7782              	.Ldebug_ranges0:
 7783 0000 00000000 		.4byte	.LFB21
 7784 0004 46000000 		.4byte	.LFE21
 7785 0008 00000000 		.4byte	.LFB5
 7786 000c 12000000 		.4byte	.LFE5
 7787 0010 00000000 		.4byte	.LFB6
 7788 0014 0C000000 		.4byte	.LFE6
 7789 0018 00000000 		.4byte	.LFB7
 7790 001c 0C000000 		.4byte	.LFE7
 7791 0020 00000000 		.4byte	.LFB8
 7792 0024 36000000 		.4byte	.LFE8
 7793 0028 00000000 		.4byte	.LFB9
 7794 002c 1E000000 		.4byte	.LFE9
 7795 0030 00000000 		.4byte	.LFB10
 7796 0034 1E000000 		.4byte	.LFE10
 7797 0038 00000000 		.4byte	.LFB11
 7798 003c 1E000000 		.4byte	.LFE11
 7799 0040 00000000 		.4byte	.LFB12
 7800 0044 66000000 		.4byte	.LFE12
 7801 0048 00000000 		.4byte	.LFB13
 7802 004c 4C000000 		.4byte	.LFE13
 7803 0050 00000000 		.4byte	.LFB14
 7804 0054 70010000 		.4byte	.LFE14
 7805 0058 00000000 		.4byte	.LFB15
 7806 005c 46000000 		.4byte	.LFE15
 7807 0060 00000000 		.4byte	.LFB16
 7808 0064 B6000000 		.4byte	.LFE16
 7809 0068 00000000 		.4byte	.LFB17
 7810 006c C6000000 		.4byte	.LFE17
 7811 0070 00000000 		.4byte	.LFB18
 7812 0074 46000000 		.4byte	.LFE18
 7813 0078 00000000 		.4byte	.LFB19
 7814 007c 58040000 		.4byte	.LFE19
 7815 0080 00000000 		.4byte	.LFB20
 7816 0084 A0010000 		.4byte	.LFE20
 7817 0088 00000000 		.4byte	0
 7818 008c 00000000 		.4byte	0
 7819              		.section	.debug_line,"",%progbits
 7820              	.Ldebug_line0:
 7821 0000 77050000 		.section	.debug_str,"MS",%progbits,1
 7821      02007301 
 7821      00000201 
 7821      FB0E0D00 
 7821      01010101 
 7822              	.LASF81:
 7823 0000 5F6C765F 		.ascii	"_lv_area_is_equal\000"
 7823      61726561 
 7823      5F69735F 
 7823      65717561 
 7823      6C00
 7824              	.LASF90:
 7825 0012 7A6F6F6D 		.ascii	"zoom\000"
 7825      00
 7826              	.LASF41:
ARM GAS  C:\Users\haske\AppData\Local\Temp\cc8C2ZcK.s 			page 155


 7827 0017 4C565F41 		.ascii	"LV_ALIGN_OUT_RIGHT_BOTTOM\000"
 7827      4C49474E 
 7827      5F4F5554 
 7827      5F524947 
 7827      48545F42 
 7828              	.LASF20:
 7829 0031 4C565F41 		.ascii	"LV_ALIGN_DEFAULT\000"
 7829      4C49474E 
 7829      5F444546 
 7829      41554C54 
 7829      00
 7830              	.LASF43:
 7831 0042 6C765F61 		.ascii	"lv_area_get_height\000"
 7831      7265615F 
 7831      6765745F 
 7831      68656967 
 7831      687400
 7832              	.LASF89:
 7833 0055 616E676C 		.ascii	"angle\000"
 7833      6500
 7834              	.LASF29:
 7835 005b 4C565F41 		.ascii	"LV_ALIGN_CENTER\000"
 7835      4C49474E 
 7835      5F43454E 
 7835      54455200 
 7836              	.LASF30:
 7837 006b 4C565F41 		.ascii	"LV_ALIGN_OUT_TOP_LEFT\000"
 7837      4C49474E 
 7837      5F4F5554 
 7837      5F544F50 
 7837      5F4C4546 
 7838              	.LASF4:
 7839 0081 73686F72 		.ascii	"short int\000"
 7839      7420696E 
 7839      7400
 7840              	.LASF99:
 7841 008b 474E5520 		.ascii	"GNU C11 5.4.1 20160609 (release) [ARM/embedded-5-br"
 7841      43313120 
 7841      352E342E 
 7841      31203230 
 7841      31363036 
 7842 00be 616E6368 		.ascii	"anch revision 237715] -mcpu=cortex-m0plus -mthumb -"
 7842      20726576 
 7842      6973696F 
 7842      6E203233 
 7842      37373135 
 7843 00f1 67202D4F 		.ascii	"g -Og -ffunction-sections -ffat-lto-objects\000"
 7843      67202D66 
 7843      66756E63 
 7843      74696F6E 
 7843      2D736563 
 7844              	.LASF78:
 7845 011d 69735F69 		.ascii	"is_in\000"
 7845      6E00
 7846              	.LASF67:
 7847 0123 5F6C765F 		.ascii	"_lv_area_join\000"
 7847      61726561 
ARM GAS  C:\Users\haske\AppData\Local\Temp\cc8C2ZcK.s 			page 156


 7847      5F6A6F69 
 7847      6E00
 7848              	.LASF8:
 7849 0131 5F5F7569 		.ascii	"__uint32_t\000"
 7849      6E743332 
 7849      5F7400
 7850              	.LASF100:
 7851 013c 2E2E5C2E 		.ascii	"..\\..\\..\\arduinoLCD\\test\\Pain Drain\\libraries"
 7851      2E5C2E2E 
 7851      5C617264 
 7851      75696E6F 
 7851      4C43445C 
 7852 0169 5C6C7667 		.ascii	"\\lvgl\\src\\misc\\lv_area.c\000"
 7852      6C5C7372 
 7852      635C6D69 
 7852      73635C6C 
 7852      765F6172 
 7853              	.LASF19:
 7854 0182 6C765F61 		.ascii	"lv_area_t\000"
 7854      7265615F 
 7854      7400
 7855              	.LASF36:
 7856 018c 4C565F41 		.ascii	"LV_ALIGN_OUT_LEFT_TOP\000"
 7856      4C49474E 
 7856      5F4F5554 
 7856      5F4C4546 
 7856      545F544F 
 7857              	.LASF57:
 7858 01a2 685F6578 		.ascii	"h_extra\000"
 7858      74726100 
 7859              	.LASF88:
 7860 01aa 6C765F70 		.ascii	"lv_point_transform\000"
 7860      6F696E74 
 7860      5F747261 
 7860      6E73666F 
 7860      726D00
 7861              	.LASF44:
 7862 01bd 6C765F61 		.ascii	"lv_area_get_width\000"
 7862      7265615F 
 7862      6765745F 
 7862      77696474 
 7862      6800
 7863              	.LASF96:
 7864 01cf 616E676C 		.ascii	"angle_low\000"
 7864      655F6C6F 
 7864      7700
 7865              	.LASF71:
 7866 01d9 69735F6F 		.ascii	"is_on_rect\000"
 7866      6E5F7265 
 7866      637400
 7867              	.LASF82:
 7868 01e4 6C765F61 		.ascii	"lv_area_align\000"
 7868      7265615F 
 7868      616C6967 
 7868      6E00
 7869              	.LASF18:
 7870 01f2 6C765F70 		.ascii	"lv_point_t\000"
ARM GAS  C:\Users\haske\AppData\Local\Temp\cc8C2ZcK.s 			page 157


 7870      6F696E74 
 7870      5F7400
 7871              	.LASF13:
 7872 01fd 75696E74 		.ascii	"uint8_t\000"
 7872      385F7400 
 7873              	.LASF98:
 7874 0205 616E676C 		.ascii	"angle_rem\000"
 7874      655F7265 
 7874      6D00
 7875              	.LASF50:
 7876 020f 6C765F61 		.ascii	"lv_area_set\000"
 7876      7265615F 
 7876      73657400 
 7877              	.LASF80:
 7878 021b 616F7574 		.ascii	"aout_p\000"
 7878      5F7000
 7879              	.LASF39:
 7880 0222 4C565F41 		.ascii	"LV_ALIGN_OUT_RIGHT_TOP\000"
 7880      4C49474E 
 7880      5F4F5554 
 7880      5F524947 
 7880      48545F54 
 7881              	.LASF38:
 7882 0239 4C565F41 		.ascii	"LV_ALIGN_OUT_LEFT_BOTTOM\000"
 7882      4C49474E 
 7882      5F4F5554 
 7882      5F4C4546 
 7882      545F424F 
 7883              	.LASF10:
 7884 0252 6C6F6E67 		.ascii	"long long int\000"
 7884      206C6F6E 
 7884      6720696E 
 7884      7400
 7885              	.LASF66:
 7886 0260 756E696F 		.ascii	"union_ok\000"
 7886      6E5F6F6B 
 7886      00
 7887              	.LASF37:
 7888 0269 4C565F41 		.ascii	"LV_ALIGN_OUT_LEFT_MID\000"
 7888      4C49474E 
 7888      5F4F5554 
 7888      5F4C4546 
 7888      545F4D49 
 7889              	.LASF76:
 7890 027f 61696E5F 		.ascii	"ain_p\000"
 7890      7000
 7891              	.LASF74:
 7892 0285 5F6C765F 		.ascii	"_lv_area_is_on\000"
 7892      61726561 
 7892      5F69735F 
 7892      6F6E00
 7893              	.LASF7:
 7894 0294 6C6F6E67 		.ascii	"long int\000"
 7894      20696E74 
 7894      00
 7895              	.LASF28:
 7896 029d 4C565F41 		.ascii	"LV_ALIGN_RIGHT_MID\000"
ARM GAS  C:\Users\haske\AppData\Local\Temp\cc8C2ZcK.s 			page 158


 7896      4C49474E 
 7896      5F524947 
 7896      48545F4D 
 7896      494400
 7897              	.LASF21:
 7898 02b0 4C565F41 		.ascii	"LV_ALIGN_TOP_LEFT\000"
 7898      4C49474E 
 7898      5F544F50 
 7898      5F4C4546 
 7898      5400
 7899              	.LASF45:
 7900 02c2 61726561 		.ascii	"area_p\000"
 7900      5F7000
 7901              	.LASF2:
 7902 02c9 5F5F7569 		.ascii	"__uint8_t\000"
 7902      6E74385F 
 7902      7400
 7903              	.LASF32:
 7904 02d3 4C565F41 		.ascii	"LV_ALIGN_OUT_TOP_RIGHT\000"
 7904      4C49474E 
 7904      5F4F5554 
 7904      5F544F50 
 7904      5F524947 
 7905              	.LASF103:
 7906 02ea 6C765F74 		.ascii	"lv_trigo_sin\000"
 7906      7269676F 
 7906      5F73696E 
 7906      00
 7907              	.LASF33:
 7908 02f7 4C565F41 		.ascii	"LV_ALIGN_OUT_BOTTOM_LEFT\000"
 7908      4C49474E 
 7908      5F4F5554 
 7908      5F424F54 
 7908      544F4D5F 
 7909              	.LASF60:
 7910 0310 795F6F66 		.ascii	"y_ofs\000"
 7910      7300
 7911              	.LASF40:
 7912 0316 4C565F41 		.ascii	"LV_ALIGN_OUT_RIGHT_MID\000"
 7912      4C49474E 
 7912      5F4F5554 
 7912      5F524947 
 7912      48545F4D 
 7913              	.LASF1:
 7914 032d 756E7369 		.ascii	"unsigned char\000"
 7914      676E6564 
 7914      20636861 
 7914      7200
 7915              	.LASF86:
 7916 033b 6F66735F 		.ascii	"ofs_x\000"
 7916      7800
 7917              	.LASF62:
 7918 0341 5F6C765F 		.ascii	"_lv_area_intersect\000"
 7918      61726561 
 7918      5F696E74 
 7918      65727365 
 7918      637400
ARM GAS  C:\Users\haske\AppData\Local\Temp\cc8C2ZcK.s 			page 159


 7919              	.LASF102:
 7920 0354 6C765F70 		.ascii	"lv_point_within_circle\000"
 7920      6F696E74 
 7920      5F776974 
 7920      68696E5F 
 7920      63697263 
 7921              	.LASF101:
 7922 036b 433A5C50 		.ascii	"C:\\Projects\\PainDrain\\firmware\\PainDrain\\PainD"
 7922      726F6A65 
 7922      6374735C 
 7922      5061696E 
 7922      44726169 
 7923 0399 7261696E 		.ascii	"rain.cydsn\000"
 7923      2E637964 
 7923      736E00
 7924              	.LASF42:
 7925 03a4 6C765F61 		.ascii	"lv_align_t\000"
 7925      6C69676E 
 7925      5F7400
 7926              	.LASF24:
 7927 03af 4C565F41 		.ascii	"LV_ALIGN_BOTTOM_LEFT\000"
 7927      4C49474E 
 7927      5F424F54 
 7927      544F4D5F 
 7927      4C454654 
 7928              	.LASF69:
 7929 03c4 5F6C765F 		.ascii	"_lv_area_is_point_on\000"
 7929      61726561 
 7929      5F69735F 
 7929      706F696E 
 7929      745F6F6E 
 7930              	.LASF79:
 7931 03d9 5F6C765F 		.ascii	"_lv_area_is_out\000"
 7931      61726561 
 7931      5F69735F 
 7931      6F757400 
 7932              	.LASF70:
 7933 03e9 72616469 		.ascii	"radius\000"
 7933      757300
 7934              	.LASF0:
 7935 03f0 7369676E 		.ascii	"signed char\000"
 7935      65642063 
 7935      68617200 
 7936              	.LASF11:
 7937 03fc 6C6F6E67 		.ascii	"long long unsigned int\000"
 7937      206C6F6E 
 7937      6720756E 
 7937      7369676E 
 7937      65642069 
 7938              	.LASF16:
 7939 0413 75696E74 		.ascii	"uint32_t\000"
 7939      33325F74 
 7939      00
 7940              	.LASF12:
 7941 041c 756E7369 		.ascii	"unsigned int\000"
 7941      676E6564 
 7941      20696E74 
ARM GAS  C:\Users\haske\AppData\Local\Temp\cc8C2ZcK.s 			page 160


 7941      00
 7942              	.LASF84:
 7943 0429 746F5F61 		.ascii	"to_align\000"
 7943      6C69676E 
 7943      00
 7944              	.LASF59:
 7945 0432 785F6F66 		.ascii	"x_ofs\000"
 7945      7300
 7946              	.LASF34:
 7947 0438 4C565F41 		.ascii	"LV_ALIGN_OUT_BOTTOM_MID\000"
 7947      4C49474E 
 7947      5F4F5554 
 7947      5F424F54 
 7947      544F4D5F 
 7948              	.LASF55:
 7949 0450 6C765F61 		.ascii	"lv_area_increase\000"
 7949      7265615F 
 7949      696E6372 
 7949      65617365 
 7949      00
 7950              	.LASF48:
 7951 0461 64697374 		.ascii	"dist\000"
 7951      00
 7952              	.LASF92:
 7953 0466 616E676C 		.ascii	"angle_prev\000"
 7953      655F7072 
 7953      657600
 7954              	.LASF5:
 7955 0471 73686F72 		.ascii	"short unsigned int\000"
 7955      7420756E 
 7955      7369676E 
 7955      65642069 
 7955      6E7400
 7956              	.LASF51:
 7957 0484 6C765F61 		.ascii	"lv_area_set_width\000"
 7957      7265615F 
 7957      7365745F 
 7957      77696474 
 7957      6800
 7958              	.LASF27:
 7959 0496 4C565F41 		.ascii	"LV_ALIGN_LEFT_MID\000"
 7959      4C49474E 
 7959      5F4C4546 
 7959      545F4D49 
 7959      4400
 7960              	.LASF15:
 7961 04a8 696E7433 		.ascii	"int32_t\000"
 7961      325F7400 
 7962              	.LASF17:
 7963 04b0 6C765F63 		.ascii	"lv_coord_t\000"
 7963      6F6F7264 
 7963      5F7400
 7964              	.LASF14:
 7965 04bb 696E7431 		.ascii	"int16_t\000"
 7965      365F7400 
 7966              	.LASF97:
 7967 04c3 616E676C 		.ascii	"angle_high\000"
ARM GAS  C:\Users\haske\AppData\Local\Temp\cc8C2ZcK.s 			page 161


 7967      655F6869 
 7967      676800
 7968              	.LASF49:
 7969 04ce 5F426F6F 		.ascii	"_Bool\000"
 7969      6C00
 7970              	.LASF73:
 7971 04d4 636F726E 		.ascii	"corner_area\000"
 7971      65725F61 
 7971      72656100 
 7972              	.LASF65:
 7973 04e0 61325F70 		.ascii	"a2_p\000"
 7973      00
 7974              	.LASF31:
 7975 04e5 4C565F41 		.ascii	"LV_ALIGN_OUT_TOP_MID\000"
 7975      4C49474E 
 7975      5F4F5554 
 7975      5F544F50 
 7975      5F4D4944 
 7976              	.LASF35:
 7977 04fa 4C565F41 		.ascii	"LV_ALIGN_OUT_BOTTOM_RIGHT\000"
 7977      4C49474E 
 7977      5F4F5554 
 7977      5F424F54 
 7977      544F4D5F 
 7978              	.LASF95:
 7979 0514 616E676C 		.ascii	"angle_limited\000"
 7979      655F6C69 
 7979      6D697465 
 7979      6400
 7980              	.LASF94:
 7981 0522 636F736D 		.ascii	"cosma\000"
 7981      6100
 7982              	.LASF9:
 7983 0528 6C6F6E67 		.ascii	"long unsigned int\000"
 7983      20756E73 
 7983      69676E65 
 7983      6420696E 
 7983      7400
 7984              	.LASF75:
 7985 053a 5F6C765F 		.ascii	"_lv_area_is_in\000"
 7985      61726561 
 7985      5F69735F 
 7985      696E00
 7986              	.LASF64:
 7987 0549 61315F70 		.ascii	"a1_p\000"
 7987      00
 7988              	.LASF54:
 7989 054e 73697A65 		.ascii	"size\000"
 7989      00
 7990              	.LASF63:
 7991 0553 7265735F 		.ascii	"res_p\000"
 7991      7000
 7992              	.LASF23:
 7993 0559 4C565F41 		.ascii	"LV_ALIGN_TOP_RIGHT\000"
 7993      4C49474E 
 7993      5F544F50 
 7993      5F524947 
ARM GAS  C:\Users\haske\AppData\Local\Temp\cc8C2ZcK.s 			page 162


 7993      485400
 7994              	.LASF6:
 7995 056c 5F5F696E 		.ascii	"__int32_t\000"
 7995      7433325F 
 7995      7400
 7996              	.LASF85:
 7997 0576 616C6967 		.ascii	"align\000"
 7997      6E00
 7998              	.LASF56:
 7999 057c 775F6578 		.ascii	"w_extra\000"
 7999      74726100 
 8000              	.LASF25:
 8001 0584 4C565F41 		.ascii	"LV_ALIGN_BOTTOM_MID\000"
 8001      4C49474E 
 8001      5F424F54 
 8001      544F4D5F 
 8001      4D494400 
 8002              	.LASF3:
 8003 0598 5F5F696E 		.ascii	"__int16_t\000"
 8003      7431365F 
 8003      7400
 8004              	.LASF61:
 8005 05a2 6C765F61 		.ascii	"lv_area_get_size\000"
 8005      7265615F 
 8005      6765745F 
 8005      73697A65 
 8005      00
 8006              	.LASF47:
 8007 05b3 725F7371 		.ascii	"r_sqrd\000"
 8007      726400
 8008              	.LASF52:
 8009 05ba 6C765F61 		.ascii	"lv_area_set_height\000"
 8009      7265615F 
 8009      7365745F 
 8009      68656967 
 8009      687400
 8010              	.LASF53:
 8011 05cd 5F6C765F 		.ascii	"_lv_area_set_pos\000"
 8011      61726561 
 8011      5F736574 
 8011      5F706F73 
 8011      00
 8012              	.LASF58:
 8013 05de 6C765F61 		.ascii	"lv_area_move\000"
 8013      7265615F 
 8013      6D6F7665 
 8013      00
 8014              	.LASF87:
 8015 05eb 6F66735F 		.ascii	"ofs_y\000"
 8015      7900
 8016              	.LASF83:
 8017 05f1 62617365 		.ascii	"base\000"
 8017      00
 8018              	.LASF77:
 8019 05f6 61686F6C 		.ascii	"aholder_p\000"
 8019      6465725F 
 8019      7000
ARM GAS  C:\Users\haske\AppData\Local\Temp\cc8C2ZcK.s 			page 163


 8020              	.LASF93:
 8021 0600 73696E6D 		.ascii	"sinma\000"
 8021      6100
 8022              	.LASF91:
 8023 0606 7069766F 		.ascii	"pivot\000"
 8023      7400
 8024              	.LASF46:
 8025 060c 61726561 		.ascii	"area\000"
 8025      00
 8026              	.LASF22:
 8027 0611 4C565F41 		.ascii	"LV_ALIGN_TOP_MID\000"
 8027      4C49474E 
 8027      5F544F50 
 8027      5F4D4944 
 8027      00
 8028              	.LASF72:
 8029 0622 6D61785F 		.ascii	"max_radius\000"
 8029      72616469 
 8029      757300
 8030              	.LASF68:
 8031 062d 615F7265 		.ascii	"a_res_p\000"
 8031      735F7000 
 8032              	.LASF26:
 8033 0635 4C565F41 		.ascii	"LV_ALIGN_BOTTOM_RIGHT\000"
 8033      4C49474E 
 8033      5F424F54 
 8033      544F4D5F 
 8033      52494748 
 8034              		.ident	"GCC: (GNU Tools for ARM Embedded Processors) 5.4.1 20160609 (release) [ARM/embedded-5-bran
