ARM GAS  C:\Users\haske\AppData\Local\Temp\ccmHbbn5.s 			page 1


   1              		.syntax unified
   2              		.cpu cortex-m0plus
   3              		.fpu softvfp
   4              		.eabi_attribute 20, 1
   5              		.eabi_attribute 21, 1
   6              		.eabi_attribute 23, 3
   7              		.eabi_attribute 24, 1
   8              		.eabi_attribute 25, 1
   9              		.eabi_attribute 26, 1
  10              		.eabi_attribute 30, 1
  11              		.eabi_attribute 34, 0
  12              		.eabi_attribute 18, 4
  13              		.thumb
  14              		.syntax unified
  15              		.file	"lv_arc.c"
  16              		.text
  17              	.Ltext0:
  18              		.cfi_sections	.debug_frame
  19              		.section	.text.get_angle,"ax",%progbits
  20              		.align	2
  21              		.code	16
  22              		.thumb_func
  23              		.type	get_angle, %function
  24              	get_angle:
  25              	.LFB187:
  26              		.file 1 "..\\..\\..\\arduinoLCD\\test\\Pain Drain\\libraries\\lvgl\\src\\widgets\\lv_arc.c"
   1:..\..\..\arduinoLCD\test\Pain Drain\libraries\lvgl\src\widgets/lv_arc.c **** /**
   2:..\..\..\arduinoLCD\test\Pain Drain\libraries\lvgl\src\widgets/lv_arc.c ****  * @file lv_arc.c
   3:..\..\..\arduinoLCD\test\Pain Drain\libraries\lvgl\src\widgets/lv_arc.c ****  *
   4:..\..\..\arduinoLCD\test\Pain Drain\libraries\lvgl\src\widgets/lv_arc.c ****  */
   5:..\..\..\arduinoLCD\test\Pain Drain\libraries\lvgl\src\widgets/lv_arc.c **** 
   6:..\..\..\arduinoLCD\test\Pain Drain\libraries\lvgl\src\widgets/lv_arc.c **** /*********************
   7:..\..\..\arduinoLCD\test\Pain Drain\libraries\lvgl\src\widgets/lv_arc.c ****  *      INCLUDES
   8:..\..\..\arduinoLCD\test\Pain Drain\libraries\lvgl\src\widgets/lv_arc.c ****  *********************/
   9:..\..\..\arduinoLCD\test\Pain Drain\libraries\lvgl\src\widgets/lv_arc.c **** #include "lv_arc.h"
  10:..\..\..\arduinoLCD\test\Pain Drain\libraries\lvgl\src\widgets/lv_arc.c **** #if LV_USE_ARC != 0
  11:..\..\..\arduinoLCD\test\Pain Drain\libraries\lvgl\src\widgets/lv_arc.c **** 
  12:..\..\..\arduinoLCD\test\Pain Drain\libraries\lvgl\src\widgets/lv_arc.c **** #include "../core/lv_group.h"
  13:..\..\..\arduinoLCD\test\Pain Drain\libraries\lvgl\src\widgets/lv_arc.c **** #include "../core/lv_indev.h"
  14:..\..\..\arduinoLCD\test\Pain Drain\libraries\lvgl\src\widgets/lv_arc.c **** #include "../misc/lv_assert.h"
  15:..\..\..\arduinoLCD\test\Pain Drain\libraries\lvgl\src\widgets/lv_arc.c **** #include "../misc/lv_math.h"
  16:..\..\..\arduinoLCD\test\Pain Drain\libraries\lvgl\src\widgets/lv_arc.c **** #include "../draw/lv_draw_arc.h"
  17:..\..\..\arduinoLCD\test\Pain Drain\libraries\lvgl\src\widgets/lv_arc.c **** 
  18:..\..\..\arduinoLCD\test\Pain Drain\libraries\lvgl\src\widgets/lv_arc.c **** /*********************
  19:..\..\..\arduinoLCD\test\Pain Drain\libraries\lvgl\src\widgets/lv_arc.c ****  *      DEFINES
  20:..\..\..\arduinoLCD\test\Pain Drain\libraries\lvgl\src\widgets/lv_arc.c ****  *********************/
  21:..\..\..\arduinoLCD\test\Pain Drain\libraries\lvgl\src\widgets/lv_arc.c **** #define MY_CLASS &lv_arc_class
  22:..\..\..\arduinoLCD\test\Pain Drain\libraries\lvgl\src\widgets/lv_arc.c **** 
  23:..\..\..\arduinoLCD\test\Pain Drain\libraries\lvgl\src\widgets/lv_arc.c **** #define VALUE_UNSET INT16_MIN
  24:..\..\..\arduinoLCD\test\Pain Drain\libraries\lvgl\src\widgets/lv_arc.c **** 
  25:..\..\..\arduinoLCD\test\Pain Drain\libraries\lvgl\src\widgets/lv_arc.c **** /**********************
  26:..\..\..\arduinoLCD\test\Pain Drain\libraries\lvgl\src\widgets/lv_arc.c ****  *      TYPEDEFS
  27:..\..\..\arduinoLCD\test\Pain Drain\libraries\lvgl\src\widgets/lv_arc.c ****  **********************/
  28:..\..\..\arduinoLCD\test\Pain Drain\libraries\lvgl\src\widgets/lv_arc.c **** 
  29:..\..\..\arduinoLCD\test\Pain Drain\libraries\lvgl\src\widgets/lv_arc.c **** /**********************
  30:..\..\..\arduinoLCD\test\Pain Drain\libraries\lvgl\src\widgets/lv_arc.c ****  *  STATIC PROTOTYPES
  31:..\..\..\arduinoLCD\test\Pain Drain\libraries\lvgl\src\widgets/lv_arc.c ****  **********************/
ARM GAS  C:\Users\haske\AppData\Local\Temp\ccmHbbn5.s 			page 2


  32:..\..\..\arduinoLCD\test\Pain Drain\libraries\lvgl\src\widgets/lv_arc.c **** 
  33:..\..\..\arduinoLCD\test\Pain Drain\libraries\lvgl\src\widgets/lv_arc.c **** static void lv_arc_constructor(const lv_obj_class_t * class_p, lv_obj_t * obj);
  34:..\..\..\arduinoLCD\test\Pain Drain\libraries\lvgl\src\widgets/lv_arc.c **** static void lv_arc_draw(lv_event_t * e);
  35:..\..\..\arduinoLCD\test\Pain Drain\libraries\lvgl\src\widgets/lv_arc.c **** static void lv_arc_event(const lv_obj_class_t * class_p, lv_event_t * e);
  36:..\..\..\arduinoLCD\test\Pain Drain\libraries\lvgl\src\widgets/lv_arc.c **** static void inv_arc_area(lv_obj_t * arc, uint16_t start_angle, uint16_t end_angle, lv_part_t part);
  37:..\..\..\arduinoLCD\test\Pain Drain\libraries\lvgl\src\widgets/lv_arc.c **** static void inv_knob_area(lv_obj_t * obj);
  38:..\..\..\arduinoLCD\test\Pain Drain\libraries\lvgl\src\widgets/lv_arc.c **** static void get_center(const lv_obj_t * obj, lv_point_t * center, lv_coord_t * arc_r);
  39:..\..\..\arduinoLCD\test\Pain Drain\libraries\lvgl\src\widgets/lv_arc.c **** static lv_coord_t get_angle(const lv_obj_t * obj);
  40:..\..\..\arduinoLCD\test\Pain Drain\libraries\lvgl\src\widgets/lv_arc.c **** static void get_knob_area(lv_obj_t * arc, const lv_point_t * center, lv_coord_t r, lv_area_t * knob
  41:..\..\..\arduinoLCD\test\Pain Drain\libraries\lvgl\src\widgets/lv_arc.c **** static void value_update(lv_obj_t * arc);
  42:..\..\..\arduinoLCD\test\Pain Drain\libraries\lvgl\src\widgets/lv_arc.c **** static lv_coord_t knob_get_extra_size(lv_obj_t * obj);
  43:..\..\..\arduinoLCD\test\Pain Drain\libraries\lvgl\src\widgets/lv_arc.c **** 
  44:..\..\..\arduinoLCD\test\Pain Drain\libraries\lvgl\src\widgets/lv_arc.c **** /**********************
  45:..\..\..\arduinoLCD\test\Pain Drain\libraries\lvgl\src\widgets/lv_arc.c ****  *  STATIC VARIABLES
  46:..\..\..\arduinoLCD\test\Pain Drain\libraries\lvgl\src\widgets/lv_arc.c ****  **********************/
  47:..\..\..\arduinoLCD\test\Pain Drain\libraries\lvgl\src\widgets/lv_arc.c **** const lv_obj_class_t lv_arc_class  = {
  48:..\..\..\arduinoLCD\test\Pain Drain\libraries\lvgl\src\widgets/lv_arc.c ****     .constructor_cb = lv_arc_constructor,
  49:..\..\..\arduinoLCD\test\Pain Drain\libraries\lvgl\src\widgets/lv_arc.c ****     .event_cb = lv_arc_event,
  50:..\..\..\arduinoLCD\test\Pain Drain\libraries\lvgl\src\widgets/lv_arc.c ****     .instance_size = sizeof(lv_arc_t),
  51:..\..\..\arduinoLCD\test\Pain Drain\libraries\lvgl\src\widgets/lv_arc.c ****     .editable = LV_OBJ_CLASS_EDITABLE_TRUE,
  52:..\..\..\arduinoLCD\test\Pain Drain\libraries\lvgl\src\widgets/lv_arc.c ****     .base_class = &lv_obj_class
  53:..\..\..\arduinoLCD\test\Pain Drain\libraries\lvgl\src\widgets/lv_arc.c **** };
  54:..\..\..\arduinoLCD\test\Pain Drain\libraries\lvgl\src\widgets/lv_arc.c **** 
  55:..\..\..\arduinoLCD\test\Pain Drain\libraries\lvgl\src\widgets/lv_arc.c **** /**********************
  56:..\..\..\arduinoLCD\test\Pain Drain\libraries\lvgl\src\widgets/lv_arc.c ****  *      MACROS
  57:..\..\..\arduinoLCD\test\Pain Drain\libraries\lvgl\src\widgets/lv_arc.c ****  **********************/
  58:..\..\..\arduinoLCD\test\Pain Drain\libraries\lvgl\src\widgets/lv_arc.c **** 
  59:..\..\..\arduinoLCD\test\Pain Drain\libraries\lvgl\src\widgets/lv_arc.c **** /**********************
  60:..\..\..\arduinoLCD\test\Pain Drain\libraries\lvgl\src\widgets/lv_arc.c ****  *   GLOBAL FUNCTIONS
  61:..\..\..\arduinoLCD\test\Pain Drain\libraries\lvgl\src\widgets/lv_arc.c ****  **********************/
  62:..\..\..\arduinoLCD\test\Pain Drain\libraries\lvgl\src\widgets/lv_arc.c **** 
  63:..\..\..\arduinoLCD\test\Pain Drain\libraries\lvgl\src\widgets/lv_arc.c **** lv_obj_t * lv_arc_create(lv_obj_t * parent)
  64:..\..\..\arduinoLCD\test\Pain Drain\libraries\lvgl\src\widgets/lv_arc.c **** {
  65:..\..\..\arduinoLCD\test\Pain Drain\libraries\lvgl\src\widgets/lv_arc.c ****     LV_LOG_INFO("begin");
  66:..\..\..\arduinoLCD\test\Pain Drain\libraries\lvgl\src\widgets/lv_arc.c ****     lv_obj_t * obj = lv_obj_class_create_obj(MY_CLASS, parent);
  67:..\..\..\arduinoLCD\test\Pain Drain\libraries\lvgl\src\widgets/lv_arc.c ****     lv_obj_class_init_obj(obj);
  68:..\..\..\arduinoLCD\test\Pain Drain\libraries\lvgl\src\widgets/lv_arc.c ****     return obj;
  69:..\..\..\arduinoLCD\test\Pain Drain\libraries\lvgl\src\widgets/lv_arc.c **** }
  70:..\..\..\arduinoLCD\test\Pain Drain\libraries\lvgl\src\widgets/lv_arc.c **** 
  71:..\..\..\arduinoLCD\test\Pain Drain\libraries\lvgl\src\widgets/lv_arc.c **** /*======================
  72:..\..\..\arduinoLCD\test\Pain Drain\libraries\lvgl\src\widgets/lv_arc.c ****  * Add/remove functions
  73:..\..\..\arduinoLCD\test\Pain Drain\libraries\lvgl\src\widgets/lv_arc.c ****  *=====================*/
  74:..\..\..\arduinoLCD\test\Pain Drain\libraries\lvgl\src\widgets/lv_arc.c **** 
  75:..\..\..\arduinoLCD\test\Pain Drain\libraries\lvgl\src\widgets/lv_arc.c **** /*
  76:..\..\..\arduinoLCD\test\Pain Drain\libraries\lvgl\src\widgets/lv_arc.c ****  * New object specific "add" or "remove" functions come here
  77:..\..\..\arduinoLCD\test\Pain Drain\libraries\lvgl\src\widgets/lv_arc.c ****  */
  78:..\..\..\arduinoLCD\test\Pain Drain\libraries\lvgl\src\widgets/lv_arc.c **** 
  79:..\..\..\arduinoLCD\test\Pain Drain\libraries\lvgl\src\widgets/lv_arc.c **** /*=====================
  80:..\..\..\arduinoLCD\test\Pain Drain\libraries\lvgl\src\widgets/lv_arc.c ****  * Setter functions
  81:..\..\..\arduinoLCD\test\Pain Drain\libraries\lvgl\src\widgets/lv_arc.c ****  *====================*/
  82:..\..\..\arduinoLCD\test\Pain Drain\libraries\lvgl\src\widgets/lv_arc.c **** 
  83:..\..\..\arduinoLCD\test\Pain Drain\libraries\lvgl\src\widgets/lv_arc.c **** void lv_arc_set_start_angle(lv_obj_t * obj, uint16_t start)
  84:..\..\..\arduinoLCD\test\Pain Drain\libraries\lvgl\src\widgets/lv_arc.c **** {
  85:..\..\..\arduinoLCD\test\Pain Drain\libraries\lvgl\src\widgets/lv_arc.c ****     LV_ASSERT_OBJ(obj, MY_CLASS);
  86:..\..\..\arduinoLCD\test\Pain Drain\libraries\lvgl\src\widgets/lv_arc.c ****     lv_arc_t * arc = (lv_arc_t *)obj;
  87:..\..\..\arduinoLCD\test\Pain Drain\libraries\lvgl\src\widgets/lv_arc.c **** 
  88:..\..\..\arduinoLCD\test\Pain Drain\libraries\lvgl\src\widgets/lv_arc.c ****     if(start > 360) start -= 360;
ARM GAS  C:\Users\haske\AppData\Local\Temp\ccmHbbn5.s 			page 3


  89:..\..\..\arduinoLCD\test\Pain Drain\libraries\lvgl\src\widgets/lv_arc.c **** 
  90:..\..\..\arduinoLCD\test\Pain Drain\libraries\lvgl\src\widgets/lv_arc.c ****     int16_t old_delta = arc->indic_angle_end - arc->indic_angle_start;
  91:..\..\..\arduinoLCD\test\Pain Drain\libraries\lvgl\src\widgets/lv_arc.c ****     int16_t new_delta = arc->indic_angle_end - start;
  92:..\..\..\arduinoLCD\test\Pain Drain\libraries\lvgl\src\widgets/lv_arc.c **** 
  93:..\..\..\arduinoLCD\test\Pain Drain\libraries\lvgl\src\widgets/lv_arc.c ****     if(old_delta < 0) old_delta = 360 + old_delta;
  94:..\..\..\arduinoLCD\test\Pain Drain\libraries\lvgl\src\widgets/lv_arc.c ****     if(new_delta < 0) new_delta = 360 + new_delta;
  95:..\..\..\arduinoLCD\test\Pain Drain\libraries\lvgl\src\widgets/lv_arc.c **** 
  96:..\..\..\arduinoLCD\test\Pain Drain\libraries\lvgl\src\widgets/lv_arc.c ****     if(LV_ABS(new_delta - old_delta) > 180)  lv_obj_invalidate(obj);
  97:..\..\..\arduinoLCD\test\Pain Drain\libraries\lvgl\src\widgets/lv_arc.c ****     else if(new_delta < old_delta) inv_arc_area(obj, arc->indic_angle_start, start, LV_PART_INDICAT
  98:..\..\..\arduinoLCD\test\Pain Drain\libraries\lvgl\src\widgets/lv_arc.c ****     else if(old_delta < new_delta) inv_arc_area(obj, start, arc->indic_angle_start, LV_PART_INDICAT
  99:..\..\..\arduinoLCD\test\Pain Drain\libraries\lvgl\src\widgets/lv_arc.c **** 
 100:..\..\..\arduinoLCD\test\Pain Drain\libraries\lvgl\src\widgets/lv_arc.c ****     inv_knob_area(obj);
 101:..\..\..\arduinoLCD\test\Pain Drain\libraries\lvgl\src\widgets/lv_arc.c **** 
 102:..\..\..\arduinoLCD\test\Pain Drain\libraries\lvgl\src\widgets/lv_arc.c ****     arc->indic_angle_start = start;
 103:..\..\..\arduinoLCD\test\Pain Drain\libraries\lvgl\src\widgets/lv_arc.c **** 
 104:..\..\..\arduinoLCD\test\Pain Drain\libraries\lvgl\src\widgets/lv_arc.c ****     inv_knob_area(obj);
 105:..\..\..\arduinoLCD\test\Pain Drain\libraries\lvgl\src\widgets/lv_arc.c **** }
 106:..\..\..\arduinoLCD\test\Pain Drain\libraries\lvgl\src\widgets/lv_arc.c **** 
 107:..\..\..\arduinoLCD\test\Pain Drain\libraries\lvgl\src\widgets/lv_arc.c **** void lv_arc_set_end_angle(lv_obj_t * obj, uint16_t end)
 108:..\..\..\arduinoLCD\test\Pain Drain\libraries\lvgl\src\widgets/lv_arc.c **** {
 109:..\..\..\arduinoLCD\test\Pain Drain\libraries\lvgl\src\widgets/lv_arc.c ****     LV_ASSERT_OBJ(obj, MY_CLASS);
 110:..\..\..\arduinoLCD\test\Pain Drain\libraries\lvgl\src\widgets/lv_arc.c ****     lv_arc_t * arc = (lv_arc_t *)obj;
 111:..\..\..\arduinoLCD\test\Pain Drain\libraries\lvgl\src\widgets/lv_arc.c ****     if(end > 360) end -= 360;
 112:..\..\..\arduinoLCD\test\Pain Drain\libraries\lvgl\src\widgets/lv_arc.c **** 
 113:..\..\..\arduinoLCD\test\Pain Drain\libraries\lvgl\src\widgets/lv_arc.c ****     int16_t old_delta = arc->indic_angle_end - arc->indic_angle_start;
 114:..\..\..\arduinoLCD\test\Pain Drain\libraries\lvgl\src\widgets/lv_arc.c ****     int16_t new_delta = end - arc->indic_angle_start;
 115:..\..\..\arduinoLCD\test\Pain Drain\libraries\lvgl\src\widgets/lv_arc.c **** 
 116:..\..\..\arduinoLCD\test\Pain Drain\libraries\lvgl\src\widgets/lv_arc.c ****     if(old_delta < 0) old_delta = 360 + old_delta;
 117:..\..\..\arduinoLCD\test\Pain Drain\libraries\lvgl\src\widgets/lv_arc.c ****     if(new_delta < 0) new_delta = 360 + new_delta;
 118:..\..\..\arduinoLCD\test\Pain Drain\libraries\lvgl\src\widgets/lv_arc.c **** 
 119:..\..\..\arduinoLCD\test\Pain Drain\libraries\lvgl\src\widgets/lv_arc.c ****     if(LV_ABS(new_delta - old_delta) > 180)  lv_obj_invalidate(obj);
 120:..\..\..\arduinoLCD\test\Pain Drain\libraries\lvgl\src\widgets/lv_arc.c ****     else if(new_delta < old_delta) inv_arc_area(obj, end, arc->indic_angle_end, LV_PART_INDICATOR);
 121:..\..\..\arduinoLCD\test\Pain Drain\libraries\lvgl\src\widgets/lv_arc.c ****     else if(old_delta < new_delta) inv_arc_area(obj, arc->indic_angle_end, end, LV_PART_INDICATOR);
 122:..\..\..\arduinoLCD\test\Pain Drain\libraries\lvgl\src\widgets/lv_arc.c **** 
 123:..\..\..\arduinoLCD\test\Pain Drain\libraries\lvgl\src\widgets/lv_arc.c ****     inv_knob_area(obj);
 124:..\..\..\arduinoLCD\test\Pain Drain\libraries\lvgl\src\widgets/lv_arc.c **** 
 125:..\..\..\arduinoLCD\test\Pain Drain\libraries\lvgl\src\widgets/lv_arc.c ****     arc->indic_angle_end = end;
 126:..\..\..\arduinoLCD\test\Pain Drain\libraries\lvgl\src\widgets/lv_arc.c **** 
 127:..\..\..\arduinoLCD\test\Pain Drain\libraries\lvgl\src\widgets/lv_arc.c ****     inv_knob_area(obj);
 128:..\..\..\arduinoLCD\test\Pain Drain\libraries\lvgl\src\widgets/lv_arc.c **** }
 129:..\..\..\arduinoLCD\test\Pain Drain\libraries\lvgl\src\widgets/lv_arc.c **** 
 130:..\..\..\arduinoLCD\test\Pain Drain\libraries\lvgl\src\widgets/lv_arc.c **** void lv_arc_set_angles(lv_obj_t * obj, uint16_t start, uint16_t end)
 131:..\..\..\arduinoLCD\test\Pain Drain\libraries\lvgl\src\widgets/lv_arc.c **** {
 132:..\..\..\arduinoLCD\test\Pain Drain\libraries\lvgl\src\widgets/lv_arc.c ****     lv_arc_set_end_angle(obj, end);
 133:..\..\..\arduinoLCD\test\Pain Drain\libraries\lvgl\src\widgets/lv_arc.c ****     lv_arc_set_start_angle(obj, start);
 134:..\..\..\arduinoLCD\test\Pain Drain\libraries\lvgl\src\widgets/lv_arc.c **** }
 135:..\..\..\arduinoLCD\test\Pain Drain\libraries\lvgl\src\widgets/lv_arc.c **** 
 136:..\..\..\arduinoLCD\test\Pain Drain\libraries\lvgl\src\widgets/lv_arc.c **** void lv_arc_set_bg_start_angle(lv_obj_t * obj, uint16_t start)
 137:..\..\..\arduinoLCD\test\Pain Drain\libraries\lvgl\src\widgets/lv_arc.c **** {
 138:..\..\..\arduinoLCD\test\Pain Drain\libraries\lvgl\src\widgets/lv_arc.c ****     LV_ASSERT_OBJ(obj, MY_CLASS);
 139:..\..\..\arduinoLCD\test\Pain Drain\libraries\lvgl\src\widgets/lv_arc.c ****     lv_arc_t * arc = (lv_arc_t *)obj;
 140:..\..\..\arduinoLCD\test\Pain Drain\libraries\lvgl\src\widgets/lv_arc.c **** 
 141:..\..\..\arduinoLCD\test\Pain Drain\libraries\lvgl\src\widgets/lv_arc.c ****     if(start > 360) start -= 360;
 142:..\..\..\arduinoLCD\test\Pain Drain\libraries\lvgl\src\widgets/lv_arc.c **** 
 143:..\..\..\arduinoLCD\test\Pain Drain\libraries\lvgl\src\widgets/lv_arc.c ****     int16_t old_delta = arc->bg_angle_end - arc->bg_angle_start;
 144:..\..\..\arduinoLCD\test\Pain Drain\libraries\lvgl\src\widgets/lv_arc.c ****     int16_t new_delta = arc->bg_angle_end - start;
 145:..\..\..\arduinoLCD\test\Pain Drain\libraries\lvgl\src\widgets/lv_arc.c **** 
ARM GAS  C:\Users\haske\AppData\Local\Temp\ccmHbbn5.s 			page 4


 146:..\..\..\arduinoLCD\test\Pain Drain\libraries\lvgl\src\widgets/lv_arc.c ****     if(old_delta < 0) old_delta = 360 + old_delta;
 147:..\..\..\arduinoLCD\test\Pain Drain\libraries\lvgl\src\widgets/lv_arc.c ****     if(new_delta < 0) new_delta = 360 + new_delta;
 148:..\..\..\arduinoLCD\test\Pain Drain\libraries\lvgl\src\widgets/lv_arc.c **** 
 149:..\..\..\arduinoLCD\test\Pain Drain\libraries\lvgl\src\widgets/lv_arc.c ****     if(LV_ABS(new_delta - old_delta) > 180)  lv_obj_invalidate(obj);
 150:..\..\..\arduinoLCD\test\Pain Drain\libraries\lvgl\src\widgets/lv_arc.c ****     else if(new_delta < old_delta) inv_arc_area(obj, arc->bg_angle_start, start, LV_PART_MAIN);
 151:..\..\..\arduinoLCD\test\Pain Drain\libraries\lvgl\src\widgets/lv_arc.c ****     else if(old_delta < new_delta) inv_arc_area(obj, start, arc->bg_angle_start, LV_PART_MAIN);
 152:..\..\..\arduinoLCD\test\Pain Drain\libraries\lvgl\src\widgets/lv_arc.c **** 
 153:..\..\..\arduinoLCD\test\Pain Drain\libraries\lvgl\src\widgets/lv_arc.c ****     arc->bg_angle_start = start;
 154:..\..\..\arduinoLCD\test\Pain Drain\libraries\lvgl\src\widgets/lv_arc.c **** 
 155:..\..\..\arduinoLCD\test\Pain Drain\libraries\lvgl\src\widgets/lv_arc.c ****     value_update(obj);
 156:..\..\..\arduinoLCD\test\Pain Drain\libraries\lvgl\src\widgets/lv_arc.c **** }
 157:..\..\..\arduinoLCD\test\Pain Drain\libraries\lvgl\src\widgets/lv_arc.c **** 
 158:..\..\..\arduinoLCD\test\Pain Drain\libraries\lvgl\src\widgets/lv_arc.c **** void lv_arc_set_bg_end_angle(lv_obj_t * obj, uint16_t end)
 159:..\..\..\arduinoLCD\test\Pain Drain\libraries\lvgl\src\widgets/lv_arc.c **** {
 160:..\..\..\arduinoLCD\test\Pain Drain\libraries\lvgl\src\widgets/lv_arc.c ****     LV_ASSERT_OBJ(obj, MY_CLASS);
 161:..\..\..\arduinoLCD\test\Pain Drain\libraries\lvgl\src\widgets/lv_arc.c ****     lv_arc_t * arc = (lv_arc_t *)obj;
 162:..\..\..\arduinoLCD\test\Pain Drain\libraries\lvgl\src\widgets/lv_arc.c **** 
 163:..\..\..\arduinoLCD\test\Pain Drain\libraries\lvgl\src\widgets/lv_arc.c ****     if(end > 360) end -= 360;
 164:..\..\..\arduinoLCD\test\Pain Drain\libraries\lvgl\src\widgets/lv_arc.c **** 
 165:..\..\..\arduinoLCD\test\Pain Drain\libraries\lvgl\src\widgets/lv_arc.c ****     int16_t old_delta = arc->bg_angle_end - arc->bg_angle_start;
 166:..\..\..\arduinoLCD\test\Pain Drain\libraries\lvgl\src\widgets/lv_arc.c ****     int16_t new_delta = end - arc->bg_angle_start;
 167:..\..\..\arduinoLCD\test\Pain Drain\libraries\lvgl\src\widgets/lv_arc.c **** 
 168:..\..\..\arduinoLCD\test\Pain Drain\libraries\lvgl\src\widgets/lv_arc.c ****     if(old_delta < 0) old_delta = 360 + old_delta;
 169:..\..\..\arduinoLCD\test\Pain Drain\libraries\lvgl\src\widgets/lv_arc.c ****     if(new_delta < 0) new_delta = 360 + new_delta;
 170:..\..\..\arduinoLCD\test\Pain Drain\libraries\lvgl\src\widgets/lv_arc.c **** 
 171:..\..\..\arduinoLCD\test\Pain Drain\libraries\lvgl\src\widgets/lv_arc.c ****     if(LV_ABS(new_delta - old_delta) > 180)  lv_obj_invalidate(obj);
 172:..\..\..\arduinoLCD\test\Pain Drain\libraries\lvgl\src\widgets/lv_arc.c ****     else if(new_delta < old_delta) inv_arc_area(obj, end, arc->bg_angle_end, LV_PART_MAIN);
 173:..\..\..\arduinoLCD\test\Pain Drain\libraries\lvgl\src\widgets/lv_arc.c ****     else if(old_delta < new_delta) inv_arc_area(obj, arc->bg_angle_end, end, LV_PART_MAIN);
 174:..\..\..\arduinoLCD\test\Pain Drain\libraries\lvgl\src\widgets/lv_arc.c **** 
 175:..\..\..\arduinoLCD\test\Pain Drain\libraries\lvgl\src\widgets/lv_arc.c ****     arc->bg_angle_end = end;
 176:..\..\..\arduinoLCD\test\Pain Drain\libraries\lvgl\src\widgets/lv_arc.c **** 
 177:..\..\..\arduinoLCD\test\Pain Drain\libraries\lvgl\src\widgets/lv_arc.c ****     value_update(obj);
 178:..\..\..\arduinoLCD\test\Pain Drain\libraries\lvgl\src\widgets/lv_arc.c **** }
 179:..\..\..\arduinoLCD\test\Pain Drain\libraries\lvgl\src\widgets/lv_arc.c **** 
 180:..\..\..\arduinoLCD\test\Pain Drain\libraries\lvgl\src\widgets/lv_arc.c **** void lv_arc_set_bg_angles(lv_obj_t * obj, uint16_t start, uint16_t end)
 181:..\..\..\arduinoLCD\test\Pain Drain\libraries\lvgl\src\widgets/lv_arc.c **** {
 182:..\..\..\arduinoLCD\test\Pain Drain\libraries\lvgl\src\widgets/lv_arc.c ****     lv_arc_set_bg_end_angle(obj, end);
 183:..\..\..\arduinoLCD\test\Pain Drain\libraries\lvgl\src\widgets/lv_arc.c ****     lv_arc_set_bg_start_angle(obj, start);
 184:..\..\..\arduinoLCD\test\Pain Drain\libraries\lvgl\src\widgets/lv_arc.c **** }
 185:..\..\..\arduinoLCD\test\Pain Drain\libraries\lvgl\src\widgets/lv_arc.c **** 
 186:..\..\..\arduinoLCD\test\Pain Drain\libraries\lvgl\src\widgets/lv_arc.c **** void lv_arc_set_rotation(lv_obj_t * obj, uint16_t rotation)
 187:..\..\..\arduinoLCD\test\Pain Drain\libraries\lvgl\src\widgets/lv_arc.c **** {
 188:..\..\..\arduinoLCD\test\Pain Drain\libraries\lvgl\src\widgets/lv_arc.c ****     LV_ASSERT_OBJ(obj, MY_CLASS);
 189:..\..\..\arduinoLCD\test\Pain Drain\libraries\lvgl\src\widgets/lv_arc.c ****     lv_arc_t * arc = (lv_arc_t *)obj;
 190:..\..\..\arduinoLCD\test\Pain Drain\libraries\lvgl\src\widgets/lv_arc.c **** 
 191:..\..\..\arduinoLCD\test\Pain Drain\libraries\lvgl\src\widgets/lv_arc.c ****     arc->rotation = rotation;
 192:..\..\..\arduinoLCD\test\Pain Drain\libraries\lvgl\src\widgets/lv_arc.c **** 
 193:..\..\..\arduinoLCD\test\Pain Drain\libraries\lvgl\src\widgets/lv_arc.c ****     lv_obj_invalidate(obj);
 194:..\..\..\arduinoLCD\test\Pain Drain\libraries\lvgl\src\widgets/lv_arc.c **** }
 195:..\..\..\arduinoLCD\test\Pain Drain\libraries\lvgl\src\widgets/lv_arc.c **** 
 196:..\..\..\arduinoLCD\test\Pain Drain\libraries\lvgl\src\widgets/lv_arc.c **** void lv_arc_set_mode(lv_obj_t * obj, lv_arc_mode_t type)
 197:..\..\..\arduinoLCD\test\Pain Drain\libraries\lvgl\src\widgets/lv_arc.c **** {
 198:..\..\..\arduinoLCD\test\Pain Drain\libraries\lvgl\src\widgets/lv_arc.c ****     LV_ASSERT_OBJ(obj, MY_CLASS);
 199:..\..\..\arduinoLCD\test\Pain Drain\libraries\lvgl\src\widgets/lv_arc.c ****     lv_arc_t * arc = (lv_arc_t *)obj;
 200:..\..\..\arduinoLCD\test\Pain Drain\libraries\lvgl\src\widgets/lv_arc.c **** 
 201:..\..\..\arduinoLCD\test\Pain Drain\libraries\lvgl\src\widgets/lv_arc.c ****     int16_t val = arc->value;
 202:..\..\..\arduinoLCD\test\Pain Drain\libraries\lvgl\src\widgets/lv_arc.c **** 
ARM GAS  C:\Users\haske\AppData\Local\Temp\ccmHbbn5.s 			page 5


 203:..\..\..\arduinoLCD\test\Pain Drain\libraries\lvgl\src\widgets/lv_arc.c ****     arc->type = type;
 204:..\..\..\arduinoLCD\test\Pain Drain\libraries\lvgl\src\widgets/lv_arc.c ****     arc->value = -1; /** Force set_value handling*/
 205:..\..\..\arduinoLCD\test\Pain Drain\libraries\lvgl\src\widgets/lv_arc.c **** 
 206:..\..\..\arduinoLCD\test\Pain Drain\libraries\lvgl\src\widgets/lv_arc.c ****     int16_t bg_midpoint, bg_end = arc->bg_angle_end;
 207:..\..\..\arduinoLCD\test\Pain Drain\libraries\lvgl\src\widgets/lv_arc.c ****     if(arc->bg_angle_end < arc->bg_angle_start) bg_end = arc->bg_angle_end + 360;
 208:..\..\..\arduinoLCD\test\Pain Drain\libraries\lvgl\src\widgets/lv_arc.c **** 
 209:..\..\..\arduinoLCD\test\Pain Drain\libraries\lvgl\src\widgets/lv_arc.c ****     switch(arc->type) {
 210:..\..\..\arduinoLCD\test\Pain Drain\libraries\lvgl\src\widgets/lv_arc.c ****         case LV_ARC_MODE_SYMMETRICAL:
 211:..\..\..\arduinoLCD\test\Pain Drain\libraries\lvgl\src\widgets/lv_arc.c ****             bg_midpoint = (arc->bg_angle_start + bg_end) / 2;
 212:..\..\..\arduinoLCD\test\Pain Drain\libraries\lvgl\src\widgets/lv_arc.c ****             lv_arc_set_start_angle(obj, bg_midpoint);
 213:..\..\..\arduinoLCD\test\Pain Drain\libraries\lvgl\src\widgets/lv_arc.c ****             lv_arc_set_end_angle(obj, bg_midpoint);
 214:..\..\..\arduinoLCD\test\Pain Drain\libraries\lvgl\src\widgets/lv_arc.c ****             break;
 215:..\..\..\arduinoLCD\test\Pain Drain\libraries\lvgl\src\widgets/lv_arc.c ****         case LV_ARC_MODE_REVERSE:
 216:..\..\..\arduinoLCD\test\Pain Drain\libraries\lvgl\src\widgets/lv_arc.c ****             lv_arc_set_end_angle(obj, arc->bg_angle_end);
 217:..\..\..\arduinoLCD\test\Pain Drain\libraries\lvgl\src\widgets/lv_arc.c ****             break;
 218:..\..\..\arduinoLCD\test\Pain Drain\libraries\lvgl\src\widgets/lv_arc.c ****         default: /** LV_ARC_TYPE_NORMAL*/
 219:..\..\..\arduinoLCD\test\Pain Drain\libraries\lvgl\src\widgets/lv_arc.c ****             lv_arc_set_start_angle(obj, arc->bg_angle_start);
 220:..\..\..\arduinoLCD\test\Pain Drain\libraries\lvgl\src\widgets/lv_arc.c ****     }
 221:..\..\..\arduinoLCD\test\Pain Drain\libraries\lvgl\src\widgets/lv_arc.c **** 
 222:..\..\..\arduinoLCD\test\Pain Drain\libraries\lvgl\src\widgets/lv_arc.c ****     lv_arc_set_value(obj, val);
 223:..\..\..\arduinoLCD\test\Pain Drain\libraries\lvgl\src\widgets/lv_arc.c **** }
 224:..\..\..\arduinoLCD\test\Pain Drain\libraries\lvgl\src\widgets/lv_arc.c **** 
 225:..\..\..\arduinoLCD\test\Pain Drain\libraries\lvgl\src\widgets/lv_arc.c **** void lv_arc_set_value(lv_obj_t * obj, int16_t value)
 226:..\..\..\arduinoLCD\test\Pain Drain\libraries\lvgl\src\widgets/lv_arc.c **** {
 227:..\..\..\arduinoLCD\test\Pain Drain\libraries\lvgl\src\widgets/lv_arc.c ****     LV_ASSERT_OBJ(obj, MY_CLASS);
 228:..\..\..\arduinoLCD\test\Pain Drain\libraries\lvgl\src\widgets/lv_arc.c ****     lv_arc_t * arc = (lv_arc_t *)obj;
 229:..\..\..\arduinoLCD\test\Pain Drain\libraries\lvgl\src\widgets/lv_arc.c **** 
 230:..\..\..\arduinoLCD\test\Pain Drain\libraries\lvgl\src\widgets/lv_arc.c ****     if(arc->value == value) return;
 231:..\..\..\arduinoLCD\test\Pain Drain\libraries\lvgl\src\widgets/lv_arc.c **** 
 232:..\..\..\arduinoLCD\test\Pain Drain\libraries\lvgl\src\widgets/lv_arc.c ****     int16_t new_value;
 233:..\..\..\arduinoLCD\test\Pain Drain\libraries\lvgl\src\widgets/lv_arc.c ****     new_value = value > arc->max_value ? arc->max_value : value;
 234:..\..\..\arduinoLCD\test\Pain Drain\libraries\lvgl\src\widgets/lv_arc.c ****     new_value = new_value < arc->min_value ? arc->min_value : new_value;
 235:..\..\..\arduinoLCD\test\Pain Drain\libraries\lvgl\src\widgets/lv_arc.c **** 
 236:..\..\..\arduinoLCD\test\Pain Drain\libraries\lvgl\src\widgets/lv_arc.c ****     if(arc->value == new_value) return;
 237:..\..\..\arduinoLCD\test\Pain Drain\libraries\lvgl\src\widgets/lv_arc.c ****     arc->value = new_value;
 238:..\..\..\arduinoLCD\test\Pain Drain\libraries\lvgl\src\widgets/lv_arc.c **** 
 239:..\..\..\arduinoLCD\test\Pain Drain\libraries\lvgl\src\widgets/lv_arc.c ****     value_update(obj);
 240:..\..\..\arduinoLCD\test\Pain Drain\libraries\lvgl\src\widgets/lv_arc.c **** }
 241:..\..\..\arduinoLCD\test\Pain Drain\libraries\lvgl\src\widgets/lv_arc.c **** 
 242:..\..\..\arduinoLCD\test\Pain Drain\libraries\lvgl\src\widgets/lv_arc.c **** void lv_arc_set_range(lv_obj_t * obj, int16_t min, int16_t max)
 243:..\..\..\arduinoLCD\test\Pain Drain\libraries\lvgl\src\widgets/lv_arc.c **** {
 244:..\..\..\arduinoLCD\test\Pain Drain\libraries\lvgl\src\widgets/lv_arc.c ****     LV_ASSERT_OBJ(obj, MY_CLASS);
 245:..\..\..\arduinoLCD\test\Pain Drain\libraries\lvgl\src\widgets/lv_arc.c ****     lv_arc_t * arc = (lv_arc_t *)obj;
 246:..\..\..\arduinoLCD\test\Pain Drain\libraries\lvgl\src\widgets/lv_arc.c **** 
 247:..\..\..\arduinoLCD\test\Pain Drain\libraries\lvgl\src\widgets/lv_arc.c ****     if(arc->min_value == min && arc->max_value == max) return;
 248:..\..\..\arduinoLCD\test\Pain Drain\libraries\lvgl\src\widgets/lv_arc.c **** 
 249:..\..\..\arduinoLCD\test\Pain Drain\libraries\lvgl\src\widgets/lv_arc.c ****     arc->min_value = min;
 250:..\..\..\arduinoLCD\test\Pain Drain\libraries\lvgl\src\widgets/lv_arc.c ****     arc->max_value = max;
 251:..\..\..\arduinoLCD\test\Pain Drain\libraries\lvgl\src\widgets/lv_arc.c **** 
 252:..\..\..\arduinoLCD\test\Pain Drain\libraries\lvgl\src\widgets/lv_arc.c ****     if(arc->value < min) {
 253:..\..\..\arduinoLCD\test\Pain Drain\libraries\lvgl\src\widgets/lv_arc.c ****         arc->value = min;
 254:..\..\..\arduinoLCD\test\Pain Drain\libraries\lvgl\src\widgets/lv_arc.c ****     }
 255:..\..\..\arduinoLCD\test\Pain Drain\libraries\lvgl\src\widgets/lv_arc.c ****     if(arc->value > max) {
 256:..\..\..\arduinoLCD\test\Pain Drain\libraries\lvgl\src\widgets/lv_arc.c ****         arc->value = max;
 257:..\..\..\arduinoLCD\test\Pain Drain\libraries\lvgl\src\widgets/lv_arc.c ****     }
 258:..\..\..\arduinoLCD\test\Pain Drain\libraries\lvgl\src\widgets/lv_arc.c **** 
 259:..\..\..\arduinoLCD\test\Pain Drain\libraries\lvgl\src\widgets/lv_arc.c ****     value_update(obj); /*value has changed relative to the new range*/
ARM GAS  C:\Users\haske\AppData\Local\Temp\ccmHbbn5.s 			page 6


 260:..\..\..\arduinoLCD\test\Pain Drain\libraries\lvgl\src\widgets/lv_arc.c **** }
 261:..\..\..\arduinoLCD\test\Pain Drain\libraries\lvgl\src\widgets/lv_arc.c **** 
 262:..\..\..\arduinoLCD\test\Pain Drain\libraries\lvgl\src\widgets/lv_arc.c **** void lv_arc_set_change_rate(lv_obj_t * obj, uint16_t rate)
 263:..\..\..\arduinoLCD\test\Pain Drain\libraries\lvgl\src\widgets/lv_arc.c **** {
 264:..\..\..\arduinoLCD\test\Pain Drain\libraries\lvgl\src\widgets/lv_arc.c ****     LV_ASSERT_OBJ(obj, MY_CLASS);
 265:..\..\..\arduinoLCD\test\Pain Drain\libraries\lvgl\src\widgets/lv_arc.c ****     lv_arc_t * arc = (lv_arc_t *)obj;
 266:..\..\..\arduinoLCD\test\Pain Drain\libraries\lvgl\src\widgets/lv_arc.c **** 
 267:..\..\..\arduinoLCD\test\Pain Drain\libraries\lvgl\src\widgets/lv_arc.c ****     arc->chg_rate = rate;
 268:..\..\..\arduinoLCD\test\Pain Drain\libraries\lvgl\src\widgets/lv_arc.c **** }
 269:..\..\..\arduinoLCD\test\Pain Drain\libraries\lvgl\src\widgets/lv_arc.c **** 
 270:..\..\..\arduinoLCD\test\Pain Drain\libraries\lvgl\src\widgets/lv_arc.c **** /*=====================
 271:..\..\..\arduinoLCD\test\Pain Drain\libraries\lvgl\src\widgets/lv_arc.c ****  * Getter functions
 272:..\..\..\arduinoLCD\test\Pain Drain\libraries\lvgl\src\widgets/lv_arc.c ****  *====================*/
 273:..\..\..\arduinoLCD\test\Pain Drain\libraries\lvgl\src\widgets/lv_arc.c **** 
 274:..\..\..\arduinoLCD\test\Pain Drain\libraries\lvgl\src\widgets/lv_arc.c **** uint16_t lv_arc_get_angle_start(lv_obj_t * obj)
 275:..\..\..\arduinoLCD\test\Pain Drain\libraries\lvgl\src\widgets/lv_arc.c **** {
 276:..\..\..\arduinoLCD\test\Pain Drain\libraries\lvgl\src\widgets/lv_arc.c ****     LV_ASSERT_OBJ(obj, MY_CLASS);
 277:..\..\..\arduinoLCD\test\Pain Drain\libraries\lvgl\src\widgets/lv_arc.c ****     return ((lv_arc_t *) obj)->indic_angle_start;
 278:..\..\..\arduinoLCD\test\Pain Drain\libraries\lvgl\src\widgets/lv_arc.c **** }
 279:..\..\..\arduinoLCD\test\Pain Drain\libraries\lvgl\src\widgets/lv_arc.c **** 
 280:..\..\..\arduinoLCD\test\Pain Drain\libraries\lvgl\src\widgets/lv_arc.c **** uint16_t lv_arc_get_angle_end(lv_obj_t * obj)
 281:..\..\..\arduinoLCD\test\Pain Drain\libraries\lvgl\src\widgets/lv_arc.c **** {
 282:..\..\..\arduinoLCD\test\Pain Drain\libraries\lvgl\src\widgets/lv_arc.c ****     LV_ASSERT_OBJ(obj, MY_CLASS);
 283:..\..\..\arduinoLCD\test\Pain Drain\libraries\lvgl\src\widgets/lv_arc.c ****     return ((lv_arc_t *) obj)->indic_angle_end;
 284:..\..\..\arduinoLCD\test\Pain Drain\libraries\lvgl\src\widgets/lv_arc.c **** }
 285:..\..\..\arduinoLCD\test\Pain Drain\libraries\lvgl\src\widgets/lv_arc.c **** 
 286:..\..\..\arduinoLCD\test\Pain Drain\libraries\lvgl\src\widgets/lv_arc.c **** uint16_t lv_arc_get_bg_angle_start(lv_obj_t * obj)
 287:..\..\..\arduinoLCD\test\Pain Drain\libraries\lvgl\src\widgets/lv_arc.c **** {
 288:..\..\..\arduinoLCD\test\Pain Drain\libraries\lvgl\src\widgets/lv_arc.c ****     LV_ASSERT_OBJ(obj, MY_CLASS);
 289:..\..\..\arduinoLCD\test\Pain Drain\libraries\lvgl\src\widgets/lv_arc.c ****     return ((lv_arc_t *) obj)->bg_angle_start;
 290:..\..\..\arduinoLCD\test\Pain Drain\libraries\lvgl\src\widgets/lv_arc.c **** }
 291:..\..\..\arduinoLCD\test\Pain Drain\libraries\lvgl\src\widgets/lv_arc.c **** 
 292:..\..\..\arduinoLCD\test\Pain Drain\libraries\lvgl\src\widgets/lv_arc.c **** uint16_t lv_arc_get_bg_angle_end(lv_obj_t * obj)
 293:..\..\..\arduinoLCD\test\Pain Drain\libraries\lvgl\src\widgets/lv_arc.c **** {
 294:..\..\..\arduinoLCD\test\Pain Drain\libraries\lvgl\src\widgets/lv_arc.c ****     LV_ASSERT_OBJ(obj, MY_CLASS);
 295:..\..\..\arduinoLCD\test\Pain Drain\libraries\lvgl\src\widgets/lv_arc.c ****     return ((lv_arc_t *) obj)->bg_angle_end;
 296:..\..\..\arduinoLCD\test\Pain Drain\libraries\lvgl\src\widgets/lv_arc.c **** }
 297:..\..\..\arduinoLCD\test\Pain Drain\libraries\lvgl\src\widgets/lv_arc.c **** 
 298:..\..\..\arduinoLCD\test\Pain Drain\libraries\lvgl\src\widgets/lv_arc.c **** int16_t lv_arc_get_value(const lv_obj_t * obj)
 299:..\..\..\arduinoLCD\test\Pain Drain\libraries\lvgl\src\widgets/lv_arc.c **** {
 300:..\..\..\arduinoLCD\test\Pain Drain\libraries\lvgl\src\widgets/lv_arc.c ****     LV_ASSERT_OBJ(obj, MY_CLASS);
 301:..\..\..\arduinoLCD\test\Pain Drain\libraries\lvgl\src\widgets/lv_arc.c ****     return ((lv_arc_t *) obj)->value;
 302:..\..\..\arduinoLCD\test\Pain Drain\libraries\lvgl\src\widgets/lv_arc.c **** }
 303:..\..\..\arduinoLCD\test\Pain Drain\libraries\lvgl\src\widgets/lv_arc.c **** 
 304:..\..\..\arduinoLCD\test\Pain Drain\libraries\lvgl\src\widgets/lv_arc.c **** int16_t lv_arc_get_min_value(const lv_obj_t * obj)
 305:..\..\..\arduinoLCD\test\Pain Drain\libraries\lvgl\src\widgets/lv_arc.c **** {
 306:..\..\..\arduinoLCD\test\Pain Drain\libraries\lvgl\src\widgets/lv_arc.c ****     LV_ASSERT_OBJ(obj, MY_CLASS);
 307:..\..\..\arduinoLCD\test\Pain Drain\libraries\lvgl\src\widgets/lv_arc.c ****     return ((lv_arc_t *) obj)->min_value;
 308:..\..\..\arduinoLCD\test\Pain Drain\libraries\lvgl\src\widgets/lv_arc.c **** }
 309:..\..\..\arduinoLCD\test\Pain Drain\libraries\lvgl\src\widgets/lv_arc.c **** 
 310:..\..\..\arduinoLCD\test\Pain Drain\libraries\lvgl\src\widgets/lv_arc.c **** int16_t lv_arc_get_max_value(const lv_obj_t * obj)
 311:..\..\..\arduinoLCD\test\Pain Drain\libraries\lvgl\src\widgets/lv_arc.c **** {
 312:..\..\..\arduinoLCD\test\Pain Drain\libraries\lvgl\src\widgets/lv_arc.c ****     LV_ASSERT_OBJ(obj, MY_CLASS);
 313:..\..\..\arduinoLCD\test\Pain Drain\libraries\lvgl\src\widgets/lv_arc.c ****     return ((lv_arc_t *) obj)->max_value;
 314:..\..\..\arduinoLCD\test\Pain Drain\libraries\lvgl\src\widgets/lv_arc.c **** }
 315:..\..\..\arduinoLCD\test\Pain Drain\libraries\lvgl\src\widgets/lv_arc.c **** 
 316:..\..\..\arduinoLCD\test\Pain Drain\libraries\lvgl\src\widgets/lv_arc.c **** lv_arc_mode_t lv_arc_get_mode(const lv_obj_t * obj)
ARM GAS  C:\Users\haske\AppData\Local\Temp\ccmHbbn5.s 			page 7


 317:..\..\..\arduinoLCD\test\Pain Drain\libraries\lvgl\src\widgets/lv_arc.c **** {
 318:..\..\..\arduinoLCD\test\Pain Drain\libraries\lvgl\src\widgets/lv_arc.c ****     LV_ASSERT_OBJ(obj, MY_CLASS);
 319:..\..\..\arduinoLCD\test\Pain Drain\libraries\lvgl\src\widgets/lv_arc.c ****     return ((lv_arc_t *) obj)->type;
 320:..\..\..\arduinoLCD\test\Pain Drain\libraries\lvgl\src\widgets/lv_arc.c **** }
 321:..\..\..\arduinoLCD\test\Pain Drain\libraries\lvgl\src\widgets/lv_arc.c **** 
 322:..\..\..\arduinoLCD\test\Pain Drain\libraries\lvgl\src\widgets/lv_arc.c **** /*=====================
 323:..\..\..\arduinoLCD\test\Pain Drain\libraries\lvgl\src\widgets/lv_arc.c ****  * Other functions
 324:..\..\..\arduinoLCD\test\Pain Drain\libraries\lvgl\src\widgets/lv_arc.c ****  *====================*/
 325:..\..\..\arduinoLCD\test\Pain Drain\libraries\lvgl\src\widgets/lv_arc.c **** 
 326:..\..\..\arduinoLCD\test\Pain Drain\libraries\lvgl\src\widgets/lv_arc.c **** 
 327:..\..\..\arduinoLCD\test\Pain Drain\libraries\lvgl\src\widgets/lv_arc.c **** void lv_arc_align_obj_to_angle(const lv_obj_t * obj, lv_obj_t * obj_to_align, lv_coord_t r_offset)
 328:..\..\..\arduinoLCD\test\Pain Drain\libraries\lvgl\src\widgets/lv_arc.c **** {
 329:..\..\..\arduinoLCD\test\Pain Drain\libraries\lvgl\src\widgets/lv_arc.c ****     LV_ASSERT_OBJ(obj, MY_CLASS);
 330:..\..\..\arduinoLCD\test\Pain Drain\libraries\lvgl\src\widgets/lv_arc.c ****     LV_ASSERT_NULL(obj_to_align);
 331:..\..\..\arduinoLCD\test\Pain Drain\libraries\lvgl\src\widgets/lv_arc.c **** 
 332:..\..\..\arduinoLCD\test\Pain Drain\libraries\lvgl\src\widgets/lv_arc.c ****     lv_obj_update_layout(obj);
 333:..\..\..\arduinoLCD\test\Pain Drain\libraries\lvgl\src\widgets/lv_arc.c **** 
 334:..\..\..\arduinoLCD\test\Pain Drain\libraries\lvgl\src\widgets/lv_arc.c ****     lv_point_t center;
 335:..\..\..\arduinoLCD\test\Pain Drain\libraries\lvgl\src\widgets/lv_arc.c ****     lv_coord_t arc_r;
 336:..\..\..\arduinoLCD\test\Pain Drain\libraries\lvgl\src\widgets/lv_arc.c ****     get_center(obj, &center, &arc_r);
 337:..\..\..\arduinoLCD\test\Pain Drain\libraries\lvgl\src\widgets/lv_arc.c ****     lv_coord_t indic_width = lv_obj_get_style_arc_width(obj, LV_PART_INDICATOR);
 338:..\..\..\arduinoLCD\test\Pain Drain\libraries\lvgl\src\widgets/lv_arc.c ****     lv_coord_t indic_width_half = indic_width / 2;
 339:..\..\..\arduinoLCD\test\Pain Drain\libraries\lvgl\src\widgets/lv_arc.c ****     arc_r -= indic_width_half;
 340:..\..\..\arduinoLCD\test\Pain Drain\libraries\lvgl\src\widgets/lv_arc.c ****     arc_r += r_offset;
 341:..\..\..\arduinoLCD\test\Pain Drain\libraries\lvgl\src\widgets/lv_arc.c **** 
 342:..\..\..\arduinoLCD\test\Pain Drain\libraries\lvgl\src\widgets/lv_arc.c ****     uint16_t angle = get_angle(obj);
 343:..\..\..\arduinoLCD\test\Pain Drain\libraries\lvgl\src\widgets/lv_arc.c ****     lv_coord_t knob_x = (arc_r * lv_trigo_sin(angle + 90)) >> LV_TRIGO_SHIFT;
 344:..\..\..\arduinoLCD\test\Pain Drain\libraries\lvgl\src\widgets/lv_arc.c ****     lv_coord_t knob_y = (arc_r * lv_trigo_sin(angle)) >> LV_TRIGO_SHIFT;
 345:..\..\..\arduinoLCD\test\Pain Drain\libraries\lvgl\src\widgets/lv_arc.c ****     lv_obj_align_to(obj_to_align, obj, LV_ALIGN_CENTER, knob_x, knob_y);
 346:..\..\..\arduinoLCD\test\Pain Drain\libraries\lvgl\src\widgets/lv_arc.c **** }
 347:..\..\..\arduinoLCD\test\Pain Drain\libraries\lvgl\src\widgets/lv_arc.c **** 
 348:..\..\..\arduinoLCD\test\Pain Drain\libraries\lvgl\src\widgets/lv_arc.c **** void lv_arc_rotate_obj_to_angle(const lv_obj_t * obj, lv_obj_t * obj_to_rotate, lv_coord_t r_offset
 349:..\..\..\arduinoLCD\test\Pain Drain\libraries\lvgl\src\widgets/lv_arc.c **** {
 350:..\..\..\arduinoLCD\test\Pain Drain\libraries\lvgl\src\widgets/lv_arc.c ****     LV_ASSERT_OBJ(obj, MY_CLASS);
 351:..\..\..\arduinoLCD\test\Pain Drain\libraries\lvgl\src\widgets/lv_arc.c ****     LV_ASSERT_NULL(obj_to_rotate);
 352:..\..\..\arduinoLCD\test\Pain Drain\libraries\lvgl\src\widgets/lv_arc.c **** 
 353:..\..\..\arduinoLCD\test\Pain Drain\libraries\lvgl\src\widgets/lv_arc.c ****     lv_obj_update_layout(obj);
 354:..\..\..\arduinoLCD\test\Pain Drain\libraries\lvgl\src\widgets/lv_arc.c **** 
 355:..\..\..\arduinoLCD\test\Pain Drain\libraries\lvgl\src\widgets/lv_arc.c ****     lv_point_t center;
 356:..\..\..\arduinoLCD\test\Pain Drain\libraries\lvgl\src\widgets/lv_arc.c ****     lv_coord_t arc_r;
 357:..\..\..\arduinoLCD\test\Pain Drain\libraries\lvgl\src\widgets/lv_arc.c ****     get_center(obj, &center, &arc_r);
 358:..\..\..\arduinoLCD\test\Pain Drain\libraries\lvgl\src\widgets/lv_arc.c ****     lv_coord_t indic_width = lv_obj_get_style_arc_width(obj, LV_PART_INDICATOR);
 359:..\..\..\arduinoLCD\test\Pain Drain\libraries\lvgl\src\widgets/lv_arc.c ****     lv_coord_t indic_width_half = indic_width / 2;
 360:..\..\..\arduinoLCD\test\Pain Drain\libraries\lvgl\src\widgets/lv_arc.c ****     arc_r -= indic_width_half;
 361:..\..\..\arduinoLCD\test\Pain Drain\libraries\lvgl\src\widgets/lv_arc.c **** 
 362:..\..\..\arduinoLCD\test\Pain Drain\libraries\lvgl\src\widgets/lv_arc.c ****     arc_r += r_offset;
 363:..\..\..\arduinoLCD\test\Pain Drain\libraries\lvgl\src\widgets/lv_arc.c ****     lv_obj_align_to(obj_to_rotate, obj, LV_ALIGN_CENTER, 0, -arc_r);
 364:..\..\..\arduinoLCD\test\Pain Drain\libraries\lvgl\src\widgets/lv_arc.c **** 
 365:..\..\..\arduinoLCD\test\Pain Drain\libraries\lvgl\src\widgets/lv_arc.c ****     lv_obj_update_layout(obj);
 366:..\..\..\arduinoLCD\test\Pain Drain\libraries\lvgl\src\widgets/lv_arc.c **** 
 367:..\..\..\arduinoLCD\test\Pain Drain\libraries\lvgl\src\widgets/lv_arc.c ****     uint16_t angle = get_angle(obj);
 368:..\..\..\arduinoLCD\test\Pain Drain\libraries\lvgl\src\widgets/lv_arc.c ****     lv_coord_t pivot_x = obj_to_rotate->coords.x1 - center.x;
 369:..\..\..\arduinoLCD\test\Pain Drain\libraries\lvgl\src\widgets/lv_arc.c ****     lv_coord_t pivot_y = obj_to_rotate->coords.y1 - center.y;
 370:..\..\..\arduinoLCD\test\Pain Drain\libraries\lvgl\src\widgets/lv_arc.c ****     lv_obj_set_style_transform_pivot_x(obj_to_rotate, -pivot_x, 0);
 371:..\..\..\arduinoLCD\test\Pain Drain\libraries\lvgl\src\widgets/lv_arc.c ****     lv_obj_set_style_transform_pivot_y(obj_to_rotate, -pivot_y, 0);
 372:..\..\..\arduinoLCD\test\Pain Drain\libraries\lvgl\src\widgets/lv_arc.c ****     lv_obj_set_style_transform_angle(obj_to_rotate, angle * 10 + 900, 0);
 373:..\..\..\arduinoLCD\test\Pain Drain\libraries\lvgl\src\widgets/lv_arc.c **** }
ARM GAS  C:\Users\haske\AppData\Local\Temp\ccmHbbn5.s 			page 8


 374:..\..\..\arduinoLCD\test\Pain Drain\libraries\lvgl\src\widgets/lv_arc.c **** 
 375:..\..\..\arduinoLCD\test\Pain Drain\libraries\lvgl\src\widgets/lv_arc.c **** 
 376:..\..\..\arduinoLCD\test\Pain Drain\libraries\lvgl\src\widgets/lv_arc.c **** /**********************
 377:..\..\..\arduinoLCD\test\Pain Drain\libraries\lvgl\src\widgets/lv_arc.c ****  *   STATIC FUNCTIONS
 378:..\..\..\arduinoLCD\test\Pain Drain\libraries\lvgl\src\widgets/lv_arc.c ****  **********************/
 379:..\..\..\arduinoLCD\test\Pain Drain\libraries\lvgl\src\widgets/lv_arc.c **** 
 380:..\..\..\arduinoLCD\test\Pain Drain\libraries\lvgl\src\widgets/lv_arc.c **** static void lv_arc_constructor(const lv_obj_class_t * class_p, lv_obj_t * obj)
 381:..\..\..\arduinoLCD\test\Pain Drain\libraries\lvgl\src\widgets/lv_arc.c **** {
 382:..\..\..\arduinoLCD\test\Pain Drain\libraries\lvgl\src\widgets/lv_arc.c ****     LV_UNUSED(class_p);
 383:..\..\..\arduinoLCD\test\Pain Drain\libraries\lvgl\src\widgets/lv_arc.c ****     LV_TRACE_OBJ_CREATE("begin");
 384:..\..\..\arduinoLCD\test\Pain Drain\libraries\lvgl\src\widgets/lv_arc.c **** 
 385:..\..\..\arduinoLCD\test\Pain Drain\libraries\lvgl\src\widgets/lv_arc.c ****     lv_arc_t * arc = (lv_arc_t *)obj;
 386:..\..\..\arduinoLCD\test\Pain Drain\libraries\lvgl\src\widgets/lv_arc.c **** 
 387:..\..\..\arduinoLCD\test\Pain Drain\libraries\lvgl\src\widgets/lv_arc.c ****     /*Initialize the allocated 'ext'*/
 388:..\..\..\arduinoLCD\test\Pain Drain\libraries\lvgl\src\widgets/lv_arc.c ****     arc->rotation = 0;
 389:..\..\..\arduinoLCD\test\Pain Drain\libraries\lvgl\src\widgets/lv_arc.c ****     arc->bg_angle_start = 135;
 390:..\..\..\arduinoLCD\test\Pain Drain\libraries\lvgl\src\widgets/lv_arc.c ****     arc->bg_angle_end   = 45;
 391:..\..\..\arduinoLCD\test\Pain Drain\libraries\lvgl\src\widgets/lv_arc.c ****     arc->indic_angle_start = 135;
 392:..\..\..\arduinoLCD\test\Pain Drain\libraries\lvgl\src\widgets/lv_arc.c ****     arc->indic_angle_end   = 270;
 393:..\..\..\arduinoLCD\test\Pain Drain\libraries\lvgl\src\widgets/lv_arc.c ****     arc->type = LV_ARC_MODE_NORMAL;
 394:..\..\..\arduinoLCD\test\Pain Drain\libraries\lvgl\src\widgets/lv_arc.c ****     arc->value = VALUE_UNSET;
 395:..\..\..\arduinoLCD\test\Pain Drain\libraries\lvgl\src\widgets/lv_arc.c ****     arc->min_close = 1;
 396:..\..\..\arduinoLCD\test\Pain Drain\libraries\lvgl\src\widgets/lv_arc.c ****     arc->min_value = 0;
 397:..\..\..\arduinoLCD\test\Pain Drain\libraries\lvgl\src\widgets/lv_arc.c ****     arc->max_value = 100;
 398:..\..\..\arduinoLCD\test\Pain Drain\libraries\lvgl\src\widgets/lv_arc.c ****     arc->dragging = false;
 399:..\..\..\arduinoLCD\test\Pain Drain\libraries\lvgl\src\widgets/lv_arc.c ****     arc->chg_rate = 720;
 400:..\..\..\arduinoLCD\test\Pain Drain\libraries\lvgl\src\widgets/lv_arc.c ****     arc->last_tick = lv_tick_get();
 401:..\..\..\arduinoLCD\test\Pain Drain\libraries\lvgl\src\widgets/lv_arc.c ****     arc->last_angle = arc->indic_angle_end;
 402:..\..\..\arduinoLCD\test\Pain Drain\libraries\lvgl\src\widgets/lv_arc.c **** 
 403:..\..\..\arduinoLCD\test\Pain Drain\libraries\lvgl\src\widgets/lv_arc.c ****     lv_obj_add_flag(obj, LV_OBJ_FLAG_CLICKABLE);
 404:..\..\..\arduinoLCD\test\Pain Drain\libraries\lvgl\src\widgets/lv_arc.c ****     lv_obj_clear_flag(obj, LV_OBJ_FLAG_SCROLL_CHAIN | LV_OBJ_FLAG_SCROLLABLE);
 405:..\..\..\arduinoLCD\test\Pain Drain\libraries\lvgl\src\widgets/lv_arc.c ****     lv_obj_set_ext_click_area(obj, LV_DPI_DEF / 10);
 406:..\..\..\arduinoLCD\test\Pain Drain\libraries\lvgl\src\widgets/lv_arc.c **** 
 407:..\..\..\arduinoLCD\test\Pain Drain\libraries\lvgl\src\widgets/lv_arc.c **** 
 408:..\..\..\arduinoLCD\test\Pain Drain\libraries\lvgl\src\widgets/lv_arc.c ****     LV_TRACE_OBJ_CREATE("finished");
 409:..\..\..\arduinoLCD\test\Pain Drain\libraries\lvgl\src\widgets/lv_arc.c **** }
 410:..\..\..\arduinoLCD\test\Pain Drain\libraries\lvgl\src\widgets/lv_arc.c **** 
 411:..\..\..\arduinoLCD\test\Pain Drain\libraries\lvgl\src\widgets/lv_arc.c **** static void lv_arc_event(const lv_obj_class_t * class_p, lv_event_t * e)
 412:..\..\..\arduinoLCD\test\Pain Drain\libraries\lvgl\src\widgets/lv_arc.c **** {
 413:..\..\..\arduinoLCD\test\Pain Drain\libraries\lvgl\src\widgets/lv_arc.c ****     LV_UNUSED(class_p);
 414:..\..\..\arduinoLCD\test\Pain Drain\libraries\lvgl\src\widgets/lv_arc.c **** 
 415:..\..\..\arduinoLCD\test\Pain Drain\libraries\lvgl\src\widgets/lv_arc.c ****     lv_res_t res;
 416:..\..\..\arduinoLCD\test\Pain Drain\libraries\lvgl\src\widgets/lv_arc.c **** 
 417:..\..\..\arduinoLCD\test\Pain Drain\libraries\lvgl\src\widgets/lv_arc.c ****     /*Call the ancestor's event handler*/
 418:..\..\..\arduinoLCD\test\Pain Drain\libraries\lvgl\src\widgets/lv_arc.c ****     res = lv_obj_event_base(MY_CLASS, e);
 419:..\..\..\arduinoLCD\test\Pain Drain\libraries\lvgl\src\widgets/lv_arc.c ****     if(res != LV_RES_OK) return;
 420:..\..\..\arduinoLCD\test\Pain Drain\libraries\lvgl\src\widgets/lv_arc.c **** 
 421:..\..\..\arduinoLCD\test\Pain Drain\libraries\lvgl\src\widgets/lv_arc.c ****     lv_event_code_t code = lv_event_get_code(e);
 422:..\..\..\arduinoLCD\test\Pain Drain\libraries\lvgl\src\widgets/lv_arc.c ****     lv_obj_t * obj = lv_event_get_target(e);
 423:..\..\..\arduinoLCD\test\Pain Drain\libraries\lvgl\src\widgets/lv_arc.c ****     lv_arc_t * arc = (lv_arc_t *)lv_event_get_target(e);
 424:..\..\..\arduinoLCD\test\Pain Drain\libraries\lvgl\src\widgets/lv_arc.c ****     if(code == LV_EVENT_PRESSING) {
 425:..\..\..\arduinoLCD\test\Pain Drain\libraries\lvgl\src\widgets/lv_arc.c ****         lv_indev_t * indev = lv_indev_get_act();
 426:..\..\..\arduinoLCD\test\Pain Drain\libraries\lvgl\src\widgets/lv_arc.c ****         if(indev == NULL) return;
 427:..\..\..\arduinoLCD\test\Pain Drain\libraries\lvgl\src\widgets/lv_arc.c **** 
 428:..\..\..\arduinoLCD\test\Pain Drain\libraries\lvgl\src\widgets/lv_arc.c ****         /*Handle only pointers here*/
 429:..\..\..\arduinoLCD\test\Pain Drain\libraries\lvgl\src\widgets/lv_arc.c ****         lv_indev_type_t indev_type = lv_indev_get_type(indev);
 430:..\..\..\arduinoLCD\test\Pain Drain\libraries\lvgl\src\widgets/lv_arc.c ****         if(indev_type != LV_INDEV_TYPE_POINTER) return;
ARM GAS  C:\Users\haske\AppData\Local\Temp\ccmHbbn5.s 			page 9


 431:..\..\..\arduinoLCD\test\Pain Drain\libraries\lvgl\src\widgets/lv_arc.c **** 
 432:..\..\..\arduinoLCD\test\Pain Drain\libraries\lvgl\src\widgets/lv_arc.c ****         lv_point_t p;
 433:..\..\..\arduinoLCD\test\Pain Drain\libraries\lvgl\src\widgets/lv_arc.c ****         lv_indev_get_point(indev, &p);
 434:..\..\..\arduinoLCD\test\Pain Drain\libraries\lvgl\src\widgets/lv_arc.c **** 
 435:..\..\..\arduinoLCD\test\Pain Drain\libraries\lvgl\src\widgets/lv_arc.c ****         /*Make point relative to the arc's center*/
 436:..\..\..\arduinoLCD\test\Pain Drain\libraries\lvgl\src\widgets/lv_arc.c ****         lv_point_t center;
 437:..\..\..\arduinoLCD\test\Pain Drain\libraries\lvgl\src\widgets/lv_arc.c ****         lv_coord_t r;
 438:..\..\..\arduinoLCD\test\Pain Drain\libraries\lvgl\src\widgets/lv_arc.c ****         get_center(obj, &center, &r);
 439:..\..\..\arduinoLCD\test\Pain Drain\libraries\lvgl\src\widgets/lv_arc.c **** 
 440:..\..\..\arduinoLCD\test\Pain Drain\libraries\lvgl\src\widgets/lv_arc.c ****         p.x -= center.x;
 441:..\..\..\arduinoLCD\test\Pain Drain\libraries\lvgl\src\widgets/lv_arc.c ****         p.y -= center.y;
 442:..\..\..\arduinoLCD\test\Pain Drain\libraries\lvgl\src\widgets/lv_arc.c **** 
 443:..\..\..\arduinoLCD\test\Pain Drain\libraries\lvgl\src\widgets/lv_arc.c ****         /*Enter dragging mode if pressed out of the knob*/
 444:..\..\..\arduinoLCD\test\Pain Drain\libraries\lvgl\src\widgets/lv_arc.c ****         if(arc->dragging == false) {
 445:..\..\..\arduinoLCD\test\Pain Drain\libraries\lvgl\src\widgets/lv_arc.c ****             lv_coord_t indic_width = lv_obj_get_style_arc_width(obj, LV_PART_INDICATOR);
 446:..\..\..\arduinoLCD\test\Pain Drain\libraries\lvgl\src\widgets/lv_arc.c ****             r -= indic_width;
 447:..\..\..\arduinoLCD\test\Pain Drain\libraries\lvgl\src\widgets/lv_arc.c ****             /*Add some more sensitive area if there is no advanced git testing.
 448:..\..\..\arduinoLCD\test\Pain Drain\libraries\lvgl\src\widgets/lv_arc.c ****              * (Advanced hit testing is more precise)*/
 449:..\..\..\arduinoLCD\test\Pain Drain\libraries\lvgl\src\widgets/lv_arc.c ****             if(lv_obj_has_flag(obj, LV_OBJ_FLAG_ADV_HITTEST)) {
 450:..\..\..\arduinoLCD\test\Pain Drain\libraries\lvgl\src\widgets/lv_arc.c ****                 r -= indic_width;
 451:..\..\..\arduinoLCD\test\Pain Drain\libraries\lvgl\src\widgets/lv_arc.c **** 
 452:..\..\..\arduinoLCD\test\Pain Drain\libraries\lvgl\src\widgets/lv_arc.c ****             }
 453:..\..\..\arduinoLCD\test\Pain Drain\libraries\lvgl\src\widgets/lv_arc.c ****             else {
 454:..\..\..\arduinoLCD\test\Pain Drain\libraries\lvgl\src\widgets/lv_arc.c ****                 r -= LV_MAX(r / 4, indic_width);
 455:..\..\..\arduinoLCD\test\Pain Drain\libraries\lvgl\src\widgets/lv_arc.c ****             }
 456:..\..\..\arduinoLCD\test\Pain Drain\libraries\lvgl\src\widgets/lv_arc.c ****             if(r < 1) r = 1;
 457:..\..\..\arduinoLCD\test\Pain Drain\libraries\lvgl\src\widgets/lv_arc.c **** 
 458:..\..\..\arduinoLCD\test\Pain Drain\libraries\lvgl\src\widgets/lv_arc.c ****             if(p.x * p.x + p.y * p.y > r * r) {
 459:..\..\..\arduinoLCD\test\Pain Drain\libraries\lvgl\src\widgets/lv_arc.c ****                 arc->dragging = true;
 460:..\..\..\arduinoLCD\test\Pain Drain\libraries\lvgl\src\widgets/lv_arc.c ****                 arc->last_tick = lv_tick_get(); /*Capture timestamp at dragging start*/
 461:..\..\..\arduinoLCD\test\Pain Drain\libraries\lvgl\src\widgets/lv_arc.c ****             }
 462:..\..\..\arduinoLCD\test\Pain Drain\libraries\lvgl\src\widgets/lv_arc.c ****         }
 463:..\..\..\arduinoLCD\test\Pain Drain\libraries\lvgl\src\widgets/lv_arc.c **** 
 464:..\..\..\arduinoLCD\test\Pain Drain\libraries\lvgl\src\widgets/lv_arc.c ****         /*It must be in "dragging" mode to turn the arc*/
 465:..\..\..\arduinoLCD\test\Pain Drain\libraries\lvgl\src\widgets/lv_arc.c ****         if(arc->dragging == false) return;
 466:..\..\..\arduinoLCD\test\Pain Drain\libraries\lvgl\src\widgets/lv_arc.c **** 
 467:..\..\..\arduinoLCD\test\Pain Drain\libraries\lvgl\src\widgets/lv_arc.c ****         /*No angle can be determined if exactly the middle of the arc is being pressed*/
 468:..\..\..\arduinoLCD\test\Pain Drain\libraries\lvgl\src\widgets/lv_arc.c ****         if(p.x == 0 && p.y == 0) return;
 469:..\..\..\arduinoLCD\test\Pain Drain\libraries\lvgl\src\widgets/lv_arc.c **** 
 470:..\..\..\arduinoLCD\test\Pain Drain\libraries\lvgl\src\widgets/lv_arc.c ****         /*Calculate the angle of the pressed point*/
 471:..\..\..\arduinoLCD\test\Pain Drain\libraries\lvgl\src\widgets/lv_arc.c ****         int16_t angle;
 472:..\..\..\arduinoLCD\test\Pain Drain\libraries\lvgl\src\widgets/lv_arc.c ****         int16_t bg_end = arc->bg_angle_end;
 473:..\..\..\arduinoLCD\test\Pain Drain\libraries\lvgl\src\widgets/lv_arc.c ****         if(arc->bg_angle_end < arc->bg_angle_start) {
 474:..\..\..\arduinoLCD\test\Pain Drain\libraries\lvgl\src\widgets/lv_arc.c ****             bg_end = arc->bg_angle_end + 360;
 475:..\..\..\arduinoLCD\test\Pain Drain\libraries\lvgl\src\widgets/lv_arc.c ****         }
 476:..\..\..\arduinoLCD\test\Pain Drain\libraries\lvgl\src\widgets/lv_arc.c **** 
 477:..\..\..\arduinoLCD\test\Pain Drain\libraries\lvgl\src\widgets/lv_arc.c ****         angle = lv_atan2(p.y, p.x);
 478:..\..\..\arduinoLCD\test\Pain Drain\libraries\lvgl\src\widgets/lv_arc.c ****         angle -= arc->rotation;
 479:..\..\..\arduinoLCD\test\Pain Drain\libraries\lvgl\src\widgets/lv_arc.c ****         angle -= arc->bg_angle_start;  /*Make the angle relative to the start angle*/
 480:..\..\..\arduinoLCD\test\Pain Drain\libraries\lvgl\src\widgets/lv_arc.c **** 
 481:..\..\..\arduinoLCD\test\Pain Drain\libraries\lvgl\src\widgets/lv_arc.c ****         if(angle < 0) angle += 360;
 482:..\..\..\arduinoLCD\test\Pain Drain\libraries\lvgl\src\widgets/lv_arc.c **** 
 483:..\..\..\arduinoLCD\test\Pain Drain\libraries\lvgl\src\widgets/lv_arc.c ****         int16_t deg_range = bg_end - arc->bg_angle_start;
 484:..\..\..\arduinoLCD\test\Pain Drain\libraries\lvgl\src\widgets/lv_arc.c **** 
 485:..\..\..\arduinoLCD\test\Pain Drain\libraries\lvgl\src\widgets/lv_arc.c ****         int16_t last_angle_rel = arc->last_angle - arc->bg_angle_start;
 486:..\..\..\arduinoLCD\test\Pain Drain\libraries\lvgl\src\widgets/lv_arc.c ****         int16_t delta_angle = angle - last_angle_rel;
 487:..\..\..\arduinoLCD\test\Pain Drain\libraries\lvgl\src\widgets/lv_arc.c **** 
ARM GAS  C:\Users\haske\AppData\Local\Temp\ccmHbbn5.s 			page 10


 488:..\..\..\arduinoLCD\test\Pain Drain\libraries\lvgl\src\widgets/lv_arc.c ****         /*Do not allow big jumps.
 489:..\..\..\arduinoLCD\test\Pain Drain\libraries\lvgl\src\widgets/lv_arc.c ****          *It's mainly to avoid jumping to the opposite end if the "dead" range between min. and max
 490:..\..\..\arduinoLCD\test\Pain Drain\libraries\lvgl\src\widgets/lv_arc.c ****          *Check which end was closer on the last valid press (arc->min_close) and prefer that end*/
 491:..\..\..\arduinoLCD\test\Pain Drain\libraries\lvgl\src\widgets/lv_arc.c ****         if(LV_ABS(delta_angle) > 280) {
 492:..\..\..\arduinoLCD\test\Pain Drain\libraries\lvgl\src\widgets/lv_arc.c ****             if(arc->min_close) angle = 0;
 493:..\..\..\arduinoLCD\test\Pain Drain\libraries\lvgl\src\widgets/lv_arc.c ****             else angle = deg_range;
 494:..\..\..\arduinoLCD\test\Pain Drain\libraries\lvgl\src\widgets/lv_arc.c ****         }
 495:..\..\..\arduinoLCD\test\Pain Drain\libraries\lvgl\src\widgets/lv_arc.c ****         else {
 496:..\..\..\arduinoLCD\test\Pain Drain\libraries\lvgl\src\widgets/lv_arc.c ****             if(angle < deg_range / 2)arc->min_close = 1;
 497:..\..\..\arduinoLCD\test\Pain Drain\libraries\lvgl\src\widgets/lv_arc.c ****             else arc->min_close = 0;
 498:..\..\..\arduinoLCD\test\Pain Drain\libraries\lvgl\src\widgets/lv_arc.c ****         }
 499:..\..\..\arduinoLCD\test\Pain Drain\libraries\lvgl\src\widgets/lv_arc.c **** 
 500:..\..\..\arduinoLCD\test\Pain Drain\libraries\lvgl\src\widgets/lv_arc.c ****         /*Calculate the slew rate limited angle based on change rate (degrees/sec)*/
 501:..\..\..\arduinoLCD\test\Pain Drain\libraries\lvgl\src\widgets/lv_arc.c ****         delta_angle = angle - last_angle_rel;
 502:..\..\..\arduinoLCD\test\Pain Drain\libraries\lvgl\src\widgets/lv_arc.c ****         uint32_t delta_tick = lv_tick_elaps(arc->last_tick);
 503:..\..\..\arduinoLCD\test\Pain Drain\libraries\lvgl\src\widgets/lv_arc.c ****         int16_t delta_angle_max = (arc->chg_rate * delta_tick) / 1000;
 504:..\..\..\arduinoLCD\test\Pain Drain\libraries\lvgl\src\widgets/lv_arc.c **** 
 505:..\..\..\arduinoLCD\test\Pain Drain\libraries\lvgl\src\widgets/lv_arc.c ****         if(delta_angle > delta_angle_max) {
 506:..\..\..\arduinoLCD\test\Pain Drain\libraries\lvgl\src\widgets/lv_arc.c ****             delta_angle = delta_angle_max;
 507:..\..\..\arduinoLCD\test\Pain Drain\libraries\lvgl\src\widgets/lv_arc.c ****         }
 508:..\..\..\arduinoLCD\test\Pain Drain\libraries\lvgl\src\widgets/lv_arc.c ****         else if(delta_angle < -delta_angle_max) {
 509:..\..\..\arduinoLCD\test\Pain Drain\libraries\lvgl\src\widgets/lv_arc.c ****             delta_angle = -delta_angle_max;
 510:..\..\..\arduinoLCD\test\Pain Drain\libraries\lvgl\src\widgets/lv_arc.c ****         }
 511:..\..\..\arduinoLCD\test\Pain Drain\libraries\lvgl\src\widgets/lv_arc.c **** 
 512:..\..\..\arduinoLCD\test\Pain Drain\libraries\lvgl\src\widgets/lv_arc.c ****         angle = last_angle_rel + delta_angle; /*Apply the limited angle change*/
 513:..\..\..\arduinoLCD\test\Pain Drain\libraries\lvgl\src\widgets/lv_arc.c **** 
 514:..\..\..\arduinoLCD\test\Pain Drain\libraries\lvgl\src\widgets/lv_arc.c ****         /*Rounding for symmetry*/
 515:..\..\..\arduinoLCD\test\Pain Drain\libraries\lvgl\src\widgets/lv_arc.c ****         int32_t round = ((bg_end - arc->bg_angle_start) * 8) / (arc->max_value - arc->min_value);
 516:..\..\..\arduinoLCD\test\Pain Drain\libraries\lvgl\src\widgets/lv_arc.c ****         round = (round + 4) >> 4;
 517:..\..\..\arduinoLCD\test\Pain Drain\libraries\lvgl\src\widgets/lv_arc.c ****         angle += round;
 518:..\..\..\arduinoLCD\test\Pain Drain\libraries\lvgl\src\widgets/lv_arc.c **** 
 519:..\..\..\arduinoLCD\test\Pain Drain\libraries\lvgl\src\widgets/lv_arc.c ****         angle += arc->bg_angle_start;  /*Make the angle absolute again*/
 520:..\..\..\arduinoLCD\test\Pain Drain\libraries\lvgl\src\widgets/lv_arc.c **** 
 521:..\..\..\arduinoLCD\test\Pain Drain\libraries\lvgl\src\widgets/lv_arc.c ****         /*Set the new value*/
 522:..\..\..\arduinoLCD\test\Pain Drain\libraries\lvgl\src\widgets/lv_arc.c ****         int16_t old_value = arc->value;
 523:..\..\..\arduinoLCD\test\Pain Drain\libraries\lvgl\src\widgets/lv_arc.c ****         int16_t new_value = lv_map(angle, arc->bg_angle_start, bg_end, arc->min_value, arc->max_val
 524:..\..\..\arduinoLCD\test\Pain Drain\libraries\lvgl\src\widgets/lv_arc.c ****         if(new_value != lv_arc_get_value(obj)) {
 525:..\..\..\arduinoLCD\test\Pain Drain\libraries\lvgl\src\widgets/lv_arc.c ****             arc->last_tick = lv_tick_get(); /*Cache timestamp for the next iteration*/
 526:..\..\..\arduinoLCD\test\Pain Drain\libraries\lvgl\src\widgets/lv_arc.c ****             lv_arc_set_value(obj, new_value); /*set_value caches the last_angle for the next iterat
 527:..\..\..\arduinoLCD\test\Pain Drain\libraries\lvgl\src\widgets/lv_arc.c ****             if(new_value != old_value) {
 528:..\..\..\arduinoLCD\test\Pain Drain\libraries\lvgl\src\widgets/lv_arc.c ****                 res = lv_event_send(obj, LV_EVENT_VALUE_CHANGED, NULL);
 529:..\..\..\arduinoLCD\test\Pain Drain\libraries\lvgl\src\widgets/lv_arc.c ****                 if(res != LV_RES_OK) return;
 530:..\..\..\arduinoLCD\test\Pain Drain\libraries\lvgl\src\widgets/lv_arc.c ****             }
 531:..\..\..\arduinoLCD\test\Pain Drain\libraries\lvgl\src\widgets/lv_arc.c ****         }
 532:..\..\..\arduinoLCD\test\Pain Drain\libraries\lvgl\src\widgets/lv_arc.c **** 
 533:..\..\..\arduinoLCD\test\Pain Drain\libraries\lvgl\src\widgets/lv_arc.c ****         /*Don't let the elapsed time become too big while sitting on an end point*/
 534:..\..\..\arduinoLCD\test\Pain Drain\libraries\lvgl\src\widgets/lv_arc.c ****         if(new_value == arc->min_value || new_value == arc->max_value) {
 535:..\..\..\arduinoLCD\test\Pain Drain\libraries\lvgl\src\widgets/lv_arc.c ****             arc->last_tick = lv_tick_get(); /*Cache timestamp for the next iteration*/
 536:..\..\..\arduinoLCD\test\Pain Drain\libraries\lvgl\src\widgets/lv_arc.c ****         }
 537:..\..\..\arduinoLCD\test\Pain Drain\libraries\lvgl\src\widgets/lv_arc.c ****     }
 538:..\..\..\arduinoLCD\test\Pain Drain\libraries\lvgl\src\widgets/lv_arc.c ****     else if(code == LV_EVENT_RELEASED || code == LV_EVENT_PRESS_LOST) {
 539:..\..\..\arduinoLCD\test\Pain Drain\libraries\lvgl\src\widgets/lv_arc.c ****         arc->dragging = false;
 540:..\..\..\arduinoLCD\test\Pain Drain\libraries\lvgl\src\widgets/lv_arc.c **** 
 541:..\..\..\arduinoLCD\test\Pain Drain\libraries\lvgl\src\widgets/lv_arc.c ****         /*Leave edit mode if released. (No need to wait for LONG_PRESS)*/
 542:..\..\..\arduinoLCD\test\Pain Drain\libraries\lvgl\src\widgets/lv_arc.c ****         lv_group_t * g             = lv_obj_get_group(obj);
 543:..\..\..\arduinoLCD\test\Pain Drain\libraries\lvgl\src\widgets/lv_arc.c ****         bool editing               = lv_group_get_editing(g);
 544:..\..\..\arduinoLCD\test\Pain Drain\libraries\lvgl\src\widgets/lv_arc.c ****         lv_indev_type_t indev_type = lv_indev_get_type(lv_indev_get_act());
ARM GAS  C:\Users\haske\AppData\Local\Temp\ccmHbbn5.s 			page 11


 545:..\..\..\arduinoLCD\test\Pain Drain\libraries\lvgl\src\widgets/lv_arc.c ****         if(indev_type == LV_INDEV_TYPE_ENCODER) {
 546:..\..\..\arduinoLCD\test\Pain Drain\libraries\lvgl\src\widgets/lv_arc.c ****             if(editing) lv_group_set_editing(g, false);
 547:..\..\..\arduinoLCD\test\Pain Drain\libraries\lvgl\src\widgets/lv_arc.c ****         }
 548:..\..\..\arduinoLCD\test\Pain Drain\libraries\lvgl\src\widgets/lv_arc.c **** 
 549:..\..\..\arduinoLCD\test\Pain Drain\libraries\lvgl\src\widgets/lv_arc.c ****     }
 550:..\..\..\arduinoLCD\test\Pain Drain\libraries\lvgl\src\widgets/lv_arc.c ****     else if(code == LV_EVENT_KEY) {
 551:..\..\..\arduinoLCD\test\Pain Drain\libraries\lvgl\src\widgets/lv_arc.c ****         char c = *((char *)lv_event_get_param(e));
 552:..\..\..\arduinoLCD\test\Pain Drain\libraries\lvgl\src\widgets/lv_arc.c **** 
 553:..\..\..\arduinoLCD\test\Pain Drain\libraries\lvgl\src\widgets/lv_arc.c ****         int16_t old_value = arc->value;
 554:..\..\..\arduinoLCD\test\Pain Drain\libraries\lvgl\src\widgets/lv_arc.c ****         if(c == LV_KEY_RIGHT || c == LV_KEY_UP) {
 555:..\..\..\arduinoLCD\test\Pain Drain\libraries\lvgl\src\widgets/lv_arc.c ****             lv_arc_set_value(obj, lv_arc_get_value(obj) + 1);
 556:..\..\..\arduinoLCD\test\Pain Drain\libraries\lvgl\src\widgets/lv_arc.c ****         }
 557:..\..\..\arduinoLCD\test\Pain Drain\libraries\lvgl\src\widgets/lv_arc.c ****         else if(c == LV_KEY_LEFT || c == LV_KEY_DOWN) {
 558:..\..\..\arduinoLCD\test\Pain Drain\libraries\lvgl\src\widgets/lv_arc.c ****             lv_arc_set_value(obj, lv_arc_get_value(obj) - 1);
 559:..\..\..\arduinoLCD\test\Pain Drain\libraries\lvgl\src\widgets/lv_arc.c ****         }
 560:..\..\..\arduinoLCD\test\Pain Drain\libraries\lvgl\src\widgets/lv_arc.c **** 
 561:..\..\..\arduinoLCD\test\Pain Drain\libraries\lvgl\src\widgets/lv_arc.c ****         if(old_value != arc->value) {
 562:..\..\..\arduinoLCD\test\Pain Drain\libraries\lvgl\src\widgets/lv_arc.c ****             res = lv_event_send(obj, LV_EVENT_VALUE_CHANGED, NULL);
 563:..\..\..\arduinoLCD\test\Pain Drain\libraries\lvgl\src\widgets/lv_arc.c ****             if(res != LV_RES_OK) return;
 564:..\..\..\arduinoLCD\test\Pain Drain\libraries\lvgl\src\widgets/lv_arc.c ****         }
 565:..\..\..\arduinoLCD\test\Pain Drain\libraries\lvgl\src\widgets/lv_arc.c ****     }
 566:..\..\..\arduinoLCD\test\Pain Drain\libraries\lvgl\src\widgets/lv_arc.c ****     else if(code == LV_EVENT_HIT_TEST) {
 567:..\..\..\arduinoLCD\test\Pain Drain\libraries\lvgl\src\widgets/lv_arc.c ****         lv_hit_test_info_t * info = lv_event_get_param(e);;
 568:..\..\..\arduinoLCD\test\Pain Drain\libraries\lvgl\src\widgets/lv_arc.c **** 
 569:..\..\..\arduinoLCD\test\Pain Drain\libraries\lvgl\src\widgets/lv_arc.c ****         lv_point_t p;
 570:..\..\..\arduinoLCD\test\Pain Drain\libraries\lvgl\src\widgets/lv_arc.c ****         lv_coord_t r;
 571:..\..\..\arduinoLCD\test\Pain Drain\libraries\lvgl\src\widgets/lv_arc.c ****         get_center(obj, &p, &r);
 572:..\..\..\arduinoLCD\test\Pain Drain\libraries\lvgl\src\widgets/lv_arc.c **** 
 573:..\..\..\arduinoLCD\test\Pain Drain\libraries\lvgl\src\widgets/lv_arc.c ****         lv_coord_t ext_click_area = 0;
 574:..\..\..\arduinoLCD\test\Pain Drain\libraries\lvgl\src\widgets/lv_arc.c ****         if(obj->spec_attr) ext_click_area = obj->spec_attr->ext_click_pad;
 575:..\..\..\arduinoLCD\test\Pain Drain\libraries\lvgl\src\widgets/lv_arc.c **** 
 576:..\..\..\arduinoLCD\test\Pain Drain\libraries\lvgl\src\widgets/lv_arc.c ****         lv_coord_t w = lv_obj_get_style_arc_width(obj, LV_PART_MAIN);
 577:..\..\..\arduinoLCD\test\Pain Drain\libraries\lvgl\src\widgets/lv_arc.c ****         r -= w + ext_click_area;
 578:..\..\..\arduinoLCD\test\Pain Drain\libraries\lvgl\src\widgets/lv_arc.c **** 
 579:..\..\..\arduinoLCD\test\Pain Drain\libraries\lvgl\src\widgets/lv_arc.c ****         lv_area_t a;
 580:..\..\..\arduinoLCD\test\Pain Drain\libraries\lvgl\src\widgets/lv_arc.c ****         /*Invalid if clicked inside*/
 581:..\..\..\arduinoLCD\test\Pain Drain\libraries\lvgl\src\widgets/lv_arc.c ****         lv_area_set(&a, p.x - r, p.y - r, p.x + r, p.y + r);
 582:..\..\..\arduinoLCD\test\Pain Drain\libraries\lvgl\src\widgets/lv_arc.c ****         if(_lv_area_is_point_on(&a, info->point, LV_RADIUS_CIRCLE)) {
 583:..\..\..\arduinoLCD\test\Pain Drain\libraries\lvgl\src\widgets/lv_arc.c ****             info->res = false;
 584:..\..\..\arduinoLCD\test\Pain Drain\libraries\lvgl\src\widgets/lv_arc.c ****             return;
 585:..\..\..\arduinoLCD\test\Pain Drain\libraries\lvgl\src\widgets/lv_arc.c ****         }
 586:..\..\..\arduinoLCD\test\Pain Drain\libraries\lvgl\src\widgets/lv_arc.c **** 
 587:..\..\..\arduinoLCD\test\Pain Drain\libraries\lvgl\src\widgets/lv_arc.c ****         /*Valid if no clicked outside*/
 588:..\..\..\arduinoLCD\test\Pain Drain\libraries\lvgl\src\widgets/lv_arc.c ****         lv_area_increase(&a, w + ext_click_area * 2, w + ext_click_area * 2);
 589:..\..\..\arduinoLCD\test\Pain Drain\libraries\lvgl\src\widgets/lv_arc.c ****         info->res = _lv_area_is_point_on(&a, info->point, LV_RADIUS_CIRCLE);
 590:..\..\..\arduinoLCD\test\Pain Drain\libraries\lvgl\src\widgets/lv_arc.c ****     }
 591:..\..\..\arduinoLCD\test\Pain Drain\libraries\lvgl\src\widgets/lv_arc.c ****     else if(code == LV_EVENT_REFR_EXT_DRAW_SIZE) {
 592:..\..\..\arduinoLCD\test\Pain Drain\libraries\lvgl\src\widgets/lv_arc.c ****         lv_coord_t bg_left = lv_obj_get_style_pad_left(obj, LV_PART_MAIN);
 593:..\..\..\arduinoLCD\test\Pain Drain\libraries\lvgl\src\widgets/lv_arc.c ****         lv_coord_t bg_right = lv_obj_get_style_pad_right(obj, LV_PART_MAIN);
 594:..\..\..\arduinoLCD\test\Pain Drain\libraries\lvgl\src\widgets/lv_arc.c ****         lv_coord_t bg_top = lv_obj_get_style_pad_top(obj, LV_PART_MAIN);
 595:..\..\..\arduinoLCD\test\Pain Drain\libraries\lvgl\src\widgets/lv_arc.c ****         lv_coord_t bg_bottom = lv_obj_get_style_pad_bottom(obj, LV_PART_MAIN);
 596:..\..\..\arduinoLCD\test\Pain Drain\libraries\lvgl\src\widgets/lv_arc.c ****         lv_coord_t bg_pad = LV_MAX4(bg_left, bg_right, bg_top, bg_bottom);
 597:..\..\..\arduinoLCD\test\Pain Drain\libraries\lvgl\src\widgets/lv_arc.c **** 
 598:..\..\..\arduinoLCD\test\Pain Drain\libraries\lvgl\src\widgets/lv_arc.c ****         lv_coord_t knob_left = lv_obj_get_style_pad_left(obj, LV_PART_KNOB);
 599:..\..\..\arduinoLCD\test\Pain Drain\libraries\lvgl\src\widgets/lv_arc.c ****         lv_coord_t knob_right = lv_obj_get_style_pad_right(obj, LV_PART_KNOB);
 600:..\..\..\arduinoLCD\test\Pain Drain\libraries\lvgl\src\widgets/lv_arc.c ****         lv_coord_t knob_top = lv_obj_get_style_pad_top(obj, LV_PART_KNOB);
 601:..\..\..\arduinoLCD\test\Pain Drain\libraries\lvgl\src\widgets/lv_arc.c ****         lv_coord_t knob_bottom = lv_obj_get_style_pad_bottom(obj, LV_PART_KNOB);
ARM GAS  C:\Users\haske\AppData\Local\Temp\ccmHbbn5.s 			page 12


 602:..\..\..\arduinoLCD\test\Pain Drain\libraries\lvgl\src\widgets/lv_arc.c ****         lv_coord_t knob_pad = LV_MAX4(knob_left, knob_right, knob_top, knob_bottom) + 2;
 603:..\..\..\arduinoLCD\test\Pain Drain\libraries\lvgl\src\widgets/lv_arc.c **** 
 604:..\..\..\arduinoLCD\test\Pain Drain\libraries\lvgl\src\widgets/lv_arc.c ****         lv_coord_t knob_extra_size = knob_pad - bg_pad;
 605:..\..\..\arduinoLCD\test\Pain Drain\libraries\lvgl\src\widgets/lv_arc.c ****         knob_extra_size += knob_get_extra_size(obj);
 606:..\..\..\arduinoLCD\test\Pain Drain\libraries\lvgl\src\widgets/lv_arc.c **** 
 607:..\..\..\arduinoLCD\test\Pain Drain\libraries\lvgl\src\widgets/lv_arc.c ****         lv_coord_t * s = lv_event_get_param(e);
 608:..\..\..\arduinoLCD\test\Pain Drain\libraries\lvgl\src\widgets/lv_arc.c ****         *s = LV_MAX(*s, knob_extra_size);
 609:..\..\..\arduinoLCD\test\Pain Drain\libraries\lvgl\src\widgets/lv_arc.c ****     }
 610:..\..\..\arduinoLCD\test\Pain Drain\libraries\lvgl\src\widgets/lv_arc.c ****     else if(code == LV_EVENT_DRAW_MAIN) {
 611:..\..\..\arduinoLCD\test\Pain Drain\libraries\lvgl\src\widgets/lv_arc.c ****         lv_arc_draw(e);
 612:..\..\..\arduinoLCD\test\Pain Drain\libraries\lvgl\src\widgets/lv_arc.c ****     }
 613:..\..\..\arduinoLCD\test\Pain Drain\libraries\lvgl\src\widgets/lv_arc.c **** }
 614:..\..\..\arduinoLCD\test\Pain Drain\libraries\lvgl\src\widgets/lv_arc.c **** 
 615:..\..\..\arduinoLCD\test\Pain Drain\libraries\lvgl\src\widgets/lv_arc.c **** static void lv_arc_draw(lv_event_t * e)
 616:..\..\..\arduinoLCD\test\Pain Drain\libraries\lvgl\src\widgets/lv_arc.c **** {
 617:..\..\..\arduinoLCD\test\Pain Drain\libraries\lvgl\src\widgets/lv_arc.c ****     lv_obj_t * obj = lv_event_get_target(e);
 618:..\..\..\arduinoLCD\test\Pain Drain\libraries\lvgl\src\widgets/lv_arc.c ****     lv_arc_t * arc = (lv_arc_t *)obj;
 619:..\..\..\arduinoLCD\test\Pain Drain\libraries\lvgl\src\widgets/lv_arc.c **** 
 620:..\..\..\arduinoLCD\test\Pain Drain\libraries\lvgl\src\widgets/lv_arc.c ****     lv_draw_ctx_t * draw_ctx = lv_event_get_draw_ctx(e);
 621:..\..\..\arduinoLCD\test\Pain Drain\libraries\lvgl\src\widgets/lv_arc.c **** 
 622:..\..\..\arduinoLCD\test\Pain Drain\libraries\lvgl\src\widgets/lv_arc.c ****     lv_point_t center;
 623:..\..\..\arduinoLCD\test\Pain Drain\libraries\lvgl\src\widgets/lv_arc.c ****     lv_coord_t arc_r;
 624:..\..\..\arduinoLCD\test\Pain Drain\libraries\lvgl\src\widgets/lv_arc.c ****     get_center(obj, &center, &arc_r);
 625:..\..\..\arduinoLCD\test\Pain Drain\libraries\lvgl\src\widgets/lv_arc.c **** 
 626:..\..\..\arduinoLCD\test\Pain Drain\libraries\lvgl\src\widgets/lv_arc.c ****     lv_obj_draw_part_dsc_t part_draw_dsc;
 627:..\..\..\arduinoLCD\test\Pain Drain\libraries\lvgl\src\widgets/lv_arc.c ****     lv_obj_draw_dsc_init(&part_draw_dsc, draw_ctx);
 628:..\..\..\arduinoLCD\test\Pain Drain\libraries\lvgl\src\widgets/lv_arc.c **** 
 629:..\..\..\arduinoLCD\test\Pain Drain\libraries\lvgl\src\widgets/lv_arc.c ****     /*Draw the background arc*/
 630:..\..\..\arduinoLCD\test\Pain Drain\libraries\lvgl\src\widgets/lv_arc.c ****     lv_draw_arc_dsc_t arc_dsc;
 631:..\..\..\arduinoLCD\test\Pain Drain\libraries\lvgl\src\widgets/lv_arc.c ****     if(arc_r > 0) {
 632:..\..\..\arduinoLCD\test\Pain Drain\libraries\lvgl\src\widgets/lv_arc.c ****         lv_draw_arc_dsc_init(&arc_dsc);
 633:..\..\..\arduinoLCD\test\Pain Drain\libraries\lvgl\src\widgets/lv_arc.c ****         lv_obj_init_draw_arc_dsc(obj, LV_PART_MAIN, &arc_dsc);
 634:..\..\..\arduinoLCD\test\Pain Drain\libraries\lvgl\src\widgets/lv_arc.c **** 
 635:..\..\..\arduinoLCD\test\Pain Drain\libraries\lvgl\src\widgets/lv_arc.c ****         part_draw_dsc.part = LV_PART_MAIN;
 636:..\..\..\arduinoLCD\test\Pain Drain\libraries\lvgl\src\widgets/lv_arc.c ****         part_draw_dsc.class_p = MY_CLASS;
 637:..\..\..\arduinoLCD\test\Pain Drain\libraries\lvgl\src\widgets/lv_arc.c ****         part_draw_dsc.type = LV_ARC_DRAW_PART_BACKGROUND;
 638:..\..\..\arduinoLCD\test\Pain Drain\libraries\lvgl\src\widgets/lv_arc.c ****         part_draw_dsc.p1 = &center;
 639:..\..\..\arduinoLCD\test\Pain Drain\libraries\lvgl\src\widgets/lv_arc.c ****         part_draw_dsc.radius = arc_r;
 640:..\..\..\arduinoLCD\test\Pain Drain\libraries\lvgl\src\widgets/lv_arc.c ****         part_draw_dsc.arc_dsc = &arc_dsc;
 641:..\..\..\arduinoLCD\test\Pain Drain\libraries\lvgl\src\widgets/lv_arc.c ****         lv_event_send(obj, LV_EVENT_DRAW_PART_BEGIN, &part_draw_dsc);
 642:..\..\..\arduinoLCD\test\Pain Drain\libraries\lvgl\src\widgets/lv_arc.c **** 
 643:..\..\..\arduinoLCD\test\Pain Drain\libraries\lvgl\src\widgets/lv_arc.c ****         lv_draw_arc(draw_ctx, &arc_dsc, &center, part_draw_dsc.radius, arc->bg_angle_start + arc->r
 644:..\..\..\arduinoLCD\test\Pain Drain\libraries\lvgl\src\widgets/lv_arc.c ****                     arc->bg_angle_end + arc->rotation);
 645:..\..\..\arduinoLCD\test\Pain Drain\libraries\lvgl\src\widgets/lv_arc.c **** 
 646:..\..\..\arduinoLCD\test\Pain Drain\libraries\lvgl\src\widgets/lv_arc.c ****         lv_event_send(obj, LV_EVENT_DRAW_PART_END, &part_draw_dsc);
 647:..\..\..\arduinoLCD\test\Pain Drain\libraries\lvgl\src\widgets/lv_arc.c ****     }
 648:..\..\..\arduinoLCD\test\Pain Drain\libraries\lvgl\src\widgets/lv_arc.c **** 
 649:..\..\..\arduinoLCD\test\Pain Drain\libraries\lvgl\src\widgets/lv_arc.c ****     /*Make the indicator arc smaller or larger according to its greatest padding value*/
 650:..\..\..\arduinoLCD\test\Pain Drain\libraries\lvgl\src\widgets/lv_arc.c ****     lv_coord_t left_indic = lv_obj_get_style_pad_left(obj, LV_PART_INDICATOR);
 651:..\..\..\arduinoLCD\test\Pain Drain\libraries\lvgl\src\widgets/lv_arc.c ****     lv_coord_t right_indic = lv_obj_get_style_pad_right(obj, LV_PART_INDICATOR);
 652:..\..\..\arduinoLCD\test\Pain Drain\libraries\lvgl\src\widgets/lv_arc.c ****     lv_coord_t top_indic = lv_obj_get_style_pad_top(obj, LV_PART_INDICATOR);
 653:..\..\..\arduinoLCD\test\Pain Drain\libraries\lvgl\src\widgets/lv_arc.c ****     lv_coord_t bottom_indic = lv_obj_get_style_pad_bottom(obj, LV_PART_INDICATOR);
 654:..\..\..\arduinoLCD\test\Pain Drain\libraries\lvgl\src\widgets/lv_arc.c ****     lv_coord_t indic_r = arc_r - LV_MAX4(left_indic, right_indic, top_indic, bottom_indic);
 655:..\..\..\arduinoLCD\test\Pain Drain\libraries\lvgl\src\widgets/lv_arc.c **** 
 656:..\..\..\arduinoLCD\test\Pain Drain\libraries\lvgl\src\widgets/lv_arc.c ****     if(indic_r > 0) {
 657:..\..\..\arduinoLCD\test\Pain Drain\libraries\lvgl\src\widgets/lv_arc.c ****         lv_draw_arc_dsc_init(&arc_dsc);
 658:..\..\..\arduinoLCD\test\Pain Drain\libraries\lvgl\src\widgets/lv_arc.c ****         lv_obj_init_draw_arc_dsc(obj, LV_PART_INDICATOR, &arc_dsc);
ARM GAS  C:\Users\haske\AppData\Local\Temp\ccmHbbn5.s 			page 13


 659:..\..\..\arduinoLCD\test\Pain Drain\libraries\lvgl\src\widgets/lv_arc.c **** 
 660:..\..\..\arduinoLCD\test\Pain Drain\libraries\lvgl\src\widgets/lv_arc.c ****         part_draw_dsc.part = LV_PART_INDICATOR;
 661:..\..\..\arduinoLCD\test\Pain Drain\libraries\lvgl\src\widgets/lv_arc.c ****         part_draw_dsc.class_p = MY_CLASS;
 662:..\..\..\arduinoLCD\test\Pain Drain\libraries\lvgl\src\widgets/lv_arc.c ****         part_draw_dsc.type = LV_ARC_DRAW_PART_FOREGROUND;
 663:..\..\..\arduinoLCD\test\Pain Drain\libraries\lvgl\src\widgets/lv_arc.c ****         part_draw_dsc.p1 = &center;
 664:..\..\..\arduinoLCD\test\Pain Drain\libraries\lvgl\src\widgets/lv_arc.c ****         part_draw_dsc.radius = indic_r;
 665:..\..\..\arduinoLCD\test\Pain Drain\libraries\lvgl\src\widgets/lv_arc.c ****         part_draw_dsc.arc_dsc = &arc_dsc;
 666:..\..\..\arduinoLCD\test\Pain Drain\libraries\lvgl\src\widgets/lv_arc.c ****         lv_event_send(obj, LV_EVENT_DRAW_PART_BEGIN, &part_draw_dsc);
 667:..\..\..\arduinoLCD\test\Pain Drain\libraries\lvgl\src\widgets/lv_arc.c **** 
 668:..\..\..\arduinoLCD\test\Pain Drain\libraries\lvgl\src\widgets/lv_arc.c ****         if(arc_dsc.width > part_draw_dsc.radius) arc_dsc.width = part_draw_dsc.radius;
 669:..\..\..\arduinoLCD\test\Pain Drain\libraries\lvgl\src\widgets/lv_arc.c ****         lv_draw_arc(draw_ctx, &arc_dsc, &center, part_draw_dsc.radius, arc->indic_angle_start + arc
 670:..\..\..\arduinoLCD\test\Pain Drain\libraries\lvgl\src\widgets/lv_arc.c ****                     arc->indic_angle_end + arc->rotation);
 671:..\..\..\arduinoLCD\test\Pain Drain\libraries\lvgl\src\widgets/lv_arc.c **** 
 672:..\..\..\arduinoLCD\test\Pain Drain\libraries\lvgl\src\widgets/lv_arc.c ****         lv_event_send(obj, LV_EVENT_DRAW_PART_END, &part_draw_dsc);
 673:..\..\..\arduinoLCD\test\Pain Drain\libraries\lvgl\src\widgets/lv_arc.c ****     }
 674:..\..\..\arduinoLCD\test\Pain Drain\libraries\lvgl\src\widgets/lv_arc.c **** 
 675:..\..\..\arduinoLCD\test\Pain Drain\libraries\lvgl\src\widgets/lv_arc.c ****     lv_area_t knob_area;
 676:..\..\..\arduinoLCD\test\Pain Drain\libraries\lvgl\src\widgets/lv_arc.c ****     get_knob_area(obj, &center, arc_r, &knob_area);
 677:..\..\..\arduinoLCD\test\Pain Drain\libraries\lvgl\src\widgets/lv_arc.c **** 
 678:..\..\..\arduinoLCD\test\Pain Drain\libraries\lvgl\src\widgets/lv_arc.c ****     lv_draw_rect_dsc_t knob_rect_dsc;
 679:..\..\..\arduinoLCD\test\Pain Drain\libraries\lvgl\src\widgets/lv_arc.c ****     lv_draw_rect_dsc_init(&knob_rect_dsc);
 680:..\..\..\arduinoLCD\test\Pain Drain\libraries\lvgl\src\widgets/lv_arc.c ****     lv_obj_init_draw_rect_dsc(obj, LV_PART_KNOB, &knob_rect_dsc);
 681:..\..\..\arduinoLCD\test\Pain Drain\libraries\lvgl\src\widgets/lv_arc.c **** 
 682:..\..\..\arduinoLCD\test\Pain Drain\libraries\lvgl\src\widgets/lv_arc.c ****     part_draw_dsc.part = LV_PART_KNOB;
 683:..\..\..\arduinoLCD\test\Pain Drain\libraries\lvgl\src\widgets/lv_arc.c ****     part_draw_dsc.class_p = MY_CLASS;
 684:..\..\..\arduinoLCD\test\Pain Drain\libraries\lvgl\src\widgets/lv_arc.c ****     part_draw_dsc.type = LV_ARC_DRAW_PART_KNOB;
 685:..\..\..\arduinoLCD\test\Pain Drain\libraries\lvgl\src\widgets/lv_arc.c ****     part_draw_dsc.draw_area = &knob_area;
 686:..\..\..\arduinoLCD\test\Pain Drain\libraries\lvgl\src\widgets/lv_arc.c ****     part_draw_dsc.rect_dsc = &knob_rect_dsc;
 687:..\..\..\arduinoLCD\test\Pain Drain\libraries\lvgl\src\widgets/lv_arc.c ****     lv_event_send(obj, LV_EVENT_DRAW_PART_BEGIN, &part_draw_dsc);
 688:..\..\..\arduinoLCD\test\Pain Drain\libraries\lvgl\src\widgets/lv_arc.c **** 
 689:..\..\..\arduinoLCD\test\Pain Drain\libraries\lvgl\src\widgets/lv_arc.c ****     lv_draw_rect(draw_ctx, &knob_rect_dsc, &knob_area);
 690:..\..\..\arduinoLCD\test\Pain Drain\libraries\lvgl\src\widgets/lv_arc.c **** 
 691:..\..\..\arduinoLCD\test\Pain Drain\libraries\lvgl\src\widgets/lv_arc.c ****     lv_event_send(obj, LV_EVENT_DRAW_PART_END, &part_draw_dsc);
 692:..\..\..\arduinoLCD\test\Pain Drain\libraries\lvgl\src\widgets/lv_arc.c **** }
 693:..\..\..\arduinoLCD\test\Pain Drain\libraries\lvgl\src\widgets/lv_arc.c **** 
 694:..\..\..\arduinoLCD\test\Pain Drain\libraries\lvgl\src\widgets/lv_arc.c **** static void inv_arc_area(lv_obj_t * obj, uint16_t start_angle, uint16_t end_angle, lv_part_t part)
 695:..\..\..\arduinoLCD\test\Pain Drain\libraries\lvgl\src\widgets/lv_arc.c **** {
 696:..\..\..\arduinoLCD\test\Pain Drain\libraries\lvgl\src\widgets/lv_arc.c ****     LV_ASSERT_OBJ(obj, MY_CLASS);
 697:..\..\..\arduinoLCD\test\Pain Drain\libraries\lvgl\src\widgets/lv_arc.c **** 
 698:..\..\..\arduinoLCD\test\Pain Drain\libraries\lvgl\src\widgets/lv_arc.c ****     /*Skip this complicated invalidation if the arc is not visible*/
 699:..\..\..\arduinoLCD\test\Pain Drain\libraries\lvgl\src\widgets/lv_arc.c ****     if(lv_obj_is_visible(obj) == false) return;
 700:..\..\..\arduinoLCD\test\Pain Drain\libraries\lvgl\src\widgets/lv_arc.c **** 
 701:..\..\..\arduinoLCD\test\Pain Drain\libraries\lvgl\src\widgets/lv_arc.c ****     lv_arc_t * arc = (lv_arc_t *)obj;
 702:..\..\..\arduinoLCD\test\Pain Drain\libraries\lvgl\src\widgets/lv_arc.c **** 
 703:..\..\..\arduinoLCD\test\Pain Drain\libraries\lvgl\src\widgets/lv_arc.c ****     if(start_angle == end_angle) return;
 704:..\..\..\arduinoLCD\test\Pain Drain\libraries\lvgl\src\widgets/lv_arc.c **** 
 705:..\..\..\arduinoLCD\test\Pain Drain\libraries\lvgl\src\widgets/lv_arc.c ****     if(start_angle > 360) start_angle -= 360;
 706:..\..\..\arduinoLCD\test\Pain Drain\libraries\lvgl\src\widgets/lv_arc.c ****     if(end_angle > 360) end_angle -= 360;
 707:..\..\..\arduinoLCD\test\Pain Drain\libraries\lvgl\src\widgets/lv_arc.c **** 
 708:..\..\..\arduinoLCD\test\Pain Drain\libraries\lvgl\src\widgets/lv_arc.c ****     start_angle += arc->rotation;
 709:..\..\..\arduinoLCD\test\Pain Drain\libraries\lvgl\src\widgets/lv_arc.c ****     end_angle += arc->rotation;
 710:..\..\..\arduinoLCD\test\Pain Drain\libraries\lvgl\src\widgets/lv_arc.c **** 
 711:..\..\..\arduinoLCD\test\Pain Drain\libraries\lvgl\src\widgets/lv_arc.c ****     if(start_angle > 360) start_angle -= 360;
 712:..\..\..\arduinoLCD\test\Pain Drain\libraries\lvgl\src\widgets/lv_arc.c ****     if(end_angle > 360) end_angle -= 360;
 713:..\..\..\arduinoLCD\test\Pain Drain\libraries\lvgl\src\widgets/lv_arc.c **** 
 714:..\..\..\arduinoLCD\test\Pain Drain\libraries\lvgl\src\widgets/lv_arc.c ****     lv_coord_t r;
 715:..\..\..\arduinoLCD\test\Pain Drain\libraries\lvgl\src\widgets/lv_arc.c ****     lv_point_t c;
ARM GAS  C:\Users\haske\AppData\Local\Temp\ccmHbbn5.s 			page 14


 716:..\..\..\arduinoLCD\test\Pain Drain\libraries\lvgl\src\widgets/lv_arc.c ****     get_center(obj, &c, &r);
 717:..\..\..\arduinoLCD\test\Pain Drain\libraries\lvgl\src\widgets/lv_arc.c **** 
 718:..\..\..\arduinoLCD\test\Pain Drain\libraries\lvgl\src\widgets/lv_arc.c ****     lv_coord_t w = lv_obj_get_style_arc_width(obj, part);
 719:..\..\..\arduinoLCD\test\Pain Drain\libraries\lvgl\src\widgets/lv_arc.c ****     lv_coord_t rounded = lv_obj_get_style_arc_rounded(obj, part);
 720:..\..\..\arduinoLCD\test\Pain Drain\libraries\lvgl\src\widgets/lv_arc.c **** 
 721:..\..\..\arduinoLCD\test\Pain Drain\libraries\lvgl\src\widgets/lv_arc.c ****     lv_area_t inv_area;
 722:..\..\..\arduinoLCD\test\Pain Drain\libraries\lvgl\src\widgets/lv_arc.c ****     lv_draw_arc_get_area(c.x, c.y, r, start_angle, end_angle, w, rounded, &inv_area);
 723:..\..\..\arduinoLCD\test\Pain Drain\libraries\lvgl\src\widgets/lv_arc.c **** 
 724:..\..\..\arduinoLCD\test\Pain Drain\libraries\lvgl\src\widgets/lv_arc.c ****     lv_obj_invalidate_area(obj, &inv_area);
 725:..\..\..\arduinoLCD\test\Pain Drain\libraries\lvgl\src\widgets/lv_arc.c **** }
 726:..\..\..\arduinoLCD\test\Pain Drain\libraries\lvgl\src\widgets/lv_arc.c **** 
 727:..\..\..\arduinoLCD\test\Pain Drain\libraries\lvgl\src\widgets/lv_arc.c **** static void inv_knob_area(lv_obj_t * obj)
 728:..\..\..\arduinoLCD\test\Pain Drain\libraries\lvgl\src\widgets/lv_arc.c **** {
 729:..\..\..\arduinoLCD\test\Pain Drain\libraries\lvgl\src\widgets/lv_arc.c ****     lv_point_t c;
 730:..\..\..\arduinoLCD\test\Pain Drain\libraries\lvgl\src\widgets/lv_arc.c ****     lv_coord_t r;
 731:..\..\..\arduinoLCD\test\Pain Drain\libraries\lvgl\src\widgets/lv_arc.c ****     get_center(obj, &c, &r);
 732:..\..\..\arduinoLCD\test\Pain Drain\libraries\lvgl\src\widgets/lv_arc.c **** 
 733:..\..\..\arduinoLCD\test\Pain Drain\libraries\lvgl\src\widgets/lv_arc.c ****     lv_area_t a;
 734:..\..\..\arduinoLCD\test\Pain Drain\libraries\lvgl\src\widgets/lv_arc.c ****     get_knob_area(obj, &c, r, &a);
 735:..\..\..\arduinoLCD\test\Pain Drain\libraries\lvgl\src\widgets/lv_arc.c **** 
 736:..\..\..\arduinoLCD\test\Pain Drain\libraries\lvgl\src\widgets/lv_arc.c ****     lv_coord_t knob_extra_size = knob_get_extra_size(obj);
 737:..\..\..\arduinoLCD\test\Pain Drain\libraries\lvgl\src\widgets/lv_arc.c **** 
 738:..\..\..\arduinoLCD\test\Pain Drain\libraries\lvgl\src\widgets/lv_arc.c ****     if(knob_extra_size > 0) {
 739:..\..\..\arduinoLCD\test\Pain Drain\libraries\lvgl\src\widgets/lv_arc.c ****         lv_area_increase(&a, knob_extra_size, knob_extra_size);
 740:..\..\..\arduinoLCD\test\Pain Drain\libraries\lvgl\src\widgets/lv_arc.c ****     }
 741:..\..\..\arduinoLCD\test\Pain Drain\libraries\lvgl\src\widgets/lv_arc.c **** 
 742:..\..\..\arduinoLCD\test\Pain Drain\libraries\lvgl\src\widgets/lv_arc.c ****     lv_obj_invalidate_area(obj, &a);
 743:..\..\..\arduinoLCD\test\Pain Drain\libraries\lvgl\src\widgets/lv_arc.c **** }
 744:..\..\..\arduinoLCD\test\Pain Drain\libraries\lvgl\src\widgets/lv_arc.c **** 
 745:..\..\..\arduinoLCD\test\Pain Drain\libraries\lvgl\src\widgets/lv_arc.c **** static void get_center(const lv_obj_t * obj, lv_point_t * center, lv_coord_t * arc_r)
 746:..\..\..\arduinoLCD\test\Pain Drain\libraries\lvgl\src\widgets/lv_arc.c **** {
 747:..\..\..\arduinoLCD\test\Pain Drain\libraries\lvgl\src\widgets/lv_arc.c ****     lv_coord_t left_bg = lv_obj_get_style_pad_left(obj, LV_PART_MAIN);
 748:..\..\..\arduinoLCD\test\Pain Drain\libraries\lvgl\src\widgets/lv_arc.c ****     lv_coord_t right_bg = lv_obj_get_style_pad_right(obj, LV_PART_MAIN);
 749:..\..\..\arduinoLCD\test\Pain Drain\libraries\lvgl\src\widgets/lv_arc.c ****     lv_coord_t top_bg = lv_obj_get_style_pad_top(obj, LV_PART_MAIN);
 750:..\..\..\arduinoLCD\test\Pain Drain\libraries\lvgl\src\widgets/lv_arc.c ****     lv_coord_t bottom_bg = lv_obj_get_style_pad_bottom(obj, LV_PART_MAIN);
 751:..\..\..\arduinoLCD\test\Pain Drain\libraries\lvgl\src\widgets/lv_arc.c **** 
 752:..\..\..\arduinoLCD\test\Pain Drain\libraries\lvgl\src\widgets/lv_arc.c ****     lv_coord_t r = (LV_MIN(lv_obj_get_width(obj) - left_bg - right_bg,
 753:..\..\..\arduinoLCD\test\Pain Drain\libraries\lvgl\src\widgets/lv_arc.c ****                            lv_obj_get_height(obj) - top_bg - bottom_bg)) / 2;
 754:..\..\..\arduinoLCD\test\Pain Drain\libraries\lvgl\src\widgets/lv_arc.c **** 
 755:..\..\..\arduinoLCD\test\Pain Drain\libraries\lvgl\src\widgets/lv_arc.c ****     center->x = obj->coords.x1 + r + left_bg;
 756:..\..\..\arduinoLCD\test\Pain Drain\libraries\lvgl\src\widgets/lv_arc.c ****     center->y = obj->coords.y1 + r + top_bg;
 757:..\..\..\arduinoLCD\test\Pain Drain\libraries\lvgl\src\widgets/lv_arc.c **** 
 758:..\..\..\arduinoLCD\test\Pain Drain\libraries\lvgl\src\widgets/lv_arc.c ****     if(arc_r) *arc_r = r;
 759:..\..\..\arduinoLCD\test\Pain Drain\libraries\lvgl\src\widgets/lv_arc.c **** }
 760:..\..\..\arduinoLCD\test\Pain Drain\libraries\lvgl\src\widgets/lv_arc.c **** 
 761:..\..\..\arduinoLCD\test\Pain Drain\libraries\lvgl\src\widgets/lv_arc.c **** static lv_coord_t get_angle(const lv_obj_t * obj)
 762:..\..\..\arduinoLCD\test\Pain Drain\libraries\lvgl\src\widgets/lv_arc.c **** {
  27              		.loc 1 762 0
  28              		.cfi_startproc
  29              		@ args = 0, pretend = 0, frame = 0
  30              		@ frame_needed = 0, uses_anonymous_args = 0
  31              	.LVL0:
  32 0000 30B5     		push	{r4, r5, lr}
  33              		.cfi_def_cfa_offset 12
  34              		.cfi_offset 4, -12
  35              		.cfi_offset 5, -8
  36              		.cfi_offset 14, -4
ARM GAS  C:\Users\haske\AppData\Local\Temp\ccmHbbn5.s 			page 15


  37              	.LVL1:
 763:..\..\..\arduinoLCD\test\Pain Drain\libraries\lvgl\src\widgets/lv_arc.c ****     lv_arc_t * arc = (lv_arc_t *)obj;
 764:..\..\..\arduinoLCD\test\Pain Drain\libraries\lvgl\src\widgets/lv_arc.c ****     uint16_t angle = arc->rotation;
  38              		.loc 1 764 0
  39 0002 838C     		ldrh	r3, [r0, #36]
  40              	.LVL2:
 765:..\..\..\arduinoLCD\test\Pain Drain\libraries\lvgl\src\widgets/lv_arc.c ****     if(arc->type == LV_ARC_MODE_NORMAL) {
  41              		.loc 1 765 0
  42 0004 3422     		movs	r2, #52
  43 0006 825C     		ldrb	r2, [r0, r2]
  44 0008 0621     		movs	r1, #6
  45 000a 0A40     		ands	r2, r1
  46 000c 03D1     		bne	.L2
 766:..\..\..\arduinoLCD\test\Pain Drain\libraries\lvgl\src\widgets/lv_arc.c ****         angle += arc->indic_angle_end;
  47              		.loc 1 766 0
  48 000e 008D     		ldrh	r0, [r0, #40]
  49              	.LVL3:
  50 0010 1B18     		adds	r3, r3, r0
  51              	.LVL4:
  52 0012 9BB2     		uxth	r3, r3
  53              	.LVL5:
  54 0014 29E0     		b	.L3
  55              	.LVL6:
  56              	.L2:
 767:..\..\..\arduinoLCD\test\Pain Drain\libraries\lvgl\src\widgets/lv_arc.c ****     }
 768:..\..\..\arduinoLCD\test\Pain Drain\libraries\lvgl\src\widgets/lv_arc.c ****     else if(arc->type == LV_ARC_MODE_REVERSE) {
  57              		.loc 1 768 0
  58 0016 042A     		cmp	r2, #4
  59 0018 03D1     		bne	.L4
 769:..\..\..\arduinoLCD\test\Pain Drain\libraries\lvgl\src\widgets/lv_arc.c ****         angle += arc->indic_angle_start;
  60              		.loc 1 769 0
  61 001a C08C     		ldrh	r0, [r0, #38]
  62              	.LVL7:
  63 001c 1B18     		adds	r3, r3, r0
  64              	.LVL8:
  65 001e 9BB2     		uxth	r3, r3
  66              	.LVL9:
  67 0020 23E0     		b	.L3
  68              	.LVL10:
  69              	.L4:
 770:..\..\..\arduinoLCD\test\Pain Drain\libraries\lvgl\src\widgets/lv_arc.c ****     }
 771:..\..\..\arduinoLCD\test\Pain Drain\libraries\lvgl\src\widgets/lv_arc.c ****     else if(arc->type == LV_ARC_MODE_SYMMETRICAL) {
  70              		.loc 1 771 0
  71 0022 022A     		cmp	r2, #2
  72 0024 21D1     		bne	.L3
  73              	.LBB82:
 772:..\..\..\arduinoLCD\test\Pain Drain\libraries\lvgl\src\widgets/lv_arc.c ****         int16_t bg_end = arc->bg_angle_end;
  74              		.loc 1 772 0
  75 0026 848D     		ldrh	r4, [r0, #44]
  76 0028 21B2     		sxth	r1, r4
  77              	.LVL11:
 773:..\..\..\arduinoLCD\test\Pain Drain\libraries\lvgl\src\widgets/lv_arc.c ****         if(arc->bg_angle_end < arc->bg_angle_start) bg_end = arc->bg_angle_end + 360;
  78              		.loc 1 773 0
  79 002a 428D     		ldrh	r2, [r0, #42]
  80 002c 9442     		cmp	r4, r2
  81 002e 03D2     		bcs	.L5
  82              		.loc 1 773 0 is_stmt 0 discriminator 1
ARM GAS  C:\Users\haske\AppData\Local\Temp\ccmHbbn5.s 			page 16


  83 0030 2100     		movs	r1, r4
  84              	.LVL12:
  85 0032 6931     		adds	r1, r1, #105
  86 0034 FF31     		adds	r1, r1, #255
  87 0036 09B2     		sxth	r1, r1
  88              	.LVL13:
  89              	.L5:
 774:..\..\..\arduinoLCD\test\Pain Drain\libraries\lvgl\src\widgets/lv_arc.c ****         int16_t indic_end = arc->indic_angle_end;
  90              		.loc 1 774 0 is_stmt 1
  91 0038 048D     		ldrh	r4, [r0, #40]
  92 003a 25B2     		sxth	r5, r4
  93              	.LVL14:
 775:..\..\..\arduinoLCD\test\Pain Drain\libraries\lvgl\src\widgets/lv_arc.c ****         if(arc->indic_angle_end < arc->indic_angle_start) indic_end = arc->indic_angle_end + 360;
  94              		.loc 1 775 0
  95 003c C08C     		ldrh	r0, [r0, #38]
  96              	.LVL15:
  97 003e 8442     		cmp	r4, r0
  98 0040 03D2     		bcs	.L6
  99              		.loc 1 775 0 is_stmt 0 discriminator 1
 100 0042 2500     		movs	r5, r4
 101              	.LVL16:
 102 0044 6935     		adds	r5, r5, #105
 103 0046 FF35     		adds	r5, r5, #255
 104 0048 2DB2     		sxth	r5, r5
 105              	.LVL17:
 106              	.L6:
 776:..\..\..\arduinoLCD\test\Pain Drain\libraries\lvgl\src\widgets/lv_arc.c **** 
 777:..\..\..\arduinoLCD\test\Pain Drain\libraries\lvgl\src\widgets/lv_arc.c ****         int32_t angle_midpoint = (int32_t)(arc->bg_angle_start + bg_end) / 2;
 107              		.loc 1 777 0 is_stmt 1
 108 004a 5218     		adds	r2, r2, r1
 109 004c D10F     		lsrs	r1, r2, #31
 110              	.LVL18:
 111 004e 8A18     		adds	r2, r1, r2
 112 0050 5210     		asrs	r2, r2, #1
 113              	.LVL19:
 778:..\..\..\arduinoLCD\test\Pain Drain\libraries\lvgl\src\widgets/lv_arc.c ****         if(arc->indic_angle_start < angle_midpoint) angle += arc->indic_angle_start;
 114              		.loc 1 778 0
 115 0052 8242     		cmp	r2, r0
 116 0054 02DD     		ble	.L7
 117              		.loc 1 778 0 is_stmt 0 discriminator 1
 118 0056 1B18     		adds	r3, r3, r0
 119              	.LVL20:
 120 0058 9BB2     		uxth	r3, r3
 121              	.LVL21:
 122 005a 06E0     		b	.L3
 123              	.L7:
 779:..\..\..\arduinoLCD\test\Pain Drain\libraries\lvgl\src\widgets/lv_arc.c ****         else if(indic_end > angle_midpoint) angle += arc->indic_angle_end;
 124              		.loc 1 779 0 is_stmt 1
 125 005c AA42     		cmp	r2, r5
 126 005e 02DA     		bge	.L8
 127              		.loc 1 779 0 is_stmt 0 discriminator 1
 128 0060 1B19     		adds	r3, r3, r4
 129              	.LVL22:
 130 0062 9BB2     		uxth	r3, r3
 131              	.LVL23:
 132 0064 01E0     		b	.L3
 133              	.L8:
ARM GAS  C:\Users\haske\AppData\Local\Temp\ccmHbbn5.s 			page 17


 780:..\..\..\arduinoLCD\test\Pain Drain\libraries\lvgl\src\widgets/lv_arc.c ****         else angle += angle_midpoint;
 134              		.loc 1 780 0 is_stmt 1
 135 0066 9B18     		adds	r3, r3, r2
 136              	.LVL24:
 137 0068 9BB2     		uxth	r3, r3
 138              	.LVL25:
 139              	.L3:
 140              	.LBE82:
 781:..\..\..\arduinoLCD\test\Pain Drain\libraries\lvgl\src\widgets/lv_arc.c ****     }
 782:..\..\..\arduinoLCD\test\Pain Drain\libraries\lvgl\src\widgets/lv_arc.c **** 
 783:..\..\..\arduinoLCD\test\Pain Drain\libraries\lvgl\src\widgets/lv_arc.c ****     return angle;
 141              		.loc 1 783 0
 142 006a 18B2     		sxth	r0, r3
 784:..\..\..\arduinoLCD\test\Pain Drain\libraries\lvgl\src\widgets/lv_arc.c **** }
 143              		.loc 1 784 0
 144              		@ sp needed
 145 006c 30BD     		pop	{r4, r5, pc}
 146              		.cfi_endproc
 147              	.LFE187:
 148              		.size	get_angle, .-get_angle
 149 006e C046     		.section	.text.get_center,"ax",%progbits
 150              		.align	2
 151              		.code	16
 152              		.thumb_func
 153              		.type	get_center, %function
 154              	get_center:
 155              	.LFB186:
 746:..\..\..\arduinoLCD\test\Pain Drain\libraries\lvgl\src\widgets/lv_arc.c ****     lv_coord_t left_bg = lv_obj_get_style_pad_left(obj, LV_PART_MAIN);
 156              		.loc 1 746 0
 157              		.cfi_startproc
 158              		@ args = 0, pretend = 0, frame = 8
 159              		@ frame_needed = 0, uses_anonymous_args = 0
 160              	.LVL26:
 161 0000 F0B5     		push	{r4, r5, r6, r7, lr}
 162              		.cfi_def_cfa_offset 20
 163              		.cfi_offset 4, -20
 164              		.cfi_offset 5, -16
 165              		.cfi_offset 6, -12
 166              		.cfi_offset 7, -8
 167              		.cfi_offset 14, -4
 168 0002 5F46     		mov	r7, fp
 169 0004 5646     		mov	r6, r10
 170 0006 4D46     		mov	r5, r9
 171 0008 4446     		mov	r4, r8
 172 000a F0B4     		push	{r4, r5, r6, r7}
 173              		.cfi_def_cfa_offset 36
 174              		.cfi_offset 8, -36
 175              		.cfi_offset 9, -32
 176              		.cfi_offset 10, -28
 177              		.cfi_offset 11, -24
 178 000c 83B0     		sub	sp, sp, #12
 179              		.cfi_def_cfa_offset 48
 180 000e 0400     		movs	r4, r0
 181 0010 8846     		mov	r8, r1
 182 0012 9146     		mov	r9, r2
 183              	.LVL27:
 184              	.LBB83:
ARM GAS  C:\Users\haske\AppData\Local\Temp\ccmHbbn5.s 			page 18


 185              	.LBB84:
 186              		.file 2 "..\\..\\..\\arduinoLCD\\test\\Pain Drain\\libraries\\lvgl\\src\\widgets\\../core/lv_obj_s
   1:..\..\..\arduinoLCD\test\Pain Drain\libraries\lvgl\src\widgets\../core/lv_obj_style_gen.h **** static inline lv_coord_t lv_obj_get_style_width(const struct _lv_obj_t * obj, uint32_t part)
   2:..\..\..\arduinoLCD\test\Pain Drain\libraries\lvgl\src\widgets\../core/lv_obj_style_gen.h **** {
   3:..\..\..\arduinoLCD\test\Pain Drain\libraries\lvgl\src\widgets\../core/lv_obj_style_gen.h ****     lv_style_value_t v = lv_obj_get_style_prop(obj, part, LV_STYLE_WIDTH);
   4:..\..\..\arduinoLCD\test\Pain Drain\libraries\lvgl\src\widgets\../core/lv_obj_style_gen.h ****     return (lv_coord_t)v.num;
   5:..\..\..\arduinoLCD\test\Pain Drain\libraries\lvgl\src\widgets\../core/lv_obj_style_gen.h **** }
   6:..\..\..\arduinoLCD\test\Pain Drain\libraries\lvgl\src\widgets\../core/lv_obj_style_gen.h **** 
   7:..\..\..\arduinoLCD\test\Pain Drain\libraries\lvgl\src\widgets\../core/lv_obj_style_gen.h **** static inline lv_coord_t lv_obj_get_style_min_width(const struct _lv_obj_t * obj, uint32_t part)
   8:..\..\..\arduinoLCD\test\Pain Drain\libraries\lvgl\src\widgets\../core/lv_obj_style_gen.h **** {
   9:..\..\..\arduinoLCD\test\Pain Drain\libraries\lvgl\src\widgets\../core/lv_obj_style_gen.h ****     lv_style_value_t v = lv_obj_get_style_prop(obj, part, LV_STYLE_MIN_WIDTH);
  10:..\..\..\arduinoLCD\test\Pain Drain\libraries\lvgl\src\widgets\../core/lv_obj_style_gen.h ****     return (lv_coord_t)v.num;
  11:..\..\..\arduinoLCD\test\Pain Drain\libraries\lvgl\src\widgets\../core/lv_obj_style_gen.h **** }
  12:..\..\..\arduinoLCD\test\Pain Drain\libraries\lvgl\src\widgets\../core/lv_obj_style_gen.h **** 
  13:..\..\..\arduinoLCD\test\Pain Drain\libraries\lvgl\src\widgets\../core/lv_obj_style_gen.h **** static inline lv_coord_t lv_obj_get_style_max_width(const struct _lv_obj_t * obj, uint32_t part)
  14:..\..\..\arduinoLCD\test\Pain Drain\libraries\lvgl\src\widgets\../core/lv_obj_style_gen.h **** {
  15:..\..\..\arduinoLCD\test\Pain Drain\libraries\lvgl\src\widgets\../core/lv_obj_style_gen.h ****     lv_style_value_t v = lv_obj_get_style_prop(obj, part, LV_STYLE_MAX_WIDTH);
  16:..\..\..\arduinoLCD\test\Pain Drain\libraries\lvgl\src\widgets\../core/lv_obj_style_gen.h ****     return (lv_coord_t)v.num;
  17:..\..\..\arduinoLCD\test\Pain Drain\libraries\lvgl\src\widgets\../core/lv_obj_style_gen.h **** }
  18:..\..\..\arduinoLCD\test\Pain Drain\libraries\lvgl\src\widgets\../core/lv_obj_style_gen.h **** 
  19:..\..\..\arduinoLCD\test\Pain Drain\libraries\lvgl\src\widgets\../core/lv_obj_style_gen.h **** static inline lv_coord_t lv_obj_get_style_height(const struct _lv_obj_t * obj, uint32_t part)
  20:..\..\..\arduinoLCD\test\Pain Drain\libraries\lvgl\src\widgets\../core/lv_obj_style_gen.h **** {
  21:..\..\..\arduinoLCD\test\Pain Drain\libraries\lvgl\src\widgets\../core/lv_obj_style_gen.h ****     lv_style_value_t v = lv_obj_get_style_prop(obj, part, LV_STYLE_HEIGHT);
  22:..\..\..\arduinoLCD\test\Pain Drain\libraries\lvgl\src\widgets\../core/lv_obj_style_gen.h ****     return (lv_coord_t)v.num;
  23:..\..\..\arduinoLCD\test\Pain Drain\libraries\lvgl\src\widgets\../core/lv_obj_style_gen.h **** }
  24:..\..\..\arduinoLCD\test\Pain Drain\libraries\lvgl\src\widgets\../core/lv_obj_style_gen.h **** 
  25:..\..\..\arduinoLCD\test\Pain Drain\libraries\lvgl\src\widgets\../core/lv_obj_style_gen.h **** static inline lv_coord_t lv_obj_get_style_min_height(const struct _lv_obj_t * obj, uint32_t part)
  26:..\..\..\arduinoLCD\test\Pain Drain\libraries\lvgl\src\widgets\../core/lv_obj_style_gen.h **** {
  27:..\..\..\arduinoLCD\test\Pain Drain\libraries\lvgl\src\widgets\../core/lv_obj_style_gen.h ****     lv_style_value_t v = lv_obj_get_style_prop(obj, part, LV_STYLE_MIN_HEIGHT);
  28:..\..\..\arduinoLCD\test\Pain Drain\libraries\lvgl\src\widgets\../core/lv_obj_style_gen.h ****     return (lv_coord_t)v.num;
  29:..\..\..\arduinoLCD\test\Pain Drain\libraries\lvgl\src\widgets\../core/lv_obj_style_gen.h **** }
  30:..\..\..\arduinoLCD\test\Pain Drain\libraries\lvgl\src\widgets\../core/lv_obj_style_gen.h **** 
  31:..\..\..\arduinoLCD\test\Pain Drain\libraries\lvgl\src\widgets\../core/lv_obj_style_gen.h **** static inline lv_coord_t lv_obj_get_style_max_height(const struct _lv_obj_t * obj, uint32_t part)
  32:..\..\..\arduinoLCD\test\Pain Drain\libraries\lvgl\src\widgets\../core/lv_obj_style_gen.h **** {
  33:..\..\..\arduinoLCD\test\Pain Drain\libraries\lvgl\src\widgets\../core/lv_obj_style_gen.h ****     lv_style_value_t v = lv_obj_get_style_prop(obj, part, LV_STYLE_MAX_HEIGHT);
  34:..\..\..\arduinoLCD\test\Pain Drain\libraries\lvgl\src\widgets\../core/lv_obj_style_gen.h ****     return (lv_coord_t)v.num;
  35:..\..\..\arduinoLCD\test\Pain Drain\libraries\lvgl\src\widgets\../core/lv_obj_style_gen.h **** }
  36:..\..\..\arduinoLCD\test\Pain Drain\libraries\lvgl\src\widgets\../core/lv_obj_style_gen.h **** 
  37:..\..\..\arduinoLCD\test\Pain Drain\libraries\lvgl\src\widgets\../core/lv_obj_style_gen.h **** static inline lv_coord_t lv_obj_get_style_x(const struct _lv_obj_t * obj, uint32_t part)
  38:..\..\..\arduinoLCD\test\Pain Drain\libraries\lvgl\src\widgets\../core/lv_obj_style_gen.h **** {
  39:..\..\..\arduinoLCD\test\Pain Drain\libraries\lvgl\src\widgets\../core/lv_obj_style_gen.h ****     lv_style_value_t v = lv_obj_get_style_prop(obj, part, LV_STYLE_X);
  40:..\..\..\arduinoLCD\test\Pain Drain\libraries\lvgl\src\widgets\../core/lv_obj_style_gen.h ****     return (lv_coord_t)v.num;
  41:..\..\..\arduinoLCD\test\Pain Drain\libraries\lvgl\src\widgets\../core/lv_obj_style_gen.h **** }
  42:..\..\..\arduinoLCD\test\Pain Drain\libraries\lvgl\src\widgets\../core/lv_obj_style_gen.h **** 
  43:..\..\..\arduinoLCD\test\Pain Drain\libraries\lvgl\src\widgets\../core/lv_obj_style_gen.h **** static inline lv_coord_t lv_obj_get_style_y(const struct _lv_obj_t * obj, uint32_t part)
  44:..\..\..\arduinoLCD\test\Pain Drain\libraries\lvgl\src\widgets\../core/lv_obj_style_gen.h **** {
  45:..\..\..\arduinoLCD\test\Pain Drain\libraries\lvgl\src\widgets\../core/lv_obj_style_gen.h ****     lv_style_value_t v = lv_obj_get_style_prop(obj, part, LV_STYLE_Y);
  46:..\..\..\arduinoLCD\test\Pain Drain\libraries\lvgl\src\widgets\../core/lv_obj_style_gen.h ****     return (lv_coord_t)v.num;
  47:..\..\..\arduinoLCD\test\Pain Drain\libraries\lvgl\src\widgets\../core/lv_obj_style_gen.h **** }
  48:..\..\..\arduinoLCD\test\Pain Drain\libraries\lvgl\src\widgets\../core/lv_obj_style_gen.h **** 
  49:..\..\..\arduinoLCD\test\Pain Drain\libraries\lvgl\src\widgets\../core/lv_obj_style_gen.h **** static inline lv_align_t lv_obj_get_style_align(const struct _lv_obj_t * obj, uint32_t part)
  50:..\..\..\arduinoLCD\test\Pain Drain\libraries\lvgl\src\widgets\../core/lv_obj_style_gen.h **** {
  51:..\..\..\arduinoLCD\test\Pain Drain\libraries\lvgl\src\widgets\../core/lv_obj_style_gen.h ****     lv_style_value_t v = lv_obj_get_style_prop(obj, part, LV_STYLE_ALIGN);
  52:..\..\..\arduinoLCD\test\Pain Drain\libraries\lvgl\src\widgets\../core/lv_obj_style_gen.h ****     return (lv_align_t)v.num;
  53:..\..\..\arduinoLCD\test\Pain Drain\libraries\lvgl\src\widgets\../core/lv_obj_style_gen.h **** }
  54:..\..\..\arduinoLCD\test\Pain Drain\libraries\lvgl\src\widgets\../core/lv_obj_style_gen.h **** 
  55:..\..\..\arduinoLCD\test\Pain Drain\libraries\lvgl\src\widgets\../core/lv_obj_style_gen.h **** static inline lv_coord_t lv_obj_get_style_transform_width(const struct _lv_obj_t * obj, uint32_t pa
ARM GAS  C:\Users\haske\AppData\Local\Temp\ccmHbbn5.s 			page 19


  56:..\..\..\arduinoLCD\test\Pain Drain\libraries\lvgl\src\widgets\../core/lv_obj_style_gen.h **** {
  57:..\..\..\arduinoLCD\test\Pain Drain\libraries\lvgl\src\widgets\../core/lv_obj_style_gen.h ****     lv_style_value_t v = lv_obj_get_style_prop(obj, part, LV_STYLE_TRANSFORM_WIDTH);
  58:..\..\..\arduinoLCD\test\Pain Drain\libraries\lvgl\src\widgets\../core/lv_obj_style_gen.h ****     return (lv_coord_t)v.num;
  59:..\..\..\arduinoLCD\test\Pain Drain\libraries\lvgl\src\widgets\../core/lv_obj_style_gen.h **** }
  60:..\..\..\arduinoLCD\test\Pain Drain\libraries\lvgl\src\widgets\../core/lv_obj_style_gen.h **** 
  61:..\..\..\arduinoLCD\test\Pain Drain\libraries\lvgl\src\widgets\../core/lv_obj_style_gen.h **** static inline lv_coord_t lv_obj_get_style_transform_height(const struct _lv_obj_t * obj, uint32_t p
  62:..\..\..\arduinoLCD\test\Pain Drain\libraries\lvgl\src\widgets\../core/lv_obj_style_gen.h **** {
  63:..\..\..\arduinoLCD\test\Pain Drain\libraries\lvgl\src\widgets\../core/lv_obj_style_gen.h ****     lv_style_value_t v = lv_obj_get_style_prop(obj, part, LV_STYLE_TRANSFORM_HEIGHT);
  64:..\..\..\arduinoLCD\test\Pain Drain\libraries\lvgl\src\widgets\../core/lv_obj_style_gen.h ****     return (lv_coord_t)v.num;
  65:..\..\..\arduinoLCD\test\Pain Drain\libraries\lvgl\src\widgets\../core/lv_obj_style_gen.h **** }
  66:..\..\..\arduinoLCD\test\Pain Drain\libraries\lvgl\src\widgets\../core/lv_obj_style_gen.h **** 
  67:..\..\..\arduinoLCD\test\Pain Drain\libraries\lvgl\src\widgets\../core/lv_obj_style_gen.h **** static inline lv_coord_t lv_obj_get_style_translate_x(const struct _lv_obj_t * obj, uint32_t part)
  68:..\..\..\arduinoLCD\test\Pain Drain\libraries\lvgl\src\widgets\../core/lv_obj_style_gen.h **** {
  69:..\..\..\arduinoLCD\test\Pain Drain\libraries\lvgl\src\widgets\../core/lv_obj_style_gen.h ****     lv_style_value_t v = lv_obj_get_style_prop(obj, part, LV_STYLE_TRANSLATE_X);
  70:..\..\..\arduinoLCD\test\Pain Drain\libraries\lvgl\src\widgets\../core/lv_obj_style_gen.h ****     return (lv_coord_t)v.num;
  71:..\..\..\arduinoLCD\test\Pain Drain\libraries\lvgl\src\widgets\../core/lv_obj_style_gen.h **** }
  72:..\..\..\arduinoLCD\test\Pain Drain\libraries\lvgl\src\widgets\../core/lv_obj_style_gen.h **** 
  73:..\..\..\arduinoLCD\test\Pain Drain\libraries\lvgl\src\widgets\../core/lv_obj_style_gen.h **** static inline lv_coord_t lv_obj_get_style_translate_y(const struct _lv_obj_t * obj, uint32_t part)
  74:..\..\..\arduinoLCD\test\Pain Drain\libraries\lvgl\src\widgets\../core/lv_obj_style_gen.h **** {
  75:..\..\..\arduinoLCD\test\Pain Drain\libraries\lvgl\src\widgets\../core/lv_obj_style_gen.h ****     lv_style_value_t v = lv_obj_get_style_prop(obj, part, LV_STYLE_TRANSLATE_Y);
  76:..\..\..\arduinoLCD\test\Pain Drain\libraries\lvgl\src\widgets\../core/lv_obj_style_gen.h ****     return (lv_coord_t)v.num;
  77:..\..\..\arduinoLCD\test\Pain Drain\libraries\lvgl\src\widgets\../core/lv_obj_style_gen.h **** }
  78:..\..\..\arduinoLCD\test\Pain Drain\libraries\lvgl\src\widgets\../core/lv_obj_style_gen.h **** 
  79:..\..\..\arduinoLCD\test\Pain Drain\libraries\lvgl\src\widgets\../core/lv_obj_style_gen.h **** static inline lv_coord_t lv_obj_get_style_transform_zoom(const struct _lv_obj_t * obj, uint32_t par
  80:..\..\..\arduinoLCD\test\Pain Drain\libraries\lvgl\src\widgets\../core/lv_obj_style_gen.h **** {
  81:..\..\..\arduinoLCD\test\Pain Drain\libraries\lvgl\src\widgets\../core/lv_obj_style_gen.h ****     lv_style_value_t v = lv_obj_get_style_prop(obj, part, LV_STYLE_TRANSFORM_ZOOM);
  82:..\..\..\arduinoLCD\test\Pain Drain\libraries\lvgl\src\widgets\../core/lv_obj_style_gen.h ****     return (lv_coord_t)v.num;
  83:..\..\..\arduinoLCD\test\Pain Drain\libraries\lvgl\src\widgets\../core/lv_obj_style_gen.h **** }
  84:..\..\..\arduinoLCD\test\Pain Drain\libraries\lvgl\src\widgets\../core/lv_obj_style_gen.h **** 
  85:..\..\..\arduinoLCD\test\Pain Drain\libraries\lvgl\src\widgets\../core/lv_obj_style_gen.h **** static inline lv_coord_t lv_obj_get_style_transform_angle(const struct _lv_obj_t * obj, uint32_t pa
  86:..\..\..\arduinoLCD\test\Pain Drain\libraries\lvgl\src\widgets\../core/lv_obj_style_gen.h **** {
  87:..\..\..\arduinoLCD\test\Pain Drain\libraries\lvgl\src\widgets\../core/lv_obj_style_gen.h ****     lv_style_value_t v = lv_obj_get_style_prop(obj, part, LV_STYLE_TRANSFORM_ANGLE);
  88:..\..\..\arduinoLCD\test\Pain Drain\libraries\lvgl\src\widgets\../core/lv_obj_style_gen.h ****     return (lv_coord_t)v.num;
  89:..\..\..\arduinoLCD\test\Pain Drain\libraries\lvgl\src\widgets\../core/lv_obj_style_gen.h **** }
  90:..\..\..\arduinoLCD\test\Pain Drain\libraries\lvgl\src\widgets\../core/lv_obj_style_gen.h **** 
  91:..\..\..\arduinoLCD\test\Pain Drain\libraries\lvgl\src\widgets\../core/lv_obj_style_gen.h **** static inline lv_coord_t lv_obj_get_style_transform_pivot_x(const struct _lv_obj_t * obj, uint32_t 
  92:..\..\..\arduinoLCD\test\Pain Drain\libraries\lvgl\src\widgets\../core/lv_obj_style_gen.h **** {
  93:..\..\..\arduinoLCD\test\Pain Drain\libraries\lvgl\src\widgets\../core/lv_obj_style_gen.h ****     lv_style_value_t v = lv_obj_get_style_prop(obj, part, LV_STYLE_TRANSFORM_PIVOT_X);
  94:..\..\..\arduinoLCD\test\Pain Drain\libraries\lvgl\src\widgets\../core/lv_obj_style_gen.h ****     return (lv_coord_t)v.num;
  95:..\..\..\arduinoLCD\test\Pain Drain\libraries\lvgl\src\widgets\../core/lv_obj_style_gen.h **** }
  96:..\..\..\arduinoLCD\test\Pain Drain\libraries\lvgl\src\widgets\../core/lv_obj_style_gen.h **** 
  97:..\..\..\arduinoLCD\test\Pain Drain\libraries\lvgl\src\widgets\../core/lv_obj_style_gen.h **** static inline lv_coord_t lv_obj_get_style_transform_pivot_y(const struct _lv_obj_t * obj, uint32_t 
  98:..\..\..\arduinoLCD\test\Pain Drain\libraries\lvgl\src\widgets\../core/lv_obj_style_gen.h **** {
  99:..\..\..\arduinoLCD\test\Pain Drain\libraries\lvgl\src\widgets\../core/lv_obj_style_gen.h ****     lv_style_value_t v = lv_obj_get_style_prop(obj, part, LV_STYLE_TRANSFORM_PIVOT_Y);
 100:..\..\..\arduinoLCD\test\Pain Drain\libraries\lvgl\src\widgets\../core/lv_obj_style_gen.h ****     return (lv_coord_t)v.num;
 101:..\..\..\arduinoLCD\test\Pain Drain\libraries\lvgl\src\widgets\../core/lv_obj_style_gen.h **** }
 102:..\..\..\arduinoLCD\test\Pain Drain\libraries\lvgl\src\widgets\../core/lv_obj_style_gen.h **** 
 103:..\..\..\arduinoLCD\test\Pain Drain\libraries\lvgl\src\widgets\../core/lv_obj_style_gen.h **** static inline lv_coord_t lv_obj_get_style_pad_top(const struct _lv_obj_t * obj, uint32_t part)
 104:..\..\..\arduinoLCD\test\Pain Drain\libraries\lvgl\src\widgets\../core/lv_obj_style_gen.h **** {
 105:..\..\..\arduinoLCD\test\Pain Drain\libraries\lvgl\src\widgets\../core/lv_obj_style_gen.h ****     lv_style_value_t v = lv_obj_get_style_prop(obj, part, LV_STYLE_PAD_TOP);
 106:..\..\..\arduinoLCD\test\Pain Drain\libraries\lvgl\src\widgets\../core/lv_obj_style_gen.h ****     return (lv_coord_t)v.num;
 107:..\..\..\arduinoLCD\test\Pain Drain\libraries\lvgl\src\widgets\../core/lv_obj_style_gen.h **** }
 108:..\..\..\arduinoLCD\test\Pain Drain\libraries\lvgl\src\widgets\../core/lv_obj_style_gen.h **** 
 109:..\..\..\arduinoLCD\test\Pain Drain\libraries\lvgl\src\widgets\../core/lv_obj_style_gen.h **** static inline lv_coord_t lv_obj_get_style_pad_bottom(const struct _lv_obj_t * obj, uint32_t part)
 110:..\..\..\arduinoLCD\test\Pain Drain\libraries\lvgl\src\widgets\../core/lv_obj_style_gen.h **** {
 111:..\..\..\arduinoLCD\test\Pain Drain\libraries\lvgl\src\widgets\../core/lv_obj_style_gen.h ****     lv_style_value_t v = lv_obj_get_style_prop(obj, part, LV_STYLE_PAD_BOTTOM);
 112:..\..\..\arduinoLCD\test\Pain Drain\libraries\lvgl\src\widgets\../core/lv_obj_style_gen.h ****     return (lv_coord_t)v.num;
ARM GAS  C:\Users\haske\AppData\Local\Temp\ccmHbbn5.s 			page 20


 113:..\..\..\arduinoLCD\test\Pain Drain\libraries\lvgl\src\widgets\../core/lv_obj_style_gen.h **** }
 114:..\..\..\arduinoLCD\test\Pain Drain\libraries\lvgl\src\widgets\../core/lv_obj_style_gen.h **** 
 115:..\..\..\arduinoLCD\test\Pain Drain\libraries\lvgl\src\widgets\../core/lv_obj_style_gen.h **** static inline lv_coord_t lv_obj_get_style_pad_left(const struct _lv_obj_t * obj, uint32_t part)
 116:..\..\..\arduinoLCD\test\Pain Drain\libraries\lvgl\src\widgets\../core/lv_obj_style_gen.h **** {
 117:..\..\..\arduinoLCD\test\Pain Drain\libraries\lvgl\src\widgets\../core/lv_obj_style_gen.h ****     lv_style_value_t v = lv_obj_get_style_prop(obj, part, LV_STYLE_PAD_LEFT);
 187              		.loc 2 117 0
 188 0014 1222     		movs	r2, #18
 189              	.LVL28:
 190 0016 0021     		movs	r1, #0
 191              	.LVL29:
 192 0018 FFF7FEFF 		bl	lv_obj_get_style_prop
 193              	.LVL30:
 194 001c 0090     		str	r0, [sp]
 118:..\..\..\arduinoLCD\test\Pain Drain\libraries\lvgl\src\widgets\../core/lv_obj_style_gen.h ****     return (lv_coord_t)v.num;
 195              		.loc 2 118 0
 196 001e 03B2     		sxth	r3, r0
 197 0020 9B46     		mov	fp, r3
 198              	.LVL31:
 199              	.LBE84:
 200              	.LBE83:
 201              	.LBB85:
 202              	.LBB86:
 119:..\..\..\arduinoLCD\test\Pain Drain\libraries\lvgl\src\widgets\../core/lv_obj_style_gen.h **** }
 120:..\..\..\arduinoLCD\test\Pain Drain\libraries\lvgl\src\widgets\../core/lv_obj_style_gen.h **** 
 121:..\..\..\arduinoLCD\test\Pain Drain\libraries\lvgl\src\widgets\../core/lv_obj_style_gen.h **** static inline lv_coord_t lv_obj_get_style_pad_right(const struct _lv_obj_t * obj, uint32_t part)
 122:..\..\..\arduinoLCD\test\Pain Drain\libraries\lvgl\src\widgets\../core/lv_obj_style_gen.h **** {
 123:..\..\..\arduinoLCD\test\Pain Drain\libraries\lvgl\src\widgets\../core/lv_obj_style_gen.h ****     lv_style_value_t v = lv_obj_get_style_prop(obj, part, LV_STYLE_PAD_RIGHT);
 203              		.loc 2 123 0
 204 0022 1322     		movs	r2, #19
 205 0024 0021     		movs	r1, #0
 206 0026 2000     		movs	r0, r4
 207 0028 FFF7FEFF 		bl	lv_obj_get_style_prop
 208              	.LVL32:
 124:..\..\..\arduinoLCD\test\Pain Drain\libraries\lvgl\src\widgets\../core/lv_obj_style_gen.h ****     return (lv_coord_t)v.num;
 209              		.loc 2 124 0
 210 002c 07B2     		sxth	r7, r0
 211              	.LVL33:
 212              	.LBE86:
 213              	.LBE85:
 214              	.LBB87:
 215              	.LBB88:
 105:..\..\..\arduinoLCD\test\Pain Drain\libraries\lvgl\src\widgets\../core/lv_obj_style_gen.h ****     return (lv_coord_t)v.num;
 216              		.loc 2 105 0
 217 002e 1022     		movs	r2, #16
 218 0030 0021     		movs	r1, #0
 219 0032 2000     		movs	r0, r4
 220 0034 FFF7FEFF 		bl	lv_obj_get_style_prop
 221              	.LVL34:
 222 0038 0190     		str	r0, [sp, #4]
 106:..\..\..\arduinoLCD\test\Pain Drain\libraries\lvgl\src\widgets\../core/lv_obj_style_gen.h **** }
 223              		.loc 2 106 0
 224 003a 03B2     		sxth	r3, r0
 225 003c 9A46     		mov	r10, r3
 226              	.LVL35:
 227              	.LBE88:
 228              	.LBE87:
 229              	.LBB89:
ARM GAS  C:\Users\haske\AppData\Local\Temp\ccmHbbn5.s 			page 21


 230              	.LBB90:
 111:..\..\..\arduinoLCD\test\Pain Drain\libraries\lvgl\src\widgets\../core/lv_obj_style_gen.h ****     return (lv_coord_t)v.num;
 231              		.loc 2 111 0
 232 003e 1122     		movs	r2, #17
 233 0040 0021     		movs	r1, #0
 234 0042 2000     		movs	r0, r4
 235 0044 FFF7FEFF 		bl	lv_obj_get_style_prop
 236              	.LVL36:
 112:..\..\..\arduinoLCD\test\Pain Drain\libraries\lvgl\src\widgets\../core/lv_obj_style_gen.h **** }
 237              		.loc 2 112 0
 238 0048 06B2     		sxth	r6, r0
 239              	.LVL37:
 240              	.LBE90:
 241              	.LBE89:
 752:..\..\..\arduinoLCD\test\Pain Drain\libraries\lvgl\src\widgets/lv_arc.c ****                            lv_obj_get_height(obj) - top_bg - bottom_bg)) / 2;
 242              		.loc 1 752 0
 243 004a 2000     		movs	r0, r4
 244 004c FFF7FEFF 		bl	lv_obj_get_width
 245              	.LVL38:
 246 0050 5B46     		mov	r3, fp
 247 0052 C01A     		subs	r0, r0, r3
 248 0054 C51B     		subs	r5, r0, r7
 249 0056 2000     		movs	r0, r4
 250 0058 FFF7FEFF 		bl	lv_obj_get_height
 251              	.LVL39:
 252 005c 5346     		mov	r3, r10
 253 005e C01A     		subs	r0, r0, r3
 254 0060 801B     		subs	r0, r0, r6
 255 0062 8542     		cmp	r5, r0
 256 0064 0ADA     		bge	.L10
 752:..\..\..\arduinoLCD\test\Pain Drain\libraries\lvgl\src\widgets/lv_arc.c ****                            lv_obj_get_height(obj) - top_bg - bottom_bg)) / 2;
 257              		.loc 1 752 0 is_stmt 0 discriminator 1
 258 0066 2000     		movs	r0, r4
 259 0068 FFF7FEFF 		bl	lv_obj_get_width
 260              	.LVL40:
 261 006c 5B46     		mov	r3, fp
 262 006e C01A     		subs	r0, r0, r3
 263 0070 C71B     		subs	r7, r0, r7
 753:..\..\..\arduinoLCD\test\Pain Drain\libraries\lvgl\src\widgets/lv_arc.c **** 
 264              		.loc 1 753 0 is_stmt 1 discriminator 1
 265 0072 FE0F     		lsrs	r6, r7, #31
 266 0074 F719     		adds	r7, r6, r7
 267 0076 7F10     		asrs	r7, r7, #1
 752:..\..\..\arduinoLCD\test\Pain Drain\libraries\lvgl\src\widgets/lv_arc.c ****                            lv_obj_get_height(obj) - top_bg - bottom_bg)) / 2;
 268              		.loc 1 752 0 discriminator 1
 269 0078 3EB2     		sxth	r6, r7
 270 007a 09E0     		b	.L11
 271              	.L10:
 752:..\..\..\arduinoLCD\test\Pain Drain\libraries\lvgl\src\widgets/lv_arc.c ****                            lv_obj_get_height(obj) - top_bg - bottom_bg)) / 2;
 272              		.loc 1 752 0 is_stmt 0 discriminator 2
 273 007c 2000     		movs	r0, r4
 274 007e FFF7FEFF 		bl	lv_obj_get_height
 275              	.LVL41:
 276 0082 5346     		mov	r3, r10
 277 0084 C01A     		subs	r0, r0, r3
 278 0086 861B     		subs	r6, r0, r6
 753:..\..\..\arduinoLCD\test\Pain Drain\libraries\lvgl\src\widgets/lv_arc.c **** 
ARM GAS  C:\Users\haske\AppData\Local\Temp\ccmHbbn5.s 			page 22


 279              		.loc 1 753 0 is_stmt 1 discriminator 2
 280 0088 F00F     		lsrs	r0, r6, #31
 281 008a 8619     		adds	r6, r0, r6
 282 008c 7610     		asrs	r6, r6, #1
 752:..\..\..\arduinoLCD\test\Pain Drain\libraries\lvgl\src\widgets/lv_arc.c ****                            lv_obj_get_height(obj) - top_bg - bottom_bg)) / 2;
 283              		.loc 1 752 0 discriminator 2
 284 008e 36B2     		sxth	r6, r6
 285              	.L11:
 286              	.LVL42:
 755:..\..\..\arduinoLCD\test\Pain Drain\libraries\lvgl\src\widgets/lv_arc.c ****     center->y = obj->coords.y1 + r + top_bg;
 287              		.loc 1 755 0 discriminator 4
 288 0090 1422     		movs	r2, #20
 289 0092 A35E     		ldrsh	r3, [r4, r2]
 290 0094 B2B2     		uxth	r2, r6
 291 0096 D318     		adds	r3, r2, r3
 292 0098 0099     		ldr	r1, [sp]
 293 009a 8C46     		mov	ip, r1
 294 009c 6344     		add	r3, r3, ip
 295 009e 4146     		mov	r1, r8
 296 00a0 0B80     		strh	r3, [r1]
 756:..\..\..\arduinoLCD\test\Pain Drain\libraries\lvgl\src\widgets/lv_arc.c **** 
 297              		.loc 1 756 0 discriminator 4
 298 00a2 1621     		movs	r1, #22
 299 00a4 635E     		ldrsh	r3, [r4, r1]
 300 00a6 D318     		adds	r3, r2, r3
 301 00a8 019A     		ldr	r2, [sp, #4]
 302 00aa 9D18     		adds	r5, r3, r2
 303 00ac 4346     		mov	r3, r8
 304 00ae 5D80     		strh	r5, [r3, #2]
 758:..\..\..\arduinoLCD\test\Pain Drain\libraries\lvgl\src\widgets/lv_arc.c **** }
 305              		.loc 1 758 0 discriminator 4
 306 00b0 4B46     		mov	r3, r9
 307 00b2 002B     		cmp	r3, #0
 308 00b4 00D0     		beq	.L9
 309              	.LVL43:
 758:..\..\..\arduinoLCD\test\Pain Drain\libraries\lvgl\src\widgets/lv_arc.c **** }
 310              		.loc 1 758 0 is_stmt 0 discriminator 1
 311 00b6 1E80     		strh	r6, [r3]
 312              	.L9:
 759:..\..\..\arduinoLCD\test\Pain Drain\libraries\lvgl\src\widgets/lv_arc.c **** 
 313              		.loc 1 759 0 is_stmt 1
 314 00b8 03B0     		add	sp, sp, #12
 315              		@ sp needed
 316              	.LVL44:
 317              	.LVL45:
 318              	.LVL46:
 319 00ba 3CBC     		pop	{r2, r3, r4, r5}
 320 00bc 9046     		mov	r8, r2
 321 00be 9946     		mov	r9, r3
 322 00c0 A246     		mov	r10, r4
 323 00c2 AB46     		mov	fp, r5
 324 00c4 F0BD     		pop	{r4, r5, r6, r7, pc}
 325              		.cfi_endproc
 326              	.LFE186:
 327              		.size	get_center, .-get_center
 328 00c6 C046     		.section	.text.knob_get_extra_size,"ax",%progbits
 329              		.align	2
ARM GAS  C:\Users\haske\AppData\Local\Temp\ccmHbbn5.s 			page 23


 330              		.code	16
 331              		.thumb_func
 332              		.type	knob_get_extra_size, %function
 333              	knob_get_extra_size:
 334              	.LFB190:
 785:..\..\..\arduinoLCD\test\Pain Drain\libraries\lvgl\src\widgets/lv_arc.c **** 
 786:..\..\..\arduinoLCD\test\Pain Drain\libraries\lvgl\src\widgets/lv_arc.c **** 
 787:..\..\..\arduinoLCD\test\Pain Drain\libraries\lvgl\src\widgets/lv_arc.c **** static void get_knob_area(lv_obj_t * obj, const lv_point_t * center, lv_coord_t r, lv_area_t * knob
 788:..\..\..\arduinoLCD\test\Pain Drain\libraries\lvgl\src\widgets/lv_arc.c **** {
 789:..\..\..\arduinoLCD\test\Pain Drain\libraries\lvgl\src\widgets/lv_arc.c ****     lv_coord_t indic_width = lv_obj_get_style_arc_width(obj, LV_PART_INDICATOR);
 790:..\..\..\arduinoLCD\test\Pain Drain\libraries\lvgl\src\widgets/lv_arc.c ****     lv_coord_t indic_width_half = indic_width / 2;
 791:..\..\..\arduinoLCD\test\Pain Drain\libraries\lvgl\src\widgets/lv_arc.c ****     r -= indic_width_half;
 792:..\..\..\arduinoLCD\test\Pain Drain\libraries\lvgl\src\widgets/lv_arc.c **** 
 793:..\..\..\arduinoLCD\test\Pain Drain\libraries\lvgl\src\widgets/lv_arc.c ****     lv_coord_t angle = get_angle(obj);
 794:..\..\..\arduinoLCD\test\Pain Drain\libraries\lvgl\src\widgets/lv_arc.c ****     lv_coord_t knob_x = (r * lv_trigo_sin(angle + 90)) >> LV_TRIGO_SHIFT;
 795:..\..\..\arduinoLCD\test\Pain Drain\libraries\lvgl\src\widgets/lv_arc.c ****     lv_coord_t knob_y = (r * lv_trigo_sin(angle)) >> LV_TRIGO_SHIFT;
 796:..\..\..\arduinoLCD\test\Pain Drain\libraries\lvgl\src\widgets/lv_arc.c **** 
 797:..\..\..\arduinoLCD\test\Pain Drain\libraries\lvgl\src\widgets/lv_arc.c ****     lv_coord_t left_knob = lv_obj_get_style_pad_left(obj, LV_PART_KNOB);
 798:..\..\..\arduinoLCD\test\Pain Drain\libraries\lvgl\src\widgets/lv_arc.c ****     lv_coord_t right_knob = lv_obj_get_style_pad_right(obj, LV_PART_KNOB);
 799:..\..\..\arduinoLCD\test\Pain Drain\libraries\lvgl\src\widgets/lv_arc.c ****     lv_coord_t top_knob = lv_obj_get_style_pad_top(obj, LV_PART_KNOB);
 800:..\..\..\arduinoLCD\test\Pain Drain\libraries\lvgl\src\widgets/lv_arc.c ****     lv_coord_t bottom_knob = lv_obj_get_style_pad_bottom(obj, LV_PART_KNOB);
 801:..\..\..\arduinoLCD\test\Pain Drain\libraries\lvgl\src\widgets/lv_arc.c **** 
 802:..\..\..\arduinoLCD\test\Pain Drain\libraries\lvgl\src\widgets/lv_arc.c ****     knob_area->x1 = center->x + knob_x - left_knob - indic_width_half;
 803:..\..\..\arduinoLCD\test\Pain Drain\libraries\lvgl\src\widgets/lv_arc.c ****     knob_area->x2 = center->x + knob_x + right_knob + indic_width_half;
 804:..\..\..\arduinoLCD\test\Pain Drain\libraries\lvgl\src\widgets/lv_arc.c ****     knob_area->y1 = center->y + knob_y - top_knob - indic_width_half;
 805:..\..\..\arduinoLCD\test\Pain Drain\libraries\lvgl\src\widgets/lv_arc.c ****     knob_area->y2 = center->y + knob_y + bottom_knob + indic_width_half;
 806:..\..\..\arduinoLCD\test\Pain Drain\libraries\lvgl\src\widgets/lv_arc.c **** }
 807:..\..\..\arduinoLCD\test\Pain Drain\libraries\lvgl\src\widgets/lv_arc.c **** 
 808:..\..\..\arduinoLCD\test\Pain Drain\libraries\lvgl\src\widgets/lv_arc.c **** /**
 809:..\..\..\arduinoLCD\test\Pain Drain\libraries\lvgl\src\widgets/lv_arc.c ****  * Used internally to update arc angles after a value change
 810:..\..\..\arduinoLCD\test\Pain Drain\libraries\lvgl\src\widgets/lv_arc.c ****  * @param arc pointer to an arc object
 811:..\..\..\arduinoLCD\test\Pain Drain\libraries\lvgl\src\widgets/lv_arc.c ****  */
 812:..\..\..\arduinoLCD\test\Pain Drain\libraries\lvgl\src\widgets/lv_arc.c **** static void value_update(lv_obj_t * obj)
 813:..\..\..\arduinoLCD\test\Pain Drain\libraries\lvgl\src\widgets/lv_arc.c **** {
 814:..\..\..\arduinoLCD\test\Pain Drain\libraries\lvgl\src\widgets/lv_arc.c ****     LV_ASSERT_OBJ(obj, MY_CLASS);
 815:..\..\..\arduinoLCD\test\Pain Drain\libraries\lvgl\src\widgets/lv_arc.c ****     lv_arc_t * arc = (lv_arc_t *)obj;
 816:..\..\..\arduinoLCD\test\Pain Drain\libraries\lvgl\src\widgets/lv_arc.c **** 
 817:..\..\..\arduinoLCD\test\Pain Drain\libraries\lvgl\src\widgets/lv_arc.c ****     /*If the value is still not set to any value do not update*/
 818:..\..\..\arduinoLCD\test\Pain Drain\libraries\lvgl\src\widgets/lv_arc.c ****     if(arc->value == VALUE_UNSET) return;
 819:..\..\..\arduinoLCD\test\Pain Drain\libraries\lvgl\src\widgets/lv_arc.c **** 
 820:..\..\..\arduinoLCD\test\Pain Drain\libraries\lvgl\src\widgets/lv_arc.c ****     int16_t bg_midpoint, range_midpoint, bg_end = arc->bg_angle_end;
 821:..\..\..\arduinoLCD\test\Pain Drain\libraries\lvgl\src\widgets/lv_arc.c ****     if(arc->bg_angle_end < arc->bg_angle_start) bg_end = arc->bg_angle_end + 360;
 822:..\..\..\arduinoLCD\test\Pain Drain\libraries\lvgl\src\widgets/lv_arc.c **** 
 823:..\..\..\arduinoLCD\test\Pain Drain\libraries\lvgl\src\widgets/lv_arc.c ****     int16_t angle;
 824:..\..\..\arduinoLCD\test\Pain Drain\libraries\lvgl\src\widgets/lv_arc.c ****     switch(arc->type) {
 825:..\..\..\arduinoLCD\test\Pain Drain\libraries\lvgl\src\widgets/lv_arc.c ****         case LV_ARC_MODE_SYMMETRICAL:
 826:..\..\..\arduinoLCD\test\Pain Drain\libraries\lvgl\src\widgets/lv_arc.c ****             bg_midpoint = (arc->bg_angle_start + bg_end) / 2;
 827:..\..\..\arduinoLCD\test\Pain Drain\libraries\lvgl\src\widgets/lv_arc.c ****             range_midpoint = (int32_t)(arc->min_value + arc->max_value) / 2;
 828:..\..\..\arduinoLCD\test\Pain Drain\libraries\lvgl\src\widgets/lv_arc.c **** 
 829:..\..\..\arduinoLCD\test\Pain Drain\libraries\lvgl\src\widgets/lv_arc.c ****             if(arc->value < range_midpoint) {
 830:..\..\..\arduinoLCD\test\Pain Drain\libraries\lvgl\src\widgets/lv_arc.c ****                 angle = lv_map(arc->value, arc->min_value, range_midpoint, arc->bg_angle_start, bg_
 831:..\..\..\arduinoLCD\test\Pain Drain\libraries\lvgl\src\widgets/lv_arc.c ****                 lv_arc_set_start_angle(obj, angle);
 832:..\..\..\arduinoLCD\test\Pain Drain\libraries\lvgl\src\widgets/lv_arc.c ****                 lv_arc_set_end_angle(obj, bg_midpoint);
 833:..\..\..\arduinoLCD\test\Pain Drain\libraries\lvgl\src\widgets/lv_arc.c ****             }
 834:..\..\..\arduinoLCD\test\Pain Drain\libraries\lvgl\src\widgets/lv_arc.c ****             else {
 835:..\..\..\arduinoLCD\test\Pain Drain\libraries\lvgl\src\widgets/lv_arc.c ****                 angle = lv_map(arc->value, range_midpoint, arc->max_value, bg_midpoint, bg_end);
 836:..\..\..\arduinoLCD\test\Pain Drain\libraries\lvgl\src\widgets/lv_arc.c ****                 lv_arc_set_start_angle(obj, bg_midpoint);
ARM GAS  C:\Users\haske\AppData\Local\Temp\ccmHbbn5.s 			page 24


 837:..\..\..\arduinoLCD\test\Pain Drain\libraries\lvgl\src\widgets/lv_arc.c ****                 lv_arc_set_end_angle(obj, angle);
 838:..\..\..\arduinoLCD\test\Pain Drain\libraries\lvgl\src\widgets/lv_arc.c ****             }
 839:..\..\..\arduinoLCD\test\Pain Drain\libraries\lvgl\src\widgets/lv_arc.c ****             break;
 840:..\..\..\arduinoLCD\test\Pain Drain\libraries\lvgl\src\widgets/lv_arc.c ****         case LV_ARC_MODE_REVERSE:
 841:..\..\..\arduinoLCD\test\Pain Drain\libraries\lvgl\src\widgets/lv_arc.c ****             angle = lv_map(arc->value, arc->min_value, arc->max_value, bg_end, arc->bg_angle_start)
 842:..\..\..\arduinoLCD\test\Pain Drain\libraries\lvgl\src\widgets/lv_arc.c ****             lv_arc_set_angles(obj, angle, arc->bg_angle_end);
 843:..\..\..\arduinoLCD\test\Pain Drain\libraries\lvgl\src\widgets/lv_arc.c ****             break;
 844:..\..\..\arduinoLCD\test\Pain Drain\libraries\lvgl\src\widgets/lv_arc.c ****         case LV_ARC_MODE_NORMAL:
 845:..\..\..\arduinoLCD\test\Pain Drain\libraries\lvgl\src\widgets/lv_arc.c ****             angle = lv_map(arc->value, arc->min_value, arc->max_value, arc->bg_angle_start, bg_end)
 846:..\..\..\arduinoLCD\test\Pain Drain\libraries\lvgl\src\widgets/lv_arc.c ****             lv_arc_set_angles(obj, arc->bg_angle_start, angle);
 847:..\..\..\arduinoLCD\test\Pain Drain\libraries\lvgl\src\widgets/lv_arc.c **** 
 848:..\..\..\arduinoLCD\test\Pain Drain\libraries\lvgl\src\widgets/lv_arc.c ****             break;
 849:..\..\..\arduinoLCD\test\Pain Drain\libraries\lvgl\src\widgets/lv_arc.c ****         default:
 850:..\..\..\arduinoLCD\test\Pain Drain\libraries\lvgl\src\widgets/lv_arc.c ****             LV_LOG_WARN("Invalid mode: %d", arc->type);
 851:..\..\..\arduinoLCD\test\Pain Drain\libraries\lvgl\src\widgets/lv_arc.c ****             return;
 852:..\..\..\arduinoLCD\test\Pain Drain\libraries\lvgl\src\widgets/lv_arc.c ****     }
 853:..\..\..\arduinoLCD\test\Pain Drain\libraries\lvgl\src\widgets/lv_arc.c ****     arc->last_angle = angle; /*Cache angle for slew rate limiting*/
 854:..\..\..\arduinoLCD\test\Pain Drain\libraries\lvgl\src\widgets/lv_arc.c **** }
 855:..\..\..\arduinoLCD\test\Pain Drain\libraries\lvgl\src\widgets/lv_arc.c **** 
 856:..\..\..\arduinoLCD\test\Pain Drain\libraries\lvgl\src\widgets/lv_arc.c **** static lv_coord_t knob_get_extra_size(lv_obj_t * obj)
 857:..\..\..\arduinoLCD\test\Pain Drain\libraries\lvgl\src\widgets/lv_arc.c **** {
 335              		.loc 1 857 0
 336              		.cfi_startproc
 337              		@ args = 0, pretend = 0, frame = 0
 338              		@ frame_needed = 0, uses_anonymous_args = 0
 339              	.LVL47:
 340 0000 F8B5     		push	{r3, r4, r5, r6, r7, lr}
 341              		.cfi_def_cfa_offset 24
 342              		.cfi_offset 3, -24
 343              		.cfi_offset 4, -20
 344              		.cfi_offset 5, -16
 345              		.cfi_offset 6, -12
 346              		.cfi_offset 7, -8
 347              		.cfi_offset 14, -4
 348 0002 0500     		movs	r5, r0
 349              	.LVL48:
 350              	.LBB91:
 351              	.LBB92:
 125:..\..\..\arduinoLCD\test\Pain Drain\libraries\lvgl\src\widgets\../core/lv_obj_style_gen.h **** }
 126:..\..\..\arduinoLCD\test\Pain Drain\libraries\lvgl\src\widgets\../core/lv_obj_style_gen.h **** 
 127:..\..\..\arduinoLCD\test\Pain Drain\libraries\lvgl\src\widgets\../core/lv_obj_style_gen.h **** static inline lv_coord_t lv_obj_get_style_pad_row(const struct _lv_obj_t * obj, uint32_t part)
 128:..\..\..\arduinoLCD\test\Pain Drain\libraries\lvgl\src\widgets\../core/lv_obj_style_gen.h **** {
 129:..\..\..\arduinoLCD\test\Pain Drain\libraries\lvgl\src\widgets\../core/lv_obj_style_gen.h ****     lv_style_value_t v = lv_obj_get_style_prop(obj, part, LV_STYLE_PAD_ROW);
 130:..\..\..\arduinoLCD\test\Pain Drain\libraries\lvgl\src\widgets\../core/lv_obj_style_gen.h ****     return (lv_coord_t)v.num;
 131:..\..\..\arduinoLCD\test\Pain Drain\libraries\lvgl\src\widgets\../core/lv_obj_style_gen.h **** }
 132:..\..\..\arduinoLCD\test\Pain Drain\libraries\lvgl\src\widgets\../core/lv_obj_style_gen.h **** 
 133:..\..\..\arduinoLCD\test\Pain Drain\libraries\lvgl\src\widgets\../core/lv_obj_style_gen.h **** static inline lv_coord_t lv_obj_get_style_pad_column(const struct _lv_obj_t * obj, uint32_t part)
 134:..\..\..\arduinoLCD\test\Pain Drain\libraries\lvgl\src\widgets\../core/lv_obj_style_gen.h **** {
 135:..\..\..\arduinoLCD\test\Pain Drain\libraries\lvgl\src\widgets\../core/lv_obj_style_gen.h ****     lv_style_value_t v = lv_obj_get_style_prop(obj, part, LV_STYLE_PAD_COLUMN);
 136:..\..\..\arduinoLCD\test\Pain Drain\libraries\lvgl\src\widgets\../core/lv_obj_style_gen.h ****     return (lv_coord_t)v.num;
 137:..\..\..\arduinoLCD\test\Pain Drain\libraries\lvgl\src\widgets\../core/lv_obj_style_gen.h **** }
 138:..\..\..\arduinoLCD\test\Pain Drain\libraries\lvgl\src\widgets\../core/lv_obj_style_gen.h **** 
 139:..\..\..\arduinoLCD\test\Pain Drain\libraries\lvgl\src\widgets\../core/lv_obj_style_gen.h **** static inline lv_color_t lv_obj_get_style_bg_color(const struct _lv_obj_t * obj, uint32_t part)
 140:..\..\..\arduinoLCD\test\Pain Drain\libraries\lvgl\src\widgets\../core/lv_obj_style_gen.h **** {
 141:..\..\..\arduinoLCD\test\Pain Drain\libraries\lvgl\src\widgets\../core/lv_obj_style_gen.h ****     lv_style_value_t v = lv_obj_get_style_prop(obj, part, LV_STYLE_BG_COLOR);
 142:..\..\..\arduinoLCD\test\Pain Drain\libraries\lvgl\src\widgets\../core/lv_obj_style_gen.h ****     return v.color;
 143:..\..\..\arduinoLCD\test\Pain Drain\libraries\lvgl\src\widgets\../core/lv_obj_style_gen.h **** }
ARM GAS  C:\Users\haske\AppData\Local\Temp\ccmHbbn5.s 			page 25


 144:..\..\..\arduinoLCD\test\Pain Drain\libraries\lvgl\src\widgets\../core/lv_obj_style_gen.h **** 
 145:..\..\..\arduinoLCD\test\Pain Drain\libraries\lvgl\src\widgets\../core/lv_obj_style_gen.h **** static inline lv_color_t lv_obj_get_style_bg_color_filtered(const struct _lv_obj_t * obj, uint32_t 
 146:..\..\..\arduinoLCD\test\Pain Drain\libraries\lvgl\src\widgets\../core/lv_obj_style_gen.h **** {
 147:..\..\..\arduinoLCD\test\Pain Drain\libraries\lvgl\src\widgets\../core/lv_obj_style_gen.h ****     lv_style_value_t v = _lv_obj_style_apply_color_filter(obj, part, lv_obj_get_style_prop(obj, par
 148:..\..\..\arduinoLCD\test\Pain Drain\libraries\lvgl\src\widgets\../core/lv_obj_style_gen.h ****     return v.color;
 149:..\..\..\arduinoLCD\test\Pain Drain\libraries\lvgl\src\widgets\../core/lv_obj_style_gen.h **** }
 150:..\..\..\arduinoLCD\test\Pain Drain\libraries\lvgl\src\widgets\../core/lv_obj_style_gen.h **** 
 151:..\..\..\arduinoLCD\test\Pain Drain\libraries\lvgl\src\widgets\../core/lv_obj_style_gen.h **** static inline lv_opa_t lv_obj_get_style_bg_opa(const struct _lv_obj_t * obj, uint32_t part)
 152:..\..\..\arduinoLCD\test\Pain Drain\libraries\lvgl\src\widgets\../core/lv_obj_style_gen.h **** {
 153:..\..\..\arduinoLCD\test\Pain Drain\libraries\lvgl\src\widgets\../core/lv_obj_style_gen.h ****     lv_style_value_t v = lv_obj_get_style_prop(obj, part, LV_STYLE_BG_OPA);
 154:..\..\..\arduinoLCD\test\Pain Drain\libraries\lvgl\src\widgets\../core/lv_obj_style_gen.h ****     return (lv_opa_t)v.num;
 155:..\..\..\arduinoLCD\test\Pain Drain\libraries\lvgl\src\widgets\../core/lv_obj_style_gen.h **** }
 156:..\..\..\arduinoLCD\test\Pain Drain\libraries\lvgl\src\widgets\../core/lv_obj_style_gen.h **** 
 157:..\..\..\arduinoLCD\test\Pain Drain\libraries\lvgl\src\widgets\../core/lv_obj_style_gen.h **** static inline lv_color_t lv_obj_get_style_bg_grad_color(const struct _lv_obj_t * obj, uint32_t part
 158:..\..\..\arduinoLCD\test\Pain Drain\libraries\lvgl\src\widgets\../core/lv_obj_style_gen.h **** {
 159:..\..\..\arduinoLCD\test\Pain Drain\libraries\lvgl\src\widgets\../core/lv_obj_style_gen.h ****     lv_style_value_t v = lv_obj_get_style_prop(obj, part, LV_STYLE_BG_GRAD_COLOR);
 160:..\..\..\arduinoLCD\test\Pain Drain\libraries\lvgl\src\widgets\../core/lv_obj_style_gen.h ****     return v.color;
 161:..\..\..\arduinoLCD\test\Pain Drain\libraries\lvgl\src\widgets\../core/lv_obj_style_gen.h **** }
 162:..\..\..\arduinoLCD\test\Pain Drain\libraries\lvgl\src\widgets\../core/lv_obj_style_gen.h **** 
 163:..\..\..\arduinoLCD\test\Pain Drain\libraries\lvgl\src\widgets\../core/lv_obj_style_gen.h **** static inline lv_color_t lv_obj_get_style_bg_grad_color_filtered(const struct _lv_obj_t * obj, uint
 164:..\..\..\arduinoLCD\test\Pain Drain\libraries\lvgl\src\widgets\../core/lv_obj_style_gen.h **** {
 165:..\..\..\arduinoLCD\test\Pain Drain\libraries\lvgl\src\widgets\../core/lv_obj_style_gen.h ****     lv_style_value_t v = _lv_obj_style_apply_color_filter(obj, part, lv_obj_get_style_prop(obj, par
 166:..\..\..\arduinoLCD\test\Pain Drain\libraries\lvgl\src\widgets\../core/lv_obj_style_gen.h ****     return v.color;
 167:..\..\..\arduinoLCD\test\Pain Drain\libraries\lvgl\src\widgets\../core/lv_obj_style_gen.h **** }
 168:..\..\..\arduinoLCD\test\Pain Drain\libraries\lvgl\src\widgets\../core/lv_obj_style_gen.h **** 
 169:..\..\..\arduinoLCD\test\Pain Drain\libraries\lvgl\src\widgets\../core/lv_obj_style_gen.h **** static inline lv_grad_dir_t lv_obj_get_style_bg_grad_dir(const struct _lv_obj_t * obj, uint32_t par
 170:..\..\..\arduinoLCD\test\Pain Drain\libraries\lvgl\src\widgets\../core/lv_obj_style_gen.h **** {
 171:..\..\..\arduinoLCD\test\Pain Drain\libraries\lvgl\src\widgets\../core/lv_obj_style_gen.h ****     lv_style_value_t v = lv_obj_get_style_prop(obj, part, LV_STYLE_BG_GRAD_DIR);
 172:..\..\..\arduinoLCD\test\Pain Drain\libraries\lvgl\src\widgets\../core/lv_obj_style_gen.h ****     return (lv_grad_dir_t)v.num;
 173:..\..\..\arduinoLCD\test\Pain Drain\libraries\lvgl\src\widgets\../core/lv_obj_style_gen.h **** }
 174:..\..\..\arduinoLCD\test\Pain Drain\libraries\lvgl\src\widgets\../core/lv_obj_style_gen.h **** 
 175:..\..\..\arduinoLCD\test\Pain Drain\libraries\lvgl\src\widgets\../core/lv_obj_style_gen.h **** static inline lv_coord_t lv_obj_get_style_bg_main_stop(const struct _lv_obj_t * obj, uint32_t part)
 176:..\..\..\arduinoLCD\test\Pain Drain\libraries\lvgl\src\widgets\../core/lv_obj_style_gen.h **** {
 177:..\..\..\arduinoLCD\test\Pain Drain\libraries\lvgl\src\widgets\../core/lv_obj_style_gen.h ****     lv_style_value_t v = lv_obj_get_style_prop(obj, part, LV_STYLE_BG_MAIN_STOP);
 178:..\..\..\arduinoLCD\test\Pain Drain\libraries\lvgl\src\widgets\../core/lv_obj_style_gen.h ****     return (lv_coord_t)v.num;
 179:..\..\..\arduinoLCD\test\Pain Drain\libraries\lvgl\src\widgets\../core/lv_obj_style_gen.h **** }
 180:..\..\..\arduinoLCD\test\Pain Drain\libraries\lvgl\src\widgets\../core/lv_obj_style_gen.h **** 
 181:..\..\..\arduinoLCD\test\Pain Drain\libraries\lvgl\src\widgets\../core/lv_obj_style_gen.h **** static inline lv_coord_t lv_obj_get_style_bg_grad_stop(const struct _lv_obj_t * obj, uint32_t part)
 182:..\..\..\arduinoLCD\test\Pain Drain\libraries\lvgl\src\widgets\../core/lv_obj_style_gen.h **** {
 183:..\..\..\arduinoLCD\test\Pain Drain\libraries\lvgl\src\widgets\../core/lv_obj_style_gen.h ****     lv_style_value_t v = lv_obj_get_style_prop(obj, part, LV_STYLE_BG_GRAD_STOP);
 184:..\..\..\arduinoLCD\test\Pain Drain\libraries\lvgl\src\widgets\../core/lv_obj_style_gen.h ****     return (lv_coord_t)v.num;
 185:..\..\..\arduinoLCD\test\Pain Drain\libraries\lvgl\src\widgets\../core/lv_obj_style_gen.h **** }
 186:..\..\..\arduinoLCD\test\Pain Drain\libraries\lvgl\src\widgets\../core/lv_obj_style_gen.h **** 
 187:..\..\..\arduinoLCD\test\Pain Drain\libraries\lvgl\src\widgets\../core/lv_obj_style_gen.h **** static inline const lv_grad_dsc_t * lv_obj_get_style_bg_grad(const struct _lv_obj_t * obj, uint32_t
 188:..\..\..\arduinoLCD\test\Pain Drain\libraries\lvgl\src\widgets\../core/lv_obj_style_gen.h **** {
 189:..\..\..\arduinoLCD\test\Pain Drain\libraries\lvgl\src\widgets\../core/lv_obj_style_gen.h ****     lv_style_value_t v = lv_obj_get_style_prop(obj, part, LV_STYLE_BG_GRAD);
 190:..\..\..\arduinoLCD\test\Pain Drain\libraries\lvgl\src\widgets\../core/lv_obj_style_gen.h ****     return (const lv_grad_dsc_t *)v.ptr;
 191:..\..\..\arduinoLCD\test\Pain Drain\libraries\lvgl\src\widgets\../core/lv_obj_style_gen.h **** }
 192:..\..\..\arduinoLCD\test\Pain Drain\libraries\lvgl\src\widgets\../core/lv_obj_style_gen.h **** 
 193:..\..\..\arduinoLCD\test\Pain Drain\libraries\lvgl\src\widgets\../core/lv_obj_style_gen.h **** static inline lv_dither_mode_t lv_obj_get_style_bg_dither_mode(const struct _lv_obj_t * obj, uint32
 194:..\..\..\arduinoLCD\test\Pain Drain\libraries\lvgl\src\widgets\../core/lv_obj_style_gen.h **** {
 195:..\..\..\arduinoLCD\test\Pain Drain\libraries\lvgl\src\widgets\../core/lv_obj_style_gen.h ****     lv_style_value_t v = lv_obj_get_style_prop(obj, part, LV_STYLE_BG_DITHER_MODE);
 196:..\..\..\arduinoLCD\test\Pain Drain\libraries\lvgl\src\widgets\../core/lv_obj_style_gen.h ****     return (lv_dither_mode_t)v.num;
 197:..\..\..\arduinoLCD\test\Pain Drain\libraries\lvgl\src\widgets\../core/lv_obj_style_gen.h **** }
 198:..\..\..\arduinoLCD\test\Pain Drain\libraries\lvgl\src\widgets\../core/lv_obj_style_gen.h **** 
 199:..\..\..\arduinoLCD\test\Pain Drain\libraries\lvgl\src\widgets\../core/lv_obj_style_gen.h **** static inline const void * lv_obj_get_style_bg_img_src(const struct _lv_obj_t * obj, uint32_t part)
 200:..\..\..\arduinoLCD\test\Pain Drain\libraries\lvgl\src\widgets\../core/lv_obj_style_gen.h **** {
ARM GAS  C:\Users\haske\AppData\Local\Temp\ccmHbbn5.s 			page 26


 201:..\..\..\arduinoLCD\test\Pain Drain\libraries\lvgl\src\widgets\../core/lv_obj_style_gen.h ****     lv_style_value_t v = lv_obj_get_style_prop(obj, part, LV_STYLE_BG_IMG_SRC);
 202:..\..\..\arduinoLCD\test\Pain Drain\libraries\lvgl\src\widgets\../core/lv_obj_style_gen.h ****     return (const void *)v.ptr;
 203:..\..\..\arduinoLCD\test\Pain Drain\libraries\lvgl\src\widgets\../core/lv_obj_style_gen.h **** }
 204:..\..\..\arduinoLCD\test\Pain Drain\libraries\lvgl\src\widgets\../core/lv_obj_style_gen.h **** 
 205:..\..\..\arduinoLCD\test\Pain Drain\libraries\lvgl\src\widgets\../core/lv_obj_style_gen.h **** static inline lv_opa_t lv_obj_get_style_bg_img_opa(const struct _lv_obj_t * obj, uint32_t part)
 206:..\..\..\arduinoLCD\test\Pain Drain\libraries\lvgl\src\widgets\../core/lv_obj_style_gen.h **** {
 207:..\..\..\arduinoLCD\test\Pain Drain\libraries\lvgl\src\widgets\../core/lv_obj_style_gen.h ****     lv_style_value_t v = lv_obj_get_style_prop(obj, part, LV_STYLE_BG_IMG_OPA);
 208:..\..\..\arduinoLCD\test\Pain Drain\libraries\lvgl\src\widgets\../core/lv_obj_style_gen.h ****     return (lv_opa_t)v.num;
 209:..\..\..\arduinoLCD\test\Pain Drain\libraries\lvgl\src\widgets\../core/lv_obj_style_gen.h **** }
 210:..\..\..\arduinoLCD\test\Pain Drain\libraries\lvgl\src\widgets\../core/lv_obj_style_gen.h **** 
 211:..\..\..\arduinoLCD\test\Pain Drain\libraries\lvgl\src\widgets\../core/lv_obj_style_gen.h **** static inline lv_color_t lv_obj_get_style_bg_img_recolor(const struct _lv_obj_t * obj, uint32_t par
 212:..\..\..\arduinoLCD\test\Pain Drain\libraries\lvgl\src\widgets\../core/lv_obj_style_gen.h **** {
 213:..\..\..\arduinoLCD\test\Pain Drain\libraries\lvgl\src\widgets\../core/lv_obj_style_gen.h ****     lv_style_value_t v = lv_obj_get_style_prop(obj, part, LV_STYLE_BG_IMG_RECOLOR);
 214:..\..\..\arduinoLCD\test\Pain Drain\libraries\lvgl\src\widgets\../core/lv_obj_style_gen.h ****     return v.color;
 215:..\..\..\arduinoLCD\test\Pain Drain\libraries\lvgl\src\widgets\../core/lv_obj_style_gen.h **** }
 216:..\..\..\arduinoLCD\test\Pain Drain\libraries\lvgl\src\widgets\../core/lv_obj_style_gen.h **** 
 217:..\..\..\arduinoLCD\test\Pain Drain\libraries\lvgl\src\widgets\../core/lv_obj_style_gen.h **** static inline lv_color_t lv_obj_get_style_bg_img_recolor_filtered(const struct _lv_obj_t * obj, uin
 218:..\..\..\arduinoLCD\test\Pain Drain\libraries\lvgl\src\widgets\../core/lv_obj_style_gen.h **** {
 219:..\..\..\arduinoLCD\test\Pain Drain\libraries\lvgl\src\widgets\../core/lv_obj_style_gen.h ****     lv_style_value_t v = _lv_obj_style_apply_color_filter(obj, part, lv_obj_get_style_prop(obj, par
 220:..\..\..\arduinoLCD\test\Pain Drain\libraries\lvgl\src\widgets\../core/lv_obj_style_gen.h ****     return v.color;
 221:..\..\..\arduinoLCD\test\Pain Drain\libraries\lvgl\src\widgets\../core/lv_obj_style_gen.h **** }
 222:..\..\..\arduinoLCD\test\Pain Drain\libraries\lvgl\src\widgets\../core/lv_obj_style_gen.h **** 
 223:..\..\..\arduinoLCD\test\Pain Drain\libraries\lvgl\src\widgets\../core/lv_obj_style_gen.h **** static inline lv_opa_t lv_obj_get_style_bg_img_recolor_opa(const struct _lv_obj_t * obj, uint32_t p
 224:..\..\..\arduinoLCD\test\Pain Drain\libraries\lvgl\src\widgets\../core/lv_obj_style_gen.h **** {
 225:..\..\..\arduinoLCD\test\Pain Drain\libraries\lvgl\src\widgets\../core/lv_obj_style_gen.h ****     lv_style_value_t v = lv_obj_get_style_prop(obj, part, LV_STYLE_BG_IMG_RECOLOR_OPA);
 226:..\..\..\arduinoLCD\test\Pain Drain\libraries\lvgl\src\widgets\../core/lv_obj_style_gen.h ****     return (lv_opa_t)v.num;
 227:..\..\..\arduinoLCD\test\Pain Drain\libraries\lvgl\src\widgets\../core/lv_obj_style_gen.h **** }
 228:..\..\..\arduinoLCD\test\Pain Drain\libraries\lvgl\src\widgets\../core/lv_obj_style_gen.h **** 
 229:..\..\..\arduinoLCD\test\Pain Drain\libraries\lvgl\src\widgets\../core/lv_obj_style_gen.h **** static inline bool lv_obj_get_style_bg_img_tiled(const struct _lv_obj_t * obj, uint32_t part)
 230:..\..\..\arduinoLCD\test\Pain Drain\libraries\lvgl\src\widgets\../core/lv_obj_style_gen.h **** {
 231:..\..\..\arduinoLCD\test\Pain Drain\libraries\lvgl\src\widgets\../core/lv_obj_style_gen.h ****     lv_style_value_t v = lv_obj_get_style_prop(obj, part, LV_STYLE_BG_IMG_TILED);
 232:..\..\..\arduinoLCD\test\Pain Drain\libraries\lvgl\src\widgets\../core/lv_obj_style_gen.h ****     return (bool)v.num;
 233:..\..\..\arduinoLCD\test\Pain Drain\libraries\lvgl\src\widgets\../core/lv_obj_style_gen.h **** }
 234:..\..\..\arduinoLCD\test\Pain Drain\libraries\lvgl\src\widgets\../core/lv_obj_style_gen.h **** 
 235:..\..\..\arduinoLCD\test\Pain Drain\libraries\lvgl\src\widgets\../core/lv_obj_style_gen.h **** static inline lv_color_t lv_obj_get_style_border_color(const struct _lv_obj_t * obj, uint32_t part)
 236:..\..\..\arduinoLCD\test\Pain Drain\libraries\lvgl\src\widgets\../core/lv_obj_style_gen.h **** {
 237:..\..\..\arduinoLCD\test\Pain Drain\libraries\lvgl\src\widgets\../core/lv_obj_style_gen.h ****     lv_style_value_t v = lv_obj_get_style_prop(obj, part, LV_STYLE_BORDER_COLOR);
 238:..\..\..\arduinoLCD\test\Pain Drain\libraries\lvgl\src\widgets\../core/lv_obj_style_gen.h ****     return v.color;
 239:..\..\..\arduinoLCD\test\Pain Drain\libraries\lvgl\src\widgets\../core/lv_obj_style_gen.h **** }
 240:..\..\..\arduinoLCD\test\Pain Drain\libraries\lvgl\src\widgets\../core/lv_obj_style_gen.h **** 
 241:..\..\..\arduinoLCD\test\Pain Drain\libraries\lvgl\src\widgets\../core/lv_obj_style_gen.h **** static inline lv_color_t lv_obj_get_style_border_color_filtered(const struct _lv_obj_t * obj, uint3
 242:..\..\..\arduinoLCD\test\Pain Drain\libraries\lvgl\src\widgets\../core/lv_obj_style_gen.h **** {
 243:..\..\..\arduinoLCD\test\Pain Drain\libraries\lvgl\src\widgets\../core/lv_obj_style_gen.h ****     lv_style_value_t v = _lv_obj_style_apply_color_filter(obj, part, lv_obj_get_style_prop(obj, par
 244:..\..\..\arduinoLCD\test\Pain Drain\libraries\lvgl\src\widgets\../core/lv_obj_style_gen.h ****     return v.color;
 245:..\..\..\arduinoLCD\test\Pain Drain\libraries\lvgl\src\widgets\../core/lv_obj_style_gen.h **** }
 246:..\..\..\arduinoLCD\test\Pain Drain\libraries\lvgl\src\widgets\../core/lv_obj_style_gen.h **** 
 247:..\..\..\arduinoLCD\test\Pain Drain\libraries\lvgl\src\widgets\../core/lv_obj_style_gen.h **** static inline lv_opa_t lv_obj_get_style_border_opa(const struct _lv_obj_t * obj, uint32_t part)
 248:..\..\..\arduinoLCD\test\Pain Drain\libraries\lvgl\src\widgets\../core/lv_obj_style_gen.h **** {
 249:..\..\..\arduinoLCD\test\Pain Drain\libraries\lvgl\src\widgets\../core/lv_obj_style_gen.h ****     lv_style_value_t v = lv_obj_get_style_prop(obj, part, LV_STYLE_BORDER_OPA);
 250:..\..\..\arduinoLCD\test\Pain Drain\libraries\lvgl\src\widgets\../core/lv_obj_style_gen.h ****     return (lv_opa_t)v.num;
 251:..\..\..\arduinoLCD\test\Pain Drain\libraries\lvgl\src\widgets\../core/lv_obj_style_gen.h **** }
 252:..\..\..\arduinoLCD\test\Pain Drain\libraries\lvgl\src\widgets\../core/lv_obj_style_gen.h **** 
 253:..\..\..\arduinoLCD\test\Pain Drain\libraries\lvgl\src\widgets\../core/lv_obj_style_gen.h **** static inline lv_coord_t lv_obj_get_style_border_width(const struct _lv_obj_t * obj, uint32_t part)
 254:..\..\..\arduinoLCD\test\Pain Drain\libraries\lvgl\src\widgets\../core/lv_obj_style_gen.h **** {
 255:..\..\..\arduinoLCD\test\Pain Drain\libraries\lvgl\src\widgets\../core/lv_obj_style_gen.h ****     lv_style_value_t v = lv_obj_get_style_prop(obj, part, LV_STYLE_BORDER_WIDTH);
 256:..\..\..\arduinoLCD\test\Pain Drain\libraries\lvgl\src\widgets\../core/lv_obj_style_gen.h ****     return (lv_coord_t)v.num;
 257:..\..\..\arduinoLCD\test\Pain Drain\libraries\lvgl\src\widgets\../core/lv_obj_style_gen.h **** }
ARM GAS  C:\Users\haske\AppData\Local\Temp\ccmHbbn5.s 			page 27


 258:..\..\..\arduinoLCD\test\Pain Drain\libraries\lvgl\src\widgets\../core/lv_obj_style_gen.h **** 
 259:..\..\..\arduinoLCD\test\Pain Drain\libraries\lvgl\src\widgets\../core/lv_obj_style_gen.h **** static inline lv_border_side_t lv_obj_get_style_border_side(const struct _lv_obj_t * obj, uint32_t 
 260:..\..\..\arduinoLCD\test\Pain Drain\libraries\lvgl\src\widgets\../core/lv_obj_style_gen.h **** {
 261:..\..\..\arduinoLCD\test\Pain Drain\libraries\lvgl\src\widgets\../core/lv_obj_style_gen.h ****     lv_style_value_t v = lv_obj_get_style_prop(obj, part, LV_STYLE_BORDER_SIDE);
 262:..\..\..\arduinoLCD\test\Pain Drain\libraries\lvgl\src\widgets\../core/lv_obj_style_gen.h ****     return (lv_border_side_t)v.num;
 263:..\..\..\arduinoLCD\test\Pain Drain\libraries\lvgl\src\widgets\../core/lv_obj_style_gen.h **** }
 264:..\..\..\arduinoLCD\test\Pain Drain\libraries\lvgl\src\widgets\../core/lv_obj_style_gen.h **** 
 265:..\..\..\arduinoLCD\test\Pain Drain\libraries\lvgl\src\widgets\../core/lv_obj_style_gen.h **** static inline bool lv_obj_get_style_border_post(const struct _lv_obj_t * obj, uint32_t part)
 266:..\..\..\arduinoLCD\test\Pain Drain\libraries\lvgl\src\widgets\../core/lv_obj_style_gen.h **** {
 267:..\..\..\arduinoLCD\test\Pain Drain\libraries\lvgl\src\widgets\../core/lv_obj_style_gen.h ****     lv_style_value_t v = lv_obj_get_style_prop(obj, part, LV_STYLE_BORDER_POST);
 268:..\..\..\arduinoLCD\test\Pain Drain\libraries\lvgl\src\widgets\../core/lv_obj_style_gen.h ****     return (bool)v.num;
 269:..\..\..\arduinoLCD\test\Pain Drain\libraries\lvgl\src\widgets\../core/lv_obj_style_gen.h **** }
 270:..\..\..\arduinoLCD\test\Pain Drain\libraries\lvgl\src\widgets\../core/lv_obj_style_gen.h **** 
 271:..\..\..\arduinoLCD\test\Pain Drain\libraries\lvgl\src\widgets\../core/lv_obj_style_gen.h **** static inline lv_coord_t lv_obj_get_style_outline_width(const struct _lv_obj_t * obj, uint32_t part
 272:..\..\..\arduinoLCD\test\Pain Drain\libraries\lvgl\src\widgets\../core/lv_obj_style_gen.h **** {
 273:..\..\..\arduinoLCD\test\Pain Drain\libraries\lvgl\src\widgets\../core/lv_obj_style_gen.h ****     lv_style_value_t v = lv_obj_get_style_prop(obj, part, LV_STYLE_OUTLINE_WIDTH);
 274:..\..\..\arduinoLCD\test\Pain Drain\libraries\lvgl\src\widgets\../core/lv_obj_style_gen.h ****     return (lv_coord_t)v.num;
 275:..\..\..\arduinoLCD\test\Pain Drain\libraries\lvgl\src\widgets\../core/lv_obj_style_gen.h **** }
 276:..\..\..\arduinoLCD\test\Pain Drain\libraries\lvgl\src\widgets\../core/lv_obj_style_gen.h **** 
 277:..\..\..\arduinoLCD\test\Pain Drain\libraries\lvgl\src\widgets\../core/lv_obj_style_gen.h **** static inline lv_color_t lv_obj_get_style_outline_color(const struct _lv_obj_t * obj, uint32_t part
 278:..\..\..\arduinoLCD\test\Pain Drain\libraries\lvgl\src\widgets\../core/lv_obj_style_gen.h **** {
 279:..\..\..\arduinoLCD\test\Pain Drain\libraries\lvgl\src\widgets\../core/lv_obj_style_gen.h ****     lv_style_value_t v = lv_obj_get_style_prop(obj, part, LV_STYLE_OUTLINE_COLOR);
 280:..\..\..\arduinoLCD\test\Pain Drain\libraries\lvgl\src\widgets\../core/lv_obj_style_gen.h ****     return v.color;
 281:..\..\..\arduinoLCD\test\Pain Drain\libraries\lvgl\src\widgets\../core/lv_obj_style_gen.h **** }
 282:..\..\..\arduinoLCD\test\Pain Drain\libraries\lvgl\src\widgets\../core/lv_obj_style_gen.h **** 
 283:..\..\..\arduinoLCD\test\Pain Drain\libraries\lvgl\src\widgets\../core/lv_obj_style_gen.h **** static inline lv_color_t lv_obj_get_style_outline_color_filtered(const struct _lv_obj_t * obj, uint
 284:..\..\..\arduinoLCD\test\Pain Drain\libraries\lvgl\src\widgets\../core/lv_obj_style_gen.h **** {
 285:..\..\..\arduinoLCD\test\Pain Drain\libraries\lvgl\src\widgets\../core/lv_obj_style_gen.h ****     lv_style_value_t v = _lv_obj_style_apply_color_filter(obj, part, lv_obj_get_style_prop(obj, par
 286:..\..\..\arduinoLCD\test\Pain Drain\libraries\lvgl\src\widgets\../core/lv_obj_style_gen.h ****     return v.color;
 287:..\..\..\arduinoLCD\test\Pain Drain\libraries\lvgl\src\widgets\../core/lv_obj_style_gen.h **** }
 288:..\..\..\arduinoLCD\test\Pain Drain\libraries\lvgl\src\widgets\../core/lv_obj_style_gen.h **** 
 289:..\..\..\arduinoLCD\test\Pain Drain\libraries\lvgl\src\widgets\../core/lv_obj_style_gen.h **** static inline lv_opa_t lv_obj_get_style_outline_opa(const struct _lv_obj_t * obj, uint32_t part)
 290:..\..\..\arduinoLCD\test\Pain Drain\libraries\lvgl\src\widgets\../core/lv_obj_style_gen.h **** {
 291:..\..\..\arduinoLCD\test\Pain Drain\libraries\lvgl\src\widgets\../core/lv_obj_style_gen.h ****     lv_style_value_t v = lv_obj_get_style_prop(obj, part, LV_STYLE_OUTLINE_OPA);
 292:..\..\..\arduinoLCD\test\Pain Drain\libraries\lvgl\src\widgets\../core/lv_obj_style_gen.h ****     return (lv_opa_t)v.num;
 293:..\..\..\arduinoLCD\test\Pain Drain\libraries\lvgl\src\widgets\../core/lv_obj_style_gen.h **** }
 294:..\..\..\arduinoLCD\test\Pain Drain\libraries\lvgl\src\widgets\../core/lv_obj_style_gen.h **** 
 295:..\..\..\arduinoLCD\test\Pain Drain\libraries\lvgl\src\widgets\../core/lv_obj_style_gen.h **** static inline lv_coord_t lv_obj_get_style_outline_pad(const struct _lv_obj_t * obj, uint32_t part)
 296:..\..\..\arduinoLCD\test\Pain Drain\libraries\lvgl\src\widgets\../core/lv_obj_style_gen.h **** {
 297:..\..\..\arduinoLCD\test\Pain Drain\libraries\lvgl\src\widgets\../core/lv_obj_style_gen.h ****     lv_style_value_t v = lv_obj_get_style_prop(obj, part, LV_STYLE_OUTLINE_PAD);
 298:..\..\..\arduinoLCD\test\Pain Drain\libraries\lvgl\src\widgets\../core/lv_obj_style_gen.h ****     return (lv_coord_t)v.num;
 299:..\..\..\arduinoLCD\test\Pain Drain\libraries\lvgl\src\widgets\../core/lv_obj_style_gen.h **** }
 300:..\..\..\arduinoLCD\test\Pain Drain\libraries\lvgl\src\widgets\../core/lv_obj_style_gen.h **** 
 301:..\..\..\arduinoLCD\test\Pain Drain\libraries\lvgl\src\widgets\../core/lv_obj_style_gen.h **** static inline lv_coord_t lv_obj_get_style_shadow_width(const struct _lv_obj_t * obj, uint32_t part)
 302:..\..\..\arduinoLCD\test\Pain Drain\libraries\lvgl\src\widgets\../core/lv_obj_style_gen.h **** {
 303:..\..\..\arduinoLCD\test\Pain Drain\libraries\lvgl\src\widgets\../core/lv_obj_style_gen.h ****     lv_style_value_t v = lv_obj_get_style_prop(obj, part, LV_STYLE_SHADOW_WIDTH);
 352              		.loc 2 303 0
 353 0004 C027     		movs	r7, #192
 354 0006 BF02     		lsls	r7, r7, #10
 355 0008 4022     		movs	r2, #64
 356 000a 3900     		movs	r1, r7
 357 000c FFF7FEFF 		bl	lv_obj_get_style_prop
 358              	.LVL49:
 359              	.LBE92:
 360              	.LBE91:
 858:..\..\..\arduinoLCD\test\Pain Drain\libraries\lvgl\src\widgets/lv_arc.c ****     lv_coord_t knob_shadow_size = 0;
 859:..\..\..\arduinoLCD\test\Pain Drain\libraries\lvgl\src\widgets/lv_arc.c ****     knob_shadow_size += lv_obj_get_style_shadow_width(obj, LV_PART_KNOB);
ARM GAS  C:\Users\haske\AppData\Local\Temp\ccmHbbn5.s 			page 28


 361              		.loc 1 859 0
 362 0010 86B2     		uxth	r6, r0
 363              	.LVL50:
 364              	.LBB93:
 365              	.LBB94:
 304:..\..\..\arduinoLCD\test\Pain Drain\libraries\lvgl\src\widgets\../core/lv_obj_style_gen.h ****     return (lv_coord_t)v.num;
 305:..\..\..\arduinoLCD\test\Pain Drain\libraries\lvgl\src\widgets\../core/lv_obj_style_gen.h **** }
 306:..\..\..\arduinoLCD\test\Pain Drain\libraries\lvgl\src\widgets\../core/lv_obj_style_gen.h **** 
 307:..\..\..\arduinoLCD\test\Pain Drain\libraries\lvgl\src\widgets\../core/lv_obj_style_gen.h **** static inline lv_coord_t lv_obj_get_style_shadow_ofs_x(const struct _lv_obj_t * obj, uint32_t part)
 308:..\..\..\arduinoLCD\test\Pain Drain\libraries\lvgl\src\widgets\../core/lv_obj_style_gen.h **** {
 309:..\..\..\arduinoLCD\test\Pain Drain\libraries\lvgl\src\widgets\../core/lv_obj_style_gen.h ****     lv_style_value_t v = lv_obj_get_style_prop(obj, part, LV_STYLE_SHADOW_OFS_X);
 310:..\..\..\arduinoLCD\test\Pain Drain\libraries\lvgl\src\widgets\../core/lv_obj_style_gen.h ****     return (lv_coord_t)v.num;
 311:..\..\..\arduinoLCD\test\Pain Drain\libraries\lvgl\src\widgets\../core/lv_obj_style_gen.h **** }
 312:..\..\..\arduinoLCD\test\Pain Drain\libraries\lvgl\src\widgets\../core/lv_obj_style_gen.h **** 
 313:..\..\..\arduinoLCD\test\Pain Drain\libraries\lvgl\src\widgets\../core/lv_obj_style_gen.h **** static inline lv_coord_t lv_obj_get_style_shadow_ofs_y(const struct _lv_obj_t * obj, uint32_t part)
 314:..\..\..\arduinoLCD\test\Pain Drain\libraries\lvgl\src\widgets\../core/lv_obj_style_gen.h **** {
 315:..\..\..\arduinoLCD\test\Pain Drain\libraries\lvgl\src\widgets\../core/lv_obj_style_gen.h ****     lv_style_value_t v = lv_obj_get_style_prop(obj, part, LV_STYLE_SHADOW_OFS_Y);
 316:..\..\..\arduinoLCD\test\Pain Drain\libraries\lvgl\src\widgets\../core/lv_obj_style_gen.h ****     return (lv_coord_t)v.num;
 317:..\..\..\arduinoLCD\test\Pain Drain\libraries\lvgl\src\widgets\../core/lv_obj_style_gen.h **** }
 318:..\..\..\arduinoLCD\test\Pain Drain\libraries\lvgl\src\widgets\../core/lv_obj_style_gen.h **** 
 319:..\..\..\arduinoLCD\test\Pain Drain\libraries\lvgl\src\widgets\../core/lv_obj_style_gen.h **** static inline lv_coord_t lv_obj_get_style_shadow_spread(const struct _lv_obj_t * obj, uint32_t part
 320:..\..\..\arduinoLCD\test\Pain Drain\libraries\lvgl\src\widgets\../core/lv_obj_style_gen.h **** {
 321:..\..\..\arduinoLCD\test\Pain Drain\libraries\lvgl\src\widgets\../core/lv_obj_style_gen.h ****     lv_style_value_t v = lv_obj_get_style_prop(obj, part, LV_STYLE_SHADOW_SPREAD);
 366              		.loc 2 321 0
 367 0012 4322     		movs	r2, #67
 368 0014 3900     		movs	r1, r7
 369 0016 2800     		movs	r0, r5
 370              	.LVL51:
 371 0018 FFF7FEFF 		bl	lv_obj_get_style_prop
 372              	.LVL52:
 373              	.LBE94:
 374              	.LBE93:
 860:..\..\..\arduinoLCD\test\Pain Drain\libraries\lvgl\src\widgets/lv_arc.c ****     knob_shadow_size += lv_obj_get_style_shadow_spread(obj, LV_PART_KNOB);
 375              		.loc 1 860 0
 376 001c 3018     		adds	r0, r6, r0
 377              	.LVL53:
 378 001e 86B2     		uxth	r6, r0
 379              	.LVL54:
 380              	.LBB95:
 381              	.LBB96:
 309:..\..\..\arduinoLCD\test\Pain Drain\libraries\lvgl\src\widgets\../core/lv_obj_style_gen.h ****     return (lv_coord_t)v.num;
 382              		.loc 2 309 0
 383 0020 4122     		movs	r2, #65
 384 0022 3900     		movs	r1, r7
 385 0024 2800     		movs	r0, r5
 386 0026 FFF7FEFF 		bl	lv_obj_get_style_prop
 387              	.LVL55:
 310:..\..\..\arduinoLCD\test\Pain Drain\libraries\lvgl\src\widgets\../core/lv_obj_style_gen.h **** }
 388              		.loc 2 310 0
 389 002a 00B2     		sxth	r0, r0
 390              	.LVL56:
 391              	.LBE96:
 392              	.LBE95:
 861:..\..\..\arduinoLCD\test\Pain Drain\libraries\lvgl\src\widgets/lv_arc.c ****     knob_shadow_size += LV_ABS(lv_obj_get_style_shadow_ofs_x(obj, LV_PART_KNOB));
 393              		.loc 1 861 0
 394 002c 0028     		cmp	r0, #0
 395 002e 06DD     		ble	.L14
ARM GAS  C:\Users\haske\AppData\Local\Temp\ccmHbbn5.s 			page 29


 396              	.LVL57:
 397              	.LBB97:
 398              	.LBB98:
 309:..\..\..\arduinoLCD\test\Pain Drain\libraries\lvgl\src\widgets\../core/lv_obj_style_gen.h ****     return (lv_coord_t)v.num;
 399              		.loc 2 309 0
 400 0030 4122     		movs	r2, #65
 401 0032 3900     		movs	r1, r7
 402 0034 2800     		movs	r0, r5
 403 0036 FFF7FEFF 		bl	lv_obj_get_style_prop
 404              	.LVL58:
 405              	.LBE98:
 406              	.LBE97:
 407              		.loc 1 861 0
 408 003a 00B2     		sxth	r0, r0
 409 003c 07E0     		b	.L15
 410              	.L14:
 411              	.LVL59:
 412              	.LBB99:
 413              	.LBB100:
 309:..\..\..\arduinoLCD\test\Pain Drain\libraries\lvgl\src\widgets\../core/lv_obj_style_gen.h ****     return (lv_coord_t)v.num;
 414              		.loc 2 309 0
 415 003e 4122     		movs	r2, #65
 416 0040 C021     		movs	r1, #192
 417 0042 8902     		lsls	r1, r1, #10
 418 0044 2800     		movs	r0, r5
 419 0046 FFF7FEFF 		bl	lv_obj_get_style_prop
 420              	.LVL60:
 310:..\..\..\arduinoLCD\test\Pain Drain\libraries\lvgl\src\widgets\../core/lv_obj_style_gen.h **** }
 421              		.loc 2 310 0
 422 004a 00B2     		sxth	r0, r0
 423              	.LVL61:
 424              	.LBE100:
 425              	.LBE99:
 426              		.loc 1 861 0
 427 004c 4042     		rsbs	r0, r0, #0
 428              	.L15:
 429              		.loc 1 861 0 is_stmt 0 discriminator 4
 430 004e 3618     		adds	r6, r6, r0
 431              	.LVL62:
 432 0050 B6B2     		uxth	r6, r6
 433              	.LVL63:
 434              	.LBB101:
 435              	.LBB102:
 315:..\..\..\arduinoLCD\test\Pain Drain\libraries\lvgl\src\widgets\../core/lv_obj_style_gen.h ****     return (lv_coord_t)v.num;
 436              		.loc 2 315 0 is_stmt 1 discriminator 4
 437 0052 4222     		movs	r2, #66
 438 0054 C021     		movs	r1, #192
 439 0056 8902     		lsls	r1, r1, #10
 440 0058 2800     		movs	r0, r5
 441 005a FFF7FEFF 		bl	lv_obj_get_style_prop
 442              	.LVL64:
 316:..\..\..\arduinoLCD\test\Pain Drain\libraries\lvgl\src\widgets\../core/lv_obj_style_gen.h **** }
 443              		.loc 2 316 0 discriminator 4
 444 005e 00B2     		sxth	r0, r0
 445              	.LVL65:
 446              	.LBE102:
 447              	.LBE101:
ARM GAS  C:\Users\haske\AppData\Local\Temp\ccmHbbn5.s 			page 30


 862:..\..\..\arduinoLCD\test\Pain Drain\libraries\lvgl\src\widgets/lv_arc.c ****     knob_shadow_size += LV_ABS(lv_obj_get_style_shadow_ofs_y(obj, LV_PART_KNOB));
 448              		.loc 1 862 0 discriminator 4
 449 0060 0028     		cmp	r0, #0
 450 0062 07DD     		ble	.L16
 451              	.LVL66:
 452              	.LBB103:
 453              	.LBB104:
 315:..\..\..\arduinoLCD\test\Pain Drain\libraries\lvgl\src\widgets\../core/lv_obj_style_gen.h ****     return (lv_coord_t)v.num;
 454              		.loc 2 315 0
 455 0064 4222     		movs	r2, #66
 456 0066 C021     		movs	r1, #192
 457 0068 8902     		lsls	r1, r1, #10
 458 006a 2800     		movs	r0, r5
 459 006c FFF7FEFF 		bl	lv_obj_get_style_prop
 460              	.LVL67:
 461              	.LBE104:
 462              	.LBE103:
 463              		.loc 1 862 0
 464 0070 04B2     		sxth	r4, r0
 465 0072 07E0     		b	.L17
 466              	.L16:
 467              	.LVL68:
 468              	.LBB105:
 469              	.LBB106:
 315:..\..\..\arduinoLCD\test\Pain Drain\libraries\lvgl\src\widgets\../core/lv_obj_style_gen.h ****     return (lv_coord_t)v.num;
 470              		.loc 2 315 0
 471 0074 4222     		movs	r2, #66
 472 0076 C021     		movs	r1, #192
 473 0078 8902     		lsls	r1, r1, #10
 474 007a 2800     		movs	r0, r5
 475 007c FFF7FEFF 		bl	lv_obj_get_style_prop
 476              	.LVL69:
 316:..\..\..\arduinoLCD\test\Pain Drain\libraries\lvgl\src\widgets\../core/lv_obj_style_gen.h **** }
 477              		.loc 2 316 0
 478 0080 00B2     		sxth	r0, r0
 479              	.LVL70:
 480              	.LBE106:
 481              	.LBE105:
 482              		.loc 1 862 0
 483 0082 4442     		rsbs	r4, r0, #0
 484              	.L17:
 485              		.loc 1 862 0 is_stmt 0 discriminator 4
 486 0084 3619     		adds	r6, r6, r4
 487              	.LVL71:
 488 0086 34B2     		sxth	r4, r6
 489              	.LVL72:
 490              	.LBB107:
 491              	.LBB108:
 273:..\..\..\arduinoLCD\test\Pain Drain\libraries\lvgl\src\widgets\../core/lv_obj_style_gen.h ****     return (lv_coord_t)v.num;
 492              		.loc 2 273 0 is_stmt 1 discriminator 4
 493 0088 C027     		movs	r7, #192
 494 008a BF02     		lsls	r7, r7, #10
 495 008c 3522     		movs	r2, #53
 496 008e 3900     		movs	r1, r7
 497 0090 2800     		movs	r0, r5
 498 0092 FFF7FEFF 		bl	lv_obj_get_style_prop
 499              	.LVL73:
ARM GAS  C:\Users\haske\AppData\Local\Temp\ccmHbbn5.s 			page 31


 500              	.LBE108:
 501              	.LBE107:
 863:..\..\..\arduinoLCD\test\Pain Drain\libraries\lvgl\src\widgets/lv_arc.c **** 
 864:..\..\..\arduinoLCD\test\Pain Drain\libraries\lvgl\src\widgets/lv_arc.c ****     lv_coord_t knob_outline_size = 0;
 865:..\..\..\arduinoLCD\test\Pain Drain\libraries\lvgl\src\widgets/lv_arc.c ****     knob_outline_size += lv_obj_get_style_outline_width(obj, LV_PART_KNOB);
 502              		.loc 1 865 0 discriminator 4
 503 0096 86B2     		uxth	r6, r0
 504              	.LVL74:
 505              	.LBB109:
 506              	.LBB110:
 297:..\..\..\arduinoLCD\test\Pain Drain\libraries\lvgl\src\widgets\../core/lv_obj_style_gen.h ****     return (lv_coord_t)v.num;
 507              		.loc 2 297 0 discriminator 4
 508 0098 3822     		movs	r2, #56
 509 009a 3900     		movs	r1, r7
 510 009c 2800     		movs	r0, r5
 511              	.LVL75:
 512 009e FFF7FEFF 		bl	lv_obj_get_style_prop
 513              	.LVL76:
 514              	.LBE110:
 515              	.LBE109:
 866:..\..\..\arduinoLCD\test\Pain Drain\libraries\lvgl\src\widgets/lv_arc.c ****     knob_outline_size += lv_obj_get_style_outline_pad(obj, LV_PART_KNOB);
 516              		.loc 1 866 0 discriminator 4
 517 00a2 3018     		adds	r0, r6, r0
 518              	.LVL77:
 519 00a4 00B2     		sxth	r0, r0
 520              	.LVL78:
 867:..\..\..\arduinoLCD\test\Pain Drain\libraries\lvgl\src\widgets/lv_arc.c **** 
 868:..\..\..\arduinoLCD\test\Pain Drain\libraries\lvgl\src\widgets/lv_arc.c ****     return LV_MAX(knob_shadow_size, knob_outline_size);
 521              		.loc 1 868 0 discriminator 4
 522 00a6 231C     		adds	r3, r4, #0
 523 00a8 8442     		cmp	r4, r0
 524 00aa 00DA     		bge	.L18
 525 00ac 031C     		adds	r3, r0, #0
 526              	.L18:
 527 00ae 18B2     		sxth	r0, r3
 528              	.LVL79:
 869:..\..\..\arduinoLCD\test\Pain Drain\libraries\lvgl\src\widgets/lv_arc.c **** }
 529              		.loc 1 869 0 discriminator 4
 530              		@ sp needed
 531              	.LVL80:
 532              	.LVL81:
 533 00b0 F8BD     		pop	{r3, r4, r5, r6, r7, pc}
 534              		.cfi_endproc
 535              	.LFE190:
 536              		.size	knob_get_extra_size, .-knob_get_extra_size
 537 00b2 C046     		.section	.text.get_knob_area,"ax",%progbits
 538              		.align	2
 539              		.code	16
 540              		.thumb_func
 541              		.type	get_knob_area, %function
 542              	get_knob_area:
 543              	.LFB188:
 788:..\..\..\arduinoLCD\test\Pain Drain\libraries\lvgl\src\widgets/lv_arc.c ****     lv_coord_t indic_width = lv_obj_get_style_arc_width(obj, LV_PART_INDICATOR);
 544              		.loc 1 788 0
 545              		.cfi_startproc
 546              		@ args = 0, pretend = 0, frame = 8
 547              		@ frame_needed = 0, uses_anonymous_args = 0
ARM GAS  C:\Users\haske\AppData\Local\Temp\ccmHbbn5.s 			page 32


 548              	.LVL82:
 549 0000 F0B5     		push	{r4, r5, r6, r7, lr}
 550              		.cfi_def_cfa_offset 20
 551              		.cfi_offset 4, -20
 552              		.cfi_offset 5, -16
 553              		.cfi_offset 6, -12
 554              		.cfi_offset 7, -8
 555              		.cfi_offset 14, -4
 556 0002 5F46     		mov	r7, fp
 557 0004 5646     		mov	r6, r10
 558 0006 4D46     		mov	r5, r9
 559 0008 4446     		mov	r4, r8
 560 000a F0B4     		push	{r4, r5, r6, r7}
 561              		.cfi_def_cfa_offset 36
 562              		.cfi_offset 8, -36
 563              		.cfi_offset 9, -32
 564              		.cfi_offset 10, -28
 565              		.cfi_offset 11, -24
 566 000c 83B0     		sub	sp, sp, #12
 567              		.cfi_def_cfa_offset 48
 568 000e 0F00     		movs	r7, r1
 569 0010 1600     		movs	r6, r2
 570 0012 1D00     		movs	r5, r3
 571              	.LVL83:
 572              	.LBB111:
 573              	.LBB112:
 322:..\..\..\arduinoLCD\test\Pain Drain\libraries\lvgl\src\widgets\../core/lv_obj_style_gen.h ****     return (lv_coord_t)v.num;
 323:..\..\..\arduinoLCD\test\Pain Drain\libraries\lvgl\src\widgets\../core/lv_obj_style_gen.h **** }
 324:..\..\..\arduinoLCD\test\Pain Drain\libraries\lvgl\src\widgets\../core/lv_obj_style_gen.h **** 
 325:..\..\..\arduinoLCD\test\Pain Drain\libraries\lvgl\src\widgets\../core/lv_obj_style_gen.h **** static inline lv_color_t lv_obj_get_style_shadow_color(const struct _lv_obj_t * obj, uint32_t part)
 326:..\..\..\arduinoLCD\test\Pain Drain\libraries\lvgl\src\widgets\../core/lv_obj_style_gen.h **** {
 327:..\..\..\arduinoLCD\test\Pain Drain\libraries\lvgl\src\widgets\../core/lv_obj_style_gen.h ****     lv_style_value_t v = lv_obj_get_style_prop(obj, part, LV_STYLE_SHADOW_COLOR);
 328:..\..\..\arduinoLCD\test\Pain Drain\libraries\lvgl\src\widgets\../core/lv_obj_style_gen.h ****     return v.color;
 329:..\..\..\arduinoLCD\test\Pain Drain\libraries\lvgl\src\widgets\../core/lv_obj_style_gen.h **** }
 330:..\..\..\arduinoLCD\test\Pain Drain\libraries\lvgl\src\widgets\../core/lv_obj_style_gen.h **** 
 331:..\..\..\arduinoLCD\test\Pain Drain\libraries\lvgl\src\widgets\../core/lv_obj_style_gen.h **** static inline lv_color_t lv_obj_get_style_shadow_color_filtered(const struct _lv_obj_t * obj, uint3
 332:..\..\..\arduinoLCD\test\Pain Drain\libraries\lvgl\src\widgets\../core/lv_obj_style_gen.h **** {
 333:..\..\..\arduinoLCD\test\Pain Drain\libraries\lvgl\src\widgets\../core/lv_obj_style_gen.h ****     lv_style_value_t v = _lv_obj_style_apply_color_filter(obj, part, lv_obj_get_style_prop(obj, par
 334:..\..\..\arduinoLCD\test\Pain Drain\libraries\lvgl\src\widgets\../core/lv_obj_style_gen.h ****     return v.color;
 335:..\..\..\arduinoLCD\test\Pain Drain\libraries\lvgl\src\widgets\../core/lv_obj_style_gen.h **** }
 336:..\..\..\arduinoLCD\test\Pain Drain\libraries\lvgl\src\widgets\../core/lv_obj_style_gen.h **** 
 337:..\..\..\arduinoLCD\test\Pain Drain\libraries\lvgl\src\widgets\../core/lv_obj_style_gen.h **** static inline lv_opa_t lv_obj_get_style_shadow_opa(const struct _lv_obj_t * obj, uint32_t part)
 338:..\..\..\arduinoLCD\test\Pain Drain\libraries\lvgl\src\widgets\../core/lv_obj_style_gen.h **** {
 339:..\..\..\arduinoLCD\test\Pain Drain\libraries\lvgl\src\widgets\../core/lv_obj_style_gen.h ****     lv_style_value_t v = lv_obj_get_style_prop(obj, part, LV_STYLE_SHADOW_OPA);
 340:..\..\..\arduinoLCD\test\Pain Drain\libraries\lvgl\src\widgets\../core/lv_obj_style_gen.h ****     return (lv_opa_t)v.num;
 341:..\..\..\arduinoLCD\test\Pain Drain\libraries\lvgl\src\widgets\../core/lv_obj_style_gen.h **** }
 342:..\..\..\arduinoLCD\test\Pain Drain\libraries\lvgl\src\widgets\../core/lv_obj_style_gen.h **** 
 343:..\..\..\arduinoLCD\test\Pain Drain\libraries\lvgl\src\widgets\../core/lv_obj_style_gen.h **** static inline lv_opa_t lv_obj_get_style_img_opa(const struct _lv_obj_t * obj, uint32_t part)
 344:..\..\..\arduinoLCD\test\Pain Drain\libraries\lvgl\src\widgets\../core/lv_obj_style_gen.h **** {
 345:..\..\..\arduinoLCD\test\Pain Drain\libraries\lvgl\src\widgets\../core/lv_obj_style_gen.h ****     lv_style_value_t v = lv_obj_get_style_prop(obj, part, LV_STYLE_IMG_OPA);
 346:..\..\..\arduinoLCD\test\Pain Drain\libraries\lvgl\src\widgets\../core/lv_obj_style_gen.h ****     return (lv_opa_t)v.num;
 347:..\..\..\arduinoLCD\test\Pain Drain\libraries\lvgl\src\widgets\../core/lv_obj_style_gen.h **** }
 348:..\..\..\arduinoLCD\test\Pain Drain\libraries\lvgl\src\widgets\../core/lv_obj_style_gen.h **** 
 349:..\..\..\arduinoLCD\test\Pain Drain\libraries\lvgl\src\widgets\../core/lv_obj_style_gen.h **** static inline lv_color_t lv_obj_get_style_img_recolor(const struct _lv_obj_t * obj, uint32_t part)
 350:..\..\..\arduinoLCD\test\Pain Drain\libraries\lvgl\src\widgets\../core/lv_obj_style_gen.h **** {
 351:..\..\..\arduinoLCD\test\Pain Drain\libraries\lvgl\src\widgets\../core/lv_obj_style_gen.h ****     lv_style_value_t v = lv_obj_get_style_prop(obj, part, LV_STYLE_IMG_RECOLOR);
 352:..\..\..\arduinoLCD\test\Pain Drain\libraries\lvgl\src\widgets\../core/lv_obj_style_gen.h ****     return v.color;
ARM GAS  C:\Users\haske\AppData\Local\Temp\ccmHbbn5.s 			page 33


 353:..\..\..\arduinoLCD\test\Pain Drain\libraries\lvgl\src\widgets\../core/lv_obj_style_gen.h **** }
 354:..\..\..\arduinoLCD\test\Pain Drain\libraries\lvgl\src\widgets\../core/lv_obj_style_gen.h **** 
 355:..\..\..\arduinoLCD\test\Pain Drain\libraries\lvgl\src\widgets\../core/lv_obj_style_gen.h **** static inline lv_color_t lv_obj_get_style_img_recolor_filtered(const struct _lv_obj_t * obj, uint32
 356:..\..\..\arduinoLCD\test\Pain Drain\libraries\lvgl\src\widgets\../core/lv_obj_style_gen.h **** {
 357:..\..\..\arduinoLCD\test\Pain Drain\libraries\lvgl\src\widgets\../core/lv_obj_style_gen.h ****     lv_style_value_t v = _lv_obj_style_apply_color_filter(obj, part, lv_obj_get_style_prop(obj, par
 358:..\..\..\arduinoLCD\test\Pain Drain\libraries\lvgl\src\widgets\../core/lv_obj_style_gen.h ****     return v.color;
 359:..\..\..\arduinoLCD\test\Pain Drain\libraries\lvgl\src\widgets\../core/lv_obj_style_gen.h **** }
 360:..\..\..\arduinoLCD\test\Pain Drain\libraries\lvgl\src\widgets\../core/lv_obj_style_gen.h **** 
 361:..\..\..\arduinoLCD\test\Pain Drain\libraries\lvgl\src\widgets\../core/lv_obj_style_gen.h **** static inline lv_opa_t lv_obj_get_style_img_recolor_opa(const struct _lv_obj_t * obj, uint32_t part
 362:..\..\..\arduinoLCD\test\Pain Drain\libraries\lvgl\src\widgets\../core/lv_obj_style_gen.h **** {
 363:..\..\..\arduinoLCD\test\Pain Drain\libraries\lvgl\src\widgets\../core/lv_obj_style_gen.h ****     lv_style_value_t v = lv_obj_get_style_prop(obj, part, LV_STYLE_IMG_RECOLOR_OPA);
 364:..\..\..\arduinoLCD\test\Pain Drain\libraries\lvgl\src\widgets\../core/lv_obj_style_gen.h ****     return (lv_opa_t)v.num;
 365:..\..\..\arduinoLCD\test\Pain Drain\libraries\lvgl\src\widgets\../core/lv_obj_style_gen.h **** }
 366:..\..\..\arduinoLCD\test\Pain Drain\libraries\lvgl\src\widgets\../core/lv_obj_style_gen.h **** 
 367:..\..\..\arduinoLCD\test\Pain Drain\libraries\lvgl\src\widgets\../core/lv_obj_style_gen.h **** static inline lv_coord_t lv_obj_get_style_line_width(const struct _lv_obj_t * obj, uint32_t part)
 368:..\..\..\arduinoLCD\test\Pain Drain\libraries\lvgl\src\widgets\../core/lv_obj_style_gen.h **** {
 369:..\..\..\arduinoLCD\test\Pain Drain\libraries\lvgl\src\widgets\../core/lv_obj_style_gen.h ****     lv_style_value_t v = lv_obj_get_style_prop(obj, part, LV_STYLE_LINE_WIDTH);
 370:..\..\..\arduinoLCD\test\Pain Drain\libraries\lvgl\src\widgets\../core/lv_obj_style_gen.h ****     return (lv_coord_t)v.num;
 371:..\..\..\arduinoLCD\test\Pain Drain\libraries\lvgl\src\widgets\../core/lv_obj_style_gen.h **** }
 372:..\..\..\arduinoLCD\test\Pain Drain\libraries\lvgl\src\widgets\../core/lv_obj_style_gen.h **** 
 373:..\..\..\arduinoLCD\test\Pain Drain\libraries\lvgl\src\widgets\../core/lv_obj_style_gen.h **** static inline lv_coord_t lv_obj_get_style_line_dash_width(const struct _lv_obj_t * obj, uint32_t pa
 374:..\..\..\arduinoLCD\test\Pain Drain\libraries\lvgl\src\widgets\../core/lv_obj_style_gen.h **** {
 375:..\..\..\arduinoLCD\test\Pain Drain\libraries\lvgl\src\widgets\../core/lv_obj_style_gen.h ****     lv_style_value_t v = lv_obj_get_style_prop(obj, part, LV_STYLE_LINE_DASH_WIDTH);
 376:..\..\..\arduinoLCD\test\Pain Drain\libraries\lvgl\src\widgets\../core/lv_obj_style_gen.h ****     return (lv_coord_t)v.num;
 377:..\..\..\arduinoLCD\test\Pain Drain\libraries\lvgl\src\widgets\../core/lv_obj_style_gen.h **** }
 378:..\..\..\arduinoLCD\test\Pain Drain\libraries\lvgl\src\widgets\../core/lv_obj_style_gen.h **** 
 379:..\..\..\arduinoLCD\test\Pain Drain\libraries\lvgl\src\widgets\../core/lv_obj_style_gen.h **** static inline lv_coord_t lv_obj_get_style_line_dash_gap(const struct _lv_obj_t * obj, uint32_t part
 380:..\..\..\arduinoLCD\test\Pain Drain\libraries\lvgl\src\widgets\../core/lv_obj_style_gen.h **** {
 381:..\..\..\arduinoLCD\test\Pain Drain\libraries\lvgl\src\widgets\../core/lv_obj_style_gen.h ****     lv_style_value_t v = lv_obj_get_style_prop(obj, part, LV_STYLE_LINE_DASH_GAP);
 382:..\..\..\arduinoLCD\test\Pain Drain\libraries\lvgl\src\widgets\../core/lv_obj_style_gen.h ****     return (lv_coord_t)v.num;
 383:..\..\..\arduinoLCD\test\Pain Drain\libraries\lvgl\src\widgets\../core/lv_obj_style_gen.h **** }
 384:..\..\..\arduinoLCD\test\Pain Drain\libraries\lvgl\src\widgets\../core/lv_obj_style_gen.h **** 
 385:..\..\..\arduinoLCD\test\Pain Drain\libraries\lvgl\src\widgets\../core/lv_obj_style_gen.h **** static inline bool lv_obj_get_style_line_rounded(const struct _lv_obj_t * obj, uint32_t part)
 386:..\..\..\arduinoLCD\test\Pain Drain\libraries\lvgl\src\widgets\../core/lv_obj_style_gen.h **** {
 387:..\..\..\arduinoLCD\test\Pain Drain\libraries\lvgl\src\widgets\../core/lv_obj_style_gen.h ****     lv_style_value_t v = lv_obj_get_style_prop(obj, part, LV_STYLE_LINE_ROUNDED);
 388:..\..\..\arduinoLCD\test\Pain Drain\libraries\lvgl\src\widgets\../core/lv_obj_style_gen.h ****     return (bool)v.num;
 389:..\..\..\arduinoLCD\test\Pain Drain\libraries\lvgl\src\widgets\../core/lv_obj_style_gen.h **** }
 390:..\..\..\arduinoLCD\test\Pain Drain\libraries\lvgl\src\widgets\../core/lv_obj_style_gen.h **** 
 391:..\..\..\arduinoLCD\test\Pain Drain\libraries\lvgl\src\widgets\../core/lv_obj_style_gen.h **** static inline lv_color_t lv_obj_get_style_line_color(const struct _lv_obj_t * obj, uint32_t part)
 392:..\..\..\arduinoLCD\test\Pain Drain\libraries\lvgl\src\widgets\../core/lv_obj_style_gen.h **** {
 393:..\..\..\arduinoLCD\test\Pain Drain\libraries\lvgl\src\widgets\../core/lv_obj_style_gen.h ****     lv_style_value_t v = lv_obj_get_style_prop(obj, part, LV_STYLE_LINE_COLOR);
 394:..\..\..\arduinoLCD\test\Pain Drain\libraries\lvgl\src\widgets\../core/lv_obj_style_gen.h ****     return v.color;
 395:..\..\..\arduinoLCD\test\Pain Drain\libraries\lvgl\src\widgets\../core/lv_obj_style_gen.h **** }
 396:..\..\..\arduinoLCD\test\Pain Drain\libraries\lvgl\src\widgets\../core/lv_obj_style_gen.h **** 
 397:..\..\..\arduinoLCD\test\Pain Drain\libraries\lvgl\src\widgets\../core/lv_obj_style_gen.h **** static inline lv_color_t lv_obj_get_style_line_color_filtered(const struct _lv_obj_t * obj, uint32_
 398:..\..\..\arduinoLCD\test\Pain Drain\libraries\lvgl\src\widgets\../core/lv_obj_style_gen.h **** {
 399:..\..\..\arduinoLCD\test\Pain Drain\libraries\lvgl\src\widgets\../core/lv_obj_style_gen.h ****     lv_style_value_t v = _lv_obj_style_apply_color_filter(obj, part, lv_obj_get_style_prop(obj, par
 400:..\..\..\arduinoLCD\test\Pain Drain\libraries\lvgl\src\widgets\../core/lv_obj_style_gen.h ****     return v.color;
 401:..\..\..\arduinoLCD\test\Pain Drain\libraries\lvgl\src\widgets\../core/lv_obj_style_gen.h **** }
 402:..\..\..\arduinoLCD\test\Pain Drain\libraries\lvgl\src\widgets\../core/lv_obj_style_gen.h **** 
 403:..\..\..\arduinoLCD\test\Pain Drain\libraries\lvgl\src\widgets\../core/lv_obj_style_gen.h **** static inline lv_opa_t lv_obj_get_style_line_opa(const struct _lv_obj_t * obj, uint32_t part)
 404:..\..\..\arduinoLCD\test\Pain Drain\libraries\lvgl\src\widgets\../core/lv_obj_style_gen.h **** {
 405:..\..\..\arduinoLCD\test\Pain Drain\libraries\lvgl\src\widgets\../core/lv_obj_style_gen.h ****     lv_style_value_t v = lv_obj_get_style_prop(obj, part, LV_STYLE_LINE_OPA);
 406:..\..\..\arduinoLCD\test\Pain Drain\libraries\lvgl\src\widgets\../core/lv_obj_style_gen.h ****     return (lv_opa_t)v.num;
 407:..\..\..\arduinoLCD\test\Pain Drain\libraries\lvgl\src\widgets\../core/lv_obj_style_gen.h **** }
 408:..\..\..\arduinoLCD\test\Pain Drain\libraries\lvgl\src\widgets\../core/lv_obj_style_gen.h **** 
 409:..\..\..\arduinoLCD\test\Pain Drain\libraries\lvgl\src\widgets\../core/lv_obj_style_gen.h **** static inline lv_coord_t lv_obj_get_style_arc_width(const struct _lv_obj_t * obj, uint32_t part)
ARM GAS  C:\Users\haske\AppData\Local\Temp\ccmHbbn5.s 			page 34


 410:..\..\..\arduinoLCD\test\Pain Drain\libraries\lvgl\src\widgets\../core/lv_obj_style_gen.h **** {
 411:..\..\..\arduinoLCD\test\Pain Drain\libraries\lvgl\src\widgets\../core/lv_obj_style_gen.h ****     lv_style_value_t v = lv_obj_get_style_prop(obj, part, LV_STYLE_ARC_WIDTH);
 574              		.loc 2 411 0
 575 0014 5022     		movs	r2, #80
 576              	.LVL84:
 577 0016 8021     		movs	r1, #128
 578              	.LVL85:
 579 0018 8902     		lsls	r1, r1, #10
 580 001a 0090     		str	r0, [sp]
 581 001c FFF7FEFF 		bl	lv_obj_get_style_prop
 582              	.LVL86:
 412:..\..\..\arduinoLCD\test\Pain Drain\libraries\lvgl\src\widgets\../core/lv_obj_style_gen.h ****     return (lv_coord_t)v.num;
 583              		.loc 2 412 0
 584 0020 00B2     		sxth	r0, r0
 585              	.LVL87:
 586              	.LBE112:
 587              	.LBE111:
 790:..\..\..\arduinoLCD\test\Pain Drain\libraries\lvgl\src\widgets/lv_arc.c ****     r -= indic_width_half;
 588              		.loc 1 790 0
 589 0022 C40F     		lsrs	r4, r0, #31
 590 0024 2018     		adds	r0, r4, r0
 591 0026 4010     		asrs	r0, r0, #1
 592              	.LVL88:
 791:..\..\..\arduinoLCD\test\Pain Drain\libraries\lvgl\src\widgets/lv_arc.c **** 
 593              		.loc 1 791 0
 594 0028 84B2     		uxth	r4, r0
 595 002a 361B     		subs	r6, r6, r4
 596 002c 36B2     		sxth	r6, r6
 597              	.LVL89:
 793:..\..\..\arduinoLCD\test\Pain Drain\libraries\lvgl\src\widgets/lv_arc.c ****     lv_coord_t knob_x = (r * lv_trigo_sin(angle + 90)) >> LV_TRIGO_SHIFT;
 598              		.loc 1 793 0
 599 002e 0098     		ldr	r0, [sp]
 600              	.LVL90:
 601 0030 FFF7FEFF 		bl	get_angle
 602              	.LVL91:
 603 0034 0300     		movs	r3, r0
 604              	.LVL92:
 794:..\..\..\arduinoLCD\test\Pain Drain\libraries\lvgl\src\widgets/lv_arc.c ****     lv_coord_t knob_y = (r * lv_trigo_sin(angle)) >> LV_TRIGO_SHIFT;
 605              		.loc 1 794 0
 606 0036 0190     		str	r0, [sp, #4]
 607 0038 5A33     		adds	r3, r3, #90
 608 003a 18B2     		sxth	r0, r3
 609              	.LVL93:
 610 003c FFF7FEFF 		bl	lv_trigo_sin
 611              	.LVL94:
 612 0040 7043     		muls	r0, r6
 613 0042 C213     		asrs	r2, r0, #15
 614 0044 9146     		mov	r9, r2
 615              	.LVL95:
 795:..\..\..\arduinoLCD\test\Pain Drain\libraries\lvgl\src\widgets/lv_arc.c **** 
 616              		.loc 1 795 0
 617 0046 0198     		ldr	r0, [sp, #4]
 618 0048 FFF7FEFF 		bl	lv_trigo_sin
 619              	.LVL96:
 620 004c 4643     		muls	r6, r0
 621              	.LVL97:
 622 004e F313     		asrs	r3, r6, #15
ARM GAS  C:\Users\haske\AppData\Local\Temp\ccmHbbn5.s 			page 35


 623 0050 9846     		mov	r8, r3
 624              	.LVL98:
 625              	.LBB113:
 626              	.LBB114:
 117:..\..\..\arduinoLCD\test\Pain Drain\libraries\lvgl\src\widgets\../core/lv_obj_style_gen.h ****     return (lv_coord_t)v.num;
 627              		.loc 2 117 0
 628 0052 1222     		movs	r2, #18
 629 0054 C021     		movs	r1, #192
 630 0056 8902     		lsls	r1, r1, #10
 631 0058 009E     		ldr	r6, [sp]
 632 005a 3000     		movs	r0, r6
 633 005c FFF7FEFF 		bl	lv_obj_get_style_prop
 634              	.LVL99:
 635 0060 8346     		mov	fp, r0
 636              	.LVL100:
 637              	.LBE114:
 638              	.LBE113:
 639              	.LBB115:
 640              	.LBB116:
 123:..\..\..\arduinoLCD\test\Pain Drain\libraries\lvgl\src\widgets\../core/lv_obj_style_gen.h ****     return (lv_coord_t)v.num;
 641              		.loc 2 123 0
 642 0062 1322     		movs	r2, #19
 643 0064 C021     		movs	r1, #192
 644 0066 8902     		lsls	r1, r1, #10
 645 0068 0096     		str	r6, [sp]
 646              	.LVL101:
 647 006a 3000     		movs	r0, r6
 648 006c FFF7FEFF 		bl	lv_obj_get_style_prop
 649              	.LVL102:
 650 0070 0600     		movs	r6, r0
 651              	.LVL103:
 652              	.LBE116:
 653              	.LBE115:
 654              	.LBB117:
 655              	.LBB118:
 105:..\..\..\arduinoLCD\test\Pain Drain\libraries\lvgl\src\widgets\../core/lv_obj_style_gen.h ****     return (lv_coord_t)v.num;
 656              		.loc 2 105 0
 657 0072 1022     		movs	r2, #16
 658 0074 C021     		movs	r1, #192
 659 0076 8902     		lsls	r1, r1, #10
 660 0078 0098     		ldr	r0, [sp]
 661 007a FFF7FEFF 		bl	lv_obj_get_style_prop
 662              	.LVL104:
 663 007e 8246     		mov	r10, r0
 664              	.LVL105:
 665              	.LBE118:
 666              	.LBE117:
 667              	.LBB119:
 668              	.LBB120:
 111:..\..\..\arduinoLCD\test\Pain Drain\libraries\lvgl\src\widgets\../core/lv_obj_style_gen.h ****     return (lv_coord_t)v.num;
 669              		.loc 2 111 0
 670 0080 1122     		movs	r2, #17
 671 0082 C021     		movs	r1, #192
 672 0084 8902     		lsls	r1, r1, #10
 673 0086 0098     		ldr	r0, [sp]
 674 0088 FFF7FEFF 		bl	lv_obj_get_style_prop
 675              	.LVL106:
ARM GAS  C:\Users\haske\AppData\Local\Temp\ccmHbbn5.s 			page 36


 676              	.LBE120:
 677              	.LBE119:
 802:..\..\..\arduinoLCD\test\Pain Drain\libraries\lvgl\src\widgets/lv_arc.c ****     knob_area->x2 = center->x + knob_x + right_knob + indic_width_half;
 678              		.loc 1 802 0
 679 008c 0022     		movs	r2, #0
 680 008e BB5E     		ldrsh	r3, [r7, r2]
 681 0090 4A46     		mov	r2, r9
 682 0092 6946     		mov	r1, sp
 683 0094 0A80     		strh	r2, [r1]
 684 0096 0A88     		ldrh	r2, [r1]
 685 0098 D318     		adds	r3, r2, r3
 686              	.LVL107:
 687 009a 5946     		mov	r1, fp
 688 009c 5B1A     		subs	r3, r3, r1
 689 009e 1B1B     		subs	r3, r3, r4
 690 00a0 2B80     		strh	r3, [r5]
 803:..\..\..\arduinoLCD\test\Pain Drain\libraries\lvgl\src\widgets/lv_arc.c ****     knob_area->y1 = center->y + knob_y - top_knob - indic_width_half;
 691              		.loc 1 803 0
 692 00a2 0021     		movs	r1, #0
 693 00a4 7B5E     		ldrsh	r3, [r7, r1]
 694 00a6 D318     		adds	r3, r2, r3
 695              	.LVL108:
 696 00a8 9E19     		adds	r6, r3, r6
 697              	.LVL109:
 698 00aa A619     		adds	r6, r4, r6
 699 00ac AE80     		strh	r6, [r5, #4]
 804:..\..\..\arduinoLCD\test\Pain Drain\libraries\lvgl\src\widgets/lv_arc.c ****     knob_area->y2 = center->y + knob_y + bottom_knob + indic_width_half;
 700              		.loc 1 804 0
 701 00ae 0222     		movs	r2, #2
 702 00b0 BB5E     		ldrsh	r3, [r7, r2]
 703 00b2 4246     		mov	r2, r8
 704 00b4 6946     		mov	r1, sp
 705 00b6 0A80     		strh	r2, [r1]
 706 00b8 0A88     		ldrh	r2, [r1]
 707 00ba D318     		adds	r3, r2, r3
 708              	.LVL110:
 709 00bc 5146     		mov	r1, r10
 710 00be 5B1A     		subs	r3, r3, r1
 711 00c0 1B1B     		subs	r3, r3, r4
 712 00c2 6B80     		strh	r3, [r5, #2]
 805:..\..\..\arduinoLCD\test\Pain Drain\libraries\lvgl\src\widgets/lv_arc.c **** }
 713              		.loc 1 805 0
 714 00c4 0221     		movs	r1, #2
 715 00c6 7B5E     		ldrsh	r3, [r7, r1]
 716 00c8 D218     		adds	r2, r2, r3
 717              	.LVL111:
 718 00ca 1018     		adds	r0, r2, r0
 719              	.LVL112:
 720 00cc 2418     		adds	r4, r4, r0
 721              	.LVL113:
 722 00ce EC80     		strh	r4, [r5, #6]
 806:..\..\..\arduinoLCD\test\Pain Drain\libraries\lvgl\src\widgets/lv_arc.c **** 
 723              		.loc 1 806 0
 724 00d0 03B0     		add	sp, sp, #12
 725              		@ sp needed
 726              	.LVL114:
 727              	.LVL115:
ARM GAS  C:\Users\haske\AppData\Local\Temp\ccmHbbn5.s 			page 37


 728              	.LVL116:
 729              	.LVL117:
 730              	.LVL118:
 731              	.LVL119:
 732 00d2 3CBC     		pop	{r2, r3, r4, r5}
 733 00d4 9046     		mov	r8, r2
 734 00d6 9946     		mov	r9, r3
 735 00d8 A246     		mov	r10, r4
 736 00da AB46     		mov	fp, r5
 737 00dc F0BD     		pop	{r4, r5, r6, r7, pc}
 738              		.cfi_endproc
 739              	.LFE188:
 740              		.size	get_knob_area, .-get_knob_area
 741 00de C046     		.section	.text.lv_arc_draw,"ax",%progbits
 742              		.align	2
 743              		.code	16
 744              		.thumb_func
 745              		.type	lv_arc_draw, %function
 746              	lv_arc_draw:
 747              	.LFB183:
 616:..\..\..\arduinoLCD\test\Pain Drain\libraries\lvgl\src\widgets/lv_arc.c ****     lv_obj_t * obj = lv_event_get_target(e);
 748              		.loc 1 616 0
 749              		.cfi_startproc
 750              		@ args = 0, pretend = 0, frame = 168
 751              		@ frame_needed = 0, uses_anonymous_args = 0
 752              	.LVL120:
 753 0000 F0B5     		push	{r4, r5, r6, r7, lr}
 754              		.cfi_def_cfa_offset 20
 755              		.cfi_offset 4, -20
 756              		.cfi_offset 5, -16
 757              		.cfi_offset 6, -12
 758              		.cfi_offset 7, -8
 759              		.cfi_offset 14, -4
 760 0002 4F46     		mov	r7, r9
 761 0004 80B4     		push	{r7}
 762              		.cfi_def_cfa_offset 24
 763              		.cfi_offset 9, -24
 764 0006 ACB0     		sub	sp, sp, #176
 765              		.cfi_def_cfa_offset 200
 766 0008 0500     		movs	r5, r0
 617:..\..\..\arduinoLCD\test\Pain Drain\libraries\lvgl\src\widgets/lv_arc.c ****     lv_arc_t * arc = (lv_arc_t *)obj;
 767              		.loc 1 617 0
 768 000a FFF7FEFF 		bl	lv_event_get_target
 769              	.LVL121:
 770 000e 0400     		movs	r4, r0
 771              	.LVL122:
 620:..\..\..\arduinoLCD\test\Pain Drain\libraries\lvgl\src\widgets/lv_arc.c **** 
 772              		.loc 1 620 0
 773 0010 2800     		movs	r0, r5
 774              	.LVL123:
 775 0012 FFF7FEFF 		bl	lv_event_get_draw_ctx
 776              	.LVL124:
 777 0016 0600     		movs	r6, r0
 778              	.LVL125:
 624:..\..\..\arduinoLCD\test\Pain Drain\libraries\lvgl\src\widgets/lv_arc.c **** 
 779              		.loc 1 624 0
 780 0018 A225     		movs	r5, #162
ARM GAS  C:\Users\haske\AppData\Local\Temp\ccmHbbn5.s 			page 38


 781              	.LVL126:
 782 001a 02AB     		add	r3, sp, #8
 783 001c 9C46     		mov	ip, r3
 784 001e 6544     		add	r5, r5, ip
 785 0020 2A00     		movs	r2, r5
 786 0022 2BA9     		add	r1, sp, #172
 787 0024 2000     		movs	r0, r4
 788              	.LVL127:
 789 0026 FFF7FEFF 		bl	get_center
 790              	.LVL128:
 627:..\..\..\arduinoLCD\test\Pain Drain\libraries\lvgl\src\widgets/lv_arc.c **** 
 791              		.loc 1 627 0
 792 002a 0396     		str	r6, [sp, #12]
 793 002c 3100     		movs	r1, r6
 794 002e 18A8     		add	r0, sp, #96
 795 0030 FFF7FEFF 		bl	lv_obj_draw_dsc_init
 796              	.LVL129:
 631:..\..\..\arduinoLCD\test\Pain Drain\libraries\lvgl\src\widgets/lv_arc.c ****         lv_draw_arc_dsc_init(&arc_dsc);
 797              		.loc 1 631 0
 798 0034 0022     		movs	r2, #0
 799 0036 AB5E     		ldrsh	r3, [r5, r2]
 800 0038 002B     		cmp	r3, #0
 801 003a 30DD     		ble	.L21
 632:..\..\..\arduinoLCD\test\Pain Drain\libraries\lvgl\src\widgets/lv_arc.c ****         lv_obj_init_draw_arc_dsc(obj, LV_PART_MAIN, &arc_dsc);
 802              		.loc 1 632 0
 803 003c 14AF     		add	r7, sp, #80
 804 003e 3800     		movs	r0, r7
 805 0040 FFF7FEFF 		bl	lv_draw_arc_dsc_init
 806              	.LVL130:
 633:..\..\..\arduinoLCD\test\Pain Drain\libraries\lvgl\src\widgets/lv_arc.c **** 
 807              		.loc 1 633 0
 808 0044 3A00     		movs	r2, r7
 809 0046 0021     		movs	r1, #0
 810 0048 2000     		movs	r0, r4
 811 004a FFF7FEFF 		bl	lv_obj_init_draw_arc_dsc
 812              	.LVL131:
 635:..\..\..\arduinoLCD\test\Pain Drain\libraries\lvgl\src\widgets/lv_arc.c ****         part_draw_dsc.class_p = MY_CLASS;
 813              		.loc 1 635 0
 814 004e 18AD     		add	r5, sp, #96
 815 0050 0023     		movs	r3, #0
 816 0052 2593     		str	r3, [sp, #148]
 636:..\..\..\arduinoLCD\test\Pain Drain\libraries\lvgl\src\widgets/lv_arc.c ****         part_draw_dsc.type = LV_ARC_DRAW_PART_BACKGROUND;
 817              		.loc 1 636 0
 818 0054 604A     		ldr	r2, .L27
 819 0056 1992     		str	r2, [sp, #100]
 637:..\..\..\arduinoLCD\test\Pain Drain\libraries\lvgl\src\widgets/lv_arc.c ****         part_draw_dsc.p1 = &center;
 820              		.loc 1 637 0
 821 0058 1A93     		str	r3, [sp, #104]
 638:..\..\..\arduinoLCD\test\Pain Drain\libraries\lvgl\src\widgets/lv_arc.c ****         part_draw_dsc.radius = arc_r;
 822              		.loc 1 638 0
 823 005a 2BAE     		add	r6, sp, #172
 824              	.LVL132:
 825 005c 2196     		str	r6, [sp, #132]
 639:..\..\..\arduinoLCD\test\Pain Drain\libraries\lvgl\src\widgets/lv_arc.c ****         part_draw_dsc.arc_dsc = &arc_dsc;
 826              		.loc 1 639 0
 827 005e A233     		adds	r3, r3, #162
 828 0060 02AA     		add	r2, sp, #8
ARM GAS  C:\Users\haske\AppData\Local\Temp\ccmHbbn5.s 			page 39


 829 0062 9446     		mov	ip, r2
 830 0064 6344     		add	r3, r3, ip
 831 0066 1B88     		ldrh	r3, [r3]
 832 0068 AB87     		strh	r3, [r5, #60]
 640:..\..\..\arduinoLCD\test\Pain Drain\libraries\lvgl\src\widgets/lv_arc.c ****         lv_event_send(obj, LV_EVENT_DRAW_PART_BEGIN, &part_draw_dsc);
 833              		.loc 1 640 0
 834 006a 2097     		str	r7, [sp, #128]
 641:..\..\..\arduinoLCD\test\Pain Drain\libraries\lvgl\src\widgets/lv_arc.c **** 
 835              		.loc 1 641 0
 836 006c 2A00     		movs	r2, r5
 837 006e 1A21     		movs	r1, #26
 838 0070 2000     		movs	r0, r4
 839 0072 FFF7FEFF 		bl	lv_event_send
 840              	.LVL133:
 643:..\..\..\arduinoLCD\test\Pain Drain\libraries\lvgl\src\widgets/lv_arc.c ****                     arc->bg_angle_end + arc->rotation);
 841              		.loc 1 643 0
 842 0076 608D     		ldrh	r0, [r4, #42]
 843 0078 A28C     		ldrh	r2, [r4, #36]
 644:..\..\..\arduinoLCD\test\Pain Drain\libraries\lvgl\src\widgets/lv_arc.c **** 
 844              		.loc 1 644 0
 845 007a A18D     		ldrh	r1, [r4, #44]
 643:..\..\..\arduinoLCD\test\Pain Drain\libraries\lvgl\src\widgets/lv_arc.c ****                     arc->bg_angle_end + arc->rotation);
 846              		.loc 1 643 0
 847 007c AB8F     		ldrh	r3, [r5, #60]
 848 007e 5118     		adds	r1, r2, r1
 849 0080 89B2     		uxth	r1, r1
 850 0082 0191     		str	r1, [sp, #4]
 851 0084 8218     		adds	r2, r0, r2
 852 0086 92B2     		uxth	r2, r2
 853 0088 0092     		str	r2, [sp]
 854 008a 3200     		movs	r2, r6
 855 008c 3900     		movs	r1, r7
 856 008e 0398     		ldr	r0, [sp, #12]
 857 0090 FFF7FEFF 		bl	lv_draw_arc
 858              	.LVL134:
 646:..\..\..\arduinoLCD\test\Pain Drain\libraries\lvgl\src\widgets/lv_arc.c ****     }
 859              		.loc 1 646 0
 860 0094 2A00     		movs	r2, r5
 861 0096 1B21     		movs	r1, #27
 862 0098 2000     		movs	r0, r4
 863 009a FFF7FEFF 		bl	lv_event_send
 864              	.LVL135:
 865              	.L21:
 866              	.LBB121:
 867              	.LBB122:
 117:..\..\..\arduinoLCD\test\Pain Drain\libraries\lvgl\src\widgets\../core/lv_obj_style_gen.h ****     return (lv_coord_t)v.num;
 868              		.loc 2 117 0
 869 009e 1222     		movs	r2, #18
 870 00a0 8021     		movs	r1, #128
 871 00a2 8902     		lsls	r1, r1, #10
 872 00a4 2000     		movs	r0, r4
 873 00a6 FFF7FEFF 		bl	lv_obj_get_style_prop
 874              	.LVL136:
 118:..\..\..\arduinoLCD\test\Pain Drain\libraries\lvgl\src\widgets\../core/lv_obj_style_gen.h **** }
 875              		.loc 2 118 0
 876 00aa 06B2     		sxth	r6, r0
 877              	.LVL137:
ARM GAS  C:\Users\haske\AppData\Local\Temp\ccmHbbn5.s 			page 40


 878              	.LBE122:
 879              	.LBE121:
 880              	.LBB123:
 881              	.LBB124:
 123:..\..\..\arduinoLCD\test\Pain Drain\libraries\lvgl\src\widgets\../core/lv_obj_style_gen.h ****     return (lv_coord_t)v.num;
 882              		.loc 2 123 0
 883 00ac 1322     		movs	r2, #19
 884 00ae 8021     		movs	r1, #128
 885 00b0 8902     		lsls	r1, r1, #10
 886 00b2 2000     		movs	r0, r4
 887 00b4 FFF7FEFF 		bl	lv_obj_get_style_prop
 888              	.LVL138:
 124:..\..\..\arduinoLCD\test\Pain Drain\libraries\lvgl\src\widgets\../core/lv_obj_style_gen.h **** }
 889              		.loc 2 124 0
 890 00b8 05B2     		sxth	r5, r0
 891              	.LVL139:
 892              	.LBE124:
 893              	.LBE123:
 894              	.LBB125:
 895              	.LBB126:
 105:..\..\..\arduinoLCD\test\Pain Drain\libraries\lvgl\src\widgets\../core/lv_obj_style_gen.h ****     return (lv_coord_t)v.num;
 896              		.loc 2 105 0
 897 00ba 1022     		movs	r2, #16
 898 00bc 8021     		movs	r1, #128
 899 00be 8902     		lsls	r1, r1, #10
 900 00c0 2000     		movs	r0, r4
 901 00c2 FFF7FEFF 		bl	lv_obj_get_style_prop
 902              	.LVL140:
 106:..\..\..\arduinoLCD\test\Pain Drain\libraries\lvgl\src\widgets\../core/lv_obj_style_gen.h **** }
 903              		.loc 2 106 0
 904 00c6 07B2     		sxth	r7, r0
 905              	.LVL141:
 906              	.LBE126:
 907              	.LBE125:
 908              	.LBB127:
 909              	.LBB128:
 111:..\..\..\arduinoLCD\test\Pain Drain\libraries\lvgl\src\widgets\../core/lv_obj_style_gen.h ****     return (lv_coord_t)v.num;
 910              		.loc 2 111 0
 911 00c8 1122     		movs	r2, #17
 912 00ca 8021     		movs	r1, #128
 913 00cc 8902     		lsls	r1, r1, #10
 914 00ce 2000     		movs	r0, r4
 915 00d0 FFF7FEFF 		bl	lv_obj_get_style_prop
 916              	.LVL142:
 112:..\..\..\arduinoLCD\test\Pain Drain\libraries\lvgl\src\widgets\../core/lv_obj_style_gen.h **** }
 917              		.loc 2 112 0
 918 00d4 00B2     		sxth	r0, r0
 919              	.LVL143:
 920              	.LBE128:
 921              	.LBE127:
 654:..\..\..\arduinoLCD\test\Pain Drain\libraries\lvgl\src\widgets/lv_arc.c **** 
 922              		.loc 1 654 0
 923 00d6 031C     		adds	r3, r0, #0
 924 00d8 B842     		cmp	r0, r7
 925 00da 00DA     		bge	.L22
 926 00dc 3B1C     		adds	r3, r7, #0
 927              	.L22:
ARM GAS  C:\Users\haske\AppData\Local\Temp\ccmHbbn5.s 			page 41


 928 00de 1BB2     		sxth	r3, r3
 929 00e0 2A1C     		adds	r2, r5, #0
 930 00e2 B542     		cmp	r5, r6
 931 00e4 00DA     		bge	.L23
 932 00e6 321C     		adds	r2, r6, #0
 933              	.L23:
 934 00e8 191C     		adds	r1, r3, #0
 935 00ea 10B2     		sxth	r0, r2
 936 00ec 8342     		cmp	r3, r0
 937 00ee 00DA     		bge	.L24
 938 00f0 111C     		adds	r1, r2, #0
 939              	.L24:
 940 00f2 A223     		movs	r3, #162
 941 00f4 02AA     		add	r2, sp, #8
 942 00f6 9446     		mov	ip, r2
 943 00f8 6344     		add	r3, r3, ip
 944 00fa 1B88     		ldrh	r3, [r3]
 945 00fc 5B1A     		subs	r3, r3, r1
 946 00fe 1EB2     		sxth	r6, r3
 947              	.LVL144:
 656:..\..\..\arduinoLCD\test\Pain Drain\libraries\lvgl\src\widgets/lv_arc.c ****         lv_draw_arc_dsc_init(&arc_dsc);
 948              		.loc 1 656 0
 949 0100 002E     		cmp	r6, #0
 950 0102 37DD     		ble	.L25
 657:..\..\..\arduinoLCD\test\Pain Drain\libraries\lvgl\src\widgets/lv_arc.c ****         lv_obj_init_draw_arc_dsc(obj, LV_PART_INDICATOR, &arc_dsc);
 951              		.loc 1 657 0
 952 0104 14AF     		add	r7, sp, #80
 953 0106 3800     		movs	r0, r7
 954 0108 FFF7FEFF 		bl	lv_draw_arc_dsc_init
 955              	.LVL145:
 658:..\..\..\arduinoLCD\test\Pain Drain\libraries\lvgl\src\widgets/lv_arc.c **** 
 956              		.loc 1 658 0
 957 010c 8023     		movs	r3, #128
 958 010e 9B02     		lsls	r3, r3, #10
 959 0110 9946     		mov	r9, r3
 960 0112 3A00     		movs	r2, r7
 961 0114 1900     		movs	r1, r3
 962 0116 2000     		movs	r0, r4
 963 0118 FFF7FEFF 		bl	lv_obj_init_draw_arc_dsc
 964              	.LVL146:
 660:..\..\..\arduinoLCD\test\Pain Drain\libraries\lvgl\src\widgets/lv_arc.c ****         part_draw_dsc.class_p = MY_CLASS;
 965              		.loc 1 660 0
 966 011c 18AD     		add	r5, sp, #96
 967 011e 4B46     		mov	r3, r9
 968 0120 2593     		str	r3, [sp, #148]
 661:..\..\..\arduinoLCD\test\Pain Drain\libraries\lvgl\src\widgets/lv_arc.c ****         part_draw_dsc.type = LV_ARC_DRAW_PART_FOREGROUND;
 969              		.loc 1 661 0
 970 0122 2D4B     		ldr	r3, .L27
 971 0124 1993     		str	r3, [sp, #100]
 662:..\..\..\arduinoLCD\test\Pain Drain\libraries\lvgl\src\widgets/lv_arc.c ****         part_draw_dsc.p1 = &center;
 972              		.loc 1 662 0
 973 0126 0123     		movs	r3, #1
 974 0128 1A93     		str	r3, [sp, #104]
 663:..\..\..\arduinoLCD\test\Pain Drain\libraries\lvgl\src\widgets/lv_arc.c ****         part_draw_dsc.radius = indic_r;
 975              		.loc 1 663 0
 976 012a 2BAB     		add	r3, sp, #172
 977 012c 2193     		str	r3, [sp, #132]
ARM GAS  C:\Users\haske\AppData\Local\Temp\ccmHbbn5.s 			page 42


 664:..\..\..\arduinoLCD\test\Pain Drain\libraries\lvgl\src\widgets/lv_arc.c ****         part_draw_dsc.arc_dsc = &arc_dsc;
 978              		.loc 1 664 0
 979 012e AE87     		strh	r6, [r5, #60]
 665:..\..\..\arduinoLCD\test\Pain Drain\libraries\lvgl\src\widgets/lv_arc.c ****         lv_event_send(obj, LV_EVENT_DRAW_PART_BEGIN, &part_draw_dsc);
 980              		.loc 1 665 0
 981 0130 2097     		str	r7, [sp, #128]
 666:..\..\..\arduinoLCD\test\Pain Drain\libraries\lvgl\src\widgets/lv_arc.c **** 
 982              		.loc 1 666 0
 983 0132 2A00     		movs	r2, r5
 984 0134 1A21     		movs	r1, #26
 985 0136 2000     		movs	r0, r4
 986 0138 FFF7FEFF 		bl	lv_event_send
 987              	.LVL147:
 668:..\..\..\arduinoLCD\test\Pain Drain\libraries\lvgl\src\widgets/lv_arc.c ****         lv_draw_arc(draw_ctx, &arc_dsc, &center, part_draw_dsc.radius, arc->indic_angle_start + arc
 988              		.loc 1 668 0
 989 013c 0223     		movs	r3, #2
 990 013e FA5E     		ldrsh	r2, [r7, r3]
 991 0140 3C21     		movs	r1, #60
 992 0142 6B5E     		ldrsh	r3, [r5, r1]
 993 0144 9A42     		cmp	r2, r3
 994 0146 01DD     		ble	.L26
 668:..\..\..\arduinoLCD\test\Pain Drain\libraries\lvgl\src\widgets/lv_arc.c ****         lv_draw_arc(draw_ctx, &arc_dsc, &center, part_draw_dsc.radius, arc->indic_angle_start + arc
 995              		.loc 1 668 0 is_stmt 0 discriminator 1
 996 0148 14AA     		add	r2, sp, #80
 997 014a 5380     		strh	r3, [r2, #2]
 998              	.L26:
 669:..\..\..\arduinoLCD\test\Pain Drain\libraries\lvgl\src\widgets/lv_arc.c ****                     arc->indic_angle_end + arc->rotation);
 999              		.loc 1 669 0 is_stmt 1
 1000 014c E08C     		ldrh	r0, [r4, #38]
 1001 014e A28C     		ldrh	r2, [r4, #36]
 670:..\..\..\arduinoLCD\test\Pain Drain\libraries\lvgl\src\widgets/lv_arc.c **** 
 1002              		.loc 1 670 0
 1003 0150 218D     		ldrh	r1, [r4, #40]
 669:..\..\..\arduinoLCD\test\Pain Drain\libraries\lvgl\src\widgets/lv_arc.c ****                     arc->indic_angle_end + arc->rotation);
 1004              		.loc 1 669 0
 1005 0152 9BB2     		uxth	r3, r3
 1006 0154 5118     		adds	r1, r2, r1
 1007 0156 89B2     		uxth	r1, r1
 1008 0158 0191     		str	r1, [sp, #4]
 1009 015a 8218     		adds	r2, r0, r2
 1010 015c 92B2     		uxth	r2, r2
 1011 015e 0092     		str	r2, [sp]
 1012 0160 2BAA     		add	r2, sp, #172
 1013 0162 14A9     		add	r1, sp, #80
 1014 0164 0398     		ldr	r0, [sp, #12]
 1015 0166 FFF7FEFF 		bl	lv_draw_arc
 1016              	.LVL148:
 672:..\..\..\arduinoLCD\test\Pain Drain\libraries\lvgl\src\widgets/lv_arc.c ****     }
 1017              		.loc 1 672 0
 1018 016a 18AA     		add	r2, sp, #96
 1019 016c 1B21     		movs	r1, #27
 1020 016e 2000     		movs	r0, r4
 1021 0170 FFF7FEFF 		bl	lv_event_send
 1022              	.LVL149:
 1023              	.L25:
 676:..\..\..\arduinoLCD\test\Pain Drain\libraries\lvgl\src\widgets/lv_arc.c **** 
 1024              		.loc 1 676 0
ARM GAS  C:\Users\haske\AppData\Local\Temp\ccmHbbn5.s 			page 43


 1025 0174 12AF     		add	r7, sp, #72
 1026 0176 A223     		movs	r3, #162
 1027 0178 02AA     		add	r2, sp, #8
 1028 017a 9446     		mov	ip, r2
 1029 017c 6344     		add	r3, r3, ip
 1030 017e 0022     		movs	r2, #0
 1031 0180 9A5E     		ldrsh	r2, [r3, r2]
 1032 0182 3B00     		movs	r3, r7
 1033 0184 2BA9     		add	r1, sp, #172
 1034 0186 2000     		movs	r0, r4
 1035 0188 FFF7FEFF 		bl	get_knob_area
 1036              	.LVL150:
 679:..\..\..\arduinoLCD\test\Pain Drain\libraries\lvgl\src\widgets/lv_arc.c ****     lv_obj_init_draw_rect_dsc(obj, LV_PART_KNOB, &knob_rect_dsc);
 1037              		.loc 1 679 0
 1038 018c 04AD     		add	r5, sp, #16
 1039 018e 2800     		movs	r0, r5
 1040 0190 FFF7FEFF 		bl	lv_draw_rect_dsc_init
 1041              	.LVL151:
 680:..\..\..\arduinoLCD\test\Pain Drain\libraries\lvgl\src\widgets/lv_arc.c **** 
 1042              		.loc 1 680 0
 1043 0194 C026     		movs	r6, #192
 1044              	.LVL152:
 1045 0196 B602     		lsls	r6, r6, #10
 1046 0198 2A00     		movs	r2, r5
 1047 019a 3100     		movs	r1, r6
 1048 019c 2000     		movs	r0, r4
 1049 019e FFF7FEFF 		bl	lv_obj_init_draw_rect_dsc
 1050              	.LVL153:
 682:..\..\..\arduinoLCD\test\Pain Drain\libraries\lvgl\src\widgets/lv_arc.c ****     part_draw_dsc.class_p = MY_CLASS;
 1051              		.loc 1 682 0
 1052 01a2 2596     		str	r6, [sp, #148]
 683:..\..\..\arduinoLCD\test\Pain Drain\libraries\lvgl\src\widgets/lv_arc.c ****     part_draw_dsc.type = LV_ARC_DRAW_PART_KNOB;
 1053              		.loc 1 683 0
 1054 01a4 0C4B     		ldr	r3, .L27
 1055 01a6 1993     		str	r3, [sp, #100]
 684:..\..\..\arduinoLCD\test\Pain Drain\libraries\lvgl\src\widgets/lv_arc.c ****     part_draw_dsc.draw_area = &knob_area;
 1056              		.loc 1 684 0
 1057 01a8 0223     		movs	r3, #2
 1058 01aa 1A93     		str	r3, [sp, #104]
 685:..\..\..\arduinoLCD\test\Pain Drain\libraries\lvgl\src\widgets/lv_arc.c ****     part_draw_dsc.rect_dsc = &knob_rect_dsc;
 1059              		.loc 1 685 0
 1060 01ac 1B97     		str	r7, [sp, #108]
 686:..\..\..\arduinoLCD\test\Pain Drain\libraries\lvgl\src\widgets/lv_arc.c ****     lv_event_send(obj, LV_EVENT_DRAW_PART_BEGIN, &part_draw_dsc);
 1061              		.loc 1 686 0
 1062 01ae 1C95     		str	r5, [sp, #112]
 687:..\..\..\arduinoLCD\test\Pain Drain\libraries\lvgl\src\widgets/lv_arc.c **** 
 1063              		.loc 1 687 0
 1064 01b0 18AA     		add	r2, sp, #96
 1065 01b2 1A21     		movs	r1, #26
 1066 01b4 2000     		movs	r0, r4
 1067 01b6 FFF7FEFF 		bl	lv_event_send
 1068              	.LVL154:
 689:..\..\..\arduinoLCD\test\Pain Drain\libraries\lvgl\src\widgets/lv_arc.c **** 
 1069              		.loc 1 689 0
 1070 01ba 3A00     		movs	r2, r7
 1071 01bc 2900     		movs	r1, r5
 1072 01be 0398     		ldr	r0, [sp, #12]
ARM GAS  C:\Users\haske\AppData\Local\Temp\ccmHbbn5.s 			page 44


 1073 01c0 FFF7FEFF 		bl	lv_draw_rect
 1074              	.LVL155:
 691:..\..\..\arduinoLCD\test\Pain Drain\libraries\lvgl\src\widgets/lv_arc.c **** }
 1075              		.loc 1 691 0
 1076 01c4 18AA     		add	r2, sp, #96
 1077 01c6 1B21     		movs	r1, #27
 1078 01c8 2000     		movs	r0, r4
 1079 01ca FFF7FEFF 		bl	lv_event_send
 1080              	.LVL156:
 692:..\..\..\arduinoLCD\test\Pain Drain\libraries\lvgl\src\widgets/lv_arc.c **** 
 1081              		.loc 1 692 0
 1082 01ce 2CB0     		add	sp, sp, #176
 1083              		@ sp needed
 1084              	.LVL157:
 1085 01d0 04BC     		pop	{r2}
 1086 01d2 9146     		mov	r9, r2
 1087 01d4 F0BD     		pop	{r4, r5, r6, r7, pc}
 1088              	.L28:
 1089 01d6 C046     		.align	2
 1090              	.L27:
 1091 01d8 00000000 		.word	.LANCHOR0
 1092              		.cfi_endproc
 1093              	.LFE183:
 1094              		.size	lv_arc_draw, .-lv_arc_draw
 1095              		.section	.text.lv_arc_constructor,"ax",%progbits
 1096              		.align	2
 1097              		.code	16
 1098              		.thumb_func
 1099              		.type	lv_arc_constructor, %function
 1100              	lv_arc_constructor:
 1101              	.LFB181:
 381:..\..\..\arduinoLCD\test\Pain Drain\libraries\lvgl\src\widgets/lv_arc.c ****     LV_UNUSED(class_p);
 1102              		.loc 1 381 0
 1103              		.cfi_startproc
 1104              		@ args = 0, pretend = 0, frame = 0
 1105              		@ frame_needed = 0, uses_anonymous_args = 0
 1106              	.LVL158:
 1107 0000 10B5     		push	{r4, lr}
 1108              		.cfi_def_cfa_offset 8
 1109              		.cfi_offset 4, -8
 1110              		.cfi_offset 14, -4
 1111 0002 0C00     		movs	r4, r1
 1112              	.LVL159:
 388:..\..\..\arduinoLCD\test\Pain Drain\libraries\lvgl\src\widgets/lv_arc.c ****     arc->bg_angle_start = 135;
 1113              		.loc 1 388 0
 1114 0004 0020     		movs	r0, #0
 1115              	.LVL160:
 1116 0006 8884     		strh	r0, [r1, #36]
 389:..\..\..\arduinoLCD\test\Pain Drain\libraries\lvgl\src\widgets/lv_arc.c ****     arc->bg_angle_end   = 45;
 1117              		.loc 1 389 0
 1118 0008 8723     		movs	r3, #135
 1119 000a 4B85     		strh	r3, [r1, #42]
 390:..\..\..\arduinoLCD\test\Pain Drain\libraries\lvgl\src\widgets/lv_arc.c ****     arc->indic_angle_start = 135;
 1120              		.loc 1 390 0
 1121 000c 2D22     		movs	r2, #45
 1122 000e 8A85     		strh	r2, [r1, #44]
 391:..\..\..\arduinoLCD\test\Pain Drain\libraries\lvgl\src\widgets/lv_arc.c ****     arc->indic_angle_end   = 270;
ARM GAS  C:\Users\haske\AppData\Local\Temp\ccmHbbn5.s 			page 45


 1123              		.loc 1 391 0
 1124 0010 CB84     		strh	r3, [r1, #38]
 392:..\..\..\arduinoLCD\test\Pain Drain\libraries\lvgl\src\widgets/lv_arc.c ****     arc->type = LV_ARC_MODE_NORMAL;
 1125              		.loc 1 392 0
 1126 0012 8733     		adds	r3, r3, #135
 1127 0014 0B85     		strh	r3, [r1, #40]
 393:..\..\..\arduinoLCD\test\Pain Drain\libraries\lvgl\src\widgets/lv_arc.c ****     arc->value = VALUE_UNSET;
 1128              		.loc 1 393 0
 1129 0016 3421     		movs	r1, #52
 1130              	.LVL161:
 1131 0018 635C     		ldrb	r3, [r4, r1]
 394:..\..\..\arduinoLCD\test\Pain Drain\libraries\lvgl\src\widgets/lv_arc.c ****     arc->min_close = 1;
 1132              		.loc 1 394 0
 1133 001a 114A     		ldr	r2, .L30
 1134 001c E285     		strh	r2, [r4, #46]
 395:..\..\..\arduinoLCD\test\Pain Drain\libraries\lvgl\src\widgets/lv_arc.c ****     arc->min_value = 0;
 1135              		.loc 1 395 0
 1136 001e 0622     		movs	r2, #6
 1137 0020 9343     		bics	r3, r2
 1138 0022 0822     		movs	r2, #8
 1139 0024 1343     		orrs	r3, r2
 396:..\..\..\arduinoLCD\test\Pain Drain\libraries\lvgl\src\widgets/lv_arc.c ****     arc->max_value = 100;
 1140              		.loc 1 396 0
 1141 0026 2086     		strh	r0, [r4, #48]
 397:..\..\..\arduinoLCD\test\Pain Drain\libraries\lvgl\src\widgets/lv_arc.c ****     arc->dragging = false;
 1142              		.loc 1 397 0
 1143 0028 6422     		movs	r2, #100
 1144 002a 6286     		strh	r2, [r4, #50]
 398:..\..\..\arduinoLCD\test\Pain Drain\libraries\lvgl\src\widgets/lv_arc.c ****     arc->chg_rate = 720;
 1145              		.loc 1 398 0
 1146 002c DBB2     		uxtb	r3, r3
 1147 002e 633A     		subs	r2, r2, #99
 1148 0030 9343     		bics	r3, r2
 1149 0032 6354     		strb	r3, [r4, r1]
 399:..\..\..\arduinoLCD\test\Pain Drain\libraries\lvgl\src\widgets/lv_arc.c ****     arc->last_tick = lv_tick_get();
 1150              		.loc 1 399 0
 1151 0034 B423     		movs	r3, #180
 1152 0036 9B00     		lsls	r3, r3, #2
 1153 0038 E386     		strh	r3, [r4, #54]
 400:..\..\..\arduinoLCD\test\Pain Drain\libraries\lvgl\src\widgets/lv_arc.c ****     arc->last_angle = arc->indic_angle_end;
 1154              		.loc 1 400 0
 1155 003a FFF7FEFF 		bl	lv_tick_get
 1156              	.LVL162:
 1157 003e A063     		str	r0, [r4, #56]
 401:..\..\..\arduinoLCD\test\Pain Drain\libraries\lvgl\src\widgets/lv_arc.c **** 
 1158              		.loc 1 401 0
 1159 0040 238D     		ldrh	r3, [r4, #40]
 1160 0042 A387     		strh	r3, [r4, #60]
 403:..\..\..\arduinoLCD\test\Pain Drain\libraries\lvgl\src\widgets/lv_arc.c ****     lv_obj_clear_flag(obj, LV_OBJ_FLAG_SCROLL_CHAIN | LV_OBJ_FLAG_SCROLLABLE);
 1161              		.loc 1 403 0
 1162 0044 0221     		movs	r1, #2
 1163 0046 2000     		movs	r0, r4
 1164 0048 FFF7FEFF 		bl	lv_obj_add_flag
 1165              	.LVL163:
 404:..\..\..\arduinoLCD\test\Pain Drain\libraries\lvgl\src\widgets/lv_arc.c ****     lv_obj_set_ext_click_area(obj, LV_DPI_DEF / 10);
 1166              		.loc 1 404 0
 1167 004c C421     		movs	r1, #196
ARM GAS  C:\Users\haske\AppData\Local\Temp\ccmHbbn5.s 			page 46


 1168 004e 8900     		lsls	r1, r1, #2
 1169 0050 2000     		movs	r0, r4
 1170 0052 FFF7FEFF 		bl	lv_obj_clear_flag
 1171              	.LVL164:
 405:..\..\..\arduinoLCD\test\Pain Drain\libraries\lvgl\src\widgets/lv_arc.c **** 
 1172              		.loc 1 405 0
 1173 0056 0D21     		movs	r1, #13
 1174 0058 2000     		movs	r0, r4
 1175 005a FFF7FEFF 		bl	lv_obj_set_ext_click_area
 1176              	.LVL165:
 409:..\..\..\arduinoLCD\test\Pain Drain\libraries\lvgl\src\widgets/lv_arc.c **** 
 1177              		.loc 1 409 0
 1178              		@ sp needed
 1179              	.LVL166:
 1180 005e 10BD     		pop	{r4, pc}
 1181              	.L31:
 1182              		.align	2
 1183              	.L30:
 1184 0060 0080FFFF 		.word	-32768
 1185              		.cfi_endproc
 1186              	.LFE181:
 1187              		.size	lv_arc_constructor, .-lv_arc_constructor
 1188              		.section	.text.inv_arc_area,"ax",%progbits
 1189              		.align	2
 1190              		.code	16
 1191              		.thumb_func
 1192              		.type	inv_arc_area, %function
 1193              	inv_arc_area:
 1194              	.LFB184:
 695:..\..\..\arduinoLCD\test\Pain Drain\libraries\lvgl\src\widgets/lv_arc.c ****     LV_ASSERT_OBJ(obj, MY_CLASS);
 1195              		.loc 1 695 0
 1196              		.cfi_startproc
 1197              		@ args = 0, pretend = 0, frame = 24
 1198              		@ frame_needed = 0, uses_anonymous_args = 0
 1199              	.LVL167:
 1200 0000 F0B5     		push	{r4, r5, r6, r7, lr}
 1201              		.cfi_def_cfa_offset 20
 1202              		.cfi_offset 4, -20
 1203              		.cfi_offset 5, -16
 1204              		.cfi_offset 6, -12
 1205              		.cfi_offset 7, -8
 1206              		.cfi_offset 14, -4
 1207 0002 5746     		mov	r7, r10
 1208 0004 4E46     		mov	r6, r9
 1209 0006 C0B4     		push	{r6, r7}
 1210              		.cfi_def_cfa_offset 28
 1211              		.cfi_offset 9, -28
 1212              		.cfi_offset 10, -24
 1213 0008 8BB0     		sub	sp, sp, #44
 1214              		.cfi_def_cfa_offset 72
 1215 000a 0600     		movs	r6, r0
 1216 000c 0D00     		movs	r5, r1
 1217 000e 1400     		movs	r4, r2
 1218 0010 0593     		str	r3, [sp, #20]
 699:..\..\..\arduinoLCD\test\Pain Drain\libraries\lvgl\src\widgets/lv_arc.c **** 
 1219              		.loc 1 699 0
 1220 0012 FFF7FEFF 		bl	lv_obj_is_visible
ARM GAS  C:\Users\haske\AppData\Local\Temp\ccmHbbn5.s 			page 47


 1221              	.LVL168:
 1222 0016 0028     		cmp	r0, #0
 1223 0018 50D0     		beq	.L32
 1224              	.LVL169:
 703:..\..\..\arduinoLCD\test\Pain Drain\libraries\lvgl\src\widgets/lv_arc.c **** 
 1225              		.loc 1 703 0
 1226 001a A542     		cmp	r5, r4
 1227 001c 4ED0     		beq	.L32
 705:..\..\..\arduinoLCD\test\Pain Drain\libraries\lvgl\src\widgets/lv_arc.c ****     if(end_angle > 360) end_angle -= 360;
 1228              		.loc 1 705 0
 1229 001e B423     		movs	r3, #180
 1230 0020 5B00     		lsls	r3, r3, #1
 1231 0022 9D42     		cmp	r5, r3
 1232 0024 02D9     		bls	.L34
 705:..\..\..\arduinoLCD\test\Pain Drain\libraries\lvgl\src\widgets/lv_arc.c ****     if(end_angle > 360) end_angle -= 360;
 1233              		.loc 1 705 0 is_stmt 0 discriminator 1
 1234 0026 693D     		subs	r5, r5, #105
 1235 0028 FF3D     		subs	r5, r5, #255
 1236 002a ADB2     		uxth	r5, r5
 1237              	.LVL170:
 1238              	.L34:
 706:..\..\..\arduinoLCD\test\Pain Drain\libraries\lvgl\src\widgets/lv_arc.c **** 
 1239              		.loc 1 706 0 is_stmt 1
 1240 002c B423     		movs	r3, #180
 1241 002e 5B00     		lsls	r3, r3, #1
 1242 0030 9C42     		cmp	r4, r3
 1243 0032 02D9     		bls	.L35
 706:..\..\..\arduinoLCD\test\Pain Drain\libraries\lvgl\src\widgets/lv_arc.c **** 
 1244              		.loc 1 706 0 is_stmt 0 discriminator 1
 1245 0034 693C     		subs	r4, r4, #105
 1246 0036 FF3C     		subs	r4, r4, #255
 1247 0038 A4B2     		uxth	r4, r4
 1248              	.LVL171:
 1249              	.L35:
 708:..\..\..\arduinoLCD\test\Pain Drain\libraries\lvgl\src\widgets/lv_arc.c ****     end_angle += arc->rotation;
 1250              		.loc 1 708 0 is_stmt 1
 1251 003a B38C     		ldrh	r3, [r6, #36]
 1252 003c ED18     		adds	r5, r5, r3
 1253              	.LVL172:
 1254 003e AFB2     		uxth	r7, r5
 1255              	.LVL173:
 709:..\..\..\arduinoLCD\test\Pain Drain\libraries\lvgl\src\widgets/lv_arc.c **** 
 1256              		.loc 1 709 0
 1257 0040 E418     		adds	r4, r4, r3
 1258              	.LVL174:
 1259 0042 A4B2     		uxth	r4, r4
 1260              	.LVL175:
 711:..\..\..\arduinoLCD\test\Pain Drain\libraries\lvgl\src\widgets/lv_arc.c ****     if(end_angle > 360) end_angle -= 360;
 1261              		.loc 1 711 0
 1262 0044 B423     		movs	r3, #180
 1263 0046 5B00     		lsls	r3, r3, #1
 1264 0048 9F42     		cmp	r7, r3
 1265 004a 03D9     		bls	.L36
 711:..\..\..\arduinoLCD\test\Pain Drain\libraries\lvgl\src\widgets/lv_arc.c ****     if(end_angle > 360) end_angle -= 360;
 1266              		.loc 1 711 0 is_stmt 0 discriminator 1
 1267 004c 3D00     		movs	r5, r7
 1268 004e 693D     		subs	r5, r5, #105
ARM GAS  C:\Users\haske\AppData\Local\Temp\ccmHbbn5.s 			page 48


 1269 0050 FF3D     		subs	r5, r5, #255
 1270 0052 AFB2     		uxth	r7, r5
 1271              	.LVL176:
 1272              	.L36:
 712:..\..\..\arduinoLCD\test\Pain Drain\libraries\lvgl\src\widgets/lv_arc.c **** 
 1273              		.loc 1 712 0 is_stmt 1
 1274 0054 B423     		movs	r3, #180
 1275 0056 5B00     		lsls	r3, r3, #1
 1276 0058 9C42     		cmp	r4, r3
 1277 005a 02D9     		bls	.L37
 712:..\..\..\arduinoLCD\test\Pain Drain\libraries\lvgl\src\widgets/lv_arc.c **** 
 1278              		.loc 1 712 0 is_stmt 0 discriminator 1
 1279 005c 693C     		subs	r4, r4, #105
 1280              	.LVL177:
 1281 005e FF3C     		subs	r4, r4, #255
 1282              	.LVL178:
 1283 0060 A4B2     		uxth	r4, r4
 1284              	.LVL179:
 1285              	.L37:
 716:..\..\..\arduinoLCD\test\Pain Drain\libraries\lvgl\src\widgets/lv_arc.c **** 
 1286              		.loc 1 716 0 is_stmt 1
 1287 0062 1E23     		movs	r3, #30
 1288 0064 02AA     		add	r2, sp, #8
 1289 0066 9446     		mov	ip, r2
 1290 0068 6344     		add	r3, r3, ip
 1291 006a 9A46     		mov	r10, r3
 1292 006c 08AD     		add	r5, sp, #32
 1293 006e 1A00     		movs	r2, r3
 1294 0070 2900     		movs	r1, r5
 1295 0072 3000     		movs	r0, r6
 1296 0074 FFF7FEFF 		bl	get_center
 1297              	.LVL180:
 1298              	.LBB129:
 1299              	.LBB130:
 411:..\..\..\arduinoLCD\test\Pain Drain\libraries\lvgl\src\widgets\../core/lv_obj_style_gen.h ****     return (lv_coord_t)v.num;
 1300              		.loc 2 411 0
 1301 0078 5022     		movs	r2, #80
 1302 007a 0599     		ldr	r1, [sp, #20]
 1303 007c 3000     		movs	r0, r6
 1304 007e FFF7FEFF 		bl	lv_obj_get_style_prop
 1305              	.LVL181:
 1306              		.loc 2 412 0
 1307 0082 03B2     		sxth	r3, r0
 1308 0084 9946     		mov	r9, r3
 1309              	.LVL182:
 1310              	.LBE130:
 1311              	.LBE129:
 1312              	.LBB131:
 1313              	.LBB132:
 413:..\..\..\arduinoLCD\test\Pain Drain\libraries\lvgl\src\widgets\../core/lv_obj_style_gen.h **** }
 414:..\..\..\arduinoLCD\test\Pain Drain\libraries\lvgl\src\widgets\../core/lv_obj_style_gen.h **** 
 415:..\..\..\arduinoLCD\test\Pain Drain\libraries\lvgl\src\widgets\../core/lv_obj_style_gen.h **** static inline bool lv_obj_get_style_arc_rounded(const struct _lv_obj_t * obj, uint32_t part)
 416:..\..\..\arduinoLCD\test\Pain Drain\libraries\lvgl\src\widgets\../core/lv_obj_style_gen.h **** {
 417:..\..\..\arduinoLCD\test\Pain Drain\libraries\lvgl\src\widgets\../core/lv_obj_style_gen.h ****     lv_style_value_t v = lv_obj_get_style_prop(obj, part, LV_STYLE_ARC_ROUNDED);
 1314              		.loc 2 417 0
 1315 0086 5122     		movs	r2, #81
 1316 0088 0599     		ldr	r1, [sp, #20]
ARM GAS  C:\Users\haske\AppData\Local\Temp\ccmHbbn5.s 			page 49


 1317 008a 3000     		movs	r0, r6
 1318 008c FFF7FEFF 		bl	lv_obj_get_style_prop
 1319              	.LVL183:
 418:..\..\..\arduinoLCD\test\Pain Drain\libraries\lvgl\src\widgets\../core/lv_obj_style_gen.h ****     return (bool)v.num;
 1320              		.loc 2 418 0
 1321 0090 0300     		movs	r3, r0
 1322 0092 581E     		subs	r0, r3, #1
 1323 0094 8341     		sbcs	r3, r3, r0
 1324              	.LVL184:
 1325              	.LBE132:
 1326              	.LBE131:
 722:..\..\..\arduinoLCD\test\Pain Drain\libraries\lvgl\src\widgets/lv_arc.c **** 
 1327              		.loc 1 722 0
 1328 0096 5246     		mov	r2, r10
 1329 0098 1288     		ldrh	r2, [r2]
 1330 009a 0220     		movs	r0, #2
 1331 009c 295E     		ldrsh	r1, [r5, r0]
 1332 009e 0020     		movs	r0, #0
 1333 00a0 285E     		ldrsh	r0, [r5, r0]
 1334 00a2 06AD     		add	r5, sp, #24
 1335 00a4 0395     		str	r5, [sp, #12]
 1336 00a6 0293     		str	r3, [sp, #8]
 1337 00a8 4B46     		mov	r3, r9
 1338              	.LVL185:
 1339 00aa 0193     		str	r3, [sp, #4]
 1340 00ac 0094     		str	r4, [sp]
 1341 00ae 3B00     		movs	r3, r7
 1342 00b0 FFF7FEFF 		bl	lv_draw_arc_get_area
 1343              	.LVL186:
 724:..\..\..\arduinoLCD\test\Pain Drain\libraries\lvgl\src\widgets/lv_arc.c **** }
 1344              		.loc 1 724 0
 1345 00b4 2900     		movs	r1, r5
 1346 00b6 3000     		movs	r0, r6
 1347 00b8 FFF7FEFF 		bl	lv_obj_invalidate_area
 1348              	.LVL187:
 1349              	.L32:
 725:..\..\..\arduinoLCD\test\Pain Drain\libraries\lvgl\src\widgets/lv_arc.c **** 
 1350              		.loc 1 725 0
 1351 00bc 0BB0     		add	sp, sp, #44
 1352              		@ sp needed
 1353              	.LVL188:
 1354 00be 0CBC     		pop	{r2, r3}
 1355 00c0 9146     		mov	r9, r2
 1356 00c2 9A46     		mov	r10, r3
 1357 00c4 F0BD     		pop	{r4, r5, r6, r7, pc}
 1358              		.cfi_endproc
 1359              	.LFE184:
 1360              		.size	inv_arc_area, .-inv_arc_area
 1361 00c6 C046     		.section	.text.inv_knob_area,"ax",%progbits
 1362              		.align	2
 1363              		.code	16
 1364              		.thumb_func
 1365              		.type	inv_knob_area, %function
 1366              	inv_knob_area:
 1367              	.LFB185:
 728:..\..\..\arduinoLCD\test\Pain Drain\libraries\lvgl\src\widgets/lv_arc.c ****     lv_point_t c;
 1368              		.loc 1 728 0
ARM GAS  C:\Users\haske\AppData\Local\Temp\ccmHbbn5.s 			page 50


 1369              		.cfi_startproc
 1370              		@ args = 0, pretend = 0, frame = 16
 1371              		@ frame_needed = 0, uses_anonymous_args = 0
 1372              	.LVL189:
 1373 0000 30B5     		push	{r4, r5, lr}
 1374              		.cfi_def_cfa_offset 12
 1375              		.cfi_offset 4, -12
 1376              		.cfi_offset 5, -8
 1377              		.cfi_offset 14, -4
 1378 0002 85B0     		sub	sp, sp, #20
 1379              		.cfi_def_cfa_offset 32
 1380 0004 0400     		movs	r4, r0
 731:..\..\..\arduinoLCD\test\Pain Drain\libraries\lvgl\src\widgets/lv_arc.c **** 
 1381              		.loc 1 731 0
 1382 0006 0A25     		movs	r5, #10
 1383 0008 6D44     		add	r5, r5, sp
 1384 000a 2A00     		movs	r2, r5
 1385 000c 03A9     		add	r1, sp, #12
 1386 000e FFF7FEFF 		bl	get_center
 1387              	.LVL190:
 734:..\..\..\arduinoLCD\test\Pain Drain\libraries\lvgl\src\widgets/lv_arc.c **** 
 1388              		.loc 1 734 0
 1389 0012 0023     		movs	r3, #0
 1390 0014 EA5E     		ldrsh	r2, [r5, r3]
 1391 0016 6B46     		mov	r3, sp
 1392 0018 03A9     		add	r1, sp, #12
 1393 001a 2000     		movs	r0, r4
 1394 001c FFF7FEFF 		bl	get_knob_area
 1395              	.LVL191:
 736:..\..\..\arduinoLCD\test\Pain Drain\libraries\lvgl\src\widgets/lv_arc.c **** 
 1396              		.loc 1 736 0
 1397 0020 2000     		movs	r0, r4
 1398 0022 FFF7FEFF 		bl	knob_get_extra_size
 1399              	.LVL192:
 738:..\..\..\arduinoLCD\test\Pain Drain\libraries\lvgl\src\widgets/lv_arc.c ****         lv_area_increase(&a, knob_extra_size, knob_extra_size);
 1400              		.loc 1 738 0
 1401 0026 0028     		cmp	r0, #0
 1402 0028 04DD     		ble	.L40
 739:..\..\..\arduinoLCD\test\Pain Drain\libraries\lvgl\src\widgets/lv_arc.c ****     }
 1403              		.loc 1 739 0
 1404 002a 0200     		movs	r2, r0
 1405 002c 0100     		movs	r1, r0
 1406 002e 6846     		mov	r0, sp
 1407              	.LVL193:
 1408 0030 FFF7FEFF 		bl	lv_area_increase
 1409              	.LVL194:
 1410              	.L40:
 742:..\..\..\arduinoLCD\test\Pain Drain\libraries\lvgl\src\widgets/lv_arc.c **** }
 1411              		.loc 1 742 0
 1412 0034 6946     		mov	r1, sp
 1413 0036 2000     		movs	r0, r4
 1414 0038 FFF7FEFF 		bl	lv_obj_invalidate_area
 1415              	.LVL195:
 743:..\..\..\arduinoLCD\test\Pain Drain\libraries\lvgl\src\widgets/lv_arc.c **** 
 1416              		.loc 1 743 0
 1417 003c 05B0     		add	sp, sp, #20
 1418              		@ sp needed
ARM GAS  C:\Users\haske\AppData\Local\Temp\ccmHbbn5.s 			page 51


 1419              	.LVL196:
 1420 003e 30BD     		pop	{r4, r5, pc}
 1421              		.cfi_endproc
 1422              	.LFE185:
 1423              		.size	inv_knob_area, .-inv_knob_area
 1424              		.section	.text.lv_arc_create,"ax",%progbits
 1425              		.align	2
 1426              		.global	lv_arc_create
 1427              		.code	16
 1428              		.thumb_func
 1429              		.type	lv_arc_create, %function
 1430              	lv_arc_create:
 1431              	.LFB159:
  64:..\..\..\arduinoLCD\test\Pain Drain\libraries\lvgl\src\widgets/lv_arc.c ****     LV_LOG_INFO("begin");
 1432              		.loc 1 64 0
 1433              		.cfi_startproc
 1434              		@ args = 0, pretend = 0, frame = 0
 1435              		@ frame_needed = 0, uses_anonymous_args = 0
 1436              	.LVL197:
 1437 0000 10B5     		push	{r4, lr}
 1438              		.cfi_def_cfa_offset 8
 1439              		.cfi_offset 4, -8
 1440              		.cfi_offset 14, -4
 1441 0002 0100     		movs	r1, r0
  66:..\..\..\arduinoLCD\test\Pain Drain\libraries\lvgl\src\widgets/lv_arc.c ****     lv_obj_class_init_obj(obj);
 1442              		.loc 1 66 0
 1443 0004 0348     		ldr	r0, .L42
 1444              	.LVL198:
 1445 0006 FFF7FEFF 		bl	lv_obj_class_create_obj
 1446              	.LVL199:
 1447 000a 0400     		movs	r4, r0
 1448              	.LVL200:
  67:..\..\..\arduinoLCD\test\Pain Drain\libraries\lvgl\src\widgets/lv_arc.c ****     return obj;
 1449              		.loc 1 67 0
 1450 000c FFF7FEFF 		bl	lv_obj_class_init_obj
 1451              	.LVL201:
  69:..\..\..\arduinoLCD\test\Pain Drain\libraries\lvgl\src\widgets/lv_arc.c **** 
 1452              		.loc 1 69 0
 1453 0010 2000     		movs	r0, r4
 1454              		@ sp needed
 1455              	.LVL202:
 1456 0012 10BD     		pop	{r4, pc}
 1457              	.L43:
 1458              		.align	2
 1459              	.L42:
 1460 0014 00000000 		.word	.LANCHOR0
 1461              		.cfi_endproc
 1462              	.LFE159:
 1463              		.size	lv_arc_create, .-lv_arc_create
 1464              		.section	.text.lv_arc_set_start_angle,"ax",%progbits
 1465              		.align	2
 1466              		.global	lv_arc_set_start_angle
 1467              		.code	16
 1468              		.thumb_func
 1469              		.type	lv_arc_set_start_angle, %function
 1470              	lv_arc_set_start_angle:
 1471              	.LFB160:
ARM GAS  C:\Users\haske\AppData\Local\Temp\ccmHbbn5.s 			page 52


  84:..\..\..\arduinoLCD\test\Pain Drain\libraries\lvgl\src\widgets/lv_arc.c ****     LV_ASSERT_OBJ(obj, MY_CLASS);
 1472              		.loc 1 84 0
 1473              		.cfi_startproc
 1474              		@ args = 0, pretend = 0, frame = 0
 1475              		@ frame_needed = 0, uses_anonymous_args = 0
 1476              	.LVL203:
 1477 0000 70B5     		push	{r4, r5, r6, lr}
 1478              		.cfi_def_cfa_offset 16
 1479              		.cfi_offset 4, -16
 1480              		.cfi_offset 5, -12
 1481              		.cfi_offset 6, -8
 1482              		.cfi_offset 14, -4
 1483 0002 0400     		movs	r4, r0
 1484 0004 0D00     		movs	r5, r1
 1485              	.LVL204:
  88:..\..\..\arduinoLCD\test\Pain Drain\libraries\lvgl\src\widgets/lv_arc.c **** 
 1486              		.loc 1 88 0
 1487 0006 B423     		movs	r3, #180
 1488 0008 5B00     		lsls	r3, r3, #1
 1489 000a 9942     		cmp	r1, r3
 1490 000c 02D9     		bls	.L45
  88:..\..\..\arduinoLCD\test\Pain Drain\libraries\lvgl\src\widgets/lv_arc.c **** 
 1491              		.loc 1 88 0 is_stmt 0 discriminator 1
 1492 000e 693D     		subs	r5, r5, #105
 1493 0010 FF3D     		subs	r5, r5, #255
 1494 0012 ADB2     		uxth	r5, r5
 1495              	.LVL205:
 1496              	.L45:
  90:..\..\..\arduinoLCD\test\Pain Drain\libraries\lvgl\src\widgets/lv_arc.c ****     int16_t new_delta = arc->indic_angle_end - start;
 1497              		.loc 1 90 0 is_stmt 1
 1498 0014 238D     		ldrh	r3, [r4, #40]
 1499 0016 E18C     		ldrh	r1, [r4, #38]
 1500 0018 5A1A     		subs	r2, r3, r1
 1501 001a 92B2     		uxth	r2, r2
 1502 001c 16B2     		sxth	r6, r2
 1503              	.LVL206:
  91:..\..\..\arduinoLCD\test\Pain Drain\libraries\lvgl\src\widgets/lv_arc.c **** 
 1504              		.loc 1 91 0
 1505 001e 5B1B     		subs	r3, r3, r5
 1506 0020 9BB2     		uxth	r3, r3
 1507 0022 18B2     		sxth	r0, r3
 1508              	.LVL207:
  93:..\..\..\arduinoLCD\test\Pain Drain\libraries\lvgl\src\widgets/lv_arc.c ****     if(new_delta < 0) new_delta = 360 + new_delta;
 1509              		.loc 1 93 0
 1510 0024 002E     		cmp	r6, #0
 1511 0026 02DA     		bge	.L46
  93:..\..\..\arduinoLCD\test\Pain Drain\libraries\lvgl\src\widgets/lv_arc.c ****     if(new_delta < 0) new_delta = 360 + new_delta;
 1512              		.loc 1 93 0 is_stmt 0 discriminator 1
 1513 0028 6932     		adds	r2, r2, #105
 1514 002a FF32     		adds	r2, r2, #255
 1515 002c 16B2     		sxth	r6, r2
 1516              	.LVL208:
 1517              	.L46:
  94:..\..\..\arduinoLCD\test\Pain Drain\libraries\lvgl\src\widgets/lv_arc.c **** 
 1518              		.loc 1 94 0 is_stmt 1
 1519 002e 0028     		cmp	r0, #0
 1520 0030 02DA     		bge	.L47
ARM GAS  C:\Users\haske\AppData\Local\Temp\ccmHbbn5.s 			page 53


  94:..\..\..\arduinoLCD\test\Pain Drain\libraries\lvgl\src\widgets/lv_arc.c **** 
 1521              		.loc 1 94 0 is_stmt 0 discriminator 1
 1522 0032 6933     		adds	r3, r3, #105
 1523 0034 FF33     		adds	r3, r3, #255
 1524 0036 18B2     		sxth	r0, r3
 1525              	.LVL209:
 1526              	.L47:
  96:..\..\..\arduinoLCD\test\Pain Drain\libraries\lvgl\src\widgets/lv_arc.c ****     else if(new_delta < old_delta) inv_arc_area(obj, arc->indic_angle_start, start, LV_PART_INDICAT
 1527              		.loc 1 96 0 is_stmt 1
 1528 0038 831B     		subs	r3, r0, r6
 1529 003a DA17     		asrs	r2, r3, #31
 1530 003c 9B18     		adds	r3, r3, r2
 1531 003e 5340     		eors	r3, r2
 1532 0040 B42B     		cmp	r3, #180
 1533 0042 03DD     		ble	.L48
  96:..\..\..\arduinoLCD\test\Pain Drain\libraries\lvgl\src\widgets/lv_arc.c ****     else if(new_delta < old_delta) inv_arc_area(obj, arc->indic_angle_start, start, LV_PART_INDICAT
 1534              		.loc 1 96 0 is_stmt 0 discriminator 1
 1535 0044 2000     		movs	r0, r4
 1536              	.LVL210:
 1537 0046 FFF7FEFF 		bl	lv_obj_invalidate
 1538              	.LVL211:
 1539 004a 11E0     		b	.L49
 1540              	.LVL212:
 1541              	.L48:
  97:..\..\..\arduinoLCD\test\Pain Drain\libraries\lvgl\src\widgets/lv_arc.c ****     else if(old_delta < new_delta) inv_arc_area(obj, start, arc->indic_angle_start, LV_PART_INDICAT
 1542              		.loc 1 97 0 is_stmt 1
 1543 004c 8642     		cmp	r6, r0
 1544 004e 06DD     		ble	.L50
  97:..\..\..\arduinoLCD\test\Pain Drain\libraries\lvgl\src\widgets/lv_arc.c ****     else if(old_delta < new_delta) inv_arc_area(obj, start, arc->indic_angle_start, LV_PART_INDICAT
 1545              		.loc 1 97 0 is_stmt 0 discriminator 1
 1546 0050 8023     		movs	r3, #128
 1547 0052 9B02     		lsls	r3, r3, #10
 1548 0054 2A00     		movs	r2, r5
 1549 0056 2000     		movs	r0, r4
 1550              	.LVL213:
 1551 0058 FFF7FEFF 		bl	inv_arc_area
 1552              	.LVL214:
 1553 005c 08E0     		b	.L49
 1554              	.LVL215:
 1555              	.L50:
  98:..\..\..\arduinoLCD\test\Pain Drain\libraries\lvgl\src\widgets/lv_arc.c **** 
 1556              		.loc 1 98 0 is_stmt 1
 1557 005e 8642     		cmp	r6, r0
 1558 0060 06DA     		bge	.L49
  98:..\..\..\arduinoLCD\test\Pain Drain\libraries\lvgl\src\widgets/lv_arc.c **** 
 1559              		.loc 1 98 0 is_stmt 0 discriminator 1
 1560 0062 8023     		movs	r3, #128
 1561 0064 9B02     		lsls	r3, r3, #10
 1562 0066 0A00     		movs	r2, r1
 1563 0068 2900     		movs	r1, r5
 1564 006a 2000     		movs	r0, r4
 1565              	.LVL216:
 1566 006c FFF7FEFF 		bl	inv_arc_area
 1567              	.LVL217:
 1568              	.L49:
 100:..\..\..\arduinoLCD\test\Pain Drain\libraries\lvgl\src\widgets/lv_arc.c **** 
 1569              		.loc 1 100 0 is_stmt 1
ARM GAS  C:\Users\haske\AppData\Local\Temp\ccmHbbn5.s 			page 54


 1570 0070 2000     		movs	r0, r4
 1571 0072 FFF7FEFF 		bl	inv_knob_area
 1572              	.LVL218:
 102:..\..\..\arduinoLCD\test\Pain Drain\libraries\lvgl\src\widgets/lv_arc.c **** 
 1573              		.loc 1 102 0
 1574 0076 E584     		strh	r5, [r4, #38]
 104:..\..\..\arduinoLCD\test\Pain Drain\libraries\lvgl\src\widgets/lv_arc.c **** }
 1575              		.loc 1 104 0
 1576 0078 2000     		movs	r0, r4
 1577 007a FFF7FEFF 		bl	inv_knob_area
 1578              	.LVL219:
 105:..\..\..\arduinoLCD\test\Pain Drain\libraries\lvgl\src\widgets/lv_arc.c **** 
 1579              		.loc 1 105 0
 1580              		@ sp needed
 1581              	.LVL220:
 1582              	.LVL221:
 1583              	.LVL222:
 1584 007e 70BD     		pop	{r4, r5, r6, pc}
 1585              		.cfi_endproc
 1586              	.LFE160:
 1587              		.size	lv_arc_set_start_angle, .-lv_arc_set_start_angle
 1588              		.section	.text.lv_arc_set_end_angle,"ax",%progbits
 1589              		.align	2
 1590              		.global	lv_arc_set_end_angle
 1591              		.code	16
 1592              		.thumb_func
 1593              		.type	lv_arc_set_end_angle, %function
 1594              	lv_arc_set_end_angle:
 1595              	.LFB161:
 108:..\..\..\arduinoLCD\test\Pain Drain\libraries\lvgl\src\widgets/lv_arc.c ****     LV_ASSERT_OBJ(obj, MY_CLASS);
 1596              		.loc 1 108 0
 1597              		.cfi_startproc
 1598              		@ args = 0, pretend = 0, frame = 0
 1599              		@ frame_needed = 0, uses_anonymous_args = 0
 1600              	.LVL223:
 1601 0000 70B5     		push	{r4, r5, r6, lr}
 1602              		.cfi_def_cfa_offset 16
 1603              		.cfi_offset 4, -16
 1604              		.cfi_offset 5, -12
 1605              		.cfi_offset 6, -8
 1606              		.cfi_offset 14, -4
 1607 0002 0400     		movs	r4, r0
 1608 0004 0D00     		movs	r5, r1
 1609              	.LVL224:
 111:..\..\..\arduinoLCD\test\Pain Drain\libraries\lvgl\src\widgets/lv_arc.c **** 
 1610              		.loc 1 111 0
 1611 0006 B423     		movs	r3, #180
 1612 0008 5B00     		lsls	r3, r3, #1
 1613 000a 9942     		cmp	r1, r3
 1614 000c 02D9     		bls	.L52
 111:..\..\..\arduinoLCD\test\Pain Drain\libraries\lvgl\src\widgets/lv_arc.c **** 
 1615              		.loc 1 111 0 is_stmt 0 discriminator 1
 1616 000e 693D     		subs	r5, r5, #105
 1617 0010 FF3D     		subs	r5, r5, #255
 1618 0012 ADB2     		uxth	r5, r5
 1619              	.LVL225:
 1620              	.L52:
ARM GAS  C:\Users\haske\AppData\Local\Temp\ccmHbbn5.s 			page 55


 113:..\..\..\arduinoLCD\test\Pain Drain\libraries\lvgl\src\widgets/lv_arc.c ****     int16_t new_delta = end - arc->indic_angle_start;
 1621              		.loc 1 113 0 is_stmt 1
 1622 0014 218D     		ldrh	r1, [r4, #40]
 1623 0016 E38C     		ldrh	r3, [r4, #38]
 1624 0018 CA1A     		subs	r2, r1, r3
 1625 001a 92B2     		uxth	r2, r2
 1626 001c 16B2     		sxth	r6, r2
 1627              	.LVL226:
 114:..\..\..\arduinoLCD\test\Pain Drain\libraries\lvgl\src\widgets/lv_arc.c **** 
 1628              		.loc 1 114 0
 1629 001e EB1A     		subs	r3, r5, r3
 1630 0020 9BB2     		uxth	r3, r3
 1631 0022 18B2     		sxth	r0, r3
 1632              	.LVL227:
 116:..\..\..\arduinoLCD\test\Pain Drain\libraries\lvgl\src\widgets/lv_arc.c ****     if(new_delta < 0) new_delta = 360 + new_delta;
 1633              		.loc 1 116 0
 1634 0024 002E     		cmp	r6, #0
 1635 0026 02DA     		bge	.L53
 116:..\..\..\arduinoLCD\test\Pain Drain\libraries\lvgl\src\widgets/lv_arc.c ****     if(new_delta < 0) new_delta = 360 + new_delta;
 1636              		.loc 1 116 0 is_stmt 0 discriminator 1
 1637 0028 6932     		adds	r2, r2, #105
 1638 002a FF32     		adds	r2, r2, #255
 1639 002c 16B2     		sxth	r6, r2
 1640              	.LVL228:
 1641              	.L53:
 117:..\..\..\arduinoLCD\test\Pain Drain\libraries\lvgl\src\widgets/lv_arc.c **** 
 1642              		.loc 1 117 0 is_stmt 1
 1643 002e 0028     		cmp	r0, #0
 1644 0030 02DA     		bge	.L54
 117:..\..\..\arduinoLCD\test\Pain Drain\libraries\lvgl\src\widgets/lv_arc.c **** 
 1645              		.loc 1 117 0 is_stmt 0 discriminator 1
 1646 0032 6933     		adds	r3, r3, #105
 1647 0034 FF33     		adds	r3, r3, #255
 1648 0036 18B2     		sxth	r0, r3
 1649              	.LVL229:
 1650              	.L54:
 119:..\..\..\arduinoLCD\test\Pain Drain\libraries\lvgl\src\widgets/lv_arc.c ****     else if(new_delta < old_delta) inv_arc_area(obj, end, arc->indic_angle_end, LV_PART_INDICATOR);
 1651              		.loc 1 119 0 is_stmt 1
 1652 0038 831B     		subs	r3, r0, r6
 1653 003a DA17     		asrs	r2, r3, #31
 1654 003c 9B18     		adds	r3, r3, r2
 1655 003e 5340     		eors	r3, r2
 1656 0040 B42B     		cmp	r3, #180
 1657 0042 03DD     		ble	.L55
 119:..\..\..\arduinoLCD\test\Pain Drain\libraries\lvgl\src\widgets/lv_arc.c ****     else if(new_delta < old_delta) inv_arc_area(obj, end, arc->indic_angle_end, LV_PART_INDICATOR);
 1658              		.loc 1 119 0 is_stmt 0 discriminator 1
 1659 0044 2000     		movs	r0, r4
 1660              	.LVL230:
 1661 0046 FFF7FEFF 		bl	lv_obj_invalidate
 1662              	.LVL231:
 1663 004a 11E0     		b	.L56
 1664              	.LVL232:
 1665              	.L55:
 120:..\..\..\arduinoLCD\test\Pain Drain\libraries\lvgl\src\widgets/lv_arc.c ****     else if(old_delta < new_delta) inv_arc_area(obj, arc->indic_angle_end, end, LV_PART_INDICATOR);
 1666              		.loc 1 120 0 is_stmt 1
 1667 004c 8642     		cmp	r6, r0
 1668 004e 07DD     		ble	.L57
ARM GAS  C:\Users\haske\AppData\Local\Temp\ccmHbbn5.s 			page 56


 120:..\..\..\arduinoLCD\test\Pain Drain\libraries\lvgl\src\widgets/lv_arc.c ****     else if(old_delta < new_delta) inv_arc_area(obj, arc->indic_angle_end, end, LV_PART_INDICATOR);
 1669              		.loc 1 120 0 is_stmt 0 discriminator 1
 1670 0050 8023     		movs	r3, #128
 1671 0052 9B02     		lsls	r3, r3, #10
 1672 0054 0A00     		movs	r2, r1
 1673 0056 2900     		movs	r1, r5
 1674 0058 2000     		movs	r0, r4
 1675              	.LVL233:
 1676 005a FFF7FEFF 		bl	inv_arc_area
 1677              	.LVL234:
 1678 005e 07E0     		b	.L56
 1679              	.LVL235:
 1680              	.L57:
 121:..\..\..\arduinoLCD\test\Pain Drain\libraries\lvgl\src\widgets/lv_arc.c **** 
 1681              		.loc 1 121 0 is_stmt 1
 1682 0060 8642     		cmp	r6, r0
 1683 0062 05DA     		bge	.L56
 121:..\..\..\arduinoLCD\test\Pain Drain\libraries\lvgl\src\widgets/lv_arc.c **** 
 1684              		.loc 1 121 0 is_stmt 0 discriminator 1
 1685 0064 8023     		movs	r3, #128
 1686 0066 9B02     		lsls	r3, r3, #10
 1687 0068 2A00     		movs	r2, r5
 1688 006a 2000     		movs	r0, r4
 1689              	.LVL236:
 1690 006c FFF7FEFF 		bl	inv_arc_area
 1691              	.LVL237:
 1692              	.L56:
 123:..\..\..\arduinoLCD\test\Pain Drain\libraries\lvgl\src\widgets/lv_arc.c **** 
 1693              		.loc 1 123 0 is_stmt 1
 1694 0070 2000     		movs	r0, r4
 1695 0072 FFF7FEFF 		bl	inv_knob_area
 1696              	.LVL238:
 125:..\..\..\arduinoLCD\test\Pain Drain\libraries\lvgl\src\widgets/lv_arc.c **** 
 1697              		.loc 1 125 0
 1698 0076 2585     		strh	r5, [r4, #40]
 127:..\..\..\arduinoLCD\test\Pain Drain\libraries\lvgl\src\widgets/lv_arc.c **** }
 1699              		.loc 1 127 0
 1700 0078 2000     		movs	r0, r4
 1701 007a FFF7FEFF 		bl	inv_knob_area
 1702              	.LVL239:
 128:..\..\..\arduinoLCD\test\Pain Drain\libraries\lvgl\src\widgets/lv_arc.c **** 
 1703              		.loc 1 128 0
 1704              		@ sp needed
 1705              	.LVL240:
 1706              	.LVL241:
 1707              	.LVL242:
 1708 007e 70BD     		pop	{r4, r5, r6, pc}
 1709              		.cfi_endproc
 1710              	.LFE161:
 1711              		.size	lv_arc_set_end_angle, .-lv_arc_set_end_angle
 1712              		.section	.text.lv_arc_set_angles,"ax",%progbits
 1713              		.align	2
 1714              		.global	lv_arc_set_angles
 1715              		.code	16
 1716              		.thumb_func
 1717              		.type	lv_arc_set_angles, %function
 1718              	lv_arc_set_angles:
ARM GAS  C:\Users\haske\AppData\Local\Temp\ccmHbbn5.s 			page 57


 1719              	.LFB162:
 131:..\..\..\arduinoLCD\test\Pain Drain\libraries\lvgl\src\widgets/lv_arc.c ****     lv_arc_set_end_angle(obj, end);
 1720              		.loc 1 131 0
 1721              		.cfi_startproc
 1722              		@ args = 0, pretend = 0, frame = 0
 1723              		@ frame_needed = 0, uses_anonymous_args = 0
 1724              	.LVL243:
 1725 0000 70B5     		push	{r4, r5, r6, lr}
 1726              		.cfi_def_cfa_offset 16
 1727              		.cfi_offset 4, -16
 1728              		.cfi_offset 5, -12
 1729              		.cfi_offset 6, -8
 1730              		.cfi_offset 14, -4
 1731 0002 0400     		movs	r4, r0
 1732 0004 0D00     		movs	r5, r1
 132:..\..\..\arduinoLCD\test\Pain Drain\libraries\lvgl\src\widgets/lv_arc.c ****     lv_arc_set_start_angle(obj, start);
 1733              		.loc 1 132 0
 1734 0006 1100     		movs	r1, r2
 1735              	.LVL244:
 1736 0008 FFF7FEFF 		bl	lv_arc_set_end_angle
 1737              	.LVL245:
 133:..\..\..\arduinoLCD\test\Pain Drain\libraries\lvgl\src\widgets/lv_arc.c **** }
 1738              		.loc 1 133 0
 1739 000c 2900     		movs	r1, r5
 1740 000e 2000     		movs	r0, r4
 1741 0010 FFF7FEFF 		bl	lv_arc_set_start_angle
 1742              	.LVL246:
 134:..\..\..\arduinoLCD\test\Pain Drain\libraries\lvgl\src\widgets/lv_arc.c **** 
 1743              		.loc 1 134 0
 1744              		@ sp needed
 1745              	.LVL247:
 1746 0014 70BD     		pop	{r4, r5, r6, pc}
 1747              		.cfi_endproc
 1748              	.LFE162:
 1749              		.size	lv_arc_set_angles, .-lv_arc_set_angles
 1750 0016 C046     		.section	.text.value_update,"ax",%progbits
 1751              		.align	2
 1752              		.code	16
 1753              		.thumb_func
 1754              		.type	value_update, %function
 1755              	value_update:
 1756              	.LFB189:
 813:..\..\..\arduinoLCD\test\Pain Drain\libraries\lvgl\src\widgets/lv_arc.c ****     LV_ASSERT_OBJ(obj, MY_CLASS);
 1757              		.loc 1 813 0
 1758              		.cfi_startproc
 1759              		@ args = 0, pretend = 0, frame = 0
 1760              		@ frame_needed = 0, uses_anonymous_args = 0
 1761              	.LVL248:
 1762 0000 F0B5     		push	{r4, r5, r6, r7, lr}
 1763              		.cfi_def_cfa_offset 20
 1764              		.cfi_offset 4, -20
 1765              		.cfi_offset 5, -16
 1766              		.cfi_offset 6, -12
 1767              		.cfi_offset 7, -8
 1768              		.cfi_offset 14, -4
 1769 0002 4746     		mov	r7, r8
 1770 0004 80B4     		push	{r7}
ARM GAS  C:\Users\haske\AppData\Local\Temp\ccmHbbn5.s 			page 58


 1771              		.cfi_def_cfa_offset 24
 1772              		.cfi_offset 8, -24
 1773 0006 82B0     		sub	sp, sp, #8
 1774              		.cfi_def_cfa_offset 32
 1775 0008 0400     		movs	r4, r0
 1776              	.LVL249:
 818:..\..\..\arduinoLCD\test\Pain Drain\libraries\lvgl\src\widgets/lv_arc.c **** 
 1777              		.loc 1 818 0
 1778 000a 2E23     		movs	r3, #46
 1779 000c C05E     		ldrsh	r0, [r0, r3]
 1780              	.LVL250:
 1781 000e 354B     		ldr	r3, .L67
 1782 0010 9842     		cmp	r0, r3
 1783 0012 62D0     		beq	.L59
 820:..\..\..\arduinoLCD\test\Pain Drain\libraries\lvgl\src\widgets/lv_arc.c ****     if(arc->bg_angle_end < arc->bg_angle_start) bg_end = arc->bg_angle_end + 360;
 1784              		.loc 1 820 0
 1785 0014 A28D     		ldrh	r2, [r4, #44]
 1786 0016 13B2     		sxth	r3, r2
 1787              	.LVL251:
 821:..\..\..\arduinoLCD\test\Pain Drain\libraries\lvgl\src\widgets/lv_arc.c **** 
 1788              		.loc 1 821 0
 1789 0018 658D     		ldrh	r5, [r4, #42]
 1790 001a AA42     		cmp	r2, r5
 1791 001c 02D2     		bcs	.L61
 821:..\..\..\arduinoLCD\test\Pain Drain\libraries\lvgl\src\widgets/lv_arc.c **** 
 1792              		.loc 1 821 0 is_stmt 0 discriminator 1
 1793 001e 6932     		adds	r2, r2, #105
 1794 0020 FF32     		adds	r2, r2, #255
 1795 0022 13B2     		sxth	r3, r2
 1796              	.LVL252:
 1797              	.L61:
 824:..\..\..\arduinoLCD\test\Pain Drain\libraries\lvgl\src\widgets/lv_arc.c ****         case LV_ARC_MODE_SYMMETRICAL:
 1798              		.loc 1 824 0 is_stmt 1
 1799 0024 3422     		movs	r2, #52
 1800 0026 A25C     		ldrb	r2, [r4, r2]
 1801 0028 5207     		lsls	r2, r2, #29
 1802 002a 920F     		lsrs	r2, r2, #30
 1803 002c 012A     		cmp	r2, #1
 1804 002e 04D0     		beq	.L62
 1805 0030 002A     		cmp	r2, #0
 1806 0032 43D0     		beq	.L63
 1807 0034 022A     		cmp	r2, #2
 1808 0036 33D0     		beq	.L64
 1809 0038 4FE0     		b	.L59
 1810              	.L62:
 826:..\..\..\arduinoLCD\test\Pain Drain\libraries\lvgl\src\widgets/lv_arc.c ****             range_midpoint = (int32_t)(arc->min_value + arc->max_value) / 2;
 1811              		.loc 1 826 0
 1812 003a EE18     		adds	r6, r5, r3
 1813 003c F10F     		lsrs	r1, r6, #31
 1814 003e 8E19     		adds	r6, r1, r6
 1815 0040 7610     		asrs	r6, r6, #1
 1816 0042 32B2     		sxth	r2, r6
 1817 0044 9046     		mov	r8, r2
 1818              	.LVL253:
 827:..\..\..\arduinoLCD\test\Pain Drain\libraries\lvgl\src\widgets/lv_arc.c **** 
 1819              		.loc 1 827 0
 1820 0046 3021     		movs	r1, #48
ARM GAS  C:\Users\haske\AppData\Local\Temp\ccmHbbn5.s 			page 59


 1821 0048 625E     		ldrsh	r2, [r4, r1]
 1822 004a 9446     		mov	ip, r2
 1823 004c 3221     		movs	r1, #50
 1824 004e 625E     		ldrsh	r2, [r4, r1]
 1825 0050 6146     		mov	r1, ip
 1826 0052 8F18     		adds	r7, r1, r2
 1827 0054 F90F     		lsrs	r1, r7, #31
 1828 0056 CF19     		adds	r7, r1, r7
 1829 0058 7F10     		asrs	r7, r7, #1
 1830 005a 39B2     		sxth	r1, r7
 1831              	.LVL254:
 829:..\..\..\arduinoLCD\test\Pain Drain\libraries\lvgl\src\widgets/lv_arc.c ****                 angle = lv_map(arc->value, arc->min_value, range_midpoint, arc->bg_angle_start, bg_
 1832              		.loc 1 829 0
 1833 005c 8842     		cmp	r0, r1
 1834 005e 10DA     		bge	.L65
 830:..\..\..\arduinoLCD\test\Pain Drain\libraries\lvgl\src\widgets/lv_arc.c ****                 lv_arc_set_start_angle(obj, angle);
 1835              		.loc 1 830 0
 1836 0060 4346     		mov	r3, r8
 1837              	.LVL255:
 1838 0062 0093     		str	r3, [sp]
 1839 0064 2B00     		movs	r3, r5
 1840 0066 0A00     		movs	r2, r1
 1841 0068 6146     		mov	r1, ip
 1842              	.LVL256:
 1843 006a FFF7FEFF 		bl	lv_map
 1844              	.LVL257:
 1845 006e 05B2     		sxth	r5, r0
 1846              	.LVL258:
 831:..\..\..\arduinoLCD\test\Pain Drain\libraries\lvgl\src\widgets/lv_arc.c ****                 lv_arc_set_end_angle(obj, bg_midpoint);
 1847              		.loc 1 831 0
 1848 0070 81B2     		uxth	r1, r0
 1849 0072 2000     		movs	r0, r4
 1850 0074 FFF7FEFF 		bl	lv_arc_set_start_angle
 1851              	.LVL259:
 832:..\..\..\arduinoLCD\test\Pain Drain\libraries\lvgl\src\widgets/lv_arc.c ****             }
 1852              		.loc 1 832 0
 1853 0078 B1B2     		uxth	r1, r6
 1854 007a 2000     		movs	r0, r4
 1855 007c FFF7FEFF 		bl	lv_arc_set_end_angle
 1856              	.LVL260:
 1857 0080 2AE0     		b	.L66
 1858              	.LVL261:
 1859              	.L65:
 835:..\..\..\arduinoLCD\test\Pain Drain\libraries\lvgl\src\widgets/lv_arc.c ****                 lv_arc_set_start_angle(obj, bg_midpoint);
 1860              		.loc 1 835 0
 1861 0082 0093     		str	r3, [sp]
 1862 0084 4346     		mov	r3, r8
 1863              	.LVL262:
 1864 0086 FFF7FEFF 		bl	lv_map
 1865              	.LVL263:
 1866 008a 0700     		movs	r7, r0
 1867              	.LVL264:
 1868 008c 05B2     		sxth	r5, r0
 1869              	.LVL265:
 836:..\..\..\arduinoLCD\test\Pain Drain\libraries\lvgl\src\widgets/lv_arc.c ****                 lv_arc_set_end_angle(obj, angle);
 1870              		.loc 1 836 0
 1871 008e B1B2     		uxth	r1, r6
