ARM GAS  C:\Users\haske\AppData\Local\Temp\ccmHbbn5.s 			page 1


   1              		.syntax unified
   2              		.cpu cortex-m0plus
   3              		.fpu softvfp
   4              		.eabi_attribute 20, 1
   5              		.eabi_attribute 21, 1
   6              		.eabi_attribute 23, 3
   7              		.eabi_attribute 24, 1
   8              		.eabi_attribute 25, 1
   9              		.eabi_attribute 26, 1
  10              		.eabi_attribute 30, 1
  11              		.eabi_attribute 34, 0
  12              		.eabi_attribute 18, 4
  13              		.thumb
  14              		.syntax unified
  15              		.file	"lv_arc.c"
  16              		.text
  17              	.Ltext0:
  18              		.cfi_sections	.debug_frame
  19              		.section	.text.get_angle,"ax",%progbits
  20              		.align	2
  21              		.code	16
  22              		.thumb_func
  23              		.type	get_angle, %function
  24              	get_angle:
  25              	.LFB187:
  26              		.file 1 "..\\..\\..\\arduinoLCD\\test\\Pain Drain\\libraries\\lvgl\\src\\widgets\\lv_arc.c"
   1:..\..\..\arduinoLCD\test\Pain Drain\libraries\lvgl\src\widgets/lv_arc.c **** /**
   2:..\..\..\arduinoLCD\test\Pain Drain\libraries\lvgl\src\widgets/lv_arc.c ****  * @file lv_arc.c
   3:..\..\..\arduinoLCD\test\Pain Drain\libraries\lvgl\src\widgets/lv_arc.c ****  *
   4:..\..\..\arduinoLCD\test\Pain Drain\libraries\lvgl\src\widgets/lv_arc.c ****  */
   5:..\..\..\arduinoLCD\test\Pain Drain\libraries\lvgl\src\widgets/lv_arc.c **** 
   6:..\..\..\arduinoLCD\test\Pain Drain\libraries\lvgl\src\widgets/lv_arc.c **** /*********************
   7:..\..\..\arduinoLCD\test\Pain Drain\libraries\lvgl\src\widgets/lv_arc.c ****  *      INCLUDES
   8:..\..\..\arduinoLCD\test\Pain Drain\libraries\lvgl\src\widgets/lv_arc.c ****  *********************/
   9:..\..\..\arduinoLCD\test\Pain Drain\libraries\lvgl\src\widgets/lv_arc.c **** #include "lv_arc.h"
  10:..\..\..\arduinoLCD\test\Pain Drain\libraries\lvgl\src\widgets/lv_arc.c **** #if LV_USE_ARC != 0
  11:..\..\..\arduinoLCD\test\Pain Drain\libraries\lvgl\src\widgets/lv_arc.c **** 
  12:..\..\..\arduinoLCD\test\Pain Drain\libraries\lvgl\src\widgets/lv_arc.c **** #include "../core/lv_group.h"
  13:..\..\..\arduinoLCD\test\Pain Drain\libraries\lvgl\src\widgets/lv_arc.c **** #include "../core/lv_indev.h"
  14:..\..\..\arduinoLCD\test\Pain Drain\libraries\lvgl\src\widgets/lv_arc.c **** #include "../misc/lv_assert.h"
  15:..\..\..\arduinoLCD\test\Pain Drain\libraries\lvgl\src\widgets/lv_arc.c **** #include "../misc/lv_math.h"
  16:..\..\..\arduinoLCD\test\Pain Drain\libraries\lvgl\src\widgets/lv_arc.c **** #include "../draw/lv_draw_arc.h"
  17:..\..\..\arduinoLCD\test\Pain Drain\libraries\lvgl\src\widgets/lv_arc.c **** 
  18:..\..\..\arduinoLCD\test\Pain Drain\libraries\lvgl\src\widgets/lv_arc.c **** /*********************
  19:..\..\..\arduinoLCD\test\Pain Drain\libraries\lvgl\src\widgets/lv_arc.c ****  *      DEFINES
  20:..\..\..\arduinoLCD\test\Pain Drain\libraries\lvgl\src\widgets/lv_arc.c ****  *********************/
  21:..\..\..\arduinoLCD\test\Pain Drain\libraries\lvgl\src\widgets/lv_arc.c **** #define MY_CLASS &lv_arc_class
  22:..\..\..\arduinoLCD\test\Pain Drain\libraries\lvgl\src\widgets/lv_arc.c **** 
  23:..\..\..\arduinoLCD\test\Pain Drain\libraries\lvgl\src\widgets/lv_arc.c **** #define VALUE_UNSET INT16_MIN
  24:..\..\..\arduinoLCD\test\Pain Drain\libraries\lvgl\src\widgets/lv_arc.c **** 
  25:..\..\..\arduinoLCD\test\Pain Drain\libraries\lvgl\src\widgets/lv_arc.c **** /**********************
  26:..\..\..\arduinoLCD\test\Pain Drain\libraries\lvgl\src\widgets/lv_arc.c ****  *      TYPEDEFS
  27:..\..\..\arduinoLCD\test\Pain Drain\libraries\lvgl\src\widgets/lv_arc.c ****  **********************/
  28:..\..\..\arduinoLCD\test\Pain Drain\libraries\lvgl\src\widgets/lv_arc.c **** 
  29:..\..\..\arduinoLCD\test\Pain Drain\libraries\lvgl\src\widgets/lv_arc.c **** /**********************
  30:..\..\..\arduinoLCD\test\Pain Drain\libraries\lvgl\src\widgets/lv_arc.c ****  *  STATIC PROTOTYPES
  31:..\..\..\arduinoLCD\test\Pain Drain\libraries\lvgl\src\widgets/lv_arc.c ****  **********************/
ARM GAS  C:\Users\haske\AppData\Local\Temp\ccmHbbn5.s 			page 2


  32:..\..\..\arduinoLCD\test\Pain Drain\libraries\lvgl\src\widgets/lv_arc.c **** 
  33:..\..\..\arduinoLCD\test\Pain Drain\libraries\lvgl\src\widgets/lv_arc.c **** static void lv_arc_constructor(const lv_obj_class_t * class_p, lv_obj_t * obj);
  34:..\..\..\arduinoLCD\test\Pain Drain\libraries\lvgl\src\widgets/lv_arc.c **** static void lv_arc_draw(lv_event_t * e);
  35:..\..\..\arduinoLCD\test\Pain Drain\libraries\lvgl\src\widgets/lv_arc.c **** static void lv_arc_event(const lv_obj_class_t * class_p, lv_event_t * e);
  36:..\..\..\arduinoLCD\test\Pain Drain\libraries\lvgl\src\widgets/lv_arc.c **** static void inv_arc_area(lv_obj_t * arc, uint16_t start_angle, uint16_t end_angle, lv_part_t part);
  37:..\..\..\arduinoLCD\test\Pain Drain\libraries\lvgl\src\widgets/lv_arc.c **** static void inv_knob_area(lv_obj_t * obj);
  38:..\..\..\arduinoLCD\test\Pain Drain\libraries\lvgl\src\widgets/lv_arc.c **** static void get_center(const lv_obj_t * obj, lv_point_t * center, lv_coord_t * arc_r);
  39:..\..\..\arduinoLCD\test\Pain Drain\libraries\lvgl\src\widgets/lv_arc.c **** static lv_coord_t get_angle(const lv_obj_t * obj);
  40:..\..\..\arduinoLCD\test\Pain Drain\libraries\lvgl\src\widgets/lv_arc.c **** static void get_knob_area(lv_obj_t * arc, const lv_point_t * center, lv_coord_t r, lv_area_t * knob
  41:..\..\..\arduinoLCD\test\Pain Drain\libraries\lvgl\src\widgets/lv_arc.c **** static void value_update(lv_obj_t * arc);
  42:..\..\..\arduinoLCD\test\Pain Drain\libraries\lvgl\src\widgets/lv_arc.c **** static lv_coord_t knob_get_extra_size(lv_obj_t * obj);
  43:..\..\..\arduinoLCD\test\Pain Drain\libraries\lvgl\src\widgets/lv_arc.c **** 
  44:..\..\..\arduinoLCD\test\Pain Drain\libraries\lvgl\src\widgets/lv_arc.c **** /**********************
  45:..\..\..\arduinoLCD\test\Pain Drain\libraries\lvgl\src\widgets/lv_arc.c ****  *  STATIC VARIABLES
  46:..\..\..\arduinoLCD\test\Pain Drain\libraries\lvgl\src\widgets/lv_arc.c ****  **********************/
  47:..\..\..\arduinoLCD\test\Pain Drain\libraries\lvgl\src\widgets/lv_arc.c **** const lv_obj_class_t lv_arc_class  = {
  48:..\..\..\arduinoLCD\test\Pain Drain\libraries\lvgl\src\widgets/lv_arc.c ****     .constructor_cb = lv_arc_constructor,
  49:..\..\..\arduinoLCD\test\Pain Drain\libraries\lvgl\src\widgets/lv_arc.c ****     .event_cb = lv_arc_event,
  50:..\..\..\arduinoLCD\test\Pain Drain\libraries\lvgl\src\widgets/lv_arc.c ****     .instance_size = sizeof(lv_arc_t),
  51:..\..\..\arduinoLCD\test\Pain Drain\libraries\lvgl\src\widgets/lv_arc.c ****     .editable = LV_OBJ_CLASS_EDITABLE_TRUE,
  52:..\..\..\arduinoLCD\test\Pain Drain\libraries\lvgl\src\widgets/lv_arc.c ****     .base_class = &lv_obj_class
  53:..\..\..\arduinoLCD\test\Pain Drain\libraries\lvgl\src\widgets/lv_arc.c **** };
  54:..\..\..\arduinoLCD\test\Pain Drain\libraries\lvgl\src\widgets/lv_arc.c **** 
  55:..\..\..\arduinoLCD\test\Pain Drain\libraries\lvgl\src\widgets/lv_arc.c **** /**********************
  56:..\..\..\arduinoLCD\test\Pain Drain\libraries\lvgl\src\widgets/lv_arc.c ****  *      MACROS
  57:..\..\..\arduinoLCD\test\Pain Drain\libraries\lvgl\src\widgets/lv_arc.c ****  **********************/
  58:..\..\..\arduinoLCD\test\Pain Drain\libraries\lvgl\src\widgets/lv_arc.c **** 
  59:..\..\..\arduinoLCD\test\Pain Drain\libraries\lvgl\src\widgets/lv_arc.c **** /**********************
  60:..\..\..\arduinoLCD\test\Pain Drain\libraries\lvgl\src\widgets/lv_arc.c ****  *   GLOBAL FUNCTIONS
  61:..\..\..\arduinoLCD\test\Pain Drain\libraries\lvgl\src\widgets/lv_arc.c ****  **********************/
  62:..\..\..\arduinoLCD\test\Pain Drain\libraries\lvgl\src\widgets/lv_arc.c **** 
  63:..\..\..\arduinoLCD\test\Pain Drain\libraries\lvgl\src\widgets/lv_arc.c **** lv_obj_t * lv_arc_create(lv_obj_t * parent)
  64:..\..\..\arduinoLCD\test\Pain Drain\libraries\lvgl\src\widgets/lv_arc.c **** {
  65:..\..\..\arduinoLCD\test\Pain Drain\libraries\lvgl\src\widgets/lv_arc.c ****     LV_LOG_INFO("begin");
  66:..\..\..\arduinoLCD\test\Pain Drain\libraries\lvgl\src\widgets/lv_arc.c ****     lv_obj_t * obj = lv_obj_class_create_obj(MY_CLASS, parent);
  67:..\..\..\arduinoLCD\test\Pain Drain\libraries\lvgl\src\widgets/lv_arc.c ****     lv_obj_class_init_obj(obj);
  68:..\..\..\arduinoLCD\test\Pain Drain\libraries\lvgl\src\widgets/lv_arc.c ****     return obj;
  69:..\..\..\arduinoLCD\test\Pain Drain\libraries\lvgl\src\widgets/lv_arc.c **** }
  70:..\..\..\arduinoLCD\test\Pain Drain\libraries\lvgl\src\widgets/lv_arc.c **** 
  71:..\..\..\arduinoLCD\test\Pain Drain\libraries\lvgl\src\widgets/lv_arc.c **** /*======================
  72:..\..\..\arduinoLCD\test\Pain Drain\libraries\lvgl\src\widgets/lv_arc.c ****  * Add/remove functions
  73:..\..\..\arduinoLCD\test\Pain Drain\libraries\lvgl\src\widgets/lv_arc.c ****  *=====================*/
  74:..\..\..\arduinoLCD\test\Pain Drain\libraries\lvgl\src\widgets/lv_arc.c **** 
  75:..\..\..\arduinoLCD\test\Pain Drain\libraries\lvgl\src\widgets/lv_arc.c **** /*
  76:..\..\..\arduinoLCD\test\Pain Drain\libraries\lvgl\src\widgets/lv_arc.c ****  * New object specific "add" or "remove" functions come here
  77:..\..\..\arduinoLCD\test\Pain Drain\libraries\lvgl\src\widgets/lv_arc.c ****  */
  78:..\..\..\arduinoLCD\test\Pain Drain\libraries\lvgl\src\widgets/lv_arc.c **** 
  79:..\..\..\arduinoLCD\test\Pain Drain\libraries\lvgl\src\widgets/lv_arc.c **** /*=====================
  80:..\..\..\arduinoLCD\test\Pain Drain\libraries\lvgl\src\widgets/lv_arc.c ****  * Setter functions
  81:..\..\..\arduinoLCD\test\Pain Drain\libraries\lvgl\src\widgets/lv_arc.c ****  *====================*/
  82:..\..\..\arduinoLCD\test\Pain Drain\libraries\lvgl\src\widgets/lv_arc.c **** 
  83:..\..\..\arduinoLCD\test\Pain Drain\libraries\lvgl\src\widgets/lv_arc.c **** void lv_arc_set_start_angle(lv_obj_t * obj, uint16_t start)
  84:..\..\..\arduinoLCD\test\Pain Drain\libraries\lvgl\src\widgets/lv_arc.c **** {
  85:..\..\..\arduinoLCD\test\Pain Drain\libraries\lvgl\src\widgets/lv_arc.c ****     LV_ASSERT_OBJ(obj, MY_CLASS);
  86:..\..\..\arduinoLCD\test\Pain Drain\libraries\lvgl\src\widgets/lv_arc.c ****     lv_arc_t * arc = (lv_arc_t *)obj;
  87:..\..\..\arduinoLCD\test\Pain Drain\libraries\lvgl\src\widgets/lv_arc.c **** 
  88:..\..\..\arduinoLCD\test\Pain Drain\libraries\lvgl\src\widgets/lv_arc.c ****     if(start > 360) start -= 360;
ARM GAS  C:\Users\haske\AppData\Local\Temp\ccmHbbn5.s 			page 3


  89:..\..\..\arduinoLCD\test\Pain Drain\libraries\lvgl\src\widgets/lv_arc.c **** 
  90:..\..\..\arduinoLCD\test\Pain Drain\libraries\lvgl\src\widgets/lv_arc.c ****     int16_t old_delta = arc->indic_angle_end - arc->indic_angle_start;
  91:..\..\..\arduinoLCD\test\Pain Drain\libraries\lvgl\src\widgets/lv_arc.c ****     int16_t new_delta = arc->indic_angle_end - start;
  92:..\..\..\arduinoLCD\test\Pain Drain\libraries\lvgl\src\widgets/lv_arc.c **** 
  93:..\..\..\arduinoLCD\test\Pain Drain\libraries\lvgl\src\widgets/lv_arc.c ****     if(old_delta < 0) old_delta = 360 + old_delta;
  94:..\..\..\arduinoLCD\test\Pain Drain\libraries\lvgl\src\widgets/lv_arc.c ****     if(new_delta < 0) new_delta = 360 + new_delta;
  95:..\..\..\arduinoLCD\test\Pain Drain\libraries\lvgl\src\widgets/lv_arc.c **** 
  96:..\..\..\arduinoLCD\test\Pain Drain\libraries\lvgl\src\widgets/lv_arc.c ****     if(LV_ABS(new_delta - old_delta) > 180)  lv_obj_invalidate(obj);
  97:..\..\..\arduinoLCD\test\Pain Drain\libraries\lvgl\src\widgets/lv_arc.c ****     else if(new_delta < old_delta) inv_arc_area(obj, arc->indic_angle_start, start, LV_PART_INDICAT
  98:..\..\..\arduinoLCD\test\Pain Drain\libraries\lvgl\src\widgets/lv_arc.c ****     else if(old_delta < new_delta) inv_arc_area(obj, start, arc->indic_angle_start, LV_PART_INDICAT
  99:..\..\..\arduinoLCD\test\Pain Drain\libraries\lvgl\src\widgets/lv_arc.c **** 
 100:..\..\..\arduinoLCD\test\Pain Drain\libraries\lvgl\src\widgets/lv_arc.c ****     inv_knob_area(obj);
 101:..\..\..\arduinoLCD\test\Pain Drain\libraries\lvgl\src\widgets/lv_arc.c **** 
 102:..\..\..\arduinoLCD\test\Pain Drain\libraries\lvgl\src\widgets/lv_arc.c ****     arc->indic_angle_start = start;
 103:..\..\..\arduinoLCD\test\Pain Drain\libraries\lvgl\src\widgets/lv_arc.c **** 
 104:..\..\..\arduinoLCD\test\Pain Drain\libraries\lvgl\src\widgets/lv_arc.c ****     inv_knob_area(obj);
 105:..\..\..\arduinoLCD\test\Pain Drain\libraries\lvgl\src\widgets/lv_arc.c **** }
 106:..\..\..\arduinoLCD\test\Pain Drain\libraries\lvgl\src\widgets/lv_arc.c **** 
 107:..\..\..\arduinoLCD\test\Pain Drain\libraries\lvgl\src\widgets/lv_arc.c **** void lv_arc_set_end_angle(lv_obj_t * obj, uint16_t end)
 108:..\..\..\arduinoLCD\test\Pain Drain\libraries\lvgl\src\widgets/lv_arc.c **** {
 109:..\..\..\arduinoLCD\test\Pain Drain\libraries\lvgl\src\widgets/lv_arc.c ****     LV_ASSERT_OBJ(obj, MY_CLASS);
 110:..\..\..\arduinoLCD\test\Pain Drain\libraries\lvgl\src\widgets/lv_arc.c ****     lv_arc_t * arc = (lv_arc_t *)obj;
 111:..\..\..\arduinoLCD\test\Pain Drain\libraries\lvgl\src\widgets/lv_arc.c ****     if(end > 360) end -= 360;
 112:..\..\..\arduinoLCD\test\Pain Drain\libraries\lvgl\src\widgets/lv_arc.c **** 
 113:..\..\..\arduinoLCD\test\Pain Drain\libraries\lvgl\src\widgets/lv_arc.c ****     int16_t old_delta = arc->indic_angle_end - arc->indic_angle_start;
 114:..\..\..\arduinoLCD\test\Pain Drain\libraries\lvgl\src\widgets/lv_arc.c ****     int16_t new_delta = end - arc->indic_angle_start;
 115:..\..\..\arduinoLCD\test\Pain Drain\libraries\lvgl\src\widgets/lv_arc.c **** 
 116:..\..\..\arduinoLCD\test\Pain Drain\libraries\lvgl\src\widgets/lv_arc.c ****     if(old_delta < 0) old_delta = 360 + old_delta;
 117:..\..\..\arduinoLCD\test\Pain Drain\libraries\lvgl\src\widgets/lv_arc.c ****     if(new_delta < 0) new_delta = 360 + new_delta;
 118:..\..\..\arduinoLCD\test\Pain Drain\libraries\lvgl\src\widgets/lv_arc.c **** 
 119:..\..\..\arduinoLCD\test\Pain Drain\libraries\lvgl\src\widgets/lv_arc.c ****     if(LV_ABS(new_delta - old_delta) > 180)  lv_obj_invalidate(obj);
 120:..\..\..\arduinoLCD\test\Pain Drain\libraries\lvgl\src\widgets/lv_arc.c ****     else if(new_delta < old_delta) inv_arc_area(obj, end, arc->indic_angle_end, LV_PART_INDICATOR);
 121:..\..\..\arduinoLCD\test\Pain Drain\libraries\lvgl\src\widgets/lv_arc.c ****     else if(old_delta < new_delta) inv_arc_area(obj, arc->indic_angle_end, end, LV_PART_INDICATOR);
 122:..\..\..\arduinoLCD\test\Pain Drain\libraries\lvgl\src\widgets/lv_arc.c **** 
 123:..\..\..\arduinoLCD\test\Pain Drain\libraries\lvgl\src\widgets/lv_arc.c ****     inv_knob_area(obj);
 124:..\..\..\arduinoLCD\test\Pain Drain\libraries\lvgl\src\widgets/lv_arc.c **** 
 125:..\..\..\arduinoLCD\test\Pain Drain\libraries\lvgl\src\widgets/lv_arc.c ****     arc->indic_angle_end = end;
 126:..\..\..\arduinoLCD\test\Pain Drain\libraries\lvgl\src\widgets/lv_arc.c **** 
 127:..\..\..\arduinoLCD\test\Pain Drain\libraries\lvgl\src\widgets/lv_arc.c ****     inv_knob_area(obj);
 128:..\..\..\arduinoLCD\test\Pain Drain\libraries\lvgl\src\widgets/lv_arc.c **** }
 129:..\..\..\arduinoLCD\test\Pain Drain\libraries\lvgl\src\widgets/lv_arc.c **** 
 130:..\..\..\arduinoLCD\test\Pain Drain\libraries\lvgl\src\widgets/lv_arc.c **** void lv_arc_set_angles(lv_obj_t * obj, uint16_t start, uint16_t end)
 131:..\..\..\arduinoLCD\test\Pain Drain\libraries\lvgl\src\widgets/lv_arc.c **** {
 132:..\..\..\arduinoLCD\test\Pain Drain\libraries\lvgl\src\widgets/lv_arc.c ****     lv_arc_set_end_angle(obj, end);
 133:..\..\..\arduinoLCD\test\Pain Drain\libraries\lvgl\src\widgets/lv_arc.c ****     lv_arc_set_start_angle(obj, start);
 134:..\..\..\arduinoLCD\test\Pain Drain\libraries\lvgl\src\widgets/lv_arc.c **** }
 135:..\..\..\arduinoLCD\test\Pain Drain\libraries\lvgl\src\widgets/lv_arc.c **** 
 136:..\..\..\arduinoLCD\test\Pain Drain\libraries\lvgl\src\widgets/lv_arc.c **** void lv_arc_set_bg_start_angle(lv_obj_t * obj, uint16_t start)
 137:..\..\..\arduinoLCD\test\Pain Drain\libraries\lvgl\src\widgets/lv_arc.c **** {
 138:..\..\..\arduinoLCD\test\Pain Drain\libraries\lvgl\src\widgets/lv_arc.c ****     LV_ASSERT_OBJ(obj, MY_CLASS);
 139:..\..\..\arduinoLCD\test\Pain Drain\libraries\lvgl\src\widgets/lv_arc.c ****     lv_arc_t * arc = (lv_arc_t *)obj;
 140:..\..\..\arduinoLCD\test\Pain Drain\libraries\lvgl\src\widgets/lv_arc.c **** 
 141:..\..\..\arduinoLCD\test\Pain Drain\libraries\lvgl\src\widgets/lv_arc.c ****     if(start > 360) start -= 360;
 142:..\..\..\arduinoLCD\test\Pain Drain\libraries\lvgl\src\widgets/lv_arc.c **** 
 143:..\..\..\arduinoLCD\test\Pain Drain\libraries\lvgl\src\widgets/lv_arc.c ****     int16_t old_delta = arc->bg_angle_end - arc->bg_angle_start;
 144:..\..\..\arduinoLCD\test\Pain Drain\libraries\lvgl\src\widgets/lv_arc.c ****     int16_t new_delta = arc->bg_angle_end - start;
 145:..\..\..\arduinoLCD\test\Pain Drain\libraries\lvgl\src\widgets/lv_arc.c **** 
ARM GAS  C:\Users\haske\AppData\Local\Temp\ccmHbbn5.s 			page 4


 146:..\..\..\arduinoLCD\test\Pain Drain\libraries\lvgl\src\widgets/lv_arc.c ****     if(old_delta < 0) old_delta = 360 + old_delta;
 147:..\..\..\arduinoLCD\test\Pain Drain\libraries\lvgl\src\widgets/lv_arc.c ****     if(new_delta < 0) new_delta = 360 + new_delta;
 148:..\..\..\arduinoLCD\test\Pain Drain\libraries\lvgl\src\widgets/lv_arc.c **** 
 149:..\..\..\arduinoLCD\test\Pain Drain\libraries\lvgl\src\widgets/lv_arc.c ****     if(LV_ABS(new_delta - old_delta) > 180)  lv_obj_invalidate(obj);
 150:..\..\..\arduinoLCD\test\Pain Drain\libraries\lvgl\src\widgets/lv_arc.c ****     else if(new_delta < old_delta) inv_arc_area(obj, arc->bg_angle_start, start, LV_PART_MAIN);
 151:..\..\..\arduinoLCD\test\Pain Drain\libraries\lvgl\src\widgets/lv_arc.c ****     else if(old_delta < new_delta) inv_arc_area(obj, start, arc->bg_angle_start, LV_PART_MAIN);
 152:..\..\..\arduinoLCD\test\Pain Drain\libraries\lvgl\src\widgets/lv_arc.c **** 
 153:..\..\..\arduinoLCD\test\Pain Drain\libraries\lvgl\src\widgets/lv_arc.c ****     arc->bg_angle_start = start;
 154:..\..\..\arduinoLCD\test\Pain Drain\libraries\lvgl\src\widgets/lv_arc.c **** 
 155:..\..\..\arduinoLCD\test\Pain Drain\libraries\lvgl\src\widgets/lv_arc.c ****     value_update(obj);
 156:..\..\..\arduinoLCD\test\Pain Drain\libraries\lvgl\src\widgets/lv_arc.c **** }
 157:..\..\..\arduinoLCD\test\Pain Drain\libraries\lvgl\src\widgets/lv_arc.c **** 
 158:..\..\..\arduinoLCD\test\Pain Drain\libraries\lvgl\src\widgets/lv_arc.c **** void lv_arc_set_bg_end_angle(lv_obj_t * obj, uint16_t end)
 159:..\..\..\arduinoLCD\test\Pain Drain\libraries\lvgl\src\widgets/lv_arc.c **** {
 160:..\..\..\arduinoLCD\test\Pain Drain\libraries\lvgl\src\widgets/lv_arc.c ****     LV_ASSERT_OBJ(obj, MY_CLASS);
 161:..\..\..\arduinoLCD\test\Pain Drain\libraries\lvgl\src\widgets/lv_arc.c ****     lv_arc_t * arc = (lv_arc_t *)obj;
 162:..\..\..\arduinoLCD\test\Pain Drain\libraries\lvgl\src\widgets/lv_arc.c **** 
 163:..\..\..\arduinoLCD\test\Pain Drain\libraries\lvgl\src\widgets/lv_arc.c ****     if(end > 360) end -= 360;
 164:..\..\..\arduinoLCD\test\Pain Drain\libraries\lvgl\src\widgets/lv_arc.c **** 
 165:..\..\..\arduinoLCD\test\Pain Drain\libraries\lvgl\src\widgets/lv_arc.c ****     int16_t old_delta = arc->bg_angle_end - arc->bg_angle_start;
 166:..\..\..\arduinoLCD\test\Pain Drain\libraries\lvgl\src\widgets/lv_arc.c ****     int16_t new_delta = end - arc->bg_angle_start;
 167:..\..\..\arduinoLCD\test\Pain Drain\libraries\lvgl\src\widgets/lv_arc.c **** 
 168:..\..\..\arduinoLCD\test\Pain Drain\libraries\lvgl\src\widgets/lv_arc.c ****     if(old_delta < 0) old_delta = 360 + old_delta;
 169:..\..\..\arduinoLCD\test\Pain Drain\libraries\lvgl\src\widgets/lv_arc.c ****     if(new_delta < 0) new_delta = 360 + new_delta;
 170:..\..\..\arduinoLCD\test\Pain Drain\libraries\lvgl\src\widgets/lv_arc.c **** 
 171:..\..\..\arduinoLCD\test\Pain Drain\libraries\lvgl\src\widgets/lv_arc.c ****     if(LV_ABS(new_delta - old_delta) > 180)  lv_obj_invalidate(obj);
 172:..\..\..\arduinoLCD\test\Pain Drain\libraries\lvgl\src\widgets/lv_arc.c ****     else if(new_delta < old_delta) inv_arc_area(obj, end, arc->bg_angle_end, LV_PART_MAIN);
 173:..\..\..\arduinoLCD\test\Pain Drain\libraries\lvgl\src\widgets/lv_arc.c ****     else if(old_delta < new_delta) inv_arc_area(obj, arc->bg_angle_end, end, LV_PART_MAIN);
 174:..\..\..\arduinoLCD\test\Pain Drain\libraries\lvgl\src\widgets/lv_arc.c **** 
 175:..\..\..\arduinoLCD\test\Pain Drain\libraries\lvgl\src\widgets/lv_arc.c ****     arc->bg_angle_end = end;
 176:..\..\..\arduinoLCD\test\Pain Drain\libraries\lvgl\src\widgets/lv_arc.c **** 
 177:..\..\..\arduinoLCD\test\Pain Drain\libraries\lvgl\src\widgets/lv_arc.c ****     value_update(obj);
 178:..\..\..\arduinoLCD\test\Pain Drain\libraries\lvgl\src\widgets/lv_arc.c **** }
 179:..\..\..\arduinoLCD\test\Pain Drain\libraries\lvgl\src\widgets/lv_arc.c **** 
 180:..\..\..\arduinoLCD\test\Pain Drain\libraries\lvgl\src\widgets/lv_arc.c **** void lv_arc_set_bg_angles(lv_obj_t * obj, uint16_t start, uint16_t end)
 181:..\..\..\arduinoLCD\test\Pain Drain\libraries\lvgl\src\widgets/lv_arc.c **** {
 182:..\..\..\arduinoLCD\test\Pain Drain\libraries\lvgl\src\widgets/lv_arc.c ****     lv_arc_set_bg_end_angle(obj, end);
 183:..\..\..\arduinoLCD\test\Pain Drain\libraries\lvgl\src\widgets/lv_arc.c ****     lv_arc_set_bg_start_angle(obj, start);
 184:..\..\..\arduinoLCD\test\Pain Drain\libraries\lvgl\src\widgets/lv_arc.c **** }
 185:..\..\..\arduinoLCD\test\Pain Drain\libraries\lvgl\src\widgets/lv_arc.c **** 
 186:..\..\..\arduinoLCD\test\Pain Drain\libraries\lvgl\src\widgets/lv_arc.c **** void lv_arc_set_rotation(lv_obj_t * obj, uint16_t rotation)
 187:..\..\..\arduinoLCD\test\Pain Drain\libraries\lvgl\src\widgets/lv_arc.c **** {
 188:..\..\..\arduinoLCD\test\Pain Drain\libraries\lvgl\src\widgets/lv_arc.c ****     LV_ASSERT_OBJ(obj, MY_CLASS);
 189:..\..\..\arduinoLCD\test\Pain Drain\libraries\lvgl\src\widgets/lv_arc.c ****     lv_arc_t * arc = (lv_arc_t *)obj;
 190:..\..\..\arduinoLCD\test\Pain Drain\libraries\lvgl\src\widgets/lv_arc.c **** 
 191:..\..\..\arduinoLCD\test\Pain Drain\libraries\lvgl\src\widgets/lv_arc.c ****     arc->rotation = rotation;
 192:..\..\..\arduinoLCD\test\Pain Drain\libraries\lvgl\src\widgets/lv_arc.c **** 
 193:..\..\..\arduinoLCD\test\Pain Drain\libraries\lvgl\src\widgets/lv_arc.c ****     lv_obj_invalidate(obj);
 194:..\..\..\arduinoLCD\test\Pain Drain\libraries\lvgl\src\widgets/lv_arc.c **** }
 195:..\..\..\arduinoLCD\test\Pain Drain\libraries\lvgl\src\widgets/lv_arc.c **** 
 196:..\..\..\arduinoLCD\test\Pain Drain\libraries\lvgl\src\widgets/lv_arc.c **** void lv_arc_set_mode(lv_obj_t * obj, lv_arc_mode_t type)
 197:..\..\..\arduinoLCD\test\Pain Drain\libraries\lvgl\src\widgets/lv_arc.c **** {
 198:..\..\..\arduinoLCD\test\Pain Drain\libraries\lvgl\src\widgets/lv_arc.c ****     LV_ASSERT_OBJ(obj, MY_CLASS);
 199:..\..\..\arduinoLCD\test\Pain Drain\libraries\lvgl\src\widgets/lv_arc.c ****     lv_arc_t * arc = (lv_arc_t *)obj;
 200:..\..\..\arduinoLCD\test\Pain Drain\libraries\lvgl\src\widgets/lv_arc.c **** 
 201:..\..\..\arduinoLCD\test\Pain Drain\libraries\lvgl\src\widgets/lv_arc.c ****     int16_t val = arc->value;
 202:..\..\..\arduinoLCD\test\Pain Drain\libraries\lvgl\src\widgets/lv_arc.c **** 
ARM GAS  C:\Users\haske\AppData\Local\Temp\ccmHbbn5.s 			page 5


 203:..\..\..\arduinoLCD\test\Pain Drain\libraries\lvgl\src\widgets/lv_arc.c ****     arc->type = type;
 204:..\..\..\arduinoLCD\test\Pain Drain\libraries\lvgl\src\widgets/lv_arc.c ****     arc->value = -1; /** Force set_value handling*/
 205:..\..\..\arduinoLCD\test\Pain Drain\libraries\lvgl\src\widgets/lv_arc.c **** 
 206:..\..\..\arduinoLCD\test\Pain Drain\libraries\lvgl\src\widgets/lv_arc.c ****     int16_t bg_midpoint, bg_end = arc->bg_angle_end;
 207:..\..\..\arduinoLCD\test\Pain Drain\libraries\lvgl\src\widgets/lv_arc.c ****     if(arc->bg_angle_end < arc->bg_angle_start) bg_end = arc->bg_angle_end + 360;
 208:..\..\..\arduinoLCD\test\Pain Drain\libraries\lvgl\src\widgets/lv_arc.c **** 
 209:..\..\..\arduinoLCD\test\Pain Drain\libraries\lvgl\src\widgets/lv_arc.c ****     switch(arc->type) {
 210:..\..\..\arduinoLCD\test\Pain Drain\libraries\lvgl\src\widgets/lv_arc.c ****         case LV_ARC_MODE_SYMMETRICAL:
 211:..\..\..\arduinoLCD\test\Pain Drain\libraries\lvgl\src\widgets/lv_arc.c ****             bg_midpoint = (arc->bg_angle_start + bg_end) / 2;
 212:..\..\..\arduinoLCD\test\Pain Drain\libraries\lvgl\src\widgets/lv_arc.c ****             lv_arc_set_start_angle(obj, bg_midpoint);
 213:..\..\..\arduinoLCD\test\Pain Drain\libraries\lvgl\src\widgets/lv_arc.c ****             lv_arc_set_end_angle(obj, bg_midpoint);
 214:..\..\..\arduinoLCD\test\Pain Drain\libraries\lvgl\src\widgets/lv_arc.c ****             break;
 215:..\..\..\arduinoLCD\test\Pain Drain\libraries\lvgl\src\widgets/lv_arc.c ****         case LV_ARC_MODE_REVERSE:
 216:..\..\..\arduinoLCD\test\Pain Drain\libraries\lvgl\src\widgets/lv_arc.c ****             lv_arc_set_end_angle(obj, arc->bg_angle_end);
 217:..\..\..\arduinoLCD\test\Pain Drain\libraries\lvgl\src\widgets/lv_arc.c ****             break;
 218:..\..\..\arduinoLCD\test\Pain Drain\libraries\lvgl\src\widgets/lv_arc.c ****         default: /** LV_ARC_TYPE_NORMAL*/
 219:..\..\..\arduinoLCD\test\Pain Drain\libraries\lvgl\src\widgets/lv_arc.c ****             lv_arc_set_start_angle(obj, arc->bg_angle_start);
 220:..\..\..\arduinoLCD\test\Pain Drain\libraries\lvgl\src\widgets/lv_arc.c ****     }
 221:..\..\..\arduinoLCD\test\Pain Drain\libraries\lvgl\src\widgets/lv_arc.c **** 
 222:..\..\..\arduinoLCD\test\Pain Drain\libraries\lvgl\src\widgets/lv_arc.c ****     lv_arc_set_value(obj, val);
 223:..\..\..\arduinoLCD\test\Pain Drain\libraries\lvgl\src\widgets/lv_arc.c **** }
 224:..\..\..\arduinoLCD\test\Pain Drain\libraries\lvgl\src\widgets/lv_arc.c **** 
 225:..\..\..\arduinoLCD\test\Pain Drain\libraries\lvgl\src\widgets/lv_arc.c **** void lv_arc_set_value(lv_obj_t * obj, int16_t value)
 226:..\..\..\arduinoLCD\test\Pain Drain\libraries\lvgl\src\widgets/lv_arc.c **** {
 227:..\..\..\arduinoLCD\test\Pain Drain\libraries\lvgl\src\widgets/lv_arc.c ****     LV_ASSERT_OBJ(obj, MY_CLASS);
 228:..\..\..\arduinoLCD\test\Pain Drain\libraries\lvgl\src\widgets/lv_arc.c ****     lv_arc_t * arc = (lv_arc_t *)obj;
 229:..\..\..\arduinoLCD\test\Pain Drain\libraries\lvgl\src\widgets/lv_arc.c **** 
 230:..\..\..\arduinoLCD\test\Pain Drain\libraries\lvgl\src\widgets/lv_arc.c ****     if(arc->value == value) return;
 231:..\..\..\arduinoLCD\test\Pain Drain\libraries\lvgl\src\widgets/lv_arc.c **** 
 232:..\..\..\arduinoLCD\test\Pain Drain\libraries\lvgl\src\widgets/lv_arc.c ****     int16_t new_value;
 233:..\..\..\arduinoLCD\test\Pain Drain\libraries\lvgl\src\widgets/lv_arc.c ****     new_value = value > arc->max_value ? arc->max_value : value;
 234:..\..\..\arduinoLCD\test\Pain Drain\libraries\lvgl\src\widgets/lv_arc.c ****     new_value = new_value < arc->min_value ? arc->min_value : new_value;
 235:..\..\..\arduinoLCD\test\Pain Drain\libraries\lvgl\src\widgets/lv_arc.c **** 
 236:..\..\..\arduinoLCD\test\Pain Drain\libraries\lvgl\src\widgets/lv_arc.c ****     if(arc->value == new_value) return;
 237:..\..\..\arduinoLCD\test\Pain Drain\libraries\lvgl\src\widgets/lv_arc.c ****     arc->value = new_value;
 238:..\..\..\arduinoLCD\test\Pain Drain\libraries\lvgl\src\widgets/lv_arc.c **** 
 239:..\..\..\arduinoLCD\test\Pain Drain\libraries\lvgl\src\widgets/lv_arc.c ****     value_update(obj);
 240:..\..\..\arduinoLCD\test\Pain Drain\libraries\lvgl\src\widgets/lv_arc.c **** }
 241:..\..\..\arduinoLCD\test\Pain Drain\libraries\lvgl\src\widgets/lv_arc.c **** 
 242:..\..\..\arduinoLCD\test\Pain Drain\libraries\lvgl\src\widgets/lv_arc.c **** void lv_arc_set_range(lv_obj_t * obj, int16_t min, int16_t max)
 243:..\..\..\arduinoLCD\test\Pain Drain\libraries\lvgl\src\widgets/lv_arc.c **** {
 244:..\..\..\arduinoLCD\test\Pain Drain\libraries\lvgl\src\widgets/lv_arc.c ****     LV_ASSERT_OBJ(obj, MY_CLASS);
 245:..\..\..\arduinoLCD\test\Pain Drain\libraries\lvgl\src\widgets/lv_arc.c ****     lv_arc_t * arc = (lv_arc_t *)obj;
 246:..\..\..\arduinoLCD\test\Pain Drain\libraries\lvgl\src\widgets/lv_arc.c **** 
 247:..\..\..\arduinoLCD\test\Pain Drain\libraries\lvgl\src\widgets/lv_arc.c ****     if(arc->min_value == min && arc->max_value == max) return;
 248:..\..\..\arduinoLCD\test\Pain Drain\libraries\lvgl\src\widgets/lv_arc.c **** 
 249:..\..\..\arduinoLCD\test\Pain Drain\libraries\lvgl\src\widgets/lv_arc.c ****     arc->min_value = min;
 250:..\..\..\arduinoLCD\test\Pain Drain\libraries\lvgl\src\widgets/lv_arc.c ****     arc->max_value = max;
 251:..\..\..\arduinoLCD\test\Pain Drain\libraries\lvgl\src\widgets/lv_arc.c **** 
 252:..\..\..\arduinoLCD\test\Pain Drain\libraries\lvgl\src\widgets/lv_arc.c ****     if(arc->value < min) {
 253:..\..\..\arduinoLCD\test\Pain Drain\libraries\lvgl\src\widgets/lv_arc.c ****         arc->value = min;
 254:..\..\..\arduinoLCD\test\Pain Drain\libraries\lvgl\src\widgets/lv_arc.c ****     }
 255:..\..\..\arduinoLCD\test\Pain Drain\libraries\lvgl\src\widgets/lv_arc.c ****     if(arc->value > max) {
 256:..\..\..\arduinoLCD\test\Pain Drain\libraries\lvgl\src\widgets/lv_arc.c ****         arc->value = max;
 257:..\..\..\arduinoLCD\test\Pain Drain\libraries\lvgl\src\widgets/lv_arc.c ****     }
 258:..\..\..\arduinoLCD\test\Pain Drain\libraries\lvgl\src\widgets/lv_arc.c **** 
 259:..\..\..\arduinoLCD\test\Pain Drain\libraries\lvgl\src\widgets/lv_arc.c ****     value_update(obj); /*value has changed relative to the new range*/
ARM GAS  C:\Users\haske\AppData\Local\Temp\ccmHbbn5.s 			page 6


 260:..\..\..\arduinoLCD\test\Pain Drain\libraries\lvgl\src\widgets/lv_arc.c **** }
 261:..\..\..\arduinoLCD\test\Pain Drain\libraries\lvgl\src\widgets/lv_arc.c **** 
 262:..\..\..\arduinoLCD\test\Pain Drain\libraries\lvgl\src\widgets/lv_arc.c **** void lv_arc_set_change_rate(lv_obj_t * obj, uint16_t rate)
 263:..\..\..\arduinoLCD\test\Pain Drain\libraries\lvgl\src\widgets/lv_arc.c **** {
 264:..\..\..\arduinoLCD\test\Pain Drain\libraries\lvgl\src\widgets/lv_arc.c ****     LV_ASSERT_OBJ(obj, MY_CLASS);
 265:..\..\..\arduinoLCD\test\Pain Drain\libraries\lvgl\src\widgets/lv_arc.c ****     lv_arc_t * arc = (lv_arc_t *)obj;
 266:..\..\..\arduinoLCD\test\Pain Drain\libraries\lvgl\src\widgets/lv_arc.c **** 
 267:..\..\..\arduinoLCD\test\Pain Drain\libraries\lvgl\src\widgets/lv_arc.c ****     arc->chg_rate = rate;
 268:..\..\..\arduinoLCD\test\Pain Drain\libraries\lvgl\src\widgets/lv_arc.c **** }
 269:..\..\..\arduinoLCD\test\Pain Drain\libraries\lvgl\src\widgets/lv_arc.c **** 
 270:..\..\..\arduinoLCD\test\Pain Drain\libraries\lvgl\src\widgets/lv_arc.c **** /*=====================
 271:..\..\..\arduinoLCD\test\Pain Drain\libraries\lvgl\src\widgets/lv_arc.c ****  * Getter functions
 272:..\..\..\arduinoLCD\test\Pain Drain\libraries\lvgl\src\widgets/lv_arc.c ****  *====================*/
 273:..\..\..\arduinoLCD\test\Pain Drain\libraries\lvgl\src\widgets/lv_arc.c **** 
 274:..\..\..\arduinoLCD\test\Pain Drain\libraries\lvgl\src\widgets/lv_arc.c **** uint16_t lv_arc_get_angle_start(lv_obj_t * obj)
 275:..\..\..\arduinoLCD\test\Pain Drain\libraries\lvgl\src\widgets/lv_arc.c **** {
 276:..\..\..\arduinoLCD\test\Pain Drain\libraries\lvgl\src\widgets/lv_arc.c ****     LV_ASSERT_OBJ(obj, MY_CLASS);
 277:..\..\..\arduinoLCD\test\Pain Drain\libraries\lvgl\src\widgets/lv_arc.c ****     return ((lv_arc_t *) obj)->indic_angle_start;
 278:..\..\..\arduinoLCD\test\Pain Drain\libraries\lvgl\src\widgets/lv_arc.c **** }
 279:..\..\..\arduinoLCD\test\Pain Drain\libraries\lvgl\src\widgets/lv_arc.c **** 
 280:..\..\..\arduinoLCD\test\Pain Drain\libraries\lvgl\src\widgets/lv_arc.c **** uint16_t lv_arc_get_angle_end(lv_obj_t * obj)
 281:..\..\..\arduinoLCD\test\Pain Drain\libraries\lvgl\src\widgets/lv_arc.c **** {
 282:..\..\..\arduinoLCD\test\Pain Drain\libraries\lvgl\src\widgets/lv_arc.c ****     LV_ASSERT_OBJ(obj, MY_CLASS);
 283:..\..\..\arduinoLCD\test\Pain Drain\libraries\lvgl\src\widgets/lv_arc.c ****     return ((lv_arc_t *) obj)->indic_angle_end;
 284:..\..\..\arduinoLCD\test\Pain Drain\libraries\lvgl\src\widgets/lv_arc.c **** }
 285:..\..\..\arduinoLCD\test\Pain Drain\libraries\lvgl\src\widgets/lv_arc.c **** 
 286:..\..\..\arduinoLCD\test\Pain Drain\libraries\lvgl\src\widgets/lv_arc.c **** uint16_t lv_arc_get_bg_angle_start(lv_obj_t * obj)
 287:..\..\..\arduinoLCD\test\Pain Drain\libraries\lvgl\src\widgets/lv_arc.c **** {
 288:..\..\..\arduinoLCD\test\Pain Drain\libraries\lvgl\src\widgets/lv_arc.c ****     LV_ASSERT_OBJ(obj, MY_CLASS);
 289:..\..\..\arduinoLCD\test\Pain Drain\libraries\lvgl\src\widgets/lv_arc.c ****     return ((lv_arc_t *) obj)->bg_angle_start;
 290:..\..\..\arduinoLCD\test\Pain Drain\libraries\lvgl\src\widgets/lv_arc.c **** }
 291:..\..\..\arduinoLCD\test\Pain Drain\libraries\lvgl\src\widgets/lv_arc.c **** 
 292:..\..\..\arduinoLCD\test\Pain Drain\libraries\lvgl\src\widgets/lv_arc.c **** uint16_t lv_arc_get_bg_angle_end(lv_obj_t * obj)
 293:..\..\..\arduinoLCD\test\Pain Drain\libraries\lvgl\src\widgets/lv_arc.c **** {
 294:..\..\..\arduinoLCD\test\Pain Drain\libraries\lvgl\src\widgets/lv_arc.c ****     LV_ASSERT_OBJ(obj, MY_CLASS);
 295:..\..\..\arduinoLCD\test\Pain Drain\libraries\lvgl\src\widgets/lv_arc.c ****     return ((lv_arc_t *) obj)->bg_angle_end;
 296:..\..\..\arduinoLCD\test\Pain Drain\libraries\lvgl\src\widgets/lv_arc.c **** }
 297:..\..\..\arduinoLCD\test\Pain Drain\libraries\lvgl\src\widgets/lv_arc.c **** 
 298:..\..\..\arduinoLCD\test\Pain Drain\libraries\lvgl\src\widgets/lv_arc.c **** int16_t lv_arc_get_value(const lv_obj_t * obj)
 299:..\..\..\arduinoLCD\test\Pain Drain\libraries\lvgl\src\widgets/lv_arc.c **** {
 300:..\..\..\arduinoLCD\test\Pain Drain\libraries\lvgl\src\widgets/lv_arc.c ****     LV_ASSERT_OBJ(obj, MY_CLASS);
 301:..\..\..\arduinoLCD\test\Pain Drain\libraries\lvgl\src\widgets/lv_arc.c ****     return ((lv_arc_t *) obj)->value;
 302:..\..\..\arduinoLCD\test\Pain Drain\libraries\lvgl\src\widgets/lv_arc.c **** }
 303:..\..\..\arduinoLCD\test\Pain Drain\libraries\lvgl\src\widgets/lv_arc.c **** 
 304:..\..\..\arduinoLCD\test\Pain Drain\libraries\lvgl\src\widgets/lv_arc.c **** int16_t lv_arc_get_min_value(const lv_obj_t * obj)
 305:..\..\..\arduinoLCD\test\Pain Drain\libraries\lvgl\src\widgets/lv_arc.c **** {
 306:..\..\..\arduinoLCD\test\Pain Drain\libraries\lvgl\src\widgets/lv_arc.c ****     LV_ASSERT_OBJ(obj, MY_CLASS);
 307:..\..\..\arduinoLCD\test\Pain Drain\libraries\lvgl\src\widgets/lv_arc.c ****     return ((lv_arc_t *) obj)->min_value;
 308:..\..\..\arduinoLCD\test\Pain Drain\libraries\lvgl\src\widgets/lv_arc.c **** }
 309:..\..\..\arduinoLCD\test\Pain Drain\libraries\lvgl\src\widgets/lv_arc.c **** 
 310:..\..\..\arduinoLCD\test\Pain Drain\libraries\lvgl\src\widgets/lv_arc.c **** int16_t lv_arc_get_max_value(const lv_obj_t * obj)
 311:..\..\..\arduinoLCD\test\Pain Drain\libraries\lvgl\src\widgets/lv_arc.c **** {
 312:..\..\..\arduinoLCD\test\Pain Drain\libraries\lvgl\src\widgets/lv_arc.c ****     LV_ASSERT_OBJ(obj, MY_CLASS);
 313:..\..\..\arduinoLCD\test\Pain Drain\libraries\lvgl\src\widgets/lv_arc.c ****     return ((lv_arc_t *) obj)->max_value;
 314:..\..\..\arduinoLCD\test\Pain Drain\libraries\lvgl\src\widgets/lv_arc.c **** }
 315:..\..\..\arduinoLCD\test\Pain Drain\libraries\lvgl\src\widgets/lv_arc.c **** 
 316:..\..\..\arduinoLCD\test\Pain Drain\libraries\lvgl\src\widgets/lv_arc.c **** lv_arc_mode_t lv_arc_get_mode(const lv_obj_t * obj)
ARM GAS  C:\Users\haske\AppData\Local\Temp\ccmHbbn5.s 			page 7


 317:..\..\..\arduinoLCD\test\Pain Drain\libraries\lvgl\src\widgets/lv_arc.c **** {
 318:..\..\..\arduinoLCD\test\Pain Drain\libraries\lvgl\src\widgets/lv_arc.c ****     LV_ASSERT_OBJ(obj, MY_CLASS);
 319:..\..\..\arduinoLCD\test\Pain Drain\libraries\lvgl\src\widgets/lv_arc.c ****     return ((lv_arc_t *) obj)->type;
 320:..\..\..\arduinoLCD\test\Pain Drain\libraries\lvgl\src\widgets/lv_arc.c **** }
 321:..\..\..\arduinoLCD\test\Pain Drain\libraries\lvgl\src\widgets/lv_arc.c **** 
 322:..\..\..\arduinoLCD\test\Pain Drain\libraries\lvgl\src\widgets/lv_arc.c **** /*=====================
 323:..\..\..\arduinoLCD\test\Pain Drain\libraries\lvgl\src\widgets/lv_arc.c ****  * Other functions
 324:..\..\..\arduinoLCD\test\Pain Drain\libraries\lvgl\src\widgets/lv_arc.c ****  *====================*/
 325:..\..\..\arduinoLCD\test\Pain Drain\libraries\lvgl\src\widgets/lv_arc.c **** 
 326:..\..\..\arduinoLCD\test\Pain Drain\libraries\lvgl\src\widgets/lv_arc.c **** 
 327:..\..\..\arduinoLCD\test\Pain Drain\libraries\lvgl\src\widgets/lv_arc.c **** void lv_arc_align_obj_to_angle(const lv_obj_t * obj, lv_obj_t * obj_to_align, lv_coord_t r_offset)
 328:..\..\..\arduinoLCD\test\Pain Drain\libraries\lvgl\src\widgets/lv_arc.c **** {
 329:..\..\..\arduinoLCD\test\Pain Drain\libraries\lvgl\src\widgets/lv_arc.c ****     LV_ASSERT_OBJ(obj, MY_CLASS);
 330:..\..\..\arduinoLCD\test\Pain Drain\libraries\lvgl\src\widgets/lv_arc.c ****     LV_ASSERT_NULL(obj_to_align);
 331:..\..\..\arduinoLCD\test\Pain Drain\libraries\lvgl\src\widgets/lv_arc.c **** 
 332:..\..\..\arduinoLCD\test\Pain Drain\libraries\lvgl\src\widgets/lv_arc.c ****     lv_obj_update_layout(obj);
 333:..\..\..\arduinoLCD\test\Pain Drain\libraries\lvgl\src\widgets/lv_arc.c **** 
 334:..\..\..\arduinoLCD\test\Pain Drain\libraries\lvgl\src\widgets/lv_arc.c ****     lv_point_t center;
 335:..\..\..\arduinoLCD\test\Pain Drain\libraries\lvgl\src\widgets/lv_arc.c ****     lv_coord_t arc_r;
 336:..\..\..\arduinoLCD\test\Pain Drain\libraries\lvgl\src\widgets/lv_arc.c ****     get_center(obj, &center, &arc_r);
 337:..\..\..\arduinoLCD\test\Pain Drain\libraries\lvgl\src\widgets/lv_arc.c ****     lv_coord_t indic_width = lv_obj_get_style_arc_width(obj, LV_PART_INDICATOR);
 338:..\..\..\arduinoLCD\test\Pain Drain\libraries\lvgl\src\widgets/lv_arc.c ****     lv_coord_t indic_width_half = indic_width / 2;
 339:..\..\..\arduinoLCD\test\Pain Drain\libraries\lvgl\src\widgets/lv_arc.c ****     arc_r -= indic_width_half;
 340:..\..\..\arduinoLCD\test\Pain Drain\libraries\lvgl\src\widgets/lv_arc.c ****     arc_r += r_offset;
 341:..\..\..\arduinoLCD\test\Pain Drain\libraries\lvgl\src\widgets/lv_arc.c **** 
 342:..\..\..\arduinoLCD\test\Pain Drain\libraries\lvgl\src\widgets/lv_arc.c ****     uint16_t angle = get_angle(obj);
 343:..\..\..\arduinoLCD\test\Pain Drain\libraries\lvgl\src\widgets/lv_arc.c ****     lv_coord_t knob_x = (arc_r * lv_trigo_sin(angle + 90)) >> LV_TRIGO_SHIFT;
 344:..\..\..\arduinoLCD\test\Pain Drain\libraries\lvgl\src\widgets/lv_arc.c ****     lv_coord_t knob_y = (arc_r * lv_trigo_sin(angle)) >> LV_TRIGO_SHIFT;
 345:..\..\..\arduinoLCD\test\Pain Drain\libraries\lvgl\src\widgets/lv_arc.c ****     lv_obj_align_to(obj_to_align, obj, LV_ALIGN_CENTER, knob_x, knob_y);
 346:..\..\..\arduinoLCD\test\Pain Drain\libraries\lvgl\src\widgets/lv_arc.c **** }
 347:..\..\..\arduinoLCD\test\Pain Drain\libraries\lvgl\src\widgets/lv_arc.c **** 
 348:..\..\..\arduinoLCD\test\Pain Drain\libraries\lvgl\src\widgets/lv_arc.c **** void lv_arc_rotate_obj_to_angle(const lv_obj_t * obj, lv_obj_t * obj_to_rotate, lv_coord_t r_offset
 349:..\..\..\arduinoLCD\test\Pain Drain\libraries\lvgl\src\widgets/lv_arc.c **** {
 350:..\..\..\arduinoLCD\test\Pain Drain\libraries\lvgl\src\widgets/lv_arc.c ****     LV_ASSERT_OBJ(obj, MY_CLASS);
 351:..\..\..\arduinoLCD\test\Pain Drain\libraries\lvgl\src\widgets/lv_arc.c ****     LV_ASSERT_NULL(obj_to_rotate);
 352:..\..\..\arduinoLCD\test\Pain Drain\libraries\lvgl\src\widgets/lv_arc.c **** 
 353:..\..\..\arduinoLCD\test\Pain Drain\libraries\lvgl\src\widgets/lv_arc.c ****     lv_obj_update_layout(obj);
 354:..\..\..\arduinoLCD\test\Pain Drain\libraries\lvgl\src\widgets/lv_arc.c **** 
 355:..\..\..\arduinoLCD\test\Pain Drain\libraries\lvgl\src\widgets/lv_arc.c ****     lv_point_t center;
 356:..\..\..\arduinoLCD\test\Pain Drain\libraries\lvgl\src\widgets/lv_arc.c ****     lv_coord_t arc_r;
 357:..\..\..\arduinoLCD\test\Pain Drain\libraries\lvgl\src\widgets/lv_arc.c ****     get_center(obj, &center, &arc_r);
 358:..\..\..\arduinoLCD\test\Pain Drain\libraries\lvgl\src\widgets/lv_arc.c ****     lv_coord_t indic_width = lv_obj_get_style_arc_width(obj, LV_PART_INDICATOR);
 359:..\..\..\arduinoLCD\test\Pain Drain\libraries\lvgl\src\widgets/lv_arc.c ****     lv_coord_t indic_width_half = indic_width / 2;
 360:..\..\..\arduinoLCD\test\Pain Drain\libraries\lvgl\src\widgets/lv_arc.c ****     arc_r -= indic_width_half;
 361:..\..\..\arduinoLCD\test\Pain Drain\libraries\lvgl\src\widgets/lv_arc.c **** 
 362:..\..\..\arduinoLCD\test\Pain Drain\libraries\lvgl\src\widgets/lv_arc.c ****     arc_r += r_offset;
 363:..\..\..\arduinoLCD\test\Pain Drain\libraries\lvgl\src\widgets/lv_arc.c ****     lv_obj_align_to(obj_to_rotate, obj, LV_ALIGN_CENTER, 0, -arc_r);
 364:..\..\..\arduinoLCD\test\Pain Drain\libraries\lvgl\src\widgets/lv_arc.c **** 
 365:..\..\..\arduinoLCD\test\Pain Drain\libraries\lvgl\src\widgets/lv_arc.c ****     lv_obj_update_layout(obj);
 366:..\..\..\arduinoLCD\test\Pain Drain\libraries\lvgl\src\widgets/lv_arc.c **** 
 367:..\..\..\arduinoLCD\test\Pain Drain\libraries\lvgl\src\widgets/lv_arc.c ****     uint16_t angle = get_angle(obj);
 368:..\..\..\arduinoLCD\test\Pain Drain\libraries\lvgl\src\widgets/lv_arc.c ****     lv_coord_t pivot_x = obj_to_rotate->coords.x1 - center.x;
 369:..\..\..\arduinoLCD\test\Pain Drain\libraries\lvgl\src\widgets/lv_arc.c ****     lv_coord_t pivot_y = obj_to_rotate->coords.y1 - center.y;
 370:..\..\..\arduinoLCD\test\Pain Drain\libraries\lvgl\src\widgets/lv_arc.c ****     lv_obj_set_style_transform_pivot_x(obj_to_rotate, -pivot_x, 0);
 371:..\..\..\arduinoLCD\test\Pain Drain\libraries\lvgl\src\widgets/lv_arc.c ****     lv_obj_set_style_transform_pivot_y(obj_to_rotate, -pivot_y, 0);
 372:..\..\..\arduinoLCD\test\Pain Drain\libraries\lvgl\src\widgets/lv_arc.c ****     lv_obj_set_style_transform_angle(obj_to_rotate, angle * 10 + 900, 0);
 373:..\..\..\arduinoLCD\test\Pain Drain\libraries\lvgl\src\widgets/lv_arc.c **** }
ARM GAS  C:\Users\haske\AppData\Local\Temp\ccmHbbn5.s 			page 8


 374:..\..\..\arduinoLCD\test\Pain Drain\libraries\lvgl\src\widgets/lv_arc.c **** 
 375:..\..\..\arduinoLCD\test\Pain Drain\libraries\lvgl\src\widgets/lv_arc.c **** 
 376:..\..\..\arduinoLCD\test\Pain Drain\libraries\lvgl\src\widgets/lv_arc.c **** /**********************
 377:..\..\..\arduinoLCD\test\Pain Drain\libraries\lvgl\src\widgets/lv_arc.c ****  *   STATIC FUNCTIONS
 378:..\..\..\arduinoLCD\test\Pain Drain\libraries\lvgl\src\widgets/lv_arc.c ****  **********************/
 379:..\..\..\arduinoLCD\test\Pain Drain\libraries\lvgl\src\widgets/lv_arc.c **** 
 380:..\..\..\arduinoLCD\test\Pain Drain\libraries\lvgl\src\widgets/lv_arc.c **** static void lv_arc_constructor(const lv_obj_class_t * class_p, lv_obj_t * obj)
 381:..\..\..\arduinoLCD\test\Pain Drain\libraries\lvgl\src\widgets/lv_arc.c **** {
 382:..\..\..\arduinoLCD\test\Pain Drain\libraries\lvgl\src\widgets/lv_arc.c ****     LV_UNUSED(class_p);
 383:..\..\..\arduinoLCD\test\Pain Drain\libraries\lvgl\src\widgets/lv_arc.c ****     LV_TRACE_OBJ_CREATE("begin");
 384:..\..\..\arduinoLCD\test\Pain Drain\libraries\lvgl\src\widgets/lv_arc.c **** 
 385:..\..\..\arduinoLCD\test\Pain Drain\libraries\lvgl\src\widgets/lv_arc.c ****     lv_arc_t * arc = (lv_arc_t *)obj;
 386:..\..\..\arduinoLCD\test\Pain Drain\libraries\lvgl\src\widgets/lv_arc.c **** 
 387:..\..\..\arduinoLCD\test\Pain Drain\libraries\lvgl\src\widgets/lv_arc.c ****     /*Initialize the allocated 'ext'*/
 388:..\..\..\arduinoLCD\test\Pain Drain\libraries\lvgl\src\widgets/lv_arc.c ****     arc->rotation = 0;
 389:..\..\..\arduinoLCD\test\Pain Drain\libraries\lvgl\src\widgets/lv_arc.c ****     arc->bg_angle_start = 135;
 390:..\..\..\arduinoLCD\test\Pain Drain\libraries\lvgl\src\widgets/lv_arc.c ****     arc->bg_angle_end   = 45;
 391:..\..\..\arduinoLCD\test\Pain Drain\libraries\lvgl\src\widgets/lv_arc.c ****     arc->indic_angle_start = 135;
 392:..\..\..\arduinoLCD\test\Pain Drain\libraries\lvgl\src\widgets/lv_arc.c ****     arc->indic_angle_end   = 270;
 393:..\..\..\arduinoLCD\test\Pain Drain\libraries\lvgl\src\widgets/lv_arc.c ****     arc->type = LV_ARC_MODE_NORMAL;
 394:..\..\..\arduinoLCD\test\Pain Drain\libraries\lvgl\src\widgets/lv_arc.c ****     arc->value = VALUE_UNSET;
 395:..\..\..\arduinoLCD\test\Pain Drain\libraries\lvgl\src\widgets/lv_arc.c ****     arc->min_close = 1;
 396:..\..\..\arduinoLCD\test\Pain Drain\libraries\lvgl\src\widgets/lv_arc.c ****     arc->min_value = 0;
 397:..\..\..\arduinoLCD\test\Pain Drain\libraries\lvgl\src\widgets/lv_arc.c ****     arc->max_value = 100;
 398:..\..\..\arduinoLCD\test\Pain Drain\libraries\lvgl\src\widgets/lv_arc.c ****     arc->dragging = false;
 399:..\..\..\arduinoLCD\test\Pain Drain\libraries\lvgl\src\widgets/lv_arc.c ****     arc->chg_rate = 720;
 400:..\..\..\arduinoLCD\test\Pain Drain\libraries\lvgl\src\widgets/lv_arc.c ****     arc->last_tick = lv_tick_get();
 401:..\..\..\arduinoLCD\test\Pain Drain\libraries\lvgl\src\widgets/lv_arc.c ****     arc->last_angle = arc->indic_angle_end;
 402:..\..\..\arduinoLCD\test\Pain Drain\libraries\lvgl\src\widgets/lv_arc.c **** 
 403:..\..\..\arduinoLCD\test\Pain Drain\libraries\lvgl\src\widgets/lv_arc.c ****     lv_obj_add_flag(obj, LV_OBJ_FLAG_CLICKABLE);
 404:..\..\..\arduinoLCD\test\Pain Drain\libraries\lvgl\src\widgets/lv_arc.c ****     lv_obj_clear_flag(obj, LV_OBJ_FLAG_SCROLL_CHAIN | LV_OBJ_FLAG_SCROLLABLE);
 405:..\..\..\arduinoLCD\test\Pain Drain\libraries\lvgl\src\widgets/lv_arc.c ****     lv_obj_set_ext_click_area(obj, LV_DPI_DEF / 10);
 406:..\..\..\arduinoLCD\test\Pain Drain\libraries\lvgl\src\widgets/lv_arc.c **** 
 407:..\..\..\arduinoLCD\test\Pain Drain\libraries\lvgl\src\widgets/lv_arc.c **** 
 408:..\..\..\arduinoLCD\test\Pain Drain\libraries\lvgl\src\widgets/lv_arc.c ****     LV_TRACE_OBJ_CREATE("finished");
 409:..\..\..\arduinoLCD\test\Pain Drain\libraries\lvgl\src\widgets/lv_arc.c **** }
 410:..\..\..\arduinoLCD\test\Pain Drain\libraries\lvgl\src\widgets/lv_arc.c **** 
 411:..\..\..\arduinoLCD\test\Pain Drain\libraries\lvgl\src\widgets/lv_arc.c **** static void lv_arc_event(const lv_obj_class_t * class_p, lv_event_t * e)
 412:..\..\..\arduinoLCD\test\Pain Drain\libraries\lvgl\src\widgets/lv_arc.c **** {
 413:..\..\..\arduinoLCD\test\Pain Drain\libraries\lvgl\src\widgets/lv_arc.c ****     LV_UNUSED(class_p);
 414:..\..\..\arduinoLCD\test\Pain Drain\libraries\lvgl\src\widgets/lv_arc.c **** 
 415:..\..\..\arduinoLCD\test\Pain Drain\libraries\lvgl\src\widgets/lv_arc.c ****     lv_res_t res;
 416:..\..\..\arduinoLCD\test\Pain Drain\libraries\lvgl\src\widgets/lv_arc.c **** 
 417:..\..\..\arduinoLCD\test\Pain Drain\libraries\lvgl\src\widgets/lv_arc.c ****     /*Call the ancestor's event handler*/
 418:..\..\..\arduinoLCD\test\Pain Drain\libraries\lvgl\src\widgets/lv_arc.c ****     res = lv_obj_event_base(MY_CLASS, e);
 419:..\..\..\arduinoLCD\test\Pain Drain\libraries\lvgl\src\widgets/lv_arc.c ****     if(res != LV_RES_OK) return;
 420:..\..\..\arduinoLCD\test\Pain Drain\libraries\lvgl\src\widgets/lv_arc.c **** 
 421:..\..\..\arduinoLCD\test\Pain Drain\libraries\lvgl\src\widgets/lv_arc.c ****     lv_event_code_t code = lv_event_get_code(e);
 422:..\..\..\arduinoLCD\test\Pain Drain\libraries\lvgl\src\widgets/lv_arc.c ****     lv_obj_t * obj = lv_event_get_target(e);
 423:..\..\..\arduinoLCD\test\Pain Drain\libraries\lvgl\src\widgets/lv_arc.c ****     lv_arc_t * arc = (lv_arc_t *)lv_event_get_target(e);
 424:..\..\..\arduinoLCD\test\Pain Drain\libraries\lvgl\src\widgets/lv_arc.c ****     if(code == LV_EVENT_PRESSING) {
 425:..\..\..\arduinoLCD\test\Pain Drain\libraries\lvgl\src\widgets/lv_arc.c ****         lv_indev_t * indev = lv_indev_get_act();
 426:..\..\..\arduinoLCD\test\Pain Drain\libraries\lvgl\src\widgets/lv_arc.c ****         if(indev == NULL) return;
 427:..\..\..\arduinoLCD\test\Pain Drain\libraries\lvgl\src\widgets/lv_arc.c **** 
 428:..\..\..\arduinoLCD\test\Pain Drain\libraries\lvgl\src\widgets/lv_arc.c ****         /*Handle only pointers here*/
 429:..\..\..\arduinoLCD\test\Pain Drain\libraries\lvgl\src\widgets/lv_arc.c ****         lv_indev_type_t indev_type = lv_indev_get_type(indev);
 430:..\..\..\arduinoLCD\test\Pain Drain\libraries\lvgl\src\widgets/lv_arc.c ****         if(indev_type != LV_INDEV_TYPE_POINTER) return;
ARM GAS  C:\Users\haske\AppData\Local\Temp\ccmHbbn5.s 			page 9


 431:..\..\..\arduinoLCD\test\Pain Drain\libraries\lvgl\src\widgets/lv_arc.c **** 
 432:..\..\..\arduinoLCD\test\Pain Drain\libraries\lvgl\src\widgets/lv_arc.c ****         lv_point_t p;
 433:..\..\..\arduinoLCD\test\Pain Drain\libraries\lvgl\src\widgets/lv_arc.c ****         lv_indev_get_point(indev, &p);
 434:..\..\..\arduinoLCD\test\Pain Drain\libraries\lvgl\src\widgets/lv_arc.c **** 
 435:..\..\..\arduinoLCD\test\Pain Drain\libraries\lvgl\src\widgets/lv_arc.c ****         /*Make point relative to the arc's center*/
 436:..\..\..\arduinoLCD\test\Pain Drain\libraries\lvgl\src\widgets/lv_arc.c ****         lv_point_t center;
 437:..\..\..\arduinoLCD\test\Pain Drain\libraries\lvgl\src\widgets/lv_arc.c ****         lv_coord_t r;
 438:..\..\..\arduinoLCD\test\Pain Drain\libraries\lvgl\src\widgets/lv_arc.c ****         get_center(obj, &center, &r);
 439:..\..\..\arduinoLCD\test\Pain Drain\libraries\lvgl\src\widgets/lv_arc.c **** 
 440:..\..\..\arduinoLCD\test\Pain Drain\libraries\lvgl\src\widgets/lv_arc.c ****         p.x -= center.x;
 441:..\..\..\arduinoLCD\test\Pain Drain\libraries\lvgl\src\widgets/lv_arc.c ****         p.y -= center.y;
 442:..\..\..\arduinoLCD\test\Pain Drain\libraries\lvgl\src\widgets/lv_arc.c **** 
 443:..\..\..\arduinoLCD\test\Pain Drain\libraries\lvgl\src\widgets/lv_arc.c ****         /*Enter dragging mode if pressed out of the knob*/
 444:..\..\..\arduinoLCD\test\Pain Drain\libraries\lvgl\src\widgets/lv_arc.c ****         if(arc->dragging == false) {
 445:..\..\..\arduinoLCD\test\Pain Drain\libraries\lvgl\src\widgets/lv_arc.c ****             lv_coord_t indic_width = lv_obj_get_style_arc_width(obj, LV_PART_INDICATOR);
 446:..\..\..\arduinoLCD\test\Pain Drain\libraries\lvgl\src\widgets/lv_arc.c ****             r -= indic_width;
 447:..\..\..\arduinoLCD\test\Pain Drain\libraries\lvgl\src\widgets/lv_arc.c ****             /*Add some more sensitive area if there is no advanced git testing.
 448:..\..\..\arduinoLCD\test\Pain Drain\libraries\lvgl\src\widgets/lv_arc.c ****              * (Advanced hit testing is more precise)*/
 449:..\..\..\arduinoLCD\test\Pain Drain\libraries\lvgl\src\widgets/lv_arc.c ****             if(lv_obj_has_flag(obj, LV_OBJ_FLAG_ADV_HITTEST)) {
 450:..\..\..\arduinoLCD\test\Pain Drain\libraries\lvgl\src\widgets/lv_arc.c ****                 r -= indic_width;
 451:..\..\..\arduinoLCD\test\Pain Drain\libraries\lvgl\src\widgets/lv_arc.c **** 
 452:..\..\..\arduinoLCD\test\Pain Drain\libraries\lvgl\src\widgets/lv_arc.c ****             }
 453:..\..\..\arduinoLCD\test\Pain Drain\libraries\lvgl\src\widgets/lv_arc.c ****             else {
 454:..\..\..\arduinoLCD\test\Pain Drain\libraries\lvgl\src\widgets/lv_arc.c ****                 r -= LV_MAX(r / 4, indic_width);
 455:..\..\..\arduinoLCD\test\Pain Drain\libraries\lvgl\src\widgets/lv_arc.c ****             }
 456:..\..\..\arduinoLCD\test\Pain Drain\libraries\lvgl\src\widgets/lv_arc.c ****             if(r < 1) r = 1;
 457:..\..\..\arduinoLCD\test\Pain Drain\libraries\lvgl\src\widgets/lv_arc.c **** 
 458:..\..\..\arduinoLCD\test\Pain Drain\libraries\lvgl\src\widgets/lv_arc.c ****             if(p.x * p.x + p.y * p.y > r * r) {
 459:..\..\..\arduinoLCD\test\Pain Drain\libraries\lvgl\src\widgets/lv_arc.c ****                 arc->dragging = true;
 460:..\..\..\arduinoLCD\test\Pain Drain\libraries\lvgl\src\widgets/lv_arc.c ****                 arc->last_tick = lv_tick_get(); /*Capture timestamp at dragging start*/
 461:..\..\..\arduinoLCD\test\Pain Drain\libraries\lvgl\src\widgets/lv_arc.c ****             }
 462:..\..\..\arduinoLCD\test\Pain Drain\libraries\lvgl\src\widgets/lv_arc.c ****         }
 463:..\..\..\arduinoLCD\test\Pain Drain\libraries\lvgl\src\widgets/lv_arc.c **** 
 464:..\..\..\arduinoLCD\test\Pain Drain\libraries\lvgl\src\widgets/lv_arc.c ****         /*It must be in "dragging" mode to turn the arc*/
 465:..\..\..\arduinoLCD\test\Pain Drain\libraries\lvgl\src\widgets/lv_arc.c ****         if(arc->dragging == false) return;
 466:..\..\..\arduinoLCD\test\Pain Drain\libraries\lvgl\src\widgets/lv_arc.c **** 
 467:..\..\..\arduinoLCD\test\Pain Drain\libraries\lvgl\src\widgets/lv_arc.c ****         /*No angle can be determined if exactly the middle of the arc is being pressed*/
 468:..\..\..\arduinoLCD\test\Pain Drain\libraries\lvgl\src\widgets/lv_arc.c ****         if(p.x == 0 && p.y == 0) return;
 469:..\..\..\arduinoLCD\test\Pain Drain\libraries\lvgl\src\widgets/lv_arc.c **** 
 470:..\..\..\arduinoLCD\test\Pain Drain\libraries\lvgl\src\widgets/lv_arc.c ****         /*Calculate the angle of the pressed point*/
 471:..\..\..\arduinoLCD\test\Pain Drain\libraries\lvgl\src\widgets/lv_arc.c ****         int16_t angle;
 472:..\..\..\arduinoLCD\test\Pain Drain\libraries\lvgl\src\widgets/lv_arc.c ****         int16_t bg_end = arc->bg_angle_end;
 473:..\..\..\arduinoLCD\test\Pain Drain\libraries\lvgl\src\widgets/lv_arc.c ****         if(arc->bg_angle_end < arc->bg_angle_start) {
 474:..\..\..\arduinoLCD\test\Pain Drain\libraries\lvgl\src\widgets/lv_arc.c ****             bg_end = arc->bg_angle_end + 360;
 475:..\..\..\arduinoLCD\test\Pain Drain\libraries\lvgl\src\widgets/lv_arc.c ****         }
 476:..\..\..\arduinoLCD\test\Pain Drain\libraries\lvgl\src\widgets/lv_arc.c **** 
 477:..\..\..\arduinoLCD\test\Pain Drain\libraries\lvgl\src\widgets/lv_arc.c ****         angle = lv_atan2(p.y, p.x);
 478:..\..\..\arduinoLCD\test\Pain Drain\libraries\lvgl\src\widgets/lv_arc.c ****         angle -= arc->rotation;
 479:..\..\..\arduinoLCD\test\Pain Drain\libraries\lvgl\src\widgets/lv_arc.c ****         angle -= arc->bg_angle_start;  /*Make the angle relative to the start angle*/
 480:..\..\..\arduinoLCD\test\Pain Drain\libraries\lvgl\src\widgets/lv_arc.c **** 
 481:..\..\..\arduinoLCD\test\Pain Drain\libraries\lvgl\src\widgets/lv_arc.c ****         if(angle < 0) angle += 360;
 482:..\..\..\arduinoLCD\test\Pain Drain\libraries\lvgl\src\widgets/lv_arc.c **** 
 483:..\..\..\arduinoLCD\test\Pain Drain\libraries\lvgl\src\widgets/lv_arc.c ****         int16_t deg_range = bg_end - arc->bg_angle_start;
 484:..\..\..\arduinoLCD\test\Pain Drain\libraries\lvgl\src\widgets/lv_arc.c **** 
 485:..\..\..\arduinoLCD\test\Pain Drain\libraries\lvgl\src\widgets/lv_arc.c ****         int16_t last_angle_rel = arc->last_angle - arc->bg_angle_start;
 486:..\..\..\arduinoLCD\test\Pain Drain\libraries\lvgl\src\widgets/lv_arc.c ****         int16_t delta_angle = angle - last_angle_rel;
 487:..\..\..\arduinoLCD\test\Pain Drain\libraries\lvgl\src\widgets/lv_arc.c **** 
ARM GAS  C:\Users\haske\AppData\Local\Temp\ccmHbbn5.s 			page 10


 488:..\..\..\arduinoLCD\test\Pain Drain\libraries\lvgl\src\widgets/lv_arc.c ****         /*Do not allow big jumps.
 489:..\..\..\arduinoLCD\test\Pain Drain\libraries\lvgl\src\widgets/lv_arc.c ****          *It's mainly to avoid jumping to the opposite end if the "dead" range between min. and max
 490:..\..\..\arduinoLCD\test\Pain Drain\libraries\lvgl\src\widgets/lv_arc.c ****          *Check which end was closer on the last valid press (arc->min_close) and prefer that end*/
 491:..\..\..\arduinoLCD\test\Pain Drain\libraries\lvgl\src\widgets/lv_arc.c ****         if(LV_ABS(delta_angle) > 280) {
 492:..\..\..\arduinoLCD\test\Pain Drain\libraries\lvgl\src\widgets/lv_arc.c ****             if(arc->min_close) angle = 0;
 493:..\..\..\arduinoLCD\test\Pain Drain\libraries\lvgl\src\widgets/lv_arc.c ****             else angle = deg_range;
 494:..\..\..\arduinoLCD\test\Pain Drain\libraries\lvgl\src\widgets/lv_arc.c ****         }
 495:..\..\..\arduinoLCD\test\Pain Drain\libraries\lvgl\src\widgets/lv_arc.c ****         else {
 496:..\..\..\arduinoLCD\test\Pain Drain\libraries\lvgl\src\widgets/lv_arc.c ****             if(angle < deg_range / 2)arc->min_close = 1;
 497:..\..\..\arduinoLCD\test\Pain Drain\libraries\lvgl\src\widgets/lv_arc.c ****             else arc->min_close = 0;
 498:..\..\..\arduinoLCD\test\Pain Drain\libraries\lvgl\src\widgets/lv_arc.c ****         }
 499:..\..\..\arduinoLCD\test\Pain Drain\libraries\lvgl\src\widgets/lv_arc.c **** 
 500:..\..\..\arduinoLCD\test\Pain Drain\libraries\lvgl\src\widgets/lv_arc.c ****         /*Calculate the slew rate limited angle based on change rate (degrees/sec)*/
 501:..\..\..\arduinoLCD\test\Pain Drain\libraries\lvgl\src\widgets/lv_arc.c ****         delta_angle = angle - last_angle_rel;
 502:..\..\..\arduinoLCD\test\Pain Drain\libraries\lvgl\src\widgets/lv_arc.c ****         uint32_t delta_tick = lv_tick_elaps(arc->last_tick);
 503:..\..\..\arduinoLCD\test\Pain Drain\libraries\lvgl\src\widgets/lv_arc.c ****         int16_t delta_angle_max = (arc->chg_rate * delta_tick) / 1000;
 504:..\..\..\arduinoLCD\test\Pain Drain\libraries\lvgl\src\widgets/lv_arc.c **** 
 505:..\..\..\arduinoLCD\test\Pain Drain\libraries\lvgl\src\widgets/lv_arc.c ****         if(delta_angle > delta_angle_max) {
 506:..\..\..\arduinoLCD\test\Pain Drain\libraries\lvgl\src\widgets/lv_arc.c ****             delta_angle = delta_angle_max;
 507:..\..\..\arduinoLCD\test\Pain Drain\libraries\lvgl\src\widgets/lv_arc.c ****         }
 508:..\..\..\arduinoLCD\test\Pain Drain\libraries\lvgl\src\widgets/lv_arc.c ****         else if(delta_angle < -delta_angle_max) {
 509:..\..\..\arduinoLCD\test\Pain Drain\libraries\lvgl\src\widgets/lv_arc.c ****             delta_angle = -delta_angle_max;
 510:..\..\..\arduinoLCD\test\Pain Drain\libraries\lvgl\src\widgets/lv_arc.c ****         }
 511:..\..\..\arduinoLCD\test\Pain Drain\libraries\lvgl\src\widgets/lv_arc.c **** 
 512:..\..\..\arduinoLCD\test\Pain Drain\libraries\lvgl\src\widgets/lv_arc.c ****         angle = last_angle_rel + delta_angle; /*Apply the limited angle change*/
 513:..\..\..\arduinoLCD\test\Pain Drain\libraries\lvgl\src\widgets/lv_arc.c **** 
 514:..\..\..\arduinoLCD\test\Pain Drain\libraries\lvgl\src\widgets/lv_arc.c ****         /*Rounding for symmetry*/
 515:..\..\..\arduinoLCD\test\Pain Drain\libraries\lvgl\src\widgets/lv_arc.c ****         int32_t round = ((bg_end - arc->bg_angle_start) * 8) / (arc->max_value - arc->min_value);
 516:..\..\..\arduinoLCD\test\Pain Drain\libraries\lvgl\src\widgets/lv_arc.c ****         round = (round + 4) >> 4;
 517:..\..\..\arduinoLCD\test\Pain Drain\libraries\lvgl\src\widgets/lv_arc.c ****         angle += round;
 518:..\..\..\arduinoLCD\test\Pain Drain\libraries\lvgl\src\widgets/lv_arc.c **** 
 519:..\..\..\arduinoLCD\test\Pain Drain\libraries\lvgl\src\widgets/lv_arc.c ****         angle += arc->bg_angle_start;  /*Make the angle absolute again*/
 520:..\..\..\arduinoLCD\test\Pain Drain\libraries\lvgl\src\widgets/lv_arc.c **** 
 521:..\..\..\arduinoLCD\test\Pain Drain\libraries\lvgl\src\widgets/lv_arc.c ****         /*Set the new value*/
 522:..\..\..\arduinoLCD\test\Pain Drain\libraries\lvgl\src\widgets/lv_arc.c ****         int16_t old_value = arc->value;
 523:..\..\..\arduinoLCD\test\Pain Drain\libraries\lvgl\src\widgets/lv_arc.c ****         int16_t new_value = lv_map(angle, arc->bg_angle_start, bg_end, arc->min_value, arc->max_val
 524:..\..\..\arduinoLCD\test\Pain Drain\libraries\lvgl\src\widgets/lv_arc.c ****         if(new_value != lv_arc_get_value(obj)) {
 525:..\..\..\arduinoLCD\test\Pain Drain\libraries\lvgl\src\widgets/lv_arc.c ****             arc->last_tick = lv_tick_get(); /*Cache timestamp for the next iteration*/
 526:..\..\..\arduinoLCD\test\Pain Drain\libraries\lvgl\src\widgets/lv_arc.c ****             lv_arc_set_value(obj, new_value); /*set_value caches the last_angle for the next iterat
 527:..\..\..\arduinoLCD\test\Pain Drain\libraries\lvgl\src\widgets/lv_arc.c ****             if(new_value != old_value) {
 528:..\..\..\arduinoLCD\test\Pain Drain\libraries\lvgl\src\widgets/lv_arc.c ****                 res = lv_event_send(obj, LV_EVENT_VALUE_CHANGED, NULL);
 529:..\..\..\arduinoLCD\test\Pain Drain\libraries\lvgl\src\widgets/lv_arc.c ****                 if(res != LV_RES_OK) return;
 530:..\..\..\arduinoLCD\test\Pain Drain\libraries\lvgl\src\widgets/lv_arc.c ****             }
 531:..\..\..\arduinoLCD\test\Pain Drain\libraries\lvgl\src\widgets/lv_arc.c ****         }
 532:..\..\..\arduinoLCD\test\Pain Drain\libraries\lvgl\src\widgets/lv_arc.c **** 
 533:..\..\..\arduinoLCD\test\Pain Drain\libraries\lvgl\src\widgets/lv_arc.c ****         /*Don't let the elapsed time become too big while sitting on an end point*/
 534:..\..\..\arduinoLCD\test\Pain Drain\libraries\lvgl\src\widgets/lv_arc.c ****         if(new_value == arc->min_value || new_value == arc->max_value) {
 535:..\..\..\arduinoLCD\test\Pain Drain\libraries\lvgl\src\widgets/lv_arc.c ****             arc->last_tick = lv_tick_get(); /*Cache timestamp for the next iteration*/
 536:..\..\..\arduinoLCD\test\Pain Drain\libraries\lvgl\src\widgets/lv_arc.c ****         }
 537:..\..\..\arduinoLCD\test\Pain Drain\libraries\lvgl\src\widgets/lv_arc.c ****     }
 538:..\..\..\arduinoLCD\test\Pain Drain\libraries\lvgl\src\widgets/lv_arc.c ****     else if(code == LV_EVENT_RELEASED || code == LV_EVENT_PRESS_LOST) {
 539:..\..\..\arduinoLCD\test\Pain Drain\libraries\lvgl\src\widgets/lv_arc.c ****         arc->dragging = false;
 540:..\..\..\arduinoLCD\test\Pain Drain\libraries\lvgl\src\widgets/lv_arc.c **** 
 541:..\..\..\arduinoLCD\test\Pain Drain\libraries\lvgl\src\widgets/lv_arc.c ****         /*Leave edit mode if released. (No need to wait for LONG_PRESS)*/
 542:..\..\..\arduinoLCD\test\Pain Drain\libraries\lvgl\src\widgets/lv_arc.c ****         lv_group_t * g             = lv_obj_get_group(obj);
 543:..\..\..\arduinoLCD\test\Pain Drain\libraries\lvgl\src\widgets/lv_arc.c ****         bool editing               = lv_group_get_editing(g);
 544:..\..\..\arduinoLCD\test\Pain Drain\libraries\lvgl\src\widgets/lv_arc.c ****         lv_indev_type_t indev_type = lv_indev_get_type(lv_indev_get_act());
ARM GAS  C:\Users\haske\AppData\Local\Temp\ccmHbbn5.s 			page 11


 545:..\..\..\arduinoLCD\test\Pain Drain\libraries\lvgl\src\widgets/lv_arc.c ****         if(indev_type == LV_INDEV_TYPE_ENCODER) {
 546:..\..\..\arduinoLCD\test\Pain Drain\libraries\lvgl\src\widgets/lv_arc.c ****             if(editing) lv_group_set_editing(g, false);
 547:..\..\..\arduinoLCD\test\Pain Drain\libraries\lvgl\src\widgets/lv_arc.c ****         }
 548:..\..\..\arduinoLCD\test\Pain Drain\libraries\lvgl\src\widgets/lv_arc.c **** 
 549:..\..\..\arduinoLCD\test\Pain Drain\libraries\lvgl\src\widgets/lv_arc.c ****     }
 550:..\..\..\arduinoLCD\test\Pain Drain\libraries\lvgl\src\widgets/lv_arc.c ****     else if(code == LV_EVENT_KEY) {
 551:..\..\..\arduinoLCD\test\Pain Drain\libraries\lvgl\src\widgets/lv_arc.c ****         char c = *((char *)lv_event_get_param(e));
 552:..\..\..\arduinoLCD\test\Pain Drain\libraries\lvgl\src\widgets/lv_arc.c **** 
 553:..\..\..\arduinoLCD\test\Pain Drain\libraries\lvgl\src\widgets/lv_arc.c ****         int16_t old_value = arc->value;
 554:..\..\..\arduinoLCD\test\Pain Drain\libraries\lvgl\src\widgets/lv_arc.c ****         if(c == LV_KEY_RIGHT || c == LV_KEY_UP) {
 555:..\..\..\arduinoLCD\test\Pain Drain\libraries\lvgl\src\widgets/lv_arc.c ****             lv_arc_set_value(obj, lv_arc_get_value(obj) + 1);
 556:..\..\..\arduinoLCD\test\Pain Drain\libraries\lvgl\src\widgets/lv_arc.c ****         }
 557:..\..\..\arduinoLCD\test\Pain Drain\libraries\lvgl\src\widgets/lv_arc.c ****         else if(c == LV_KEY_LEFT || c == LV_KEY_DOWN) {
 558:..\..\..\arduinoLCD\test\Pain Drain\libraries\lvgl\src\widgets/lv_arc.c ****             lv_arc_set_value(obj, lv_arc_get_value(obj) - 1);
 559:..\..\..\arduinoLCD\test\Pain Drain\libraries\lvgl\src\widgets/lv_arc.c ****         }
 560:..\..\..\arduinoLCD\test\Pain Drain\libraries\lvgl\src\widgets/lv_arc.c **** 
 561:..\..\..\arduinoLCD\test\Pain Drain\libraries\lvgl\src\widgets/lv_arc.c ****         if(old_value != arc->value) {
 562:..\..\..\arduinoLCD\test\Pain Drain\libraries\lvgl\src\widgets/lv_arc.c ****             res = lv_event_send(obj, LV_EVENT_VALUE_CHANGED, NULL);
 563:..\..\..\arduinoLCD\test\Pain Drain\libraries\lvgl\src\widgets/lv_arc.c ****             if(res != LV_RES_OK) return;
 564:..\..\..\arduinoLCD\test\Pain Drain\libraries\lvgl\src\widgets/lv_arc.c ****         }
 565:..\..\..\arduinoLCD\test\Pain Drain\libraries\lvgl\src\widgets/lv_arc.c ****     }
 566:..\..\..\arduinoLCD\test\Pain Drain\libraries\lvgl\src\widgets/lv_arc.c ****     else if(code == LV_EVENT_HIT_TEST) {
 567:..\..\..\arduinoLCD\test\Pain Drain\libraries\lvgl\src\widgets/lv_arc.c ****         lv_hit_test_info_t * info = lv_event_get_param(e);;
 568:..\..\..\arduinoLCD\test\Pain Drain\libraries\lvgl\src\widgets/lv_arc.c **** 
 569:..\..\..\arduinoLCD\test\Pain Drain\libraries\lvgl\src\widgets/lv_arc.c ****         lv_point_t p;
 570:..\..\..\arduinoLCD\test\Pain Drain\libraries\lvgl\src\widgets/lv_arc.c ****         lv_coord_t r;
 571:..\..\..\arduinoLCD\test\Pain Drain\libraries\lvgl\src\widgets/lv_arc.c ****         get_center(obj, &p, &r);
 572:..\..\..\arduinoLCD\test\Pain Drain\libraries\lvgl\src\widgets/lv_arc.c **** 
 573:..\..\..\arduinoLCD\test\Pain Drain\libraries\lvgl\src\widgets/lv_arc.c ****         lv_coord_t ext_click_area = 0;
 574:..\..\..\arduinoLCD\test\Pain Drain\libraries\lvgl\src\widgets/lv_arc.c ****         if(obj->spec_attr) ext_click_area = obj->spec_attr->ext_click_pad;
 575:..\..\..\arduinoLCD\test\Pain Drain\libraries\lvgl\src\widgets/lv_arc.c **** 
 576:..\..\..\arduinoLCD\test\Pain Drain\libraries\lvgl\src\widgets/lv_arc.c ****         lv_coord_t w = lv_obj_get_style_arc_width(obj, LV_PART_MAIN);
 577:..\..\..\arduinoLCD\test\Pain Drain\libraries\lvgl\src\widgets/lv_arc.c ****         r -= w + ext_click_area;
 578:..\..\..\arduinoLCD\test\Pain Drain\libraries\lvgl\src\widgets/lv_arc.c **** 
 579:..\..\..\arduinoLCD\test\Pain Drain\libraries\lvgl\src\widgets/lv_arc.c ****         lv_area_t a;
 580:..\..\..\arduinoLCD\test\Pain Drain\libraries\lvgl\src\widgets/lv_arc.c ****         /*Invalid if clicked inside*/
 581:..\..\..\arduinoLCD\test\Pain Drain\libraries\lvgl\src\widgets/lv_arc.c ****         lv_area_set(&a, p.x - r, p.y - r, p.x + r, p.y + r);
 582:..\..\..\arduinoLCD\test\Pain Drain\libraries\lvgl\src\widgets/lv_arc.c ****         if(_lv_area_is_point_on(&a, info->point, LV_RADIUS_CIRCLE)) {
 583:..\..\..\arduinoLCD\test\Pain Drain\libraries\lvgl\src\widgets/lv_arc.c ****             info->res = false;
 584:..\..\..\arduinoLCD\test\Pain Drain\libraries\lvgl\src\widgets/lv_arc.c ****             return;
 585:..\..\..\arduinoLCD\test\Pain Drain\libraries\lvgl\src\widgets/lv_arc.c ****         }
 586:..\..\..\arduinoLCD\test\Pain Drain\libraries\lvgl\src\widgets/lv_arc.c **** 
 587:..\..\..\arduinoLCD\test\Pain Drain\libraries\lvgl\src\widgets/lv_arc.c ****         /*Valid if no clicked outside*/
 588:..\..\..\arduinoLCD\test\Pain Drain\libraries\lvgl\src\widgets/lv_arc.c ****         lv_area_increase(&a, w + ext_click_area * 2, w + ext_click_area * 2);
 589:..\..\..\arduinoLCD\test\Pain Drain\libraries\lvgl\src\widgets/lv_arc.c ****         info->res = _lv_area_is_point_on(&a, info->point, LV_RADIUS_CIRCLE);
 590:..\..\..\arduinoLCD\test\Pain Drain\libraries\lvgl\src\widgets/lv_arc.c ****     }
 591:..\..\..\arduinoLCD\test\Pain Drain\libraries\lvgl\src\widgets/lv_arc.c ****     else if(code == LV_EVENT_REFR_EXT_DRAW_SIZE) {
 592:..\..\..\arduinoLCD\test\Pain Drain\libraries\lvgl\src\widgets/lv_arc.c ****         lv_coord_t bg_left = lv_obj_get_style_pad_left(obj, LV_PART_MAIN);
 593:..\..\..\arduinoLCD\test\Pain Drain\libraries\lvgl\src\widgets/lv_arc.c ****         lv_coord_t bg_right = lv_obj_get_style_pad_right(obj, LV_PART_MAIN);
 594:..\..\..\arduinoLCD\test\Pain Drain\libraries\lvgl\src\widgets/lv_arc.c ****         lv_coord_t bg_top = lv_obj_get_style_pad_top(obj, LV_PART_MAIN);
 595:..\..\..\arduinoLCD\test\Pain Drain\libraries\lvgl\src\widgets/lv_arc.c ****         lv_coord_t bg_bottom = lv_obj_get_style_pad_bottom(obj, LV_PART_MAIN);
 596:..\..\..\arduinoLCD\test\Pain Drain\libraries\lvgl\src\widgets/lv_arc.c ****         lv_coord_t bg_pad = LV_MAX4(bg_left, bg_right, bg_top, bg_bottom);
 597:..\..\..\arduinoLCD\test\Pain Drain\libraries\lvgl\src\widgets/lv_arc.c **** 
 598:..\..\..\arduinoLCD\test\Pain Drain\libraries\lvgl\src\widgets/lv_arc.c ****         lv_coord_t knob_left = lv_obj_get_style_pad_left(obj, LV_PART_KNOB);
 599:..\..\..\arduinoLCD\test\Pain Drain\libraries\lvgl\src\widgets/lv_arc.c ****         lv_coord_t knob_right = lv_obj_get_style_pad_right(obj, LV_PART_KNOB);
 600:..\..\..\arduinoLCD\test\Pain Drain\libraries\lvgl\src\widgets/lv_arc.c ****         lv_coord_t knob_top = lv_obj_get_style_pad_top(obj, LV_PART_KNOB);
 601:..\..\..\arduinoLCD\test\Pain Drain\libraries\lvgl\src\widgets/lv_arc.c ****         lv_coord_t knob_bottom = lv_obj_get_style_pad_bottom(obj, LV_PART_KNOB);
ARM GAS  C:\Users\haske\AppData\Local\Temp\ccmHbbn5.s 			page 12


 602:..\..\..\arduinoLCD\test\Pain Drain\libraries\lvgl\src\widgets/lv_arc.c ****         lv_coord_t knob_pad = LV_MAX4(knob_left, knob_right, knob_top, knob_bottom) + 2;
 603:..\..\..\arduinoLCD\test\Pain Drain\libraries\lvgl\src\widgets/lv_arc.c **** 
 604:..\..\..\arduinoLCD\test\Pain Drain\libraries\lvgl\src\widgets/lv_arc.c ****         lv_coord_t knob_extra_size = knob_pad - bg_pad;
 605:..\..\..\arduinoLCD\test\Pain Drain\libraries\lvgl\src\widgets/lv_arc.c ****         knob_extra_size += knob_get_extra_size(obj);
 606:..\..\..\arduinoLCD\test\Pain Drain\libraries\lvgl\src\widgets/lv_arc.c **** 
 607:..\..\..\arduinoLCD\test\Pain Drain\libraries\lvgl\src\widgets/lv_arc.c ****         lv_coord_t * s = lv_event_get_param(e);
 608:..\..\..\arduinoLCD\test\Pain Drain\libraries\lvgl\src\widgets/lv_arc.c ****         *s = LV_MAX(*s, knob_extra_size);
 609:..\..\..\arduinoLCD\test\Pain Drain\libraries\lvgl\src\widgets/lv_arc.c ****     }
 610:..\..\..\arduinoLCD\test\Pain Drain\libraries\lvgl\src\widgets/lv_arc.c ****     else if(code == LV_EVENT_DRAW_MAIN) {
 611:..\..\..\arduinoLCD\test\Pain Drain\libraries\lvgl\src\widgets/lv_arc.c ****         lv_arc_draw(e);
 612:..\..\..\arduinoLCD\test\Pain Drain\libraries\lvgl\src\widgets/lv_arc.c ****     }
 613:..\..\..\arduinoLCD\test\Pain Drain\libraries\lvgl\src\widgets/lv_arc.c **** }
 614:..\..\..\arduinoLCD\test\Pain Drain\libraries\lvgl\src\widgets/lv_arc.c **** 
 615:..\..\..\arduinoLCD\test\Pain Drain\libraries\lvgl\src\widgets/lv_arc.c **** static void lv_arc_draw(lv_event_t * e)
 616:..\..\..\arduinoLCD\test\Pain Drain\libraries\lvgl\src\widgets/lv_arc.c **** {
 617:..\..\..\arduinoLCD\test\Pain Drain\libraries\lvgl\src\widgets/lv_arc.c ****     lv_obj_t * obj = lv_event_get_target(e);
 618:..\..\..\arduinoLCD\test\Pain Drain\libraries\lvgl\src\widgets/lv_arc.c ****     lv_arc_t * arc = (lv_arc_t *)obj;
 619:..\..\..\arduinoLCD\test\Pain Drain\libraries\lvgl\src\widgets/lv_arc.c **** 
 620:..\..\..\arduinoLCD\test\Pain Drain\libraries\lvgl\src\widgets/lv_arc.c ****     lv_draw_ctx_t * draw_ctx = lv_event_get_draw_ctx(e);
 621:..\..\..\arduinoLCD\test\Pain Drain\libraries\lvgl\src\widgets/lv_arc.c **** 
 622:..\..\..\arduinoLCD\test\Pain Drain\libraries\lvgl\src\widgets/lv_arc.c ****     lv_point_t center;
 623:..\..\..\arduinoLCD\test\Pain Drain\libraries\lvgl\src\widgets/lv_arc.c ****     lv_coord_t arc_r;
 624:..\..\..\arduinoLCD\test\Pain Drain\libraries\lvgl\src\widgets/lv_arc.c ****     get_center(obj, &center, &arc_r);
 625:..\..\..\arduinoLCD\test\Pain Drain\libraries\lvgl\src\widgets/lv_arc.c **** 
 626:..\..\..\arduinoLCD\test\Pain Drain\libraries\lvgl\src\widgets/lv_arc.c ****     lv_obj_draw_part_dsc_t part_draw_dsc;
 627:..\..\..\arduinoLCD\test\Pain Drain\libraries\lvgl\src\widgets/lv_arc.c ****     lv_obj_draw_dsc_init(&part_draw_dsc, draw_ctx);
 628:..\..\..\arduinoLCD\test\Pain Drain\libraries\lvgl\src\widgets/lv_arc.c **** 
 629:..\..\..\arduinoLCD\test\Pain Drain\libraries\lvgl\src\widgets/lv_arc.c ****     /*Draw the background arc*/
 630:..\..\..\arduinoLCD\test\Pain Drain\libraries\lvgl\src\widgets/lv_arc.c ****     lv_draw_arc_dsc_t arc_dsc;
 631:..\..\..\arduinoLCD\test\Pain Drain\libraries\lvgl\src\widgets/lv_arc.c ****     if(arc_r > 0) {
 632:..\..\..\arduinoLCD\test\Pain Drain\libraries\lvgl\src\widgets/lv_arc.c ****         lv_draw_arc_dsc_init(&arc_dsc);
 633:..\..\..\arduinoLCD\test\Pain Drain\libraries\lvgl\src\widgets/lv_arc.c ****         lv_obj_init_draw_arc_dsc(obj, LV_PART_MAIN, &arc_dsc);
 634:..\..\..\arduinoLCD\test\Pain Drain\libraries\lvgl\src\widgets/lv_arc.c **** 
 635:..\..\..\arduinoLCD\test\Pain Drain\libraries\lvgl\src\widgets/lv_arc.c ****         part_draw_dsc.part = LV_PART_MAIN;
 636:..\..\..\arduinoLCD\test\Pain Drain\libraries\lvgl\src\widgets/lv_arc.c ****         part_draw_dsc.class_p = MY_CLASS;
 637:..\..\..\arduinoLCD\test\Pain Drain\libraries\lvgl\src\widgets/lv_arc.c ****         part_draw_dsc.type = LV_ARC_DRAW_PART_BACKGROUND;
 638:..\..\..\arduinoLCD\test\Pain Drain\libraries\lvgl\src\widgets/lv_arc.c ****         part_draw_dsc.p1 = &center;
 639:..\..\..\arduinoLCD\test\Pain Drain\libraries\lvgl\src\widgets/lv_arc.c ****         part_draw_dsc.radius = arc_r;
 640:..\..\..\arduinoLCD\test\Pain Drain\libraries\lvgl\src\widgets/lv_arc.c ****         part_draw_dsc.arc_dsc = &arc_dsc;
 641:..\..\..\arduinoLCD\test\Pain Drain\libraries\lvgl\src\widgets/lv_arc.c ****         lv_event_send(obj, LV_EVENT_DRAW_PART_BEGIN, &part_draw_dsc);
 642:..\..\..\arduinoLCD\test\Pain Drain\libraries\lvgl\src\widgets/lv_arc.c **** 
 643:..\..\..\arduinoLCD\test\Pain Drain\libraries\lvgl\src\widgets/lv_arc.c ****         lv_draw_arc(draw_ctx, &arc_dsc, &center, part_draw_dsc.radius, arc->bg_angle_start + arc->r
 644:..\..\..\arduinoLCD\test\Pain Drain\libraries\lvgl\src\widgets/lv_arc.c ****                     arc->bg_angle_end + arc->rotation);
 645:..\..\..\arduinoLCD\test\Pain Drain\libraries\lvgl\src\widgets/lv_arc.c **** 
 646:..\..\..\arduinoLCD\test\Pain Drain\libraries\lvgl\src\widgets/lv_arc.c ****         lv_event_send(obj, LV_EVENT_DRAW_PART_END, &part_draw_dsc);
 647:..\..\..\arduinoLCD\test\Pain Drain\libraries\lvgl\src\widgets/lv_arc.c ****     }
 648:..\..\..\arduinoLCD\test\Pain Drain\libraries\lvgl\src\widgets/lv_arc.c **** 
 649:..\..\..\arduinoLCD\test\Pain Drain\libraries\lvgl\src\widgets/lv_arc.c ****     /*Make the indicator arc smaller or larger according to its greatest padding value*/
 650:..\..\..\arduinoLCD\test\Pain Drain\libraries\lvgl\src\widgets/lv_arc.c ****     lv_coord_t left_indic = lv_obj_get_style_pad_left(obj, LV_PART_INDICATOR);
 651:..\..\..\arduinoLCD\test\Pain Drain\libraries\lvgl\src\widgets/lv_arc.c ****     lv_coord_t right_indic = lv_obj_get_style_pad_right(obj, LV_PART_INDICATOR);
 652:..\..\..\arduinoLCD\test\Pain Drain\libraries\lvgl\src\widgets/lv_arc.c ****     lv_coord_t top_indic = lv_obj_get_style_pad_top(obj, LV_PART_INDICATOR);
 653:..\..\..\arduinoLCD\test\Pain Drain\libraries\lvgl\src\widgets/lv_arc.c ****     lv_coord_t bottom_indic = lv_obj_get_style_pad_bottom(obj, LV_PART_INDICATOR);
 654:..\..\..\arduinoLCD\test\Pain Drain\libraries\lvgl\src\widgets/lv_arc.c ****     lv_coord_t indic_r = arc_r - LV_MAX4(left_indic, right_indic, top_indic, bottom_indic);
 655:..\..\..\arduinoLCD\test\Pain Drain\libraries\lvgl\src\widgets/lv_arc.c **** 
 656:..\..\..\arduinoLCD\test\Pain Drain\libraries\lvgl\src\widgets/lv_arc.c ****     if(indic_r > 0) {
 657:..\..\..\arduinoLCD\test\Pain Drain\libraries\lvgl\src\widgets/lv_arc.c ****         lv_draw_arc_dsc_init(&arc_dsc);
 658:..\..\..\arduinoLCD\test\Pain Drain\libraries\lvgl\src\widgets/lv_arc.c ****         lv_obj_init_draw_arc_dsc(obj, LV_PART_INDICATOR, &arc_dsc);
ARM GAS  C:\Users\haske\AppData\Local\Temp\ccmHbbn5.s 			page 13


 659:..\..\..\arduinoLCD\test\Pain Drain\libraries\lvgl\src\widgets/lv_arc.c **** 
 660:..\..\..\arduinoLCD\test\Pain Drain\libraries\lvgl\src\widgets/lv_arc.c ****         part_draw_dsc.part = LV_PART_INDICATOR;
 661:..\..\..\arduinoLCD\test\Pain Drain\libraries\lvgl\src\widgets/lv_arc.c ****         part_draw_dsc.class_p = MY_CLASS;
 662:..\..\..\arduinoLCD\test\Pain Drain\libraries\lvgl\src\widgets/lv_arc.c ****         part_draw_dsc.type = LV_ARC_DRAW_PART_FOREGROUND;
 663:..\..\..\arduinoLCD\test\Pain Drain\libraries\lvgl\src\widgets/lv_arc.c ****         part_draw_dsc.p1 = &center;
 664:..\..\..\arduinoLCD\test\Pain Drain\libraries\lvgl\src\widgets/lv_arc.c ****         part_draw_dsc.radius = indic_r;
 665:..\..\..\arduinoLCD\test\Pain Drain\libraries\lvgl\src\widgets/lv_arc.c ****         part_draw_dsc.arc_dsc = &arc_dsc;
 666:..\..\..\arduinoLCD\test\Pain Drain\libraries\lvgl\src\widgets/lv_arc.c ****         lv_event_send(obj, LV_EVENT_DRAW_PART_BEGIN, &part_draw_dsc);
 667:..\..\..\arduinoLCD\test\Pain Drain\libraries\lvgl\src\widgets/lv_arc.c **** 
 668:..\..\..\arduinoLCD\test\Pain Drain\libraries\lvgl\src\widgets/lv_arc.c ****         if(arc_dsc.width > part_draw_dsc.radius) arc_dsc.width = part_draw_dsc.radius;
 669:..\..\..\arduinoLCD\test\Pain Drain\libraries\lvgl\src\widgets/lv_arc.c ****         lv_draw_arc(draw_ctx, &arc_dsc, &center, part_draw_dsc.radius, arc->indic_angle_start + arc
 670:..\..\..\arduinoLCD\test\Pain Drain\libraries\lvgl\src\widgets/lv_arc.c ****                     arc->indic_angle_end + arc->rotation);
 671:..\..\..\arduinoLCD\test\Pain Drain\libraries\lvgl\src\widgets/lv_arc.c **** 
 672:..\..\..\arduinoLCD\test\Pain Drain\libraries\lvgl\src\widgets/lv_arc.c ****         lv_event_send(obj, LV_EVENT_DRAW_PART_END, &part_draw_dsc);
 673:..\..\..\arduinoLCD\test\Pain Drain\libraries\lvgl\src\widgets/lv_arc.c ****     }
 674:..\..\..\arduinoLCD\test\Pain Drain\libraries\lvgl\src\widgets/lv_arc.c **** 
 675:..\..\..\arduinoLCD\test\Pain Drain\libraries\lvgl\src\widgets/lv_arc.c ****     lv_area_t knob_area;
 676:..\..\..\arduinoLCD\test\Pain Drain\libraries\lvgl\src\widgets/lv_arc.c ****     get_knob_area(obj, &center, arc_r, &knob_area);
 677:..\..\..\arduinoLCD\test\Pain Drain\libraries\lvgl\src\widgets/lv_arc.c **** 
 678:..\..\..\arduinoLCD\test\Pain Drain\libraries\lvgl\src\widgets/lv_arc.c ****     lv_draw_rect_dsc_t knob_rect_dsc;
 679:..\..\..\arduinoLCD\test\Pain Drain\libraries\lvgl\src\widgets/lv_arc.c ****     lv_draw_rect_dsc_init(&knob_rect_dsc);
 680:..\..\..\arduinoLCD\test\Pain Drain\libraries\lvgl\src\widgets/lv_arc.c ****     lv_obj_init_draw_rect_dsc(obj, LV_PART_KNOB, &knob_rect_dsc);
 681:..\..\..\arduinoLCD\test\Pain Drain\libraries\lvgl\src\widgets/lv_arc.c **** 
 682:..\..\..\arduinoLCD\test\Pain Drain\libraries\lvgl\src\widgets/lv_arc.c ****     part_draw_dsc.part = LV_PART_KNOB;
 683:..\..\..\arduinoLCD\test\Pain Drain\libraries\lvgl\src\widgets/lv_arc.c ****     part_draw_dsc.class_p = MY_CLASS;
 684:..\..\..\arduinoLCD\test\Pain Drain\libraries\lvgl\src\widgets/lv_arc.c ****     part_draw_dsc.type = LV_ARC_DRAW_PART_KNOB;
 685:..\..\..\arduinoLCD\test\Pain Drain\libraries\lvgl\src\widgets/lv_arc.c ****     part_draw_dsc.draw_area = &knob_area;
 686:..\..\..\arduinoLCD\test\Pain Drain\libraries\lvgl\src\widgets/lv_arc.c ****     part_draw_dsc.rect_dsc = &knob_rect_dsc;
 687:..\..\..\arduinoLCD\test\Pain Drain\libraries\lvgl\src\widgets/lv_arc.c ****     lv_event_send(obj, LV_EVENT_DRAW_PART_BEGIN, &part_draw_dsc);
 688:..\..\..\arduinoLCD\test\Pain Drain\libraries\lvgl\src\widgets/lv_arc.c **** 
 689:..\..\..\arduinoLCD\test\Pain Drain\libraries\lvgl\src\widgets/lv_arc.c ****     lv_draw_rect(draw_ctx, &knob_rect_dsc, &knob_area);
 690:..\..\..\arduinoLCD\test\Pain Drain\libraries\lvgl\src\widgets/lv_arc.c **** 
 691:..\..\..\arduinoLCD\test\Pain Drain\libraries\lvgl\src\widgets/lv_arc.c ****     lv_event_send(obj, LV_EVENT_DRAW_PART_END, &part_draw_dsc);
 692:..\..\..\arduinoLCD\test\Pain Drain\libraries\lvgl\src\widgets/lv_arc.c **** }
 693:..\..\..\arduinoLCD\test\Pain Drain\libraries\lvgl\src\widgets/lv_arc.c **** 
 694:..\..\..\arduinoLCD\test\Pain Drain\libraries\lvgl\src\widgets/lv_arc.c **** static void inv_arc_area(lv_obj_t * obj, uint16_t start_angle, uint16_t end_angle, lv_part_t part)
 695:..\..\..\arduinoLCD\test\Pain Drain\libraries\lvgl\src\widgets/lv_arc.c **** {
 696:..\..\..\arduinoLCD\test\Pain Drain\libraries\lvgl\src\widgets/lv_arc.c ****     LV_ASSERT_OBJ(obj, MY_CLASS);
 697:..\..\..\arduinoLCD\test\Pain Drain\libraries\lvgl\src\widgets/lv_arc.c **** 
 698:..\..\..\arduinoLCD\test\Pain Drain\libraries\lvgl\src\widgets/lv_arc.c ****     /*Skip this complicated invalidation if the arc is not visible*/
 699:..\..\..\arduinoLCD\test\Pain Drain\libraries\lvgl\src\widgets/lv_arc.c ****     if(lv_obj_is_visible(obj) == false) return;
 700:..\..\..\arduinoLCD\test\Pain Drain\libraries\lvgl\src\widgets/lv_arc.c **** 
 701:..\..\..\arduinoLCD\test\Pain Drain\libraries\lvgl\src\widgets/lv_arc.c ****     lv_arc_t * arc = (lv_arc_t *)obj;
 702:..\..\..\arduinoLCD\test\Pain Drain\libraries\lvgl\src\widgets/lv_arc.c **** 
 703:..\..\..\arduinoLCD\test\Pain Drain\libraries\lvgl\src\widgets/lv_arc.c ****     if(start_angle == end_angle) return;
 704:..\..\..\arduinoLCD\test\Pain Drain\libraries\lvgl\src\widgets/lv_arc.c **** 
 705:..\..\..\arduinoLCD\test\Pain Drain\libraries\lvgl\src\widgets/lv_arc.c ****     if(start_angle > 360) start_angle -= 360;
 706:..\..\..\arduinoLCD\test\Pain Drain\libraries\lvgl\src\widgets/lv_arc.c ****     if(end_angle > 360) end_angle -= 360;
 707:..\..\..\arduinoLCD\test\Pain Drain\libraries\lvgl\src\widgets/lv_arc.c **** 
 708:..\..\..\arduinoLCD\test\Pain Drain\libraries\lvgl\src\widgets/lv_arc.c ****     start_angle += arc->rotation;
 709:..\..\..\arduinoLCD\test\Pain Drain\libraries\lvgl\src\widgets/lv_arc.c ****     end_angle += arc->rotation;
 710:..\..\..\arduinoLCD\test\Pain Drain\libraries\lvgl\src\widgets/lv_arc.c **** 
 711:..\..\..\arduinoLCD\test\Pain Drain\libraries\lvgl\src\widgets/lv_arc.c ****     if(start_angle > 360) start_angle -= 360;
 712:..\..\..\arduinoLCD\test\Pain Drain\libraries\lvgl\src\widgets/lv_arc.c ****     if(end_angle > 360) end_angle -= 360;
 713:..\..\..\arduinoLCD\test\Pain Drain\libraries\lvgl\src\widgets/lv_arc.c **** 
 714:..\..\..\arduinoLCD\test\Pain Drain\libraries\lvgl\src\widgets/lv_arc.c ****     lv_coord_t r;
 715:..\..\..\arduinoLCD\test\Pain Drain\libraries\lvgl\src\widgets/lv_arc.c ****     lv_point_t c;
ARM GAS  C:\Users\haske\AppData\Local\Temp\ccmHbbn5.s 			page 14


 716:..\..\..\arduinoLCD\test\Pain Drain\libraries\lvgl\src\widgets/lv_arc.c ****     get_center(obj, &c, &r);
 717:..\..\..\arduinoLCD\test\Pain Drain\libraries\lvgl\src\widgets/lv_arc.c **** 
 718:..\..\..\arduinoLCD\test\Pain Drain\libraries\lvgl\src\widgets/lv_arc.c ****     lv_coord_t w = lv_obj_get_style_arc_width(obj, part);
 719:..\..\..\arduinoLCD\test\Pain Drain\libraries\lvgl\src\widgets/lv_arc.c ****     lv_coord_t rounded = lv_obj_get_style_arc_rounded(obj, part);
 720:..\..\..\arduinoLCD\test\Pain Drain\libraries\lvgl\src\widgets/lv_arc.c **** 
 721:..\..\..\arduinoLCD\test\Pain Drain\libraries\lvgl\src\widgets/lv_arc.c ****     lv_area_t inv_area;
 722:..\..\..\arduinoLCD\test\Pain Drain\libraries\lvgl\src\widgets/lv_arc.c ****     lv_draw_arc_get_area(c.x, c.y, r, start_angle, end_angle, w, rounded, &inv_area);
 723:..\..\..\arduinoLCD\test\Pain Drain\libraries\lvgl\src\widgets/lv_arc.c **** 
 724:..\..\..\arduinoLCD\test\Pain Drain\libraries\lvgl\src\widgets/lv_arc.c ****     lv_obj_invalidate_area(obj, &inv_area);
 725:..\..\..\arduinoLCD\test\Pain Drain\libraries\lvgl\src\widgets/lv_arc.c **** }
 726:..\..\..\arduinoLCD\test\Pain Drain\libraries\lvgl\src\widgets/lv_arc.c **** 
 727:..\..\..\arduinoLCD\test\Pain Drain\libraries\lvgl\src\widgets/lv_arc.c **** static void inv_knob_area(lv_obj_t * obj)
 728:..\..\..\arduinoLCD\test\Pain Drain\libraries\lvgl\src\widgets/lv_arc.c **** {
 729:..\..\..\arduinoLCD\test\Pain Drain\libraries\lvgl\src\widgets/lv_arc.c ****     lv_point_t c;
 730:..\..\..\arduinoLCD\test\Pain Drain\libraries\lvgl\src\widgets/lv_arc.c ****     lv_coord_t r;
 731:..\..\..\arduinoLCD\test\Pain Drain\libraries\lvgl\src\widgets/lv_arc.c ****     get_center(obj, &c, &r);
 732:..\..\..\arduinoLCD\test\Pain Drain\libraries\lvgl\src\widgets/lv_arc.c **** 
 733:..\..\..\arduinoLCD\test\Pain Drain\libraries\lvgl\src\widgets/lv_arc.c ****     lv_area_t a;
 734:..\..\..\arduinoLCD\test\Pain Drain\libraries\lvgl\src\widgets/lv_arc.c ****     get_knob_area(obj, &c, r, &a);
 735:..\..\..\arduinoLCD\test\Pain Drain\libraries\lvgl\src\widgets/lv_arc.c **** 
 736:..\..\..\arduinoLCD\test\Pain Drain\libraries\lvgl\src\widgets/lv_arc.c ****     lv_coord_t knob_extra_size = knob_get_extra_size(obj);
 737:..\..\..\arduinoLCD\test\Pain Drain\libraries\lvgl\src\widgets/lv_arc.c **** 
 738:..\..\..\arduinoLCD\test\Pain Drain\libraries\lvgl\src\widgets/lv_arc.c ****     if(knob_extra_size > 0) {
 739:..\..\..\arduinoLCD\test\Pain Drain\libraries\lvgl\src\widgets/lv_arc.c ****         lv_area_increase(&a, knob_extra_size, knob_extra_size);
 740:..\..\..\arduinoLCD\test\Pain Drain\libraries\lvgl\src\widgets/lv_arc.c ****     }
 741:..\..\..\arduinoLCD\test\Pain Drain\libraries\lvgl\src\widgets/lv_arc.c **** 
 742:..\..\..\arduinoLCD\test\Pain Drain\libraries\lvgl\src\widgets/lv_arc.c ****     lv_obj_invalidate_area(obj, &a);
 743:..\..\..\arduinoLCD\test\Pain Drain\libraries\lvgl\src\widgets/lv_arc.c **** }
 744:..\..\..\arduinoLCD\test\Pain Drain\libraries\lvgl\src\widgets/lv_arc.c **** 
 745:..\..\..\arduinoLCD\test\Pain Drain\libraries\lvgl\src\widgets/lv_arc.c **** static void get_center(const lv_obj_t * obj, lv_point_t * center, lv_coord_t * arc_r)
 746:..\..\..\arduinoLCD\test\Pain Drain\libraries\lvgl\src\widgets/lv_arc.c **** {
 747:..\..\..\arduinoLCD\test\Pain Drain\libraries\lvgl\src\widgets/lv_arc.c ****     lv_coord_t left_bg = lv_obj_get_style_pad_left(obj, LV_PART_MAIN);
 748:..\..\..\arduinoLCD\test\Pain Drain\libraries\lvgl\src\widgets/lv_arc.c ****     lv_coord_t right_bg = lv_obj_get_style_pad_right(obj, LV_PART_MAIN);
 749:..\..\..\arduinoLCD\test\Pain Drain\libraries\lvgl\src\widgets/lv_arc.c ****     lv_coord_t top_bg = lv_obj_get_style_pad_top(obj, LV_PART_MAIN);
 750:..\..\..\arduinoLCD\test\Pain Drain\libraries\lvgl\src\widgets/lv_arc.c ****     lv_coord_t bottom_bg = lv_obj_get_style_pad_bottom(obj, LV_PART_MAIN);
 751:..\..\..\arduinoLCD\test\Pain Drain\libraries\lvgl\src\widgets/lv_arc.c **** 
 752:..\..\..\arduinoLCD\test\Pain Drain\libraries\lvgl\src\widgets/lv_arc.c ****     lv_coord_t r = (LV_MIN(lv_obj_get_width(obj) - left_bg - right_bg,
 753:..\..\..\arduinoLCD\test\Pain Drain\libraries\lvgl\src\widgets/lv_arc.c ****                            lv_obj_get_height(obj) - top_bg - bottom_bg)) / 2;
 754:..\..\..\arduinoLCD\test\Pain Drain\libraries\lvgl\src\widgets/lv_arc.c **** 
 755:..\..\..\arduinoLCD\test\Pain Drain\libraries\lvgl\src\widgets/lv_arc.c ****     center->x = obj->coords.x1 + r + left_bg;
 756:..\..\..\arduinoLCD\test\Pain Drain\libraries\lvgl\src\widgets/lv_arc.c ****     center->y = obj->coords.y1 + r + top_bg;
 757:..\..\..\arduinoLCD\test\Pain Drain\libraries\lvgl\src\widgets/lv_arc.c **** 
 758:..\..\..\arduinoLCD\test\Pain Drain\libraries\lvgl\src\widgets/lv_arc.c ****     if(arc_r) *arc_r = r;
 759:..\..\..\arduinoLCD\test\Pain Drain\libraries\lvgl\src\widgets/lv_arc.c **** }
 760:..\..\..\arduinoLCD\test\Pain Drain\libraries\lvgl\src\widgets/lv_arc.c **** 
 761:..\..\..\arduinoLCD\test\Pain Drain\libraries\lvgl\src\widgets/lv_arc.c **** static lv_coord_t get_angle(const lv_obj_t * obj)
 762:..\..\..\arduinoLCD\test\Pain Drain\libraries\lvgl\src\widgets/lv_arc.c **** {
  27              		.loc 1 762 0
  28              		.cfi_startproc
  29              		@ args = 0, pretend = 0, frame = 0
  30              		@ frame_needed = 0, uses_anonymous_args = 0
  31              	.LVL0:
  32 0000 30B5     		push	{r4, r5, lr}
  33              		.cfi_def_cfa_offset 12
  34              		.cfi_offset 4, -12
  35              		.cfi_offset 5, -8
  36              		.cfi_offset 14, -4
ARM GAS  C:\Users\haske\AppData\Local\Temp\ccmHbbn5.s 			page 15


  37              	.LVL1:
 763:..\..\..\arduinoLCD\test\Pain Drain\libraries\lvgl\src\widgets/lv_arc.c ****     lv_arc_t * arc = (lv_arc_t *)obj;
 764:..\..\..\arduinoLCD\test\Pain Drain\libraries\lvgl\src\widgets/lv_arc.c ****     uint16_t angle = arc->rotation;
  38              		.loc 1 764 0
  39 0002 838C     		ldrh	r3, [r0, #36]
  40              	.LVL2:
 765:..\..\..\arduinoLCD\test\Pain Drain\libraries\lvgl\src\widgets/lv_arc.c ****     if(arc->type == LV_ARC_MODE_NORMAL) {
  41              		.loc 1 765 0
  42 0004 3422     		movs	r2, #52
  43 0006 825C     		ldrb	r2, [r0, r2]
  44 0008 0621     		movs	r1, #6
  45 000a 0A40     		ands	r2, r1
  46 000c 03D1     		bne	.L2
 766:..\..\..\arduinoLCD\test\Pain Drain\libraries\lvgl\src\widgets/lv_arc.c ****         angle += arc->indic_angle_end;
  47              		.loc 1 766 0
  48 000e 008D     		ldrh	r0, [r0, #40]
  49              	.LVL3:
  50 0010 1B18     		adds	r3, r3, r0
  51              	.LVL4:
  52 0012 9BB2     		uxth	r3, r3
  53              	.LVL5:
  54 0014 29E0     		b	.L3
  55              	.LVL6:
  56              	.L2:
 767:..\..\..\arduinoLCD\test\Pain Drain\libraries\lvgl\src\widgets/lv_arc.c ****     }
 768:..\..\..\arduinoLCD\test\Pain Drain\libraries\lvgl\src\widgets/lv_arc.c ****     else if(arc->type == LV_ARC_MODE_REVERSE) {
  57              		.loc 1 768 0
  58 0016 042A     		cmp	r2, #4
  59 0018 03D1     		bne	.L4
 769:..\..\..\arduinoLCD\test\Pain Drain\libraries\lvgl\src\widgets/lv_arc.c ****         angle += arc->indic_angle_start;
  60              		.loc 1 769 0
  61 001a C08C     		ldrh	r0, [r0, #38]
  62              	.LVL7:
  63 001c 1B18     		adds	r3, r3, r0
  64              	.LVL8:
  65 001e 9BB2     		uxth	r3, r3
  66              	.LVL9:
  67 0020 23E0     		b	.L3
  68              	.LVL10:
  69              	.L4:
 770:..\..\..\arduinoLCD\test\Pain Drain\libraries\lvgl\src\widgets/lv_arc.c ****     }
 771:..\..\..\arduinoLCD\test\Pain Drain\libraries\lvgl\src\widgets/lv_arc.c ****     else if(arc->type == LV_ARC_MODE_SYMMETRICAL) {
  70              		.loc 1 771 0
  71 0022 022A     		cmp	r2, #2
  72 0024 21D1     		bne	.L3
  73              	.LBB82:
 772:..\..\..\arduinoLCD\test\Pain Drain\libraries\lvgl\src\widgets/lv_arc.c ****         int16_t bg_end = arc->bg_angle_end;
  74              		.loc 1 772 0
  75 0026 848D     		ldrh	r4, [r0, #44]
  76 0028 21B2     		sxth	r1, r4
  77              	.LVL11:
 773:..\..\..\arduinoLCD\test\Pain Drain\libraries\lvgl\src\widgets/lv_arc.c ****         if(arc->bg_angle_end < arc->bg_angle_start) bg_end = arc->bg_angle_end + 360;
  78              		.loc 1 773 0
  79 002a 428D     		ldrh	r2, [r0, #42]
  80 002c 9442     		cmp	r4, r2
  81 002e 03D2     		bcs	.L5
  82              		.loc 1 773 0 is_stmt 0 discriminator 1
ARM GAS  C:\Users\haske\AppData\Local\Temp\ccmHbbn5.s 			page 16


  83 0030 2100     		movs	r1, r4
  84              	.LVL12:
  85 0032 6931     		adds	r1, r1, #105
  86 0034 FF31     		adds	r1, r1, #255
  87 0036 09B2     		sxth	r1, r1
  88              	.LVL13:
  89              	.L5:
 774:..\..\..\arduinoLCD\test\Pain Drain\libraries\lvgl\src\widgets/lv_arc.c ****         int16_t indic_end = arc->indic_angle_end;
  90              		.loc 1 774 0 is_stmt 1
  91 0038 048D     		ldrh	r4, [r0, #40]
  92 003a 25B2     		sxth	r5, r4
  93              	.LVL14:
 775:..\..\..\arduinoLCD\test\Pain Drain\libraries\lvgl\src\widgets/lv_arc.c ****         if(arc->indic_angle_end < arc->indic_angle_start) indic_end = arc->indic_angle_end + 360;
  94              		.loc 1 775 0
  95 003c C08C     		ldrh	r0, [r0, #38]
  96              	.LVL15:
  97 003e 8442     		cmp	r4, r0
  98 0040 03D2     		bcs	.L6
  99              		.loc 1 775 0 is_stmt 0 discriminator 1
 100 0042 2500     		movs	r5, r4
 101              	.LVL16:
 102 0044 6935     		adds	r5, r5, #105
 103 0046 FF35     		adds	r5, r5, #255
 104 0048 2DB2     		sxth	r5, r5
 105              	.LVL17:
 106              	.L6:
 776:..\..\..\arduinoLCD\test\Pain Drain\libraries\lvgl\src\widgets/lv_arc.c **** 
 777:..\..\..\arduinoLCD\test\Pain Drain\libraries\lvgl\src\widgets/lv_arc.c ****         int32_t angle_midpoint = (int32_t)(arc->bg_angle_start + bg_end) / 2;
 107              		.loc 1 777 0 is_stmt 1
 108 004a 5218     		adds	r2, r2, r1
 109 004c D10F     		lsrs	r1, r2, #31
 110              	.LVL18:
 111 004e 8A18     		adds	r2, r1, r2
 112 0050 5210     		asrs	r2, r2, #1
 113              	.LVL19:
 778:..\..\..\arduinoLCD\test\Pain Drain\libraries\lvgl\src\widgets/lv_arc.c ****         if(arc->indic_angle_start < angle_midpoint) angle += arc->indic_angle_start;
 114              		.loc 1 778 0
 115 0052 8242     		cmp	r2, r0
 116 0054 02DD     		ble	.L7
 117              		.loc 1 778 0 is_stmt 0 discriminator 1
 118 0056 1B18     		adds	r3, r3, r0
 119              	.LVL20:
 120 0058 9BB2     		uxth	r3, r3
 121              	.LVL21:
 122 005a 06E0     		b	.L3
 123              	.L7:
 779:..\..\..\arduinoLCD\test\Pain Drain\libraries\lvgl\src\widgets/lv_arc.c ****         else if(indic_end > angle_midpoint) angle += arc->indic_angle_end;
 124              		.loc 1 779 0 is_stmt 1
 125 005c AA42     		cmp	r2, r5
 126 005e 02DA     		bge	.L8
 127              		.loc 1 779 0 is_stmt 0 discriminator 1
 128 0060 1B19     		adds	r3, r3, r4
 129              	.LVL22:
 130 0062 9BB2     		uxth	r3, r3
 131              	.LVL23:
 132 0064 01E0     		b	.L3
 133              	.L8:
ARM GAS  C:\Users\haske\AppData\Local\Temp\ccmHbbn5.s 			page 17


 780:..\..\..\arduinoLCD\test\Pain Drain\libraries\lvgl\src\widgets/lv_arc.c ****         else angle += angle_midpoint;
 134              		.loc 1 780 0 is_stmt 1
 135 0066 9B18     		adds	r3, r3, r2
 136              	.LVL24:
 137 0068 9BB2     		uxth	r3, r3
 138              	.LVL25:
 139              	.L3:
 140              	.LBE82:
 781:..\..\..\arduinoLCD\test\Pain Drain\libraries\lvgl\src\widgets/lv_arc.c ****     }
 782:..\..\..\arduinoLCD\test\Pain Drain\libraries\lvgl\src\widgets/lv_arc.c **** 
 783:..\..\..\arduinoLCD\test\Pain Drain\libraries\lvgl\src\widgets/lv_arc.c ****     return angle;
 141              		.loc 1 783 0
 142 006a 18B2     		sxth	r0, r3
 784:..\..\..\arduinoLCD\test\Pain Drain\libraries\lvgl\src\widgets/lv_arc.c **** }
 143              		.loc 1 784 0
 144              		@ sp needed
 145 006c 30BD     		pop	{r4, r5, pc}
 146              		.cfi_endproc
 147              	.LFE187:
 148              		.size	get_angle, .-get_angle
 149 006e C046     		.section	.text.get_center,"ax",%progbits
 150              		.align	2
 151              		.code	16
 152              		.thumb_func
 153              		.type	get_center, %function
 154              	get_center:
 155              	.LFB186:
 746:..\..\..\arduinoLCD\test\Pain Drain\libraries\lvgl\src\widgets/lv_arc.c ****     lv_coord_t left_bg = lv_obj_get_style_pad_left(obj, LV_PART_MAIN);
 156              		.loc 1 746 0
 157              		.cfi_startproc
 158              		@ args = 0, pretend = 0, frame = 8
 159              		@ frame_needed = 0, uses_anonymous_args = 0
 160              	.LVL26:
 161 0000 F0B5     		push	{r4, r5, r6, r7, lr}
 162              		.cfi_def_cfa_offset 20
 163              		.cfi_offset 4, -20
 164              		.cfi_offset 5, -16
 165              		.cfi_offset 6, -12
 166              		.cfi_offset 7, -8
 167              		.cfi_offset 14, -4
 168 0002 5F46     		mov	r7, fp
 169 0004 5646     		mov	r6, r10
 170 0006 4D46     		mov	r5, r9
 171 0008 4446     		mov	r4, r8
 172 000a F0B4     		push	{r4, r5, r6, r7}
 173              		.cfi_def_cfa_offset 36
 174              		.cfi_offset 8, -36
 175              		.cfi_offset 9, -32
 176              		.cfi_offset 10, -28
 177              		.cfi_offset 11, -24
 178 000c 83B0     		sub	sp, sp, #12
 179              		.cfi_def_cfa_offset 48
 180 000e 0400     		movs	r4, r0
 181 0010 8846     		mov	r8, r1
 182 0012 9146     		mov	r9, r2
 183              	.LVL27:
 184              	.LBB83:
ARM GAS  C:\Users\haske\AppData\Local\Temp\ccmHbbn5.s 			page 18


 185              	.LBB84:
 186              		.file 2 "..\\..\\..\\arduinoLCD\\test\\Pain Drain\\libraries\\lvgl\\src\\widgets\\../core/lv_obj_s
   1:..\..\..\arduinoLCD\test\Pain Drain\libraries\lvgl\src\widgets\../core/lv_obj_style_gen.h **** static inline lv_coord_t lv_obj_get_style_width(const struct _lv_obj_t * obj, uint32_t part)
   2:..\..\..\arduinoLCD\test\Pain Drain\libraries\lvgl\src\widgets\../core/lv_obj_style_gen.h **** {
   3:..\..\..\arduinoLCD\test\Pain Drain\libraries\lvgl\src\widgets\../core/lv_obj_style_gen.h ****     lv_style_value_t v = lv_obj_get_style_prop(obj, part, LV_STYLE_WIDTH);
   4:..\..\..\arduinoLCD\test\Pain Drain\libraries\lvgl\src\widgets\../core/lv_obj_style_gen.h ****     return (lv_coord_t)v.num;
   5:..\..\..\arduinoLCD\test\Pain Drain\libraries\lvgl\src\widgets\../core/lv_obj_style_gen.h **** }
   6:..\..\..\arduinoLCD\test\Pain Drain\libraries\lvgl\src\widgets\../core/lv_obj_style_gen.h **** 
   7:..\..\..\arduinoLCD\test\Pain Drain\libraries\lvgl\src\widgets\../core/lv_obj_style_gen.h **** static inline lv_coord_t lv_obj_get_style_min_width(const struct _lv_obj_t * obj, uint32_t part)
   8:..\..\..\arduinoLCD\test\Pain Drain\libraries\lvgl\src\widgets\../core/lv_obj_style_gen.h **** {
   9:..\..\..\arduinoLCD\test\Pain Drain\libraries\lvgl\src\widgets\../core/lv_obj_style_gen.h ****     lv_style_value_t v = lv_obj_get_style_prop(obj, part, LV_STYLE_MIN_WIDTH);
  10:..\..\..\arduinoLCD\test\Pain Drain\libraries\lvgl\src\widgets\../core/lv_obj_style_gen.h ****     return (lv_coord_t)v.num;
  11:..\..\..\arduinoLCD\test\Pain Drain\libraries\lvgl\src\widgets\../core/lv_obj_style_gen.h **** }
  12:..\..\..\arduinoLCD\test\Pain Drain\libraries\lvgl\src\widgets\../core/lv_obj_style_gen.h **** 
  13:..\..\..\arduinoLCD\test\Pain Drain\libraries\lvgl\src\widgets\../core/lv_obj_style_gen.h **** static inline lv_coord_t lv_obj_get_style_max_width(const struct _lv_obj_t * obj, uint32_t part)
  14:..\..\..\arduinoLCD\test\Pain Drain\libraries\lvgl\src\widgets\../core/lv_obj_style_gen.h **** {
  15:..\..\..\arduinoLCD\test\Pain Drain\libraries\lvgl\src\widgets\../core/lv_obj_style_gen.h ****     lv_style_value_t v = lv_obj_get_style_prop(obj, part, LV_STYLE_MAX_WIDTH);
  16:..\..\..\arduinoLCD\test\Pain Drain\libraries\lvgl\src\widgets\../core/lv_obj_style_gen.h ****     return (lv_coord_t)v.num;
  17:..\..\..\arduinoLCD\test\Pain Drain\libraries\lvgl\src\widgets\../core/lv_obj_style_gen.h **** }
  18:..\..\..\arduinoLCD\test\Pain Drain\libraries\lvgl\src\widgets\../core/lv_obj_style_gen.h **** 
  19:..\..\..\arduinoLCD\test\Pain Drain\libraries\lvgl\src\widgets\../core/lv_obj_style_gen.h **** static inline lv_coord_t lv_obj_get_style_height(const struct _lv_obj_t * obj, uint32_t part)
  20:..\..\..\arduinoLCD\test\Pain Drain\libraries\lvgl\src\widgets\../core/lv_obj_style_gen.h **** {
  21:..\..\..\arduinoLCD\test\Pain Drain\libraries\lvgl\src\widgets\../core/lv_obj_style_gen.h ****     lv_style_value_t v = lv_obj_get_style_prop(obj, part, LV_STYLE_HEIGHT);
  22:..\..\..\arduinoLCD\test\Pain Drain\libraries\lvgl\src\widgets\../core/lv_obj_style_gen.h ****     return (lv_coord_t)v.num;
  23:..\..\..\arduinoLCD\test\Pain Drain\libraries\lvgl\src\widgets\../core/lv_obj_style_gen.h **** }
  24:..\..\..\arduinoLCD\test\Pain Drain\libraries\lvgl\src\widgets\../core/lv_obj_style_gen.h **** 
  25:..\..\..\arduinoLCD\test\Pain Drain\libraries\lvgl\src\widgets\../core/lv_obj_style_gen.h **** static inline lv_coord_t lv_obj_get_style_min_height(const struct _lv_obj_t * obj, uint32_t part)
  26:..\..\..\arduinoLCD\test\Pain Drain\libraries\lvgl\src\widgets\../core/lv_obj_style_gen.h **** {
  27:..\..\..\arduinoLCD\test\Pain Drain\libraries\lvgl\src\widgets\../core/lv_obj_style_gen.h ****     lv_style_value_t v = lv_obj_get_style_prop(obj, part, LV_STYLE_MIN_HEIGHT);
  28:..\..\..\arduinoLCD\test\Pain Drain\libraries\lvgl\src\widgets\../core/lv_obj_style_gen.h ****     return (lv_coord_t)v.num;
  29:..\..\..\arduinoLCD\test\Pain Drain\libraries\lvgl\src\widgets\../core/lv_obj_style_gen.h **** }
  30:..\..\..\arduinoLCD\test\Pain Drain\libraries\lvgl\src\widgets\../core/lv_obj_style_gen.h **** 
  31:..\..\..\arduinoLCD\test\Pain Drain\libraries\lvgl\src\widgets\../core/lv_obj_style_gen.h **** static inline lv_coord_t lv_obj_get_style_max_height(const struct _lv_obj_t * obj, uint32_t part)
  32:..\..\..\arduinoLCD\test\Pain Drain\libraries\lvgl\src\widgets\../core/lv_obj_style_gen.h **** {
  33:..\..\..\arduinoLCD\test\Pain Drain\libraries\lvgl\src\widgets\../core/lv_obj_style_gen.h ****     lv_style_value_t v = lv_obj_get_style_prop(obj, part, LV_STYLE_MAX_HEIGHT);
  34:..\..\..\arduinoLCD\test\Pain Drain\libraries\lvgl\src\widgets\../core/lv_obj_style_gen.h ****     return (lv_coord_t)v.num;
  35:..\..\..\arduinoLCD\test\Pain Drain\libraries\lvgl\src\widgets\../core/lv_obj_style_gen.h **** }
  36:..\..\..\arduinoLCD\test\Pain Drain\libraries\lvgl\src\widgets\../core/lv_obj_style_gen.h **** 
  37:..\..\..\arduinoLCD\test\Pain Drain\libraries\lvgl\src\widgets\../core/lv_obj_style_gen.h **** static inline lv_coord_t lv_obj_get_style_x(const struct _lv_obj_t * obj, uint32_t part)
  38:..\..\..\arduinoLCD\test\Pain Drain\libraries\lvgl\src\widgets\../core/lv_obj_style_gen.h **** {
  39:..\..\..\arduinoLCD\test\Pain Drain\libraries\lvgl\src\widgets\../core/lv_obj_style_gen.h ****     lv_style_value_t v = lv_obj_get_style_prop(obj, part, LV_STYLE_X);
  40:..\..\..\arduinoLCD\test\Pain Drain\libraries\lvgl\src\widgets\../core/lv_obj_style_gen.h ****     return (lv_coord_t)v.num;
  41:..\..\..\arduinoLCD\test\Pain Drain\libraries\lvgl\src\widgets\../core/lv_obj_style_gen.h **** }
  42:..\..\..\arduinoLCD\test\Pain Drain\libraries\lvgl\src\widgets\../core/lv_obj_style_gen.h **** 
  43:..\..\..\arduinoLCD\test\Pain Drain\libraries\lvgl\src\widgets\../core/lv_obj_style_gen.h **** static inline lv_coord_t lv_obj_get_style_y(const struct _lv_obj_t * obj, uint32_t part)
  44:..\..\..\arduinoLCD\test\Pain Drain\libraries\lvgl\src\widgets\../core/lv_obj_style_gen.h **** {
  45:..\..\..\arduinoLCD\test\Pain Drain\libraries\lvgl\src\widgets\../core/lv_obj_style_gen.h ****     lv_style_value_t v = lv_obj_get_style_prop(obj, part, LV_STYLE_Y);
  46:..\..\..\arduinoLCD\test\Pain Drain\libraries\lvgl\src\widgets\../core/lv_obj_style_gen.h ****     return (lv_coord_t)v.num;
  47:..\..\..\arduinoLCD\test\Pain Drain\libraries\lvgl\src\widgets\../core/lv_obj_style_gen.h **** }
  48:..\..\..\arduinoLCD\test\Pain Drain\libraries\lvgl\src\widgets\../core/lv_obj_style_gen.h **** 
  49:..\..\..\arduinoLCD\test\Pain Drain\libraries\lvgl\src\widgets\../core/lv_obj_style_gen.h **** static inline lv_align_t lv_obj_get_style_align(const struct _lv_obj_t * obj, uint32_t part)
  50:..\..\..\arduinoLCD\test\Pain Drain\libraries\lvgl\src\widgets\../core/lv_obj_style_gen.h **** {
  51:..\..\..\arduinoLCD\test\Pain Drain\libraries\lvgl\src\widgets\../core/lv_obj_style_gen.h ****     lv_style_value_t v = lv_obj_get_style_prop(obj, part, LV_STYLE_ALIGN);
  52:..\..\..\arduinoLCD\test\Pain Drain\libraries\lvgl\src\widgets\../core/lv_obj_style_gen.h ****     return (lv_align_t)v.num;
  53:..\..\..\arduinoLCD\test\Pain Drain\libraries\lvgl\src\widgets\../core/lv_obj_style_gen.h **** }
  54:..\..\..\arduinoLCD\test\Pain Drain\libraries\lvgl\src\widgets\../core/lv_obj_style_gen.h **** 
  55:..\..\..\arduinoLCD\test\Pain Drain\libraries\lvgl\src\widgets\../core/lv_obj_style_gen.h **** static inline lv_coord_t lv_obj_get_style_transform_width(const struct _lv_obj_t * obj, uint32_t pa
ARM GAS  C:\Users\haske\AppData\Local\Temp\ccmHbbn5.s 			page 19


  56:..\..\..\arduinoLCD\test\Pain Drain\libraries\lvgl\src\widgets\../core/lv_obj_style_gen.h **** {
  57:..\..\..\arduinoLCD\test\Pain Drain\libraries\lvgl\src\widgets\../core/lv_obj_style_gen.h ****     lv_style_value_t v = lv_obj_get_style_prop(obj, part, LV_STYLE_TRANSFORM_WIDTH);
  58:..\..\..\arduinoLCD\test\Pain Drain\libraries\lvgl\src\widgets\../core/lv_obj_style_gen.h ****     return (lv_coord_t)v.num;
  59:..\..\..\arduinoLCD\test\Pain Drain\libraries\lvgl\src\widgets\../core/lv_obj_style_gen.h **** }
  60:..\..\..\arduinoLCD\test\Pain Drain\libraries\lvgl\src\widgets\../core/lv_obj_style_gen.h **** 
  61:..\..\..\arduinoLCD\test\Pain Drain\libraries\lvgl\src\widgets\../core/lv_obj_style_gen.h **** static inline lv_coord_t lv_obj_get_style_transform_height(const struct _lv_obj_t * obj, uint32_t p
  62:..\..\..\arduinoLCD\test\Pain Drain\libraries\lvgl\src\widgets\../core/lv_obj_style_gen.h **** {
  63:..\..\..\arduinoLCD\test\Pain Drain\libraries\lvgl\src\widgets\../core/lv_obj_style_gen.h ****     lv_style_value_t v = lv_obj_get_style_prop(obj, part, LV_STYLE_TRANSFORM_HEIGHT);
  64:..\..\..\arduinoLCD\test\Pain Drain\libraries\lvgl\src\widgets\../core/lv_obj_style_gen.h ****     return (lv_coord_t)v.num;
  65:..\..\..\arduinoLCD\test\Pain Drain\libraries\lvgl\src\widgets\../core/lv_obj_style_gen.h **** }
  66:..\..\..\arduinoLCD\test\Pain Drain\libraries\lvgl\src\widgets\../core/lv_obj_style_gen.h **** 
  67:..\..\..\arduinoLCD\test\Pain Drain\libraries\lvgl\src\widgets\../core/lv_obj_style_gen.h **** static inline lv_coord_t lv_obj_get_style_translate_x(const struct _lv_obj_t * obj, uint32_t part)
  68:..\..\..\arduinoLCD\test\Pain Drain\libraries\lvgl\src\widgets\../core/lv_obj_style_gen.h **** {
  69:..\..\..\arduinoLCD\test\Pain Drain\libraries\lvgl\src\widgets\../core/lv_obj_style_gen.h ****     lv_style_value_t v = lv_obj_get_style_prop(obj, part, LV_STYLE_TRANSLATE_X);
  70:..\..\..\arduinoLCD\test\Pain Drain\libraries\lvgl\src\widgets\../core/lv_obj_style_gen.h ****     return (lv_coord_t)v.num;
  71:..\..\..\arduinoLCD\test\Pain Drain\libraries\lvgl\src\widgets\../core/lv_obj_style_gen.h **** }
  72:..\..\..\arduinoLCD\test\Pain Drain\libraries\lvgl\src\widgets\../core/lv_obj_style_gen.h **** 
  73:..\..\..\arduinoLCD\test\Pain Drain\libraries\lvgl\src\widgets\../core/lv_obj_style_gen.h **** static inline lv_coord_t lv_obj_get_style_translate_y(const struct _lv_obj_t * obj, uint32_t part)
  74:..\..\..\arduinoLCD\test\Pain Drain\libraries\lvgl\src\widgets\../core/lv_obj_style_gen.h **** {
  75:..\..\..\arduinoLCD\test\Pain Drain\libraries\lvgl\src\widgets\../core/lv_obj_style_gen.h ****     lv_style_value_t v = lv_obj_get_style_prop(obj, part, LV_STYLE_TRANSLATE_Y);
  76:..\..\..\arduinoLCD\test\Pain Drain\libraries\lvgl\src\widgets\../core/lv_obj_style_gen.h ****     return (lv_coord_t)v.num;
  77:..\..\..\arduinoLCD\test\Pain Drain\libraries\lvgl\src\widgets\../core/lv_obj_style_gen.h **** }
  78:..\..\..\arduinoLCD\test\Pain Drain\libraries\lvgl\src\widgets\../core/lv_obj_style_gen.h **** 
  79:..\..\..\arduinoLCD\test\Pain Drain\libraries\lvgl\src\widgets\../core/lv_obj_style_gen.h **** static inline lv_coord_t lv_obj_get_style_transform_zoom(const struct _lv_obj_t * obj, uint32_t par
  80:..\..\..\arduinoLCD\test\Pain Drain\libraries\lvgl\src\widgets\../core/lv_obj_style_gen.h **** {
  81:..\..\..\arduinoLCD\test\Pain Drain\libraries\lvgl\src\widgets\../core/lv_obj_style_gen.h ****     lv_style_value_t v = lv_obj_get_style_prop(obj, part, LV_STYLE_TRANSFORM_ZOOM);
  82:..\..\..\arduinoLCD\test\Pain Drain\libraries\lvgl\src\widgets\../core/lv_obj_style_gen.h ****     return (lv_coord_t)v.num;
  83:..\..\..\arduinoLCD\test\Pain Drain\libraries\lvgl\src\widgets\../core/lv_obj_style_gen.h **** }
  84:..\..\..\arduinoLCD\test\Pain Drain\libraries\lvgl\src\widgets\../core/lv_obj_style_gen.h **** 
  85:..\..\..\arduinoLCD\test\Pain Drain\libraries\lvgl\src\widgets\../core/lv_obj_style_gen.h **** static inline lv_coord_t lv_obj_get_style_transform_angle(const struct _lv_obj_t * obj, uint32_t pa
  86:..\..\..\arduinoLCD\test\Pain Drain\libraries\lvgl\src\widgets\../core/lv_obj_style_gen.h **** {
  87:..\..\..\arduinoLCD\test\Pain Drain\libraries\lvgl\src\widgets\../core/lv_obj_style_gen.h ****     lv_style_value_t v = lv_obj_get_style_prop(obj, part, LV_STYLE_TRANSFORM_ANGLE);
  88:..\..\..\arduinoLCD\test\Pain Drain\libraries\lvgl\src\widgets\../core/lv_obj_style_gen.h ****     return (lv_coord_t)v.num;
  89:..\..\..\arduinoLCD\test\Pain Drain\libraries\lvgl\src\widgets\../core/lv_obj_style_gen.h **** }
  90:..\..\..\arduinoLCD\test\Pain Drain\libraries\lvgl\src\widgets\../core/lv_obj_style_gen.h **** 
  91:..\..\..\arduinoLCD\test\Pain Drain\libraries\lvgl\src\widgets\../core/lv_obj_style_gen.h **** static inline lv_coord_t lv_obj_get_style_transform_pivot_x(const struct _lv_obj_t * obj, uint32_t 
  92:..\..\..\arduinoLCD\test\Pain Drain\libraries\lvgl\src\widgets\../core/lv_obj_style_gen.h **** {
  93:..\..\..\arduinoLCD\test\Pain Drain\libraries\lvgl\src\widgets\../core/lv_obj_style_gen.h ****     lv_style_value_t v = lv_obj_get_style_prop(obj, part, LV_STYLE_TRANSFORM_PIVOT_X);
  94:..\..\..\arduinoLCD\test\Pain Drain\libraries\lvgl\src\widgets\../core/lv_obj_style_gen.h ****     return (lv_coord_t)v.num;
  95:..\..\..\arduinoLCD\test\Pain Drain\libraries\lvgl\src\widgets\../core/lv_obj_style_gen.h **** }
  96:..\..\..\arduinoLCD\test\Pain Drain\libraries\lvgl\src\widgets\../core/lv_obj_style_gen.h **** 
  97:..\..\..\arduinoLCD\test\Pain Drain\libraries\lvgl\src\widgets\../core/lv_obj_style_gen.h **** static inline lv_coord_t lv_obj_get_style_transform_pivot_y(const struct _lv_obj_t * obj, uint32_t 
  98:..\..\..\arduinoLCD\test\Pain Drain\libraries\lvgl\src\widgets\../core/lv_obj_style_gen.h **** {
  99:..\..\..\arduinoLCD\test\Pain Drain\libraries\lvgl\src\widgets\../core/lv_obj_style_gen.h ****     lv_style_value_t v = lv_obj_get_style_prop(obj, part, LV_STYLE_TRANSFORM_PIVOT_Y);
 100:..\..\..\arduinoLCD\test\Pain Drain\libraries\lvgl\src\widgets\../core/lv_obj_style_gen.h ****     return (lv_coord_t)v.num;
 101:..\..\..\arduinoLCD\test\Pain Drain\libraries\lvgl\src\widgets\../core/lv_obj_style_gen.h **** }
 102:..\..\..\arduinoLCD\test\Pain Drain\libraries\lvgl\src\widgets\../core/lv_obj_style_gen.h **** 
 103:..\..\..\arduinoLCD\test\Pain Drain\libraries\lvgl\src\widgets\../core/lv_obj_style_gen.h **** static inline lv_coord_t lv_obj_get_style_pad_top(const struct _lv_obj_t * obj, uint32_t part)
 104:..\..\..\arduinoLCD\test\Pain Drain\libraries\lvgl\src\widgets\../core/lv_obj_style_gen.h **** {
 105:..\..\..\arduinoLCD\test\Pain Drain\libraries\lvgl\src\widgets\../core/lv_obj_style_gen.h ****     lv_style_value_t v = lv_obj_get_style_prop(obj, part, LV_STYLE_PAD_TOP);
 106:..\..\..\arduinoLCD\test\Pain Drain\libraries\lvgl\src\widgets\../core/lv_obj_style_gen.h ****     return (lv_coord_t)v.num;
 107:..\..\..\arduinoLCD\test\Pain Drain\libraries\lvgl\src\widgets\../core/lv_obj_style_gen.h **** }
 108:..\..\..\arduinoLCD\test\Pain Drain\libraries\lvgl\src\widgets\../core/lv_obj_style_gen.h **** 
 109:..\..\..\arduinoLCD\test\Pain Drain\libraries\lvgl\src\widgets\../core/lv_obj_style_gen.h **** static inline lv_coord_t lv_obj_get_style_pad_bottom(const struct _lv_obj_t * obj, uint32_t part)
 110:..\..\..\arduinoLCD\test\Pain Drain\libraries\lvgl\src\widgets\../core/lv_obj_style_gen.h **** {
 111:..\..\..\arduinoLCD\test\Pain Drain\libraries\lvgl\src\widgets\../core/lv_obj_style_gen.h ****     lv_style_value_t v = lv_obj_get_style_prop(obj, part, LV_STYLE_PAD_BOTTOM);
 112:..\..\..\arduinoLCD\test\Pain Drain\libraries\lvgl\src\widgets\../core/lv_obj_style_gen.h ****     return (lv_coord_t)v.num;
ARM GAS  C:\Users\haske\AppData\Local\Temp\ccmHbbn5.s 			page 20


 113:..\..\..\arduinoLCD\test\Pain Drain\libraries\lvgl\src\widgets\../core/lv_obj_style_gen.h **** }
 114:..\..\..\arduinoLCD\test\Pain Drain\libraries\lvgl\src\widgets\../core/lv_obj_style_gen.h **** 
 115:..\..\..\arduinoLCD\test\Pain Drain\libraries\lvgl\src\widgets\../core/lv_obj_style_gen.h **** static inline lv_coord_t lv_obj_get_style_pad_left(const struct _lv_obj_t * obj, uint32_t part)
 116:..\..\..\arduinoLCD\test\Pain Drain\libraries\lvgl\src\widgets\../core/lv_obj_style_gen.h **** {
 117:..\..\..\arduinoLCD\test\Pain Drain\libraries\lvgl\src\widgets\../core/lv_obj_style_gen.h ****     lv_style_value_t v = lv_obj_get_style_prop(obj, part, LV_STYLE_PAD_LEFT);
 187              		.loc 2 117 0
 188 0014 1222     		movs	r2, #18
 189              	.LVL28:
 190 0016 0021     		movs	r1, #0
 191              	.LVL29:
 192 0018 FFF7FEFF 		bl	lv_obj_get_style_prop
 193              	.LVL30:
 194 001c 0090     		str	r0, [sp]
 118:..\..\..\arduinoLCD\test\Pain Drain\libraries\lvgl\src\widgets\../core/lv_obj_style_gen.h ****     return (lv_coord_t)v.num;
 195              		.loc 2 118 0
 196 001e 03B2     		sxth	r3, r0
 197 0020 9B46     		mov	fp, r3
 198              	.LVL31:
 199              	.LBE84:
 200              	.LBE83:
 201              	.LBB85:
 202              	.LBB86:
 119:..\..\..\arduinoLCD\test\Pain Drain\libraries\lvgl\src\widgets\../core/lv_obj_style_gen.h **** }
 120:..\..\..\arduinoLCD\test\Pain Drain\libraries\lvgl\src\widgets\../core/lv_obj_style_gen.h **** 
 121:..\..\..\arduinoLCD\test\Pain Drain\libraries\lvgl\src\widgets\../core/lv_obj_style_gen.h **** static inline lv_coord_t lv_obj_get_style_pad_right(const struct _lv_obj_t * obj, uint32_t part)
 122:..\..\..\arduinoLCD\test\Pain Drain\libraries\lvgl\src\widgets\../core/lv_obj_style_gen.h **** {
 123:..\..\..\arduinoLCD\test\Pain Drain\libraries\lvgl\src\widgets\../core/lv_obj_style_gen.h ****     lv_style_value_t v = lv_obj_get_style_prop(obj, part, LV_STYLE_PAD_RIGHT);
 203              		.loc 2 123 0
 204 0022 1322     		movs	r2, #19
 205 0024 0021     		movs	r1, #0
 206 0026 2000     		movs	r0, r4
 207 0028 FFF7FEFF 		bl	lv_obj_get_style_prop
 208              	.LVL32:
 124:..\..\..\arduinoLCD\test\Pain Drain\libraries\lvgl\src\widgets\../core/lv_obj_style_gen.h ****     return (lv_coord_t)v.num;
 209              		.loc 2 124 0
 210 002c 07B2     		sxth	r7, r0
 211              	.LVL33:
 212              	.LBE86:
 213              	.LBE85:
 214              	.LBB87:
 215              	.LBB88:
 105:..\..\..\arduinoLCD\test\Pain Drain\libraries\lvgl\src\widgets\../core/lv_obj_style_gen.h ****     return (lv_coord_t)v.num;
 216              		.loc 2 105 0
 217 002e 1022     		movs	r2, #16
 218 0030 0021     		movs	r1, #0
 219 0032 2000     		movs	r0, r4
 220 0034 FFF7FEFF 		bl	lv_obj_get_style_prop
 221              	.LVL34:
 222 0038 0190     		str	r0, [sp, #4]
 106:..\..\..\arduinoLCD\test\Pain Drain\libraries\lvgl\src\widgets\../core/lv_obj_style_gen.h **** }
 223              		.loc 2 106 0
 224 003a 03B2     		sxth	r3, r0
 225 003c 9A46     		mov	r10, r3
 226              	.LVL35:
 227              	.LBE88:
 228              	.LBE87:
 229              	.LBB89:
ARM GAS  C:\Users\haske\AppData\Local\Temp\ccmHbbn5.s 			page 21


 230              	.LBB90:
 111:..\..\..\arduinoLCD\test\Pain Drain\libraries\lvgl\src\widgets\../core/lv_obj_style_gen.h ****     return (lv_coord_t)v.num;
 231              		.loc 2 111 0
 232 003e 1122     		movs	r2, #17
 233 0040 0021     		movs	r1, #0
 234 0042 2000     		movs	r0, r4
 235 0044 FFF7FEFF 		bl	lv_obj_get_style_prop
 236              	.LVL36:
 112:..\..\..\arduinoLCD\test\Pain Drain\libraries\lvgl\src\widgets\../core/lv_obj_style_gen.h **** }
 237              		.loc 2 112 0
 238 0048 06B2     		sxth	r6, r0
 239              	.LVL37:
 240              	.LBE90:
 241              	.LBE89:
 752:..\..\..\arduinoLCD\test\Pain Drain\libraries\lvgl\src\widgets/lv_arc.c ****                            lv_obj_get_height(obj) - top_bg - bottom_bg)) / 2;
 242              		.loc 1 752 0
 243 004a 2000     		movs	r0, r4
 244 004c FFF7FEFF 		bl	lv_obj_get_width
 245              	.LVL38:
 246 0050 5B46     		mov	r3, fp
 247 0052 C01A     		subs	r0, r0, r3
 248 0054 C51B     		subs	r5, r0, r7
 249 0056 2000     		movs	r0, r4
 250 0058 FFF7FEFF 		bl	lv_obj_get_height
 251              	.LVL39:
 252 005c 5346     		mov	r3, r10
 253 005e C01A     		subs	r0, r0, r3
 254 0060 801B     		subs	r0, r0, r6
 255 0062 8542     		cmp	r5, r0
 256 0064 0ADA     		bge	.L10
 752:..\..\..\arduinoLCD\test\Pain Drain\libraries\lvgl\src\widgets/lv_arc.c ****                            lv_obj_get_height(obj) - top_bg - bottom_bg)) / 2;
 257              		.loc 1 752 0 is_stmt 0 discriminator 1
 258 0066 2000     		movs	r0, r4
 259 0068 FFF7FEFF 		bl	lv_obj_get_width
 260              	.LVL40:
 261 006c 5B46     		mov	r3, fp
 262 006e C01A     		subs	r0, r0, r3
 263 0070 C71B     		subs	r7, r0, r7
 753:..\..\..\arduinoLCD\test\Pain Drain\libraries\lvgl\src\widgets/lv_arc.c **** 
 264              		.loc 1 753 0 is_stmt 1 discriminator 1
 265 0072 FE0F     		lsrs	r6, r7, #31
 266 0074 F719     		adds	r7, r6, r7
 267 0076 7F10     		asrs	r7, r7, #1
 752:..\..\..\arduinoLCD\test\Pain Drain\libraries\lvgl\src\widgets/lv_arc.c ****                            lv_obj_get_height(obj) - top_bg - bottom_bg)) / 2;
 268              		.loc 1 752 0 discriminator 1
 269 0078 3EB2     		sxth	r6, r7
 270 007a 09E0     		b	.L11
 271              	.L10:
 752:..\..\..\arduinoLCD\test\Pain Drain\libraries\lvgl\src\widgets/lv_arc.c ****                            lv_obj_get_height(obj) - top_bg - bottom_bg)) / 2;
 272              		.loc 1 752 0 is_stmt 0 discriminator 2
 273 007c 2000     		movs	r0, r4
 274 007e FFF7FEFF 		bl	lv_obj_get_height
 275              	.LVL41:
 276 0082 5346     		mov	r3, r10
 277 0084 C01A     		subs	r0, r0, r3
 278 0086 861B     		subs	r6, r0, r6
 753:..\..\..\arduinoLCD\test\Pain Drain\libraries\lvgl\src\widgets/lv_arc.c **** 
ARM GAS  C:\Users\haske\AppData\Local\Temp\ccmHbbn5.s 			page 22


 279              		.loc 1 753 0 is_stmt 1 discriminator 2
 280 0088 F00F     		lsrs	r0, r6, #31
 281 008a 8619     		adds	r6, r0, r6
 282 008c 7610     		asrs	r6, r6, #1
 752:..\..\..\arduinoLCD\test\Pain Drain\libraries\lvgl\src\widgets/lv_arc.c ****                            lv_obj_get_height(obj) - top_bg - bottom_bg)) / 2;
 283              		.loc 1 752 0 discriminator 2
 284 008e 36B2     		sxth	r6, r6
 285              	.L11:
 286              	.LVL42:
 755:..\..\..\arduinoLCD\test\Pain Drain\libraries\lvgl\src\widgets/lv_arc.c ****     center->y = obj->coords.y1 + r + top_bg;
 287              		.loc 1 755 0 discriminator 4
 288 0090 1422     		movs	r2, #20
 289 0092 A35E     		ldrsh	r3, [r4, r2]
 290 0094 B2B2     		uxth	r2, r6
 291 0096 D318     		adds	r3, r2, r3
 292 0098 0099     		ldr	r1, [sp]
 293 009a 8C46     		mov	ip, r1
 294 009c 6344     		add	r3, r3, ip
 295 009e 4146     		mov	r1, r8
 296 00a0 0B80     		strh	r3, [r1]
 756:..\..\..\arduinoLCD\test\Pain Drain\libraries\lvgl\src\widgets/lv_arc.c **** 
 297              		.loc 1 756 0 discriminator 4
 298 00a2 1621     		movs	r1, #22
 299 00a4 635E     		ldrsh	r3, [r4, r1]
 300 00a6 D318     		adds	r3, r2, r3
 301 00a8 019A     		ldr	r2, [sp, #4]
 302 00aa 9D18     		adds	r5, r3, r2
 303 00ac 4346     		mov	r3, r8
 304 00ae 5D80     		strh	r5, [r3, #2]
 758:..\..\..\arduinoLCD\test\Pain Drain\libraries\lvgl\src\widgets/lv_arc.c **** }
 305              		.loc 1 758 0 discriminator 4
 306 00b0 4B46     		mov	r3, r9
 307 00b2 002B     		cmp	r3, #0
 308 00b4 00D0     		beq	.L9
 309              	.LVL43:
 758:..\..\..\arduinoLCD\test\Pain Drain\libraries\lvgl\src\widgets/lv_arc.c **** }
 310              		.loc 1 758 0 is_stmt 0 discriminator 1
 311 00b6 1E80     		strh	r6, [r3]
 312              	.L9:
 759:..\..\..\arduinoLCD\test\Pain Drain\libraries\lvgl\src\widgets/lv_arc.c **** 
 313              		.loc 1 759 0 is_stmt 1
 314 00b8 03B0     		add	sp, sp, #12
 315              		@ sp needed
 316              	.LVL44:
 317              	.LVL45:
 318              	.LVL46:
 319 00ba 3CBC     		pop	{r2, r3, r4, r5}
 320 00bc 9046     		mov	r8, r2
 321 00be 9946     		mov	r9, r3
 322 00c0 A246     		mov	r10, r4
 323 00c2 AB46     		mov	fp, r5
 324 00c4 F0BD     		pop	{r4, r5, r6, r7, pc}
 325              		.cfi_endproc
 326              	.LFE186:
 327              		.size	get_center, .-get_center
 328 00c6 C046     		.section	.text.knob_get_extra_size,"ax",%progbits
 329              		.align	2
ARM GAS  C:\Users\haske\AppData\Local\Temp\ccmHbbn5.s 			page 23


 330              		.code	16
 331              		.thumb_func
 332              		.type	knob_get_extra_size, %function
 333              	knob_get_extra_size:
 334              	.LFB190:
 785:..\..\..\arduinoLCD\test\Pain Drain\libraries\lvgl\src\widgets/lv_arc.c **** 
 786:..\..\..\arduinoLCD\test\Pain Drain\libraries\lvgl\src\widgets/lv_arc.c **** 
 787:..\..\..\arduinoLCD\test\Pain Drain\libraries\lvgl\src\widgets/lv_arc.c **** static void get_knob_area(lv_obj_t * obj, const lv_point_t * center, lv_coord_t r, lv_area_t * knob
 788:..\..\..\arduinoLCD\test\Pain Drain\libraries\lvgl\src\widgets/lv_arc.c **** {
 789:..\..\..\arduinoLCD\test\Pain Drain\libraries\lvgl\src\widgets/lv_arc.c ****     lv_coord_t indic_width = lv_obj_get_style_arc_width(obj, LV_PART_INDICATOR);
 790:..\..\..\arduinoLCD\test\Pain Drain\libraries\lvgl\src\widgets/lv_arc.c ****     lv_coord_t indic_width_half = indic_width / 2;
 791:..\..\..\arduinoLCD\test\Pain Drain\libraries\lvgl\src\widgets/lv_arc.c ****     r -= indic_width_half;
 792:..\..\..\arduinoLCD\test\Pain Drain\libraries\lvgl\src\widgets/lv_arc.c **** 
 793:..\..\..\arduinoLCD\test\Pain Drain\libraries\lvgl\src\widgets/lv_arc.c ****     lv_coord_t angle = get_angle(obj);
 794:..\..\..\arduinoLCD\test\Pain Drain\libraries\lvgl\src\widgets/lv_arc.c ****     lv_coord_t knob_x = (r * lv_trigo_sin(angle + 90)) >> LV_TRIGO_SHIFT;
 795:..\..\..\arduinoLCD\test\Pain Drain\libraries\lvgl\src\widgets/lv_arc.c ****     lv_coord_t knob_y = (r * lv_trigo_sin(angle)) >> LV_TRIGO_SHIFT;
 796:..\..\..\arduinoLCD\test\Pain Drain\libraries\lvgl\src\widgets/lv_arc.c **** 
 797:..\..\..\arduinoLCD\test\Pain Drain\libraries\lvgl\src\widgets/lv_arc.c ****     lv_coord_t left_knob = lv_obj_get_style_pad_left(obj, LV_PART_KNOB);
 798:..\..\..\arduinoLCD\test\Pain Drain\libraries\lvgl\src\widgets/lv_arc.c ****     lv_coord_t right_knob = lv_obj_get_style_pad_right(obj, LV_PART_KNOB);
 799:..\..\..\arduinoLCD\test\Pain Drain\libraries\lvgl\src\widgets/lv_arc.c ****     lv_coord_t top_knob = lv_obj_get_style_pad_top(obj, LV_PART_KNOB);
 800:..\..\..\arduinoLCD\test\Pain Drain\libraries\lvgl\src\widgets/lv_arc.c ****     lv_coord_t bottom_knob = lv_obj_get_style_pad_bottom(obj, LV_PART_KNOB);
 801:..\..\..\arduinoLCD\test\Pain Drain\libraries\lvgl\src\widgets/lv_arc.c **** 
 802:..\..\..\arduinoLCD\test\Pain Drain\libraries\lvgl\src\widgets/lv_arc.c ****     knob_area->x1 = center->x + knob_x - left_knob - indic_width_half;
 803:..\..\..\arduinoLCD\test\Pain Drain\libraries\lvgl\src\widgets/lv_arc.c ****     knob_area->x2 = center->x + knob_x + right_knob + indic_width_half;
 804:..\..\..\arduinoLCD\test\Pain Drain\libraries\lvgl\src\widgets/lv_arc.c ****     knob_area->y1 = center->y + knob_y - top_knob - indic_width_half;
 805:..\..\..\arduinoLCD\test\Pain Drain\libraries\lvgl\src\widgets/lv_arc.c ****     knob_area->y2 = center->y + knob_y + bottom_knob + indic_width_half;
 806:..\..\..\arduinoLCD\test\Pain Drain\libraries\lvgl\src\widgets/lv_arc.c **** }
 807:..\..\..\arduinoLCD\test\Pain Drain\libraries\lvgl\src\widgets/lv_arc.c **** 
 808:..\..\..\arduinoLCD\test\Pain Drain\libraries\lvgl\src\widgets/lv_arc.c **** /**
 809:..\..\..\arduinoLCD\test\Pain Drain\libraries\lvgl\src\widgets/lv_arc.c ****  * Used internally to update arc angles after a value change
 810:..\..\..\arduinoLCD\test\Pain Drain\libraries\lvgl\src\widgets/lv_arc.c ****  * @param arc pointer to an arc object
 811:..\..\..\arduinoLCD\test\Pain Drain\libraries\lvgl\src\widgets/lv_arc.c ****  */
 812:..\..\..\arduinoLCD\test\Pain Drain\libraries\lvgl\src\widgets/lv_arc.c **** static void value_update(lv_obj_t * obj)
 813:..\..\..\arduinoLCD\test\Pain Drain\libraries\lvgl\src\widgets/lv_arc.c **** {
 814:..\..\..\arduinoLCD\test\Pain Drain\libraries\lvgl\src\widgets/lv_arc.c ****     LV_ASSERT_OBJ(obj, MY_CLASS);
 815:..\..\..\arduinoLCD\test\Pain Drain\libraries\lvgl\src\widgets/lv_arc.c ****     lv_arc_t * arc = (lv_arc_t *)obj;
 816:..\..\..\arduinoLCD\test\Pain Drain\libraries\lvgl\src\widgets/lv_arc.c **** 
 817:..\..\..\arduinoLCD\test\Pain Drain\libraries\lvgl\src\widgets/lv_arc.c ****     /*If the value is still not set to any value do not update*/
 818:..\..\..\arduinoLCD\test\Pain Drain\libraries\lvgl\src\widgets/lv_arc.c ****     if(arc->value == VALUE_UNSET) return;
 819:..\..\..\arduinoLCD\test\Pain Drain\libraries\lvgl\src\widgets/lv_arc.c **** 
 820:..\..\..\arduinoLCD\test\Pain Drain\libraries\lvgl\src\widgets/lv_arc.c ****     int16_t bg_midpoint, range_midpoint, bg_end = arc->bg_angle_end;
 821:..\..\..\arduinoLCD\test\Pain Drain\libraries\lvgl\src\widgets/lv_arc.c ****     if(arc->bg_angle_end < arc->bg_angle_start) bg_end = arc->bg_angle_end + 360;
 822:..\..\..\arduinoLCD\test\Pain Drain\libraries\lvgl\src\widgets/lv_arc.c **** 
 823:..\..\..\arduinoLCD\test\Pain Drain\libraries\lvgl\src\widgets/lv_arc.c ****     int16_t angle;
 824:..\..\..\arduinoLCD\test\Pain Drain\libraries\lvgl\src\widgets/lv_arc.c ****     switch(arc->type) {
 825:..\..\..\arduinoLCD\test\Pain Drain\libraries\lvgl\src\widgets/lv_arc.c ****         case LV_ARC_MODE_SYMMETRICAL:
 826:..\..\..\arduinoLCD\test\Pain Drain\libraries\lvgl\src\widgets/lv_arc.c ****             bg_midpoint = (arc->bg_angle_start + bg_end) / 2;
 827:..\..\..\arduinoLCD\test\Pain Drain\libraries\lvgl\src\widgets/lv_arc.c ****             range_midpoint = (int32_t)(arc->min_value + arc->max_value) / 2;
 828:..\..\..\arduinoLCD\test\Pain Drain\libraries\lvgl\src\widgets/lv_arc.c **** 
 829:..\..\..\arduinoLCD\test\Pain Drain\libraries\lvgl\src\widgets/lv_arc.c ****             if(arc->value < range_midpoint) {
 830:..\..\..\arduinoLCD\test\Pain Drain\libraries\lvgl\src\widgets/lv_arc.c ****                 angle = lv_map(arc->value, arc->min_value, range_midpoint, arc->bg_angle_start, bg_
 831:..\..\..\arduinoLCD\test\Pain Drain\libraries\lvgl\src\widgets/lv_arc.c ****                 lv_arc_set_start_angle(obj, angle);
 832:..\..\..\arduinoLCD\test\Pain Drain\libraries\lvgl\src\widgets/lv_arc.c ****                 lv_arc_set_end_angle(obj, bg_midpoint);
 833:..\..\..\arduinoLCD\test\Pain Drain\libraries\lvgl\src\widgets/lv_arc.c ****             }
 834:..\..\..\arduinoLCD\test\Pain Drain\libraries\lvgl\src\widgets/lv_arc.c ****             else {
 835:..\..\..\arduinoLCD\test\Pain Drain\libraries\lvgl\src\widgets/lv_arc.c ****                 angle = lv_map(arc->value, range_midpoint, arc->max_value, bg_midpoint, bg_end);
 836:..\..\..\arduinoLCD\test\Pain Drain\libraries\lvgl\src\widgets/lv_arc.c ****                 lv_arc_set_start_angle(obj, bg_midpoint);
ARM GAS  C:\Users\haske\AppData\Local\Temp\ccmHbbn5.s 			page 24


 837:..\..\..\arduinoLCD\test\Pain Drain\libraries\lvgl\src\widgets/lv_arc.c ****                 lv_arc_set_end_angle(obj, angle);
 838:..\..\..\arduinoLCD\test\Pain Drain\libraries\lvgl\src\widgets/lv_arc.c ****             }
 839:..\..\..\arduinoLCD\test\Pain Drain\libraries\lvgl\src\widgets/lv_arc.c ****             break;
 840:..\..\..\arduinoLCD\test\Pain Drain\libraries\lvgl\src\widgets/lv_arc.c ****         case LV_ARC_MODE_REVERSE:
 841:..\..\..\arduinoLCD\test\Pain Drain\libraries\lvgl\src\widgets/lv_arc.c ****             angle = lv_map(arc->value, arc->min_value, arc->max_value, bg_end, arc->bg_angle_start)
 842:..\..\..\arduinoLCD\test\Pain Drain\libraries\lvgl\src\widgets/lv_arc.c ****             lv_arc_set_angles(obj, angle, arc->bg_angle_end);
 843:..\..\..\arduinoLCD\test\Pain Drain\libraries\lvgl\src\widgets/lv_arc.c ****             break;
 844:..\..\..\arduinoLCD\test\Pain Drain\libraries\lvgl\src\widgets/lv_arc.c ****         case LV_ARC_MODE_NORMAL:
 845:..\..\..\arduinoLCD\test\Pain Drain\libraries\lvgl\src\widgets/lv_arc.c ****             angle = lv_map(arc->value, arc->min_value, arc->max_value, arc->bg_angle_start, bg_end)
 846:..\..\..\arduinoLCD\test\Pain Drain\libraries\lvgl\src\widgets/lv_arc.c ****             lv_arc_set_angles(obj, arc->bg_angle_start, angle);
 847:..\..\..\arduinoLCD\test\Pain Drain\libraries\lvgl\src\widgets/lv_arc.c **** 
 848:..\..\..\arduinoLCD\test\Pain Drain\libraries\lvgl\src\widgets/lv_arc.c ****             break;
 849:..\..\..\arduinoLCD\test\Pain Drain\libraries\lvgl\src\widgets/lv_arc.c ****         default:
 850:..\..\..\arduinoLCD\test\Pain Drain\libraries\lvgl\src\widgets/lv_arc.c ****             LV_LOG_WARN("Invalid mode: %d", arc->type);
 851:..\..\..\arduinoLCD\test\Pain Drain\libraries\lvgl\src\widgets/lv_arc.c ****             return;
 852:..\..\..\arduinoLCD\test\Pain Drain\libraries\lvgl\src\widgets/lv_arc.c ****     }
 853:..\..\..\arduinoLCD\test\Pain Drain\libraries\lvgl\src\widgets/lv_arc.c ****     arc->last_angle = angle; /*Cache angle for slew rate limiting*/
 854:..\..\..\arduinoLCD\test\Pain Drain\libraries\lvgl\src\widgets/lv_arc.c **** }
 855:..\..\..\arduinoLCD\test\Pain Drain\libraries\lvgl\src\widgets/lv_arc.c **** 
 856:..\..\..\arduinoLCD\test\Pain Drain\libraries\lvgl\src\widgets/lv_arc.c **** static lv_coord_t knob_get_extra_size(lv_obj_t * obj)
 857:..\..\..\arduinoLCD\test\Pain Drain\libraries\lvgl\src\widgets/lv_arc.c **** {
 335              		.loc 1 857 0
 336              		.cfi_startproc
 337              		@ args = 0, pretend = 0, frame = 0
 338              		@ frame_needed = 0, uses_anonymous_args = 0
 339              	.LVL47:
 340 0000 F8B5     		push	{r3, r4, r5, r6, r7, lr}
 341              		.cfi_def_cfa_offset 24
 342              		.cfi_offset 3, -24
 343              		.cfi_offset 4, -20
 344              		.cfi_offset 5, -16
 345              		.cfi_offset 6, -12
 346              		.cfi_offset 7, -8
 347              		.cfi_offset 14, -4
 348 0002 0500     		movs	r5, r0
 349              	.LVL48:
 350              	.LBB91:
 351              	.LBB92:
 125:..\..\..\arduinoLCD\test\Pain Drain\libraries\lvgl\src\widgets\../core/lv_obj_style_gen.h **** }
 126:..\..\..\arduinoLCD\test\Pain Drain\libraries\lvgl\src\widgets\../core/lv_obj_style_gen.h **** 
 127:..\..\..\arduinoLCD\test\Pain Drain\libraries\lvgl\src\widgets\../core/lv_obj_style_gen.h **** static inline lv_coord_t lv_obj_get_style_pad_row(const struct _lv_obj_t * obj, uint32_t part)
 128:..\..\..\arduinoLCD\test\Pain Drain\libraries\lvgl\src\widgets\../core/lv_obj_style_gen.h **** {
 129:..\..\..\arduinoLCD\test\Pain Drain\libraries\lvgl\src\widgets\../core/lv_obj_style_gen.h ****     lv_style_value_t v = lv_obj_get_style_prop(obj, part, LV_STYLE_PAD_ROW);
 130:..\..\..\arduinoLCD\test\Pain Drain\libraries\lvgl\src\widgets\../core/lv_obj_style_gen.h ****     return (lv_coord_t)v.num;
 131:..\..\..\arduinoLCD\test\Pain Drain\libraries\lvgl\src\widgets\../core/lv_obj_style_gen.h **** }
 132:..\..\..\arduinoLCD\test\Pain Drain\libraries\lvgl\src\widgets\../core/lv_obj_style_gen.h **** 
 133:..\..\..\arduinoLCD\test\Pain Drain\libraries\lvgl\src\widgets\../core/lv_obj_style_gen.h **** static inline lv_coord_t lv_obj_get_style_pad_column(const struct _lv_obj_t * obj, uint32_t part)
 134:..\..\..\arduinoLCD\test\Pain Drain\libraries\lvgl\src\widgets\../core/lv_obj_style_gen.h **** {
 135:..\..\..\arduinoLCD\test\Pain Drain\libraries\lvgl\src\widgets\../core/lv_obj_style_gen.h ****     lv_style_value_t v = lv_obj_get_style_prop(obj, part, LV_STYLE_PAD_COLUMN);
 136:..\..\..\arduinoLCD\test\Pain Drain\libraries\lvgl\src\widgets\../core/lv_obj_style_gen.h ****     return (lv_coord_t)v.num;
 137:..\..\..\arduinoLCD\test\Pain Drain\libraries\lvgl\src\widgets\../core/lv_obj_style_gen.h **** }
 138:..\..\..\arduinoLCD\test\Pain Drain\libraries\lvgl\src\widgets\../core/lv_obj_style_gen.h **** 
 139:..\..\..\arduinoLCD\test\Pain Drain\libraries\lvgl\src\widgets\../core/lv_obj_style_gen.h **** static inline lv_color_t lv_obj_get_style_bg_color(const struct _lv_obj_t * obj, uint32_t part)
 140:..\..\..\arduinoLCD\test\Pain Drain\libraries\lvgl\src\widgets\../core/lv_obj_style_gen.h **** {
 141:..\..\..\arduinoLCD\test\Pain Drain\libraries\lvgl\src\widgets\../core/lv_obj_style_gen.h ****     lv_style_value_t v = lv_obj_get_style_prop(obj, part, LV_STYLE_BG_COLOR);
 142:..\..\..\arduinoLCD\test\Pain Drain\libraries\lvgl\src\widgets\../core/lv_obj_style_gen.h ****     return v.color;
 143:..\..\..\arduinoLCD\test\Pain Drain\libraries\lvgl\src\widgets\../core/lv_obj_style_gen.h **** }
ARM GAS  C:\Users\haske\AppData\Local\Temp\ccmHbbn5.s 			page 25


 144:..\..\..\arduinoLCD\test\Pain Drain\libraries\lvgl\src\widgets\../core/lv_obj_style_gen.h **** 
 145:..\..\..\arduinoLCD\test\Pain Drain\libraries\lvgl\src\widgets\../core/lv_obj_style_gen.h **** static inline lv_color_t lv_obj_get_style_bg_color_filtered(const struct _lv_obj_t * obj, uint32_t 
 146:..\..\..\arduinoLCD\test\Pain Drain\libraries\lvgl\src\widgets\../core/lv_obj_style_gen.h **** {
 147:..\..\..\arduinoLCD\test\Pain Drain\libraries\lvgl\src\widgets\../core/lv_obj_style_gen.h ****     lv_style_value_t v = _lv_obj_style_apply_color_filter(obj, part, lv_obj_get_style_prop(obj, par
 148:..\..\..\arduinoLCD\test\Pain Drain\libraries\lvgl\src\widgets\../core/lv_obj_style_gen.h ****     return v.color;
 149:..\..\..\arduinoLCD\test\Pain Drain\libraries\lvgl\src\widgets\../core/lv_obj_style_gen.h **** }
 150:..\..\..\arduinoLCD\test\Pain Drain\libraries\lvgl\src\widgets\../core/lv_obj_style_gen.h **** 
 151:..\..\..\arduinoLCD\test\Pain Drain\libraries\lvgl\src\widgets\../core/lv_obj_style_gen.h **** static inline lv_opa_t lv_obj_get_style_bg_opa(const struct _lv_obj_t * obj, uint32_t part)
 152:..\..\..\arduinoLCD\test\Pain Drain\libraries\lvgl\src\widgets\../core/lv_obj_style_gen.h **** {
 153:..\..\..\arduinoLCD\test\Pain Drain\libraries\lvgl\src\widgets\../core/lv_obj_style_gen.h ****     lv_style_value_t v = lv_obj_get_style_prop(obj, part, LV_STYLE_BG_OPA);
 154:..\..\..\arduinoLCD\test\Pain Drain\libraries\lvgl\src\widgets\../core/lv_obj_style_gen.h ****     return (lv_opa_t)v.num;
 155:..\..\..\arduinoLCD\test\Pain Drain\libraries\lvgl\src\widgets\../core/lv_obj_style_gen.h **** }
 156:..\..\..\arduinoLCD\test\Pain Drain\libraries\lvgl\src\widgets\../core/lv_obj_style_gen.h **** 
 157:..\..\..\arduinoLCD\test\Pain Drain\libraries\lvgl\src\widgets\../core/lv_obj_style_gen.h **** static inline lv_color_t lv_obj_get_style_bg_grad_color(const struct _lv_obj_t * obj, uint32_t part
 158:..\..\..\arduinoLCD\test\Pain Drain\libraries\lvgl\src\widgets\../core/lv_obj_style_gen.h **** {
 159:..\..\..\arduinoLCD\test\Pain Drain\libraries\lvgl\src\widgets\../core/lv_obj_style_gen.h ****     lv_style_value_t v = lv_obj_get_style_prop(obj, part, LV_STYLE_BG_GRAD_COLOR);
 160:..\..\..\arduinoLCD\test\Pain Drain\libraries\lvgl\src\widgets\../core/lv_obj_style_gen.h ****     return v.color;
 161:..\..\..\arduinoLCD\test\Pain Drain\libraries\lvgl\src\widgets\../core/lv_obj_style_gen.h **** }
 162:..\..\..\arduinoLCD\test\Pain Drain\libraries\lvgl\src\widgets\../core/lv_obj_style_gen.h **** 
 163:..\..\..\arduinoLCD\test\Pain Drain\libraries\lvgl\src\widgets\../core/lv_obj_style_gen.h **** static inline lv_color_t lv_obj_get_style_bg_grad_color_filtered(const struct _lv_obj_t * obj, uint
 164:..\..\..\arduinoLCD\test\Pain Drain\libraries\lvgl\src\widgets\../core/lv_obj_style_gen.h **** {
 165:..\..\..\arduinoLCD\test\Pain Drain\libraries\lvgl\src\widgets\../core/lv_obj_style_gen.h ****     lv_style_value_t v = _lv_obj_style_apply_color_filter(obj, part, lv_obj_get_style_prop(obj, par
 166:..\..\..\arduinoLCD\test\Pain Drain\libraries\lvgl\src\widgets\../core/lv_obj_style_gen.h ****     return v.color;
 167:..\..\..\arduinoLCD\test\Pain Drain\libraries\lvgl\src\widgets\../core/lv_obj_style_gen.h **** }
 168:..\..\..\arduinoLCD\test\Pain Drain\libraries\lvgl\src\widgets\../core/lv_obj_style_gen.h **** 
 169:..\..\..\arduinoLCD\test\Pain Drain\libraries\lvgl\src\widgets\../core/lv_obj_style_gen.h **** static inline lv_grad_dir_t lv_obj_get_style_bg_grad_dir(const struct _lv_obj_t * obj, uint32_t par
 170:..\..\..\arduinoLCD\test\Pain Drain\libraries\lvgl\src\widgets\../core/lv_obj_style_gen.h **** {
 171:..\..\..\arduinoLCD\test\Pain Drain\libraries\lvgl\src\widgets\../core/lv_obj_style_gen.h ****     lv_style_value_t v = lv_obj_get_style_prop(obj, part, LV_STYLE_BG_GRAD_DIR);
 172:..\..\..\arduinoLCD\test\Pain Drain\libraries\lvgl\src\widgets\../core/lv_obj_style_gen.h ****     return (lv_grad_dir_t)v.num;
 173:..\..\..\arduinoLCD\test\Pain Drain\libraries\lvgl\src\widgets\../core/lv_obj_style_gen.h **** }
 174:..\..\..\arduinoLCD\test\Pain Drain\libraries\lvgl\src\widgets\../core/lv_obj_style_gen.h **** 
 175:..\..\..\arduinoLCD\test\Pain Drain\libraries\lvgl\src\widgets\../core/lv_obj_style_gen.h **** static inline lv_coord_t lv_obj_get_style_bg_main_stop(const struct _lv_obj_t * obj, uint32_t part)
 176:..\..\..\arduinoLCD\test\Pain Drain\libraries\lvgl\src\widgets\../core/lv_obj_style_gen.h **** {
 177:..\..\..\arduinoLCD\test\Pain Drain\libraries\lvgl\src\widgets\../core/lv_obj_style_gen.h ****     lv_style_value_t v = lv_obj_get_style_prop(obj, part, LV_STYLE_BG_MAIN_STOP);
 178:..\..\..\arduinoLCD\test\Pain Drain\libraries\lvgl\src\widgets\../core/lv_obj_style_gen.h ****     return (lv_coord_t)v.num;
 179:..\..\..\arduinoLCD\test\Pain Drain\libraries\lvgl\src\widgets\../core/lv_obj_style_gen.h **** }
 180:..\..\..\arduinoLCD\test\Pain Drain\libraries\lvgl\src\widgets\../core/lv_obj_style_gen.h **** 
 181:..\..\..\arduinoLCD\test\Pain Drain\libraries\lvgl\src\widgets\../core/lv_obj_style_gen.h **** static inline lv_coord_t lv_obj_get_style_bg_grad_stop(const struct _lv_obj_t * obj, uint32_t part)
 182:..\..\..\arduinoLCD\test\Pain Drain\libraries\lvgl\src\widgets\../core/lv_obj_style_gen.h **** {
 183:..\..\..\arduinoLCD\test\Pain Drain\libraries\lvgl\src\widgets\../core/lv_obj_style_gen.h ****     lv_style_value_t v = lv_obj_get_style_prop(obj, part, LV_STYLE_BG_GRAD_STOP);
 184:..\..\..\arduinoLCD\test\Pain Drain\libraries\lvgl\src\widgets\../core/lv_obj_style_gen.h ****     return (lv_coord_t)v.num;
 185:..\..\..\arduinoLCD\test\Pain Drain\libraries\lvgl\src\widgets\../core/lv_obj_style_gen.h **** }
 186:..\..\..\arduinoLCD\test\Pain Drain\libraries\lvgl\src\widgets\../core/lv_obj_style_gen.h **** 
 187:..\..\..\arduinoLCD\test\Pain Drain\libraries\lvgl\src\widgets\../core/lv_obj_style_gen.h **** static inline const lv_grad_dsc_t * lv_obj_get_style_bg_grad(const struct _lv_obj_t * obj, uint32_t
 188:..\..\..\arduinoLCD\test\Pain Drain\libraries\lvgl\src\widgets\../core/lv_obj_style_gen.h **** {
 189:..\..\..\arduinoLCD\test\Pain Drain\libraries\lvgl\src\widgets\../core/lv_obj_style_gen.h ****     lv_style_value_t v = lv_obj_get_style_prop(obj, part, LV_STYLE_BG_GRAD);
 190:..\..\..\arduinoLCD\test\Pain Drain\libraries\lvgl\src\widgets\../core/lv_obj_style_gen.h ****     return (const lv_grad_dsc_t *)v.ptr;
 191:..\..\..\arduinoLCD\test\Pain Drain\libraries\lvgl\src\widgets\../core/lv_obj_style_gen.h **** }
 192:..\..\..\arduinoLCD\test\Pain Drain\libraries\lvgl\src\widgets\../core/lv_obj_style_gen.h **** 
 193:..\..\..\arduinoLCD\test\Pain Drain\libraries\lvgl\src\widgets\../core/lv_obj_style_gen.h **** static inline lv_dither_mode_t lv_obj_get_style_bg_dither_mode(const struct _lv_obj_t * obj, uint32
 194:..\..\..\arduinoLCD\test\Pain Drain\libraries\lvgl\src\widgets\../core/lv_obj_style_gen.h **** {
 195:..\..\..\arduinoLCD\test\Pain Drain\libraries\lvgl\src\widgets\../core/lv_obj_style_gen.h ****     lv_style_value_t v = lv_obj_get_style_prop(obj, part, LV_STYLE_BG_DITHER_MODE);
 196:..\..\..\arduinoLCD\test\Pain Drain\libraries\lvgl\src\widgets\../core/lv_obj_style_gen.h ****     return (lv_dither_mode_t)v.num;
 197:..\..\..\arduinoLCD\test\Pain Drain\libraries\lvgl\src\widgets\../core/lv_obj_style_gen.h **** }
 198:..\..\..\arduinoLCD\test\Pain Drain\libraries\lvgl\src\widgets\../core/lv_obj_style_gen.h **** 
 199:..\..\..\arduinoLCD\test\Pain Drain\libraries\lvgl\src\widgets\../core/lv_obj_style_gen.h **** static inline const void * lv_obj_get_style_bg_img_src(const struct _lv_obj_t * obj, uint32_t part)
 200:..\..\..\arduinoLCD\test\Pain Drain\libraries\lvgl\src\widgets\../core/lv_obj_style_gen.h **** {
ARM GAS  C:\Users\haske\AppData\Local\Temp\ccmHbbn5.s 			page 26


 201:..\..\..\arduinoLCD\test\Pain Drain\libraries\lvgl\src\widgets\../core/lv_obj_style_gen.h ****     lv_style_value_t v = lv_obj_get_style_prop(obj, part, LV_STYLE_BG_IMG_SRC);
 202:..\..\..\arduinoLCD\test\Pain Drain\libraries\lvgl\src\widgets\../core/lv_obj_style_gen.h ****     return (const void *)v.ptr;
 203:..\..\..\arduinoLCD\test\Pain Drain\libraries\lvgl\src\widgets\../core/lv_obj_style_gen.h **** }
 204:..\..\..\arduinoLCD\test\Pain Drain\libraries\lvgl\src\widgets\../core/lv_obj_style_gen.h **** 
 205:..\..\..\arduinoLCD\test\Pain Drain\libraries\lvgl\src\widgets\../core/lv_obj_style_gen.h **** static inline lv_opa_t lv_obj_get_style_bg_img_opa(const struct _lv_obj_t * obj, uint32_t part)
 206:..\..\..\arduinoLCD\test\Pain Drain\libraries\lvgl\src\widgets\../core/lv_obj_style_gen.h **** {
 207:..\..\..\arduinoLCD\test\Pain Drain\libraries\lvgl\src\widgets\../core/lv_obj_style_gen.h ****     lv_style_value_t v = lv_obj_get_style_prop(obj, part, LV_STYLE_BG_IMG_OPA);
 208:..\..\..\arduinoLCD\test\Pain Drain\libraries\lvgl\src\widgets\../core/lv_obj_style_gen.h ****     return (lv_opa_t)v.num;
 209:..\..\..\arduinoLCD\test\Pain Drain\libraries\lvgl\src\widgets\../core/lv_obj_style_gen.h **** }
 210:..\..\..\arduinoLCD\test\Pain Drain\libraries\lvgl\src\widgets\../core/lv_obj_style_gen.h **** 
 211:..\..\..\arduinoLCD\test\Pain Drain\libraries\lvgl\src\widgets\../core/lv_obj_style_gen.h **** static inline lv_color_t lv_obj_get_style_bg_img_recolor(const struct _lv_obj_t * obj, uint32_t par
 212:..\..\..\arduinoLCD\test\Pain Drain\libraries\lvgl\src\widgets\../core/lv_obj_style_gen.h **** {
 213:..\..\..\arduinoLCD\test\Pain Drain\libraries\lvgl\src\widgets\../core/lv_obj_style_gen.h ****     lv_style_value_t v = lv_obj_get_style_prop(obj, part, LV_STYLE_BG_IMG_RECOLOR);
 214:..\..\..\arduinoLCD\test\Pain Drain\libraries\lvgl\src\widgets\../core/lv_obj_style_gen.h ****     return v.color;
 215:..\..\..\arduinoLCD\test\Pain Drain\libraries\lvgl\src\widgets\../core/lv_obj_style_gen.h **** }
 216:..\..\..\arduinoLCD\test\Pain Drain\libraries\lvgl\src\widgets\../core/lv_obj_style_gen.h **** 
 217:..\..\..\arduinoLCD\test\Pain Drain\libraries\lvgl\src\widgets\../core/lv_obj_style_gen.h **** static inline lv_color_t lv_obj_get_style_bg_img_recolor_filtered(const struct _lv_obj_t * obj, uin
 218:..\..\..\arduinoLCD\test\Pain Drain\libraries\lvgl\src\widgets\../core/lv_obj_style_gen.h **** {
 219:..\..\..\arduinoLCD\test\Pain Drain\libraries\lvgl\src\widgets\../core/lv_obj_style_gen.h ****     lv_style_value_t v = _lv_obj_style_apply_color_filter(obj, part, lv_obj_get_style_prop(obj, par
 220:..\..\..\arduinoLCD\test\Pain Drain\libraries\lvgl\src\widgets\../core/lv_obj_style_gen.h ****     return v.color;
 221:..\..\..\arduinoLCD\test\Pain Drain\libraries\lvgl\src\widgets\../core/lv_obj_style_gen.h **** }
 222:..\..\..\arduinoLCD\test\Pain Drain\libraries\lvgl\src\widgets\../core/lv_obj_style_gen.h **** 
 223:..\..\..\arduinoLCD\test\Pain Drain\libraries\lvgl\src\widgets\../core/lv_obj_style_gen.h **** static inline lv_opa_t lv_obj_get_style_bg_img_recolor_opa(const struct _lv_obj_t * obj, uint32_t p
 224:..\..\..\arduinoLCD\test\Pain Drain\libraries\lvgl\src\widgets\../core/lv_obj_style_gen.h **** {
 225:..\..\..\arduinoLCD\test\Pain Drain\libraries\lvgl\src\widgets\../core/lv_obj_style_gen.h ****     lv_style_value_t v = lv_obj_get_style_prop(obj, part, LV_STYLE_BG_IMG_RECOLOR_OPA);
 226:..\..\..\arduinoLCD\test\Pain Drain\libraries\lvgl\src\widgets\../core/lv_obj_style_gen.h ****     return (lv_opa_t)v.num;
 227:..\..\..\arduinoLCD\test\Pain Drain\libraries\lvgl\src\widgets\../core/lv_obj_style_gen.h **** }
 228:..\..\..\arduinoLCD\test\Pain Drain\libraries\lvgl\src\widgets\../core/lv_obj_style_gen.h **** 
 229:..\..\..\arduinoLCD\test\Pain Drain\libraries\lvgl\src\widgets\../core/lv_obj_style_gen.h **** static inline bool lv_obj_get_style_bg_img_tiled(const struct _lv_obj_t * obj, uint32_t part)
 230:..\..\..\arduinoLCD\test\Pain Drain\libraries\lvgl\src\widgets\../core/lv_obj_style_gen.h **** {
 231:..\..\..\arduinoLCD\test\Pain Drain\libraries\lvgl\src\widgets\../core/lv_obj_style_gen.h ****     lv_style_value_t v = lv_obj_get_style_prop(obj, part, LV_STYLE_BG_IMG_TILED);
 232:..\..\..\arduinoLCD\test\Pain Drain\libraries\lvgl\src\widgets\../core/lv_obj_style_gen.h ****     return (bool)v.num;
 233:..\..\..\arduinoLCD\test\Pain Drain\libraries\lvgl\src\widgets\../core/lv_obj_style_gen.h **** }
 234:..\..\..\arduinoLCD\test\Pain Drain\libraries\lvgl\src\widgets\../core/lv_obj_style_gen.h **** 
 235:..\..\..\arduinoLCD\test\Pain Drain\libraries\lvgl\src\widgets\../core/lv_obj_style_gen.h **** static inline lv_color_t lv_obj_get_style_border_color(const struct _lv_obj_t * obj, uint32_t part)
 236:..\..\..\arduinoLCD\test\Pain Drain\libraries\lvgl\src\widgets\../core/lv_obj_style_gen.h **** {
 237:..\..\..\arduinoLCD\test\Pain Drain\libraries\lvgl\src\widgets\../core/lv_obj_style_gen.h ****     lv_style_value_t v = lv_obj_get_style_prop(obj, part, LV_STYLE_BORDER_COLOR);
 238:..\..\..\arduinoLCD\test\Pain Drain\libraries\lvgl\src\widgets\../core/lv_obj_style_gen.h ****     return v.color;
 239:..\..\..\arduinoLCD\test\Pain Drain\libraries\lvgl\src\widgets\../core/lv_obj_style_gen.h **** }
 240:..\..\..\arduinoLCD\test\Pain Drain\libraries\lvgl\src\widgets\../core/lv_obj_style_gen.h **** 
 241:..\..\..\arduinoLCD\test\Pain Drain\libraries\lvgl\src\widgets\../core/lv_obj_style_gen.h **** static inline lv_color_t lv_obj_get_style_border_color_filtered(const struct _lv_obj_t * obj, uint3
 242:..\..\..\arduinoLCD\test\Pain Drain\libraries\lvgl\src\widgets\../core/lv_obj_style_gen.h **** {
 243:..\..\..\arduinoLCD\test\Pain Drain\libraries\lvgl\src\widgets\../core/lv_obj_style_gen.h ****     lv_style_value_t v = _lv_obj_style_apply_color_filter(obj, part, lv_obj_get_style_prop(obj, par
 244:..\..\..\arduinoLCD\test\Pain Drain\libraries\lvgl\src\widgets\../core/lv_obj_style_gen.h ****     return v.color;
 245:..\..\..\arduinoLCD\test\Pain Drain\libraries\lvgl\src\widgets\../core/lv_obj_style_gen.h **** }
 246:..\..\..\arduinoLCD\test\Pain Drain\libraries\lvgl\src\widgets\../core/lv_obj_style_gen.h **** 
 247:..\..\..\arduinoLCD\test\Pain Drain\libraries\lvgl\src\widgets\../core/lv_obj_style_gen.h **** static inline lv_opa_t lv_obj_get_style_border_opa(const struct _lv_obj_t * obj, uint32_t part)
 248:..\..\..\arduinoLCD\test\Pain Drain\libraries\lvgl\src\widgets\../core/lv_obj_style_gen.h **** {
 249:..\..\..\arduinoLCD\test\Pain Drain\libraries\lvgl\src\widgets\../core/lv_obj_style_gen.h ****     lv_style_value_t v = lv_obj_get_style_prop(obj, part, LV_STYLE_BORDER_OPA);
 250:..\..\..\arduinoLCD\test\Pain Drain\libraries\lvgl\src\widgets\../core/lv_obj_style_gen.h ****     return (lv_opa_t)v.num;
 251:..\..\..\arduinoLCD\test\Pain Drain\libraries\lvgl\src\widgets\../core/lv_obj_style_gen.h **** }
 252:..\..\..\arduinoLCD\test\Pain Drain\libraries\lvgl\src\widgets\../core/lv_obj_style_gen.h **** 
 253:..\..\..\arduinoLCD\test\Pain Drain\libraries\lvgl\src\widgets\../core/lv_obj_style_gen.h **** static inline lv_coord_t lv_obj_get_style_border_width(const struct _lv_obj_t * obj, uint32_t part)
 254:..\..\..\arduinoLCD\test\Pain Drain\libraries\lvgl\src\widgets\../core/lv_obj_style_gen.h **** {
 255:..\..\..\arduinoLCD\test\Pain Drain\libraries\lvgl\src\widgets\../core/lv_obj_style_gen.h ****     lv_style_value_t v = lv_obj_get_style_prop(obj, part, LV_STYLE_BORDER_WIDTH);
 256:..\..\..\arduinoLCD\test\Pain Drain\libraries\lvgl\src\widgets\../core/lv_obj_style_gen.h ****     return (lv_coord_t)v.num;
 257:..\..\..\arduinoLCD\test\Pain Drain\libraries\lvgl\src\widgets\../core/lv_obj_style_gen.h **** }
ARM GAS  C:\Users\haske\AppData\Local\Temp\ccmHbbn5.s 			page 27


 258:..\..\..\arduinoLCD\test\Pain Drain\libraries\lvgl\src\widgets\../core/lv_obj_style_gen.h **** 
 259:..\..\..\arduinoLCD\test\Pain Drain\libraries\lvgl\src\widgets\../core/lv_obj_style_gen.h **** static inline lv_border_side_t lv_obj_get_style_border_side(const struct _lv_obj_t * obj, uint32_t 
 260:..\..\..\arduinoLCD\test\Pain Drain\libraries\lvgl\src\widgets\../core/lv_obj_style_gen.h **** {
 261:..\..\..\arduinoLCD\test\Pain Drain\libraries\lvgl\src\widgets\../core/lv_obj_style_gen.h ****     lv_style_value_t v = lv_obj_get_style_prop(obj, part, LV_STYLE_BORDER_SIDE);
 262:..\..\..\arduinoLCD\test\Pain Drain\libraries\lvgl\src\widgets\../core/lv_obj_style_gen.h ****     return (lv_border_side_t)v.num;
 263:..\..\..\arduinoLCD\test\Pain Drain\libraries\lvgl\src\widgets\../core/lv_obj_style_gen.h **** }
 264:..\..\..\arduinoLCD\test\Pain Drain\libraries\lvgl\src\widgets\../core/lv_obj_style_gen.h **** 
 265:..\..\..\arduinoLCD\test\Pain Drain\libraries\lvgl\src\widgets\../core/lv_obj_style_gen.h **** static inline bool lv_obj_get_style_border_post(const struct _lv_obj_t * obj, uint32_t part)
 266:..\..\..\arduinoLCD\test\Pain Drain\libraries\lvgl\src\widgets\../core/lv_obj_style_gen.h **** {
 267:..\..\..\arduinoLCD\test\Pain Drain\libraries\lvgl\src\widgets\../core/lv_obj_style_gen.h ****     lv_style_value_t v = lv_obj_get_style_prop(obj, part, LV_STYLE_BORDER_POST);
 268:..\..\..\arduinoLCD\test\Pain Drain\libraries\lvgl\src\widgets\../core/lv_obj_style_gen.h ****     return (bool)v.num;
 269:..\..\..\arduinoLCD\test\Pain Drain\libraries\lvgl\src\widgets\../core/lv_obj_style_gen.h **** }
 270:..\..\..\arduinoLCD\test\Pain Drain\libraries\lvgl\src\widgets\../core/lv_obj_style_gen.h **** 
 271:..\..\..\arduinoLCD\test\Pain Drain\libraries\lvgl\src\widgets\../core/lv_obj_style_gen.h **** static inline lv_coord_t lv_obj_get_style_outline_width(const struct _lv_obj_t * obj, uint32_t part
 272:..\..\..\arduinoLCD\test\Pain Drain\libraries\lvgl\src\widgets\../core/lv_obj_style_gen.h **** {
 273:..\..\..\arduinoLCD\test\Pain Drain\libraries\lvgl\src\widgets\../core/lv_obj_style_gen.h ****     lv_style_value_t v = lv_obj_get_style_prop(obj, part, LV_STYLE_OUTLINE_WIDTH);
 274:..\..\..\arduinoLCD\test\Pain Drain\libraries\lvgl\src\widgets\../core/lv_obj_style_gen.h ****     return (lv_coord_t)v.num;
 275:..\..\..\arduinoLCD\test\Pain Drain\libraries\lvgl\src\widgets\../core/lv_obj_style_gen.h **** }
 276:..\..\..\arduinoLCD\test\Pain Drain\libraries\lvgl\src\widgets\../core/lv_obj_style_gen.h **** 
 277:..\..\..\arduinoLCD\test\Pain Drain\libraries\lvgl\src\widgets\../core/lv_obj_style_gen.h **** static inline lv_color_t lv_obj_get_style_outline_color(const struct _lv_obj_t * obj, uint32_t part
 278:..\..\..\arduinoLCD\test\Pain Drain\libraries\lvgl\src\widgets\../core/lv_obj_style_gen.h **** {
 279:..\..\..\arduinoLCD\test\Pain Drain\libraries\lvgl\src\widgets\../core/lv_obj_style_gen.h ****     lv_style_value_t v = lv_obj_get_style_prop(obj, part, LV_STYLE_OUTLINE_COLOR);
 280:..\..\..\arduinoLCD\test\Pain Drain\libraries\lvgl\src\widgets\../core/lv_obj_style_gen.h ****     return v.color;
 281:..\..\..\arduinoLCD\test\Pain Drain\libraries\lvgl\src\widgets\../core/lv_obj_style_gen.h **** }
 282:..\..\..\arduinoLCD\test\Pain Drain\libraries\lvgl\src\widgets\../core/lv_obj_style_gen.h **** 
 283:..\..\..\arduinoLCD\test\Pain Drain\libraries\lvgl\src\widgets\../core/lv_obj_style_gen.h **** static inline lv_color_t lv_obj_get_style_outline_color_filtered(const struct _lv_obj_t * obj, uint
 284:..\..\..\arduinoLCD\test\Pain Drain\libraries\lvgl\src\widgets\../core/lv_obj_style_gen.h **** {
 285:..\..\..\arduinoLCD\test\Pain Drain\libraries\lvgl\src\widgets\../core/lv_obj_style_gen.h ****     lv_style_value_t v = _lv_obj_style_apply_color_filter(obj, part, lv_obj_get_style_prop(obj, par
 286:..\..\..\arduinoLCD\test\Pain Drain\libraries\lvgl\src\widgets\../core/lv_obj_style_gen.h ****     return v.color;
 287:..\..\..\arduinoLCD\test\Pain Drain\libraries\lvgl\src\widgets\../core/lv_obj_style_gen.h **** }
 288:..\..\..\arduinoLCD\test\Pain Drain\libraries\lvgl\src\widgets\../core/lv_obj_style_gen.h **** 
 289:..\..\..\arduinoLCD\test\Pain Drain\libraries\lvgl\src\widgets\../core/lv_obj_style_gen.h **** static inline lv_opa_t lv_obj_get_style_outline_opa(const struct _lv_obj_t * obj, uint32_t part)
 290:..\..\..\arduinoLCD\test\Pain Drain\libraries\lvgl\src\widgets\../core/lv_obj_style_gen.h **** {
 291:..\..\..\arduinoLCD\test\Pain Drain\libraries\lvgl\src\widgets\../core/lv_obj_style_gen.h ****     lv_style_value_t v = lv_obj_get_style_prop(obj, part, LV_STYLE_OUTLINE_OPA);
 292:..\..\..\arduinoLCD\test\Pain Drain\libraries\lvgl\src\widgets\../core/lv_obj_style_gen.h ****     return (lv_opa_t)v.num;
 293:..\..\..\arduinoLCD\test\Pain Drain\libraries\lvgl\src\widgets\../core/lv_obj_style_gen.h **** }
 294:..\..\..\arduinoLCD\test\Pain Drain\libraries\lvgl\src\widgets\../core/lv_obj_style_gen.h **** 
 295:..\..\..\arduinoLCD\test\Pain Drain\libraries\lvgl\src\widgets\../core/lv_obj_style_gen.h **** static inline lv_coord_t lv_obj_get_style_outline_pad(const struct _lv_obj_t * obj, uint32_t part)
 296:..\..\..\arduinoLCD\test\Pain Drain\libraries\lvgl\src\widgets\../core/lv_obj_style_gen.h **** {
 297:..\..\..\arduinoLCD\test\Pain Drain\libraries\lvgl\src\widgets\../core/lv_obj_style_gen.h ****     lv_style_value_t v = lv_obj_get_style_prop(obj, part, LV_STYLE_OUTLINE_PAD);
 298:..\..\..\arduinoLCD\test\Pain Drain\libraries\lvgl\src\widgets\../core/lv_obj_style_gen.h ****     return (lv_coord_t)v.num;
 299:..\..\..\arduinoLCD\test\Pain Drain\libraries\lvgl\src\widgets\../core/lv_obj_style_gen.h **** }
 300:..\..\..\arduinoLCD\test\Pain Drain\libraries\lvgl\src\widgets\../core/lv_obj_style_gen.h **** 
 301:..\..\..\arduinoLCD\test\Pain Drain\libraries\lvgl\src\widgets\../core/lv_obj_style_gen.h **** static inline lv_coord_t lv_obj_get_style_shadow_width(const struct _lv_obj_t * obj, uint32_t part)
 302:..\..\..\arduinoLCD\test\Pain Drain\libraries\lvgl\src\widgets\../core/lv_obj_style_gen.h **** {
 303:..\..\..\arduinoLCD\test\Pain Drain\libraries\lvgl\src\widgets\../core/lv_obj_style_gen.h ****     lv_style_value_t v = lv_obj_get_style_prop(obj, part, LV_STYLE_SHADOW_WIDTH);
 352              		.loc 2 303 0
 353 0004 C027     		movs	r7, #192
 354 0006 BF02     		lsls	r7, r7, #10
 355 0008 4022     		movs	r2, #64
 356 000a 3900     		movs	r1, r7
 357 000c FFF7FEFF 		bl	lv_obj_get_style_prop
 358              	.LVL49:
 359              	.LBE92:
 360              	.LBE91:
 858:..\..\..\arduinoLCD\test\Pain Drain\libraries\lvgl\src\widgets/lv_arc.c ****     lv_coord_t knob_shadow_size = 0;
 859:..\..\..\arduinoLCD\test\Pain Drain\libraries\lvgl\src\widgets/lv_arc.c ****     knob_shadow_size += lv_obj_get_style_shadow_width(obj, LV_PART_KNOB);
ARM GAS  C:\Users\haske\AppData\Local\Temp\ccmHbbn5.s 			page 28


 361              		.loc 1 859 0
 362 0010 86B2     		uxth	r6, r0
 363              	.LVL50:
 364              	.LBB93:
 365              	.LBB94:
 304:..\..\..\arduinoLCD\test\Pain Drain\libraries\lvgl\src\widgets\../core/lv_obj_style_gen.h ****     return (lv_coord_t)v.num;
 305:..\..\..\arduinoLCD\test\Pain Drain\libraries\lvgl\src\widgets\../core/lv_obj_style_gen.h **** }
 306:..\..\..\arduinoLCD\test\Pain Drain\libraries\lvgl\src\widgets\../core/lv_obj_style_gen.h **** 
 307:..\..\..\arduinoLCD\test\Pain Drain\libraries\lvgl\src\widgets\../core/lv_obj_style_gen.h **** static inline lv_coord_t lv_obj_get_style_shadow_ofs_x(const struct _lv_obj_t * obj, uint32_t part)
 308:..\..\..\arduinoLCD\test\Pain Drain\libraries\lvgl\src\widgets\../core/lv_obj_style_gen.h **** {
 309:..\..\..\arduinoLCD\test\Pain Drain\libraries\lvgl\src\widgets\../core/lv_obj_style_gen.h ****     lv_style_value_t v = lv_obj_get_style_prop(obj, part, LV_STYLE_SHADOW_OFS_X);
 310:..\..\..\arduinoLCD\test\Pain Drain\libraries\lvgl\src\widgets\../core/lv_obj_style_gen.h ****     return (lv_coord_t)v.num;
 311:..\..\..\arduinoLCD\test\Pain Drain\libraries\lvgl\src\widgets\../core/lv_obj_style_gen.h **** }
 312:..\..\..\arduinoLCD\test\Pain Drain\libraries\lvgl\src\widgets\../core/lv_obj_style_gen.h **** 
 313:..\..\..\arduinoLCD\test\Pain Drain\libraries\lvgl\src\widgets\../core/lv_obj_style_gen.h **** static inline lv_coord_t lv_obj_get_style_shadow_ofs_y(const struct _lv_obj_t * obj, uint32_t part)
 314:..\..\..\arduinoLCD\test\Pain Drain\libraries\lvgl\src\widgets\../core/lv_obj_style_gen.h **** {
 315:..\..\..\arduinoLCD\test\Pain Drain\libraries\lvgl\src\widgets\../core/lv_obj_style_gen.h ****     lv_style_value_t v = lv_obj_get_style_prop(obj, part, LV_STYLE_SHADOW_OFS_Y);
 316:..\..\..\arduinoLCD\test\Pain Drain\libraries\lvgl\src\widgets\../core/lv_obj_style_gen.h ****     return (lv_coord_t)v.num;
 317:..\..\..\arduinoLCD\test\Pain Drain\libraries\lvgl\src\widgets\../core/lv_obj_style_gen.h **** }
 318:..\..\..\arduinoLCD\test\Pain Drain\libraries\lvgl\src\widgets\../core/lv_obj_style_gen.h **** 
 319:..\..\..\arduinoLCD\test\Pain Drain\libraries\lvgl\src\widgets\../core/lv_obj_style_gen.h **** static inline lv_coord_t lv_obj_get_style_shadow_spread(const struct _lv_obj_t * obj, uint32_t part
 320:..\..\..\arduinoLCD\test\Pain Drain\libraries\lvgl\src\widgets\../core/lv_obj_style_gen.h **** {
 321:..\..\..\arduinoLCD\test\Pain Drain\libraries\lvgl\src\widgets\../core/lv_obj_style_gen.h ****     lv_style_value_t v = lv_obj_get_style_prop(obj, part, LV_STYLE_SHADOW_SPREAD);
 366              		.loc 2 321 0
 367 0012 4322     		movs	r2, #67
 368 0014 3900     		movs	r1, r7
 369 0016 2800     		movs	r0, r5
 370              	.LVL51:
 371 0018 FFF7FEFF 		bl	lv_obj_get_style_prop
 372              	.LVL52:
 373              	.LBE94:
 374              	.LBE93:
 860:..\..\..\arduinoLCD\test\Pain Drain\libraries\lvgl\src\widgets/lv_arc.c ****     knob_shadow_size += lv_obj_get_style_shadow_spread(obj, LV_PART_KNOB);
 375              		.loc 1 860 0
 376 001c 3018     		adds	r0, r6, r0
 377              	.LVL53:
 378 001e 86B2     		uxth	r6, r0
 379              	.LVL54:
 380              	.LBB95:
 381              	.LBB96:
 309:..\..\..\arduinoLCD\test\Pain Drain\libraries\lvgl\src\widgets\../core/lv_obj_style_gen.h ****     return (lv_coord_t)v.num;
 382              		.loc 2 309 0
 383 0020 4122     		movs	r2, #65
 384 0022 3900     		movs	r1, r7
 385 0024 2800     		movs	r0, r5
 386 0026 FFF7FEFF 		bl	lv_obj_get_style_prop
 387              	.LVL55:
 310:..\..\..\arduinoLCD\test\Pain Drain\libraries\lvgl\src\widgets\../core/lv_obj_style_gen.h **** }
 388              		.loc 2 310 0
 389 002a 00B2     		sxth	r0, r0
 390              	.LVL56:
 391              	.LBE96:
 392              	.LBE95:
 861:..\..\..\arduinoLCD\test\Pain Drain\libraries\lvgl\src\widgets/lv_arc.c ****     knob_shadow_size += LV_ABS(lv_obj_get_style_shadow_ofs_x(obj, LV_PART_KNOB));
 393              		.loc 1 861 0
 394 002c 0028     		cmp	r0, #0
 395 002e 06DD     		ble	.L14
ARM GAS  C:\Users\haske\AppData\Local\Temp\ccmHbbn5.s 			page 29


 396              	.LVL57:
 397              	.LBB97:
 398              	.LBB98:
 309:..\..\..\arduinoLCD\test\Pain Drain\libraries\lvgl\src\widgets\../core/lv_obj_style_gen.h ****     return (lv_coord_t)v.num;
 399              		.loc 2 309 0
 400 0030 4122     		movs	r2, #65
 401 0032 3900     		movs	r1, r7
 402 0034 2800     		movs	r0, r5
 403 0036 FFF7FEFF 		bl	lv_obj_get_style_prop
 404              	.LVL58:
 405              	.LBE98:
 406              	.LBE97:
 407              		.loc 1 861 0
 408 003a 00B2     		sxth	r0, r0
 409 003c 07E0     		b	.L15
 410              	.L14:
 411              	.LVL59:
 412              	.LBB99:
 413              	.LBB100:
 309:..\..\..\arduinoLCD\test\Pain Drain\libraries\lvgl\src\widgets\../core/lv_obj_style_gen.h ****     return (lv_coord_t)v.num;
 414              		.loc 2 309 0
 415 003e 4122     		movs	r2, #65
 416 0040 C021     		movs	r1, #192
 417 0042 8902     		lsls	r1, r1, #10
 418 0044 2800     		movs	r0, r5
 419 0046 FFF7FEFF 		bl	lv_obj_get_style_prop
 420              	.LVL60:
 310:..\..\..\arduinoLCD\test\Pain Drain\libraries\lvgl\src\widgets\../core/lv_obj_style_gen.h **** }
 421              		.loc 2 310 0
 422 004a 00B2     		sxth	r0, r0
 423              	.LVL61:
 424              	.LBE100:
 425              	.LBE99:
 426              		.loc 1 861 0
 427 004c 4042     		rsbs	r0, r0, #0
 428              	.L15:
 429              		.loc 1 861 0 is_stmt 0 discriminator 4
 430 004e 3618     		adds	r6, r6, r0
 431              	.LVL62:
 432 0050 B6B2     		uxth	r6, r6
 433              	.LVL63:
 434              	.LBB101:
 435              	.LBB102:
 315:..\..\..\arduinoLCD\test\Pain Drain\libraries\lvgl\src\widgets\../core/lv_obj_style_gen.h ****     return (lv_coord_t)v.num;
 436              		.loc 2 315 0 is_stmt 1 discriminator 4
 437 0052 4222     		movs	r2, #66
 438 0054 C021     		movs	r1, #192
 439 0056 8902     		lsls	r1, r1, #10
 440 0058 2800     		movs	r0, r5
 441 005a FFF7FEFF 		bl	lv_obj_get_style_prop
 442              	.LVL64:
 316:..\..\..\arduinoLCD\test\Pain Drain\libraries\lvgl\src\widgets\../core/lv_obj_style_gen.h **** }
 443              		.loc 2 316 0 discriminator 4
 444 005e 00B2     		sxth	r0, r0
 445              	.LVL65:
 446              	.LBE102:
 447              	.LBE101:
ARM GAS  C:\Users\haske\AppData\Local\Temp\ccmHbbn5.s 			page 30


 862:..\..\..\arduinoLCD\test\Pain Drain\libraries\lvgl\src\widgets/lv_arc.c ****     knob_shadow_size += LV_ABS(lv_obj_get_style_shadow_ofs_y(obj, LV_PART_KNOB));
 448              		.loc 1 862 0 discriminator 4
 449 0060 0028     		cmp	r0, #0
 450 0062 07DD     		ble	.L16
 451              	.LVL66:
 452              	.LBB103:
 453              	.LBB104:
 315:..\..\..\arduinoLCD\test\Pain Drain\libraries\lvgl\src\widgets\../core/lv_obj_style_gen.h ****     return (lv_coord_t)v.num;
 454              		.loc 2 315 0
 455 0064 4222     		movs	r2, #66
 456 0066 C021     		movs	r1, #192
 457 0068 8902     		lsls	r1, r1, #10
 458 006a 2800     		movs	r0, r5
 459 006c FFF7FEFF 		bl	lv_obj_get_style_prop
 460              	.LVL67:
 461              	.LBE104:
 462              	.LBE103:
 463              		.loc 1 862 0
 464 0070 04B2     		sxth	r4, r0
 465 0072 07E0     		b	.L17
 466              	.L16:
 467              	.LVL68:
 468              	.LBB105:
 469              	.LBB106:
 315:..\..\..\arduinoLCD\test\Pain Drain\libraries\lvgl\src\widgets\../core/lv_obj_style_gen.h ****     return (lv_coord_t)v.num;
 470              		.loc 2 315 0
 471 0074 4222     		movs	r2, #66
 472 0076 C021     		movs	r1, #192
 473 0078 8902     		lsls	r1, r1, #10
 474 007a 2800     		movs	r0, r5
 475 007c FFF7FEFF 		bl	lv_obj_get_style_prop
 476              	.LVL69:
 316:..\..\..\arduinoLCD\test\Pain Drain\libraries\lvgl\src\widgets\../core/lv_obj_style_gen.h **** }
 477              		.loc 2 316 0
 478 0080 00B2     		sxth	r0, r0
 479              	.LVL70:
 480              	.LBE106:
 481              	.LBE105:
 482              		.loc 1 862 0
 483 0082 4442     		rsbs	r4, r0, #0
 484              	.L17:
 485              		.loc 1 862 0 is_stmt 0 discriminator 4
 486 0084 3619     		adds	r6, r6, r4
 487              	.LVL71:
 488 0086 34B2     		sxth	r4, r6
 489              	.LVL72:
 490              	.LBB107:
 491              	.LBB108:
 273:..\..\..\arduinoLCD\test\Pain Drain\libraries\lvgl\src\widgets\../core/lv_obj_style_gen.h ****     return (lv_coord_t)v.num;
 492              		.loc 2 273 0 is_stmt 1 discriminator 4
 493 0088 C027     		movs	r7, #192
 494 008a BF02     		lsls	r7, r7, #10
 495 008c 3522     		movs	r2, #53
 496 008e 3900     		movs	r1, r7
 497 0090 2800     		movs	r0, r5
 498 0092 FFF7FEFF 		bl	lv_obj_get_style_prop
 499              	.LVL73:
ARM GAS  C:\Users\haske\AppData\Local\Temp\ccmHbbn5.s 			page 31


 500              	.LBE108:
 501              	.LBE107:
 863:..\..\..\arduinoLCD\test\Pain Drain\libraries\lvgl\src\widgets/lv_arc.c **** 
 864:..\..\..\arduinoLCD\test\Pain Drain\libraries\lvgl\src\widgets/lv_arc.c ****     lv_coord_t knob_outline_size = 0;
 865:..\..\..\arduinoLCD\test\Pain Drain\libraries\lvgl\src\widgets/lv_arc.c ****     knob_outline_size += lv_obj_get_style_outline_width(obj, LV_PART_KNOB);
 502              		.loc 1 865 0 discriminator 4
 503 0096 86B2     		uxth	r6, r0
 504              	.LVL74:
 505              	.LBB109:
 506              	.LBB110:
 297:..\..\..\arduinoLCD\test\Pain Drain\libraries\lvgl\src\widgets\../core/lv_obj_style_gen.h ****     return (lv_coord_t)v.num;
 507              		.loc 2 297 0 discriminator 4
 508 0098 3822     		movs	r2, #56
 509 009a 3900     		movs	r1, r7
 510 009c 2800     		movs	r0, r5
 511              	.LVL75:
 512 009e FFF7FEFF 		bl	lv_obj_get_style_prop
 513              	.LVL76:
 514              	.LBE110:
 515              	.LBE109:
 866:..\..\..\arduinoLCD\test\Pain Drain\libraries\lvgl\src\widgets/lv_arc.c ****     knob_outline_size += lv_obj_get_style_outline_pad(obj, LV_PART_KNOB);
 516              		.loc 1 866 0 discriminator 4
 517 00a2 3018     		adds	r0, r6, r0
 518              	.LVL77:
 519 00a4 00B2     		sxth	r0, r0
 520              	.LVL78:
 867:..\..\..\arduinoLCD\test\Pain Drain\libraries\lvgl\src\widgets/lv_arc.c **** 
 868:..\..\..\arduinoLCD\test\Pain Drain\libraries\lvgl\src\widgets/lv_arc.c ****     return LV_MAX(knob_shadow_size, knob_outline_size);
 521              		.loc 1 868 0 discriminator 4
 522 00a6 231C     		adds	r3, r4, #0
 523 00a8 8442     		cmp	r4, r0
 524 00aa 00DA     		bge	.L18
 525 00ac 031C     		adds	r3, r0, #0
 526              	.L18:
 527 00ae 18B2     		sxth	r0, r3
 528              	.LVL79:
 869:..\..\..\arduinoLCD\test\Pain Drain\libraries\lvgl\src\widgets/lv_arc.c **** }
 529              		.loc 1 869 0 discriminator 4
 530              		@ sp needed
 531              	.LVL80:
 532              	.LVL81:
 533 00b0 F8BD     		pop	{r3, r4, r5, r6, r7, pc}
 534              		.cfi_endproc
 535              	.LFE190:
 536              		.size	knob_get_extra_size, .-knob_get_extra_size
 537 00b2 C046     		.section	.text.get_knob_area,"ax",%progbits
 538              		.align	2
 539              		.code	16
 540              		.thumb_func
 541              		.type	get_knob_area, %function
 542              	get_knob_area:
 543              	.LFB188:
 788:..\..\..\arduinoLCD\test\Pain Drain\libraries\lvgl\src\widgets/lv_arc.c ****     lv_coord_t indic_width = lv_obj_get_style_arc_width(obj, LV_PART_INDICATOR);
 544              		.loc 1 788 0
 545              		.cfi_startproc
 546              		@ args = 0, pretend = 0, frame = 8
 547              		@ frame_needed = 0, uses_anonymous_args = 0
ARM GAS  C:\Users\haske\AppData\Local\Temp\ccmHbbn5.s 			page 32


 548              	.LVL82:
 549 0000 F0B5     		push	{r4, r5, r6, r7, lr}
 550              		.cfi_def_cfa_offset 20
 551              		.cfi_offset 4, -20
 552              		.cfi_offset 5, -16
 553              		.cfi_offset 6, -12
 554              		.cfi_offset 7, -8
 555              		.cfi_offset 14, -4
 556 0002 5F46     		mov	r7, fp
 557 0004 5646     		mov	r6, r10
 558 0006 4D46     		mov	r5, r9
 559 0008 4446     		mov	r4, r8
 560 000a F0B4     		push	{r4, r5, r6, r7}
 561              		.cfi_def_cfa_offset 36
 562              		.cfi_offset 8, -36
 563              		.cfi_offset 9, -32
 564              		.cfi_offset 10, -28
 565              		.cfi_offset 11, -24
 566 000c 83B0     		sub	sp, sp, #12
 567              		.cfi_def_cfa_offset 48
 568 000e 0F00     		movs	r7, r1
 569 0010 1600     		movs	r6, r2
 570 0012 1D00     		movs	r5, r3
 571              	.LVL83:
 572              	.LBB111:
 573              	.LBB112:
 322:..\..\..\arduinoLCD\test\Pain Drain\libraries\lvgl\src\widgets\../core/lv_obj_style_gen.h ****     return (lv_coord_t)v.num;
 323:..\..\..\arduinoLCD\test\Pain Drain\libraries\lvgl\src\widgets\../core/lv_obj_style_gen.h **** }
 324:..\..\..\arduinoLCD\test\Pain Drain\libraries\lvgl\src\widgets\../core/lv_obj_style_gen.h **** 
 325:..\..\..\arduinoLCD\test\Pain Drain\libraries\lvgl\src\widgets\../core/lv_obj_style_gen.h **** static inline lv_color_t lv_obj_get_style_shadow_color(const struct _lv_obj_t * obj, uint32_t part)
 326:..\..\..\arduinoLCD\test\Pain Drain\libraries\lvgl\src\widgets\../core/lv_obj_style_gen.h **** {
 327:..\..\..\arduinoLCD\test\Pain Drain\libraries\lvgl\src\widgets\../core/lv_obj_style_gen.h ****     lv_style_value_t v = lv_obj_get_style_prop(obj, part, LV_STYLE_SHADOW_COLOR);
 328:..\..\..\arduinoLCD\test\Pain Drain\libraries\lvgl\src\widgets\../core/lv_obj_style_gen.h ****     return v.color;
 329:..\..\..\arduinoLCD\test\Pain Drain\libraries\lvgl\src\widgets\../core/lv_obj_style_gen.h **** }
 330:..\..\..\arduinoLCD\test\Pain Drain\libraries\lvgl\src\widgets\../core/lv_obj_style_gen.h **** 
 331:..\..\..\arduinoLCD\test\Pain Drain\libraries\lvgl\src\widgets\../core/lv_obj_style_gen.h **** static inline lv_color_t lv_obj_get_style_shadow_color_filtered(const struct _lv_obj_t * obj, uint3
 332:..\..\..\arduinoLCD\test\Pain Drain\libraries\lvgl\src\widgets\../core/lv_obj_style_gen.h **** {
 333:..\..\..\arduinoLCD\test\Pain Drain\libraries\lvgl\src\widgets\../core/lv_obj_style_gen.h ****     lv_style_value_t v = _lv_obj_style_apply_color_filter(obj, part, lv_obj_get_style_prop(obj, par
 334:..\..\..\arduinoLCD\test\Pain Drain\libraries\lvgl\src\widgets\../core/lv_obj_style_gen.h ****     return v.color;
 335:..\..\..\arduinoLCD\test\Pain Drain\libraries\lvgl\src\widgets\../core/lv_obj_style_gen.h **** }
 336:..\..\..\arduinoLCD\test\Pain Drain\libraries\lvgl\src\widgets\../core/lv_obj_style_gen.h **** 
 337:..\..\..\arduinoLCD\test\Pain Drain\libraries\lvgl\src\widgets\../core/lv_obj_style_gen.h **** static inline lv_opa_t lv_obj_get_style_shadow_opa(const struct _lv_obj_t * obj, uint32_t part)
 338:..\..\..\arduinoLCD\test\Pain Drain\libraries\lvgl\src\widgets\../core/lv_obj_style_gen.h **** {
 339:..\..\..\arduinoLCD\test\Pain Drain\libraries\lvgl\src\widgets\../core/lv_obj_style_gen.h ****     lv_style_value_t v = lv_obj_get_style_prop(obj, part, LV_STYLE_SHADOW_OPA);
 340:..\..\..\arduinoLCD\test\Pain Drain\libraries\lvgl\src\widgets\../core/lv_obj_style_gen.h ****     return (lv_opa_t)v.num;
 341:..\..\..\arduinoLCD\test\Pain Drain\libraries\lvgl\src\widgets\../core/lv_obj_style_gen.h **** }
 342:..\..\..\arduinoLCD\test\Pain Drain\libraries\lvgl\src\widgets\../core/lv_obj_style_gen.h **** 
 343:..\..\..\arduinoLCD\test\Pain Drain\libraries\lvgl\src\widgets\../core/lv_obj_style_gen.h **** static inline lv_opa_t lv_obj_get_style_img_opa(const struct _lv_obj_t * obj, uint32_t part)
 344:..\..\..\arduinoLCD\test\Pain Drain\libraries\lvgl\src\widgets\../core/lv_obj_style_gen.h **** {
 345:..\..\..\arduinoLCD\test\Pain Drain\libraries\lvgl\src\widgets\../core/lv_obj_style_gen.h ****     lv_style_value_t v = lv_obj_get_style_prop(obj, part, LV_STYLE_IMG_OPA);
 346:..\..\..\arduinoLCD\test\Pain Drain\libraries\lvgl\src\widgets\../core/lv_obj_style_gen.h ****     return (lv_opa_t)v.num;
 347:..\..\..\arduinoLCD\test\Pain Drain\libraries\lvgl\src\widgets\../core/lv_obj_style_gen.h **** }
 348:..\..\..\arduinoLCD\test\Pain Drain\libraries\lvgl\src\widgets\../core/lv_obj_style_gen.h **** 
 349:..\..\..\arduinoLCD\test\Pain Drain\libraries\lvgl\src\widgets\../core/lv_obj_style_gen.h **** static inline lv_color_t lv_obj_get_style_img_recolor(const struct _lv_obj_t * obj, uint32_t part)
 350:..\..\..\arduinoLCD\test\Pain Drain\libraries\lvgl\src\widgets\../core/lv_obj_style_gen.h **** {
 351:..\..\..\arduinoLCD\test\Pain Drain\libraries\lvgl\src\widgets\../core/lv_obj_style_gen.h ****     lv_style_value_t v = lv_obj_get_style_prop(obj, part, LV_STYLE_IMG_RECOLOR);
 352:..\..\..\arduinoLCD\test\Pain Drain\libraries\lvgl\src\widgets\../core/lv_obj_style_gen.h ****     return v.color;
ARM GAS  C:\Users\haske\AppData\Local\Temp\ccmHbbn5.s 			page 33


 353:..\..\..\arduinoLCD\test\Pain Drain\libraries\lvgl\src\widgets\../core/lv_obj_style_gen.h **** }
 354:..\..\..\arduinoLCD\test\Pain Drain\libraries\lvgl\src\widgets\../core/lv_obj_style_gen.h **** 
 355:..\..\..\arduinoLCD\test\Pain Drain\libraries\lvgl\src\widgets\../core/lv_obj_style_gen.h **** static inline lv_color_t lv_obj_get_style_img_recolor_filtered(const struct _lv_obj_t * obj, uint32
 356:..\..\..\arduinoLCD\test\Pain Drain\libraries\lvgl\src\widgets\../core/lv_obj_style_gen.h **** {
 357:..\..\..\arduinoLCD\test\Pain Drain\libraries\lvgl\src\widgets\../core/lv_obj_style_gen.h ****     lv_style_value_t v = _lv_obj_style_apply_color_filter(obj, part, lv_obj_get_style_prop(obj, par
 358:..\..\..\arduinoLCD\test\Pain Drain\libraries\lvgl\src\widgets\../core/lv_obj_style_gen.h ****     return v.color;
 359:..\..\..\arduinoLCD\test\Pain Drain\libraries\lvgl\src\widgets\../core/lv_obj_style_gen.h **** }
 360:..\..\..\arduinoLCD\test\Pain Drain\libraries\lvgl\src\widgets\../core/lv_obj_style_gen.h **** 
 361:..\..\..\arduinoLCD\test\Pain Drain\libraries\lvgl\src\widgets\../core/lv_obj_style_gen.h **** static inline lv_opa_t lv_obj_get_style_img_recolor_opa(const struct _lv_obj_t * obj, uint32_t part
 362:..\..\..\arduinoLCD\test\Pain Drain\libraries\lvgl\src\widgets\../core/lv_obj_style_gen.h **** {
 363:..\..\..\arduinoLCD\test\Pain Drain\libraries\lvgl\src\widgets\../core/lv_obj_style_gen.h ****     lv_style_value_t v = lv_obj_get_style_prop(obj, part, LV_STYLE_IMG_RECOLOR_OPA);
 364:..\..\..\arduinoLCD\test\Pain Drain\libraries\lvgl\src\widgets\../core/lv_obj_style_gen.h ****     return (lv_opa_t)v.num;
 365:..\..\..\arduinoLCD\test\Pain Drain\libraries\lvgl\src\widgets\../core/lv_obj_style_gen.h **** }
 366:..\..\..\arduinoLCD\test\Pain Drain\libraries\lvgl\src\widgets\../core/lv_obj_style_gen.h **** 
 367:..\..\..\arduinoLCD\test\Pain Drain\libraries\lvgl\src\widgets\../core/lv_obj_style_gen.h **** static inline lv_coord_t lv_obj_get_style_line_width(const struct _lv_obj_t * obj, uint32_t part)
 368:..\..\..\arduinoLCD\test\Pain Drain\libraries\lvgl\src\widgets\../core/lv_obj_style_gen.h **** {
 369:..\..\..\arduinoLCD\test\Pain Drain\libraries\lvgl\src\widgets\../core/lv_obj_style_gen.h ****     lv_style_value_t v = lv_obj_get_style_prop(obj, part, LV_STYLE_LINE_WIDTH);
 370:..\..\..\arduinoLCD\test\Pain Drain\libraries\lvgl\src\widgets\../core/lv_obj_style_gen.h ****     return (lv_coord_t)v.num;
 371:..\..\..\arduinoLCD\test\Pain Drain\libraries\lvgl\src\widgets\../core/lv_obj_style_gen.h **** }
 372:..\..\..\arduinoLCD\test\Pain Drain\libraries\lvgl\src\widgets\../core/lv_obj_style_gen.h **** 
 373:..\..\..\arduinoLCD\test\Pain Drain\libraries\lvgl\src\widgets\../core/lv_obj_style_gen.h **** static inline lv_coord_t lv_obj_get_style_line_dash_width(const struct _lv_obj_t * obj, uint32_t pa
 374:..\..\..\arduinoLCD\test\Pain Drain\libraries\lvgl\src\widgets\../core/lv_obj_style_gen.h **** {
 375:..\..\..\arduinoLCD\test\Pain Drain\libraries\lvgl\src\widgets\../core/lv_obj_style_gen.h ****     lv_style_value_t v = lv_obj_get_style_prop(obj, part, LV_STYLE_LINE_DASH_WIDTH);
 376:..\..\..\arduinoLCD\test\Pain Drain\libraries\lvgl\src\widgets\../core/lv_obj_style_gen.h ****     return (lv_coord_t)v.num;
 377:..\..\..\arduinoLCD\test\Pain Drain\libraries\lvgl\src\widgets\../core/lv_obj_style_gen.h **** }
 378:..\..\..\arduinoLCD\test\Pain Drain\libraries\lvgl\src\widgets\../core/lv_obj_style_gen.h **** 
 379:..\..\..\arduinoLCD\test\Pain Drain\libraries\lvgl\src\widgets\../core/lv_obj_style_gen.h **** static inline lv_coord_t lv_obj_get_style_line_dash_gap(const struct _lv_obj_t * obj, uint32_t part
 380:..\..\..\arduinoLCD\test\Pain Drain\libraries\lvgl\src\widgets\../core/lv_obj_style_gen.h **** {
 381:..\..\..\arduinoLCD\test\Pain Drain\libraries\lvgl\src\widgets\../core/lv_obj_style_gen.h ****     lv_style_value_t v = lv_obj_get_style_prop(obj, part, LV_STYLE_LINE_DASH_GAP);
 382:..\..\..\arduinoLCD\test\Pain Drain\libraries\lvgl\src\widgets\../core/lv_obj_style_gen.h ****     return (lv_coord_t)v.num;
 383:..\..\..\arduinoLCD\test\Pain Drain\libraries\lvgl\src\widgets\../core/lv_obj_style_gen.h **** }
 384:..\..\..\arduinoLCD\test\Pain Drain\libraries\lvgl\src\widgets\../core/lv_obj_style_gen.h **** 
 385:..\..\..\arduinoLCD\test\Pain Drain\libraries\lvgl\src\widgets\../core/lv_obj_style_gen.h **** static inline bool lv_obj_get_style_line_rounded(const struct _lv_obj_t * obj, uint32_t part)
 386:..\..\..\arduinoLCD\test\Pain Drain\libraries\lvgl\src\widgets\../core/lv_obj_style_gen.h **** {
 387:..\..\..\arduinoLCD\test\Pain Drain\libraries\lvgl\src\widgets\../core/lv_obj_style_gen.h ****     lv_style_value_t v = lv_obj_get_style_prop(obj, part, LV_STYLE_LINE_ROUNDED);
 388:..\..\..\arduinoLCD\test\Pain Drain\libraries\lvgl\src\widgets\../core/lv_obj_style_gen.h ****     return (bool)v.num;
 389:..\..\..\arduinoLCD\test\Pain Drain\libraries\lvgl\src\widgets\../core/lv_obj_style_gen.h **** }
 390:..\..\..\arduinoLCD\test\Pain Drain\libraries\lvgl\src\widgets\../core/lv_obj_style_gen.h **** 
 391:..\..\..\arduinoLCD\test\Pain Drain\libraries\lvgl\src\widgets\../core/lv_obj_style_gen.h **** static inline lv_color_t lv_obj_get_style_line_color(const struct _lv_obj_t * obj, uint32_t part)
 392:..\..\..\arduinoLCD\test\Pain Drain\libraries\lvgl\src\widgets\../core/lv_obj_style_gen.h **** {
 393:..\..\..\arduinoLCD\test\Pain Drain\libraries\lvgl\src\widgets\../core/lv_obj_style_gen.h ****     lv_style_value_t v = lv_obj_get_style_prop(obj, part, LV_STYLE_LINE_COLOR);
 394:..\..\..\arduinoLCD\test\Pain Drain\libraries\lvgl\src\widgets\../core/lv_obj_style_gen.h ****     return v.color;
 395:..\..\..\arduinoLCD\test\Pain Drain\libraries\lvgl\src\widgets\../core/lv_obj_style_gen.h **** }
 396:..\..\..\arduinoLCD\test\Pain Drain\libraries\lvgl\src\widgets\../core/lv_obj_style_gen.h **** 
 397:..\..\..\arduinoLCD\test\Pain Drain\libraries\lvgl\src\widgets\../core/lv_obj_style_gen.h **** static inline lv_color_t lv_obj_get_style_line_color_filtered(const struct _lv_obj_t * obj, uint32_
 398:..\..\..\arduinoLCD\test\Pain Drain\libraries\lvgl\src\widgets\../core/lv_obj_style_gen.h **** {
 399:..\..\..\arduinoLCD\test\Pain Drain\libraries\lvgl\src\widgets\../core/lv_obj_style_gen.h ****     lv_style_value_t v = _lv_obj_style_apply_color_filter(obj, part, lv_obj_get_style_prop(obj, par
 400:..\..\..\arduinoLCD\test\Pain Drain\libraries\lvgl\src\widgets\../core/lv_obj_style_gen.h ****     return v.color;
 401:..\..\..\arduinoLCD\test\Pain Drain\libraries\lvgl\src\widgets\../core/lv_obj_style_gen.h **** }
 402:..\..\..\arduinoLCD\test\Pain Drain\libraries\lvgl\src\widgets\../core/lv_obj_style_gen.h **** 
 403:..\..\..\arduinoLCD\test\Pain Drain\libraries\lvgl\src\widgets\../core/lv_obj_style_gen.h **** static inline lv_opa_t lv_obj_get_style_line_opa(const struct _lv_obj_t * obj, uint32_t part)
 404:..\..\..\arduinoLCD\test\Pain Drain\libraries\lvgl\src\widgets\../core/lv_obj_style_gen.h **** {
 405:..\..\..\arduinoLCD\test\Pain Drain\libraries\lvgl\src\widgets\../core/lv_obj_style_gen.h ****     lv_style_value_t v = lv_obj_get_style_prop(obj, part, LV_STYLE_LINE_OPA);
 406:..\..\..\arduinoLCD\test\Pain Drain\libraries\lvgl\src\widgets\../core/lv_obj_style_gen.h ****     return (lv_opa_t)v.num;
 407:..\..\..\arduinoLCD\test\Pain Drain\libraries\lvgl\src\widgets\../core/lv_obj_style_gen.h **** }
 408:..\..\..\arduinoLCD\test\Pain Drain\libraries\lvgl\src\widgets\../core/lv_obj_style_gen.h **** 
 409:..\..\..\arduinoLCD\test\Pain Drain\libraries\lvgl\src\widgets\../core/lv_obj_style_gen.h **** static inline lv_coord_t lv_obj_get_style_arc_width(const struct _lv_obj_t * obj, uint32_t part)
ARM GAS  C:\Users\haske\AppData\Local\Temp\ccmHbbn5.s 			page 34


 410:..\..\..\arduinoLCD\test\Pain Drain\libraries\lvgl\src\widgets\../core/lv_obj_style_gen.h **** {
 411:..\..\..\arduinoLCD\test\Pain Drain\libraries\lvgl\src\widgets\../core/lv_obj_style_gen.h ****     lv_style_value_t v = lv_obj_get_style_prop(obj, part, LV_STYLE_ARC_WIDTH);
 574              		.loc 2 411 0
 575 0014 5022     		movs	r2, #80
 576              	.LVL84:
 577 0016 8021     		movs	r1, #128
 578              	.LVL85:
 579 0018 8902     		lsls	r1, r1, #10
 580 001a 0090     		str	r0, [sp]
 581 001c FFF7FEFF 		bl	lv_obj_get_style_prop
 582              	.LVL86:
 412:..\..\..\arduinoLCD\test\Pain Drain\libraries\lvgl\src\widgets\../core/lv_obj_style_gen.h ****     return (lv_coord_t)v.num;
 583              		.loc 2 412 0
 584 0020 00B2     		sxth	r0, r0
 585              	.LVL87:
 586              	.LBE112:
 587              	.LBE111:
 790:..\..\..\arduinoLCD\test\Pain Drain\libraries\lvgl\src\widgets/lv_arc.c ****     r -= indic_width_half;
 588              		.loc 1 790 0
 589 0022 C40F     		lsrs	r4, r0, #31
 590 0024 2018     		adds	r0, r4, r0
 591 0026 4010     		asrs	r0, r0, #1
 592              	.LVL88:
 791:..\..\..\arduinoLCD\test\Pain Drain\libraries\lvgl\src\widgets/lv_arc.c **** 
 593              		.loc 1 791 0
 594 0028 84B2     		uxth	r4, r0
 595 002a 361B     		subs	r6, r6, r4
 596 002c 36B2     		sxth	r6, r6
 597              	.LVL89:
 793:..\..\..\arduinoLCD\test\Pain Drain\libraries\lvgl\src\widgets/lv_arc.c ****     lv_coord_t knob_x = (r * lv_trigo_sin(angle + 90)) >> LV_TRIGO_SHIFT;
 598              		.loc 1 793 0
 599 002e 0098     		ldr	r0, [sp]
 600              	.LVL90:
 601 0030 FFF7FEFF 		bl	get_angle
 602              	.LVL91:
 603 0034 0300     		movs	r3, r0
 604              	.LVL92:
 794:..\..\..\arduinoLCD\test\Pain Drain\libraries\lvgl\src\widgets/lv_arc.c ****     lv_coord_t knob_y = (r * lv_trigo_sin(angle)) >> LV_TRIGO_SHIFT;
 605              		.loc 1 794 0
 606 0036 0190     		str	r0, [sp, #4]
 607 0038 5A33     		adds	r3, r3, #90
 608 003a 18B2     		sxth	r0, r3
 609              	.LVL93:
 610 003c FFF7FEFF 		bl	lv_trigo_sin
 611              	.LVL94:
 612 0040 7043     		muls	r0, r6
 613 0042 C213     		asrs	r2, r0, #15
 614 0044 9146     		mov	r9, r2
 615              	.LVL95:
 795:..\..\..\arduinoLCD\test\Pain Drain\libraries\lvgl\src\widgets/lv_arc.c **** 
 616              		.loc 1 795 0
 617 0046 0198     		ldr	r0, [sp, #4]
 618 0048 FFF7FEFF 		bl	lv_trigo_sin
 619              	.LVL96:
 620 004c 4643     		muls	r6, r0
 621              	.LVL97:
 622 004e F313     		asrs	r3, r6, #15
ARM GAS  C:\Users\haske\AppData\Local\Temp\ccmHbbn5.s 			page 35


 623 0050 9846     		mov	r8, r3
 624              	.LVL98:
 625              	.LBB113:
 626              	.LBB114:
 117:..\..\..\arduinoLCD\test\Pain Drain\libraries\lvgl\src\widgets\../core/lv_obj_style_gen.h ****     return (lv_coord_t)v.num;
 627              		.loc 2 117 0
 628 0052 1222     		movs	r2, #18
 629 0054 C021     		movs	r1, #192
 630 0056 8902     		lsls	r1, r1, #10
 631 0058 009E     		ldr	r6, [sp]
 632 005a 3000     		movs	r0, r6
 633 005c FFF7FEFF 		bl	lv_obj_get_style_prop
 634              	.LVL99:
 635 0060 8346     		mov	fp, r0
 636              	.LVL100:
 637              	.LBE114:
 638              	.LBE113:
 639              	.LBB115:
 640              	.LBB116:
 123:..\..\..\arduinoLCD\test\Pain Drain\libraries\lvgl\src\widgets\../core/lv_obj_style_gen.h ****     return (lv_coord_t)v.num;
 641              		.loc 2 123 0
 642 0062 1322     		movs	r2, #19
 643 0064 C021     		movs	r1, #192
 644 0066 8902     		lsls	r1, r1, #10
 645 0068 0096     		str	r6, [sp]
 646              	.LVL101:
 647 006a 3000     		movs	r0, r6
 648 006c FFF7FEFF 		bl	lv_obj_get_style_prop
 649              	.LVL102:
 650 0070 0600     		movs	r6, r0
 651              	.LVL103:
 652              	.LBE116:
 653              	.LBE115:
 654              	.LBB117:
 655              	.LBB118:
 105:..\..\..\arduinoLCD\test\Pain Drain\libraries\lvgl\src\widgets\../core/lv_obj_style_gen.h ****     return (lv_coord_t)v.num;
 656              		.loc 2 105 0
 657 0072 1022     		movs	r2, #16
 658 0074 C021     		movs	r1, #192
 659 0076 8902     		lsls	r1, r1, #10
 660 0078 0098     		ldr	r0, [sp]
 661 007a FFF7FEFF 		bl	lv_obj_get_style_prop
 662              	.LVL104:
 663 007e 8246     		mov	r10, r0
 664              	.LVL105:
 665              	.LBE118:
 666              	.LBE117:
 667              	.LBB119:
 668              	.LBB120:
 111:..\..\..\arduinoLCD\test\Pain Drain\libraries\lvgl\src\widgets\../core/lv_obj_style_gen.h ****     return (lv_coord_t)v.num;
 669              		.loc 2 111 0
 670 0080 1122     		movs	r2, #17
 671 0082 C021     		movs	r1, #192
 672 0084 8902     		lsls	r1, r1, #10
 673 0086 0098     		ldr	r0, [sp]
 674 0088 FFF7FEFF 		bl	lv_obj_get_style_prop
 675              	.LVL106:
ARM GAS  C:\Users\haske\AppData\Local\Temp\ccmHbbn5.s 			page 36


 676              	.LBE120:
 677              	.LBE119:
 802:..\..\..\arduinoLCD\test\Pain Drain\libraries\lvgl\src\widgets/lv_arc.c ****     knob_area->x2 = center->x + knob_x + right_knob + indic_width_half;
 678              		.loc 1 802 0
 679 008c 0022     		movs	r2, #0
 680 008e BB5E     		ldrsh	r3, [r7, r2]
 681 0090 4A46     		mov	r2, r9
 682 0092 6946     		mov	r1, sp
 683 0094 0A80     		strh	r2, [r1]
 684 0096 0A88     		ldrh	r2, [r1]
 685 0098 D318     		adds	r3, r2, r3
 686              	.LVL107:
 687 009a 5946     		mov	r1, fp
 688 009c 5B1A     		subs	r3, r3, r1
 689 009e 1B1B     		subs	r3, r3, r4
 690 00a0 2B80     		strh	r3, [r5]
 803:..\..\..\arduinoLCD\test\Pain Drain\libraries\lvgl\src\widgets/lv_arc.c ****     knob_area->y1 = center->y + knob_y - top_knob - indic_width_half;
 691              		.loc 1 803 0
 692 00a2 0021     		movs	r1, #0
 693 00a4 7B5E     		ldrsh	r3, [r7, r1]
 694 00a6 D318     		adds	r3, r2, r3
 695              	.LVL108:
 696 00a8 9E19     		adds	r6, r3, r6
 697              	.LVL109:
 698 00aa A619     		adds	r6, r4, r6
 699 00ac AE80     		strh	r6, [r5, #4]
 804:..\..\..\arduinoLCD\test\Pain Drain\libraries\lvgl\src\widgets/lv_arc.c ****     knob_area->y2 = center->y + knob_y + bottom_knob + indic_width_half;
 700              		.loc 1 804 0
 701 00ae 0222     		movs	r2, #2
 702 00b0 BB5E     		ldrsh	r3, [r7, r2]
 703 00b2 4246     		mov	r2, r8
 704 00b4 6946     		mov	r1, sp
 705 00b6 0A80     		strh	r2, [r1]
 706 00b8 0A88     		ldrh	r2, [r1]
 707 00ba D318     		adds	r3, r2, r3
 708              	.LVL110:
 709 00bc 5146     		mov	r1, r10
 710 00be 5B1A     		subs	r3, r3, r1
 711 00c0 1B1B     		subs	r3, r3, r4
 712 00c2 6B80     		strh	r3, [r5, #2]
 805:..\..\..\arduinoLCD\test\Pain Drain\libraries\lvgl\src\widgets/lv_arc.c **** }
 713              		.loc 1 805 0
 714 00c4 0221     		movs	r1, #2
 715 00c6 7B5E     		ldrsh	r3, [r7, r1]
 716 00c8 D218     		adds	r2, r2, r3
 717              	.LVL111:
 718 00ca 1018     		adds	r0, r2, r0
 719              	.LVL112:
 720 00cc 2418     		adds	r4, r4, r0
 721              	.LVL113:
 722 00ce EC80     		strh	r4, [r5, #6]
 806:..\..\..\arduinoLCD\test\Pain Drain\libraries\lvgl\src\widgets/lv_arc.c **** 
 723              		.loc 1 806 0
 724 00d0 03B0     		add	sp, sp, #12
 725              		@ sp needed
 726              	.LVL114:
 727              	.LVL115:
ARM GAS  C:\Users\haske\AppData\Local\Temp\ccmHbbn5.s 			page 37


 728              	.LVL116:
 729              	.LVL117:
 730              	.LVL118:
 731              	.LVL119:
 732 00d2 3CBC     		pop	{r2, r3, r4, r5}
 733 00d4 9046     		mov	r8, r2
 734 00d6 9946     		mov	r9, r3
 735 00d8 A246     		mov	r10, r4
 736 00da AB46     		mov	fp, r5
 737 00dc F0BD     		pop	{r4, r5, r6, r7, pc}
 738              		.cfi_endproc
 739              	.LFE188:
 740              		.size	get_knob_area, .-get_knob_area
 741 00de C046     		.section	.text.lv_arc_draw,"ax",%progbits
 742              		.align	2
 743              		.code	16
 744              		.thumb_func
 745              		.type	lv_arc_draw, %function
 746              	lv_arc_draw:
 747              	.LFB183:
 616:..\..\..\arduinoLCD\test\Pain Drain\libraries\lvgl\src\widgets/lv_arc.c ****     lv_obj_t * obj = lv_event_get_target(e);
 748              		.loc 1 616 0
 749              		.cfi_startproc
 750              		@ args = 0, pretend = 0, frame = 168
 751              		@ frame_needed = 0, uses_anonymous_args = 0
 752              	.LVL120:
 753 0000 F0B5     		push	{r4, r5, r6, r7, lr}
 754              		.cfi_def_cfa_offset 20
 755              		.cfi_offset 4, -20
 756              		.cfi_offset 5, -16
 757              		.cfi_offset 6, -12
 758              		.cfi_offset 7, -8
 759              		.cfi_offset 14, -4
 760 0002 4F46     		mov	r7, r9
 761 0004 80B4     		push	{r7}
 762              		.cfi_def_cfa_offset 24
 763              		.cfi_offset 9, -24
 764 0006 ACB0     		sub	sp, sp, #176
 765              		.cfi_def_cfa_offset 200
 766 0008 0500     		movs	r5, r0
 617:..\..\..\arduinoLCD\test\Pain Drain\libraries\lvgl\src\widgets/lv_arc.c ****     lv_arc_t * arc = (lv_arc_t *)obj;
 767              		.loc 1 617 0
 768 000a FFF7FEFF 		bl	lv_event_get_target
 769              	.LVL121:
 770 000e 0400     		movs	r4, r0
 771              	.LVL122:
 620:..\..\..\arduinoLCD\test\Pain Drain\libraries\lvgl\src\widgets/lv_arc.c **** 
 772              		.loc 1 620 0
 773 0010 2800     		movs	r0, r5
 774              	.LVL123:
 775 0012 FFF7FEFF 		bl	lv_event_get_draw_ctx
 776              	.LVL124:
 777 0016 0600     		movs	r6, r0
 778              	.LVL125:
 624:..\..\..\arduinoLCD\test\Pain Drain\libraries\lvgl\src\widgets/lv_arc.c **** 
 779              		.loc 1 624 0
 780 0018 A225     		movs	r5, #162
ARM GAS  C:\Users\haske\AppData\Local\Temp\ccmHbbn5.s 			page 38


 781              	.LVL126:
 782 001a 02AB     		add	r3, sp, #8
 783 001c 9C46     		mov	ip, r3
 784 001e 6544     		add	r5, r5, ip
 785 0020 2A00     		movs	r2, r5
 786 0022 2BA9     		add	r1, sp, #172
 787 0024 2000     		movs	r0, r4
 788              	.LVL127:
 789 0026 FFF7FEFF 		bl	get_center
 790              	.LVL128:
 627:..\..\..\arduinoLCD\test\Pain Drain\libraries\lvgl\src\widgets/lv_arc.c **** 
 791              		.loc 1 627 0
 792 002a 0396     		str	r6, [sp, #12]
 793 002c 3100     		movs	r1, r6
 794 002e 18A8     		add	r0, sp, #96
 795 0030 FFF7FEFF 		bl	lv_obj_draw_dsc_init
 796              	.LVL129:
 631:..\..\..\arduinoLCD\test\Pain Drain\libraries\lvgl\src\widgets/lv_arc.c ****         lv_draw_arc_dsc_init(&arc_dsc);
 797              		.loc 1 631 0
 798 0034 0022     		movs	r2, #0
 799 0036 AB5E     		ldrsh	r3, [r5, r2]
 800 0038 002B     		cmp	r3, #0
 801 003a 30DD     		ble	.L21
 632:..\..\..\arduinoLCD\test\Pain Drain\libraries\lvgl\src\widgets/lv_arc.c ****         lv_obj_init_draw_arc_dsc(obj, LV_PART_MAIN, &arc_dsc);
 802              		.loc 1 632 0
 803 003c 14AF     		add	r7, sp, #80
 804 003e 3800     		movs	r0, r7
 805 0040 FFF7FEFF 		bl	lv_draw_arc_dsc_init
 806              	.LVL130:
 633:..\..\..\arduinoLCD\test\Pain Drain\libraries\lvgl\src\widgets/lv_arc.c **** 
 807              		.loc 1 633 0
 808 0044 3A00     		movs	r2, r7
 809 0046 0021     		movs	r1, #0
 810 0048 2000     		movs	r0, r4
 811 004a FFF7FEFF 		bl	lv_obj_init_draw_arc_dsc
 812              	.LVL131:
 635:..\..\..\arduinoLCD\test\Pain Drain\libraries\lvgl\src\widgets/lv_arc.c ****         part_draw_dsc.class_p = MY_CLASS;
 813              		.loc 1 635 0
 814 004e 18AD     		add	r5, sp, #96
 815 0050 0023     		movs	r3, #0
 816 0052 2593     		str	r3, [sp, #148]
 636:..\..\..\arduinoLCD\test\Pain Drain\libraries\lvgl\src\widgets/lv_arc.c ****         part_draw_dsc.type = LV_ARC_DRAW_PART_BACKGROUND;
 817              		.loc 1 636 0
 818 0054 604A     		ldr	r2, .L27
 819 0056 1992     		str	r2, [sp, #100]
 637:..\..\..\arduinoLCD\test\Pain Drain\libraries\lvgl\src\widgets/lv_arc.c ****         part_draw_dsc.p1 = &center;
 820              		.loc 1 637 0
 821 0058 1A93     		str	r3, [sp, #104]
 638:..\..\..\arduinoLCD\test\Pain Drain\libraries\lvgl\src\widgets/lv_arc.c ****         part_draw_dsc.radius = arc_r;
 822              		.loc 1 638 0
 823 005a 2BAE     		add	r6, sp, #172
 824              	.LVL132:
 825 005c 2196     		str	r6, [sp, #132]
 639:..\..\..\arduinoLCD\test\Pain Drain\libraries\lvgl\src\widgets/lv_arc.c ****         part_draw_dsc.arc_dsc = &arc_dsc;
 826              		.loc 1 639 0
 827 005e A233     		adds	r3, r3, #162
 828 0060 02AA     		add	r2, sp, #8
ARM GAS  C:\Users\haske\AppData\Local\Temp\ccmHbbn5.s 			page 39


 829 0062 9446     		mov	ip, r2
 830 0064 6344     		add	r3, r3, ip
 831 0066 1B88     		ldrh	r3, [r3]
 832 0068 AB87     		strh	r3, [r5, #60]
 640:..\..\..\arduinoLCD\test\Pain Drain\libraries\lvgl\src\widgets/lv_arc.c ****         lv_event_send(obj, LV_EVENT_DRAW_PART_BEGIN, &part_draw_dsc);
 833              		.loc 1 640 0
 834 006a 2097     		str	r7, [sp, #128]
 641:..\..\..\arduinoLCD\test\Pain Drain\libraries\lvgl\src\widgets/lv_arc.c **** 
 835              		.loc 1 641 0
 836 006c 2A00     		movs	r2, r5
 837 006e 1A21     		movs	r1, #26
 838 0070 2000     		movs	r0, r4
 839 0072 FFF7FEFF 		bl	lv_event_send
 840              	.LVL133:
 643:..\..\..\arduinoLCD\test\Pain Drain\libraries\lvgl\src\widgets/lv_arc.c ****                     arc->bg_angle_end + arc->rotation);
 841              		.loc 1 643 0
 842 0076 608D     		ldrh	r0, [r4, #42]
 843 0078 A28C     		ldrh	r2, [r4, #36]
 644:..\..\..\arduinoLCD\test\Pain Drain\libraries\lvgl\src\widgets/lv_arc.c **** 
 844              		.loc 1 644 0
 845 007a A18D     		ldrh	r1, [r4, #44]
 643:..\..\..\arduinoLCD\test\Pain Drain\libraries\lvgl\src\widgets/lv_arc.c ****                     arc->bg_angle_end + arc->rotation);
 846              		.loc 1 643 0
 847 007c AB8F     		ldrh	r3, [r5, #60]
 848 007e 5118     		adds	r1, r2, r1
 849 0080 89B2     		uxth	r1, r1
 850 0082 0191     		str	r1, [sp, #4]
 851 0084 8218     		adds	r2, r0, r2
 852 0086 92B2     		uxth	r2, r2
 853 0088 0092     		str	r2, [sp]
 854 008a 3200     		movs	r2, r6
 855 008c 3900     		movs	r1, r7
 856 008e 0398     		ldr	r0, [sp, #12]
 857 0090 FFF7FEFF 		bl	lv_draw_arc
 858              	.LVL134:
 646:..\..\..\arduinoLCD\test\Pain Drain\libraries\lvgl\src\widgets/lv_arc.c ****     }
 859              		.loc 1 646 0
 860 0094 2A00     		movs	r2, r5
 861 0096 1B21     		movs	r1, #27
 862 0098 2000     		movs	r0, r4
 863 009a FFF7FEFF 		bl	lv_event_send
 864              	.LVL135:
 865              	.L21:
 866              	.LBB121:
 867              	.LBB122:
 117:..\..\..\arduinoLCD\test\Pain Drain\libraries\lvgl\src\widgets\../core/lv_obj_style_gen.h ****     return (lv_coord_t)v.num;
 868              		.loc 2 117 0
 869 009e 1222     		movs	r2, #18
 870 00a0 8021     		movs	r1, #128
 871 00a2 8902     		lsls	r1, r1, #10
 872 00a4 2000     		movs	r0, r4
 873 00a6 FFF7FEFF 		bl	lv_obj_get_style_prop
 874              	.LVL136:
 118:..\..\..\arduinoLCD\test\Pain Drain\libraries\lvgl\src\widgets\../core/lv_obj_style_gen.h **** }
 875              		.loc 2 118 0
 876 00aa 06B2     		sxth	r6, r0
 877              	.LVL137:
ARM GAS  C:\Users\haske\AppData\Local\Temp\ccmHbbn5.s 			page 40


 878              	.LBE122:
 879              	.LBE121:
 880              	.LBB123:
 881              	.LBB124:
 123:..\..\..\arduinoLCD\test\Pain Drain\libraries\lvgl\src\widgets\../core/lv_obj_style_gen.h ****     return (lv_coord_t)v.num;
 882              		.loc 2 123 0
 883 00ac 1322     		movs	r2, #19
 884 00ae 8021     		movs	r1, #128
 885 00b0 8902     		lsls	r1, r1, #10
 886 00b2 2000     		movs	r0, r4
 887 00b4 FFF7FEFF 		bl	lv_obj_get_style_prop
 888              	.LVL138:
 124:..\..\..\arduinoLCD\test\Pain Drain\libraries\lvgl\src\widgets\../core/lv_obj_style_gen.h **** }
 889              		.loc 2 124 0
 890 00b8 05B2     		sxth	r5, r0
 891              	.LVL139:
 892              	.LBE124:
 893              	.LBE123:
 894              	.LBB125:
 895              	.LBB126:
 105:..\..\..\arduinoLCD\test\Pain Drain\libraries\lvgl\src\widgets\../core/lv_obj_style_gen.h ****     return (lv_coord_t)v.num;
 896              		.loc 2 105 0
 897 00ba 1022     		movs	r2, #16
 898 00bc 8021     		movs	r1, #128
 899 00be 8902     		lsls	r1, r1, #10
 900 00c0 2000     		movs	r0, r4
 901 00c2 FFF7FEFF 		bl	lv_obj_get_style_prop
 902              	.LVL140:
 106:..\..\..\arduinoLCD\test\Pain Drain\libraries\lvgl\src\widgets\../core/lv_obj_style_gen.h **** }
 903              		.loc 2 106 0
 904 00c6 07B2     		sxth	r7, r0
 905              	.LVL141:
 906              	.LBE126:
 907              	.LBE125:
 908              	.LBB127:
 909              	.LBB128:
 111:..\..\..\arduinoLCD\test\Pain Drain\libraries\lvgl\src\widgets\../core/lv_obj_style_gen.h ****     return (lv_coord_t)v.num;
 910              		.loc 2 111 0
 911 00c8 1122     		movs	r2, #17
 912 00ca 8021     		movs	r1, #128
 913 00cc 8902     		lsls	r1, r1, #10
 914 00ce 2000     		movs	r0, r4
 915 00d0 FFF7FEFF 		bl	lv_obj_get_style_prop
 916              	.LVL142:
 112:..\..\..\arduinoLCD\test\Pain Drain\libraries\lvgl\src\widgets\../core/lv_obj_style_gen.h **** }
 917              		.loc 2 112 0
 918 00d4 00B2     		sxth	r0, r0
 919              	.LVL143:
 920              	.LBE128:
 921              	.LBE127:
 654:..\..\..\arduinoLCD\test\Pain Drain\libraries\lvgl\src\widgets/lv_arc.c **** 
 922              		.loc 1 654 0
 923 00d6 031C     		adds	r3, r0, #0
 924 00d8 B842     		cmp	r0, r7
 925 00da 00DA     		bge	.L22
 926 00dc 3B1C     		adds	r3, r7, #0
 927              	.L22:
ARM GAS  C:\Users\haske\AppData\Local\Temp\ccmHbbn5.s 			page 41


 928 00de 1BB2     		sxth	r3, r3
 929 00e0 2A1C     		adds	r2, r5, #0
 930 00e2 B542     		cmp	r5, r6
 931 00e4 00DA     		bge	.L23
 932 00e6 321C     		adds	r2, r6, #0
 933              	.L23:
 934 00e8 191C     		adds	r1, r3, #0
 935 00ea 10B2     		sxth	r0, r2
 936 00ec 8342     		cmp	r3, r0
 937 00ee 00DA     		bge	.L24
 938 00f0 111C     		adds	r1, r2, #0
 939              	.L24:
 940 00f2 A223     		movs	r3, #162
 941 00f4 02AA     		add	r2, sp, #8
 942 00f6 9446     		mov	ip, r2
 943 00f8 6344     		add	r3, r3, ip
 944 00fa 1B88     		ldrh	r3, [r3]
 945 00fc 5B1A     		subs	r3, r3, r1
 946 00fe 1EB2     		sxth	r6, r3
 947              	.LVL144:
 656:..\..\..\arduinoLCD\test\Pain Drain\libraries\lvgl\src\widgets/lv_arc.c ****         lv_draw_arc_dsc_init(&arc_dsc);
 948              		.loc 1 656 0
 949 0100 002E     		cmp	r6, #0
 950 0102 37DD     		ble	.L25
 657:..\..\..\arduinoLCD\test\Pain Drain\libraries\lvgl\src\widgets/lv_arc.c ****         lv_obj_init_draw_arc_dsc(obj, LV_PART_INDICATOR, &arc_dsc);
 951              		.loc 1 657 0
 952 0104 14AF     		add	r7, sp, #80
 953 0106 3800     		movs	r0, r7
 954 0108 FFF7FEFF 		bl	lv_draw_arc_dsc_init
 955              	.LVL145:
 658:..\..\..\arduinoLCD\test\Pain Drain\libraries\lvgl\src\widgets/lv_arc.c **** 
 956              		.loc 1 658 0
 957 010c 8023     		movs	r3, #128
 958 010e 9B02     		lsls	r3, r3, #10
 959 0110 9946     		mov	r9, r3
 960 0112 3A00     		movs	r2, r7
 961 0114 1900     		movs	r1, r3
 962 0116 2000     		movs	r0, r4
 963 0118 FFF7FEFF 		bl	lv_obj_init_draw_arc_dsc
 964              	.LVL146:
 660:..\..\..\arduinoLCD\test\Pain Drain\libraries\lvgl\src\widgets/lv_arc.c ****         part_draw_dsc.class_p = MY_CLASS;
 965              		.loc 1 660 0
 966 011c 18AD     		add	r5, sp, #96
 967 011e 4B46     		mov	r3, r9
 968 0120 2593     		str	r3, [sp, #148]
 661:..\..\..\arduinoLCD\test\Pain Drain\libraries\lvgl\src\widgets/lv_arc.c ****         part_draw_dsc.type = LV_ARC_DRAW_PART_FOREGROUND;
 969              		.loc 1 661 0
 970 0122 2D4B     		ldr	r3, .L27
 971 0124 1993     		str	r3, [sp, #100]
 662:..\..\..\arduinoLCD\test\Pain Drain\libraries\lvgl\src\widgets/lv_arc.c ****         part_draw_dsc.p1 = &center;
 972              		.loc 1 662 0
 973 0126 0123     		movs	r3, #1
 974 0128 1A93     		str	r3, [sp, #104]
 663:..\..\..\arduinoLCD\test\Pain Drain\libraries\lvgl\src\widgets/lv_arc.c ****         part_draw_dsc.radius = indic_r;
 975              		.loc 1 663 0
 976 012a 2BAB     		add	r3, sp, #172
 977 012c 2193     		str	r3, [sp, #132]
ARM GAS  C:\Users\haske\AppData\Local\Temp\ccmHbbn5.s 			page 42


 664:..\..\..\arduinoLCD\test\Pain Drain\libraries\lvgl\src\widgets/lv_arc.c ****         part_draw_dsc.arc_dsc = &arc_dsc;
 978              		.loc 1 664 0
 979 012e AE87     		strh	r6, [r5, #60]
 665:..\..\..\arduinoLCD\test\Pain Drain\libraries\lvgl\src\widgets/lv_arc.c ****         lv_event_send(obj, LV_EVENT_DRAW_PART_BEGIN, &part_draw_dsc);
 980              		.loc 1 665 0
 981 0130 2097     		str	r7, [sp, #128]
 666:..\..\..\arduinoLCD\test\Pain Drain\libraries\lvgl\src\widgets/lv_arc.c **** 
 982              		.loc 1 666 0
 983 0132 2A00     		movs	r2, r5
 984 0134 1A21     		movs	r1, #26
 985 0136 2000     		movs	r0, r4
 986 0138 FFF7FEFF 		bl	lv_event_send
 987              	.LVL147:
 668:..\..\..\arduinoLCD\test\Pain Drain\libraries\lvgl\src\widgets/lv_arc.c ****         lv_draw_arc(draw_ctx, &arc_dsc, &center, part_draw_dsc.radius, arc->indic_angle_start + arc
 988              		.loc 1 668 0
 989 013c 0223     		movs	r3, #2
 990 013e FA5E     		ldrsh	r2, [r7, r3]
 991 0140 3C21     		movs	r1, #60
 992 0142 6B5E     		ldrsh	r3, [r5, r1]
 993 0144 9A42     		cmp	r2, r3
 994 0146 01DD     		ble	.L26
 668:..\..\..\arduinoLCD\test\Pain Drain\libraries\lvgl\src\widgets/lv_arc.c ****         lv_draw_arc(draw_ctx, &arc_dsc, &center, part_draw_dsc.radius, arc->indic_angle_start + arc
 995              		.loc 1 668 0 is_stmt 0 discriminator 1
 996 0148 14AA     		add	r2, sp, #80
 997 014a 5380     		strh	r3, [r2, #2]
 998              	.L26:
 669:..\..\..\arduinoLCD\test\Pain Drain\libraries\lvgl\src\widgets/lv_arc.c ****                     arc->indic_angle_end + arc->rotation);
 999              		.loc 1 669 0 is_stmt 1
 1000 014c E08C     		ldrh	r0, [r4, #38]
 1001 014e A28C     		ldrh	r2, [r4, #36]
 670:..\..\..\arduinoLCD\test\Pain Drain\libraries\lvgl\src\widgets/lv_arc.c **** 
 1002              		.loc 1 670 0
 1003 0150 218D     		ldrh	r1, [r4, #40]
 669:..\..\..\arduinoLCD\test\Pain Drain\libraries\lvgl\src\widgets/lv_arc.c ****                     arc->indic_angle_end + arc->rotation);
 1004              		.loc 1 669 0
 1005 0152 9BB2     		uxth	r3, r3
 1006 0154 5118     		adds	r1, r2, r1
 1007 0156 89B2     		uxth	r1, r1
 1008 0158 0191     		str	r1, [sp, #4]
 1009 015a 8218     		adds	r2, r0, r2
 1010 015c 92B2     		uxth	r2, r2
 1011 015e 0092     		str	r2, [sp]
 1012 0160 2BAA     		add	r2, sp, #172
 1013 0162 14A9     		add	r1, sp, #80
 1014 0164 0398     		ldr	r0, [sp, #12]
 1015 0166 FFF7FEFF 		bl	lv_draw_arc
 1016              	.LVL148:
 672:..\..\..\arduinoLCD\test\Pain Drain\libraries\lvgl\src\widgets/lv_arc.c ****     }
 1017              		.loc 1 672 0
 1018 016a 18AA     		add	r2, sp, #96
 1019 016c 1B21     		movs	r1, #27
 1020 016e 2000     		movs	r0, r4
 1021 0170 FFF7FEFF 		bl	lv_event_send
 1022              	.LVL149:
 1023              	.L25:
 676:..\..\..\arduinoLCD\test\Pain Drain\libraries\lvgl\src\widgets/lv_arc.c **** 
 1024              		.loc 1 676 0
ARM GAS  C:\Users\haske\AppData\Local\Temp\ccmHbbn5.s 			page 43


 1025 0174 12AF     		add	r7, sp, #72
 1026 0176 A223     		movs	r3, #162
 1027 0178 02AA     		add	r2, sp, #8
 1028 017a 9446     		mov	ip, r2
 1029 017c 6344     		add	r3, r3, ip
 1030 017e 0022     		movs	r2, #0
 1031 0180 9A5E     		ldrsh	r2, [r3, r2]
 1032 0182 3B00     		movs	r3, r7
 1033 0184 2BA9     		add	r1, sp, #172
 1034 0186 2000     		movs	r0, r4
 1035 0188 FFF7FEFF 		bl	get_knob_area
 1036              	.LVL150:
 679:..\..\..\arduinoLCD\test\Pain Drain\libraries\lvgl\src\widgets/lv_arc.c ****     lv_obj_init_draw_rect_dsc(obj, LV_PART_KNOB, &knob_rect_dsc);
 1037              		.loc 1 679 0
 1038 018c 04AD     		add	r5, sp, #16
 1039 018e 2800     		movs	r0, r5
 1040 0190 FFF7FEFF 		bl	lv_draw_rect_dsc_init
 1041              	.LVL151:
 680:..\..\..\arduinoLCD\test\Pain Drain\libraries\lvgl\src\widgets/lv_arc.c **** 
 1042              		.loc 1 680 0
 1043 0194 C026     		movs	r6, #192
 1044              	.LVL152:
 1045 0196 B602     		lsls	r6, r6, #10
 1046 0198 2A00     		movs	r2, r5
 1047 019a 3100     		movs	r1, r6
 1048 019c 2000     		movs	r0, r4
 1049 019e FFF7FEFF 		bl	lv_obj_init_draw_rect_dsc
 1050              	.LVL153:
 682:..\..\..\arduinoLCD\test\Pain Drain\libraries\lvgl\src\widgets/lv_arc.c ****     part_draw_dsc.class_p = MY_CLASS;
 1051              		.loc 1 682 0
 1052 01a2 2596     		str	r6, [sp, #148]
 683:..\..\..\arduinoLCD\test\Pain Drain\libraries\lvgl\src\widgets/lv_arc.c ****     part_draw_dsc.type = LV_ARC_DRAW_PART_KNOB;
 1053              		.loc 1 683 0
 1054 01a4 0C4B     		ldr	r3, .L27
 1055 01a6 1993     		str	r3, [sp, #100]
 684:..\..\..\arduinoLCD\test\Pain Drain\libraries\lvgl\src\widgets/lv_arc.c ****     part_draw_dsc.draw_area = &knob_area;
 1056              		.loc 1 684 0
 1057 01a8 0223     		movs	r3, #2
 1058 01aa 1A93     		str	r3, [sp, #104]
 685:..\..\..\arduinoLCD\test\Pain Drain\libraries\lvgl\src\widgets/lv_arc.c ****     part_draw_dsc.rect_dsc = &knob_rect_dsc;
 1059              		.loc 1 685 0
 1060 01ac 1B97     		str	r7, [sp, #108]
 686:..\..\..\arduinoLCD\test\Pain Drain\libraries\lvgl\src\widgets/lv_arc.c ****     lv_event_send(obj, LV_EVENT_DRAW_PART_BEGIN, &part_draw_dsc);
 1061              		.loc 1 686 0
 1062 01ae 1C95     		str	r5, [sp, #112]
 687:..\..\..\arduinoLCD\test\Pain Drain\libraries\lvgl\src\widgets/lv_arc.c **** 
 1063              		.loc 1 687 0
 1064 01b0 18AA     		add	r2, sp, #96
 1065 01b2 1A21     		movs	r1, #26
 1066 01b4 2000     		movs	r0, r4
 1067 01b6 FFF7FEFF 		bl	lv_event_send
 1068              	.LVL154:
 689:..\..\..\arduinoLCD\test\Pain Drain\libraries\lvgl\src\widgets/lv_arc.c **** 
 1069              		.loc 1 689 0
 1070 01ba 3A00     		movs	r2, r7
 1071 01bc 2900     		movs	r1, r5
 1072 01be 0398     		ldr	r0, [sp, #12]
ARM GAS  C:\Users\haske\AppData\Local\Temp\ccmHbbn5.s 			page 44


 1073 01c0 FFF7FEFF 		bl	lv_draw_rect
 1074              	.LVL155:
 691:..\..\..\arduinoLCD\test\Pain Drain\libraries\lvgl\src\widgets/lv_arc.c **** }
 1075              		.loc 1 691 0
 1076 01c4 18AA     		add	r2, sp, #96
 1077 01c6 1B21     		movs	r1, #27
 1078 01c8 2000     		movs	r0, r4
 1079 01ca FFF7FEFF 		bl	lv_event_send
 1080              	.LVL156:
 692:..\..\..\arduinoLCD\test\Pain Drain\libraries\lvgl\src\widgets/lv_arc.c **** 
 1081              		.loc 1 692 0
 1082 01ce 2CB0     		add	sp, sp, #176
 1083              		@ sp needed
 1084              	.LVL157:
 1085 01d0 04BC     		pop	{r2}
 1086 01d2 9146     		mov	r9, r2
 1087 01d4 F0BD     		pop	{r4, r5, r6, r7, pc}
 1088              	.L28:
 1089 01d6 C046     		.align	2
 1090              	.L27:
 1091 01d8 00000000 		.word	.LANCHOR0
 1092              		.cfi_endproc
 1093              	.LFE183:
 1094              		.size	lv_arc_draw, .-lv_arc_draw
 1095              		.section	.text.lv_arc_constructor,"ax",%progbits
 1096              		.align	2
 1097              		.code	16
 1098              		.thumb_func
 1099              		.type	lv_arc_constructor, %function
 1100              	lv_arc_constructor:
 1101              	.LFB181:
 381:..\..\..\arduinoLCD\test\Pain Drain\libraries\lvgl\src\widgets/lv_arc.c ****     LV_UNUSED(class_p);
 1102              		.loc 1 381 0
 1103              		.cfi_startproc
 1104              		@ args = 0, pretend = 0, frame = 0
 1105              		@ frame_needed = 0, uses_anonymous_args = 0
 1106              	.LVL158:
 1107 0000 10B5     		push	{r4, lr}
 1108              		.cfi_def_cfa_offset 8
 1109              		.cfi_offset 4, -8
 1110              		.cfi_offset 14, -4
 1111 0002 0C00     		movs	r4, r1
 1112              	.LVL159:
 388:..\..\..\arduinoLCD\test\Pain Drain\libraries\lvgl\src\widgets/lv_arc.c ****     arc->bg_angle_start = 135;
 1113              		.loc 1 388 0
 1114 0004 0020     		movs	r0, #0
 1115              	.LVL160:
 1116 0006 8884     		strh	r0, [r1, #36]
 389:..\..\..\arduinoLCD\test\Pain Drain\libraries\lvgl\src\widgets/lv_arc.c ****     arc->bg_angle_end   = 45;
 1117              		.loc 1 389 0
 1118 0008 8723     		movs	r3, #135
 1119 000a 4B85     		strh	r3, [r1, #42]
 390:..\..\..\arduinoLCD\test\Pain Drain\libraries\lvgl\src\widgets/lv_arc.c ****     arc->indic_angle_start = 135;
 1120              		.loc 1 390 0
 1121 000c 2D22     		movs	r2, #45
 1122 000e 8A85     		strh	r2, [r1, #44]
 391:..\..\..\arduinoLCD\test\Pain Drain\libraries\lvgl\src\widgets/lv_arc.c ****     arc->indic_angle_end   = 270;
ARM GAS  C:\Users\haske\AppData\Local\Temp\ccmHbbn5.s 			page 45


 1123              		.loc 1 391 0
 1124 0010 CB84     		strh	r3, [r1, #38]
 392:..\..\..\arduinoLCD\test\Pain Drain\libraries\lvgl\src\widgets/lv_arc.c ****     arc->type = LV_ARC_MODE_NORMAL;
 1125              		.loc 1 392 0
 1126 0012 8733     		adds	r3, r3, #135
 1127 0014 0B85     		strh	r3, [r1, #40]
 393:..\..\..\arduinoLCD\test\Pain Drain\libraries\lvgl\src\widgets/lv_arc.c ****     arc->value = VALUE_UNSET;
 1128              		.loc 1 393 0
 1129 0016 3421     		movs	r1, #52
 1130              	.LVL161:
 1131 0018 635C     		ldrb	r3, [r4, r1]
 394:..\..\..\arduinoLCD\test\Pain Drain\libraries\lvgl\src\widgets/lv_arc.c ****     arc->min_close = 1;
 1132              		.loc 1 394 0
 1133 001a 114A     		ldr	r2, .L30
 1134 001c E285     		strh	r2, [r4, #46]
 395:..\..\..\arduinoLCD\test\Pain Drain\libraries\lvgl\src\widgets/lv_arc.c ****     arc->min_value = 0;
 1135              		.loc 1 395 0
 1136 001e 0622     		movs	r2, #6
 1137 0020 9343     		bics	r3, r2
 1138 0022 0822     		movs	r2, #8
 1139 0024 1343     		orrs	r3, r2
 396:..\..\..\arduinoLCD\test\Pain Drain\libraries\lvgl\src\widgets/lv_arc.c ****     arc->max_value = 100;
 1140              		.loc 1 396 0
 1141 0026 2086     		strh	r0, [r4, #48]
 397:..\..\..\arduinoLCD\test\Pain Drain\libraries\lvgl\src\widgets/lv_arc.c ****     arc->dragging = false;
 1142              		.loc 1 397 0
 1143 0028 6422     		movs	r2, #100
 1144 002a 6286     		strh	r2, [r4, #50]
 398:..\..\..\arduinoLCD\test\Pain Drain\libraries\lvgl\src\widgets/lv_arc.c ****     arc->chg_rate = 720;
 1145              		.loc 1 398 0
 1146 002c DBB2     		uxtb	r3, r3
 1147 002e 633A     		subs	r2, r2, #99
 1148 0030 9343     		bics	r3, r2
 1149 0032 6354     		strb	r3, [r4, r1]
 399:..\..\..\arduinoLCD\test\Pain Drain\libraries\lvgl\src\widgets/lv_arc.c ****     arc->last_tick = lv_tick_get();
 1150              		.loc 1 399 0
 1151 0034 B423     		movs	r3, #180
 1152 0036 9B00     		lsls	r3, r3, #2
 1153 0038 E386     		strh	r3, [r4, #54]
 400:..\..\..\arduinoLCD\test\Pain Drain\libraries\lvgl\src\widgets/lv_arc.c ****     arc->last_angle = arc->indic_angle_end;
 1154              		.loc 1 400 0
 1155 003a FFF7FEFF 		bl	lv_tick_get
 1156              	.LVL162:
 1157 003e A063     		str	r0, [r4, #56]
 401:..\..\..\arduinoLCD\test\Pain Drain\libraries\lvgl\src\widgets/lv_arc.c **** 
 1158              		.loc 1 401 0
 1159 0040 238D     		ldrh	r3, [r4, #40]
 1160 0042 A387     		strh	r3, [r4, #60]
 403:..\..\..\arduinoLCD\test\Pain Drain\libraries\lvgl\src\widgets/lv_arc.c ****     lv_obj_clear_flag(obj, LV_OBJ_FLAG_SCROLL_CHAIN | LV_OBJ_FLAG_SCROLLABLE);
 1161              		.loc 1 403 0
 1162 0044 0221     		movs	r1, #2
 1163 0046 2000     		movs	r0, r4
 1164 0048 FFF7FEFF 		bl	lv_obj_add_flag
 1165              	.LVL163:
 404:..\..\..\arduinoLCD\test\Pain Drain\libraries\lvgl\src\widgets/lv_arc.c ****     lv_obj_set_ext_click_area(obj, LV_DPI_DEF / 10);
 1166              		.loc 1 404 0
 1167 004c C421     		movs	r1, #196
ARM GAS  C:\Users\haske\AppData\Local\Temp\ccmHbbn5.s 			page 46


 1168 004e 8900     		lsls	r1, r1, #2
 1169 0050 2000     		movs	r0, r4
 1170 0052 FFF7FEFF 		bl	lv_obj_clear_flag
 1171              	.LVL164:
 405:..\..\..\arduinoLCD\test\Pain Drain\libraries\lvgl\src\widgets/lv_arc.c **** 
 1172              		.loc 1 405 0
 1173 0056 0D21     		movs	r1, #13
 1174 0058 2000     		movs	r0, r4
 1175 005a FFF7FEFF 		bl	lv_obj_set_ext_click_area
 1176              	.LVL165:
 409:..\..\..\arduinoLCD\test\Pain Drain\libraries\lvgl\src\widgets/lv_arc.c **** 
 1177              		.loc 1 409 0
 1178              		@ sp needed
 1179              	.LVL166:
 1180 005e 10BD     		pop	{r4, pc}
 1181              	.L31:
 1182              		.align	2
 1183              	.L30:
 1184 0060 0080FFFF 		.word	-32768
 1185              		.cfi_endproc
 1186              	.LFE181:
 1187              		.size	lv_arc_constructor, .-lv_arc_constructor
 1188              		.section	.text.inv_arc_area,"ax",%progbits
 1189              		.align	2
 1190              		.code	16
 1191              		.thumb_func
 1192              		.type	inv_arc_area, %function
 1193              	inv_arc_area:
 1194              	.LFB184:
 695:..\..\..\arduinoLCD\test\Pain Drain\libraries\lvgl\src\widgets/lv_arc.c ****     LV_ASSERT_OBJ(obj, MY_CLASS);
 1195              		.loc 1 695 0
 1196              		.cfi_startproc
 1197              		@ args = 0, pretend = 0, frame = 24
 1198              		@ frame_needed = 0, uses_anonymous_args = 0
 1199              	.LVL167:
 1200 0000 F0B5     		push	{r4, r5, r6, r7, lr}
 1201              		.cfi_def_cfa_offset 20
 1202              		.cfi_offset 4, -20
 1203              		.cfi_offset 5, -16
 1204              		.cfi_offset 6, -12
 1205              		.cfi_offset 7, -8
 1206              		.cfi_offset 14, -4
 1207 0002 5746     		mov	r7, r10
 1208 0004 4E46     		mov	r6, r9
 1209 0006 C0B4     		push	{r6, r7}
 1210              		.cfi_def_cfa_offset 28
 1211              		.cfi_offset 9, -28
 1212              		.cfi_offset 10, -24
 1213 0008 8BB0     		sub	sp, sp, #44
 1214              		.cfi_def_cfa_offset 72
 1215 000a 0600     		movs	r6, r0
 1216 000c 0D00     		movs	r5, r1
 1217 000e 1400     		movs	r4, r2
 1218 0010 0593     		str	r3, [sp, #20]
 699:..\..\..\arduinoLCD\test\Pain Drain\libraries\lvgl\src\widgets/lv_arc.c **** 
 1219              		.loc 1 699 0
 1220 0012 FFF7FEFF 		bl	lv_obj_is_visible
ARM GAS  C:\Users\haske\AppData\Local\Temp\ccmHbbn5.s 			page 47


 1221              	.LVL168:
 1222 0016 0028     		cmp	r0, #0
 1223 0018 50D0     		beq	.L32
 1224              	.LVL169:
 703:..\..\..\arduinoLCD\test\Pain Drain\libraries\lvgl\src\widgets/lv_arc.c **** 
 1225              		.loc 1 703 0
 1226 001a A542     		cmp	r5, r4
 1227 001c 4ED0     		beq	.L32
 705:..\..\..\arduinoLCD\test\Pain Drain\libraries\lvgl\src\widgets/lv_arc.c ****     if(end_angle > 360) end_angle -= 360;
 1228              		.loc 1 705 0
 1229 001e B423     		movs	r3, #180
 1230 0020 5B00     		lsls	r3, r3, #1
 1231 0022 9D42     		cmp	r5, r3
 1232 0024 02D9     		bls	.L34
 705:..\..\..\arduinoLCD\test\Pain Drain\libraries\lvgl\src\widgets/lv_arc.c ****     if(end_angle > 360) end_angle -= 360;
 1233              		.loc 1 705 0 is_stmt 0 discriminator 1
 1234 0026 693D     		subs	r5, r5, #105
 1235 0028 FF3D     		subs	r5, r5, #255
 1236 002a ADB2     		uxth	r5, r5
 1237              	.LVL170:
 1238              	.L34:
 706:..\..\..\arduinoLCD\test\Pain Drain\libraries\lvgl\src\widgets/lv_arc.c **** 
 1239              		.loc 1 706 0 is_stmt 1
 1240 002c B423     		movs	r3, #180
 1241 002e 5B00     		lsls	r3, r3, #1
 1242 0030 9C42     		cmp	r4, r3
 1243 0032 02D9     		bls	.L35
 706:..\..\..\arduinoLCD\test\Pain Drain\libraries\lvgl\src\widgets/lv_arc.c **** 
 1244              		.loc 1 706 0 is_stmt 0 discriminator 1
 1245 0034 693C     		subs	r4, r4, #105
 1246 0036 FF3C     		subs	r4, r4, #255
 1247 0038 A4B2     		uxth	r4, r4
 1248              	.LVL171:
 1249              	.L35:
 708:..\..\..\arduinoLCD\test\Pain Drain\libraries\lvgl\src\widgets/lv_arc.c ****     end_angle += arc->rotation;
 1250              		.loc 1 708 0 is_stmt 1
 1251 003a B38C     		ldrh	r3, [r6, #36]
 1252 003c ED18     		adds	r5, r5, r3
 1253              	.LVL172:
 1254 003e AFB2     		uxth	r7, r5
 1255              	.LVL173:
 709:..\..\..\arduinoLCD\test\Pain Drain\libraries\lvgl\src\widgets/lv_arc.c **** 
 1256              		.loc 1 709 0
 1257 0040 E418     		adds	r4, r4, r3
 1258              	.LVL174:
 1259 0042 A4B2     		uxth	r4, r4
 1260              	.LVL175:
 711:..\..\..\arduinoLCD\test\Pain Drain\libraries\lvgl\src\widgets/lv_arc.c ****     if(end_angle > 360) end_angle -= 360;
 1261              		.loc 1 711 0
 1262 0044 B423     		movs	r3, #180
 1263 0046 5B00     		lsls	r3, r3, #1
 1264 0048 9F42     		cmp	r7, r3
 1265 004a 03D9     		bls	.L36
 711:..\..\..\arduinoLCD\test\Pain Drain\libraries\lvgl\src\widgets/lv_arc.c ****     if(end_angle > 360) end_angle -= 360;
 1266              		.loc 1 711 0 is_stmt 0 discriminator 1
 1267 004c 3D00     		movs	r5, r7
 1268 004e 693D     		subs	r5, r5, #105
ARM GAS  C:\Users\haske\AppData\Local\Temp\ccmHbbn5.s 			page 48


 1269 0050 FF3D     		subs	r5, r5, #255
 1270 0052 AFB2     		uxth	r7, r5
 1271              	.LVL176:
 1272              	.L36:
 712:..\..\..\arduinoLCD\test\Pain Drain\libraries\lvgl\src\widgets/lv_arc.c **** 
 1273              		.loc 1 712 0 is_stmt 1
 1274 0054 B423     		movs	r3, #180
 1275 0056 5B00     		lsls	r3, r3, #1
 1276 0058 9C42     		cmp	r4, r3
 1277 005a 02D9     		bls	.L37
 712:..\..\..\arduinoLCD\test\Pain Drain\libraries\lvgl\src\widgets/lv_arc.c **** 
 1278              		.loc 1 712 0 is_stmt 0 discriminator 1
 1279 005c 693C     		subs	r4, r4, #105
 1280              	.LVL177:
 1281 005e FF3C     		subs	r4, r4, #255
 1282              	.LVL178:
 1283 0060 A4B2     		uxth	r4, r4
 1284              	.LVL179:
 1285              	.L37:
 716:..\..\..\arduinoLCD\test\Pain Drain\libraries\lvgl\src\widgets/lv_arc.c **** 
 1286              		.loc 1 716 0 is_stmt 1
 1287 0062 1E23     		movs	r3, #30
 1288 0064 02AA     		add	r2, sp, #8
 1289 0066 9446     		mov	ip, r2
 1290 0068 6344     		add	r3, r3, ip
 1291 006a 9A46     		mov	r10, r3
 1292 006c 08AD     		add	r5, sp, #32
 1293 006e 1A00     		movs	r2, r3
 1294 0070 2900     		movs	r1, r5
 1295 0072 3000     		movs	r0, r6
 1296 0074 FFF7FEFF 		bl	get_center
 1297              	.LVL180:
 1298              	.LBB129:
 1299              	.LBB130:
 411:..\..\..\arduinoLCD\test\Pain Drain\libraries\lvgl\src\widgets\../core/lv_obj_style_gen.h ****     return (lv_coord_t)v.num;
 1300              		.loc 2 411 0
 1301 0078 5022     		movs	r2, #80
 1302 007a 0599     		ldr	r1, [sp, #20]
 1303 007c 3000     		movs	r0, r6
 1304 007e FFF7FEFF 		bl	lv_obj_get_style_prop
 1305              	.LVL181:
 1306              		.loc 2 412 0
 1307 0082 03B2     		sxth	r3, r0
 1308 0084 9946     		mov	r9, r3
 1309              	.LVL182:
 1310              	.LBE130:
 1311              	.LBE129:
 1312              	.LBB131:
 1313              	.LBB132:
 413:..\..\..\arduinoLCD\test\Pain Drain\libraries\lvgl\src\widgets\../core/lv_obj_style_gen.h **** }
 414:..\..\..\arduinoLCD\test\Pain Drain\libraries\lvgl\src\widgets\../core/lv_obj_style_gen.h **** 
 415:..\..\..\arduinoLCD\test\Pain Drain\libraries\lvgl\src\widgets\../core/lv_obj_style_gen.h **** static inline bool lv_obj_get_style_arc_rounded(const struct _lv_obj_t * obj, uint32_t part)
 416:..\..\..\arduinoLCD\test\Pain Drain\libraries\lvgl\src\widgets\../core/lv_obj_style_gen.h **** {
 417:..\..\..\arduinoLCD\test\Pain Drain\libraries\lvgl\src\widgets\../core/lv_obj_style_gen.h ****     lv_style_value_t v = lv_obj_get_style_prop(obj, part, LV_STYLE_ARC_ROUNDED);
 1314              		.loc 2 417 0
 1315 0086 5122     		movs	r2, #81
 1316 0088 0599     		ldr	r1, [sp, #20]
ARM GAS  C:\Users\haske\AppData\Local\Temp\ccmHbbn5.s 			page 49


 1317 008a 3000     		movs	r0, r6
 1318 008c FFF7FEFF 		bl	lv_obj_get_style_prop
 1319              	.LVL183:
 418:..\..\..\arduinoLCD\test\Pain Drain\libraries\lvgl\src\widgets\../core/lv_obj_style_gen.h ****     return (bool)v.num;
 1320              		.loc 2 418 0
 1321 0090 0300     		movs	r3, r0
 1322 0092 581E     		subs	r0, r3, #1
 1323 0094 8341     		sbcs	r3, r3, r0
 1324              	.LVL184:
 1325              	.LBE132:
 1326              	.LBE131:
 722:..\..\..\arduinoLCD\test\Pain Drain\libraries\lvgl\src\widgets/lv_arc.c **** 
 1327              		.loc 1 722 0
 1328 0096 5246     		mov	r2, r10
 1329 0098 1288     		ldrh	r2, [r2]
 1330 009a 0220     		movs	r0, #2
 1331 009c 295E     		ldrsh	r1, [r5, r0]
 1332 009e 0020     		movs	r0, #0
 1333 00a0 285E     		ldrsh	r0, [r5, r0]
 1334 00a2 06AD     		add	r5, sp, #24
 1335 00a4 0395     		str	r5, [sp, #12]
 1336 00a6 0293     		str	r3, [sp, #8]
 1337 00a8 4B46     		mov	r3, r9
 1338              	.LVL185:
 1339 00aa 0193     		str	r3, [sp, #4]
 1340 00ac 0094     		str	r4, [sp]
 1341 00ae 3B00     		movs	r3, r7
 1342 00b0 FFF7FEFF 		bl	lv_draw_arc_get_area
 1343              	.LVL186:
 724:..\..\..\arduinoLCD\test\Pain Drain\libraries\lvgl\src\widgets/lv_arc.c **** }
 1344              		.loc 1 724 0
 1345 00b4 2900     		movs	r1, r5
 1346 00b6 3000     		movs	r0, r6
 1347 00b8 FFF7FEFF 		bl	lv_obj_invalidate_area
 1348              	.LVL187:
 1349              	.L32:
 725:..\..\..\arduinoLCD\test\Pain Drain\libraries\lvgl\src\widgets/lv_arc.c **** 
 1350              		.loc 1 725 0
 1351 00bc 0BB0     		add	sp, sp, #44
 1352              		@ sp needed
 1353              	.LVL188:
 1354 00be 0CBC     		pop	{r2, r3}
 1355 00c0 9146     		mov	r9, r2
 1356 00c2 9A46     		mov	r10, r3
 1357 00c4 F0BD     		pop	{r4, r5, r6, r7, pc}
 1358              		.cfi_endproc
 1359              	.LFE184:
 1360              		.size	inv_arc_area, .-inv_arc_area
 1361 00c6 C046     		.section	.text.inv_knob_area,"ax",%progbits
 1362              		.align	2
 1363              		.code	16
 1364              		.thumb_func
 1365              		.type	inv_knob_area, %function
 1366              	inv_knob_area:
 1367              	.LFB185:
 728:..\..\..\arduinoLCD\test\Pain Drain\libraries\lvgl\src\widgets/lv_arc.c ****     lv_point_t c;
 1368              		.loc 1 728 0
ARM GAS  C:\Users\haske\AppData\Local\Temp\ccmHbbn5.s 			page 50


 1369              		.cfi_startproc
 1370              		@ args = 0, pretend = 0, frame = 16
 1371              		@ frame_needed = 0, uses_anonymous_args = 0
 1372              	.LVL189:
 1373 0000 30B5     		push	{r4, r5, lr}
 1374              		.cfi_def_cfa_offset 12
 1375              		.cfi_offset 4, -12
 1376              		.cfi_offset 5, -8
 1377              		.cfi_offset 14, -4
 1378 0002 85B0     		sub	sp, sp, #20
 1379              		.cfi_def_cfa_offset 32
 1380 0004 0400     		movs	r4, r0
 731:..\..\..\arduinoLCD\test\Pain Drain\libraries\lvgl\src\widgets/lv_arc.c **** 
 1381              		.loc 1 731 0
 1382 0006 0A25     		movs	r5, #10
 1383 0008 6D44     		add	r5, r5, sp
 1384 000a 2A00     		movs	r2, r5
 1385 000c 03A9     		add	r1, sp, #12
 1386 000e FFF7FEFF 		bl	get_center
 1387              	.LVL190:
 734:..\..\..\arduinoLCD\test\Pain Drain\libraries\lvgl\src\widgets/lv_arc.c **** 
 1388              		.loc 1 734 0
 1389 0012 0023     		movs	r3, #0
 1390 0014 EA5E     		ldrsh	r2, [r5, r3]
 1391 0016 6B46     		mov	r3, sp
 1392 0018 03A9     		add	r1, sp, #12
 1393 001a 2000     		movs	r0, r4
 1394 001c FFF7FEFF 		bl	get_knob_area
 1395              	.LVL191:
 736:..\..\..\arduinoLCD\test\Pain Drain\libraries\lvgl\src\widgets/lv_arc.c **** 
 1396              		.loc 1 736 0
 1397 0020 2000     		movs	r0, r4
 1398 0022 FFF7FEFF 		bl	knob_get_extra_size
 1399              	.LVL192:
 738:..\..\..\arduinoLCD\test\Pain Drain\libraries\lvgl\src\widgets/lv_arc.c ****         lv_area_increase(&a, knob_extra_size, knob_extra_size);
 1400              		.loc 1 738 0
 1401 0026 0028     		cmp	r0, #0
 1402 0028 04DD     		ble	.L40
 739:..\..\..\arduinoLCD\test\Pain Drain\libraries\lvgl\src\widgets/lv_arc.c ****     }
 1403              		.loc 1 739 0
 1404 002a 0200     		movs	r2, r0
 1405 002c 0100     		movs	r1, r0
 1406 002e 6846     		mov	r0, sp
 1407              	.LVL193:
 1408 0030 FFF7FEFF 		bl	lv_area_increase
 1409              	.LVL194:
 1410              	.L40:
 742:..\..\..\arduinoLCD\test\Pain Drain\libraries\lvgl\src\widgets/lv_arc.c **** }
 1411              		.loc 1 742 0
 1412 0034 6946     		mov	r1, sp
 1413 0036 2000     		movs	r0, r4
 1414 0038 FFF7FEFF 		bl	lv_obj_invalidate_area
 1415              	.LVL195:
 743:..\..\..\arduinoLCD\test\Pain Drain\libraries\lvgl\src\widgets/lv_arc.c **** 
 1416              		.loc 1 743 0
 1417 003c 05B0     		add	sp, sp, #20
 1418              		@ sp needed
ARM GAS  C:\Users\haske\AppData\Local\Temp\ccmHbbn5.s 			page 51


 1419              	.LVL196:
 1420 003e 30BD     		pop	{r4, r5, pc}
 1421              		.cfi_endproc
 1422              	.LFE185:
 1423              		.size	inv_knob_area, .-inv_knob_area
 1424              		.section	.text.lv_arc_create,"ax",%progbits
 1425              		.align	2
 1426              		.global	lv_arc_create
 1427              		.code	16
 1428              		.thumb_func
 1429              		.type	lv_arc_create, %function
 1430              	lv_arc_create:
 1431              	.LFB159:
  64:..\..\..\arduinoLCD\test\Pain Drain\libraries\lvgl\src\widgets/lv_arc.c ****     LV_LOG_INFO("begin");
 1432              		.loc 1 64 0
 1433              		.cfi_startproc
 1434              		@ args = 0, pretend = 0, frame = 0
 1435              		@ frame_needed = 0, uses_anonymous_args = 0
 1436              	.LVL197:
 1437 0000 10B5     		push	{r4, lr}
 1438              		.cfi_def_cfa_offset 8
 1439              		.cfi_offset 4, -8
 1440              		.cfi_offset 14, -4
 1441 0002 0100     		movs	r1, r0
  66:..\..\..\arduinoLCD\test\Pain Drain\libraries\lvgl\src\widgets/lv_arc.c ****     lv_obj_class_init_obj(obj);
 1442              		.loc 1 66 0
 1443 0004 0348     		ldr	r0, .L42
 1444              	.LVL198:
 1445 0006 FFF7FEFF 		bl	lv_obj_class_create_obj
 1446              	.LVL199:
 1447 000a 0400     		movs	r4, r0
 1448              	.LVL200:
  67:..\..\..\arduinoLCD\test\Pain Drain\libraries\lvgl\src\widgets/lv_arc.c ****     return obj;
 1449              		.loc 1 67 0
 1450 000c FFF7FEFF 		bl	lv_obj_class_init_obj
 1451              	.LVL201:
  69:..\..\..\arduinoLCD\test\Pain Drain\libraries\lvgl\src\widgets/lv_arc.c **** 
 1452              		.loc 1 69 0
 1453 0010 2000     		movs	r0, r4
 1454              		@ sp needed
 1455              	.LVL202:
 1456 0012 10BD     		pop	{r4, pc}
 1457              	.L43:
 1458              		.align	2
 1459              	.L42:
 1460 0014 00000000 		.word	.LANCHOR0
 1461              		.cfi_endproc
 1462              	.LFE159:
 1463              		.size	lv_arc_create, .-lv_arc_create
 1464              		.section	.text.lv_arc_set_start_angle,"ax",%progbits
 1465              		.align	2
 1466              		.global	lv_arc_set_start_angle
 1467              		.code	16
 1468              		.thumb_func
 1469              		.type	lv_arc_set_start_angle, %function
 1470              	lv_arc_set_start_angle:
 1471              	.LFB160:
ARM GAS  C:\Users\haske\AppData\Local\Temp\ccmHbbn5.s 			page 52


  84:..\..\..\arduinoLCD\test\Pain Drain\libraries\lvgl\src\widgets/lv_arc.c ****     LV_ASSERT_OBJ(obj, MY_CLASS);
 1472              		.loc 1 84 0
 1473              		.cfi_startproc
 1474              		@ args = 0, pretend = 0, frame = 0
 1475              		@ frame_needed = 0, uses_anonymous_args = 0
 1476              	.LVL203:
 1477 0000 70B5     		push	{r4, r5, r6, lr}
 1478              		.cfi_def_cfa_offset 16
 1479              		.cfi_offset 4, -16
 1480              		.cfi_offset 5, -12
 1481              		.cfi_offset 6, -8
 1482              		.cfi_offset 14, -4
 1483 0002 0400     		movs	r4, r0
 1484 0004 0D00     		movs	r5, r1
 1485              	.LVL204:
  88:..\..\..\arduinoLCD\test\Pain Drain\libraries\lvgl\src\widgets/lv_arc.c **** 
 1486              		.loc 1 88 0
 1487 0006 B423     		movs	r3, #180
 1488 0008 5B00     		lsls	r3, r3, #1
 1489 000a 9942     		cmp	r1, r3
 1490 000c 02D9     		bls	.L45
  88:..\..\..\arduinoLCD\test\Pain Drain\libraries\lvgl\src\widgets/lv_arc.c **** 
 1491              		.loc 1 88 0 is_stmt 0 discriminator 1
 1492 000e 693D     		subs	r5, r5, #105
 1493 0010 FF3D     		subs	r5, r5, #255
 1494 0012 ADB2     		uxth	r5, r5
 1495              	.LVL205:
 1496              	.L45:
  90:..\..\..\arduinoLCD\test\Pain Drain\libraries\lvgl\src\widgets/lv_arc.c ****     int16_t new_delta = arc->indic_angle_end - start;
 1497              		.loc 1 90 0 is_stmt 1
 1498 0014 238D     		ldrh	r3, [r4, #40]
 1499 0016 E18C     		ldrh	r1, [r4, #38]
 1500 0018 5A1A     		subs	r2, r3, r1
 1501 001a 92B2     		uxth	r2, r2
 1502 001c 16B2     		sxth	r6, r2
 1503              	.LVL206:
  91:..\..\..\arduinoLCD\test\Pain Drain\libraries\lvgl\src\widgets/lv_arc.c **** 
 1504              		.loc 1 91 0
 1505 001e 5B1B     		subs	r3, r3, r5
 1506 0020 9BB2     		uxth	r3, r3
 1507 0022 18B2     		sxth	r0, r3
 1508              	.LVL207:
  93:..\..\..\arduinoLCD\test\Pain Drain\libraries\lvgl\src\widgets/lv_arc.c ****     if(new_delta < 0) new_delta = 360 + new_delta;
 1509              		.loc 1 93 0
 1510 0024 002E     		cmp	r6, #0
 1511 0026 02DA     		bge	.L46
  93:..\..\..\arduinoLCD\test\Pain Drain\libraries\lvgl\src\widgets/lv_arc.c ****     if(new_delta < 0) new_delta = 360 + new_delta;
 1512              		.loc 1 93 0 is_stmt 0 discriminator 1
 1513 0028 6932     		adds	r2, r2, #105
 1514 002a FF32     		adds	r2, r2, #255
 1515 002c 16B2     		sxth	r6, r2
 1516              	.LVL208:
 1517              	.L46:
  94:..\..\..\arduinoLCD\test\Pain Drain\libraries\lvgl\src\widgets/lv_arc.c **** 
 1518              		.loc 1 94 0 is_stmt 1
 1519 002e 0028     		cmp	r0, #0
 1520 0030 02DA     		bge	.L47
ARM GAS  C:\Users\haske\AppData\Local\Temp\ccmHbbn5.s 			page 53


  94:..\..\..\arduinoLCD\test\Pain Drain\libraries\lvgl\src\widgets/lv_arc.c **** 
 1521              		.loc 1 94 0 is_stmt 0 discriminator 1
 1522 0032 6933     		adds	r3, r3, #105
 1523 0034 FF33     		adds	r3, r3, #255
 1524 0036 18B2     		sxth	r0, r3
 1525              	.LVL209:
 1526              	.L47:
  96:..\..\..\arduinoLCD\test\Pain Drain\libraries\lvgl\src\widgets/lv_arc.c ****     else if(new_delta < old_delta) inv_arc_area(obj, arc->indic_angle_start, start, LV_PART_INDICAT
 1527              		.loc 1 96 0 is_stmt 1
 1528 0038 831B     		subs	r3, r0, r6
 1529 003a DA17     		asrs	r2, r3, #31
 1530 003c 9B18     		adds	r3, r3, r2
 1531 003e 5340     		eors	r3, r2
 1532 0040 B42B     		cmp	r3, #180
 1533 0042 03DD     		ble	.L48
  96:..\..\..\arduinoLCD\test\Pain Drain\libraries\lvgl\src\widgets/lv_arc.c ****     else if(new_delta < old_delta) inv_arc_area(obj, arc->indic_angle_start, start, LV_PART_INDICAT
 1534              		.loc 1 96 0 is_stmt 0 discriminator 1
 1535 0044 2000     		movs	r0, r4
 1536              	.LVL210:
 1537 0046 FFF7FEFF 		bl	lv_obj_invalidate
 1538              	.LVL211:
 1539 004a 11E0     		b	.L49
 1540              	.LVL212:
 1541              	.L48:
  97:..\..\..\arduinoLCD\test\Pain Drain\libraries\lvgl\src\widgets/lv_arc.c ****     else if(old_delta < new_delta) inv_arc_area(obj, start, arc->indic_angle_start, LV_PART_INDICAT
 1542              		.loc 1 97 0 is_stmt 1
 1543 004c 8642     		cmp	r6, r0
 1544 004e 06DD     		ble	.L50
  97:..\..\..\arduinoLCD\test\Pain Drain\libraries\lvgl\src\widgets/lv_arc.c ****     else if(old_delta < new_delta) inv_arc_area(obj, start, arc->indic_angle_start, LV_PART_INDICAT
 1545              		.loc 1 97 0 is_stmt 0 discriminator 1
 1546 0050 8023     		movs	r3, #128
 1547 0052 9B02     		lsls	r3, r3, #10
 1548 0054 2A00     		movs	r2, r5
 1549 0056 2000     		movs	r0, r4
 1550              	.LVL213:
 1551 0058 FFF7FEFF 		bl	inv_arc_area
 1552              	.LVL214:
 1553 005c 08E0     		b	.L49
 1554              	.LVL215:
 1555              	.L50:
  98:..\..\..\arduinoLCD\test\Pain Drain\libraries\lvgl\src\widgets/lv_arc.c **** 
 1556              		.loc 1 98 0 is_stmt 1
 1557 005e 8642     		cmp	r6, r0
 1558 0060 06DA     		bge	.L49
  98:..\..\..\arduinoLCD\test\Pain Drain\libraries\lvgl\src\widgets/lv_arc.c **** 
 1559              		.loc 1 98 0 is_stmt 0 discriminator 1
 1560 0062 8023     		movs	r3, #128
 1561 0064 9B02     		lsls	r3, r3, #10
 1562 0066 0A00     		movs	r2, r1
 1563 0068 2900     		movs	r1, r5
 1564 006a 2000     		movs	r0, r4
 1565              	.LVL216:
 1566 006c FFF7FEFF 		bl	inv_arc_area
 1567              	.LVL217:
 1568              	.L49:
 100:..\..\..\arduinoLCD\test\Pain Drain\libraries\lvgl\src\widgets/lv_arc.c **** 
 1569              		.loc 1 100 0 is_stmt 1
ARM GAS  C:\Users\haske\AppData\Local\Temp\ccmHbbn5.s 			page 54


 1570 0070 2000     		movs	r0, r4
 1571 0072 FFF7FEFF 		bl	inv_knob_area
 1572              	.LVL218:
 102:..\..\..\arduinoLCD\test\Pain Drain\libraries\lvgl\src\widgets/lv_arc.c **** 
 1573              		.loc 1 102 0
 1574 0076 E584     		strh	r5, [r4, #38]
 104:..\..\..\arduinoLCD\test\Pain Drain\libraries\lvgl\src\widgets/lv_arc.c **** }
 1575              		.loc 1 104 0
 1576 0078 2000     		movs	r0, r4
 1577 007a FFF7FEFF 		bl	inv_knob_area
 1578              	.LVL219:
 105:..\..\..\arduinoLCD\test\Pain Drain\libraries\lvgl\src\widgets/lv_arc.c **** 
 1579              		.loc 1 105 0
 1580              		@ sp needed
 1581              	.LVL220:
 1582              	.LVL221:
 1583              	.LVL222:
 1584 007e 70BD     		pop	{r4, r5, r6, pc}
 1585              		.cfi_endproc
 1586              	.LFE160:
 1587              		.size	lv_arc_set_start_angle, .-lv_arc_set_start_angle
 1588              		.section	.text.lv_arc_set_end_angle,"ax",%progbits
 1589              		.align	2
 1590              		.global	lv_arc_set_end_angle
 1591              		.code	16
 1592              		.thumb_func
 1593              		.type	lv_arc_set_end_angle, %function
 1594              	lv_arc_set_end_angle:
 1595              	.LFB161:
 108:..\..\..\arduinoLCD\test\Pain Drain\libraries\lvgl\src\widgets/lv_arc.c ****     LV_ASSERT_OBJ(obj, MY_CLASS);
 1596              		.loc 1 108 0
 1597              		.cfi_startproc
 1598              		@ args = 0, pretend = 0, frame = 0
 1599              		@ frame_needed = 0, uses_anonymous_args = 0
 1600              	.LVL223:
 1601 0000 70B5     		push	{r4, r5, r6, lr}
 1602              		.cfi_def_cfa_offset 16
 1603              		.cfi_offset 4, -16
 1604              		.cfi_offset 5, -12
 1605              		.cfi_offset 6, -8
 1606              		.cfi_offset 14, -4
 1607 0002 0400     		movs	r4, r0
 1608 0004 0D00     		movs	r5, r1
 1609              	.LVL224:
 111:..\..\..\arduinoLCD\test\Pain Drain\libraries\lvgl\src\widgets/lv_arc.c **** 
 1610              		.loc 1 111 0
 1611 0006 B423     		movs	r3, #180
 1612 0008 5B00     		lsls	r3, r3, #1
 1613 000a 9942     		cmp	r1, r3
 1614 000c 02D9     		bls	.L52
 111:..\..\..\arduinoLCD\test\Pain Drain\libraries\lvgl\src\widgets/lv_arc.c **** 
 1615              		.loc 1 111 0 is_stmt 0 discriminator 1
 1616 000e 693D     		subs	r5, r5, #105
 1617 0010 FF3D     		subs	r5, r5, #255
 1618 0012 ADB2     		uxth	r5, r5
 1619              	.LVL225:
 1620              	.L52:
ARM GAS  C:\Users\haske\AppData\Local\Temp\ccmHbbn5.s 			page 55


 113:..\..\..\arduinoLCD\test\Pain Drain\libraries\lvgl\src\widgets/lv_arc.c ****     int16_t new_delta = end - arc->indic_angle_start;
 1621              		.loc 1 113 0 is_stmt 1
 1622 0014 218D     		ldrh	r1, [r4, #40]
 1623 0016 E38C     		ldrh	r3, [r4, #38]
 1624 0018 CA1A     		subs	r2, r1, r3
 1625 001a 92B2     		uxth	r2, r2
 1626 001c 16B2     		sxth	r6, r2
 1627              	.LVL226:
 114:..\..\..\arduinoLCD\test\Pain Drain\libraries\lvgl\src\widgets/lv_arc.c **** 
 1628              		.loc 1 114 0
 1629 001e EB1A     		subs	r3, r5, r3
 1630 0020 9BB2     		uxth	r3, r3
 1631 0022 18B2     		sxth	r0, r3
 1632              	.LVL227:
 116:..\..\..\arduinoLCD\test\Pain Drain\libraries\lvgl\src\widgets/lv_arc.c ****     if(new_delta < 0) new_delta = 360 + new_delta;
 1633              		.loc 1 116 0
 1634 0024 002E     		cmp	r6, #0
 1635 0026 02DA     		bge	.L53
 116:..\..\..\arduinoLCD\test\Pain Drain\libraries\lvgl\src\widgets/lv_arc.c ****     if(new_delta < 0) new_delta = 360 + new_delta;
 1636              		.loc 1 116 0 is_stmt 0 discriminator 1
 1637 0028 6932     		adds	r2, r2, #105
 1638 002a FF32     		adds	r2, r2, #255
 1639 002c 16B2     		sxth	r6, r2
 1640              	.LVL228:
 1641              	.L53:
 117:..\..\..\arduinoLCD\test\Pain Drain\libraries\lvgl\src\widgets/lv_arc.c **** 
 1642              		.loc 1 117 0 is_stmt 1
 1643 002e 0028     		cmp	r0, #0
 1644 0030 02DA     		bge	.L54
 117:..\..\..\arduinoLCD\test\Pain Drain\libraries\lvgl\src\widgets/lv_arc.c **** 
 1645              		.loc 1 117 0 is_stmt 0 discriminator 1
 1646 0032 6933     		adds	r3, r3, #105
 1647 0034 FF33     		adds	r3, r3, #255
 1648 0036 18B2     		sxth	r0, r3
 1649              	.LVL229:
 1650              	.L54:
 119:..\..\..\arduinoLCD\test\Pain Drain\libraries\lvgl\src\widgets/lv_arc.c ****     else if(new_delta < old_delta) inv_arc_area(obj, end, arc->indic_angle_end, LV_PART_INDICATOR);
 1651              		.loc 1 119 0 is_stmt 1
 1652 0038 831B     		subs	r3, r0, r6
 1653 003a DA17     		asrs	r2, r3, #31
 1654 003c 9B18     		adds	r3, r3, r2
 1655 003e 5340     		eors	r3, r2
 1656 0040 B42B     		cmp	r3, #180
 1657 0042 03DD     		ble	.L55
 119:..\..\..\arduinoLCD\test\Pain Drain\libraries\lvgl\src\widgets/lv_arc.c ****     else if(new_delta < old_delta) inv_arc_area(obj, end, arc->indic_angle_end, LV_PART_INDICATOR);
 1658              		.loc 1 119 0 is_stmt 0 discriminator 1
 1659 0044 2000     		movs	r0, r4
 1660              	.LVL230:
 1661 0046 FFF7FEFF 		bl	lv_obj_invalidate
 1662              	.LVL231:
 1663 004a 11E0     		b	.L56
 1664              	.LVL232:
 1665              	.L55:
 120:..\..\..\arduinoLCD\test\Pain Drain\libraries\lvgl\src\widgets/lv_arc.c ****     else if(old_delta < new_delta) inv_arc_area(obj, arc->indic_angle_end, end, LV_PART_INDICATOR);
 1666              		.loc 1 120 0 is_stmt 1
 1667 004c 8642     		cmp	r6, r0
 1668 004e 07DD     		ble	.L57
ARM GAS  C:\Users\haske\AppData\Local\Temp\ccmHbbn5.s 			page 56


 120:..\..\..\arduinoLCD\test\Pain Drain\libraries\lvgl\src\widgets/lv_arc.c ****     else if(old_delta < new_delta) inv_arc_area(obj, arc->indic_angle_end, end, LV_PART_INDICATOR);
 1669              		.loc 1 120 0 is_stmt 0 discriminator 1
 1670 0050 8023     		movs	r3, #128
 1671 0052 9B02     		lsls	r3, r3, #10
 1672 0054 0A00     		movs	r2, r1
 1673 0056 2900     		movs	r1, r5
 1674 0058 2000     		movs	r0, r4
 1675              	.LVL233:
 1676 005a FFF7FEFF 		bl	inv_arc_area
 1677              	.LVL234:
 1678 005e 07E0     		b	.L56
 1679              	.LVL235:
 1680              	.L57:
 121:..\..\..\arduinoLCD\test\Pain Drain\libraries\lvgl\src\widgets/lv_arc.c **** 
 1681              		.loc 1 121 0 is_stmt 1
 1682 0060 8642     		cmp	r6, r0
 1683 0062 05DA     		bge	.L56
 121:..\..\..\arduinoLCD\test\Pain Drain\libraries\lvgl\src\widgets/lv_arc.c **** 
 1684              		.loc 1 121 0 is_stmt 0 discriminator 1
 1685 0064 8023     		movs	r3, #128
 1686 0066 9B02     		lsls	r3, r3, #10
 1687 0068 2A00     		movs	r2, r5
 1688 006a 2000     		movs	r0, r4
 1689              	.LVL236:
 1690 006c FFF7FEFF 		bl	inv_arc_area
 1691              	.LVL237:
 1692              	.L56:
 123:..\..\..\arduinoLCD\test\Pain Drain\libraries\lvgl\src\widgets/lv_arc.c **** 
 1693              		.loc 1 123 0 is_stmt 1
 1694 0070 2000     		movs	r0, r4
 1695 0072 FFF7FEFF 		bl	inv_knob_area
 1696              	.LVL238:
 125:..\..\..\arduinoLCD\test\Pain Drain\libraries\lvgl\src\widgets/lv_arc.c **** 
 1697              		.loc 1 125 0
 1698 0076 2585     		strh	r5, [r4, #40]
 127:..\..\..\arduinoLCD\test\Pain Drain\libraries\lvgl\src\widgets/lv_arc.c **** }
 1699              		.loc 1 127 0
 1700 0078 2000     		movs	r0, r4
 1701 007a FFF7FEFF 		bl	inv_knob_area
 1702              	.LVL239:
 128:..\..\..\arduinoLCD\test\Pain Drain\libraries\lvgl\src\widgets/lv_arc.c **** 
 1703              		.loc 1 128 0
 1704              		@ sp needed
 1705              	.LVL240:
 1706              	.LVL241:
 1707              	.LVL242:
 1708 007e 70BD     		pop	{r4, r5, r6, pc}
 1709              		.cfi_endproc
 1710              	.LFE161:
 1711              		.size	lv_arc_set_end_angle, .-lv_arc_set_end_angle
 1712              		.section	.text.lv_arc_set_angles,"ax",%progbits
 1713              		.align	2
 1714              		.global	lv_arc_set_angles
 1715              		.code	16
 1716              		.thumb_func
 1717              		.type	lv_arc_set_angles, %function
 1718              	lv_arc_set_angles:
ARM GAS  C:\Users\haske\AppData\Local\Temp\ccmHbbn5.s 			page 57


 1719              	.LFB162:
 131:..\..\..\arduinoLCD\test\Pain Drain\libraries\lvgl\src\widgets/lv_arc.c ****     lv_arc_set_end_angle(obj, end);
 1720              		.loc 1 131 0
 1721              		.cfi_startproc
 1722              		@ args = 0, pretend = 0, frame = 0
 1723              		@ frame_needed = 0, uses_anonymous_args = 0
 1724              	.LVL243:
 1725 0000 70B5     		push	{r4, r5, r6, lr}
 1726              		.cfi_def_cfa_offset 16
 1727              		.cfi_offset 4, -16
 1728              		.cfi_offset 5, -12
 1729              		.cfi_offset 6, -8
 1730              		.cfi_offset 14, -4
 1731 0002 0400     		movs	r4, r0
 1732 0004 0D00     		movs	r5, r1
 132:..\..\..\arduinoLCD\test\Pain Drain\libraries\lvgl\src\widgets/lv_arc.c ****     lv_arc_set_start_angle(obj, start);
 1733              		.loc 1 132 0
 1734 0006 1100     		movs	r1, r2
 1735              	.LVL244:
 1736 0008 FFF7FEFF 		bl	lv_arc_set_end_angle
 1737              	.LVL245:
 133:..\..\..\arduinoLCD\test\Pain Drain\libraries\lvgl\src\widgets/lv_arc.c **** }
 1738              		.loc 1 133 0
 1739 000c 2900     		movs	r1, r5
 1740 000e 2000     		movs	r0, r4
 1741 0010 FFF7FEFF 		bl	lv_arc_set_start_angle
 1742              	.LVL246:
 134:..\..\..\arduinoLCD\test\Pain Drain\libraries\lvgl\src\widgets/lv_arc.c **** 
 1743              		.loc 1 134 0
 1744              		@ sp needed
 1745              	.LVL247:
 1746 0014 70BD     		pop	{r4, r5, r6, pc}
 1747              		.cfi_endproc
 1748              	.LFE162:
 1749              		.size	lv_arc_set_angles, .-lv_arc_set_angles
 1750 0016 C046     		.section	.text.value_update,"ax",%progbits
 1751              		.align	2
 1752              		.code	16
 1753              		.thumb_func
 1754              		.type	value_update, %function
 1755              	value_update:
 1756              	.LFB189:
 813:..\..\..\arduinoLCD\test\Pain Drain\libraries\lvgl\src\widgets/lv_arc.c ****     LV_ASSERT_OBJ(obj, MY_CLASS);
 1757              		.loc 1 813 0
 1758              		.cfi_startproc
 1759              		@ args = 0, pretend = 0, frame = 0
 1760              		@ frame_needed = 0, uses_anonymous_args = 0
 1761              	.LVL248:
 1762 0000 F0B5     		push	{r4, r5, r6, r7, lr}
 1763              		.cfi_def_cfa_offset 20
 1764              		.cfi_offset 4, -20
 1765              		.cfi_offset 5, -16
 1766              		.cfi_offset 6, -12
 1767              		.cfi_offset 7, -8
 1768              		.cfi_offset 14, -4
 1769 0002 4746     		mov	r7, r8
 1770 0004 80B4     		push	{r7}
ARM GAS  C:\Users\haske\AppData\Local\Temp\ccmHbbn5.s 			page 58


 1771              		.cfi_def_cfa_offset 24
 1772              		.cfi_offset 8, -24
 1773 0006 82B0     		sub	sp, sp, #8
 1774              		.cfi_def_cfa_offset 32
 1775 0008 0400     		movs	r4, r0
 1776              	.LVL249:
 818:..\..\..\arduinoLCD\test\Pain Drain\libraries\lvgl\src\widgets/lv_arc.c **** 
 1777              		.loc 1 818 0
 1778 000a 2E23     		movs	r3, #46
 1779 000c C05E     		ldrsh	r0, [r0, r3]
 1780              	.LVL250:
 1781 000e 354B     		ldr	r3, .L67
 1782 0010 9842     		cmp	r0, r3
 1783 0012 62D0     		beq	.L59
 820:..\..\..\arduinoLCD\test\Pain Drain\libraries\lvgl\src\widgets/lv_arc.c ****     if(arc->bg_angle_end < arc->bg_angle_start) bg_end = arc->bg_angle_end + 360;
 1784              		.loc 1 820 0
 1785 0014 A28D     		ldrh	r2, [r4, #44]
 1786 0016 13B2     		sxth	r3, r2
 1787              	.LVL251:
 821:..\..\..\arduinoLCD\test\Pain Drain\libraries\lvgl\src\widgets/lv_arc.c **** 
 1788              		.loc 1 821 0
 1789 0018 658D     		ldrh	r5, [r4, #42]
 1790 001a AA42     		cmp	r2, r5
 1791 001c 02D2     		bcs	.L61
 821:..\..\..\arduinoLCD\test\Pain Drain\libraries\lvgl\src\widgets/lv_arc.c **** 
 1792              		.loc 1 821 0 is_stmt 0 discriminator 1
 1793 001e 6932     		adds	r2, r2, #105
 1794 0020 FF32     		adds	r2, r2, #255
 1795 0022 13B2     		sxth	r3, r2
 1796              	.LVL252:
 1797              	.L61:
 824:..\..\..\arduinoLCD\test\Pain Drain\libraries\lvgl\src\widgets/lv_arc.c ****         case LV_ARC_MODE_SYMMETRICAL:
 1798              		.loc 1 824 0 is_stmt 1
 1799 0024 3422     		movs	r2, #52
 1800 0026 A25C     		ldrb	r2, [r4, r2]
 1801 0028 5207     		lsls	r2, r2, #29
 1802 002a 920F     		lsrs	r2, r2, #30
 1803 002c 012A     		cmp	r2, #1
 1804 002e 04D0     		beq	.L62
 1805 0030 002A     		cmp	r2, #0
 1806 0032 43D0     		beq	.L63
 1807 0034 022A     		cmp	r2, #2
 1808 0036 33D0     		beq	.L64
 1809 0038 4FE0     		b	.L59
 1810              	.L62:
 826:..\..\..\arduinoLCD\test\Pain Drain\libraries\lvgl\src\widgets/lv_arc.c ****             range_midpoint = (int32_t)(arc->min_value + arc->max_value) / 2;
 1811              		.loc 1 826 0
 1812 003a EE18     		adds	r6, r5, r3
 1813 003c F10F     		lsrs	r1, r6, #31
 1814 003e 8E19     		adds	r6, r1, r6
 1815 0040 7610     		asrs	r6, r6, #1
 1816 0042 32B2     		sxth	r2, r6
 1817 0044 9046     		mov	r8, r2
 1818              	.LVL253:
 827:..\..\..\arduinoLCD\test\Pain Drain\libraries\lvgl\src\widgets/lv_arc.c **** 
 1819              		.loc 1 827 0
 1820 0046 3021     		movs	r1, #48
ARM GAS  C:\Users\haske\AppData\Local\Temp\ccmHbbn5.s 			page 59


 1821 0048 625E     		ldrsh	r2, [r4, r1]
 1822 004a 9446     		mov	ip, r2
 1823 004c 3221     		movs	r1, #50
 1824 004e 625E     		ldrsh	r2, [r4, r1]
 1825 0050 6146     		mov	r1, ip
 1826 0052 8F18     		adds	r7, r1, r2
 1827 0054 F90F     		lsrs	r1, r7, #31
 1828 0056 CF19     		adds	r7, r1, r7
 1829 0058 7F10     		asrs	r7, r7, #1
 1830 005a 39B2     		sxth	r1, r7
 1831              	.LVL254:
 829:..\..\..\arduinoLCD\test\Pain Drain\libraries\lvgl\src\widgets/lv_arc.c ****                 angle = lv_map(arc->value, arc->min_value, range_midpoint, arc->bg_angle_start, bg_
 1832              		.loc 1 829 0
 1833 005c 8842     		cmp	r0, r1
 1834 005e 10DA     		bge	.L65
 830:..\..\..\arduinoLCD\test\Pain Drain\libraries\lvgl\src\widgets/lv_arc.c ****                 lv_arc_set_start_angle(obj, angle);
 1835              		.loc 1 830 0
 1836 0060 4346     		mov	r3, r8
 1837              	.LVL255:
 1838 0062 0093     		str	r3, [sp]
 1839 0064 2B00     		movs	r3, r5
 1840 0066 0A00     		movs	r2, r1
 1841 0068 6146     		mov	r1, ip
 1842              	.LVL256:
 1843 006a FFF7FEFF 		bl	lv_map
 1844              	.LVL257:
 1845 006e 05B2     		sxth	r5, r0
 1846              	.LVL258:
 831:..\..\..\arduinoLCD\test\Pain Drain\libraries\lvgl\src\widgets/lv_arc.c ****                 lv_arc_set_end_angle(obj, bg_midpoint);
 1847              		.loc 1 831 0
 1848 0070 81B2     		uxth	r1, r0
 1849 0072 2000     		movs	r0, r4
 1850 0074 FFF7FEFF 		bl	lv_arc_set_start_angle
 1851              	.LVL259:
 832:..\..\..\arduinoLCD\test\Pain Drain\libraries\lvgl\src\widgets/lv_arc.c ****             }
 1852              		.loc 1 832 0
 1853 0078 B1B2     		uxth	r1, r6
 1854 007a 2000     		movs	r0, r4
 1855 007c FFF7FEFF 		bl	lv_arc_set_end_angle
 1856              	.LVL260:
 1857 0080 2AE0     		b	.L66
 1858              	.LVL261:
 1859              	.L65:
 835:..\..\..\arduinoLCD\test\Pain Drain\libraries\lvgl\src\widgets/lv_arc.c ****                 lv_arc_set_start_angle(obj, bg_midpoint);
 1860              		.loc 1 835 0
 1861 0082 0093     		str	r3, [sp]
 1862 0084 4346     		mov	r3, r8
 1863              	.LVL262:
 1864 0086 FFF7FEFF 		bl	lv_map
 1865              	.LVL263:
 1866 008a 0700     		movs	r7, r0
 1867              	.LVL264:
 1868 008c 05B2     		sxth	r5, r0
 1869              	.LVL265:
 836:..\..\..\arduinoLCD\test\Pain Drain\libraries\lvgl\src\widgets/lv_arc.c ****                 lv_arc_set_end_angle(obj, angle);
 1870              		.loc 1 836 0
 1871 008e B1B2     		uxth	r1, r6
ARM GAS  C:\Users\haske\AppData\Local\Temp\ccmHbbn5.s 			page 60


 1872 0090 2000     		movs	r0, r4
 1873 0092 FFF7FEFF 		bl	lv_arc_set_start_angle
 1874              	.LVL266:
 837:..\..\..\arduinoLCD\test\Pain Drain\libraries\lvgl\src\widgets/lv_arc.c ****             }
 1875              		.loc 1 837 0
 1876 0096 B9B2     		uxth	r1, r7
 1877 0098 2000     		movs	r0, r4
 1878 009a FFF7FEFF 		bl	lv_arc_set_end_angle
 1879              	.LVL267:
 1880 009e 1BE0     		b	.L66
 1881              	.LVL268:
 1882              	.L64:
 841:..\..\..\arduinoLCD\test\Pain Drain\libraries\lvgl\src\widgets/lv_arc.c ****             lv_arc_set_angles(obj, angle, arc->bg_angle_end);
 1883              		.loc 1 841 0
 1884 00a0 3022     		movs	r2, #48
 1885 00a2 A15E     		ldrsh	r1, [r4, r2]
 1886 00a4 3226     		movs	r6, #50
 1887 00a6 A25F     		ldrsh	r2, [r4, r6]
 1888 00a8 0095     		str	r5, [sp]
 1889 00aa FFF7FEFF 		bl	lv_map
 1890              	.LVL269:
 1891 00ae 05B2     		sxth	r5, r0
 1892              	.LVL270:
 842:..\..\..\arduinoLCD\test\Pain Drain\libraries\lvgl\src\widgets/lv_arc.c ****             break;
 1893              		.loc 1 842 0
 1894 00b0 A28D     		ldrh	r2, [r4, #44]
 1895 00b2 81B2     		uxth	r1, r0
 1896 00b4 2000     		movs	r0, r4
 1897 00b6 FFF7FEFF 		bl	lv_arc_set_angles
 1898              	.LVL271:
 843:..\..\..\arduinoLCD\test\Pain Drain\libraries\lvgl\src\widgets/lv_arc.c ****         case LV_ARC_MODE_NORMAL:
 1899              		.loc 1 843 0
 1900 00ba 0DE0     		b	.L66
 1901              	.LVL272:
 1902              	.L63:
 845:..\..\..\arduinoLCD\test\Pain Drain\libraries\lvgl\src\widgets/lv_arc.c ****             lv_arc_set_angles(obj, arc->bg_angle_start, angle);
 1903              		.loc 1 845 0
 1904 00bc 3022     		movs	r2, #48
 1905 00be A15E     		ldrsh	r1, [r4, r2]
 1906 00c0 3226     		movs	r6, #50
 1907 00c2 A25F     		ldrsh	r2, [r4, r6]
 1908 00c4 0093     		str	r3, [sp]
 1909 00c6 2B00     		movs	r3, r5
 1910              	.LVL273:
 1911 00c8 FFF7FEFF 		bl	lv_map
 1912              	.LVL274:
 1913 00cc 05B2     		sxth	r5, r0
 1914              	.LVL275:
 846:..\..\..\arduinoLCD\test\Pain Drain\libraries\lvgl\src\widgets/lv_arc.c **** 
 1915              		.loc 1 846 0
 1916 00ce 82B2     		uxth	r2, r0
 1917 00d0 618D     		ldrh	r1, [r4, #42]
 1918 00d2 2000     		movs	r0, r4
 1919 00d4 FFF7FEFF 		bl	lv_arc_set_angles
 1920              	.LVL276:
 1921              	.L66:
 853:..\..\..\arduinoLCD\test\Pain Drain\libraries\lvgl\src\widgets/lv_arc.c **** }
ARM GAS  C:\Users\haske\AppData\Local\Temp\ccmHbbn5.s 			page 61


 1922              		.loc 1 853 0
 1923 00d8 A587     		strh	r5, [r4, #60]
 1924              	.LVL277:
 1925              	.L59:
 854:..\..\..\arduinoLCD\test\Pain Drain\libraries\lvgl\src\widgets/lv_arc.c **** 
 1926              		.loc 1 854 0
 1927 00da 02B0     		add	sp, sp, #8
 1928              		@ sp needed
 1929              	.LVL278:
 1930 00dc 04BC     		pop	{r2}
 1931 00de 9046     		mov	r8, r2
 1932 00e0 F0BD     		pop	{r4, r5, r6, r7, pc}
 1933              	.L68:
 1934 00e2 C046     		.align	2
 1935              	.L67:
 1936 00e4 0080FFFF 		.word	-32768
 1937              		.cfi_endproc
 1938              	.LFE189:
 1939              		.size	value_update, .-value_update
 1940              		.section	.text.lv_arc_set_bg_start_angle,"ax",%progbits
 1941              		.align	2
 1942              		.global	lv_arc_set_bg_start_angle
 1943              		.code	16
 1944              		.thumb_func
 1945              		.type	lv_arc_set_bg_start_angle, %function
 1946              	lv_arc_set_bg_start_angle:
 1947              	.LFB163:
 137:..\..\..\arduinoLCD\test\Pain Drain\libraries\lvgl\src\widgets/lv_arc.c ****     LV_ASSERT_OBJ(obj, MY_CLASS);
 1948              		.loc 1 137 0
 1949              		.cfi_startproc
 1950              		@ args = 0, pretend = 0, frame = 0
 1951              		@ frame_needed = 0, uses_anonymous_args = 0
 1952              	.LVL279:
 1953 0000 70B5     		push	{r4, r5, r6, lr}
 1954              		.cfi_def_cfa_offset 16
 1955              		.cfi_offset 4, -16
 1956              		.cfi_offset 5, -12
 1957              		.cfi_offset 6, -8
 1958              		.cfi_offset 14, -4
 1959 0002 0500     		movs	r5, r0
 1960 0004 0C00     		movs	r4, r1
 1961              	.LVL280:
 141:..\..\..\arduinoLCD\test\Pain Drain\libraries\lvgl\src\widgets/lv_arc.c **** 
 1962              		.loc 1 141 0
 1963 0006 B423     		movs	r3, #180
 1964 0008 5B00     		lsls	r3, r3, #1
 1965 000a 9942     		cmp	r1, r3
 1966 000c 02D9     		bls	.L70
 141:..\..\..\arduinoLCD\test\Pain Drain\libraries\lvgl\src\widgets/lv_arc.c **** 
 1967              		.loc 1 141 0 is_stmt 0 discriminator 1
 1968 000e 693C     		subs	r4, r4, #105
 1969 0010 FF3C     		subs	r4, r4, #255
 1970 0012 A4B2     		uxth	r4, r4
 1971              	.LVL281:
 1972              	.L70:
 143:..\..\..\arduinoLCD\test\Pain Drain\libraries\lvgl\src\widgets/lv_arc.c ****     int16_t new_delta = arc->bg_angle_end - start;
 1973              		.loc 1 143 0 is_stmt 1
ARM GAS  C:\Users\haske\AppData\Local\Temp\ccmHbbn5.s 			page 62


 1974 0014 AB8D     		ldrh	r3, [r5, #44]
 1975 0016 698D     		ldrh	r1, [r5, #42]
 1976 0018 5A1A     		subs	r2, r3, r1
 1977 001a 92B2     		uxth	r2, r2
 1978 001c 16B2     		sxth	r6, r2
 1979              	.LVL282:
 144:..\..\..\arduinoLCD\test\Pain Drain\libraries\lvgl\src\widgets/lv_arc.c **** 
 1980              		.loc 1 144 0
 1981 001e 1B1B     		subs	r3, r3, r4
 1982 0020 9BB2     		uxth	r3, r3
 1983 0022 18B2     		sxth	r0, r3
 1984              	.LVL283:
 146:..\..\..\arduinoLCD\test\Pain Drain\libraries\lvgl\src\widgets/lv_arc.c ****     if(new_delta < 0) new_delta = 360 + new_delta;
 1985              		.loc 1 146 0
 1986 0024 002E     		cmp	r6, #0
 1987 0026 02DA     		bge	.L71
 146:..\..\..\arduinoLCD\test\Pain Drain\libraries\lvgl\src\widgets/lv_arc.c ****     if(new_delta < 0) new_delta = 360 + new_delta;
 1988              		.loc 1 146 0 is_stmt 0 discriminator 1
 1989 0028 6932     		adds	r2, r2, #105
 1990 002a FF32     		adds	r2, r2, #255
 1991 002c 16B2     		sxth	r6, r2
 1992              	.LVL284:
 1993              	.L71:
 147:..\..\..\arduinoLCD\test\Pain Drain\libraries\lvgl\src\widgets/lv_arc.c **** 
 1994              		.loc 1 147 0 is_stmt 1
 1995 002e 0028     		cmp	r0, #0
 1996 0030 02DA     		bge	.L72
 147:..\..\..\arduinoLCD\test\Pain Drain\libraries\lvgl\src\widgets/lv_arc.c **** 
 1997              		.loc 1 147 0 is_stmt 0 discriminator 1
 1998 0032 6933     		adds	r3, r3, #105
 1999 0034 FF33     		adds	r3, r3, #255
 2000 0036 18B2     		sxth	r0, r3
 2001              	.LVL285:
 2002              	.L72:
 149:..\..\..\arduinoLCD\test\Pain Drain\libraries\lvgl\src\widgets/lv_arc.c ****     else if(new_delta < old_delta) inv_arc_area(obj, arc->bg_angle_start, start, LV_PART_MAIN);
 2003              		.loc 1 149 0 is_stmt 1
 2004 0038 831B     		subs	r3, r0, r6
 2005 003a DA17     		asrs	r2, r3, #31
 2006 003c 9B18     		adds	r3, r3, r2
 2007 003e 5340     		eors	r3, r2
 2008 0040 B42B     		cmp	r3, #180
 2009 0042 03DD     		ble	.L73
 149:..\..\..\arduinoLCD\test\Pain Drain\libraries\lvgl\src\widgets/lv_arc.c ****     else if(new_delta < old_delta) inv_arc_area(obj, arc->bg_angle_start, start, LV_PART_MAIN);
 2010              		.loc 1 149 0 is_stmt 0 discriminator 1
 2011 0044 2800     		movs	r0, r5
 2012              	.LVL286:
 2013 0046 FFF7FEFF 		bl	lv_obj_invalidate
 2014              	.LVL287:
 2015 004a 0FE0     		b	.L74
 2016              	.LVL288:
 2017              	.L73:
 150:..\..\..\arduinoLCD\test\Pain Drain\libraries\lvgl\src\widgets/lv_arc.c ****     else if(old_delta < new_delta) inv_arc_area(obj, start, arc->bg_angle_start, LV_PART_MAIN);
 2018              		.loc 1 150 0 is_stmt 1
 2019 004c 8642     		cmp	r6, r0
 2020 004e 05DD     		ble	.L75
 150:..\..\..\arduinoLCD\test\Pain Drain\libraries\lvgl\src\widgets/lv_arc.c ****     else if(old_delta < new_delta) inv_arc_area(obj, start, arc->bg_angle_start, LV_PART_MAIN);
 2021              		.loc 1 150 0 is_stmt 0 discriminator 1
ARM GAS  C:\Users\haske\AppData\Local\Temp\ccmHbbn5.s 			page 63


 2022 0050 0023     		movs	r3, #0
 2023 0052 2200     		movs	r2, r4
 2024 0054 2800     		movs	r0, r5
 2025              	.LVL289:
 2026 0056 FFF7FEFF 		bl	inv_arc_area
 2027              	.LVL290:
 2028 005a 07E0     		b	.L74
 2029              	.LVL291:
 2030              	.L75:
 151:..\..\..\arduinoLCD\test\Pain Drain\libraries\lvgl\src\widgets/lv_arc.c **** 
 2031              		.loc 1 151 0 is_stmt 1
 2032 005c 8642     		cmp	r6, r0
 2033 005e 05DA     		bge	.L74
 151:..\..\..\arduinoLCD\test\Pain Drain\libraries\lvgl\src\widgets/lv_arc.c **** 
 2034              		.loc 1 151 0 is_stmt 0 discriminator 1
 2035 0060 0023     		movs	r3, #0
 2036 0062 0A00     		movs	r2, r1
 2037 0064 2100     		movs	r1, r4
 2038 0066 2800     		movs	r0, r5
 2039              	.LVL292:
 2040 0068 FFF7FEFF 		bl	inv_arc_area
 2041              	.LVL293:
 2042              	.L74:
 153:..\..\..\arduinoLCD\test\Pain Drain\libraries\lvgl\src\widgets/lv_arc.c **** 
 2043              		.loc 1 153 0 is_stmt 1
 2044 006c 6C85     		strh	r4, [r5, #42]
 155:..\..\..\arduinoLCD\test\Pain Drain\libraries\lvgl\src\widgets/lv_arc.c **** }
 2045              		.loc 1 155 0
 2046 006e 2800     		movs	r0, r5
 2047 0070 FFF7FEFF 		bl	value_update
 2048              	.LVL294:
 156:..\..\..\arduinoLCD\test\Pain Drain\libraries\lvgl\src\widgets/lv_arc.c **** 
 2049              		.loc 1 156 0
 2050              		@ sp needed
 2051              	.LVL295:
 2052              	.LVL296:
 2053              	.LVL297:
 2054 0074 70BD     		pop	{r4, r5, r6, pc}
 2055              		.cfi_endproc
 2056              	.LFE163:
 2057              		.size	lv_arc_set_bg_start_angle, .-lv_arc_set_bg_start_angle
 2058 0076 C046     		.section	.text.lv_arc_set_bg_end_angle,"ax",%progbits
 2059              		.align	2
 2060              		.global	lv_arc_set_bg_end_angle
 2061              		.code	16
 2062              		.thumb_func
 2063              		.type	lv_arc_set_bg_end_angle, %function
 2064              	lv_arc_set_bg_end_angle:
 2065              	.LFB164:
 159:..\..\..\arduinoLCD\test\Pain Drain\libraries\lvgl\src\widgets/lv_arc.c ****     LV_ASSERT_OBJ(obj, MY_CLASS);
 2066              		.loc 1 159 0
 2067              		.cfi_startproc
 2068              		@ args = 0, pretend = 0, frame = 0
 2069              		@ frame_needed = 0, uses_anonymous_args = 0
 2070              	.LVL298:
 2071 0000 70B5     		push	{r4, r5, r6, lr}
 2072              		.cfi_def_cfa_offset 16
ARM GAS  C:\Users\haske\AppData\Local\Temp\ccmHbbn5.s 			page 64


 2073              		.cfi_offset 4, -16
 2074              		.cfi_offset 5, -12
 2075              		.cfi_offset 6, -8
 2076              		.cfi_offset 14, -4
 2077 0002 0500     		movs	r5, r0
 2078 0004 0C00     		movs	r4, r1
 2079              	.LVL299:
 163:..\..\..\arduinoLCD\test\Pain Drain\libraries\lvgl\src\widgets/lv_arc.c **** 
 2080              		.loc 1 163 0
 2081 0006 B423     		movs	r3, #180
 2082 0008 5B00     		lsls	r3, r3, #1
 2083 000a 9942     		cmp	r1, r3
 2084 000c 02D9     		bls	.L77
 163:..\..\..\arduinoLCD\test\Pain Drain\libraries\lvgl\src\widgets/lv_arc.c **** 
 2085              		.loc 1 163 0 is_stmt 0 discriminator 1
 2086 000e 693C     		subs	r4, r4, #105
 2087 0010 FF3C     		subs	r4, r4, #255
 2088 0012 A4B2     		uxth	r4, r4
 2089              	.LVL300:
 2090              	.L77:
 165:..\..\..\arduinoLCD\test\Pain Drain\libraries\lvgl\src\widgets/lv_arc.c ****     int16_t new_delta = end - arc->bg_angle_start;
 2091              		.loc 1 165 0 is_stmt 1
 2092 0014 A98D     		ldrh	r1, [r5, #44]
 2093 0016 6B8D     		ldrh	r3, [r5, #42]
 2094 0018 CA1A     		subs	r2, r1, r3
 2095 001a 92B2     		uxth	r2, r2
 2096 001c 16B2     		sxth	r6, r2
 2097              	.LVL301:
 166:..\..\..\arduinoLCD\test\Pain Drain\libraries\lvgl\src\widgets/lv_arc.c **** 
 2098              		.loc 1 166 0
 2099 001e E31A     		subs	r3, r4, r3
 2100 0020 9BB2     		uxth	r3, r3
 2101 0022 18B2     		sxth	r0, r3
 2102              	.LVL302:
 168:..\..\..\arduinoLCD\test\Pain Drain\libraries\lvgl\src\widgets/lv_arc.c ****     if(new_delta < 0) new_delta = 360 + new_delta;
 2103              		.loc 1 168 0
 2104 0024 002E     		cmp	r6, #0
 2105 0026 02DA     		bge	.L78
 168:..\..\..\arduinoLCD\test\Pain Drain\libraries\lvgl\src\widgets/lv_arc.c ****     if(new_delta < 0) new_delta = 360 + new_delta;
 2106              		.loc 1 168 0 is_stmt 0 discriminator 1
 2107 0028 6932     		adds	r2, r2, #105
 2108 002a FF32     		adds	r2, r2, #255
 2109 002c 16B2     		sxth	r6, r2
 2110              	.LVL303:
 2111              	.L78:
 169:..\..\..\arduinoLCD\test\Pain Drain\libraries\lvgl\src\widgets/lv_arc.c **** 
 2112              		.loc 1 169 0 is_stmt 1
 2113 002e 0028     		cmp	r0, #0
 2114 0030 02DA     		bge	.L79
 169:..\..\..\arduinoLCD\test\Pain Drain\libraries\lvgl\src\widgets/lv_arc.c **** 
 2115              		.loc 1 169 0 is_stmt 0 discriminator 1
 2116 0032 6933     		adds	r3, r3, #105
 2117 0034 FF33     		adds	r3, r3, #255
 2118 0036 18B2     		sxth	r0, r3
 2119              	.LVL304:
 2120              	.L79:
 171:..\..\..\arduinoLCD\test\Pain Drain\libraries\lvgl\src\widgets/lv_arc.c ****     else if(new_delta < old_delta) inv_arc_area(obj, end, arc->bg_angle_end, LV_PART_MAIN);
ARM GAS  C:\Users\haske\AppData\Local\Temp\ccmHbbn5.s 			page 65


 2121              		.loc 1 171 0 is_stmt 1
 2122 0038 831B     		subs	r3, r0, r6
 2123 003a DA17     		asrs	r2, r3, #31
 2124 003c 9B18     		adds	r3, r3, r2
 2125 003e 5340     		eors	r3, r2
 2126 0040 B42B     		cmp	r3, #180
 2127 0042 03DD     		ble	.L80
 171:..\..\..\arduinoLCD\test\Pain Drain\libraries\lvgl\src\widgets/lv_arc.c ****     else if(new_delta < old_delta) inv_arc_area(obj, end, arc->bg_angle_end, LV_PART_MAIN);
 2128              		.loc 1 171 0 is_stmt 0 discriminator 1
 2129 0044 2800     		movs	r0, r5
 2130              	.LVL305:
 2131 0046 FFF7FEFF 		bl	lv_obj_invalidate
 2132              	.LVL306:
 2133 004a 0FE0     		b	.L81
 2134              	.LVL307:
 2135              	.L80:
 172:..\..\..\arduinoLCD\test\Pain Drain\libraries\lvgl\src\widgets/lv_arc.c ****     else if(old_delta < new_delta) inv_arc_area(obj, arc->bg_angle_end, end, LV_PART_MAIN);
 2136              		.loc 1 172 0 is_stmt 1
 2137 004c 8642     		cmp	r6, r0
 2138 004e 06DD     		ble	.L82
 172:..\..\..\arduinoLCD\test\Pain Drain\libraries\lvgl\src\widgets/lv_arc.c ****     else if(old_delta < new_delta) inv_arc_area(obj, arc->bg_angle_end, end, LV_PART_MAIN);
 2139              		.loc 1 172 0 is_stmt 0 discriminator 1
 2140 0050 0023     		movs	r3, #0
 2141 0052 0A00     		movs	r2, r1
 2142 0054 2100     		movs	r1, r4
 2143 0056 2800     		movs	r0, r5
 2144              	.LVL308:
 2145 0058 FFF7FEFF 		bl	inv_arc_area
 2146              	.LVL309:
 2147 005c 06E0     		b	.L81
 2148              	.LVL310:
 2149              	.L82:
 173:..\..\..\arduinoLCD\test\Pain Drain\libraries\lvgl\src\widgets/lv_arc.c **** 
 2150              		.loc 1 173 0 is_stmt 1
 2151 005e 8642     		cmp	r6, r0
 2152 0060 04DA     		bge	.L81
 173:..\..\..\arduinoLCD\test\Pain Drain\libraries\lvgl\src\widgets/lv_arc.c **** 
 2153              		.loc 1 173 0 is_stmt 0 discriminator 1
 2154 0062 0023     		movs	r3, #0
 2155 0064 2200     		movs	r2, r4
 2156 0066 2800     		movs	r0, r5
 2157              	.LVL311:
 2158 0068 FFF7FEFF 		bl	inv_arc_area
 2159              	.LVL312:
 2160              	.L81:
 175:..\..\..\arduinoLCD\test\Pain Drain\libraries\lvgl\src\widgets/lv_arc.c **** 
 2161              		.loc 1 175 0 is_stmt 1
 2162 006c AC85     		strh	r4, [r5, #44]
 177:..\..\..\arduinoLCD\test\Pain Drain\libraries\lvgl\src\widgets/lv_arc.c **** }
 2163              		.loc 1 177 0
 2164 006e 2800     		movs	r0, r5
 2165 0070 FFF7FEFF 		bl	value_update
 2166              	.LVL313:
 178:..\..\..\arduinoLCD\test\Pain Drain\libraries\lvgl\src\widgets/lv_arc.c **** 
 2167              		.loc 1 178 0
 2168              		@ sp needed
 2169              	.LVL314:
ARM GAS  C:\Users\haske\AppData\Local\Temp\ccmHbbn5.s 			page 66


 2170              	.LVL315:
 2171              	.LVL316:
 2172 0074 70BD     		pop	{r4, r5, r6, pc}
 2173              		.cfi_endproc
 2174              	.LFE164:
 2175              		.size	lv_arc_set_bg_end_angle, .-lv_arc_set_bg_end_angle
 2176 0076 C046     		.section	.text.lv_arc_set_bg_angles,"ax",%progbits
 2177              		.align	2
 2178              		.global	lv_arc_set_bg_angles
 2179              		.code	16
 2180              		.thumb_func
 2181              		.type	lv_arc_set_bg_angles, %function
 2182              	lv_arc_set_bg_angles:
 2183              	.LFB165:
 181:..\..\..\arduinoLCD\test\Pain Drain\libraries\lvgl\src\widgets/lv_arc.c ****     lv_arc_set_bg_end_angle(obj, end);
 2184              		.loc 1 181 0
 2185              		.cfi_startproc
 2186              		@ args = 0, pretend = 0, frame = 0
 2187              		@ frame_needed = 0, uses_anonymous_args = 0
 2188              	.LVL317:
 2189 0000 70B5     		push	{r4, r5, r6, lr}
 2190              		.cfi_def_cfa_offset 16
 2191              		.cfi_offset 4, -16
 2192              		.cfi_offset 5, -12
 2193              		.cfi_offset 6, -8
 2194              		.cfi_offset 14, -4
 2195 0002 0400     		movs	r4, r0
 2196 0004 0D00     		movs	r5, r1
 182:..\..\..\arduinoLCD\test\Pain Drain\libraries\lvgl\src\widgets/lv_arc.c ****     lv_arc_set_bg_start_angle(obj, start);
 2197              		.loc 1 182 0
 2198 0006 1100     		movs	r1, r2
 2199              	.LVL318:
 2200 0008 FFF7FEFF 		bl	lv_arc_set_bg_end_angle
 2201              	.LVL319:
 183:..\..\..\arduinoLCD\test\Pain Drain\libraries\lvgl\src\widgets/lv_arc.c **** }
 2202              		.loc 1 183 0
 2203 000c 2900     		movs	r1, r5
 2204 000e 2000     		movs	r0, r4
 2205 0010 FFF7FEFF 		bl	lv_arc_set_bg_start_angle
 2206              	.LVL320:
 184:..\..\..\arduinoLCD\test\Pain Drain\libraries\lvgl\src\widgets/lv_arc.c **** 
 2207              		.loc 1 184 0
 2208              		@ sp needed
 2209              	.LVL321:
 2210 0014 70BD     		pop	{r4, r5, r6, pc}
 2211              		.cfi_endproc
 2212              	.LFE165:
 2213              		.size	lv_arc_set_bg_angles, .-lv_arc_set_bg_angles
 2214 0016 C046     		.section	.text.lv_arc_set_rotation,"ax",%progbits
 2215              		.align	2
 2216              		.global	lv_arc_set_rotation
 2217              		.code	16
 2218              		.thumb_func
 2219              		.type	lv_arc_set_rotation, %function
 2220              	lv_arc_set_rotation:
 2221              	.LFB166:
 187:..\..\..\arduinoLCD\test\Pain Drain\libraries\lvgl\src\widgets/lv_arc.c ****     LV_ASSERT_OBJ(obj, MY_CLASS);
ARM GAS  C:\Users\haske\AppData\Local\Temp\ccmHbbn5.s 			page 67


 2222              		.loc 1 187 0
 2223              		.cfi_startproc
 2224              		@ args = 0, pretend = 0, frame = 0
 2225              		@ frame_needed = 0, uses_anonymous_args = 0
 2226              	.LVL322:
 2227 0000 10B5     		push	{r4, lr}
 2228              		.cfi_def_cfa_offset 8
 2229              		.cfi_offset 4, -8
 2230              		.cfi_offset 14, -4
 2231              	.LVL323:
 191:..\..\..\arduinoLCD\test\Pain Drain\libraries\lvgl\src\widgets/lv_arc.c **** 
 2232              		.loc 1 191 0
 2233 0002 8184     		strh	r1, [r0, #36]
 193:..\..\..\arduinoLCD\test\Pain Drain\libraries\lvgl\src\widgets/lv_arc.c **** }
 2234              		.loc 1 193 0
 2235 0004 FFF7FEFF 		bl	lv_obj_invalidate
 2236              	.LVL324:
 194:..\..\..\arduinoLCD\test\Pain Drain\libraries\lvgl\src\widgets/lv_arc.c **** 
 2237              		.loc 1 194 0
 2238              		@ sp needed
 2239 0008 10BD     		pop	{r4, pc}
 2240              		.cfi_endproc
 2241              	.LFE166:
 2242              		.size	lv_arc_set_rotation, .-lv_arc_set_rotation
 2243 000a C046     		.section	.text.lv_arc_set_value,"ax",%progbits
 2244              		.align	2
 2245              		.global	lv_arc_set_value
 2246              		.code	16
 2247              		.thumb_func
 2248              		.type	lv_arc_set_value, %function
 2249              	lv_arc_set_value:
 2250              	.LFB168:
 226:..\..\..\arduinoLCD\test\Pain Drain\libraries\lvgl\src\widgets/lv_arc.c ****     LV_ASSERT_OBJ(obj, MY_CLASS);
 2251              		.loc 1 226 0
 2252              		.cfi_startproc
 2253              		@ args = 0, pretend = 0, frame = 0
 2254              		@ frame_needed = 0, uses_anonymous_args = 0
 2255              	.LVL325:
 2256 0000 10B5     		push	{r4, lr}
 2257              		.cfi_def_cfa_offset 8
 2258              		.cfi_offset 4, -8
 2259              		.cfi_offset 14, -4
 2260              	.LVL326:
 230:..\..\..\arduinoLCD\test\Pain Drain\libraries\lvgl\src\widgets/lv_arc.c **** 
 2261              		.loc 1 230 0
 2262 0002 2E23     		movs	r3, #46
 2263 0004 C25E     		ldrsh	r2, [r0, r3]
 2264 0006 8A42     		cmp	r2, r1
 2265 0008 12D0     		beq	.L85
 233:..\..\..\arduinoLCD\test\Pain Drain\libraries\lvgl\src\widgets/lv_arc.c ****     new_value = new_value < arc->min_value ? arc->min_value : new_value;
 2266              		.loc 1 233 0
 2267 000a 3223     		movs	r3, #50
 2268 000c C45E     		ldrsh	r4, [r0, r3]
 2269 000e 0B1C     		adds	r3, r1, #0
 2270 0010 A142     		cmp	r1, r4
 2271 0012 00DD     		ble	.L87
 2272 0014 231C     		adds	r3, r4, #0
ARM GAS  C:\Users\haske\AppData\Local\Temp\ccmHbbn5.s 			page 68


 2273              	.L87:
 2274              	.LVL327:
 234:..\..\..\arduinoLCD\test\Pain Drain\libraries\lvgl\src\widgets/lv_arc.c **** 
 2275              		.loc 1 234 0
 2276 0016 3021     		movs	r1, #48
 2277 0018 445E     		ldrsh	r4, [r0, r1]
 2278              	.LVL328:
 2279 001a 191C     		adds	r1, r3, #0
 2280 001c 1BB2     		sxth	r3, r3
 2281              	.LVL329:
 2282 001e A342     		cmp	r3, r4
 2283 0020 00DA     		bge	.L88
 2284 0022 211C     		adds	r1, r4, #0
 2285              	.LVL330:
 2286              	.L88:
 2287 0024 0BB2     		sxth	r3, r1
 2288              	.LVL331:
 236:..\..\..\arduinoLCD\test\Pain Drain\libraries\lvgl\src\widgets/lv_arc.c ****     arc->value = new_value;
 2289              		.loc 1 236 0
 2290 0026 9A42     		cmp	r2, r3
 2291 0028 02D0     		beq	.L85
 237:..\..\..\arduinoLCD\test\Pain Drain\libraries\lvgl\src\widgets/lv_arc.c **** 
 2292              		.loc 1 237 0
 2293 002a C185     		strh	r1, [r0, #46]
 239:..\..\..\arduinoLCD\test\Pain Drain\libraries\lvgl\src\widgets/lv_arc.c **** }
 2294              		.loc 1 239 0
 2295 002c FFF7FEFF 		bl	value_update
 2296              	.LVL332:
 2297              	.L85:
 240:..\..\..\arduinoLCD\test\Pain Drain\libraries\lvgl\src\widgets/lv_arc.c **** 
 2298              		.loc 1 240 0
 2299              		@ sp needed
 2300 0030 10BD     		pop	{r4, pc}
 2301              		.cfi_endproc
 2302              	.LFE168:
 2303              		.size	lv_arc_set_value, .-lv_arc_set_value
 2304 0032 C046     		.section	.text.lv_arc_set_mode,"ax",%progbits
 2305              		.align	2
 2306              		.global	lv_arc_set_mode
 2307              		.code	16
 2308              		.thumb_func
 2309              		.type	lv_arc_set_mode, %function
 2310              	lv_arc_set_mode:
 2311              	.LFB167:
 197:..\..\..\arduinoLCD\test\Pain Drain\libraries\lvgl\src\widgets/lv_arc.c ****     LV_ASSERT_OBJ(obj, MY_CLASS);
 2312              		.loc 1 197 0
 2313              		.cfi_startproc
 2314              		@ args = 0, pretend = 0, frame = 0
 2315              		@ frame_needed = 0, uses_anonymous_args = 0
 2316              	.LVL333:
 2317 0000 F8B5     		push	{r3, r4, r5, r6, r7, lr}
 2318              		.cfi_def_cfa_offset 24
 2319              		.cfi_offset 3, -24
 2320              		.cfi_offset 4, -20
 2321              		.cfi_offset 5, -16
 2322              		.cfi_offset 6, -12
 2323              		.cfi_offset 7, -8
ARM GAS  C:\Users\haske\AppData\Local\Temp\ccmHbbn5.s 			page 69


 2324              		.cfi_offset 14, -4
 2325 0002 0400     		movs	r4, r0
 2326              	.LVL334:
 201:..\..\..\arduinoLCD\test\Pain Drain\libraries\lvgl\src\widgets/lv_arc.c **** 
 2327              		.loc 1 201 0
 2328 0004 2E23     		movs	r3, #46
 2329 0006 C65E     		ldrsh	r6, [r0, r3]
 2330              	.LVL335:
 203:..\..\..\arduinoLCD\test\Pain Drain\libraries\lvgl\src\widgets/lv_arc.c ****     arc->value = -1; /** Force set_value handling*/
 2331              		.loc 1 203 0
 2332 0008 0320     		movs	r0, #3
 2333              	.LVL336:
 2334 000a 0840     		ands	r0, r1
 2335 000c 3421     		movs	r1, #52
 2336              	.LVL337:
 2337 000e 4200     		lsls	r2, r0, #1
 2338 0010 635C     		ldrb	r3, [r4, r1]
 2339 0012 0625     		movs	r5, #6
 2340 0014 AB43     		bics	r3, r5
 2341 0016 1343     		orrs	r3, r2
 2342 0018 6354     		strb	r3, [r4, r1]
 204:..\..\..\arduinoLCD\test\Pain Drain\libraries\lvgl\src\widgets/lv_arc.c **** 
 2343              		.loc 1 204 0
 2344 001a 0123     		movs	r3, #1
 2345 001c 5B42     		rsbs	r3, r3, #0
 2346 001e E385     		strh	r3, [r4, #46]
 206:..\..\..\arduinoLCD\test\Pain Drain\libraries\lvgl\src\widgets/lv_arc.c ****     if(arc->bg_angle_end < arc->bg_angle_start) bg_end = arc->bg_angle_end + 360;
 2347              		.loc 1 206 0
 2348 0020 A78D     		ldrh	r7, [r4, #44]
 2349 0022 3BB2     		sxth	r3, r7
 2350              	.LVL338:
 207:..\..\..\arduinoLCD\test\Pain Drain\libraries\lvgl\src\widgets/lv_arc.c **** 
 2351              		.loc 1 207 0
 2352 0024 618D     		ldrh	r1, [r4, #42]
 2353 0026 8F42     		cmp	r7, r1
 2354 0028 03D2     		bcs	.L90
 207:..\..\..\arduinoLCD\test\Pain Drain\libraries\lvgl\src\widgets/lv_arc.c **** 
 2355              		.loc 1 207 0 is_stmt 0 discriminator 1
 2356 002a 3A00     		movs	r2, r7
 2357 002c 6932     		adds	r2, r2, #105
 2358 002e FF32     		adds	r2, r2, #255
 2359 0030 13B2     		sxth	r3, r2
 2360              	.LVL339:
 2361              	.L90:
 209:..\..\..\arduinoLCD\test\Pain Drain\libraries\lvgl\src\widgets/lv_arc.c ****         case LV_ARC_MODE_SYMMETRICAL:
 2362              		.loc 1 209 0 is_stmt 1
 2363 0032 0128     		cmp	r0, #1
 2364 0034 02D0     		beq	.L92
 2365 0036 0228     		cmp	r0, #2
 2366 0038 0ED0     		beq	.L93
 2367 003a 12E0     		b	.L95
 2368              	.L92:
 211:..\..\..\arduinoLCD\test\Pain Drain\libraries\lvgl\src\widgets/lv_arc.c ****             lv_arc_set_start_angle(obj, bg_midpoint);
 2369              		.loc 1 211 0
 2370 003c CB18     		adds	r3, r1, r3
 2371              	.LVL340:
 2372 003e DD0F     		lsrs	r5, r3, #31
ARM GAS  C:\Users\haske\AppData\Local\Temp\ccmHbbn5.s 			page 70


 2373 0040 EB18     		adds	r3, r5, r3
 2374 0042 5B10     		asrs	r3, r3, #1
 2375              	.LVL341:
 212:..\..\..\arduinoLCD\test\Pain Drain\libraries\lvgl\src\widgets/lv_arc.c ****             lv_arc_set_end_angle(obj, bg_midpoint);
 2376              		.loc 1 212 0
 2377 0044 9DB2     		uxth	r5, r3
 2378 0046 2900     		movs	r1, r5
 2379 0048 2000     		movs	r0, r4
 2380 004a FFF7FEFF 		bl	lv_arc_set_start_angle
 2381              	.LVL342:
 213:..\..\..\arduinoLCD\test\Pain Drain\libraries\lvgl\src\widgets/lv_arc.c ****             break;
 2382              		.loc 1 213 0
 2383 004e 2900     		movs	r1, r5
 2384 0050 2000     		movs	r0, r4
 2385 0052 FFF7FEFF 		bl	lv_arc_set_end_angle
 2386              	.LVL343:
 214:..\..\..\arduinoLCD\test\Pain Drain\libraries\lvgl\src\widgets/lv_arc.c ****         case LV_ARC_MODE_REVERSE:
 2387              		.loc 1 214 0
 2388 0056 07E0     		b	.L94
 2389              	.LVL344:
 2390              	.L93:
 216:..\..\..\arduinoLCD\test\Pain Drain\libraries\lvgl\src\widgets/lv_arc.c ****             break;
 2391              		.loc 1 216 0
 2392 0058 3900     		movs	r1, r7
 2393 005a 2000     		movs	r0, r4
 2394 005c FFF7FEFF 		bl	lv_arc_set_end_angle
 2395              	.LVL345:
 217:..\..\..\arduinoLCD\test\Pain Drain\libraries\lvgl\src\widgets/lv_arc.c ****         default: /** LV_ARC_TYPE_NORMAL*/
 2396              		.loc 1 217 0
 2397 0060 02E0     		b	.L94
 2398              	.LVL346:
 2399              	.L95:
 219:..\..\..\arduinoLCD\test\Pain Drain\libraries\lvgl\src\widgets/lv_arc.c ****     }
 2400              		.loc 1 219 0
 2401 0062 2000     		movs	r0, r4
 2402 0064 FFF7FEFF 		bl	lv_arc_set_start_angle
 2403              	.LVL347:
 2404              	.L94:
 222:..\..\..\arduinoLCD\test\Pain Drain\libraries\lvgl\src\widgets/lv_arc.c **** }
 2405              		.loc 1 222 0
 2406 0068 3100     		movs	r1, r6
 2407 006a 2000     		movs	r0, r4
 2408 006c FFF7FEFF 		bl	lv_arc_set_value
 2409              	.LVL348:
 223:..\..\..\arduinoLCD\test\Pain Drain\libraries\lvgl\src\widgets/lv_arc.c **** 
 2410              		.loc 1 223 0
 2411              		@ sp needed
 2412              	.LVL349:
 2413              	.LVL350:
 2414 0070 F8BD     		pop	{r3, r4, r5, r6, r7, pc}
 2415              		.cfi_endproc
 2416              	.LFE167:
 2417              		.size	lv_arc_set_mode, .-lv_arc_set_mode
 2418 0072 C046     		.section	.text.lv_arc_set_range,"ax",%progbits
 2419              		.align	2
 2420              		.global	lv_arc_set_range
 2421              		.code	16
ARM GAS  C:\Users\haske\AppData\Local\Temp\ccmHbbn5.s 			page 71


 2422              		.thumb_func
 2423              		.type	lv_arc_set_range, %function
 2424              	lv_arc_set_range:
 2425              	.LFB169:
 243:..\..\..\arduinoLCD\test\Pain Drain\libraries\lvgl\src\widgets/lv_arc.c ****     LV_ASSERT_OBJ(obj, MY_CLASS);
 2426              		.loc 1 243 0
 2427              		.cfi_startproc
 2428              		@ args = 0, pretend = 0, frame = 0
 2429              		@ frame_needed = 0, uses_anonymous_args = 0
 2430              	.LVL351:
 2431 0000 10B5     		push	{r4, lr}
 2432              		.cfi_def_cfa_offset 8
 2433              		.cfi_offset 4, -8
 2434              		.cfi_offset 14, -4
 2435              	.LVL352:
 247:..\..\..\arduinoLCD\test\Pain Drain\libraries\lvgl\src\widgets/lv_arc.c **** 
 2436              		.loc 1 247 0
 2437 0002 3024     		movs	r4, #48
 2438 0004 035F     		ldrsh	r3, [r0, r4]
 2439 0006 8B42     		cmp	r3, r1
 2440 0008 03D1     		bne	.L97
 247:..\..\..\arduinoLCD\test\Pain Drain\libraries\lvgl\src\widgets/lv_arc.c **** 
 2441              		.loc 1 247 0 is_stmt 0 discriminator 1
 2442 000a 3224     		movs	r4, #50
 2443 000c 035F     		ldrsh	r3, [r0, r4]
 2444 000e 9342     		cmp	r3, r2
 2445 0010 0DD0     		beq	.L96
 2446              	.L97:
 249:..\..\..\arduinoLCD\test\Pain Drain\libraries\lvgl\src\widgets/lv_arc.c ****     arc->max_value = max;
 2447              		.loc 1 249 0 is_stmt 1
 2448 0012 0186     		strh	r1, [r0, #48]
 250:..\..\..\arduinoLCD\test\Pain Drain\libraries\lvgl\src\widgets/lv_arc.c **** 
 2449              		.loc 1 250 0
 2450 0014 4286     		strh	r2, [r0, #50]
 252:..\..\..\arduinoLCD\test\Pain Drain\libraries\lvgl\src\widgets/lv_arc.c ****         arc->value = min;
 2451              		.loc 1 252 0
 2452 0016 2E24     		movs	r4, #46
 2453 0018 035F     		ldrsh	r3, [r0, r4]
 2454 001a 9942     		cmp	r1, r3
 2455 001c 00DD     		ble	.L99
 253:..\..\..\arduinoLCD\test\Pain Drain\libraries\lvgl\src\widgets/lv_arc.c ****     }
 2456              		.loc 1 253 0
 2457 001e C185     		strh	r1, [r0, #46]
 2458              	.L99:
 255:..\..\..\arduinoLCD\test\Pain Drain\libraries\lvgl\src\widgets/lv_arc.c ****         arc->value = max;
 2459              		.loc 1 255 0
 2460 0020 2E21     		movs	r1, #46
 2461 0022 435E     		ldrsh	r3, [r0, r1]
 2462              	.LVL353:
 2463 0024 9A42     		cmp	r2, r3
 2464 0026 00DA     		bge	.L100
 256:..\..\..\arduinoLCD\test\Pain Drain\libraries\lvgl\src\widgets/lv_arc.c ****     }
 2465              		.loc 1 256 0
 2466 0028 C285     		strh	r2, [r0, #46]
 2467              	.L100:
 259:..\..\..\arduinoLCD\test\Pain Drain\libraries\lvgl\src\widgets/lv_arc.c **** }
 2468              		.loc 1 259 0
ARM GAS  C:\Users\haske\AppData\Local\Temp\ccmHbbn5.s 			page 72


 2469 002a FFF7FEFF 		bl	value_update
 2470              	.LVL354:
 2471              	.L96:
 260:..\..\..\arduinoLCD\test\Pain Drain\libraries\lvgl\src\widgets/lv_arc.c **** 
 2472              		.loc 1 260 0
 2473              		@ sp needed
 2474 002e 10BD     		pop	{r4, pc}
 2475              		.cfi_endproc
 2476              	.LFE169:
 2477              		.size	lv_arc_set_range, .-lv_arc_set_range
 2478              		.section	.text.lv_arc_set_change_rate,"ax",%progbits
 2479              		.align	2
 2480              		.global	lv_arc_set_change_rate
 2481              		.code	16
 2482              		.thumb_func
 2483              		.type	lv_arc_set_change_rate, %function
 2484              	lv_arc_set_change_rate:
 2485              	.LFB170:
 263:..\..\..\arduinoLCD\test\Pain Drain\libraries\lvgl\src\widgets/lv_arc.c ****     LV_ASSERT_OBJ(obj, MY_CLASS);
 2486              		.loc 1 263 0
 2487              		.cfi_startproc
 2488              		@ args = 0, pretend = 0, frame = 0
 2489              		@ frame_needed = 0, uses_anonymous_args = 0
 2490              		@ link register save eliminated.
 2491              	.LVL355:
 267:..\..\..\arduinoLCD\test\Pain Drain\libraries\lvgl\src\widgets/lv_arc.c **** }
 2492              		.loc 1 267 0
 2493 0000 C186     		strh	r1, [r0, #54]
 268:..\..\..\arduinoLCD\test\Pain Drain\libraries\lvgl\src\widgets/lv_arc.c **** 
 2494              		.loc 1 268 0
 2495              		@ sp needed
 2496 0002 7047     		bx	lr
 2497              		.cfi_endproc
 2498              	.LFE170:
 2499              		.size	lv_arc_set_change_rate, .-lv_arc_set_change_rate
 2500              		.section	.text.lv_arc_get_angle_start,"ax",%progbits
 2501              		.align	2
 2502              		.global	lv_arc_get_angle_start
 2503              		.code	16
 2504              		.thumb_func
 2505              		.type	lv_arc_get_angle_start, %function
 2506              	lv_arc_get_angle_start:
 2507              	.LFB171:
 275:..\..\..\arduinoLCD\test\Pain Drain\libraries\lvgl\src\widgets/lv_arc.c ****     LV_ASSERT_OBJ(obj, MY_CLASS);
 2508              		.loc 1 275 0
 2509              		.cfi_startproc
 2510              		@ args = 0, pretend = 0, frame = 0
 2511              		@ frame_needed = 0, uses_anonymous_args = 0
 2512              		@ link register save eliminated.
 2513              	.LVL356:
 277:..\..\..\arduinoLCD\test\Pain Drain\libraries\lvgl\src\widgets/lv_arc.c **** }
 2514              		.loc 1 277 0
 2515 0000 C08C     		ldrh	r0, [r0, #38]
 2516              	.LVL357:
 278:..\..\..\arduinoLCD\test\Pain Drain\libraries\lvgl\src\widgets/lv_arc.c **** 
 2517              		.loc 1 278 0
 2518              		@ sp needed
ARM GAS  C:\Users\haske\AppData\Local\Temp\ccmHbbn5.s 			page 73


 2519 0002 7047     		bx	lr
 2520              		.cfi_endproc
 2521              	.LFE171:
 2522              		.size	lv_arc_get_angle_start, .-lv_arc_get_angle_start
 2523              		.section	.text.lv_arc_get_angle_end,"ax",%progbits
 2524              		.align	2
 2525              		.global	lv_arc_get_angle_end
 2526              		.code	16
 2527              		.thumb_func
 2528              		.type	lv_arc_get_angle_end, %function
 2529              	lv_arc_get_angle_end:
 2530              	.LFB172:
 281:..\..\..\arduinoLCD\test\Pain Drain\libraries\lvgl\src\widgets/lv_arc.c ****     LV_ASSERT_OBJ(obj, MY_CLASS);
 2531              		.loc 1 281 0
 2532              		.cfi_startproc
 2533              		@ args = 0, pretend = 0, frame = 0
 2534              		@ frame_needed = 0, uses_anonymous_args = 0
 2535              		@ link register save eliminated.
 2536              	.LVL358:
 283:..\..\..\arduinoLCD\test\Pain Drain\libraries\lvgl\src\widgets/lv_arc.c **** }
 2537              		.loc 1 283 0
 2538 0000 008D     		ldrh	r0, [r0, #40]
 2539              	.LVL359:
 284:..\..\..\arduinoLCD\test\Pain Drain\libraries\lvgl\src\widgets/lv_arc.c **** 
 2540              		.loc 1 284 0
 2541              		@ sp needed
 2542 0002 7047     		bx	lr
 2543              		.cfi_endproc
 2544              	.LFE172:
 2545              		.size	lv_arc_get_angle_end, .-lv_arc_get_angle_end
 2546              		.section	.text.lv_arc_get_bg_angle_start,"ax",%progbits
 2547              		.align	2
 2548              		.global	lv_arc_get_bg_angle_start
 2549              		.code	16
 2550              		.thumb_func
 2551              		.type	lv_arc_get_bg_angle_start, %function
 2552              	lv_arc_get_bg_angle_start:
 2553              	.LFB173:
 287:..\..\..\arduinoLCD\test\Pain Drain\libraries\lvgl\src\widgets/lv_arc.c ****     LV_ASSERT_OBJ(obj, MY_CLASS);
 2554              		.loc 1 287 0
 2555              		.cfi_startproc
 2556              		@ args = 0, pretend = 0, frame = 0
 2557              		@ frame_needed = 0, uses_anonymous_args = 0
 2558              		@ link register save eliminated.
 2559              	.LVL360:
 289:..\..\..\arduinoLCD\test\Pain Drain\libraries\lvgl\src\widgets/lv_arc.c **** }
 2560              		.loc 1 289 0
 2561 0000 408D     		ldrh	r0, [r0, #42]
 2562              	.LVL361:
 290:..\..\..\arduinoLCD\test\Pain Drain\libraries\lvgl\src\widgets/lv_arc.c **** 
 2563              		.loc 1 290 0
 2564              		@ sp needed
 2565 0002 7047     		bx	lr
 2566              		.cfi_endproc
 2567              	.LFE173:
 2568              		.size	lv_arc_get_bg_angle_start, .-lv_arc_get_bg_angle_start
 2569              		.section	.text.lv_arc_get_bg_angle_end,"ax",%progbits
ARM GAS  C:\Users\haske\AppData\Local\Temp\ccmHbbn5.s 			page 74


 2570              		.align	2
 2571              		.global	lv_arc_get_bg_angle_end
 2572              		.code	16
 2573              		.thumb_func
 2574              		.type	lv_arc_get_bg_angle_end, %function
 2575              	lv_arc_get_bg_angle_end:
 2576              	.LFB174:
 293:..\..\..\arduinoLCD\test\Pain Drain\libraries\lvgl\src\widgets/lv_arc.c ****     LV_ASSERT_OBJ(obj, MY_CLASS);
 2577              		.loc 1 293 0
 2578              		.cfi_startproc
 2579              		@ args = 0, pretend = 0, frame = 0
 2580              		@ frame_needed = 0, uses_anonymous_args = 0
 2581              		@ link register save eliminated.
 2582              	.LVL362:
 295:..\..\..\arduinoLCD\test\Pain Drain\libraries\lvgl\src\widgets/lv_arc.c **** }
 2583              		.loc 1 295 0
 2584 0000 808D     		ldrh	r0, [r0, #44]
 2585              	.LVL363:
 296:..\..\..\arduinoLCD\test\Pain Drain\libraries\lvgl\src\widgets/lv_arc.c **** 
 2586              		.loc 1 296 0
 2587              		@ sp needed
 2588 0002 7047     		bx	lr
 2589              		.cfi_endproc
 2590              	.LFE174:
 2591              		.size	lv_arc_get_bg_angle_end, .-lv_arc_get_bg_angle_end
 2592              		.section	.text.lv_arc_get_value,"ax",%progbits
 2593              		.align	2
 2594              		.global	lv_arc_get_value
 2595              		.code	16
 2596              		.thumb_func
 2597              		.type	lv_arc_get_value, %function
 2598              	lv_arc_get_value:
 2599              	.LFB175:
 299:..\..\..\arduinoLCD\test\Pain Drain\libraries\lvgl\src\widgets/lv_arc.c ****     LV_ASSERT_OBJ(obj, MY_CLASS);
 2600              		.loc 1 299 0
 2601              		.cfi_startproc
 2602              		@ args = 0, pretend = 0, frame = 0
 2603              		@ frame_needed = 0, uses_anonymous_args = 0
 2604              		@ link register save eliminated.
 2605              	.LVL364:
 301:..\..\..\arduinoLCD\test\Pain Drain\libraries\lvgl\src\widgets/lv_arc.c **** }
 2606              		.loc 1 301 0
 2607 0000 2E23     		movs	r3, #46
 2608 0002 C05E     		ldrsh	r0, [r0, r3]
 2609              	.LVL365:
 302:..\..\..\arduinoLCD\test\Pain Drain\libraries\lvgl\src\widgets/lv_arc.c **** 
 2610              		.loc 1 302 0
 2611              		@ sp needed
 2612 0004 7047     		bx	lr
 2613              		.cfi_endproc
 2614              	.LFE175:
 2615              		.size	lv_arc_get_value, .-lv_arc_get_value
 2616              		.global	__aeabi_uidiv
 2617              		.global	__aeabi_idiv
 2618 0006 C046     		.section	.text.lv_arc_event,"ax",%progbits
 2619              		.align	2
 2620              		.code	16
ARM GAS  C:\Users\haske\AppData\Local\Temp\ccmHbbn5.s 			page 75


 2621              		.thumb_func
 2622              		.type	lv_arc_event, %function
 2623              	lv_arc_event:
 2624              	.LFB182:
 412:..\..\..\arduinoLCD\test\Pain Drain\libraries\lvgl\src\widgets/lv_arc.c ****     LV_UNUSED(class_p);
 2625              		.loc 1 412 0
 2626              		.cfi_startproc
 2627              		@ args = 0, pretend = 0, frame = 16
 2628              		@ frame_needed = 0, uses_anonymous_args = 0
 2629              	.LVL366:
 2630 0000 F0B5     		push	{r4, r5, r6, r7, lr}
 2631              		.cfi_def_cfa_offset 20
 2632              		.cfi_offset 4, -20
 2633              		.cfi_offset 5, -16
 2634              		.cfi_offset 6, -12
 2635              		.cfi_offset 7, -8
 2636              		.cfi_offset 14, -4
 2637 0002 5746     		mov	r7, r10
 2638 0004 4E46     		mov	r6, r9
 2639 0006 4546     		mov	r5, r8
 2640 0008 E0B4     		push	{r5, r6, r7}
 2641              		.cfi_def_cfa_offset 32
 2642              		.cfi_offset 8, -32
 2643              		.cfi_offset 9, -28
 2644              		.cfi_offset 10, -24
 2645 000a 86B0     		sub	sp, sp, #24
 2646              		.cfi_def_cfa_offset 56
 2647 000c 0C00     		movs	r4, r1
 418:..\..\..\arduinoLCD\test\Pain Drain\libraries\lvgl\src\widgets/lv_arc.c ****     if(res != LV_RES_OK) return;
 2648              		.loc 1 418 0
 2649 000e C848     		ldr	r0, .L147
 2650              	.LVL367:
 2651 0010 FFF7FEFF 		bl	lv_obj_event_base
 2652              	.LVL368:
 419:..\..\..\arduinoLCD\test\Pain Drain\libraries\lvgl\src\widgets/lv_arc.c **** 
 2653              		.loc 1 419 0
 2654 0014 0128     		cmp	r0, #1
 2655 0016 00D0     		beq	.LCB2623
 2656 0018 31E2     		b	.L107	@long jump
 2657              	.LCB2623:
 421:..\..\..\arduinoLCD\test\Pain Drain\libraries\lvgl\src\widgets/lv_arc.c ****     lv_obj_t * obj = lv_event_get_target(e);
 2658              		.loc 1 421 0
 2659 001a 2000     		movs	r0, r4
 2660              	.LVL369:
 2661 001c FFF7FEFF 		bl	lv_event_get_code
 2662              	.LVL370:
 2663 0020 0500     		movs	r5, r0
 2664              	.LVL371:
 422:..\..\..\arduinoLCD\test\Pain Drain\libraries\lvgl\src\widgets/lv_arc.c ****     lv_arc_t * arc = (lv_arc_t *)lv_event_get_target(e);
 2665              		.loc 1 422 0
 2666 0022 2000     		movs	r0, r4
 2667              	.LVL372:
 2668 0024 FFF7FEFF 		bl	lv_event_get_target
 2669              	.LVL373:
 2670 0028 0700     		movs	r7, r0
 2671              	.LVL374:
 423:..\..\..\arduinoLCD\test\Pain Drain\libraries\lvgl\src\widgets/lv_arc.c ****     if(code == LV_EVENT_PRESSING) {
ARM GAS  C:\Users\haske\AppData\Local\Temp\ccmHbbn5.s 			page 76


 2672              		.loc 1 423 0
 2673 002a 2000     		movs	r0, r4
 2674              	.LVL375:
 2675 002c FFF7FEFF 		bl	lv_event_get_target
 2676              	.LVL376:
 2677 0030 0600     		movs	r6, r0
 2678              	.LVL377:
 424:..\..\..\arduinoLCD\test\Pain Drain\libraries\lvgl\src\widgets/lv_arc.c ****         lv_indev_t * indev = lv_indev_get_act();
 2679              		.loc 1 424 0
 2680 0032 022D     		cmp	r5, #2
 2681 0034 00D0     		beq	.LCB2643
 2682 0036 1DE1     		b	.L109	@long jump
 2683              	.LCB2643:
 2684              	.LBB133:
 425:..\..\..\arduinoLCD\test\Pain Drain\libraries\lvgl\src\widgets/lv_arc.c ****         if(indev == NULL) return;
 2685              		.loc 1 425 0
 2686 0038 FFF7FEFF 		bl	lv_indev_get_act
 2687              	.LVL378:
 2688 003c 041E     		subs	r4, r0, #0
 2689              	.LVL379:
 426:..\..\..\arduinoLCD\test\Pain Drain\libraries\lvgl\src\widgets/lv_arc.c **** 
 2690              		.loc 1 426 0
 2691 003e 00D1     		bne	.LCB2652
 2692 0040 1DE2     		b	.L107	@long jump
 2693              	.LCB2652:
 429:..\..\..\arduinoLCD\test\Pain Drain\libraries\lvgl\src\widgets/lv_arc.c ****         if(indev_type != LV_INDEV_TYPE_POINTER) return;
 2694              		.loc 1 429 0
 2695 0042 FFF7FEFF 		bl	lv_indev_get_type
 2696              	.LVL380:
 430:..\..\..\arduinoLCD\test\Pain Drain\libraries\lvgl\src\widgets/lv_arc.c **** 
 2697              		.loc 1 430 0
 2698 0046 0128     		cmp	r0, #1
 2699 0048 00D0     		beq	.LCB2658
 2700 004a 18E2     		b	.L107	@long jump
 2701              	.LCB2658:
 433:..\..\..\arduinoLCD\test\Pain Drain\libraries\lvgl\src\widgets/lv_arc.c **** 
 2702              		.loc 1 433 0
 2703 004c 03AD     		add	r5, sp, #12
 2704              	.LVL381:
 2705 004e 2900     		movs	r1, r5
 2706 0050 2000     		movs	r0, r4
 2707              	.LVL382:
 2708 0052 FFF7FEFF 		bl	lv_indev_get_point
 2709              	.LVL383:
 438:..\..\..\arduinoLCD\test\Pain Drain\libraries\lvgl\src\widgets/lv_arc.c **** 
 2710              		.loc 1 438 0
 2711 0056 04AC     		add	r4, sp, #16
 2712              	.LVL384:
 2713 0058 0A22     		movs	r2, #10
 2714 005a 6A44     		add	r2, r2, sp
 2715 005c 2100     		movs	r1, r4
 2716 005e 3800     		movs	r0, r7
 2717 0060 FFF7FEFF 		bl	get_center
 2718              	.LVL385:
 440:..\..\..\arduinoLCD\test\Pain Drain\libraries\lvgl\src\widgets/lv_arc.c ****         p.y -= center.y;
 2719              		.loc 1 440 0
 2720 0064 0023     		movs	r3, #0
ARM GAS  C:\Users\haske\AppData\Local\Temp\ccmHbbn5.s 			page 77


 2721 0066 E25E     		ldrsh	r2, [r4, r3]
 2722 0068 2B88     		ldrh	r3, [r5]
 2723 006a 9B1A     		subs	r3, r3, r2
 2724 006c 2B80     		strh	r3, [r5]
 441:..\..\..\arduinoLCD\test\Pain Drain\libraries\lvgl\src\widgets/lv_arc.c **** 
 2725              		.loc 1 441 0
 2726 006e 0223     		movs	r3, #2
 2727 0070 E25E     		ldrsh	r2, [r4, r3]
 2728 0072 6B88     		ldrh	r3, [r5, #2]
 2729 0074 9B1A     		subs	r3, r3, r2
 2730 0076 6B80     		strh	r3, [r5, #2]
 444:..\..\..\arduinoLCD\test\Pain Drain\libraries\lvgl\src\widgets/lv_arc.c ****             lv_coord_t indic_width = lv_obj_get_style_arc_width(obj, LV_PART_INDICATOR);
 2731              		.loc 1 444 0
 2732 0078 3423     		movs	r3, #52
 2733 007a F35C     		ldrb	r3, [r6, r3]
 2734 007c DB07     		lsls	r3, r3, #31
 2735 007e 4DD4     		bmi	.L111
 2736              	.LVL386:
 2737              	.LBB134:
 2738              	.LBB135:
 2739              	.LBB136:
 411:..\..\..\arduinoLCD\test\Pain Drain\libraries\lvgl\src\widgets\../core/lv_obj_style_gen.h ****     return (lv_coord_t)v.num;
 2740              		.loc 2 411 0
 2741 0080 5022     		movs	r2, #80
 2742 0082 8021     		movs	r1, #128
 2743 0084 8902     		lsls	r1, r1, #10
 2744 0086 3800     		movs	r0, r7
 2745 0088 FFF7FEFF 		bl	lv_obj_get_style_prop
 2746              	.LVL387:
 412:..\..\..\arduinoLCD\test\Pain Drain\libraries\lvgl\src\widgets\../core/lv_obj_style_gen.h **** }
 2747              		.loc 2 412 0
 2748 008c 04B2     		sxth	r4, r0
 2749              	.LVL388:
 2750              	.LBE136:
 2751              	.LBE135:
 446:..\..\..\arduinoLCD\test\Pain Drain\libraries\lvgl\src\widgets/lv_arc.c ****             /*Add some more sensitive area if there is no advanced git testing.
 2752              		.loc 1 446 0
 2753 008e 85B2     		uxth	r5, r0
 2754 0090 0A22     		movs	r2, #10
 2755 0092 6A44     		add	r2, r2, sp
 2756 0094 1388     		ldrh	r3, [r2]
 2757 0096 5B1B     		subs	r3, r3, r5
 2758 0098 1380     		strh	r3, [r2]
 449:..\..\..\arduinoLCD\test\Pain Drain\libraries\lvgl\src\widgets/lv_arc.c ****                 r -= indic_width;
 2759              		.loc 1 449 0
 2760 009a 8021     		movs	r1, #128
 2761 009c 4902     		lsls	r1, r1, #9
 2762 009e 3800     		movs	r0, r7
 2763 00a0 FFF7FEFF 		bl	lv_obj_has_flag
 2764              	.LVL389:
 2765 00a4 0028     		cmp	r0, #0
 2766 00a6 05D0     		beq	.L112
 450:..\..\..\arduinoLCD\test\Pain Drain\libraries\lvgl\src\widgets/lv_arc.c **** 
 2767              		.loc 1 450 0
 2768 00a8 0A22     		movs	r2, #10
 2769 00aa 6A44     		add	r2, r2, sp
 2770 00ac 1388     		ldrh	r3, [r2]
ARM GAS  C:\Users\haske\AppData\Local\Temp\ccmHbbn5.s 			page 78


 2771 00ae 5D1B     		subs	r5, r3, r5
 2772 00b0 1580     		strh	r5, [r2]
 2773 00b2 11E0     		b	.L113
 2774              	.L112:
 454:..\..\..\arduinoLCD\test\Pain Drain\libraries\lvgl\src\widgets/lv_arc.c ****             }
 2775              		.loc 1 454 0
 2776 00b4 0A23     		movs	r3, #10
 2777 00b6 6B44     		add	r3, r3, sp
 2778 00b8 0022     		movs	r2, #0
 2779 00ba 9A5E     		ldrsh	r2, [r3, r2]
 2780 00bc D117     		asrs	r1, r2, #31
 2781 00be 0323     		movs	r3, #3
 2782 00c0 0B40     		ands	r3, r1
 2783 00c2 9B18     		adds	r3, r3, r2
 2784 00c4 9B10     		asrs	r3, r3, #2
 2785 00c6 191C     		adds	r1, r3, #0
 2786 00c8 1BB2     		sxth	r3, r3
 2787 00ca A342     		cmp	r3, r4
 2788 00cc 00DA     		bge	.L114
 2789 00ce 211C     		adds	r1, r4, #0
 2790              	.L114:
 2791 00d0 521A     		subs	r2, r2, r1
 2792 00d2 0A23     		movs	r3, #10
 2793 00d4 6B44     		add	r3, r3, sp
 2794 00d6 1A80     		strh	r2, [r3]
 2795              	.L113:
 456:..\..\..\arduinoLCD\test\Pain Drain\libraries\lvgl\src\widgets/lv_arc.c **** 
 2796              		.loc 1 456 0
 2797 00d8 0A23     		movs	r3, #10
 2798 00da 6B44     		add	r3, r3, sp
 2799 00dc 0022     		movs	r2, #0
 2800 00de 9B5E     		ldrsh	r3, [r3, r2]
 2801 00e0 002B     		cmp	r3, #0
 2802 00e2 03DC     		bgt	.L115
 456:..\..\..\arduinoLCD\test\Pain Drain\libraries\lvgl\src\widgets/lv_arc.c **** 
 2803              		.loc 1 456 0 is_stmt 0 discriminator 1
 2804 00e4 0122     		movs	r2, #1
 2805 00e6 0A23     		movs	r3, #10
 2806 00e8 6B44     		add	r3, r3, sp
 2807 00ea 1A80     		strh	r2, [r3]
 2808              	.L115:
 458:..\..\..\arduinoLCD\test\Pain Drain\libraries\lvgl\src\widgets/lv_arc.c ****                 arc->dragging = true;
 2809              		.loc 1 458 0 is_stmt 1
 2810 00ec 03A9     		add	r1, sp, #12
 2811 00ee 0022     		movs	r2, #0
 2812 00f0 8B5E     		ldrsh	r3, [r1, r2]
 2813 00f2 5B43     		muls	r3, r3
 2814 00f4 1A00     		movs	r2, r3
 2815 00f6 0223     		movs	r3, #2
 2816 00f8 CB5E     		ldrsh	r3, [r1, r3]
 2817 00fa 5B43     		muls	r3, r3
 2818 00fc D318     		adds	r3, r2, r3
 2819 00fe 0A22     		movs	r2, #10
 2820 0100 6A44     		add	r2, r2, sp
 2821 0102 0021     		movs	r1, #0
 2822 0104 525E     		ldrsh	r2, [r2, r1]
 2823 0106 5243     		muls	r2, r2
ARM GAS  C:\Users\haske\AppData\Local\Temp\ccmHbbn5.s 			page 79


 2824 0108 9342     		cmp	r3, r2
 2825 010a 07DD     		ble	.L111
 459:..\..\..\arduinoLCD\test\Pain Drain\libraries\lvgl\src\widgets/lv_arc.c ****                 arc->last_tick = lv_tick_get(); /*Capture timestamp at dragging start*/
 2826              		.loc 1 459 0
 2827 010c 3422     		movs	r2, #52
 2828 010e B35C     		ldrb	r3, [r6, r2]
 2829 0110 0121     		movs	r1, #1
 2830 0112 0B43     		orrs	r3, r1
 2831 0114 B354     		strb	r3, [r6, r2]
 460:..\..\..\arduinoLCD\test\Pain Drain\libraries\lvgl\src\widgets/lv_arc.c ****             }
 2832              		.loc 1 460 0
 2833 0116 FFF7FEFF 		bl	lv_tick_get
 2834              	.LVL390:
 2835 011a B063     		str	r0, [r6, #56]
 2836              	.L111:
 2837              	.LBE134:
 465:..\..\..\arduinoLCD\test\Pain Drain\libraries\lvgl\src\widgets/lv_arc.c **** 
 2838              		.loc 1 465 0
 2839 011c 3423     		movs	r3, #52
 2840 011e F35C     		ldrb	r3, [r6, r3]
 2841 0120 DB07     		lsls	r3, r3, #31
 2842 0122 00D4     		bmi	.LCB2793
 2843 0124 ABE1     		b	.L107	@long jump
 2844              	.LCB2793:
 468:..\..\..\arduinoLCD\test\Pain Drain\libraries\lvgl\src\widgets/lv_arc.c **** 
 2845              		.loc 1 468 0
 2846 0126 03AB     		add	r3, sp, #12
 2847 0128 0021     		movs	r1, #0
 2848 012a 595E     		ldrsh	r1, [r3, r1]
 2849 012c 0029     		cmp	r1, #0
 2850 012e 05D1     		bne	.L116
 468:..\..\..\arduinoLCD\test\Pain Drain\libraries\lvgl\src\widgets/lv_arc.c **** 
 2851              		.loc 1 468 0 is_stmt 0 discriminator 1
 2852 0130 03AB     		add	r3, sp, #12
 2853 0132 0222     		movs	r2, #2
 2854 0134 9B5E     		ldrsh	r3, [r3, r2]
 2855 0136 002B     		cmp	r3, #0
 2856 0138 00D1     		bne	.LCB2801
 2857 013a A0E1     		b	.L107	@long jump
 2858              	.LCB2801:
 2859              	.L116:
 472:..\..\..\arduinoLCD\test\Pain Drain\libraries\lvgl\src\widgets/lv_arc.c ****         if(arc->bg_angle_end < arc->bg_angle_start) {
 2860              		.loc 1 472 0 is_stmt 1
 2861 013c B38D     		ldrh	r3, [r6, #44]
 2862 013e 1CB2     		sxth	r4, r3
 2863              	.LVL391:
 473:..\..\..\arduinoLCD\test\Pain Drain\libraries\lvgl\src\widgets/lv_arc.c ****             bg_end = arc->bg_angle_end + 360;
 2864              		.loc 1 473 0
 2865 0140 728D     		ldrh	r2, [r6, #42]
 2866 0142 9342     		cmp	r3, r2
 2867 0144 02D2     		bcs	.L117
 474:..\..\..\arduinoLCD\test\Pain Drain\libraries\lvgl\src\widgets/lv_arc.c ****         }
 2868              		.loc 1 474 0
 2869 0146 6933     		adds	r3, r3, #105
 2870 0148 FF33     		adds	r3, r3, #255
 2871 014a 1CB2     		sxth	r4, r3
 2872              	.LVL392:
ARM GAS  C:\Users\haske\AppData\Local\Temp\ccmHbbn5.s 			page 80


 2873              	.L117:
 477:..\..\..\arduinoLCD\test\Pain Drain\libraries\lvgl\src\widgets/lv_arc.c ****         angle -= arc->rotation;
 2874              		.loc 1 477 0
 2875 014c 03AB     		add	r3, sp, #12
 2876 014e 0220     		movs	r0, #2
 2877 0150 185E     		ldrsh	r0, [r3, r0]
 2878 0152 FFF7FEFF 		bl	lv_atan2
 2879              	.LVL393:
 478:..\..\..\arduinoLCD\test\Pain Drain\libraries\lvgl\src\widgets/lv_arc.c ****         angle -= arc->bg_angle_start;  /*Make the angle relative to the start angle*/
 2880              		.loc 1 478 0
 2881 0156 B38C     		ldrh	r3, [r6, #36]
 2882 0158 C31A     		subs	r3, r0, r3
 2883 015a 9BB2     		uxth	r3, r3
 2884              	.LVL394:
 479:..\..\..\arduinoLCD\test\Pain Drain\libraries\lvgl\src\widgets/lv_arc.c **** 
 2885              		.loc 1 479 0
 2886 015c 718D     		ldrh	r1, [r6, #42]
 2887 015e 5B1A     		subs	r3, r3, r1
 2888              	.LVL395:
 2889 0160 9BB2     		uxth	r3, r3
 2890 0162 1AB2     		sxth	r2, r3
 2891              	.LVL396:
 481:..\..\..\arduinoLCD\test\Pain Drain\libraries\lvgl\src\widgets/lv_arc.c **** 
 2892              		.loc 1 481 0
 2893 0164 002A     		cmp	r2, #0
 2894 0166 02DA     		bge	.L118
 481:..\..\..\arduinoLCD\test\Pain Drain\libraries\lvgl\src\widgets/lv_arc.c **** 
 2895              		.loc 1 481 0 is_stmt 0 discriminator 1
 2896 0168 6933     		adds	r3, r3, #105
 2897 016a FF33     		adds	r3, r3, #255
 2898 016c 1AB2     		sxth	r2, r3
 2899              	.LVL397:
 2900              	.L118:
 483:..\..\..\arduinoLCD\test\Pain Drain\libraries\lvgl\src\widgets/lv_arc.c **** 
 2901              		.loc 1 483 0 is_stmt 1
 2902 016e 631A     		subs	r3, r4, r1
 2903 0170 18B2     		sxth	r0, r3
 2904              	.LVL398:
 485:..\..\..\arduinoLCD\test\Pain Drain\libraries\lvgl\src\widgets/lv_arc.c ****         int16_t delta_angle = angle - last_angle_rel;
 2905              		.loc 1 485 0
 2906 0172 3C25     		movs	r5, #60
 2907 0174 735F     		ldrsh	r3, [r6, r5]
 2908 0176 5B1A     		subs	r3, r3, r1
 2909 0178 9BB2     		uxth	r3, r3
 2910 017a 9846     		mov	r8, r3
 2911              	.LVL399:
 486:..\..\..\arduinoLCD\test\Pain Drain\libraries\lvgl\src\widgets/lv_arc.c **** 
 2912              		.loc 1 486 0
 2913 017c D31A     		subs	r3, r2, r3
 2914              	.LVL400:
 2915 017e 1BB2     		sxth	r3, r3
 2916              	.LVL401:
 491:..\..\..\arduinoLCD\test\Pain Drain\libraries\lvgl\src\widgets/lv_arc.c ****             if(arc->min_close) angle = 0;
 2917              		.loc 1 491 0
 2918 0180 D917     		asrs	r1, r3, #31
 2919 0182 5B18     		adds	r3, r3, r1
 2920              	.LVL402:
ARM GAS  C:\Users\haske\AppData\Local\Temp\ccmHbbn5.s 			page 81


 2921 0184 4B40     		eors	r3, r1
 2922 0186 8C21     		movs	r1, #140
 2923 0188 4900     		lsls	r1, r1, #1
 2924 018a 8B42     		cmp	r3, r1
 2925 018c 05DD     		ble	.L119
 492:..\..\..\arduinoLCD\test\Pain Drain\libraries\lvgl\src\widgets/lv_arc.c ****             else angle = deg_range;
 2926              		.loc 1 492 0
 2927 018e 3423     		movs	r3, #52
 2928 0190 F35C     		ldrb	r3, [r6, r3]
 2929 0192 1B07     		lsls	r3, r3, #28
 2930 0194 12D5     		bpl	.L144
 2931 0196 0022     		movs	r2, #0
 2932              	.LVL403:
 2933 0198 11E0     		b	.L120
 2934              	.LVL404:
 2935              	.L119:
 496:..\..\..\arduinoLCD\test\Pain Drain\libraries\lvgl\src\widgets/lv_arc.c ****             else arc->min_close = 0;
 2936              		.loc 1 496 0
 2937 019a C30F     		lsrs	r3, r0, #31
 2938 019c 1B18     		adds	r3, r3, r0
 2939 019e 5B10     		asrs	r3, r3, #1
 2940 01a0 9A42     		cmp	r2, r3
 2941 01a2 05DA     		bge	.L121
 496:..\..\..\arduinoLCD\test\Pain Drain\libraries\lvgl\src\widgets/lv_arc.c ****             else arc->min_close = 0;
 2942              		.loc 1 496 0 is_stmt 0 discriminator 1
 2943 01a4 3421     		movs	r1, #52
 2944 01a6 735C     		ldrb	r3, [r6, r1]
 2945 01a8 0820     		movs	r0, #8
 2946              	.LVL405:
 2947 01aa 0343     		orrs	r3, r0
 2948 01ac 7354     		strb	r3, [r6, r1]
 2949              	.LVL406:
 2950 01ae 06E0     		b	.L120
 2951              	.LVL407:
 2952              	.L121:
 497:..\..\..\arduinoLCD\test\Pain Drain\libraries\lvgl\src\widgets/lv_arc.c ****         }
 2953              		.loc 1 497 0 is_stmt 1
 2954 01b0 3421     		movs	r1, #52
 2955 01b2 735C     		ldrb	r3, [r6, r1]
 2956 01b4 0820     		movs	r0, #8
 2957              	.LVL408:
 2958 01b6 8343     		bics	r3, r0
 2959 01b8 7354     		strb	r3, [r6, r1]
 2960              	.LVL409:
 2961 01ba 00E0     		b	.L120
 2962              	.LVL410:
 2963              	.L144:
 493:..\..\..\arduinoLCD\test\Pain Drain\libraries\lvgl\src\widgets/lv_arc.c ****         }
 2964              		.loc 1 493 0
 2965 01bc 0200     		movs	r2, r0
 2966              	.LVL411:
 2967              	.L120:
 501:..\..\..\arduinoLCD\test\Pain Drain\libraries\lvgl\src\widgets/lv_arc.c ****         uint32_t delta_tick = lv_tick_elaps(arc->last_tick);
 2968              		.loc 1 501 0
 2969 01be 4346     		mov	r3, r8
 2970 01c0 D31A     		subs	r3, r2, r3
 2971 01c2 1DB2     		sxth	r5, r3
ARM GAS  C:\Users\haske\AppData\Local\Temp\ccmHbbn5.s 			page 82


 2972              	.LVL412:
 502:..\..\..\arduinoLCD\test\Pain Drain\libraries\lvgl\src\widgets/lv_arc.c ****         int16_t delta_angle_max = (arc->chg_rate * delta_tick) / 1000;
 2973              		.loc 1 502 0
 2974 01c4 B06B     		ldr	r0, [r6, #56]
 2975 01c6 FFF7FEFF 		bl	lv_tick_elaps
 2976              	.LVL413:
 503:..\..\..\arduinoLCD\test\Pain Drain\libraries\lvgl\src\widgets/lv_arc.c **** 
 2977              		.loc 1 503 0
 2978 01ca F38E     		ldrh	r3, [r6, #54]
 2979 01cc 5843     		muls	r0, r3
 2980              	.LVL414:
 2981 01ce FA21     		movs	r1, #250
 2982 01d0 8900     		lsls	r1, r1, #2
 2983 01d2 FFF7FEFF 		bl	__aeabi_uidiv
 2984              	.LVL415:
 2985 01d6 03B2     		sxth	r3, r0
 2986              	.LVL416:
 505:..\..\..\arduinoLCD\test\Pain Drain\libraries\lvgl\src\widgets/lv_arc.c ****             delta_angle = delta_angle_max;
 2987              		.loc 1 505 0
 2988 01d8 9D42     		cmp	r5, r3
 2989 01da 06DC     		bgt	.L122
 508:..\..\..\arduinoLCD\test\Pain Drain\libraries\lvgl\src\widgets/lv_arc.c ****             delta_angle = -delta_angle_max;
 2990              		.loc 1 508 0
 2991 01dc 5B42     		rsbs	r3, r3, #0
 2992              	.LVL417:
 2993 01de 9D42     		cmp	r5, r3
 2994 01e0 02DA     		bge	.L145
 509:..\..\..\arduinoLCD\test\Pain Drain\libraries\lvgl\src\widgets/lv_arc.c ****         }
 2995              		.loc 1 509 0
 2996 01e2 4042     		rsbs	r0, r0, #0
 2997 01e4 03B2     		sxth	r3, r0
 2998              	.LVL418:
 2999 01e6 00E0     		b	.L122
 3000              	.LVL419:
 3001              	.L145:
 501:..\..\..\arduinoLCD\test\Pain Drain\libraries\lvgl\src\widgets/lv_arc.c ****         uint32_t delta_tick = lv_tick_elaps(arc->last_tick);
 3002              		.loc 1 501 0
 3003 01e8 2B00     		movs	r3, r5
 3004              	.LVL420:
 3005              	.L122:
 512:..\..\..\arduinoLCD\test\Pain Drain\libraries\lvgl\src\widgets/lv_arc.c **** 
 3006              		.loc 1 512 0
 3007 01ea 4344     		add	r3, r3, r8
 3008              	.LVL421:
 3009 01ec 9BB2     		uxth	r3, r3
 3010 01ee 9A46     		mov	r10, r3
 3011              	.LVL422:
 515:..\..\..\arduinoLCD\test\Pain Drain\libraries\lvgl\src\widgets/lv_arc.c ****         round = (round + 4) >> 4;
 3012              		.loc 1 515 0
 3013 01f0 758D     		ldrh	r5, [r6, #42]
 3014 01f2 601B     		subs	r0, r4, r5
 3015 01f4 C000     		lsls	r0, r0, #3
 3016 01f6 3222     		movs	r2, #50
 3017 01f8 B35E     		ldrsh	r3, [r6, r2]
 3018 01fa 9946     		mov	r9, r3
 3019 01fc 3022     		movs	r2, #48
 3020 01fe B35E     		ldrsh	r3, [r6, r2]
ARM GAS  C:\Users\haske\AppData\Local\Temp\ccmHbbn5.s 			page 83


 3021 0200 9846     		mov	r8, r3
 3022              	.LVL423:
 3023 0202 4B46     		mov	r3, r9
 3024 0204 4246     		mov	r2, r8
 3025 0206 991A     		subs	r1, r3, r2
 3026 0208 FFF7FEFF 		bl	__aeabi_idiv
 3027              	.LVL424:
 516:..\..\..\arduinoLCD\test\Pain Drain\libraries\lvgl\src\widgets/lv_arc.c ****         angle += round;
 3028              		.loc 1 516 0
 3029 020c 0430     		adds	r0, r0, #4
 3030              	.LVL425:
 3031 020e 0011     		asrs	r0, r0, #4
 3032              	.LVL426:
 517:..\..\..\arduinoLCD\test\Pain Drain\libraries\lvgl\src\widgets/lv_arc.c **** 
 3033              		.loc 1 517 0
 3034 0210 5044     		add	r0, r0, r10
 3035              	.LVL427:
 3036 0212 80B2     		uxth	r0, r0
 3037              	.LVL428:
 519:..\..\..\arduinoLCD\test\Pain Drain\libraries\lvgl\src\widgets/lv_arc.c **** 
 3038              		.loc 1 519 0
 3039 0214 2818     		adds	r0, r5, r0
 3040              	.LVL429:
 3041 0216 00B2     		sxth	r0, r0
 3042              	.LVL430:
 522:..\..\..\arduinoLCD\test\Pain Drain\libraries\lvgl\src\widgets/lv_arc.c ****         int16_t new_value = lv_map(angle, arc->bg_angle_start, bg_end, arc->min_value, arc->max_val
 3043              		.loc 1 522 0
 3044 0218 2E22     		movs	r2, #46
 3045 021a B35E     		ldrsh	r3, [r6, r2]
 3046 021c 9A46     		mov	r10, r3
 3047              	.LVL431:
 523:..\..\..\arduinoLCD\test\Pain Drain\libraries\lvgl\src\widgets/lv_arc.c ****         if(new_value != lv_arc_get_value(obj)) {
 3048              		.loc 1 523 0
 3049 021e 4B46     		mov	r3, r9
 3050 0220 0093     		str	r3, [sp]
 3051 0222 4346     		mov	r3, r8
 3052 0224 2200     		movs	r2, r4
 3053 0226 2900     		movs	r1, r5
 3054 0228 FFF7FEFF 		bl	lv_map
 3055              	.LVL432:
 3056 022c 04B2     		sxth	r4, r0
 3057              	.LVL433:
 524:..\..\..\arduinoLCD\test\Pain Drain\libraries\lvgl\src\widgets/lv_arc.c ****             arc->last_tick = lv_tick_get(); /*Cache timestamp for the next iteration*/
 3058              		.loc 1 524 0
 3059 022e 3800     		movs	r0, r7
 3060 0230 FFF7FEFF 		bl	lv_arc_get_value
 3061              	.LVL434:
 3062 0234 8442     		cmp	r4, r0
 3063 0236 10D0     		beq	.L123
 525:..\..\..\arduinoLCD\test\Pain Drain\libraries\lvgl\src\widgets/lv_arc.c ****             lv_arc_set_value(obj, new_value); /*set_value caches the last_angle for the next iterat
 3064              		.loc 1 525 0
 3065 0238 FFF7FEFF 		bl	lv_tick_get
 3066              	.LVL435:
 3067 023c B063     		str	r0, [r6, #56]
 526:..\..\..\arduinoLCD\test\Pain Drain\libraries\lvgl\src\widgets/lv_arc.c ****             if(new_value != old_value) {
 3068              		.loc 1 526 0
 3069 023e 2100     		movs	r1, r4
ARM GAS  C:\Users\haske\AppData\Local\Temp\ccmHbbn5.s 			page 84


 3070 0240 3800     		movs	r0, r7
 3071 0242 FFF7FEFF 		bl	lv_arc_set_value
 3072              	.LVL436:
 527:..\..\..\arduinoLCD\test\Pain Drain\libraries\lvgl\src\widgets/lv_arc.c ****                 res = lv_event_send(obj, LV_EVENT_VALUE_CHANGED, NULL);
 3073              		.loc 1 527 0
 3074 0246 A245     		cmp	r10, r4
 3075 0248 07D0     		beq	.L123
 528:..\..\..\arduinoLCD\test\Pain Drain\libraries\lvgl\src\widgets/lv_arc.c ****                 if(res != LV_RES_OK) return;
 3076              		.loc 1 528 0
 3077 024a 0022     		movs	r2, #0
 3078 024c 1C21     		movs	r1, #28
 3079 024e 3800     		movs	r0, r7
 3080 0250 FFF7FEFF 		bl	lv_event_send
 3081              	.LVL437:
 529:..\..\..\arduinoLCD\test\Pain Drain\libraries\lvgl\src\widgets/lv_arc.c ****             }
 3082              		.loc 1 529 0
 3083 0254 0128     		cmp	r0, #1
 3084 0256 00D0     		beq	.LCB3031
 3085 0258 11E1     		b	.L107	@long jump
 3086              	.LCB3031:
 3087              	.LVL438:
 3088              	.L123:
 534:..\..\..\arduinoLCD\test\Pain Drain\libraries\lvgl\src\widgets/lv_arc.c ****             arc->last_tick = lv_tick_get(); /*Cache timestamp for the next iteration*/
 3089              		.loc 1 534 0
 3090 025a 3022     		movs	r2, #48
 3091 025c B35E     		ldrsh	r3, [r6, r2]
 3092 025e 9C42     		cmp	r4, r3
 3093 0260 04D0     		beq	.L124
 534:..\..\..\arduinoLCD\test\Pain Drain\libraries\lvgl\src\widgets/lv_arc.c ****             arc->last_tick = lv_tick_get(); /*Cache timestamp for the next iteration*/
 3094              		.loc 1 534 0 is_stmt 0 discriminator 1
 3095 0262 3222     		movs	r2, #50
 3096 0264 B35E     		ldrsh	r3, [r6, r2]
 3097 0266 9C42     		cmp	r4, r3
 3098 0268 00D0     		beq	.LCB3039
 3099 026a 08E1     		b	.L107	@long jump
 3100              	.LCB3039:
 3101              	.L124:
 535:..\..\..\arduinoLCD\test\Pain Drain\libraries\lvgl\src\widgets/lv_arc.c ****         }
 3102              		.loc 1 535 0 is_stmt 1
 3103 026c FFF7FEFF 		bl	lv_tick_get
 3104              	.LVL439:
 3105 0270 B063     		str	r0, [r6, #56]
 3106 0272 04E1     		b	.L107
 3107              	.LVL440:
 3108              	.L109:
 3109              	.LBE133:
 538:..\..\..\arduinoLCD\test\Pain Drain\libraries\lvgl\src\widgets/lv_arc.c ****         arc->dragging = false;
 3110              		.loc 1 538 0
 3111 0274 082D     		cmp	r5, #8
 3112 0276 01D0     		beq	.L126
 538:..\..\..\arduinoLCD\test\Pain Drain\libraries\lvgl\src\widgets/lv_arc.c ****         arc->dragging = false;
 3113              		.loc 1 538 0 is_stmt 0 discriminator 1
 3114 0278 032D     		cmp	r5, #3
 3115 027a 1AD1     		bne	.L127
 3116              	.L126:
 3117              	.LBB137:
 539:..\..\..\arduinoLCD\test\Pain Drain\libraries\lvgl\src\widgets/lv_arc.c **** 
ARM GAS  C:\Users\haske\AppData\Local\Temp\ccmHbbn5.s 			page 85


 3118              		.loc 1 539 0 is_stmt 1
 3119 027c 3422     		movs	r2, #52
 3120 027e B35C     		ldrb	r3, [r6, r2]
 3121 0280 0121     		movs	r1, #1
 3122 0282 8B43     		bics	r3, r1
 3123 0284 B354     		strb	r3, [r6, r2]
 542:..\..\..\arduinoLCD\test\Pain Drain\libraries\lvgl\src\widgets/lv_arc.c ****         bool editing               = lv_group_get_editing(g);
 3124              		.loc 1 542 0
 3125 0286 3800     		movs	r0, r7
 3126              	.LVL441:
 3127 0288 FFF7FEFF 		bl	lv_obj_get_group
 3128              	.LVL442:
 3129 028c 0500     		movs	r5, r0
 3130              	.LVL443:
 543:..\..\..\arduinoLCD\test\Pain Drain\libraries\lvgl\src\widgets/lv_arc.c ****         lv_indev_type_t indev_type = lv_indev_get_type(lv_indev_get_act());
 3131              		.loc 1 543 0
 3132 028e FFF7FEFF 		bl	lv_group_get_editing
 3133              	.LVL444:
 3134 0292 0400     		movs	r4, r0
 3135              	.LVL445:
 544:..\..\..\arduinoLCD\test\Pain Drain\libraries\lvgl\src\widgets/lv_arc.c ****         if(indev_type == LV_INDEV_TYPE_ENCODER) {
 3136              		.loc 1 544 0
 3137 0294 FFF7FEFF 		bl	lv_indev_get_act
 3138              	.LVL446:
 3139 0298 FFF7FEFF 		bl	lv_indev_get_type
 3140              	.LVL447:
 545:..\..\..\arduinoLCD\test\Pain Drain\libraries\lvgl\src\widgets/lv_arc.c ****             if(editing) lv_group_set_editing(g, false);
 3141              		.loc 1 545 0
 3142 029c 0428     		cmp	r0, #4
 3143 029e 00D0     		beq	.LCB3097
 3144 02a0 EDE0     		b	.L107	@long jump
 3145              	.LCB3097:
 546:..\..\..\arduinoLCD\test\Pain Drain\libraries\lvgl\src\widgets/lv_arc.c ****         }
 3146              		.loc 1 546 0
 3147 02a2 002C     		cmp	r4, #0
 3148 02a4 00D1     		bne	.LCB3099
 3149 02a6 EAE0     		b	.L107	@long jump
 3150              	.LCB3099:
 546:..\..\..\arduinoLCD\test\Pain Drain\libraries\lvgl\src\widgets/lv_arc.c ****         }
 3151              		.loc 1 546 0 is_stmt 0 discriminator 1
 3152 02a8 0021     		movs	r1, #0
 3153 02aa 2800     		movs	r0, r5
 3154              	.LVL448:
 3155 02ac FFF7FEFF 		bl	lv_group_set_editing
 3156              	.LVL449:
 3157 02b0 E5E0     		b	.L107
 3158              	.LVL450:
 3159              	.L127:
 3160              	.LBE137:
 550:..\..\..\arduinoLCD\test\Pain Drain\libraries\lvgl\src\widgets/lv_arc.c ****         char c = *((char *)lv_event_get_param(e));
 3161              		.loc 1 550 0 is_stmt 1
 3162 02b2 0D2D     		cmp	r5, #13
 3163 02b4 29D1     		bne	.L128
 3164              	.LBB138:
 551:..\..\..\arduinoLCD\test\Pain Drain\libraries\lvgl\src\widgets/lv_arc.c **** 
 3165              		.loc 1 551 0
 3166 02b6 2000     		movs	r0, r4
ARM GAS  C:\Users\haske\AppData\Local\Temp\ccmHbbn5.s 			page 86


 3167              	.LVL451:
 3168 02b8 FFF7FEFF 		bl	lv_event_get_param
 3169              	.LVL452:
 3170 02bc 0378     		ldrb	r3, [r0]
 3171              	.LVL453:
 553:..\..\..\arduinoLCD\test\Pain Drain\libraries\lvgl\src\widgets/lv_arc.c ****         if(c == LV_KEY_RIGHT || c == LV_KEY_UP) {
 3172              		.loc 1 553 0
 3173 02be 2E22     		movs	r2, #46
 3174 02c0 B45E     		ldrsh	r4, [r6, r2]
 3175              	.LVL454:
 554:..\..\..\arduinoLCD\test\Pain Drain\libraries\lvgl\src\widgets/lv_arc.c ****             lv_arc_set_value(obj, lv_arc_get_value(obj) + 1);
 3176              		.loc 1 554 0
 3177 02c2 132B     		cmp	r3, #19
 3178 02c4 01D0     		beq	.L129
 554:..\..\..\arduinoLCD\test\Pain Drain\libraries\lvgl\src\widgets/lv_arc.c ****             lv_arc_set_value(obj, lv_arc_get_value(obj) + 1);
 3179              		.loc 1 554 0 is_stmt 0 discriminator 1
 3180 02c6 112B     		cmp	r3, #17
 3181 02c8 08D1     		bne	.L130
 3182              	.L129:
 555:..\..\..\arduinoLCD\test\Pain Drain\libraries\lvgl\src\widgets/lv_arc.c ****         }
 3183              		.loc 1 555 0 is_stmt 1
 3184 02ca 3800     		movs	r0, r7
 3185 02cc FFF7FEFF 		bl	lv_arc_get_value
 3186              	.LVL455:
 3187 02d0 0130     		adds	r0, r0, #1
 3188 02d2 01B2     		sxth	r1, r0
 3189 02d4 3800     		movs	r0, r7
 3190 02d6 FFF7FEFF 		bl	lv_arc_set_value
 3191              	.LVL456:
 3192 02da 0BE0     		b	.L131
 3193              	.LVL457:
 3194              	.L130:
 557:..\..\..\arduinoLCD\test\Pain Drain\libraries\lvgl\src\widgets/lv_arc.c ****             lv_arc_set_value(obj, lv_arc_get_value(obj) - 1);
 3195              		.loc 1 557 0
 3196 02dc 142B     		cmp	r3, #20
 3197 02de 01D0     		beq	.L132
 557:..\..\..\arduinoLCD\test\Pain Drain\libraries\lvgl\src\widgets/lv_arc.c ****             lv_arc_set_value(obj, lv_arc_get_value(obj) - 1);
 3198              		.loc 1 557 0 is_stmt 0 discriminator 1
 3199 02e0 122B     		cmp	r3, #18
 3200 02e2 07D1     		bne	.L131
 3201              	.L132:
 558:..\..\..\arduinoLCD\test\Pain Drain\libraries\lvgl\src\widgets/lv_arc.c ****         }
 3202              		.loc 1 558 0 is_stmt 1
 3203 02e4 3800     		movs	r0, r7
 3204 02e6 FFF7FEFF 		bl	lv_arc_get_value
 3205              	.LVL458:
 3206 02ea 0138     		subs	r0, r0, #1
 3207 02ec 01B2     		sxth	r1, r0
 3208 02ee 3800     		movs	r0, r7
 3209 02f0 FFF7FEFF 		bl	lv_arc_set_value
 3210              	.LVL459:
 3211              	.L131:
 561:..\..\..\arduinoLCD\test\Pain Drain\libraries\lvgl\src\widgets/lv_arc.c ****             res = lv_event_send(obj, LV_EVENT_VALUE_CHANGED, NULL);
 3212              		.loc 1 561 0
 3213 02f4 2E22     		movs	r2, #46
 3214 02f6 B35E     		ldrsh	r3, [r6, r2]
 3215 02f8 9C42     		cmp	r4, r3
ARM GAS  C:\Users\haske\AppData\Local\Temp\ccmHbbn5.s 			page 87


 3216 02fa 00D1     		bne	.LCB3168
 3217 02fc BFE0     		b	.L107	@long jump
 3218              	.LCB3168:
 562:..\..\..\arduinoLCD\test\Pain Drain\libraries\lvgl\src\widgets/lv_arc.c ****             if(res != LV_RES_OK) return;
 3219              		.loc 1 562 0
 3220 02fe 0022     		movs	r2, #0
 3221 0300 1C21     		movs	r1, #28
 3222 0302 3800     		movs	r0, r7
 3223 0304 FFF7FEFF 		bl	lv_event_send
 3224              	.LVL460:
 3225 0308 B9E0     		b	.L107
 3226              	.LVL461:
 3227              	.L128:
 3228              	.LBE138:
 566:..\..\..\arduinoLCD\test\Pain Drain\libraries\lvgl\src\widgets/lv_arc.c ****         lv_hit_test_info_t * info = lv_event_get_param(e);;
 3229              		.loc 1 566 0
 3230 030a 112D     		cmp	r5, #17
 3231 030c 48D1     		bne	.L133
 3232              	.LBB139:
 567:..\..\..\arduinoLCD\test\Pain Drain\libraries\lvgl\src\widgets/lv_arc.c **** 
 3233              		.loc 1 567 0
 3234 030e 2000     		movs	r0, r4
 3235              	.LVL462:
 3236 0310 FFF7FEFF 		bl	lv_event_get_param
 3237              	.LVL463:
 3238 0314 0600     		movs	r6, r0
 3239              	.LVL464:
 571:..\..\..\arduinoLCD\test\Pain Drain\libraries\lvgl\src\widgets/lv_arc.c **** 
 3240              		.loc 1 571 0
 3241 0316 0A22     		movs	r2, #10
 3242 0318 6A44     		add	r2, r2, sp
 3243 031a 03A9     		add	r1, sp, #12
 3244 031c 3800     		movs	r0, r7
 3245              	.LVL465:
 3246 031e FFF7FEFF 		bl	get_center
 3247              	.LVL466:
 574:..\..\..\arduinoLCD\test\Pain Drain\libraries\lvgl\src\widgets/lv_arc.c **** 
 3248              		.loc 1 574 0
 3249 0322 BB68     		ldr	r3, [r7, #8]
 3250 0324 002B     		cmp	r3, #0
 3251 0326 05D0     		beq	.L146
 574:..\..\..\arduinoLCD\test\Pain Drain\libraries\lvgl\src\widgets/lv_arc.c **** 
 3252              		.loc 1 574 0 is_stmt 0 discriminator 1
 3253 0328 1425     		movs	r5, #20
 3254 032a 5D5F     		ldrsh	r5, [r3, r5]
 3255              	.LVL467:
 3256 032c 03E0     		b	.L134
 3257              	.L148:
 3258 032e C046     		.align	2
 3259              	.L147:
 3260 0330 00000000 		.word	.LANCHOR0
 3261              	.LVL468:
 3262              	.L146:
 573:..\..\..\arduinoLCD\test\Pain Drain\libraries\lvgl\src\widgets/lv_arc.c ****         if(obj->spec_attr) ext_click_area = obj->spec_attr->ext_click_pad;
 3263              		.loc 1 573 0 is_stmt 1
 3264 0334 0025     		movs	r5, #0
 3265              	.LVL469:
ARM GAS  C:\Users\haske\AppData\Local\Temp\ccmHbbn5.s 			page 88


 3266              	.L134:
 3267              	.LBB140:
 3268              	.LBB141:
 411:..\..\..\arduinoLCD\test\Pain Drain\libraries\lvgl\src\widgets\../core/lv_obj_style_gen.h ****     return (lv_coord_t)v.num;
 3269              		.loc 2 411 0
 3270 0336 5022     		movs	r2, #80
 3271 0338 0021     		movs	r1, #0
 3272 033a 3800     		movs	r0, r7
 3273 033c FFF7FEFF 		bl	lv_obj_get_style_prop
 3274              	.LVL470:
 3275              	.LBE141:
 3276              	.LBE140:
 577:..\..\..\arduinoLCD\test\Pain Drain\libraries\lvgl\src\widgets/lv_arc.c **** 
 3277              		.loc 1 577 0
 3278 0340 87B2     		uxth	r7, r0
 3279              	.LVL471:
 3280 0342 ADB2     		uxth	r5, r5
 3281 0344 0A22     		movs	r2, #10
 3282 0346 6A44     		add	r2, r2, sp
 3283 0348 7819     		adds	r0, r7, r5
 3284 034a 1388     		ldrh	r3, [r2]
 3285 034c 181A     		subs	r0, r3, r0
 3286 034e 80B2     		uxth	r0, r0
 3287 0350 1080     		strh	r0, [r2]
 581:..\..\..\arduinoLCD\test\Pain Drain\libraries\lvgl\src\widgets/lv_arc.c ****         if(_lv_area_is_point_on(&a, info->point, LV_RADIUS_CIRCLE)) {
 3288              		.loc 1 581 0
 3289 0352 03AB     		add	r3, sp, #12
 3290 0354 1988     		ldrh	r1, [r3]
 3291 0356 5C88     		ldrh	r4, [r3, #2]
 3292              	.LVL472:
 3293 0358 4318     		adds	r3, r0, r1
 3294 035a 1BB2     		sxth	r3, r3
 3295 035c 221A     		subs	r2, r4, r0
 3296 035e 12B2     		sxth	r2, r2
 3297 0360 091A     		subs	r1, r1, r0
 3298 0362 09B2     		sxth	r1, r1
 3299 0364 0019     		adds	r0, r0, r4
 3300 0366 00B2     		sxth	r0, r0
 3301 0368 0090     		str	r0, [sp]
 3302 036a 04A8     		add	r0, sp, #16
 3303 036c FFF7FEFF 		bl	lv_area_set
 3304              	.LVL473:
 582:..\..\..\arduinoLCD\test\Pain Drain\libraries\lvgl\src\widgets/lv_arc.c ****             info->res = false;
 3305              		.loc 1 582 0
 3306 0370 464A     		ldr	r2, .L149
 3307 0372 3168     		ldr	r1, [r6]
 3308 0374 04A8     		add	r0, sp, #16
 3309 0376 FFF7FEFF 		bl	_lv_area_is_point_on
 3310              	.LVL474:
 3311 037a 0028     		cmp	r0, #0
 3312 037c 02D0     		beq	.L135
 583:..\..\..\arduinoLCD\test\Pain Drain\libraries\lvgl\src\widgets/lv_arc.c ****             return;
 3313              		.loc 1 583 0
 3314 037e 0023     		movs	r3, #0
 3315 0380 3371     		strb	r3, [r6, #4]
 3316 0382 7CE0     		b	.L107
 3317              	.L135:
ARM GAS  C:\Users\haske\AppData\Local\Temp\ccmHbbn5.s 			page 89


 588:..\..\..\arduinoLCD\test\Pain Drain\libraries\lvgl\src\widgets/lv_arc.c ****         info->res = _lv_area_is_point_on(&a, info->point, LV_RADIUS_CIRCLE);
 3318              		.loc 1 588 0
 3319 0384 6900     		lsls	r1, r5, #1
 3320 0386 7F18     		adds	r7, r7, r1
 3321 0388 39B2     		sxth	r1, r7
 3322 038a 0A00     		movs	r2, r1
 3323 038c 04A8     		add	r0, sp, #16
 3324 038e FFF7FEFF 		bl	lv_area_increase
 3325              	.LVL475:
 589:..\..\..\arduinoLCD\test\Pain Drain\libraries\lvgl\src\widgets/lv_arc.c ****     }
 3326              		.loc 1 589 0
 3327 0392 3E4A     		ldr	r2, .L149
 3328 0394 3168     		ldr	r1, [r6]
 3329 0396 04A8     		add	r0, sp, #16
 3330 0398 FFF7FEFF 		bl	_lv_area_is_point_on
 3331              	.LVL476:
 3332 039c 3071     		strb	r0, [r6, #4]
 3333              	.LBE139:
 3334 039e 6EE0     		b	.L107
 3335              	.LVL477:
 3336              	.L133:
 591:..\..\..\arduinoLCD\test\Pain Drain\libraries\lvgl\src\widgets/lv_arc.c ****         lv_coord_t bg_left = lv_obj_get_style_pad_left(obj, LV_PART_MAIN);
 3337              		.loc 1 591 0
 3338 03a0 132D     		cmp	r5, #19
 3339 03a2 67D1     		bne	.L136
 3340              	.LVL478:
 3341              	.LBB142:
 3342              	.LBB143:
 3343              	.LBB144:
 117:..\..\..\arduinoLCD\test\Pain Drain\libraries\lvgl\src\widgets\../core/lv_obj_style_gen.h ****     return (lv_coord_t)v.num;
 3344              		.loc 2 117 0
 3345 03a4 1222     		movs	r2, #18
 3346 03a6 0021     		movs	r1, #0
 3347 03a8 3800     		movs	r0, r7
 3348              	.LVL479:
 3349 03aa FFF7FEFF 		bl	lv_obj_get_style_prop
 3350              	.LVL480:
 118:..\..\..\arduinoLCD\test\Pain Drain\libraries\lvgl\src\widgets\../core/lv_obj_style_gen.h **** }
 3351              		.loc 2 118 0
 3352 03ae 06B2     		sxth	r6, r0
 3353              	.LVL481:
 3354              	.LBE144:
 3355              	.LBE143:
 3356              	.LBB145:
 3357              	.LBB146:
 123:..\..\..\arduinoLCD\test\Pain Drain\libraries\lvgl\src\widgets\../core/lv_obj_style_gen.h ****     return (lv_coord_t)v.num;
 3358              		.loc 2 123 0
 3359 03b0 1322     		movs	r2, #19
 3360 03b2 0021     		movs	r1, #0
 3361 03b4 3800     		movs	r0, r7
 3362 03b6 FFF7FEFF 		bl	lv_obj_get_style_prop
 3363              	.LVL482:
 124:..\..\..\arduinoLCD\test\Pain Drain\libraries\lvgl\src\widgets\../core/lv_obj_style_gen.h **** }
 3364              		.loc 2 124 0
 3365 03ba 05B2     		sxth	r5, r0
 3366              	.LVL483:
 3367              	.LBE146:
ARM GAS  C:\Users\haske\AppData\Local\Temp\ccmHbbn5.s 			page 90


 3368              	.LBE145:
 3369              	.LBB147:
 3370              	.LBB148:
 105:..\..\..\arduinoLCD\test\Pain Drain\libraries\lvgl\src\widgets\../core/lv_obj_style_gen.h ****     return (lv_coord_t)v.num;
 3371              		.loc 2 105 0
 3372 03bc 1022     		movs	r2, #16
 3373 03be 0021     		movs	r1, #0
 3374 03c0 3800     		movs	r0, r7
 3375 03c2 FFF7FEFF 		bl	lv_obj_get_style_prop
 3376              	.LVL484:
 106:..\..\..\arduinoLCD\test\Pain Drain\libraries\lvgl\src\widgets\../core/lv_obj_style_gen.h **** }
 3377              		.loc 2 106 0
 3378 03c6 03B2     		sxth	r3, r0
 3379 03c8 9846     		mov	r8, r3
 3380              	.LVL485:
 3381              	.LBE148:
 3382              	.LBE147:
 3383              	.LBB149:
 3384              	.LBB150:
 111:..\..\..\arduinoLCD\test\Pain Drain\libraries\lvgl\src\widgets\../core/lv_obj_style_gen.h ****     return (lv_coord_t)v.num;
 3385              		.loc 2 111 0
 3386 03ca 1122     		movs	r2, #17
 3387 03cc 0021     		movs	r1, #0
 3388 03ce 3800     		movs	r0, r7
 3389 03d0 FFF7FEFF 		bl	lv_obj_get_style_prop
 3390              	.LVL486:
 112:..\..\..\arduinoLCD\test\Pain Drain\libraries\lvgl\src\widgets\../core/lv_obj_style_gen.h **** }
 3391              		.loc 2 112 0
 3392 03d4 00B2     		sxth	r0, r0
 3393              	.LVL487:
 3394              	.LBE150:
 3395              	.LBE149:
 596:..\..\..\arduinoLCD\test\Pain Drain\libraries\lvgl\src\widgets/lv_arc.c **** 
 3396              		.loc 1 596 0
 3397 03d6 031C     		adds	r3, r0, #0
 3398 03d8 4045     		cmp	r0, r8
 3399 03da 00DA     		bge	.L137
 3400 03dc 4346     		mov	r3, r8
 3401              	.L137:
 3402 03de 1BB2     		sxth	r3, r3
 3403 03e0 2A1C     		adds	r2, r5, #0
 3404 03e2 B542     		cmp	r5, r6
 3405 03e4 00DA     		bge	.L138
 3406 03e6 321C     		adds	r2, r6, #0
 3407              	.L138:
 3408 03e8 1D1C     		adds	r5, r3, #0
 3409 03ea 11B2     		sxth	r1, r2
 3410 03ec 8B42     		cmp	r3, r1
 3411 03ee 00DA     		bge	.L139
 3412 03f0 151C     		adds	r5, r2, #0
 3413              	.L139:
 3414 03f2 2DB2     		sxth	r5, r5
 3415              	.LVL488:
 3416              	.LBB151:
 3417              	.LBB152:
 117:..\..\..\arduinoLCD\test\Pain Drain\libraries\lvgl\src\widgets\../core/lv_obj_style_gen.h ****     return (lv_coord_t)v.num;
 3418              		.loc 2 117 0
ARM GAS  C:\Users\haske\AppData\Local\Temp\ccmHbbn5.s 			page 91


 3419 03f4 1222     		movs	r2, #18
 3420 03f6 C021     		movs	r1, #192
 3421 03f8 8902     		lsls	r1, r1, #10
 3422 03fa 3800     		movs	r0, r7
 3423 03fc FFF7FEFF 		bl	lv_obj_get_style_prop
 3424              	.LVL489:
 118:..\..\..\arduinoLCD\test\Pain Drain\libraries\lvgl\src\widgets\../core/lv_obj_style_gen.h **** }
 3425              		.loc 2 118 0
 3426 0400 06B2     		sxth	r6, r0
 3427              	.LVL490:
 3428              	.LBE152:
 3429              	.LBE151:
 3430              	.LBB153:
 3431              	.LBB154:
 123:..\..\..\arduinoLCD\test\Pain Drain\libraries\lvgl\src\widgets\../core/lv_obj_style_gen.h ****     return (lv_coord_t)v.num;
 3432              		.loc 2 123 0
 3433 0402 1322     		movs	r2, #19
 3434 0404 C021     		movs	r1, #192
 3435 0406 8902     		lsls	r1, r1, #10
 3436 0408 3800     		movs	r0, r7
 3437 040a FFF7FEFF 		bl	lv_obj_get_style_prop
 3438              	.LVL491:
 124:..\..\..\arduinoLCD\test\Pain Drain\libraries\lvgl\src\widgets\../core/lv_obj_style_gen.h **** }
 3439              		.loc 2 124 0
 3440 040e 03B2     		sxth	r3, r0
 3441 0410 9846     		mov	r8, r3
 3442              	.LVL492:
 3443              	.LBE154:
 3444              	.LBE153:
 3445              	.LBB155:
 3446              	.LBB156:
 105:..\..\..\arduinoLCD\test\Pain Drain\libraries\lvgl\src\widgets\../core/lv_obj_style_gen.h ****     return (lv_coord_t)v.num;
 3447              		.loc 2 105 0
 3448 0412 1022     		movs	r2, #16
 3449 0414 C021     		movs	r1, #192
 3450 0416 8902     		lsls	r1, r1, #10
 3451 0418 3800     		movs	r0, r7
 3452 041a FFF7FEFF 		bl	lv_obj_get_style_prop
 3453              	.LVL493:
 106:..\..\..\arduinoLCD\test\Pain Drain\libraries\lvgl\src\widgets\../core/lv_obj_style_gen.h **** }
 3454              		.loc 2 106 0
 3455 041e 03B2     		sxth	r3, r0
 3456 0420 9A46     		mov	r10, r3
 3457              	.LVL494:
 3458              	.LBE156:
 3459              	.LBE155:
 3460              	.LBB157:
 3461              	.LBB158:
 111:..\..\..\arduinoLCD\test\Pain Drain\libraries\lvgl\src\widgets\../core/lv_obj_style_gen.h ****     return (lv_coord_t)v.num;
 3462              		.loc 2 111 0
 3463 0422 1122     		movs	r2, #17
 3464 0424 C021     		movs	r1, #192
 3465 0426 8902     		lsls	r1, r1, #10
 3466 0428 3800     		movs	r0, r7
 3467 042a FFF7FEFF 		bl	lv_obj_get_style_prop
 3468              	.LVL495:
 112:..\..\..\arduinoLCD\test\Pain Drain\libraries\lvgl\src\widgets\../core/lv_obj_style_gen.h **** }
ARM GAS  C:\Users\haske\AppData\Local\Temp\ccmHbbn5.s 			page 92


 3469              		.loc 2 112 0
 3470 042e 00B2     		sxth	r0, r0
 3471              	.LVL496:
 3472              	.LBE158:
 3473              	.LBE157:
 602:..\..\..\arduinoLCD\test\Pain Drain\libraries\lvgl\src\widgets/lv_arc.c **** 
 3474              		.loc 1 602 0
 3475 0430 021C     		adds	r2, r0, #0
 3476 0432 5045     		cmp	r0, r10
 3477 0434 00DA     		bge	.L140
 3478 0436 5246     		mov	r2, r10
 3479              	.L140:
 3480 0438 12B2     		sxth	r2, r2
 3481 043a 4146     		mov	r1, r8
 3482 043c B045     		cmp	r8, r6
 3483 043e 00DA     		bge	.L141
 3484 0440 311C     		adds	r1, r6, #0
 3485              	.L141:
 3486 0442 131C     		adds	r3, r2, #0
 3487 0444 08B2     		sxth	r0, r1
 3488 0446 8242     		cmp	r2, r0
 3489 0448 00DA     		bge	.L142
 3490 044a 0B1C     		adds	r3, r1, #0
 3491              	.L142:
 3492 044c 0233     		adds	r3, r3, #2
 3493 044e 9BB2     		uxth	r3, r3
 3494              	.LVL497:
 604:..\..\..\arduinoLCD\test\Pain Drain\libraries\lvgl\src\widgets/lv_arc.c ****         knob_extra_size += knob_get_extra_size(obj);
 3495              		.loc 1 604 0
 3496 0450 5D1B     		subs	r5, r3, r5
 3497              	.LVL498:
 3498 0452 ADB2     		uxth	r5, r5
 3499              	.LVL499:
 605:..\..\..\arduinoLCD\test\Pain Drain\libraries\lvgl\src\widgets/lv_arc.c **** 
 3500              		.loc 1 605 0
 3501 0454 3800     		movs	r0, r7
 3502 0456 FFF7FEFF 		bl	knob_get_extra_size
 3503              	.LVL500:
 3504 045a 2D18     		adds	r5, r5, r0
 3505              	.LVL501:
 3506 045c 2DB2     		sxth	r5, r5
 3507              	.LVL502:
 607:..\..\..\arduinoLCD\test\Pain Drain\libraries\lvgl\src\widgets/lv_arc.c ****         *s = LV_MAX(*s, knob_extra_size);
 3508              		.loc 1 607 0
 3509 045e 2000     		movs	r0, r4
 3510 0460 FFF7FEFF 		bl	lv_event_get_param
 3511              	.LVL503:
 608:..\..\..\arduinoLCD\test\Pain Drain\libraries\lvgl\src\widgets/lv_arc.c ****     }
 3512              		.loc 1 608 0
 3513 0464 0023     		movs	r3, #0
 3514 0466 C25E     		ldrsh	r2, [r0, r3]
 3515 0468 2B1C     		adds	r3, r5, #0
 3516 046a 9542     		cmp	r5, r2
 3517 046c 00DA     		bge	.L143
 3518 046e 131C     		adds	r3, r2, #0
 3519              	.L143:
 3520 0470 0380     		strh	r3, [r0]
ARM GAS  C:\Users\haske\AppData\Local\Temp\ccmHbbn5.s 			page 93


 3521              	.LBE142:
 3522 0472 04E0     		b	.L107
 3523              	.LVL504:
 3524              	.L136:
 610:..\..\..\arduinoLCD\test\Pain Drain\libraries\lvgl\src\widgets/lv_arc.c ****         lv_arc_draw(e);
 3525              		.loc 1 610 0
 3526 0474 152D     		cmp	r5, #21
 3527 0476 02D1     		bne	.L107
 611:..\..\..\arduinoLCD\test\Pain Drain\libraries\lvgl\src\widgets/lv_arc.c ****     }
 3528              		.loc 1 611 0
 3529 0478 2000     		movs	r0, r4
 3530              	.LVL505:
 3531 047a FFF7FEFF 		bl	lv_arc_draw
 3532              	.LVL506:
 3533              	.L107:
 613:..\..\..\arduinoLCD\test\Pain Drain\libraries\lvgl\src\widgets/lv_arc.c **** 
 3534              		.loc 1 613 0
 3535 047e 06B0     		add	sp, sp, #24
 3536              		@ sp needed
 3537 0480 1CBC     		pop	{r2, r3, r4}
 3538 0482 9046     		mov	r8, r2
 3539 0484 9946     		mov	r9, r3
 3540 0486 A246     		mov	r10, r4
 3541 0488 F0BD     		pop	{r4, r5, r6, r7, pc}
 3542              	.L150:
 3543 048a C046     		.align	2
 3544              	.L149:
 3545 048c FF7F0000 		.word	32767
 3546              		.cfi_endproc
 3547              	.LFE182:
 3548              		.size	lv_arc_event, .-lv_arc_event
 3549              		.section	.text.lv_arc_get_min_value,"ax",%progbits
 3550              		.align	2
 3551              		.global	lv_arc_get_min_value
 3552              		.code	16
 3553              		.thumb_func
 3554              		.type	lv_arc_get_min_value, %function
 3555              	lv_arc_get_min_value:
 3556              	.LFB176:
 305:..\..\..\arduinoLCD\test\Pain Drain\libraries\lvgl\src\widgets/lv_arc.c ****     LV_ASSERT_OBJ(obj, MY_CLASS);
 3557              		.loc 1 305 0
 3558              		.cfi_startproc
 3559              		@ args = 0, pretend = 0, frame = 0
 3560              		@ frame_needed = 0, uses_anonymous_args = 0
 3561              		@ link register save eliminated.
 3562              	.LVL507:
 307:..\..\..\arduinoLCD\test\Pain Drain\libraries\lvgl\src\widgets/lv_arc.c **** }
 3563              		.loc 1 307 0
 3564 0000 3023     		movs	r3, #48
 3565 0002 C05E     		ldrsh	r0, [r0, r3]
 3566              	.LVL508:
 308:..\..\..\arduinoLCD\test\Pain Drain\libraries\lvgl\src\widgets/lv_arc.c **** 
 3567              		.loc 1 308 0
 3568              		@ sp needed
 3569 0004 7047     		bx	lr
 3570              		.cfi_endproc
 3571              	.LFE176:
ARM GAS  C:\Users\haske\AppData\Local\Temp\ccmHbbn5.s 			page 94


 3572              		.size	lv_arc_get_min_value, .-lv_arc_get_min_value
 3573 0006 C046     		.section	.text.lv_arc_get_max_value,"ax",%progbits
 3574              		.align	2
 3575              		.global	lv_arc_get_max_value
 3576              		.code	16
 3577              		.thumb_func
 3578              		.type	lv_arc_get_max_value, %function
 3579              	lv_arc_get_max_value:
 3580              	.LFB177:
 311:..\..\..\arduinoLCD\test\Pain Drain\libraries\lvgl\src\widgets/lv_arc.c ****     LV_ASSERT_OBJ(obj, MY_CLASS);
 3581              		.loc 1 311 0
 3582              		.cfi_startproc
 3583              		@ args = 0, pretend = 0, frame = 0
 3584              		@ frame_needed = 0, uses_anonymous_args = 0
 3585              		@ link register save eliminated.
 3586              	.LVL509:
 313:..\..\..\arduinoLCD\test\Pain Drain\libraries\lvgl\src\widgets/lv_arc.c **** }
 3587              		.loc 1 313 0
 3588 0000 3223     		movs	r3, #50
 3589 0002 C05E     		ldrsh	r0, [r0, r3]
 3590              	.LVL510:
 314:..\..\..\arduinoLCD\test\Pain Drain\libraries\lvgl\src\widgets/lv_arc.c **** 
 3591              		.loc 1 314 0
 3592              		@ sp needed
 3593 0004 7047     		bx	lr
 3594              		.cfi_endproc
 3595              	.LFE177:
 3596              		.size	lv_arc_get_max_value, .-lv_arc_get_max_value
 3597 0006 C046     		.section	.text.lv_arc_get_mode,"ax",%progbits
 3598              		.align	2
 3599              		.global	lv_arc_get_mode
 3600              		.code	16
 3601              		.thumb_func
 3602              		.type	lv_arc_get_mode, %function
 3603              	lv_arc_get_mode:
 3604              	.LFB178:
 317:..\..\..\arduinoLCD\test\Pain Drain\libraries\lvgl\src\widgets/lv_arc.c ****     LV_ASSERT_OBJ(obj, MY_CLASS);
 3605              		.loc 1 317 0
 3606              		.cfi_startproc
 3607              		@ args = 0, pretend = 0, frame = 0
 3608              		@ frame_needed = 0, uses_anonymous_args = 0
 3609              		@ link register save eliminated.
 3610              	.LVL511:
 319:..\..\..\arduinoLCD\test\Pain Drain\libraries\lvgl\src\widgets/lv_arc.c **** }
 3611              		.loc 1 319 0
 3612 0000 3423     		movs	r3, #52
 3613 0002 C05C     		ldrb	r0, [r0, r3]
 3614              	.LVL512:
 3615 0004 4007     		lsls	r0, r0, #29
 3616 0006 800F     		lsrs	r0, r0, #30
 320:..\..\..\arduinoLCD\test\Pain Drain\libraries\lvgl\src\widgets/lv_arc.c **** 
 3617              		.loc 1 320 0
 3618              		@ sp needed
 3619 0008 7047     		bx	lr
 3620              		.cfi_endproc
 3621              	.LFE178:
 3622              		.size	lv_arc_get_mode, .-lv_arc_get_mode
ARM GAS  C:\Users\haske\AppData\Local\Temp\ccmHbbn5.s 			page 95


 3623 000a C046     		.section	.text.lv_arc_align_obj_to_angle,"ax",%progbits
 3624              		.align	2
 3625              		.global	lv_arc_align_obj_to_angle
 3626              		.code	16
 3627              		.thumb_func
 3628              		.type	lv_arc_align_obj_to_angle, %function
 3629              	lv_arc_align_obj_to_angle:
 3630              	.LFB179:
 328:..\..\..\arduinoLCD\test\Pain Drain\libraries\lvgl\src\widgets/lv_arc.c ****     LV_ASSERT_OBJ(obj, MY_CLASS);
 3631              		.loc 1 328 0
 3632              		.cfi_startproc
 3633              		@ args = 0, pretend = 0, frame = 16
 3634              		@ frame_needed = 0, uses_anonymous_args = 0
 3635              	.LVL513:
 3636 0000 F0B5     		push	{r4, r5, r6, r7, lr}
 3637              		.cfi_def_cfa_offset 20
 3638              		.cfi_offset 4, -20
 3639              		.cfi_offset 5, -16
 3640              		.cfi_offset 6, -12
 3641              		.cfi_offset 7, -8
 3642              		.cfi_offset 14, -4
 3643 0002 87B0     		sub	sp, sp, #28
 3644              		.cfi_def_cfa_offset 48
 3645 0004 0400     		movs	r4, r0
 3646 0006 0E00     		movs	r6, r1
 3647 0008 1700     		movs	r7, r2
 330:..\..\..\arduinoLCD\test\Pain Drain\libraries\lvgl\src\widgets/lv_arc.c **** 
 3648              		.loc 1 330 0
 3649 000a 0029     		cmp	r1, #0
 3650 000c 00D1     		bne	.L155
 3651              	.L156:
 3652 000e FEE7     		b	.L156
 3653              	.L155:
 332:..\..\..\arduinoLCD\test\Pain Drain\libraries\lvgl\src\widgets/lv_arc.c **** 
 3654              		.loc 1 332 0
 3655 0010 FFF7FEFF 		bl	lv_obj_update_layout
 3656              	.LVL514:
 336:..\..\..\arduinoLCD\test\Pain Drain\libraries\lvgl\src\widgets/lv_arc.c ****     lv_coord_t indic_width = lv_obj_get_style_arc_width(obj, LV_PART_INDICATOR);
 3657              		.loc 1 336 0
 3658 0014 0A25     		movs	r5, #10
 3659 0016 02AB     		add	r3, sp, #8
 3660 0018 9C46     		mov	ip, r3
 3661 001a 6544     		add	r5, r5, ip
 3662 001c 2A00     		movs	r2, r5
 3663 001e 05A9     		add	r1, sp, #20
 3664 0020 2000     		movs	r0, r4
 3665 0022 FFF7FEFF 		bl	get_center
 3666              	.LVL515:
 3667              	.LBB159:
 3668              	.LBB160:
 411:..\..\..\arduinoLCD\test\Pain Drain\libraries\lvgl\src\widgets\../core/lv_obj_style_gen.h ****     return (lv_coord_t)v.num;
 3669              		.loc 2 411 0
 3670 0026 5022     		movs	r2, #80
 3671 0028 8021     		movs	r1, #128
 3672 002a 8902     		lsls	r1, r1, #10
 3673 002c 2000     		movs	r0, r4
 3674 002e FFF7FEFF 		bl	lv_obj_get_style_prop
ARM GAS  C:\Users\haske\AppData\Local\Temp\ccmHbbn5.s 			page 96


 3675              	.LVL516:
 412:..\..\..\arduinoLCD\test\Pain Drain\libraries\lvgl\src\widgets\../core/lv_obj_style_gen.h **** }
 3676              		.loc 2 412 0
 3677 0032 00B2     		sxth	r0, r0
 3678              	.LVL517:
 3679              	.LBE160:
 3680              	.LBE159:
 338:..\..\..\arduinoLCD\test\Pain Drain\libraries\lvgl\src\widgets/lv_arc.c ****     arc_r -= indic_width_half;
 3681              		.loc 1 338 0
 3682 0034 C30F     		lsrs	r3, r0, #31
 3683 0036 1818     		adds	r0, r3, r0
 3684 0038 4010     		asrs	r0, r0, #1
 3685              	.LVL518:
 339:..\..\..\arduinoLCD\test\Pain Drain\libraries\lvgl\src\widgets/lv_arc.c ****     arc_r += r_offset;
 3686              		.loc 1 339 0
 3687 003a 2B88     		ldrh	r3, [r5]
 3688 003c 181A     		subs	r0, r3, r0
 3689              	.LVL519:
 3690 003e 80B2     		uxth	r0, r0
 340:..\..\..\arduinoLCD\test\Pain Drain\libraries\lvgl\src\widgets/lv_arc.c **** 
 3691              		.loc 1 340 0
 3692 0040 C019     		adds	r0, r0, r7
 3693 0042 07B2     		sxth	r7, r0
 3694 0044 2F80     		strh	r7, [r5]
 342:..\..\..\arduinoLCD\test\Pain Drain\libraries\lvgl\src\widgets/lv_arc.c ****     lv_coord_t knob_x = (arc_r * lv_trigo_sin(angle + 90)) >> LV_TRIGO_SHIFT;
 3695              		.loc 1 342 0
 3696 0046 2000     		movs	r0, r4
 3697 0048 FFF7FEFF 		bl	get_angle
 3698              	.LVL520:
 3699 004c 0390     		str	r0, [sp, #12]
 3700 004e 6B46     		mov	r3, sp
 3701 0050 9889     		ldrh	r0, [r3, #12]
 3702              	.LVL521:
 343:..\..\..\arduinoLCD\test\Pain Drain\libraries\lvgl\src\widgets/lv_arc.c ****     lv_coord_t knob_y = (arc_r * lv_trigo_sin(angle)) >> LV_TRIGO_SHIFT;
 3703              		.loc 1 343 0
 3704 0052 5A30     		adds	r0, r0, #90
 3705              	.LVL522:
 3706 0054 00B2     		sxth	r0, r0
 3707              	.LVL523:
 3708 0056 FFF7FEFF 		bl	lv_trigo_sin
 3709              	.LVL524:
 3710 005a 0300     		movs	r3, r0
 3711 005c 7B43     		muls	r3, r7
 3712 005e DB13     		asrs	r3, r3, #15
 3713 0060 1FB2     		sxth	r7, r3
 3714              	.LVL525:
 344:..\..\..\arduinoLCD\test\Pain Drain\libraries\lvgl\src\widgets/lv_arc.c ****     lv_obj_align_to(obj_to_align, obj, LV_ALIGN_CENTER, knob_x, knob_y);
 3715              		.loc 1 344 0
 3716 0062 0023     		movs	r3, #0
 3717 0064 ED5E     		ldrsh	r5, [r5, r3]
 3718 0066 0398     		ldr	r0, [sp, #12]
 3719 0068 FFF7FEFF 		bl	lv_trigo_sin
 3720              	.LVL526:
 3721 006c 2B00     		movs	r3, r5
 3722 006e 4343     		muls	r3, r0
 3723 0070 DB13     		asrs	r3, r3, #15
 3724 0072 1BB2     		sxth	r3, r3
ARM GAS  C:\Users\haske\AppData\Local\Temp\ccmHbbn5.s 			page 97


 3725              	.LVL527:
 345:..\..\..\arduinoLCD\test\Pain Drain\libraries\lvgl\src\widgets/lv_arc.c **** }
 3726              		.loc 1 345 0
 3727 0074 0093     		str	r3, [sp]
 3728 0076 3B00     		movs	r3, r7
 3729              	.LVL528:
 3730 0078 0922     		movs	r2, #9
 3731 007a 2100     		movs	r1, r4
 3732 007c 3000     		movs	r0, r6
 3733 007e FFF7FEFF 		bl	lv_obj_align_to
 3734              	.LVL529:
 346:..\..\..\arduinoLCD\test\Pain Drain\libraries\lvgl\src\widgets/lv_arc.c **** 
 3735              		.loc 1 346 0
 3736 0082 07B0     		add	sp, sp, #28
 3737              	.LVL530:
 3738              		@ sp needed
 3739              	.LVL531:
 3740              	.LVL532:
 3741              	.LVL533:
 3742 0084 F0BD     		pop	{r4, r5, r6, r7, pc}
 3743              		.cfi_endproc
 3744              	.LFE179:
 3745              		.size	lv_arc_align_obj_to_angle, .-lv_arc_align_obj_to_angle
 3746 0086 C046     		.section	.text.lv_arc_rotate_obj_to_angle,"ax",%progbits
 3747              		.align	2
 3748              		.global	lv_arc_rotate_obj_to_angle
 3749              		.code	16
 3750              		.thumb_func
 3751              		.type	lv_arc_rotate_obj_to_angle, %function
 3752              	lv_arc_rotate_obj_to_angle:
 3753              	.LFB180:
 349:..\..\..\arduinoLCD\test\Pain Drain\libraries\lvgl\src\widgets/lv_arc.c ****     LV_ASSERT_OBJ(obj, MY_CLASS);
 3754              		.loc 1 349 0
 3755              		.cfi_startproc
 3756              		@ args = 0, pretend = 0, frame = 16
 3757              		@ frame_needed = 0, uses_anonymous_args = 0
 3758              	.LVL534:
 3759 0000 F0B5     		push	{r4, r5, r6, r7, lr}
 3760              		.cfi_def_cfa_offset 20
 3761              		.cfi_offset 4, -20
 3762              		.cfi_offset 5, -16
 3763              		.cfi_offset 6, -12
 3764              		.cfi_offset 7, -8
 3765              		.cfi_offset 14, -4
 3766 0002 87B0     		sub	sp, sp, #28
 3767              		.cfi_def_cfa_offset 48
 3768 0004 0390     		str	r0, [sp, #12]
 3769 0006 0C00     		movs	r4, r1
 3770 0008 1500     		movs	r5, r2
 351:..\..\..\arduinoLCD\test\Pain Drain\libraries\lvgl\src\widgets/lv_arc.c **** 
 3771              		.loc 1 351 0
 3772 000a 0029     		cmp	r1, #0
 3773 000c 00D1     		bne	.L158
 3774              	.L159:
 3775 000e FEE7     		b	.L159
 3776              	.L158:
 353:..\..\..\arduinoLCD\test\Pain Drain\libraries\lvgl\src\widgets/lv_arc.c **** 
ARM GAS  C:\Users\haske\AppData\Local\Temp\ccmHbbn5.s 			page 98


 3777              		.loc 1 353 0
 3778 0010 0398     		ldr	r0, [sp, #12]
 3779              	.LVL535:
 3780 0012 FFF7FEFF 		bl	lv_obj_update_layout
 3781              	.LVL536:
 357:..\..\..\arduinoLCD\test\Pain Drain\libraries\lvgl\src\widgets/lv_arc.c ****     lv_coord_t indic_width = lv_obj_get_style_arc_width(obj, LV_PART_INDICATOR);
 3782              		.loc 1 357 0
 3783 0016 0A27     		movs	r7, #10
 3784 0018 02AB     		add	r3, sp, #8
 3785 001a 9C46     		mov	ip, r3
 3786 001c 6744     		add	r7, r7, ip
 3787 001e 05AE     		add	r6, sp, #20
 3788 0020 3A00     		movs	r2, r7
 3789 0022 3100     		movs	r1, r6
 3790 0024 0398     		ldr	r0, [sp, #12]
 3791 0026 FFF7FEFF 		bl	get_center
 3792              	.LVL537:
 3793              	.LBB161:
 3794              	.LBB162:
 411:..\..\..\arduinoLCD\test\Pain Drain\libraries\lvgl\src\widgets\../core/lv_obj_style_gen.h ****     return (lv_coord_t)v.num;
 3795              		.loc 2 411 0
 3796 002a 5022     		movs	r2, #80
 3797 002c 8021     		movs	r1, #128
 3798 002e 8902     		lsls	r1, r1, #10
 3799 0030 0398     		ldr	r0, [sp, #12]
 3800 0032 FFF7FEFF 		bl	lv_obj_get_style_prop
 3801              	.LVL538:
 412:..\..\..\arduinoLCD\test\Pain Drain\libraries\lvgl\src\widgets\../core/lv_obj_style_gen.h **** }
 3802              		.loc 2 412 0
 3803 0036 00B2     		sxth	r0, r0
 3804              	.LVL539:
 3805              	.LBE162:
 3806              	.LBE161:
 359:..\..\..\arduinoLCD\test\Pain Drain\libraries\lvgl\src\widgets/lv_arc.c ****     arc_r -= indic_width_half;
 3807              		.loc 1 359 0
 3808 0038 C30F     		lsrs	r3, r0, #31
 3809 003a 1818     		adds	r0, r3, r0
 3810 003c 4010     		asrs	r0, r0, #1
 3811              	.LVL540:
 360:..\..\..\arduinoLCD\test\Pain Drain\libraries\lvgl\src\widgets/lv_arc.c **** 
 3812              		.loc 1 360 0
 3813 003e 3B88     		ldrh	r3, [r7]
 3814 0040 1B1A     		subs	r3, r3, r0
 3815 0042 9BB2     		uxth	r3, r3
 362:..\..\..\arduinoLCD\test\Pain Drain\libraries\lvgl\src\widgets/lv_arc.c ****     lv_obj_align_to(obj_to_rotate, obj, LV_ALIGN_CENTER, 0, -arc_r);
 3816              		.loc 1 362 0
 3817 0044 5B19     		adds	r3, r3, r5
 3818 0046 9BB2     		uxth	r3, r3
 3819 0048 3B80     		strh	r3, [r7]
 363:..\..\..\arduinoLCD\test\Pain Drain\libraries\lvgl\src\widgets/lv_arc.c **** 
 3820              		.loc 1 363 0
 3821 004a 5B42     		rsbs	r3, r3, #0
 3822 004c 1BB2     		sxth	r3, r3
 3823 004e 0093     		str	r3, [sp]
 3824 0050 0023     		movs	r3, #0
 3825 0052 0922     		movs	r2, #9
 3826 0054 039D     		ldr	r5, [sp, #12]
ARM GAS  C:\Users\haske\AppData\Local\Temp\ccmHbbn5.s 			page 99


 3827 0056 2900     		movs	r1, r5
 3828 0058 2000     		movs	r0, r4
 3829              	.LVL541:
 3830 005a FFF7FEFF 		bl	lv_obj_align_to
 3831              	.LVL542:
 365:..\..\..\arduinoLCD\test\Pain Drain\libraries\lvgl\src\widgets/lv_arc.c **** 
 3832              		.loc 1 365 0
 3833 005e 2800     		movs	r0, r5
 3834 0060 FFF7FEFF 		bl	lv_obj_update_layout
 3835              	.LVL543:
 367:..\..\..\arduinoLCD\test\Pain Drain\libraries\lvgl\src\widgets/lv_arc.c ****     lv_coord_t pivot_x = obj_to_rotate->coords.x1 - center.x;
 3836              		.loc 1 367 0
 3837 0064 2800     		movs	r0, r5
 3838 0066 FFF7FEFF 		bl	get_angle
 3839              	.LVL544:
 3840 006a 87B2     		uxth	r7, r0
 3841              	.LVL545:
 368:..\..\..\arduinoLCD\test\Pain Drain\libraries\lvgl\src\widgets/lv_arc.c ****     lv_coord_t pivot_y = obj_to_rotate->coords.y1 - center.y;
 3842              		.loc 1 368 0
 3843 006c 1422     		movs	r2, #20
 3844 006e A35E     		ldrsh	r3, [r4, r2]
 3845 0070 0022     		movs	r2, #0
 3846 0072 B15E     		ldrsh	r1, [r6, r2]
 3847 0074 591A     		subs	r1, r3, r1
 3848 0076 89B2     		uxth	r1, r1
 3849              	.LVL546:
 369:..\..\..\arduinoLCD\test\Pain Drain\libraries\lvgl\src\widgets/lv_arc.c ****     lv_obj_set_style_transform_pivot_x(obj_to_rotate, -pivot_x, 0);
 3850              		.loc 1 369 0
 3851 0078 1622     		movs	r2, #22
 3852 007a A35E     		ldrsh	r3, [r4, r2]
 3853 007c 0222     		movs	r2, #2
 3854 007e B55E     		ldrsh	r5, [r6, r2]
 3855 0080 5D1B     		subs	r5, r3, r5
 3856 0082 ADB2     		uxth	r5, r5
 3857              	.LVL547:
 370:..\..\..\arduinoLCD\test\Pain Drain\libraries\lvgl\src\widgets/lv_arc.c ****     lv_obj_set_style_transform_pivot_y(obj_to_rotate, -pivot_y, 0);
 3858              		.loc 1 370 0
 3859 0084 4942     		rsbs	r1, r1, #0
 3860              	.LVL548:
 3861 0086 09B2     		sxth	r1, r1
 3862              	.LVL549:
 3863 0088 0022     		movs	r2, #0
 3864 008a 2000     		movs	r0, r4
 3865 008c FFF7FEFF 		bl	lv_obj_set_style_transform_pivot_x
 3866              	.LVL550:
 371:..\..\..\arduinoLCD\test\Pain Drain\libraries\lvgl\src\widgets/lv_arc.c ****     lv_obj_set_style_transform_angle(obj_to_rotate, angle * 10 + 900, 0);
 3867              		.loc 1 371 0
 3868 0090 6942     		rsbs	r1, r5, #0
 3869 0092 09B2     		sxth	r1, r1
 3870 0094 0022     		movs	r2, #0
 3871 0096 2000     		movs	r0, r4
 3872 0098 FFF7FEFF 		bl	lv_obj_set_style_transform_pivot_y
 3873              	.LVL551:
 372:..\..\..\arduinoLCD\test\Pain Drain\libraries\lvgl\src\widgets/lv_arc.c **** }
 3874              		.loc 1 372 0
 3875 009c B900     		lsls	r1, r7, #2
 3876 009e 7918     		adds	r1, r7, r1
ARM GAS  C:\Users\haske\AppData\Local\Temp\ccmHbbn5.s 			page 100


 3877 00a0 4900     		lsls	r1, r1, #1
 3878 00a2 E123     		movs	r3, #225
 3879 00a4 9B00     		lsls	r3, r3, #2
 3880 00a6 9C46     		mov	ip, r3
 3881 00a8 6144     		add	r1, r1, ip
 3882 00aa 09B2     		sxth	r1, r1
 3883 00ac 0022     		movs	r2, #0
 3884 00ae 2000     		movs	r0, r4
 3885 00b0 FFF7FEFF 		bl	lv_obj_set_style_transform_angle
 3886              	.LVL552:
 373:..\..\..\arduinoLCD\test\Pain Drain\libraries\lvgl\src\widgets/lv_arc.c **** 
 3887              		.loc 1 373 0
 3888 00b4 07B0     		add	sp, sp, #28
 3889              		@ sp needed
 3890              	.LVL553:
 3891              	.LVL554:
 3892              	.LVL555:
 3893 00b6 F0BD     		pop	{r4, r5, r6, r7, pc}
 3894              		.cfi_endproc
 3895              	.LFE180:
 3896              		.size	lv_arc_rotate_obj_to_angle, .-lv_arc_rotate_obj_to_angle
 3897              		.global	lv_arc_class
 3898              		.section	.rodata
 3899              		.align	2
 3900              		.set	.LANCHOR0,. + 0
 3901              		.type	lv_arc_class, %object
 3902              		.size	lv_arc_class, 28
 3903              	lv_arc_class:
 3904 0000 00000000 		.word	lv_obj_class
 3905 0004 00000000 		.word	lv_arc_constructor
 3906 0008 00000000 		.space	8
 3906      00000000 
 3907 0010 00000000 		.word	lv_arc_event
 3908 0014 00000000 		.space	4
 3909 0018 01       		.byte	1
 3910 0019 04       		.byte	4
 3911 001a 00       		.byte	0
 3912 001b 00       		.space	1
 3913              		.text
 3914              	.Letext0:
 3915              		.file 3 "c:\\program files (x86)\\cypress\\psoc creator\\4.4\\psoc creator\\import\\gnu\\arm\\5.4.
 3916              		.file 4 "c:\\program files (x86)\\cypress\\psoc creator\\4.4\\psoc creator\\import\\gnu\\arm\\5.4.
 3917              		.file 5 "c:\\program files (x86)\\cypress\\psoc creator\\4.4\\psoc creator\\import\\gnu\\arm\\5.4.
 3918              		.file 6 "c:\\projects\\paindrain\\arduinolcd\\test\\pain drain\\libraries\\lvgl\\src\\misc\\lv_are
 3919              		.file 7 "c:\\projects\\paindrain\\arduinolcd\\test\\pain drain\\libraries\\lvgl\\src\\font\\lv_fon
 3920              		.file 8 "c:\\projects\\paindrain\\arduinolcd\\test\\pain drain\\libraries\\lvgl\\src\\misc\\lv_typ
 3921              		.file 9 "c:\\projects\\paindrain\\arduinolcd\\test\\pain drain\\libraries\\lvgl\\src\\misc\\lv_col
 3922              		.file 10 "c:\\projects\\paindrain\\arduinolcd\\test\\pain drain\\libraries\\lvgl\\src\\misc\\lv_tx
 3923              		.file 11 "c:\\projects\\paindrain\\arduinolcd\\test\\pain drain\\libraries\\lvgl\\src\\misc\\lv_bi
 3924              		.file 12 "c:\\projects\\paindrain\\arduinolcd\\test\\pain drain\\libraries\\lvgl\\src\\misc\\lv_st
 3925              		.file 13 "c:\\projects\\paindrain\\arduinolcd\\test\\pain drain\\libraries\\lvgl\\src\\draw\\lv_im
 3926              		.file 14 "..\\..\\..\\arduinoLCD\\test\\Pain Drain\\libraries\\lvgl\\src\\widgets\\../core/lv_obj.
 3927              		.file 15 "c:\\projects\\paindrain\\arduinolcd\\test\\pain drain\\libraries\\lvgl\\src\\draw\\lv_dr
 3928              		.file 16 "c:\\projects\\paindrain\\arduinolcd\\test\\pain drain\\libraries\\lvgl\\src\\draw\\lv_dr
 3929              		.file 17 "c:\\projects\\paindrain\\arduinolcd\\test\\pain drain\\libraries\\lvgl\\src\\draw\\lv_dr
 3930              		.file 18 "c:\\projects\\paindrain\\arduinolcd\\test\\pain drain\\libraries\\lvgl\\src\\draw\\lv_dr
 3931              		.file 19 "c:\\projects\\paindrain\\arduinolcd\\test\\pain drain\\libraries\\lvgl\\src\\draw\\lv_dr
ARM GAS  C:\Users\haske\AppData\Local\Temp\ccmHbbn5.s 			page 101


 3932              		.file 20 "c:\\projects\\paindrain\\arduinolcd\\test\\pain drain\\libraries\\lvgl\\src\\draw\\lv_dr
 3933              		.file 21 "c:\\projects\\paindrain\\arduinolcd\\test\\pain drain\\libraries\\lvgl\\src\\draw\\lv_dr
 3934              		.file 22 "c:\\projects\\paindrain\\arduinolcd\\test\\pain drain\\libraries\\lvgl\\src\\misc\\lv_ll
 3935              		.file 23 "c:\\projects\\paindrain\\arduinolcd\\test\\pain drain\\libraries\\lvgl\\src\\misc\\lv_ti
 3936              		.file 24 "c:\\projects\\paindrain\\arduinolcd\\test\\pain drain\\libraries\\lvgl\\src\\hal\\lv_hal
 3937              		.file 25 "c:\\projects\\paindrain\\arduinolcd\\test\\pain drain\\libraries\\lvgl\\src\\hal\\lv_hal
 3938              		.file 26 "..\\..\\..\\arduinoLCD\\test\\Pain Drain\\libraries\\lvgl\\src\\widgets\\../core/lv_grou
 3939              		.file 27 "..\\..\\..\\arduinoLCD\\test\\Pain Drain\\libraries\\lvgl\\src\\widgets\\../core/lv_obj_
 3940              		.file 28 "..\\..\\..\\arduinoLCD\\test\\Pain Drain\\libraries\\lvgl\\src\\widgets\\../core/lv_obj_
 3941              		.file 29 "..\\..\\..\\arduinoLCD\\test\\Pain Drain\\libraries\\lvgl\\src\\widgets\\../core/lv_obj_
 3942              		.file 30 "..\\..\\..\\arduinoLCD\\test\\Pain Drain\\libraries\\lvgl\\src\\widgets\\../core/lv_obj_
 3943              		.file 31 "..\\..\\..\\arduinoLCD\\test\\Pain Drain\\libraries\\lvgl\\src\\widgets\\../core/lv_even
 3944              		.file 32 "..\\..\\..\\arduinoLCD\\test\\Pain Drain\\libraries\\lvgl\\src\\widgets\\lv_arc.h"
 3945              		.file 33 "c:\\projects\\paindrain\\arduinolcd\\test\\pain drain\\libraries\\lvgl\\src\\core\\lv_ob
 3946              		.file 34 "c:\\projects\\paindrain\\arduinolcd\\test\\pain drain\\libraries\\lvgl\\src\\misc\\lv_ma
 3947              		.file 35 "c:\\projects\\paindrain\\arduinolcd\\test\\pain drain\\libraries\\lvgl\\src\\hal\\lv_hal
 3948              		.file 36 "..\\..\\..\\arduinoLCD\\test\\Pain Drain\\libraries\\lvgl\\src\\widgets\\../core/lv_inde
 3949              		.section	.debug_info,"",%progbits
 3950              	.Ldebug_info0:
 3951 0000 D04D0000 		.4byte	0x4dd0
 3952 0004 0400     		.2byte	0x4
 3953 0006 00000000 		.4byte	.Ldebug_abbrev0
 3954 000a 04       		.byte	0x4
 3955 000b 01       		.uleb128 0x1
 3956 000c 6B0B0000 		.4byte	.LASF781
 3957 0010 0C       		.byte	0xc
 3958 0011 04070000 		.4byte	.LASF782
 3959 0015 4A290000 		.4byte	.LASF783
 3960 0019 00000000 		.4byte	.Ldebug_ranges0+0
 3961 001d 00000000 		.4byte	0
 3962 0021 00000000 		.4byte	.Ldebug_line0
 3963 0025 02       		.uleb128 0x2
 3964 0026 59210000 		.4byte	.LASF0
 3965 002a 03       		.byte	0x3
 3966 002b 1B       		.byte	0x1b
 3967 002c 30000000 		.4byte	0x30
 3968 0030 03       		.uleb128 0x3
 3969 0031 01       		.byte	0x1
 3970 0032 06       		.byte	0x6
 3971 0033 8F080000 		.4byte	.LASF2
 3972 0037 02       		.uleb128 0x2
 3973 0038 0E050000 		.4byte	.LASF1
 3974 003c 03       		.byte	0x3
 3975 003d 1D       		.byte	0x1d
 3976 003e 42000000 		.4byte	0x42
 3977 0042 03       		.uleb128 0x3
 3978 0043 01       		.byte	0x1
 3979 0044 08       		.byte	0x8
 3980 0045 C1090000 		.4byte	.LASF3
 3981 0049 02       		.uleb128 0x2
 3982 004a 97240000 		.4byte	.LASF4
 3983 004e 03       		.byte	0x3
 3984 004f 29       		.byte	0x29
 3985 0050 54000000 		.4byte	0x54
 3986 0054 03       		.uleb128 0x3
 3987 0055 02       		.byte	0x2
 3988 0056 05       		.byte	0x5
ARM GAS  C:\Users\haske\AppData\Local\Temp\ccmHbbn5.s 			page 102


 3989 0057 B1260000 		.4byte	.LASF5
 3990 005b 02       		.uleb128 0x2
 3991 005c 3A0D0000 		.4byte	.LASF6
 3992 0060 03       		.byte	0x3
 3993 0061 2B       		.byte	0x2b
 3994 0062 66000000 		.4byte	0x66
 3995 0066 03       		.uleb128 0x3
 3996 0067 02       		.byte	0x2
 3997 0068 07       		.byte	0x7
 3998 0069 CC2B0000 		.4byte	.LASF7
 3999 006d 02       		.uleb128 0x2
 4000 006e BA2C0000 		.4byte	.LASF8
 4001 0072 03       		.byte	0x3
 4002 0073 3F       		.byte	0x3f
 4003 0074 78000000 		.4byte	0x78
 4004 0078 03       		.uleb128 0x3
 4005 0079 04       		.byte	0x4
 4006 007a 05       		.byte	0x5
 4007 007b 3E060000 		.4byte	.LASF9
 4008 007f 02       		.uleb128 0x2
 4009 0080 47180000 		.4byte	.LASF10
 4010 0084 03       		.byte	0x3
 4011 0085 41       		.byte	0x41
 4012 0086 8A000000 		.4byte	0x8a
 4013 008a 03       		.uleb128 0x3
 4014 008b 04       		.byte	0x4
 4015 008c 07       		.byte	0x7
 4016 008d 2B140000 		.4byte	.LASF11
 4017 0091 03       		.uleb128 0x3
 4018 0092 08       		.byte	0x8
 4019 0093 05       		.byte	0x5
 4020 0094 A2180000 		.4byte	.LASF12
 4021 0098 03       		.uleb128 0x3
 4022 0099 08       		.byte	0x8
 4023 009a 07       		.byte	0x7
 4024 009b B8210000 		.4byte	.LASF13
 4025 009f 04       		.uleb128 0x4
 4026 00a0 04       		.byte	0x4
 4027 00a1 05       		.byte	0x5
 4028 00a2 696E7400 		.ascii	"int\000"
 4029 00a6 03       		.uleb128 0x3
 4030 00a7 04       		.byte	0x4
 4031 00a8 07       		.byte	0x7
 4032 00a9 4F1B0000 		.4byte	.LASF14
 4033 00ad 02       		.uleb128 0x2
 4034 00ae 09000000 		.4byte	.LASF15
 4035 00b2 04       		.byte	0x4
 4036 00b3 14       		.byte	0x14
 4037 00b4 25000000 		.4byte	0x25
 4038 00b8 02       		.uleb128 0x2
 4039 00b9 A5080000 		.4byte	.LASF16
 4040 00bd 04       		.byte	0x4
 4041 00be 18       		.byte	0x18
 4042 00bf 37000000 		.4byte	0x37
 4043 00c3 02       		.uleb128 0x2
 4044 00c4 AE270000 		.4byte	.LASF17
 4045 00c8 04       		.byte	0x4
ARM GAS  C:\Users\haske\AppData\Local\Temp\ccmHbbn5.s 			page 103


 4046 00c9 20       		.byte	0x20
 4047 00ca 49000000 		.4byte	0x49
 4048 00ce 02       		.uleb128 0x2
 4049 00cf 52220000 		.4byte	.LASF18
 4050 00d3 04       		.byte	0x4
 4051 00d4 24       		.byte	0x24
 4052 00d5 5B000000 		.4byte	0x5b
 4053 00d9 02       		.uleb128 0x2
 4054 00da B4010000 		.4byte	.LASF19
 4055 00de 04       		.byte	0x4
 4056 00df 2C       		.byte	0x2c
 4057 00e0 6D000000 		.4byte	0x6d
 4058 00e4 02       		.uleb128 0x2
 4059 00e5 F52A0000 		.4byte	.LASF20
 4060 00e9 04       		.byte	0x4
 4061 00ea 30       		.byte	0x30
 4062 00eb 7F000000 		.4byte	0x7f
 4063 00ef 02       		.uleb128 0x2
 4064 00f0 5A000000 		.4byte	.LASF21
 4065 00f4 05       		.byte	0x5
 4066 00f5 D8       		.byte	0xd8
 4067 00f6 A6000000 		.4byte	0xa6
 4068 00fa 03       		.uleb128 0x3
 4069 00fb 08       		.byte	0x8
 4070 00fc 04       		.byte	0x4
 4071 00fd 651F0000 		.4byte	.LASF22
 4072 0101 02       		.uleb128 0x2
 4073 0102 EC2B0000 		.4byte	.LASF23
 4074 0106 06       		.byte	0x6
 4075 0107 1B       		.byte	0x1b
 4076 0108 C3000000 		.4byte	0xc3
 4077 010c 05       		.uleb128 0x5
 4078 010d 04       		.byte	0x4
 4079 010e 06       		.byte	0x6
 4080 010f 25       		.byte	0x25
 4081 0110 29010000 		.4byte	0x129
 4082 0114 06       		.uleb128 0x6
 4083 0115 7800     		.ascii	"x\000"
 4084 0117 06       		.byte	0x6
 4085 0118 26       		.byte	0x26
 4086 0119 01010000 		.4byte	0x101
 4087 011d 00       		.byte	0
 4088 011e 06       		.uleb128 0x6
 4089 011f 7900     		.ascii	"y\000"
 4090 0121 06       		.byte	0x6
 4091 0122 27       		.byte	0x27
 4092 0123 01010000 		.4byte	0x101
 4093 0127 02       		.byte	0x2
 4094 0128 00       		.byte	0
 4095 0129 02       		.uleb128 0x2
 4096 012a 29020000 		.4byte	.LASF24
 4097 012e 06       		.byte	0x6
 4098 012f 28       		.byte	0x28
 4099 0130 0C010000 		.4byte	0x10c
 4100 0134 05       		.uleb128 0x5
 4101 0135 08       		.byte	0x8
 4102 0136 06       		.byte	0x6
ARM GAS  C:\Users\haske\AppData\Local\Temp\ccmHbbn5.s 			page 104


 4103 0137 2B       		.byte	0x2b
 4104 0138 69010000 		.4byte	0x169
 4105 013c 06       		.uleb128 0x6
 4106 013d 783100   		.ascii	"x1\000"
 4107 0140 06       		.byte	0x6
 4108 0141 2C       		.byte	0x2c
 4109 0142 01010000 		.4byte	0x101
 4110 0146 00       		.byte	0
 4111 0147 06       		.uleb128 0x6
 4112 0148 793100   		.ascii	"y1\000"
 4113 014b 06       		.byte	0x6
 4114 014c 2D       		.byte	0x2d
 4115 014d 01010000 		.4byte	0x101
 4116 0151 02       		.byte	0x2
 4117 0152 06       		.uleb128 0x6
 4118 0153 783200   		.ascii	"x2\000"
 4119 0156 06       		.byte	0x6
 4120 0157 2E       		.byte	0x2e
 4121 0158 01010000 		.4byte	0x101
 4122 015c 04       		.byte	0x4
 4123 015d 06       		.uleb128 0x6
 4124 015e 793200   		.ascii	"y2\000"
 4125 0161 06       		.byte	0x6
 4126 0162 2F       		.byte	0x2f
 4127 0163 01010000 		.4byte	0x101
 4128 0167 06       		.byte	0x6
 4129 0168 00       		.byte	0
 4130 0169 02       		.uleb128 0x2
 4131 016a D4100000 		.4byte	.LASF25
 4132 016e 06       		.byte	0x6
 4133 016f 30       		.byte	0x30
 4134 0170 34010000 		.4byte	0x134
 4135 0174 07       		.uleb128 0x7
 4136 0175 01       		.byte	0x1
 4137 0176 42000000 		.4byte	0x42
 4138 017a 06       		.byte	0x6
 4139 017b 33       		.byte	0x33
 4140 017c 05020000 		.4byte	0x205
 4141 0180 08       		.uleb128 0x8
 4142 0181 EC200000 		.4byte	.LASF26
 4143 0185 00       		.byte	0
 4144 0186 08       		.uleb128 0x8
 4145 0187 62210000 		.4byte	.LASF27
 4146 018b 01       		.byte	0x1
 4147 018c 08       		.uleb128 0x8
 4148 018d 81260000 		.4byte	.LASF28
 4149 0191 02       		.byte	0x2
 4150 0192 08       		.uleb128 0x8
 4151 0193 C50D0000 		.4byte	.LASF29
 4152 0197 03       		.byte	0x3
 4153 0198 08       		.uleb128 0x8
 4154 0199 F5180000 		.4byte	.LASF30
 4155 019d 04       		.byte	0x4
 4156 019e 08       		.uleb128 0x8
 4157 019f 961E0000 		.4byte	.LASF31
 4158 01a3 05       		.byte	0x5
 4159 01a4 08       		.uleb128 0x8
ARM GAS  C:\Users\haske\AppData\Local\Temp\ccmHbbn5.s 			page 105


 4160 01a5 4F2C0000 		.4byte	.LASF32
 4161 01a9 06       		.byte	0x6
 4162 01aa 08       		.uleb128 0x8
 4163 01ab 580F0000 		.4byte	.LASF33
 4164 01af 07       		.byte	0x7
 4165 01b0 08       		.uleb128 0x8
 4166 01b1 B1290000 		.4byte	.LASF34
 4167 01b5 08       		.byte	0x8
 4168 01b6 08       		.uleb128 0x8
 4169 01b7 351C0000 		.4byte	.LASF35
 4170 01bb 09       		.byte	0x9
 4171 01bc 08       		.uleb128 0x8
 4172 01bd A41F0000 		.4byte	.LASF36
 4173 01c1 0A       		.byte	0xa
 4174 01c2 08       		.uleb128 0x8
 4175 01c3 072A0000 		.4byte	.LASF37
 4176 01c7 0B       		.byte	0xb
 4177 01c8 08       		.uleb128 0x8
 4178 01c9 59270000 		.4byte	.LASF38
 4179 01cd 0C       		.byte	0xc
 4180 01ce 08       		.uleb128 0x8
 4181 01cf 1B180000 		.4byte	.LASF39
 4182 01d3 0D       		.byte	0xd
 4183 01d4 08       		.uleb128 0x8
 4184 01d5 F6130000 		.4byte	.LASF40
 4185 01d9 0E       		.byte	0xe
 4186 01da 08       		.uleb128 0x8
 4187 01db 88120000 		.4byte	.LASF41
 4188 01df 0F       		.byte	0xf
 4189 01e0 08       		.uleb128 0x8
 4190 01e1 0D2B0000 		.4byte	.LASF42
 4191 01e5 10       		.byte	0x10
 4192 01e6 08       		.uleb128 0x8
 4193 01e7 8F0D0000 		.4byte	.LASF43
 4194 01eb 11       		.byte	0x11
 4195 01ec 08       		.uleb128 0x8
 4196 01ed B0180000 		.4byte	.LASF44
 4197 01f1 12       		.byte	0x12
 4198 01f2 08       		.uleb128 0x8
 4199 01f3 3B220000 		.4byte	.LASF45
 4200 01f7 13       		.byte	0x13
 4201 01f8 08       		.uleb128 0x8
 4202 01f9 9A030000 		.4byte	.LASF46
 4203 01fd 14       		.byte	0x14
 4204 01fe 08       		.uleb128 0x8
 4205 01ff 4B1F0000 		.4byte	.LASF47
 4206 0203 15       		.byte	0x15
 4207 0204 00       		.byte	0
 4208 0205 02       		.uleb128 0x2
 4209 0206 520E0000 		.4byte	.LASF48
 4210 020a 06       		.byte	0x6
 4211 020b 59       		.byte	0x59
 4212 020c B8000000 		.4byte	0xb8
 4213 0210 05       		.uleb128 0x5
 4214 0211 10       		.byte	0x10
 4215 0212 07       		.byte	0x7
 4216 0213 29       		.byte	0x29
ARM GAS  C:\Users\haske\AppData\Local\Temp\ccmHbbn5.s 			page 106


 4217 0214 7F020000 		.4byte	0x27f
 4218 0218 09       		.uleb128 0x9
 4219 0219 45150000 		.4byte	.LASF49
 4220 021d 07       		.byte	0x7
 4221 021e 2B       		.byte	0x2b
 4222 021f 07030000 		.4byte	0x307
 4223 0223 00       		.byte	0
 4224 0224 09       		.uleb128 0x9
 4225 0225 61000000 		.4byte	.LASF50
 4226 0229 07       		.byte	0x7
 4227 022a 2C       		.byte	0x2c
 4228 022b CE000000 		.4byte	0xce
 4229 022f 04       		.byte	0x4
 4230 0230 09       		.uleb128 0x9
 4231 0231 9F260000 		.4byte	.LASF51
 4232 0235 07       		.byte	0x7
 4233 0236 2D       		.byte	0x2d
 4234 0237 CE000000 		.4byte	0xce
 4235 023b 06       		.byte	0x6
 4236 023c 09       		.uleb128 0x9
 4237 023d 66260000 		.4byte	.LASF52
 4238 0241 07       		.byte	0x7
 4239 0242 2E       		.byte	0x2e
 4240 0243 CE000000 		.4byte	0xce
 4241 0247 08       		.byte	0x8
 4242 0248 09       		.uleb128 0x9
 4243 0249 B00A0000 		.4byte	.LASF53
 4244 024d 07       		.byte	0x7
 4245 024e 2F       		.byte	0x2f
 4246 024f C3000000 		.4byte	0xc3
 4247 0253 0A       		.byte	0xa
 4248 0254 09       		.uleb128 0x9
 4249 0255 B60A0000 		.4byte	.LASF54
 4250 0259 07       		.byte	0x7
 4251 025a 30       		.byte	0x30
 4252 025b C3000000 		.4byte	0xc3
 4253 025f 0C       		.byte	0xc
 4254 0260 0A       		.uleb128 0xa
 4255 0261 62707000 		.ascii	"bpp\000"
 4256 0265 07       		.byte	0x7
 4257 0266 31       		.byte	0x31
 4258 0267 B8000000 		.4byte	0xb8
 4259 026b 01       		.byte	0x1
 4260 026c 04       		.byte	0x4
 4261 026d 04       		.byte	0x4
 4262 026e 0E       		.byte	0xe
 4263 026f 0B       		.uleb128 0xb
 4264 0270 712E0000 		.4byte	.LASF55
 4265 0274 07       		.byte	0x7
 4266 0275 32       		.byte	0x32
 4267 0276 B8000000 		.4byte	0xb8
 4268 027a 01       		.byte	0x1
 4269 027b 01       		.byte	0x1
 4270 027c 03       		.byte	0x3
 4271 027d 0E       		.byte	0xe
 4272 027e 00       		.byte	0
 4273 027f 0C       		.uleb128 0xc
ARM GAS  C:\Users\haske\AppData\Local\Temp\ccmHbbn5.s 			page 107


 4274 0280 34180000 		.4byte	.LASF196
 4275 0284 1C       		.byte	0x1c
 4276 0285 07       		.byte	0x7
 4277 0286 40       		.byte	0x40
 4278 0287 07030000 		.4byte	0x307
 4279 028b 09       		.uleb128 0x9
 4280 028c AC2C0000 		.4byte	.LASF56
 4281 0290 07       		.byte	0x7
 4282 0291 42       		.byte	0x42
 4283 0292 48030000 		.4byte	0x348
 4284 0296 00       		.byte	0
 4285 0297 09       		.uleb128 0x9
 4286 0298 1B090000 		.4byte	.LASF57
 4287 029c 07       		.byte	0x7
 4288 029d 45       		.byte	0x45
 4289 029e 6D030000 		.4byte	0x36d
 4290 02a2 04       		.byte	0x4
 4291 02a3 09       		.uleb128 0x9
 4292 02a4 6A020000 		.4byte	.LASF58
 4293 02a8 07       		.byte	0x7
 4294 02a9 48       		.byte	0x48
 4295 02aa 01010000 		.4byte	0x101
 4296 02ae 08       		.byte	0x8
 4297 02af 09       		.uleb128 0x9
 4298 02b0 BB260000 		.4byte	.LASF59
 4299 02b4 07       		.byte	0x7
 4300 02b5 49       		.byte	0x49
 4301 02b6 01010000 		.4byte	0x101
 4302 02ba 0A       		.byte	0xa
 4303 02bb 0B       		.uleb128 0xb
 4304 02bc 0D200000 		.4byte	.LASF60
 4305 02c0 07       		.byte	0x7
 4306 02c1 4A       		.byte	0x4a
 4307 02c2 B8000000 		.4byte	0xb8
 4308 02c6 01       		.byte	0x1
 4309 02c7 02       		.byte	0x2
 4310 02c8 06       		.byte	0x6
 4311 02c9 0C       		.byte	0xc
 4312 02ca 09       		.uleb128 0x9
 4313 02cb 7E0C0000 		.4byte	.LASF61
 4314 02cf 07       		.byte	0x7
 4315 02d0 4C       		.byte	0x4c
 4316 02d1 AD000000 		.4byte	0xad
 4317 02d5 0D       		.byte	0xd
 4318 02d6 09       		.uleb128 0x9
 4319 02d7 161A0000 		.4byte	.LASF62
 4320 02db 07       		.byte	0x7
 4321 02dc 4D       		.byte	0x4d
 4322 02dd AD000000 		.4byte	0xad
 4323 02e1 0E       		.byte	0xe
 4324 02e2 06       		.uleb128 0x6
 4325 02e3 64736300 		.ascii	"dsc\000"
 4326 02e7 07       		.byte	0x7
 4327 02e8 4F       		.byte	0x4f
 4328 02e9 73030000 		.4byte	0x373
 4329 02ed 10       		.byte	0x10
 4330 02ee 09       		.uleb128 0x9
ARM GAS  C:\Users\haske\AppData\Local\Temp\ccmHbbn5.s 			page 108


 4331 02ef F90F0000 		.4byte	.LASF63
 4332 02f3 07       		.byte	0x7
 4333 02f4 50       		.byte	0x50
 4334 02f5 07030000 		.4byte	0x307
 4335 02f9 14       		.byte	0x14
 4336 02fa 09       		.uleb128 0x9
 4337 02fb 312C0000 		.4byte	.LASF64
 4338 02ff 07       		.byte	0x7
 4339 0300 52       		.byte	0x52
 4340 0301 7A030000 		.4byte	0x37a
 4341 0305 18       		.byte	0x18
 4342 0306 00       		.byte	0
 4343 0307 0D       		.uleb128 0xd
 4344 0308 04       		.byte	0x4
 4345 0309 0D030000 		.4byte	0x30d
 4346 030d 0E       		.uleb128 0xe
 4347 030e 7F020000 		.4byte	0x27f
 4348 0312 02       		.uleb128 0x2
 4349 0313 B91D0000 		.4byte	.LASF65
 4350 0317 07       		.byte	0x7
 4351 0318 33       		.byte	0x33
 4352 0319 10020000 		.4byte	0x210
 4353 031d 0F       		.uleb128 0xf
 4354 031e 3B030000 		.4byte	0x33b
 4355 0322 3B030000 		.4byte	0x33b
 4356 0326 10       		.uleb128 0x10
 4357 0327 07030000 		.4byte	0x307
 4358 032b 10       		.uleb128 0x10
 4359 032c 42030000 		.4byte	0x342
 4360 0330 10       		.uleb128 0x10
 4361 0331 E4000000 		.4byte	0xe4
 4362 0335 10       		.uleb128 0x10
 4363 0336 E4000000 		.4byte	0xe4
 4364 033a 00       		.byte	0
 4365 033b 03       		.uleb128 0x3
 4366 033c 01       		.byte	0x1
 4367 033d 02       		.byte	0x2
 4368 033e 080B0000 		.4byte	.LASF66
 4369 0342 0D       		.uleb128 0xd
 4370 0343 04       		.byte	0x4
 4371 0344 12030000 		.4byte	0x312
 4372 0348 0D       		.uleb128 0xd
 4373 0349 04       		.byte	0x4
 4374 034a 1D030000 		.4byte	0x31d
 4375 034e 0F       		.uleb128 0xf
 4376 034f 62030000 		.4byte	0x362
 4377 0353 62030000 		.4byte	0x362
 4378 0357 10       		.uleb128 0x10
 4379 0358 07030000 		.4byte	0x307
 4380 035c 10       		.uleb128 0x10
 4381 035d E4000000 		.4byte	0xe4
 4382 0361 00       		.byte	0
 4383 0362 0D       		.uleb128 0xd
 4384 0363 04       		.byte	0x4
 4385 0364 68030000 		.4byte	0x368
 4386 0368 0E       		.uleb128 0xe
 4387 0369 B8000000 		.4byte	0xb8
ARM GAS  C:\Users\haske\AppData\Local\Temp\ccmHbbn5.s 			page 109


 4388 036d 0D       		.uleb128 0xd
 4389 036e 04       		.byte	0x4
 4390 036f 4E030000 		.4byte	0x34e
 4391 0373 0D       		.uleb128 0xd
 4392 0374 04       		.byte	0x4
 4393 0375 79030000 		.4byte	0x379
 4394 0379 11       		.uleb128 0x11
 4395 037a 12       		.uleb128 0x12
 4396 037b 04       		.byte	0x4
 4397 037c 02       		.uleb128 0x2
 4398 037d 712B0000 		.4byte	.LASF67
 4399 0381 07       		.byte	0x7
 4400 0382 54       		.byte	0x54
 4401 0383 7F020000 		.4byte	0x27f
 4402 0387 07       		.uleb128 0x7
 4403 0388 01       		.byte	0x1
 4404 0389 42000000 		.4byte	0x42
 4405 038d 08       		.byte	0x8
 4406 038e 2A       		.byte	0x2a
 4407 038f A0030000 		.4byte	0x3a0
 4408 0393 08       		.uleb128 0x8
 4409 0394 8F030000 		.4byte	.LASF68
 4410 0398 00       		.byte	0
 4411 0399 08       		.uleb128 0x8
 4412 039a 5B220000 		.4byte	.LASF69
 4413 039e 01       		.byte	0x1
 4414 039f 00       		.byte	0
 4415 03a0 02       		.uleb128 0x2
 4416 03a1 281F0000 		.4byte	.LASF70
 4417 03a5 08       		.byte	0x8
 4418 03a6 2F       		.byte	0x2f
 4419 03a7 B8000000 		.4byte	0xb8
 4420 03ab 03       		.uleb128 0x3
 4421 03ac 04       		.byte	0x4
 4422 03ad 07       		.byte	0x7
 4423 03ae 89000000 		.4byte	.LASF71
 4424 03b2 0D       		.uleb128 0xd
 4425 03b3 04       		.byte	0x4
 4426 03b4 B8030000 		.4byte	0x3b8
 4427 03b8 03       		.uleb128 0x3
 4428 03b9 01       		.byte	0x1
 4429 03ba 08       		.byte	0x8
 4430 03bb 440C0000 		.4byte	.LASF72
 4431 03bf 05       		.uleb128 0x5
 4432 03c0 02       		.byte	0x2
 4433 03c1 09       		.byte	0x9
 4434 03c2 D1       		.byte	0xd1
 4435 03c3 F5030000 		.4byte	0x3f5
 4436 03c7 0B       		.uleb128 0xb
 4437 03c8 36090000 		.4byte	.LASF73
 4438 03cc 09       		.byte	0x9
 4439 03cd D3       		.byte	0xd3
 4440 03ce CE000000 		.4byte	0xce
 4441 03d2 02       		.byte	0x2
 4442 03d3 05       		.byte	0x5
 4443 03d4 0B       		.byte	0xb
 4444 03d5 00       		.byte	0
ARM GAS  C:\Users\haske\AppData\Local\Temp\ccmHbbn5.s 			page 110


 4445 03d6 0B       		.uleb128 0xb
 4446 03d7 6B2B0000 		.4byte	.LASF74
 4447 03db 09       		.byte	0x9
 4448 03dc D4       		.byte	0xd4
 4449 03dd CE000000 		.4byte	0xce
 4450 03e1 02       		.byte	0x2
 4451 03e2 06       		.byte	0x6
 4452 03e3 05       		.byte	0x5
 4453 03e4 00       		.byte	0
 4454 03e5 0A       		.uleb128 0xa
 4455 03e6 72656400 		.ascii	"red\000"
 4456 03ea 09       		.byte	0x9
 4457 03eb D5       		.byte	0xd5
 4458 03ec CE000000 		.4byte	0xce
 4459 03f0 02       		.byte	0x2
 4460 03f1 05       		.byte	0x5
 4461 03f2 00       		.byte	0
 4462 03f3 00       		.byte	0
 4463 03f4 00       		.byte	0
 4464 03f5 13       		.uleb128 0x13
 4465 03f6 02       		.byte	0x2
 4466 03f7 09       		.byte	0x9
 4467 03f8 D0       		.byte	0xd0
 4468 03f9 13040000 		.4byte	0x413
 4469 03fd 14       		.uleb128 0x14
 4470 03fe 636800   		.ascii	"ch\000"
 4471 0401 09       		.byte	0x9
 4472 0402 DC       		.byte	0xdc
 4473 0403 BF030000 		.4byte	0x3bf
 4474 0407 15       		.uleb128 0x15
 4475 0408 FE240000 		.4byte	.LASF75
 4476 040c 09       		.byte	0x9
 4477 040d DD       		.byte	0xdd
 4478 040e CE000000 		.4byte	0xce
 4479 0412 00       		.byte	0
 4480 0413 02       		.uleb128 0x2
 4481 0414 92260000 		.4byte	.LASF76
 4482 0418 09       		.byte	0x9
 4483 0419 DE       		.byte	0xde
 4484 041a F5030000 		.4byte	0x3f5
 4485 041e 02       		.uleb128 0x2
 4486 041f C4220000 		.4byte	.LASF77
 4487 0423 09       		.byte	0x9
 4488 0424 EB       		.byte	0xeb
 4489 0425 13040000 		.4byte	0x413
 4490 0429 02       		.uleb128 0x2
 4491 042a 81010000 		.4byte	.LASF78
 4492 042e 09       		.byte	0x9
 4493 042f F5       		.byte	0xf5
 4494 0430 B8000000 		.4byte	0xb8
 4495 0434 02       		.uleb128 0x2
 4496 0435 8C230000 		.4byte	.LASF79
 4497 0439 0A       		.byte	0xa
 4498 043a 30       		.byte	0x30
 4499 043b B8000000 		.4byte	0xb8
 4500 043f 02       		.uleb128 0x2
 4501 0440 D1190000 		.4byte	.LASF80
ARM GAS  C:\Users\haske\AppData\Local\Temp\ccmHbbn5.s 			page 111


 4502 0444 0A       		.byte	0xa
 4503 0445 42       		.byte	0x42
 4504 0446 B8000000 		.4byte	0xb8
 4505 044a 02       		.uleb128 0x2
 4506 044b BC0A0000 		.4byte	.LASF81
 4507 044f 0B       		.byte	0xb
 4508 0450 2A       		.byte	0x2a
 4509 0451 B8000000 		.4byte	0xb8
 4510 0455 02       		.uleb128 0x2
 4511 0456 76020000 		.4byte	.LASF82
 4512 045a 0C       		.byte	0xc
 4513 045b 5E       		.byte	0x5e
 4514 045c B8000000 		.4byte	0xb8
 4515 0460 02       		.uleb128 0x2
 4516 0461 86180000 		.4byte	.LASF83
 4517 0465 0C       		.byte	0xc
 4518 0466 6A       		.byte	0x6a
 4519 0467 B8000000 		.4byte	0xb8
 4520 046b 02       		.uleb128 0x2
 4521 046c B5250000 		.4byte	.LASF84
 4522 0470 0C       		.byte	0xc
 4523 0471 79       		.byte	0x79
 4524 0472 B8000000 		.4byte	0xb8
 4525 0476 02       		.uleb128 0x2
 4526 0477 E72C0000 		.4byte	.LASF85
 4527 047b 0C       		.byte	0xc
 4528 047c 84       		.byte	0x84
 4529 047d B8000000 		.4byte	0xb8
 4530 0481 02       		.uleb128 0x2
 4531 0482 771F0000 		.4byte	.LASF86
 4532 0486 0C       		.byte	0xc
 4533 0487 90       		.byte	0x90
 4534 0488 B8000000 		.4byte	0xb8
 4535 048c 05       		.uleb128 0x5
 4536 048d 04       		.byte	0x4
 4537 048e 0C       		.byte	0xc
 4538 048f 95       		.byte	0x95
 4539 0490 AD040000 		.4byte	0x4ad
 4540 0494 09       		.uleb128 0x9
 4541 0495 24250000 		.4byte	.LASF87
 4542 0499 0C       		.byte	0xc
 4543 049a 96       		.byte	0x96
 4544 049b 1E040000 		.4byte	0x41e
 4545 049f 00       		.byte	0
 4546 04a0 09       		.uleb128 0x9
 4547 04a1 C6250000 		.4byte	.LASF88
 4548 04a5 0C       		.byte	0xc
 4549 04a6 97       		.byte	0x97
 4550 04a7 B8000000 		.4byte	0xb8
 4551 04ab 02       		.byte	0x2
 4552 04ac 00       		.byte	0
 4553 04ad 02       		.uleb128 0x2
 4554 04ae 712A0000 		.4byte	.LASF89
 4555 04b2 0C       		.byte	0xc
 4556 04b3 98       		.byte	0x98
 4557 04b4 8C040000 		.4byte	0x48c
 4558 04b8 05       		.uleb128 0x5
ARM GAS  C:\Users\haske\AppData\Local\Temp\ccmHbbn5.s 			page 112


 4559 04b9 0A       		.byte	0xa
 4560 04ba 0C       		.byte	0xc
 4561 04bb 9B       		.byte	0x9b
 4562 04bc F7040000 		.4byte	0x4f7
 4563 04c0 09       		.uleb128 0x9
 4564 04c1 2A250000 		.4byte	.LASF90
 4565 04c5 0C       		.byte	0xc
 4566 04c6 9C       		.byte	0x9c
 4567 04c7 F7040000 		.4byte	0x4f7
 4568 04cb 00       		.byte	0
 4569 04cc 09       		.uleb128 0x9
 4570 04cd 110D0000 		.4byte	.LASF91
 4571 04d1 0C       		.byte	0xc
 4572 04d2 9D       		.byte	0x9d
 4573 04d3 B8000000 		.4byte	0xb8
 4574 04d7 08       		.byte	0x8
 4575 04d8 0A       		.uleb128 0xa
 4576 04d9 64697200 		.ascii	"dir\000"
 4577 04dd 0C       		.byte	0xc
 4578 04de 9E       		.byte	0x9e
 4579 04df 76040000 		.4byte	0x476
 4580 04e3 01       		.byte	0x1
 4581 04e4 03       		.byte	0x3
 4582 04e5 05       		.byte	0x5
 4583 04e6 09       		.byte	0x9
 4584 04e7 0B       		.uleb128 0xb
 4585 04e8 C52B0000 		.4byte	.LASF92
 4586 04ec 0C       		.byte	0xc
 4587 04ed A0       		.byte	0xa0
 4588 04ee 81040000 		.4byte	0x481
 4589 04f2 01       		.byte	0x1
 4590 04f3 03       		.byte	0x3
 4591 04f4 02       		.byte	0x2
 4592 04f5 09       		.byte	0x9
 4593 04f6 00       		.byte	0
 4594 04f7 16       		.uleb128 0x16
 4595 04f8 AD040000 		.4byte	0x4ad
 4596 04fc 07050000 		.4byte	0x507
 4597 0500 17       		.uleb128 0x17
 4598 0501 AB030000 		.4byte	0x3ab
 4599 0505 01       		.byte	0x1
 4600 0506 00       		.byte	0
 4601 0507 02       		.uleb128 0x2
 4602 0508 262E0000 		.4byte	.LASF93
 4603 050c 0C       		.byte	0xc
 4604 050d A2       		.byte	0xa2
 4605 050e B8040000 		.4byte	0x4b8
 4606 0512 13       		.uleb128 0x13
 4607 0513 04       		.byte	0x4
 4608 0514 0C       		.byte	0xc
 4609 0515 A7       		.byte	0xa7
 4610 0516 3C050000 		.4byte	0x53c
 4611 051a 14       		.uleb128 0x14
 4612 051b 6E756D00 		.ascii	"num\000"
 4613 051f 0C       		.byte	0xc
 4614 0520 A8       		.byte	0xa8
 4615 0521 D9000000 		.4byte	0xd9
ARM GAS  C:\Users\haske\AppData\Local\Temp\ccmHbbn5.s 			page 113


 4616 0525 14       		.uleb128 0x14
 4617 0526 70747200 		.ascii	"ptr\000"
 4618 052a 0C       		.byte	0xc
 4619 052b A9       		.byte	0xa9
 4620 052c 73030000 		.4byte	0x373
 4621 0530 15       		.uleb128 0x15
 4622 0531 24250000 		.4byte	.LASF87
 4623 0535 0C       		.byte	0xc
 4624 0536 AA       		.byte	0xaa
 4625 0537 1E040000 		.4byte	0x41e
 4626 053b 00       		.byte	0
 4627 053c 02       		.uleb128 0x2
 4628 053d AC1B0000 		.4byte	.LASF94
 4629 0541 0C       		.byte	0xc
 4630 0542 AB       		.byte	0xab
 4631 0543 12050000 		.4byte	0x512
 4632 0547 07       		.uleb128 0x7
 4633 0548 02       		.byte	0x2
 4634 0549 66000000 		.4byte	0x66
 4635 054d 0C       		.byte	0xc
 4636 054e B2       		.byte	0xb2
 4637 054f 6C070000 		.4byte	0x76c
 4638 0553 08       		.uleb128 0x8
 4639 0554 94110000 		.4byte	.LASF95
 4640 0558 00       		.byte	0
 4641 0559 08       		.uleb128 0x8
 4642 055a 25230000 		.4byte	.LASF96
 4643 055e 01       		.byte	0x1
 4644 055f 08       		.uleb128 0x8
 4645 0560 68230000 		.4byte	.LASF97
 4646 0564 02       		.byte	0x2
 4647 0565 08       		.uleb128 0x8
 4648 0566 53050000 		.4byte	.LASF98
 4649 056a 03       		.byte	0x3
 4650 056b 08       		.uleb128 0x8
 4651 056c 38030000 		.4byte	.LASF99
 4652 0570 04       		.byte	0x4
 4653 0571 08       		.uleb128 0x8
 4654 0572 F3290000 		.4byte	.LASF100
 4655 0576 05       		.byte	0x5
 4656 0577 08       		.uleb128 0x8
 4657 0578 F4250000 		.4byte	.LASF101
 4658 057c 06       		.byte	0x6
 4659 057d 08       		.uleb128 0x8
 4660 057e 62170000 		.4byte	.LASF102
 4661 0582 07       		.byte	0x7
 4662 0583 08       		.uleb128 0x8
 4663 0584 842A0000 		.4byte	.LASF103
 4664 0588 08       		.byte	0x8
 4665 0589 08       		.uleb128 0x8
 4666 058a B2090000 		.4byte	.LASF104
 4667 058e 09       		.byte	0x9
 4668 058f 08       		.uleb128 0x8
 4669 0590 A91D0000 		.4byte	.LASF105
 4670 0594 0A       		.byte	0xa
 4671 0595 08       		.uleb128 0x8
 4672 0596 2C050000 		.4byte	.LASF106
ARM GAS  C:\Users\haske\AppData\Local\Temp\ccmHbbn5.s 			page 114


 4673 059a 0B       		.byte	0xb
 4674 059b 08       		.uleb128 0x8
 4675 059c 68280000 		.4byte	.LASF107
 4676 05a0 10       		.byte	0x10
 4677 05a1 08       		.uleb128 0x8
 4678 05a2 E9120000 		.4byte	.LASF108
 4679 05a6 11       		.byte	0x11
 4680 05a7 08       		.uleb128 0x8
 4681 05a8 99160000 		.4byte	.LASF109
 4682 05ac 12       		.byte	0x12
 4683 05ad 08       		.uleb128 0x8
 4684 05ae F1050000 		.4byte	.LASF110
 4685 05b2 13       		.byte	0x13
 4686 05b3 08       		.uleb128 0x8
 4687 05b4 FB150000 		.4byte	.LASF111
 4688 05b8 14       		.byte	0x14
 4689 05b9 08       		.uleb128 0x8
 4690 05ba 81040000 		.4byte	.LASF112
 4691 05be 15       		.byte	0x15
 4692 05bf 08       		.uleb128 0x8
 4693 05c0 EA0C0000 		.4byte	.LASF113
 4694 05c4 16       		.byte	0x16
 4695 05c5 08       		.uleb128 0x8
 4696 05c6 461E0000 		.4byte	.LASF114
 4697 05ca 17       		.byte	0x17
 4698 05cb 08       		.uleb128 0x8
 4699 05cc E60D0000 		.4byte	.LASF115
 4700 05d0 20       		.byte	0x20
 4701 05d1 08       		.uleb128 0x8
 4702 05d2 59130000 		.4byte	.LASF116
 4703 05d6 21       		.byte	0x21
 4704 05d7 08       		.uleb128 0x8
 4705 05d8 46260000 		.4byte	.LASF117
 4706 05dc 22       		.byte	0x22
 4707 05dd 08       		.uleb128 0x8
 4708 05de 06090000 		.4byte	.LASF118
 4709 05e2 23       		.byte	0x23
 4710 05e3 08       		.uleb128 0x8
 4711 05e4 9A130000 		.4byte	.LASF119
 4712 05e8 24       		.byte	0x24
 4713 05e9 08       		.uleb128 0x8
 4714 05ea D9210000 		.4byte	.LASF120
 4715 05ee 25       		.byte	0x25
 4716 05ef 08       		.uleb128 0x8
 4717 05f0 4E2E0000 		.4byte	.LASF121
 4718 05f4 26       		.byte	0x26
 4719 05f5 08       		.uleb128 0x8
 4720 05f6 EA040000 		.4byte	.LASF122
 4721 05fa 27       		.byte	0x27
 4722 05fb 08       		.uleb128 0x8
 4723 05fc 29240000 		.4byte	.LASF123
 4724 0600 28       		.byte	0x28
 4725 0601 08       		.uleb128 0x8
 4726 0602 DE280000 		.4byte	.LASF124
 4727 0606 29       		.byte	0x29
 4728 0607 08       		.uleb128 0x8
 4729 0608 6E050000 		.4byte	.LASF125
ARM GAS  C:\Users\haske\AppData\Local\Temp\ccmHbbn5.s 			page 115


 4730 060c 2A       		.byte	0x2a
 4731 060d 08       		.uleb128 0x8
 4732 060e 88060000 		.4byte	.LASF126
 4733 0612 2B       		.byte	0x2b
 4734 0613 08       		.uleb128 0x8
 4735 0614 82070000 		.4byte	.LASF127
 4736 0618 2C       		.byte	0x2c
 4737 0619 08       		.uleb128 0x8
 4738 061a 13210000 		.4byte	.LASF128
 4739 061e 30       		.byte	0x30
 4740 061f 08       		.uleb128 0x8
 4741 0620 C2070000 		.4byte	.LASF129
 4742 0624 31       		.byte	0x31
 4743 0625 08       		.uleb128 0x8
 4744 0626 3E040000 		.4byte	.LASF130
 4745 062a 32       		.byte	0x32
 4746 062b 08       		.uleb128 0x8
 4747 062c EF210000 		.4byte	.LASF131
 4748 0630 33       		.byte	0x33
 4749 0631 08       		.uleb128 0x8
 4750 0632 3F2A0000 		.4byte	.LASF132
 4751 0636 34       		.byte	0x34
 4752 0637 08       		.uleb128 0x8
 4753 0638 E9100000 		.4byte	.LASF133
 4754 063c 35       		.byte	0x35
 4755 063d 08       		.uleb128 0x8
 4756 063e 1A2C0000 		.4byte	.LASF134
 4757 0642 36       		.byte	0x36
 4758 0643 08       		.uleb128 0x8
 4759 0644 FC0C0000 		.4byte	.LASF135
 4760 0648 37       		.byte	0x37
 4761 0649 08       		.uleb128 0x8
 4762 064a 802E0000 		.4byte	.LASF136
 4763 064e 38       		.byte	0x38
 4764 064f 08       		.uleb128 0x8
 4765 0650 041E0000 		.4byte	.LASF137
 4766 0654 40       		.byte	0x40
 4767 0655 08       		.uleb128 0x8
 4768 0656 CB230000 		.4byte	.LASF138
 4769 065a 41       		.byte	0x41
 4770 065b 08       		.uleb128 0x8
 4771 065c E1230000 		.4byte	.LASF139
 4772 0660 42       		.byte	0x42
 4773 0661 08       		.uleb128 0x8
 4774 0662 752C0000 		.4byte	.LASF140
 4775 0666 43       		.byte	0x43
 4776 0667 08       		.uleb128 0x8
 4777 0668 58080000 		.4byte	.LASF141
 4778 066c 44       		.byte	0x44
 4779 066d 08       		.uleb128 0x8
 4780 066e 86050000 		.4byte	.LASF142
 4781 0672 45       		.byte	0x45
 4782 0673 08       		.uleb128 0x8
 4783 0674 E5130000 		.4byte	.LASF143
 4784 0678 46       		.byte	0x46
 4785 0679 08       		.uleb128 0x8
 4786 067a 7F0A0000 		.4byte	.LASF144
ARM GAS  C:\Users\haske\AppData\Local\Temp\ccmHbbn5.s 			page 116


 4787 067e 47       		.byte	0x47
 4788 067f 08       		.uleb128 0x8
 4789 0680 F80D0000 		.4byte	.LASF145
 4790 0684 48       		.byte	0x48
 4791 0685 08       		.uleb128 0x8
 4792 0686 F2280000 		.4byte	.LASF146
 4793 068a 49       		.byte	0x49
 4794 068b 08       		.uleb128 0x8
 4795 068c 1C0F0000 		.4byte	.LASF147
 4796 0690 4A       		.byte	0x4a
 4797 0691 08       		.uleb128 0x8
 4798 0692 DA000000 		.4byte	.LASF148
 4799 0696 4B       		.byte	0x4b
 4800 0697 08       		.uleb128 0x8
 4801 0698 8F2A0000 		.4byte	.LASF149
 4802 069c 4C       		.byte	0x4c
 4803 069d 08       		.uleb128 0x8
 4804 069e BA150000 		.4byte	.LASF150
 4805 06a2 4D       		.byte	0x4d
 4806 06a3 08       		.uleb128 0x8
 4807 06a4 69130000 		.4byte	.LASF151
 4808 06a8 4E       		.byte	0x4e
 4809 06a9 08       		.uleb128 0x8
 4810 06aa 9D0A0000 		.4byte	.LASF152
 4811 06ae 50       		.byte	0x50
 4812 06af 08       		.uleb128 0x8
 4813 06b0 5A1A0000 		.4byte	.LASF153
 4814 06b4 51       		.byte	0x51
 4815 06b5 08       		.uleb128 0x8
 4816 06b6 8C270000 		.4byte	.LASF154
 4817 06ba 52       		.byte	0x52
 4818 06bb 08       		.uleb128 0x8
 4819 06bc 8A010000 		.4byte	.LASF155
 4820 06c0 53       		.byte	0x53
 4821 06c1 08       		.uleb128 0x8
 4822 06c2 5A240000 		.4byte	.LASF156
 4823 06c6 54       		.byte	0x54
 4824 06c7 08       		.uleb128 0x8
 4825 06c8 DD1A0000 		.4byte	.LASF157
 4826 06cc 55       		.byte	0x55
 4827 06cd 08       		.uleb128 0x8
 4828 06ce 99140000 		.4byte	.LASF158
 4829 06d2 56       		.byte	0x56
 4830 06d3 08       		.uleb128 0x8
 4831 06d4 AE240000 		.4byte	.LASF159
 4832 06d8 57       		.byte	0x57
 4833 06d9 08       		.uleb128 0x8
 4834 06da F22E0000 		.4byte	.LASF160
 4835 06de 58       		.byte	0x58
 4836 06df 08       		.uleb128 0x8
 4837 06e0 A6110000 		.4byte	.LASF161
 4838 06e4 59       		.byte	0x59
 4839 06e5 08       		.uleb128 0x8
 4840 06e6 2A1A0000 		.4byte	.LASF162
 4841 06ea 5A       		.byte	0x5a
 4842 06eb 08       		.uleb128 0x8
 4843 06ec D4170000 		.4byte	.LASF163
ARM GAS  C:\Users\haske\AppData\Local\Temp\ccmHbbn5.s 			page 117


 4844 06f0 5B       		.byte	0x5b
 4845 06f1 08       		.uleb128 0x8
 4846 06f2 1C000000 		.4byte	.LASF164
 4847 06f6 60       		.byte	0x60
 4848 06f7 08       		.uleb128 0x8
 4849 06f8 B7190000 		.4byte	.LASF165
 4850 06fc 61       		.byte	0x61
 4851 06fd 08       		.uleb128 0x8
 4852 06fe 311F0000 		.4byte	.LASF166
 4853 0702 62       		.byte	0x62
 4854 0703 08       		.uleb128 0x8
 4855 0704 54170000 		.4byte	.LASF167
 4856 0708 63       		.byte	0x63
 4857 0709 08       		.uleb128 0x8
 4858 070a B0120000 		.4byte	.LASF168
 4859 070e 64       		.byte	0x64
 4860 070f 08       		.uleb128 0x8
 4861 0710 8E100000 		.4byte	.LASF169
 4862 0714 65       		.byte	0x65
 4863 0715 08       		.uleb128 0x8
 4864 0716 47060000 		.4byte	.LASF170
 4865 071a 66       		.byte	0x66
 4866 071b 08       		.uleb128 0x8
 4867 071c 3E0E0000 		.4byte	.LASF171
 4868 0720 67       		.byte	0x67
 4869 0721 08       		.uleb128 0x8
 4870 0722 910F0000 		.4byte	.LASF172
 4871 0726 68       		.byte	0x68
 4872 0727 08       		.uleb128 0x8
 4873 0728 C0050000 		.4byte	.LASF173
 4874 072c 69       		.byte	0x69
 4875 072d 08       		.uleb128 0x8
 4876 072e 410B0000 		.4byte	.LASF174
 4877 0732 6A       		.byte	0x6a
 4878 0733 08       		.uleb128 0x8
 4879 0734 560B0000 		.4byte	.LASF175
 4880 0738 6B       		.byte	0x6b
 4881 0739 08       		.uleb128 0x8
 4882 073a A2100000 		.4byte	.LASF176
 4883 073e 6C       		.byte	0x6c
 4884 073f 08       		.uleb128 0x8
 4885 0740 66190000 		.4byte	.LASF177
 4886 0744 6D       		.byte	0x6d
 4887 0745 08       		.uleb128 0x8
 4888 0746 260A0000 		.4byte	.LASF178
 4889 074a 6E       		.byte	0x6e
 4890 074b 08       		.uleb128 0x8
 4891 074c 410A0000 		.4byte	.LASF179
 4892 0750 6F       		.byte	0x6f
 4893 0751 08       		.uleb128 0x8
 4894 0752 D1030000 		.4byte	.LASF180
 4895 0756 6F       		.byte	0x6f
 4896 0757 08       		.uleb128 0x8
 4897 0758 36280000 		.4byte	.LASF181
 4898 075c 70       		.byte	0x70
 4899 075d 18       		.uleb128 0x18
 4900 075e DA240000 		.4byte	.LASF182
ARM GAS  C:\Users\haske\AppData\Local\Temp\ccmHbbn5.s 			page 118


 4901 0762 FFFF     		.2byte	0xffff
 4902 0764 18       		.uleb128 0x18
 4903 0765 161C0000 		.4byte	.LASF183
 4904 0769 FFFF     		.2byte	0xffff
 4905 076b 00       		.byte	0
 4906 076c 19       		.uleb128 0x19
 4907 076d BD0F0000 		.4byte	.LASF184
 4908 0771 0C       		.byte	0xc
 4909 0772 1C01     		.2byte	0x11c
 4910 0774 47050000 		.4byte	0x547
 4911 0778 1A       		.uleb128 0x1a
 4912 0779 08       		.byte	0x8
 4913 077a 0C       		.byte	0xc
 4914 077b 3601     		.2byte	0x136
 4915 077d 9C070000 		.4byte	0x79c
 4916 0781 1B       		.uleb128 0x1b
 4917 0782 720E0000 		.4byte	.LASF185
 4918 0786 0C       		.byte	0xc
 4919 0787 3701     		.2byte	0x137
 4920 0789 6C070000 		.4byte	0x76c
 4921 078d 00       		.byte	0
 4922 078e 1B       		.uleb128 0x1b
 4923 078f 0D0C0000 		.4byte	.LASF186
 4924 0793 0C       		.byte	0xc
 4925 0794 3801     		.2byte	0x138
 4926 0796 3C050000 		.4byte	0x53c
 4927 079a 04       		.byte	0x4
 4928 079b 00       		.byte	0
 4929 079c 19       		.uleb128 0x19
 4930 079d CE110000 		.4byte	.LASF187
 4931 07a1 0C       		.byte	0xc
 4932 07a2 3901     		.2byte	0x139
 4933 07a4 78070000 		.4byte	0x778
 4934 07a8 1C       		.uleb128 0x1c
 4935 07a9 04       		.byte	0x4
 4936 07aa 0C       		.byte	0xc
 4937 07ab 4601     		.2byte	0x146
 4938 07ad D6070000 		.4byte	0x7d6
 4939 07b1 1D       		.uleb128 0x1d
 4940 07b2 6F240000 		.4byte	.LASF188
 4941 07b6 0C       		.byte	0xc
 4942 07b7 4701     		.2byte	0x147
 4943 07b9 3C050000 		.4byte	0x53c
 4944 07bd 1D       		.uleb128 0x1d
 4945 07be 02100000 		.4byte	.LASF189
 4946 07c2 0C       		.byte	0xc
 4947 07c3 4801     		.2byte	0x148
 4948 07c5 D6070000 		.4byte	0x7d6
 4949 07c9 1D       		.uleb128 0x1d
 4950 07ca 830E0000 		.4byte	.LASF190
 4951 07ce 0C       		.byte	0xc
 4952 07cf 4901     		.2byte	0x149
 4953 07d1 DC070000 		.4byte	0x7dc
 4954 07d5 00       		.byte	0
 4955 07d6 0D       		.uleb128 0xd
 4956 07d7 04       		.byte	0x4
 4957 07d8 B8000000 		.4byte	0xb8
ARM GAS  C:\Users\haske\AppData\Local\Temp\ccmHbbn5.s 			page 119


 4958 07dc 0D       		.uleb128 0xd
 4959 07dd 04       		.byte	0x4
 4960 07de E2070000 		.4byte	0x7e2
 4961 07e2 0E       		.uleb128 0xe
 4962 07e3 9C070000 		.4byte	0x79c
 4963 07e7 1A       		.uleb128 0x1a
 4964 07e8 08       		.byte	0x8
 4965 07e9 0C       		.byte	0xc
 4966 07ea 3E01     		.2byte	0x13e
 4967 07ec 25080000 		.4byte	0x825
 4968 07f0 1E       		.uleb128 0x1e
 4969 07f1 765F7000 		.ascii	"v_p\000"
 4970 07f5 0C       		.byte	0xc
 4971 07f6 4A01     		.2byte	0x14a
 4972 07f8 A8070000 		.4byte	0x7a8
 4973 07fc 00       		.byte	0
 4974 07fd 1B       		.uleb128 0x1b
 4975 07fe 8A290000 		.4byte	.LASF191
 4976 0802 0C       		.byte	0xc
 4977 0803 4C01     		.2byte	0x14c
 4978 0805 CE000000 		.4byte	0xce
 4979 0809 04       		.byte	0x4
 4980 080a 1B       		.uleb128 0x1b
 4981 080b 08020000 		.4byte	.LASF192
 4982 080f 0C       		.byte	0xc
 4983 0810 4D01     		.2byte	0x14d
 4984 0812 B8000000 		.4byte	0xb8
 4985 0816 06       		.byte	0x6
 4986 0817 1B       		.uleb128 0x1b
 4987 0818 00000000 		.4byte	.LASF193
 4988 081c 0C       		.byte	0xc
 4989 081d 4E01     		.2byte	0x14e
 4990 081f B8000000 		.4byte	0xb8
 4991 0823 07       		.byte	0x7
 4992 0824 00       		.byte	0
 4993 0825 19       		.uleb128 0x19
 4994 0826 7B130000 		.4byte	.LASF194
 4995 082a 0C       		.byte	0xc
 4996 082b 4F01     		.2byte	0x14f
 4997 082d E7070000 		.4byte	0x7e7
 4998 0831 02       		.uleb128 0x2
 4999 0832 66140000 		.4byte	.LASF195
 5000 0836 0D       		.byte	0xd
 5001 0837 69       		.byte	0x69
 5002 0838 B8000000 		.4byte	0xb8
 5003 083c 0D       		.uleb128 0xd
 5004 083d 04       		.byte	0x4
 5005 083e 42080000 		.4byte	0x842
 5006 0842 0C       		.uleb128 0xc
 5007 0843 CB250000 		.4byte	.LASF197
 5008 0847 24       		.byte	0x24
 5009 0848 0E       		.byte	0xe
 5010 0849 AE       		.byte	0xae
 5011 084a 09090000 		.4byte	0x909
 5012 084e 09       		.uleb128 0x9
 5013 084f 131B0000 		.4byte	.LASF198
 5014 0853 0E       		.byte	0xe
ARM GAS  C:\Users\haske\AppData\Local\Temp\ccmHbbn5.s 			page 120


 5015 0854 AF       		.byte	0xaf
 5016 0855 27210000 		.4byte	0x2127
 5017 0859 00       		.byte	0
 5018 085a 09       		.uleb128 0x9
 5019 085b 08120000 		.4byte	.LASF199
 5020 085f 0E       		.byte	0xe
 5021 0860 B0       		.byte	0xb0
 5022 0861 3C080000 		.4byte	0x83c
 5023 0865 04       		.byte	0x4
 5024 0866 09       		.uleb128 0x9
 5025 0867 B8020000 		.4byte	.LASF200
 5026 086b 0E       		.byte	0xe
 5027 086c B1       		.byte	0xb1
 5028 086d 32210000 		.4byte	0x2132
 5029 0871 08       		.byte	0x8
 5030 0872 09       		.uleb128 0x9
 5031 0873 CD130000 		.4byte	.LASF201
 5032 0877 0E       		.byte	0xe
 5033 0878 B2       		.byte	0xb2
 5034 0879 38210000 		.4byte	0x2138
 5035 087d 0C       		.byte	0xc
 5036 087e 09       		.uleb128 0x9
 5037 087f 312C0000 		.4byte	.LASF64
 5038 0883 0E       		.byte	0xe
 5039 0884 B4       		.byte	0xb4
 5040 0885 7A030000 		.4byte	0x37a
 5041 0889 10       		.byte	0x10
 5042 088a 09       		.uleb128 0x9
 5043 088b E5270000 		.4byte	.LASF202
 5044 088f 0E       		.byte	0xe
 5045 0890 B6       		.byte	0xb6
 5046 0891 69010000 		.4byte	0x169
 5047 0895 14       		.byte	0x14
 5048 0896 09       		.uleb128 0x9
 5049 0897 130C0000 		.4byte	.LASF203
 5050 089b 0E       		.byte	0xe
 5051 089c B7       		.byte	0xb7
 5052 089d 561B0000 		.4byte	0x1b56
 5053 08a1 1C       		.byte	0x1c
 5054 08a2 09       		.uleb128 0x9
 5055 08a3 32030000 		.4byte	.LASF204
 5056 08a7 0E       		.byte	0xe
 5057 08a8 B8       		.byte	0xb8
 5058 08a9 F4190000 		.4byte	0x19f4
 5059 08ad 20       		.byte	0x20
 5060 08ae 0B       		.uleb128 0xb
 5061 08af 78080000 		.4byte	.LASF205
 5062 08b3 0E       		.byte	0xe
 5063 08b4 B9       		.byte	0xb9
 5064 08b5 CE000000 		.4byte	0xce
 5065 08b9 02       		.byte	0x2
 5066 08ba 01       		.byte	0x1
 5067 08bb 0F       		.byte	0xf
 5068 08bc 22       		.byte	0x22
 5069 08bd 0B       		.uleb128 0xb
 5070 08be 44050000 		.4byte	.LASF206
 5071 08c2 0E       		.byte	0xe
ARM GAS  C:\Users\haske\AppData\Local\Temp\ccmHbbn5.s 			page 121


 5072 08c3 BA       		.byte	0xba
 5073 08c4 CE000000 		.4byte	0xce
 5074 08c8 02       		.byte	0x2
 5075 08c9 01       		.byte	0x1
 5076 08ca 0E       		.byte	0xe
 5077 08cb 22       		.byte	0x22
 5078 08cc 0B       		.uleb128 0xb
 5079 08cd A31A0000 		.4byte	.LASF207
 5080 08d1 0E       		.byte	0xe
 5081 08d2 BB       		.byte	0xbb
 5082 08d3 CE000000 		.4byte	0xce
 5083 08d7 02       		.byte	0x2
 5084 08d8 01       		.byte	0x1
 5085 08d9 0D       		.byte	0xd
 5086 08da 22       		.byte	0x22
 5087 08db 0B       		.uleb128 0xb
 5088 08dc 6E080000 		.4byte	.LASF208
 5089 08e0 0E       		.byte	0xe
 5090 08e1 BC       		.byte	0xbc
 5091 08e2 CE000000 		.4byte	0xce
 5092 08e6 02       		.byte	0x2
 5093 08e7 06       		.byte	0x6
 5094 08e8 07       		.byte	0x7
 5095 08e9 22       		.byte	0x22
 5096 08ea 0B       		.uleb128 0xb
 5097 08eb F10A0000 		.4byte	.LASF209
 5098 08ef 0E       		.byte	0xe
 5099 08f0 BD       		.byte	0xbd
 5100 08f1 CE000000 		.4byte	0xce
 5101 08f5 02       		.byte	0x2
 5102 08f6 01       		.byte	0x1
 5103 08f7 06       		.byte	0x6
 5104 08f8 22       		.byte	0x22
 5105 08f9 0B       		.uleb128 0xb
 5106 08fa 18050000 		.4byte	.LASF210
 5107 08fe 0E       		.byte	0xe
 5108 08ff BE       		.byte	0xbe
 5109 0900 CE000000 		.4byte	0xce
 5110 0904 02       		.byte	0x2
 5111 0905 01       		.byte	0x1
 5112 0906 05       		.byte	0x5
 5113 0907 22       		.byte	0x22
 5114 0908 00       		.byte	0
 5115 0909 0D       		.uleb128 0xd
 5116 090a 04       		.byte	0x4
 5117 090b 1E040000 		.4byte	0x41e
 5118 090f 05       		.uleb128 0x5
 5119 0910 38       		.byte	0x38
 5120 0911 0F       		.byte	0xf
 5121 0912 20       		.byte	0x20
 5122 0913 560A0000 		.4byte	0xa56
 5123 0917 09       		.uleb128 0x9
 5124 0918 5A020000 		.4byte	.LASF211
 5125 091c 0F       		.byte	0xf
 5126 091d 21       		.byte	0x21
 5127 091e 01010000 		.4byte	0x101
 5128 0922 00       		.byte	0
ARM GAS  C:\Users\haske\AppData\Local\Temp\ccmHbbn5.s 			page 122


 5129 0923 09       		.uleb128 0x9
 5130 0924 21050000 		.4byte	.LASF212
 5131 0928 0F       		.byte	0xf
 5132 0929 22       		.byte	0x22
 5133 092a 55040000 		.4byte	0x455
 5134 092e 02       		.byte	0x2
 5135 092f 09       		.uleb128 0x9
 5136 0930 A4060000 		.4byte	.LASF213
 5137 0934 0F       		.byte	0xf
 5138 0935 25       		.byte	0x25
 5139 0936 29040000 		.4byte	0x429
 5140 093a 03       		.byte	0x3
 5141 093b 09       		.uleb128 0x9
 5142 093c 61020000 		.4byte	.LASF214
 5143 0940 0F       		.byte	0xf
 5144 0941 26       		.byte	0x26
 5145 0942 1E040000 		.4byte	0x41e
 5146 0946 04       		.byte	0x4
 5147 0947 09       		.uleb128 0x9
 5148 0948 272A0000 		.4byte	.LASF215
 5149 094c 0F       		.byte	0xf
 5150 094d 27       		.byte	0x27
 5151 094e 07050000 		.4byte	0x507
 5152 0952 06       		.byte	0x6
 5153 0953 09       		.uleb128 0x9
 5154 0954 29040000 		.4byte	.LASF216
 5155 0958 0F       		.byte	0xf
 5156 0959 2A       		.byte	0x2a
 5157 095a 73030000 		.4byte	0x373
 5158 095e 10       		.byte	0x10
 5159 095f 09       		.uleb128 0x9
 5160 0960 EC2D0000 		.4byte	.LASF217
 5161 0964 0F       		.byte	0xf
 5162 0965 2B       		.byte	0x2b
 5163 0966 73030000 		.4byte	0x373
 5164 096a 14       		.byte	0x14
 5165 096b 09       		.uleb128 0x9
 5166 096c 9F000000 		.4byte	.LASF218
 5167 0970 0F       		.byte	0xf
 5168 0971 2C       		.byte	0x2c
 5169 0972 1E040000 		.4byte	0x41e
 5170 0976 18       		.byte	0x18
 5171 0977 09       		.uleb128 0x9
 5172 0978 54090000 		.4byte	.LASF219
 5173 097c 0F       		.byte	0xf
 5174 097d 2D       		.byte	0x2d
 5175 097e 29040000 		.4byte	0x429
 5176 0982 1A       		.byte	0x1a
 5177 0983 09       		.uleb128 0x9
 5178 0984 4D200000 		.4byte	.LASF220
 5179 0988 0F       		.byte	0xf
 5180 0989 2E       		.byte	0x2e
 5181 098a 29040000 		.4byte	0x429
 5182 098e 1B       		.byte	0x1b
 5183 098f 09       		.uleb128 0x9
 5184 0990 F9080000 		.4byte	.LASF221
 5185 0994 0F       		.byte	0xf
ARM GAS  C:\Users\haske\AppData\Local\Temp\ccmHbbn5.s 			page 123


 5186 0995 2F       		.byte	0x2f
 5187 0996 B8000000 		.4byte	0xb8
 5188 099a 1C       		.byte	0x1c
 5189 099b 09       		.uleb128 0x9
 5190 099c 310E0000 		.4byte	.LASF222
 5191 09a0 0F       		.byte	0xf
 5192 09a1 32       		.byte	0x32
 5193 09a2 1E040000 		.4byte	0x41e
 5194 09a6 1E       		.byte	0x1e
 5195 09a7 09       		.uleb128 0x9
 5196 09a8 5B230000 		.4byte	.LASF223
 5197 09ac 0F       		.byte	0xf
 5198 09ad 33       		.byte	0x33
 5199 09ae 01010000 		.4byte	0x101
 5200 09b2 20       		.byte	0x20
 5201 09b3 09       		.uleb128 0x9
 5202 09b4 D0290000 		.4byte	.LASF224
 5203 09b8 0F       		.byte	0xf
 5204 09b9 34       		.byte	0x34
 5205 09ba 29040000 		.4byte	0x429
 5206 09be 22       		.byte	0x22
 5207 09bf 0B       		.uleb128 0xb
 5208 09c0 C30E0000 		.4byte	.LASF225
 5209 09c4 0F       		.byte	0xf
 5210 09c5 35       		.byte	0x35
 5211 09c6 B8000000 		.4byte	0xb8
 5212 09ca 01       		.byte	0x1
 5213 09cb 01       		.byte	0x1
 5214 09cc 07       		.byte	0x7
 5215 09cd 23       		.byte	0x23
 5216 09ce 0B       		.uleb128 0xb
 5217 09cf 02050000 		.4byte	.LASF226
 5218 09d3 0F       		.byte	0xf
 5219 09d4 36       		.byte	0x36
 5220 09d5 6B040000 		.4byte	0x46b
 5221 09d9 01       		.byte	0x1
 5222 09da 05       		.byte	0x5
 5223 09db 02       		.byte	0x2
 5224 09dc 23       		.byte	0x23
 5225 09dd 09       		.uleb128 0x9
 5226 09de 4A080000 		.4byte	.LASF227
 5227 09e2 0F       		.byte	0xf
 5228 09e3 39       		.byte	0x39
 5229 09e4 1E040000 		.4byte	0x41e
 5230 09e8 24       		.byte	0x24
 5231 09e9 09       		.uleb128 0x9
 5232 09ea F61D0000 		.4byte	.LASF228
 5233 09ee 0F       		.byte	0xf
 5234 09ef 3A       		.byte	0x3a
 5235 09f0 01010000 		.4byte	0x101
 5236 09f4 26       		.byte	0x26
 5237 09f5 09       		.uleb128 0x9
 5238 09f6 B90D0000 		.4byte	.LASF229
 5239 09fa 0F       		.byte	0xf
 5240 09fb 3B       		.byte	0x3b
 5241 09fc 01010000 		.4byte	0x101
 5242 0a00 28       		.byte	0x28
ARM GAS  C:\Users\haske\AppData\Local\Temp\ccmHbbn5.s 			page 124


 5243 0a01 09       		.uleb128 0x9
 5244 0a02 C51C0000 		.4byte	.LASF230
 5245 0a06 0F       		.byte	0xf
 5246 0a07 3C       		.byte	0x3c
 5247 0a08 29040000 		.4byte	0x429
 5248 0a0c 2A       		.byte	0x2a
 5249 0a0d 09       		.uleb128 0x9
 5250 0a0e D7080000 		.4byte	.LASF231
 5251 0a12 0F       		.byte	0xf
 5252 0a13 3F       		.byte	0x3f
 5253 0a14 1E040000 		.4byte	0x41e
 5254 0a18 2C       		.byte	0x2c
 5255 0a19 09       		.uleb128 0x9
 5256 0a1a 552B0000 		.4byte	.LASF232
 5257 0a1e 0F       		.byte	0xf
 5258 0a1f 40       		.byte	0x40
 5259 0a20 01010000 		.4byte	0x101
 5260 0a24 2E       		.byte	0x2e
 5261 0a25 09       		.uleb128 0x9
 5262 0a26 840F0000 		.4byte	.LASF233
 5263 0a2a 0F       		.byte	0xf
 5264 0a2b 41       		.byte	0x41
 5265 0a2c 01010000 		.4byte	0x101
 5266 0a30 30       		.byte	0x30
 5267 0a31 09       		.uleb128 0x9
 5268 0a32 FF2D0000 		.4byte	.LASF234
 5269 0a36 0F       		.byte	0xf
 5270 0a37 42       		.byte	0x42
 5271 0a38 01010000 		.4byte	0x101
 5272 0a3c 32       		.byte	0x32
 5273 0a3d 09       		.uleb128 0x9
 5274 0a3e A2120000 		.4byte	.LASF235
 5275 0a42 0F       		.byte	0xf
 5276 0a43 43       		.byte	0x43
 5277 0a44 01010000 		.4byte	0x101
 5278 0a48 34       		.byte	0x34
 5279 0a49 09       		.uleb128 0x9
 5280 0a4a 29160000 		.4byte	.LASF236
 5281 0a4e 0F       		.byte	0xf
 5282 0a4f 44       		.byte	0x44
 5283 0a50 29040000 		.4byte	0x429
 5284 0a54 36       		.byte	0x36
 5285 0a55 00       		.byte	0
 5286 0a56 02       		.uleb128 0x2
 5287 0a57 28220000 		.4byte	.LASF237
 5288 0a5b 0F       		.byte	0xf
 5289 0a5c 45       		.byte	0x45
 5290 0a5d 0F090000 		.4byte	0x90f
 5291 0a61 05       		.uleb128 0x5
 5292 0a62 20       		.byte	0x20
 5293 0a63 10       		.byte	0x10
 5294 0a64 1E       		.byte	0x1e
 5295 0a65 300B0000 		.4byte	0xb30
 5296 0a69 09       		.uleb128 0x9
 5297 0a6a D5250000 		.4byte	.LASF238
 5298 0a6e 10       		.byte	0x10
 5299 0a6f 1F       		.byte	0x1f
ARM GAS  C:\Users\haske\AppData\Local\Temp\ccmHbbn5.s 			page 125


 5300 0a70 300B0000 		.4byte	0xb30
 5301 0a74 00       		.byte	0
 5302 0a75 09       		.uleb128 0x9
 5303 0a76 D82A0000 		.4byte	.LASF239
 5304 0a7a 10       		.byte	0x10
 5305 0a7b 20       		.byte	0x20
 5306 0a7c E4000000 		.4byte	0xe4
 5307 0a80 04       		.byte	0x4
 5308 0a81 09       		.uleb128 0x9
 5309 0a82 0E1C0000 		.4byte	.LASF240
 5310 0a86 10       		.byte	0x10
 5311 0a87 21       		.byte	0x21
 5312 0a88 E4000000 		.4byte	0xe4
 5313 0a8c 08       		.byte	0x8
 5314 0a8d 09       		.uleb128 0x9
 5315 0a8e 24250000 		.4byte	.LASF87
 5316 0a92 10       		.byte	0x10
 5317 0a93 22       		.byte	0x22
 5318 0a94 1E040000 		.4byte	0x41e
 5319 0a98 0C       		.byte	0xc
 5320 0a99 09       		.uleb128 0x9
 5321 0a9a C12D0000 		.4byte	.LASF241
 5322 0a9e 10       		.byte	0x10
 5323 0a9f 23       		.byte	0x23
 5324 0aa0 1E040000 		.4byte	0x41e
 5325 0aa4 0E       		.byte	0xe
 5326 0aa5 09       		.uleb128 0x9
 5327 0aa6 ED060000 		.4byte	.LASF242
 5328 0aaa 10       		.byte	0x10
 5329 0aab 24       		.byte	0x24
 5330 0aac 1E040000 		.4byte	0x41e
 5331 0ab0 10       		.byte	0x10
 5332 0ab1 09       		.uleb128 0x9
 5333 0ab2 39250000 		.4byte	.LASF243
 5334 0ab6 10       		.byte	0x10
 5335 0ab7 25       		.byte	0x25
 5336 0ab8 01010000 		.4byte	0x101
 5337 0abc 12       		.byte	0x12
 5338 0abd 09       		.uleb128 0x9
 5339 0abe DA250000 		.4byte	.LASF244
 5340 0ac2 10       		.byte	0x10
 5341 0ac3 26       		.byte	0x26
 5342 0ac4 01010000 		.4byte	0x101
 5343 0ac8 14       		.byte	0x14
 5344 0ac9 09       		.uleb128 0x9
 5345 0aca B00A0000 		.4byte	.LASF53
 5346 0ace 10       		.byte	0x10
 5347 0acf 27       		.byte	0x27
 5348 0ad0 01010000 		.4byte	0x101
 5349 0ad4 16       		.byte	0x16
 5350 0ad5 09       		.uleb128 0x9
 5351 0ad6 B60A0000 		.4byte	.LASF54
 5352 0ada 10       		.byte	0x10
 5353 0adb 28       		.byte	0x28
 5354 0adc 01010000 		.4byte	0x101
 5355 0ae0 18       		.byte	0x18
 5356 0ae1 06       		.uleb128 0x6
ARM GAS  C:\Users\haske\AppData\Local\Temp\ccmHbbn5.s 			page 126


 5357 0ae2 6F706100 		.ascii	"opa\000"
 5358 0ae6 10       		.byte	0x10
 5359 0ae7 29       		.byte	0x29
 5360 0ae8 29040000 		.4byte	0x429
 5361 0aec 1A       		.byte	0x1a
 5362 0aed 09       		.uleb128 0x9
 5363 0aee 86020000 		.4byte	.LASF245
 5364 0af2 10       		.byte	0x10
 5365 0af3 2A       		.byte	0x2a
 5366 0af4 4A040000 		.4byte	0x44a
 5367 0af8 1B       		.byte	0x1b
 5368 0af9 09       		.uleb128 0x9
 5369 0afa 541A0000 		.4byte	.LASF246
 5370 0afe 10       		.byte	0x10
 5371 0aff 2B       		.byte	0x2b
 5372 0b00 3F040000 		.4byte	0x43f
 5373 0b04 1C       		.byte	0x1c
 5374 0b05 09       		.uleb128 0x9
 5375 0b06 5C1C0000 		.4byte	.LASF247
 5376 0b0a 10       		.byte	0x10
 5377 0b0b 2C       		.byte	0x2c
 5378 0b0c 34040000 		.4byte	0x434
 5379 0b10 1D       		.byte	0x1d
 5380 0b11 0B       		.uleb128 0xb
 5381 0b12 91240000 		.4byte	.LASF248
 5382 0b16 10       		.byte	0x10
 5383 0b17 2D       		.byte	0x2d
 5384 0b18 60040000 		.4byte	0x460
 5385 0b1c 01       		.byte	0x1
 5386 0b1d 03       		.byte	0x3
 5387 0b1e 05       		.byte	0x5
 5388 0b1f 1E       		.byte	0x1e
 5389 0b20 0B       		.uleb128 0xb
 5390 0b21 21050000 		.4byte	.LASF212
 5391 0b25 10       		.byte	0x10
 5392 0b26 2E       		.byte	0x2e
 5393 0b27 55040000 		.4byte	0x455
 5394 0b2b 01       		.byte	0x1
 5395 0b2c 03       		.byte	0x3
 5396 0b2d 02       		.byte	0x2
 5397 0b2e 1E       		.byte	0x1e
 5398 0b2f 00       		.byte	0
 5399 0b30 0D       		.uleb128 0xd
 5400 0b31 04       		.byte	0x4
 5401 0b32 360B0000 		.4byte	0xb36
 5402 0b36 0E       		.uleb128 0xe
 5403 0b37 7C030000 		.4byte	0x37c
 5404 0b3b 02       		.uleb128 0x2
 5405 0b3c B6060000 		.4byte	.LASF249
 5406 0b40 10       		.byte	0x10
 5407 0b41 2F       		.byte	0x2f
 5408 0b42 610A0000 		.4byte	0xa61
 5409 0b46 05       		.uleb128 0x5
 5410 0b47 18       		.byte	0x18
 5411 0b48 11       		.byte	0x11
 5412 0b49 20       		.byte	0x20
 5413 0b4a C10B0000 		.4byte	0xbc1
ARM GAS  C:\Users\haske\AppData\Local\Temp\ccmHbbn5.s 			page 127


 5414 0b4e 09       		.uleb128 0x9
 5415 0b4f 77160000 		.4byte	.LASF250
 5416 0b53 11       		.byte	0x11
 5417 0b54 22       		.byte	0x22
 5418 0b55 C3000000 		.4byte	0xc3
 5419 0b59 00       		.byte	0
 5420 0b5a 09       		.uleb128 0x9
 5421 0b5b 61030000 		.4byte	.LASF251
 5422 0b5f 11       		.byte	0x11
 5423 0b60 23       		.byte	0x23
 5424 0b61 CE000000 		.4byte	0xce
 5425 0b65 02       		.byte	0x2
 5426 0b66 09       		.uleb128 0x9
 5427 0b67 54240000 		.4byte	.LASF252
 5428 0b6b 11       		.byte	0x11
 5429 0b6c 24       		.byte	0x24
 5430 0b6d 29010000 		.4byte	0x129
 5431 0b71 04       		.byte	0x4
 5432 0b72 09       		.uleb128 0x9
 5433 0b73 34160000 		.4byte	.LASF253
 5434 0b77 11       		.byte	0x11
 5435 0b78 26       		.byte	0x26
 5436 0b79 1E040000 		.4byte	0x41e
 5437 0b7d 08       		.byte	0x8
 5438 0b7e 09       		.uleb128 0x9
 5439 0b7f 9D1D0000 		.4byte	.LASF254
 5440 0b83 11       		.byte	0x11
 5441 0b84 27       		.byte	0x27
 5442 0b85 29040000 		.4byte	0x429
 5443 0b89 0A       		.byte	0xa
 5444 0b8a 06       		.uleb128 0x6
 5445 0b8b 6F706100 		.ascii	"opa\000"
 5446 0b8f 11       		.byte	0x11
 5447 0b90 29       		.byte	0x29
 5448 0b91 29040000 		.4byte	0x429
 5449 0b95 0B       		.byte	0xb
 5450 0b96 0B       		.uleb128 0xb
 5451 0b97 21050000 		.4byte	.LASF212
 5452 0b9b 11       		.byte	0x11
 5453 0b9c 2A       		.byte	0x2a
 5454 0b9d 55040000 		.4byte	0x455
 5455 0ba1 01       		.byte	0x1
 5456 0ba2 04       		.byte	0x4
 5457 0ba3 04       		.byte	0x4
 5458 0ba4 0C       		.byte	0xc
 5459 0ba5 09       		.uleb128 0x9
 5460 0ba6 681D0000 		.4byte	.LASF255
 5461 0baa 11       		.byte	0x11
 5462 0bab 2C       		.byte	0x2c
 5463 0bac D9000000 		.4byte	0xd9
 5464 0bb0 10       		.byte	0x10
 5465 0bb1 0B       		.uleb128 0xb
 5466 0bb2 5B1E0000 		.4byte	.LASF256
 5467 0bb6 11       		.byte	0x11
 5468 0bb7 2D       		.byte	0x2d
 5469 0bb8 B8000000 		.4byte	0xb8
 5470 0bbc 01       		.byte	0x1
ARM GAS  C:\Users\haske\AppData\Local\Temp\ccmHbbn5.s 			page 128


 5471 0bbd 01       		.byte	0x1
 5472 0bbe 07       		.byte	0x7
 5473 0bbf 14       		.byte	0x14
 5474 0bc0 00       		.byte	0
 5475 0bc1 02       		.uleb128 0x2
 5476 0bc2 490C0000 		.4byte	.LASF257
 5477 0bc6 11       		.byte	0x11
 5478 0bc7 2E       		.byte	0x2e
 5479 0bc8 460B0000 		.4byte	0xb46
 5480 0bcc 05       		.uleb128 0x5
 5481 0bcd 0A       		.byte	0xa
 5482 0bce 12       		.byte	0x12
 5483 0bcf 1C       		.byte	0x1c
 5484 0bd0 4D0C0000 		.4byte	0xc4d
 5485 0bd4 09       		.uleb128 0x9
 5486 0bd5 24250000 		.4byte	.LASF87
 5487 0bd9 12       		.byte	0x12
 5488 0bda 1D       		.byte	0x1d
 5489 0bdb 1E040000 		.4byte	0x41e
 5490 0bdf 00       		.byte	0
 5491 0be0 09       		.uleb128 0x9
 5492 0be1 EF180000 		.4byte	.LASF258
 5493 0be5 12       		.byte	0x12
 5494 0be6 1E       		.byte	0x1e
 5495 0be7 01010000 		.4byte	0x101
 5496 0beb 02       		.byte	0x2
 5497 0bec 09       		.uleb128 0x9
 5498 0bed 0F150000 		.4byte	.LASF259
 5499 0bf1 12       		.byte	0x12
 5500 0bf2 1F       		.byte	0x1f
 5501 0bf3 01010000 		.4byte	0x101
 5502 0bf7 04       		.byte	0x4
 5503 0bf8 09       		.uleb128 0x9
 5504 0bf9 B10C0000 		.4byte	.LASF260
 5505 0bfd 12       		.byte	0x12
 5506 0bfe 20       		.byte	0x20
 5507 0bff 01010000 		.4byte	0x101
 5508 0c03 06       		.byte	0x6
 5509 0c04 06       		.uleb128 0x6
 5510 0c05 6F706100 		.ascii	"opa\000"
 5511 0c09 12       		.byte	0x12
 5512 0c0a 21       		.byte	0x21
 5513 0c0b 29040000 		.4byte	0x429
 5514 0c0f 08       		.byte	0x8
 5515 0c10 0B       		.uleb128 0xb
 5516 0c11 21050000 		.4byte	.LASF212
 5517 0c15 12       		.byte	0x12
 5518 0c16 22       		.byte	0x22
 5519 0c17 55040000 		.4byte	0x455
 5520 0c1b 01       		.byte	0x1
 5521 0c1c 02       		.byte	0x2
 5522 0c1d 06       		.byte	0x6
 5523 0c1e 09       		.byte	0x9
 5524 0c1f 0B       		.uleb128 0xb
 5525 0c20 E60F0000 		.4byte	.LASF261
 5526 0c24 12       		.byte	0x12
 5527 0c25 23       		.byte	0x23
ARM GAS  C:\Users\haske\AppData\Local\Temp\ccmHbbn5.s 			page 129


 5528 0c26 B8000000 		.4byte	0xb8
 5529 0c2a 01       		.byte	0x1
 5530 0c2b 01       		.byte	0x1
 5531 0c2c 05       		.byte	0x5
 5532 0c2d 09       		.byte	0x9
 5533 0c2e 0B       		.uleb128 0xb
 5534 0c2f 1C120000 		.4byte	.LASF262
 5535 0c33 12       		.byte	0x12
 5536 0c34 24       		.byte	0x24
 5537 0c35 B8000000 		.4byte	0xb8
 5538 0c39 01       		.byte	0x1
 5539 0c3a 01       		.byte	0x1
 5540 0c3b 04       		.byte	0x4
 5541 0c3c 09       		.byte	0x9
 5542 0c3d 0B       		.uleb128 0xb
 5543 0c3e 9B010000 		.4byte	.LASF263
 5544 0c42 12       		.byte	0x12
 5545 0c43 25       		.byte	0x25
 5546 0c44 B8000000 		.4byte	0xb8
 5547 0c48 01       		.byte	0x1
 5548 0c49 01       		.byte	0x1
 5549 0c4a 03       		.byte	0x3
 5550 0c4b 09       		.byte	0x9
 5551 0c4c 00       		.byte	0
 5552 0c4d 02       		.uleb128 0x2
 5553 0c4e 130A0000 		.4byte	.LASF264
 5554 0c52 12       		.byte	0x12
 5555 0c53 26       		.byte	0x26
 5556 0c54 CC0B0000 		.4byte	0xbcc
 5557 0c58 05       		.uleb128 0x5
 5558 0c59 10       		.byte	0x10
 5559 0c5a 13       		.byte	0x13
 5560 0c5b 1C       		.byte	0x1c
 5561 0c5c C70C0000 		.4byte	0xcc7
 5562 0c60 09       		.uleb128 0x9
 5563 0c61 24250000 		.4byte	.LASF87
 5564 0c65 13       		.byte	0x13
 5565 0c66 1D       		.byte	0x1d
 5566 0c67 1E040000 		.4byte	0x41e
 5567 0c6b 00       		.byte	0
 5568 0c6c 09       		.uleb128 0x9
 5569 0c6d EF180000 		.4byte	.LASF258
 5570 0c71 13       		.byte	0x13
 5571 0c72 1E       		.byte	0x1e
 5572 0c73 01010000 		.4byte	0x101
 5573 0c77 02       		.byte	0x2
 5574 0c78 09       		.uleb128 0x9
 5575 0c79 AB140000 		.4byte	.LASF265
 5576 0c7d 13       		.byte	0x13
 5577 0c7e 1F       		.byte	0x1f
 5578 0c7f CE000000 		.4byte	0xce
 5579 0c83 04       		.byte	0x4
 5580 0c84 09       		.uleb128 0x9
 5581 0c85 2C090000 		.4byte	.LASF266
 5582 0c89 13       		.byte	0x13
 5583 0c8a 20       		.byte	0x20
 5584 0c8b CE000000 		.4byte	0xce
ARM GAS  C:\Users\haske\AppData\Local\Temp\ccmHbbn5.s 			page 130


 5585 0c8f 06       		.byte	0x6
 5586 0c90 09       		.uleb128 0x9
 5587 0c91 26120000 		.4byte	.LASF267
 5588 0c95 13       		.byte	0x13
 5589 0c96 21       		.byte	0x21
 5590 0c97 73030000 		.4byte	0x373
 5591 0c9b 08       		.byte	0x8
 5592 0c9c 06       		.uleb128 0x6
 5593 0c9d 6F706100 		.ascii	"opa\000"
 5594 0ca1 13       		.byte	0x13
 5595 0ca2 22       		.byte	0x22
 5596 0ca3 29040000 		.4byte	0x429
 5597 0ca7 0C       		.byte	0xc
 5598 0ca8 0B       		.uleb128 0xb
 5599 0ca9 21050000 		.4byte	.LASF212
 5600 0cad 13       		.byte	0x13
 5601 0cae 23       		.byte	0x23
 5602 0caf 55040000 		.4byte	0x455
 5603 0cb3 01       		.byte	0x1
 5604 0cb4 02       		.byte	0x2
 5605 0cb5 06       		.byte	0x6
 5606 0cb6 0D       		.byte	0xd
 5607 0cb7 0B       		.uleb128 0xb
 5608 0cb8 C9030000 		.4byte	.LASF268
 5609 0cbc 13       		.byte	0x13
 5610 0cbd 24       		.byte	0x24
 5611 0cbe B8000000 		.4byte	0xb8
 5612 0cc2 01       		.byte	0x1
 5613 0cc3 01       		.byte	0x1
 5614 0cc4 05       		.byte	0x5
 5615 0cc5 0D       		.byte	0xd
 5616 0cc6 00       		.byte	0
 5617 0cc7 02       		.uleb128 0x2
 5618 0cc8 28260000 		.4byte	.LASF269
 5619 0ccc 13       		.byte	0x13
 5620 0ccd 25       		.byte	0x25
 5621 0cce 580C0000 		.4byte	0xc58
 5622 0cd2 0D       		.uleb128 0xd
 5623 0cd3 04       		.byte	0x4
 5624 0cd4 29040000 		.4byte	0x429
 5625 0cd8 0D       		.uleb128 0xd
 5626 0cd9 04       		.byte	0x4
 5627 0cda 29010000 		.4byte	0x129
 5628 0cde 07       		.uleb128 0x7
 5629 0cdf 01       		.byte	0x1
 5630 0ce0 42000000 		.4byte	0x42
 5631 0ce4 14       		.byte	0x14
 5632 0ce5 1C       		.byte	0x1c
 5633 0ce6 FD0C0000 		.4byte	0xcfd
 5634 0cea 08       		.uleb128 0x8
 5635 0ceb 9F190000 		.4byte	.LASF270
 5636 0cef 00       		.byte	0
 5637 0cf0 08       		.uleb128 0x8
 5638 0cf1 DE020000 		.4byte	.LASF271
 5639 0cf5 01       		.byte	0x1
 5640 0cf6 08       		.uleb128 0x8
 5641 0cf7 6B200000 		.4byte	.LASF272
ARM GAS  C:\Users\haske\AppData\Local\Temp\ccmHbbn5.s 			page 131


 5642 0cfb 02       		.byte	0x2
 5643 0cfc 00       		.byte	0
 5644 0cfd 02       		.uleb128 0x2
 5645 0cfe 190C0000 		.4byte	.LASF273
 5646 0d02 14       		.byte	0x14
 5647 0d03 20       		.byte	0x20
 5648 0d04 DE0C0000 		.4byte	0xcde
 5649 0d08 05       		.uleb128 0x5
 5650 0d09 10       		.byte	0x10
 5651 0d0a 15       		.byte	0x15
 5652 0d0b 33       		.byte	0x33
 5653 0d0c 410D0000 		.4byte	0xd41
 5654 0d10 09       		.uleb128 0x9
 5655 0d11 A21B0000 		.4byte	.LASF274
 5656 0d15 15       		.byte	0x15
 5657 0d16 34       		.byte	0x34
 5658 0d17 410D0000 		.4byte	0xd41
 5659 0d1b 00       		.byte	0
 5660 0d1c 09       		.uleb128 0x9
 5661 0d1d 20160000 		.4byte	.LASF275
 5662 0d21 15       		.byte	0x15
 5663 0d22 35       		.byte	0x35
 5664 0d23 4C0D0000 		.4byte	0xd4c
 5665 0d27 04       		.byte	0x4
 5666 0d28 06       		.uleb128 0x6
 5667 0d29 62756600 		.ascii	"buf\000"
 5668 0d2d 15       		.byte	0x15
 5669 0d2e 36       		.byte	0x36
 5670 0d2f 7A030000 		.4byte	0x37a
 5671 0d33 08       		.byte	0x8
 5672 0d34 09       		.uleb128 0x9
 5673 0d35 C1270000 		.4byte	.LASF276
 5674 0d39 15       		.byte	0x15
 5675 0d3a 37       		.byte	0x37
 5676 0d3b 3B030000 		.4byte	0x33b
 5677 0d3f 0C       		.byte	0xc
 5678 0d40 00       		.byte	0
 5679 0d41 0D       		.uleb128 0xd
 5680 0d42 04       		.byte	0x4
 5681 0d43 470D0000 		.4byte	0xd47
 5682 0d47 0E       		.uleb128 0xe
 5683 0d48 69010000 		.4byte	0x169
 5684 0d4c 0D       		.uleb128 0xd
 5685 0d4d 04       		.byte	0x4
 5686 0d4e 69010000 		.4byte	0x169
 5687 0d52 0C       		.uleb128 0xc
 5688 0d53 B01C0000 		.4byte	.LASF277
 5689 0d57 28       		.byte	0x28
 5690 0d58 15       		.byte	0x15
 5691 0d59 2D       		.byte	0x2d
 5692 0d5a A70D0000 		.4byte	0xda7
 5693 0d5e 09       		.uleb128 0x9
 5694 0d5f 2B1C0000 		.4byte	.LASF278
 5695 0d63 15       		.byte	0x15
 5696 0d64 2E       		.byte	0x2e
 5697 0d65 69010000 		.4byte	0x169
 5698 0d69 00       		.byte	0
ARM GAS  C:\Users\haske\AppData\Local\Temp\ccmHbbn5.s 			page 132


 5699 0d6a 09       		.uleb128 0x9
 5700 0d6b 940A0000 		.4byte	.LASF279
 5701 0d6f 15       		.byte	0x15
 5702 0d70 2F       		.byte	0x2f
 5703 0d71 69010000 		.4byte	0x169
 5704 0d75 08       		.byte	0x8
 5705 0d76 09       		.uleb128 0x9
 5706 0d77 081D0000 		.4byte	.LASF280
 5707 0d7b 15       		.byte	0x15
 5708 0d7c 30       		.byte	0x30
 5709 0d7d 01010000 		.4byte	0x101
 5710 0d81 10       		.byte	0x10
 5711 0d82 09       		.uleb128 0x9
 5712 0d83 92210000 		.4byte	.LASF281
 5713 0d87 15       		.byte	0x15
 5714 0d88 31       		.byte	0x31
 5715 0d89 01010000 		.4byte	0x101
 5716 0d8d 12       		.byte	0x12
 5717 0d8e 06       		.uleb128 0x6
 5718 0d8f 62756600 		.ascii	"buf\000"
 5719 0d93 15       		.byte	0x15
 5720 0d94 32       		.byte	0x32
 5721 0d95 7A030000 		.4byte	0x37a
 5722 0d99 14       		.byte	0x14
 5723 0d9a 09       		.uleb128 0x9
 5724 0d9b 380B0000 		.4byte	.LASF282
 5725 0d9f 15       		.byte	0x15
 5726 0da0 38       		.byte	0x38
 5727 0da1 080D0000 		.4byte	0xd08
 5728 0da5 18       		.byte	0x18
 5729 0da6 00       		.byte	0
 5730 0da7 02       		.uleb128 0x2
 5731 0da8 10250000 		.4byte	.LASF283
 5732 0dac 15       		.byte	0x15
 5733 0dad 39       		.byte	0x39
 5734 0dae 520D0000 		.4byte	0xd52
 5735 0db2 0C       		.uleb128 0xc
 5736 0db3 EE030000 		.4byte	.LASF284
 5737 0db7 54       		.byte	0x54
 5738 0db8 15       		.byte	0x15
 5739 0db9 3B       		.byte	0x3b
 5740 0dba BB0E0000 		.4byte	0xebb
 5741 0dbe 06       		.uleb128 0x6
 5742 0dbf 62756600 		.ascii	"buf\000"
 5743 0dc3 15       		.byte	0x15
 5744 0dc4 3F       		.byte	0x3f
 5745 0dc5 7A030000 		.4byte	0x37a
 5746 0dc9 00       		.byte	0
 5747 0dca 09       		.uleb128 0x9
 5748 0dcb 20160000 		.4byte	.LASF275
 5749 0dcf 15       		.byte	0x15
 5750 0dd0 44       		.byte	0x44
 5751 0dd1 4C0D0000 		.4byte	0xd4c
 5752 0dd5 04       		.byte	0x4
 5753 0dd6 09       		.uleb128 0x9
 5754 0dd7 A21B0000 		.4byte	.LASF274
 5755 0ddb 15       		.byte	0x15
ARM GAS  C:\Users\haske\AppData\Local\Temp\ccmHbbn5.s 			page 133


 5756 0ddc 49       		.byte	0x49
 5757 0ddd 410D0000 		.4byte	0xd41
 5758 0de1 08       		.byte	0x8
 5759 0de2 09       		.uleb128 0x9
 5760 0de3 B1030000 		.4byte	.LASF285
 5761 0de7 15       		.byte	0x15
 5762 0de8 4B       		.byte	0x4b
 5763 0de9 CC0E0000 		.4byte	0xecc
 5764 0ded 0C       		.byte	0xc
 5765 0dee 09       		.uleb128 0x9
 5766 0def 6F030000 		.4byte	.LASF286
 5767 0df3 15       		.byte	0x15
 5768 0df4 4D       		.byte	0x4d
 5769 0df5 F20E0000 		.4byte	0xef2
 5770 0df9 10       		.byte	0x10
 5771 0dfa 09       		.uleb128 0x9
 5772 0dfb 97150000 		.4byte	.LASF287
 5773 0dff 15       		.byte	0x15
 5774 0e00 4F       		.byte	0x4f
 5775 0e01 320F0000 		.4byte	0xf32
 5776 0e05 14       		.byte	0x14
 5777 0e06 09       		.uleb128 0x9
 5778 0e07 35170000 		.4byte	.LASF288
 5779 0e0b 15       		.byte	0x15
 5780 0e0c 52       		.byte	0x52
 5781 0e0d 620F0000 		.4byte	0xf62
 5782 0e11 18       		.byte	0x18
 5783 0e12 09       		.uleb128 0x9
 5784 0e13 682A0000 		.4byte	.LASF289
 5785 0e17 15       		.byte	0x15
 5786 0e18 55       		.byte	0x55
 5787 0e19 860F0000 		.4byte	0xf86
 5788 0e1d 1C       		.byte	0x1c
 5789 0e1e 09       		.uleb128 0x9
 5790 0e1f E0220000 		.4byte	.LASF290
 5791 0e23 15       		.byte	0x15
 5792 0e24 58       		.byte	0x58
 5793 0e25 B10F0000 		.4byte	0xfb1
 5794 0e29 20       		.byte	0x20
 5795 0e2a 09       		.uleb128 0x9
 5796 0e2b AD080000 		.4byte	.LASF291
 5797 0e2f 15       		.byte	0x15
 5798 0e30 5C       		.byte	0x5c
 5799 0e31 DC0F0000 		.4byte	0xfdc
 5800 0e35 24       		.byte	0x24
 5801 0e36 09       		.uleb128 0x9
 5802 0e37 A52A0000 		.4byte	.LASF292
 5803 0e3b 15       		.byte	0x15
 5804 0e3c 60       		.byte	0x60
 5805 0e3d FC0F0000 		.4byte	0xffc
 5806 0e41 28       		.byte	0x28
 5807 0e42 09       		.uleb128 0x9
 5808 0e43 BA0C0000 		.4byte	.LASF293
 5809 0e47 15       		.byte	0x15
 5810 0e48 71       		.byte	0x71
 5811 0e49 3A100000 		.4byte	0x103a
 5812 0e4d 2C       		.byte	0x2c
ARM GAS  C:\Users\haske\AppData\Local\Temp\ccmHbbn5.s 			page 134


 5813 0e4e 09       		.uleb128 0x9
 5814 0e4f 6D010000 		.4byte	.LASF294
 5815 0e53 15       		.byte	0x15
 5816 0e54 78       		.byte	0x78
 5817 0e55 F20E0000 		.4byte	0xef2
 5818 0e59 30       		.byte	0x30
 5819 0e5a 09       		.uleb128 0x9
 5820 0e5b 23200000 		.4byte	.LASF295
 5821 0e5f 15       		.byte	0x15
 5822 0e60 7D       		.byte	0x7d
 5823 0e61 CC0E0000 		.4byte	0xecc
 5824 0e65 34       		.byte	0x34
 5825 0e66 09       		.uleb128 0x9
 5826 0e67 18080000 		.4byte	.LASF296
 5827 0e6b 15       		.byte	0x15
 5828 0e6c 8D       		.byte	0x8d
 5829 0e6d 69100000 		.4byte	0x1069
 5830 0e71 38       		.byte	0x38
 5831 0e72 09       		.uleb128 0x9
 5832 0e73 DE100000 		.4byte	.LASF297
 5833 0e77 15       		.byte	0x15
 5834 0e78 99       		.byte	0x99
 5835 0e79 8E100000 		.4byte	0x108e
 5836 0e7d 3C       		.byte	0x3c
 5837 0e7e 09       		.uleb128 0x9
 5838 0e7f A1240000 		.4byte	.LASF298
 5839 0e83 15       		.byte	0x15
 5840 0e84 A3       		.byte	0xa3
 5841 0e85 A9100000 		.4byte	0x10a9
 5842 0e89 40       		.byte	0x40
 5843 0e8a 09       		.uleb128 0x9
 5844 0e8b 5C250000 		.4byte	.LASF299
 5845 0e8f 15       		.byte	0x15
 5846 0e90 AC       		.byte	0xac
 5847 0e91 C4100000 		.4byte	0x10c4
 5848 0e95 44       		.byte	0x44
 5849 0e96 09       		.uleb128 0x9
 5850 0e97 E0140000 		.4byte	.LASF300
 5851 0e9b 15       		.byte	0x15
 5852 0e9c B5       		.byte	0xb5
 5853 0e9d E0100000 		.4byte	0x10e0
 5854 0ea1 48       		.byte	0x48
 5855 0ea2 09       		.uleb128 0x9
 5856 0ea3 910C0000 		.4byte	.LASF301
 5857 0ea7 15       		.byte	0x15
 5858 0ea8 BA       		.byte	0xba
 5859 0ea9 EF000000 		.4byte	0xef
 5860 0ead 4C       		.byte	0x4c
 5861 0eae 09       		.uleb128 0x9
 5862 0eaf 312C0000 		.4byte	.LASF64
 5863 0eb3 15       		.byte	0x15
 5864 0eb4 BD       		.byte	0xbd
 5865 0eb5 7A030000 		.4byte	0x37a
 5866 0eb9 50       		.byte	0x50
 5867 0eba 00       		.byte	0
 5868 0ebb 1F       		.uleb128 0x1f
 5869 0ebc C60E0000 		.4byte	0xec6
ARM GAS  C:\Users\haske\AppData\Local\Temp\ccmHbbn5.s 			page 135


 5870 0ec0 10       		.uleb128 0x10
 5871 0ec1 C60E0000 		.4byte	0xec6
 5872 0ec5 00       		.byte	0
 5873 0ec6 0D       		.uleb128 0xd
 5874 0ec7 04       		.byte	0x4
 5875 0ec8 B20D0000 		.4byte	0xdb2
 5876 0ecc 0D       		.uleb128 0xd
 5877 0ecd 04       		.byte	0x4
 5878 0ece BB0E0000 		.4byte	0xebb
 5879 0ed2 1F       		.uleb128 0x1f
 5880 0ed3 E70E0000 		.4byte	0xee7
 5881 0ed7 10       		.uleb128 0x10
 5882 0ed8 C60E0000 		.4byte	0xec6
 5883 0edc 10       		.uleb128 0x10
 5884 0edd E70E0000 		.4byte	0xee7
 5885 0ee1 10       		.uleb128 0x10
 5886 0ee2 410D0000 		.4byte	0xd41
 5887 0ee6 00       		.byte	0
 5888 0ee7 0D       		.uleb128 0xd
 5889 0ee8 04       		.byte	0x4
 5890 0ee9 ED0E0000 		.4byte	0xeed
 5891 0eed 0E       		.uleb128 0xe
 5892 0eee 560A0000 		.4byte	0xa56
 5893 0ef2 0D       		.uleb128 0xd
 5894 0ef3 04       		.byte	0x4
 5895 0ef4 D20E0000 		.4byte	0xed2
 5896 0ef8 1F       		.uleb128 0x1f
 5897 0ef9 1C0F0000 		.4byte	0xf1c
 5898 0efd 10       		.uleb128 0x10
 5899 0efe C60E0000 		.4byte	0xec6
 5900 0f02 10       		.uleb128 0x10
 5901 0f03 1C0F0000 		.4byte	0xf1c
 5902 0f07 10       		.uleb128 0x10
 5903 0f08 270F0000 		.4byte	0xf27
 5904 0f0c 10       		.uleb128 0x10
 5905 0f0d CE000000 		.4byte	0xce
 5906 0f11 10       		.uleb128 0x10
 5907 0f12 CE000000 		.4byte	0xce
 5908 0f16 10       		.uleb128 0x10
 5909 0f17 CE000000 		.4byte	0xce
 5910 0f1b 00       		.byte	0
 5911 0f1c 0D       		.uleb128 0xd
 5912 0f1d 04       		.byte	0x4
 5913 0f1e 220F0000 		.4byte	0xf22
 5914 0f22 0E       		.uleb128 0xe
 5915 0f23 C70C0000 		.4byte	0xcc7
 5916 0f27 0D       		.uleb128 0xd
 5917 0f28 04       		.byte	0x4
 5918 0f29 2D0F0000 		.4byte	0xf2d
 5919 0f2d 0E       		.uleb128 0xe
 5920 0f2e 29010000 		.4byte	0x129
 5921 0f32 0D       		.uleb128 0xd
 5922 0f33 04       		.byte	0x4
 5923 0f34 F80E0000 		.4byte	0xef8
 5924 0f38 1F       		.uleb128 0x1f
 5925 0f39 570F0000 		.4byte	0xf57
 5926 0f3d 10       		.uleb128 0x10
ARM GAS  C:\Users\haske\AppData\Local\Temp\ccmHbbn5.s 			page 136


 5927 0f3e C60E0000 		.4byte	0xec6
 5928 0f42 10       		.uleb128 0x10
 5929 0f43 570F0000 		.4byte	0xf57
 5930 0f47 10       		.uleb128 0x10
 5931 0f48 410D0000 		.4byte	0xd41
 5932 0f4c 10       		.uleb128 0x10
 5933 0f4d 62030000 		.4byte	0x362
 5934 0f51 10       		.uleb128 0x10
 5935 0f52 31080000 		.4byte	0x831
 5936 0f56 00       		.byte	0
 5937 0f57 0D       		.uleb128 0xd
 5938 0f58 04       		.byte	0x4
 5939 0f59 5D0F0000 		.4byte	0xf5d
 5940 0f5d 0E       		.uleb128 0xe
 5941 0f5e C10B0000 		.4byte	0xbc1
 5942 0f62 0D       		.uleb128 0xd
 5943 0f63 04       		.byte	0x4
 5944 0f64 380F0000 		.4byte	0xf38
 5945 0f68 0F       		.uleb128 0xf
 5946 0f69 A0030000 		.4byte	0x3a0
 5947 0f6d 860F0000 		.4byte	0xf86
 5948 0f71 10       		.uleb128 0x10
 5949 0f72 C60E0000 		.4byte	0xec6
 5950 0f76 10       		.uleb128 0x10
 5951 0f77 570F0000 		.4byte	0xf57
 5952 0f7b 10       		.uleb128 0x10
 5953 0f7c 410D0000 		.4byte	0xd41
 5954 0f80 10       		.uleb128 0x10
 5955 0f81 73030000 		.4byte	0x373
 5956 0f85 00       		.byte	0
 5957 0f86 0D       		.uleb128 0xd
 5958 0f87 04       		.byte	0x4
 5959 0f88 680F0000 		.4byte	0xf68
 5960 0f8c 1F       		.uleb128 0x1f
 5961 0f8d A60F0000 		.4byte	0xfa6
 5962 0f91 10       		.uleb128 0x10
 5963 0f92 C60E0000 		.4byte	0xec6
 5964 0f96 10       		.uleb128 0x10
 5965 0f97 A60F0000 		.4byte	0xfa6
 5966 0f9b 10       		.uleb128 0x10
 5967 0f9c 270F0000 		.4byte	0xf27
 5968 0fa0 10       		.uleb128 0x10
 5969 0fa1 E4000000 		.4byte	0xe4
 5970 0fa5 00       		.byte	0
 5971 0fa6 0D       		.uleb128 0xd
 5972 0fa7 04       		.byte	0x4
 5973 0fa8 AC0F0000 		.4byte	0xfac
 5974 0fac 0E       		.uleb128 0xe
 5975 0fad 3B0B0000 		.4byte	0xb3b
 5976 0fb1 0D       		.uleb128 0xd
 5977 0fb2 04       		.byte	0x4
 5978 0fb3 8C0F0000 		.4byte	0xf8c
 5979 0fb7 1F       		.uleb128 0x1f
 5980 0fb8 D10F0000 		.4byte	0xfd1
 5981 0fbc 10       		.uleb128 0x10
 5982 0fbd C60E0000 		.4byte	0xec6
 5983 0fc1 10       		.uleb128 0x10
ARM GAS  C:\Users\haske\AppData\Local\Temp\ccmHbbn5.s 			page 137


 5984 0fc2 D10F0000 		.4byte	0xfd1
 5985 0fc6 10       		.uleb128 0x10
 5986 0fc7 270F0000 		.4byte	0xf27
 5987 0fcb 10       		.uleb128 0x10
 5988 0fcc 270F0000 		.4byte	0xf27
 5989 0fd0 00       		.byte	0
 5990 0fd1 0D       		.uleb128 0xd
 5991 0fd2 04       		.byte	0x4
 5992 0fd3 D70F0000 		.4byte	0xfd7
 5993 0fd7 0E       		.uleb128 0xe
 5994 0fd8 4D0C0000 		.4byte	0xc4d
 5995 0fdc 0D       		.uleb128 0xd
 5996 0fdd 04       		.byte	0x4
 5997 0fde B70F0000 		.4byte	0xfb7
 5998 0fe2 1F       		.uleb128 0x1f
 5999 0fe3 FC0F0000 		.4byte	0xffc
 6000 0fe7 10       		.uleb128 0x10
 6001 0fe8 C60E0000 		.4byte	0xec6
 6002 0fec 10       		.uleb128 0x10
 6003 0fed E70E0000 		.4byte	0xee7
 6004 0ff1 10       		.uleb128 0x10
 6005 0ff2 270F0000 		.4byte	0xf27
 6006 0ff6 10       		.uleb128 0x10
 6007 0ff7 CE000000 		.4byte	0xce
 6008 0ffb 00       		.byte	0
 6009 0ffc 0D       		.uleb128 0xd
 6010 0ffd 04       		.byte	0x4
 6011 0ffe E20F0000 		.4byte	0xfe2
 6012 1002 1F       		.uleb128 0x1f
 6013 1003 3A100000 		.4byte	0x103a
 6014 1007 10       		.uleb128 0x10
 6015 1008 C60E0000 		.4byte	0xec6
 6016 100c 10       		.uleb128 0x10
 6017 100d 410D0000 		.4byte	0xd41
 6018 1011 10       		.uleb128 0x10
 6019 1012 73030000 		.4byte	0x373
 6020 1016 10       		.uleb128 0x10
 6021 1017 01010000 		.4byte	0x101
 6022 101b 10       		.uleb128 0x10
 6023 101c 01010000 		.4byte	0x101
 6024 1020 10       		.uleb128 0x10
 6025 1021 01010000 		.4byte	0x101
 6026 1025 10       		.uleb128 0x10
 6027 1026 570F0000 		.4byte	0xf57
 6028 102a 10       		.uleb128 0x10
 6029 102b 31080000 		.4byte	0x831
 6030 102f 10       		.uleb128 0x10
 6031 1030 09090000 		.4byte	0x909
 6032 1034 10       		.uleb128 0x10
 6033 1035 D20C0000 		.4byte	0xcd2
 6034 1039 00       		.byte	0
 6035 103a 0D       		.uleb128 0xd
 6036 103b 04       		.byte	0x4
 6037 103c 02100000 		.4byte	0x1002
 6038 1040 1F       		.uleb128 0x1f
 6039 1041 69100000 		.4byte	0x1069
 6040 1045 10       		.uleb128 0x10
ARM GAS  C:\Users\haske\AppData\Local\Temp\ccmHbbn5.s 			page 138


 6041 1046 C60E0000 		.4byte	0xec6
 6042 104a 10       		.uleb128 0x10
 6043 104b 7A030000 		.4byte	0x37a
 6044 104f 10       		.uleb128 0x10
 6045 1050 01010000 		.4byte	0x101
 6046 1054 10       		.uleb128 0x10
 6047 1055 410D0000 		.4byte	0xd41
 6048 1059 10       		.uleb128 0x10
 6049 105a 7A030000 		.4byte	0x37a
 6050 105e 10       		.uleb128 0x10
 6051 105f 01010000 		.4byte	0x101
 6052 1063 10       		.uleb128 0x10
 6053 1064 410D0000 		.4byte	0xd41
 6054 1068 00       		.byte	0
 6055 1069 0D       		.uleb128 0xd
 6056 106a 04       		.byte	0x4
 6057 106b 40100000 		.4byte	0x1040
 6058 106f 0F       		.uleb128 0xf
 6059 1070 88100000 		.4byte	0x1088
 6060 1074 88100000 		.4byte	0x1088
 6061 1078 10       		.uleb128 0x10
 6062 1079 C60E0000 		.4byte	0xec6
 6063 107d 10       		.uleb128 0x10
 6064 107e 88100000 		.4byte	0x1088
 6065 1082 10       		.uleb128 0x10
 6066 1083 FD0C0000 		.4byte	0xcfd
 6067 1087 00       		.byte	0
 6068 1088 0D       		.uleb128 0xd
 6069 1089 04       		.byte	0x4
 6070 108a 520D0000 		.4byte	0xd52
 6071 108e 0D       		.uleb128 0xd
 6072 108f 04       		.byte	0x4
 6073 1090 6F100000 		.4byte	0x106f
 6074 1094 1F       		.uleb128 0x1f
 6075 1095 A9100000 		.4byte	0x10a9
 6076 1099 10       		.uleb128 0x10
 6077 109a C60E0000 		.4byte	0xec6
 6078 109e 10       		.uleb128 0x10
 6079 109f 88100000 		.4byte	0x1088
 6080 10a3 10       		.uleb128 0x10
 6081 10a4 FD0C0000 		.4byte	0xcfd
 6082 10a8 00       		.byte	0
 6083 10a9 0D       		.uleb128 0xd
 6084 10aa 04       		.byte	0x4
 6085 10ab 94100000 		.4byte	0x1094
 6086 10af 1F       		.uleb128 0x1f
 6087 10b0 C4100000 		.4byte	0x10c4
 6088 10b4 10       		.uleb128 0x10
 6089 10b5 C60E0000 		.4byte	0xec6
 6090 10b9 10       		.uleb128 0x10
 6091 10ba 88100000 		.4byte	0x1088
 6092 10be 10       		.uleb128 0x10
 6093 10bf 570F0000 		.4byte	0xf57
 6094 10c3 00       		.byte	0
 6095 10c4 0D       		.uleb128 0xd
 6096 10c5 04       		.byte	0x4
 6097 10c6 AF100000 		.4byte	0x10af
ARM GAS  C:\Users\haske\AppData\Local\Temp\ccmHbbn5.s 			page 139


 6098 10ca 1F       		.uleb128 0x1f
 6099 10cb DA100000 		.4byte	0x10da
 6100 10cf 10       		.uleb128 0x10
 6101 10d0 C60E0000 		.4byte	0xec6
 6102 10d4 10       		.uleb128 0x10
 6103 10d5 DA100000 		.4byte	0x10da
 6104 10d9 00       		.byte	0
 6105 10da 0D       		.uleb128 0xd
 6106 10db 04       		.byte	0x4
 6107 10dc A70D0000 		.4byte	0xda7
 6108 10e0 0D       		.uleb128 0xd
 6109 10e1 04       		.byte	0x4
 6110 10e2 CA100000 		.4byte	0x10ca
 6111 10e6 02       		.uleb128 0x2
 6112 10e7 D80D0000 		.4byte	.LASF302
 6113 10eb 15       		.byte	0x15
 6114 10ec C0       		.byte	0xc0
 6115 10ed B20D0000 		.4byte	0xdb2
 6116 10f1 02       		.uleb128 0x2
 6117 10f2 3A000000 		.4byte	.LASF303
 6118 10f6 16       		.byte	0x16
 6119 10f7 1D       		.byte	0x1d
 6120 10f8 B8000000 		.4byte	0xb8
 6121 10fc 05       		.uleb128 0x5
 6122 10fd 0C       		.byte	0xc
 6123 10fe 16       		.byte	0x16
 6124 10ff 20       		.byte	0x20
 6125 1100 29110000 		.4byte	0x1129
 6126 1104 09       		.uleb128 0x9
 6127 1105 342E0000 		.4byte	.LASF304
 6128 1109 16       		.byte	0x16
 6129 110a 21       		.byte	0x21
 6130 110b E4000000 		.4byte	0xe4
 6131 110f 00       		.byte	0
 6132 1110 09       		.uleb128 0x9
 6133 1111 BD070000 		.4byte	.LASF305
 6134 1115 16       		.byte	0x16
 6135 1116 22       		.byte	0x22
 6136 1117 29110000 		.4byte	0x1129
 6137 111b 04       		.byte	0x4
 6138 111c 09       		.uleb128 0x9
 6139 111d F1000000 		.4byte	.LASF306
 6140 1121 16       		.byte	0x16
 6141 1122 23       		.byte	0x23
 6142 1123 29110000 		.4byte	0x1129
 6143 1127 08       		.byte	0x8
 6144 1128 00       		.byte	0
 6145 1129 0D       		.uleb128 0xd
 6146 112a 04       		.byte	0x4
 6147 112b F1100000 		.4byte	0x10f1
 6148 112f 02       		.uleb128 0x2
 6149 1130 CB260000 		.4byte	.LASF307
 6150 1134 16       		.byte	0x16
 6151 1135 24       		.byte	0x24
 6152 1136 FC100000 		.4byte	0x10fc
 6153 113a 02       		.uleb128 0x2
 6154 113b 46170000 		.4byte	.LASF308
ARM GAS  C:\Users\haske\AppData\Local\Temp\ccmHbbn5.s 			page 140


 6155 113f 17       		.byte	0x17
 6156 1140 27       		.byte	0x27
 6157 1141 45110000 		.4byte	0x1145
 6158 1145 0D       		.uleb128 0xd
 6159 1146 04       		.byte	0x4
 6160 1147 4B110000 		.4byte	0x114b
 6161 114b 1F       		.uleb128 0x1f
 6162 114c 56110000 		.4byte	0x1156
 6163 1150 10       		.uleb128 0x10
 6164 1151 56110000 		.4byte	0x1156
 6165 1155 00       		.byte	0
 6166 1156 0D       		.uleb128 0xd
 6167 1157 04       		.byte	0x4
 6168 1158 5C110000 		.4byte	0x115c
 6169 115c 0C       		.uleb128 0xc
 6170 115d 79030000 		.4byte	.LASF309
 6171 1161 18       		.byte	0x18
 6172 1162 17       		.byte	0x17
 6173 1163 2C       		.byte	0x2c
 6174 1164 B4110000 		.4byte	0x11b4
 6175 1168 09       		.uleb128 0x9
 6176 1169 7F240000 		.4byte	.LASF310
 6177 116d 17       		.byte	0x17
 6178 116e 2D       		.byte	0x2d
 6179 116f E4000000 		.4byte	0xe4
 6180 1173 00       		.byte	0
 6181 1174 09       		.uleb128 0x9
 6182 1175 90220000 		.4byte	.LASF311
 6183 1179 17       		.byte	0x17
 6184 117a 2E       		.byte	0x2e
 6185 117b E4000000 		.4byte	0xe4
 6186 117f 04       		.byte	0x4
 6187 1180 09       		.uleb128 0x9
 6188 1181 98200000 		.4byte	.LASF312
 6189 1185 17       		.byte	0x17
 6190 1186 2F       		.byte	0x2f
 6191 1187 3A110000 		.4byte	0x113a
 6192 118b 08       		.byte	0x8
 6193 118c 09       		.uleb128 0x9
 6194 118d 312C0000 		.4byte	.LASF64
 6195 1191 17       		.byte	0x17
 6196 1192 30       		.byte	0x30
 6197 1193 7A030000 		.4byte	0x37a
 6198 1197 0C       		.byte	0xc
 6199 1198 09       		.uleb128 0x9
 6200 1199 54030000 		.4byte	.LASF313
 6201 119d 17       		.byte	0x17
 6202 119e 31       		.byte	0x31
 6203 119f D9000000 		.4byte	0xd9
 6204 11a3 10       		.byte	0x10
 6205 11a4 0B       		.uleb128 0xb
 6206 11a5 771B0000 		.4byte	.LASF314
 6207 11a9 17       		.byte	0x17
 6208 11aa 32       		.byte	0x32
 6209 11ab E4000000 		.4byte	0xe4
 6210 11af 04       		.byte	0x4
 6211 11b0 01       		.byte	0x1
ARM GAS  C:\Users\haske\AppData\Local\Temp\ccmHbbn5.s 			page 141


 6212 11b1 1F       		.byte	0x1f
 6213 11b2 14       		.byte	0x14
 6214 11b3 00       		.byte	0
 6215 11b4 02       		.uleb128 0x2
 6216 11b5 AA0F0000 		.4byte	.LASF315
 6217 11b9 17       		.byte	0x17
 6218 11ba 33       		.byte	0x33
 6219 11bb 5C110000 		.4byte	0x115c
 6220 11bf 0C       		.uleb128 0xc
 6221 11c0 0C160000 		.4byte	.LASF316
 6222 11c4 1C       		.byte	0x1c
 6223 11c5 18       		.byte	0x18
 6224 11c6 32       		.byte	0x32
 6225 11c7 32120000 		.4byte	0x1232
 6226 11cb 09       		.uleb128 0x9
 6227 11cc 53190000 		.4byte	.LASF317
 6228 11d0 18       		.byte	0x18
 6229 11d1 33       		.byte	0x33
 6230 11d2 7A030000 		.4byte	0x37a
 6231 11d6 00       		.byte	0
 6232 11d7 09       		.uleb128 0x9
 6233 11d8 58190000 		.4byte	.LASF318
 6234 11dc 18       		.byte	0x18
 6235 11dd 34       		.byte	0x34
 6236 11de 7A030000 		.4byte	0x37a
 6237 11e2 04       		.byte	0x4
 6238 11e3 09       		.uleb128 0x9
 6239 11e4 8F020000 		.4byte	.LASF319
 6240 11e8 18       		.byte	0x18
 6241 11e9 37       		.byte	0x37
 6242 11ea 7A030000 		.4byte	0x37a
 6243 11ee 08       		.byte	0x8
 6244 11ef 09       		.uleb128 0x9
 6245 11f0 8D210000 		.4byte	.LASF320
 6246 11f4 18       		.byte	0x18
 6247 11f5 38       		.byte	0x38
 6248 11f6 E4000000 		.4byte	0xe4
 6249 11fa 0C       		.byte	0xc
 6250 11fb 09       		.uleb128 0x9
 6251 11fc F50E0000 		.4byte	.LASF321
 6252 1200 18       		.byte	0x18
 6253 1201 3A       		.byte	0x3a
 6254 1202 32120000 		.4byte	0x1232
 6255 1206 10       		.byte	0x10
 6256 1207 09       		.uleb128 0x9
 6257 1208 FA0A0000 		.4byte	.LASF322
 6258 120c 18       		.byte	0x18
 6259 120d 3C       		.byte	0x3c
 6260 120e 32120000 		.4byte	0x1232
 6261 1212 14       		.byte	0x14
 6262 1213 0B       		.uleb128 0xb
 6263 1214 02080000 		.4byte	.LASF323
 6264 1218 18       		.byte	0x18
 6265 1219 3D       		.byte	0x3d
 6266 121a 37120000 		.4byte	0x1237
 6267 121e 04       		.byte	0x4
 6268 121f 01       		.byte	0x1
ARM GAS  C:\Users\haske\AppData\Local\Temp\ccmHbbn5.s 			page 142


 6269 1220 1F       		.byte	0x1f
 6270 1221 18       		.byte	0x18
 6271 1222 0B       		.uleb128 0xb
 6272 1223 1A150000 		.4byte	.LASF324
 6273 1227 18       		.byte	0x18
 6274 1228 3E       		.byte	0x3e
 6275 1229 37120000 		.4byte	0x1237
 6276 122d 04       		.byte	0x4
 6277 122e 01       		.byte	0x1
 6278 122f 1E       		.byte	0x1e
 6279 1230 18       		.byte	0x18
 6280 1231 00       		.byte	0
 6281 1232 20       		.uleb128 0x20
 6282 1233 9F000000 		.4byte	0x9f
 6283 1237 20       		.uleb128 0x20
 6284 1238 E4000000 		.4byte	0xe4
 6285 123c 02       		.uleb128 0x2
 6286 123d 47000000 		.4byte	.LASF325
 6287 1241 18       		.byte	0x18
 6288 1242 3F       		.byte	0x3f
 6289 1243 BF110000 		.4byte	0x11bf
 6290 1247 0C       		.uleb128 0xc
 6291 1248 132D0000 		.4byte	.LASF326
 6292 124c 50       		.byte	0x50
 6293 124d 18       		.byte	0x18
 6294 124e 4D       		.byte	0x4d
 6295 124f C5130000 		.4byte	0x13c5
 6296 1253 09       		.uleb128 0x9
 6297 1254 B7080000 		.4byte	.LASF327
 6298 1258 18       		.byte	0x18
 6299 1259 4F       		.byte	0x4f
 6300 125a 01010000 		.4byte	0x101
 6301 125e 00       		.byte	0
 6302 125f 09       		.uleb128 0x9
 6303 1260 3C050000 		.4byte	.LASF328
 6304 1264 18       		.byte	0x18
 6305 1265 50       		.byte	0x50
 6306 1266 01010000 		.4byte	0x101
 6307 126a 02       		.byte	0x2
 6308 126b 09       		.uleb128 0x9
 6309 126c 7C210000 		.4byte	.LASF329
 6310 1270 18       		.byte	0x18
 6311 1271 53       		.byte	0x53
 6312 1272 01010000 		.4byte	0x101
 6313 1276 04       		.byte	0x4
 6314 1277 09       		.uleb128 0x9
 6315 1278 1D0B0000 		.4byte	.LASF330
 6316 127c 18       		.byte	0x18
 6317 127d 55       		.byte	0x55
 6318 127e 01010000 		.4byte	0x101
 6319 1282 06       		.byte	0x6
 6320 1283 09       		.uleb128 0x9
 6321 1284 33150000 		.4byte	.LASF331
 6322 1288 18       		.byte	0x18
 6323 1289 57       		.byte	0x57
 6324 128a 01010000 		.4byte	0x101
 6325 128e 08       		.byte	0x8
ARM GAS  C:\Users\haske\AppData\Local\Temp\ccmHbbn5.s 			page 143


 6326 128f 09       		.uleb128 0x9
 6327 1290 3C150000 		.4byte	.LASF332
 6328 1294 18       		.byte	0x18
 6329 1295 58       		.byte	0x58
 6330 1296 01010000 		.4byte	0x101
 6331 129a 0A       		.byte	0xa
 6332 129b 09       		.uleb128 0x9
 6333 129c 76240000 		.4byte	.LASF333
 6334 12a0 18       		.byte	0x18
 6335 12a1 5C       		.byte	0x5c
 6336 12a2 C5130000 		.4byte	0x13c5
 6337 12a6 0C       		.byte	0xc
 6338 12a7 0B       		.uleb128 0xb
 6339 12a8 C90C0000 		.4byte	.LASF334
 6340 12ac 18       		.byte	0x18
 6341 12ad 5E       		.byte	0x5e
 6342 12ae E4000000 		.4byte	0xe4
 6343 12b2 04       		.byte	0x4
 6344 12b3 01       		.byte	0x1
 6345 12b4 1F       		.byte	0x1f
 6346 12b5 10       		.byte	0x10
 6347 12b6 0B       		.uleb128 0xb
 6348 12b7 0F120000 		.4byte	.LASF335
 6349 12bb 18       		.byte	0x18
 6350 12bc 5F       		.byte	0x5f
 6351 12bd E4000000 		.4byte	0xe4
 6352 12c1 04       		.byte	0x4
 6353 12c2 01       		.byte	0x1
 6354 12c3 1E       		.byte	0x1e
 6355 12c4 10       		.byte	0x10
 6356 12c5 0B       		.uleb128 0xb
 6357 12c6 77100000 		.4byte	.LASF336
 6358 12ca 18       		.byte	0x18
 6359 12cb 60       		.byte	0x60
 6360 12cc E4000000 		.4byte	0xe4
 6361 12d0 04       		.byte	0x4
 6362 12d1 01       		.byte	0x1
 6363 12d2 1D       		.byte	0x1d
 6364 12d3 10       		.byte	0x10
 6365 12d4 0B       		.uleb128 0xb
 6366 12d5 1D0D0000 		.4byte	.LASF337
 6367 12d9 18       		.byte	0x18
 6368 12da 61       		.byte	0x61
 6369 12db E4000000 		.4byte	0xe4
 6370 12df 04       		.byte	0x4
 6371 12e0 01       		.byte	0x1
 6372 12e1 1C       		.byte	0x1c
 6373 12e2 10       		.byte	0x10
 6374 12e3 0B       		.uleb128 0xb
 6375 12e4 5B060000 		.4byte	.LASF338
 6376 12e8 18       		.byte	0x18
 6377 12e9 62       		.byte	0x62
 6378 12ea E4000000 		.4byte	0xe4
 6379 12ee 04       		.byte	0x4
 6380 12ef 02       		.byte	0x2
 6381 12f0 1A       		.byte	0x1a
 6382 12f1 10       		.byte	0x10
ARM GAS  C:\Users\haske\AppData\Local\Temp\ccmHbbn5.s 			page 144


 6383 12f2 0B       		.uleb128 0xb
 6384 12f3 C1270000 		.4byte	.LASF276
 6385 12f7 18       		.byte	0x18
 6386 12f8 63       		.byte	0x63
 6387 12f9 E4000000 		.4byte	0xe4
 6388 12fd 04       		.byte	0x4
 6389 12fe 01       		.byte	0x1
 6390 12ff 19       		.byte	0x19
 6391 1300 10       		.byte	0x10
 6392 1301 0A       		.uleb128 0xa
 6393 1302 64706900 		.ascii	"dpi\000"
 6394 1306 18       		.byte	0x18
 6395 1307 66       		.byte	0x66
 6396 1308 E4000000 		.4byte	0xe4
 6397 130c 04       		.byte	0x4
 6398 130d 0A       		.byte	0xa
 6399 130e 0F       		.byte	0xf
 6400 130f 10       		.byte	0x10
 6401 1310 09       		.uleb128 0x9
 6402 1311 112C0000 		.4byte	.LASF339
 6403 1315 18       		.byte	0x18
 6404 1316 6A       		.byte	0x6a
 6405 1317 E6130000 		.4byte	0x13e6
 6406 131b 14       		.byte	0x14
 6407 131c 09       		.uleb128 0x9
 6408 131d 86240000 		.4byte	.LASF340
 6409 1321 18       		.byte	0x18
 6410 1322 6E       		.byte	0x6e
 6411 1323 FC130000 		.4byte	0x13fc
 6412 1327 18       		.byte	0x18
 6413 1328 09       		.uleb128 0x9
 6414 1329 90290000 		.4byte	.LASF341
 6415 132d 18       		.byte	0x18
 6416 132e 73       		.byte	0x73
 6417 132f 2B140000 		.4byte	0x142b
 6418 1333 1C       		.byte	0x1c
 6419 1334 09       		.uleb128 0x9
 6420 1335 50130000 		.4byte	.LASF342
 6421 1339 18       		.byte	0x18
 6422 133a 76       		.byte	0x76
 6423 133b 46140000 		.4byte	0x1446
 6424 133f 20       		.byte	0x20
 6425 1340 09       		.uleb128 0x9
 6426 1341 8B1A0000 		.4byte	.LASF343
 6427 1345 18       		.byte	0x18
 6428 1346 7B       		.byte	0x7b
 6429 1347 61140000 		.4byte	0x1461
 6430 134b 24       		.byte	0x24
 6431 134c 09       		.uleb128 0x9
 6432 134d 3F180000 		.4byte	.LASF344
 6433 1351 18       		.byte	0x18
 6434 1352 80       		.byte	0x80
 6435 1353 72140000 		.4byte	0x1472
 6436 1357 28       		.byte	0x28
 6437 1358 09       		.uleb128 0x9
 6438 1359 992D0000 		.4byte	.LASF345
 6439 135d 18       		.byte	0x18
ARM GAS  C:\Users\haske\AppData\Local\Temp\ccmHbbn5.s 			page 145


 6440 135e 83       		.byte	0x83
 6441 135f 72140000 		.4byte	0x1472
 6442 1363 2C       		.byte	0x2c
 6443 1364 09       		.uleb128 0x9
 6444 1365 39210000 		.4byte	.LASF346
 6445 1369 18       		.byte	0x18
 6446 136a 86       		.byte	0x86
 6447 136b 72140000 		.4byte	0x1472
 6448 136f 30       		.byte	0x30
 6449 1370 09       		.uleb128 0x9
 6450 1371 29210000 		.4byte	.LASF347
 6451 1375 18       		.byte	0x18
 6452 1376 89       		.byte	0x89
 6453 1377 72140000 		.4byte	0x1472
 6454 137b 34       		.byte	0x34
 6455 137c 09       		.uleb128 0x9
 6456 137d 29000000 		.4byte	.LASF348
 6457 1381 18       		.byte	0x18
 6458 1382 8D       		.byte	0x8d
 6459 1383 1E040000 		.4byte	0x41e
 6460 1387 38       		.byte	0x38
 6461 1388 09       		.uleb128 0x9
 6462 1389 542A0000 		.4byte	.LASF349
 6463 138d 18       		.byte	0x18
 6464 138e 8F       		.byte	0x8f
 6465 138f 78140000 		.4byte	0x1478
 6466 1393 3C       		.byte	0x3c
 6467 1394 09       		.uleb128 0x9
 6468 1395 AB160000 		.4byte	.LASF350
 6469 1399 18       		.byte	0x18
 6470 139a 90       		.byte	0x90
 6471 139b 8E140000 		.4byte	0x148e
 6472 139f 40       		.byte	0x40
 6473 13a0 09       		.uleb128 0x9
 6474 13a1 78060000 		.4byte	.LASF351
 6475 13a5 18       		.byte	0x18
 6476 13a6 91       		.byte	0x91
 6477 13a7 8E140000 		.4byte	0x148e
 6478 13ab 44       		.byte	0x44
 6479 13ac 09       		.uleb128 0x9
 6480 13ad 97020000 		.4byte	.LASF352
 6481 13b1 18       		.byte	0x18
 6482 13b2 92       		.byte	0x92
 6483 13b3 EF000000 		.4byte	0xef
 6484 13b7 48       		.byte	0x48
 6485 13b8 09       		.uleb128 0x9
 6486 13b9 312C0000 		.4byte	.LASF64
 6487 13bd 18       		.byte	0x18
 6488 13be 95       		.byte	0x95
 6489 13bf 7A030000 		.4byte	0x37a
 6490 13c3 4C       		.byte	0x4c
 6491 13c4 00       		.byte	0
 6492 13c5 0D       		.uleb128 0xd
 6493 13c6 04       		.byte	0x4
 6494 13c7 3C120000 		.4byte	0x123c
 6495 13cb 1F       		.uleb128 0x1f
 6496 13cc E0130000 		.4byte	0x13e0
ARM GAS  C:\Users\haske\AppData\Local\Temp\ccmHbbn5.s 			page 146


 6497 13d0 10       		.uleb128 0x10
 6498 13d1 E0130000 		.4byte	0x13e0
 6499 13d5 10       		.uleb128 0x10
 6500 13d6 410D0000 		.4byte	0xd41
 6501 13da 10       		.uleb128 0x10
 6502 13db 09090000 		.4byte	0x909
 6503 13df 00       		.byte	0
 6504 13e0 0D       		.uleb128 0xd
 6505 13e1 04       		.byte	0x4
 6506 13e2 47120000 		.4byte	0x1247
 6507 13e6 0D       		.uleb128 0xd
 6508 13e7 04       		.byte	0x4
 6509 13e8 CB130000 		.4byte	0x13cb
 6510 13ec 1F       		.uleb128 0x1f
 6511 13ed FC130000 		.4byte	0x13fc
 6512 13f1 10       		.uleb128 0x10
 6513 13f2 E0130000 		.4byte	0x13e0
 6514 13f6 10       		.uleb128 0x10
 6515 13f7 4C0D0000 		.4byte	0xd4c
 6516 13fb 00       		.byte	0
 6517 13fc 0D       		.uleb128 0xd
 6518 13fd 04       		.byte	0x4
 6519 13fe EC130000 		.4byte	0x13ec
 6520 1402 1F       		.uleb128 0x1f
 6521 1403 2B140000 		.4byte	0x142b
 6522 1407 10       		.uleb128 0x10
 6523 1408 E0130000 		.4byte	0x13e0
 6524 140c 10       		.uleb128 0x10
 6525 140d D6070000 		.4byte	0x7d6
 6526 1411 10       		.uleb128 0x10
 6527 1412 01010000 		.4byte	0x101
 6528 1416 10       		.uleb128 0x10
 6529 1417 01010000 		.4byte	0x101
 6530 141b 10       		.uleb128 0x10
 6531 141c 01010000 		.4byte	0x101
 6532 1420 10       		.uleb128 0x10
 6533 1421 1E040000 		.4byte	0x41e
 6534 1425 10       		.uleb128 0x10
 6535 1426 29040000 		.4byte	0x429
 6536 142a 00       		.byte	0
 6537 142b 0D       		.uleb128 0xd
 6538 142c 04       		.byte	0x4
 6539 142d 02140000 		.4byte	0x1402
 6540 1431 1F       		.uleb128 0x1f
 6541 1432 46140000 		.4byte	0x1446
 6542 1436 10       		.uleb128 0x10
 6543 1437 E0130000 		.4byte	0x13e0
 6544 143b 10       		.uleb128 0x10
 6545 143c D6070000 		.4byte	0x7d6
 6546 1440 10       		.uleb128 0x10
 6547 1441 E4000000 		.4byte	0xe4
 6548 1445 00       		.byte	0
 6549 1446 0D       		.uleb128 0xd
 6550 1447 04       		.byte	0x4
 6551 1448 31140000 		.4byte	0x1431
 6552 144c 1F       		.uleb128 0x1f
 6553 144d 61140000 		.4byte	0x1461
ARM GAS  C:\Users\haske\AppData\Local\Temp\ccmHbbn5.s 			page 147


 6554 1451 10       		.uleb128 0x10
 6555 1452 E0130000 		.4byte	0x13e0
 6556 1456 10       		.uleb128 0x10
 6557 1457 E4000000 		.4byte	0xe4
 6558 145b 10       		.uleb128 0x10
 6559 145c E4000000 		.4byte	0xe4
 6560 1460 00       		.byte	0
 6561 1461 0D       		.uleb128 0xd
 6562 1462 04       		.byte	0x4
 6563 1463 4C140000 		.4byte	0x144c
 6564 1467 1F       		.uleb128 0x1f
 6565 1468 72140000 		.4byte	0x1472
 6566 146c 10       		.uleb128 0x10
 6567 146d E0130000 		.4byte	0x13e0
 6568 1471 00       		.byte	0
 6569 1472 0D       		.uleb128 0xd
 6570 1473 04       		.byte	0x4
 6571 1474 67140000 		.4byte	0x1467
 6572 1478 0D       		.uleb128 0xd
 6573 1479 04       		.byte	0x4
 6574 147a E6100000 		.4byte	0x10e6
 6575 147e 1F       		.uleb128 0x1f
 6576 147f 8E140000 		.4byte	0x148e
 6577 1483 10       		.uleb128 0x10
 6578 1484 E0130000 		.4byte	0x13e0
 6579 1488 10       		.uleb128 0x10
 6580 1489 78140000 		.4byte	0x1478
 6581 148d 00       		.byte	0
 6582 148e 0D       		.uleb128 0xd
 6583 148f 04       		.byte	0x4
 6584 1490 7E140000 		.4byte	0x147e
 6585 1494 21       		.uleb128 0x21
 6586 1495 711C0000 		.4byte	.LASF353
 6587 1499 5C01     		.2byte	0x15c
 6588 149b 18       		.byte	0x18
 6589 149c 9E       		.byte	0x9e
 6590 149d AB150000 		.4byte	0x15ab
 6591 14a1 09       		.uleb128 0x9
 6592 14a2 08260000 		.4byte	.LASF354
 6593 14a6 18       		.byte	0x18
 6594 14a7 A0       		.byte	0xa0
 6595 14a8 E0130000 		.4byte	0x13e0
 6596 14ac 00       		.byte	0
 6597 14ad 09       		.uleb128 0x9
 6598 14ae AB060000 		.4byte	.LASF355
 6599 14b2 18       		.byte	0x18
 6600 14b3 A3       		.byte	0xa3
 6601 14b4 AB150000 		.4byte	0x15ab
 6602 14b8 04       		.byte	0x4
 6603 14b9 09       		.uleb128 0x9
 6604 14ba 2D150000 		.4byte	.LASF356
 6605 14be 18       		.byte	0x18
 6606 14bf A6       		.byte	0xa6
 6607 14c0 B6150000 		.4byte	0x15b6
 6608 14c4 08       		.byte	0x8
 6609 14c5 09       		.uleb128 0x9
 6610 14c6 66050000 		.4byte	.LASF357
ARM GAS  C:\Users\haske\AppData\Local\Temp\ccmHbbn5.s 			page 148


 6611 14ca 18       		.byte	0x18
 6612 14cb A9       		.byte	0xa9
 6613 14cc BC150000 		.4byte	0x15bc
 6614 14d0 0C       		.byte	0xc
 6615 14d1 09       		.uleb128 0x9
 6616 14d2 3C010000 		.4byte	.LASF358
 6617 14d6 18       		.byte	0x18
 6618 14d7 AA       		.byte	0xaa
 6619 14d8 3C080000 		.4byte	0x83c
 6620 14dc 10       		.byte	0x10
 6621 14dd 09       		.uleb128 0x9
 6622 14de 5D260000 		.4byte	.LASF359
 6623 14e2 18       		.byte	0x18
 6624 14e3 AB       		.byte	0xab
 6625 14e4 3C080000 		.4byte	0x83c
 6626 14e8 14       		.byte	0x14
 6627 14e9 09       		.uleb128 0x9
 6628 14ea A3070000 		.4byte	.LASF360
 6629 14ee 18       		.byte	0x18
 6630 14ef AC       		.byte	0xac
 6631 14f0 3C080000 		.4byte	0x83c
 6632 14f4 18       		.byte	0x18
 6633 14f5 09       		.uleb128 0x9
 6634 14f6 CF090000 		.4byte	.LASF361
 6635 14fa 18       		.byte	0x18
 6636 14fb AD       		.byte	0xad
 6637 14fc 3C080000 		.4byte	0x83c
 6638 1500 1C       		.byte	0x1c
 6639 1501 09       		.uleb128 0x9
 6640 1502 CF210000 		.4byte	.LASF362
 6641 1506 18       		.byte	0x18
 6642 1507 AE       		.byte	0xae
 6643 1508 3C080000 		.4byte	0x83c
 6644 150c 20       		.byte	0x20
 6645 150d 09       		.uleb128 0x9
 6646 150e 44010000 		.4byte	.LASF363
 6647 1512 18       		.byte	0x18
 6648 1513 AF       		.byte	0xaf
 6649 1514 E4000000 		.4byte	0xe4
 6650 1518 24       		.byte	0x24
 6651 1519 0B       		.uleb128 0xb
 6652 151a CD140000 		.4byte	.LASF364
 6653 151e 18       		.byte	0x18
 6654 151f B0       		.byte	0xb0
 6655 1520 B8000000 		.4byte	0xb8
 6656 1524 01       		.byte	0x1
 6657 1525 01       		.byte	0x1
 6658 1526 07       		.byte	0x7
 6659 1527 28       		.byte	0x28
 6660 1528 0B       		.uleb128 0xb
 6661 1529 8E280000 		.4byte	.LASF365
 6662 152d 18       		.byte	0x18
 6663 152e B2       		.byte	0xb2
 6664 152f B8000000 		.4byte	0xb8
 6665 1533 01       		.byte	0x1
 6666 1534 01       		.byte	0x1
 6667 1535 06       		.byte	0x6
ARM GAS  C:\Users\haske\AppData\Local\Temp\ccmHbbn5.s 			page 149


 6668 1536 28       		.byte	0x28
 6669 1537 0B       		.uleb128 0xb
 6670 1538 DB0A0000 		.4byte	.LASF366
 6671 153c 18       		.byte	0x18
 6672 153d B4       		.byte	0xb4
 6673 153e B8000000 		.4byte	0xb8
 6674 1542 01       		.byte	0x1
 6675 1543 01       		.byte	0x1
 6676 1544 05       		.byte	0x5
 6677 1545 28       		.byte	0x28
 6678 1546 09       		.uleb128 0x9
 6679 1547 A4060000 		.4byte	.LASF213
 6680 154b 18       		.byte	0x18
 6681 154c B6       		.byte	0xb6
 6682 154d 29040000 		.4byte	0x429
 6683 1551 29       		.byte	0x29
 6684 1552 09       		.uleb128 0x9
 6685 1553 61020000 		.4byte	.LASF214
 6686 1557 18       		.byte	0x18
 6687 1558 B7       		.byte	0xb7
 6688 1559 1E040000 		.4byte	0x41e
 6689 155d 2A       		.byte	0x2a
 6690 155e 09       		.uleb128 0x9
 6691 155f A6280000 		.4byte	.LASF367
 6692 1563 18       		.byte	0x18
 6693 1564 B8       		.byte	0xb8
 6694 1565 73030000 		.4byte	0x373
 6695 1569 2C       		.byte	0x2c
 6696 156a 09       		.uleb128 0x9
 6697 156b F01C0000 		.4byte	.LASF368
 6698 156f 18       		.byte	0x18
 6699 1570 BB       		.byte	0xbb
 6700 1571 C2150000 		.4byte	0x15c2
 6701 1575 30       		.byte	0x30
 6702 1576 22       		.uleb128 0x22
 6703 1577 72070000 		.4byte	.LASF369
 6704 157b 18       		.byte	0x18
 6705 157c BC       		.byte	0xbc
 6706 157d D2150000 		.4byte	0x15d2
 6707 1581 3001     		.2byte	0x130
 6708 1583 22       		.uleb128 0x22
 6709 1584 C5260000 		.4byte	.LASF370
 6710 1588 18       		.byte	0x18
 6711 1589 BD       		.byte	0xbd
 6712 158a CE000000 		.4byte	0xce
 6713 158e 5001     		.2byte	0x150
 6714 1590 22       		.uleb128 0x22
 6715 1591 B6270000 		.4byte	.LASF371
 6716 1595 18       		.byte	0x18
 6717 1596 BE       		.byte	0xbe
 6718 1597 D9000000 		.4byte	0xd9
 6719 159b 5401     		.2byte	0x154
 6720 159d 22       		.uleb128 0x22
 6721 159e 2B060000 		.4byte	.LASF372
 6722 15a2 18       		.byte	0x18
 6723 15a3 C1       		.byte	0xc1
 6724 15a4 E4000000 		.4byte	0xe4
ARM GAS  C:\Users\haske\AppData\Local\Temp\ccmHbbn5.s 			page 150


 6725 15a8 5801     		.2byte	0x158
 6726 15aa 00       		.byte	0
 6727 15ab 0D       		.uleb128 0xd
 6728 15ac 04       		.byte	0x4
 6729 15ad B4110000 		.4byte	0x11b4
 6730 15b1 23       		.uleb128 0x23
 6731 15b2 1C260000 		.4byte	.LASF603
 6732 15b6 0D       		.uleb128 0xd
 6733 15b7 04       		.byte	0x4
 6734 15b8 B1150000 		.4byte	0x15b1
 6735 15bc 0D       		.uleb128 0xd
 6736 15bd 04       		.byte	0x4
 6737 15be 3C080000 		.4byte	0x83c
 6738 15c2 16       		.uleb128 0x16
 6739 15c3 69010000 		.4byte	0x169
 6740 15c7 D2150000 		.4byte	0x15d2
 6741 15cb 17       		.uleb128 0x17
 6742 15cc AB030000 		.4byte	0x3ab
 6743 15d0 1F       		.byte	0x1f
 6744 15d1 00       		.byte	0
 6745 15d2 16       		.uleb128 0x16
 6746 15d3 B8000000 		.4byte	0xb8
 6747 15d7 E2150000 		.4byte	0x15e2
 6748 15db 17       		.uleb128 0x17
 6749 15dc AB030000 		.4byte	0x3ab
 6750 15e0 1F       		.byte	0x1f
 6751 15e1 00       		.byte	0
 6752 15e2 07       		.uleb128 0x7
 6753 15e3 01       		.byte	0x1
 6754 15e4 42000000 		.4byte	0x42
 6755 15e8 19       		.byte	0x19
 6756 15e9 3E       		.byte	0x3e
 6757 15ea 0D160000 		.4byte	0x160d
 6758 15ee 08       		.uleb128 0x8
 6759 15ef F72B0000 		.4byte	.LASF373
 6760 15f3 00       		.byte	0
 6761 15f4 08       		.uleb128 0x8
 6762 15f5 BA1F0000 		.4byte	.LASF374
 6763 15f9 01       		.byte	0x1
 6764 15fa 08       		.uleb128 0x8
 6765 15fb 14240000 		.4byte	.LASF375
 6766 15ff 02       		.byte	0x2
 6767 1600 08       		.uleb128 0x8
 6768 1601 F3170000 		.4byte	.LASF376
 6769 1605 03       		.byte	0x3
 6770 1606 08       		.uleb128 0x8
 6771 1607 67000000 		.4byte	.LASF377
 6772 160b 04       		.byte	0x4
 6773 160c 00       		.byte	0
 6774 160d 02       		.uleb128 0x2
 6775 160e 9B170000 		.4byte	.LASF378
 6776 1612 19       		.byte	0x19
 6777 1613 44       		.byte	0x44
 6778 1614 E2150000 		.4byte	0x15e2
 6779 1618 07       		.uleb128 0x7
 6780 1619 01       		.byte	0x1
 6781 161a 42000000 		.4byte	0x42
ARM GAS  C:\Users\haske\AppData\Local\Temp\ccmHbbn5.s 			page 151


 6782 161e 19       		.byte	0x19
 6783 161f 47       		.byte	0x47
 6784 1620 31160000 		.4byte	0x1631
 6785 1624 08       		.uleb128 0x8
 6786 1625 670A0000 		.4byte	.LASF379
 6787 1629 00       		.byte	0
 6788 162a 08       		.uleb128 0x8
 6789 162b 09170000 		.4byte	.LASF380
 6790 162f 01       		.byte	0x1
 6791 1630 00       		.byte	0
 6792 1631 02       		.uleb128 0x2
 6793 1632 31100000 		.4byte	.LASF381
 6794 1636 19       		.byte	0x19
 6795 1637 4A       		.byte	0x4a
 6796 1638 18160000 		.4byte	0x1618
 6797 163c 05       		.uleb128 0x5
 6798 163d 10       		.byte	0x10
 6799 163e 19       		.byte	0x19
 6800 163f 4D       		.byte	0x4d
 6801 1640 8D160000 		.4byte	0x168d
 6802 1644 09       		.uleb128 0x9
 6803 1645 E4040000 		.4byte	.LASF382
 6804 1649 19       		.byte	0x19
 6805 164a 4E       		.byte	0x4e
 6806 164b 29010000 		.4byte	0x129
 6807 164f 00       		.byte	0
 6808 1650 06       		.uleb128 0x6
 6809 1651 6B657900 		.ascii	"key\000"
 6810 1655 19       		.byte	0x19
 6811 1656 4F       		.byte	0x4f
 6812 1657 E4000000 		.4byte	0xe4
 6813 165b 04       		.byte	0x4
 6814 165c 09       		.uleb128 0x9
 6815 165d 5B0C0000 		.4byte	.LASF383
 6816 1661 19       		.byte	0x19
 6817 1662 50       		.byte	0x50
 6818 1663 E4000000 		.4byte	0xe4
 6819 1667 08       		.byte	0x8
 6820 1668 09       		.uleb128 0x9
 6821 1669 F31B0000 		.4byte	.LASF384
 6822 166d 19       		.byte	0x19
 6823 166e 51       		.byte	0x51
 6824 166f C3000000 		.4byte	0xc3
 6825 1673 0C       		.byte	0xc
 6826 1674 09       		.uleb128 0x9
 6827 1675 32030000 		.4byte	.LASF204
 6828 1679 19       		.byte	0x19
 6829 167a 53       		.byte	0x53
 6830 167b 31160000 		.4byte	0x1631
 6831 167f 0E       		.byte	0xe
 6832 1680 09       		.uleb128 0x9
 6833 1681 D4130000 		.4byte	.LASF385
 6834 1685 19       		.byte	0x19
 6835 1686 54       		.byte	0x54
 6836 1687 3B030000 		.4byte	0x33b
 6837 168b 0F       		.byte	0xf
 6838 168c 00       		.byte	0
ARM GAS  C:\Users\haske\AppData\Local\Temp\ccmHbbn5.s 			page 152


 6839 168d 02       		.uleb128 0x2
 6840 168e 2F2A0000 		.4byte	.LASF386
 6841 1692 19       		.byte	0x19
 6842 1693 55       		.byte	0x55
 6843 1694 3C160000 		.4byte	0x163c
 6844 1698 0C       		.uleb128 0xc
 6845 1699 95040000 		.4byte	.LASF387
 6846 169d 20       		.byte	0x20
 6847 169e 19       		.byte	0x19
 6848 169f 58       		.byte	0x58
 6849 16a0 35170000 		.4byte	0x1735
 6850 16a4 09       		.uleb128 0x9
 6851 16a5 FD030000 		.4byte	.LASF388
 6852 16a9 19       		.byte	0x19
 6853 16aa 5B       		.byte	0x5b
 6854 16ab 0D160000 		.4byte	0x160d
 6855 16af 00       		.byte	0
 6856 16b0 09       		.uleb128 0x9
 6857 16b1 E3070000 		.4byte	.LASF389
 6858 16b5 19       		.byte	0x19
 6859 16b6 5E       		.byte	0x5e
 6860 16b7 51170000 		.4byte	0x1751
 6861 16bb 04       		.byte	0x4
 6862 16bc 09       		.uleb128 0x9
 6863 16bd 8C200000 		.4byte	.LASF390
 6864 16c1 19       		.byte	0x19
 6865 16c2 62       		.byte	0x62
 6866 16c3 67170000 		.4byte	0x1767
 6867 16c7 08       		.byte	0x8
 6868 16c8 09       		.uleb128 0x9
 6869 16c9 312C0000 		.4byte	.LASF64
 6870 16cd 19       		.byte	0x19
 6871 16ce 65       		.byte	0x65
 6872 16cf 7A030000 		.4byte	0x37a
 6873 16d3 0C       		.byte	0xc
 6874 16d4 09       		.uleb128 0x9
 6875 16d5 721B0000 		.4byte	.LASF391
 6876 16d9 19       		.byte	0x19
 6877 16da 69       		.byte	0x69
 6878 16db 6D170000 		.4byte	0x176d
 6879 16df 10       		.byte	0x10
 6880 16e0 09       		.uleb128 0x9
 6881 16e1 1D1F0000 		.4byte	.LASF392
 6882 16e5 19       		.byte	0x19
 6883 16e6 6C       		.byte	0x6c
 6884 16e7 AB150000 		.4byte	0x15ab
 6885 16eb 14       		.byte	0x14
 6886 16ec 09       		.uleb128 0x9
 6887 16ed E7250000 		.4byte	.LASF393
 6888 16f1 19       		.byte	0x19
 6889 16f2 6F       		.byte	0x6f
 6890 16f3 B8000000 		.4byte	0xb8
 6891 16f7 18       		.byte	0x18
 6892 16f8 09       		.uleb128 0x9
 6893 16f9 A1200000 		.4byte	.LASF394
 6894 16fd 19       		.byte	0x19
 6895 16fe 72       		.byte	0x72
ARM GAS  C:\Users\haske\AppData\Local\Temp\ccmHbbn5.s 			page 153


 6896 16ff B8000000 		.4byte	0xb8
 6897 1703 19       		.byte	0x19
 6898 1704 09       		.uleb128 0x9
 6899 1705 B02B0000 		.4byte	.LASF395
 6900 1709 19       		.byte	0x19
 6901 170a 75       		.byte	0x75
 6902 170b B8000000 		.4byte	0xb8
 6903 170f 1A       		.byte	0x1a
 6904 1710 09       		.uleb128 0x9
 6905 1711 B32D0000 		.4byte	.LASF396
 6906 1715 19       		.byte	0x19
 6907 1716 78       		.byte	0x78
 6908 1717 B8000000 		.4byte	0xb8
 6909 171b 1B       		.byte	0x1b
 6910 171c 09       		.uleb128 0x9
 6911 171d A8210000 		.4byte	.LASF397
 6912 1721 19       		.byte	0x19
 6913 1722 7B       		.byte	0x7b
 6914 1723 CE000000 		.4byte	0xce
 6915 1727 1C       		.byte	0x1c
 6916 1728 09       		.uleb128 0x9
 6917 1729 9A290000 		.4byte	.LASF398
 6918 172d 19       		.byte	0x19
 6919 172e 7E       		.byte	0x7e
 6920 172f CE000000 		.4byte	0xce
 6921 1733 1E       		.byte	0x1e
 6922 1734 00       		.byte	0
 6923 1735 1F       		.uleb128 0x1f
 6924 1736 45170000 		.4byte	0x1745
 6925 173a 10       		.uleb128 0x10
 6926 173b 45170000 		.4byte	0x1745
 6927 173f 10       		.uleb128 0x10
 6928 1740 4B170000 		.4byte	0x174b
 6929 1744 00       		.byte	0
 6930 1745 0D       		.uleb128 0xd
 6931 1746 04       		.byte	0x4
 6932 1747 98160000 		.4byte	0x1698
 6933 174b 0D       		.uleb128 0xd
 6934 174c 04       		.byte	0x4
 6935 174d 8D160000 		.4byte	0x168d
 6936 1751 0D       		.uleb128 0xd
 6937 1752 04       		.byte	0x4
 6938 1753 35170000 		.4byte	0x1735
 6939 1757 1F       		.uleb128 0x1f
 6940 1758 67170000 		.4byte	0x1767
 6941 175c 10       		.uleb128 0x10
 6942 175d 45170000 		.4byte	0x1745
 6943 1761 10       		.uleb128 0x10
 6944 1762 B8000000 		.4byte	0xb8
 6945 1766 00       		.byte	0
 6946 1767 0D       		.uleb128 0xd
 6947 1768 04       		.byte	0x4
 6948 1769 57170000 		.4byte	0x1757
 6949 176d 0D       		.uleb128 0xd
 6950 176e 04       		.byte	0x4
 6951 176f 94140000 		.4byte	0x1494
 6952 1773 05       		.uleb128 0x5
ARM GAS  C:\Users\haske\AppData\Local\Temp\ccmHbbn5.s 			page 154


 6953 1774 40       		.byte	0x40
 6954 1775 19       		.byte	0x19
 6955 1776 8D       		.byte	0x8d
 6956 1777 51180000 		.4byte	0x1851
 6957 177b 09       		.uleb128 0x9
 6958 177c E9260000 		.4byte	.LASF399
 6959 1780 19       		.byte	0x19
 6960 1781 8F       		.byte	0x8f
 6961 1782 29010000 		.4byte	0x129
 6962 1786 00       		.byte	0
 6963 1787 09       		.uleb128 0x9
 6964 1788 5C1B0000 		.4byte	.LASF400
 6965 178c 19       		.byte	0x19
 6966 178d 90       		.byte	0x90
 6967 178e 29010000 		.4byte	0x129
 6968 1792 04       		.byte	0x4
 6969 1793 09       		.uleb128 0x9
 6970 1794 7F190000 		.4byte	.LASF401
 6971 1798 19       		.byte	0x19
 6972 1799 91       		.byte	0x91
 6973 179a 29010000 		.4byte	0x129
 6974 179e 08       		.byte	0x8
 6975 179f 09       		.uleb128 0x9
 6976 17a0 F52C0000 		.4byte	.LASF402
 6977 17a4 19       		.byte	0x19
 6978 17a5 92       		.byte	0x92
 6979 17a6 29010000 		.4byte	0x129
 6980 17aa 0C       		.byte	0xc
 6981 17ab 09       		.uleb128 0x9
 6982 17ac BC2E0000 		.4byte	.LASF403
 6983 17b0 19       		.byte	0x19
 6984 17b1 93       		.byte	0x93
 6985 17b2 29010000 		.4byte	0x129
 6986 17b6 10       		.byte	0x10
 6987 17b7 09       		.uleb128 0x9
 6988 17b8 BD1B0000 		.4byte	.LASF404
 6989 17bc 19       		.byte	0x19
 6990 17bd 94       		.byte	0x94
 6991 17be 29010000 		.4byte	0x129
 6992 17c2 14       		.byte	0x14
 6993 17c3 09       		.uleb128 0x9
 6994 17c4 47210000 		.4byte	.LASF405
 6995 17c8 19       		.byte	0x19
 6996 17c9 95       		.byte	0x95
 6997 17ca 29010000 		.4byte	0x129
 6998 17ce 18       		.byte	0x18
 6999 17cf 09       		.uleb128 0x9
 7000 17d0 9B230000 		.4byte	.LASF406
 7001 17d4 19       		.byte	0x19
 7002 17d5 96       		.byte	0x96
 7003 17d6 29010000 		.4byte	0x129
 7004 17da 1C       		.byte	0x1c
 7005 17db 09       		.uleb128 0x9
 7006 17dc 97190000 		.4byte	.LASF407
 7007 17e0 19       		.byte	0x19
 7008 17e1 97       		.byte	0x97
 7009 17e2 3C080000 		.4byte	0x83c
ARM GAS  C:\Users\haske\AppData\Local\Temp\ccmHbbn5.s 			page 155


 7010 17e6 20       		.byte	0x20
 7011 17e7 09       		.uleb128 0x9
 7012 17e8 6D170000 		.4byte	.LASF408
 7013 17ec 19       		.byte	0x19
 7014 17ed 98       		.byte	0x98
 7015 17ee 3C080000 		.4byte	0x83c
 7016 17f2 24       		.byte	0x24
 7017 17f3 09       		.uleb128 0x9
 7018 17f4 B5050000 		.4byte	.LASF409
 7019 17f8 19       		.byte	0x19
 7020 17f9 99       		.byte	0x99
 7021 17fa 3C080000 		.4byte	0x83c
 7022 17fe 28       		.byte	0x28
 7023 17ff 09       		.uleb128 0x9
 7024 1800 24080000 		.4byte	.LASF410
 7025 1804 19       		.byte	0x19
 7026 1805 9A       		.byte	0x9a
 7027 1806 3C080000 		.4byte	0x83c
 7028 180a 2C       		.byte	0x2c
 7029 180b 09       		.uleb128 0x9
 7030 180c 450D0000 		.4byte	.LASF411
 7031 1810 19       		.byte	0x19
 7032 1811 9B       		.byte	0x9b
 7033 1812 69010000 		.4byte	0x169
 7034 1816 30       		.byte	0x30
 7035 1817 09       		.uleb128 0x9
 7036 1818 0C080000 		.4byte	.LASF412
 7037 181c 19       		.byte	0x19
 7038 181d 9D       		.byte	0x9d
 7039 181e 29010000 		.4byte	0x129
 7040 1822 38       		.byte	0x38
 7041 1823 0B       		.uleb128 0xb
 7042 1824 63060000 		.4byte	.LASF413
 7043 1828 19       		.byte	0x19
 7044 1829 9F       		.byte	0x9f
 7045 182a 05020000 		.4byte	0x205
 7046 182e 01       		.byte	0x1
 7047 182f 04       		.byte	0x4
 7048 1830 04       		.byte	0x4
 7049 1831 3C       		.byte	0x3c
 7050 1832 0B       		.uleb128 0xb
 7051 1833 50250000 		.4byte	.LASF414
 7052 1837 19       		.byte	0x19
 7053 1838 A0       		.byte	0xa0
 7054 1839 05020000 		.4byte	0x205
 7055 183d 01       		.byte	0x1
 7056 183e 04       		.byte	0x4
 7057 183f 00       		.byte	0
 7058 1840 3C       		.byte	0x3c
 7059 1841 0B       		.uleb128 0xb
 7060 1842 68250000 		.4byte	.LASF415
 7061 1846 19       		.byte	0x19
 7062 1847 A1       		.byte	0xa1
 7063 1848 B8000000 		.4byte	0xb8
 7064 184c 01       		.byte	0x1
 7065 184d 01       		.byte	0x1
 7066 184e 07       		.byte	0x7
ARM GAS  C:\Users\haske\AppData\Local\Temp\ccmHbbn5.s 			page 156


 7067 184f 3D       		.byte	0x3d
 7068 1850 00       		.byte	0
 7069 1851 05       		.uleb128 0x5
 7070 1852 08       		.byte	0x8
 7071 1853 19       		.byte	0x19
 7072 1854 A3       		.byte	0xa3
 7073 1855 72180000 		.4byte	0x1872
 7074 1859 09       		.uleb128 0x9
 7075 185a 991F0000 		.4byte	.LASF416
 7076 185e 19       		.byte	0x19
 7077 185f A5       		.byte	0xa5
 7078 1860 31160000 		.4byte	0x1631
 7079 1864 00       		.byte	0
 7080 1865 09       		.uleb128 0x9
 7081 1866 30250000 		.4byte	.LASF417
 7082 186a 19       		.byte	0x19
 7083 186b A6       		.byte	0xa6
 7084 186c E4000000 		.4byte	0xe4
 7085 1870 04       		.byte	0x4
 7086 1871 00       		.byte	0
 7087 1872 13       		.uleb128 0x13
 7088 1873 40       		.byte	0x40
 7089 1874 19       		.byte	0x19
 7090 1875 8C       		.byte	0x8c
 7091 1876 91180000 		.4byte	0x1891
 7092 187a 15       		.uleb128 0x15
 7093 187b 00120000 		.4byte	.LASF418
 7094 187f 19       		.byte	0x19
 7095 1880 A2       		.byte	0xa2
 7096 1881 73170000 		.4byte	0x1773
 7097 1885 15       		.uleb128 0x15
 7098 1886 48270000 		.4byte	.LASF419
 7099 188a 19       		.byte	0x19
 7100 188b A7       		.byte	0xa7
 7101 188c 51180000 		.4byte	0x1851
 7102 1890 00       		.byte	0
 7103 1891 0C       		.uleb128 0xc
 7104 1892 99220000 		.4byte	.LASF420
 7105 1896 4C       		.byte	0x4c
 7106 1897 19       		.byte	0x19
 7107 1898 84       		.byte	0x84
 7108 1899 0A190000 		.4byte	0x190a
 7109 189d 09       		.uleb128 0x9
 7110 189e 32030000 		.4byte	.LASF204
 7111 18a2 19       		.byte	0x19
 7112 18a3 85       		.byte	0x85
 7113 18a4 31160000 		.4byte	0x1631
 7114 18a8 00       		.byte	0
 7115 18a9 0B       		.uleb128 0xb
 7116 18aa 222D0000 		.4byte	.LASF421
 7117 18ae 19       		.byte	0x19
 7118 18af 87       		.byte	0x87
 7119 18b0 B8000000 		.4byte	0xb8
 7120 18b4 01       		.byte	0x1
 7121 18b5 01       		.byte	0x1
 7122 18b6 07       		.byte	0x7
 7123 18b7 01       		.byte	0x1
ARM GAS  C:\Users\haske\AppData\Local\Temp\ccmHbbn5.s 			page 157


 7124 18b8 0B       		.uleb128 0xb
 7125 18b9 EC220000 		.4byte	.LASF422
 7126 18bd 19       		.byte	0x19
 7127 18be 88       		.byte	0x88
 7128 18bf B8000000 		.4byte	0xb8
 7129 18c3 01       		.byte	0x1
 7130 18c4 01       		.byte	0x1
 7131 18c5 06       		.byte	0x6
 7132 18c6 01       		.byte	0x1
 7133 18c7 0B       		.uleb128 0xb
 7134 18c8 622B0000 		.4byte	.LASF423
 7135 18cc 19       		.byte	0x19
 7136 18cd 89       		.byte	0x89
 7137 18ce B8000000 		.4byte	0xb8
 7138 18d2 01       		.byte	0x1
 7139 18d3 01       		.byte	0x1
 7140 18d4 05       		.byte	0x5
 7141 18d5 01       		.byte	0x1
 7142 18d6 0B       		.uleb128 0xb
 7143 18d7 C9120000 		.4byte	.LASF424
 7144 18db 19       		.byte	0x19
 7145 18dc 8A       		.byte	0x8a
 7146 18dd B8000000 		.4byte	0xb8
 7147 18e1 01       		.byte	0x1
 7148 18e2 01       		.byte	0x1
 7149 18e3 04       		.byte	0x4
 7150 18e4 01       		.byte	0x1
 7151 18e5 09       		.uleb128 0x9
 7152 18e6 D9090000 		.4byte	.LASF425
 7153 18ea 19       		.byte	0x19
 7154 18eb A8       		.byte	0xa8
 7155 18ec 72180000 		.4byte	0x1872
 7156 18f0 04       		.byte	0x4
 7157 18f1 09       		.uleb128 0x9
 7158 18f2 E71F0000 		.4byte	.LASF426
 7159 18f6 19       		.byte	0x19
 7160 18f7 AA       		.byte	0xaa
 7161 18f8 E4000000 		.4byte	0xe4
 7162 18fc 44       		.byte	0x44
 7163 18fd 09       		.uleb128 0x9
 7164 18fe 1B1D0000 		.4byte	.LASF427
 7165 1902 19       		.byte	0x19
 7166 1903 AB       		.byte	0xab
 7167 1904 E4000000 		.4byte	0xe4
 7168 1908 48       		.byte	0x48
 7169 1909 00       		.byte	0
 7170 190a 02       		.uleb128 0x2
 7171 190b 99220000 		.4byte	.LASF420
 7172 190f 19       		.byte	0x19
 7173 1910 AC       		.byte	0xac
 7174 1911 91180000 		.4byte	0x1891
 7175 1915 0C       		.uleb128 0xc
 7176 1916 44250000 		.4byte	.LASF428
 7177 191a 5C       		.byte	0x5c
 7178 191b 19       		.byte	0x19
 7179 191c B0       		.byte	0xb0
 7180 191d 5E190000 		.4byte	0x195e
ARM GAS  C:\Users\haske\AppData\Local\Temp\ccmHbbn5.s 			page 158


 7181 1921 09       		.uleb128 0x9
 7182 1922 08260000 		.4byte	.LASF354
 7183 1926 19       		.byte	0x19
 7184 1927 B1       		.byte	0xb1
 7185 1928 45170000 		.4byte	0x1745
 7186 192c 00       		.byte	0
 7187 192d 09       		.uleb128 0x9
 7188 192e 110E0000 		.4byte	.LASF429
 7189 1932 19       		.byte	0x19
 7190 1933 B2       		.byte	0xb2
 7191 1934 0A190000 		.4byte	0x190a
 7192 1938 04       		.byte	0x4
 7193 1939 09       		.uleb128 0x9
 7194 193a 3B2E0000 		.4byte	.LASF430
 7195 193e 19       		.byte	0x19
 7196 193f B3       		.byte	0xb3
 7197 1940 3C080000 		.4byte	0x83c
 7198 1944 50       		.byte	0x50
 7199 1945 09       		.uleb128 0x9
 7200 1946 E8160000 		.4byte	.LASF431
 7201 194a 19       		.byte	0x19
 7202 194b B4       		.byte	0xb4
 7203 194c E3190000 		.4byte	0x19e3
 7204 1950 54       		.byte	0x54
 7205 1951 09       		.uleb128 0x9
 7206 1952 75120000 		.4byte	.LASF432
 7207 1956 19       		.byte	0x19
 7208 1957 B5       		.byte	0xb5
 7209 1958 270F0000 		.4byte	0xf27
 7210 195c 58       		.byte	0x58
 7211 195d 00       		.byte	0
 7212 195e 0C       		.uleb128 0xc
 7213 195f 422E0000 		.4byte	.LASF433
 7214 1963 20       		.byte	0x20
 7215 1964 1A       		.byte	0x1a
 7216 1965 3B       		.byte	0x3b
 7217 1966 E3190000 		.4byte	0x19e3
 7218 196a 09       		.uleb128 0x9
 7219 196b 90150000 		.4byte	.LASF434
 7220 196f 1A       		.byte	0x1a
 7221 1970 3C       		.byte	0x3c
 7222 1971 2F110000 		.4byte	0x112f
 7223 1975 00       		.byte	0
 7224 1976 09       		.uleb128 0x9
 7225 1977 E82E0000 		.4byte	.LASF435
 7226 197b 1A       		.byte	0x1a
 7227 197c 3D       		.byte	0x3d
 7228 197d BC150000 		.4byte	0x15bc
 7229 1981 0C       		.byte	0xc
 7230 1982 09       		.uleb128 0x9
 7231 1983 FA1E0000 		.4byte	.LASF436
 7232 1987 1A       		.byte	0x1a
 7233 1988 3F       		.byte	0x3f
 7234 1989 0C200000 		.4byte	0x200c
 7235 198d 10       		.byte	0x10
 7236 198e 09       		.uleb128 0x9
 7237 198f 6A070000 		.4byte	.LASF437
ARM GAS  C:\Users\haske\AppData\Local\Temp\ccmHbbn5.s 			page 159


 7238 1993 1A       		.byte	0x1a
 7239 1994 40       		.byte	0x40
 7240 1995 28200000 		.4byte	0x2028
 7241 1999 14       		.byte	0x14
 7242 199a 09       		.uleb128 0x9
 7243 199b 312C0000 		.4byte	.LASF64
 7244 199f 1A       		.byte	0x1a
 7245 19a0 45       		.byte	0x45
 7246 19a1 7A030000 		.4byte	0x37a
 7247 19a5 18       		.byte	0x18
 7248 19a6 0B       		.uleb128 0xb
 7249 19a7 22020000 		.4byte	.LASF438
 7250 19ab 1A       		.byte	0x1a
 7251 19ac 48       		.byte	0x48
 7252 19ad B8000000 		.4byte	0xb8
 7253 19b1 01       		.byte	0x1
 7254 19b2 01       		.byte	0x1
 7255 19b3 07       		.byte	0x7
 7256 19b4 1C       		.byte	0x1c
 7257 19b5 0B       		.uleb128 0xb
 7258 19b6 74210000 		.4byte	.LASF439
 7259 19ba 1A       		.byte	0x1a
 7260 19bb 49       		.byte	0x49
 7261 19bc B8000000 		.4byte	0xb8
 7262 19c0 01       		.byte	0x1
 7263 19c1 01       		.byte	0x1
 7264 19c2 06       		.byte	0x6
 7265 19c3 1C       		.byte	0x1c
 7266 19c4 0B       		.uleb128 0xb
 7267 19c5 042D0000 		.4byte	.LASF440
 7268 19c9 1A       		.byte	0x1a
 7269 19ca 4A       		.byte	0x4a
 7270 19cb B8000000 		.4byte	0xb8
 7271 19cf 01       		.byte	0x1
 7272 19d0 01       		.byte	0x1
 7273 19d1 05       		.byte	0x5
 7274 19d2 1C       		.byte	0x1c
 7275 19d3 0B       		.uleb128 0xb
 7276 19d4 BF220000 		.4byte	.LASF441
 7277 19d8 1A       		.byte	0x1a
 7278 19d9 4C       		.byte	0x4c
 7279 19da B8000000 		.4byte	0xb8
 7280 19de 01       		.byte	0x1
 7281 19df 01       		.byte	0x1
 7282 19e0 04       		.byte	0x4
 7283 19e1 1C       		.byte	0x1c
 7284 19e2 00       		.byte	0
 7285 19e3 0D       		.uleb128 0xd
 7286 19e4 04       		.byte	0x4
 7287 19e5 5E190000 		.4byte	0x195e
 7288 19e9 02       		.uleb128 0x2
 7289 19ea 6A120000 		.4byte	.LASF442
 7290 19ee 19       		.byte	0x19
 7291 19ef B7       		.byte	0xb7
 7292 19f0 15190000 		.4byte	0x1915
 7293 19f4 02       		.uleb128 0x2
 7294 19f5 CA060000 		.4byte	.LASF443
ARM GAS  C:\Users\haske\AppData\Local\Temp\ccmHbbn5.s 			page 160


 7295 19f9 0E       		.byte	0xe
 7296 19fa 3C       		.byte	0x3c
 7297 19fb CE000000 		.4byte	0xce
 7298 19ff 07       		.uleb128 0x7
 7299 1a00 04       		.byte	0x4
 7300 1a01 A6000000 		.4byte	0xa6
 7301 1a05 0E       		.byte	0xe
 7302 1a06 44       		.byte	0x44
 7303 1a07 631A0000 		.4byte	0x1a63
 7304 1a0b 08       		.uleb128 0x8
 7305 1a0c 40200000 		.4byte	.LASF444
 7306 1a10 00       		.byte	0
 7307 1a11 24       		.uleb128 0x24
 7308 1a12 CB1A0000 		.4byte	.LASF445
 7309 1a16 00000100 		.4byte	0x10000
 7310 1a1a 24       		.uleb128 0x24
 7311 1a1b B91A0000 		.4byte	.LASF446
 7312 1a1f 00000200 		.4byte	0x20000
 7313 1a23 24       		.uleb128 0x24
 7314 1a24 EE160000 		.4byte	.LASF447
 7315 1a28 00000300 		.4byte	0x30000
 7316 1a2c 24       		.uleb128 0x24
 7317 1a2d D3040000 		.4byte	.LASF448
 7318 1a31 00000400 		.4byte	0x40000
 7319 1a35 24       		.uleb128 0x24
 7320 1a36 FD200000 		.4byte	.LASF449
 7321 1a3a 00000500 		.4byte	0x50000
 7322 1a3e 24       		.uleb128 0x24
 7323 1a3f 8C2C0000 		.4byte	.LASF450
 7324 1a43 00000600 		.4byte	0x60000
 7325 1a47 24       		.uleb128 0x24
 7326 1a48 FE2A0000 		.4byte	.LASF451
 7327 1a4c 00000700 		.4byte	0x70000
 7328 1a50 24       		.uleb128 0x24
 7329 1a51 C0280000 		.4byte	.LASF452
 7330 1a55 00000800 		.4byte	0x80000
 7331 1a59 24       		.uleb128 0x24
 7332 1a5a 770E0000 		.4byte	.LASF453
 7333 1a5e 00000F00 		.4byte	0xf0000
 7334 1a62 00       		.byte	0
 7335 1a63 02       		.uleb128 0x2
 7336 1a64 9B080000 		.4byte	.LASF454
 7337 1a68 0E       		.byte	0xe
 7338 1a69 53       		.byte	0x53
 7339 1a6a E4000000 		.4byte	0xe4
 7340 1a6e 07       		.uleb128 0x7
 7341 1a6f 04       		.byte	0x4
 7342 1a70 A6000000 		.4byte	0xa6
 7343 1a74 0E       		.byte	0xe
 7344 1a75 59       		.byte	0x59
 7345 1a76 561B0000 		.4byte	0x1b56
 7346 1a7a 08       		.uleb128 0x8
 7347 1a7b CE150000 		.4byte	.LASF455
 7348 1a7f 01       		.byte	0x1
 7349 1a80 08       		.uleb128 0x8
 7350 1a81 6F1A0000 		.4byte	.LASF456
 7351 1a85 02       		.byte	0x2
ARM GAS  C:\Users\haske\AppData\Local\Temp\ccmHbbn5.s 			page 161


 7352 1a86 08       		.uleb128 0x8
 7353 1a87 4C1D0000 		.4byte	.LASF457
 7354 1a8b 04       		.byte	0x4
 7355 1a8c 08       		.uleb128 0x8
 7356 1a8d 53150000 		.4byte	.LASF458
 7357 1a91 08       		.byte	0x8
 7358 1a92 08       		.uleb128 0x8
 7359 1a93 DA050000 		.4byte	.LASF459
 7360 1a97 10       		.byte	0x10
 7361 1a98 08       		.uleb128 0x8
 7362 1a99 F4190000 		.4byte	.LASF460
 7363 1a9d 20       		.byte	0x20
 7364 1a9e 08       		.uleb128 0x8
 7365 1a9f 7D140000 		.4byte	.LASF461
 7366 1aa3 40       		.byte	0x40
 7367 1aa4 08       		.uleb128 0x8
 7368 1aa5 D52D0000 		.4byte	.LASF462
 7369 1aa9 80       		.byte	0x80
 7370 1aaa 18       		.uleb128 0x18
 7371 1aab F7230000 		.4byte	.LASF463
 7372 1aaf 0001     		.2byte	0x100
 7373 1ab1 18       		.uleb128 0x18
 7374 1ab2 1C130000 		.4byte	.LASF464
 7375 1ab6 0002     		.2byte	0x200
 7376 1ab8 18       		.uleb128 0x18
 7377 1ab9 3B090000 		.4byte	.LASF465
 7378 1abd 0003     		.2byte	0x300
 7379 1abf 18       		.uleb128 0x18
 7380 1ac0 301D0000 		.4byte	.LASF466
 7381 1ac4 0004     		.2byte	0x400
 7382 1ac6 18       		.uleb128 0x18
 7383 1ac7 4C070000 		.4byte	.LASF467
 7384 1acb 0008     		.2byte	0x800
 7385 1acd 18       		.uleb128 0x18
 7386 1ace 76170000 		.4byte	.LASF468
 7387 1ad2 0010     		.2byte	0x1000
 7388 1ad4 18       		.uleb128 0x18
 7389 1ad5 F3260000 		.4byte	.LASF469
 7390 1ad9 0020     		.2byte	0x2000
 7391 1adb 18       		.uleb128 0x18
 7392 1adc CD0F0000 		.4byte	.LASF470
 7393 1ae0 0040     		.2byte	0x4000
 7394 1ae2 18       		.uleb128 0x18
 7395 1ae3 38190000 		.4byte	.LASF471
 7396 1ae7 0080     		.2byte	0x8000
 7397 1ae9 24       		.uleb128 0x24
 7398 1aea D5060000 		.4byte	.LASF472
 7399 1aee 00000100 		.4byte	0x10000
 7400 1af2 24       		.uleb128 0x24
 7401 1af3 2C1E0000 		.4byte	.LASF473
 7402 1af7 00000200 		.4byte	0x20000
 7403 1afb 24       		.uleb128 0x24
 7404 1afc 07130000 		.4byte	.LASF474
 7405 1b00 00000400 		.4byte	0x40000
 7406 1b04 24       		.uleb128 0x24
 7407 1b05 B0130000 		.4byte	.LASF475
 7408 1b09 00000800 		.4byte	0x80000
ARM GAS  C:\Users\haske\AppData\Local\Temp\ccmHbbn5.s 			page 162


 7409 1b0d 24       		.uleb128 0x24
 7410 1b0e DB1E0000 		.4byte	.LASF476
 7411 1b12 00008000 		.4byte	0x800000
 7412 1b16 24       		.uleb128 0x24
 7413 1b17 E4080000 		.4byte	.LASF477
 7414 1b1b 00000001 		.4byte	0x1000000
 7415 1b1f 24       		.uleb128 0x24
 7416 1b20 6F090000 		.4byte	.LASF478
 7417 1b24 00000002 		.4byte	0x2000000
 7418 1b28 24       		.uleb128 0x24
 7419 1b29 84090000 		.4byte	.LASF479
 7420 1b2d 00000004 		.4byte	0x4000000
 7421 1b31 24       		.uleb128 0x24
 7422 1b32 37110000 		.4byte	.LASF480
 7423 1b36 00000008 		.4byte	0x8000000
 7424 1b3a 24       		.uleb128 0x24
 7425 1b3b 4A110000 		.4byte	.LASF481
 7426 1b3f 00000010 		.4byte	0x10000000
 7427 1b43 24       		.uleb128 0x24
 7428 1b44 5D110000 		.4byte	.LASF482
 7429 1b48 00000020 		.4byte	0x20000000
 7430 1b4c 24       		.uleb128 0x24
 7431 1b4d 70110000 		.4byte	.LASF483
 7432 1b51 00000040 		.4byte	0x40000000
 7433 1b55 00       		.byte	0
 7434 1b56 02       		.uleb128 0x2
 7435 1b57 232B0000 		.4byte	.LASF484
 7436 1b5b 0E       		.byte	0xe
 7437 1b5c 7D       		.byte	0x7d
 7438 1b5d E4000000 		.4byte	0xe4
 7439 1b61 02       		.uleb128 0x2
 7440 1b62 BC010000 		.4byte	.LASF485
 7441 1b66 1B       		.byte	0x1b
 7442 1b67 26       		.byte	0x26
 7443 1b68 B8000000 		.4byte	0xb8
 7444 1b6c 02       		.uleb128 0x2
 7445 1b6d 881F0000 		.4byte	.LASF486
 7446 1b71 1B       		.byte	0x1b
 7447 1b72 30       		.byte	0x30
 7448 1b73 B8000000 		.4byte	0xb8
 7449 1b77 05       		.uleb128 0x5
 7450 1b78 08       		.byte	0x8
 7451 1b79 1C       		.byte	0x1c
 7452 1b7a 27       		.byte	0x27
 7453 1b7b B91B0000 		.4byte	0x1bb9
 7454 1b7f 09       		.uleb128 0x9
 7455 1b80 711F0000 		.4byte	.LASF487
 7456 1b84 1C       		.byte	0x1c
 7457 1b85 28       		.byte	0x28
 7458 1b86 B91B0000 		.4byte	0x1bb9
 7459 1b8a 00       		.byte	0
 7460 1b8b 0B       		.uleb128 0xb
 7461 1b8c CD2C0000 		.4byte	.LASF488
 7462 1b90 1C       		.byte	0x1c
 7463 1b91 29       		.byte	0x29
 7464 1b92 E4000000 		.4byte	0xe4
 7465 1b96 04       		.byte	0x4
ARM GAS  C:\Users\haske\AppData\Local\Temp\ccmHbbn5.s 			page 163


 7466 1b97 18       		.byte	0x18
 7467 1b98 08       		.byte	0x8
 7468 1b99 04       		.byte	0x4
 7469 1b9a 0B       		.uleb128 0xb
 7470 1b9b 66030000 		.4byte	.LASF489
 7471 1b9f 1C       		.byte	0x1c
 7472 1ba0 2A       		.byte	0x2a
 7473 1ba1 E4000000 		.4byte	0xe4
 7474 1ba5 04       		.byte	0x4
 7475 1ba6 01       		.byte	0x1
 7476 1ba7 07       		.byte	0x7
 7477 1ba8 04       		.byte	0x4
 7478 1ba9 0B       		.uleb128 0xb
 7479 1baa 2E120000 		.4byte	.LASF490
 7480 1bae 1C       		.byte	0x1c
 7481 1baf 2B       		.byte	0x2b
 7482 1bb0 E4000000 		.4byte	0xe4
 7483 1bb4 04       		.byte	0x4
 7484 1bb5 01       		.byte	0x1
 7485 1bb6 06       		.byte	0x6
 7486 1bb7 04       		.byte	0x4
 7487 1bb8 00       		.byte	0
 7488 1bb9 0D       		.uleb128 0xd
 7489 1bba 04       		.byte	0x4
 7490 1bbb 25080000 		.4byte	0x825
 7491 1bbf 02       		.uleb128 0x2
 7492 1bc0 A50E0000 		.4byte	.LASF491
 7493 1bc4 1C       		.byte	0x1c
 7494 1bc5 2C       		.byte	0x2c
 7495 1bc6 771B0000 		.4byte	0x1b77
 7496 1bca 05       		.uleb128 0x5
 7497 1bcb 48       		.byte	0x48
 7498 1bcc 1D       		.byte	0x1d
 7499 1bcd 2A       		.byte	0x2a
 7500 1bce A81C0000 		.4byte	0x1ca8
 7501 1bd2 09       		.uleb128 0x9
 7502 1bd3 542A0000 		.4byte	.LASF349
 7503 1bd7 1D       		.byte	0x1d
 7504 1bd8 2B       		.byte	0x2b
 7505 1bd9 78140000 		.4byte	0x1478
 7506 1bdd 00       		.byte	0
 7507 1bde 09       		.uleb128 0x9
 7508 1bdf 131B0000 		.4byte	.LASF198
 7509 1be3 1D       		.byte	0x1d
 7510 1be4 2C       		.byte	0x2c
 7511 1be5 361D0000 		.4byte	0x1d36
 7512 1be9 04       		.byte	0x4
 7513 1bea 09       		.uleb128 0x9
 7514 1beb FD030000 		.4byte	.LASF388
 7515 1bef 1D       		.byte	0x1d
 7516 1bf0 2D       		.byte	0x2d
 7517 1bf1 E4000000 		.4byte	0xe4
 7518 1bf5 08       		.byte	0x8
 7519 1bf6 09       		.uleb128 0x9
 7520 1bf7 FA060000 		.4byte	.LASF492
 7521 1bfb 1D       		.byte	0x1d
 7522 1bfc 2E       		.byte	0x2e
ARM GAS  C:\Users\haske\AppData\Local\Temp\ccmHbbn5.s 			page 164


 7523 1bfd 4C0D0000 		.4byte	0xd4c
 7524 1c01 0C       		.byte	0xc
 7525 1c02 09       		.uleb128 0x9
 7526 1c03 1D110000 		.4byte	.LASF493
 7527 1c07 1D       		.byte	0x1d
 7528 1c08 30       		.byte	0x30
 7529 1c09 411D0000 		.4byte	0x1d41
 7530 1c0d 10       		.byte	0x10
 7531 1c0e 09       		.uleb128 0x9
 7532 1c0f 681B0000 		.4byte	.LASF494
 7533 1c13 1D       		.byte	0x1d
 7534 1c14 32       		.byte	0x32
 7535 1c15 471D0000 		.4byte	0x1d47
 7536 1c19 14       		.byte	0x14
 7537 1c1a 09       		.uleb128 0x9
 7538 1c1b 6C260000 		.4byte	.LASF495
 7539 1c1f 1D       		.byte	0x1d
 7540 1c20 34       		.byte	0x34
 7541 1c21 4D1D0000 		.4byte	0x1d4d
 7542 1c25 18       		.byte	0x18
 7543 1c26 09       		.uleb128 0x9
 7544 1c27 80120000 		.4byte	.LASF496
 7545 1c2b 1D       		.byte	0x1d
 7546 1c2c 36       		.byte	0x36
 7547 1c2d 531D0000 		.4byte	0x1d53
 7548 1c31 1C       		.byte	0x1c
 7549 1c32 09       		.uleb128 0x9
 7550 1c33 8C1D0000 		.4byte	.LASF497
 7551 1c37 1D       		.byte	0x1d
 7552 1c38 38       		.byte	0x38
 7553 1c39 591D0000 		.4byte	0x1d59
 7554 1c3d 20       		.byte	0x20
 7555 1c3e 06       		.uleb128 0x6
 7556 1c3f 703100   		.ascii	"p1\000"
 7557 1c42 1D       		.byte	0x1d
 7558 1c43 3A       		.byte	0x3a
 7559 1c44 270F0000 		.4byte	0xf27
 7560 1c48 24       		.byte	0x24
 7561 1c49 06       		.uleb128 0x6
 7562 1c4a 703200   		.ascii	"p2\000"
 7563 1c4d 1D       		.byte	0x1d
 7564 1c4e 3B       		.byte	0x3b
 7565 1c4f 270F0000 		.4byte	0xf27
 7566 1c53 28       		.byte	0x28
 7567 1c54 09       		.uleb128 0x9
 7568 1c55 6A0F0000 		.4byte	.LASF498
 7569 1c59 1D       		.byte	0x1d
 7570 1c5a 3C       		.byte	0x3c
 7571 1c5b B2030000 		.4byte	0x3b2
 7572 1c5f 2C       		.byte	0x2c
 7573 1c60 09       		.uleb128 0x9
 7574 1c61 C4290000 		.4byte	.LASF499
 7575 1c65 1D       		.byte	0x1d
 7576 1c66 3D       		.byte	0x3d
 7577 1c67 E4000000 		.4byte	0xe4
 7578 1c6b 30       		.byte	0x30
 7579 1c6c 09       		.uleb128 0x9
ARM GAS  C:\Users\haske\AppData\Local\Temp\ccmHbbn5.s 			page 165


 7580 1c6d 1C2E0000 		.4byte	.LASF500
 7581 1c71 1D       		.byte	0x1d
 7582 1c72 3E       		.byte	0x3e
 7583 1c73 E4000000 		.4byte	0xe4
 7584 1c77 34       		.byte	0x34
 7585 1c78 06       		.uleb128 0x6
 7586 1c79 696400   		.ascii	"id\000"
 7587 1c7c 1D       		.byte	0x1d
 7588 1c7d 3F       		.byte	0x3f
 7589 1c7e E4000000 		.4byte	0xe4
 7590 1c82 38       		.byte	0x38
 7591 1c83 09       		.uleb128 0x9
 7592 1c84 5A020000 		.4byte	.LASF211
 7593 1c88 1D       		.byte	0x1d
 7594 1c89 40       		.byte	0x40
 7595 1c8a 01010000 		.4byte	0x101
 7596 1c8e 3C       		.byte	0x3c
 7597 1c8f 09       		.uleb128 0x9
 7598 1c90 0D0C0000 		.4byte	.LASF186
 7599 1c94 1D       		.byte	0x1d
 7600 1c95 41       		.byte	0x41
 7601 1c96 D9000000 		.4byte	0xd9
 7602 1c9a 40       		.byte	0x40
 7603 1c9b 09       		.uleb128 0x9
 7604 1c9c 81100000 		.4byte	.LASF501
 7605 1ca0 1D       		.byte	0x1d
 7606 1ca1 42       		.byte	0x42
 7607 1ca2 73030000 		.4byte	0x373
 7608 1ca6 44       		.byte	0x44
 7609 1ca7 00       		.byte	0
 7610 1ca8 0C       		.uleb128 0xc
 7611 1ca9 18220000 		.4byte	.LASF502
 7612 1cad 1C       		.byte	0x1c
 7613 1cae 1E       		.byte	0x1e
 7614 1caf 31       		.byte	0x31
 7615 1cb0 361D0000 		.4byte	0x1d36
 7616 1cb4 09       		.uleb128 0x9
 7617 1cb5 651E0000 		.4byte	.LASF503
 7618 1cb9 1E       		.byte	0x1e
 7619 1cba 32       		.byte	0x32
 7620 1cbb 361D0000 		.4byte	0x1d36
 7621 1cbf 00       		.byte	0
 7622 1cc0 09       		.uleb128 0x9
 7623 1cc1 BA030000 		.4byte	.LASF504
 7624 1cc5 1E       		.byte	0x1e
 7625 1cc6 33       		.byte	0x33
 7626 1cc7 211E0000 		.4byte	0x1e21
 7627 1ccb 04       		.byte	0x4
 7628 1ccc 09       		.uleb128 0x9
 7629 1ccd 92250000 		.4byte	.LASF505
 7630 1cd1 1E       		.byte	0x1e
 7631 1cd2 34       		.byte	0x34
 7632 1cd3 211E0000 		.4byte	0x1e21
 7633 1cd7 08       		.byte	0x8
 7634 1cd8 09       		.uleb128 0x9
 7635 1cd9 312C0000 		.4byte	.LASF64
 7636 1cdd 1E       		.byte	0x1e
ARM GAS  C:\Users\haske\AppData\Local\Temp\ccmHbbn5.s 			page 166


 7637 1cde 36       		.byte	0x36
 7638 1cdf 7A030000 		.4byte	0x37a
 7639 1ce3 0C       		.byte	0xc
 7640 1ce4 09       		.uleb128 0x9
 7641 1ce5 52180000 		.4byte	.LASF506
 7642 1ce9 1E       		.byte	0x1e
 7643 1cea 38       		.byte	0x38
 7644 1ceb 371E0000 		.4byte	0x1e37
 7645 1cef 10       		.byte	0x10
 7646 1cf0 09       		.uleb128 0x9
 7647 1cf1 FD120000 		.4byte	.LASF507
 7648 1cf5 1E       		.byte	0x1e
 7649 1cf6 3A       		.byte	0x3a
 7650 1cf7 01010000 		.4byte	0x101
 7651 1cfb 14       		.byte	0x14
 7652 1cfc 09       		.uleb128 0x9
 7653 1cfd 5F2D0000 		.4byte	.LASF508
 7654 1d01 1E       		.byte	0x1e
 7655 1d02 3B       		.byte	0x3b
 7656 1d03 01010000 		.4byte	0x101
 7657 1d07 16       		.byte	0x16
 7658 1d08 0B       		.uleb128 0xb
 7659 1d09 24150000 		.4byte	.LASF509
 7660 1d0d 1E       		.byte	0x1e
 7661 1d0e 3C       		.byte	0x3c
 7662 1d0f E4000000 		.4byte	0xe4
 7663 1d13 04       		.byte	0x4
 7664 1d14 02       		.byte	0x2
 7665 1d15 1E       		.byte	0x1e
 7666 1d16 18       		.byte	0x18
 7667 1d17 0B       		.uleb128 0xb
 7668 1d18 6E060000 		.4byte	.LASF510
 7669 1d1c 1E       		.byte	0x1e
 7670 1d1d 3D       		.byte	0x3d
 7671 1d1e E4000000 		.4byte	0xe4
 7672 1d22 04       		.byte	0x4
 7673 1d23 02       		.byte	0x2
 7674 1d24 1C       		.byte	0x1c
 7675 1d25 18       		.byte	0x18
 7676 1d26 0B       		.uleb128 0xb
 7677 1d27 69160000 		.4byte	.LASF511
 7678 1d2b 1E       		.byte	0x1e
 7679 1d2c 3E       		.byte	0x3e
 7680 1d2d E4000000 		.4byte	0xe4
 7681 1d31 04       		.byte	0x4
 7682 1d32 10       		.byte	0x10
 7683 1d33 0C       		.byte	0xc
 7684 1d34 18       		.byte	0x18
 7685 1d35 00       		.byte	0
 7686 1d36 0D       		.uleb128 0xd
 7687 1d37 04       		.byte	0x4
 7688 1d38 3C1D0000 		.4byte	0x1d3c
 7689 1d3c 0E       		.uleb128 0xe
 7690 1d3d A81C0000 		.4byte	0x1ca8
 7691 1d41 0D       		.uleb128 0xd
 7692 1d42 04       		.byte	0x4
 7693 1d43 560A0000 		.4byte	0xa56
ARM GAS  C:\Users\haske\AppData\Local\Temp\ccmHbbn5.s 			page 167


 7694 1d47 0D       		.uleb128 0xd
 7695 1d48 04       		.byte	0x4
 7696 1d49 3B0B0000 		.4byte	0xb3b
 7697 1d4d 0D       		.uleb128 0xd
 7698 1d4e 04       		.byte	0x4
 7699 1d4f 4D0C0000 		.4byte	0xc4d
 7700 1d53 0D       		.uleb128 0xd
 7701 1d54 04       		.byte	0x4
 7702 1d55 C10B0000 		.4byte	0xbc1
 7703 1d59 0D       		.uleb128 0xd
 7704 1d5a 04       		.byte	0x4
 7705 1d5b C70C0000 		.4byte	0xcc7
 7706 1d5f 02       		.uleb128 0x2
 7707 1d60 AB170000 		.4byte	.LASF512
 7708 1d64 1D       		.byte	0x1d
 7709 1d65 43       		.byte	0x43
 7710 1d66 CA1B0000 		.4byte	0x1bca
 7711 1d6a 07       		.uleb128 0x7
 7712 1d6b 01       		.byte	0x1
 7713 1d6c 42000000 		.4byte	0x42
 7714 1d70 1E       		.byte	0x1e
 7715 1d71 20       		.byte	0x20
 7716 1d72 891D0000 		.4byte	0x1d89
 7717 1d76 08       		.uleb128 0x8
 7718 1d77 3A0F0000 		.4byte	.LASF513
 7719 1d7b 00       		.byte	0
 7720 1d7c 08       		.uleb128 0x8
 7721 1d7d 341B0000 		.4byte	.LASF514
 7722 1d81 01       		.byte	0x1
 7723 1d82 08       		.uleb128 0x8
 7724 1d83 4D160000 		.4byte	.LASF515
 7725 1d87 02       		.byte	0x2
 7726 1d88 00       		.byte	0
 7727 1d89 0D       		.uleb128 0xd
 7728 1d8a 04       		.byte	0x4
 7729 1d8b 8F1D0000 		.4byte	0x1d8f
 7730 1d8f 0C       		.uleb128 0xc
 7731 1d90 96180000 		.4byte	.LASF516
 7732 1d94 1C       		.byte	0x1c
 7733 1d95 1F       		.byte	0x1f
 7734 1d96 5E       		.byte	0x5e
 7735 1d97 111E0000 		.4byte	0x1e11
 7736 1d9b 09       		.uleb128 0x9
 7737 1d9c C6140000 		.4byte	.LASF517
 7738 1da0 1F       		.byte	0x1f
 7739 1da1 5F       		.byte	0x5f
 7740 1da2 3C080000 		.4byte	0x83c
 7741 1da6 00       		.byte	0
 7742 1da7 09       		.uleb128 0x9
 7743 1da8 9F270000 		.4byte	.LASF518
 7744 1dac 1F       		.byte	0x1f
 7745 1dad 60       		.byte	0x60
 7746 1dae 3C080000 		.4byte	0x83c
 7747 1db2 04       		.byte	0x4
 7748 1db3 09       		.uleb128 0x9
 7749 1db4 08200000 		.4byte	.LASF519
 7750 1db8 1F       		.byte	0x1f
ARM GAS  C:\Users\haske\AppData\Local\Temp\ccmHbbn5.s 			page 168


 7751 1db9 61       		.byte	0x61
 7752 1dba 6F1F0000 		.4byte	0x1f6f
 7753 1dbe 08       		.byte	0x8
 7754 1dbf 09       		.uleb128 0x9
 7755 1dc0 312C0000 		.4byte	.LASF64
 7756 1dc4 1F       		.byte	0x1f
 7757 1dc5 62       		.byte	0x62
 7758 1dc6 7A030000 		.4byte	0x37a
 7759 1dca 0C       		.byte	0xc
 7760 1dcb 09       		.uleb128 0x9
 7761 1dcc C0140000 		.4byte	.LASF520
 7762 1dd0 1F       		.byte	0x1f
 7763 1dd1 63       		.byte	0x63
 7764 1dd2 7A030000 		.4byte	0x37a
 7765 1dd6 10       		.byte	0x10
 7766 1dd7 09       		.uleb128 0x9
 7767 1dd8 212E0000 		.4byte	.LASF521
 7768 1ddc 1F       		.byte	0x1f
 7769 1ddd 64       		.byte	0x64
 7770 1dde 891D0000 		.4byte	0x1d89
 7771 1de2 14       		.byte	0x14
 7772 1de3 0B       		.uleb128 0xb
 7773 1de4 D9180000 		.4byte	.LASF522
 7774 1de8 1F       		.byte	0x1f
 7775 1de9 65       		.byte	0x65
 7776 1dea B8000000 		.4byte	0xb8
 7777 1dee 01       		.byte	0x1
 7778 1def 01       		.byte	0x1
 7779 1df0 07       		.byte	0x7
 7780 1df1 18       		.byte	0x18
 7781 1df2 0B       		.uleb128 0xb
 7782 1df3 FD0B0000 		.4byte	.LASF523
 7783 1df7 1F       		.byte	0x1f
 7784 1df8 66       		.byte	0x66
 7785 1df9 B8000000 		.4byte	0xb8
 7786 1dfd 01       		.byte	0x1
 7787 1dfe 01       		.byte	0x1
 7788 1dff 06       		.byte	0x6
 7789 1e00 18       		.byte	0x18
 7790 1e01 0B       		.uleb128 0xb
 7791 1e02 E81D0000 		.4byte	.LASF524
 7792 1e06 1F       		.byte	0x1f
 7793 1e07 67       		.byte	0x67
 7794 1e08 B8000000 		.4byte	0xb8
 7795 1e0c 01       		.byte	0x1
 7796 1e0d 01       		.byte	0x1
 7797 1e0e 05       		.byte	0x5
 7798 1e0f 18       		.byte	0x18
 7799 1e10 00       		.byte	0
 7800 1e11 1F       		.uleb128 0x1f
 7801 1e12 211E0000 		.4byte	0x1e21
 7802 1e16 10       		.uleb128 0x10
 7803 1e17 361D0000 		.4byte	0x1d36
 7804 1e1b 10       		.uleb128 0x10
 7805 1e1c 3C080000 		.4byte	0x83c
 7806 1e20 00       		.byte	0
 7807 1e21 0D       		.uleb128 0xd
ARM GAS  C:\Users\haske\AppData\Local\Temp\ccmHbbn5.s 			page 169


 7808 1e22 04       		.byte	0x4
 7809 1e23 111E0000 		.4byte	0x1e11
 7810 1e27 1F       		.uleb128 0x1f
 7811 1e28 371E0000 		.4byte	0x1e37
 7812 1e2c 10       		.uleb128 0x10
 7813 1e2d 361D0000 		.4byte	0x1d36
 7814 1e31 10       		.uleb128 0x10
 7815 1e32 891D0000 		.4byte	0x1d89
 7816 1e36 00       		.byte	0
 7817 1e37 0D       		.uleb128 0xd
 7818 1e38 04       		.byte	0x4
 7819 1e39 271E0000 		.4byte	0x1e27
 7820 1e3d 02       		.uleb128 0x2
 7821 1e3e BF110000 		.4byte	.LASF525
 7822 1e42 1E       		.byte	0x1e
 7823 1e43 3F       		.byte	0x3f
 7824 1e44 A81C0000 		.4byte	0x1ca8
 7825 1e48 07       		.uleb128 0x7
 7826 1e49 01       		.byte	0x1
 7827 1e4a 42000000 		.4byte	0x42
 7828 1e4e 1F       		.byte	0x1f
 7829 1e4f 20       		.byte	0x20
 7830 1e50 6F1F0000 		.4byte	0x1f6f
 7831 1e54 08       		.uleb128 0x8
 7832 1e55 0E060000 		.4byte	.LASF526
 7833 1e59 00       		.byte	0
 7834 1e5a 08       		.uleb128 0x8
 7835 1e5b AE200000 		.4byte	.LASF527
 7836 1e5f 01       		.byte	0x1
 7837 1e60 08       		.uleb128 0x8
 7838 1e61 1A1E0000 		.4byte	.LASF528
 7839 1e65 02       		.byte	0x2
 7840 1e66 08       		.uleb128 0x8
 7841 1e67 3B2C0000 		.4byte	.LASF529
 7842 1e6b 03       		.byte	0x3
 7843 1e6c 08       		.uleb128 0x8
 7844 1e6d 701E0000 		.4byte	.LASF530
 7845 1e71 04       		.byte	0x4
 7846 1e72 08       		.uleb128 0x8
 7847 1e73 13040000 		.4byte	.LASF531
 7848 1e77 05       		.byte	0x5
 7849 1e78 08       		.uleb128 0x8
 7850 1e79 BE1E0000 		.4byte	.LASF532
 7851 1e7d 06       		.byte	0x6
 7852 1e7e 08       		.uleb128 0x8
 7853 1e7f 83110000 		.4byte	.LASF533
 7854 1e83 07       		.byte	0x7
 7855 1e84 08       		.uleb128 0x8
 7856 1e85 5F2E0000 		.4byte	.LASF534
 7857 1e89 08       		.byte	0x8
 7858 1e8a 08       		.uleb128 0x8
 7859 1e8b 3E1A0000 		.4byte	.LASF535
 7860 1e8f 09       		.byte	0x9
 7861 1e90 08       		.uleb128 0x8
 7862 1e91 46020000 		.4byte	.LASF536
 7863 1e95 0A       		.byte	0xa
 7864 1e96 08       		.uleb128 0x8
ARM GAS  C:\Users\haske\AppData\Local\Temp\ccmHbbn5.s 			page 170


 7865 1e97 BF200000 		.4byte	.LASF537
 7866 1e9b 0B       		.byte	0xb
 7867 1e9c 08       		.uleb128 0x8
 7868 1e9d 02040000 		.4byte	.LASF538
 7869 1ea1 0C       		.byte	0xc
 7870 1ea2 08       		.uleb128 0x8
 7871 1ea3 DF2B0000 		.4byte	.LASF539
 7872 1ea7 0D       		.byte	0xd
 7873 1ea8 08       		.uleb128 0x8
 7874 1ea9 D62C0000 		.4byte	.LASF540
 7875 1ead 0E       		.byte	0xe
 7876 1eae 08       		.uleb128 0x8
 7877 1eaf 22290000 		.4byte	.LASF541
 7878 1eb3 0F       		.byte	0xf
 7879 1eb4 08       		.uleb128 0x8
 7880 1eb5 0E140000 		.4byte	.LASF542
 7881 1eb9 10       		.byte	0x10
 7882 1eba 08       		.uleb128 0x8
 7883 1ebb 510D0000 		.4byte	.LASF543
 7884 1ebf 11       		.byte	0x11
 7885 1ec0 08       		.uleb128 0x8
 7886 1ec1 D50C0000 		.4byte	.LASF544
 7887 1ec5 12       		.byte	0x12
 7888 1ec6 08       		.uleb128 0x8
 7889 1ec7 620C0000 		.4byte	.LASF545
 7890 1ecb 13       		.byte	0x13
 7891 1ecc 08       		.uleb128 0x8
 7892 1ecd AE000000 		.4byte	.LASF546
 7893 1ed1 14       		.byte	0x14
 7894 1ed2 08       		.uleb128 0x8
 7895 1ed3 F6090000 		.4byte	.LASF547
 7896 1ed7 15       		.byte	0x15
 7897 1ed8 08       		.uleb128 0x8
 7898 1ed9 E4110000 		.4byte	.LASF548
 7899 1edd 16       		.byte	0x16
 7900 1ede 08       		.uleb128 0x8
 7901 1edf 1B1B0000 		.4byte	.LASF549
 7902 1ee3 17       		.byte	0x17
 7903 1ee4 08       		.uleb128 0x8
 7904 1ee5 E22A0000 		.4byte	.LASF550
 7905 1ee9 18       		.byte	0x18
 7906 1eea 08       		.uleb128 0x8
 7907 1eeb 18270000 		.4byte	.LASF551
 7908 1eef 19       		.byte	0x19
 7909 1ef0 08       		.uleb128 0x8
 7910 1ef1 2F270000 		.4byte	.LASF552
 7911 1ef5 1A       		.byte	0x1a
 7912 1ef6 08       		.uleb128 0x8
 7913 1ef7 EB070000 		.4byte	.LASF553
 7914 1efb 1B       		.byte	0x1b
 7915 1efc 08       		.uleb128 0x8
 7916 1efd 7C1C0000 		.4byte	.LASF554
 7917 1f01 1C       		.byte	0x1c
 7918 1f02 08       		.uleb128 0x8
 7919 1f03 12020000 		.4byte	.LASF555
 7920 1f07 1D       		.byte	0x1d
 7921 1f08 08       		.uleb128 0x8
ARM GAS  C:\Users\haske\AppData\Local\Temp\ccmHbbn5.s 			page 171


 7922 1f09 3C160000 		.4byte	.LASF556
 7923 1f0d 1E       		.byte	0x1e
 7924 1f0e 08       		.uleb128 0x8
 7925 1f0f C92A0000 		.4byte	.LASF557
 7926 1f13 1F       		.byte	0x1f
 7927 1f14 08       		.uleb128 0x8
 7928 1f15 CF200000 		.4byte	.LASF558
 7929 1f19 20       		.byte	0x20
 7930 1f1a 08       		.uleb128 0x8
 7931 1f1b 031B0000 		.4byte	.LASF559
 7932 1f1f 21       		.byte	0x21
 7933 1f20 08       		.uleb128 0x8
 7934 1f21 1B030000 		.4byte	.LASF560
 7935 1f25 22       		.byte	0x22
 7936 1f26 08       		.uleb128 0x8
 7937 1f27 6A040000 		.4byte	.LASF561
 7938 1f2b 23       		.byte	0x23
 7939 1f2c 08       		.uleb128 0x8
 7940 1f2d D1160000 		.4byte	.LASF562
 7941 1f31 24       		.byte	0x24
 7942 1f32 08       		.uleb128 0x8
 7943 1f33 7C2D0000 		.4byte	.LASF563
 7944 1f37 25       		.byte	0x25
 7945 1f38 08       		.uleb128 0x8
 7946 1f39 CD1D0000 		.4byte	.LASF564
 7947 1f3d 26       		.byte	0x26
 7948 1f3e 08       		.uleb128 0x8
 7949 1f3f 5B0E0000 		.4byte	.LASF565
 7950 1f43 27       		.byte	0x27
 7951 1f44 08       		.uleb128 0x8
 7952 1f45 C1240000 		.4byte	.LASF566
 7953 1f49 28       		.byte	0x28
 7954 1f4a 08       		.uleb128 0x8
 7955 1f4b 312B0000 		.4byte	.LASF567
 7956 1f4f 29       		.byte	0x29
 7957 1f50 08       		.uleb128 0x8
 7958 1f51 B22A0000 		.4byte	.LASF568
 7959 1f55 2A       		.byte	0x2a
 7960 1f56 08       		.uleb128 0x8
 7961 1f57 8F2B0000 		.4byte	.LASF569
 7962 1f5b 2B       		.byte	0x2b
 7963 1f5c 08       		.uleb128 0x8
 7964 1f5d DF090000 		.4byte	.LASF570
 7965 1f61 2C       		.byte	0x2c
 7966 1f62 08       		.uleb128 0x8
 7967 1f63 97280000 		.4byte	.LASF571
 7968 1f67 2D       		.byte	0x2d
 7969 1f68 08       		.uleb128 0x8
 7970 1f69 52140000 		.4byte	.LASF572
 7971 1f6d 80       		.byte	0x80
 7972 1f6e 00       		.byte	0
 7973 1f6f 02       		.uleb128 0x2
 7974 1f70 5B180000 		.4byte	.LASF573
 7975 1f74 1F       		.byte	0x1f
 7976 1f75 5C       		.byte	0x5c
 7977 1f76 481E0000 		.4byte	0x1e48
 7978 1f7a 02       		.uleb128 0x2
ARM GAS  C:\Users\haske\AppData\Local\Temp\ccmHbbn5.s 			page 172


 7979 1f7b FB020000 		.4byte	.LASF574
 7980 1f7f 1F       		.byte	0x1f
 7981 1f80 68       		.byte	0x68
 7982 1f81 8F1D0000 		.4byte	0x1d8f
 7983 1f85 0D       		.uleb128 0xd
 7984 1f86 04       		.byte	0x4
 7985 1f87 7A1F0000 		.4byte	0x1f7a
 7986 1f8b 05       		.uleb128 0x5
 7987 1f8c 08       		.byte	0x8
 7988 1f8d 1F       		.byte	0x1f
 7989 1f8e 78       		.byte	0x78
 7990 1f8f AC1F0000 		.4byte	0x1fac
 7991 1f93 09       		.uleb128 0x9
 7992 1f94 E4040000 		.4byte	.LASF382
 7993 1f98 1F       		.byte	0x1f
 7994 1f99 79       		.byte	0x79
 7995 1f9a 270F0000 		.4byte	0xf27
 7996 1f9e 00       		.byte	0
 7997 1f9f 06       		.uleb128 0x6
 7998 1fa0 72657300 		.ascii	"res\000"
 7999 1fa4 1F       		.byte	0x1f
 8000 1fa5 7A       		.byte	0x7a
 8001 1fa6 3B030000 		.4byte	0x33b
 8002 1faa 04       		.byte	0x4
 8003 1fab 00       		.byte	0
 8004 1fac 02       		.uleb128 0x2
 8005 1fad A5020000 		.4byte	.LASF575
 8006 1fb1 1F       		.byte	0x1f
 8007 1fb2 7B       		.byte	0x7b
 8008 1fb3 8B1F0000 		.4byte	0x1f8b
 8009 1fb7 07       		.uleb128 0x7
 8010 1fb8 01       		.byte	0x1
 8011 1fb9 42000000 		.4byte	0x42
 8012 1fbd 1A       		.byte	0x1a
 8013 1fbe 1D       		.byte	0x1d
 8014 1fbf 0C200000 		.4byte	0x200c
 8015 1fc3 08       		.uleb128 0x8
 8016 1fc4 A92D0000 		.4byte	.LASF576
 8017 1fc8 11       		.byte	0x11
 8018 1fc9 08       		.uleb128 0x8
 8019 1fca 3D240000 		.4byte	.LASF577
 8020 1fce 12       		.byte	0x12
 8021 1fcf 08       		.uleb128 0x8
 8022 1fd0 92000000 		.4byte	.LASF578
 8023 1fd4 13       		.byte	0x13
 8024 1fd5 08       		.uleb128 0x8
 8025 1fd6 83080000 		.4byte	.LASF579
 8026 1fda 14       		.byte	0x14
 8027 1fdb 08       		.uleb128 0x8
 8028 1fdc 49240000 		.4byte	.LASF580
 8029 1fe0 1B       		.byte	0x1b
 8030 1fe1 08       		.uleb128 0x8
 8031 1fe2 98070000 		.4byte	.LASF581
 8032 1fe6 7F       		.byte	0x7f
 8033 1fe7 08       		.uleb128 0x8
 8034 1fe8 CA0A0000 		.4byte	.LASF582
 8035 1fec 08       		.byte	0x8
ARM GAS  C:\Users\haske\AppData\Local\Temp\ccmHbbn5.s 			page 173


 8036 1fed 08       		.uleb128 0x8
 8037 1fee 8A190000 		.4byte	.LASF583
 8038 1ff2 0A       		.byte	0xa
 8039 1ff3 08       		.uleb128 0x8
 8040 1ff4 3A260000 		.4byte	.LASF584
 8041 1ff8 09       		.byte	0x9
 8042 1ff9 08       		.uleb128 0x8
 8043 1ffa 75260000 		.4byte	.LASF585
 8044 1ffe 0B       		.byte	0xb
 8045 1fff 08       		.uleb128 0x8
 8046 2000 10000000 		.4byte	.LASF586
 8047 2004 02       		.byte	0x2
 8048 2005 08       		.uleb128 0x8
 8049 2006 60200000 		.4byte	.LASF587
 8050 200a 03       		.byte	0x3
 8051 200b 00       		.byte	0
 8052 200c 02       		.uleb128 0x2
 8053 200d 04220000 		.4byte	.LASF588
 8054 2011 1A       		.byte	0x1a
 8055 2012 34       		.byte	0x34
 8056 2013 17200000 		.4byte	0x2017
 8057 2017 0D       		.uleb128 0xd
 8058 2018 04       		.byte	0x4
 8059 2019 1D200000 		.4byte	0x201d
 8060 201d 1F       		.uleb128 0x1f
 8061 201e 28200000 		.4byte	0x2028
 8062 2022 10       		.uleb128 0x10
 8063 2023 E3190000 		.4byte	0x19e3
 8064 2027 00       		.byte	0
 8065 2028 02       		.uleb128 0x2
 8066 2029 E1190000 		.4byte	.LASF589
 8067 202d 1A       		.byte	0x1a
 8068 202e 35       		.byte	0x35
 8069 202f 33200000 		.4byte	0x2033
 8070 2033 0D       		.uleb128 0xd
 8071 2034 04       		.byte	0x4
 8072 2035 39200000 		.4byte	0x2039
 8073 2039 1F       		.uleb128 0x1f
 8074 203a 49200000 		.4byte	0x2049
 8075 203e 10       		.uleb128 0x10
 8076 203f E3190000 		.4byte	0x19e3
 8077 2043 10       		.uleb128 0x10
 8078 2044 3B030000 		.4byte	0x33b
 8079 2048 00       		.byte	0
 8080 2049 02       		.uleb128 0x2
 8081 204a 5C0A0000 		.4byte	.LASF590
 8082 204e 1A       		.byte	0x1a
 8083 204f 4E       		.byte	0x4e
 8084 2050 5E190000 		.4byte	0x195e
 8085 2054 05       		.uleb128 0x5
 8086 2055 1C       		.byte	0x1c
 8087 2056 0E       		.byte	0xe
 8088 2057 9B       		.byte	0x9b
 8089 2058 0B210000 		.4byte	0x210b
 8090 205c 09       		.uleb128 0x9
 8091 205d 5D190000 		.4byte	.LASF591
 8092 2061 0E       		.byte	0xe
ARM GAS  C:\Users\haske\AppData\Local\Temp\ccmHbbn5.s 			page 174


 8093 2062 9C       		.byte	0x9c
 8094 2063 BC150000 		.4byte	0x15bc
 8095 2067 00       		.byte	0
 8096 2068 09       		.uleb128 0x9
 8097 2069 090A0000 		.4byte	.LASF592
 8098 206d 0E       		.byte	0xe
 8099 206e 9D       		.byte	0x9d
 8100 206f E4000000 		.4byte	0xe4
 8101 2073 04       		.byte	0x4
 8102 2074 09       		.uleb128 0x9
 8103 2075 B50F0000 		.4byte	.LASF593
 8104 2079 0E       		.byte	0xe
 8105 207a 9E       		.byte	0x9e
 8106 207b 0B210000 		.4byte	0x210b
 8107 207f 08       		.byte	0x8
 8108 2080 09       		.uleb128 0x9
 8109 2081 CF0E0000 		.4byte	.LASF594
 8110 2085 0E       		.byte	0xe
 8111 2086 A0       		.byte	0xa0
 8112 2087 16210000 		.4byte	0x2116
 8113 208b 0C       		.byte	0xc
 8114 208c 09       		.uleb128 0x9
 8115 208d F20F0000 		.4byte	.LASF595
 8116 2091 0E       		.byte	0xe
 8117 2092 A1       		.byte	0xa1
 8118 2093 29010000 		.4byte	0x129
 8119 2097 10       		.byte	0x10
 8120 2098 09       		.uleb128 0x9
 8121 2099 03280000 		.4byte	.LASF596
 8122 209d 0E       		.byte	0xe
 8123 209e A3       		.byte	0xa3
 8124 209f 01010000 		.4byte	0x101
 8125 20a3 14       		.byte	0x14
 8126 20a4 09       		.uleb128 0x9
 8127 20a5 00110000 		.4byte	.LASF597
 8128 20a9 0E       		.byte	0xe
 8129 20aa A4       		.byte	0xa4
 8130 20ab 01010000 		.4byte	0x101
 8131 20af 16       		.byte	0x16
 8132 20b0 0B       		.uleb128 0xb
 8133 20b1 0E0B0000 		.4byte	.LASF598
 8134 20b5 0E       		.byte	0xe
 8135 20b6 A6       		.byte	0xa6
 8136 20b7 611B0000 		.4byte	0x1b61
 8137 20bb 01       		.byte	0x1
 8138 20bc 02       		.byte	0x2
 8139 20bd 06       		.byte	0x6
 8140 20be 18       		.byte	0x18
 8141 20bf 0B       		.uleb128 0xb
 8142 20c0 C2020000 		.4byte	.LASF599
 8143 20c4 0E       		.byte	0xe
 8144 20c5 A7       		.byte	0xa7
 8145 20c6 6C1B0000 		.4byte	0x1b6c
 8146 20ca 01       		.byte	0x1
 8147 20cb 02       		.byte	0x2
 8148 20cc 04       		.byte	0x4
 8149 20cd 18       		.byte	0x18
ARM GAS  C:\Users\haske\AppData\Local\Temp\ccmHbbn5.s 			page 175


 8150 20ce 0B       		.uleb128 0xb
 8151 20cf D0020000 		.4byte	.LASF600
 8152 20d3 0E       		.byte	0xe
 8153 20d4 A8       		.byte	0xa8
 8154 20d5 6C1B0000 		.4byte	0x1b6c
 8155 20d9 01       		.byte	0x1
 8156 20da 02       		.byte	0x2
 8157 20db 02       		.byte	0x2
 8158 20dc 18       		.byte	0x18
 8159 20dd 0B       		.uleb128 0xb
 8160 20de 63060000 		.4byte	.LASF413
 8161 20e2 0E       		.byte	0xe
 8162 20e3 A9       		.byte	0xa9
 8163 20e4 05020000 		.4byte	0x205
 8164 20e8 01       		.byte	0x1
 8165 20e9 04       		.byte	0x4
 8166 20ea 04       		.byte	0x4
 8167 20eb 19       		.byte	0x19
 8168 20ec 0B       		.uleb128 0xb
 8169 20ed 162F0000 		.4byte	.LASF601
 8170 20f1 0E       		.byte	0xe
 8171 20f2 AA       		.byte	0xaa
 8172 20f3 B8000000 		.4byte	0xb8
 8173 20f7 01       		.byte	0x1
 8174 20f8 06       		.byte	0x6
 8175 20f9 02       		.byte	0x2
 8176 20fa 1A       		.byte	0x1a
 8177 20fb 0B       		.uleb128 0xb
 8178 20fc FD010000 		.4byte	.LASF602
 8179 2100 0E       		.byte	0xe
 8180 2101 AB       		.byte	0xab
 8181 2102 B8000000 		.4byte	0xb8
 8182 2106 01       		.byte	0x1
 8183 2107 02       		.byte	0x2
 8184 2108 00       		.byte	0
 8185 2109 1A       		.byte	0x1a
 8186 210a 00       		.byte	0
 8187 210b 0D       		.uleb128 0xd
 8188 210c 04       		.byte	0x4
 8189 210d 49200000 		.4byte	0x2049
 8190 2111 23       		.uleb128 0x23
 8191 2112 652C0000 		.4byte	.LASF604
 8192 2116 0D       		.uleb128 0xd
 8193 2117 04       		.byte	0x4
 8194 2118 11210000 		.4byte	0x2111
 8195 211c 02       		.uleb128 0x2
 8196 211d A50D0000 		.4byte	.LASF605
 8197 2121 0E       		.byte	0xe
 8198 2122 AC       		.byte	0xac
 8199 2123 54200000 		.4byte	0x2054
 8200 2127 0D       		.uleb128 0xd
 8201 2128 04       		.byte	0x4
 8202 2129 2D210000 		.4byte	0x212d
 8203 212d 0E       		.uleb128 0xe
 8204 212e 3D1E0000 		.4byte	0x1e3d
 8205 2132 0D       		.uleb128 0xd
 8206 2133 04       		.byte	0x4
ARM GAS  C:\Users\haske\AppData\Local\Temp\ccmHbbn5.s 			page 176


 8207 2134 1C210000 		.4byte	0x211c
 8208 2138 0D       		.uleb128 0xd
 8209 2139 04       		.byte	0x4
 8210 213a BF1B0000 		.4byte	0x1bbf
 8211 213e 02       		.uleb128 0x2
 8212 213f 0D2F0000 		.4byte	.LASF606
 8213 2143 0E       		.byte	0xe
 8214 2144 BF       		.byte	0xbf
 8215 2145 42080000 		.4byte	0x842
 8216 2149 07       		.uleb128 0x7
 8217 214a 01       		.byte	0x1
 8218 214b 42000000 		.4byte	0x42
 8219 214f 20       		.byte	0x20
 8220 2150 1E       		.byte	0x1e
 8221 2151 68210000 		.4byte	0x2168
 8222 2155 08       		.uleb128 0x8
 8223 2156 AD280000 		.4byte	.LASF607
 8224 215a 00       		.byte	0
 8225 215b 08       		.uleb128 0x8
 8226 215c B9160000 		.4byte	.LASF608
 8227 2160 01       		.byte	0x1
 8228 2161 08       		.uleb128 0x8
 8229 2162 F41F0000 		.4byte	.LASF609
 8230 2166 02       		.byte	0x2
 8231 2167 00       		.byte	0
 8232 2168 02       		.uleb128 0x2
 8233 2169 FB160000 		.4byte	.LASF610
 8234 216d 20       		.byte	0x20
 8235 216e 23       		.byte	0x23
 8236 216f B8000000 		.4byte	0xb8
 8237 2173 05       		.uleb128 0x5
 8238 2174 40       		.byte	0x40
 8239 2175 20       		.byte	0x20
 8240 2176 25       		.byte	0x25
 8241 2177 39220000 		.4byte	0x2239
 8242 217b 06       		.uleb128 0x6
 8243 217c 6F626A00 		.ascii	"obj\000"
 8244 2180 20       		.byte	0x20
 8245 2181 26       		.byte	0x26
 8246 2182 3E210000 		.4byte	0x213e
 8247 2186 00       		.byte	0
 8248 2187 09       		.uleb128 0x9
 8249 2188 87220000 		.4byte	.LASF611
 8250 218c 20       		.byte	0x20
 8251 218d 27       		.byte	0x27
 8252 218e CE000000 		.4byte	0xce
 8253 2192 24       		.byte	0x24
 8254 2193 09       		.uleb128 0x9
 8255 2194 70270000 		.4byte	.LASF612
 8256 2198 20       		.byte	0x20
 8257 2199 28       		.byte	0x28
 8258 219a CE000000 		.4byte	0xce
 8259 219e 26       		.byte	0x26
 8260 219f 09       		.uleb128 0x9
 8261 21a0 1B060000 		.4byte	.LASF613
 8262 21a4 20       		.byte	0x20
 8263 21a5 29       		.byte	0x29
ARM GAS  C:\Users\haske\AppData\Local\Temp\ccmHbbn5.s 			page 177


 8264 21a6 CE000000 		.4byte	0xce
 8265 21aa 28       		.byte	0x28
 8266 21ab 09       		.uleb128 0x9
 8267 21ac 0E110000 		.4byte	.LASF614
 8268 21b0 20       		.byte	0x20
 8269 21b1 2A       		.byte	0x2a
 8270 21b2 CE000000 		.4byte	0xce
 8271 21b6 2A       		.byte	0x2a
 8272 21b7 09       		.uleb128 0x9
 8273 21b8 961A0000 		.4byte	.LASF615
 8274 21bc 20       		.byte	0x20
 8275 21bd 2B       		.byte	0x2b
 8276 21be CE000000 		.4byte	0xce
 8277 21c2 2C       		.byte	0x2c
 8278 21c3 09       		.uleb128 0x9
 8279 21c4 0D0C0000 		.4byte	.LASF186
 8280 21c8 20       		.byte	0x20
 8281 21c9 2C       		.byte	0x2c
 8282 21ca C3000000 		.4byte	0xc3
 8283 21ce 2E       		.byte	0x2e
 8284 21cf 09       		.uleb128 0x9
 8285 21d0 88250000 		.4byte	.LASF616
 8286 21d4 20       		.byte	0x20
 8287 21d5 2D       		.byte	0x2d
 8288 21d6 C3000000 		.4byte	0xc3
 8289 21da 30       		.byte	0x30
 8290 21db 09       		.uleb128 0x9
 8291 21dc D0000000 		.4byte	.LASF617
 8292 21e0 20       		.byte	0x20
 8293 21e1 2E       		.byte	0x2e
 8294 21e2 C3000000 		.4byte	0xc3
 8295 21e6 32       		.byte	0x32
 8296 21e7 0B       		.uleb128 0xb
 8297 21e8 D5280000 		.4byte	.LASF618
 8298 21ec 20       		.byte	0x20
 8299 21ed 2F       		.byte	0x2f
 8300 21ee CE000000 		.4byte	0xce
 8301 21f2 02       		.byte	0x2
 8302 21f3 01       		.byte	0x1
 8303 21f4 0F       		.byte	0xf
 8304 21f5 34       		.byte	0x34
 8305 21f6 0B       		.uleb128 0xb
 8306 21f7 FD030000 		.4byte	.LASF388
 8307 21fb 20       		.byte	0x20
 8308 21fc 30       		.byte	0x30
 8309 21fd CE000000 		.4byte	0xce
 8310 2201 02       		.byte	0x2
 8311 2202 02       		.byte	0x2
 8312 2203 0D       		.byte	0xd
 8313 2204 34       		.byte	0x34
 8314 2205 0B       		.uleb128 0xb
 8315 2206 4F270000 		.4byte	.LASF619
 8316 220a 20       		.byte	0x20
 8317 220b 31       		.byte	0x31
 8318 220c CE000000 		.4byte	0xce
 8319 2210 02       		.byte	0x2
 8320 2211 01       		.byte	0x1
ARM GAS  C:\Users\haske\AppData\Local\Temp\ccmHbbn5.s 			page 178


 8321 2212 0C       		.byte	0xc
 8322 2213 34       		.byte	0x34
 8323 2214 09       		.uleb128 0x9
 8324 2215 9A2C0000 		.4byte	.LASF620
 8325 2219 20       		.byte	0x20
 8326 221a 32       		.byte	0x32
 8327 221b CE000000 		.4byte	0xce
 8328 221f 36       		.byte	0x36
 8329 2220 09       		.uleb128 0x9
 8330 2221 981B0000 		.4byte	.LASF621
 8331 2225 20       		.byte	0x20
 8332 2226 33       		.byte	0x33
 8333 2227 E4000000 		.4byte	0xe4
 8334 222b 38       		.byte	0x38
 8335 222c 09       		.uleb128 0x9
 8336 222d 17290000 		.4byte	.LASF622
 8337 2231 20       		.byte	0x20
 8338 2232 34       		.byte	0x34
 8339 2233 C3000000 		.4byte	0xc3
 8340 2237 3C       		.byte	0x3c
 8341 2238 00       		.byte	0
 8342 2239 02       		.uleb128 0x2
 8343 223a 860D0000 		.4byte	.LASF623
 8344 223e 20       		.byte	0x20
 8345 223f 35       		.byte	0x35
 8346 2240 73210000 		.4byte	0x2173
 8347 2244 07       		.uleb128 0x7
 8348 2245 01       		.byte	0x1
 8349 2246 42000000 		.4byte	0x42
 8350 224a 20       		.byte	0x20
 8351 224b 3D       		.byte	0x3d
 8352 224c 63220000 		.4byte	0x2263
 8353 2250 08       		.uleb128 0x8
 8354 2251 7D160000 		.4byte	.LASF624
 8355 2255 00       		.byte	0
 8356 2256 08       		.uleb128 0x8
 8357 2257 42100000 		.4byte	.LASF625
 8358 225b 01       		.byte	0x1
 8359 225c 08       		.uleb128 0x8
 8360 225d 54040000 		.4byte	.LASF626
 8361 2261 02       		.byte	0x2
 8362 2262 00       		.byte	0
 8363 2263 25       		.uleb128 0x25
 8364 2264 1C190000 		.4byte	.LASF627
 8365 2268 02       		.byte	0x2
 8366 2269 6D       		.byte	0x6d
 8367 226a 01010000 		.4byte	0x101
 8368 226e 03       		.byte	0x3
 8369 226f 93220000 		.4byte	0x2293
 8370 2273 26       		.uleb128 0x26
 8371 2274 6F626A00 		.ascii	"obj\000"
 8372 2278 02       		.byte	0x2
 8373 2279 6D       		.byte	0x6d
 8374 227a 93220000 		.4byte	0x2293
 8375 227e 27       		.uleb128 0x27
 8376 227f 1C2E0000 		.4byte	.LASF500
 8377 2283 02       		.byte	0x2
ARM GAS  C:\Users\haske\AppData\Local\Temp\ccmHbbn5.s 			page 179


 8378 2284 6D       		.byte	0x6d
 8379 2285 E4000000 		.4byte	0xe4
 8380 2289 28       		.uleb128 0x28
 8381 228a 7600     		.ascii	"v\000"
 8382 228c 02       		.byte	0x2
 8383 228d 6F       		.byte	0x6f
 8384 228e 3C050000 		.4byte	0x53c
 8385 2292 00       		.byte	0
 8386 2293 0D       		.uleb128 0xd
 8387 2294 04       		.byte	0x4
 8388 2295 99220000 		.4byte	0x2299
 8389 2299 0E       		.uleb128 0xe
 8390 229a 42080000 		.4byte	0x842
 8391 229e 25       		.uleb128 0x25
 8392 229f 31080000 		.4byte	.LASF628
 8393 22a3 02       		.byte	0x2
 8394 22a4 67       		.byte	0x67
 8395 22a5 01010000 		.4byte	0x101
 8396 22a9 03       		.byte	0x3
 8397 22aa CE220000 		.4byte	0x22ce
 8398 22ae 26       		.uleb128 0x26
 8399 22af 6F626A00 		.ascii	"obj\000"
 8400 22b3 02       		.byte	0x2
 8401 22b4 67       		.byte	0x67
 8402 22b5 93220000 		.4byte	0x2293
 8403 22b9 27       		.uleb128 0x27
 8404 22ba 1C2E0000 		.4byte	.LASF500
 8405 22be 02       		.byte	0x2
 8406 22bf 67       		.byte	0x67
 8407 22c0 E4000000 		.4byte	0xe4
 8408 22c4 28       		.uleb128 0x28
 8409 22c5 7600     		.ascii	"v\000"
 8410 22c7 02       		.byte	0x2
 8411 22c8 69       		.byte	0x69
 8412 22c9 3C050000 		.4byte	0x53c
 8413 22cd 00       		.byte	0
 8414 22ce 25       		.uleb128 0x25
 8415 22cf 160E0000 		.4byte	.LASF629
 8416 22d3 02       		.byte	0x2
 8417 22d4 79       		.byte	0x79
 8418 22d5 01010000 		.4byte	0x101
 8419 22d9 03       		.byte	0x3
 8420 22da FE220000 		.4byte	0x22fe
 8421 22de 26       		.uleb128 0x26
 8422 22df 6F626A00 		.ascii	"obj\000"
 8423 22e3 02       		.byte	0x2
 8424 22e4 79       		.byte	0x79
 8425 22e5 93220000 		.4byte	0x2293
 8426 22e9 27       		.uleb128 0x27
 8427 22ea 1C2E0000 		.4byte	.LASF500
 8428 22ee 02       		.byte	0x2
 8429 22ef 79       		.byte	0x79
 8430 22f0 E4000000 		.4byte	0xe4
 8431 22f4 28       		.uleb128 0x28
 8432 22f5 7600     		.ascii	"v\000"
 8433 22f7 02       		.byte	0x2
 8434 22f8 7B       		.byte	0x7b
ARM GAS  C:\Users\haske\AppData\Local\Temp\ccmHbbn5.s 			page 180


 8435 22f9 3C050000 		.4byte	0x53c
 8436 22fd 00       		.byte	0
 8437 22fe 25       		.uleb128 0x25
 8438 22ff BA100000 		.4byte	.LASF630
 8439 2303 02       		.byte	0x2
 8440 2304 73       		.byte	0x73
 8441 2305 01010000 		.4byte	0x101
 8442 2309 03       		.byte	0x3
 8443 230a 2E230000 		.4byte	0x232e
 8444 230e 26       		.uleb128 0x26
 8445 230f 6F626A00 		.ascii	"obj\000"
 8446 2313 02       		.byte	0x2
 8447 2314 73       		.byte	0x73
 8448 2315 93220000 		.4byte	0x2293
 8449 2319 27       		.uleb128 0x27
 8450 231a 1C2E0000 		.4byte	.LASF500
 8451 231e 02       		.byte	0x2
 8452 231f 73       		.byte	0x73
 8453 2320 E4000000 		.4byte	0xe4
 8454 2324 28       		.uleb128 0x28
 8455 2325 7600     		.ascii	"v\000"
 8456 2327 02       		.byte	0x2
 8457 2328 75       		.byte	0x75
 8458 2329 3C050000 		.4byte	0x53c
 8459 232d 00       		.byte	0
 8460 232e 29       		.uleb128 0x29
 8461 232f 4F010000 		.4byte	.LASF631
 8462 2333 02       		.byte	0x2
 8463 2334 3301     		.2byte	0x133
 8464 2336 01010000 		.4byte	0x101
 8465 233a 03       		.byte	0x3
 8466 233b 62230000 		.4byte	0x2362
 8467 233f 2A       		.uleb128 0x2a
 8468 2340 6F626A00 		.ascii	"obj\000"
 8469 2344 02       		.byte	0x2
 8470 2345 3301     		.2byte	0x133
 8471 2347 93220000 		.4byte	0x2293
 8472 234b 2B       		.uleb128 0x2b
 8473 234c 1C2E0000 		.4byte	.LASF500
 8474 2350 02       		.byte	0x2
 8475 2351 3301     		.2byte	0x133
 8476 2353 E4000000 		.4byte	0xe4
 8477 2357 2C       		.uleb128 0x2c
 8478 2358 7600     		.ascii	"v\000"
 8479 235a 02       		.byte	0x2
 8480 235b 3501     		.2byte	0x135
 8481 235d 3C050000 		.4byte	0x53c
 8482 2361 00       		.byte	0
 8483 2362 29       		.uleb128 0x29
 8484 2363 DE010000 		.4byte	.LASF632
 8485 2367 02       		.byte	0x2
 8486 2368 3F01     		.2byte	0x13f
 8487 236a 01010000 		.4byte	0x101
 8488 236e 03       		.byte	0x3
 8489 236f 96230000 		.4byte	0x2396
 8490 2373 2A       		.uleb128 0x2a
 8491 2374 6F626A00 		.ascii	"obj\000"
ARM GAS  C:\Users\haske\AppData\Local\Temp\ccmHbbn5.s 			page 181


 8492 2378 02       		.byte	0x2
 8493 2379 3F01     		.2byte	0x13f
 8494 237b 93220000 		.4byte	0x2293
 8495 237f 2B       		.uleb128 0x2b
 8496 2380 1C2E0000 		.4byte	.LASF500
 8497 2384 02       		.byte	0x2
 8498 2385 3F01     		.2byte	0x13f
 8499 2387 E4000000 		.4byte	0xe4
 8500 238b 2C       		.uleb128 0x2c
 8501 238c 7600     		.ascii	"v\000"
 8502 238e 02       		.byte	0x2
 8503 238f 4101     		.2byte	0x141
 8504 2391 3C050000 		.4byte	0x53c
 8505 2395 00       		.byte	0
 8506 2396 29       		.uleb128 0x29
 8507 2397 392D0000 		.4byte	.LASF633
 8508 239b 02       		.byte	0x2
 8509 239c 2D01     		.2byte	0x12d
 8510 239e 01010000 		.4byte	0x101
 8511 23a2 03       		.byte	0x3
 8512 23a3 CA230000 		.4byte	0x23ca
 8513 23a7 2A       		.uleb128 0x2a
 8514 23a8 6F626A00 		.ascii	"obj\000"
 8515 23ac 02       		.byte	0x2
 8516 23ad 2D01     		.2byte	0x12d
 8517 23af 93220000 		.4byte	0x2293
 8518 23b3 2B       		.uleb128 0x2b
 8519 23b4 1C2E0000 		.4byte	.LASF500
 8520 23b8 02       		.byte	0x2
 8521 23b9 2D01     		.2byte	0x12d
 8522 23bb E4000000 		.4byte	0xe4
 8523 23bf 2C       		.uleb128 0x2c
 8524 23c0 7600     		.ascii	"v\000"
 8525 23c2 02       		.byte	0x2
 8526 23c3 2F01     		.2byte	0x12f
 8527 23c5 3C050000 		.4byte	0x53c
 8528 23c9 00       		.byte	0
 8529 23ca 29       		.uleb128 0x29
 8530 23cb FE0E0000 		.4byte	.LASF634
 8531 23cf 02       		.byte	0x2
 8532 23d0 3901     		.2byte	0x139
 8533 23d2 01010000 		.4byte	0x101
 8534 23d6 03       		.byte	0x3
 8535 23d7 FE230000 		.4byte	0x23fe
 8536 23db 2A       		.uleb128 0x2a
 8537 23dc 6F626A00 		.ascii	"obj\000"
 8538 23e0 02       		.byte	0x2
 8539 23e1 3901     		.2byte	0x139
 8540 23e3 93220000 		.4byte	0x2293
 8541 23e7 2B       		.uleb128 0x2b
 8542 23e8 1C2E0000 		.4byte	.LASF500
 8543 23ec 02       		.byte	0x2
 8544 23ed 3901     		.2byte	0x139
 8545 23ef E4000000 		.4byte	0xe4
 8546 23f3 2C       		.uleb128 0x2c
 8547 23f4 7600     		.ascii	"v\000"
 8548 23f6 02       		.byte	0x2
ARM GAS  C:\Users\haske\AppData\Local\Temp\ccmHbbn5.s 			page 182


 8549 23f7 3B01     		.2byte	0x13b
 8550 23f9 3C050000 		.4byte	0x53c
 8551 23fd 00       		.byte	0
 8552 23fe 29       		.uleb128 0x29
 8553 23ff 931C0000 		.4byte	.LASF635
 8554 2403 02       		.byte	0x2
 8555 2404 2701     		.2byte	0x127
 8556 2406 01010000 		.4byte	0x101
 8557 240a 03       		.byte	0x3
 8558 240b 32240000 		.4byte	0x2432
 8559 240f 2A       		.uleb128 0x2a
 8560 2410 6F626A00 		.ascii	"obj\000"
 8561 2414 02       		.byte	0x2
 8562 2415 2701     		.2byte	0x127
 8563 2417 93220000 		.4byte	0x2293
 8564 241b 2B       		.uleb128 0x2b
 8565 241c 1C2E0000 		.4byte	.LASF500
 8566 2420 02       		.byte	0x2
 8567 2421 2701     		.2byte	0x127
 8568 2423 E4000000 		.4byte	0xe4
 8569 2427 2C       		.uleb128 0x2c
 8570 2428 7600     		.ascii	"v\000"
 8571 242a 02       		.byte	0x2
 8572 242b 2901     		.2byte	0x129
 8573 242d 3C050000 		.4byte	0x53c
 8574 2431 00       		.byte	0
 8575 2432 29       		.uleb128 0x29
 8576 2433 D11C0000 		.4byte	.LASF636
 8577 2437 02       		.byte	0x2
 8578 2438 0F01     		.2byte	0x10f
 8579 243a 01010000 		.4byte	0x101
 8580 243e 03       		.byte	0x3
 8581 243f 66240000 		.4byte	0x2466
 8582 2443 2A       		.uleb128 0x2a
 8583 2444 6F626A00 		.ascii	"obj\000"
 8584 2448 02       		.byte	0x2
 8585 2449 0F01     		.2byte	0x10f
 8586 244b 93220000 		.4byte	0x2293
 8587 244f 2B       		.uleb128 0x2b
 8588 2450 1C2E0000 		.4byte	.LASF500
 8589 2454 02       		.byte	0x2
 8590 2455 0F01     		.2byte	0x10f
 8591 2457 E4000000 		.4byte	0xe4
 8592 245b 2C       		.uleb128 0x2c
 8593 245c 7600     		.ascii	"v\000"
 8594 245e 02       		.byte	0x2
 8595 245f 1101     		.2byte	0x111
 8596 2461 3C050000 		.4byte	0x53c
 8597 2465 00       		.byte	0
 8598 2466 29       		.uleb128 0x29
 8599 2467 6B180000 		.4byte	.LASF637
 8600 246b 02       		.byte	0x2
 8601 246c 9901     		.2byte	0x199
 8602 246e 01010000 		.4byte	0x101
 8603 2472 03       		.byte	0x3
 8604 2473 9A240000 		.4byte	0x249a
 8605 2477 2A       		.uleb128 0x2a
ARM GAS  C:\Users\haske\AppData\Local\Temp\ccmHbbn5.s 			page 183


 8606 2478 6F626A00 		.ascii	"obj\000"
 8607 247c 02       		.byte	0x2
 8608 247d 9901     		.2byte	0x199
 8609 247f 93220000 		.4byte	0x2293
 8610 2483 2B       		.uleb128 0x2b
 8611 2484 1C2E0000 		.4byte	.LASF500
 8612 2488 02       		.byte	0x2
 8613 2489 9901     		.2byte	0x199
 8614 248b E4000000 		.4byte	0xe4
 8615 248f 2C       		.uleb128 0x2c
 8616 2490 7600     		.ascii	"v\000"
 8617 2492 02       		.byte	0x2
 8618 2493 9B01     		.2byte	0x19b
 8619 2495 3C050000 		.4byte	0x53c
 8620 2499 00       		.byte	0
 8621 249a 29       		.uleb128 0x29
 8622 249b CB2E0000 		.4byte	.LASF638
 8623 249f 02       		.byte	0x2
 8624 24a0 9F01     		.2byte	0x19f
 8625 24a2 3B030000 		.4byte	0x33b
 8626 24a6 03       		.byte	0x3
 8627 24a7 CE240000 		.4byte	0x24ce
 8628 24ab 2A       		.uleb128 0x2a
 8629 24ac 6F626A00 		.ascii	"obj\000"
 8630 24b0 02       		.byte	0x2
 8631 24b1 9F01     		.2byte	0x19f
 8632 24b3 93220000 		.4byte	0x2293
 8633 24b7 2B       		.uleb128 0x2b
 8634 24b8 1C2E0000 		.4byte	.LASF500
 8635 24bc 02       		.byte	0x2
 8636 24bd 9F01     		.2byte	0x19f
 8637 24bf E4000000 		.4byte	0xe4
 8638 24c3 2C       		.uleb128 0x2c
 8639 24c4 7600     		.ascii	"v\000"
 8640 24c6 02       		.byte	0x2
 8641 24c7 A101     		.2byte	0x1a1
 8642 24c9 3C050000 		.4byte	0x53c
 8643 24cd 00       		.byte	0
 8644 24ce 2D       		.uleb128 0x2d
 8645 24cf 85030000 		.4byte	.LASF648
 8646 24d3 01       		.byte	0x1
 8647 24d4 F902     		.2byte	0x2f9
 8648 24d6 01010000 		.4byte	0x101
 8649 24da 00000000 		.4byte	.LFB187
 8650 24de 6E000000 		.4byte	.LFE187-.LFB187
 8651 24e2 01       		.uleb128 0x1
 8652 24e3 9C       		.byte	0x9c
 8653 24e4 53250000 		.4byte	0x2553
 8654 24e8 2E       		.uleb128 0x2e
 8655 24e9 6F626A00 		.ascii	"obj\000"
 8656 24ed 01       		.byte	0x1
 8657 24ee F902     		.2byte	0x2f9
 8658 24f0 53250000 		.4byte	0x2553
 8659 24f4 00000000 		.4byte	.LLST0
 8660 24f8 2F       		.uleb128 0x2f
 8661 24f9 61726300 		.ascii	"arc\000"
 8662 24fd 01       		.byte	0x1
ARM GAS  C:\Users\haske\AppData\Local\Temp\ccmHbbn5.s 			page 184


 8663 24fe FB02     		.2byte	0x2fb
 8664 2500 5E250000 		.4byte	0x255e
 8665 2504 53000000 		.4byte	.LLST1
 8666 2508 30       		.uleb128 0x30
 8667 2509 77160000 		.4byte	.LASF250
 8668 250d 01       		.byte	0x1
 8669 250e FC02     		.2byte	0x2fc
 8670 2510 CE000000 		.4byte	0xce
 8671 2514 A6000000 		.4byte	.LLST2
 8672 2518 31       		.uleb128 0x31
 8673 2519 26000000 		.4byte	.LBB82
 8674 251d 44000000 		.4byte	.LBE82-.LBB82
 8675 2521 30       		.uleb128 0x30
 8676 2522 5C120000 		.4byte	.LASF639
 8677 2526 01       		.byte	0x1
 8678 2527 0403     		.2byte	0x304
 8679 2529 C3000000 		.4byte	0xc3
 8680 252d 3B010000 		.4byte	.LLST3
 8681 2531 30       		.uleb128 0x30
 8682 2532 F8220000 		.4byte	.LASF640
 8683 2536 01       		.byte	0x1
 8684 2537 0603     		.2byte	0x306
 8685 2539 C3000000 		.4byte	0xc3
 8686 253d 64010000 		.4byte	.LLST4
 8687 2541 30       		.uleb128 0x30
 8688 2542 4D120000 		.4byte	.LASF641
 8689 2546 01       		.byte	0x1
 8690 2547 0903     		.2byte	0x309
 8691 2549 D9000000 		.4byte	0xd9
 8692 254d 8D010000 		.4byte	.LLST5
 8693 2551 00       		.byte	0
 8694 2552 00       		.byte	0
 8695 2553 0D       		.uleb128 0xd
 8696 2554 04       		.byte	0x4
 8697 2555 59250000 		.4byte	0x2559
 8698 2559 0E       		.uleb128 0xe
 8699 255a 3E210000 		.4byte	0x213e
 8700 255e 0D       		.uleb128 0xd
 8701 255f 04       		.byte	0x4
 8702 2560 39220000 		.4byte	0x2239
 8703 2564 32       		.uleb128 0x32
 8704 2565 E8170000 		.4byte	.LASF652
 8705 2569 01       		.byte	0x1
 8706 256a E902     		.2byte	0x2e9
 8707 256c 00000000 		.4byte	.LFB186
 8708 2570 C6000000 		.4byte	.LFE186-.LFB186
 8709 2574 01       		.uleb128 0x1
 8710 2575 9C       		.byte	0x9c
 8711 2576 75270000 		.4byte	0x2775
 8712 257a 2E       		.uleb128 0x2e
 8713 257b 6F626A00 		.ascii	"obj\000"
 8714 257f 01       		.byte	0x1
 8715 2580 E902     		.2byte	0x2e9
 8716 2582 53250000 		.4byte	0x2553
 8717 2586 A0010000 		.4byte	.LLST6
 8718 258a 33       		.uleb128 0x33
 8719 258b D90E0000 		.4byte	.LASF642
ARM GAS  C:\Users\haske\AppData\Local\Temp\ccmHbbn5.s 			page 185


 8720 258f 01       		.byte	0x1
 8721 2590 E902     		.2byte	0x2e9
 8722 2592 D80C0000 		.4byte	0xcd8
 8723 2596 CC010000 		.4byte	.LLST7
 8724 259a 33       		.uleb128 0x33
 8725 259b 16190000 		.4byte	.LASF643
 8726 259f 01       		.byte	0x1
 8727 25a0 E902     		.2byte	0x2e9
 8728 25a2 75270000 		.4byte	0x2775
 8729 25a6 F8010000 		.4byte	.LLST8
 8730 25aa 34       		.uleb128 0x34
 8731 25ab 11280000 		.4byte	.LASF644
 8732 25af 01       		.byte	0x1
 8733 25b0 EB02     		.2byte	0x2eb
 8734 25b2 01010000 		.4byte	0x101
 8735 25b6 34       		.uleb128 0x34
 8736 25b7 C81B0000 		.4byte	.LASF645
 8737 25bb 01       		.byte	0x1
 8738 25bc EC02     		.2byte	0x2ec
 8739 25be 01010000 		.4byte	0x101
 8740 25c2 34       		.uleb128 0x34
 8741 25c3 0F1A0000 		.4byte	.LASF646
 8742 25c7 01       		.byte	0x1
 8743 25c8 ED02     		.2byte	0x2ed
 8744 25ca 01010000 		.4byte	0x101
 8745 25ce 34       		.uleb128 0x34
 8746 25cf D11B0000 		.4byte	.LASF647
 8747 25d3 01       		.byte	0x1
 8748 25d4 EE02     		.2byte	0x2ee
 8749 25d6 01010000 		.4byte	0x101
 8750 25da 2F       		.uleb128 0x2f
 8751 25db 7200     		.ascii	"r\000"
 8752 25dd 01       		.byte	0x1
 8753 25de F002     		.2byte	0x2f0
 8754 25e0 01010000 		.4byte	0x101
 8755 25e4 21020000 		.4byte	.LLST9
 8756 25e8 35       		.uleb128 0x35
 8757 25e9 FE220000 		.4byte	0x22fe
 8758 25ed 14000000 		.4byte	.LBB83
 8759 25f1 0E000000 		.4byte	.LBE83-.LBB83
 8760 25f5 01       		.byte	0x1
 8761 25f6 EB02     		.2byte	0x2eb
 8762 25f8 38260000 		.4byte	0x2638
 8763 25fc 36       		.uleb128 0x36
 8764 25fd 19230000 		.4byte	0x2319
 8765 2601 34020000 		.4byte	.LLST10
 8766 2605 36       		.uleb128 0x36
 8767 2606 0E230000 		.4byte	0x230e
 8768 260a 48020000 		.4byte	.LLST11
 8769 260e 31       		.uleb128 0x31
 8770 260f 14000000 		.4byte	.LBB84
 8771 2613 0E000000 		.4byte	.LBE84-.LBB84
 8772 2617 37       		.uleb128 0x37
 8773 2618 24230000 		.4byte	0x2324
 8774 261c 38       		.uleb128 0x38
 8775 261d 1C000000 		.4byte	.LVL30
 8776 2621 D84B0000 		.4byte	0x4bd8
ARM GAS  C:\Users\haske\AppData\Local\Temp\ccmHbbn5.s 			page 186


 8777 2625 39       		.uleb128 0x39
 8778 2626 01       		.uleb128 0x1
 8779 2627 50       		.byte	0x50
 8780 2628 02       		.uleb128 0x2
 8781 2629 74       		.byte	0x74
 8782 262a 00       		.sleb128 0
 8783 262b 39       		.uleb128 0x39
 8784 262c 01       		.uleb128 0x1
 8785 262d 51       		.byte	0x51
 8786 262e 01       		.uleb128 0x1
 8787 262f 30       		.byte	0x30
 8788 2630 39       		.uleb128 0x39
 8789 2631 01       		.uleb128 0x1
 8790 2632 52       		.byte	0x52
 8791 2633 01       		.uleb128 0x1
 8792 2634 42       		.byte	0x42
 8793 2635 00       		.byte	0
 8794 2636 00       		.byte	0
 8795 2637 00       		.byte	0
 8796 2638 35       		.uleb128 0x35
 8797 2639 CE220000 		.4byte	0x22ce
 8798 263d 22000000 		.4byte	.LBB85
 8799 2641 0C000000 		.4byte	.LBE85-.LBB85
 8800 2645 01       		.byte	0x1
 8801 2646 EC02     		.2byte	0x2ec
 8802 2648 88260000 		.4byte	0x2688
 8803 264c 36       		.uleb128 0x36
 8804 264d E9220000 		.4byte	0x22e9
 8805 2651 66020000 		.4byte	.LLST12
 8806 2655 36       		.uleb128 0x36
 8807 2656 DE220000 		.4byte	0x22de
 8808 265a 7A020000 		.4byte	.LLST13
 8809 265e 31       		.uleb128 0x31
 8810 265f 22000000 		.4byte	.LBB86
 8811 2663 0C000000 		.4byte	.LBE86-.LBB86
 8812 2667 37       		.uleb128 0x37
 8813 2668 F4220000 		.4byte	0x22f4
 8814 266c 38       		.uleb128 0x38
 8815 266d 2C000000 		.4byte	.LVL32
 8816 2671 D84B0000 		.4byte	0x4bd8
 8817 2675 39       		.uleb128 0x39
 8818 2676 01       		.uleb128 0x1
 8819 2677 50       		.byte	0x50
 8820 2678 02       		.uleb128 0x2
 8821 2679 74       		.byte	0x74
 8822 267a 00       		.sleb128 0
 8823 267b 39       		.uleb128 0x39
 8824 267c 01       		.uleb128 0x1
 8825 267d 51       		.byte	0x51
 8826 267e 01       		.uleb128 0x1
 8827 267f 30       		.byte	0x30
 8828 2680 39       		.uleb128 0x39
 8829 2681 01       		.uleb128 0x1
 8830 2682 52       		.byte	0x52
 8831 2683 01       		.uleb128 0x1
 8832 2684 43       		.byte	0x43
 8833 2685 00       		.byte	0
ARM GAS  C:\Users\haske\AppData\Local\Temp\ccmHbbn5.s 			page 187


 8834 2686 00       		.byte	0
 8835 2687 00       		.byte	0
 8836 2688 35       		.uleb128 0x35
 8837 2689 9E220000 		.4byte	0x229e
 8838 268d 2E000000 		.4byte	.LBB87
 8839 2691 10000000 		.4byte	.LBE87-.LBB87
 8840 2695 01       		.byte	0x1
 8841 2696 ED02     		.2byte	0x2ed
 8842 2698 D8260000 		.4byte	0x26d8
 8843 269c 36       		.uleb128 0x36
 8844 269d B9220000 		.4byte	0x22b9
 8845 26a1 8D020000 		.4byte	.LLST14
 8846 26a5 36       		.uleb128 0x36
 8847 26a6 AE220000 		.4byte	0x22ae
 8848 26aa A1020000 		.4byte	.LLST15
 8849 26ae 31       		.uleb128 0x31
 8850 26af 2E000000 		.4byte	.LBB88
 8851 26b3 10000000 		.4byte	.LBE88-.LBB88
 8852 26b7 37       		.uleb128 0x37
 8853 26b8 C4220000 		.4byte	0x22c4
 8854 26bc 38       		.uleb128 0x38
 8855 26bd 38000000 		.4byte	.LVL34
 8856 26c1 D84B0000 		.4byte	0x4bd8
 8857 26c5 39       		.uleb128 0x39
 8858 26c6 01       		.uleb128 0x1
 8859 26c7 50       		.byte	0x50
 8860 26c8 02       		.uleb128 0x2
 8861 26c9 74       		.byte	0x74
 8862 26ca 00       		.sleb128 0
 8863 26cb 39       		.uleb128 0x39
 8864 26cc 01       		.uleb128 0x1
 8865 26cd 51       		.byte	0x51
 8866 26ce 01       		.uleb128 0x1
 8867 26cf 30       		.byte	0x30
 8868 26d0 39       		.uleb128 0x39
 8869 26d1 01       		.uleb128 0x1
 8870 26d2 52       		.byte	0x52
 8871 26d3 01       		.uleb128 0x1
 8872 26d4 40       		.byte	0x40
 8873 26d5 00       		.byte	0
 8874 26d6 00       		.byte	0
 8875 26d7 00       		.byte	0
 8876 26d8 35       		.uleb128 0x35
 8877 26d9 63220000 		.4byte	0x2263
 8878 26dd 3E000000 		.4byte	.LBB89
 8879 26e1 0C000000 		.4byte	.LBE89-.LBB89
 8880 26e5 01       		.byte	0x1
 8881 26e6 EE02     		.2byte	0x2ee
 8882 26e8 28270000 		.4byte	0x2728
 8883 26ec 36       		.uleb128 0x36
 8884 26ed 7E220000 		.4byte	0x227e
 8885 26f1 B4020000 		.4byte	.LLST16
 8886 26f5 36       		.uleb128 0x36
 8887 26f6 73220000 		.4byte	0x2273
 8888 26fa C8020000 		.4byte	.LLST17
 8889 26fe 31       		.uleb128 0x31
 8890 26ff 3E000000 		.4byte	.LBB90
ARM GAS  C:\Users\haske\AppData\Local\Temp\ccmHbbn5.s 			page 188


 8891 2703 0C000000 		.4byte	.LBE90-.LBB90
 8892 2707 37       		.uleb128 0x37
 8893 2708 89220000 		.4byte	0x2289
 8894 270c 38       		.uleb128 0x38
 8895 270d 48000000 		.4byte	.LVL36
 8896 2711 D84B0000 		.4byte	0x4bd8
 8897 2715 39       		.uleb128 0x39
 8898 2716 01       		.uleb128 0x1
 8899 2717 50       		.byte	0x50
 8900 2718 02       		.uleb128 0x2
 8901 2719 74       		.byte	0x74
 8902 271a 00       		.sleb128 0
 8903 271b 39       		.uleb128 0x39
 8904 271c 01       		.uleb128 0x1
 8905 271d 51       		.byte	0x51
 8906 271e 01       		.uleb128 0x1
 8907 271f 30       		.byte	0x30
 8908 2720 39       		.uleb128 0x39
 8909 2721 01       		.uleb128 0x1
 8910 2722 52       		.byte	0x52
 8911 2723 01       		.uleb128 0x1
 8912 2724 41       		.byte	0x41
 8913 2725 00       		.byte	0
 8914 2726 00       		.byte	0
 8915 2727 00       		.byte	0
 8916 2728 3A       		.uleb128 0x3a
 8917 2729 50000000 		.4byte	.LVL38
 8918 272d E34B0000 		.4byte	0x4be3
 8919 2731 3C270000 		.4byte	0x273c
 8920 2735 39       		.uleb128 0x39
 8921 2736 01       		.uleb128 0x1
 8922 2737 50       		.byte	0x50
 8923 2738 02       		.uleb128 0x2
 8924 2739 74       		.byte	0x74
 8925 273a 00       		.sleb128 0
 8926 273b 00       		.byte	0
 8927 273c 3A       		.uleb128 0x3a
 8928 273d 5C000000 		.4byte	.LVL39
 8929 2741 EF4B0000 		.4byte	0x4bef
 8930 2745 50270000 		.4byte	0x2750
 8931 2749 39       		.uleb128 0x39
 8932 274a 01       		.uleb128 0x1
 8933 274b 50       		.byte	0x50
 8934 274c 02       		.uleb128 0x2
 8935 274d 74       		.byte	0x74
 8936 274e 00       		.sleb128 0
 8937 274f 00       		.byte	0
 8938 2750 3A       		.uleb128 0x3a
 8939 2751 6C000000 		.4byte	.LVL40
 8940 2755 E34B0000 		.4byte	0x4be3
 8941 2759 64270000 		.4byte	0x2764
 8942 275d 39       		.uleb128 0x39
 8943 275e 01       		.uleb128 0x1
 8944 275f 50       		.byte	0x50
 8945 2760 02       		.uleb128 0x2
 8946 2761 74       		.byte	0x74
 8947 2762 00       		.sleb128 0
ARM GAS  C:\Users\haske\AppData\Local\Temp\ccmHbbn5.s 			page 189


 8948 2763 00       		.byte	0
 8949 2764 38       		.uleb128 0x38
 8950 2765 82000000 		.4byte	.LVL41
 8951 2769 EF4B0000 		.4byte	0x4bef
 8952 276d 39       		.uleb128 0x39
 8953 276e 01       		.uleb128 0x1
 8954 276f 50       		.byte	0x50
 8955 2770 02       		.uleb128 0x2
 8956 2771 74       		.byte	0x74
 8957 2772 00       		.sleb128 0
 8958 2773 00       		.byte	0
 8959 2774 00       		.byte	0
 8960 2775 0D       		.uleb128 0xd
 8961 2776 04       		.byte	0x4
 8962 2777 01010000 		.4byte	0x101
 8963 277b 2D       		.uleb128 0x2d
 8964 277c AA1E0000 		.4byte	.LASF649
 8965 2780 01       		.byte	0x1
 8966 2781 5803     		.2byte	0x358
 8967 2783 01010000 		.4byte	0x101
 8968 2787 00000000 		.4byte	.LFB190
 8969 278b B2000000 		.4byte	.LFE190-.LFB190
 8970 278f 01       		.uleb128 0x1
 8971 2790 9C       		.byte	0x9c
 8972 2791 0A2B0000 		.4byte	0x2b0a
 8973 2795 2E       		.uleb128 0x2e
 8974 2796 6F626A00 		.ascii	"obj\000"
 8975 279a 01       		.byte	0x1
 8976 279b 5803     		.2byte	0x358
 8977 279d 0A2B0000 		.4byte	0x2b0a
 8978 27a1 DB020000 		.4byte	.LLST18
 8979 27a5 30       		.uleb128 0x30
 8980 27a6 06290000 		.4byte	.LASF650
 8981 27aa 01       		.byte	0x1
 8982 27ab 5A03     		.2byte	0x35a
 8983 27ad 01010000 		.4byte	0x101
 8984 27b1 07030000 		.4byte	.LLST19
 8985 27b5 30       		.uleb128 0x30
 8986 27b6 740D0000 		.4byte	.LASF651
 8987 27ba 01       		.byte	0x1
 8988 27bb 6003     		.2byte	0x360
 8989 27bd 01010000 		.4byte	0x101
 8990 27c1 47030000 		.4byte	.LLST20
 8991 27c5 35       		.uleb128 0x35
 8992 27c6 96230000 		.4byte	0x2396
 8993 27ca 04000000 		.4byte	.LBB91
 8994 27ce 0C000000 		.4byte	.LBE91-.LBB91
 8995 27d2 01       		.byte	0x1
 8996 27d3 5B03     		.2byte	0x35b
 8997 27d5 1B280000 		.4byte	0x281b
 8998 27d9 36       		.uleb128 0x36
 8999 27da B3230000 		.4byte	0x23b3
 9000 27de 71030000 		.4byte	.LLST21
 9001 27e2 36       		.uleb128 0x36
 9002 27e3 A7230000 		.4byte	0x23a7
 9003 27e7 87030000 		.4byte	.LLST22
 9004 27eb 31       		.uleb128 0x31
ARM GAS  C:\Users\haske\AppData\Local\Temp\ccmHbbn5.s 			page 190


 9005 27ec 04000000 		.4byte	.LBB92
 9006 27f0 0C000000 		.4byte	.LBE92-.LBB92
 9007 27f4 3B       		.uleb128 0x3b
 9008 27f5 BF230000 		.4byte	0x23bf
 9009 27f9 A5030000 		.4byte	.LLST23
 9010 27fd 38       		.uleb128 0x38
 9011 27fe 10000000 		.4byte	.LVL49
 9012 2802 D84B0000 		.4byte	0x4bd8
 9013 2806 39       		.uleb128 0x39
 9014 2807 01       		.uleb128 0x1
 9015 2808 50       		.byte	0x50
 9016 2809 02       		.uleb128 0x2
 9017 280a 75       		.byte	0x75
 9018 280b 00       		.sleb128 0
 9019 280c 39       		.uleb128 0x39
 9020 280d 01       		.uleb128 0x1
 9021 280e 51       		.byte	0x51
 9022 280f 02       		.uleb128 0x2
 9023 2810 77       		.byte	0x77
 9024 2811 00       		.sleb128 0
 9025 2812 39       		.uleb128 0x39
 9026 2813 01       		.uleb128 0x1
 9027 2814 52       		.byte	0x52
 9028 2815 02       		.uleb128 0x2
 9029 2816 08       		.byte	0x8
 9030 2817 40       		.byte	0x40
 9031 2818 00       		.byte	0
 9032 2819 00       		.byte	0
 9033 281a 00       		.byte	0
 9034 281b 35       		.uleb128 0x35
 9035 281c 62230000 		.4byte	0x2362
 9036 2820 12000000 		.4byte	.LBB93
 9037 2824 0A000000 		.4byte	.LBE93-.LBB93
 9038 2828 01       		.byte	0x1
 9039 2829 5C03     		.2byte	0x35c
 9040 282b 71280000 		.4byte	0x2871
 9041 282f 36       		.uleb128 0x36
 9042 2830 7F230000 		.4byte	0x237f
 9043 2834 B8030000 		.4byte	.LLST24
 9044 2838 36       		.uleb128 0x36
 9045 2839 73230000 		.4byte	0x2373
 9046 283d CE030000 		.4byte	.LLST25
 9047 2841 31       		.uleb128 0x31
 9048 2842 12000000 		.4byte	.LBB94
 9049 2846 0A000000 		.4byte	.LBE94-.LBB94
 9050 284a 3B       		.uleb128 0x3b
 9051 284b 8B230000 		.4byte	0x238b
 9052 284f E1030000 		.4byte	.LLST26
 9053 2853 38       		.uleb128 0x38
 9054 2854 1C000000 		.4byte	.LVL52
 9055 2858 D84B0000 		.4byte	0x4bd8
 9056 285c 39       		.uleb128 0x39
 9057 285d 01       		.uleb128 0x1
 9058 285e 50       		.byte	0x50
 9059 285f 02       		.uleb128 0x2
 9060 2860 75       		.byte	0x75
 9061 2861 00       		.sleb128 0
ARM GAS  C:\Users\haske\AppData\Local\Temp\ccmHbbn5.s 			page 191


 9062 2862 39       		.uleb128 0x39
 9063 2863 01       		.uleb128 0x1
 9064 2864 51       		.byte	0x51
 9065 2865 02       		.uleb128 0x2
 9066 2866 77       		.byte	0x77
 9067 2867 00       		.sleb128 0
 9068 2868 39       		.uleb128 0x39
 9069 2869 01       		.uleb128 0x1
 9070 286a 52       		.byte	0x52
 9071 286b 02       		.uleb128 0x2
 9072 286c 08       		.byte	0x8
 9073 286d 43       		.byte	0x43
 9074 286e 00       		.byte	0
 9075 286f 00       		.byte	0
 9076 2870 00       		.byte	0
 9077 2871 35       		.uleb128 0x35
 9078 2872 2E230000 		.4byte	0x232e
 9079 2876 20000000 		.4byte	.LBB95
 9080 287a 0C000000 		.4byte	.LBE95-.LBB95
 9081 287e 01       		.byte	0x1
 9082 287f 5D03     		.2byte	0x35d
 9083 2881 C3280000 		.4byte	0x28c3
 9084 2885 36       		.uleb128 0x36
 9085 2886 4B230000 		.4byte	0x234b
 9086 288a F4030000 		.4byte	.LLST27
 9087 288e 36       		.uleb128 0x36
 9088 288f 3F230000 		.4byte	0x233f
 9089 2893 0A040000 		.4byte	.LLST28
 9090 2897 31       		.uleb128 0x31
 9091 2898 20000000 		.4byte	.LBB96
 9092 289c 0C000000 		.4byte	.LBE96-.LBB96
 9093 28a0 37       		.uleb128 0x37
 9094 28a1 57230000 		.4byte	0x2357
 9095 28a5 38       		.uleb128 0x38
 9096 28a6 2A000000 		.4byte	.LVL55
 9097 28aa D84B0000 		.4byte	0x4bd8
 9098 28ae 39       		.uleb128 0x39
 9099 28af 01       		.uleb128 0x1
 9100 28b0 50       		.byte	0x50
 9101 28b1 02       		.uleb128 0x2
 9102 28b2 75       		.byte	0x75
 9103 28b3 00       		.sleb128 0
 9104 28b4 39       		.uleb128 0x39
 9105 28b5 01       		.uleb128 0x1
 9106 28b6 51       		.byte	0x51
 9107 28b7 02       		.uleb128 0x2
 9108 28b8 77       		.byte	0x77
 9109 28b9 00       		.sleb128 0
 9110 28ba 39       		.uleb128 0x39
 9111 28bb 01       		.uleb128 0x1
 9112 28bc 52       		.byte	0x52
 9113 28bd 02       		.uleb128 0x2
 9114 28be 08       		.byte	0x8
 9115 28bf 41       		.byte	0x41
 9116 28c0 00       		.byte	0
 9117 28c1 00       		.byte	0
 9118 28c2 00       		.byte	0
ARM GAS  C:\Users\haske\AppData\Local\Temp\ccmHbbn5.s 			page 192


 9119 28c3 35       		.uleb128 0x35
 9120 28c4 2E230000 		.4byte	0x232e
 9121 28c8 30000000 		.4byte	.LBB97
 9122 28cc 0A000000 		.4byte	.LBE97-.LBB97
 9123 28d0 01       		.byte	0x1
 9124 28d1 5D03     		.2byte	0x35d
 9125 28d3 15290000 		.4byte	0x2915
 9126 28d7 36       		.uleb128 0x36
 9127 28d8 4B230000 		.4byte	0x234b
 9128 28dc 1D040000 		.4byte	.LLST29
 9129 28e0 36       		.uleb128 0x36
 9130 28e1 3F230000 		.4byte	0x233f
 9131 28e5 33040000 		.4byte	.LLST30
 9132 28e9 31       		.uleb128 0x31
 9133 28ea 30000000 		.4byte	.LBB98
 9134 28ee 0A000000 		.4byte	.LBE98-.LBB98
 9135 28f2 37       		.uleb128 0x37
 9136 28f3 57230000 		.4byte	0x2357
 9137 28f7 38       		.uleb128 0x38
 9138 28f8 3A000000 		.4byte	.LVL58
 9139 28fc D84B0000 		.4byte	0x4bd8
 9140 2900 39       		.uleb128 0x39
 9141 2901 01       		.uleb128 0x1
 9142 2902 50       		.byte	0x50
 9143 2903 02       		.uleb128 0x2
 9144 2904 75       		.byte	0x75
 9145 2905 00       		.sleb128 0
 9146 2906 39       		.uleb128 0x39
 9147 2907 01       		.uleb128 0x1
 9148 2908 51       		.byte	0x51
 9149 2909 02       		.uleb128 0x2
 9150 290a 77       		.byte	0x77
 9151 290b 00       		.sleb128 0
 9152 290c 39       		.uleb128 0x39
 9153 290d 01       		.uleb128 0x1
 9154 290e 52       		.byte	0x52
 9155 290f 02       		.uleb128 0x2
 9156 2910 08       		.byte	0x8
 9157 2911 41       		.byte	0x41
 9158 2912 00       		.byte	0
 9159 2913 00       		.byte	0
 9160 2914 00       		.byte	0
 9161 2915 35       		.uleb128 0x35
 9162 2916 2E230000 		.4byte	0x232e
 9163 291a 3E000000 		.4byte	.LBB99
 9164 291e 0E000000 		.4byte	.LBE99-.LBB99
 9165 2922 01       		.byte	0x1
 9166 2923 5D03     		.2byte	0x35d
 9167 2925 68290000 		.4byte	0x2968
 9168 2929 36       		.uleb128 0x36
 9169 292a 4B230000 		.4byte	0x234b
 9170 292e 46040000 		.4byte	.LLST31
 9171 2932 36       		.uleb128 0x36
 9172 2933 3F230000 		.4byte	0x233f
 9173 2937 5C040000 		.4byte	.LLST32
 9174 293b 31       		.uleb128 0x31
 9175 293c 3E000000 		.4byte	.LBB100
ARM GAS  C:\Users\haske\AppData\Local\Temp\ccmHbbn5.s 			page 193


 9176 2940 0E000000 		.4byte	.LBE100-.LBB100
 9177 2944 37       		.uleb128 0x37
 9178 2945 57230000 		.4byte	0x2357
 9179 2949 38       		.uleb128 0x38
 9180 294a 4A000000 		.4byte	.LVL60
 9181 294e D84B0000 		.4byte	0x4bd8
 9182 2952 39       		.uleb128 0x39
 9183 2953 01       		.uleb128 0x1
 9184 2954 50       		.byte	0x50
 9185 2955 02       		.uleb128 0x2
 9186 2956 75       		.byte	0x75
 9187 2957 00       		.sleb128 0
 9188 2958 39       		.uleb128 0x39
 9189 2959 01       		.uleb128 0x1
 9190 295a 51       		.byte	0x51
 9191 295b 03       		.uleb128 0x3
 9192 295c 48       		.byte	0x48
 9193 295d 3D       		.byte	0x3d
 9194 295e 24       		.byte	0x24
 9195 295f 39       		.uleb128 0x39
 9196 2960 01       		.uleb128 0x1
 9197 2961 52       		.byte	0x52
 9198 2962 02       		.uleb128 0x2
 9199 2963 08       		.byte	0x8
 9200 2964 41       		.byte	0x41
 9201 2965 00       		.byte	0
 9202 2966 00       		.byte	0
 9203 2967 00       		.byte	0
 9204 2968 35       		.uleb128 0x35
 9205 2969 CA230000 		.4byte	0x23ca
 9206 296d 52000000 		.4byte	.LBB101
 9207 2971 0E000000 		.4byte	.LBE101-.LBB101
 9208 2975 01       		.byte	0x1
 9209 2976 5E03     		.2byte	0x35e
 9210 2978 BB290000 		.4byte	0x29bb
 9211 297c 36       		.uleb128 0x36
 9212 297d E7230000 		.4byte	0x23e7
 9213 2981 6F040000 		.4byte	.LLST33
 9214 2985 36       		.uleb128 0x36
 9215 2986 DB230000 		.4byte	0x23db
 9216 298a 85040000 		.4byte	.LLST34
 9217 298e 31       		.uleb128 0x31
 9218 298f 52000000 		.4byte	.LBB102
 9219 2993 0E000000 		.4byte	.LBE102-.LBB102
 9220 2997 37       		.uleb128 0x37
 9221 2998 F3230000 		.4byte	0x23f3
 9222 299c 38       		.uleb128 0x38
 9223 299d 5E000000 		.4byte	.LVL64
 9224 29a1 D84B0000 		.4byte	0x4bd8
 9225 29a5 39       		.uleb128 0x39
 9226 29a6 01       		.uleb128 0x1
 9227 29a7 50       		.byte	0x50
 9228 29a8 02       		.uleb128 0x2
 9229 29a9 75       		.byte	0x75
 9230 29aa 00       		.sleb128 0
 9231 29ab 39       		.uleb128 0x39
 9232 29ac 01       		.uleb128 0x1
ARM GAS  C:\Users\haske\AppData\Local\Temp\ccmHbbn5.s 			page 194


 9233 29ad 51       		.byte	0x51
 9234 29ae 03       		.uleb128 0x3
 9235 29af 48       		.byte	0x48
 9236 29b0 3D       		.byte	0x3d
 9237 29b1 24       		.byte	0x24
 9238 29b2 39       		.uleb128 0x39
 9239 29b3 01       		.uleb128 0x1
 9240 29b4 52       		.byte	0x52
 9241 29b5 02       		.uleb128 0x2
 9242 29b6 08       		.byte	0x8
 9243 29b7 42       		.byte	0x42
 9244 29b8 00       		.byte	0
 9245 29b9 00       		.byte	0
 9246 29ba 00       		.byte	0
 9247 29bb 35       		.uleb128 0x35
 9248 29bc CA230000 		.4byte	0x23ca
 9249 29c0 64000000 		.4byte	.LBB103
 9250 29c4 0C000000 		.4byte	.LBE103-.LBB103
 9251 29c8 01       		.byte	0x1
 9252 29c9 5E03     		.2byte	0x35e
 9253 29cb 0E2A0000 		.4byte	0x2a0e
 9254 29cf 36       		.uleb128 0x36
 9255 29d0 E7230000 		.4byte	0x23e7
 9256 29d4 98040000 		.4byte	.LLST35
 9257 29d8 36       		.uleb128 0x36
 9258 29d9 DB230000 		.4byte	0x23db
 9259 29dd AE040000 		.4byte	.LLST36
 9260 29e1 31       		.uleb128 0x31
 9261 29e2 64000000 		.4byte	.LBB104
 9262 29e6 0C000000 		.4byte	.LBE104-.LBB104
 9263 29ea 37       		.uleb128 0x37
 9264 29eb F3230000 		.4byte	0x23f3
 9265 29ef 38       		.uleb128 0x38
 9266 29f0 70000000 		.4byte	.LVL67
 9267 29f4 D84B0000 		.4byte	0x4bd8
 9268 29f8 39       		.uleb128 0x39
 9269 29f9 01       		.uleb128 0x1
 9270 29fa 50       		.byte	0x50
 9271 29fb 02       		.uleb128 0x2
 9272 29fc 75       		.byte	0x75
 9273 29fd 00       		.sleb128 0
 9274 29fe 39       		.uleb128 0x39
 9275 29ff 01       		.uleb128 0x1
 9276 2a00 51       		.byte	0x51
 9277 2a01 03       		.uleb128 0x3
 9278 2a02 48       		.byte	0x48
 9279 2a03 3D       		.byte	0x3d
 9280 2a04 24       		.byte	0x24
 9281 2a05 39       		.uleb128 0x39
 9282 2a06 01       		.uleb128 0x1
 9283 2a07 52       		.byte	0x52
 9284 2a08 02       		.uleb128 0x2
 9285 2a09 08       		.byte	0x8
 9286 2a0a 42       		.byte	0x42
 9287 2a0b 00       		.byte	0
 9288 2a0c 00       		.byte	0
 9289 2a0d 00       		.byte	0
ARM GAS  C:\Users\haske\AppData\Local\Temp\ccmHbbn5.s 			page 195


 9290 2a0e 35       		.uleb128 0x35
 9291 2a0f CA230000 		.4byte	0x23ca
 9292 2a13 74000000 		.4byte	.LBB105
 9293 2a17 0E000000 		.4byte	.LBE105-.LBB105
 9294 2a1b 01       		.byte	0x1
 9295 2a1c 5E03     		.2byte	0x35e
 9296 2a1e 612A0000 		.4byte	0x2a61
 9297 2a22 36       		.uleb128 0x36
 9298 2a23 E7230000 		.4byte	0x23e7
 9299 2a27 C1040000 		.4byte	.LLST37
 9300 2a2b 36       		.uleb128 0x36
 9301 2a2c DB230000 		.4byte	0x23db
 9302 2a30 D7040000 		.4byte	.LLST38
 9303 2a34 31       		.uleb128 0x31
 9304 2a35 74000000 		.4byte	.LBB106
 9305 2a39 0E000000 		.4byte	.LBE106-.LBB106
 9306 2a3d 37       		.uleb128 0x37
 9307 2a3e F3230000 		.4byte	0x23f3
 9308 2a42 38       		.uleb128 0x38
 9309 2a43 80000000 		.4byte	.LVL69
 9310 2a47 D84B0000 		.4byte	0x4bd8
 9311 2a4b 39       		.uleb128 0x39
 9312 2a4c 01       		.uleb128 0x1
 9313 2a4d 50       		.byte	0x50
 9314 2a4e 02       		.uleb128 0x2
 9315 2a4f 75       		.byte	0x75
 9316 2a50 00       		.sleb128 0
 9317 2a51 39       		.uleb128 0x39
 9318 2a52 01       		.uleb128 0x1
 9319 2a53 51       		.byte	0x51
 9320 2a54 03       		.uleb128 0x3
 9321 2a55 48       		.byte	0x48
 9322 2a56 3D       		.byte	0x3d
 9323 2a57 24       		.byte	0x24
 9324 2a58 39       		.uleb128 0x39
 9325 2a59 01       		.uleb128 0x1
 9326 2a5a 52       		.byte	0x52
 9327 2a5b 02       		.uleb128 0x2
 9328 2a5c 08       		.byte	0x8
 9329 2a5d 42       		.byte	0x42
 9330 2a5e 00       		.byte	0
 9331 2a5f 00       		.byte	0
 9332 2a60 00       		.byte	0
 9333 2a61 35       		.uleb128 0x35
 9334 2a62 32240000 		.4byte	0x2432
 9335 2a66 88000000 		.4byte	.LBB107
 9336 2a6a 0E000000 		.4byte	.LBE107-.LBB107
 9337 2a6e 01       		.byte	0x1
 9338 2a6f 6103     		.2byte	0x361
 9339 2a71 B72A0000 		.4byte	0x2ab7
 9340 2a75 36       		.uleb128 0x36
 9341 2a76 4F240000 		.4byte	0x244f
 9342 2a7a EA040000 		.4byte	.LLST39
 9343 2a7e 36       		.uleb128 0x36
 9344 2a7f 43240000 		.4byte	0x2443
 9345 2a83 00050000 		.4byte	.LLST40
 9346 2a87 31       		.uleb128 0x31
ARM GAS  C:\Users\haske\AppData\Local\Temp\ccmHbbn5.s 			page 196


 9347 2a88 88000000 		.4byte	.LBB108
 9348 2a8c 0E000000 		.4byte	.LBE108-.LBB108
 9349 2a90 3B       		.uleb128 0x3b
 9350 2a91 5B240000 		.4byte	0x245b
 9351 2a95 13050000 		.4byte	.LLST41
 9352 2a99 38       		.uleb128 0x38
 9353 2a9a 96000000 		.4byte	.LVL73
 9354 2a9e D84B0000 		.4byte	0x4bd8
 9355 2aa2 39       		.uleb128 0x39
 9356 2aa3 01       		.uleb128 0x1
 9357 2aa4 50       		.byte	0x50
 9358 2aa5 02       		.uleb128 0x2
 9359 2aa6 75       		.byte	0x75
 9360 2aa7 00       		.sleb128 0
 9361 2aa8 39       		.uleb128 0x39
 9362 2aa9 01       		.uleb128 0x1
 9363 2aaa 51       		.byte	0x51
 9364 2aab 02       		.uleb128 0x2
 9365 2aac 77       		.byte	0x77
 9366 2aad 00       		.sleb128 0
 9367 2aae 39       		.uleb128 0x39
 9368 2aaf 01       		.uleb128 0x1
 9369 2ab0 52       		.byte	0x52
 9370 2ab1 02       		.uleb128 0x2
 9371 2ab2 08       		.byte	0x8
 9372 2ab3 35       		.byte	0x35
 9373 2ab4 00       		.byte	0
 9374 2ab5 00       		.byte	0
 9375 2ab6 00       		.byte	0
 9376 2ab7 3C       		.uleb128 0x3c
 9377 2ab8 FE230000 		.4byte	0x23fe
 9378 2abc 98000000 		.4byte	.LBB109
 9379 2ac0 0A000000 		.4byte	.LBE109-.LBB109
 9380 2ac4 01       		.byte	0x1
 9381 2ac5 6203     		.2byte	0x362
 9382 2ac7 36       		.uleb128 0x36
 9383 2ac8 1B240000 		.4byte	0x241b
 9384 2acc 26050000 		.4byte	.LLST42
 9385 2ad0 36       		.uleb128 0x36
 9386 2ad1 0F240000 		.4byte	0x240f
 9387 2ad5 3C050000 		.4byte	.LLST43
 9388 2ad9 31       		.uleb128 0x31
 9389 2ada 98000000 		.4byte	.LBB110
 9390 2ade 0A000000 		.4byte	.LBE110-.LBB110
 9391 2ae2 3B       		.uleb128 0x3b
 9392 2ae3 27240000 		.4byte	0x2427
 9393 2ae7 4F050000 		.4byte	.LLST44
 9394 2aeb 38       		.uleb128 0x38
 9395 2aec A2000000 		.4byte	.LVL76
 9396 2af0 D84B0000 		.4byte	0x4bd8
 9397 2af4 39       		.uleb128 0x39
 9398 2af5 01       		.uleb128 0x1
 9399 2af6 50       		.byte	0x50
 9400 2af7 02       		.uleb128 0x2
 9401 2af8 75       		.byte	0x75
 9402 2af9 00       		.sleb128 0
 9403 2afa 39       		.uleb128 0x39
ARM GAS  C:\Users\haske\AppData\Local\Temp\ccmHbbn5.s 			page 197


 9404 2afb 01       		.uleb128 0x1
 9405 2afc 51       		.byte	0x51
 9406 2afd 02       		.uleb128 0x2
 9407 2afe 77       		.byte	0x77
 9408 2aff 00       		.sleb128 0
 9409 2b00 39       		.uleb128 0x39
 9410 2b01 01       		.uleb128 0x1
 9411 2b02 52       		.byte	0x52
 9412 2b03 02       		.uleb128 0x2
 9413 2b04 08       		.byte	0x8
 9414 2b05 38       		.byte	0x38
 9415 2b06 00       		.byte	0
 9416 2b07 00       		.byte	0
 9417 2b08 00       		.byte	0
 9418 2b09 00       		.byte	0
 9419 2b0a 0D       		.uleb128 0xd
 9420 2b0b 04       		.byte	0x4
 9421 2b0c 3E210000 		.4byte	0x213e
 9422 2b10 32       		.uleb128 0x32
 9423 2b11 D0010000 		.4byte	.LASF653
 9424 2b15 01       		.byte	0x1
 9425 2b16 1303     		.2byte	0x313
 9426 2b18 00000000 		.4byte	.LFB188
 9427 2b1c DE000000 		.4byte	.LFE188-.LFB188
 9428 2b20 01       		.uleb128 0x1
 9429 2b21 9C       		.byte	0x9c
 9430 2b22 CE2D0000 		.4byte	0x2dce
 9431 2b26 2E       		.uleb128 0x2e
 9432 2b27 6F626A00 		.ascii	"obj\000"
 9433 2b2b 01       		.byte	0x1
 9434 2b2c 1303     		.2byte	0x313
 9435 2b2e 0A2B0000 		.4byte	0x2b0a
 9436 2b32 62050000 		.4byte	.LLST45
 9437 2b36 33       		.uleb128 0x33
 9438 2b37 D90E0000 		.4byte	.LASF642
 9439 2b3b 01       		.byte	0x1
 9440 2b3c 1303     		.2byte	0x313
 9441 2b3e 270F0000 		.4byte	0xf27
 9442 2b42 8F050000 		.4byte	.LLST46
 9443 2b46 2E       		.uleb128 0x2e
 9444 2b47 7200     		.ascii	"r\000"
 9445 2b49 01       		.byte	0x1
 9446 2b4a 1303     		.2byte	0x313
 9447 2b4c 01010000 		.4byte	0x101
 9448 2b50 BB050000 		.4byte	.LLST47
 9449 2b54 33       		.uleb128 0x33
 9450 2b55 C12E0000 		.4byte	.LASF654
 9451 2b59 01       		.byte	0x1
 9452 2b5a 1303     		.2byte	0x313
 9453 2b5c 4C0D0000 		.4byte	0xd4c
 9454 2b60 E7050000 		.4byte	.LLST48
 9455 2b64 34       		.uleb128 0x34
 9456 2b65 99090000 		.4byte	.LASF655
 9457 2b69 01       		.byte	0x1
 9458 2b6a 1503     		.2byte	0x315
 9459 2b6c 01010000 		.4byte	0x101
 9460 2b70 30       		.uleb128 0x30
ARM GAS  C:\Users\haske\AppData\Local\Temp\ccmHbbn5.s 			page 198


 9461 2b71 7B230000 		.4byte	.LASF656
 9462 2b75 01       		.byte	0x1
 9463 2b76 1603     		.2byte	0x316
 9464 2b78 01010000 		.4byte	0x101
 9465 2b7c 13060000 		.4byte	.LLST49
 9466 2b80 30       		.uleb128 0x30
 9467 2b81 77160000 		.4byte	.LASF250
 9468 2b85 01       		.byte	0x1
 9469 2b86 1903     		.2byte	0x319
 9470 2b88 01010000 		.4byte	0x101
 9471 2b8c 31060000 		.4byte	.LLST50
 9472 2b90 30       		.uleb128 0x30
 9473 2b91 E1180000 		.4byte	.LASF657
 9474 2b95 01       		.byte	0x1
 9475 2b96 1A03     		.2byte	0x31a
 9476 2b98 01010000 		.4byte	0x101
 9477 2b9c 44060000 		.4byte	.LLST51
 9478 2ba0 30       		.uleb128 0x30
 9479 2ba1 E8180000 		.4byte	.LASF658
 9480 2ba5 01       		.byte	0x1
 9481 2ba6 1B03     		.2byte	0x31b
 9482 2ba8 01010000 		.4byte	0x101
 9483 2bac 57060000 		.4byte	.LLST52
 9484 2bb0 34       		.uleb128 0x34
 9485 2bb1 952E0000 		.4byte	.LASF659
 9486 2bb5 01       		.byte	0x1
 9487 2bb6 1D03     		.2byte	0x31d
 9488 2bb8 01010000 		.4byte	0x101
 9489 2bbc 34       		.uleb128 0x34
 9490 2bbd 2B280000 		.4byte	.LASF660
 9491 2bc1 01       		.byte	0x1
 9492 2bc2 1E03     		.2byte	0x31e
 9493 2bc4 01010000 		.4byte	0x101
 9494 2bc8 34       		.uleb128 0x34
 9495 2bc9 C42C0000 		.4byte	.LASF661
 9496 2bcd 01       		.byte	0x1
 9497 2bce 1F03     		.2byte	0x31f
 9498 2bd0 01010000 		.4byte	0x101
 9499 2bd4 34       		.uleb128 0x34
 9500 2bd5 A5260000 		.4byte	.LASF662
 9501 2bd9 01       		.byte	0x1
 9502 2bda 2003     		.2byte	0x320
 9503 2bdc 01010000 		.4byte	0x101
 9504 2be0 35       		.uleb128 0x35
 9505 2be1 66240000 		.4byte	0x2466
 9506 2be5 14000000 		.4byte	.LBB111
 9507 2be9 0E000000 		.4byte	.LBE111-.LBB111
 9508 2bed 01       		.byte	0x1
 9509 2bee 1503     		.2byte	0x315
 9510 2bf0 342C0000 		.4byte	0x2c34
 9511 2bf4 36       		.uleb128 0x36
 9512 2bf5 83240000 		.4byte	0x2483
 9513 2bf9 76060000 		.4byte	.LLST53
 9514 2bfd 36       		.uleb128 0x36
 9515 2bfe 77240000 		.4byte	0x2477
 9516 2c02 8C060000 		.4byte	.LLST54
 9517 2c06 31       		.uleb128 0x31
ARM GAS  C:\Users\haske\AppData\Local\Temp\ccmHbbn5.s 			page 199


 9518 2c07 14000000 		.4byte	.LBB112
 9519 2c0b 0E000000 		.4byte	.LBE112-.LBB112
 9520 2c0f 37       		.uleb128 0x37
 9521 2c10 8F240000 		.4byte	0x248f
 9522 2c14 38       		.uleb128 0x38
 9523 2c15 20000000 		.4byte	.LVL86
 9524 2c19 D84B0000 		.4byte	0x4bd8
 9525 2c1d 39       		.uleb128 0x39
 9526 2c1e 01       		.uleb128 0x1
 9527 2c1f 50       		.byte	0x50
 9528 2c20 03       		.uleb128 0x3
 9529 2c21 7D       		.byte	0x7d
 9530 2c22 00       		.sleb128 0
 9531 2c23 06       		.byte	0x6
 9532 2c24 39       		.uleb128 0x39
 9533 2c25 01       		.uleb128 0x1
 9534 2c26 51       		.byte	0x51
 9535 2c27 03       		.uleb128 0x3
 9536 2c28 40       		.byte	0x40
 9537 2c29 3D       		.byte	0x3d
 9538 2c2a 24       		.byte	0x24
 9539 2c2b 39       		.uleb128 0x39
 9540 2c2c 01       		.uleb128 0x1
 9541 2c2d 52       		.byte	0x52
 9542 2c2e 02       		.uleb128 0x2
 9543 2c2f 08       		.byte	0x8
 9544 2c30 50       		.byte	0x50
 9545 2c31 00       		.byte	0
 9546 2c32 00       		.byte	0
 9547 2c33 00       		.byte	0
 9548 2c34 35       		.uleb128 0x35
 9549 2c35 FE220000 		.4byte	0x22fe
 9550 2c39 52000000 		.4byte	.LBB113
 9551 2c3d 10000000 		.4byte	.LBE113-.LBB113
 9552 2c41 01       		.byte	0x1
 9553 2c42 1D03     		.2byte	0x31d
 9554 2c44 8B2C0000 		.4byte	0x2c8b
 9555 2c48 36       		.uleb128 0x36
 9556 2c49 19230000 		.4byte	0x2319
 9557 2c4d AB060000 		.4byte	.LLST55
 9558 2c51 36       		.uleb128 0x36
 9559 2c52 0E230000 		.4byte	0x230e
 9560 2c56 C1060000 		.4byte	.LLST56
 9561 2c5a 31       		.uleb128 0x31
 9562 2c5b 52000000 		.4byte	.LBB114
 9563 2c5f 10000000 		.4byte	.LBE114-.LBB114
 9564 2c63 3B       		.uleb128 0x3b
 9565 2c64 24230000 		.4byte	0x2324
 9566 2c68 D5060000 		.4byte	.LLST57
 9567 2c6c 38       		.uleb128 0x38
 9568 2c6d 60000000 		.4byte	.LVL99
 9569 2c71 D84B0000 		.4byte	0x4bd8
 9570 2c75 39       		.uleb128 0x39
 9571 2c76 01       		.uleb128 0x1
 9572 2c77 50       		.byte	0x50
 9573 2c78 03       		.uleb128 0x3
 9574 2c79 7D       		.byte	0x7d
ARM GAS  C:\Users\haske\AppData\Local\Temp\ccmHbbn5.s 			page 200


 9575 2c7a 00       		.sleb128 0
 9576 2c7b 06       		.byte	0x6
 9577 2c7c 39       		.uleb128 0x39
 9578 2c7d 01       		.uleb128 0x1
 9579 2c7e 51       		.byte	0x51
 9580 2c7f 03       		.uleb128 0x3
 9581 2c80 48       		.byte	0x48
 9582 2c81 3D       		.byte	0x3d
 9583 2c82 24       		.byte	0x24
 9584 2c83 39       		.uleb128 0x39
 9585 2c84 01       		.uleb128 0x1
 9586 2c85 52       		.byte	0x52
 9587 2c86 01       		.uleb128 0x1
 9588 2c87 42       		.byte	0x42
 9589 2c88 00       		.byte	0
 9590 2c89 00       		.byte	0
 9591 2c8a 00       		.byte	0
 9592 2c8b 35       		.uleb128 0x35
 9593 2c8c CE220000 		.4byte	0x22ce
 9594 2c90 62000000 		.4byte	.LBB115
 9595 2c94 10000000 		.4byte	.LBE115-.LBB115
 9596 2c98 01       		.byte	0x1
 9597 2c99 1E03     		.2byte	0x31e
 9598 2c9b E12C0000 		.4byte	0x2ce1
 9599 2c9f 36       		.uleb128 0x36
 9600 2ca0 E9220000 		.4byte	0x22e9
 9601 2ca4 E8060000 		.4byte	.LLST58
 9602 2ca8 36       		.uleb128 0x36
 9603 2ca9 DE220000 		.4byte	0x22de
 9604 2cad FE060000 		.4byte	.LLST59
 9605 2cb1 31       		.uleb128 0x31
 9606 2cb2 62000000 		.4byte	.LBB116
 9607 2cb6 10000000 		.4byte	.LBE116-.LBB116
 9608 2cba 3B       		.uleb128 0x3b
 9609 2cbb F4220000 		.4byte	0x22f4
 9610 2cbf 1D070000 		.4byte	.LLST60
 9611 2cc3 38       		.uleb128 0x38
 9612 2cc4 70000000 		.4byte	.LVL102
 9613 2cc8 D84B0000 		.4byte	0x4bd8
 9614 2ccc 39       		.uleb128 0x39
 9615 2ccd 01       		.uleb128 0x1
 9616 2cce 50       		.byte	0x50
 9617 2ccf 02       		.uleb128 0x2
 9618 2cd0 76       		.byte	0x76
 9619 2cd1 00       		.sleb128 0
 9620 2cd2 39       		.uleb128 0x39
 9621 2cd3 01       		.uleb128 0x1
 9622 2cd4 51       		.byte	0x51
 9623 2cd5 03       		.uleb128 0x3
 9624 2cd6 48       		.byte	0x48
 9625 2cd7 3D       		.byte	0x3d
 9626 2cd8 24       		.byte	0x24
 9627 2cd9 39       		.uleb128 0x39
 9628 2cda 01       		.uleb128 0x1
 9629 2cdb 52       		.byte	0x52
 9630 2cdc 01       		.uleb128 0x1
 9631 2cdd 43       		.byte	0x43
ARM GAS  C:\Users\haske\AppData\Local\Temp\ccmHbbn5.s 			page 201


 9632 2cde 00       		.byte	0
 9633 2cdf 00       		.byte	0
 9634 2ce0 00       		.byte	0
 9635 2ce1 35       		.uleb128 0x35
 9636 2ce2 9E220000 		.4byte	0x229e
 9637 2ce6 72000000 		.4byte	.LBB117
 9638 2cea 0E000000 		.4byte	.LBE117-.LBB117
 9639 2cee 01       		.byte	0x1
 9640 2cef 1F03     		.2byte	0x31f
 9641 2cf1 382D0000 		.4byte	0x2d38
 9642 2cf5 36       		.uleb128 0x36
 9643 2cf6 B9220000 		.4byte	0x22b9
 9644 2cfa 30070000 		.4byte	.LLST61
 9645 2cfe 36       		.uleb128 0x36
 9646 2cff AE220000 		.4byte	0x22ae
 9647 2d03 46070000 		.4byte	.LLST62
 9648 2d07 31       		.uleb128 0x31
 9649 2d08 72000000 		.4byte	.LBB118
 9650 2d0c 0E000000 		.4byte	.LBE118-.LBB118
 9651 2d10 3B       		.uleb128 0x3b
 9652 2d11 C4220000 		.4byte	0x22c4
 9653 2d15 5A070000 		.4byte	.LLST63
 9654 2d19 38       		.uleb128 0x38
 9655 2d1a 7E000000 		.4byte	.LVL104
 9656 2d1e D84B0000 		.4byte	0x4bd8
 9657 2d22 39       		.uleb128 0x39
 9658 2d23 01       		.uleb128 0x1
 9659 2d24 50       		.byte	0x50
 9660 2d25 03       		.uleb128 0x3
 9661 2d26 7D       		.byte	0x7d
 9662 2d27 00       		.sleb128 0
 9663 2d28 06       		.byte	0x6
 9664 2d29 39       		.uleb128 0x39
 9665 2d2a 01       		.uleb128 0x1
 9666 2d2b 51       		.byte	0x51
 9667 2d2c 03       		.uleb128 0x3
 9668 2d2d 48       		.byte	0x48
 9669 2d2e 3D       		.byte	0x3d
 9670 2d2f 24       		.byte	0x24
 9671 2d30 39       		.uleb128 0x39
 9672 2d31 01       		.uleb128 0x1
 9673 2d32 52       		.byte	0x52
 9674 2d33 01       		.uleb128 0x1
 9675 2d34 40       		.byte	0x40
 9676 2d35 00       		.byte	0
 9677 2d36 00       		.byte	0
 9678 2d37 00       		.byte	0
 9679 2d38 35       		.uleb128 0x35
 9680 2d39 63220000 		.4byte	0x2263
 9681 2d3d 80000000 		.4byte	.LBB119
 9682 2d41 0C000000 		.4byte	.LBE119-.LBB119
 9683 2d45 01       		.byte	0x1
 9684 2d46 2003     		.2byte	0x320
 9685 2d48 8F2D0000 		.4byte	0x2d8f
 9686 2d4c 36       		.uleb128 0x36
 9687 2d4d 7E220000 		.4byte	0x227e
 9688 2d51 6D070000 		.4byte	.LLST64
ARM GAS  C:\Users\haske\AppData\Local\Temp\ccmHbbn5.s 			page 202


 9689 2d55 36       		.uleb128 0x36
 9690 2d56 73220000 		.4byte	0x2273
 9691 2d5a 83070000 		.4byte	.LLST65
 9692 2d5e 31       		.uleb128 0x31
 9693 2d5f 80000000 		.4byte	.LBB120
 9694 2d63 0C000000 		.4byte	.LBE120-.LBB120
 9695 2d67 3B       		.uleb128 0x3b
 9696 2d68 89220000 		.4byte	0x2289
 9697 2d6c 97070000 		.4byte	.LLST66
 9698 2d70 38       		.uleb128 0x38
 9699 2d71 8C000000 		.4byte	.LVL106
 9700 2d75 D84B0000 		.4byte	0x4bd8
 9701 2d79 39       		.uleb128 0x39
 9702 2d7a 01       		.uleb128 0x1
 9703 2d7b 50       		.byte	0x50
 9704 2d7c 03       		.uleb128 0x3
 9705 2d7d 7D       		.byte	0x7d
 9706 2d7e 00       		.sleb128 0
 9707 2d7f 06       		.byte	0x6
 9708 2d80 39       		.uleb128 0x39
 9709 2d81 01       		.uleb128 0x1
 9710 2d82 51       		.byte	0x51
 9711 2d83 03       		.uleb128 0x3
 9712 2d84 48       		.byte	0x48
 9713 2d85 3D       		.byte	0x3d
 9714 2d86 24       		.byte	0x24
 9715 2d87 39       		.uleb128 0x39
 9716 2d88 01       		.uleb128 0x1
 9717 2d89 52       		.byte	0x52
 9718 2d8a 01       		.uleb128 0x1
 9719 2d8b 41       		.byte	0x41
 9720 2d8c 00       		.byte	0
 9721 2d8d 00       		.byte	0
 9722 2d8e 00       		.byte	0
 9723 2d8f 3A       		.uleb128 0x3a
 9724 2d90 34000000 		.4byte	.LVL91
 9725 2d94 CE240000 		.4byte	0x24ce
 9726 2d98 A42D0000 		.4byte	0x2da4
 9727 2d9c 39       		.uleb128 0x39
 9728 2d9d 01       		.uleb128 0x1
 9729 2d9e 50       		.byte	0x50
 9730 2d9f 03       		.uleb128 0x3
 9731 2da0 7D       		.byte	0x7d
 9732 2da1 00       		.sleb128 0
 9733 2da2 06       		.byte	0x6
 9734 2da3 00       		.byte	0
 9735 2da4 3A       		.uleb128 0x3a
 9736 2da5 40000000 		.4byte	.LVL94
 9737 2da9 FB4B0000 		.4byte	0x4bfb
 9738 2dad BB2D0000 		.4byte	0x2dbb
 9739 2db1 39       		.uleb128 0x39
 9740 2db2 01       		.uleb128 0x1
 9741 2db3 50       		.byte	0x50
 9742 2db4 05       		.uleb128 0x5
 9743 2db5 91       		.byte	0x91
 9744 2db6 54       		.sleb128 -44
 9745 2db7 06       		.byte	0x6
ARM GAS  C:\Users\haske\AppData\Local\Temp\ccmHbbn5.s 			page 203


 9746 2db8 23       		.byte	0x23
 9747 2db9 5A       		.uleb128 0x5a
 9748 2dba 00       		.byte	0
 9749 2dbb 38       		.uleb128 0x38
 9750 2dbc 4C000000 		.4byte	.LVL96
 9751 2dc0 FB4B0000 		.4byte	0x4bfb
 9752 2dc4 39       		.uleb128 0x39
 9753 2dc5 01       		.uleb128 0x1
 9754 2dc6 50       		.byte	0x50
 9755 2dc7 04       		.uleb128 0x4
 9756 2dc8 91       		.byte	0x91
 9757 2dc9 54       		.sleb128 -44
 9758 2dca 94       		.byte	0x94
 9759 2dcb 02       		.byte	0x2
 9760 2dcc 00       		.byte	0
 9761 2dcd 00       		.byte	0
 9762 2dce 32       		.uleb128 0x32
 9763 2dcf 75010000 		.4byte	.LASF663
 9764 2dd3 01       		.byte	0x1
 9765 2dd4 6702     		.2byte	0x267
 9766 2dd6 00000000 		.4byte	.LFB183
 9767 2dda DC010000 		.4byte	.LFE183-.LFB183
 9768 2dde 01       		.uleb128 0x1
 9769 2ddf 9C       		.byte	0x9c
 9770 2de0 45320000 		.4byte	0x3245
 9771 2de4 2E       		.uleb128 0x2e
 9772 2de5 6500     		.ascii	"e\000"
 9773 2de7 01       		.byte	0x1
 9774 2de8 6702     		.2byte	0x267
 9775 2dea 851F0000 		.4byte	0x1f85
 9776 2dee AA070000 		.4byte	.LLST67
 9777 2df2 2F       		.uleb128 0x2f
 9778 2df3 6F626A00 		.ascii	"obj\000"
 9779 2df7 01       		.byte	0x1
 9780 2df8 6902     		.2byte	0x269
 9781 2dfa 0A2B0000 		.4byte	0x2b0a
 9782 2dfe D6070000 		.4byte	.LLST68
 9783 2e02 2F       		.uleb128 0x2f
 9784 2e03 61726300 		.ascii	"arc\000"
 9785 2e07 01       		.byte	0x1
 9786 2e08 6A02     		.2byte	0x26a
 9787 2e0a 5E250000 		.4byte	0x255e
 9788 2e0e D6070000 		.4byte	.LLST68
 9789 2e12 30       		.uleb128 0x30
 9790 2e13 542A0000 		.4byte	.LASF349
 9791 2e17 01       		.byte	0x1
 9792 2e18 6C02     		.2byte	0x26c
 9793 2e1a 78140000 		.4byte	0x1478
 9794 2e1e F4070000 		.4byte	.LLST70
 9795 2e22 3D       		.uleb128 0x3d
 9796 2e23 D90E0000 		.4byte	.LASF642
 9797 2e27 01       		.byte	0x1
 9798 2e28 6E02     		.2byte	0x26e
 9799 2e2a 29010000 		.4byte	0x129
 9800 2e2e 02       		.uleb128 0x2
 9801 2e2f 91       		.byte	0x91
 9802 2e30 64       		.sleb128 -28
ARM GAS  C:\Users\haske\AppData\Local\Temp\ccmHbbn5.s 			page 204


 9803 2e31 3D       		.uleb128 0x3d
 9804 2e32 16190000 		.4byte	.LASF643
 9805 2e36 01       		.byte	0x1
 9806 2e37 6F02     		.2byte	0x26f
 9807 2e39 01010000 		.4byte	0x101
 9808 2e3d 02       		.uleb128 0x2
 9809 2e3e 91       		.byte	0x91
 9810 2e3f 62       		.sleb128 -30
 9811 2e40 3D       		.uleb128 0x3d
 9812 2e41 AF070000 		.4byte	.LASF664
 9813 2e45 01       		.byte	0x1
 9814 2e46 7202     		.2byte	0x272
 9815 2e48 5F1D0000 		.4byte	0x1d5f
 9816 2e4c 03       		.uleb128 0x3
 9817 2e4d 91       		.byte	0x91
 9818 2e4e 987F     		.sleb128 -104
 9819 2e50 3D       		.uleb128 0x3d
 9820 2e51 8C1D0000 		.4byte	.LASF497
 9821 2e55 01       		.byte	0x1
 9822 2e56 7602     		.2byte	0x276
 9823 2e58 C70C0000 		.4byte	0xcc7
 9824 2e5c 03       		.uleb128 0x3
 9825 2e5d 91       		.byte	0x91
 9826 2e5e 887F     		.sleb128 -120
 9827 2e60 34       		.uleb128 0x34
 9828 2e61 1C2A0000 		.4byte	.LASF665
 9829 2e65 01       		.byte	0x1
 9830 2e66 8A02     		.2byte	0x28a
 9831 2e68 01010000 		.4byte	0x101
 9832 2e6c 34       		.uleb128 0x34
 9833 2e6d B02E0000 		.4byte	.LASF666
 9834 2e71 01       		.byte	0x1
 9835 2e72 8B02     		.2byte	0x28b
 9836 2e74 01010000 		.4byte	0x101
 9837 2e78 34       		.uleb128 0x34
 9838 2e79 82270000 		.4byte	.LASF667
 9839 2e7d 01       		.byte	0x1
 9840 2e7e 8C02     		.2byte	0x28c
 9841 2e80 01010000 		.4byte	0x101
 9842 2e84 34       		.uleb128 0x34
 9843 2e85 24100000 		.4byte	.LASF668
 9844 2e89 01       		.byte	0x1
 9845 2e8a 8D02     		.2byte	0x28d
 9846 2e8c 01010000 		.4byte	0x101
 9847 2e90 30       		.uleb128 0x30
 9848 2e91 0B210000 		.4byte	.LASF669
 9849 2e95 01       		.byte	0x1
 9850 2e96 8E02     		.2byte	0x28e
 9851 2e98 01010000 		.4byte	0x101
 9852 2e9c 1F080000 		.4byte	.LLST71
 9853 2ea0 3D       		.uleb128 0x3d
 9854 2ea1 C12E0000 		.4byte	.LASF654
 9855 2ea5 01       		.byte	0x1
 9856 2ea6 A302     		.2byte	0x2a3
 9857 2ea8 69010000 		.4byte	0x169
 9858 2eac 03       		.uleb128 0x3
 9859 2ead 91       		.byte	0x91
ARM GAS  C:\Users\haske\AppData\Local\Temp\ccmHbbn5.s 			page 205


 9860 2eae 807F     		.sleb128 -128
 9861 2eb0 3D       		.uleb128 0x3d
 9862 2eb1 B50E0000 		.4byte	.LASF670
 9863 2eb5 01       		.byte	0x1
 9864 2eb6 A602     		.2byte	0x2a6
 9865 2eb8 560A0000 		.4byte	0xa56
 9866 2ebc 03       		.uleb128 0x3
 9867 2ebd 91       		.byte	0x91
 9868 2ebe C87E     		.sleb128 -184
 9869 2ec0 35       		.uleb128 0x35
 9870 2ec1 FE220000 		.4byte	0x22fe
 9871 2ec5 9E000000 		.4byte	.LBB121
 9872 2ec9 0E000000 		.4byte	.LBE121-.LBB121
 9873 2ecd 01       		.byte	0x1
 9874 2ece 8A02     		.2byte	0x28a
 9875 2ed0 122F0000 		.4byte	0x2f12
 9876 2ed4 36       		.uleb128 0x36
 9877 2ed5 19230000 		.4byte	0x2319
 9878 2ed9 32080000 		.4byte	.LLST72
 9879 2edd 36       		.uleb128 0x36
 9880 2ede 0E230000 		.4byte	0x230e
 9881 2ee2 48080000 		.4byte	.LLST73
 9882 2ee6 31       		.uleb128 0x31
 9883 2ee7 9E000000 		.4byte	.LBB122
 9884 2eeb 0E000000 		.4byte	.LBE122-.LBB122
 9885 2eef 37       		.uleb128 0x37
 9886 2ef0 24230000 		.4byte	0x2324
 9887 2ef4 38       		.uleb128 0x38
 9888 2ef5 AA000000 		.4byte	.LVL136
 9889 2ef9 D84B0000 		.4byte	0x4bd8
 9890 2efd 39       		.uleb128 0x39
 9891 2efe 01       		.uleb128 0x1
 9892 2eff 50       		.byte	0x50
 9893 2f00 02       		.uleb128 0x2
 9894 2f01 74       		.byte	0x74
 9895 2f02 00       		.sleb128 0
 9896 2f03 39       		.uleb128 0x39
 9897 2f04 01       		.uleb128 0x1
 9898 2f05 51       		.byte	0x51
 9899 2f06 03       		.uleb128 0x3
 9900 2f07 40       		.byte	0x40
 9901 2f08 3D       		.byte	0x3d
 9902 2f09 24       		.byte	0x24
 9903 2f0a 39       		.uleb128 0x39
 9904 2f0b 01       		.uleb128 0x1
 9905 2f0c 52       		.byte	0x52
 9906 2f0d 01       		.uleb128 0x1
 9907 2f0e 42       		.byte	0x42
 9908 2f0f 00       		.byte	0
 9909 2f10 00       		.byte	0
 9910 2f11 00       		.byte	0
 9911 2f12 35       		.uleb128 0x35
 9912 2f13 CE220000 		.4byte	0x22ce
 9913 2f17 AC000000 		.4byte	.LBB123
 9914 2f1b 0E000000 		.4byte	.LBE123-.LBB123
 9915 2f1f 01       		.byte	0x1
 9916 2f20 8B02     		.2byte	0x28b
ARM GAS  C:\Users\haske\AppData\Local\Temp\ccmHbbn5.s 			page 206


 9917 2f22 642F0000 		.4byte	0x2f64
 9918 2f26 36       		.uleb128 0x36
 9919 2f27 E9220000 		.4byte	0x22e9
 9920 2f2b 5B080000 		.4byte	.LLST74
 9921 2f2f 36       		.uleb128 0x36
 9922 2f30 DE220000 		.4byte	0x22de
 9923 2f34 71080000 		.4byte	.LLST75
 9924 2f38 31       		.uleb128 0x31
 9925 2f39 AC000000 		.4byte	.LBB124
 9926 2f3d 0E000000 		.4byte	.LBE124-.LBB124
 9927 2f41 37       		.uleb128 0x37
 9928 2f42 F4220000 		.4byte	0x22f4
 9929 2f46 38       		.uleb128 0x38
 9930 2f47 B8000000 		.4byte	.LVL138
 9931 2f4b D84B0000 		.4byte	0x4bd8
 9932 2f4f 39       		.uleb128 0x39
 9933 2f50 01       		.uleb128 0x1
 9934 2f51 50       		.byte	0x50
 9935 2f52 02       		.uleb128 0x2
 9936 2f53 74       		.byte	0x74
 9937 2f54 00       		.sleb128 0
 9938 2f55 39       		.uleb128 0x39
 9939 2f56 01       		.uleb128 0x1
 9940 2f57 51       		.byte	0x51
 9941 2f58 03       		.uleb128 0x3
 9942 2f59 40       		.byte	0x40
 9943 2f5a 3D       		.byte	0x3d
 9944 2f5b 24       		.byte	0x24
 9945 2f5c 39       		.uleb128 0x39
 9946 2f5d 01       		.uleb128 0x1
 9947 2f5e 52       		.byte	0x52
 9948 2f5f 01       		.uleb128 0x1
 9949 2f60 43       		.byte	0x43
 9950 2f61 00       		.byte	0
 9951 2f62 00       		.byte	0
 9952 2f63 00       		.byte	0
 9953 2f64 35       		.uleb128 0x35
 9954 2f65 9E220000 		.4byte	0x229e
 9955 2f69 BA000000 		.4byte	.LBB125
 9956 2f6d 0E000000 		.4byte	.LBE125-.LBB125
 9957 2f71 01       		.byte	0x1
 9958 2f72 8C02     		.2byte	0x28c
 9959 2f74 B62F0000 		.4byte	0x2fb6
 9960 2f78 36       		.uleb128 0x36
 9961 2f79 B9220000 		.4byte	0x22b9
 9962 2f7d 84080000 		.4byte	.LLST76
 9963 2f81 36       		.uleb128 0x36
 9964 2f82 AE220000 		.4byte	0x22ae
 9965 2f86 9A080000 		.4byte	.LLST77
 9966 2f8a 31       		.uleb128 0x31
 9967 2f8b BA000000 		.4byte	.LBB126
 9968 2f8f 0E000000 		.4byte	.LBE126-.LBB126
 9969 2f93 37       		.uleb128 0x37
 9970 2f94 C4220000 		.4byte	0x22c4
 9971 2f98 38       		.uleb128 0x38
 9972 2f99 C6000000 		.4byte	.LVL140
 9973 2f9d D84B0000 		.4byte	0x4bd8
ARM GAS  C:\Users\haske\AppData\Local\Temp\ccmHbbn5.s 			page 207


 9974 2fa1 39       		.uleb128 0x39
 9975 2fa2 01       		.uleb128 0x1
 9976 2fa3 50       		.byte	0x50
 9977 2fa4 02       		.uleb128 0x2
 9978 2fa5 74       		.byte	0x74
 9979 2fa6 00       		.sleb128 0
 9980 2fa7 39       		.uleb128 0x39
 9981 2fa8 01       		.uleb128 0x1
 9982 2fa9 51       		.byte	0x51
 9983 2faa 03       		.uleb128 0x3
 9984 2fab 40       		.byte	0x40
 9985 2fac 3D       		.byte	0x3d
 9986 2fad 24       		.byte	0x24
 9987 2fae 39       		.uleb128 0x39
 9988 2faf 01       		.uleb128 0x1
 9989 2fb0 52       		.byte	0x52
 9990 2fb1 01       		.uleb128 0x1
 9991 2fb2 40       		.byte	0x40
 9992 2fb3 00       		.byte	0
 9993 2fb4 00       		.byte	0
 9994 2fb5 00       		.byte	0
 9995 2fb6 35       		.uleb128 0x35
 9996 2fb7 63220000 		.4byte	0x2263
 9997 2fbb C8000000 		.4byte	.LBB127
 9998 2fbf 0E000000 		.4byte	.LBE127-.LBB127
 9999 2fc3 01       		.byte	0x1
 10000 2fc4 8D02     		.2byte	0x28d
 10001 2fc6 08300000 		.4byte	0x3008
 10002 2fca 36       		.uleb128 0x36
 10003 2fcb 7E220000 		.4byte	0x227e
 10004 2fcf AD080000 		.4byte	.LLST78
 10005 2fd3 36       		.uleb128 0x36
 10006 2fd4 73220000 		.4byte	0x2273
 10007 2fd8 C3080000 		.4byte	.LLST79
 10008 2fdc 31       		.uleb128 0x31
 10009 2fdd C8000000 		.4byte	.LBB128
 10010 2fe1 0E000000 		.4byte	.LBE128-.LBB128
 10011 2fe5 37       		.uleb128 0x37
 10012 2fe6 89220000 		.4byte	0x2289
 10013 2fea 38       		.uleb128 0x38
 10014 2feb D4000000 		.4byte	.LVL142
 10015 2fef D84B0000 		.4byte	0x4bd8
 10016 2ff3 39       		.uleb128 0x39
 10017 2ff4 01       		.uleb128 0x1
 10018 2ff5 50       		.byte	0x50
 10019 2ff6 02       		.uleb128 0x2
 10020 2ff7 74       		.byte	0x74
 10021 2ff8 00       		.sleb128 0
 10022 2ff9 39       		.uleb128 0x39
 10023 2ffa 01       		.uleb128 0x1
 10024 2ffb 51       		.byte	0x51
 10025 2ffc 03       		.uleb128 0x3
 10026 2ffd 40       		.byte	0x40
 10027 2ffe 3D       		.byte	0x3d
 10028 2fff 24       		.byte	0x24
 10029 3000 39       		.uleb128 0x39
 10030 3001 01       		.uleb128 0x1
ARM GAS  C:\Users\haske\AppData\Local\Temp\ccmHbbn5.s 			page 208


 10031 3002 52       		.byte	0x52
 10032 3003 01       		.uleb128 0x1
 10033 3004 41       		.byte	0x41
 10034 3005 00       		.byte	0
 10035 3006 00       		.byte	0
 10036 3007 00       		.byte	0
 10037 3008 3A       		.uleb128 0x3a
 10038 3009 0E000000 		.4byte	.LVL121
 10039 300d 064C0000 		.4byte	0x4c06
 10040 3011 1C300000 		.4byte	0x301c
 10041 3015 39       		.uleb128 0x39
 10042 3016 01       		.uleb128 0x1
 10043 3017 50       		.byte	0x50
 10044 3018 02       		.uleb128 0x2
 10045 3019 75       		.byte	0x75
 10046 301a 00       		.sleb128 0
 10047 301b 00       		.byte	0
 10048 301c 3A       		.uleb128 0x3a
 10049 301d 16000000 		.4byte	.LVL124
 10050 3021 114C0000 		.4byte	0x4c11
 10051 3025 30300000 		.4byte	0x3030
 10052 3029 39       		.uleb128 0x39
 10053 302a 01       		.uleb128 0x1
 10054 302b 50       		.byte	0x50
 10055 302c 02       		.uleb128 0x2
 10056 302d 75       		.byte	0x75
 10057 302e 00       		.sleb128 0
 10058 302f 00       		.byte	0
 10059 3030 3A       		.uleb128 0x3a
 10060 3031 2A000000 		.4byte	.LVL128
 10061 3035 64250000 		.4byte	0x2564
 10062 3039 50300000 		.4byte	0x3050
 10063 303d 39       		.uleb128 0x39
 10064 303e 01       		.uleb128 0x1
 10065 303f 50       		.byte	0x50
 10066 3040 02       		.uleb128 0x2
 10067 3041 74       		.byte	0x74
 10068 3042 00       		.sleb128 0
 10069 3043 39       		.uleb128 0x39
 10070 3044 01       		.uleb128 0x1
 10071 3045 51       		.byte	0x51
 10072 3046 02       		.uleb128 0x2
 10073 3047 91       		.byte	0x91
 10074 3048 64       		.sleb128 -28
 10075 3049 39       		.uleb128 0x39
 10076 304a 01       		.uleb128 0x1
 10077 304b 52       		.byte	0x52
 10078 304c 02       		.uleb128 0x2
 10079 304d 75       		.byte	0x75
 10080 304e 00       		.sleb128 0
 10081 304f 00       		.byte	0
 10082 3050 3A       		.uleb128 0x3a
 10083 3051 34000000 		.4byte	.LVL129
 10084 3055 1D4C0000 		.4byte	0x4c1d
 10085 3059 6B300000 		.4byte	0x306b
 10086 305d 39       		.uleb128 0x39
 10087 305e 01       		.uleb128 0x1
ARM GAS  C:\Users\haske\AppData\Local\Temp\ccmHbbn5.s 			page 209


 10088 305f 50       		.byte	0x50
 10089 3060 03       		.uleb128 0x3
 10090 3061 91       		.byte	0x91
 10091 3062 987F     		.sleb128 -104
 10092 3064 39       		.uleb128 0x39
 10093 3065 01       		.uleb128 0x1
 10094 3066 51       		.byte	0x51
 10095 3067 02       		.uleb128 0x2
 10096 3068 76       		.byte	0x76
 10097 3069 00       		.sleb128 0
 10098 306a 00       		.byte	0
 10099 306b 3A       		.uleb128 0x3a
 10100 306c 44000000 		.4byte	.LVL130
 10101 3070 284C0000 		.4byte	0x4c28
 10102 3074 7F300000 		.4byte	0x307f
 10103 3078 39       		.uleb128 0x39
 10104 3079 01       		.uleb128 0x1
 10105 307a 50       		.byte	0x50
 10106 307b 02       		.uleb128 0x2
 10107 307c 77       		.byte	0x77
 10108 307d 00       		.sleb128 0
 10109 307e 00       		.byte	0
 10110 307f 3A       		.uleb128 0x3a
 10111 3080 4E000000 		.4byte	.LVL131
 10112 3084 334C0000 		.4byte	0x4c33
 10113 3088 9E300000 		.4byte	0x309e
 10114 308c 39       		.uleb128 0x39
 10115 308d 01       		.uleb128 0x1
 10116 308e 50       		.byte	0x50
 10117 308f 02       		.uleb128 0x2
 10118 3090 74       		.byte	0x74
 10119 3091 00       		.sleb128 0
 10120 3092 39       		.uleb128 0x39
 10121 3093 01       		.uleb128 0x1
 10122 3094 51       		.byte	0x51
 10123 3095 01       		.uleb128 0x1
 10124 3096 30       		.byte	0x30
 10125 3097 39       		.uleb128 0x39
 10126 3098 01       		.uleb128 0x1
 10127 3099 52       		.byte	0x52
 10128 309a 02       		.uleb128 0x2
 10129 309b 77       		.byte	0x77
 10130 309c 00       		.sleb128 0
 10131 309d 00       		.byte	0
 10132 309e 3A       		.uleb128 0x3a
 10133 309f 76000000 		.4byte	.LVL133
 10134 30a3 3E4C0000 		.4byte	0x4c3e
 10135 30a7 BD300000 		.4byte	0x30bd
 10136 30ab 39       		.uleb128 0x39
 10137 30ac 01       		.uleb128 0x1
 10138 30ad 50       		.byte	0x50
 10139 30ae 02       		.uleb128 0x2
 10140 30af 74       		.byte	0x74
 10141 30b0 00       		.sleb128 0
 10142 30b1 39       		.uleb128 0x39
 10143 30b2 01       		.uleb128 0x1
 10144 30b3 51       		.byte	0x51
ARM GAS  C:\Users\haske\AppData\Local\Temp\ccmHbbn5.s 			page 210


 10145 30b4 01       		.uleb128 0x1
 10146 30b5 4A       		.byte	0x4a
 10147 30b6 39       		.uleb128 0x39
 10148 30b7 01       		.uleb128 0x1
 10149 30b8 52       		.byte	0x52
 10150 30b9 02       		.uleb128 0x2
 10151 30ba 75       		.byte	0x75
 10152 30bb 00       		.sleb128 0
 10153 30bc 00       		.byte	0
 10154 30bd 3A       		.uleb128 0x3a
 10155 30be 94000000 		.4byte	.LVL134
 10156 30c2 494C0000 		.4byte	0x4c49
 10157 30c6 DF300000 		.4byte	0x30df
 10158 30ca 39       		.uleb128 0x39
 10159 30cb 01       		.uleb128 0x1
 10160 30cc 50       		.byte	0x50
 10161 30cd 04       		.uleb128 0x4
 10162 30ce 91       		.byte	0x91
 10163 30cf C47E     		.sleb128 -188
 10164 30d1 06       		.byte	0x6
 10165 30d2 39       		.uleb128 0x39
 10166 30d3 01       		.uleb128 0x1
 10167 30d4 51       		.byte	0x51
 10168 30d5 02       		.uleb128 0x2
 10169 30d6 77       		.byte	0x77
 10170 30d7 00       		.sleb128 0
 10171 30d8 39       		.uleb128 0x39
 10172 30d9 01       		.uleb128 0x1
 10173 30da 52       		.byte	0x52
 10174 30db 02       		.uleb128 0x2
 10175 30dc 76       		.byte	0x76
 10176 30dd 00       		.sleb128 0
 10177 30de 00       		.byte	0
 10178 30df 3A       		.uleb128 0x3a
 10179 30e0 9E000000 		.4byte	.LVL135
 10180 30e4 3E4C0000 		.4byte	0x4c3e
 10181 30e8 FE300000 		.4byte	0x30fe
 10182 30ec 39       		.uleb128 0x39
 10183 30ed 01       		.uleb128 0x1
 10184 30ee 50       		.byte	0x50
 10185 30ef 02       		.uleb128 0x2
 10186 30f0 74       		.byte	0x74
 10187 30f1 00       		.sleb128 0
 10188 30f2 39       		.uleb128 0x39
 10189 30f3 01       		.uleb128 0x1
 10190 30f4 51       		.byte	0x51
 10191 30f5 01       		.uleb128 0x1
 10192 30f6 4B       		.byte	0x4b
 10193 30f7 39       		.uleb128 0x39
 10194 30f8 01       		.uleb128 0x1
 10195 30f9 52       		.byte	0x52
 10196 30fa 02       		.uleb128 0x2
 10197 30fb 75       		.byte	0x75
 10198 30fc 00       		.sleb128 0
 10199 30fd 00       		.byte	0
 10200 30fe 3A       		.uleb128 0x3a
 10201 30ff 0C010000 		.4byte	.LVL145
ARM GAS  C:\Users\haske\AppData\Local\Temp\ccmHbbn5.s 			page 211


 10202 3103 284C0000 		.4byte	0x4c28
 10203 3107 12310000 		.4byte	0x3112
 10204 310b 39       		.uleb128 0x39
 10205 310c 01       		.uleb128 0x1
 10206 310d 50       		.byte	0x50
 10207 310e 02       		.uleb128 0x2
 10208 310f 77       		.byte	0x77
 10209 3110 00       		.sleb128 0
 10210 3111 00       		.byte	0
 10211 3112 3A       		.uleb128 0x3a
 10212 3113 1C010000 		.4byte	.LVL146
 10213 3117 334C0000 		.4byte	0x4c33
 10214 311b 32310000 		.4byte	0x3132
 10215 311f 39       		.uleb128 0x39
 10216 3120 01       		.uleb128 0x1
 10217 3121 50       		.byte	0x50
 10218 3122 02       		.uleb128 0x2
 10219 3123 74       		.byte	0x74
 10220 3124 00       		.sleb128 0
 10221 3125 39       		.uleb128 0x39
 10222 3126 01       		.uleb128 0x1
 10223 3127 51       		.byte	0x51
 10224 3128 02       		.uleb128 0x2
 10225 3129 79       		.byte	0x79
 10226 312a 00       		.sleb128 0
 10227 312b 39       		.uleb128 0x39
 10228 312c 01       		.uleb128 0x1
 10229 312d 52       		.byte	0x52
 10230 312e 02       		.uleb128 0x2
 10231 312f 77       		.byte	0x77
 10232 3130 00       		.sleb128 0
 10233 3131 00       		.byte	0
 10234 3132 3A       		.uleb128 0x3a
 10235 3133 3C010000 		.4byte	.LVL147
 10236 3137 3E4C0000 		.4byte	0x4c3e
 10237 313b 51310000 		.4byte	0x3151
 10238 313f 39       		.uleb128 0x39
 10239 3140 01       		.uleb128 0x1
 10240 3141 50       		.byte	0x50
 10241 3142 02       		.uleb128 0x2
 10242 3143 74       		.byte	0x74
 10243 3144 00       		.sleb128 0
 10244 3145 39       		.uleb128 0x39
 10245 3146 01       		.uleb128 0x1
 10246 3147 51       		.byte	0x51
 10247 3148 01       		.uleb128 0x1
 10248 3149 4A       		.byte	0x4a
 10249 314a 39       		.uleb128 0x39
 10250 314b 01       		.uleb128 0x1
 10251 314c 52       		.byte	0x52
 10252 314d 02       		.uleb128 0x2
 10253 314e 75       		.byte	0x75
 10254 314f 00       		.sleb128 0
 10255 3150 00       		.byte	0
 10256 3151 3A       		.uleb128 0x3a
 10257 3152 6A010000 		.4byte	.LVL148
 10258 3156 494C0000 		.4byte	0x4c49
ARM GAS  C:\Users\haske\AppData\Local\Temp\ccmHbbn5.s 			page 212


 10259 315a 73310000 		.4byte	0x3173
 10260 315e 39       		.uleb128 0x39
 10261 315f 01       		.uleb128 0x1
 10262 3160 50       		.byte	0x50
 10263 3161 04       		.uleb128 0x4
 10264 3162 91       		.byte	0x91
 10265 3163 C47E     		.sleb128 -188
 10266 3165 06       		.byte	0x6
 10267 3166 39       		.uleb128 0x39
 10268 3167 01       		.uleb128 0x1
 10269 3168 51       		.byte	0x51
 10270 3169 02       		.uleb128 0x2
 10271 316a 77       		.byte	0x77
 10272 316b 00       		.sleb128 0
 10273 316c 39       		.uleb128 0x39
 10274 316d 01       		.uleb128 0x1
 10275 316e 52       		.byte	0x52
 10276 316f 02       		.uleb128 0x2
 10277 3170 91       		.byte	0x91
 10278 3171 64       		.sleb128 -28
 10279 3172 00       		.byte	0
 10280 3173 3A       		.uleb128 0x3a
 10281 3174 74010000 		.4byte	.LVL149
 10282 3178 3E4C0000 		.4byte	0x4c3e
 10283 317c 92310000 		.4byte	0x3192
 10284 3180 39       		.uleb128 0x39
 10285 3181 01       		.uleb128 0x1
 10286 3182 50       		.byte	0x50
 10287 3183 02       		.uleb128 0x2
 10288 3184 74       		.byte	0x74
 10289 3185 00       		.sleb128 0
 10290 3186 39       		.uleb128 0x39
 10291 3187 01       		.uleb128 0x1
 10292 3188 51       		.byte	0x51
 10293 3189 01       		.uleb128 0x1
 10294 318a 4B       		.byte	0x4b
 10295 318b 39       		.uleb128 0x39
 10296 318c 01       		.uleb128 0x1
 10297 318d 52       		.byte	0x52
 10298 318e 02       		.uleb128 0x2
 10299 318f 75       		.byte	0x75
 10300 3190 00       		.sleb128 0
 10301 3191 00       		.byte	0
 10302 3192 3A       		.uleb128 0x3a
 10303 3193 8C010000 		.4byte	.LVL150
 10304 3197 102B0000 		.4byte	0x2b10
 10305 319b B2310000 		.4byte	0x31b2
 10306 319f 39       		.uleb128 0x39
 10307 31a0 01       		.uleb128 0x1
 10308 31a1 50       		.byte	0x50
 10309 31a2 02       		.uleb128 0x2
 10310 31a3 74       		.byte	0x74
 10311 31a4 00       		.sleb128 0
 10312 31a5 39       		.uleb128 0x39
 10313 31a6 01       		.uleb128 0x1
 10314 31a7 51       		.byte	0x51
 10315 31a8 02       		.uleb128 0x2
ARM GAS  C:\Users\haske\AppData\Local\Temp\ccmHbbn5.s 			page 213


 10316 31a9 91       		.byte	0x91
 10317 31aa 64       		.sleb128 -28
 10318 31ab 39       		.uleb128 0x39
 10319 31ac 01       		.uleb128 0x1
 10320 31ad 53       		.byte	0x53
 10321 31ae 02       		.uleb128 0x2
 10322 31af 77       		.byte	0x77
 10323 31b0 00       		.sleb128 0
 10324 31b1 00       		.byte	0
 10325 31b2 3A       		.uleb128 0x3a
 10326 31b3 94010000 		.4byte	.LVL151
 10327 31b7 544C0000 		.4byte	0x4c54
 10328 31bb C6310000 		.4byte	0x31c6
 10329 31bf 39       		.uleb128 0x39
 10330 31c0 01       		.uleb128 0x1
 10331 31c1 50       		.byte	0x50
 10332 31c2 02       		.uleb128 0x2
 10333 31c3 75       		.byte	0x75
 10334 31c4 00       		.sleb128 0
 10335 31c5 00       		.byte	0
 10336 31c6 3A       		.uleb128 0x3a
 10337 31c7 A2010000 		.4byte	.LVL153
 10338 31cb 5F4C0000 		.4byte	0x4c5f
 10339 31cf E6310000 		.4byte	0x31e6
 10340 31d3 39       		.uleb128 0x39
 10341 31d4 01       		.uleb128 0x1
 10342 31d5 50       		.byte	0x50
 10343 31d6 02       		.uleb128 0x2
 10344 31d7 74       		.byte	0x74
 10345 31d8 00       		.sleb128 0
 10346 31d9 39       		.uleb128 0x39
 10347 31da 01       		.uleb128 0x1
 10348 31db 51       		.byte	0x51
 10349 31dc 02       		.uleb128 0x2
 10350 31dd 76       		.byte	0x76
 10351 31de 00       		.sleb128 0
 10352 31df 39       		.uleb128 0x39
 10353 31e0 01       		.uleb128 0x1
 10354 31e1 52       		.byte	0x52
 10355 31e2 02       		.uleb128 0x2
 10356 31e3 75       		.byte	0x75
 10357 31e4 00       		.sleb128 0
 10358 31e5 00       		.byte	0
 10359 31e6 3A       		.uleb128 0x3a
 10360 31e7 BA010000 		.4byte	.LVL154
 10361 31eb 3E4C0000 		.4byte	0x4c3e
 10362 31ef 06320000 		.4byte	0x3206
 10363 31f3 39       		.uleb128 0x39
 10364 31f4 01       		.uleb128 0x1
 10365 31f5 50       		.byte	0x50
 10366 31f6 02       		.uleb128 0x2
 10367 31f7 74       		.byte	0x74
 10368 31f8 00       		.sleb128 0
 10369 31f9 39       		.uleb128 0x39
 10370 31fa 01       		.uleb128 0x1
 10371 31fb 51       		.byte	0x51
 10372 31fc 01       		.uleb128 0x1
ARM GAS  C:\Users\haske\AppData\Local\Temp\ccmHbbn5.s 			page 214


 10373 31fd 4A       		.byte	0x4a
 10374 31fe 39       		.uleb128 0x39
 10375 31ff 01       		.uleb128 0x1
 10376 3200 52       		.byte	0x52
 10377 3201 03       		.uleb128 0x3
 10378 3202 91       		.byte	0x91
 10379 3203 987F     		.sleb128 -104
 10380 3205 00       		.byte	0
 10381 3206 3A       		.uleb128 0x3a
 10382 3207 C4010000 		.4byte	.LVL155
 10383 320b 6A4C0000 		.4byte	0x4c6a
 10384 320f 28320000 		.4byte	0x3228
 10385 3213 39       		.uleb128 0x39
 10386 3214 01       		.uleb128 0x1
 10387 3215 50       		.byte	0x50
 10388 3216 04       		.uleb128 0x4
 10389 3217 91       		.byte	0x91
 10390 3218 C47E     		.sleb128 -188
 10391 321a 06       		.byte	0x6
 10392 321b 39       		.uleb128 0x39
 10393 321c 01       		.uleb128 0x1
 10394 321d 51       		.byte	0x51
 10395 321e 02       		.uleb128 0x2
 10396 321f 75       		.byte	0x75
 10397 3220 00       		.sleb128 0
 10398 3221 39       		.uleb128 0x39
 10399 3222 01       		.uleb128 0x1
 10400 3223 52       		.byte	0x52
 10401 3224 02       		.uleb128 0x2
 10402 3225 77       		.byte	0x77
 10403 3226 00       		.sleb128 0
 10404 3227 00       		.byte	0
 10405 3228 38       		.uleb128 0x38
 10406 3229 CE010000 		.4byte	.LVL156
 10407 322d 3E4C0000 		.4byte	0x4c3e
 10408 3231 39       		.uleb128 0x39
 10409 3232 01       		.uleb128 0x1
 10410 3233 50       		.byte	0x50
 10411 3234 02       		.uleb128 0x2
 10412 3235 74       		.byte	0x74
 10413 3236 00       		.sleb128 0
 10414 3237 39       		.uleb128 0x39
 10415 3238 01       		.uleb128 0x1
 10416 3239 51       		.byte	0x51
 10417 323a 01       		.uleb128 0x1
 10418 323b 4B       		.byte	0x4b
 10419 323c 39       		.uleb128 0x39
 10420 323d 01       		.uleb128 0x1
 10421 323e 52       		.byte	0x52
 10422 323f 03       		.uleb128 0x3
 10423 3240 91       		.byte	0x91
 10424 3241 987F     		.sleb128 -104
 10425 3243 00       		.byte	0
 10426 3244 00       		.byte	0
 10427 3245 32       		.uleb128 0x32
 10428 3246 02230000 		.4byte	.LASF671
 10429 324a 01       		.byte	0x1
ARM GAS  C:\Users\haske\AppData\Local\Temp\ccmHbbn5.s 			page 215


 10430 324b 7C01     		.2byte	0x17c
 10431 324d 00000000 		.4byte	.LFB181
 10432 3251 64000000 		.4byte	.LFE181-.LFB181
 10433 3255 01       		.uleb128 0x1
 10434 3256 9C       		.byte	0x9c
 10435 3257 DE320000 		.4byte	0x32de
 10436 325b 33       		.uleb128 0x33
 10437 325c 131B0000 		.4byte	.LASF198
 10438 3260 01       		.byte	0x1
 10439 3261 7C01     		.2byte	0x17c
 10440 3263 27210000 		.4byte	0x2127
 10441 3267 D6080000 		.4byte	.LLST80
 10442 326b 2E       		.uleb128 0x2e
 10443 326c 6F626A00 		.ascii	"obj\000"
 10444 3270 01       		.byte	0x1
 10445 3271 7C01     		.2byte	0x17c
 10446 3273 0A2B0000 		.4byte	0x2b0a
 10447 3277 F7080000 		.4byte	.LLST81
 10448 327b 2F       		.uleb128 0x2f
 10449 327c 61726300 		.ascii	"arc\000"
 10450 3280 01       		.byte	0x1
 10451 3281 8101     		.2byte	0x181
 10452 3283 5E250000 		.4byte	0x255e
 10453 3287 23090000 		.4byte	.LLST82
 10454 328b 3E       		.uleb128 0x3e
 10455 328c 3E000000 		.4byte	.LVL162
 10456 3290 754C0000 		.4byte	0x4c75
 10457 3294 3A       		.uleb128 0x3a
 10458 3295 4C000000 		.4byte	.LVL163
 10459 3299 804C0000 		.4byte	0x4c80
 10460 329d AD320000 		.4byte	0x32ad
 10461 32a1 39       		.uleb128 0x39
 10462 32a2 01       		.uleb128 0x1
 10463 32a3 50       		.byte	0x50
 10464 32a4 02       		.uleb128 0x2
 10465 32a5 74       		.byte	0x74
 10466 32a6 00       		.sleb128 0
 10467 32a7 39       		.uleb128 0x39
 10468 32a8 01       		.uleb128 0x1
 10469 32a9 51       		.byte	0x51
 10470 32aa 01       		.uleb128 0x1
 10471 32ab 32       		.byte	0x32
 10472 32ac 00       		.byte	0
 10473 32ad 3A       		.uleb128 0x3a
 10474 32ae 56000000 		.4byte	.LVL164
 10475 32b2 8B4C0000 		.4byte	0x4c8b
 10476 32b6 C8320000 		.4byte	0x32c8
 10477 32ba 39       		.uleb128 0x39
 10478 32bb 01       		.uleb128 0x1
 10479 32bc 50       		.byte	0x50
 10480 32bd 02       		.uleb128 0x2
 10481 32be 74       		.byte	0x74
 10482 32bf 00       		.sleb128 0
 10483 32c0 39       		.uleb128 0x39
 10484 32c1 01       		.uleb128 0x1
 10485 32c2 51       		.byte	0x51
 10486 32c3 03       		.uleb128 0x3
ARM GAS  C:\Users\haske\AppData\Local\Temp\ccmHbbn5.s 			page 216


 10487 32c4 0A       		.byte	0xa
 10488 32c5 1003     		.2byte	0x310
 10489 32c7 00       		.byte	0
 10490 32c8 38       		.uleb128 0x38
 10491 32c9 5E000000 		.4byte	.LVL165
 10492 32cd 964C0000 		.4byte	0x4c96
 10493 32d1 39       		.uleb128 0x39
 10494 32d2 01       		.uleb128 0x1
 10495 32d3 50       		.byte	0x50
 10496 32d4 02       		.uleb128 0x2
 10497 32d5 74       		.byte	0x74
 10498 32d6 00       		.sleb128 0
 10499 32d7 39       		.uleb128 0x39
 10500 32d8 01       		.uleb128 0x1
 10501 32d9 51       		.byte	0x51
 10502 32da 01       		.uleb128 0x1
 10503 32db 3D       		.byte	0x3d
 10504 32dc 00       		.byte	0
 10505 32dd 00       		.byte	0
 10506 32de 32       		.uleb128 0x32
 10507 32df D6070000 		.4byte	.LASF672
 10508 32e3 01       		.byte	0x1
 10509 32e4 B602     		.2byte	0x2b6
 10510 32e6 00000000 		.4byte	.LFB184
 10511 32ea C6000000 		.4byte	.LFE184-.LFB184
 10512 32ee 01       		.uleb128 0x1
 10513 32ef 9C       		.byte	0x9c
 10514 32f0 A5340000 		.4byte	0x34a5
 10515 32f4 2E       		.uleb128 0x2e
 10516 32f5 6F626A00 		.ascii	"obj\000"
 10517 32f9 01       		.byte	0x1
 10518 32fa B602     		.2byte	0x2b6
 10519 32fc 0A2B0000 		.4byte	0x2b0a
 10520 3300 4F090000 		.4byte	.LLST83
 10521 3304 33       		.uleb128 0x33
 10522 3305 AB140000 		.4byte	.LASF265
 10523 3309 01       		.byte	0x1
 10524 330a B602     		.2byte	0x2b6
 10525 330c CE000000 		.4byte	0xce
 10526 3310 7B090000 		.4byte	.LLST84
 10527 3314 33       		.uleb128 0x33
 10528 3315 2C090000 		.4byte	.LASF266
 10529 3319 01       		.byte	0x1
 10530 331a B602     		.2byte	0x2b6
 10531 331c CE000000 		.4byte	0xce
 10532 3320 B2090000 		.4byte	.LLST85
 10533 3324 33       		.uleb128 0x33
 10534 3325 1C2E0000 		.4byte	.LASF500
 10535 3329 01       		.byte	0x1
 10536 332a B602     		.2byte	0x2b6
 10537 332c 631A0000 		.4byte	0x1a63
 10538 3330 100A0000 		.4byte	.LLST86
 10539 3334 2F       		.uleb128 0x2f
 10540 3335 61726300 		.ascii	"arc\000"
 10541 3339 01       		.byte	0x1
 10542 333a BD02     		.2byte	0x2bd
 10543 333c 5E250000 		.4byte	0x255e
ARM GAS  C:\Users\haske\AppData\Local\Temp\ccmHbbn5.s 			page 217


 10544 3340 2F0A0000 		.4byte	.LLST87
 10545 3344 3F       		.uleb128 0x3f
 10546 3345 7200     		.ascii	"r\000"
 10547 3347 01       		.byte	0x1
 10548 3348 CA02     		.2byte	0x2ca
 10549 334a 01010000 		.4byte	0x101
 10550 334e 02       		.uleb128 0x2
 10551 334f 91       		.byte	0x91
 10552 3350 5E       		.sleb128 -34
 10553 3351 3F       		.uleb128 0x3f
 10554 3352 6300     		.ascii	"c\000"
 10555 3354 01       		.byte	0x1
 10556 3355 CB02     		.2byte	0x2cb
 10557 3357 29010000 		.4byte	0x129
 10558 335b 02       		.uleb128 0x2
 10559 335c 91       		.byte	0x91
 10560 335d 58       		.sleb128 -40
 10561 335e 2C       		.uleb128 0x2c
 10562 335f 7700     		.ascii	"w\000"
 10563 3361 01       		.byte	0x1
 10564 3362 CE02     		.2byte	0x2ce
 10565 3364 01010000 		.4byte	0x101
 10566 3368 30       		.uleb128 0x30
 10567 3369 C9030000 		.4byte	.LASF268
 10568 336d 01       		.byte	0x1
 10569 336e CF02     		.2byte	0x2cf
 10570 3370 01010000 		.4byte	0x101
 10571 3374 420A0000 		.4byte	.LLST88
 10572 3378 3D       		.uleb128 0x3d
 10573 3379 75250000 		.4byte	.LASF673
 10574 337d 01       		.byte	0x1
 10575 337e D102     		.2byte	0x2d1
 10576 3380 69010000 		.4byte	0x169
 10577 3384 02       		.uleb128 0x2
 10578 3385 91       		.byte	0x91
 10579 3386 50       		.sleb128 -48
 10580 3387 35       		.uleb128 0x35
 10581 3388 66240000 		.4byte	0x2466
 10582 338c 78000000 		.4byte	.LBB129
 10583 3390 0E000000 		.4byte	.LBE129-.LBB129
 10584 3394 01       		.byte	0x1
 10585 3395 CE02     		.2byte	0x2ce
 10586 3397 DA330000 		.4byte	0x33da
 10587 339b 36       		.uleb128 0x36
 10588 339c 83240000 		.4byte	0x2483
 10589 33a0 6C0A0000 		.4byte	.LLST89
 10590 33a4 36       		.uleb128 0x36
 10591 33a5 77240000 		.4byte	0x2477
 10592 33a9 800A0000 		.4byte	.LLST90
 10593 33ad 31       		.uleb128 0x31
 10594 33ae 78000000 		.4byte	.LBB130
 10595 33b2 0E000000 		.4byte	.LBE130-.LBB130
 10596 33b6 37       		.uleb128 0x37
 10597 33b7 8F240000 		.4byte	0x248f
 10598 33bb 38       		.uleb128 0x38
 10599 33bc 82000000 		.4byte	.LVL181
 10600 33c0 D84B0000 		.4byte	0x4bd8
ARM GAS  C:\Users\haske\AppData\Local\Temp\ccmHbbn5.s 			page 218


 10601 33c4 39       		.uleb128 0x39
 10602 33c5 01       		.uleb128 0x1
 10603 33c6 50       		.byte	0x50
 10604 33c7 02       		.uleb128 0x2
 10605 33c8 76       		.byte	0x76
 10606 33c9 00       		.sleb128 0
 10607 33ca 39       		.uleb128 0x39
 10608 33cb 01       		.uleb128 0x1
 10609 33cc 51       		.byte	0x51
 10610 33cd 03       		.uleb128 0x3
 10611 33ce 91       		.byte	0x91
 10612 33cf 4C       		.sleb128 -52
 10613 33d0 06       		.byte	0x6
 10614 33d1 39       		.uleb128 0x39
 10615 33d2 01       		.uleb128 0x1
 10616 33d3 52       		.byte	0x52
 10617 33d4 02       		.uleb128 0x2
 10618 33d5 08       		.byte	0x8
 10619 33d6 50       		.byte	0x50
 10620 33d7 00       		.byte	0
 10621 33d8 00       		.byte	0
 10622 33d9 00       		.byte	0
 10623 33da 35       		.uleb128 0x35
 10624 33db 9A240000 		.4byte	0x249a
 10625 33df 86000000 		.4byte	.LBB131
 10626 33e3 10000000 		.4byte	.LBE131-.LBB131
 10627 33e7 01       		.byte	0x1
 10628 33e8 CF02     		.2byte	0x2cf
 10629 33ea 31340000 		.4byte	0x3431
 10630 33ee 36       		.uleb128 0x36
 10631 33ef B7240000 		.4byte	0x24b7
 10632 33f3 930A0000 		.4byte	.LLST91
 10633 33f7 36       		.uleb128 0x36
 10634 33f8 AB240000 		.4byte	0x24ab
 10635 33fc A70A0000 		.4byte	.LLST92
 10636 3400 31       		.uleb128 0x31
 10637 3401 86000000 		.4byte	.LBB132
 10638 3405 10000000 		.4byte	.LBE132-.LBB132
 10639 3409 3B       		.uleb128 0x3b
 10640 340a C3240000 		.4byte	0x24c3
 10641 340e BA0A0000 		.4byte	.LLST93
 10642 3412 38       		.uleb128 0x38
 10643 3413 90000000 		.4byte	.LVL183
 10644 3417 D84B0000 		.4byte	0x4bd8
 10645 341b 39       		.uleb128 0x39
 10646 341c 01       		.uleb128 0x1
 10647 341d 50       		.byte	0x50
 10648 341e 02       		.uleb128 0x2
 10649 341f 76       		.byte	0x76
 10650 3420 00       		.sleb128 0
 10651 3421 39       		.uleb128 0x39
 10652 3422 01       		.uleb128 0x1
 10653 3423 51       		.byte	0x51
 10654 3424 03       		.uleb128 0x3
 10655 3425 91       		.byte	0x91
 10656 3426 4C       		.sleb128 -52
 10657 3427 06       		.byte	0x6
ARM GAS  C:\Users\haske\AppData\Local\Temp\ccmHbbn5.s 			page 219


 10658 3428 39       		.uleb128 0x39
 10659 3429 01       		.uleb128 0x1
 10660 342a 52       		.byte	0x52
 10661 342b 02       		.uleb128 0x2
 10662 342c 08       		.byte	0x8
 10663 342d 51       		.byte	0x51
 10664 342e 00       		.byte	0
 10665 342f 00       		.byte	0
 10666 3430 00       		.byte	0
 10667 3431 3A       		.uleb128 0x3a
 10668 3432 16000000 		.4byte	.LVL168
 10669 3436 A24C0000 		.4byte	0x4ca2
 10670 343a 45340000 		.4byte	0x3445
 10671 343e 39       		.uleb128 0x39
 10672 343f 01       		.uleb128 0x1
 10673 3440 50       		.byte	0x50
 10674 3441 02       		.uleb128 0x2
 10675 3442 76       		.byte	0x76
 10676 3443 00       		.sleb128 0
 10677 3444 00       		.byte	0
 10678 3445 3A       		.uleb128 0x3a
 10679 3446 78000000 		.4byte	.LVL180
 10680 344a 64250000 		.4byte	0x2564
 10681 344e 65340000 		.4byte	0x3465
 10682 3452 39       		.uleb128 0x39
 10683 3453 01       		.uleb128 0x1
 10684 3454 50       		.byte	0x50
 10685 3455 02       		.uleb128 0x2
 10686 3456 76       		.byte	0x76
 10687 3457 00       		.sleb128 0
 10688 3458 39       		.uleb128 0x39
 10689 3459 01       		.uleb128 0x1
 10690 345a 51       		.byte	0x51
 10691 345b 02       		.uleb128 0x2
 10692 345c 75       		.byte	0x75
 10693 345d 00       		.sleb128 0
 10694 345e 39       		.uleb128 0x39
 10695 345f 01       		.uleb128 0x1
 10696 3460 52       		.byte	0x52
 10697 3461 02       		.uleb128 0x2
 10698 3462 7A       		.byte	0x7a
 10699 3463 00       		.sleb128 0
 10700 3464 00       		.byte	0
 10701 3465 3A       		.uleb128 0x3a
 10702 3466 B4000000 		.4byte	.LVL186
 10703 346a AE4C0000 		.4byte	0x4cae
 10704 346e 8E340000 		.4byte	0x348e
 10705 3472 39       		.uleb128 0x39
 10706 3473 01       		.uleb128 0x1
 10707 3474 53       		.byte	0x53
 10708 3475 02       		.uleb128 0x2
 10709 3476 77       		.byte	0x77
 10710 3477 00       		.sleb128 0
 10711 3478 39       		.uleb128 0x39
 10712 3479 02       		.uleb128 0x2
 10713 347a 7D       		.byte	0x7d
 10714 347b 00       		.sleb128 0
ARM GAS  C:\Users\haske\AppData\Local\Temp\ccmHbbn5.s 			page 220


 10715 347c 02       		.uleb128 0x2
 10716 347d 74       		.byte	0x74
 10717 347e 00       		.sleb128 0
 10718 347f 39       		.uleb128 0x39
 10719 3480 02       		.uleb128 0x2
 10720 3481 7D       		.byte	0x7d
 10721 3482 04       		.sleb128 4
 10722 3483 02       		.uleb128 0x2
 10723 3484 79       		.byte	0x79
 10724 3485 00       		.sleb128 0
 10725 3486 39       		.uleb128 0x39
 10726 3487 02       		.uleb128 0x2
 10727 3488 7D       		.byte	0x7d
 10728 3489 0C       		.sleb128 12
 10729 348a 02       		.uleb128 0x2
 10730 348b 75       		.byte	0x75
 10731 348c 00       		.sleb128 0
 10732 348d 00       		.byte	0
 10733 348e 38       		.uleb128 0x38
 10734 348f BC000000 		.4byte	.LVL187
 10735 3493 B94C0000 		.4byte	0x4cb9
 10736 3497 39       		.uleb128 0x39
 10737 3498 01       		.uleb128 0x1
 10738 3499 50       		.byte	0x50
 10739 349a 02       		.uleb128 0x2
 10740 349b 76       		.byte	0x76
 10741 349c 00       		.sleb128 0
 10742 349d 39       		.uleb128 0x39
 10743 349e 01       		.uleb128 0x1
 10744 349f 51       		.byte	0x51
 10745 34a0 02       		.uleb128 0x2
 10746 34a1 75       		.byte	0x75
 10747 34a2 00       		.sleb128 0
 10748 34a3 00       		.byte	0
 10749 34a4 00       		.byte	0
 10750 34a5 32       		.uleb128 0x32
 10751 34a6 0A270000 		.4byte	.LASF674
 10752 34aa 01       		.byte	0x1
 10753 34ab D702     		.2byte	0x2d7
 10754 34ad 00000000 		.4byte	.LFB185
 10755 34b1 40000000 		.4byte	.LFE185-.LFB185
 10756 34b5 01       		.uleb128 0x1
 10757 34b6 9C       		.byte	0x9c
 10758 34b7 81350000 		.4byte	0x3581
 10759 34bb 2E       		.uleb128 0x2e
 10760 34bc 6F626A00 		.ascii	"obj\000"
 10761 34c0 01       		.byte	0x1
 10762 34c1 D702     		.2byte	0x2d7
 10763 34c3 0A2B0000 		.4byte	0x2b0a
 10764 34c7 CD0A0000 		.4byte	.LLST94
 10765 34cb 3F       		.uleb128 0x3f
 10766 34cc 6300     		.ascii	"c\000"
 10767 34ce 01       		.byte	0x1
 10768 34cf D902     		.2byte	0x2d9
 10769 34d1 29010000 		.4byte	0x129
 10770 34d5 02       		.uleb128 0x2
 10771 34d6 91       		.byte	0x91
ARM GAS  C:\Users\haske\AppData\Local\Temp\ccmHbbn5.s 			page 221


 10772 34d7 6C       		.sleb128 -20
 10773 34d8 3F       		.uleb128 0x3f
 10774 34d9 7200     		.ascii	"r\000"
 10775 34db 01       		.byte	0x1
 10776 34dc DA02     		.2byte	0x2da
 10777 34de 01010000 		.4byte	0x101
 10778 34e2 02       		.uleb128 0x2
 10779 34e3 91       		.byte	0x91
 10780 34e4 6A       		.sleb128 -22
 10781 34e5 3F       		.uleb128 0x3f
 10782 34e6 6100     		.ascii	"a\000"
 10783 34e8 01       		.byte	0x1
 10784 34e9 DD02     		.2byte	0x2dd
 10785 34eb 69010000 		.4byte	0x169
 10786 34ef 02       		.uleb128 0x2
 10787 34f0 91       		.byte	0x91
 10788 34f1 60       		.sleb128 -32
 10789 34f2 30       		.uleb128 0x30
 10790 34f3 0C2E0000 		.4byte	.LASF675
 10791 34f7 01       		.byte	0x1
 10792 34f8 E002     		.2byte	0x2e0
 10793 34fa 01010000 		.4byte	0x101
 10794 34fe F90A0000 		.4byte	.LLST95
 10795 3502 3A       		.uleb128 0x3a
 10796 3503 12000000 		.4byte	.LVL190
 10797 3507 64250000 		.4byte	0x2564
 10798 350b 22350000 		.4byte	0x3522
 10799 350f 39       		.uleb128 0x39
 10800 3510 01       		.uleb128 0x1
 10801 3511 50       		.byte	0x50
 10802 3512 02       		.uleb128 0x2
 10803 3513 74       		.byte	0x74
 10804 3514 00       		.sleb128 0
 10805 3515 39       		.uleb128 0x39
 10806 3516 01       		.uleb128 0x1
 10807 3517 51       		.byte	0x51
 10808 3518 02       		.uleb128 0x2
 10809 3519 91       		.byte	0x91
 10810 351a 6C       		.sleb128 -20
 10811 351b 39       		.uleb128 0x39
 10812 351c 01       		.uleb128 0x1
 10813 351d 52       		.byte	0x52
 10814 351e 02       		.uleb128 0x2
 10815 351f 75       		.byte	0x75
 10816 3520 00       		.sleb128 0
 10817 3521 00       		.byte	0
 10818 3522 3A       		.uleb128 0x3a
 10819 3523 20000000 		.4byte	.LVL191
 10820 3527 102B0000 		.4byte	0x2b10
 10821 352b 42350000 		.4byte	0x3542
 10822 352f 39       		.uleb128 0x39
 10823 3530 01       		.uleb128 0x1
 10824 3531 50       		.byte	0x50
 10825 3532 02       		.uleb128 0x2
 10826 3533 74       		.byte	0x74
 10827 3534 00       		.sleb128 0
 10828 3535 39       		.uleb128 0x39
ARM GAS  C:\Users\haske\AppData\Local\Temp\ccmHbbn5.s 			page 222


 10829 3536 01       		.uleb128 0x1
 10830 3537 51       		.byte	0x51
 10831 3538 02       		.uleb128 0x2
 10832 3539 91       		.byte	0x91
 10833 353a 6C       		.sleb128 -20
 10834 353b 39       		.uleb128 0x39
 10835 353c 01       		.uleb128 0x1
 10836 353d 53       		.byte	0x53
 10837 353e 02       		.uleb128 0x2
 10838 353f 7D       		.byte	0x7d
 10839 3540 00       		.sleb128 0
 10840 3541 00       		.byte	0
 10841 3542 3A       		.uleb128 0x3a
 10842 3543 26000000 		.4byte	.LVL192
 10843 3547 7B270000 		.4byte	0x277b
 10844 354b 56350000 		.4byte	0x3556
 10845 354f 39       		.uleb128 0x39
 10846 3550 01       		.uleb128 0x1
 10847 3551 50       		.byte	0x50
 10848 3552 02       		.uleb128 0x2
 10849 3553 74       		.byte	0x74
 10850 3554 00       		.sleb128 0
 10851 3555 00       		.byte	0
 10852 3556 3A       		.uleb128 0x3a
 10853 3557 34000000 		.4byte	.LVL194
 10854 355b C54C0000 		.4byte	0x4cc5
 10855 355f 6A350000 		.4byte	0x356a
 10856 3563 39       		.uleb128 0x39
 10857 3564 01       		.uleb128 0x1
 10858 3565 50       		.byte	0x50
 10859 3566 02       		.uleb128 0x2
 10860 3567 7D       		.byte	0x7d
 10861 3568 00       		.sleb128 0
 10862 3569 00       		.byte	0
 10863 356a 38       		.uleb128 0x38
 10864 356b 3C000000 		.4byte	.LVL195
 10865 356f B94C0000 		.4byte	0x4cb9
 10866 3573 39       		.uleb128 0x39
 10867 3574 01       		.uleb128 0x1
 10868 3575 50       		.byte	0x50
 10869 3576 02       		.uleb128 0x2
 10870 3577 74       		.byte	0x74
 10871 3578 00       		.sleb128 0
 10872 3579 39       		.uleb128 0x39
 10873 357a 01       		.uleb128 0x1
 10874 357b 51       		.byte	0x51
 10875 357c 02       		.uleb128 0x2
 10876 357d 7D       		.byte	0x7d
 10877 357e 00       		.sleb128 0
 10878 357f 00       		.byte	0
 10879 3580 00       		.byte	0
 10880 3581 40       		.uleb128 0x40
 10881 3582 472B0000 		.4byte	.LASF695
 10882 3586 01       		.byte	0x1
 10883 3587 3F       		.byte	0x3f
 10884 3588 0A2B0000 		.4byte	0x2b0a
 10885 358c 00000000 		.4byte	.LFB159
ARM GAS  C:\Users\haske\AppData\Local\Temp\ccmHbbn5.s 			page 223


 10886 3590 18000000 		.4byte	.LFE159-.LFB159
 10887 3594 01       		.uleb128 0x1
 10888 3595 9C       		.byte	0x9c
 10889 3596 E7350000 		.4byte	0x35e7
 10890 359a 41       		.uleb128 0x41
 10891 359b 08120000 		.4byte	.LASF199
 10892 359f 01       		.byte	0x1
 10893 35a0 3F       		.byte	0x3f
 10894 35a1 0A2B0000 		.4byte	0x2b0a
 10895 35a5 0C0B0000 		.4byte	.LLST96
 10896 35a9 42       		.uleb128 0x42
 10897 35aa 6F626A00 		.ascii	"obj\000"
 10898 35ae 01       		.byte	0x1
 10899 35af 42       		.byte	0x42
 10900 35b0 0A2B0000 		.4byte	0x2b0a
 10901 35b4 380B0000 		.4byte	.LLST97
 10902 35b8 3A       		.uleb128 0x3a
 10903 35b9 0A000000 		.4byte	.LVL199
 10904 35bd D04C0000 		.4byte	0x4cd0
 10905 35c1 D6350000 		.4byte	0x35d6
 10906 35c5 39       		.uleb128 0x39
 10907 35c6 01       		.uleb128 0x1
 10908 35c7 50       		.byte	0x50
 10909 35c8 05       		.uleb128 0x5
 10910 35c9 03       		.byte	0x3
 10911 35ca 00000000 		.4byte	.LANCHOR0
 10912 35ce 39       		.uleb128 0x39
 10913 35cf 01       		.uleb128 0x1
 10914 35d0 51       		.byte	0x51
 10915 35d1 03       		.uleb128 0x3
 10916 35d2 F3       		.byte	0xf3
 10917 35d3 01       		.uleb128 0x1
 10918 35d4 50       		.byte	0x50
 10919 35d5 00       		.byte	0
 10920 35d6 38       		.uleb128 0x38
 10921 35d7 10000000 		.4byte	.LVL201
 10922 35db DB4C0000 		.4byte	0x4cdb
 10923 35df 39       		.uleb128 0x39
 10924 35e0 01       		.uleb128 0x1
 10925 35e1 50       		.byte	0x50
 10926 35e2 02       		.uleb128 0x2
 10927 35e3 74       		.byte	0x74
 10928 35e4 00       		.sleb128 0
 10929 35e5 00       		.byte	0
 10930 35e6 00       		.byte	0
 10931 35e7 43       		.uleb128 0x43
 10932 35e8 EC270000 		.4byte	.LASF679
 10933 35ec 01       		.byte	0x1
 10934 35ed 53       		.byte	0x53
 10935 35ee 00000000 		.4byte	.LFB160
 10936 35f2 80000000 		.4byte	.LFE160-.LFB160
 10937 35f6 01       		.uleb128 0x1
 10938 35f7 9C       		.byte	0x9c
 10939 35f8 C2360000 		.4byte	0x36c2
 10940 35fc 44       		.uleb128 0x44
 10941 35fd 6F626A00 		.ascii	"obj\000"
 10942 3601 01       		.byte	0x1
ARM GAS  C:\Users\haske\AppData\Local\Temp\ccmHbbn5.s 			page 224


 10943 3602 53       		.byte	0x53
 10944 3603 0A2B0000 		.4byte	0x2b0a
 10945 3607 610B0000 		.4byte	.LLST98
 10946 360b 41       		.uleb128 0x41
 10947 360c CF270000 		.4byte	.LASF676
 10948 3610 01       		.byte	0x1
 10949 3611 53       		.byte	0x53
 10950 3612 CE000000 		.4byte	0xce
 10951 3616 8D0B0000 		.4byte	.LLST99
 10952 361a 42       		.uleb128 0x42
 10953 361b 61726300 		.ascii	"arc\000"
 10954 361f 01       		.byte	0x1
 10955 3620 56       		.byte	0x56
 10956 3621 5E250000 		.4byte	0x255e
 10957 3625 AB0B0000 		.4byte	.LLST100
 10958 3629 45       		.uleb128 0x45
 10959 362a 34040000 		.4byte	.LASF677
 10960 362e 01       		.byte	0x1
 10961 362f 5A       		.byte	0x5a
 10962 3630 C3000000 		.4byte	0xc3
 10963 3634 D70B0000 		.4byte	.LLST101
 10964 3638 45       		.uleb128 0x45
 10965 3639 2E0B0000 		.4byte	.LASF678
 10966 363d 01       		.byte	0x1
 10967 363e 5B       		.byte	0x5b
 10968 363f C3000000 		.4byte	0xc3
 10969 3643 EA0B0000 		.4byte	.LLST102
 10970 3647 3A       		.uleb128 0x3a
 10971 3648 4A000000 		.4byte	.LVL211
 10972 364c E64C0000 		.4byte	0x4ce6
 10973 3650 5B360000 		.4byte	0x365b
 10974 3654 39       		.uleb128 0x39
 10975 3655 01       		.uleb128 0x1
 10976 3656 50       		.byte	0x50
 10977 3657 02       		.uleb128 0x2
 10978 3658 74       		.byte	0x74
 10979 3659 00       		.sleb128 0
 10980 365a 00       		.byte	0
 10981 365b 3A       		.uleb128 0x3a
 10982 365c 5C000000 		.4byte	.LVL214
 10983 3660 DE320000 		.4byte	0x32de
 10984 3664 7C360000 		.4byte	0x367c
 10985 3668 39       		.uleb128 0x39
 10986 3669 01       		.uleb128 0x1
 10987 366a 50       		.byte	0x50
 10988 366b 02       		.uleb128 0x2
 10989 366c 74       		.byte	0x74
 10990 366d 00       		.sleb128 0
 10991 366e 39       		.uleb128 0x39
 10992 366f 01       		.uleb128 0x1
 10993 3670 52       		.byte	0x52
 10994 3671 02       		.uleb128 0x2
 10995 3672 75       		.byte	0x75
 10996 3673 00       		.sleb128 0
 10997 3674 39       		.uleb128 0x39
 10998 3675 01       		.uleb128 0x1
 10999 3676 53       		.byte	0x53
ARM GAS  C:\Users\haske\AppData\Local\Temp\ccmHbbn5.s 			page 225


 11000 3677 03       		.uleb128 0x3
 11001 3678 40       		.byte	0x40
 11002 3679 3D       		.byte	0x3d
 11003 367a 24       		.byte	0x24
 11004 367b 00       		.byte	0
 11005 367c 3A       		.uleb128 0x3a
 11006 367d 70000000 		.4byte	.LVL217
 11007 3681 DE320000 		.4byte	0x32de
 11008 3685 9D360000 		.4byte	0x369d
 11009 3689 39       		.uleb128 0x39
 11010 368a 01       		.uleb128 0x1
 11011 368b 50       		.byte	0x50
 11012 368c 02       		.uleb128 0x2
 11013 368d 74       		.byte	0x74
 11014 368e 00       		.sleb128 0
 11015 368f 39       		.uleb128 0x39
 11016 3690 01       		.uleb128 0x1
 11017 3691 51       		.byte	0x51
 11018 3692 02       		.uleb128 0x2
 11019 3693 75       		.byte	0x75
 11020 3694 00       		.sleb128 0
 11021 3695 39       		.uleb128 0x39
 11022 3696 01       		.uleb128 0x1
 11023 3697 53       		.byte	0x53
 11024 3698 03       		.uleb128 0x3
 11025 3699 40       		.byte	0x40
 11026 369a 3D       		.byte	0x3d
 11027 369b 24       		.byte	0x24
 11028 369c 00       		.byte	0
 11029 369d 3A       		.uleb128 0x3a
 11030 369e 76000000 		.4byte	.LVL218
 11031 36a2 A5340000 		.4byte	0x34a5
 11032 36a6 B1360000 		.4byte	0x36b1
 11033 36aa 39       		.uleb128 0x39
 11034 36ab 01       		.uleb128 0x1
 11035 36ac 50       		.byte	0x50
 11036 36ad 02       		.uleb128 0x2
 11037 36ae 74       		.byte	0x74
 11038 36af 00       		.sleb128 0
 11039 36b0 00       		.byte	0
 11040 36b1 38       		.uleb128 0x38
 11041 36b2 7E000000 		.4byte	.LVL219
 11042 36b6 A5340000 		.4byte	0x34a5
 11043 36ba 39       		.uleb128 0x39
 11044 36bb 01       		.uleb128 0x1
 11045 36bc 50       		.byte	0x50
 11046 36bd 02       		.uleb128 0x2
 11047 36be 74       		.byte	0x74
 11048 36bf 00       		.sleb128 0
 11049 36c0 00       		.byte	0
 11050 36c1 00       		.byte	0
 11051 36c2 43       		.uleb128 0x43
 11052 36c3 06030000 		.4byte	.LASF680
 11053 36c7 01       		.byte	0x1
 11054 36c8 6B       		.byte	0x6b
 11055 36c9 00000000 		.4byte	.LFB161
 11056 36cd 80000000 		.4byte	.LFE161-.LFB161
ARM GAS  C:\Users\haske\AppData\Local\Temp\ccmHbbn5.s 			page 226


 11057 36d1 01       		.uleb128 0x1
 11058 36d2 9C       		.byte	0x9c
 11059 36d3 9D370000 		.4byte	0x379d
 11060 36d7 44       		.uleb128 0x44
 11061 36d8 6F626A00 		.ascii	"obj\000"
 11062 36dc 01       		.byte	0x1
 11063 36dd 6B       		.byte	0x6b
 11064 36de 0A2B0000 		.4byte	0x2b0a
 11065 36e2 130C0000 		.4byte	.LLST103
 11066 36e6 44       		.uleb128 0x44
 11067 36e7 656E6400 		.ascii	"end\000"
 11068 36eb 01       		.byte	0x1
 11069 36ec 6B       		.byte	0x6b
 11070 36ed CE000000 		.4byte	0xce
 11071 36f1 3F0C0000 		.4byte	.LLST104
 11072 36f5 42       		.uleb128 0x42
 11073 36f6 61726300 		.ascii	"arc\000"
 11074 36fa 01       		.byte	0x1
 11075 36fb 6E       		.byte	0x6e
 11076 36fc 5E250000 		.4byte	0x255e
 11077 3700 5D0C0000 		.4byte	.LLST105
 11078 3704 45       		.uleb128 0x45
 11079 3705 34040000 		.4byte	.LASF677
 11080 3709 01       		.byte	0x1
 11081 370a 71       		.byte	0x71
 11082 370b C3000000 		.4byte	0xc3
 11083 370f 890C0000 		.4byte	.LLST106
 11084 3713 45       		.uleb128 0x45
 11085 3714 2E0B0000 		.4byte	.LASF678
 11086 3718 01       		.byte	0x1
 11087 3719 72       		.byte	0x72
 11088 371a C3000000 		.4byte	0xc3
 11089 371e 9C0C0000 		.4byte	.LLST107
 11090 3722 3A       		.uleb128 0x3a
 11091 3723 4A000000 		.4byte	.LVL231
 11092 3727 E64C0000 		.4byte	0x4ce6
 11093 372b 36370000 		.4byte	0x3736
 11094 372f 39       		.uleb128 0x39
 11095 3730 01       		.uleb128 0x1
 11096 3731 50       		.byte	0x50
 11097 3732 02       		.uleb128 0x2
 11098 3733 74       		.byte	0x74
 11099 3734 00       		.sleb128 0
 11100 3735 00       		.byte	0
 11101 3736 3A       		.uleb128 0x3a
 11102 3737 5E000000 		.4byte	.LVL234
 11103 373b DE320000 		.4byte	0x32de
 11104 373f 57370000 		.4byte	0x3757
 11105 3743 39       		.uleb128 0x39
 11106 3744 01       		.uleb128 0x1
 11107 3745 50       		.byte	0x50
 11108 3746 02       		.uleb128 0x2
 11109 3747 74       		.byte	0x74
 11110 3748 00       		.sleb128 0
 11111 3749 39       		.uleb128 0x39
 11112 374a 01       		.uleb128 0x1
 11113 374b 51       		.byte	0x51
ARM GAS  C:\Users\haske\AppData\Local\Temp\ccmHbbn5.s 			page 227


 11114 374c 02       		.uleb128 0x2
 11115 374d 75       		.byte	0x75
 11116 374e 00       		.sleb128 0
 11117 374f 39       		.uleb128 0x39
 11118 3750 01       		.uleb128 0x1
 11119 3751 53       		.byte	0x53
 11120 3752 03       		.uleb128 0x3
 11121 3753 40       		.byte	0x40
 11122 3754 3D       		.byte	0x3d
 11123 3755 24       		.byte	0x24
 11124 3756 00       		.byte	0
 11125 3757 3A       		.uleb128 0x3a
 11126 3758 70000000 		.4byte	.LVL237
 11127 375c DE320000 		.4byte	0x32de
 11128 3760 78370000 		.4byte	0x3778
 11129 3764 39       		.uleb128 0x39
 11130 3765 01       		.uleb128 0x1
 11131 3766 50       		.byte	0x50
 11132 3767 02       		.uleb128 0x2
 11133 3768 74       		.byte	0x74
 11134 3769 00       		.sleb128 0
 11135 376a 39       		.uleb128 0x39
 11136 376b 01       		.uleb128 0x1
 11137 376c 52       		.byte	0x52
 11138 376d 02       		.uleb128 0x2
 11139 376e 75       		.byte	0x75
 11140 376f 00       		.sleb128 0
 11141 3770 39       		.uleb128 0x39
 11142 3771 01       		.uleb128 0x1
 11143 3772 53       		.byte	0x53
 11144 3773 03       		.uleb128 0x3
 11145 3774 40       		.byte	0x40
 11146 3775 3D       		.byte	0x3d
 11147 3776 24       		.byte	0x24
 11148 3777 00       		.byte	0
 11149 3778 3A       		.uleb128 0x3a
 11150 3779 76000000 		.4byte	.LVL238
 11151 377d A5340000 		.4byte	0x34a5
 11152 3781 8C370000 		.4byte	0x378c
 11153 3785 39       		.uleb128 0x39
 11154 3786 01       		.uleb128 0x1
 11155 3787 50       		.byte	0x50
 11156 3788 02       		.uleb128 0x2
 11157 3789 74       		.byte	0x74
 11158 378a 00       		.sleb128 0
 11159 378b 00       		.byte	0
 11160 378c 38       		.uleb128 0x38
 11161 378d 7E000000 		.4byte	.LVL239
 11162 3791 A5340000 		.4byte	0x34a5
 11163 3795 39       		.uleb128 0x39
 11164 3796 01       		.uleb128 0x1
 11165 3797 50       		.byte	0x50
 11166 3798 02       		.uleb128 0x2
 11167 3799 74       		.byte	0x74
 11168 379a 00       		.sleb128 0
 11169 379b 00       		.byte	0
 11170 379c 00       		.byte	0
ARM GAS  C:\Users\haske\AppData\Local\Temp\ccmHbbn5.s 			page 228


 11171 379d 43       		.uleb128 0x43
 11172 379e C2170000 		.4byte	.LASF681
 11173 37a2 01       		.byte	0x1
 11174 37a3 82       		.byte	0x82
 11175 37a4 00000000 		.4byte	.LFB162
 11176 37a8 16000000 		.4byte	.LFE162-.LFB162
 11177 37ac 01       		.uleb128 0x1
 11178 37ad 9C       		.byte	0x9c
 11179 37ae 0A380000 		.4byte	0x380a
 11180 37b2 44       		.uleb128 0x44
 11181 37b3 6F626A00 		.ascii	"obj\000"
 11182 37b7 01       		.byte	0x1
 11183 37b8 82       		.byte	0x82
 11184 37b9 0A2B0000 		.4byte	0x2b0a
 11185 37bd C50C0000 		.4byte	.LLST108
 11186 37c1 41       		.uleb128 0x41
 11187 37c2 CF270000 		.4byte	.LASF676
 11188 37c6 01       		.byte	0x1
 11189 37c7 82       		.byte	0x82
 11190 37c8 CE000000 		.4byte	0xce
 11191 37cc F10C0000 		.4byte	.LLST109
 11192 37d0 44       		.uleb128 0x44
 11193 37d1 656E6400 		.ascii	"end\000"
 11194 37d5 01       		.byte	0x1
 11195 37d6 82       		.byte	0x82
 11196 37d7 CE000000 		.4byte	0xce
 11197 37db 120D0000 		.4byte	.LLST110
 11198 37df 3A       		.uleb128 0x3a
 11199 37e0 0C000000 		.4byte	.LVL245
 11200 37e4 C2360000 		.4byte	0x36c2
 11201 37e8 F3370000 		.4byte	0x37f3
 11202 37ec 39       		.uleb128 0x39
 11203 37ed 01       		.uleb128 0x1
 11204 37ee 50       		.byte	0x50
 11205 37ef 02       		.uleb128 0x2
 11206 37f0 74       		.byte	0x74
 11207 37f1 00       		.sleb128 0
 11208 37f2 00       		.byte	0
 11209 37f3 38       		.uleb128 0x38
 11210 37f4 14000000 		.4byte	.LVL246
 11211 37f8 E7350000 		.4byte	0x35e7
 11212 37fc 39       		.uleb128 0x39
 11213 37fd 01       		.uleb128 0x1
 11214 37fe 50       		.byte	0x50
 11215 37ff 02       		.uleb128 0x2
 11216 3800 74       		.byte	0x74
 11217 3801 00       		.sleb128 0
 11218 3802 39       		.uleb128 0x39
 11219 3803 01       		.uleb128 0x1
 11220 3804 51       		.byte	0x51
 11221 3805 02       		.uleb128 0x2
 11222 3806 75       		.byte	0x75
 11223 3807 00       		.sleb128 0
 11224 3808 00       		.byte	0
 11225 3809 00       		.byte	0
 11226 380a 32       		.uleb128 0x32
 11227 380b DC120000 		.4byte	.LASF682
ARM GAS  C:\Users\haske\AppData\Local\Temp\ccmHbbn5.s 			page 229


 11228 380f 01       		.byte	0x1
 11229 3810 2C03     		.2byte	0x32c
 11230 3812 00000000 		.4byte	.LFB189
 11231 3816 E8000000 		.4byte	.LFE189-.LFB189
 11232 381a 01       		.uleb128 0x1
 11233 381b 9C       		.byte	0x9c
 11234 381c 7B390000 		.4byte	0x397b
 11235 3820 2E       		.uleb128 0x2e
 11236 3821 6F626A00 		.ascii	"obj\000"
 11237 3825 01       		.byte	0x1
 11238 3826 2C03     		.2byte	0x32c
 11239 3828 0A2B0000 		.4byte	0x2b0a
 11240 382c 330D0000 		.4byte	.LLST111
 11241 3830 2F       		.uleb128 0x2f
 11242 3831 61726300 		.ascii	"arc\000"
 11243 3835 01       		.byte	0x1
 11244 3836 2F03     		.2byte	0x32f
 11245 3838 5E250000 		.4byte	0x255e
 11246 383c 5F0D0000 		.4byte	.LLST112
 11247 3840 30       		.uleb128 0x30
 11248 3841 7B220000 		.4byte	.LASF683
 11249 3845 01       		.byte	0x1
 11250 3846 3403     		.2byte	0x334
 11251 3848 C3000000 		.4byte	0xc3
 11252 384c 8B0D0000 		.4byte	.LLST113
 11253 3850 30       		.uleb128 0x30
 11254 3851 871E0000 		.4byte	.LASF684
 11255 3855 01       		.byte	0x1
 11256 3856 3403     		.2byte	0x334
 11257 3858 C3000000 		.4byte	0xc3
 11258 385c 9E0D0000 		.4byte	.LLST114
 11259 3860 30       		.uleb128 0x30
 11260 3861 5C120000 		.4byte	.LASF639
 11261 3865 01       		.byte	0x1
 11262 3866 3403     		.2byte	0x334
 11263 3868 C3000000 		.4byte	0xc3
 11264 386c DD0D0000 		.4byte	.LLST115
 11265 3870 30       		.uleb128 0x30
 11266 3871 77160000 		.4byte	.LASF250
 11267 3875 01       		.byte	0x1
 11268 3876 3703     		.2byte	0x337
 11269 3878 C3000000 		.4byte	0xc3
 11270 387c 110E0000 		.4byte	.LLST116
 11271 3880 3A       		.uleb128 0x3a
 11272 3881 6E000000 		.4byte	.LVL257
 11273 3885 F24C0000 		.4byte	0x4cf2
 11274 3889 A5380000 		.4byte	0x38a5
 11275 388d 39       		.uleb128 0x39
 11276 388e 01       		.uleb128 0x1
 11277 388f 52       		.byte	0x52
 11278 3890 06       		.uleb128 0x6
 11279 3891 77       		.byte	0x77
 11280 3892 00       		.sleb128 0
 11281 3893 40       		.byte	0x40
 11282 3894 24       		.byte	0x24
 11283 3895 40       		.byte	0x40
 11284 3896 26       		.byte	0x26
ARM GAS  C:\Users\haske\AppData\Local\Temp\ccmHbbn5.s 			page 230


 11285 3897 39       		.uleb128 0x39
 11286 3898 01       		.uleb128 0x1
 11287 3899 53       		.byte	0x53
 11288 389a 02       		.uleb128 0x2
 11289 389b 75       		.byte	0x75
 11290 389c 00       		.sleb128 0
 11291 389d 39       		.uleb128 0x39
 11292 389e 02       		.uleb128 0x2
 11293 389f 7D       		.byte	0x7d
 11294 38a0 00       		.sleb128 0
 11295 38a1 02       		.uleb128 0x2
 11296 38a2 78       		.byte	0x78
 11297 38a3 00       		.sleb128 0
 11298 38a4 00       		.byte	0
 11299 38a5 3A       		.uleb128 0x3a
 11300 38a6 78000000 		.4byte	.LVL259
 11301 38aa E7350000 		.4byte	0x35e7
 11302 38ae BF380000 		.4byte	0x38bf
 11303 38b2 39       		.uleb128 0x39
 11304 38b3 01       		.uleb128 0x1
 11305 38b4 50       		.byte	0x50
 11306 38b5 02       		.uleb128 0x2
 11307 38b6 74       		.byte	0x74
 11308 38b7 00       		.sleb128 0
 11309 38b8 39       		.uleb128 0x39
 11310 38b9 01       		.uleb128 0x1
 11311 38ba 51       		.byte	0x51
 11312 38bb 02       		.uleb128 0x2
 11313 38bc 75       		.byte	0x75
 11314 38bd 00       		.sleb128 0
 11315 38be 00       		.byte	0
 11316 38bf 3A       		.uleb128 0x3a
 11317 38c0 80000000 		.4byte	.LVL260
 11318 38c4 C2360000 		.4byte	0x36c2
 11319 38c8 D9380000 		.4byte	0x38d9
 11320 38cc 39       		.uleb128 0x39
 11321 38cd 01       		.uleb128 0x1
 11322 38ce 50       		.byte	0x50
 11323 38cf 02       		.uleb128 0x2
 11324 38d0 74       		.byte	0x74
 11325 38d1 00       		.sleb128 0
 11326 38d2 39       		.uleb128 0x39
 11327 38d3 01       		.uleb128 0x1
 11328 38d4 51       		.byte	0x51
 11329 38d5 02       		.uleb128 0x2
 11330 38d6 76       		.byte	0x76
 11331 38d7 00       		.sleb128 0
 11332 38d8 00       		.byte	0
 11333 38d9 3A       		.uleb128 0x3a
 11334 38da 8A000000 		.4byte	.LVL263
 11335 38de F24C0000 		.4byte	0x4cf2
 11336 38e2 ED380000 		.4byte	0x38ed
 11337 38e6 39       		.uleb128 0x39
 11338 38e7 01       		.uleb128 0x1
 11339 38e8 53       		.byte	0x53
 11340 38e9 02       		.uleb128 0x2
 11341 38ea 78       		.byte	0x78
ARM GAS  C:\Users\haske\AppData\Local\Temp\ccmHbbn5.s 			page 231


 11342 38eb 00       		.sleb128 0
 11343 38ec 00       		.byte	0
 11344 38ed 3A       		.uleb128 0x3a
 11345 38ee 96000000 		.4byte	.LVL266
 11346 38f2 E7350000 		.4byte	0x35e7
 11347 38f6 07390000 		.4byte	0x3907
 11348 38fa 39       		.uleb128 0x39
 11349 38fb 01       		.uleb128 0x1
 11350 38fc 50       		.byte	0x50
 11351 38fd 02       		.uleb128 0x2
 11352 38fe 74       		.byte	0x74
 11353 38ff 00       		.sleb128 0
 11354 3900 39       		.uleb128 0x39
 11355 3901 01       		.uleb128 0x1
 11356 3902 51       		.byte	0x51
 11357 3903 02       		.uleb128 0x2
 11358 3904 76       		.byte	0x76
 11359 3905 00       		.sleb128 0
 11360 3906 00       		.byte	0
 11361 3907 3A       		.uleb128 0x3a
 11362 3908 9E000000 		.4byte	.LVL267
 11363 390c C2360000 		.4byte	0x36c2
 11364 3910 21390000 		.4byte	0x3921
 11365 3914 39       		.uleb128 0x39
 11366 3915 01       		.uleb128 0x1
 11367 3916 50       		.byte	0x50
 11368 3917 02       		.uleb128 0x2
 11369 3918 74       		.byte	0x74
 11370 3919 00       		.sleb128 0
 11371 391a 39       		.uleb128 0x39
 11372 391b 01       		.uleb128 0x1
 11373 391c 51       		.byte	0x51
 11374 391d 02       		.uleb128 0x2
 11375 391e 77       		.byte	0x77
 11376 391f 00       		.sleb128 0
 11377 3920 00       		.byte	0
 11378 3921 3A       		.uleb128 0x3a
 11379 3922 AE000000 		.4byte	.LVL269
 11380 3926 F24C0000 		.4byte	0x4cf2
 11381 392a 36390000 		.4byte	0x3936
 11382 392e 39       		.uleb128 0x39
 11383 392f 02       		.uleb128 0x2
 11384 3930 7D       		.byte	0x7d
 11385 3931 00       		.sleb128 0
 11386 3932 02       		.uleb128 0x2
 11387 3933 75       		.byte	0x75
 11388 3934 00       		.sleb128 0
 11389 3935 00       		.byte	0
 11390 3936 3A       		.uleb128 0x3a
 11391 3937 BA000000 		.4byte	.LVL271
 11392 393b 9D370000 		.4byte	0x379d
 11393 393f 50390000 		.4byte	0x3950
 11394 3943 39       		.uleb128 0x39
 11395 3944 01       		.uleb128 0x1
 11396 3945 50       		.byte	0x50
 11397 3946 02       		.uleb128 0x2
 11398 3947 74       		.byte	0x74
ARM GAS  C:\Users\haske\AppData\Local\Temp\ccmHbbn5.s 			page 232


 11399 3948 00       		.sleb128 0
 11400 3949 39       		.uleb128 0x39
 11401 394a 01       		.uleb128 0x1
 11402 394b 51       		.byte	0x51
 11403 394c 02       		.uleb128 0x2
 11404 394d 75       		.byte	0x75
 11405 394e 00       		.sleb128 0
 11406 394f 00       		.byte	0
 11407 3950 3A       		.uleb128 0x3a
 11408 3951 CC000000 		.4byte	.LVL274
 11409 3955 F24C0000 		.4byte	0x4cf2
 11410 3959 64390000 		.4byte	0x3964
 11411 395d 39       		.uleb128 0x39
 11412 395e 01       		.uleb128 0x1
 11413 395f 53       		.byte	0x53
 11414 3960 02       		.uleb128 0x2
 11415 3961 75       		.byte	0x75
 11416 3962 00       		.sleb128 0
 11417 3963 00       		.byte	0
 11418 3964 38       		.uleb128 0x38
 11419 3965 D8000000 		.4byte	.LVL276
 11420 3969 9D370000 		.4byte	0x379d
 11421 396d 39       		.uleb128 0x39
 11422 396e 01       		.uleb128 0x1
 11423 396f 50       		.byte	0x50
 11424 3970 02       		.uleb128 0x2
 11425 3971 74       		.byte	0x74
 11426 3972 00       		.sleb128 0
 11427 3973 39       		.uleb128 0x39
 11428 3974 01       		.uleb128 0x1
 11429 3975 52       		.byte	0x52
 11430 3976 02       		.uleb128 0x2
 11431 3977 75       		.byte	0x75
 11432 3978 00       		.sleb128 0
 11433 3979 00       		.byte	0
 11434 397a 00       		.byte	0
 11435 397b 43       		.uleb128 0x43
 11436 397c A0150000 		.4byte	.LASF685
 11437 3980 01       		.byte	0x1
 11438 3981 88       		.byte	0x88
 11439 3982 00000000 		.4byte	.LFB163
 11440 3986 76000000 		.4byte	.LFE163-.LFB163
 11441 398a 01       		.uleb128 0x1
 11442 398b 9C       		.byte	0x9c
 11443 398c 3E3A0000 		.4byte	0x3a3e
 11444 3990 44       		.uleb128 0x44
 11445 3991 6F626A00 		.ascii	"obj\000"
 11446 3995 01       		.byte	0x1
 11447 3996 88       		.byte	0x88
 11448 3997 0A2B0000 		.4byte	0x2b0a
 11449 399b 450E0000 		.4byte	.LLST117
 11450 399f 41       		.uleb128 0x41
 11451 39a0 CF270000 		.4byte	.LASF676
 11452 39a4 01       		.byte	0x1
 11453 39a5 88       		.byte	0x88
 11454 39a6 CE000000 		.4byte	0xce
 11455 39aa 710E0000 		.4byte	.LLST118
ARM GAS  C:\Users\haske\AppData\Local\Temp\ccmHbbn5.s 			page 233


 11456 39ae 42       		.uleb128 0x42
 11457 39af 61726300 		.ascii	"arc\000"
 11458 39b3 01       		.byte	0x1
 11459 39b4 8B       		.byte	0x8b
 11460 39b5 5E250000 		.4byte	0x255e
 11461 39b9 8F0E0000 		.4byte	.LLST119
 11462 39bd 45       		.uleb128 0x45
 11463 39be 34040000 		.4byte	.LASF677
 11464 39c2 01       		.byte	0x1
 11465 39c3 8F       		.byte	0x8f
 11466 39c4 C3000000 		.4byte	0xc3
 11467 39c8 BB0E0000 		.4byte	.LLST120
 11468 39cc 45       		.uleb128 0x45
 11469 39cd 2E0B0000 		.4byte	.LASF678
 11470 39d1 01       		.byte	0x1
 11471 39d2 90       		.byte	0x90
 11472 39d3 C3000000 		.4byte	0xc3
 11473 39d7 CE0E0000 		.4byte	.LLST121
 11474 39db 3A       		.uleb128 0x3a
 11475 39dc 4A000000 		.4byte	.LVL287
 11476 39e0 E64C0000 		.4byte	0x4ce6
 11477 39e4 EF390000 		.4byte	0x39ef
 11478 39e8 39       		.uleb128 0x39
 11479 39e9 01       		.uleb128 0x1
 11480 39ea 50       		.byte	0x50
 11481 39eb 02       		.uleb128 0x2
 11482 39ec 75       		.byte	0x75
 11483 39ed 00       		.sleb128 0
 11484 39ee 00       		.byte	0
 11485 39ef 3A       		.uleb128 0x3a
 11486 39f0 5A000000 		.4byte	.LVL290
 11487 39f4 DE320000 		.4byte	0x32de
 11488 39f8 0E3A0000 		.4byte	0x3a0e
 11489 39fc 39       		.uleb128 0x39
 11490 39fd 01       		.uleb128 0x1
 11491 39fe 50       		.byte	0x50
 11492 39ff 02       		.uleb128 0x2
 11493 3a00 75       		.byte	0x75
 11494 3a01 00       		.sleb128 0
 11495 3a02 39       		.uleb128 0x39
 11496 3a03 01       		.uleb128 0x1
 11497 3a04 52       		.byte	0x52
 11498 3a05 02       		.uleb128 0x2
 11499 3a06 74       		.byte	0x74
 11500 3a07 00       		.sleb128 0
 11501 3a08 39       		.uleb128 0x39
 11502 3a09 01       		.uleb128 0x1
 11503 3a0a 53       		.byte	0x53
 11504 3a0b 01       		.uleb128 0x1
 11505 3a0c 30       		.byte	0x30
 11506 3a0d 00       		.byte	0
 11507 3a0e 3A       		.uleb128 0x3a
 11508 3a0f 6C000000 		.4byte	.LVL293
 11509 3a13 DE320000 		.4byte	0x32de
 11510 3a17 2D3A0000 		.4byte	0x3a2d
 11511 3a1b 39       		.uleb128 0x39
 11512 3a1c 01       		.uleb128 0x1
ARM GAS  C:\Users\haske\AppData\Local\Temp\ccmHbbn5.s 			page 234


 11513 3a1d 50       		.byte	0x50
 11514 3a1e 02       		.uleb128 0x2
 11515 3a1f 75       		.byte	0x75
 11516 3a20 00       		.sleb128 0
 11517 3a21 39       		.uleb128 0x39
 11518 3a22 01       		.uleb128 0x1
 11519 3a23 51       		.byte	0x51
 11520 3a24 02       		.uleb128 0x2
 11521 3a25 74       		.byte	0x74
 11522 3a26 00       		.sleb128 0
 11523 3a27 39       		.uleb128 0x39
 11524 3a28 01       		.uleb128 0x1
 11525 3a29 53       		.byte	0x53
 11526 3a2a 01       		.uleb128 0x1
 11527 3a2b 30       		.byte	0x30
 11528 3a2c 00       		.byte	0
 11529 3a2d 38       		.uleb128 0x38
 11530 3a2e 74000000 		.4byte	.LVL294
 11531 3a32 0A380000 		.4byte	0x380a
 11532 3a36 39       		.uleb128 0x39
 11533 3a37 01       		.uleb128 0x1
 11534 3a38 50       		.byte	0x50
 11535 3a39 02       		.uleb128 0x2
 11536 3a3a 75       		.byte	0x75
 11537 3a3b 00       		.sleb128 0
 11538 3a3c 00       		.byte	0
 11539 3a3d 00       		.byte	0
 11540 3a3e 43       		.uleb128 0x43
 11541 3a3f DB290000 		.4byte	.LASF686
 11542 3a43 01       		.byte	0x1
 11543 3a44 9E       		.byte	0x9e
 11544 3a45 00000000 		.4byte	.LFB164
 11545 3a49 76000000 		.4byte	.LFE164-.LFB164
 11546 3a4d 01       		.uleb128 0x1
 11547 3a4e 9C       		.byte	0x9c
 11548 3a4f 013B0000 		.4byte	0x3b01
 11549 3a53 44       		.uleb128 0x44
 11550 3a54 6F626A00 		.ascii	"obj\000"
 11551 3a58 01       		.byte	0x1
 11552 3a59 9E       		.byte	0x9e
 11553 3a5a 0A2B0000 		.4byte	0x2b0a
 11554 3a5e F70E0000 		.4byte	.LLST122
 11555 3a62 44       		.uleb128 0x44
 11556 3a63 656E6400 		.ascii	"end\000"
 11557 3a67 01       		.byte	0x1
 11558 3a68 9E       		.byte	0x9e
 11559 3a69 CE000000 		.4byte	0xce
 11560 3a6d 230F0000 		.4byte	.LLST123
 11561 3a71 42       		.uleb128 0x42
 11562 3a72 61726300 		.ascii	"arc\000"
 11563 3a76 01       		.byte	0x1
 11564 3a77 A1       		.byte	0xa1
 11565 3a78 5E250000 		.4byte	0x255e
 11566 3a7c 410F0000 		.4byte	.LLST124
 11567 3a80 45       		.uleb128 0x45
 11568 3a81 34040000 		.4byte	.LASF677
 11569 3a85 01       		.byte	0x1
ARM GAS  C:\Users\haske\AppData\Local\Temp\ccmHbbn5.s 			page 235


 11570 3a86 A5       		.byte	0xa5
 11571 3a87 C3000000 		.4byte	0xc3
 11572 3a8b 6D0F0000 		.4byte	.LLST125
 11573 3a8f 45       		.uleb128 0x45
 11574 3a90 2E0B0000 		.4byte	.LASF678
 11575 3a94 01       		.byte	0x1
 11576 3a95 A6       		.byte	0xa6
 11577 3a96 C3000000 		.4byte	0xc3
 11578 3a9a 800F0000 		.4byte	.LLST126
 11579 3a9e 3A       		.uleb128 0x3a
 11580 3a9f 4A000000 		.4byte	.LVL306
 11581 3aa3 E64C0000 		.4byte	0x4ce6
 11582 3aa7 B23A0000 		.4byte	0x3ab2
 11583 3aab 39       		.uleb128 0x39
 11584 3aac 01       		.uleb128 0x1
 11585 3aad 50       		.byte	0x50
 11586 3aae 02       		.uleb128 0x2
 11587 3aaf 75       		.byte	0x75
 11588 3ab0 00       		.sleb128 0
 11589 3ab1 00       		.byte	0
 11590 3ab2 3A       		.uleb128 0x3a
 11591 3ab3 5C000000 		.4byte	.LVL309
 11592 3ab7 DE320000 		.4byte	0x32de
 11593 3abb D13A0000 		.4byte	0x3ad1
 11594 3abf 39       		.uleb128 0x39
 11595 3ac0 01       		.uleb128 0x1
 11596 3ac1 50       		.byte	0x50
 11597 3ac2 02       		.uleb128 0x2
 11598 3ac3 75       		.byte	0x75
 11599 3ac4 00       		.sleb128 0
 11600 3ac5 39       		.uleb128 0x39
 11601 3ac6 01       		.uleb128 0x1
 11602 3ac7 51       		.byte	0x51
 11603 3ac8 02       		.uleb128 0x2
 11604 3ac9 74       		.byte	0x74
 11605 3aca 00       		.sleb128 0
 11606 3acb 39       		.uleb128 0x39
 11607 3acc 01       		.uleb128 0x1
 11608 3acd 53       		.byte	0x53
 11609 3ace 01       		.uleb128 0x1
 11610 3acf 30       		.byte	0x30
 11611 3ad0 00       		.byte	0
 11612 3ad1 3A       		.uleb128 0x3a
 11613 3ad2 6C000000 		.4byte	.LVL312
 11614 3ad6 DE320000 		.4byte	0x32de
 11615 3ada F03A0000 		.4byte	0x3af0
 11616 3ade 39       		.uleb128 0x39
 11617 3adf 01       		.uleb128 0x1
 11618 3ae0 50       		.byte	0x50
 11619 3ae1 02       		.uleb128 0x2
 11620 3ae2 75       		.byte	0x75
 11621 3ae3 00       		.sleb128 0
 11622 3ae4 39       		.uleb128 0x39
 11623 3ae5 01       		.uleb128 0x1
 11624 3ae6 52       		.byte	0x52
 11625 3ae7 02       		.uleb128 0x2
 11626 3ae8 74       		.byte	0x74
ARM GAS  C:\Users\haske\AppData\Local\Temp\ccmHbbn5.s 			page 236


 11627 3ae9 00       		.sleb128 0
 11628 3aea 39       		.uleb128 0x39
 11629 3aeb 01       		.uleb128 0x1
 11630 3aec 53       		.byte	0x53
 11631 3aed 01       		.uleb128 0x1
 11632 3aee 30       		.byte	0x30
 11633 3aef 00       		.byte	0
 11634 3af0 38       		.uleb128 0x38
 11635 3af1 74000000 		.4byte	.LVL313
 11636 3af5 0A380000 		.4byte	0x380a
 11637 3af9 39       		.uleb128 0x39
 11638 3afa 01       		.uleb128 0x1
 11639 3afb 50       		.byte	0x50
 11640 3afc 02       		.uleb128 0x2
 11641 3afd 75       		.byte	0x75
 11642 3afe 00       		.sleb128 0
 11643 3aff 00       		.byte	0
 11644 3b00 00       		.byte	0
 11645 3b01 43       		.uleb128 0x43
 11646 3b02 79280000 		.4byte	.LASF687
 11647 3b06 01       		.byte	0x1
 11648 3b07 B4       		.byte	0xb4
 11649 3b08 00000000 		.4byte	.LFB165
 11650 3b0c 16000000 		.4byte	.LFE165-.LFB165
 11651 3b10 01       		.uleb128 0x1
 11652 3b11 9C       		.byte	0x9c
 11653 3b12 6E3B0000 		.4byte	0x3b6e
 11654 3b16 44       		.uleb128 0x44
 11655 3b17 6F626A00 		.ascii	"obj\000"
 11656 3b1b 01       		.byte	0x1
 11657 3b1c B4       		.byte	0xb4
 11658 3b1d 0A2B0000 		.4byte	0x2b0a
 11659 3b21 A90F0000 		.4byte	.LLST127
 11660 3b25 41       		.uleb128 0x41
 11661 3b26 CF270000 		.4byte	.LASF676
 11662 3b2a 01       		.byte	0x1
 11663 3b2b B4       		.byte	0xb4
 11664 3b2c CE000000 		.4byte	0xce
 11665 3b30 D50F0000 		.4byte	.LLST128
 11666 3b34 44       		.uleb128 0x44
 11667 3b35 656E6400 		.ascii	"end\000"
 11668 3b39 01       		.byte	0x1
 11669 3b3a B4       		.byte	0xb4
 11670 3b3b CE000000 		.4byte	0xce
 11671 3b3f F60F0000 		.4byte	.LLST129
 11672 3b43 3A       		.uleb128 0x3a
 11673 3b44 0C000000 		.4byte	.LVL319
 11674 3b48 3E3A0000 		.4byte	0x3a3e
 11675 3b4c 573B0000 		.4byte	0x3b57
 11676 3b50 39       		.uleb128 0x39
 11677 3b51 01       		.uleb128 0x1
 11678 3b52 50       		.byte	0x50
 11679 3b53 02       		.uleb128 0x2
 11680 3b54 74       		.byte	0x74
 11681 3b55 00       		.sleb128 0
 11682 3b56 00       		.byte	0
 11683 3b57 38       		.uleb128 0x38
ARM GAS  C:\Users\haske\AppData\Local\Temp\ccmHbbn5.s 			page 237


 11684 3b58 14000000 		.4byte	.LVL320
 11685 3b5c 7B390000 		.4byte	0x397b
 11686 3b60 39       		.uleb128 0x39
 11687 3b61 01       		.uleb128 0x1
 11688 3b62 50       		.byte	0x50
 11689 3b63 02       		.uleb128 0x2
 11690 3b64 74       		.byte	0x74
 11691 3b65 00       		.sleb128 0
 11692 3b66 39       		.uleb128 0x39
 11693 3b67 01       		.uleb128 0x1
 11694 3b68 51       		.byte	0x51
 11695 3b69 02       		.uleb128 0x2
 11696 3b6a 75       		.byte	0x75
 11697 3b6b 00       		.sleb128 0
 11698 3b6c 00       		.byte	0
 11699 3b6d 00       		.byte	0
 11700 3b6e 43       		.uleb128 0x43
 11701 3b6f 7B2B0000 		.4byte	.LASF688
 11702 3b73 01       		.byte	0x1
 11703 3b74 BA       		.byte	0xba
 11704 3b75 00000000 		.4byte	.LFB166
 11705 3b79 0A000000 		.4byte	.LFE166-.LFB166
 11706 3b7d 01       		.uleb128 0x1
 11707 3b7e 9C       		.byte	0x9c
 11708 3b7f C23B0000 		.4byte	0x3bc2
 11709 3b83 44       		.uleb128 0x44
 11710 3b84 6F626A00 		.ascii	"obj\000"
 11711 3b88 01       		.byte	0x1
 11712 3b89 BA       		.byte	0xba
 11713 3b8a 0A2B0000 		.4byte	0x2b0a
 11714 3b8e 17100000 		.4byte	.LLST130
 11715 3b92 41       		.uleb128 0x41
 11716 3b93 87220000 		.4byte	.LASF611
 11717 3b97 01       		.byte	0x1
 11718 3b98 BA       		.byte	0xba
 11719 3b99 CE000000 		.4byte	0xce
 11720 3b9d 38100000 		.4byte	.LLST131
 11721 3ba1 42       		.uleb128 0x42
 11722 3ba2 61726300 		.ascii	"arc\000"
 11723 3ba6 01       		.byte	0x1
 11724 3ba7 BD       		.byte	0xbd
 11725 3ba8 5E250000 		.4byte	0x255e
 11726 3bac 59100000 		.4byte	.LLST132
 11727 3bb0 38       		.uleb128 0x38
 11728 3bb1 08000000 		.4byte	.LVL324
 11729 3bb5 E64C0000 		.4byte	0x4ce6
 11730 3bb9 39       		.uleb128 0x39
 11731 3bba 01       		.uleb128 0x1
 11732 3bbb 50       		.byte	0x50
 11733 3bbc 03       		.uleb128 0x3
 11734 3bbd F3       		.byte	0xf3
 11735 3bbe 01       		.uleb128 0x1
 11736 3bbf 50       		.byte	0x50
 11737 3bc0 00       		.byte	0
 11738 3bc1 00       		.byte	0
 11739 3bc2 43       		.uleb128 0x43
 11740 3bc3 630D0000 		.4byte	.LASF689
ARM GAS  C:\Users\haske\AppData\Local\Temp\ccmHbbn5.s 			page 238


 11741 3bc7 01       		.byte	0x1
 11742 3bc8 E1       		.byte	0xe1
 11743 3bc9 00000000 		.4byte	.LFB168
 11744 3bcd 32000000 		.4byte	.LFE168-.LFB168
 11745 3bd1 01       		.uleb128 0x1
 11746 3bd2 9C       		.byte	0x9c
 11747 3bd3 253C0000 		.4byte	0x3c25
 11748 3bd7 44       		.uleb128 0x44
 11749 3bd8 6F626A00 		.ascii	"obj\000"
 11750 3bdc 01       		.byte	0x1
 11751 3bdd E1       		.byte	0xe1
 11752 3bde 0A2B0000 		.4byte	0x2b0a
 11753 3be2 7A100000 		.4byte	.LLST133
 11754 3be6 41       		.uleb128 0x41
 11755 3be7 0D0C0000 		.4byte	.LASF186
 11756 3beb 01       		.byte	0x1
 11757 3bec E1       		.byte	0xe1
 11758 3bed C3000000 		.4byte	0xc3
 11759 3bf1 9B100000 		.4byte	.LLST134
 11760 3bf5 42       		.uleb128 0x42
 11761 3bf6 61726300 		.ascii	"arc\000"
 11762 3bfa 01       		.byte	0x1
 11763 3bfb E4       		.byte	0xe4
 11764 3bfc 5E250000 		.4byte	0x255e
 11765 3c00 BC100000 		.4byte	.LLST135
 11766 3c04 45       		.uleb128 0x45
 11767 3c05 7E250000 		.4byte	.LASF690
 11768 3c09 01       		.byte	0x1
 11769 3c0a E8       		.byte	0xe8
 11770 3c0b C3000000 		.4byte	0xc3
 11771 3c0f DD100000 		.4byte	.LLST136
 11772 3c13 38       		.uleb128 0x38
 11773 3c14 30000000 		.4byte	.LVL332
 11774 3c18 0A380000 		.4byte	0x380a
 11775 3c1c 39       		.uleb128 0x39
 11776 3c1d 01       		.uleb128 0x1
 11777 3c1e 50       		.byte	0x50
 11778 3c1f 03       		.uleb128 0x3
 11779 3c20 F3       		.byte	0xf3
 11780 3c21 01       		.uleb128 0x1
 11781 3c22 50       		.byte	0x50
 11782 3c23 00       		.byte	0
 11783 3c24 00       		.byte	0
 11784 3c25 43       		.uleb128 0x43
 11785 3c26 D5270000 		.4byte	.LASF691
 11786 3c2a 01       		.byte	0x1
 11787 3c2b C4       		.byte	0xc4
 11788 3c2c 00000000 		.4byte	.LFB167
 11789 3c30 72000000 		.4byte	.LFE167-.LFB167
 11790 3c34 01       		.uleb128 0x1
 11791 3c35 9C       		.byte	0x9c
 11792 3c36 0D3D0000 		.4byte	0x3d0d
 11793 3c3a 44       		.uleb128 0x44
 11794 3c3b 6F626A00 		.ascii	"obj\000"
 11795 3c3f 01       		.byte	0x1
 11796 3c40 C4       		.byte	0xc4
 11797 3c41 0A2B0000 		.4byte	0x2b0a
ARM GAS  C:\Users\haske\AppData\Local\Temp\ccmHbbn5.s 			page 239


 11798 3c45 11110000 		.4byte	.LLST137
 11799 3c49 41       		.uleb128 0x41
 11800 3c4a FD030000 		.4byte	.LASF388
 11801 3c4e 01       		.byte	0x1
 11802 3c4f C4       		.byte	0xc4
 11803 3c50 68210000 		.4byte	0x2168
 11804 3c54 3D110000 		.4byte	.LLST138
 11805 3c58 42       		.uleb128 0x42
 11806 3c59 61726300 		.ascii	"arc\000"
 11807 3c5d 01       		.byte	0x1
 11808 3c5e C7       		.byte	0xc7
 11809 3c5f 5E250000 		.4byte	0x255e
 11810 3c63 5E110000 		.4byte	.LLST139
 11811 3c67 42       		.uleb128 0x42
 11812 3c68 76616C00 		.ascii	"val\000"
 11813 3c6c 01       		.byte	0x1
 11814 3c6d C9       		.byte	0xc9
 11815 3c6e C3000000 		.4byte	0xc3
 11816 3c72 8A110000 		.4byte	.LLST140
 11817 3c76 45       		.uleb128 0x45
 11818 3c77 7B220000 		.4byte	.LASF683
 11819 3c7b 01       		.byte	0x1
 11820 3c7c CE       		.byte	0xce
 11821 3c7d C3000000 		.4byte	0xc3
 11822 3c81 9D110000 		.4byte	.LLST141
 11823 3c85 45       		.uleb128 0x45
 11824 3c86 5C120000 		.4byte	.LASF639
 11825 3c8a 01       		.byte	0x1
 11826 3c8b CE       		.byte	0xce
 11827 3c8c C3000000 		.4byte	0xc3
 11828 3c90 BB110000 		.4byte	.LLST142
 11829 3c94 3A       		.uleb128 0x3a
 11830 3c95 4E000000 		.4byte	.LVL342
 11831 3c99 E7350000 		.4byte	0x35e7
 11832 3c9d AE3C0000 		.4byte	0x3cae
 11833 3ca1 39       		.uleb128 0x39
 11834 3ca2 01       		.uleb128 0x1
 11835 3ca3 50       		.byte	0x50
 11836 3ca4 02       		.uleb128 0x2
 11837 3ca5 74       		.byte	0x74
 11838 3ca6 00       		.sleb128 0
 11839 3ca7 39       		.uleb128 0x39
 11840 3ca8 01       		.uleb128 0x1
 11841 3ca9 51       		.byte	0x51
 11842 3caa 02       		.uleb128 0x2
 11843 3cab 75       		.byte	0x75
 11844 3cac 00       		.sleb128 0
 11845 3cad 00       		.byte	0
 11846 3cae 3A       		.uleb128 0x3a
 11847 3caf 56000000 		.4byte	.LVL343
 11848 3cb3 C2360000 		.4byte	0x36c2
 11849 3cb7 C83C0000 		.4byte	0x3cc8
 11850 3cbb 39       		.uleb128 0x39
 11851 3cbc 01       		.uleb128 0x1
 11852 3cbd 50       		.byte	0x50
 11853 3cbe 02       		.uleb128 0x2
 11854 3cbf 74       		.byte	0x74
ARM GAS  C:\Users\haske\AppData\Local\Temp\ccmHbbn5.s 			page 240


 11855 3cc0 00       		.sleb128 0
 11856 3cc1 39       		.uleb128 0x39
 11857 3cc2 01       		.uleb128 0x1
 11858 3cc3 51       		.byte	0x51
 11859 3cc4 02       		.uleb128 0x2
 11860 3cc5 75       		.byte	0x75
 11861 3cc6 00       		.sleb128 0
 11862 3cc7 00       		.byte	0
 11863 3cc8 3A       		.uleb128 0x3a
 11864 3cc9 60000000 		.4byte	.LVL345
 11865 3ccd C2360000 		.4byte	0x36c2
 11866 3cd1 E23C0000 		.4byte	0x3ce2
 11867 3cd5 39       		.uleb128 0x39
 11868 3cd6 01       		.uleb128 0x1
 11869 3cd7 50       		.byte	0x50
 11870 3cd8 02       		.uleb128 0x2
 11871 3cd9 74       		.byte	0x74
 11872 3cda 00       		.sleb128 0
 11873 3cdb 39       		.uleb128 0x39
 11874 3cdc 01       		.uleb128 0x1
 11875 3cdd 51       		.byte	0x51
 11876 3cde 02       		.uleb128 0x2
 11877 3cdf 77       		.byte	0x77
 11878 3ce0 00       		.sleb128 0
 11879 3ce1 00       		.byte	0
 11880 3ce2 3A       		.uleb128 0x3a
 11881 3ce3 68000000 		.4byte	.LVL347
 11882 3ce7 E7350000 		.4byte	0x35e7
 11883 3ceb F63C0000 		.4byte	0x3cf6
 11884 3cef 39       		.uleb128 0x39
 11885 3cf0 01       		.uleb128 0x1
 11886 3cf1 50       		.byte	0x50
 11887 3cf2 02       		.uleb128 0x2
 11888 3cf3 74       		.byte	0x74
 11889 3cf4 00       		.sleb128 0
 11890 3cf5 00       		.byte	0
 11891 3cf6 38       		.uleb128 0x38
 11892 3cf7 70000000 		.4byte	.LVL348
 11893 3cfb C23B0000 		.4byte	0x3bc2
 11894 3cff 39       		.uleb128 0x39
 11895 3d00 01       		.uleb128 0x1
 11896 3d01 50       		.byte	0x50
 11897 3d02 02       		.uleb128 0x2
 11898 3d03 74       		.byte	0x74
 11899 3d04 00       		.sleb128 0
 11900 3d05 39       		.uleb128 0x39
 11901 3d06 01       		.uleb128 0x1
 11902 3d07 51       		.byte	0x51
 11903 3d08 02       		.uleb128 0x2
 11904 3d09 76       		.byte	0x76
 11905 3d0a 00       		.sleb128 0
 11906 3d0b 00       		.byte	0
 11907 3d0c 00       		.byte	0
 11908 3d0d 43       		.uleb128 0x43
 11909 3d0e CF220000 		.4byte	.LASF692
 11910 3d12 01       		.byte	0x1
 11911 3d13 F2       		.byte	0xf2
ARM GAS  C:\Users\haske\AppData\Local\Temp\ccmHbbn5.s 			page 241


 11912 3d14 00000000 		.4byte	.LFB169
 11913 3d18 30000000 		.4byte	.LFE169-.LFB169
 11914 3d1c 01       		.uleb128 0x1
 11915 3d1d 9C       		.byte	0x9c
 11916 3d1e 683D0000 		.4byte	0x3d68
 11917 3d22 44       		.uleb128 0x44
 11918 3d23 6F626A00 		.ascii	"obj\000"
 11919 3d27 01       		.byte	0x1
 11920 3d28 F2       		.byte	0xf2
 11921 3d29 0A2B0000 		.4byte	0x2b0a
 11922 3d2d E4110000 		.4byte	.LLST143
 11923 3d31 44       		.uleb128 0x44
 11924 3d32 6D696E00 		.ascii	"min\000"
 11925 3d36 01       		.byte	0x1
 11926 3d37 F2       		.byte	0xf2
 11927 3d38 C3000000 		.4byte	0xc3
 11928 3d3c 05120000 		.4byte	.LLST144
 11929 3d40 44       		.uleb128 0x44
 11930 3d41 6D617800 		.ascii	"max\000"
 11931 3d45 01       		.byte	0x1
 11932 3d46 F2       		.byte	0xf2
 11933 3d47 C3000000 		.4byte	0xc3
 11934 3d4b 32120000 		.4byte	.LLST145
 11935 3d4f 42       		.uleb128 0x42
 11936 3d50 61726300 		.ascii	"arc\000"
 11937 3d54 01       		.byte	0x1
 11938 3d55 F5       		.byte	0xf5
 11939 3d56 5E250000 		.4byte	0x255e
 11940 3d5a 53120000 		.4byte	.LLST146
 11941 3d5e 3E       		.uleb128 0x3e
 11942 3d5f 2E000000 		.4byte	.LVL354
 11943 3d63 0A380000 		.4byte	0x380a
 11944 3d67 00       		.byte	0
 11945 3d68 46       		.uleb128 0x46
 11946 3d69 451C0000 		.4byte	.LASF693
 11947 3d6d 01       		.byte	0x1
 11948 3d6e 0601     		.2byte	0x106
 11949 3d70 00000000 		.4byte	.LFB170
 11950 3d74 04000000 		.4byte	.LFE170-.LFB170
 11951 3d78 01       		.uleb128 0x1
 11952 3d79 9C       		.byte	0x9c
 11953 3d7a A93D0000 		.4byte	0x3da9
 11954 3d7e 47       		.uleb128 0x47
 11955 3d7f 6F626A00 		.ascii	"obj\000"
 11956 3d83 01       		.byte	0x1
 11957 3d84 0601     		.2byte	0x106
 11958 3d86 0A2B0000 		.4byte	0x2b0a
 11959 3d8a 01       		.uleb128 0x1
 11960 3d8b 50       		.byte	0x50
 11961 3d8c 48       		.uleb128 0x48
 11962 3d8d FB110000 		.4byte	.LASF694
 11963 3d91 01       		.byte	0x1
 11964 3d92 0601     		.2byte	0x106
 11965 3d94 CE000000 		.4byte	0xce
 11966 3d98 01       		.uleb128 0x1
 11967 3d99 51       		.byte	0x51
 11968 3d9a 3F       		.uleb128 0x3f
ARM GAS  C:\Users\haske\AppData\Local\Temp\ccmHbbn5.s 			page 242


 11969 3d9b 61726300 		.ascii	"arc\000"
 11970 3d9f 01       		.byte	0x1
 11971 3da0 0901     		.2byte	0x109
 11972 3da2 5E250000 		.4byte	0x255e
 11973 3da6 01       		.uleb128 0x1
 11974 3da7 50       		.byte	0x50
 11975 3da8 00       		.byte	0
 11976 3da9 49       		.uleb128 0x49
 11977 3daa 39130000 		.4byte	.LASF696
 11978 3dae 01       		.byte	0x1
 11979 3daf 1201     		.2byte	0x112
 11980 3db1 CE000000 		.4byte	0xce
 11981 3db5 00000000 		.4byte	.LFB171
 11982 3db9 04000000 		.4byte	.LFE171-.LFB171
 11983 3dbd 01       		.uleb128 0x1
 11984 3dbe 9C       		.byte	0x9c
 11985 3dbf D43D0000 		.4byte	0x3dd4
 11986 3dc3 2E       		.uleb128 0x2e
 11987 3dc4 6F626A00 		.ascii	"obj\000"
 11988 3dc8 01       		.byte	0x1
 11989 3dc9 1201     		.2byte	0x112
 11990 3dcb 0A2B0000 		.4byte	0x2b0a
 11991 3dcf 74120000 		.4byte	.LLST147
 11992 3dd3 00       		.byte	0
 11993 3dd4 49       		.uleb128 0x49
 11994 3dd5 A0250000 		.4byte	.LASF697
 11995 3dd9 01       		.byte	0x1
 11996 3dda 1801     		.2byte	0x118
 11997 3ddc CE000000 		.4byte	0xce
 11998 3de0 00000000 		.4byte	.LFB172
 11999 3de4 04000000 		.4byte	.LFE172-.LFB172
 12000 3de8 01       		.uleb128 0x1
 12001 3de9 9C       		.byte	0x9c
 12002 3dea FF3D0000 		.4byte	0x3dff
 12003 3dee 2E       		.uleb128 0x2e
 12004 3def 6F626A00 		.ascii	"obj\000"
 12005 3df3 01       		.byte	0x1
 12006 3df4 1801     		.2byte	0x118
 12007 3df6 0A2B0000 		.4byte	0x2b0a
 12008 3dfa 95120000 		.4byte	.LLST148
 12009 3dfe 00       		.byte	0
 12010 3dff 49       		.uleb128 0x49
 12011 3e00 031F0000 		.4byte	.LASF698
 12012 3e04 01       		.byte	0x1
 12013 3e05 1E01     		.2byte	0x11e
 12014 3e07 CE000000 		.4byte	0xce
 12015 3e0b 00000000 		.4byte	.LFB173
 12016 3e0f 04000000 		.4byte	.LFE173-.LFB173
 12017 3e13 01       		.uleb128 0x1
 12018 3e14 9C       		.byte	0x9c
 12019 3e15 2A3E0000 		.4byte	0x3e2a
 12020 3e19 2E       		.uleb128 0x2e
 12021 3e1a 6F626A00 		.ascii	"obj\000"
 12022 3e1e 01       		.byte	0x1
 12023 3e1f 1E01     		.2byte	0x11e
 12024 3e21 0A2B0000 		.4byte	0x2b0a
 12025 3e25 B6120000 		.4byte	.LLST149
ARM GAS  C:\Users\haske\AppData\Local\Temp\ccmHbbn5.s 			page 243


 12026 3e29 00       		.byte	0
 12027 3e2a 49       		.uleb128 0x49
 12028 3e2b BF080000 		.4byte	.LASF699
 12029 3e2f 01       		.byte	0x1
 12030 3e30 2401     		.2byte	0x124
 12031 3e32 CE000000 		.4byte	0xce
 12032 3e36 00000000 		.4byte	.LFB174
 12033 3e3a 04000000 		.4byte	.LFE174-.LFB174
 12034 3e3e 01       		.uleb128 0x1
 12035 3e3f 9C       		.byte	0x9c
 12036 3e40 553E0000 		.4byte	0x3e55
 12037 3e44 2E       		.uleb128 0x2e
 12038 3e45 6F626A00 		.ascii	"obj\000"
 12039 3e49 01       		.byte	0x1
 12040 3e4a 2401     		.2byte	0x124
 12041 3e4c 0A2B0000 		.4byte	0x2b0a
 12042 3e50 D7120000 		.4byte	.LLST150
 12043 3e54 00       		.byte	0
 12044 3e55 49       		.uleb128 0x49
 12045 3e56 69150000 		.4byte	.LASF700
 12046 3e5a 01       		.byte	0x1
 12047 3e5b 2A01     		.2byte	0x12a
 12048 3e5d C3000000 		.4byte	0xc3
 12049 3e61 00000000 		.4byte	.LFB175
 12050 3e65 06000000 		.4byte	.LFE175-.LFB175
 12051 3e69 01       		.uleb128 0x1
 12052 3e6a 9C       		.byte	0x9c
 12053 3e6b 803E0000 		.4byte	0x3e80
 12054 3e6f 2E       		.uleb128 0x2e
 12055 3e70 6F626A00 		.ascii	"obj\000"
 12056 3e74 01       		.byte	0x1
 12057 3e75 2A01     		.2byte	0x12a
 12058 3e77 53250000 		.4byte	0x2553
 12059 3e7b F8120000 		.4byte	.LLST151
 12060 3e7f 00       		.byte	0
 12061 3e80 4A       		.uleb128 0x4a
 12062 3e81 33200000 		.4byte	.LASF701
 12063 3e85 01       		.byte	0x1
 12064 3e86 9B01     		.2byte	0x19b
 12065 3e88 00000000 		.4byte	.LFB182
 12066 3e8c 90040000 		.4byte	.LFE182-.LFB182
 12067 3e90 01       		.uleb128 0x1
 12068 3e91 9C       		.byte	0x9c
 12069 3e92 AB470000 		.4byte	0x47ab
 12070 3e96 33       		.uleb128 0x33
 12071 3e97 131B0000 		.4byte	.LASF198
 12072 3e9b 01       		.byte	0x1
 12073 3e9c 9B01     		.2byte	0x19b
 12074 3e9e 27210000 		.4byte	0x2127
 12075 3ea2 19130000 		.4byte	.LLST152
 12076 3ea6 2E       		.uleb128 0x2e
 12077 3ea7 6500     		.ascii	"e\000"
 12078 3ea9 01       		.byte	0x1
 12079 3eaa 9B01     		.2byte	0x19b
 12080 3eac 851F0000 		.4byte	0x1f85
 12081 3eb0 3A130000 		.4byte	.LLST153
 12082 3eb4 2F       		.uleb128 0x2f
ARM GAS  C:\Users\haske\AppData\Local\Temp\ccmHbbn5.s 			page 244


 12083 3eb5 72657300 		.ascii	"res\000"
 12084 3eb9 01       		.byte	0x1
 12085 3eba 9F01     		.2byte	0x19f
 12086 3ebc A0030000 		.4byte	0x3a0
 12087 3ec0 CA130000 		.4byte	.LLST154
 12088 3ec4 30       		.uleb128 0x30
 12089 3ec5 08200000 		.4byte	.LASF519
 12090 3ec9 01       		.byte	0x1
 12091 3eca A501     		.2byte	0x1a5
 12092 3ecc 6F1F0000 		.4byte	0x1f6f
 12093 3ed0 E8130000 		.4byte	.LLST155
 12094 3ed4 2F       		.uleb128 0x2f
 12095 3ed5 6F626A00 		.ascii	"obj\000"
 12096 3ed9 01       		.byte	0x1
 12097 3eda A601     		.2byte	0x1a6
 12098 3edc 0A2B0000 		.4byte	0x2b0a
 12099 3ee0 3D140000 		.4byte	.LLST156
 12100 3ee4 2F       		.uleb128 0x2f
 12101 3ee5 61726300 		.ascii	"arc\000"
 12102 3ee9 01       		.byte	0x1
 12103 3eea A701     		.2byte	0x1a7
 12104 3eec 5E250000 		.4byte	0x255e
 12105 3ef0 66140000 		.4byte	.LLST157
 12106 3ef4 4B       		.uleb128 0x4b
 12107 3ef5 38000000 		.4byte	.LBB133
 12108 3ef9 3C020000 		.4byte	.LBE133-.LBB133
 12109 3efd 6A410000 		.4byte	0x416a
 12110 3f01 30       		.uleb128 0x30
 12111 3f02 C3120000 		.4byte	.LASF702
 12112 3f06 01       		.byte	0x1
 12113 3f07 A901     		.2byte	0x1a9
 12114 3f09 AB470000 		.4byte	0x47ab
 12115 3f0d F2140000 		.4byte	.LLST158
 12116 3f11 30       		.uleb128 0x30
 12117 3f12 AE1A0000 		.4byte	.LASF703
 12118 3f16 01       		.byte	0x1
 12119 3f17 AD01     		.2byte	0x1ad
 12120 3f19 0D160000 		.4byte	0x160d
 12121 3f1d 10150000 		.4byte	.LLST159
 12122 3f21 3F       		.uleb128 0x3f
 12123 3f22 7000     		.ascii	"p\000"
 12124 3f24 01       		.byte	0x1
 12125 3f25 B001     		.2byte	0x1b0
 12126 3f27 29010000 		.4byte	0x129
 12127 3f2b 02       		.uleb128 0x2
 12128 3f2c 91       		.byte	0x91
 12129 3f2d 54       		.sleb128 -44
 12130 3f2e 3D       		.uleb128 0x3d
 12131 3f2f D90E0000 		.4byte	.LASF642
 12132 3f33 01       		.byte	0x1
 12133 3f34 B401     		.2byte	0x1b4
 12134 3f36 29010000 		.4byte	0x129
 12135 3f3a 02       		.uleb128 0x2
 12136 3f3b 91       		.byte	0x91
 12137 3f3c 58       		.sleb128 -40
 12138 3f3d 3F       		.uleb128 0x3f
 12139 3f3e 7200     		.ascii	"r\000"
ARM GAS  C:\Users\haske\AppData\Local\Temp\ccmHbbn5.s 			page 245


 12140 3f40 01       		.byte	0x1
 12141 3f41 B501     		.2byte	0x1b5
 12142 3f43 01010000 		.4byte	0x101
 12143 3f47 02       		.uleb128 0x2
 12144 3f48 91       		.byte	0x91
 12145 3f49 52       		.sleb128 -46
 12146 3f4a 30       		.uleb128 0x30
 12147 3f4b 77160000 		.4byte	.LASF250
 12148 3f4f 01       		.byte	0x1
 12149 3f50 D701     		.2byte	0x1d7
 12150 3f52 C3000000 		.4byte	0xc3
 12151 3f56 23150000 		.4byte	.LLST160
 12152 3f5a 30       		.uleb128 0x30
 12153 3f5b 5C120000 		.4byte	.LASF639
 12154 3f5f 01       		.byte	0x1
 12155 3f60 D801     		.2byte	0x1d8
 12156 3f62 C3000000 		.4byte	0xc3
 12157 3f66 8E150000 		.4byte	.LLST161
 12158 3f6a 30       		.uleb128 0x30
 12159 3f6b 04060000 		.4byte	.LASF704
 12160 3f6f 01       		.byte	0x1
 12161 3f70 E301     		.2byte	0x1e3
 12162 3f72 C3000000 		.4byte	0xc3
 12163 3f76 A1150000 		.4byte	.LLST162
 12164 3f7a 30       		.uleb128 0x30
 12165 3f7b B8040000 		.4byte	.LASF705
 12166 3f7f 01       		.byte	0x1
 12167 3f80 E501     		.2byte	0x1e5
 12168 3f82 C3000000 		.4byte	0xc3
 12169 3f86 F6150000 		.4byte	.LLST163
 12170 3f8a 30       		.uleb128 0x30
 12171 3f8b 48030000 		.4byte	.LASF706
 12172 3f8f 01       		.byte	0x1
 12173 3f90 E601     		.2byte	0x1e6
 12174 3f92 C3000000 		.4byte	0xc3
 12175 3f96 14160000 		.4byte	.LLST164
 12176 3f9a 30       		.uleb128 0x30
 12177 3f9b 72140000 		.4byte	.LASF707
 12178 3f9f 01       		.byte	0x1
 12179 3fa0 F601     		.2byte	0x1f6
 12180 3fa2 E4000000 		.4byte	0xe4
 12181 3fa6 73160000 		.4byte	.LLST165
 12182 3faa 30       		.uleb128 0x30
 12183 3fab 611C0000 		.4byte	.LASF708
 12184 3faf 01       		.byte	0x1
 12185 3fb0 F701     		.2byte	0x1f7
 12186 3fb2 C3000000 		.4byte	0xc3
 12187 3fb6 86160000 		.4byte	.LLST166
 12188 3fba 30       		.uleb128 0x30
 12189 3fbb 851A0000 		.4byte	.LASF709
 12190 3fbf 01       		.byte	0x1
 12191 3fc0 0302     		.2byte	0x203
 12192 3fc2 D9000000 		.4byte	0xd9
 12193 3fc6 B5160000 		.4byte	.LLST167
 12194 3fca 30       		.uleb128 0x30
 12195 3fcb F01E0000 		.4byte	.LASF710
 12196 3fcf 01       		.byte	0x1
ARM GAS  C:\Users\haske\AppData\Local\Temp\ccmHbbn5.s 			page 246


 12197 3fd0 0A02     		.2byte	0x20a
 12198 3fd2 C3000000 		.4byte	0xc3
 12199 3fd6 E0160000 		.4byte	.LLST168
 12200 3fda 30       		.uleb128 0x30
 12201 3fdb 7E250000 		.4byte	.LASF690
 12202 3fdf 01       		.byte	0x1
 12203 3fe0 0B02     		.2byte	0x20b
 12204 3fe2 C3000000 		.4byte	0xc3
 12205 3fe6 F3160000 		.4byte	.LLST169
 12206 3fea 4B       		.uleb128 0x4b
 12207 3feb 80000000 		.4byte	.LBB134
 12208 3fef 9C000000 		.4byte	.LBE134-.LBB134
 12209 3ff3 7B400000 		.4byte	0x407b
 12210 3ff7 34       		.uleb128 0x34
 12211 3ff8 99090000 		.4byte	.LASF655
 12212 3ffc 01       		.byte	0x1
 12213 3ffd BD01     		.2byte	0x1bd
 12214 3fff 01010000 		.4byte	0x101
 12215 4003 35       		.uleb128 0x35
 12216 4004 66240000 		.4byte	0x2466
 12217 4008 80000000 		.4byte	.LBB135
 12218 400c 0E000000 		.4byte	.LBE135-.LBB135
 12219 4010 01       		.byte	0x1
 12220 4011 BD01     		.2byte	0x1bd
 12221 4013 56400000 		.4byte	0x4056
 12222 4017 36       		.uleb128 0x36
 12223 4018 83240000 		.4byte	0x2483
 12224 401c 06170000 		.4byte	.LLST170
 12225 4020 36       		.uleb128 0x36
 12226 4021 77240000 		.4byte	0x2477
 12227 4025 1C170000 		.4byte	.LLST171
 12228 4029 31       		.uleb128 0x31
 12229 402a 80000000 		.4byte	.LBB136
 12230 402e 0E000000 		.4byte	.LBE136-.LBB136
 12231 4032 37       		.uleb128 0x37
 12232 4033 8F240000 		.4byte	0x248f
 12233 4037 38       		.uleb128 0x38
 12234 4038 8C000000 		.4byte	.LVL387
 12235 403c D84B0000 		.4byte	0x4bd8
 12236 4040 39       		.uleb128 0x39
 12237 4041 01       		.uleb128 0x1
 12238 4042 50       		.byte	0x50
 12239 4043 02       		.uleb128 0x2
 12240 4044 77       		.byte	0x77
 12241 4045 00       		.sleb128 0
 12242 4046 39       		.uleb128 0x39
 12243 4047 01       		.uleb128 0x1
 12244 4048 51       		.byte	0x51
 12245 4049 03       		.uleb128 0x3
 12246 404a 40       		.byte	0x40
 12247 404b 3D       		.byte	0x3d
 12248 404c 24       		.byte	0x24
 12249 404d 39       		.uleb128 0x39
 12250 404e 01       		.uleb128 0x1
 12251 404f 52       		.byte	0x52
 12252 4050 02       		.uleb128 0x2
 12253 4051 08       		.byte	0x8
ARM GAS  C:\Users\haske\AppData\Local\Temp\ccmHbbn5.s 			page 247


 12254 4052 50       		.byte	0x50
 12255 4053 00       		.byte	0
 12256 4054 00       		.byte	0
 12257 4055 00       		.byte	0
 12258 4056 3A       		.uleb128 0x3a
 12259 4057 A4000000 		.4byte	.LVL389
 12260 405b FD4C0000 		.4byte	0x4cfd
 12261 405f 71400000 		.4byte	0x4071
 12262 4063 39       		.uleb128 0x39
 12263 4064 01       		.uleb128 0x1
 12264 4065 50       		.byte	0x50
 12265 4066 02       		.uleb128 0x2
 12266 4067 77       		.byte	0x77
 12267 4068 00       		.sleb128 0
 12268 4069 39       		.uleb128 0x39
 12269 406a 01       		.uleb128 0x1
 12270 406b 51       		.byte	0x51
 12271 406c 03       		.uleb128 0x3
 12272 406d 40       		.byte	0x40
 12273 406e 3C       		.byte	0x3c
 12274 406f 24       		.byte	0x24
 12275 4070 00       		.byte	0
 12276 4071 3E       		.uleb128 0x3e
 12277 4072 1A010000 		.4byte	.LVL390
 12278 4076 754C0000 		.4byte	0x4c75
 12279 407a 00       		.byte	0
 12280 407b 3E       		.uleb128 0x3e
 12281 407c 3C000000 		.4byte	.LVL378
 12282 4080 094D0000 		.4byte	0x4d09
 12283 4084 3A       		.uleb128 0x3a
 12284 4085 46000000 		.4byte	.LVL380
 12285 4089 144D0000 		.4byte	0x4d14
 12286 408d 98400000 		.4byte	0x4098
 12287 4091 39       		.uleb128 0x39
 12288 4092 01       		.uleb128 0x1
 12289 4093 50       		.byte	0x50
 12290 4094 02       		.uleb128 0x2
 12291 4095 74       		.byte	0x74
 12292 4096 00       		.sleb128 0
 12293 4097 00       		.byte	0
 12294 4098 3A       		.uleb128 0x3a
 12295 4099 56000000 		.4byte	.LVL383
 12296 409d 1F4D0000 		.4byte	0x4d1f
 12297 40a1 B2400000 		.4byte	0x40b2
 12298 40a5 39       		.uleb128 0x39
 12299 40a6 01       		.uleb128 0x1
 12300 40a7 50       		.byte	0x50
 12301 40a8 02       		.uleb128 0x2
 12302 40a9 74       		.byte	0x74
 12303 40aa 00       		.sleb128 0
 12304 40ab 39       		.uleb128 0x39
 12305 40ac 01       		.uleb128 0x1
 12306 40ad 51       		.byte	0x51
 12307 40ae 02       		.uleb128 0x2
 12308 40af 75       		.byte	0x75
 12309 40b0 00       		.sleb128 0
 12310 40b1 00       		.byte	0
ARM GAS  C:\Users\haske\AppData\Local\Temp\ccmHbbn5.s 			page 248


 12311 40b2 3A       		.uleb128 0x3a
 12312 40b3 64000000 		.4byte	.LVL385
 12313 40b7 64250000 		.4byte	0x2564
 12314 40bb D2400000 		.4byte	0x40d2
 12315 40bf 39       		.uleb128 0x39
 12316 40c0 01       		.uleb128 0x1
 12317 40c1 50       		.byte	0x50
 12318 40c2 02       		.uleb128 0x2
 12319 40c3 77       		.byte	0x77
 12320 40c4 00       		.sleb128 0
 12321 40c5 39       		.uleb128 0x39
 12322 40c6 01       		.uleb128 0x1
 12323 40c7 51       		.byte	0x51
 12324 40c8 02       		.uleb128 0x2
 12325 40c9 74       		.byte	0x74
 12326 40ca 00       		.sleb128 0
 12327 40cb 39       		.uleb128 0x39
 12328 40cc 01       		.uleb128 0x1
 12329 40cd 52       		.byte	0x52
 12330 40ce 02       		.uleb128 0x2
 12331 40cf 91       		.byte	0x91
 12332 40d0 52       		.sleb128 -46
 12333 40d1 00       		.byte	0
 12334 40d2 3E       		.uleb128 0x3e
 12335 40d3 56010000 		.4byte	.LVL393
 12336 40d7 2A4D0000 		.4byte	0x4d2a
 12337 40db 3E       		.uleb128 0x3e
 12338 40dc CA010000 		.4byte	.LVL413
 12339 40e0 354D0000 		.4byte	0x4d35
 12340 40e4 3A       		.uleb128 0x3a
 12341 40e5 2C020000 		.4byte	.LVL432
 12342 40e9 F24C0000 		.4byte	0x4cf2
 12343 40ed 0B410000 		.4byte	0x410b
 12344 40f1 39       		.uleb128 0x39
 12345 40f2 01       		.uleb128 0x1
 12346 40f3 51       		.byte	0x51
 12347 40f4 02       		.uleb128 0x2
 12348 40f5 75       		.byte	0x75
 12349 40f6 00       		.sleb128 0
 12350 40f7 39       		.uleb128 0x39
 12351 40f8 01       		.uleb128 0x1
 12352 40f9 52       		.byte	0x52
 12353 40fa 02       		.uleb128 0x2
 12354 40fb 74       		.byte	0x74
 12355 40fc 00       		.sleb128 0
 12356 40fd 39       		.uleb128 0x39
 12357 40fe 01       		.uleb128 0x1
 12358 40ff 53       		.byte	0x53
 12359 4100 02       		.uleb128 0x2
 12360 4101 78       		.byte	0x78
 12361 4102 00       		.sleb128 0
 12362 4103 39       		.uleb128 0x39
 12363 4104 02       		.uleb128 0x2
 12364 4105 7D       		.byte	0x7d
 12365 4106 00       		.sleb128 0
 12366 4107 02       		.uleb128 0x2
 12367 4108 79       		.byte	0x79
ARM GAS  C:\Users\haske\AppData\Local\Temp\ccmHbbn5.s 			page 249


 12368 4109 00       		.sleb128 0
 12369 410a 00       		.byte	0
 12370 410b 3A       		.uleb128 0x3a
 12371 410c 34020000 		.4byte	.LVL434
 12372 4110 553E0000 		.4byte	0x3e55
 12373 4114 1F410000 		.4byte	0x411f
 12374 4118 39       		.uleb128 0x39
 12375 4119 01       		.uleb128 0x1
 12376 411a 50       		.byte	0x50
 12377 411b 02       		.uleb128 0x2
 12378 411c 77       		.byte	0x77
 12379 411d 00       		.sleb128 0
 12380 411e 00       		.byte	0
 12381 411f 3E       		.uleb128 0x3e
 12382 4120 3C020000 		.4byte	.LVL435
 12383 4124 754C0000 		.4byte	0x4c75
 12384 4128 3A       		.uleb128 0x3a
 12385 4129 46020000 		.4byte	.LVL436
 12386 412d C23B0000 		.4byte	0x3bc2
 12387 4131 42410000 		.4byte	0x4142
 12388 4135 39       		.uleb128 0x39
 12389 4136 01       		.uleb128 0x1
 12390 4137 50       		.byte	0x50
 12391 4138 02       		.uleb128 0x2
 12392 4139 77       		.byte	0x77
 12393 413a 00       		.sleb128 0
 12394 413b 39       		.uleb128 0x39
 12395 413c 01       		.uleb128 0x1
 12396 413d 51       		.byte	0x51
 12397 413e 02       		.uleb128 0x2
 12398 413f 74       		.byte	0x74
 12399 4140 00       		.sleb128 0
 12400 4141 00       		.byte	0
 12401 4142 3A       		.uleb128 0x3a
 12402 4143 54020000 		.4byte	.LVL437
 12403 4147 3E4C0000 		.4byte	0x4c3e
 12404 414b 60410000 		.4byte	0x4160
 12405 414f 39       		.uleb128 0x39
 12406 4150 01       		.uleb128 0x1
 12407 4151 50       		.byte	0x50
 12408 4152 02       		.uleb128 0x2
 12409 4153 77       		.byte	0x77
 12410 4154 00       		.sleb128 0
 12411 4155 39       		.uleb128 0x39
 12412 4156 01       		.uleb128 0x1
 12413 4157 51       		.byte	0x51
 12414 4158 01       		.uleb128 0x1
 12415 4159 4C       		.byte	0x4c
 12416 415a 39       		.uleb128 0x39
 12417 415b 01       		.uleb128 0x1
 12418 415c 52       		.byte	0x52
 12419 415d 01       		.uleb128 0x1
 12420 415e 30       		.byte	0x30
 12421 415f 00       		.byte	0
 12422 4160 3E       		.uleb128 0x3e
 12423 4161 70020000 		.4byte	.LVL439
 12424 4165 754C0000 		.4byte	0x4c75
ARM GAS  C:\Users\haske\AppData\Local\Temp\ccmHbbn5.s 			page 250


 12425 4169 00       		.byte	0
 12426 416a 4B       		.uleb128 0x4b
 12427 416b 7C020000 		.4byte	.LBB137
 12428 416f 36000000 		.4byte	.LBE137-.LBB137
 12429 4173 F5410000 		.4byte	0x41f5
 12430 4177 2F       		.uleb128 0x2f
 12431 4178 6700     		.ascii	"g\000"
 12432 417a 01       		.byte	0x1
 12433 417b 1E02     		.2byte	0x21e
 12434 417d 0B210000 		.4byte	0x210b
 12435 4181 2F170000 		.4byte	.LLST172
 12436 4185 30       		.uleb128 0x30
 12437 4186 74210000 		.4byte	.LASF439
 12438 418a 01       		.byte	0x1
 12439 418b 1F02     		.2byte	0x21f
 12440 418d 3B030000 		.4byte	0x33b
 12441 4191 4D170000 		.4byte	.LLST173
 12442 4195 30       		.uleb128 0x30
 12443 4196 AE1A0000 		.4byte	.LASF703
 12444 419a 01       		.byte	0x1
 12445 419b 2002     		.2byte	0x220
 12446 419d 0D160000 		.4byte	0x160d
 12447 41a1 6B170000 		.4byte	.LLST174
 12448 41a5 3A       		.uleb128 0x3a
 12449 41a6 8C020000 		.4byte	.LVL442
 12450 41aa 404D0000 		.4byte	0x4d40
 12451 41ae B9410000 		.4byte	0x41b9
 12452 41b2 39       		.uleb128 0x39
 12453 41b3 01       		.uleb128 0x1
 12454 41b4 50       		.byte	0x50
 12455 41b5 02       		.uleb128 0x2
 12456 41b6 77       		.byte	0x77
 12457 41b7 00       		.sleb128 0
 12458 41b8 00       		.byte	0
 12459 41b9 3A       		.uleb128 0x3a
 12460 41ba 92020000 		.4byte	.LVL444
 12461 41be 4C4D0000 		.4byte	0x4d4c
 12462 41c2 CD410000 		.4byte	0x41cd
 12463 41c6 39       		.uleb128 0x39
 12464 41c7 01       		.uleb128 0x1
 12465 41c8 50       		.byte	0x50
 12466 41c9 02       		.uleb128 0x2
 12467 41ca 75       		.byte	0x75
 12468 41cb 00       		.sleb128 0
 12469 41cc 00       		.byte	0
 12470 41cd 3E       		.uleb128 0x3e
 12471 41ce 98020000 		.4byte	.LVL446
 12472 41d2 094D0000 		.4byte	0x4d09
 12473 41d6 3E       		.uleb128 0x3e
 12474 41d7 9C020000 		.4byte	.LVL447
 12475 41db 144D0000 		.4byte	0x4d14
 12476 41df 38       		.uleb128 0x38
 12477 41e0 B0020000 		.4byte	.LVL449
 12478 41e4 574D0000 		.4byte	0x4d57
 12479 41e8 39       		.uleb128 0x39
 12480 41e9 01       		.uleb128 0x1
 12481 41ea 50       		.byte	0x50
ARM GAS  C:\Users\haske\AppData\Local\Temp\ccmHbbn5.s 			page 251


 12482 41eb 02       		.uleb128 0x2
 12483 41ec 75       		.byte	0x75
 12484 41ed 00       		.sleb128 0
 12485 41ee 39       		.uleb128 0x39
 12486 41ef 01       		.uleb128 0x1
 12487 41f0 51       		.byte	0x51
 12488 41f1 01       		.uleb128 0x1
 12489 41f2 30       		.byte	0x30
 12490 41f3 00       		.byte	0
 12491 41f4 00       		.byte	0
 12492 41f5 4B       		.uleb128 0x4b
 12493 41f6 B6020000 		.4byte	.LBB138
 12494 41fa 54000000 		.4byte	.LBE138-.LBB138
 12495 41fe 9F420000 		.4byte	0x429f
 12496 4202 2F       		.uleb128 0x2f
 12497 4203 6300     		.ascii	"c\000"
 12498 4205 01       		.byte	0x1
 12499 4206 2702     		.2byte	0x227
 12500 4208 B8030000 		.4byte	0x3b8
 12501 420c 7E170000 		.4byte	.LLST175
 12502 4210 30       		.uleb128 0x30
 12503 4211 F01E0000 		.4byte	.LASF710
 12504 4215 01       		.byte	0x1
 12505 4216 2902     		.2byte	0x229
 12506 4218 C3000000 		.4byte	0xc3
 12507 421c 9C170000 		.4byte	.LLST176
 12508 4220 3A       		.uleb128 0x3a
 12509 4221 BC020000 		.4byte	.LVL452
 12510 4225 624D0000 		.4byte	0x4d62
 12511 4229 34420000 		.4byte	0x4234
 12512 422d 39       		.uleb128 0x39
 12513 422e 01       		.uleb128 0x1
 12514 422f 50       		.byte	0x50
 12515 4230 02       		.uleb128 0x2
 12516 4231 74       		.byte	0x74
 12517 4232 00       		.sleb128 0
 12518 4233 00       		.byte	0
 12519 4234 3A       		.uleb128 0x3a
 12520 4235 D0020000 		.4byte	.LVL455
 12521 4239 553E0000 		.4byte	0x3e55
 12522 423d 48420000 		.4byte	0x4248
 12523 4241 39       		.uleb128 0x39
 12524 4242 01       		.uleb128 0x1
 12525 4243 50       		.byte	0x50
 12526 4244 02       		.uleb128 0x2
 12527 4245 77       		.byte	0x77
 12528 4246 00       		.sleb128 0
 12529 4247 00       		.byte	0
 12530 4248 3A       		.uleb128 0x3a
 12531 4249 DA020000 		.4byte	.LVL456
 12532 424d C23B0000 		.4byte	0x3bc2
 12533 4251 5C420000 		.4byte	0x425c
 12534 4255 39       		.uleb128 0x39
 12535 4256 01       		.uleb128 0x1
 12536 4257 50       		.byte	0x50
 12537 4258 02       		.uleb128 0x2
 12538 4259 77       		.byte	0x77
ARM GAS  C:\Users\haske\AppData\Local\Temp\ccmHbbn5.s 			page 252


 12539 425a 00       		.sleb128 0
 12540 425b 00       		.byte	0
 12541 425c 3A       		.uleb128 0x3a
 12542 425d EA020000 		.4byte	.LVL458
 12543 4261 553E0000 		.4byte	0x3e55
 12544 4265 70420000 		.4byte	0x4270
 12545 4269 39       		.uleb128 0x39
 12546 426a 01       		.uleb128 0x1
 12547 426b 50       		.byte	0x50
 12548 426c 02       		.uleb128 0x2
 12549 426d 77       		.byte	0x77
 12550 426e 00       		.sleb128 0
 12551 426f 00       		.byte	0
 12552 4270 3A       		.uleb128 0x3a
 12553 4271 F4020000 		.4byte	.LVL459
 12554 4275 C23B0000 		.4byte	0x3bc2
 12555 4279 84420000 		.4byte	0x4284
 12556 427d 39       		.uleb128 0x39
 12557 427e 01       		.uleb128 0x1
 12558 427f 50       		.byte	0x50
 12559 4280 02       		.uleb128 0x2
 12560 4281 77       		.byte	0x77
 12561 4282 00       		.sleb128 0
 12562 4283 00       		.byte	0
 12563 4284 38       		.uleb128 0x38
 12564 4285 08030000 		.4byte	.LVL460
 12565 4289 3E4C0000 		.4byte	0x4c3e
 12566 428d 39       		.uleb128 0x39
 12567 428e 01       		.uleb128 0x1
 12568 428f 50       		.byte	0x50
 12569 4290 02       		.uleb128 0x2
 12570 4291 77       		.byte	0x77
 12571 4292 00       		.sleb128 0
 12572 4293 39       		.uleb128 0x39
 12573 4294 01       		.uleb128 0x1
 12574 4295 51       		.byte	0x51
 12575 4296 01       		.uleb128 0x1
 12576 4297 4C       		.byte	0x4c
 12577 4298 39       		.uleb128 0x39
 12578 4299 01       		.uleb128 0x1
 12579 429a 52       		.byte	0x52
 12580 429b 01       		.uleb128 0x1
 12581 429c 30       		.byte	0x30
 12582 429d 00       		.byte	0
 12583 429e 00       		.byte	0
 12584 429f 4B       		.uleb128 0x4b
 12585 42a0 0E030000 		.4byte	.LBB139
 12586 42a4 90000000 		.4byte	.LBE139-.LBB139
 12587 42a8 E9430000 		.4byte	0x43e9
 12588 42ac 30       		.uleb128 0x30
 12589 42ad 350F0000 		.4byte	.LASF711
 12590 42b1 01       		.byte	0x1
 12591 42b2 3702     		.2byte	0x237
 12592 42b4 B1470000 		.4byte	0x47b1
 12593 42b8 AF170000 		.4byte	.LLST177
 12594 42bc 3F       		.uleb128 0x3f
 12595 42bd 7000     		.ascii	"p\000"
ARM GAS  C:\Users\haske\AppData\Local\Temp\ccmHbbn5.s 			page 253


 12596 42bf 01       		.byte	0x1
 12597 42c0 3902     		.2byte	0x239
 12598 42c2 29010000 		.4byte	0x129
 12599 42c6 02       		.uleb128 0x2
 12600 42c7 91       		.byte	0x91
 12601 42c8 54       		.sleb128 -44
 12602 42c9 3F       		.uleb128 0x3f
 12603 42ca 7200     		.ascii	"r\000"
 12604 42cc 01       		.byte	0x1
 12605 42cd 3A02     		.2byte	0x23a
 12606 42cf 01010000 		.4byte	0x101
 12607 42d3 02       		.uleb128 0x2
 12608 42d4 91       		.byte	0x91
 12609 42d5 52       		.sleb128 -46
 12610 42d6 30       		.uleb128 0x30
 12611 42d7 8C170000 		.4byte	.LASF712
 12612 42db 01       		.byte	0x1
 12613 42dc 3D02     		.2byte	0x23d
 12614 42de 01010000 		.4byte	0x101
 12615 42e2 CD170000 		.4byte	.LLST178
 12616 42e6 2C       		.uleb128 0x2c
 12617 42e7 7700     		.ascii	"w\000"
 12618 42e9 01       		.byte	0x1
 12619 42ea 4002     		.2byte	0x240
 12620 42ec 01010000 		.4byte	0x101
 12621 42f0 3F       		.uleb128 0x3f
 12622 42f1 6100     		.ascii	"a\000"
 12623 42f3 01       		.byte	0x1
 12624 42f4 4302     		.2byte	0x243
 12625 42f6 69010000 		.4byte	0x169
 12626 42fa 02       		.uleb128 0x2
 12627 42fb 91       		.byte	0x91
 12628 42fc 58       		.sleb128 -40
 12629 42fd 35       		.uleb128 0x35
 12630 42fe 66240000 		.4byte	0x2466
 12631 4302 36030000 		.4byte	.LBB140
 12632 4306 0A000000 		.4byte	.LBE140-.LBB140
 12633 430a 01       		.byte	0x1
 12634 430b 4002     		.2byte	0x240
 12635 430d 4E430000 		.4byte	0x434e
 12636 4311 36       		.uleb128 0x36
 12637 4312 83240000 		.4byte	0x2483
 12638 4316 03180000 		.4byte	.LLST179
 12639 431a 36       		.uleb128 0x36
 12640 431b 77240000 		.4byte	0x2477
 12641 431f 17180000 		.4byte	.LLST180
 12642 4323 31       		.uleb128 0x31
 12643 4324 36030000 		.4byte	.LBB141
 12644 4328 0A000000 		.4byte	.LBE141-.LBB141
 12645 432c 37       		.uleb128 0x37
 12646 432d 8F240000 		.4byte	0x248f
 12647 4331 38       		.uleb128 0x38
 12648 4332 40030000 		.4byte	.LVL470
 12649 4336 D84B0000 		.4byte	0x4bd8
 12650 433a 39       		.uleb128 0x39
 12651 433b 01       		.uleb128 0x1
 12652 433c 50       		.byte	0x50
ARM GAS  C:\Users\haske\AppData\Local\Temp\ccmHbbn5.s 			page 254


 12653 433d 02       		.uleb128 0x2
 12654 433e 77       		.byte	0x77
 12655 433f 00       		.sleb128 0
 12656 4340 39       		.uleb128 0x39
 12657 4341 01       		.uleb128 0x1
 12658 4342 51       		.byte	0x51
 12659 4343 01       		.uleb128 0x1
 12660 4344 30       		.byte	0x30
 12661 4345 39       		.uleb128 0x39
 12662 4346 01       		.uleb128 0x1
 12663 4347 52       		.byte	0x52
 12664 4348 02       		.uleb128 0x2
 12665 4349 08       		.byte	0x8
 12666 434a 50       		.byte	0x50
 12667 434b 00       		.byte	0
 12668 434c 00       		.byte	0
 12669 434d 00       		.byte	0
 12670 434e 3A       		.uleb128 0x3a
 12671 434f 14030000 		.4byte	.LVL463
 12672 4353 624D0000 		.4byte	0x4d62
 12673 4357 62430000 		.4byte	0x4362
 12674 435b 39       		.uleb128 0x39
 12675 435c 01       		.uleb128 0x1
 12676 435d 50       		.byte	0x50
 12677 435e 02       		.uleb128 0x2
 12678 435f 74       		.byte	0x74
 12679 4360 00       		.sleb128 0
 12680 4361 00       		.byte	0
 12681 4362 3A       		.uleb128 0x3a
 12682 4363 22030000 		.4byte	.LVL466
 12683 4367 64250000 		.4byte	0x2564
 12684 436b 82430000 		.4byte	0x4382
 12685 436f 39       		.uleb128 0x39
 12686 4370 01       		.uleb128 0x1
 12687 4371 50       		.byte	0x50
 12688 4372 02       		.uleb128 0x2
 12689 4373 77       		.byte	0x77
 12690 4374 00       		.sleb128 0
 12691 4375 39       		.uleb128 0x39
 12692 4376 01       		.uleb128 0x1
 12693 4377 51       		.byte	0x51
 12694 4378 02       		.uleb128 0x2
 12695 4379 91       		.byte	0x91
 12696 437a 54       		.sleb128 -44
 12697 437b 39       		.uleb128 0x39
 12698 437c 01       		.uleb128 0x1
 12699 437d 52       		.byte	0x52
 12700 437e 02       		.uleb128 0x2
 12701 437f 91       		.byte	0x91
 12702 4380 52       		.sleb128 -46
 12703 4381 00       		.byte	0
 12704 4382 3A       		.uleb128 0x3a
 12705 4383 70030000 		.4byte	.LVL473
 12706 4387 6D4D0000 		.4byte	0x4d6d
 12707 438b 96430000 		.4byte	0x4396
 12708 438f 39       		.uleb128 0x39
 12709 4390 01       		.uleb128 0x1
ARM GAS  C:\Users\haske\AppData\Local\Temp\ccmHbbn5.s 			page 255


 12710 4391 50       		.byte	0x50
 12711 4392 02       		.uleb128 0x2
 12712 4393 91       		.byte	0x91
 12713 4394 58       		.sleb128 -40
 12714 4395 00       		.byte	0
 12715 4396 3A       		.uleb128 0x3a
 12716 4397 7A030000 		.4byte	.LVL474
 12717 439b 784D0000 		.4byte	0x4d78
 12718 439f B1430000 		.4byte	0x43b1
 12719 43a3 39       		.uleb128 0x39
 12720 43a4 01       		.uleb128 0x1
 12721 43a5 50       		.byte	0x50
 12722 43a6 02       		.uleb128 0x2
 12723 43a7 91       		.byte	0x91
 12724 43a8 58       		.sleb128 -40
 12725 43a9 39       		.uleb128 0x39
 12726 43aa 01       		.uleb128 0x1
 12727 43ab 52       		.byte	0x52
 12728 43ac 03       		.uleb128 0x3
 12729 43ad 0A       		.byte	0xa
 12730 43ae FF7F     		.2byte	0x7fff
 12731 43b0 00       		.byte	0
 12732 43b1 3A       		.uleb128 0x3a
 12733 43b2 92030000 		.4byte	.LVL475
 12734 43b6 C54C0000 		.4byte	0x4cc5
 12735 43ba D1430000 		.4byte	0x43d1
 12736 43be 39       		.uleb128 0x39
 12737 43bf 01       		.uleb128 0x1
 12738 43c0 50       		.byte	0x50
 12739 43c1 02       		.uleb128 0x2
 12740 43c2 91       		.byte	0x91
 12741 43c3 58       		.sleb128 -40
 12742 43c4 39       		.uleb128 0x39
 12743 43c5 01       		.uleb128 0x1
 12744 43c6 51       		.byte	0x51
 12745 43c7 02       		.uleb128 0x2
 12746 43c8 77       		.byte	0x77
 12747 43c9 00       		.sleb128 0
 12748 43ca 39       		.uleb128 0x39
 12749 43cb 01       		.uleb128 0x1
 12750 43cc 52       		.byte	0x52
 12751 43cd 02       		.uleb128 0x2
 12752 43ce 77       		.byte	0x77
 12753 43cf 00       		.sleb128 0
 12754 43d0 00       		.byte	0
 12755 43d1 38       		.uleb128 0x38
 12756 43d2 9C030000 		.4byte	.LVL476
 12757 43d6 784D0000 		.4byte	0x4d78
 12758 43da 39       		.uleb128 0x39
 12759 43db 01       		.uleb128 0x1
 12760 43dc 50       		.byte	0x50
 12761 43dd 02       		.uleb128 0x2
 12762 43de 91       		.byte	0x91
 12763 43df 58       		.sleb128 -40
 12764 43e0 39       		.uleb128 0x39
 12765 43e1 01       		.uleb128 0x1
 12766 43e2 52       		.byte	0x52
ARM GAS  C:\Users\haske\AppData\Local\Temp\ccmHbbn5.s 			page 256


 12767 43e3 03       		.uleb128 0x3
 12768 43e4 0A       		.byte	0xa
 12769 43e5 FF7F     		.2byte	0x7fff
 12770 43e7 00       		.byte	0
 12771 43e8 00       		.byte	0
 12772 43e9 4B       		.uleb128 0x4b
 12773 43ea A4030000 		.4byte	.LBB142
 12774 43ee CE000000 		.4byte	.LBE142-.LBB142
 12775 43f2 41470000 		.4byte	0x4741
 12776 43f6 34       		.uleb128 0x34
 12777 43f7 572D0000 		.4byte	.LASF713
 12778 43fb 01       		.byte	0x1
 12779 43fc 5002     		.2byte	0x250
 12780 43fe 01010000 		.4byte	0x101
 12781 4402 34       		.uleb128 0x34
 12782 4403 B7140000 		.4byte	.LASF714
 12783 4407 01       		.byte	0x1
 12784 4408 5102     		.2byte	0x251
 12785 440a 01010000 		.4byte	0x101
 12786 440e 34       		.uleb128 0x34
 12787 440f 0A2C0000 		.4byte	.LASF715
 12788 4413 01       		.byte	0x1
 12789 4414 5202     		.2byte	0x252
 12790 4416 01010000 		.4byte	0x101
 12791 441a 34       		.uleb128 0x34
 12792 441b 2F2D0000 		.4byte	.LASF716
 12793 441f 01       		.byte	0x1
 12794 4420 5302     		.2byte	0x253
 12795 4422 01010000 		.4byte	0x101
 12796 4426 30       		.uleb128 0x30
 12797 4427 83290000 		.4byte	.LASF717
 12798 442b 01       		.byte	0x1
 12799 442c 5402     		.2byte	0x254
 12800 442e 01010000 		.4byte	0x101
 12801 4432 2A180000 		.4byte	.LLST181
 12802 4436 34       		.uleb128 0x34
 12803 4437 CB2D0000 		.4byte	.LASF718
 12804 443b 01       		.byte	0x1
 12805 443c 5602     		.2byte	0x256
 12806 443e 01010000 		.4byte	0x101
 12807 4442 34       		.uleb128 0x34
 12808 4443 5D2A0000 		.4byte	.LASF719
 12809 4447 01       		.byte	0x1
 12810 4448 5702     		.2byte	0x257
 12811 444a 01010000 		.4byte	0x101
 12812 444e 34       		.uleb128 0x34
 12813 444f A72B0000 		.4byte	.LASF720
 12814 4453 01       		.byte	0x1
 12815 4454 5802     		.2byte	0x258
 12816 4456 01010000 		.4byte	0x101
 12817 445a 34       		.uleb128 0x34
 12818 445b C7040000 		.4byte	.LASF721
 12819 445f 01       		.byte	0x1
 12820 4460 5902     		.2byte	0x259
 12821 4462 01010000 		.4byte	0x101
 12822 4466 30       		.uleb128 0x30
 12823 4467 941D0000 		.4byte	.LASF722
ARM GAS  C:\Users\haske\AppData\Local\Temp\ccmHbbn5.s 			page 257


 12824 446b 01       		.byte	0x1
 12825 446c 5A02     		.2byte	0x25a
 12826 446e 01010000 		.4byte	0x101
 12827 4472 3D180000 		.4byte	.LLST182
 12828 4476 30       		.uleb128 0x30
 12829 4477 0C2E0000 		.4byte	.LASF675
 12830 447b 01       		.byte	0x1
 12831 447c 5C02     		.2byte	0x25c
 12832 447e 01010000 		.4byte	0x101
 12833 4482 50180000 		.4byte	.LLST183
 12834 4486 2F       		.uleb128 0x2f
 12835 4487 7300     		.ascii	"s\000"
 12836 4489 01       		.byte	0x1
 12837 448a 5F02     		.2byte	0x25f
 12838 448c 75270000 		.4byte	0x2775
 12839 4490 6E180000 		.4byte	.LLST184
 12840 4494 35       		.uleb128 0x35
 12841 4495 FE220000 		.4byte	0x22fe
 12842 4499 A4030000 		.4byte	.LBB143
 12843 449d 0C000000 		.4byte	.LBE143-.LBB143
 12844 44a1 01       		.byte	0x1
 12845 44a2 5002     		.2byte	0x250
 12846 44a4 E4440000 		.4byte	0x44e4
 12847 44a8 36       		.uleb128 0x36
 12848 44a9 19230000 		.4byte	0x2319
 12849 44ad 81180000 		.4byte	.LLST185
 12850 44b1 36       		.uleb128 0x36
 12851 44b2 0E230000 		.4byte	0x230e
 12852 44b6 95180000 		.4byte	.LLST186
 12853 44ba 31       		.uleb128 0x31
 12854 44bb A4030000 		.4byte	.LBB144
 12855 44bf 0C000000 		.4byte	.LBE144-.LBB144
 12856 44c3 37       		.uleb128 0x37
 12857 44c4 24230000 		.4byte	0x2324
 12858 44c8 38       		.uleb128 0x38
 12859 44c9 AE030000 		.4byte	.LVL480
 12860 44cd D84B0000 		.4byte	0x4bd8
 12861 44d1 39       		.uleb128 0x39
 12862 44d2 01       		.uleb128 0x1
 12863 44d3 50       		.byte	0x50
 12864 44d4 02       		.uleb128 0x2
 12865 44d5 77       		.byte	0x77
 12866 44d6 00       		.sleb128 0
 12867 44d7 39       		.uleb128 0x39
 12868 44d8 01       		.uleb128 0x1
 12869 44d9 51       		.byte	0x51
 12870 44da 01       		.uleb128 0x1
 12871 44db 30       		.byte	0x30
 12872 44dc 39       		.uleb128 0x39
 12873 44dd 01       		.uleb128 0x1
 12874 44de 52       		.byte	0x52
 12875 44df 01       		.uleb128 0x1
 12876 44e0 42       		.byte	0x42
 12877 44e1 00       		.byte	0
 12878 44e2 00       		.byte	0
 12879 44e3 00       		.byte	0
 12880 44e4 35       		.uleb128 0x35
ARM GAS  C:\Users\haske\AppData\Local\Temp\ccmHbbn5.s 			page 258


 12881 44e5 CE220000 		.4byte	0x22ce
 12882 44e9 B0030000 		.4byte	.LBB145
 12883 44ed 0C000000 		.4byte	.LBE145-.LBB145
 12884 44f1 01       		.byte	0x1
 12885 44f2 5102     		.2byte	0x251
 12886 44f4 34450000 		.4byte	0x4534
 12887 44f8 36       		.uleb128 0x36
 12888 44f9 E9220000 		.4byte	0x22e9
 12889 44fd A8180000 		.4byte	.LLST187
 12890 4501 36       		.uleb128 0x36
 12891 4502 DE220000 		.4byte	0x22de
 12892 4506 BC180000 		.4byte	.LLST188
 12893 450a 31       		.uleb128 0x31
 12894 450b B0030000 		.4byte	.LBB146
 12895 450f 0C000000 		.4byte	.LBE146-.LBB146
 12896 4513 37       		.uleb128 0x37
 12897 4514 F4220000 		.4byte	0x22f4
 12898 4518 38       		.uleb128 0x38
 12899 4519 BA030000 		.4byte	.LVL482
 12900 451d D84B0000 		.4byte	0x4bd8
 12901 4521 39       		.uleb128 0x39
 12902 4522 01       		.uleb128 0x1
 12903 4523 50       		.byte	0x50
 12904 4524 02       		.uleb128 0x2
 12905 4525 77       		.byte	0x77
 12906 4526 00       		.sleb128 0
 12907 4527 39       		.uleb128 0x39
 12908 4528 01       		.uleb128 0x1
 12909 4529 51       		.byte	0x51
 12910 452a 01       		.uleb128 0x1
 12911 452b 30       		.byte	0x30
 12912 452c 39       		.uleb128 0x39
 12913 452d 01       		.uleb128 0x1
 12914 452e 52       		.byte	0x52
 12915 452f 01       		.uleb128 0x1
 12916 4530 43       		.byte	0x43
 12917 4531 00       		.byte	0
 12918 4532 00       		.byte	0
 12919 4533 00       		.byte	0
 12920 4534 35       		.uleb128 0x35
 12921 4535 9E220000 		.4byte	0x229e
 12922 4539 BC030000 		.4byte	.LBB147
 12923 453d 0E000000 		.4byte	.LBE147-.LBB147
 12924 4541 01       		.byte	0x1
 12925 4542 5202     		.2byte	0x252
 12926 4544 84450000 		.4byte	0x4584
 12927 4548 36       		.uleb128 0x36
 12928 4549 B9220000 		.4byte	0x22b9
 12929 454d CF180000 		.4byte	.LLST189
 12930 4551 36       		.uleb128 0x36
 12931 4552 AE220000 		.4byte	0x22ae
 12932 4556 E3180000 		.4byte	.LLST190
 12933 455a 31       		.uleb128 0x31
 12934 455b BC030000 		.4byte	.LBB148
 12935 455f 0E000000 		.4byte	.LBE148-.LBB148
 12936 4563 37       		.uleb128 0x37
 12937 4564 C4220000 		.4byte	0x22c4
ARM GAS  C:\Users\haske\AppData\Local\Temp\ccmHbbn5.s 			page 259


 12938 4568 38       		.uleb128 0x38
 12939 4569 C6030000 		.4byte	.LVL484
 12940 456d D84B0000 		.4byte	0x4bd8
 12941 4571 39       		.uleb128 0x39
 12942 4572 01       		.uleb128 0x1
 12943 4573 50       		.byte	0x50
 12944 4574 02       		.uleb128 0x2
 12945 4575 77       		.byte	0x77
 12946 4576 00       		.sleb128 0
 12947 4577 39       		.uleb128 0x39
 12948 4578 01       		.uleb128 0x1
 12949 4579 51       		.byte	0x51
 12950 457a 01       		.uleb128 0x1
 12951 457b 30       		.byte	0x30
 12952 457c 39       		.uleb128 0x39
 12953 457d 01       		.uleb128 0x1
 12954 457e 52       		.byte	0x52
 12955 457f 01       		.uleb128 0x1
 12956 4580 40       		.byte	0x40
 12957 4581 00       		.byte	0
 12958 4582 00       		.byte	0
 12959 4583 00       		.byte	0
 12960 4584 35       		.uleb128 0x35
 12961 4585 63220000 		.4byte	0x2263
 12962 4589 CA030000 		.4byte	.LBB149
 12963 458d 0C000000 		.4byte	.LBE149-.LBB149
 12964 4591 01       		.byte	0x1
 12965 4592 5302     		.2byte	0x253
 12966 4594 D4450000 		.4byte	0x45d4
 12967 4598 36       		.uleb128 0x36
 12968 4599 7E220000 		.4byte	0x227e
 12969 459d F6180000 		.4byte	.LLST191
 12970 45a1 36       		.uleb128 0x36
 12971 45a2 73220000 		.4byte	0x2273
 12972 45a6 0A190000 		.4byte	.LLST192
 12973 45aa 31       		.uleb128 0x31
 12974 45ab CA030000 		.4byte	.LBB150
 12975 45af 0C000000 		.4byte	.LBE150-.LBB150
 12976 45b3 37       		.uleb128 0x37
 12977 45b4 89220000 		.4byte	0x2289
 12978 45b8 38       		.uleb128 0x38
 12979 45b9 D4030000 		.4byte	.LVL486
 12980 45bd D84B0000 		.4byte	0x4bd8
 12981 45c1 39       		.uleb128 0x39
 12982 45c2 01       		.uleb128 0x1
 12983 45c3 50       		.byte	0x50
 12984 45c4 02       		.uleb128 0x2
 12985 45c5 77       		.byte	0x77
 12986 45c6 00       		.sleb128 0
 12987 45c7 39       		.uleb128 0x39
 12988 45c8 01       		.uleb128 0x1
 12989 45c9 51       		.byte	0x51
 12990 45ca 01       		.uleb128 0x1
 12991 45cb 30       		.byte	0x30
 12992 45cc 39       		.uleb128 0x39
 12993 45cd 01       		.uleb128 0x1
 12994 45ce 52       		.byte	0x52
ARM GAS  C:\Users\haske\AppData\Local\Temp\ccmHbbn5.s 			page 260


 12995 45cf 01       		.uleb128 0x1
 12996 45d0 41       		.byte	0x41
 12997 45d1 00       		.byte	0
 12998 45d2 00       		.byte	0
 12999 45d3 00       		.byte	0
 13000 45d4 35       		.uleb128 0x35
 13001 45d5 FE220000 		.4byte	0x22fe
 13002 45d9 F4030000 		.4byte	.LBB151
 13003 45dd 0E000000 		.4byte	.LBE151-.LBB151
 13004 45e1 01       		.byte	0x1
 13005 45e2 5602     		.2byte	0x256
 13006 45e4 26460000 		.4byte	0x4626
 13007 45e8 36       		.uleb128 0x36
 13008 45e9 19230000 		.4byte	0x2319
 13009 45ed 1D190000 		.4byte	.LLST193
 13010 45f1 36       		.uleb128 0x36
 13011 45f2 0E230000 		.4byte	0x230e
 13012 45f6 33190000 		.4byte	.LLST194
 13013 45fa 31       		.uleb128 0x31
 13014 45fb F4030000 		.4byte	.LBB152
 13015 45ff 0E000000 		.4byte	.LBE152-.LBB152
 13016 4603 37       		.uleb128 0x37
 13017 4604 24230000 		.4byte	0x2324
 13018 4608 38       		.uleb128 0x38
 13019 4609 00040000 		.4byte	.LVL489
 13020 460d D84B0000 		.4byte	0x4bd8
 13021 4611 39       		.uleb128 0x39
 13022 4612 01       		.uleb128 0x1
 13023 4613 50       		.byte	0x50
 13024 4614 02       		.uleb128 0x2
 13025 4615 77       		.byte	0x77
 13026 4616 00       		.sleb128 0
 13027 4617 39       		.uleb128 0x39
 13028 4618 01       		.uleb128 0x1
 13029 4619 51       		.byte	0x51
 13030 461a 03       		.uleb128 0x3
 13031 461b 48       		.byte	0x48
 13032 461c 3D       		.byte	0x3d
 13033 461d 24       		.byte	0x24
 13034 461e 39       		.uleb128 0x39
 13035 461f 01       		.uleb128 0x1
 13036 4620 52       		.byte	0x52
 13037 4621 01       		.uleb128 0x1
 13038 4622 42       		.byte	0x42
 13039 4623 00       		.byte	0
 13040 4624 00       		.byte	0
 13041 4625 00       		.byte	0
 13042 4626 35       		.uleb128 0x35
 13043 4627 CE220000 		.4byte	0x22ce
 13044 462b 02040000 		.4byte	.LBB153
 13045 462f 10000000 		.4byte	.LBE153-.LBB153
 13046 4633 01       		.byte	0x1
 13047 4634 5702     		.2byte	0x257
 13048 4636 78460000 		.4byte	0x4678
 13049 463a 36       		.uleb128 0x36
 13050 463b E9220000 		.4byte	0x22e9
 13051 463f 46190000 		.4byte	.LLST195
ARM GAS  C:\Users\haske\AppData\Local\Temp\ccmHbbn5.s 			page 261


 13052 4643 36       		.uleb128 0x36
 13053 4644 DE220000 		.4byte	0x22de
 13054 4648 5C190000 		.4byte	.LLST196
 13055 464c 31       		.uleb128 0x31
 13056 464d 02040000 		.4byte	.LBB154
 13057 4651 10000000 		.4byte	.LBE154-.LBB154
 13058 4655 37       		.uleb128 0x37
 13059 4656 F4220000 		.4byte	0x22f4
 13060 465a 38       		.uleb128 0x38
 13061 465b 0E040000 		.4byte	.LVL491
 13062 465f D84B0000 		.4byte	0x4bd8
 13063 4663 39       		.uleb128 0x39
 13064 4664 01       		.uleb128 0x1
 13065 4665 50       		.byte	0x50
 13066 4666 02       		.uleb128 0x2
 13067 4667 77       		.byte	0x77
 13068 4668 00       		.sleb128 0
 13069 4669 39       		.uleb128 0x39
 13070 466a 01       		.uleb128 0x1
 13071 466b 51       		.byte	0x51
 13072 466c 03       		.uleb128 0x3
 13073 466d 48       		.byte	0x48
 13074 466e 3D       		.byte	0x3d
 13075 466f 24       		.byte	0x24
 13076 4670 39       		.uleb128 0x39
 13077 4671 01       		.uleb128 0x1
 13078 4672 52       		.byte	0x52
 13079 4673 01       		.uleb128 0x1
 13080 4674 43       		.byte	0x43
 13081 4675 00       		.byte	0
 13082 4676 00       		.byte	0
 13083 4677 00       		.byte	0
 13084 4678 35       		.uleb128 0x35
 13085 4679 9E220000 		.4byte	0x229e
 13086 467d 12040000 		.4byte	.LBB155
 13087 4681 10000000 		.4byte	.LBE155-.LBB155
 13088 4685 01       		.byte	0x1
 13089 4686 5802     		.2byte	0x258
 13090 4688 CA460000 		.4byte	0x46ca
 13091 468c 36       		.uleb128 0x36
 13092 468d B9220000 		.4byte	0x22b9
 13093 4691 6F190000 		.4byte	.LLST197
 13094 4695 36       		.uleb128 0x36
 13095 4696 AE220000 		.4byte	0x22ae
 13096 469a 85190000 		.4byte	.LLST198
 13097 469e 31       		.uleb128 0x31
 13098 469f 12040000 		.4byte	.LBB156
 13099 46a3 10000000 		.4byte	.LBE156-.LBB156
 13100 46a7 37       		.uleb128 0x37
 13101 46a8 C4220000 		.4byte	0x22c4
 13102 46ac 38       		.uleb128 0x38
 13103 46ad 1E040000 		.4byte	.LVL493
 13104 46b1 D84B0000 		.4byte	0x4bd8
 13105 46b5 39       		.uleb128 0x39
 13106 46b6 01       		.uleb128 0x1
 13107 46b7 50       		.byte	0x50
 13108 46b8 02       		.uleb128 0x2
ARM GAS  C:\Users\haske\AppData\Local\Temp\ccmHbbn5.s 			page 262


 13109 46b9 77       		.byte	0x77
 13110 46ba 00       		.sleb128 0
 13111 46bb 39       		.uleb128 0x39
 13112 46bc 01       		.uleb128 0x1
 13113 46bd 51       		.byte	0x51
 13114 46be 03       		.uleb128 0x3
 13115 46bf 48       		.byte	0x48
 13116 46c0 3D       		.byte	0x3d
 13117 46c1 24       		.byte	0x24
 13118 46c2 39       		.uleb128 0x39
 13119 46c3 01       		.uleb128 0x1
 13120 46c4 52       		.byte	0x52
 13121 46c5 01       		.uleb128 0x1
 13122 46c6 40       		.byte	0x40
 13123 46c7 00       		.byte	0
 13124 46c8 00       		.byte	0
 13125 46c9 00       		.byte	0
 13126 46ca 35       		.uleb128 0x35
 13127 46cb 63220000 		.4byte	0x2263
 13128 46cf 22040000 		.4byte	.LBB157
 13129 46d3 0E000000 		.4byte	.LBE157-.LBB157
 13130 46d7 01       		.byte	0x1
 13131 46d8 5902     		.2byte	0x259
 13132 46da 1C470000 		.4byte	0x471c
 13133 46de 36       		.uleb128 0x36
 13134 46df 7E220000 		.4byte	0x227e
 13135 46e3 98190000 		.4byte	.LLST199
 13136 46e7 36       		.uleb128 0x36
 13137 46e8 73220000 		.4byte	0x2273
 13138 46ec AE190000 		.4byte	.LLST200
 13139 46f0 31       		.uleb128 0x31
 13140 46f1 22040000 		.4byte	.LBB158
 13141 46f5 0E000000 		.4byte	.LBE158-.LBB158
 13142 46f9 37       		.uleb128 0x37
 13143 46fa 89220000 		.4byte	0x2289
 13144 46fe 38       		.uleb128 0x38
 13145 46ff 2E040000 		.4byte	.LVL495
 13146 4703 D84B0000 		.4byte	0x4bd8
 13147 4707 39       		.uleb128 0x39
 13148 4708 01       		.uleb128 0x1
 13149 4709 50       		.byte	0x50
 13150 470a 02       		.uleb128 0x2
 13151 470b 77       		.byte	0x77
 13152 470c 00       		.sleb128 0
 13153 470d 39       		.uleb128 0x39
 13154 470e 01       		.uleb128 0x1
 13155 470f 51       		.byte	0x51
 13156 4710 03       		.uleb128 0x3
 13157 4711 48       		.byte	0x48
 13158 4712 3D       		.byte	0x3d
 13159 4713 24       		.byte	0x24
 13160 4714 39       		.uleb128 0x39
 13161 4715 01       		.uleb128 0x1
 13162 4716 52       		.byte	0x52
 13163 4717 01       		.uleb128 0x1
 13164 4718 41       		.byte	0x41
 13165 4719 00       		.byte	0
ARM GAS  C:\Users\haske\AppData\Local\Temp\ccmHbbn5.s 			page 263


 13166 471a 00       		.byte	0
 13167 471b 00       		.byte	0
 13168 471c 3A       		.uleb128 0x3a
 13169 471d 5A040000 		.4byte	.LVL500
 13170 4721 7B270000 		.4byte	0x277b
 13171 4725 30470000 		.4byte	0x4730
 13172 4729 39       		.uleb128 0x39
 13173 472a 01       		.uleb128 0x1
 13174 472b 50       		.byte	0x50
 13175 472c 02       		.uleb128 0x2
 13176 472d 77       		.byte	0x77
 13177 472e 00       		.sleb128 0
 13178 472f 00       		.byte	0
 13179 4730 38       		.uleb128 0x38
 13180 4731 64040000 		.4byte	.LVL503
 13181 4735 624D0000 		.4byte	0x4d62
 13182 4739 39       		.uleb128 0x39
 13183 473a 01       		.uleb128 0x1
 13184 473b 50       		.byte	0x50
 13185 473c 02       		.uleb128 0x2
 13186 473d 74       		.byte	0x74
 13187 473e 00       		.sleb128 0
 13188 473f 00       		.byte	0
 13189 4740 00       		.byte	0
 13190 4741 3A       		.uleb128 0x3a
 13191 4742 14000000 		.4byte	.LVL368
 13192 4746 834D0000 		.4byte	0x4d83
 13193 474a 5E470000 		.4byte	0x475e
 13194 474e 39       		.uleb128 0x39
 13195 474f 01       		.uleb128 0x1
 13196 4750 50       		.byte	0x50
 13197 4751 05       		.uleb128 0x5
 13198 4752 03       		.byte	0x3
 13199 4753 00000000 		.4byte	.LANCHOR0
 13200 4757 39       		.uleb128 0x39
 13201 4758 01       		.uleb128 0x1
 13202 4759 51       		.byte	0x51
 13203 475a 02       		.uleb128 0x2
 13204 475b 74       		.byte	0x74
 13205 475c 00       		.sleb128 0
 13206 475d 00       		.byte	0
 13207 475e 3A       		.uleb128 0x3a
 13208 475f 20000000 		.4byte	.LVL370
 13209 4763 8E4D0000 		.4byte	0x4d8e
 13210 4767 72470000 		.4byte	0x4772
 13211 476b 39       		.uleb128 0x39
 13212 476c 01       		.uleb128 0x1
 13213 476d 50       		.byte	0x50
 13214 476e 02       		.uleb128 0x2
 13215 476f 74       		.byte	0x74
 13216 4770 00       		.sleb128 0
 13217 4771 00       		.byte	0
 13218 4772 3A       		.uleb128 0x3a
 13219 4773 28000000 		.4byte	.LVL373
 13220 4777 064C0000 		.4byte	0x4c06
 13221 477b 86470000 		.4byte	0x4786
 13222 477f 39       		.uleb128 0x39
ARM GAS  C:\Users\haske\AppData\Local\Temp\ccmHbbn5.s 			page 264


 13223 4780 01       		.uleb128 0x1
 13224 4781 50       		.byte	0x50
 13225 4782 02       		.uleb128 0x2
 13226 4783 74       		.byte	0x74
 13227 4784 00       		.sleb128 0
 13228 4785 00       		.byte	0
 13229 4786 3A       		.uleb128 0x3a
 13230 4787 30000000 		.4byte	.LVL376
 13231 478b 064C0000 		.4byte	0x4c06
 13232 478f 9A470000 		.4byte	0x479a
 13233 4793 39       		.uleb128 0x39
 13234 4794 01       		.uleb128 0x1
 13235 4795 50       		.byte	0x50
 13236 4796 02       		.uleb128 0x2
 13237 4797 74       		.byte	0x74
 13238 4798 00       		.sleb128 0
 13239 4799 00       		.byte	0
 13240 479a 38       		.uleb128 0x38
 13241 479b 7E040000 		.4byte	.LVL506
 13242 479f CE2D0000 		.4byte	0x2dce
 13243 47a3 39       		.uleb128 0x39
 13244 47a4 01       		.uleb128 0x1
 13245 47a5 50       		.byte	0x50
 13246 47a6 02       		.uleb128 0x2
 13247 47a7 74       		.byte	0x74
 13248 47a8 00       		.sleb128 0
 13249 47a9 00       		.byte	0
 13250 47aa 00       		.byte	0
 13251 47ab 0D       		.uleb128 0xd
 13252 47ac 04       		.byte	0x4
 13253 47ad E9190000 		.4byte	0x19e9
 13254 47b1 0D       		.uleb128 0xd
 13255 47b2 04       		.byte	0x4
 13256 47b3 AC1F0000 		.4byte	0x1fac
 13257 47b7 49       		.uleb128 0x49
 13258 47b8 6F0F0000 		.4byte	.LASF723
 13259 47bc 01       		.byte	0x1
 13260 47bd 3001     		.2byte	0x130
 13261 47bf C3000000 		.4byte	0xc3
 13262 47c3 00000000 		.4byte	.LFB176
 13263 47c7 06000000 		.4byte	.LFE176-.LFB176
 13264 47cb 01       		.uleb128 0x1
 13265 47cc 9C       		.byte	0x9c
 13266 47cd E2470000 		.4byte	0x47e2
 13267 47d1 2E       		.uleb128 0x2e
 13268 47d2 6F626A00 		.ascii	"obj\000"
 13269 47d6 01       		.byte	0x1
 13270 47d7 3001     		.2byte	0x130
 13271 47d9 53250000 		.4byte	0x2553
 13272 47dd C1190000 		.4byte	.LLST201
 13273 47e1 00       		.byte	0
 13274 47e2 49       		.uleb128 0x49
 13275 47e3 3D140000 		.4byte	.LASF724
 13276 47e7 01       		.byte	0x1
 13277 47e8 3601     		.2byte	0x136
 13278 47ea C3000000 		.4byte	0xc3
 13279 47ee 00000000 		.4byte	.LFB177
ARM GAS  C:\Users\haske\AppData\Local\Temp\ccmHbbn5.s 			page 265


 13280 47f2 06000000 		.4byte	.LFE177-.LFB177
 13281 47f6 01       		.uleb128 0x1
 13282 47f7 9C       		.byte	0x9c
 13283 47f8 0D480000 		.4byte	0x480d
 13284 47fc 2E       		.uleb128 0x2e
 13285 47fd 6F626A00 		.ascii	"obj\000"
 13286 4801 01       		.byte	0x1
 13287 4802 3601     		.2byte	0x136
 13288 4804 53250000 		.4byte	0x2553
 13289 4808 E2190000 		.4byte	.LLST202
 13290 480c 00       		.byte	0
 13291 480d 49       		.uleb128 0x49
 13292 480e 15230000 		.4byte	.LASF725
 13293 4812 01       		.byte	0x1
 13294 4813 3C01     		.2byte	0x13c
 13295 4815 68210000 		.4byte	0x2168
 13296 4819 00000000 		.4byte	.LFB178
 13297 481d 0A000000 		.4byte	.LFE178-.LFB178
 13298 4821 01       		.uleb128 0x1
 13299 4822 9C       		.byte	0x9c
 13300 4823 38480000 		.4byte	0x4838
 13301 4827 2E       		.uleb128 0x2e
 13302 4828 6F626A00 		.ascii	"obj\000"
 13303 482c 01       		.byte	0x1
 13304 482d 3C01     		.2byte	0x13c
 13305 482f 53250000 		.4byte	0x2553
 13306 4833 031A0000 		.4byte	.LLST203
 13307 4837 00       		.byte	0
 13308 4838 46       		.uleb128 0x46
 13309 4839 E1150000 		.4byte	.LASF726
 13310 483d 01       		.byte	0x1
 13311 483e 4701     		.2byte	0x147
 13312 4840 00000000 		.4byte	.LFB179
 13313 4844 86000000 		.4byte	.LFE179-.LFB179
 13314 4848 01       		.uleb128 0x1
 13315 4849 9C       		.byte	0x9c
 13316 484a CC490000 		.4byte	0x49cc
 13317 484e 2E       		.uleb128 0x2e
 13318 484f 6F626A00 		.ascii	"obj\000"
 13319 4853 01       		.byte	0x1
 13320 4854 4701     		.2byte	0x147
 13321 4856 53250000 		.4byte	0x2553
 13322 485a 241A0000 		.4byte	.LLST204
 13323 485e 33       		.uleb128 0x33
 13324 485f A5090000 		.4byte	.LASF727
 13325 4863 01       		.byte	0x1
 13326 4864 4701     		.2byte	0x147
 13327 4866 0A2B0000 		.4byte	0x2b0a
 13328 486a 501A0000 		.4byte	.LLST205
 13329 486e 33       		.uleb128 0x33
 13330 486f C7000000 		.4byte	.LASF728
 13331 4873 01       		.byte	0x1
 13332 4874 4701     		.2byte	0x147
 13333 4876 01010000 		.4byte	0x101
 13334 487a 7C1A0000 		.4byte	.LLST206
 13335 487e 3D       		.uleb128 0x3d
 13336 487f D90E0000 		.4byte	.LASF642
ARM GAS  C:\Users\haske\AppData\Local\Temp\ccmHbbn5.s 			page 266


 13337 4883 01       		.byte	0x1
 13338 4884 4E01     		.2byte	0x14e
 13339 4886 29010000 		.4byte	0x129
 13340 488a 02       		.uleb128 0x2
 13341 488b 91       		.byte	0x91
 13342 488c 64       		.sleb128 -28
 13343 488d 3D       		.uleb128 0x3d
 13344 488e 16190000 		.4byte	.LASF643
 13345 4892 01       		.byte	0x1
 13346 4893 4F01     		.2byte	0x14f
 13347 4895 01010000 		.4byte	0x101
 13348 4899 02       		.uleb128 0x2
 13349 489a 91       		.byte	0x91
 13350 489b 62       		.sleb128 -30
 13351 489c 34       		.uleb128 0x34
 13352 489d 99090000 		.4byte	.LASF655
 13353 48a1 01       		.byte	0x1
 13354 48a2 5101     		.2byte	0x151
 13355 48a4 01010000 		.4byte	0x101
 13356 48a8 30       		.uleb128 0x30
 13357 48a9 7B230000 		.4byte	.LASF656
 13358 48ad 01       		.byte	0x1
 13359 48ae 5201     		.2byte	0x152
 13360 48b0 01010000 		.4byte	0x101
 13361 48b4 9D1A0000 		.4byte	.LLST207
 13362 48b8 30       		.uleb128 0x30
 13363 48b9 77160000 		.4byte	.LASF250
 13364 48bd 01       		.byte	0x1
 13365 48be 5601     		.2byte	0x156
 13366 48c0 CE000000 		.4byte	0xce
 13367 48c4 B01A0000 		.4byte	.LLST208
 13368 48c8 30       		.uleb128 0x30
 13369 48c9 E1180000 		.4byte	.LASF657
 13370 48cd 01       		.byte	0x1
 13371 48ce 5701     		.2byte	0x157
 13372 48d0 01010000 		.4byte	0x101
 13373 48d4 F51A0000 		.4byte	.LLST209
 13374 48d8 30       		.uleb128 0x30
 13375 48d9 E8180000 		.4byte	.LASF658
 13376 48dd 01       		.byte	0x1
 13377 48de 5801     		.2byte	0x158
 13378 48e0 01010000 		.4byte	0x101
 13379 48e4 081B0000 		.4byte	.LLST210
 13380 48e8 35       		.uleb128 0x35
 13381 48e9 66240000 		.4byte	0x2466
 13382 48ed 26000000 		.4byte	.LBB159
 13383 48f1 0E000000 		.4byte	.LBE159-.LBB159
 13384 48f5 01       		.byte	0x1
 13385 48f6 5101     		.2byte	0x151
 13386 48f8 3B490000 		.4byte	0x493b
 13387 48fc 36       		.uleb128 0x36
 13388 48fd 83240000 		.4byte	0x2483
 13389 4901 271B0000 		.4byte	.LLST211
 13390 4905 36       		.uleb128 0x36
 13391 4906 77240000 		.4byte	0x2477
 13392 490a 3D1B0000 		.4byte	.LLST212
 13393 490e 31       		.uleb128 0x31
ARM GAS  C:\Users\haske\AppData\Local\Temp\ccmHbbn5.s 			page 267


 13394 490f 26000000 		.4byte	.LBB160
 13395 4913 0E000000 		.4byte	.LBE160-.LBB160
 13396 4917 37       		.uleb128 0x37
 13397 4918 8F240000 		.4byte	0x248f
 13398 491c 38       		.uleb128 0x38
 13399 491d 32000000 		.4byte	.LVL516
 13400 4921 D84B0000 		.4byte	0x4bd8
 13401 4925 39       		.uleb128 0x39
 13402 4926 01       		.uleb128 0x1
 13403 4927 50       		.byte	0x50
 13404 4928 02       		.uleb128 0x2
 13405 4929 74       		.byte	0x74
 13406 492a 00       		.sleb128 0
 13407 492b 39       		.uleb128 0x39
 13408 492c 01       		.uleb128 0x1
 13409 492d 51       		.byte	0x51
 13410 492e 03       		.uleb128 0x3
 13411 492f 40       		.byte	0x40
 13412 4930 3D       		.byte	0x3d
 13413 4931 24       		.byte	0x24
 13414 4932 39       		.uleb128 0x39
 13415 4933 01       		.uleb128 0x1
 13416 4934 52       		.byte	0x52
 13417 4935 02       		.uleb128 0x2
 13418 4936 08       		.byte	0x8
 13419 4937 50       		.byte	0x50
 13420 4938 00       		.byte	0
 13421 4939 00       		.byte	0
 13422 493a 00       		.byte	0
 13423 493b 3E       		.uleb128 0x3e
 13424 493c 14000000 		.4byte	.LVL514
 13425 4940 994D0000 		.4byte	0x4d99
 13426 4944 3A       		.uleb128 0x3a
 13427 4945 26000000 		.4byte	.LVL515
 13428 4949 64250000 		.4byte	0x2564
 13429 494d 64490000 		.4byte	0x4964
 13430 4951 39       		.uleb128 0x39
 13431 4952 01       		.uleb128 0x1
 13432 4953 50       		.byte	0x50
 13433 4954 02       		.uleb128 0x2
 13434 4955 74       		.byte	0x74
 13435 4956 00       		.sleb128 0
 13436 4957 39       		.uleb128 0x39
 13437 4958 01       		.uleb128 0x1
 13438 4959 51       		.byte	0x51
 13439 495a 02       		.uleb128 0x2
 13440 495b 91       		.byte	0x91
 13441 495c 64       		.sleb128 -28
 13442 495d 39       		.uleb128 0x39
 13443 495e 01       		.uleb128 0x1
 13444 495f 52       		.byte	0x52
 13445 4960 02       		.uleb128 0x2
 13446 4961 75       		.byte	0x75
 13447 4962 00       		.sleb128 0
 13448 4963 00       		.byte	0
 13449 4964 3A       		.uleb128 0x3a
 13450 4965 4C000000 		.4byte	.LVL520
ARM GAS  C:\Users\haske\AppData\Local\Temp\ccmHbbn5.s 			page 268


 13451 4969 CE240000 		.4byte	0x24ce
 13452 496d 78490000 		.4byte	0x4978
 13453 4971 39       		.uleb128 0x39
 13454 4972 01       		.uleb128 0x1
 13455 4973 50       		.byte	0x50
 13456 4974 02       		.uleb128 0x2
 13457 4975 74       		.byte	0x74
 13458 4976 00       		.sleb128 0
 13459 4977 00       		.byte	0
 13460 4978 3A       		.uleb128 0x3a
 13461 4979 5A000000 		.4byte	.LVL524
 13462 497d FB4B0000 		.4byte	0x4bfb
 13463 4981 94490000 		.4byte	0x4994
 13464 4985 39       		.uleb128 0x39
 13465 4986 01       		.uleb128 0x1
 13466 4987 50       		.byte	0x50
 13467 4988 0A       		.uleb128 0xa
 13468 4989 7D       		.byte	0x7d
 13469 498a 0C       		.sleb128 12
 13470 498b 94       		.byte	0x94
 13471 498c 02       		.byte	0x2
 13472 498d 0A       		.byte	0xa
 13473 498e FFFF     		.2byte	0xffff
 13474 4990 1A       		.byte	0x1a
 13475 4991 23       		.byte	0x23
 13476 4992 5A       		.uleb128 0x5a
 13477 4993 00       		.byte	0
 13478 4994 3A       		.uleb128 0x3a
 13479 4995 6C000000 		.4byte	.LVL526
 13480 4999 FB4B0000 		.4byte	0x4bfb
 13481 499d AA490000 		.4byte	0x49aa
 13482 49a1 39       		.uleb128 0x39
 13483 49a2 01       		.uleb128 0x1
 13484 49a3 50       		.byte	0x50
 13485 49a4 04       		.uleb128 0x4
 13486 49a5 91       		.byte	0x91
 13487 49a6 5C       		.sleb128 -36
 13488 49a7 94       		.byte	0x94
 13489 49a8 02       		.byte	0x2
 13490 49a9 00       		.byte	0
 13491 49aa 38       		.uleb128 0x38
 13492 49ab 82000000 		.4byte	.LVL529
 13493 49af A44D0000 		.4byte	0x4da4
 13494 49b3 39       		.uleb128 0x39
 13495 49b4 01       		.uleb128 0x1
 13496 49b5 50       		.byte	0x50
 13497 49b6 02       		.uleb128 0x2
 13498 49b7 76       		.byte	0x76
 13499 49b8 00       		.sleb128 0
 13500 49b9 39       		.uleb128 0x39
 13501 49ba 01       		.uleb128 0x1
 13502 49bb 51       		.byte	0x51
 13503 49bc 02       		.uleb128 0x2
 13504 49bd 74       		.byte	0x74
 13505 49be 00       		.sleb128 0
 13506 49bf 39       		.uleb128 0x39
 13507 49c0 01       		.uleb128 0x1
ARM GAS  C:\Users\haske\AppData\Local\Temp\ccmHbbn5.s 			page 269


 13508 49c1 52       		.byte	0x52
 13509 49c2 01       		.uleb128 0x1
 13510 49c3 39       		.byte	0x39
 13511 49c4 39       		.uleb128 0x39
 13512 49c5 01       		.uleb128 0x1
 13513 49c6 53       		.byte	0x53
 13514 49c7 02       		.uleb128 0x2
 13515 49c8 77       		.byte	0x77
 13516 49c9 00       		.sleb128 0
 13517 49ca 00       		.byte	0
 13518 49cb 00       		.byte	0
 13519 49cc 46       		.uleb128 0x46
 13520 49cd 711D0000 		.4byte	.LASF729
 13521 49d1 01       		.byte	0x1
 13522 49d2 5C01     		.2byte	0x15c
 13523 49d4 00000000 		.4byte	.LFB180
 13524 49d8 B8000000 		.4byte	.LFE180-.LFB180
 13525 49dc 01       		.uleb128 0x1
 13526 49dd 9C       		.byte	0x9c
 13527 49de B14B0000 		.4byte	0x4bb1
 13528 49e2 2E       		.uleb128 0x2e
 13529 49e3 6F626A00 		.ascii	"obj\000"
 13530 49e7 01       		.byte	0x1
 13531 49e8 5C01     		.2byte	0x15c
 13532 49ea 53250000 		.4byte	0x2553
 13533 49ee 501B0000 		.4byte	.LLST213
 13534 49f2 33       		.uleb128 0x33
 13535 49f3 FA1C0000 		.4byte	.LASF730
 13536 49f7 01       		.byte	0x1
 13537 49f8 5C01     		.2byte	0x15c
 13538 49fa 0A2B0000 		.4byte	0x2b0a
 13539 49fe 6F1B0000 		.4byte	.LLST214
 13540 4a02 33       		.uleb128 0x33
 13541 4a03 C7000000 		.4byte	.LASF728
 13542 4a07 01       		.byte	0x1
 13543 4a08 5C01     		.2byte	0x15c
 13544 4a0a 01010000 		.4byte	0x101
 13545 4a0e 9B1B0000 		.4byte	.LLST215
 13546 4a12 3D       		.uleb128 0x3d
 13547 4a13 D90E0000 		.4byte	.LASF642
 13548 4a17 01       		.byte	0x1
 13549 4a18 6301     		.2byte	0x163
 13550 4a1a 29010000 		.4byte	0x129
 13551 4a1e 02       		.uleb128 0x2
 13552 4a1f 91       		.byte	0x91
 13553 4a20 64       		.sleb128 -28
 13554 4a21 3D       		.uleb128 0x3d
 13555 4a22 16190000 		.4byte	.LASF643
 13556 4a26 01       		.byte	0x1
 13557 4a27 6401     		.2byte	0x164
 13558 4a29 01010000 		.4byte	0x101
 13559 4a2d 02       		.uleb128 0x2
 13560 4a2e 91       		.byte	0x91
 13561 4a2f 62       		.sleb128 -30
 13562 4a30 34       		.uleb128 0x34
 13563 4a31 99090000 		.4byte	.LASF655
 13564 4a35 01       		.byte	0x1
ARM GAS  C:\Users\haske\AppData\Local\Temp\ccmHbbn5.s 			page 270


 13565 4a36 6601     		.2byte	0x166
 13566 4a38 01010000 		.4byte	0x101
 13567 4a3c 30       		.uleb128 0x30
 13568 4a3d 7B230000 		.4byte	.LASF656
 13569 4a41 01       		.byte	0x1
 13570 4a42 6701     		.2byte	0x167
 13571 4a44 01010000 		.4byte	0x101
 13572 4a48 BC1B0000 		.4byte	.LLST216
 13573 4a4c 30       		.uleb128 0x30
 13574 4a4d 77160000 		.4byte	.LASF250
 13575 4a51 01       		.byte	0x1
 13576 4a52 6F01     		.2byte	0x16f
 13577 4a54 CE000000 		.4byte	0xce
 13578 4a58 CF1B0000 		.4byte	.LLST217
 13579 4a5c 30       		.uleb128 0x30
 13580 4a5d 2A0D0000 		.4byte	.LASF731
 13581 4a61 01       		.byte	0x1
 13582 4a62 7001     		.2byte	0x170
 13583 4a64 01010000 		.4byte	0x101
 13584 4a68 E21B0000 		.4byte	.LLST218
 13585 4a6c 30       		.uleb128 0x30
 13586 4a6d 320D0000 		.4byte	.LASF732
 13587 4a71 01       		.byte	0x1
 13588 4a72 7101     		.2byte	0x171
 13589 4a74 01010000 		.4byte	0x101
 13590 4a78 1F1C0000 		.4byte	.LLST219
 13591 4a7c 35       		.uleb128 0x35
 13592 4a7d 66240000 		.4byte	0x2466
 13593 4a81 2A000000 		.4byte	.LBB161
 13594 4a85 0E000000 		.4byte	.LBE161-.LBB161
 13595 4a89 01       		.byte	0x1
 13596 4a8a 6601     		.2byte	0x166
 13597 4a8c D04A0000 		.4byte	0x4ad0
 13598 4a90 36       		.uleb128 0x36
 13599 4a91 83240000 		.4byte	0x2483
 13600 4a95 321C0000 		.4byte	.LLST220
 13601 4a99 36       		.uleb128 0x36
 13602 4a9a 77240000 		.4byte	0x2477
 13603 4a9e 481C0000 		.4byte	.LLST221
 13604 4aa2 31       		.uleb128 0x31
 13605 4aa3 2A000000 		.4byte	.LBB162
 13606 4aa7 0E000000 		.4byte	.LBE162-.LBB162
 13607 4aab 37       		.uleb128 0x37
 13608 4aac 8F240000 		.4byte	0x248f
 13609 4ab0 38       		.uleb128 0x38
 13610 4ab1 36000000 		.4byte	.LVL538
 13611 4ab5 D84B0000 		.4byte	0x4bd8
 13612 4ab9 39       		.uleb128 0x39
 13613 4aba 01       		.uleb128 0x1
 13614 4abb 50       		.byte	0x50
 13615 4abc 03       		.uleb128 0x3
 13616 4abd 91       		.byte	0x91
 13617 4abe 5C       		.sleb128 -36
 13618 4abf 06       		.byte	0x6
 13619 4ac0 39       		.uleb128 0x39
 13620 4ac1 01       		.uleb128 0x1
 13621 4ac2 51       		.byte	0x51
ARM GAS  C:\Users\haske\AppData\Local\Temp\ccmHbbn5.s 			page 271


 13622 4ac3 03       		.uleb128 0x3
 13623 4ac4 40       		.byte	0x40
 13624 4ac5 3D       		.byte	0x3d
 13625 4ac6 24       		.byte	0x24
 13626 4ac7 39       		.uleb128 0x39
 13627 4ac8 01       		.uleb128 0x1
 13628 4ac9 52       		.byte	0x52
 13629 4aca 02       		.uleb128 0x2
 13630 4acb 08       		.byte	0x8
 13631 4acc 50       		.byte	0x50
 13632 4acd 00       		.byte	0
 13633 4ace 00       		.byte	0
 13634 4acf 00       		.byte	0
 13635 4ad0 3A       		.uleb128 0x3a
 13636 4ad1 16000000 		.4byte	.LVL536
 13637 4ad5 994D0000 		.4byte	0x4d99
 13638 4ad9 E54A0000 		.4byte	0x4ae5
 13639 4add 39       		.uleb128 0x39
 13640 4ade 01       		.uleb128 0x1
 13641 4adf 50       		.byte	0x50
 13642 4ae0 03       		.uleb128 0x3
 13643 4ae1 91       		.byte	0x91
 13644 4ae2 5C       		.sleb128 -36
 13645 4ae3 06       		.byte	0x6
 13646 4ae4 00       		.byte	0
 13647 4ae5 3A       		.uleb128 0x3a
 13648 4ae6 2A000000 		.4byte	.LVL537
 13649 4aea 64250000 		.4byte	0x2564
 13650 4aee 064B0000 		.4byte	0x4b06
 13651 4af2 39       		.uleb128 0x39
 13652 4af3 01       		.uleb128 0x1
 13653 4af4 50       		.byte	0x50
 13654 4af5 03       		.uleb128 0x3
 13655 4af6 91       		.byte	0x91
 13656 4af7 5C       		.sleb128 -36
 13657 4af8 06       		.byte	0x6
 13658 4af9 39       		.uleb128 0x39
 13659 4afa 01       		.uleb128 0x1
 13660 4afb 51       		.byte	0x51
 13661 4afc 02       		.uleb128 0x2
 13662 4afd 76       		.byte	0x76
 13663 4afe 00       		.sleb128 0
 13664 4aff 39       		.uleb128 0x39
 13665 4b00 01       		.uleb128 0x1
 13666 4b01 52       		.byte	0x52
 13667 4b02 02       		.uleb128 0x2
 13668 4b03 77       		.byte	0x77
 13669 4b04 00       		.sleb128 0
 13670 4b05 00       		.byte	0
 13671 4b06 3A       		.uleb128 0x3a
 13672 4b07 5E000000 		.4byte	.LVL542
 13673 4b0b A44D0000 		.4byte	0x4da4
 13674 4b0f 2A4B0000 		.4byte	0x4b2a
 13675 4b13 39       		.uleb128 0x39
 13676 4b14 01       		.uleb128 0x1
 13677 4b15 50       		.byte	0x50
 13678 4b16 02       		.uleb128 0x2
ARM GAS  C:\Users\haske\AppData\Local\Temp\ccmHbbn5.s 			page 272


 13679 4b17 74       		.byte	0x74
 13680 4b18 00       		.sleb128 0
 13681 4b19 39       		.uleb128 0x39
 13682 4b1a 01       		.uleb128 0x1
 13683 4b1b 51       		.byte	0x51
 13684 4b1c 02       		.uleb128 0x2
 13685 4b1d 75       		.byte	0x75
 13686 4b1e 00       		.sleb128 0
 13687 4b1f 39       		.uleb128 0x39
 13688 4b20 01       		.uleb128 0x1
 13689 4b21 52       		.byte	0x52
 13690 4b22 01       		.uleb128 0x1
 13691 4b23 39       		.byte	0x39
 13692 4b24 39       		.uleb128 0x39
 13693 4b25 01       		.uleb128 0x1
 13694 4b26 53       		.byte	0x53
 13695 4b27 01       		.uleb128 0x1
 13696 4b28 30       		.byte	0x30
 13697 4b29 00       		.byte	0
 13698 4b2a 3A       		.uleb128 0x3a
 13699 4b2b 64000000 		.4byte	.LVL543
 13700 4b2f 994D0000 		.4byte	0x4d99
 13701 4b33 3E4B0000 		.4byte	0x4b3e
 13702 4b37 39       		.uleb128 0x39
 13703 4b38 01       		.uleb128 0x1
 13704 4b39 50       		.byte	0x50
 13705 4b3a 02       		.uleb128 0x2
 13706 4b3b 75       		.byte	0x75
 13707 4b3c 00       		.sleb128 0
 13708 4b3d 00       		.byte	0
 13709 4b3e 3A       		.uleb128 0x3a
 13710 4b3f 6A000000 		.4byte	.LVL544
 13711 4b43 CE240000 		.4byte	0x24ce
 13712 4b47 524B0000 		.4byte	0x4b52
 13713 4b4b 39       		.uleb128 0x39
 13714 4b4c 01       		.uleb128 0x1
 13715 4b4d 50       		.byte	0x50
 13716 4b4e 02       		.uleb128 0x2
 13717 4b4f 75       		.byte	0x75
 13718 4b50 00       		.sleb128 0
 13719 4b51 00       		.byte	0
 13720 4b52 3A       		.uleb128 0x3a
 13721 4b53 90000000 		.4byte	.LVL550
 13722 4b57 AF4D0000 		.4byte	0x4daf
 13723 4b5b 6B4B0000 		.4byte	0x4b6b
 13724 4b5f 39       		.uleb128 0x39
 13725 4b60 01       		.uleb128 0x1
 13726 4b61 50       		.byte	0x50
 13727 4b62 02       		.uleb128 0x2
 13728 4b63 74       		.byte	0x74
 13729 4b64 00       		.sleb128 0
 13730 4b65 39       		.uleb128 0x39
 13731 4b66 01       		.uleb128 0x1
 13732 4b67 52       		.byte	0x52
 13733 4b68 01       		.uleb128 0x1
 13734 4b69 30       		.byte	0x30
 13735 4b6a 00       		.byte	0
ARM GAS  C:\Users\haske\AppData\Local\Temp\ccmHbbn5.s 			page 273


 13736 4b6b 3A       		.uleb128 0x3a
 13737 4b6c 9C000000 		.4byte	.LVL551
 13738 4b70 BB4D0000 		.4byte	0x4dbb
 13739 4b74 8B4B0000 		.4byte	0x4b8b
 13740 4b78 39       		.uleb128 0x39
 13741 4b79 01       		.uleb128 0x1
 13742 4b7a 50       		.byte	0x50
 13743 4b7b 02       		.uleb128 0x2
 13744 4b7c 74       		.byte	0x74
 13745 4b7d 00       		.sleb128 0
 13746 4b7e 39       		.uleb128 0x39
 13747 4b7f 01       		.uleb128 0x1
 13748 4b80 51       		.byte	0x51
 13749 4b81 03       		.uleb128 0x3
 13750 4b82 75       		.byte	0x75
 13751 4b83 00       		.sleb128 0
 13752 4b84 1F       		.byte	0x1f
 13753 4b85 39       		.uleb128 0x39
 13754 4b86 01       		.uleb128 0x1
 13755 4b87 52       		.byte	0x52
 13756 4b88 01       		.uleb128 0x1
 13757 4b89 30       		.byte	0x30
 13758 4b8a 00       		.byte	0
 13759 4b8b 38       		.uleb128 0x38
 13760 4b8c B4000000 		.4byte	.LVL552
 13761 4b90 C74D0000 		.4byte	0x4dc7
 13762 4b94 39       		.uleb128 0x39
 13763 4b95 01       		.uleb128 0x1
 13764 4b96 50       		.byte	0x50
 13765 4b97 02       		.uleb128 0x2
 13766 4b98 74       		.byte	0x74
 13767 4b99 00       		.sleb128 0
 13768 4b9a 39       		.uleb128 0x39
 13769 4b9b 01       		.uleb128 0x1
 13770 4b9c 51       		.byte	0x51
 13771 4b9d 0C       		.uleb128 0xc
 13772 4b9e 77       		.byte	0x77
 13773 4b9f 00       		.sleb128 0
 13774 4ba0 32       		.byte	0x32
 13775 4ba1 24       		.byte	0x24
 13776 4ba2 77       		.byte	0x77
 13777 4ba3 00       		.sleb128 0
 13778 4ba4 22       		.byte	0x22
 13779 4ba5 31       		.byte	0x31
 13780 4ba6 24       		.byte	0x24
 13781 4ba7 23       		.byte	0x23
 13782 4ba8 8407     		.uleb128 0x384
 13783 4baa 39       		.uleb128 0x39
 13784 4bab 01       		.uleb128 0x1
 13785 4bac 52       		.byte	0x52
 13786 4bad 01       		.uleb128 0x1
 13787 4bae 30       		.byte	0x30
 13788 4baf 00       		.byte	0
 13789 4bb0 00       		.byte	0
 13790 4bb1 4C       		.uleb128 0x4c
 13791 4bb2 D3260000 		.4byte	.LASF733
 13792 4bb6 07       		.byte	0x7
ARM GAS  C:\Users\haske\AppData\Local\Temp\ccmHbbn5.s 			page 274


 13793 4bb7 94       		.byte	0x94
 13794 4bb8 360B0000 		.4byte	0xb36
 13795 4bbc 4C       		.uleb128 0x4c
 13796 4bbd 03250000 		.4byte	.LASF734
 13797 4bc1 0E       		.byte	0xe
 13798 4bc2 95       		.byte	0x95
 13799 4bc3 2D210000 		.4byte	0x212d
 13800 4bc7 4D       		.uleb128 0x4d
 13801 4bc8 0F260000 		.4byte	.LASF735
 13802 4bcc 01       		.byte	0x1
 13803 4bcd 2F       		.byte	0x2f
 13804 4bce 2D210000 		.4byte	0x212d
 13805 4bd2 05       		.uleb128 0x5
 13806 4bd3 03       		.byte	0x3
 13807 4bd4 00000000 		.4byte	lv_arc_class
 13808 4bd8 4E       		.uleb128 0x4e
 13809 4bd9 65220000 		.4byte	.LASF736
 13810 4bdd 65220000 		.4byte	.LASF736
 13811 4be1 1C       		.byte	0x1c
 13812 4be2 83       		.byte	0x83
 13813 4be3 4F       		.uleb128 0x4f
 13814 4be4 26110000 		.4byte	.LASF737
 13815 4be8 26110000 		.4byte	.LASF737
 13816 4bec 21       		.byte	0x21
 13817 4bed 1901     		.2byte	0x119
 13818 4bef 4F       		.uleb128 0x4f
 13819 4bf0 EC240000 		.4byte	.LASF738
 13820 4bf4 EC240000 		.4byte	.LASF738
 13821 4bf8 21       		.byte	0x21
 13822 4bf9 2201     		.2byte	0x122
 13823 4bfb 4E       		.uleb128 0x4e
 13824 4bfc A8050000 		.4byte	.LASF739
 13825 4c00 A8050000 		.4byte	.LASF739
 13826 4c04 22       		.byte	0x22
 13827 4c05 2F       		.byte	0x2f
 13828 4c06 4E       		.uleb128 0x4e
 13829 4c07 86130000 		.4byte	.LASF740
 13830 4c0b 86130000 		.4byte	.LASF740
 13831 4c0f 1F       		.byte	0x1f
 13832 4c10 A1       		.byte	0xa1
 13833 4c11 4F       		.uleb128 0x4f
 13834 4c12 7A150000 		.4byte	.LASF741
 13835 4c16 7A150000 		.4byte	.LASF741
 13836 4c1a 1F       		.byte	0x1f
 13837 4c1b 2701     		.2byte	0x127
 13838 4c1d 4E       		.uleb128 0x4e
 13839 4c1e AA220000 		.4byte	.LASF742
 13840 4c22 AA220000 		.4byte	.LASF742
 13841 4c26 1D       		.byte	0x1d
 13842 4c27 88       		.byte	0x88
 13843 4c28 4E       		.uleb128 0x4e
 13844 4c29 46230000 		.4byte	.LASF743
 13845 4c2d 46230000 		.4byte	.LASF743
 13846 4c31 13       		.byte	0x13
 13847 4c32 2D       		.byte	0x2d
 13848 4c33 4E       		.uleb128 0x4e
 13849 4c34 5E100000 		.4byte	.LASF744
ARM GAS  C:\Users\haske\AppData\Local\Temp\ccmHbbn5.s 			page 275


 13850 4c38 5E100000 		.4byte	.LASF744
 13851 4c3c 1D       		.byte	0x1d
 13852 4c3d 79       		.byte	0x79
 13853 4c3e 4E       		.uleb128 0x4e
 13854 4c3f 9A050000 		.4byte	.LASF745
 13855 4c43 9A050000 		.4byte	.LASF745
 13856 4c47 1F       		.byte	0x1f
 13857 4c48 92       		.byte	0x92
 13858 4c49 4E       		.uleb128 0x4e
 13859 4c4a 7D000000 		.4byte	.LASF746
 13860 4c4e 7D000000 		.4byte	.LASF746
 13861 4c52 13       		.byte	0x13
 13862 4c53 3A       		.byte	0x3a
 13863 4c54 4E       		.uleb128 0x4e
 13864 4c55 37120000 		.4byte	.LASF747
 13865 4c59 37120000 		.4byte	.LASF747
 13866 4c5d 0F       		.byte	0xf
 13867 4c5e 4D       		.byte	0x4d
 13868 4c5f 4E       		.uleb128 0x4e
 13869 4c60 7E1B0000 		.4byte	.LASF748
 13870 4c64 7E1B0000 		.4byte	.LASF748
 13871 4c68 1D       		.byte	0x1d
 13872 4c69 53       		.byte	0x53
 13873 4c6a 4E       		.uleb128 0x4e
 13874 4c6b DF200000 		.4byte	.LASF749
 13875 4c6f DF200000 		.4byte	.LASF749
 13876 4c73 0F       		.byte	0xf
 13877 4c74 56       		.byte	0x56
 13878 4c75 4E       		.uleb128 0x4e
 13879 4c76 A50C0000 		.4byte	.LASF750
 13880 4c7a A50C0000 		.4byte	.LASF750
 13881 4c7e 23       		.byte	0x23
 13882 4c7f 34       		.byte	0x34
 13883 4c80 4E       		.uleb128 0x4e
 13884 4c81 C9180000 		.4byte	.LASF751
 13885 4c85 C9180000 		.4byte	.LASF751
 13886 4c89 0E       		.byte	0xe
 13887 4c8a EC       		.byte	0xec
 13888 4c8b 4E       		.uleb128 0x4e
 13889 4c8c FC1B0000 		.4byte	.LASF752
 13890 4c90 FC1B0000 		.4byte	.LASF752
 13891 4c94 0E       		.byte	0xe
 13892 4c95 F3       		.byte	0xf3
 13893 4c96 4F       		.uleb128 0x4f
 13894 4c97 B1230000 		.4byte	.LASF753
 13895 4c9b B1230000 		.4byte	.LASF753
 13896 4c9f 21       		.byte	0x21
 13897 4ca0 9301     		.2byte	0x193
 13898 4ca2 4F       		.uleb128 0x4f
 13899 4ca3 19280000 		.4byte	.LASF754
 13900 4ca7 19280000 		.4byte	.LASF754
 13901 4cab 21       		.byte	0x21
 13902 4cac 8C01     		.2byte	0x18c
 13903 4cae 4E       		.uleb128 0x4e
 13904 4caf E00E0000 		.4byte	.LASF755
 13905 4cb3 E00E0000 		.4byte	.LASF755
 13906 4cb7 13       		.byte	0x13
ARM GAS  C:\Users\haske\AppData\Local\Temp\ccmHbbn5.s 			page 276


 13907 4cb8 48       		.byte	0x48
 13908 4cb9 4F       		.uleb128 0x4f
 13909 4cba D01F0000 		.4byte	.LASF756
 13910 4cbe D01F0000 		.4byte	.LASF756
 13911 4cc2 21       		.byte	0x21
 13912 4cc3 7701     		.2byte	0x177
 13913 4cc5 4E       		.uleb128 0x4e
 13914 4cc6 A3010000 		.4byte	.LASF757
 13915 4cca A3010000 		.4byte	.LASF757
 13916 4cce 06       		.byte	0x6
 13917 4ccf A7       		.byte	0xa7
 13918 4cd0 4E       		.uleb128 0x4e
 13919 4cd1 DB1B0000 		.4byte	.LASF758
 13920 4cd5 DB1B0000 		.4byte	.LASF758
 13921 4cd9 1E       		.byte	0x1e
 13922 4cda 4B       		.byte	0x4b
 13923 4cdb 4E       		.uleb128 0x4e
 13924 4cdc 8F0E0000 		.4byte	.LASF759
 13925 4ce0 8F0E0000 		.4byte	.LASF759
 13926 4ce4 1E       		.byte	0x1e
 13927 4ce5 4D       		.byte	0x4d
 13928 4ce6 4F       		.uleb128 0x4f
 13929 4ce7 34020000 		.4byte	.LASF760
 13930 4ceb 34020000 		.4byte	.LASF760
 13931 4cef 21       		.byte	0x21
 13932 4cf0 7D01     		.2byte	0x17d
 13933 4cf2 4E       		.uleb128 0x4e
 13934 4cf3 63120000 		.4byte	.LASF761
 13935 4cf7 63120000 		.4byte	.LASF761
 13936 4cfb 22       		.byte	0x22
 13937 4cfc 6C       		.byte	0x6c
 13938 4cfd 4F       		.uleb128 0x4f
 13939 4cfe 13200000 		.4byte	.LASF762
 13940 4d02 13200000 		.4byte	.LASF762
 13941 4d06 0E       		.byte	0xe
 13942 4d07 1C01     		.2byte	0x11c
 13943 4d09 4E       		.uleb128 0x4e
 13944 4d0a 13100000 		.4byte	.LASF763
 13945 4d0e 13100000 		.4byte	.LASF763
 13946 4d12 24       		.byte	0x24
 13947 4d13 32       		.byte	0x32
 13948 4d14 4E       		.uleb128 0x4e
 13949 4d15 6A2D0000 		.4byte	.LASF764
 13950 4d19 6A2D0000 		.4byte	.LASF764
 13951 4d1d 24       		.byte	0x24
 13952 4d1e 39       		.byte	0x39
 13953 4d1f 4E       		.uleb128 0x4e
 13954 4d20 A5040000 		.4byte	.LASF765
 13955 4d24 A5040000 		.4byte	.LASF765
 13956 4d28 24       		.byte	0x24
 13957 4d29 63       		.byte	0x63
 13958 4d2a 4E       		.uleb128 0x4e
 13959 4d2b A32C0000 		.4byte	.LASF766
 13960 4d2f A32C0000 		.4byte	.LASF766
 13961 4d33 22       		.byte	0x22
 13962 4d34 49       		.byte	0x49
 13963 4d35 4E       		.uleb128 0x4e
ARM GAS  C:\Users\haske\AppData\Local\Temp\ccmHbbn5.s 			page 277


 13964 4d36 1D140000 		.4byte	.LASF767
 13965 4d3a 1D140000 		.4byte	.LASF767
 13966 4d3e 23       		.byte	0x23
 13967 4d3f 3B       		.byte	0x3b
 13968 4d40 4F       		.uleb128 0x4f
 13969 4d41 9F2E0000 		.4byte	.LASF768
 13970 4d45 9F2E0000 		.4byte	.LASF768
 13971 4d49 0E       		.byte	0xe
 13972 4d4a 3A01     		.2byte	0x13a
 13973 4d4c 4E       		.uleb128 0x4e
 13974 4d4d 2F0C0000 		.4byte	.LASF769
 13975 4d51 2F0C0000 		.4byte	.LASF769
 13976 4d55 1A       		.byte	0x1a
 13977 4d56 F2       		.byte	0xf2
 13978 4d57 4E       		.uleb128 0x4e
 13979 4d58 35290000 		.4byte	.LASF770
 13980 4d5c 35290000 		.4byte	.LASF770
 13981 4d60 1A       		.byte	0x1a
 13982 4d61 CF       		.byte	0xcf
 13983 4d62 4E       		.uleb128 0x4e
 13984 4d63 08180000 		.4byte	.LASF771
 13985 4d67 08180000 		.4byte	.LASF771
 13986 4d6b 1F       		.byte	0x1f
 13987 4d6c B7       		.byte	0xb7
 13988 4d6d 4E       		.uleb128 0x4e
 13989 4d6e 0A190000 		.4byte	.LASF772
 13990 4d72 0A190000 		.4byte	.LASF772
 13991 4d76 06       		.byte	0x6
 13992 4d77 67       		.byte	0x67
 13993 4d78 4E       		.uleb128 0x4e
 13994 4d79 53280000 		.4byte	.LASF773
 13995 4d7d 53280000 		.4byte	.LASF773
 13996 4d81 06       		.byte	0x6
 13997 4d82 C3       		.byte	0xc3
 13998 4d83 4E       		.uleb128 0x4e
 13999 4d84 34230000 		.4byte	.LASF774
 14000 4d88 34230000 		.4byte	.LASF774
 14001 4d8c 1F       		.byte	0x1f
 14002 4d8d 9A       		.byte	0x9a
 14003 4d8e 4E       		.uleb128 0x4e
 14004 4d8f F11A0000 		.4byte	.LASF775
 14005 4d93 F11A0000 		.4byte	.LASF775
 14006 4d97 1F       		.byte	0x1f
 14007 4d98 B0       		.byte	0xb0
 14008 4d99 4E       		.uleb128 0x4e
 14009 4d9a 20170000 		.4byte	.LASF776
 14010 4d9e 20170000 		.4byte	.LASF776
 14011 4da2 21       		.byte	0x21
 14012 4da3 99       		.byte	0x99
 14013 4da4 4E       		.uleb128 0x4e
 14014 4da5 5F090000 		.4byte	.LASF777
 14015 4da9 5F090000 		.4byte	.LASF777
 14016 4dad 21       		.byte	0x21
 14017 4dae BF       		.byte	0xbf
 14018 4daf 4F       		.uleb128 0x4f
 14019 4db0 F6000000 		.4byte	.LASF778
 14020 4db4 F6000000 		.4byte	.LASF778
ARM GAS  C:\Users\haske\AppData\Local\Temp\ccmHbbn5.s 			page 278


 14021 4db8 02       		.byte	0x2
 14022 4db9 4402     		.2byte	0x244
 14023 4dbb 4F       		.uleb128 0x4f
 14024 4dbc 19010000 		.4byte	.LASF779
 14025 4dc0 19010000 		.4byte	.LASF779
 14026 4dc4 02       		.byte	0x2
 14027 4dc5 4502     		.2byte	0x245
 14028 4dc7 4F       		.uleb128 0x4f
 14029 4dc8 EE140000 		.4byte	.LASF780
 14030 4dcc EE140000 		.4byte	.LASF780
 14031 4dd0 02       		.byte	0x2
 14032 4dd1 4302     		.2byte	0x243
 14033 4dd3 00       		.byte	0
 14034              		.section	.debug_abbrev,"",%progbits
 14035              	.Ldebug_abbrev0:
 14036 0000 01       		.uleb128 0x1
 14037 0001 11       		.uleb128 0x11
 14038 0002 01       		.byte	0x1
 14039 0003 25       		.uleb128 0x25
 14040 0004 0E       		.uleb128 0xe
 14041 0005 13       		.uleb128 0x13
 14042 0006 0B       		.uleb128 0xb
 14043 0007 03       		.uleb128 0x3
 14044 0008 0E       		.uleb128 0xe
 14045 0009 1B       		.uleb128 0x1b
 14046 000a 0E       		.uleb128 0xe
 14047 000b 55       		.uleb128 0x55
 14048 000c 17       		.uleb128 0x17
 14049 000d 11       		.uleb128 0x11
 14050 000e 01       		.uleb128 0x1
 14051 000f 10       		.uleb128 0x10
 14052 0010 17       		.uleb128 0x17
 14053 0011 00       		.byte	0
 14054 0012 00       		.byte	0
 14055 0013 02       		.uleb128 0x2
 14056 0014 16       		.uleb128 0x16
 14057 0015 00       		.byte	0
 14058 0016 03       		.uleb128 0x3
 14059 0017 0E       		.uleb128 0xe
 14060 0018 3A       		.uleb128 0x3a
 14061 0019 0B       		.uleb128 0xb
 14062 001a 3B       		.uleb128 0x3b
 14063 001b 0B       		.uleb128 0xb
 14064 001c 49       		.uleb128 0x49
 14065 001d 13       		.uleb128 0x13
 14066 001e 00       		.byte	0
 14067 001f 00       		.byte	0
 14068 0020 03       		.uleb128 0x3
 14069 0021 24       		.uleb128 0x24
 14070 0022 00       		.byte	0
 14071 0023 0B       		.uleb128 0xb
 14072 0024 0B       		.uleb128 0xb
 14073 0025 3E       		.uleb128 0x3e
 14074 0026 0B       		.uleb128 0xb
 14075 0027 03       		.uleb128 0x3
 14076 0028 0E       		.uleb128 0xe
 14077 0029 00       		.byte	0
ARM GAS  C:\Users\haske\AppData\Local\Temp\ccmHbbn5.s 			page 279


 14078 002a 00       		.byte	0
 14079 002b 04       		.uleb128 0x4
 14080 002c 24       		.uleb128 0x24
 14081 002d 00       		.byte	0
 14082 002e 0B       		.uleb128 0xb
 14083 002f 0B       		.uleb128 0xb
 14084 0030 3E       		.uleb128 0x3e
 14085 0031 0B       		.uleb128 0xb
 14086 0032 03       		.uleb128 0x3
 14087 0033 08       		.uleb128 0x8
 14088 0034 00       		.byte	0
 14089 0035 00       		.byte	0
 14090 0036 05       		.uleb128 0x5
 14091 0037 13       		.uleb128 0x13
 14092 0038 01       		.byte	0x1
 14093 0039 0B       		.uleb128 0xb
 14094 003a 0B       		.uleb128 0xb
 14095 003b 3A       		.uleb128 0x3a
 14096 003c 0B       		.uleb128 0xb
 14097 003d 3B       		.uleb128 0x3b
 14098 003e 0B       		.uleb128 0xb
 14099 003f 01       		.uleb128 0x1
 14100 0040 13       		.uleb128 0x13
 14101 0041 00       		.byte	0
 14102 0042 00       		.byte	0
 14103 0043 06       		.uleb128 0x6
 14104 0044 0D       		.uleb128 0xd
 14105 0045 00       		.byte	0
 14106 0046 03       		.uleb128 0x3
 14107 0047 08       		.uleb128 0x8
 14108 0048 3A       		.uleb128 0x3a
 14109 0049 0B       		.uleb128 0xb
 14110 004a 3B       		.uleb128 0x3b
 14111 004b 0B       		.uleb128 0xb
 14112 004c 49       		.uleb128 0x49
 14113 004d 13       		.uleb128 0x13
 14114 004e 38       		.uleb128 0x38
 14115 004f 0B       		.uleb128 0xb
 14116 0050 00       		.byte	0
 14117 0051 00       		.byte	0
 14118 0052 07       		.uleb128 0x7
 14119 0053 04       		.uleb128 0x4
 14120 0054 01       		.byte	0x1
 14121 0055 0B       		.uleb128 0xb
 14122 0056 0B       		.uleb128 0xb
 14123 0057 49       		.uleb128 0x49
 14124 0058 13       		.uleb128 0x13
 14125 0059 3A       		.uleb128 0x3a
 14126 005a 0B       		.uleb128 0xb
 14127 005b 3B       		.uleb128 0x3b
 14128 005c 0B       		.uleb128 0xb
 14129 005d 01       		.uleb128 0x1
 14130 005e 13       		.uleb128 0x13
 14131 005f 00       		.byte	0
 14132 0060 00       		.byte	0
 14133 0061 08       		.uleb128 0x8
 14134 0062 28       		.uleb128 0x28
ARM GAS  C:\Users\haske\AppData\Local\Temp\ccmHbbn5.s 			page 280


 14135 0063 00       		.byte	0
 14136 0064 03       		.uleb128 0x3
 14137 0065 0E       		.uleb128 0xe
 14138 0066 1C       		.uleb128 0x1c
 14139 0067 0B       		.uleb128 0xb
 14140 0068 00       		.byte	0
 14141 0069 00       		.byte	0
 14142 006a 09       		.uleb128 0x9
 14143 006b 0D       		.uleb128 0xd
 14144 006c 00       		.byte	0
 14145 006d 03       		.uleb128 0x3
 14146 006e 0E       		.uleb128 0xe
 14147 006f 3A       		.uleb128 0x3a
 14148 0070 0B       		.uleb128 0xb
 14149 0071 3B       		.uleb128 0x3b
 14150 0072 0B       		.uleb128 0xb
 14151 0073 49       		.uleb128 0x49
 14152 0074 13       		.uleb128 0x13
 14153 0075 38       		.uleb128 0x38
 14154 0076 0B       		.uleb128 0xb
 14155 0077 00       		.byte	0
 14156 0078 00       		.byte	0
 14157 0079 0A       		.uleb128 0xa
 14158 007a 0D       		.uleb128 0xd
 14159 007b 00       		.byte	0
 14160 007c 03       		.uleb128 0x3
 14161 007d 08       		.uleb128 0x8
 14162 007e 3A       		.uleb128 0x3a
 14163 007f 0B       		.uleb128 0xb
 14164 0080 3B       		.uleb128 0x3b
 14165 0081 0B       		.uleb128 0xb
 14166 0082 49       		.uleb128 0x49
 14167 0083 13       		.uleb128 0x13
 14168 0084 0B       		.uleb128 0xb
 14169 0085 0B       		.uleb128 0xb
 14170 0086 0D       		.uleb128 0xd
 14171 0087 0B       		.uleb128 0xb
 14172 0088 0C       		.uleb128 0xc
 14173 0089 0B       		.uleb128 0xb
 14174 008a 38       		.uleb128 0x38
 14175 008b 0B       		.uleb128 0xb
 14176 008c 00       		.byte	0
 14177 008d 00       		.byte	0
 14178 008e 0B       		.uleb128 0xb
 14179 008f 0D       		.uleb128 0xd
 14180 0090 00       		.byte	0
 14181 0091 03       		.uleb128 0x3
 14182 0092 0E       		.uleb128 0xe
 14183 0093 3A       		.uleb128 0x3a
 14184 0094 0B       		.uleb128 0xb
 14185 0095 3B       		.uleb128 0x3b
 14186 0096 0B       		.uleb128 0xb
 14187 0097 49       		.uleb128 0x49
 14188 0098 13       		.uleb128 0x13
 14189 0099 0B       		.uleb128 0xb
 14190 009a 0B       		.uleb128 0xb
 14191 009b 0D       		.uleb128 0xd
ARM GAS  C:\Users\haske\AppData\Local\Temp\ccmHbbn5.s 			page 281


 14192 009c 0B       		.uleb128 0xb
 14193 009d 0C       		.uleb128 0xc
 14194 009e 0B       		.uleb128 0xb
 14195 009f 38       		.uleb128 0x38
 14196 00a0 0B       		.uleb128 0xb
 14197 00a1 00       		.byte	0
 14198 00a2 00       		.byte	0
 14199 00a3 0C       		.uleb128 0xc
 14200 00a4 13       		.uleb128 0x13
 14201 00a5 01       		.byte	0x1
 14202 00a6 03       		.uleb128 0x3
 14203 00a7 0E       		.uleb128 0xe
 14204 00a8 0B       		.uleb128 0xb
 14205 00a9 0B       		.uleb128 0xb
 14206 00aa 3A       		.uleb128 0x3a
 14207 00ab 0B       		.uleb128 0xb
 14208 00ac 3B       		.uleb128 0x3b
 14209 00ad 0B       		.uleb128 0xb
 14210 00ae 01       		.uleb128 0x1
 14211 00af 13       		.uleb128 0x13
 14212 00b0 00       		.byte	0
 14213 00b1 00       		.byte	0
 14214 00b2 0D       		.uleb128 0xd
 14215 00b3 0F       		.uleb128 0xf
 14216 00b4 00       		.byte	0
 14217 00b5 0B       		.uleb128 0xb
 14218 00b6 0B       		.uleb128 0xb
 14219 00b7 49       		.uleb128 0x49
 14220 00b8 13       		.uleb128 0x13
 14221 00b9 00       		.byte	0
 14222 00ba 00       		.byte	0
 14223 00bb 0E       		.uleb128 0xe
 14224 00bc 26       		.uleb128 0x26
 14225 00bd 00       		.byte	0
 14226 00be 49       		.uleb128 0x49
 14227 00bf 13       		.uleb128 0x13
 14228 00c0 00       		.byte	0
 14229 00c1 00       		.byte	0
 14230 00c2 0F       		.uleb128 0xf
 14231 00c3 15       		.uleb128 0x15
 14232 00c4 01       		.byte	0x1
 14233 00c5 27       		.uleb128 0x27
 14234 00c6 19       		.uleb128 0x19
 14235 00c7 49       		.uleb128 0x49
 14236 00c8 13       		.uleb128 0x13
 14237 00c9 01       		.uleb128 0x1
 14238 00ca 13       		.uleb128 0x13
 14239 00cb 00       		.byte	0
 14240 00cc 00       		.byte	0
 14241 00cd 10       		.uleb128 0x10
 14242 00ce 05       		.uleb128 0x5
 14243 00cf 00       		.byte	0
 14244 00d0 49       		.uleb128 0x49
 14245 00d1 13       		.uleb128 0x13
 14246 00d2 00       		.byte	0
 14247 00d3 00       		.byte	0
 14248 00d4 11       		.uleb128 0x11
ARM GAS  C:\Users\haske\AppData\Local\Temp\ccmHbbn5.s 			page 282


 14249 00d5 26       		.uleb128 0x26
 14250 00d6 00       		.byte	0
 14251 00d7 00       		.byte	0
 14252 00d8 00       		.byte	0
 14253 00d9 12       		.uleb128 0x12
 14254 00da 0F       		.uleb128 0xf
 14255 00db 00       		.byte	0
 14256 00dc 0B       		.uleb128 0xb
 14257 00dd 0B       		.uleb128 0xb
 14258 00de 00       		.byte	0
 14259 00df 00       		.byte	0
 14260 00e0 13       		.uleb128 0x13
 14261 00e1 17       		.uleb128 0x17
 14262 00e2 01       		.byte	0x1
 14263 00e3 0B       		.uleb128 0xb
 14264 00e4 0B       		.uleb128 0xb
 14265 00e5 3A       		.uleb128 0x3a
 14266 00e6 0B       		.uleb128 0xb
 14267 00e7 3B       		.uleb128 0x3b
 14268 00e8 0B       		.uleb128 0xb
 14269 00e9 01       		.uleb128 0x1
 14270 00ea 13       		.uleb128 0x13
 14271 00eb 00       		.byte	0
 14272 00ec 00       		.byte	0
 14273 00ed 14       		.uleb128 0x14
 14274 00ee 0D       		.uleb128 0xd
 14275 00ef 00       		.byte	0
 14276 00f0 03       		.uleb128 0x3
 14277 00f1 08       		.uleb128 0x8
 14278 00f2 3A       		.uleb128 0x3a
 14279 00f3 0B       		.uleb128 0xb
 14280 00f4 3B       		.uleb128 0x3b
 14281 00f5 0B       		.uleb128 0xb
 14282 00f6 49       		.uleb128 0x49
 14283 00f7 13       		.uleb128 0x13
 14284 00f8 00       		.byte	0
 14285 00f9 00       		.byte	0
 14286 00fa 15       		.uleb128 0x15
 14287 00fb 0D       		.uleb128 0xd
 14288 00fc 00       		.byte	0
 14289 00fd 03       		.uleb128 0x3
 14290 00fe 0E       		.uleb128 0xe
 14291 00ff 3A       		.uleb128 0x3a
 14292 0100 0B       		.uleb128 0xb
 14293 0101 3B       		.uleb128 0x3b
 14294 0102 0B       		.uleb128 0xb
 14295 0103 49       		.uleb128 0x49
 14296 0104 13       		.uleb128 0x13
 14297 0105 00       		.byte	0
 14298 0106 00       		.byte	0
 14299 0107 16       		.uleb128 0x16
 14300 0108 01       		.uleb128 0x1
 14301 0109 01       		.byte	0x1
 14302 010a 49       		.uleb128 0x49
 14303 010b 13       		.uleb128 0x13
 14304 010c 01       		.uleb128 0x1
 14305 010d 13       		.uleb128 0x13
ARM GAS  C:\Users\haske\AppData\Local\Temp\ccmHbbn5.s 			page 283


 14306 010e 00       		.byte	0
 14307 010f 00       		.byte	0
 14308 0110 17       		.uleb128 0x17
 14309 0111 21       		.uleb128 0x21
 14310 0112 00       		.byte	0
 14311 0113 49       		.uleb128 0x49
 14312 0114 13       		.uleb128 0x13
 14313 0115 2F       		.uleb128 0x2f
 14314 0116 0B       		.uleb128 0xb
 14315 0117 00       		.byte	0
 14316 0118 00       		.byte	0
 14317 0119 18       		.uleb128 0x18
 14318 011a 28       		.uleb128 0x28
 14319 011b 00       		.byte	0
 14320 011c 03       		.uleb128 0x3
 14321 011d 0E       		.uleb128 0xe
 14322 011e 1C       		.uleb128 0x1c
 14323 011f 05       		.uleb128 0x5
 14324 0120 00       		.byte	0
 14325 0121 00       		.byte	0
 14326 0122 19       		.uleb128 0x19
 14327 0123 16       		.uleb128 0x16
 14328 0124 00       		.byte	0
 14329 0125 03       		.uleb128 0x3
 14330 0126 0E       		.uleb128 0xe
 14331 0127 3A       		.uleb128 0x3a
 14332 0128 0B       		.uleb128 0xb
 14333 0129 3B       		.uleb128 0x3b
 14334 012a 05       		.uleb128 0x5
 14335 012b 49       		.uleb128 0x49
 14336 012c 13       		.uleb128 0x13
 14337 012d 00       		.byte	0
 14338 012e 00       		.byte	0
 14339 012f 1A       		.uleb128 0x1a
 14340 0130 13       		.uleb128 0x13
 14341 0131 01       		.byte	0x1
 14342 0132 0B       		.uleb128 0xb
 14343 0133 0B       		.uleb128 0xb
 14344 0134 3A       		.uleb128 0x3a
 14345 0135 0B       		.uleb128 0xb
 14346 0136 3B       		.uleb128 0x3b
 14347 0137 05       		.uleb128 0x5
 14348 0138 01       		.uleb128 0x1
 14349 0139 13       		.uleb128 0x13
 14350 013a 00       		.byte	0
 14351 013b 00       		.byte	0
 14352 013c 1B       		.uleb128 0x1b
 14353 013d 0D       		.uleb128 0xd
 14354 013e 00       		.byte	0
 14355 013f 03       		.uleb128 0x3
 14356 0140 0E       		.uleb128 0xe
 14357 0141 3A       		.uleb128 0x3a
 14358 0142 0B       		.uleb128 0xb
 14359 0143 3B       		.uleb128 0x3b
 14360 0144 05       		.uleb128 0x5
 14361 0145 49       		.uleb128 0x49
 14362 0146 13       		.uleb128 0x13
ARM GAS  C:\Users\haske\AppData\Local\Temp\ccmHbbn5.s 			page 284


 14363 0147 38       		.uleb128 0x38
 14364 0148 0B       		.uleb128 0xb
 14365 0149 00       		.byte	0
 14366 014a 00       		.byte	0
 14367 014b 1C       		.uleb128 0x1c
 14368 014c 17       		.uleb128 0x17
 14369 014d 01       		.byte	0x1
 14370 014e 0B       		.uleb128 0xb
 14371 014f 0B       		.uleb128 0xb
 14372 0150 3A       		.uleb128 0x3a
 14373 0151 0B       		.uleb128 0xb
 14374 0152 3B       		.uleb128 0x3b
 14375 0153 05       		.uleb128 0x5
 14376 0154 01       		.uleb128 0x1
 14377 0155 13       		.uleb128 0x13
 14378 0156 00       		.byte	0
 14379 0157 00       		.byte	0
 14380 0158 1D       		.uleb128 0x1d
 14381 0159 0D       		.uleb128 0xd
 14382 015a 00       		.byte	0
 14383 015b 03       		.uleb128 0x3
 14384 015c 0E       		.uleb128 0xe
 14385 015d 3A       		.uleb128 0x3a
 14386 015e 0B       		.uleb128 0xb
 14387 015f 3B       		.uleb128 0x3b
 14388 0160 05       		.uleb128 0x5
 14389 0161 49       		.uleb128 0x49
 14390 0162 13       		.uleb128 0x13
 14391 0163 00       		.byte	0
 14392 0164 00       		.byte	0
 14393 0165 1E       		.uleb128 0x1e
 14394 0166 0D       		.uleb128 0xd
 14395 0167 00       		.byte	0
 14396 0168 03       		.uleb128 0x3
 14397 0169 08       		.uleb128 0x8
 14398 016a 3A       		.uleb128 0x3a
 14399 016b 0B       		.uleb128 0xb
 14400 016c 3B       		.uleb128 0x3b
 14401 016d 05       		.uleb128 0x5
 14402 016e 49       		.uleb128 0x49
 14403 016f 13       		.uleb128 0x13
 14404 0170 38       		.uleb128 0x38
 14405 0171 0B       		.uleb128 0xb
 14406 0172 00       		.byte	0
 14407 0173 00       		.byte	0
 14408 0174 1F       		.uleb128 0x1f
 14409 0175 15       		.uleb128 0x15
 14410 0176 01       		.byte	0x1
 14411 0177 27       		.uleb128 0x27
 14412 0178 19       		.uleb128 0x19
 14413 0179 01       		.uleb128 0x1
 14414 017a 13       		.uleb128 0x13
 14415 017b 00       		.byte	0
 14416 017c 00       		.byte	0
 14417 017d 20       		.uleb128 0x20
 14418 017e 35       		.uleb128 0x35
 14419 017f 00       		.byte	0
ARM GAS  C:\Users\haske\AppData\Local\Temp\ccmHbbn5.s 			page 285


 14420 0180 49       		.uleb128 0x49
 14421 0181 13       		.uleb128 0x13
 14422 0182 00       		.byte	0
 14423 0183 00       		.byte	0
 14424 0184 21       		.uleb128 0x21
 14425 0185 13       		.uleb128 0x13
 14426 0186 01       		.byte	0x1
 14427 0187 03       		.uleb128 0x3
 14428 0188 0E       		.uleb128 0xe
 14429 0189 0B       		.uleb128 0xb
 14430 018a 05       		.uleb128 0x5
 14431 018b 3A       		.uleb128 0x3a
 14432 018c 0B       		.uleb128 0xb
 14433 018d 3B       		.uleb128 0x3b
 14434 018e 0B       		.uleb128 0xb
 14435 018f 01       		.uleb128 0x1
 14436 0190 13       		.uleb128 0x13
 14437 0191 00       		.byte	0
 14438 0192 00       		.byte	0
 14439 0193 22       		.uleb128 0x22
 14440 0194 0D       		.uleb128 0xd
 14441 0195 00       		.byte	0
 14442 0196 03       		.uleb128 0x3
 14443 0197 0E       		.uleb128 0xe
 14444 0198 3A       		.uleb128 0x3a
 14445 0199 0B       		.uleb128 0xb
 14446 019a 3B       		.uleb128 0x3b
 14447 019b 0B       		.uleb128 0xb
 14448 019c 49       		.uleb128 0x49
 14449 019d 13       		.uleb128 0x13
 14450 019e 38       		.uleb128 0x38
 14451 019f 05       		.uleb128 0x5
 14452 01a0 00       		.byte	0
 14453 01a1 00       		.byte	0
 14454 01a2 23       		.uleb128 0x23
 14455 01a3 13       		.uleb128 0x13
 14456 01a4 00       		.byte	0
 14457 01a5 03       		.uleb128 0x3
 14458 01a6 0E       		.uleb128 0xe
 14459 01a7 3C       		.uleb128 0x3c
 14460 01a8 19       		.uleb128 0x19
 14461 01a9 00       		.byte	0
 14462 01aa 00       		.byte	0
 14463 01ab 24       		.uleb128 0x24
 14464 01ac 28       		.uleb128 0x28
 14465 01ad 00       		.byte	0
 14466 01ae 03       		.uleb128 0x3
 14467 01af 0E       		.uleb128 0xe
 14468 01b0 1C       		.uleb128 0x1c
 14469 01b1 06       		.uleb128 0x6
 14470 01b2 00       		.byte	0
 14471 01b3 00       		.byte	0
 14472 01b4 25       		.uleb128 0x25
 14473 01b5 2E       		.uleb128 0x2e
 14474 01b6 01       		.byte	0x1
 14475 01b7 03       		.uleb128 0x3
 14476 01b8 0E       		.uleb128 0xe
ARM GAS  C:\Users\haske\AppData\Local\Temp\ccmHbbn5.s 			page 286


 14477 01b9 3A       		.uleb128 0x3a
 14478 01ba 0B       		.uleb128 0xb
 14479 01bb 3B       		.uleb128 0x3b
 14480 01bc 0B       		.uleb128 0xb
 14481 01bd 27       		.uleb128 0x27
 14482 01be 19       		.uleb128 0x19
 14483 01bf 49       		.uleb128 0x49
 14484 01c0 13       		.uleb128 0x13
 14485 01c1 20       		.uleb128 0x20
 14486 01c2 0B       		.uleb128 0xb
 14487 01c3 01       		.uleb128 0x1
 14488 01c4 13       		.uleb128 0x13
 14489 01c5 00       		.byte	0
 14490 01c6 00       		.byte	0
 14491 01c7 26       		.uleb128 0x26
 14492 01c8 05       		.uleb128 0x5
 14493 01c9 00       		.byte	0
 14494 01ca 03       		.uleb128 0x3
 14495 01cb 08       		.uleb128 0x8
 14496 01cc 3A       		.uleb128 0x3a
 14497 01cd 0B       		.uleb128 0xb
 14498 01ce 3B       		.uleb128 0x3b
 14499 01cf 0B       		.uleb128 0xb
 14500 01d0 49       		.uleb128 0x49
 14501 01d1 13       		.uleb128 0x13
 14502 01d2 00       		.byte	0
 14503 01d3 00       		.byte	0
 14504 01d4 27       		.uleb128 0x27
 14505 01d5 05       		.uleb128 0x5
 14506 01d6 00       		.byte	0
 14507 01d7 03       		.uleb128 0x3
 14508 01d8 0E       		.uleb128 0xe
 14509 01d9 3A       		.uleb128 0x3a
 14510 01da 0B       		.uleb128 0xb
 14511 01db 3B       		.uleb128 0x3b
 14512 01dc 0B       		.uleb128 0xb
 14513 01dd 49       		.uleb128 0x49
 14514 01de 13       		.uleb128 0x13
 14515 01df 00       		.byte	0
 14516 01e0 00       		.byte	0
 14517 01e1 28       		.uleb128 0x28
 14518 01e2 34       		.uleb128 0x34
 14519 01e3 00       		.byte	0
 14520 01e4 03       		.uleb128 0x3
 14521 01e5 08       		.uleb128 0x8
 14522 01e6 3A       		.uleb128 0x3a
 14523 01e7 0B       		.uleb128 0xb
 14524 01e8 3B       		.uleb128 0x3b
 14525 01e9 0B       		.uleb128 0xb
 14526 01ea 49       		.uleb128 0x49
 14527 01eb 13       		.uleb128 0x13
 14528 01ec 00       		.byte	0
 14529 01ed 00       		.byte	0
 14530 01ee 29       		.uleb128 0x29
 14531 01ef 2E       		.uleb128 0x2e
 14532 01f0 01       		.byte	0x1
 14533 01f1 03       		.uleb128 0x3
ARM GAS  C:\Users\haske\AppData\Local\Temp\ccmHbbn5.s 			page 287


 14534 01f2 0E       		.uleb128 0xe
 14535 01f3 3A       		.uleb128 0x3a
 14536 01f4 0B       		.uleb128 0xb
 14537 01f5 3B       		.uleb128 0x3b
 14538 01f6 05       		.uleb128 0x5
 14539 01f7 27       		.uleb128 0x27
 14540 01f8 19       		.uleb128 0x19
 14541 01f9 49       		.uleb128 0x49
 14542 01fa 13       		.uleb128 0x13
 14543 01fb 20       		.uleb128 0x20
 14544 01fc 0B       		.uleb128 0xb
 14545 01fd 01       		.uleb128 0x1
 14546 01fe 13       		.uleb128 0x13
 14547 01ff 00       		.byte	0
 14548 0200 00       		.byte	0
 14549 0201 2A       		.uleb128 0x2a
 14550 0202 05       		.uleb128 0x5
 14551 0203 00       		.byte	0
 14552 0204 03       		.uleb128 0x3
 14553 0205 08       		.uleb128 0x8
 14554 0206 3A       		.uleb128 0x3a
 14555 0207 0B       		.uleb128 0xb
 14556 0208 3B       		.uleb128 0x3b
 14557 0209 05       		.uleb128 0x5
 14558 020a 49       		.uleb128 0x49
 14559 020b 13       		.uleb128 0x13
 14560 020c 00       		.byte	0
 14561 020d 00       		.byte	0
 14562 020e 2B       		.uleb128 0x2b
 14563 020f 05       		.uleb128 0x5
 14564 0210 00       		.byte	0
 14565 0211 03       		.uleb128 0x3
 14566 0212 0E       		.uleb128 0xe
 14567 0213 3A       		.uleb128 0x3a
 14568 0214 0B       		.uleb128 0xb
 14569 0215 3B       		.uleb128 0x3b
 14570 0216 05       		.uleb128 0x5
 14571 0217 49       		.uleb128 0x49
 14572 0218 13       		.uleb128 0x13
 14573 0219 00       		.byte	0
 14574 021a 00       		.byte	0
 14575 021b 2C       		.uleb128 0x2c
 14576 021c 34       		.uleb128 0x34
 14577 021d 00       		.byte	0
 14578 021e 03       		.uleb128 0x3
 14579 021f 08       		.uleb128 0x8
 14580 0220 3A       		.uleb128 0x3a
 14581 0221 0B       		.uleb128 0xb
 14582 0222 3B       		.uleb128 0x3b
 14583 0223 05       		.uleb128 0x5
 14584 0224 49       		.uleb128 0x49
 14585 0225 13       		.uleb128 0x13
 14586 0226 00       		.byte	0
 14587 0227 00       		.byte	0
 14588 0228 2D       		.uleb128 0x2d
 14589 0229 2E       		.uleb128 0x2e
 14590 022a 01       		.byte	0x1
ARM GAS  C:\Users\haske\AppData\Local\Temp\ccmHbbn5.s 			page 288


 14591 022b 03       		.uleb128 0x3
 14592 022c 0E       		.uleb128 0xe
 14593 022d 3A       		.uleb128 0x3a
 14594 022e 0B       		.uleb128 0xb
 14595 022f 3B       		.uleb128 0x3b
 14596 0230 05       		.uleb128 0x5
 14597 0231 27       		.uleb128 0x27
 14598 0232 19       		.uleb128 0x19
 14599 0233 49       		.uleb128 0x49
 14600 0234 13       		.uleb128 0x13
 14601 0235 11       		.uleb128 0x11
 14602 0236 01       		.uleb128 0x1
 14603 0237 12       		.uleb128 0x12
 14604 0238 06       		.uleb128 0x6
 14605 0239 40       		.uleb128 0x40
 14606 023a 18       		.uleb128 0x18
 14607 023b 9742     		.uleb128 0x2117
 14608 023d 19       		.uleb128 0x19
 14609 023e 01       		.uleb128 0x1
 14610 023f 13       		.uleb128 0x13
 14611 0240 00       		.byte	0
 14612 0241 00       		.byte	0
 14613 0242 2E       		.uleb128 0x2e
 14614 0243 05       		.uleb128 0x5
 14615 0244 00       		.byte	0
 14616 0245 03       		.uleb128 0x3
 14617 0246 08       		.uleb128 0x8
 14618 0247 3A       		.uleb128 0x3a
 14619 0248 0B       		.uleb128 0xb
 14620 0249 3B       		.uleb128 0x3b
 14621 024a 05       		.uleb128 0x5
 14622 024b 49       		.uleb128 0x49
 14623 024c 13       		.uleb128 0x13
 14624 024d 02       		.uleb128 0x2
 14625 024e 17       		.uleb128 0x17
 14626 024f 00       		.byte	0
 14627 0250 00       		.byte	0
 14628 0251 2F       		.uleb128 0x2f
 14629 0252 34       		.uleb128 0x34
 14630 0253 00       		.byte	0
 14631 0254 03       		.uleb128 0x3
 14632 0255 08       		.uleb128 0x8
 14633 0256 3A       		.uleb128 0x3a
 14634 0257 0B       		.uleb128 0xb
 14635 0258 3B       		.uleb128 0x3b
 14636 0259 05       		.uleb128 0x5
 14637 025a 49       		.uleb128 0x49
 14638 025b 13       		.uleb128 0x13
 14639 025c 02       		.uleb128 0x2
 14640 025d 17       		.uleb128 0x17
 14641 025e 00       		.byte	0
 14642 025f 00       		.byte	0
 14643 0260 30       		.uleb128 0x30
 14644 0261 34       		.uleb128 0x34
 14645 0262 00       		.byte	0
 14646 0263 03       		.uleb128 0x3
 14647 0264 0E       		.uleb128 0xe
ARM GAS  C:\Users\haske\AppData\Local\Temp\ccmHbbn5.s 			page 289


 14648 0265 3A       		.uleb128 0x3a
 14649 0266 0B       		.uleb128 0xb
 14650 0267 3B       		.uleb128 0x3b
 14651 0268 05       		.uleb128 0x5
 14652 0269 49       		.uleb128 0x49
 14653 026a 13       		.uleb128 0x13
 14654 026b 02       		.uleb128 0x2
 14655 026c 17       		.uleb128 0x17
 14656 026d 00       		.byte	0
 14657 026e 00       		.byte	0
 14658 026f 31       		.uleb128 0x31
 14659 0270 0B       		.uleb128 0xb
 14660 0271 01       		.byte	0x1
 14661 0272 11       		.uleb128 0x11
 14662 0273 01       		.uleb128 0x1
 14663 0274 12       		.uleb128 0x12
 14664 0275 06       		.uleb128 0x6
 14665 0276 00       		.byte	0
 14666 0277 00       		.byte	0
 14667 0278 32       		.uleb128 0x32
 14668 0279 2E       		.uleb128 0x2e
 14669 027a 01       		.byte	0x1
 14670 027b 03       		.uleb128 0x3
 14671 027c 0E       		.uleb128 0xe
 14672 027d 3A       		.uleb128 0x3a
 14673 027e 0B       		.uleb128 0xb
 14674 027f 3B       		.uleb128 0x3b
 14675 0280 05       		.uleb128 0x5
 14676 0281 27       		.uleb128 0x27
 14677 0282 19       		.uleb128 0x19
 14678 0283 11       		.uleb128 0x11
 14679 0284 01       		.uleb128 0x1
 14680 0285 12       		.uleb128 0x12
 14681 0286 06       		.uleb128 0x6
 14682 0287 40       		.uleb128 0x40
 14683 0288 18       		.uleb128 0x18
 14684 0289 9742     		.uleb128 0x2117
 14685 028b 19       		.uleb128 0x19
 14686 028c 01       		.uleb128 0x1
 14687 028d 13       		.uleb128 0x13
 14688 028e 00       		.byte	0
 14689 028f 00       		.byte	0
 14690 0290 33       		.uleb128 0x33
 14691 0291 05       		.uleb128 0x5
 14692 0292 00       		.byte	0
 14693 0293 03       		.uleb128 0x3
 14694 0294 0E       		.uleb128 0xe
 14695 0295 3A       		.uleb128 0x3a
 14696 0296 0B       		.uleb128 0xb
 14697 0297 3B       		.uleb128 0x3b
 14698 0298 05       		.uleb128 0x5
 14699 0299 49       		.uleb128 0x49
 14700 029a 13       		.uleb128 0x13
 14701 029b 02       		.uleb128 0x2
 14702 029c 17       		.uleb128 0x17
 14703 029d 00       		.byte	0
 14704 029e 00       		.byte	0
ARM GAS  C:\Users\haske\AppData\Local\Temp\ccmHbbn5.s 			page 290


 14705 029f 34       		.uleb128 0x34
 14706 02a0 34       		.uleb128 0x34
 14707 02a1 00       		.byte	0
 14708 02a2 03       		.uleb128 0x3
 14709 02a3 0E       		.uleb128 0xe
 14710 02a4 3A       		.uleb128 0x3a
 14711 02a5 0B       		.uleb128 0xb
 14712 02a6 3B       		.uleb128 0x3b
 14713 02a7 05       		.uleb128 0x5
 14714 02a8 49       		.uleb128 0x49
 14715 02a9 13       		.uleb128 0x13
 14716 02aa 00       		.byte	0
 14717 02ab 00       		.byte	0
 14718 02ac 35       		.uleb128 0x35
 14719 02ad 1D       		.uleb128 0x1d
 14720 02ae 01       		.byte	0x1
 14721 02af 31       		.uleb128 0x31
 14722 02b0 13       		.uleb128 0x13
 14723 02b1 11       		.uleb128 0x11
 14724 02b2 01       		.uleb128 0x1
 14725 02b3 12       		.uleb128 0x12
 14726 02b4 06       		.uleb128 0x6
 14727 02b5 58       		.uleb128 0x58
 14728 02b6 0B       		.uleb128 0xb
 14729 02b7 59       		.uleb128 0x59
 14730 02b8 05       		.uleb128 0x5
 14731 02b9 01       		.uleb128 0x1
 14732 02ba 13       		.uleb128 0x13
 14733 02bb 00       		.byte	0
 14734 02bc 00       		.byte	0
 14735 02bd 36       		.uleb128 0x36
 14736 02be 05       		.uleb128 0x5
 14737 02bf 00       		.byte	0
 14738 02c0 31       		.uleb128 0x31
 14739 02c1 13       		.uleb128 0x13
 14740 02c2 02       		.uleb128 0x2
 14741 02c3 17       		.uleb128 0x17
 14742 02c4 00       		.byte	0
 14743 02c5 00       		.byte	0
 14744 02c6 37       		.uleb128 0x37
 14745 02c7 34       		.uleb128 0x34
 14746 02c8 00       		.byte	0
 14747 02c9 31       		.uleb128 0x31
 14748 02ca 13       		.uleb128 0x13
 14749 02cb 00       		.byte	0
 14750 02cc 00       		.byte	0
 14751 02cd 38       		.uleb128 0x38
 14752 02ce 898201   		.uleb128 0x4109
 14753 02d1 01       		.byte	0x1
 14754 02d2 11       		.uleb128 0x11
 14755 02d3 01       		.uleb128 0x1
 14756 02d4 31       		.uleb128 0x31
 14757 02d5 13       		.uleb128 0x13
 14758 02d6 00       		.byte	0
 14759 02d7 00       		.byte	0
 14760 02d8 39       		.uleb128 0x39
 14761 02d9 8A8201   		.uleb128 0x410a
ARM GAS  C:\Users\haske\AppData\Local\Temp\ccmHbbn5.s 			page 291


 14762 02dc 00       		.byte	0
 14763 02dd 02       		.uleb128 0x2
 14764 02de 18       		.uleb128 0x18
 14765 02df 9142     		.uleb128 0x2111
 14766 02e1 18       		.uleb128 0x18
 14767 02e2 00       		.byte	0
 14768 02e3 00       		.byte	0
 14769 02e4 3A       		.uleb128 0x3a
 14770 02e5 898201   		.uleb128 0x4109
 14771 02e8 01       		.byte	0x1
 14772 02e9 11       		.uleb128 0x11
 14773 02ea 01       		.uleb128 0x1
 14774 02eb 31       		.uleb128 0x31
 14775 02ec 13       		.uleb128 0x13
 14776 02ed 01       		.uleb128 0x1
 14777 02ee 13       		.uleb128 0x13
 14778 02ef 00       		.byte	0
 14779 02f0 00       		.byte	0
 14780 02f1 3B       		.uleb128 0x3b
 14781 02f2 34       		.uleb128 0x34
 14782 02f3 00       		.byte	0
 14783 02f4 31       		.uleb128 0x31
 14784 02f5 13       		.uleb128 0x13
 14785 02f6 02       		.uleb128 0x2
 14786 02f7 17       		.uleb128 0x17
 14787 02f8 00       		.byte	0
 14788 02f9 00       		.byte	0
 14789 02fa 3C       		.uleb128 0x3c
 14790 02fb 1D       		.uleb128 0x1d
 14791 02fc 01       		.byte	0x1
 14792 02fd 31       		.uleb128 0x31
 14793 02fe 13       		.uleb128 0x13
 14794 02ff 11       		.uleb128 0x11
 14795 0300 01       		.uleb128 0x1
 14796 0301 12       		.uleb128 0x12
 14797 0302 06       		.uleb128 0x6
 14798 0303 58       		.uleb128 0x58
 14799 0304 0B       		.uleb128 0xb
 14800 0305 59       		.uleb128 0x59
 14801 0306 05       		.uleb128 0x5
 14802 0307 00       		.byte	0
 14803 0308 00       		.byte	0
 14804 0309 3D       		.uleb128 0x3d
 14805 030a 34       		.uleb128 0x34
 14806 030b 00       		.byte	0
 14807 030c 03       		.uleb128 0x3
 14808 030d 0E       		.uleb128 0xe
 14809 030e 3A       		.uleb128 0x3a
 14810 030f 0B       		.uleb128 0xb
 14811 0310 3B       		.uleb128 0x3b
 14812 0311 05       		.uleb128 0x5
 14813 0312 49       		.uleb128 0x49
 14814 0313 13       		.uleb128 0x13
 14815 0314 02       		.uleb128 0x2
 14816 0315 18       		.uleb128 0x18
 14817 0316 00       		.byte	0
 14818 0317 00       		.byte	0
ARM GAS  C:\Users\haske\AppData\Local\Temp\ccmHbbn5.s 			page 292


 14819 0318 3E       		.uleb128 0x3e
 14820 0319 898201   		.uleb128 0x4109
 14821 031c 00       		.byte	0
 14822 031d 11       		.uleb128 0x11
 14823 031e 01       		.uleb128 0x1
 14824 031f 31       		.uleb128 0x31
 14825 0320 13       		.uleb128 0x13
 14826 0321 00       		.byte	0
 14827 0322 00       		.byte	0
 14828 0323 3F       		.uleb128 0x3f
 14829 0324 34       		.uleb128 0x34
 14830 0325 00       		.byte	0
 14831 0326 03       		.uleb128 0x3
 14832 0327 08       		.uleb128 0x8
 14833 0328 3A       		.uleb128 0x3a
 14834 0329 0B       		.uleb128 0xb
 14835 032a 3B       		.uleb128 0x3b
 14836 032b 05       		.uleb128 0x5
 14837 032c 49       		.uleb128 0x49
 14838 032d 13       		.uleb128 0x13
 14839 032e 02       		.uleb128 0x2
 14840 032f 18       		.uleb128 0x18
 14841 0330 00       		.byte	0
 14842 0331 00       		.byte	0
 14843 0332 40       		.uleb128 0x40
 14844 0333 2E       		.uleb128 0x2e
 14845 0334 01       		.byte	0x1
 14846 0335 3F       		.uleb128 0x3f
 14847 0336 19       		.uleb128 0x19
 14848 0337 03       		.uleb128 0x3
 14849 0338 0E       		.uleb128 0xe
 14850 0339 3A       		.uleb128 0x3a
 14851 033a 0B       		.uleb128 0xb
 14852 033b 3B       		.uleb128 0x3b
 14853 033c 0B       		.uleb128 0xb
 14854 033d 27       		.uleb128 0x27
 14855 033e 19       		.uleb128 0x19
 14856 033f 49       		.uleb128 0x49
 14857 0340 13       		.uleb128 0x13
 14858 0341 11       		.uleb128 0x11
 14859 0342 01       		.uleb128 0x1
 14860 0343 12       		.uleb128 0x12
 14861 0344 06       		.uleb128 0x6
 14862 0345 40       		.uleb128 0x40
 14863 0346 18       		.uleb128 0x18
 14864 0347 9742     		.uleb128 0x2117
 14865 0349 19       		.uleb128 0x19
 14866 034a 01       		.uleb128 0x1
 14867 034b 13       		.uleb128 0x13
 14868 034c 00       		.byte	0
 14869 034d 00       		.byte	0
 14870 034e 41       		.uleb128 0x41
 14871 034f 05       		.uleb128 0x5
 14872 0350 00       		.byte	0
 14873 0351 03       		.uleb128 0x3
 14874 0352 0E       		.uleb128 0xe
 14875 0353 3A       		.uleb128 0x3a
ARM GAS  C:\Users\haske\AppData\Local\Temp\ccmHbbn5.s 			page 293


 14876 0354 0B       		.uleb128 0xb
 14877 0355 3B       		.uleb128 0x3b
 14878 0356 0B       		.uleb128 0xb
 14879 0357 49       		.uleb128 0x49
 14880 0358 13       		.uleb128 0x13
 14881 0359 02       		.uleb128 0x2
 14882 035a 17       		.uleb128 0x17
 14883 035b 00       		.byte	0
 14884 035c 00       		.byte	0
 14885 035d 42       		.uleb128 0x42
 14886 035e 34       		.uleb128 0x34
 14887 035f 00       		.byte	0
 14888 0360 03       		.uleb128 0x3
 14889 0361 08       		.uleb128 0x8
 14890 0362 3A       		.uleb128 0x3a
 14891 0363 0B       		.uleb128 0xb
 14892 0364 3B       		.uleb128 0x3b
 14893 0365 0B       		.uleb128 0xb
 14894 0366 49       		.uleb128 0x49
 14895 0367 13       		.uleb128 0x13
 14896 0368 02       		.uleb128 0x2
 14897 0369 17       		.uleb128 0x17
 14898 036a 00       		.byte	0
 14899 036b 00       		.byte	0
 14900 036c 43       		.uleb128 0x43
 14901 036d 2E       		.uleb128 0x2e
 14902 036e 01       		.byte	0x1
 14903 036f 3F       		.uleb128 0x3f
 14904 0370 19       		.uleb128 0x19
 14905 0371 03       		.uleb128 0x3
 14906 0372 0E       		.uleb128 0xe
 14907 0373 3A       		.uleb128 0x3a
 14908 0374 0B       		.uleb128 0xb
 14909 0375 3B       		.uleb128 0x3b
 14910 0376 0B       		.uleb128 0xb
 14911 0377 27       		.uleb128 0x27
 14912 0378 19       		.uleb128 0x19
 14913 0379 11       		.uleb128 0x11
 14914 037a 01       		.uleb128 0x1
 14915 037b 12       		.uleb128 0x12
 14916 037c 06       		.uleb128 0x6
 14917 037d 40       		.uleb128 0x40
 14918 037e 18       		.uleb128 0x18
 14919 037f 9742     		.uleb128 0x2117
 14920 0381 19       		.uleb128 0x19
 14921 0382 01       		.uleb128 0x1
 14922 0383 13       		.uleb128 0x13
 14923 0384 00       		.byte	0
 14924 0385 00       		.byte	0
 14925 0386 44       		.uleb128 0x44
 14926 0387 05       		.uleb128 0x5
 14927 0388 00       		.byte	0
 14928 0389 03       		.uleb128 0x3
 14929 038a 08       		.uleb128 0x8
 14930 038b 3A       		.uleb128 0x3a
 14931 038c 0B       		.uleb128 0xb
 14932 038d 3B       		.uleb128 0x3b
ARM GAS  C:\Users\haske\AppData\Local\Temp\ccmHbbn5.s 			page 294


 14933 038e 0B       		.uleb128 0xb
 14934 038f 49       		.uleb128 0x49
 14935 0390 13       		.uleb128 0x13
 14936 0391 02       		.uleb128 0x2
 14937 0392 17       		.uleb128 0x17
 14938 0393 00       		.byte	0
 14939 0394 00       		.byte	0
 14940 0395 45       		.uleb128 0x45
 14941 0396 34       		.uleb128 0x34
 14942 0397 00       		.byte	0
 14943 0398 03       		.uleb128 0x3
 14944 0399 0E       		.uleb128 0xe
 14945 039a 3A       		.uleb128 0x3a
 14946 039b 0B       		.uleb128 0xb
 14947 039c 3B       		.uleb128 0x3b
 14948 039d 0B       		.uleb128 0xb
 14949 039e 49       		.uleb128 0x49
 14950 039f 13       		.uleb128 0x13
 14951 03a0 02       		.uleb128 0x2
 14952 03a1 17       		.uleb128 0x17
 14953 03a2 00       		.byte	0
 14954 03a3 00       		.byte	0
 14955 03a4 46       		.uleb128 0x46
 14956 03a5 2E       		.uleb128 0x2e
 14957 03a6 01       		.byte	0x1
 14958 03a7 3F       		.uleb128 0x3f
 14959 03a8 19       		.uleb128 0x19
 14960 03a9 03       		.uleb128 0x3
 14961 03aa 0E       		.uleb128 0xe
 14962 03ab 3A       		.uleb128 0x3a
 14963 03ac 0B       		.uleb128 0xb
 14964 03ad 3B       		.uleb128 0x3b
 14965 03ae 05       		.uleb128 0x5
 14966 03af 27       		.uleb128 0x27
 14967 03b0 19       		.uleb128 0x19
 14968 03b1 11       		.uleb128 0x11
 14969 03b2 01       		.uleb128 0x1
 14970 03b3 12       		.uleb128 0x12
 14971 03b4 06       		.uleb128 0x6
 14972 03b5 40       		.uleb128 0x40
 14973 03b6 18       		.uleb128 0x18
 14974 03b7 9742     		.uleb128 0x2117
 14975 03b9 19       		.uleb128 0x19
 14976 03ba 01       		.uleb128 0x1
 14977 03bb 13       		.uleb128 0x13
 14978 03bc 00       		.byte	0
 14979 03bd 00       		.byte	0
 14980 03be 47       		.uleb128 0x47
 14981 03bf 05       		.uleb128 0x5
 14982 03c0 00       		.byte	0
 14983 03c1 03       		.uleb128 0x3
 14984 03c2 08       		.uleb128 0x8
 14985 03c3 3A       		.uleb128 0x3a
 14986 03c4 0B       		.uleb128 0xb
 14987 03c5 3B       		.uleb128 0x3b
 14988 03c6 05       		.uleb128 0x5
 14989 03c7 49       		.uleb128 0x49
ARM GAS  C:\Users\haske\AppData\Local\Temp\ccmHbbn5.s 			page 295


 14990 03c8 13       		.uleb128 0x13
 14991 03c9 02       		.uleb128 0x2
 14992 03ca 18       		.uleb128 0x18
 14993 03cb 00       		.byte	0
 14994 03cc 00       		.byte	0
 14995 03cd 48       		.uleb128 0x48
 14996 03ce 05       		.uleb128 0x5
 14997 03cf 00       		.byte	0
 14998 03d0 03       		.uleb128 0x3
 14999 03d1 0E       		.uleb128 0xe
 15000 03d2 3A       		.uleb128 0x3a
 15001 03d3 0B       		.uleb128 0xb
 15002 03d4 3B       		.uleb128 0x3b
 15003 03d5 05       		.uleb128 0x5
 15004 03d6 49       		.uleb128 0x49
 15005 03d7 13       		.uleb128 0x13
 15006 03d8 02       		.uleb128 0x2
 15007 03d9 18       		.uleb128 0x18
 15008 03da 00       		.byte	0
 15009 03db 00       		.byte	0
 15010 03dc 49       		.uleb128 0x49
 15011 03dd 2E       		.uleb128 0x2e
 15012 03de 01       		.byte	0x1
 15013 03df 3F       		.uleb128 0x3f
 15014 03e0 19       		.uleb128 0x19
 15015 03e1 03       		.uleb128 0x3
 15016 03e2 0E       		.uleb128 0xe
 15017 03e3 3A       		.uleb128 0x3a
 15018 03e4 0B       		.uleb128 0xb
 15019 03e5 3B       		.uleb128 0x3b
 15020 03e6 05       		.uleb128 0x5
 15021 03e7 27       		.uleb128 0x27
 15022 03e8 19       		.uleb128 0x19
 15023 03e9 49       		.uleb128 0x49
 15024 03ea 13       		.uleb128 0x13
 15025 03eb 11       		.uleb128 0x11
 15026 03ec 01       		.uleb128 0x1
 15027 03ed 12       		.uleb128 0x12
 15028 03ee 06       		.uleb128 0x6
 15029 03ef 40       		.uleb128 0x40
 15030 03f0 18       		.uleb128 0x18
 15031 03f1 9742     		.uleb128 0x2117
 15032 03f3 19       		.uleb128 0x19
 15033 03f4 01       		.uleb128 0x1
 15034 03f5 13       		.uleb128 0x13
 15035 03f6 00       		.byte	0
 15036 03f7 00       		.byte	0
 15037 03f8 4A       		.uleb128 0x4a
 15038 03f9 2E       		.uleb128 0x2e
 15039 03fa 01       		.byte	0x1
 15040 03fb 03       		.uleb128 0x3
 15041 03fc 0E       		.uleb128 0xe
 15042 03fd 3A       		.uleb128 0x3a
 15043 03fe 0B       		.uleb128 0xb
 15044 03ff 3B       		.uleb128 0x3b
 15045 0400 05       		.uleb128 0x5
 15046 0401 27       		.uleb128 0x27
ARM GAS  C:\Users\haske\AppData\Local\Temp\ccmHbbn5.s 			page 296


 15047 0402 19       		.uleb128 0x19
 15048 0403 11       		.uleb128 0x11
 15049 0404 01       		.uleb128 0x1
 15050 0405 12       		.uleb128 0x12
 15051 0406 06       		.uleb128 0x6
 15052 0407 40       		.uleb128 0x40
 15053 0408 18       		.uleb128 0x18
 15054 0409 9642     		.uleb128 0x2116
 15055 040b 19       		.uleb128 0x19
 15056 040c 01       		.uleb128 0x1
 15057 040d 13       		.uleb128 0x13
 15058 040e 00       		.byte	0
 15059 040f 00       		.byte	0
 15060 0410 4B       		.uleb128 0x4b
 15061 0411 0B       		.uleb128 0xb
 15062 0412 01       		.byte	0x1
 15063 0413 11       		.uleb128 0x11
 15064 0414 01       		.uleb128 0x1
 15065 0415 12       		.uleb128 0x12
 15066 0416 06       		.uleb128 0x6
 15067 0417 01       		.uleb128 0x1
 15068 0418 13       		.uleb128 0x13
 15069 0419 00       		.byte	0
 15070 041a 00       		.byte	0
 15071 041b 4C       		.uleb128 0x4c
 15072 041c 34       		.uleb128 0x34
 15073 041d 00       		.byte	0
 15074 041e 03       		.uleb128 0x3
 15075 041f 0E       		.uleb128 0xe
 15076 0420 3A       		.uleb128 0x3a
 15077 0421 0B       		.uleb128 0xb
 15078 0422 3B       		.uleb128 0x3b
 15079 0423 0B       		.uleb128 0xb
 15080 0424 49       		.uleb128 0x49
 15081 0425 13       		.uleb128 0x13
 15082 0426 3F       		.uleb128 0x3f
 15083 0427 19       		.uleb128 0x19
 15084 0428 3C       		.uleb128 0x3c
 15085 0429 19       		.uleb128 0x19
 15086 042a 00       		.byte	0
 15087 042b 00       		.byte	0
 15088 042c 4D       		.uleb128 0x4d
 15089 042d 34       		.uleb128 0x34
 15090 042e 00       		.byte	0
 15091 042f 03       		.uleb128 0x3
 15092 0430 0E       		.uleb128 0xe
 15093 0431 3A       		.uleb128 0x3a
 15094 0432 0B       		.uleb128 0xb
 15095 0433 3B       		.uleb128 0x3b
 15096 0434 0B       		.uleb128 0xb
 15097 0435 49       		.uleb128 0x49
 15098 0436 13       		.uleb128 0x13
 15099 0437 3F       		.uleb128 0x3f
 15100 0438 19       		.uleb128 0x19
 15101 0439 02       		.uleb128 0x2
 15102 043a 18       		.uleb128 0x18
 15103 043b 00       		.byte	0
ARM GAS  C:\Users\haske\AppData\Local\Temp\ccmHbbn5.s 			page 297


 15104 043c 00       		.byte	0
 15105 043d 4E       		.uleb128 0x4e
 15106 043e 2E       		.uleb128 0x2e
 15107 043f 00       		.byte	0
 15108 0440 3F       		.uleb128 0x3f
 15109 0441 19       		.uleb128 0x19
 15110 0442 3C       		.uleb128 0x3c
 15111 0443 19       		.uleb128 0x19
 15112 0444 6E       		.uleb128 0x6e
 15113 0445 0E       		.uleb128 0xe
 15114 0446 03       		.uleb128 0x3
 15115 0447 0E       		.uleb128 0xe
 15116 0448 3A       		.uleb128 0x3a
 15117 0449 0B       		.uleb128 0xb
 15118 044a 3B       		.uleb128 0x3b
 15119 044b 0B       		.uleb128 0xb
 15120 044c 00       		.byte	0
 15121 044d 00       		.byte	0
 15122 044e 4F       		.uleb128 0x4f
 15123 044f 2E       		.uleb128 0x2e
 15124 0450 00       		.byte	0
 15125 0451 3F       		.uleb128 0x3f
 15126 0452 19       		.uleb128 0x19
 15127 0453 3C       		.uleb128 0x3c
 15128 0454 19       		.uleb128 0x19
 15129 0455 6E       		.uleb128 0x6e
 15130 0456 0E       		.uleb128 0xe
 15131 0457 03       		.uleb128 0x3
 15132 0458 0E       		.uleb128 0xe
 15133 0459 3A       		.uleb128 0x3a
 15134 045a 0B       		.uleb128 0xb
 15135 045b 3B       		.uleb128 0x3b
 15136 045c 05       		.uleb128 0x5
 15137 045d 00       		.byte	0
 15138 045e 00       		.byte	0
 15139 045f 00       		.byte	0
 15140              		.section	.debug_loc,"",%progbits
 15141              	.Ldebug_loc0:
 15142              	.LLST0:
 15143 0000 00000000 		.4byte	.LVL0
 15144 0004 10000000 		.4byte	.LVL3
 15145 0008 0100     		.2byte	0x1
 15146 000a 50       		.byte	0x50
 15147 000b 10000000 		.4byte	.LVL3
 15148 000f 16000000 		.4byte	.LVL6
 15149 0013 0400     		.2byte	0x4
 15150 0015 F3       		.byte	0xf3
 15151 0016 01       		.uleb128 0x1
 15152 0017 50       		.byte	0x50
 15153 0018 9F       		.byte	0x9f
 15154 0019 16000000 		.4byte	.LVL6
 15155 001d 1C000000 		.4byte	.LVL7
 15156 0021 0100     		.2byte	0x1
 15157 0023 50       		.byte	0x50
 15158 0024 1C000000 		.4byte	.LVL7
 15159 0028 22000000 		.4byte	.LVL10
 15160 002c 0400     		.2byte	0x4
ARM GAS  C:\Users\haske\AppData\Local\Temp\ccmHbbn5.s 			page 298


 15161 002e F3       		.byte	0xf3
 15162 002f 01       		.uleb128 0x1
 15163 0030 50       		.byte	0x50
 15164 0031 9F       		.byte	0x9f
 15165 0032 22000000 		.4byte	.LVL10
 15166 0036 3E000000 		.4byte	.LVL15
 15167 003a 0100     		.2byte	0x1
 15168 003c 50       		.byte	0x50
 15169 003d 3E000000 		.4byte	.LVL15
 15170 0041 6E000000 		.4byte	.LFE187
 15171 0045 0400     		.2byte	0x4
 15172 0047 F3       		.byte	0xf3
 15173 0048 01       		.uleb128 0x1
 15174 0049 50       		.byte	0x50
 15175 004a 9F       		.byte	0x9f
 15176 004b 00000000 		.4byte	0
 15177 004f 00000000 		.4byte	0
 15178              	.LLST1:
 15179 0053 02000000 		.4byte	.LVL1
 15180 0057 10000000 		.4byte	.LVL3
 15181 005b 0100     		.2byte	0x1
 15182 005d 50       		.byte	0x50
 15183 005e 10000000 		.4byte	.LVL3
 15184 0062 16000000 		.4byte	.LVL6
 15185 0066 0400     		.2byte	0x4
 15186 0068 F3       		.byte	0xf3
 15187 0069 01       		.uleb128 0x1
 15188 006a 50       		.byte	0x50
 15189 006b 9F       		.byte	0x9f
 15190 006c 16000000 		.4byte	.LVL6
 15191 0070 1C000000 		.4byte	.LVL7
 15192 0074 0100     		.2byte	0x1
 15193 0076 50       		.byte	0x50
 15194 0077 1C000000 		.4byte	.LVL7
 15195 007b 22000000 		.4byte	.LVL10
 15196 007f 0400     		.2byte	0x4
 15197 0081 F3       		.byte	0xf3
 15198 0082 01       		.uleb128 0x1
 15199 0083 50       		.byte	0x50
 15200 0084 9F       		.byte	0x9f
 15201 0085 22000000 		.4byte	.LVL10
 15202 0089 3E000000 		.4byte	.LVL15
 15203 008d 0100     		.2byte	0x1
 15204 008f 50       		.byte	0x50
 15205 0090 3E000000 		.4byte	.LVL15
 15206 0094 6E000000 		.4byte	.LFE187
 15207 0098 0400     		.2byte	0x4
 15208 009a F3       		.byte	0xf3
 15209 009b 01       		.uleb128 0x1
 15210 009c 50       		.byte	0x50
 15211 009d 9F       		.byte	0x9f
 15212 009e 00000000 		.4byte	0
 15213 00a2 00000000 		.4byte	0
 15214              	.LLST2:
 15215 00a6 04000000 		.4byte	.LVL2
 15216 00aa 12000000 		.4byte	.LVL4
 15217 00ae 0100     		.2byte	0x1
ARM GAS  C:\Users\haske\AppData\Local\Temp\ccmHbbn5.s 			page 299


 15218 00b0 53       		.byte	0x53
 15219 00b1 12000000 		.4byte	.LVL4
 15220 00b5 14000000 		.4byte	.LVL5
 15221 00b9 0500     		.2byte	0x5
 15222 00bb F3       		.byte	0xf3
 15223 00bc 01       		.uleb128 0x1
 15224 00bd 50       		.byte	0x50
 15225 00be 23       		.byte	0x23
 15226 00bf 24       		.uleb128 0x24
 15227 00c0 14000000 		.4byte	.LVL5
 15228 00c4 1E000000 		.4byte	.LVL8
 15229 00c8 0100     		.2byte	0x1
 15230 00ca 53       		.byte	0x53
 15231 00cb 1E000000 		.4byte	.LVL8
 15232 00cf 20000000 		.4byte	.LVL9
 15233 00d3 0500     		.2byte	0x5
 15234 00d5 F3       		.byte	0xf3
 15235 00d6 01       		.uleb128 0x1
 15236 00d7 50       		.byte	0x50
 15237 00d8 23       		.byte	0x23
 15238 00d9 24       		.uleb128 0x24
 15239 00da 20000000 		.4byte	.LVL9
 15240 00de 58000000 		.4byte	.LVL20
 15241 00e2 0100     		.2byte	0x1
 15242 00e4 53       		.byte	0x53
 15243 00e5 58000000 		.4byte	.LVL20
 15244 00e9 5A000000 		.4byte	.LVL21
 15245 00ed 0500     		.2byte	0x5
 15246 00ef F3       		.byte	0xf3
 15247 00f0 01       		.uleb128 0x1
 15248 00f1 50       		.byte	0x50
 15249 00f2 23       		.byte	0x23
 15250 00f3 24       		.uleb128 0x24
 15251 00f4 5A000000 		.4byte	.LVL21
 15252 00f8 62000000 		.4byte	.LVL22
 15253 00fc 0100     		.2byte	0x1
 15254 00fe 53       		.byte	0x53
 15255 00ff 62000000 		.4byte	.LVL22
 15256 0103 64000000 		.4byte	.LVL23
 15257 0107 0500     		.2byte	0x5
 15258 0109 F3       		.byte	0xf3
 15259 010a 01       		.uleb128 0x1
 15260 010b 50       		.byte	0x50
 15261 010c 23       		.byte	0x23
 15262 010d 24       		.uleb128 0x24
 15263 010e 64000000 		.4byte	.LVL23
 15264 0112 68000000 		.4byte	.LVL24
 15265 0116 0100     		.2byte	0x1
 15266 0118 53       		.byte	0x53
 15267 0119 68000000 		.4byte	.LVL24
 15268 011d 6A000000 		.4byte	.LVL25
 15269 0121 0500     		.2byte	0x5
 15270 0123 F3       		.byte	0xf3
 15271 0124 01       		.uleb128 0x1
 15272 0125 50       		.byte	0x50
 15273 0126 23       		.byte	0x23
 15274 0127 24       		.uleb128 0x24
ARM GAS  C:\Users\haske\AppData\Local\Temp\ccmHbbn5.s 			page 300


 15275 0128 6A000000 		.4byte	.LVL25
 15276 012c 6E000000 		.4byte	.LFE187
 15277 0130 0100     		.2byte	0x1
 15278 0132 53       		.byte	0x53
 15279 0133 00000000 		.4byte	0
 15280 0137 00000000 		.4byte	0
 15281              	.LLST3:
 15282 013b 2A000000 		.4byte	.LVL11
 15283 013f 32000000 		.4byte	.LVL12
 15284 0143 0100     		.2byte	0x1
 15285 0145 51       		.byte	0x51
 15286 0146 32000000 		.4byte	.LVL12
 15287 014a 38000000 		.4byte	.LVL13
 15288 014e 0100     		.2byte	0x1
 15289 0150 54       		.byte	0x54
 15290 0151 38000000 		.4byte	.LVL13
 15291 0155 4E000000 		.4byte	.LVL18
 15292 0159 0100     		.2byte	0x1
 15293 015b 51       		.byte	0x51
 15294 015c 00000000 		.4byte	0
 15295 0160 00000000 		.4byte	0
 15296              	.LLST4:
 15297 0164 3C000000 		.4byte	.LVL14
 15298 0168 44000000 		.4byte	.LVL16
 15299 016c 0100     		.2byte	0x1
 15300 016e 55       		.byte	0x55
 15301 016f 44000000 		.4byte	.LVL16
 15302 0173 4A000000 		.4byte	.LVL17
 15303 0177 0100     		.2byte	0x1
 15304 0179 54       		.byte	0x54
 15305 017a 4A000000 		.4byte	.LVL17
 15306 017e 6A000000 		.4byte	.LVL25
 15307 0182 0100     		.2byte	0x1
 15308 0184 55       		.byte	0x55
 15309 0185 00000000 		.4byte	0
 15310 0189 00000000 		.4byte	0
 15311              	.LLST5:
 15312 018d 52000000 		.4byte	.LVL19
 15313 0191 6A000000 		.4byte	.LVL25
 15314 0195 0100     		.2byte	0x1
 15315 0197 52       		.byte	0x52
 15316 0198 00000000 		.4byte	0
 15317 019c 00000000 		.4byte	0
 15318              	.LLST6:
 15319 01a0 00000000 		.4byte	.LVL26
 15320 01a4 1B000000 		.4byte	.LVL30-1
 15321 01a8 0100     		.2byte	0x1
 15322 01aa 50       		.byte	0x50
 15323 01ab 1B000000 		.4byte	.LVL30-1
 15324 01af BA000000 		.4byte	.LVL44
 15325 01b3 0100     		.2byte	0x1
 15326 01b5 54       		.byte	0x54
 15327 01b6 BA000000 		.4byte	.LVL44
 15328 01ba C6000000 		.4byte	.LFE186
 15329 01be 0400     		.2byte	0x4
 15330 01c0 F3       		.byte	0xf3
 15331 01c1 01       		.uleb128 0x1
ARM GAS  C:\Users\haske\AppData\Local\Temp\ccmHbbn5.s 			page 301


 15332 01c2 50       		.byte	0x50
 15333 01c3 9F       		.byte	0x9f
 15334 01c4 00000000 		.4byte	0
 15335 01c8 00000000 		.4byte	0
 15336              	.LLST7:
 15337 01cc 00000000 		.4byte	.LVL26
 15338 01d0 18000000 		.4byte	.LVL29
 15339 01d4 0100     		.2byte	0x1
 15340 01d6 51       		.byte	0x51
 15341 01d7 18000000 		.4byte	.LVL29
 15342 01db BA000000 		.4byte	.LVL46
 15343 01df 0100     		.2byte	0x1
 15344 01e1 58       		.byte	0x58
 15345 01e2 BA000000 		.4byte	.LVL46
 15346 01e6 C6000000 		.4byte	.LFE186
 15347 01ea 0400     		.2byte	0x4
 15348 01ec F3       		.byte	0xf3
 15349 01ed 01       		.uleb128 0x1
 15350 01ee 51       		.byte	0x51
 15351 01ef 9F       		.byte	0x9f
 15352 01f0 00000000 		.4byte	0
 15353 01f4 00000000 		.4byte	0
 15354              	.LLST8:
 15355 01f8 00000000 		.4byte	.LVL26
 15356 01fc 16000000 		.4byte	.LVL28
 15357 0200 0100     		.2byte	0x1
 15358 0202 52       		.byte	0x52
 15359 0203 16000000 		.4byte	.LVL28
 15360 0207 B6000000 		.4byte	.LVL43
 15361 020b 0100     		.2byte	0x1
 15362 020d 59       		.byte	0x59
 15363 020e B6000000 		.4byte	.LVL43
 15364 0212 C6000000 		.4byte	.LFE186
 15365 0216 0100     		.2byte	0x1
 15366 0218 53       		.byte	0x53
 15367 0219 00000000 		.4byte	0
 15368 021d 00000000 		.4byte	0
 15369              	.LLST9:
 15370 0221 90000000 		.4byte	.LVL42
 15371 0225 BA000000 		.4byte	.LVL45
 15372 0229 0100     		.2byte	0x1
 15373 022b 56       		.byte	0x56
 15374 022c 00000000 		.4byte	0
 15375 0230 00000000 		.4byte	0
 15376              	.LLST10:
 15377 0234 14000000 		.4byte	.LVL27
 15378 0238 22000000 		.4byte	.LVL31
 15379 023c 0200     		.2byte	0x2
 15380 023e 30       		.byte	0x30
 15381 023f 9F       		.byte	0x9f
 15382 0240 00000000 		.4byte	0
 15383 0244 00000000 		.4byte	0
 15384              	.LLST11:
 15385 0248 14000000 		.4byte	.LVL27
 15386 024c 1B000000 		.4byte	.LVL30-1
 15387 0250 0100     		.2byte	0x1
 15388 0252 50       		.byte	0x50
ARM GAS  C:\Users\haske\AppData\Local\Temp\ccmHbbn5.s 			page 302


 15389 0253 1B000000 		.4byte	.LVL30-1
 15390 0257 22000000 		.4byte	.LVL31
 15391 025b 0100     		.2byte	0x1
 15392 025d 54       		.byte	0x54
 15393 025e 00000000 		.4byte	0
 15394 0262 00000000 		.4byte	0
 15395              	.LLST12:
 15396 0266 22000000 		.4byte	.LVL31
 15397 026a 2E000000 		.4byte	.LVL33
 15398 026e 0200     		.2byte	0x2
 15399 0270 30       		.byte	0x30
 15400 0271 9F       		.byte	0x9f
 15401 0272 00000000 		.4byte	0
 15402 0276 00000000 		.4byte	0
 15403              	.LLST13:
 15404 027a 22000000 		.4byte	.LVL31
 15405 027e 2E000000 		.4byte	.LVL33
 15406 0282 0100     		.2byte	0x1
 15407 0284 54       		.byte	0x54
 15408 0285 00000000 		.4byte	0
 15409 0289 00000000 		.4byte	0
 15410              	.LLST14:
 15411 028d 2E000000 		.4byte	.LVL33
 15412 0291 3E000000 		.4byte	.LVL35
 15413 0295 0200     		.2byte	0x2
 15414 0297 30       		.byte	0x30
 15415 0298 9F       		.byte	0x9f
 15416 0299 00000000 		.4byte	0
 15417 029d 00000000 		.4byte	0
 15418              	.LLST15:
 15419 02a1 2E000000 		.4byte	.LVL33
 15420 02a5 3E000000 		.4byte	.LVL35
 15421 02a9 0100     		.2byte	0x1
 15422 02ab 54       		.byte	0x54
 15423 02ac 00000000 		.4byte	0
 15424 02b0 00000000 		.4byte	0
 15425              	.LLST16:
 15426 02b4 3E000000 		.4byte	.LVL35
 15427 02b8 4A000000 		.4byte	.LVL37
 15428 02bc 0200     		.2byte	0x2
 15429 02be 30       		.byte	0x30
 15430 02bf 9F       		.byte	0x9f
 15431 02c0 00000000 		.4byte	0
 15432 02c4 00000000 		.4byte	0
 15433              	.LLST17:
 15434 02c8 3E000000 		.4byte	.LVL35
 15435 02cc 4A000000 		.4byte	.LVL37
 15436 02d0 0100     		.2byte	0x1
 15437 02d2 54       		.byte	0x54
 15438 02d3 00000000 		.4byte	0
 15439 02d7 00000000 		.4byte	0
 15440              	.LLST18:
 15441 02db 00000000 		.4byte	.LVL47
 15442 02df 0F000000 		.4byte	.LVL49-1
 15443 02e3 0100     		.2byte	0x1
 15444 02e5 50       		.byte	0x50
 15445 02e6 0F000000 		.4byte	.LVL49-1
ARM GAS  C:\Users\haske\AppData\Local\Temp\ccmHbbn5.s 			page 303


 15446 02ea B0000000 		.4byte	.LVL81
 15447 02ee 0100     		.2byte	0x1
 15448 02f0 55       		.byte	0x55
 15449 02f1 B0000000 		.4byte	.LVL81
 15450 02f5 B2000000 		.4byte	.LFE190
 15451 02f9 0400     		.2byte	0x4
 15452 02fb F3       		.byte	0xf3
 15453 02fc 01       		.uleb128 0x1
 15454 02fd 50       		.byte	0x50
 15455 02fe 9F       		.byte	0x9f
 15456 02ff 00000000 		.4byte	0
 15457 0303 00000000 		.4byte	0
 15458              	.LLST19:
 15459 0307 04000000 		.4byte	.LVL48
 15460 030b 12000000 		.4byte	.LVL50
 15461 030f 0200     		.2byte	0x2
 15462 0311 30       		.byte	0x30
 15463 0312 9F       		.byte	0x9f
 15464 0313 12000000 		.4byte	.LVL50
 15465 0317 18000000 		.4byte	.LVL51
 15466 031b 0100     		.2byte	0x1
 15467 031d 50       		.byte	0x50
 15468 031e 20000000 		.4byte	.LVL54
 15469 0322 50000000 		.4byte	.LVL62
 15470 0326 0100     		.2byte	0x1
 15471 0328 56       		.byte	0x56
 15472 0329 52000000 		.4byte	.LVL63
 15473 032d 86000000 		.4byte	.LVL71
 15474 0331 0100     		.2byte	0x1
 15475 0333 56       		.byte	0x56
 15476 0334 88000000 		.4byte	.LVL72
 15477 0338 B0000000 		.4byte	.LVL80
 15478 033c 0100     		.2byte	0x1
 15479 033e 54       		.byte	0x54
 15480 033f 00000000 		.4byte	0
 15481 0343 00000000 		.4byte	0
 15482              	.LLST20:
 15483 0347 88000000 		.4byte	.LVL72
 15484 034b 98000000 		.4byte	.LVL74
 15485 034f 0200     		.2byte	0x2
 15486 0351 30       		.byte	0x30
 15487 0352 9F       		.byte	0x9f
 15488 0353 98000000 		.4byte	.LVL74
 15489 0357 9E000000 		.4byte	.LVL75
 15490 035b 0100     		.2byte	0x1
 15491 035d 50       		.byte	0x50
 15492 035e A6000000 		.4byte	.LVL78
 15493 0362 B0000000 		.4byte	.LVL79
 15494 0366 0100     		.2byte	0x1
 15495 0368 50       		.byte	0x50
 15496 0369 00000000 		.4byte	0
 15497 036d 00000000 		.4byte	0
 15498              	.LLST21:
 15499 0371 04000000 		.4byte	.LVL48
 15500 0375 10000000 		.4byte	.LVL49
 15501 0379 0400     		.2byte	0x4
 15502 037b 48       		.byte	0x48
ARM GAS  C:\Users\haske\AppData\Local\Temp\ccmHbbn5.s 			page 304


 15503 037c 3D       		.byte	0x3d
 15504 037d 24       		.byte	0x24
 15505 037e 9F       		.byte	0x9f
 15506 037f 00000000 		.4byte	0
 15507 0383 00000000 		.4byte	0
 15508              	.LLST22:
 15509 0387 04000000 		.4byte	.LVL48
 15510 038b 0F000000 		.4byte	.LVL49-1
 15511 038f 0100     		.2byte	0x1
 15512 0391 50       		.byte	0x50
 15513 0392 0F000000 		.4byte	.LVL49-1
 15514 0396 10000000 		.4byte	.LVL49
 15515 039a 0100     		.2byte	0x1
 15516 039c 55       		.byte	0x55
 15517 039d 00000000 		.4byte	0
 15518 03a1 00000000 		.4byte	0
 15519              	.LLST23:
 15520 03a5 10000000 		.4byte	.LVL49
 15521 03a9 18000000 		.4byte	.LVL51
 15522 03ad 0100     		.2byte	0x1
 15523 03af 50       		.byte	0x50
 15524 03b0 00000000 		.4byte	0
 15525 03b4 00000000 		.4byte	0
 15526              	.LLST24:
 15527 03b8 12000000 		.4byte	.LVL50
 15528 03bc 1C000000 		.4byte	.LVL52
 15529 03c0 0400     		.2byte	0x4
 15530 03c2 48       		.byte	0x48
 15531 03c3 3D       		.byte	0x3d
 15532 03c4 24       		.byte	0x24
 15533 03c5 9F       		.byte	0x9f
 15534 03c6 00000000 		.4byte	0
 15535 03ca 00000000 		.4byte	0
 15536              	.LLST25:
 15537 03ce 12000000 		.4byte	.LVL50
 15538 03d2 1C000000 		.4byte	.LVL52
 15539 03d6 0100     		.2byte	0x1
 15540 03d8 55       		.byte	0x55
 15541 03d9 00000000 		.4byte	0
 15542 03dd 00000000 		.4byte	0
 15543              	.LLST26:
 15544 03e1 1C000000 		.4byte	.LVL52
 15545 03e5 1E000000 		.4byte	.LVL53
 15546 03e9 0100     		.2byte	0x1
 15547 03eb 50       		.byte	0x50
 15548 03ec 00000000 		.4byte	0
 15549 03f0 00000000 		.4byte	0
 15550              	.LLST27:
 15551 03f4 20000000 		.4byte	.LVL54
 15552 03f8 2C000000 		.4byte	.LVL56
 15553 03fc 0400     		.2byte	0x4
 15554 03fe 48       		.byte	0x48
 15555 03ff 3D       		.byte	0x3d
 15556 0400 24       		.byte	0x24
 15557 0401 9F       		.byte	0x9f
 15558 0402 00000000 		.4byte	0
 15559 0406 00000000 		.4byte	0
ARM GAS  C:\Users\haske\AppData\Local\Temp\ccmHbbn5.s 			page 305


 15560              	.LLST28:
 15561 040a 20000000 		.4byte	.LVL54
 15562 040e 2C000000 		.4byte	.LVL56
 15563 0412 0100     		.2byte	0x1
 15564 0414 55       		.byte	0x55
 15565 0415 00000000 		.4byte	0
 15566 0419 00000000 		.4byte	0
 15567              	.LLST29:
 15568 041d 30000000 		.4byte	.LVL57
 15569 0421 3A000000 		.4byte	.LVL58
 15570 0425 0400     		.2byte	0x4
 15571 0427 48       		.byte	0x48
 15572 0428 3D       		.byte	0x3d
 15573 0429 24       		.byte	0x24
 15574 042a 9F       		.byte	0x9f
 15575 042b 00000000 		.4byte	0
 15576 042f 00000000 		.4byte	0
 15577              	.LLST30:
 15578 0433 30000000 		.4byte	.LVL57
 15579 0437 3A000000 		.4byte	.LVL58
 15580 043b 0100     		.2byte	0x1
 15581 043d 55       		.byte	0x55
 15582 043e 00000000 		.4byte	0
 15583 0442 00000000 		.4byte	0
 15584              	.LLST31:
 15585 0446 3E000000 		.4byte	.LVL59
 15586 044a 4C000000 		.4byte	.LVL61
 15587 044e 0400     		.2byte	0x4
 15588 0450 48       		.byte	0x48
 15589 0451 3D       		.byte	0x3d
 15590 0452 24       		.byte	0x24
 15591 0453 9F       		.byte	0x9f
 15592 0454 00000000 		.4byte	0
 15593 0458 00000000 		.4byte	0
 15594              	.LLST32:
 15595 045c 3E000000 		.4byte	.LVL59
 15596 0460 4C000000 		.4byte	.LVL61
 15597 0464 0100     		.2byte	0x1
 15598 0466 55       		.byte	0x55
 15599 0467 00000000 		.4byte	0
 15600 046b 00000000 		.4byte	0
 15601              	.LLST33:
 15602 046f 52000000 		.4byte	.LVL63
 15603 0473 60000000 		.4byte	.LVL65
 15604 0477 0400     		.2byte	0x4
 15605 0479 48       		.byte	0x48
 15606 047a 3D       		.byte	0x3d
 15607 047b 24       		.byte	0x24
 15608 047c 9F       		.byte	0x9f
 15609 047d 00000000 		.4byte	0
 15610 0481 00000000 		.4byte	0
 15611              	.LLST34:
 15612 0485 52000000 		.4byte	.LVL63
 15613 0489 60000000 		.4byte	.LVL65
 15614 048d 0100     		.2byte	0x1
 15615 048f 55       		.byte	0x55
 15616 0490 00000000 		.4byte	0
ARM GAS  C:\Users\haske\AppData\Local\Temp\ccmHbbn5.s 			page 306


 15617 0494 00000000 		.4byte	0
 15618              	.LLST35:
 15619 0498 64000000 		.4byte	.LVL66
 15620 049c 70000000 		.4byte	.LVL67
 15621 04a0 0400     		.2byte	0x4
 15622 04a2 48       		.byte	0x48
 15623 04a3 3D       		.byte	0x3d
 15624 04a4 24       		.byte	0x24
 15625 04a5 9F       		.byte	0x9f
 15626 04a6 00000000 		.4byte	0
 15627 04aa 00000000 		.4byte	0
 15628              	.LLST36:
 15629 04ae 64000000 		.4byte	.LVL66
 15630 04b2 70000000 		.4byte	.LVL67
 15631 04b6 0100     		.2byte	0x1
 15632 04b8 55       		.byte	0x55
 15633 04b9 00000000 		.4byte	0
 15634 04bd 00000000 		.4byte	0
 15635              	.LLST37:
 15636 04c1 74000000 		.4byte	.LVL68
 15637 04c5 82000000 		.4byte	.LVL70
 15638 04c9 0400     		.2byte	0x4
 15639 04cb 48       		.byte	0x48
 15640 04cc 3D       		.byte	0x3d
 15641 04cd 24       		.byte	0x24
 15642 04ce 9F       		.byte	0x9f
 15643 04cf 00000000 		.4byte	0
 15644 04d3 00000000 		.4byte	0
 15645              	.LLST38:
 15646 04d7 74000000 		.4byte	.LVL68
 15647 04db 82000000 		.4byte	.LVL70
 15648 04df 0100     		.2byte	0x1
 15649 04e1 55       		.byte	0x55
 15650 04e2 00000000 		.4byte	0
 15651 04e6 00000000 		.4byte	0
 15652              	.LLST39:
 15653 04ea 88000000 		.4byte	.LVL72
 15654 04ee 96000000 		.4byte	.LVL73
 15655 04f2 0400     		.2byte	0x4
 15656 04f4 48       		.byte	0x48
 15657 04f5 3D       		.byte	0x3d
 15658 04f6 24       		.byte	0x24
 15659 04f7 9F       		.byte	0x9f
 15660 04f8 00000000 		.4byte	0
 15661 04fc 00000000 		.4byte	0
 15662              	.LLST40:
 15663 0500 88000000 		.4byte	.LVL72
 15664 0504 96000000 		.4byte	.LVL73
 15665 0508 0100     		.2byte	0x1
 15666 050a 55       		.byte	0x55
 15667 050b 00000000 		.4byte	0
 15668 050f 00000000 		.4byte	0
 15669              	.LLST41:
 15670 0513 96000000 		.4byte	.LVL73
 15671 0517 9E000000 		.4byte	.LVL75
 15672 051b 0100     		.2byte	0x1
 15673 051d 50       		.byte	0x50
ARM GAS  C:\Users\haske\AppData\Local\Temp\ccmHbbn5.s 			page 307


 15674 051e 00000000 		.4byte	0
 15675 0522 00000000 		.4byte	0
 15676              	.LLST42:
 15677 0526 98000000 		.4byte	.LVL74
 15678 052a A2000000 		.4byte	.LVL76
 15679 052e 0400     		.2byte	0x4
 15680 0530 48       		.byte	0x48
 15681 0531 3D       		.byte	0x3d
 15682 0532 24       		.byte	0x24
 15683 0533 9F       		.byte	0x9f
 15684 0534 00000000 		.4byte	0
 15685 0538 00000000 		.4byte	0
 15686              	.LLST43:
 15687 053c 98000000 		.4byte	.LVL74
 15688 0540 A2000000 		.4byte	.LVL76
 15689 0544 0100     		.2byte	0x1
 15690 0546 55       		.byte	0x55
 15691 0547 00000000 		.4byte	0
 15692 054b 00000000 		.4byte	0
 15693              	.LLST44:
 15694 054f A2000000 		.4byte	.LVL76
 15695 0553 A4000000 		.4byte	.LVL77
 15696 0557 0100     		.2byte	0x1
 15697 0559 50       		.byte	0x50
 15698 055a 00000000 		.4byte	0
 15699 055e 00000000 		.4byte	0
 15700              	.LLST45:
 15701 0562 00000000 		.4byte	.LVL82
 15702 0566 1F000000 		.4byte	.LVL86-1
 15703 056a 0100     		.2byte	0x1
 15704 056c 50       		.byte	0x50
 15705 056d 1F000000 		.4byte	.LVL86-1
 15706 0571 6A000000 		.4byte	.LVL101
 15707 0575 0200     		.2byte	0x2
 15708 0577 7D       		.byte	0x7d
 15709 0578 00       		.sleb128 0
 15710 0579 6A000000 		.4byte	.LVL101
 15711 057d DE000000 		.4byte	.LFE188
 15712 0581 0400     		.2byte	0x4
 15713 0583 F3       		.byte	0xf3
 15714 0584 01       		.uleb128 0x1
 15715 0585 50       		.byte	0x50
 15716 0586 9F       		.byte	0x9f
 15717 0587 00000000 		.4byte	0
 15718 058b 00000000 		.4byte	0
 15719              	.LLST46:
 15720 058f 00000000 		.4byte	.LVL82
 15721 0593 18000000 		.4byte	.LVL85
 15722 0597 0100     		.2byte	0x1
 15723 0599 51       		.byte	0x51
 15724 059a 18000000 		.4byte	.LVL85
 15725 059e D2000000 		.4byte	.LVL115
 15726 05a2 0100     		.2byte	0x1
 15727 05a4 57       		.byte	0x57
 15728 05a5 D2000000 		.4byte	.LVL115
 15729 05a9 DE000000 		.4byte	.LFE188
 15730 05ad 0400     		.2byte	0x4
ARM GAS  C:\Users\haske\AppData\Local\Temp\ccmHbbn5.s 			page 308


 15731 05af F3       		.byte	0xf3
 15732 05b0 01       		.uleb128 0x1
 15733 05b1 51       		.byte	0x51
 15734 05b2 9F       		.byte	0x9f
 15735 05b3 00000000 		.4byte	0
 15736 05b7 00000000 		.4byte	0
 15737              	.LLST47:
 15738 05bb 00000000 		.4byte	.LVL82
 15739 05bf 16000000 		.4byte	.LVL84
 15740 05c3 0100     		.2byte	0x1
 15741 05c5 52       		.byte	0x52
 15742 05c6 16000000 		.4byte	.LVL84
 15743 05ca 2E000000 		.4byte	.LVL89
 15744 05ce 0400     		.2byte	0x4
 15745 05d0 F3       		.byte	0xf3
 15746 05d1 01       		.uleb128 0x1
 15747 05d2 52       		.byte	0x52
 15748 05d3 9F       		.byte	0x9f
 15749 05d4 2E000000 		.4byte	.LVL89
 15750 05d8 4E000000 		.4byte	.LVL97
 15751 05dc 0100     		.2byte	0x1
 15752 05de 56       		.byte	0x56
 15753 05df 00000000 		.4byte	0
 15754 05e3 00000000 		.4byte	0
 15755              	.LLST48:
 15756 05e7 00000000 		.4byte	.LVL82
 15757 05eb 1F000000 		.4byte	.LVL86-1
 15758 05ef 0100     		.2byte	0x1
 15759 05f1 53       		.byte	0x53
 15760 05f2 1F000000 		.4byte	.LVL86-1
 15761 05f6 D2000000 		.4byte	.LVL114
 15762 05fa 0100     		.2byte	0x1
 15763 05fc 55       		.byte	0x55
 15764 05fd D2000000 		.4byte	.LVL114
 15765 0601 DE000000 		.4byte	.LFE188
 15766 0605 0400     		.2byte	0x4
 15767 0607 F3       		.byte	0xf3
 15768 0608 01       		.uleb128 0x1
 15769 0609 53       		.byte	0x53
 15770 060a 9F       		.byte	0x9f
 15771 060b 00000000 		.4byte	0
 15772 060f 00000000 		.4byte	0
 15773              	.LLST49:
 15774 0613 28000000 		.4byte	.LVL88
 15775 0617 30000000 		.4byte	.LVL90
 15776 061b 0100     		.2byte	0x1
 15777 061d 50       		.byte	0x50
 15778 061e 30000000 		.4byte	.LVL90
 15779 0622 CE000000 		.4byte	.LVL113
 15780 0626 0100     		.2byte	0x1
 15781 0628 54       		.byte	0x54
 15782 0629 00000000 		.4byte	0
 15783 062d 00000000 		.4byte	0
 15784              	.LLST50:
 15785 0631 36000000 		.4byte	.LVL92
 15786 0635 3C000000 		.4byte	.LVL93
 15787 0639 0100     		.2byte	0x1
ARM GAS  C:\Users\haske\AppData\Local\Temp\ccmHbbn5.s 			page 309


 15788 063b 50       		.byte	0x50
 15789 063c 00000000 		.4byte	0
 15790 0640 00000000 		.4byte	0
 15791              	.LLST51:
 15792 0644 46000000 		.4byte	.LVL95
 15793 0648 D2000000 		.4byte	.LVL117
 15794 064c 0100     		.2byte	0x1
 15795 064e 59       		.byte	0x59
 15796 064f 00000000 		.4byte	0
 15797 0653 00000000 		.4byte	0
 15798              	.LLST52:
 15799 0657 52000000 		.4byte	.LVL98
 15800 065b D2000000 		.4byte	.LVL116
 15801 065f 0100     		.2byte	0x1
 15802 0661 58       		.byte	0x58
 15803 0662 D2000000 		.4byte	.LVL116
 15804 0666 DE000000 		.4byte	.LFE188
 15805 066a 0200     		.2byte	0x2
 15806 066c 91       		.byte	0x91
 15807 066d 50       		.sleb128 -48
 15808 066e 00000000 		.4byte	0
 15809 0672 00000000 		.4byte	0
 15810              	.LLST53:
 15811 0676 14000000 		.4byte	.LVL83
 15812 067a 22000000 		.4byte	.LVL87
 15813 067e 0400     		.2byte	0x4
 15814 0680 40       		.byte	0x40
 15815 0681 3D       		.byte	0x3d
 15816 0682 24       		.byte	0x24
 15817 0683 9F       		.byte	0x9f
 15818 0684 00000000 		.4byte	0
 15819 0688 00000000 		.4byte	0
 15820              	.LLST54:
 15821 068c 14000000 		.4byte	.LVL83
 15822 0690 1F000000 		.4byte	.LVL86-1
 15823 0694 0100     		.2byte	0x1
 15824 0696 50       		.byte	0x50
 15825 0697 1F000000 		.4byte	.LVL86-1
 15826 069b 22000000 		.4byte	.LVL87
 15827 069f 0200     		.2byte	0x2
 15828 06a1 7D       		.byte	0x7d
 15829 06a2 00       		.sleb128 0
 15830 06a3 00000000 		.4byte	0
 15831 06a7 00000000 		.4byte	0
 15832              	.LLST55:
 15833 06ab 52000000 		.4byte	.LVL98
 15834 06af 62000000 		.4byte	.LVL100
 15835 06b3 0400     		.2byte	0x4
 15836 06b5 48       		.byte	0x48
 15837 06b6 3D       		.byte	0x3d
 15838 06b7 24       		.byte	0x24
 15839 06b8 9F       		.byte	0x9f
 15840 06b9 00000000 		.4byte	0
 15841 06bd 00000000 		.4byte	0
 15842              	.LLST56:
 15843 06c1 52000000 		.4byte	.LVL98
 15844 06c5 62000000 		.4byte	.LVL100
ARM GAS  C:\Users\haske\AppData\Local\Temp\ccmHbbn5.s 			page 310


 15845 06c9 0200     		.2byte	0x2
 15846 06cb 7D       		.byte	0x7d
 15847 06cc 00       		.sleb128 0
 15848 06cd 00000000 		.4byte	0
 15849 06d1 00000000 		.4byte	0
 15850              	.LLST57:
 15851 06d5 9A000000 		.4byte	.LVL107
 15852 06d9 D2000000 		.4byte	.LVL119
 15853 06dd 0100     		.2byte	0x1
 15854 06df 5B       		.byte	0x5b
 15855 06e0 00000000 		.4byte	0
 15856 06e4 00000000 		.4byte	0
 15857              	.LLST58:
 15858 06e8 62000000 		.4byte	.LVL100
 15859 06ec 72000000 		.4byte	.LVL103
 15860 06f0 0400     		.2byte	0x4
 15861 06f2 48       		.byte	0x48
 15862 06f3 3D       		.byte	0x3d
 15863 06f4 24       		.byte	0x24
 15864 06f5 9F       		.byte	0x9f
 15865 06f6 00000000 		.4byte	0
 15866 06fa 00000000 		.4byte	0
 15867              	.LLST59:
 15868 06fe 62000000 		.4byte	.LVL100
 15869 0702 6A000000 		.4byte	.LVL101
 15870 0706 0200     		.2byte	0x2
 15871 0708 7D       		.byte	0x7d
 15872 0709 00       		.sleb128 0
 15873 070a 6A000000 		.4byte	.LVL101
 15874 070e 72000000 		.4byte	.LVL103
 15875 0712 0100     		.2byte	0x1
 15876 0714 56       		.byte	0x56
 15877 0715 00000000 		.4byte	0
 15878 0719 00000000 		.4byte	0
 15879              	.LLST60:
 15880 071d A8000000 		.4byte	.LVL108
 15881 0721 AA000000 		.4byte	.LVL109
 15882 0725 0100     		.2byte	0x1
 15883 0727 56       		.byte	0x56
 15884 0728 00000000 		.4byte	0
 15885 072c 00000000 		.4byte	0
 15886              	.LLST61:
 15887 0730 72000000 		.4byte	.LVL103
 15888 0734 80000000 		.4byte	.LVL105
 15889 0738 0400     		.2byte	0x4
 15890 073a 48       		.byte	0x48
 15891 073b 3D       		.byte	0x3d
 15892 073c 24       		.byte	0x24
 15893 073d 9F       		.byte	0x9f
 15894 073e 00000000 		.4byte	0
 15895 0742 00000000 		.4byte	0
 15896              	.LLST62:
 15897 0746 72000000 		.4byte	.LVL103
 15898 074a 80000000 		.4byte	.LVL105
 15899 074e 0200     		.2byte	0x2
 15900 0750 7D       		.byte	0x7d
 15901 0751 00       		.sleb128 0
ARM GAS  C:\Users\haske\AppData\Local\Temp\ccmHbbn5.s 			page 311


 15902 0752 00000000 		.4byte	0
 15903 0756 00000000 		.4byte	0
 15904              	.LLST63:
 15905 075a BC000000 		.4byte	.LVL110
 15906 075e D2000000 		.4byte	.LVL118
 15907 0762 0100     		.2byte	0x1
 15908 0764 5A       		.byte	0x5a
 15909 0765 00000000 		.4byte	0
 15910 0769 00000000 		.4byte	0
 15911              	.LLST64:
 15912 076d 80000000 		.4byte	.LVL105
 15913 0771 8C000000 		.4byte	.LVL106
 15914 0775 0400     		.2byte	0x4
 15915 0777 48       		.byte	0x48
 15916 0778 3D       		.byte	0x3d
 15917 0779 24       		.byte	0x24
 15918 077a 9F       		.byte	0x9f
 15919 077b 00000000 		.4byte	0
 15920 077f 00000000 		.4byte	0
 15921              	.LLST65:
 15922 0783 80000000 		.4byte	.LVL105
 15923 0787 8C000000 		.4byte	.LVL106
 15924 078b 0200     		.2byte	0x2
 15925 078d 7D       		.byte	0x7d
 15926 078e 00       		.sleb128 0
 15927 078f 00000000 		.4byte	0
 15928 0793 00000000 		.4byte	0
 15929              	.LLST66:
 15930 0797 CA000000 		.4byte	.LVL111
 15931 079b CC000000 		.4byte	.LVL112
 15932 079f 0100     		.2byte	0x1
 15933 07a1 50       		.byte	0x50
 15934 07a2 00000000 		.4byte	0
 15935 07a6 00000000 		.4byte	0
 15936              	.LLST67:
 15937 07aa 00000000 		.4byte	.LVL120
 15938 07ae 0D000000 		.4byte	.LVL121-1
 15939 07b2 0100     		.2byte	0x1
 15940 07b4 50       		.byte	0x50
 15941 07b5 0D000000 		.4byte	.LVL121-1
 15942 07b9 1A000000 		.4byte	.LVL126
 15943 07bd 0100     		.2byte	0x1
 15944 07bf 55       		.byte	0x55
 15945 07c0 1A000000 		.4byte	.LVL126
 15946 07c4 DC010000 		.4byte	.LFE183
 15947 07c8 0400     		.2byte	0x4
 15948 07ca F3       		.byte	0xf3
 15949 07cb 01       		.uleb128 0x1
 15950 07cc 50       		.byte	0x50
 15951 07cd 9F       		.byte	0x9f
 15952 07ce 00000000 		.4byte	0
 15953 07d2 00000000 		.4byte	0
 15954              	.LLST68:
 15955 07d6 10000000 		.4byte	.LVL122
 15956 07da 12000000 		.4byte	.LVL123
 15957 07de 0100     		.2byte	0x1
 15958 07e0 50       		.byte	0x50
ARM GAS  C:\Users\haske\AppData\Local\Temp\ccmHbbn5.s 			page 312


 15959 07e1 12000000 		.4byte	.LVL123
 15960 07e5 D0010000 		.4byte	.LVL157
 15961 07e9 0100     		.2byte	0x1
 15962 07eb 54       		.byte	0x54
 15963 07ec 00000000 		.4byte	0
 15964 07f0 00000000 		.4byte	0
 15965              	.LLST70:
 15966 07f4 18000000 		.4byte	.LVL125
 15967 07f8 26000000 		.4byte	.LVL127
 15968 07fc 0100     		.2byte	0x1
 15969 07fe 50       		.byte	0x50
 15970 07ff 26000000 		.4byte	.LVL127
 15971 0803 5C000000 		.4byte	.LVL132
 15972 0807 0100     		.2byte	0x1
 15973 0809 56       		.byte	0x56
 15974 080a 5C000000 		.4byte	.LVL132
 15975 080e DC010000 		.4byte	.LFE183
 15976 0812 0300     		.2byte	0x3
 15977 0814 91       		.byte	0x91
 15978 0815 C47E     		.sleb128 -188
 15979 0817 00000000 		.4byte	0
 15980 081b 00000000 		.4byte	0
 15981              	.LLST71:
 15982 081f 00010000 		.4byte	.LVL144
 15983 0823 96010000 		.4byte	.LVL152
 15984 0827 0100     		.2byte	0x1
 15985 0829 56       		.byte	0x56
 15986 082a 00000000 		.4byte	0
 15987 082e 00000000 		.4byte	0
 15988              	.LLST72:
 15989 0832 9E000000 		.4byte	.LVL135
 15990 0836 AC000000 		.4byte	.LVL137
 15991 083a 0400     		.2byte	0x4
 15992 083c 40       		.byte	0x40
 15993 083d 3D       		.byte	0x3d
 15994 083e 24       		.byte	0x24
 15995 083f 9F       		.byte	0x9f
 15996 0840 00000000 		.4byte	0
 15997 0844 00000000 		.4byte	0
 15998              	.LLST73:
 15999 0848 9E000000 		.4byte	.LVL135
 16000 084c AC000000 		.4byte	.LVL137
 16001 0850 0100     		.2byte	0x1
 16002 0852 54       		.byte	0x54
 16003 0853 00000000 		.4byte	0
 16004 0857 00000000 		.4byte	0
 16005              	.LLST74:
 16006 085b AC000000 		.4byte	.LVL137
 16007 085f BA000000 		.4byte	.LVL139
 16008 0863 0400     		.2byte	0x4
 16009 0865 40       		.byte	0x40
 16010 0866 3D       		.byte	0x3d
 16011 0867 24       		.byte	0x24
 16012 0868 9F       		.byte	0x9f
 16013 0869 00000000 		.4byte	0
 16014 086d 00000000 		.4byte	0
 16015              	.LLST75:
ARM GAS  C:\Users\haske\AppData\Local\Temp\ccmHbbn5.s 			page 313


 16016 0871 AC000000 		.4byte	.LVL137
 16017 0875 BA000000 		.4byte	.LVL139
 16018 0879 0100     		.2byte	0x1
 16019 087b 54       		.byte	0x54
 16020 087c 00000000 		.4byte	0
 16021 0880 00000000 		.4byte	0
 16022              	.LLST76:
 16023 0884 BA000000 		.4byte	.LVL139
 16024 0888 C8000000 		.4byte	.LVL141
 16025 088c 0400     		.2byte	0x4
 16026 088e 40       		.byte	0x40
 16027 088f 3D       		.byte	0x3d
 16028 0890 24       		.byte	0x24
 16029 0891 9F       		.byte	0x9f
 16030 0892 00000000 		.4byte	0
 16031 0896 00000000 		.4byte	0
 16032              	.LLST77:
 16033 089a BA000000 		.4byte	.LVL139
 16034 089e C8000000 		.4byte	.LVL141
 16035 08a2 0100     		.2byte	0x1
 16036 08a4 54       		.byte	0x54
 16037 08a5 00000000 		.4byte	0
 16038 08a9 00000000 		.4byte	0
 16039              	.LLST78:
 16040 08ad C8000000 		.4byte	.LVL141
 16041 08b1 D6000000 		.4byte	.LVL143
 16042 08b5 0400     		.2byte	0x4
 16043 08b7 40       		.byte	0x40
 16044 08b8 3D       		.byte	0x3d
 16045 08b9 24       		.byte	0x24
 16046 08ba 9F       		.byte	0x9f
 16047 08bb 00000000 		.4byte	0
 16048 08bf 00000000 		.4byte	0
 16049              	.LLST79:
 16050 08c3 C8000000 		.4byte	.LVL141
 16051 08c7 D6000000 		.4byte	.LVL143
 16052 08cb 0100     		.2byte	0x1
 16053 08cd 54       		.byte	0x54
 16054 08ce 00000000 		.4byte	0
 16055 08d2 00000000 		.4byte	0
 16056              	.LLST80:
 16057 08d6 00000000 		.4byte	.LVL158
 16058 08da 06000000 		.4byte	.LVL160
 16059 08de 0100     		.2byte	0x1
 16060 08e0 50       		.byte	0x50
 16061 08e1 06000000 		.4byte	.LVL160
 16062 08e5 64000000 		.4byte	.LFE181
 16063 08e9 0400     		.2byte	0x4
 16064 08eb F3       		.byte	0xf3
 16065 08ec 01       		.uleb128 0x1
 16066 08ed 50       		.byte	0x50
 16067 08ee 9F       		.byte	0x9f
 16068 08ef 00000000 		.4byte	0
 16069 08f3 00000000 		.4byte	0
 16070              	.LLST81:
 16071 08f7 00000000 		.4byte	.LVL158
 16072 08fb 18000000 		.4byte	.LVL161
ARM GAS  C:\Users\haske\AppData\Local\Temp\ccmHbbn5.s 			page 314


 16073 08ff 0100     		.2byte	0x1
 16074 0901 51       		.byte	0x51
 16075 0902 18000000 		.4byte	.LVL161
 16076 0906 5E000000 		.4byte	.LVL166
 16077 090a 0100     		.2byte	0x1
 16078 090c 54       		.byte	0x54
 16079 090d 5E000000 		.4byte	.LVL166
 16080 0911 64000000 		.4byte	.LFE181
 16081 0915 0400     		.2byte	0x4
 16082 0917 F3       		.byte	0xf3
 16083 0918 01       		.uleb128 0x1
 16084 0919 51       		.byte	0x51
 16085 091a 9F       		.byte	0x9f
 16086 091b 00000000 		.4byte	0
 16087 091f 00000000 		.4byte	0
 16088              	.LLST82:
 16089 0923 04000000 		.4byte	.LVL159
 16090 0927 18000000 		.4byte	.LVL161
 16091 092b 0100     		.2byte	0x1
 16092 092d 51       		.byte	0x51
 16093 092e 18000000 		.4byte	.LVL161
 16094 0932 5E000000 		.4byte	.LVL166
 16095 0936 0100     		.2byte	0x1
 16096 0938 54       		.byte	0x54
 16097 0939 5E000000 		.4byte	.LVL166
 16098 093d 64000000 		.4byte	.LFE181
 16099 0941 0400     		.2byte	0x4
 16100 0943 F3       		.byte	0xf3
 16101 0944 01       		.uleb128 0x1
 16102 0945 51       		.byte	0x51
 16103 0946 9F       		.byte	0x9f
 16104 0947 00000000 		.4byte	0
 16105 094b 00000000 		.4byte	0
 16106              	.LLST83:
 16107 094f 00000000 		.4byte	.LVL167
 16108 0953 15000000 		.4byte	.LVL168-1
 16109 0957 0100     		.2byte	0x1
 16110 0959 50       		.byte	0x50
 16111 095a 15000000 		.4byte	.LVL168-1
 16112 095e BE000000 		.4byte	.LVL188
 16113 0962 0100     		.2byte	0x1
 16114 0964 56       		.byte	0x56
 16115 0965 BE000000 		.4byte	.LVL188
 16116 0969 C6000000 		.4byte	.LFE184
 16117 096d 0400     		.2byte	0x4
 16118 096f F3       		.byte	0xf3
 16119 0970 01       		.uleb128 0x1
 16120 0971 50       		.byte	0x50
 16121 0972 9F       		.byte	0x9f
 16122 0973 00000000 		.4byte	0
 16123 0977 00000000 		.4byte	0
 16124              	.LLST84:
 16125 097b 00000000 		.4byte	.LVL167
 16126 097f 15000000 		.4byte	.LVL168-1
 16127 0983 0100     		.2byte	0x1
 16128 0985 51       		.byte	0x51
 16129 0986 15000000 		.4byte	.LVL168-1
ARM GAS  C:\Users\haske\AppData\Local\Temp\ccmHbbn5.s 			page 315


 16130 098a 2C000000 		.4byte	.LVL170
 16131 098e 0400     		.2byte	0x4
 16132 0990 F3       		.byte	0xf3
 16133 0991 01       		.uleb128 0x1
 16134 0992 51       		.byte	0x51
 16135 0993 9F       		.byte	0x9f
 16136 0994 2C000000 		.4byte	.LVL170
 16137 0998 3E000000 		.4byte	.LVL172
 16138 099c 0100     		.2byte	0x1
 16139 099e 55       		.byte	0x55
 16140 099f 40000000 		.4byte	.LVL173
 16141 09a3 BC000000 		.4byte	.LVL187
 16142 09a7 0100     		.2byte	0x1
 16143 09a9 57       		.byte	0x57
 16144 09aa 00000000 		.4byte	0
 16145 09ae 00000000 		.4byte	0
 16146              	.LLST85:
 16147 09b2 00000000 		.4byte	.LVL167
 16148 09b6 15000000 		.4byte	.LVL168-1
 16149 09ba 0100     		.2byte	0x1
 16150 09bc 52       		.byte	0x52
 16151 09bd 15000000 		.4byte	.LVL168-1
 16152 09c1 3A000000 		.4byte	.LVL171
 16153 09c5 0400     		.2byte	0x4
 16154 09c7 F3       		.byte	0xf3
 16155 09c8 01       		.uleb128 0x1
 16156 09c9 52       		.byte	0x52
 16157 09ca 9F       		.byte	0x9f
 16158 09cb 3A000000 		.4byte	.LVL171
 16159 09cf 42000000 		.4byte	.LVL174
 16160 09d3 0100     		.2byte	0x1
 16161 09d5 54       		.byte	0x54
 16162 09d6 44000000 		.4byte	.LVL175
 16163 09da 5E000000 		.4byte	.LVL177
 16164 09de 0100     		.2byte	0x1
 16165 09e0 54       		.byte	0x54
 16166 09e1 5E000000 		.4byte	.LVL177
 16167 09e5 60000000 		.4byte	.LVL178
 16168 09e9 0400     		.2byte	0x4
 16169 09eb 74       		.byte	0x74
 16170 09ec E900     		.sleb128 105
 16171 09ee 9F       		.byte	0x9f
 16172 09ef 60000000 		.4byte	.LVL178
 16173 09f3 62000000 		.4byte	.LVL179
 16174 09f7 0400     		.2byte	0x4
 16175 09f9 74       		.byte	0x74
 16176 09fa E802     		.sleb128 360
 16177 09fc 9F       		.byte	0x9f
 16178 09fd 62000000 		.4byte	.LVL179
 16179 0a01 BC000000 		.4byte	.LVL187
 16180 0a05 0100     		.2byte	0x1
 16181 0a07 54       		.byte	0x54
 16182 0a08 00000000 		.4byte	0
 16183 0a0c 00000000 		.4byte	0
 16184              	.LLST86:
 16185 0a10 00000000 		.4byte	.LVL167
 16186 0a14 15000000 		.4byte	.LVL168-1
ARM GAS  C:\Users\haske\AppData\Local\Temp\ccmHbbn5.s 			page 316


 16187 0a18 0100     		.2byte	0x1
 16188 0a1a 53       		.byte	0x53
 16189 0a1b 15000000 		.4byte	.LVL168-1
 16190 0a1f C6000000 		.4byte	.LFE184
 16191 0a23 0200     		.2byte	0x2
 16192 0a25 91       		.byte	0x91
 16193 0a26 4C       		.sleb128 -52
 16194 0a27 00000000 		.4byte	0
 16195 0a2b 00000000 		.4byte	0
 16196              	.LLST87:
 16197 0a2f 1A000000 		.4byte	.LVL169
 16198 0a33 BC000000 		.4byte	.LVL187
 16199 0a37 0100     		.2byte	0x1
 16200 0a39 56       		.byte	0x56
 16201 0a3a 00000000 		.4byte	0
 16202 0a3e 00000000 		.4byte	0
 16203              	.LLST88:
 16204 0a42 96000000 		.4byte	.LVL184
 16205 0a46 AA000000 		.4byte	.LVL185
 16206 0a4a 0600     		.2byte	0x6
 16207 0a4c 73       		.byte	0x73
 16208 0a4d 00       		.sleb128 0
 16209 0a4e 08       		.byte	0x8
 16210 0a4f FF       		.byte	0xff
 16211 0a50 1A       		.byte	0x1a
 16212 0a51 9F       		.byte	0x9f
 16213 0a52 AA000000 		.4byte	.LVL185
 16214 0a56 B3000000 		.4byte	.LVL186-1
 16215 0a5a 0800     		.2byte	0x8
 16216 0a5c 91       		.byte	0x91
 16217 0a5d 40       		.sleb128 -64
 16218 0a5e 94       		.byte	0x94
 16219 0a5f 01       		.byte	0x1
 16220 0a60 08       		.byte	0x8
 16221 0a61 FF       		.byte	0xff
 16222 0a62 1A       		.byte	0x1a
 16223 0a63 9F       		.byte	0x9f
 16224 0a64 00000000 		.4byte	0
 16225 0a68 00000000 		.4byte	0
 16226              	.LLST89:
 16227 0a6c 78000000 		.4byte	.LVL180
 16228 0a70 86000000 		.4byte	.LVL182
 16229 0a74 0200     		.2byte	0x2
 16230 0a76 91       		.byte	0x91
 16231 0a77 4C       		.sleb128 -52
 16232 0a78 00000000 		.4byte	0
 16233 0a7c 00000000 		.4byte	0
 16234              	.LLST90:
 16235 0a80 78000000 		.4byte	.LVL180
 16236 0a84 86000000 		.4byte	.LVL182
 16237 0a88 0100     		.2byte	0x1
 16238 0a8a 56       		.byte	0x56
 16239 0a8b 00000000 		.4byte	0
 16240 0a8f 00000000 		.4byte	0
 16241              	.LLST91:
 16242 0a93 86000000 		.4byte	.LVL182
 16243 0a97 96000000 		.4byte	.LVL184
ARM GAS  C:\Users\haske\AppData\Local\Temp\ccmHbbn5.s 			page 317


 16244 0a9b 0200     		.2byte	0x2
 16245 0a9d 91       		.byte	0x91
 16246 0a9e 4C       		.sleb128 -52
 16247 0a9f 00000000 		.4byte	0
 16248 0aa3 00000000 		.4byte	0
 16249              	.LLST92:
 16250 0aa7 86000000 		.4byte	.LVL182
 16251 0aab 96000000 		.4byte	.LVL184
 16252 0aaf 0100     		.2byte	0x1
 16253 0ab1 56       		.byte	0x56
 16254 0ab2 00000000 		.4byte	0
 16255 0ab6 00000000 		.4byte	0
 16256              	.LLST93:
 16257 0aba 90000000 		.4byte	.LVL183
 16258 0abe 96000000 		.4byte	.LVL184
 16259 0ac2 0100     		.2byte	0x1
 16260 0ac4 50       		.byte	0x50
 16261 0ac5 00000000 		.4byte	0
 16262 0ac9 00000000 		.4byte	0
 16263              	.LLST94:
 16264 0acd 00000000 		.4byte	.LVL189
 16265 0ad1 11000000 		.4byte	.LVL190-1
 16266 0ad5 0100     		.2byte	0x1
 16267 0ad7 50       		.byte	0x50
 16268 0ad8 11000000 		.4byte	.LVL190-1
 16269 0adc 3E000000 		.4byte	.LVL196
 16270 0ae0 0100     		.2byte	0x1
 16271 0ae2 54       		.byte	0x54
 16272 0ae3 3E000000 		.4byte	.LVL196
 16273 0ae7 40000000 		.4byte	.LFE185
 16274 0aeb 0400     		.2byte	0x4
 16275 0aed F3       		.byte	0xf3
 16276 0aee 01       		.uleb128 0x1
 16277 0aef 50       		.byte	0x50
 16278 0af0 9F       		.byte	0x9f
 16279 0af1 00000000 		.4byte	0
 16280 0af5 00000000 		.4byte	0
 16281              	.LLST95:
 16282 0af9 26000000 		.4byte	.LVL192
 16283 0afd 30000000 		.4byte	.LVL193
 16284 0b01 0100     		.2byte	0x1
 16285 0b03 50       		.byte	0x50
 16286 0b04 00000000 		.4byte	0
 16287 0b08 00000000 		.4byte	0
 16288              	.LLST96:
 16289 0b0c 00000000 		.4byte	.LVL197
 16290 0b10 06000000 		.4byte	.LVL198
 16291 0b14 0100     		.2byte	0x1
 16292 0b16 50       		.byte	0x50
 16293 0b17 06000000 		.4byte	.LVL198
 16294 0b1b 09000000 		.4byte	.LVL199-1
 16295 0b1f 0100     		.2byte	0x1
 16296 0b21 51       		.byte	0x51
 16297 0b22 09000000 		.4byte	.LVL199-1
 16298 0b26 18000000 		.4byte	.LFE159
 16299 0b2a 0400     		.2byte	0x4
 16300 0b2c F3       		.byte	0xf3
ARM GAS  C:\Users\haske\AppData\Local\Temp\ccmHbbn5.s 			page 318


 16301 0b2d 01       		.uleb128 0x1
 16302 0b2e 50       		.byte	0x50
 16303 0b2f 9F       		.byte	0x9f
 16304 0b30 00000000 		.4byte	0
 16305 0b34 00000000 		.4byte	0
 16306              	.LLST97:
 16307 0b38 0C000000 		.4byte	.LVL200
 16308 0b3c 0F000000 		.4byte	.LVL201-1
 16309 0b40 0100     		.2byte	0x1
 16310 0b42 50       		.byte	0x50
 16311 0b43 0F000000 		.4byte	.LVL201-1
 16312 0b47 12000000 		.4byte	.LVL202
 16313 0b4b 0100     		.2byte	0x1
 16314 0b4d 54       		.byte	0x54
 16315 0b4e 12000000 		.4byte	.LVL202
 16316 0b52 18000000 		.4byte	.LFE159
 16317 0b56 0100     		.2byte	0x1
 16318 0b58 50       		.byte	0x50
 16319 0b59 00000000 		.4byte	0
 16320 0b5d 00000000 		.4byte	0
 16321              	.LLST98:
 16322 0b61 00000000 		.4byte	.LVL203
 16323 0b65 24000000 		.4byte	.LVL207
 16324 0b69 0100     		.2byte	0x1
 16325 0b6b 50       		.byte	0x50
 16326 0b6c 24000000 		.4byte	.LVL207
 16327 0b70 7E000000 		.4byte	.LVL220
 16328 0b74 0100     		.2byte	0x1
 16329 0b76 54       		.byte	0x54
 16330 0b77 7E000000 		.4byte	.LVL220
 16331 0b7b 80000000 		.4byte	.LFE160
 16332 0b7f 0400     		.2byte	0x4
 16333 0b81 F3       		.byte	0xf3
 16334 0b82 01       		.uleb128 0x1
 16335 0b83 50       		.byte	0x50
 16336 0b84 9F       		.byte	0x9f
 16337 0b85 00000000 		.4byte	0
 16338 0b89 00000000 		.4byte	0
 16339              	.LLST99:
 16340 0b8d 00000000 		.4byte	.LVL203
 16341 0b91 14000000 		.4byte	.LVL205
 16342 0b95 0100     		.2byte	0x1
 16343 0b97 51       		.byte	0x51
 16344 0b98 14000000 		.4byte	.LVL205
 16345 0b9c 7E000000 		.4byte	.LVL221
 16346 0ba0 0100     		.2byte	0x1
 16347 0ba2 55       		.byte	0x55
 16348 0ba3 00000000 		.4byte	0
 16349 0ba7 00000000 		.4byte	0
 16350              	.LLST100:
 16351 0bab 06000000 		.4byte	.LVL204
 16352 0baf 24000000 		.4byte	.LVL207
 16353 0bb3 0100     		.2byte	0x1
 16354 0bb5 50       		.byte	0x50
 16355 0bb6 24000000 		.4byte	.LVL207
 16356 0bba 7E000000 		.4byte	.LVL220
 16357 0bbe 0100     		.2byte	0x1
ARM GAS  C:\Users\haske\AppData\Local\Temp\ccmHbbn5.s 			page 319


 16358 0bc0 54       		.byte	0x54
 16359 0bc1 7E000000 		.4byte	.LVL220
 16360 0bc5 80000000 		.4byte	.LFE160
 16361 0bc9 0400     		.2byte	0x4
 16362 0bcb F3       		.byte	0xf3
 16363 0bcc 01       		.uleb128 0x1
 16364 0bcd 50       		.byte	0x50
 16365 0bce 9F       		.byte	0x9f
 16366 0bcf 00000000 		.4byte	0
 16367 0bd3 00000000 		.4byte	0
 16368              	.LLST101:
 16369 0bd7 1E000000 		.4byte	.LVL206
 16370 0bdb 7E000000 		.4byte	.LVL222
 16371 0bdf 0100     		.2byte	0x1
 16372 0be1 56       		.byte	0x56
 16373 0be2 00000000 		.4byte	0
 16374 0be6 00000000 		.4byte	0
 16375              	.LLST102:
 16376 0bea 24000000 		.4byte	.LVL207
 16377 0bee 46000000 		.4byte	.LVL210
 16378 0bf2 0100     		.2byte	0x1
 16379 0bf4 50       		.byte	0x50
 16380 0bf5 4C000000 		.4byte	.LVL212
 16381 0bf9 58000000 		.4byte	.LVL213
 16382 0bfd 0100     		.2byte	0x1
 16383 0bff 50       		.byte	0x50
 16384 0c00 5E000000 		.4byte	.LVL215
 16385 0c04 6C000000 		.4byte	.LVL216
 16386 0c08 0100     		.2byte	0x1
 16387 0c0a 50       		.byte	0x50
 16388 0c0b 00000000 		.4byte	0
 16389 0c0f 00000000 		.4byte	0
 16390              	.LLST103:
 16391 0c13 00000000 		.4byte	.LVL223
 16392 0c17 24000000 		.4byte	.LVL227
 16393 0c1b 0100     		.2byte	0x1
 16394 0c1d 50       		.byte	0x50
 16395 0c1e 24000000 		.4byte	.LVL227
 16396 0c22 7E000000 		.4byte	.LVL240
 16397 0c26 0100     		.2byte	0x1
 16398 0c28 54       		.byte	0x54
 16399 0c29 7E000000 		.4byte	.LVL240
 16400 0c2d 80000000 		.4byte	.LFE161
 16401 0c31 0400     		.2byte	0x4
 16402 0c33 F3       		.byte	0xf3
 16403 0c34 01       		.uleb128 0x1
 16404 0c35 50       		.byte	0x50
 16405 0c36 9F       		.byte	0x9f
 16406 0c37 00000000 		.4byte	0
 16407 0c3b 00000000 		.4byte	0
 16408              	.LLST104:
 16409 0c3f 00000000 		.4byte	.LVL223
 16410 0c43 14000000 		.4byte	.LVL225
 16411 0c47 0100     		.2byte	0x1
 16412 0c49 51       		.byte	0x51
 16413 0c4a 14000000 		.4byte	.LVL225
 16414 0c4e 7E000000 		.4byte	.LVL241
ARM GAS  C:\Users\haske\AppData\Local\Temp\ccmHbbn5.s 			page 320


 16415 0c52 0100     		.2byte	0x1
 16416 0c54 55       		.byte	0x55
 16417 0c55 00000000 		.4byte	0
 16418 0c59 00000000 		.4byte	0
 16419              	.LLST105:
 16420 0c5d 06000000 		.4byte	.LVL224
 16421 0c61 24000000 		.4byte	.LVL227
 16422 0c65 0100     		.2byte	0x1
 16423 0c67 50       		.byte	0x50
 16424 0c68 24000000 		.4byte	.LVL227
 16425 0c6c 7E000000 		.4byte	.LVL240
 16426 0c70 0100     		.2byte	0x1
 16427 0c72 54       		.byte	0x54
 16428 0c73 7E000000 		.4byte	.LVL240
 16429 0c77 80000000 		.4byte	.LFE161
 16430 0c7b 0400     		.2byte	0x4
 16431 0c7d F3       		.byte	0xf3
 16432 0c7e 01       		.uleb128 0x1
 16433 0c7f 50       		.byte	0x50
 16434 0c80 9F       		.byte	0x9f
 16435 0c81 00000000 		.4byte	0
 16436 0c85 00000000 		.4byte	0
 16437              	.LLST106:
 16438 0c89 1E000000 		.4byte	.LVL226
 16439 0c8d 7E000000 		.4byte	.LVL242
 16440 0c91 0100     		.2byte	0x1
 16441 0c93 56       		.byte	0x56
 16442 0c94 00000000 		.4byte	0
 16443 0c98 00000000 		.4byte	0
 16444              	.LLST107:
 16445 0c9c 24000000 		.4byte	.LVL227
 16446 0ca0 46000000 		.4byte	.LVL230
 16447 0ca4 0100     		.2byte	0x1
 16448 0ca6 50       		.byte	0x50
 16449 0ca7 4C000000 		.4byte	.LVL232
 16450 0cab 5A000000 		.4byte	.LVL233
 16451 0caf 0100     		.2byte	0x1
 16452 0cb1 50       		.byte	0x50
 16453 0cb2 60000000 		.4byte	.LVL235
 16454 0cb6 6C000000 		.4byte	.LVL236
 16455 0cba 0100     		.2byte	0x1
 16456 0cbc 50       		.byte	0x50
 16457 0cbd 00000000 		.4byte	0
 16458 0cc1 00000000 		.4byte	0
 16459              	.LLST108:
 16460 0cc5 00000000 		.4byte	.LVL243
 16461 0cc9 0B000000 		.4byte	.LVL245-1
 16462 0ccd 0100     		.2byte	0x1
 16463 0ccf 50       		.byte	0x50
 16464 0cd0 0B000000 		.4byte	.LVL245-1
 16465 0cd4 14000000 		.4byte	.LVL247
 16466 0cd8 0100     		.2byte	0x1
 16467 0cda 54       		.byte	0x54
 16468 0cdb 14000000 		.4byte	.LVL247
 16469 0cdf 16000000 		.4byte	.LFE162
 16470 0ce3 0400     		.2byte	0x4
 16471 0ce5 F3       		.byte	0xf3
ARM GAS  C:\Users\haske\AppData\Local\Temp\ccmHbbn5.s 			page 321


 16472 0ce6 01       		.uleb128 0x1
 16473 0ce7 50       		.byte	0x50
 16474 0ce8 9F       		.byte	0x9f
 16475 0ce9 00000000 		.4byte	0
 16476 0ced 00000000 		.4byte	0
 16477              	.LLST109:
 16478 0cf1 00000000 		.4byte	.LVL243
 16479 0cf5 08000000 		.4byte	.LVL244
 16480 0cf9 0100     		.2byte	0x1
 16481 0cfb 51       		.byte	0x51
 16482 0cfc 08000000 		.4byte	.LVL244
 16483 0d00 16000000 		.4byte	.LFE162
 16484 0d04 0400     		.2byte	0x4
 16485 0d06 F3       		.byte	0xf3
 16486 0d07 01       		.uleb128 0x1
 16487 0d08 51       		.byte	0x51
 16488 0d09 9F       		.byte	0x9f
 16489 0d0a 00000000 		.4byte	0
 16490 0d0e 00000000 		.4byte	0
 16491              	.LLST110:
 16492 0d12 00000000 		.4byte	.LVL243
 16493 0d16 0B000000 		.4byte	.LVL245-1
 16494 0d1a 0100     		.2byte	0x1
 16495 0d1c 52       		.byte	0x52
 16496 0d1d 0B000000 		.4byte	.LVL245-1
 16497 0d21 16000000 		.4byte	.LFE162
 16498 0d25 0400     		.2byte	0x4
 16499 0d27 F3       		.byte	0xf3
 16500 0d28 01       		.uleb128 0x1
 16501 0d29 52       		.byte	0x52
 16502 0d2a 9F       		.byte	0x9f
 16503 0d2b 00000000 		.4byte	0
 16504 0d2f 00000000 		.4byte	0
 16505              	.LLST111:
 16506 0d33 00000000 		.4byte	.LVL248
 16507 0d37 0E000000 		.4byte	.LVL250
 16508 0d3b 0100     		.2byte	0x1
 16509 0d3d 50       		.byte	0x50
 16510 0d3e 0E000000 		.4byte	.LVL250
 16511 0d42 DC000000 		.4byte	.LVL278
 16512 0d46 0100     		.2byte	0x1
 16513 0d48 54       		.byte	0x54
 16514 0d49 DC000000 		.4byte	.LVL278
 16515 0d4d E8000000 		.4byte	.LFE189
 16516 0d51 0400     		.2byte	0x4
 16517 0d53 F3       		.byte	0xf3
 16518 0d54 01       		.uleb128 0x1
 16519 0d55 50       		.byte	0x50
 16520 0d56 9F       		.byte	0x9f
 16521 0d57 00000000 		.4byte	0
 16522 0d5b 00000000 		.4byte	0
 16523              	.LLST112:
 16524 0d5f 0A000000 		.4byte	.LVL249
 16525 0d63 0E000000 		.4byte	.LVL250
 16526 0d67 0100     		.2byte	0x1
 16527 0d69 50       		.byte	0x50
 16528 0d6a 0E000000 		.4byte	.LVL250
ARM GAS  C:\Users\haske\AppData\Local\Temp\ccmHbbn5.s 			page 322


 16529 0d6e DC000000 		.4byte	.LVL278
 16530 0d72 0100     		.2byte	0x1
 16531 0d74 54       		.byte	0x54
 16532 0d75 DC000000 		.4byte	.LVL278
 16533 0d79 E8000000 		.4byte	.LFE189
 16534 0d7d 0400     		.2byte	0x4
 16535 0d7f F3       		.byte	0xf3
 16536 0d80 01       		.uleb128 0x1
 16537 0d81 50       		.byte	0x50
 16538 0d82 9F       		.byte	0x9f
 16539 0d83 00000000 		.4byte	0
 16540 0d87 00000000 		.4byte	0
 16541              	.LLST113:
 16542 0d8b 46000000 		.4byte	.LVL253
 16543 0d8f A0000000 		.4byte	.LVL268
 16544 0d93 0100     		.2byte	0x1
 16545 0d95 58       		.byte	0x58
 16546 0d96 00000000 		.4byte	0
 16547 0d9a 00000000 		.4byte	0
 16548              	.LLST114:
 16549 0d9e 5C000000 		.4byte	.LVL254
 16550 0da2 6A000000 		.4byte	.LVL256
 16551 0da6 0100     		.2byte	0x1
 16552 0da8 51       		.byte	0x51
 16553 0da9 6A000000 		.4byte	.LVL256
 16554 0dad 6D000000 		.4byte	.LVL257-1
 16555 0db1 0100     		.2byte	0x1
 16556 0db3 52       		.byte	0x52
 16557 0db4 6D000000 		.4byte	.LVL257-1
 16558 0db8 82000000 		.4byte	.LVL261
 16559 0dbc 0100     		.2byte	0x1
 16560 0dbe 57       		.byte	0x57
 16561 0dbf 82000000 		.4byte	.LVL261
 16562 0dc3 89000000 		.4byte	.LVL263-1
 16563 0dc7 0100     		.2byte	0x1
 16564 0dc9 51       		.byte	0x51
 16565 0dca 89000000 		.4byte	.LVL263-1
 16566 0dce 8C000000 		.4byte	.LVL264
 16567 0dd2 0100     		.2byte	0x1
 16568 0dd4 57       		.byte	0x57
 16569 0dd5 00000000 		.4byte	0
 16570 0dd9 00000000 		.4byte	0
 16571              	.LLST115:
 16572 0ddd 18000000 		.4byte	.LVL251
 16573 0de1 62000000 		.4byte	.LVL255
 16574 0de5 0100     		.2byte	0x1
 16575 0de7 53       		.byte	0x53
 16576 0de8 82000000 		.4byte	.LVL261
 16577 0dec 86000000 		.4byte	.LVL262
 16578 0df0 0100     		.2byte	0x1
 16579 0df2 53       		.byte	0x53
 16580 0df3 A0000000 		.4byte	.LVL268
 16581 0df7 AD000000 		.4byte	.LVL269-1
 16582 0dfb 0100     		.2byte	0x1
 16583 0dfd 53       		.byte	0x53
 16584 0dfe BC000000 		.4byte	.LVL272
 16585 0e02 C8000000 		.4byte	.LVL273
ARM GAS  C:\Users\haske\AppData\Local\Temp\ccmHbbn5.s 			page 323


 16586 0e06 0100     		.2byte	0x1
 16587 0e08 53       		.byte	0x53
 16588 0e09 00000000 		.4byte	0
 16589 0e0d 00000000 		.4byte	0
 16590              	.LLST116:
 16591 0e11 70000000 		.4byte	.LVL258
 16592 0e15 82000000 		.4byte	.LVL261
 16593 0e19 0100     		.2byte	0x1
 16594 0e1b 55       		.byte	0x55
 16595 0e1c 8E000000 		.4byte	.LVL265
 16596 0e20 A0000000 		.4byte	.LVL268
 16597 0e24 0100     		.2byte	0x1
 16598 0e26 55       		.byte	0x55
 16599 0e27 B0000000 		.4byte	.LVL270
 16600 0e2b BC000000 		.4byte	.LVL272
 16601 0e2f 0100     		.2byte	0x1
 16602 0e31 55       		.byte	0x55
 16603 0e32 CE000000 		.4byte	.LVL275
 16604 0e36 DA000000 		.4byte	.LVL277
 16605 0e3a 0100     		.2byte	0x1
 16606 0e3c 55       		.byte	0x55
 16607 0e3d 00000000 		.4byte	0
 16608 0e41 00000000 		.4byte	0
 16609              	.LLST117:
 16610 0e45 00000000 		.4byte	.LVL279
 16611 0e49 24000000 		.4byte	.LVL283
 16612 0e4d 0100     		.2byte	0x1
 16613 0e4f 50       		.byte	0x50
 16614 0e50 24000000 		.4byte	.LVL283
 16615 0e54 74000000 		.4byte	.LVL296
 16616 0e58 0100     		.2byte	0x1
 16617 0e5a 55       		.byte	0x55
 16618 0e5b 74000000 		.4byte	.LVL296
 16619 0e5f 76000000 		.4byte	.LFE163
 16620 0e63 0400     		.2byte	0x4
 16621 0e65 F3       		.byte	0xf3
 16622 0e66 01       		.uleb128 0x1
 16623 0e67 50       		.byte	0x50
 16624 0e68 9F       		.byte	0x9f
 16625 0e69 00000000 		.4byte	0
 16626 0e6d 00000000 		.4byte	0
 16627              	.LLST118:
 16628 0e71 00000000 		.4byte	.LVL279
 16629 0e75 14000000 		.4byte	.LVL281
 16630 0e79 0100     		.2byte	0x1
 16631 0e7b 51       		.byte	0x51
 16632 0e7c 14000000 		.4byte	.LVL281
 16633 0e80 74000000 		.4byte	.LVL295
 16634 0e84 0100     		.2byte	0x1
 16635 0e86 54       		.byte	0x54
 16636 0e87 00000000 		.4byte	0
 16637 0e8b 00000000 		.4byte	0
 16638              	.LLST119:
 16639 0e8f 06000000 		.4byte	.LVL280
 16640 0e93 24000000 		.4byte	.LVL283
 16641 0e97 0100     		.2byte	0x1
 16642 0e99 50       		.byte	0x50
ARM GAS  C:\Users\haske\AppData\Local\Temp\ccmHbbn5.s 			page 324


 16643 0e9a 24000000 		.4byte	.LVL283
 16644 0e9e 74000000 		.4byte	.LVL296
 16645 0ea2 0100     		.2byte	0x1
 16646 0ea4 55       		.byte	0x55
 16647 0ea5 74000000 		.4byte	.LVL296
 16648 0ea9 76000000 		.4byte	.LFE163
 16649 0ead 0400     		.2byte	0x4
 16650 0eaf F3       		.byte	0xf3
 16651 0eb0 01       		.uleb128 0x1
 16652 0eb1 50       		.byte	0x50
 16653 0eb2 9F       		.byte	0x9f
 16654 0eb3 00000000 		.4byte	0
 16655 0eb7 00000000 		.4byte	0
 16656              	.LLST120:
 16657 0ebb 1E000000 		.4byte	.LVL282
 16658 0ebf 74000000 		.4byte	.LVL297
 16659 0ec3 0100     		.2byte	0x1
 16660 0ec5 56       		.byte	0x56
 16661 0ec6 00000000 		.4byte	0
 16662 0eca 00000000 		.4byte	0
 16663              	.LLST121:
 16664 0ece 24000000 		.4byte	.LVL283
 16665 0ed2 46000000 		.4byte	.LVL286
 16666 0ed6 0100     		.2byte	0x1
 16667 0ed8 50       		.byte	0x50
 16668 0ed9 4C000000 		.4byte	.LVL288
 16669 0edd 56000000 		.4byte	.LVL289
 16670 0ee1 0100     		.2byte	0x1
 16671 0ee3 50       		.byte	0x50
 16672 0ee4 5C000000 		.4byte	.LVL291
 16673 0ee8 68000000 		.4byte	.LVL292
 16674 0eec 0100     		.2byte	0x1
 16675 0eee 50       		.byte	0x50
 16676 0eef 00000000 		.4byte	0
 16677 0ef3 00000000 		.4byte	0
 16678              	.LLST122:
 16679 0ef7 00000000 		.4byte	.LVL298
 16680 0efb 24000000 		.4byte	.LVL302
 16681 0eff 0100     		.2byte	0x1
 16682 0f01 50       		.byte	0x50
 16683 0f02 24000000 		.4byte	.LVL302
 16684 0f06 74000000 		.4byte	.LVL315
 16685 0f0a 0100     		.2byte	0x1
 16686 0f0c 55       		.byte	0x55
 16687 0f0d 74000000 		.4byte	.LVL315
 16688 0f11 76000000 		.4byte	.LFE164
 16689 0f15 0400     		.2byte	0x4
 16690 0f17 F3       		.byte	0xf3
 16691 0f18 01       		.uleb128 0x1
 16692 0f19 50       		.byte	0x50
 16693 0f1a 9F       		.byte	0x9f
 16694 0f1b 00000000 		.4byte	0
 16695 0f1f 00000000 		.4byte	0
 16696              	.LLST123:
 16697 0f23 00000000 		.4byte	.LVL298
 16698 0f27 14000000 		.4byte	.LVL300
 16699 0f2b 0100     		.2byte	0x1
ARM GAS  C:\Users\haske\AppData\Local\Temp\ccmHbbn5.s 			page 325


 16700 0f2d 51       		.byte	0x51
 16701 0f2e 14000000 		.4byte	.LVL300
 16702 0f32 74000000 		.4byte	.LVL314
 16703 0f36 0100     		.2byte	0x1
 16704 0f38 54       		.byte	0x54
 16705 0f39 00000000 		.4byte	0
 16706 0f3d 00000000 		.4byte	0
 16707              	.LLST124:
 16708 0f41 06000000 		.4byte	.LVL299
 16709 0f45 24000000 		.4byte	.LVL302
 16710 0f49 0100     		.2byte	0x1
 16711 0f4b 50       		.byte	0x50
 16712 0f4c 24000000 		.4byte	.LVL302
 16713 0f50 74000000 		.4byte	.LVL315
 16714 0f54 0100     		.2byte	0x1
 16715 0f56 55       		.byte	0x55
 16716 0f57 74000000 		.4byte	.LVL315
 16717 0f5b 76000000 		.4byte	.LFE164
 16718 0f5f 0400     		.2byte	0x4
 16719 0f61 F3       		.byte	0xf3
 16720 0f62 01       		.uleb128 0x1
 16721 0f63 50       		.byte	0x50
 16722 0f64 9F       		.byte	0x9f
 16723 0f65 00000000 		.4byte	0
 16724 0f69 00000000 		.4byte	0
 16725              	.LLST125:
 16726 0f6d 1E000000 		.4byte	.LVL301
 16727 0f71 74000000 		.4byte	.LVL316
 16728 0f75 0100     		.2byte	0x1
 16729 0f77 56       		.byte	0x56
 16730 0f78 00000000 		.4byte	0
 16731 0f7c 00000000 		.4byte	0
 16732              	.LLST126:
 16733 0f80 24000000 		.4byte	.LVL302
 16734 0f84 46000000 		.4byte	.LVL305
 16735 0f88 0100     		.2byte	0x1
 16736 0f8a 50       		.byte	0x50
 16737 0f8b 4C000000 		.4byte	.LVL307
 16738 0f8f 58000000 		.4byte	.LVL308
 16739 0f93 0100     		.2byte	0x1
 16740 0f95 50       		.byte	0x50
 16741 0f96 5E000000 		.4byte	.LVL310
 16742 0f9a 68000000 		.4byte	.LVL311
 16743 0f9e 0100     		.2byte	0x1
 16744 0fa0 50       		.byte	0x50
 16745 0fa1 00000000 		.4byte	0
 16746 0fa5 00000000 		.4byte	0
 16747              	.LLST127:
 16748 0fa9 00000000 		.4byte	.LVL317
 16749 0fad 0B000000 		.4byte	.LVL319-1
 16750 0fb1 0100     		.2byte	0x1
 16751 0fb3 50       		.byte	0x50
 16752 0fb4 0B000000 		.4byte	.LVL319-1
 16753 0fb8 14000000 		.4byte	.LVL321
 16754 0fbc 0100     		.2byte	0x1
 16755 0fbe 54       		.byte	0x54
 16756 0fbf 14000000 		.4byte	.LVL321
ARM GAS  C:\Users\haske\AppData\Local\Temp\ccmHbbn5.s 			page 326


 16757 0fc3 16000000 		.4byte	.LFE165
 16758 0fc7 0400     		.2byte	0x4
 16759 0fc9 F3       		.byte	0xf3
 16760 0fca 01       		.uleb128 0x1
 16761 0fcb 50       		.byte	0x50
 16762 0fcc 9F       		.byte	0x9f
 16763 0fcd 00000000 		.4byte	0
 16764 0fd1 00000000 		.4byte	0
 16765              	.LLST128:
 16766 0fd5 00000000 		.4byte	.LVL317
 16767 0fd9 08000000 		.4byte	.LVL318
 16768 0fdd 0100     		.2byte	0x1
 16769 0fdf 51       		.byte	0x51
 16770 0fe0 08000000 		.4byte	.LVL318
 16771 0fe4 16000000 		.4byte	.LFE165
 16772 0fe8 0400     		.2byte	0x4
 16773 0fea F3       		.byte	0xf3
 16774 0feb 01       		.uleb128 0x1
 16775 0fec 51       		.byte	0x51
 16776 0fed 9F       		.byte	0x9f
 16777 0fee 00000000 		.4byte	0
 16778 0ff2 00000000 		.4byte	0
 16779              	.LLST129:
 16780 0ff6 00000000 		.4byte	.LVL317
 16781 0ffa 0B000000 		.4byte	.LVL319-1
 16782 0ffe 0100     		.2byte	0x1
 16783 1000 52       		.byte	0x52
 16784 1001 0B000000 		.4byte	.LVL319-1
 16785 1005 16000000 		.4byte	.LFE165
 16786 1009 0400     		.2byte	0x4
 16787 100b F3       		.byte	0xf3
 16788 100c 01       		.uleb128 0x1
 16789 100d 52       		.byte	0x52
 16790 100e 9F       		.byte	0x9f
 16791 100f 00000000 		.4byte	0
 16792 1013 00000000 		.4byte	0
 16793              	.LLST130:
 16794 1017 00000000 		.4byte	.LVL322
 16795 101b 07000000 		.4byte	.LVL324-1
 16796 101f 0100     		.2byte	0x1
 16797 1021 50       		.byte	0x50
 16798 1022 07000000 		.4byte	.LVL324-1
 16799 1026 0A000000 		.4byte	.LFE166
 16800 102a 0400     		.2byte	0x4
 16801 102c F3       		.byte	0xf3
 16802 102d 01       		.uleb128 0x1
 16803 102e 50       		.byte	0x50
 16804 102f 9F       		.byte	0x9f
 16805 1030 00000000 		.4byte	0
 16806 1034 00000000 		.4byte	0
 16807              	.LLST131:
 16808 1038 00000000 		.4byte	.LVL322
 16809 103c 07000000 		.4byte	.LVL324-1
 16810 1040 0100     		.2byte	0x1
 16811 1042 51       		.byte	0x51
 16812 1043 07000000 		.4byte	.LVL324-1
 16813 1047 0A000000 		.4byte	.LFE166
ARM GAS  C:\Users\haske\AppData\Local\Temp\ccmHbbn5.s 			page 327


 16814 104b 0400     		.2byte	0x4
 16815 104d F3       		.byte	0xf3
 16816 104e 01       		.uleb128 0x1
 16817 104f 51       		.byte	0x51
 16818 1050 9F       		.byte	0x9f
 16819 1051 00000000 		.4byte	0
 16820 1055 00000000 		.4byte	0
 16821              	.LLST132:
 16822 1059 02000000 		.4byte	.LVL323
 16823 105d 07000000 		.4byte	.LVL324-1
 16824 1061 0100     		.2byte	0x1
 16825 1063 50       		.byte	0x50
 16826 1064 07000000 		.4byte	.LVL324-1
 16827 1068 0A000000 		.4byte	.LFE166
 16828 106c 0400     		.2byte	0x4
 16829 106e F3       		.byte	0xf3
 16830 106f 01       		.uleb128 0x1
 16831 1070 50       		.byte	0x50
 16832 1071 9F       		.byte	0x9f
 16833 1072 00000000 		.4byte	0
 16834 1076 00000000 		.4byte	0
 16835              	.LLST133:
 16836 107a 00000000 		.4byte	.LVL325
 16837 107e 2F000000 		.4byte	.LVL332-1
 16838 1082 0100     		.2byte	0x1
 16839 1084 50       		.byte	0x50
 16840 1085 2F000000 		.4byte	.LVL332-1
 16841 1089 32000000 		.4byte	.LFE168
 16842 108d 0400     		.2byte	0x4
 16843 108f F3       		.byte	0xf3
 16844 1090 01       		.uleb128 0x1
 16845 1091 50       		.byte	0x50
 16846 1092 9F       		.byte	0x9f
 16847 1093 00000000 		.4byte	0
 16848 1097 00000000 		.4byte	0
 16849              	.LLST134:
 16850 109b 00000000 		.4byte	.LVL325
 16851 109f 1A000000 		.4byte	.LVL328
 16852 10a3 0100     		.2byte	0x1
 16853 10a5 51       		.byte	0x51
 16854 10a6 1A000000 		.4byte	.LVL328
 16855 10aa 32000000 		.4byte	.LFE168
 16856 10ae 0400     		.2byte	0x4
 16857 10b0 F3       		.byte	0xf3
 16858 10b1 01       		.uleb128 0x1
 16859 10b2 51       		.byte	0x51
 16860 10b3 9F       		.byte	0x9f
 16861 10b4 00000000 		.4byte	0
 16862 10b8 00000000 		.4byte	0
 16863              	.LLST135:
 16864 10bc 02000000 		.4byte	.LVL326
 16865 10c0 2F000000 		.4byte	.LVL332-1
 16866 10c4 0100     		.2byte	0x1
 16867 10c6 50       		.byte	0x50
 16868 10c7 2F000000 		.4byte	.LVL332-1
 16869 10cb 32000000 		.4byte	.LFE168
 16870 10cf 0400     		.2byte	0x4
ARM GAS  C:\Users\haske\AppData\Local\Temp\ccmHbbn5.s 			page 328


 16871 10d1 F3       		.byte	0xf3
 16872 10d2 01       		.uleb128 0x1
 16873 10d3 50       		.byte	0x50
 16874 10d4 9F       		.byte	0x9f
 16875 10d5 00000000 		.4byte	0
 16876 10d9 00000000 		.4byte	0
 16877              	.LLST136:
 16878 10dd 16000000 		.4byte	.LVL327
 16879 10e1 1E000000 		.4byte	.LVL329
 16880 10e5 0100     		.2byte	0x1
 16881 10e7 53       		.byte	0x53
 16882 10e8 1E000000 		.4byte	.LVL329
 16883 10ec 24000000 		.4byte	.LVL330
 16884 10f0 0100     		.2byte	0x1
 16885 10f2 51       		.byte	0x51
 16886 10f3 24000000 		.4byte	.LVL330
 16887 10f7 26000000 		.4byte	.LVL331
 16888 10fb 0100     		.2byte	0x1
 16889 10fd 53       		.byte	0x53
 16890 10fe 26000000 		.4byte	.LVL331
 16891 1102 2F000000 		.4byte	.LVL332-1
 16892 1106 0100     		.2byte	0x1
 16893 1108 51       		.byte	0x51
 16894 1109 00000000 		.4byte	0
 16895 110d 00000000 		.4byte	0
 16896              	.LLST137:
 16897 1111 00000000 		.4byte	.LVL333
 16898 1115 0A000000 		.4byte	.LVL336
 16899 1119 0100     		.2byte	0x1
 16900 111b 50       		.byte	0x50
 16901 111c 0A000000 		.4byte	.LVL336
 16902 1120 70000000 		.4byte	.LVL349
 16903 1124 0100     		.2byte	0x1
 16904 1126 54       		.byte	0x54
 16905 1127 70000000 		.4byte	.LVL349
 16906 112b 72000000 		.4byte	.LFE167
 16907 112f 0400     		.2byte	0x4
 16908 1131 F3       		.byte	0xf3
 16909 1132 01       		.uleb128 0x1
 16910 1133 50       		.byte	0x50
 16911 1134 9F       		.byte	0x9f
 16912 1135 00000000 		.4byte	0
 16913 1139 00000000 		.4byte	0
 16914              	.LLST138:
 16915 113d 00000000 		.4byte	.LVL333
 16916 1141 0E000000 		.4byte	.LVL337
 16917 1145 0100     		.2byte	0x1
 16918 1147 51       		.byte	0x51
 16919 1148 0E000000 		.4byte	.LVL337
 16920 114c 72000000 		.4byte	.LFE167
 16921 1150 0400     		.2byte	0x4
 16922 1152 F3       		.byte	0xf3
 16923 1153 01       		.uleb128 0x1
 16924 1154 51       		.byte	0x51
 16925 1155 9F       		.byte	0x9f
 16926 1156 00000000 		.4byte	0
 16927 115a 00000000 		.4byte	0
ARM GAS  C:\Users\haske\AppData\Local\Temp\ccmHbbn5.s 			page 329


 16928              	.LLST139:
 16929 115e 04000000 		.4byte	.LVL334
 16930 1162 0A000000 		.4byte	.LVL336
 16931 1166 0100     		.2byte	0x1
 16932 1168 50       		.byte	0x50
 16933 1169 0A000000 		.4byte	.LVL336
 16934 116d 70000000 		.4byte	.LVL349
 16935 1171 0100     		.2byte	0x1
 16936 1173 54       		.byte	0x54
 16937 1174 70000000 		.4byte	.LVL349
 16938 1178 72000000 		.4byte	.LFE167
 16939 117c 0400     		.2byte	0x4
 16940 117e F3       		.byte	0xf3
 16941 117f 01       		.uleb128 0x1
 16942 1180 50       		.byte	0x50
 16943 1181 9F       		.byte	0x9f
 16944 1182 00000000 		.4byte	0
 16945 1186 00000000 		.4byte	0
 16946              	.LLST140:
 16947 118a 08000000 		.4byte	.LVL335
 16948 118e 70000000 		.4byte	.LVL350
 16949 1192 0100     		.2byte	0x1
 16950 1194 56       		.byte	0x56
 16951 1195 00000000 		.4byte	0
 16952 1199 00000000 		.4byte	0
 16953              	.LLST141:
 16954 119d 44000000 		.4byte	.LVL341
 16955 11a1 4D000000 		.4byte	.LVL342-1
 16956 11a5 0100     		.2byte	0x1
 16957 11a7 53       		.byte	0x53
 16958 11a8 4D000000 		.4byte	.LVL342-1
 16959 11ac 58000000 		.4byte	.LVL344
 16960 11b0 0100     		.2byte	0x1
 16961 11b2 55       		.byte	0x55
 16962 11b3 00000000 		.4byte	0
 16963 11b7 00000000 		.4byte	0
 16964              	.LLST142:
 16965 11bb 24000000 		.4byte	.LVL338
 16966 11bf 3E000000 		.4byte	.LVL340
 16967 11c3 0100     		.2byte	0x1
 16968 11c5 53       		.byte	0x53
 16969 11c6 58000000 		.4byte	.LVL344
 16970 11ca 5F000000 		.4byte	.LVL345-1
 16971 11ce 0100     		.2byte	0x1
 16972 11d0 53       		.byte	0x53
 16973 11d1 62000000 		.4byte	.LVL346
 16974 11d5 67000000 		.4byte	.LVL347-1
 16975 11d9 0100     		.2byte	0x1
 16976 11db 53       		.byte	0x53
 16977 11dc 00000000 		.4byte	0
 16978 11e0 00000000 		.4byte	0
 16979              	.LLST143:
 16980 11e4 00000000 		.4byte	.LVL351
 16981 11e8 2D000000 		.4byte	.LVL354-1
 16982 11ec 0100     		.2byte	0x1
 16983 11ee 50       		.byte	0x50
 16984 11ef 2D000000 		.4byte	.LVL354-1
ARM GAS  C:\Users\haske\AppData\Local\Temp\ccmHbbn5.s 			page 330


 16985 11f3 30000000 		.4byte	.LFE169
 16986 11f7 0400     		.2byte	0x4
 16987 11f9 F3       		.byte	0xf3
 16988 11fa 01       		.uleb128 0x1
 16989 11fb 50       		.byte	0x50
 16990 11fc 9F       		.byte	0x9f
 16991 11fd 00000000 		.4byte	0
 16992 1201 00000000 		.4byte	0
 16993              	.LLST144:
 16994 1205 00000000 		.4byte	.LVL351
 16995 1209 24000000 		.4byte	.LVL353
 16996 120d 0100     		.2byte	0x1
 16997 120f 51       		.byte	0x51
 16998 1210 24000000 		.4byte	.LVL353
 16999 1214 2D000000 		.4byte	.LVL354-1
 17000 1218 0200     		.2byte	0x2
 17001 121a 70       		.byte	0x70
 17002 121b 30       		.sleb128 48
 17003 121c 2D000000 		.4byte	.LVL354-1
 17004 1220 30000000 		.4byte	.LFE169
 17005 1224 0400     		.2byte	0x4
 17006 1226 F3       		.byte	0xf3
 17007 1227 01       		.uleb128 0x1
 17008 1228 51       		.byte	0x51
 17009 1229 9F       		.byte	0x9f
 17010 122a 00000000 		.4byte	0
 17011 122e 00000000 		.4byte	0
 17012              	.LLST145:
 17013 1232 00000000 		.4byte	.LVL351
 17014 1236 2D000000 		.4byte	.LVL354-1
 17015 123a 0100     		.2byte	0x1
 17016 123c 52       		.byte	0x52
 17017 123d 2D000000 		.4byte	.LVL354-1
 17018 1241 30000000 		.4byte	.LFE169
 17019 1245 0400     		.2byte	0x4
 17020 1247 F3       		.byte	0xf3
 17021 1248 01       		.uleb128 0x1
 17022 1249 52       		.byte	0x52
 17023 124a 9F       		.byte	0x9f
 17024 124b 00000000 		.4byte	0
 17025 124f 00000000 		.4byte	0
 17026              	.LLST146:
 17027 1253 02000000 		.4byte	.LVL352
 17028 1257 2D000000 		.4byte	.LVL354-1
 17029 125b 0100     		.2byte	0x1
 17030 125d 50       		.byte	0x50
 17031 125e 2D000000 		.4byte	.LVL354-1
 17032 1262 30000000 		.4byte	.LFE169
 17033 1266 0400     		.2byte	0x4
 17034 1268 F3       		.byte	0xf3
 17035 1269 01       		.uleb128 0x1
 17036 126a 50       		.byte	0x50
 17037 126b 9F       		.byte	0x9f
 17038 126c 00000000 		.4byte	0
 17039 1270 00000000 		.4byte	0
 17040              	.LLST147:
 17041 1274 00000000 		.4byte	.LVL356
ARM GAS  C:\Users\haske\AppData\Local\Temp\ccmHbbn5.s 			page 331


 17042 1278 02000000 		.4byte	.LVL357
 17043 127c 0100     		.2byte	0x1
 17044 127e 50       		.byte	0x50
 17045 127f 02000000 		.4byte	.LVL357
 17046 1283 04000000 		.4byte	.LFE171
 17047 1287 0400     		.2byte	0x4
 17048 1289 F3       		.byte	0xf3
 17049 128a 01       		.uleb128 0x1
 17050 128b 50       		.byte	0x50
 17051 128c 9F       		.byte	0x9f
 17052 128d 00000000 		.4byte	0
 17053 1291 00000000 		.4byte	0
 17054              	.LLST148:
 17055 1295 00000000 		.4byte	.LVL358
 17056 1299 02000000 		.4byte	.LVL359
 17057 129d 0100     		.2byte	0x1
 17058 129f 50       		.byte	0x50
 17059 12a0 02000000 		.4byte	.LVL359
 17060 12a4 04000000 		.4byte	.LFE172
 17061 12a8 0400     		.2byte	0x4
 17062 12aa F3       		.byte	0xf3
 17063 12ab 01       		.uleb128 0x1
 17064 12ac 50       		.byte	0x50
 17065 12ad 9F       		.byte	0x9f
 17066 12ae 00000000 		.4byte	0
 17067 12b2 00000000 		.4byte	0
 17068              	.LLST149:
 17069 12b6 00000000 		.4byte	.LVL360
 17070 12ba 02000000 		.4byte	.LVL361
 17071 12be 0100     		.2byte	0x1
 17072 12c0 50       		.byte	0x50
 17073 12c1 02000000 		.4byte	.LVL361
 17074 12c5 04000000 		.4byte	.LFE173
 17075 12c9 0400     		.2byte	0x4
 17076 12cb F3       		.byte	0xf3
 17077 12cc 01       		.uleb128 0x1
 17078 12cd 50       		.byte	0x50
 17079 12ce 9F       		.byte	0x9f
 17080 12cf 00000000 		.4byte	0
 17081 12d3 00000000 		.4byte	0
 17082              	.LLST150:
 17083 12d7 00000000 		.4byte	.LVL362
 17084 12db 02000000 		.4byte	.LVL363
 17085 12df 0100     		.2byte	0x1
 17086 12e1 50       		.byte	0x50
 17087 12e2 02000000 		.4byte	.LVL363
 17088 12e6 04000000 		.4byte	.LFE174
 17089 12ea 0400     		.2byte	0x4
 17090 12ec F3       		.byte	0xf3
 17091 12ed 01       		.uleb128 0x1
 17092 12ee 50       		.byte	0x50
 17093 12ef 9F       		.byte	0x9f
 17094 12f0 00000000 		.4byte	0
 17095 12f4 00000000 		.4byte	0
 17096              	.LLST151:
 17097 12f8 00000000 		.4byte	.LVL364
 17098 12fc 04000000 		.4byte	.LVL365
ARM GAS  C:\Users\haske\AppData\Local\Temp\ccmHbbn5.s 			page 332


 17099 1300 0100     		.2byte	0x1
 17100 1302 50       		.byte	0x50
 17101 1303 04000000 		.4byte	.LVL365
 17102 1307 06000000 		.4byte	.LFE175
 17103 130b 0400     		.2byte	0x4
 17104 130d F3       		.byte	0xf3
 17105 130e 01       		.uleb128 0x1
 17106 130f 50       		.byte	0x50
 17107 1310 9F       		.byte	0x9f
 17108 1311 00000000 		.4byte	0
 17109 1315 00000000 		.4byte	0
 17110              	.LLST152:
 17111 1319 00000000 		.4byte	.LVL366
 17112 131d 10000000 		.4byte	.LVL367
 17113 1321 0100     		.2byte	0x1
 17114 1323 50       		.byte	0x50
 17115 1324 10000000 		.4byte	.LVL367
 17116 1328 90040000 		.4byte	.LFE182
 17117 132c 0400     		.2byte	0x4
 17118 132e F3       		.byte	0xf3
 17119 132f 01       		.uleb128 0x1
 17120 1330 50       		.byte	0x50
 17121 1331 9F       		.byte	0x9f
 17122 1332 00000000 		.4byte	0
 17123 1336 00000000 		.4byte	0
 17124              	.LLST153:
 17125 133a 00000000 		.4byte	.LVL366
 17126 133e 13000000 		.4byte	.LVL368-1
 17127 1342 0100     		.2byte	0x1
 17128 1344 51       		.byte	0x51
 17129 1345 13000000 		.4byte	.LVL368-1
 17130 1349 3E000000 		.4byte	.LVL379
 17131 134d 0100     		.2byte	0x1
 17132 134f 54       		.byte	0x54
 17133 1350 3E000000 		.4byte	.LVL379
 17134 1354 74020000 		.4byte	.LVL440
 17135 1358 0400     		.2byte	0x4
 17136 135a F3       		.byte	0xf3
 17137 135b 01       		.uleb128 0x1
 17138 135c 51       		.byte	0x51
 17139 135d 9F       		.byte	0x9f
 17140 135e 74020000 		.4byte	.LVL440
 17141 1362 94020000 		.4byte	.LVL445
 17142 1366 0100     		.2byte	0x1
 17143 1368 54       		.byte	0x54
 17144 1369 94020000 		.4byte	.LVL445
 17145 136d B2020000 		.4byte	.LVL450
 17146 1371 0400     		.2byte	0x4
 17147 1373 F3       		.byte	0xf3
 17148 1374 01       		.uleb128 0x1
 17149 1375 51       		.byte	0x51
 17150 1376 9F       		.byte	0x9f
 17151 1377 B2020000 		.4byte	.LVL450
 17152 137b C2020000 		.4byte	.LVL454
 17153 137f 0100     		.2byte	0x1
 17154 1381 54       		.byte	0x54
 17155 1382 C2020000 		.4byte	.LVL454
ARM GAS  C:\Users\haske\AppData\Local\Temp\ccmHbbn5.s 			page 333


 17156 1386 0A030000 		.4byte	.LVL461
 17157 138a 0400     		.2byte	0x4
 17158 138c F3       		.byte	0xf3
 17159 138d 01       		.uleb128 0x1
 17160 138e 51       		.byte	0x51
 17161 138f 9F       		.byte	0x9f
 17162 1390 0A030000 		.4byte	.LVL461
 17163 1394 58030000 		.4byte	.LVL472
 17164 1398 0100     		.2byte	0x1
 17165 139a 54       		.byte	0x54
 17166 139b 58030000 		.4byte	.LVL472
 17167 139f A0030000 		.4byte	.LVL477
 17168 13a3 0400     		.2byte	0x4
 17169 13a5 F3       		.byte	0xf3
 17170 13a6 01       		.uleb128 0x1
 17171 13a7 51       		.byte	0x51
 17172 13a8 9F       		.byte	0x9f
 17173 13a9 A0030000 		.4byte	.LVL477
 17174 13ad 7E040000 		.4byte	.LVL506
 17175 13b1 0100     		.2byte	0x1
 17176 13b3 54       		.byte	0x54
 17177 13b4 7E040000 		.4byte	.LVL506
 17178 13b8 90040000 		.4byte	.LFE182
 17179 13bc 0400     		.2byte	0x4
 17180 13be F3       		.byte	0xf3
 17181 13bf 01       		.uleb128 0x1
 17182 13c0 51       		.byte	0x51
 17183 13c1 9F       		.byte	0x9f
 17184 13c2 00000000 		.4byte	0
 17185 13c6 00000000 		.4byte	0
 17186              	.LLST154:
 17187 13ca 14000000 		.4byte	.LVL368
 17188 13ce 1C000000 		.4byte	.LVL369
 17189 13d2 0100     		.2byte	0x1
 17190 13d4 50       		.byte	0x50
 17191 13d5 54020000 		.4byte	.LVL437
 17192 13d9 5A020000 		.4byte	.LVL438
 17193 13dd 0100     		.2byte	0x1
 17194 13df 50       		.byte	0x50
 17195 13e0 00000000 		.4byte	0
 17196 13e4 00000000 		.4byte	0
 17197              	.LLST155:
 17198 13e8 22000000 		.4byte	.LVL371
 17199 13ec 24000000 		.4byte	.LVL372
 17200 13f0 0100     		.2byte	0x1
 17201 13f2 50       		.byte	0x50
 17202 13f3 24000000 		.4byte	.LVL372
 17203 13f7 4E000000 		.4byte	.LVL381
 17204 13fb 0100     		.2byte	0x1
 17205 13fd 55       		.byte	0x55
 17206 13fe 74020000 		.4byte	.LVL440
 17207 1402 8E020000 		.4byte	.LVL443
 17208 1406 0100     		.2byte	0x1
 17209 1408 55       		.byte	0x55
 17210 1409 B2020000 		.4byte	.LVL450
 17211 140d 2C030000 		.4byte	.LVL467
 17212 1411 0100     		.2byte	0x1
ARM GAS  C:\Users\haske\AppData\Local\Temp\ccmHbbn5.s 			page 334


 17213 1413 55       		.byte	0x55
 17214 1414 34030000 		.4byte	.LVL468
 17215 1418 36030000 		.4byte	.LVL469
 17216 141c 0100     		.2byte	0x1
 17217 141e 55       		.byte	0x55
 17218 141f A0030000 		.4byte	.LVL477
 17219 1423 BC030000 		.4byte	.LVL483
 17220 1427 0100     		.2byte	0x1
 17221 1429 55       		.byte	0x55
 17222 142a 74040000 		.4byte	.LVL504
 17223 142e 7E040000 		.4byte	.LVL506
 17224 1432 0100     		.2byte	0x1
 17225 1434 55       		.byte	0x55
 17226 1435 00000000 		.4byte	0
 17227 1439 00000000 		.4byte	0
 17228              	.LLST156:
 17229 143d 2A000000 		.4byte	.LVL374
 17230 1441 2C000000 		.4byte	.LVL375
 17231 1445 0100     		.2byte	0x1
 17232 1447 50       		.byte	0x50
 17233 1448 2C000000 		.4byte	.LVL375
 17234 144c 42030000 		.4byte	.LVL471
 17235 1450 0100     		.2byte	0x1
 17236 1452 57       		.byte	0x57
 17237 1453 A0030000 		.4byte	.LVL477
 17238 1457 7E040000 		.4byte	.LVL506
 17239 145b 0100     		.2byte	0x1
 17240 145d 57       		.byte	0x57
 17241 145e 00000000 		.4byte	0
 17242 1462 00000000 		.4byte	0
 17243              	.LLST157:
 17244 1466 32000000 		.4byte	.LVL377
 17245 146a 3B000000 		.4byte	.LVL378-1
 17246 146e 0100     		.2byte	0x1
 17247 1470 50       		.byte	0x50
 17248 1471 3B000000 		.4byte	.LVL378-1
 17249 1475 74020000 		.4byte	.LVL440
 17250 1479 0100     		.2byte	0x1
 17251 147b 56       		.byte	0x56
 17252 147c 74020000 		.4byte	.LVL440
 17253 1480 88020000 		.4byte	.LVL441
 17254 1484 0100     		.2byte	0x1
 17255 1486 50       		.byte	0x50
 17256 1487 88020000 		.4byte	.LVL441
 17257 148b B2020000 		.4byte	.LVL450
 17258 148f 0100     		.2byte	0x1
 17259 1491 56       		.byte	0x56
 17260 1492 B2020000 		.4byte	.LVL450
 17261 1496 B8020000 		.4byte	.LVL451
 17262 149a 0100     		.2byte	0x1
 17263 149c 50       		.byte	0x50
 17264 149d B8020000 		.4byte	.LVL451
 17265 14a1 0A030000 		.4byte	.LVL461
 17266 14a5 0100     		.2byte	0x1
 17267 14a7 56       		.byte	0x56
 17268 14a8 0A030000 		.4byte	.LVL461
 17269 14ac 10030000 		.4byte	.LVL462
ARM GAS  C:\Users\haske\AppData\Local\Temp\ccmHbbn5.s 			page 335


 17270 14b0 0100     		.2byte	0x1
 17271 14b2 50       		.byte	0x50
 17272 14b3 10030000 		.4byte	.LVL462
 17273 14b7 16030000 		.4byte	.LVL464
 17274 14bb 0100     		.2byte	0x1
 17275 14bd 56       		.byte	0x56
 17276 14be A0030000 		.4byte	.LVL477
 17277 14c2 AA030000 		.4byte	.LVL479
 17278 14c6 0100     		.2byte	0x1
 17279 14c8 50       		.byte	0x50
 17280 14c9 AA030000 		.4byte	.LVL479
 17281 14cd B0030000 		.4byte	.LVL481
 17282 14d1 0100     		.2byte	0x1
 17283 14d3 56       		.byte	0x56
 17284 14d4 74040000 		.4byte	.LVL504
 17285 14d8 7A040000 		.4byte	.LVL505
 17286 14dc 0100     		.2byte	0x1
 17287 14de 50       		.byte	0x50
 17288 14df 7A040000 		.4byte	.LVL505
 17289 14e3 7E040000 		.4byte	.LVL506
 17290 14e7 0100     		.2byte	0x1
 17291 14e9 56       		.byte	0x56
 17292 14ea 00000000 		.4byte	0
 17293 14ee 00000000 		.4byte	0
 17294              	.LLST158:
 17295 14f2 3E000000 		.4byte	.LVL379
 17296 14f6 45000000 		.4byte	.LVL380-1
 17297 14fa 0100     		.2byte	0x1
 17298 14fc 50       		.byte	0x50
 17299 14fd 45000000 		.4byte	.LVL380-1
 17300 1501 58000000 		.4byte	.LVL384
 17301 1505 0100     		.2byte	0x1
 17302 1507 54       		.byte	0x54
 17303 1508 00000000 		.4byte	0
 17304 150c 00000000 		.4byte	0
 17305              	.LLST159:
 17306 1510 46000000 		.4byte	.LVL380
 17307 1514 52000000 		.4byte	.LVL382
 17308 1518 0100     		.2byte	0x1
 17309 151a 50       		.byte	0x50
 17310 151b 00000000 		.4byte	0
 17311 151f 00000000 		.4byte	0
 17312              	.LLST160:
 17313 1523 56010000 		.4byte	.LVL393
 17314 1527 5C010000 		.4byte	.LVL394
 17315 152b 0100     		.2byte	0x1
 17316 152d 50       		.byte	0x50
 17317 152e 5C010000 		.4byte	.LVL394
 17318 1532 60010000 		.4byte	.LVL395
 17319 1536 0100     		.2byte	0x1
 17320 1538 53       		.byte	0x53
 17321 1539 60010000 		.4byte	.LVL395
 17322 153d 64010000 		.4byte	.LVL396
 17323 1541 0C00     		.2byte	0xc
 17324 1543 70       		.byte	0x70
 17325 1544 00       		.sleb128 0
 17326 1545 76       		.byte	0x76
ARM GAS  C:\Users\haske\AppData\Local\Temp\ccmHbbn5.s 			page 336


 17327 1546 24       		.sleb128 36
 17328 1547 94       		.byte	0x94
 17329 1548 02       		.byte	0x2
 17330 1549 0A       		.byte	0xa
 17331 154a FFFF     		.2byte	0xffff
 17332 154c 1A       		.byte	0x1a
 17333 154d 1C       		.byte	0x1c
 17334 154e 9F       		.byte	0x9f
 17335 154f 64010000 		.4byte	.LVL396
 17336 1553 98010000 		.4byte	.LVL403
 17337 1557 0100     		.2byte	0x1
 17338 1559 52       		.byte	0x52
 17339 155a 9A010000 		.4byte	.LVL404
 17340 155e C9010000 		.4byte	.LVL413-1
 17341 1562 0100     		.2byte	0x1
 17342 1564 52       		.byte	0x52
 17343 1565 F0010000 		.4byte	.LVL422
 17344 1569 14020000 		.4byte	.LVL428
 17345 156d 0100     		.2byte	0x1
 17346 156f 5A       		.byte	0x5a
 17347 1570 14020000 		.4byte	.LVL428
 17348 1574 16020000 		.4byte	.LVL429
 17349 1578 0100     		.2byte	0x1
 17350 157a 50       		.byte	0x50
 17351 157b 18020000 		.4byte	.LVL430
 17352 157f 2B020000 		.4byte	.LVL432-1
 17353 1583 0100     		.2byte	0x1
 17354 1585 50       		.byte	0x50
 17355 1586 00000000 		.4byte	0
 17356 158a 00000000 		.4byte	0
 17357              	.LLST161:
 17358 158e 40010000 		.4byte	.LVL391
 17359 1592 2E020000 		.4byte	.LVL433
 17360 1596 0100     		.2byte	0x1
 17361 1598 54       		.byte	0x54
 17362 1599 00000000 		.4byte	0
 17363 159d 00000000 		.4byte	0
 17364              	.LLST162:
 17365 15a1 72010000 		.4byte	.LVL398
 17366 15a5 AA010000 		.4byte	.LVL405
 17367 15a9 0100     		.2byte	0x1
 17368 15ab 50       		.byte	0x50
 17369 15ac AA010000 		.4byte	.LVL405
 17370 15b0 AE010000 		.4byte	.LVL406
 17371 15b4 0C00     		.2byte	0xc
 17372 15b6 74       		.byte	0x74
 17373 15b7 00       		.sleb128 0
 17374 15b8 76       		.byte	0x76
 17375 15b9 2A       		.sleb128 42
 17376 15ba 94       		.byte	0x94
 17377 15bb 02       		.byte	0x2
 17378 15bc 0A       		.byte	0xa
 17379 15bd FFFF     		.2byte	0xffff
 17380 15bf 1A       		.byte	0x1a
 17381 15c0 1C       		.byte	0x1c
 17382 15c1 9F       		.byte	0x9f
 17383 15c2 B0010000 		.4byte	.LVL407
ARM GAS  C:\Users\haske\AppData\Local\Temp\ccmHbbn5.s 			page 337


 17384 15c6 B6010000 		.4byte	.LVL408
 17385 15ca 0100     		.2byte	0x1
 17386 15cc 50       		.byte	0x50
 17387 15cd B6010000 		.4byte	.LVL408
 17388 15d1 BA010000 		.4byte	.LVL409
 17389 15d5 0C00     		.2byte	0xc
 17390 15d7 74       		.byte	0x74
 17391 15d8 00       		.sleb128 0
 17392 15d9 76       		.byte	0x76
 17393 15da 2A       		.sleb128 42
 17394 15db 94       		.byte	0x94
 17395 15dc 02       		.byte	0x2
 17396 15dd 0A       		.byte	0xa
 17397 15de FFFF     		.2byte	0xffff
 17398 15e0 1A       		.byte	0x1a
 17399 15e1 1C       		.byte	0x1c
 17400 15e2 9F       		.byte	0x9f
 17401 15e3 BC010000 		.4byte	.LVL410
 17402 15e7 BE010000 		.4byte	.LVL411
 17403 15eb 0100     		.2byte	0x1
 17404 15ed 50       		.byte	0x50
 17405 15ee 00000000 		.4byte	0
 17406 15f2 00000000 		.4byte	0
 17407              	.LLST163:
 17408 15f6 7C010000 		.4byte	.LVL399
 17409 15fa 7E010000 		.4byte	.LVL400
 17410 15fe 0100     		.2byte	0x1
 17411 1600 53       		.byte	0x53
 17412 1601 7E010000 		.4byte	.LVL400
 17413 1605 02020000 		.4byte	.LVL423
 17414 1609 0100     		.2byte	0x1
 17415 160b 58       		.byte	0x58
 17416 160c 00000000 		.4byte	0
 17417 1610 00000000 		.4byte	0
 17418              	.LLST164:
 17419 1614 80010000 		.4byte	.LVL401
 17420 1618 84010000 		.4byte	.LVL402
 17421 161c 0100     		.2byte	0x1
 17422 161e 53       		.byte	0x53
 17423 161f 84010000 		.4byte	.LVL402
 17424 1623 98010000 		.4byte	.LVL403
 17425 1627 0600     		.2byte	0x6
 17426 1629 72       		.byte	0x72
 17427 162a 00       		.sleb128 0
 17428 162b 78       		.byte	0x78
 17429 162c 00       		.sleb128 0
 17430 162d 1C       		.byte	0x1c
 17431 162e 9F       		.byte	0x9f
 17432 162f 9A010000 		.4byte	.LVL404
 17433 1633 BE010000 		.4byte	.LVL411
 17434 1637 0600     		.2byte	0x6
 17435 1639 72       		.byte	0x72
 17436 163a 00       		.sleb128 0
 17437 163b 78       		.byte	0x78
 17438 163c 00       		.sleb128 0
 17439 163d 1C       		.byte	0x1c
 17440 163e 9F       		.byte	0x9f
ARM GAS  C:\Users\haske\AppData\Local\Temp\ccmHbbn5.s 			page 338


 17441 163f C4010000 		.4byte	.LVL412
 17442 1643 E6010000 		.4byte	.LVL418
 17443 1647 0100     		.2byte	0x1
 17444 1649 55       		.byte	0x55
 17445 164a E6010000 		.4byte	.LVL418
 17446 164e E8010000 		.4byte	.LVL419
 17447 1652 0100     		.2byte	0x1
 17448 1654 53       		.byte	0x53
 17449 1655 E8010000 		.4byte	.LVL419
 17450 1659 EA010000 		.4byte	.LVL420
 17451 165d 0100     		.2byte	0x1
 17452 165f 55       		.byte	0x55
 17453 1660 EA010000 		.4byte	.LVL420
 17454 1664 EC010000 		.4byte	.LVL421
 17455 1668 0100     		.2byte	0x1
 17456 166a 53       		.byte	0x53
 17457 166b 00000000 		.4byte	0
 17458 166f 00000000 		.4byte	0
 17459              	.LLST165:
 17460 1673 CA010000 		.4byte	.LVL413
 17461 1677 CE010000 		.4byte	.LVL414
 17462 167b 0100     		.2byte	0x1
 17463 167d 50       		.byte	0x50
 17464 167e 00000000 		.4byte	0
 17465 1682 00000000 		.4byte	0
 17466              	.LLST166:
 17467 1686 D8010000 		.4byte	.LVL416
 17468 168a DE010000 		.4byte	.LVL417
 17469 168e 0100     		.2byte	0x1
 17470 1690 53       		.byte	0x53
 17471 1691 DE010000 		.4byte	.LVL417
 17472 1695 E6010000 		.4byte	.LVL418
 17473 1699 0400     		.2byte	0x4
 17474 169b 73       		.byte	0x73
 17475 169c 00       		.sleb128 0
 17476 169d 1F       		.byte	0x1f
 17477 169e 9F       		.byte	0x9f
 17478 169f E8010000 		.4byte	.LVL419
 17479 16a3 EA010000 		.4byte	.LVL420
 17480 16a7 0400     		.2byte	0x4
 17481 16a9 73       		.byte	0x73
 17482 16aa 00       		.sleb128 0
 17483 16ab 1F       		.byte	0x1f
 17484 16ac 9F       		.byte	0x9f
 17485 16ad 00000000 		.4byte	0
 17486 16b1 00000000 		.4byte	0
 17487              	.LLST167:
 17488 16b5 0C020000 		.4byte	.LVL424
 17489 16b9 0E020000 		.4byte	.LVL425
 17490 16bd 0100     		.2byte	0x1
 17491 16bf 50       		.byte	0x50
 17492 16c0 0E020000 		.4byte	.LVL425
 17493 16c4 10020000 		.4byte	.LVL426
 17494 16c8 0300     		.2byte	0x3
 17495 16ca 70       		.byte	0x70
 17496 16cb 7C       		.sleb128 -4
 17497 16cc 9F       		.byte	0x9f
ARM GAS  C:\Users\haske\AppData\Local\Temp\ccmHbbn5.s 			page 339


 17498 16cd 10020000 		.4byte	.LVL426
 17499 16d1 12020000 		.4byte	.LVL427
 17500 16d5 0100     		.2byte	0x1
 17501 16d7 50       		.byte	0x50
 17502 16d8 00000000 		.4byte	0
 17503 16dc 00000000 		.4byte	0
 17504              	.LLST168:
 17505 16e0 1E020000 		.4byte	.LVL431
 17506 16e4 74020000 		.4byte	.LVL440
 17507 16e8 0100     		.2byte	0x1
 17508 16ea 5A       		.byte	0x5a
 17509 16eb 00000000 		.4byte	0
 17510 16ef 00000000 		.4byte	0
 17511              	.LLST169:
 17512 16f3 2E020000 		.4byte	.LVL433
 17513 16f7 74020000 		.4byte	.LVL440
 17514 16fb 0100     		.2byte	0x1
 17515 16fd 54       		.byte	0x54
 17516 16fe 00000000 		.4byte	0
 17517 1702 00000000 		.4byte	0
 17518              	.LLST170:
 17519 1706 80000000 		.4byte	.LVL386
 17520 170a 8E000000 		.4byte	.LVL388
 17521 170e 0400     		.2byte	0x4
 17522 1710 40       		.byte	0x40
 17523 1711 3D       		.byte	0x3d
 17524 1712 24       		.byte	0x24
 17525 1713 9F       		.byte	0x9f
 17526 1714 00000000 		.4byte	0
 17527 1718 00000000 		.4byte	0
 17528              	.LLST171:
 17529 171c 80000000 		.4byte	.LVL386
 17530 1720 8E000000 		.4byte	.LVL388
 17531 1724 0100     		.2byte	0x1
 17532 1726 57       		.byte	0x57
 17533 1727 00000000 		.4byte	0
 17534 172b 00000000 		.4byte	0
 17535              	.LLST172:
 17536 172f 8E020000 		.4byte	.LVL443
 17537 1733 91020000 		.4byte	.LVL444-1
 17538 1737 0100     		.2byte	0x1
 17539 1739 50       		.byte	0x50
 17540 173a 91020000 		.4byte	.LVL444-1
 17541 173e B2020000 		.4byte	.LVL450
 17542 1742 0100     		.2byte	0x1
 17543 1744 55       		.byte	0x55
 17544 1745 00000000 		.4byte	0
 17545 1749 00000000 		.4byte	0
 17546              	.LLST173:
 17547 174d 94020000 		.4byte	.LVL445
 17548 1751 97020000 		.4byte	.LVL446-1
 17549 1755 0100     		.2byte	0x1
 17550 1757 50       		.byte	0x50
 17551 1758 97020000 		.4byte	.LVL446-1
 17552 175c B2020000 		.4byte	.LVL450
 17553 1760 0100     		.2byte	0x1
 17554 1762 54       		.byte	0x54
ARM GAS  C:\Users\haske\AppData\Local\Temp\ccmHbbn5.s 			page 340


 17555 1763 00000000 		.4byte	0
 17556 1767 00000000 		.4byte	0
 17557              	.LLST174:
 17558 176b 9C020000 		.4byte	.LVL447
 17559 176f AC020000 		.4byte	.LVL448
 17560 1773 0100     		.2byte	0x1
 17561 1775 50       		.byte	0x50
 17562 1776 00000000 		.4byte	0
 17563 177a 00000000 		.4byte	0
 17564              	.LLST175:
 17565 177e BE020000 		.4byte	.LVL453
 17566 1782 CF020000 		.4byte	.LVL455-1
 17567 1786 0100     		.2byte	0x1
 17568 1788 53       		.byte	0x53
 17569 1789 DC020000 		.4byte	.LVL457
 17570 178d E9020000 		.4byte	.LVL458-1
 17571 1791 0100     		.2byte	0x1
 17572 1793 53       		.byte	0x53
 17573 1794 00000000 		.4byte	0
 17574 1798 00000000 		.4byte	0
 17575              	.LLST176:
 17576 179c C2020000 		.4byte	.LVL454
 17577 17a0 0A030000 		.4byte	.LVL461
 17578 17a4 0100     		.2byte	0x1
 17579 17a6 54       		.byte	0x54
 17580 17a7 00000000 		.4byte	0
 17581 17ab 00000000 		.4byte	0
 17582              	.LLST177:
 17583 17af 16030000 		.4byte	.LVL464
 17584 17b3 1E030000 		.4byte	.LVL465
 17585 17b7 0100     		.2byte	0x1
 17586 17b9 50       		.byte	0x50
 17587 17ba 1E030000 		.4byte	.LVL465
 17588 17be A0030000 		.4byte	.LVL477
 17589 17c2 0100     		.2byte	0x1
 17590 17c4 56       		.byte	0x56
 17591 17c5 00000000 		.4byte	0
 17592 17c9 00000000 		.4byte	0
 17593              	.LLST178:
 17594 17cd 22030000 		.4byte	.LVL466
 17595 17d1 2C030000 		.4byte	.LVL467
 17596 17d5 0200     		.2byte	0x2
 17597 17d7 30       		.byte	0x30
 17598 17d8 9F       		.byte	0x9f
 17599 17d9 2C030000 		.4byte	.LVL467
 17600 17dd 34030000 		.4byte	.LVL468
 17601 17e1 0100     		.2byte	0x1
 17602 17e3 55       		.byte	0x55
 17603 17e4 34030000 		.4byte	.LVL468
 17604 17e8 36030000 		.4byte	.LVL469
 17605 17ec 0200     		.2byte	0x2
 17606 17ee 30       		.byte	0x30
 17607 17ef 9F       		.byte	0x9f
 17608 17f0 36030000 		.4byte	.LVL469
 17609 17f4 A0030000 		.4byte	.LVL477
 17610 17f8 0100     		.2byte	0x1
 17611 17fa 55       		.byte	0x55
ARM GAS  C:\Users\haske\AppData\Local\Temp\ccmHbbn5.s 			page 341


 17612 17fb 00000000 		.4byte	0
 17613 17ff 00000000 		.4byte	0
 17614              	.LLST179:
 17615 1803 36030000 		.4byte	.LVL469
 17616 1807 40030000 		.4byte	.LVL470
 17617 180b 0200     		.2byte	0x2
 17618 180d 30       		.byte	0x30
 17619 180e 9F       		.byte	0x9f
 17620 180f 00000000 		.4byte	0
 17621 1813 00000000 		.4byte	0
 17622              	.LLST180:
 17623 1817 36030000 		.4byte	.LVL469
 17624 181b 40030000 		.4byte	.LVL470
 17625 181f 0100     		.2byte	0x1
 17626 1821 57       		.byte	0x57
 17627 1822 00000000 		.4byte	0
 17628 1826 00000000 		.4byte	0
 17629              	.LLST181:
 17630 182a F4030000 		.4byte	.LVL488
 17631 182e 52040000 		.4byte	.LVL498
 17632 1832 0100     		.2byte	0x1
 17633 1834 55       		.byte	0x55
 17634 1835 00000000 		.4byte	0
 17635 1839 00000000 		.4byte	0
 17636              	.LLST182:
 17637 183d 50040000 		.4byte	.LVL497
 17638 1841 59040000 		.4byte	.LVL500-1
 17639 1845 0100     		.2byte	0x1
 17640 1847 53       		.byte	0x53
 17641 1848 00000000 		.4byte	0
 17642 184c 00000000 		.4byte	0
 17643              	.LLST183:
 17644 1850 54040000 		.4byte	.LVL499
 17645 1854 5C040000 		.4byte	.LVL501
 17646 1858 0100     		.2byte	0x1
 17647 185a 55       		.byte	0x55
 17648 185b 5E040000 		.4byte	.LVL502
 17649 185f 74040000 		.4byte	.LVL504
 17650 1863 0100     		.2byte	0x1
 17651 1865 55       		.byte	0x55
 17652 1866 00000000 		.4byte	0
 17653 186a 00000000 		.4byte	0
 17654              	.LLST184:
 17655 186e 64040000 		.4byte	.LVL503
 17656 1872 74040000 		.4byte	.LVL504
 17657 1876 0100     		.2byte	0x1
 17658 1878 50       		.byte	0x50
 17659 1879 00000000 		.4byte	0
 17660 187d 00000000 		.4byte	0
 17661              	.LLST185:
 17662 1881 A4030000 		.4byte	.LVL478
 17663 1885 B0030000 		.4byte	.LVL481
 17664 1889 0200     		.2byte	0x2
 17665 188b 30       		.byte	0x30
 17666 188c 9F       		.byte	0x9f
 17667 188d 00000000 		.4byte	0
 17668 1891 00000000 		.4byte	0
ARM GAS  C:\Users\haske\AppData\Local\Temp\ccmHbbn5.s 			page 342


 17669              	.LLST186:
 17670 1895 A4030000 		.4byte	.LVL478
 17671 1899 B0030000 		.4byte	.LVL481
 17672 189d 0100     		.2byte	0x1
 17673 189f 57       		.byte	0x57
 17674 18a0 00000000 		.4byte	0
 17675 18a4 00000000 		.4byte	0
 17676              	.LLST187:
 17677 18a8 B0030000 		.4byte	.LVL481
 17678 18ac BC030000 		.4byte	.LVL483
 17679 18b0 0200     		.2byte	0x2
 17680 18b2 30       		.byte	0x30
 17681 18b3 9F       		.byte	0x9f
 17682 18b4 00000000 		.4byte	0
 17683 18b8 00000000 		.4byte	0
 17684              	.LLST188:
 17685 18bc B0030000 		.4byte	.LVL481
 17686 18c0 BC030000 		.4byte	.LVL483
 17687 18c4 0100     		.2byte	0x1
 17688 18c6 57       		.byte	0x57
 17689 18c7 00000000 		.4byte	0
 17690 18cb 00000000 		.4byte	0
 17691              	.LLST189:
 17692 18cf BC030000 		.4byte	.LVL483
 17693 18d3 CA030000 		.4byte	.LVL485
 17694 18d7 0200     		.2byte	0x2
 17695 18d9 30       		.byte	0x30
 17696 18da 9F       		.byte	0x9f
 17697 18db 00000000 		.4byte	0
 17698 18df 00000000 		.4byte	0
 17699              	.LLST190:
 17700 18e3 BC030000 		.4byte	.LVL483
 17701 18e7 CA030000 		.4byte	.LVL485
 17702 18eb 0100     		.2byte	0x1
 17703 18ed 57       		.byte	0x57
 17704 18ee 00000000 		.4byte	0
 17705 18f2 00000000 		.4byte	0
 17706              	.LLST191:
 17707 18f6 CA030000 		.4byte	.LVL485
 17708 18fa D6030000 		.4byte	.LVL487
 17709 18fe 0200     		.2byte	0x2
 17710 1900 30       		.byte	0x30
 17711 1901 9F       		.byte	0x9f
 17712 1902 00000000 		.4byte	0
 17713 1906 00000000 		.4byte	0
 17714              	.LLST192:
 17715 190a CA030000 		.4byte	.LVL485
 17716 190e D6030000 		.4byte	.LVL487
 17717 1912 0100     		.2byte	0x1
 17718 1914 57       		.byte	0x57
 17719 1915 00000000 		.4byte	0
 17720 1919 00000000 		.4byte	0
 17721              	.LLST193:
 17722 191d F4030000 		.4byte	.LVL488
 17723 1921 02040000 		.4byte	.LVL490
 17724 1925 0400     		.2byte	0x4
 17725 1927 48       		.byte	0x48
ARM GAS  C:\Users\haske\AppData\Local\Temp\ccmHbbn5.s 			page 343


 17726 1928 3D       		.byte	0x3d
 17727 1929 24       		.byte	0x24
 17728 192a 9F       		.byte	0x9f
 17729 192b 00000000 		.4byte	0
 17730 192f 00000000 		.4byte	0
 17731              	.LLST194:
 17732 1933 F4030000 		.4byte	.LVL488
 17733 1937 02040000 		.4byte	.LVL490
 17734 193b 0100     		.2byte	0x1
 17735 193d 57       		.byte	0x57
 17736 193e 00000000 		.4byte	0
 17737 1942 00000000 		.4byte	0
 17738              	.LLST195:
 17739 1946 02040000 		.4byte	.LVL490
 17740 194a 12040000 		.4byte	.LVL492
 17741 194e 0400     		.2byte	0x4
 17742 1950 48       		.byte	0x48
 17743 1951 3D       		.byte	0x3d
 17744 1952 24       		.byte	0x24
 17745 1953 9F       		.byte	0x9f
 17746 1954 00000000 		.4byte	0
 17747 1958 00000000 		.4byte	0
 17748              	.LLST196:
 17749 195c 02040000 		.4byte	.LVL490
 17750 1960 12040000 		.4byte	.LVL492
 17751 1964 0100     		.2byte	0x1
 17752 1966 57       		.byte	0x57
 17753 1967 00000000 		.4byte	0
 17754 196b 00000000 		.4byte	0
 17755              	.LLST197:
 17756 196f 12040000 		.4byte	.LVL492
 17757 1973 22040000 		.4byte	.LVL494
 17758 1977 0400     		.2byte	0x4
 17759 1979 48       		.byte	0x48
 17760 197a 3D       		.byte	0x3d
 17761 197b 24       		.byte	0x24
 17762 197c 9F       		.byte	0x9f
 17763 197d 00000000 		.4byte	0
 17764 1981 00000000 		.4byte	0
 17765              	.LLST198:
 17766 1985 12040000 		.4byte	.LVL492
 17767 1989 22040000 		.4byte	.LVL494
 17768 198d 0100     		.2byte	0x1
 17769 198f 57       		.byte	0x57
 17770 1990 00000000 		.4byte	0
 17771 1994 00000000 		.4byte	0
 17772              	.LLST199:
 17773 1998 22040000 		.4byte	.LVL494
 17774 199c 30040000 		.4byte	.LVL496
 17775 19a0 0400     		.2byte	0x4
 17776 19a2 48       		.byte	0x48
 17777 19a3 3D       		.byte	0x3d
 17778 19a4 24       		.byte	0x24
 17779 19a5 9F       		.byte	0x9f
 17780 19a6 00000000 		.4byte	0
 17781 19aa 00000000 		.4byte	0
 17782              	.LLST200:
ARM GAS  C:\Users\haske\AppData\Local\Temp\ccmHbbn5.s 			page 344


 17783 19ae 22040000 		.4byte	.LVL494
 17784 19b2 30040000 		.4byte	.LVL496
 17785 19b6 0100     		.2byte	0x1
 17786 19b8 57       		.byte	0x57
 17787 19b9 00000000 		.4byte	0
 17788 19bd 00000000 		.4byte	0
 17789              	.LLST201:
 17790 19c1 00000000 		.4byte	.LVL507
 17791 19c5 04000000 		.4byte	.LVL508
 17792 19c9 0100     		.2byte	0x1
 17793 19cb 50       		.byte	0x50
 17794 19cc 04000000 		.4byte	.LVL508
 17795 19d0 06000000 		.4byte	.LFE176
 17796 19d4 0400     		.2byte	0x4
 17797 19d6 F3       		.byte	0xf3
 17798 19d7 01       		.uleb128 0x1
 17799 19d8 50       		.byte	0x50
 17800 19d9 9F       		.byte	0x9f
 17801 19da 00000000 		.4byte	0
 17802 19de 00000000 		.4byte	0
 17803              	.LLST202:
 17804 19e2 00000000 		.4byte	.LVL509
 17805 19e6 04000000 		.4byte	.LVL510
 17806 19ea 0100     		.2byte	0x1
 17807 19ec 50       		.byte	0x50
 17808 19ed 04000000 		.4byte	.LVL510
 17809 19f1 06000000 		.4byte	.LFE177
 17810 19f5 0400     		.2byte	0x4
 17811 19f7 F3       		.byte	0xf3
 17812 19f8 01       		.uleb128 0x1
 17813 19f9 50       		.byte	0x50
 17814 19fa 9F       		.byte	0x9f
 17815 19fb 00000000 		.4byte	0
 17816 19ff 00000000 		.4byte	0
 17817              	.LLST203:
 17818 1a03 00000000 		.4byte	.LVL511
 17819 1a07 04000000 		.4byte	.LVL512
 17820 1a0b 0100     		.2byte	0x1
 17821 1a0d 50       		.byte	0x50
 17822 1a0e 04000000 		.4byte	.LVL512
 17823 1a12 0A000000 		.4byte	.LFE178
 17824 1a16 0400     		.2byte	0x4
 17825 1a18 F3       		.byte	0xf3
 17826 1a19 01       		.uleb128 0x1
 17827 1a1a 50       		.byte	0x50
 17828 1a1b 9F       		.byte	0x9f
 17829 1a1c 00000000 		.4byte	0
 17830 1a20 00000000 		.4byte	0
 17831              	.LLST204:
 17832 1a24 00000000 		.4byte	.LVL513
 17833 1a28 13000000 		.4byte	.LVL514-1
 17834 1a2c 0100     		.2byte	0x1
 17835 1a2e 50       		.byte	0x50
 17836 1a2f 13000000 		.4byte	.LVL514-1
 17837 1a33 84000000 		.4byte	.LVL531
 17838 1a37 0100     		.2byte	0x1
 17839 1a39 54       		.byte	0x54
ARM GAS  C:\Users\haske\AppData\Local\Temp\ccmHbbn5.s 			page 345


 17840 1a3a 84000000 		.4byte	.LVL531
 17841 1a3e 86000000 		.4byte	.LFE179
 17842 1a42 0400     		.2byte	0x4
 17843 1a44 F3       		.byte	0xf3
 17844 1a45 01       		.uleb128 0x1
 17845 1a46 50       		.byte	0x50
 17846 1a47 9F       		.byte	0x9f
 17847 1a48 00000000 		.4byte	0
 17848 1a4c 00000000 		.4byte	0
 17849              	.LLST205:
 17850 1a50 00000000 		.4byte	.LVL513
 17851 1a54 13000000 		.4byte	.LVL514-1
 17852 1a58 0100     		.2byte	0x1
 17853 1a5a 51       		.byte	0x51
 17854 1a5b 13000000 		.4byte	.LVL514-1
 17855 1a5f 84000000 		.4byte	.LVL532
 17856 1a63 0100     		.2byte	0x1
 17857 1a65 56       		.byte	0x56
 17858 1a66 84000000 		.4byte	.LVL532
 17859 1a6a 86000000 		.4byte	.LFE179
 17860 1a6e 0400     		.2byte	0x4
 17861 1a70 F3       		.byte	0xf3
 17862 1a71 01       		.uleb128 0x1
 17863 1a72 51       		.byte	0x51
 17864 1a73 9F       		.byte	0x9f
 17865 1a74 00000000 		.4byte	0
 17866 1a78 00000000 		.4byte	0
 17867              	.LLST206:
 17868 1a7c 00000000 		.4byte	.LVL513
 17869 1a80 13000000 		.4byte	.LVL514-1
 17870 1a84 0100     		.2byte	0x1
 17871 1a86 52       		.byte	0x52
 17872 1a87 13000000 		.4byte	.LVL514-1
 17873 1a8b 86000000 		.4byte	.LFE179
 17874 1a8f 0400     		.2byte	0x4
 17875 1a91 F3       		.byte	0xf3
 17876 1a92 01       		.uleb128 0x1
 17877 1a93 52       		.byte	0x52
 17878 1a94 9F       		.byte	0x9f
 17879 1a95 00000000 		.4byte	0
 17880 1a99 00000000 		.4byte	0
 17881              	.LLST207:
 17882 1a9d 3A000000 		.4byte	.LVL518
 17883 1aa1 3E000000 		.4byte	.LVL519
 17884 1aa5 0100     		.2byte	0x1
 17885 1aa7 50       		.byte	0x50
 17886 1aa8 00000000 		.4byte	0
 17887 1aac 00000000 		.4byte	0
 17888              	.LLST208:
 17889 1ab0 52000000 		.4byte	.LVL521
 17890 1ab4 54000000 		.4byte	.LVL522
 17891 1ab8 0100     		.2byte	0x1
 17892 1aba 50       		.byte	0x50
 17893 1abb 54000000 		.4byte	.LVL522
 17894 1abf 56000000 		.4byte	.LVL523
 17895 1ac3 0400     		.2byte	0x4
 17896 1ac5 70       		.byte	0x70
ARM GAS  C:\Users\haske\AppData\Local\Temp\ccmHbbn5.s 			page 346


 17897 1ac6 A67F     		.sleb128 -90
 17898 1ac8 9F       		.byte	0x9f
 17899 1ac9 56000000 		.4byte	.LVL523
 17900 1acd 59000000 		.4byte	.LVL524-1
 17901 1ad1 0200     		.2byte	0x2
 17902 1ad3 73       		.byte	0x73
 17903 1ad4 0C       		.sleb128 12
 17904 1ad5 59000000 		.4byte	.LVL524-1
 17905 1ad9 84000000 		.4byte	.LVL530
 17906 1add 0200     		.2byte	0x2
 17907 1adf 7D       		.byte	0x7d
 17908 1ae0 0C       		.sleb128 12
 17909 1ae1 84000000 		.4byte	.LVL530
 17910 1ae5 86000000 		.4byte	.LFE179
 17911 1ae9 0200     		.2byte	0x2
 17912 1aeb 91       		.byte	0x91
 17913 1aec 5C       		.sleb128 -36
 17914 1aed 00000000 		.4byte	0
 17915 1af1 00000000 		.4byte	0
 17916              	.LLST209:
 17917 1af5 62000000 		.4byte	.LVL525
 17918 1af9 84000000 		.4byte	.LVL533
 17919 1afd 0100     		.2byte	0x1
 17920 1aff 57       		.byte	0x57
 17921 1b00 00000000 		.4byte	0
 17922 1b04 00000000 		.4byte	0
 17923              	.LLST210:
 17924 1b08 74000000 		.4byte	.LVL527
 17925 1b0c 78000000 		.4byte	.LVL528
 17926 1b10 0100     		.2byte	0x1
 17927 1b12 53       		.byte	0x53
 17928 1b13 78000000 		.4byte	.LVL528
 17929 1b17 81000000 		.4byte	.LVL529-1
 17930 1b1b 0200     		.2byte	0x2
 17931 1b1d 7D       		.byte	0x7d
 17932 1b1e 00       		.sleb128 0
 17933 1b1f 00000000 		.4byte	0
 17934 1b23 00000000 		.4byte	0
 17935              	.LLST211:
 17936 1b27 26000000 		.4byte	.LVL515
 17937 1b2b 34000000 		.4byte	.LVL517
 17938 1b2f 0400     		.2byte	0x4
 17939 1b31 40       		.byte	0x40
 17940 1b32 3D       		.byte	0x3d
 17941 1b33 24       		.byte	0x24
 17942 1b34 9F       		.byte	0x9f
 17943 1b35 00000000 		.4byte	0
 17944 1b39 00000000 		.4byte	0
 17945              	.LLST212:
 17946 1b3d 26000000 		.4byte	.LVL515
 17947 1b41 34000000 		.4byte	.LVL517
 17948 1b45 0100     		.2byte	0x1
 17949 1b47 54       		.byte	0x54
 17950 1b48 00000000 		.4byte	0
 17951 1b4c 00000000 		.4byte	0
 17952              	.LLST213:
 17953 1b50 00000000 		.4byte	.LVL534
ARM GAS  C:\Users\haske\AppData\Local\Temp\ccmHbbn5.s 			page 347


 17954 1b54 12000000 		.4byte	.LVL535
 17955 1b58 0100     		.2byte	0x1
 17956 1b5a 50       		.byte	0x50
 17957 1b5b 12000000 		.4byte	.LVL535
 17958 1b5f B8000000 		.4byte	.LFE180
 17959 1b63 0200     		.2byte	0x2
 17960 1b65 91       		.byte	0x91
 17961 1b66 5C       		.sleb128 -36
 17962 1b67 00000000 		.4byte	0
 17963 1b6b 00000000 		.4byte	0
 17964              	.LLST214:
 17965 1b6f 00000000 		.4byte	.LVL534
 17966 1b73 15000000 		.4byte	.LVL536-1
 17967 1b77 0100     		.2byte	0x1
 17968 1b79 51       		.byte	0x51
 17969 1b7a 15000000 		.4byte	.LVL536-1
 17970 1b7e B6000000 		.4byte	.LVL553
 17971 1b82 0100     		.2byte	0x1
 17972 1b84 54       		.byte	0x54
 17973 1b85 B6000000 		.4byte	.LVL553
 17974 1b89 B8000000 		.4byte	.LFE180
 17975 1b8d 0400     		.2byte	0x4
 17976 1b8f F3       		.byte	0xf3
 17977 1b90 01       		.uleb128 0x1
 17978 1b91 51       		.byte	0x51
 17979 1b92 9F       		.byte	0x9f
 17980 1b93 00000000 		.4byte	0
 17981 1b97 00000000 		.4byte	0
 17982              	.LLST215:
 17983 1b9b 00000000 		.4byte	.LVL534
 17984 1b9f 15000000 		.4byte	.LVL536-1
 17985 1ba3 0100     		.2byte	0x1
 17986 1ba5 52       		.byte	0x52
 17987 1ba6 15000000 		.4byte	.LVL536-1
 17988 1baa B8000000 		.4byte	.LFE180
 17989 1bae 0400     		.2byte	0x4
 17990 1bb0 F3       		.byte	0xf3
 17991 1bb1 01       		.uleb128 0x1
 17992 1bb2 52       		.byte	0x52
 17993 1bb3 9F       		.byte	0x9f
 17994 1bb4 00000000 		.4byte	0
 17995 1bb8 00000000 		.4byte	0
 17996              	.LLST216:
 17997 1bbc 3E000000 		.4byte	.LVL540
 17998 1bc0 5A000000 		.4byte	.LVL541
 17999 1bc4 0100     		.2byte	0x1
 18000 1bc6 50       		.byte	0x50
 18001 1bc7 00000000 		.4byte	0
 18002 1bcb 00000000 		.4byte	0
 18003              	.LLST217:
 18004 1bcf 6C000000 		.4byte	.LVL545
 18005 1bd3 B6000000 		.4byte	.LVL555
 18006 1bd7 0100     		.2byte	0x1
 18007 1bd9 57       		.byte	0x57
 18008 1bda 00000000 		.4byte	0
 18009 1bde 00000000 		.4byte	0
 18010              	.LLST218:
ARM GAS  C:\Users\haske\AppData\Local\Temp\ccmHbbn5.s 			page 348


 18011 1be2 78000000 		.4byte	.LVL546
 18012 1be6 86000000 		.4byte	.LVL548
 18013 1bea 0100     		.2byte	0x1
 18014 1bec 51       		.byte	0x51
 18015 1bed 86000000 		.4byte	.LVL548
 18016 1bf1 88000000 		.4byte	.LVL549
 18017 1bf5 0400     		.2byte	0x4
 18018 1bf7 71       		.byte	0x71
 18019 1bf8 00       		.sleb128 0
 18020 1bf9 1F       		.byte	0x1f
 18021 1bfa 9F       		.byte	0x9f
 18022 1bfb 88000000 		.4byte	.LVL549
 18023 1bff 8F000000 		.4byte	.LVL550-1
 18024 1c03 1200     		.2byte	0x12
 18025 1c05 74       		.byte	0x74
 18026 1c06 14       		.sleb128 20
 18027 1c07 94       		.byte	0x94
 18028 1c08 02       		.byte	0x2
 18029 1c09 40       		.byte	0x40
 18030 1c0a 24       		.byte	0x24
 18031 1c0b 40       		.byte	0x40
 18032 1c0c 26       		.byte	0x26
 18033 1c0d 76       		.byte	0x76
 18034 1c0e 00       		.sleb128 0
 18035 1c0f 94       		.byte	0x94
 18036 1c10 02       		.byte	0x2
 18037 1c11 40       		.byte	0x40
 18038 1c12 24       		.byte	0x24
 18039 1c13 40       		.byte	0x40
 18040 1c14 26       		.byte	0x26
 18041 1c15 1C       		.byte	0x1c
 18042 1c16 9F       		.byte	0x9f
 18043 1c17 00000000 		.4byte	0
 18044 1c1b 00000000 		.4byte	0
 18045              	.LLST219:
 18046 1c1f 84000000 		.4byte	.LVL547
 18047 1c23 B6000000 		.4byte	.LVL554
 18048 1c27 0100     		.2byte	0x1
 18049 1c29 55       		.byte	0x55
 18050 1c2a 00000000 		.4byte	0
 18051 1c2e 00000000 		.4byte	0
 18052              	.LLST220:
 18053 1c32 2A000000 		.4byte	.LVL537
 18054 1c36 38000000 		.4byte	.LVL539
 18055 1c3a 0400     		.2byte	0x4
 18056 1c3c 40       		.byte	0x40
 18057 1c3d 3D       		.byte	0x3d
 18058 1c3e 24       		.byte	0x24
 18059 1c3f 9F       		.byte	0x9f
 18060 1c40 00000000 		.4byte	0
 18061 1c44 00000000 		.4byte	0
 18062              	.LLST221:
 18063 1c48 2A000000 		.4byte	.LVL537
 18064 1c4c 38000000 		.4byte	.LVL539
 18065 1c50 0200     		.2byte	0x2
 18066 1c52 91       		.byte	0x91
 18067 1c53 5C       		.sleb128 -36
ARM GAS  C:\Users\haske\AppData\Local\Temp\ccmHbbn5.s 			page 349


 18068 1c54 00000000 		.4byte	0
 18069 1c58 00000000 		.4byte	0
 18070              		.section	.debug_aranges,"",%progbits
 18071 0000 14010000 		.4byte	0x114
 18072 0004 0200     		.2byte	0x2
 18073 0006 00000000 		.4byte	.Ldebug_info0
 18074 000a 04       		.byte	0x4
 18075 000b 00       		.byte	0
 18076 000c 0000     		.2byte	0
 18077 000e 0000     		.2byte	0
 18078 0010 00000000 		.4byte	.LFB187
 18079 0014 6E000000 		.4byte	.LFE187-.LFB187
 18080 0018 00000000 		.4byte	.LFB186
 18081 001c C6000000 		.4byte	.LFE186-.LFB186
 18082 0020 00000000 		.4byte	.LFB190
 18083 0024 B2000000 		.4byte	.LFE190-.LFB190
 18084 0028 00000000 		.4byte	.LFB188
 18085 002c DE000000 		.4byte	.LFE188-.LFB188
 18086 0030 00000000 		.4byte	.LFB183
 18087 0034 DC010000 		.4byte	.LFE183-.LFB183
 18088 0038 00000000 		.4byte	.LFB181
 18089 003c 64000000 		.4byte	.LFE181-.LFB181
 18090 0040 00000000 		.4byte	.LFB184
 18091 0044 C6000000 		.4byte	.LFE184-.LFB184
 18092 0048 00000000 		.4byte	.LFB185
 18093 004c 40000000 		.4byte	.LFE185-.LFB185
 18094 0050 00000000 		.4byte	.LFB159
 18095 0054 18000000 		.4byte	.LFE159-.LFB159
 18096 0058 00000000 		.4byte	.LFB160
 18097 005c 80000000 		.4byte	.LFE160-.LFB160
 18098 0060 00000000 		.4byte	.LFB161
 18099 0064 80000000 		.4byte	.LFE161-.LFB161
 18100 0068 00000000 		.4byte	.LFB162
 18101 006c 16000000 		.4byte	.LFE162-.LFB162
 18102 0070 00000000 		.4byte	.LFB189
 18103 0074 E8000000 		.4byte	.LFE189-.LFB189
 18104 0078 00000000 		.4byte	.LFB163
 18105 007c 76000000 		.4byte	.LFE163-.LFB163
 18106 0080 00000000 		.4byte	.LFB164
 18107 0084 76000000 		.4byte	.LFE164-.LFB164
 18108 0088 00000000 		.4byte	.LFB165
 18109 008c 16000000 		.4byte	.LFE165-.LFB165
 18110 0090 00000000 		.4byte	.LFB166
 18111 0094 0A000000 		.4byte	.LFE166-.LFB166
 18112 0098 00000000 		.4byte	.LFB168
 18113 009c 32000000 		.4byte	.LFE168-.LFB168
 18114 00a0 00000000 		.4byte	.LFB167
 18115 00a4 72000000 		.4byte	.LFE167-.LFB167
 18116 00a8 00000000 		.4byte	.LFB169
 18117 00ac 30000000 		.4byte	.LFE169-.LFB169
 18118 00b0 00000000 		.4byte	.LFB170
 18119 00b4 04000000 		.4byte	.LFE170-.LFB170
 18120 00b8 00000000 		.4byte	.LFB171
 18121 00bc 04000000 		.4byte	.LFE171-.LFB171
 18122 00c0 00000000 		.4byte	.LFB172
 18123 00c4 04000000 		.4byte	.LFE172-.LFB172
 18124 00c8 00000000 		.4byte	.LFB173
ARM GAS  C:\Users\haske\AppData\Local\Temp\ccmHbbn5.s 			page 350


 18125 00cc 04000000 		.4byte	.LFE173-.LFB173
 18126 00d0 00000000 		.4byte	.LFB174
 18127 00d4 04000000 		.4byte	.LFE174-.LFB174
 18128 00d8 00000000 		.4byte	.LFB175
 18129 00dc 06000000 		.4byte	.LFE175-.LFB175
 18130 00e0 00000000 		.4byte	.LFB182
 18131 00e4 90040000 		.4byte	.LFE182-.LFB182
 18132 00e8 00000000 		.4byte	.LFB176
 18133 00ec 06000000 		.4byte	.LFE176-.LFB176
 18134 00f0 00000000 		.4byte	.LFB177
 18135 00f4 06000000 		.4byte	.LFE177-.LFB177
 18136 00f8 00000000 		.4byte	.LFB178
 18137 00fc 0A000000 		.4byte	.LFE178-.LFB178
 18138 0100 00000000 		.4byte	.LFB179
 18139 0104 86000000 		.4byte	.LFE179-.LFB179
 18140 0108 00000000 		.4byte	.LFB180
 18141 010c B8000000 		.4byte	.LFE180-.LFB180
 18142 0110 00000000 		.4byte	0
 18143 0114 00000000 		.4byte	0
 18144              		.section	.debug_ranges,"",%progbits
 18145              	.Ldebug_ranges0:
 18146 0000 00000000 		.4byte	.LFB187
 18147 0004 6E000000 		.4byte	.LFE187
 18148 0008 00000000 		.4byte	.LFB186
 18149 000c C6000000 		.4byte	.LFE186
 18150 0010 00000000 		.4byte	.LFB190
 18151 0014 B2000000 		.4byte	.LFE190
 18152 0018 00000000 		.4byte	.LFB188
 18153 001c DE000000 		.4byte	.LFE188
 18154 0020 00000000 		.4byte	.LFB183
 18155 0024 DC010000 		.4byte	.LFE183
 18156 0028 00000000 		.4byte	.LFB181
 18157 002c 64000000 		.4byte	.LFE181
 18158 0030 00000000 		.4byte	.LFB184
 18159 0034 C6000000 		.4byte	.LFE184
 18160 0038 00000000 		.4byte	.LFB185
 18161 003c 40000000 		.4byte	.LFE185
 18162 0040 00000000 		.4byte	.LFB159
 18163 0044 18000000 		.4byte	.LFE159
 18164 0048 00000000 		.4byte	.LFB160
 18165 004c 80000000 		.4byte	.LFE160
 18166 0050 00000000 		.4byte	.LFB161
 18167 0054 80000000 		.4byte	.LFE161
 18168 0058 00000000 		.4byte	.LFB162
 18169 005c 16000000 		.4byte	.LFE162
 18170 0060 00000000 		.4byte	.LFB189
 18171 0064 E8000000 		.4byte	.LFE189
 18172 0068 00000000 		.4byte	.LFB163
 18173 006c 76000000 		.4byte	.LFE163
 18174 0070 00000000 		.4byte	.LFB164
 18175 0074 76000000 		.4byte	.LFE164
 18176 0078 00000000 		.4byte	.LFB165
 18177 007c 16000000 		.4byte	.LFE165
 18178 0080 00000000 		.4byte	.LFB166
 18179 0084 0A000000 		.4byte	.LFE166
 18180 0088 00000000 		.4byte	.LFB168
 18181 008c 32000000 		.4byte	.LFE168
ARM GAS  C:\Users\haske\AppData\Local\Temp\ccmHbbn5.s 			page 351


 18182 0090 00000000 		.4byte	.LFB167
 18183 0094 72000000 		.4byte	.LFE167
 18184 0098 00000000 		.4byte	.LFB169
 18185 009c 30000000 		.4byte	.LFE169
 18186 00a0 00000000 		.4byte	.LFB170
 18187 00a4 04000000 		.4byte	.LFE170
 18188 00a8 00000000 		.4byte	.LFB171
 18189 00ac 04000000 		.4byte	.LFE171
 18190 00b0 00000000 		.4byte	.LFB172
 18191 00b4 04000000 		.4byte	.LFE172
 18192 00b8 00000000 		.4byte	.LFB173
 18193 00bc 04000000 		.4byte	.LFE173
 18194 00c0 00000000 		.4byte	.LFB174
 18195 00c4 04000000 		.4byte	.LFE174
 18196 00c8 00000000 		.4byte	.LFB175
 18197 00cc 06000000 		.4byte	.LFE175
 18198 00d0 00000000 		.4byte	.LFB182
 18199 00d4 90040000 		.4byte	.LFE182
 18200 00d8 00000000 		.4byte	.LFB176
 18201 00dc 06000000 		.4byte	.LFE176
 18202 00e0 00000000 		.4byte	.LFB177
 18203 00e4 06000000 		.4byte	.LFE177
 18204 00e8 00000000 		.4byte	.LFB178
 18205 00ec 0A000000 		.4byte	.LFE178
 18206 00f0 00000000 		.4byte	.LFB179
 18207 00f4 86000000 		.4byte	.LFE179
 18208 00f8 00000000 		.4byte	.LFB180
 18209 00fc B8000000 		.4byte	.LFE180
 18210 0100 00000000 		.4byte	0
 18211 0104 00000000 		.4byte	0
 18212              		.section	.debug_line,"",%progbits
 18213              	.Ldebug_line0:
 18214 0000 C50B0000 		.section	.debug_str,"MS",%progbits,1
 18214      02008005 
 18214      00000201 
 18214      FB0E0D00 
 18214      01010101 
 18215              	.LASF193:
 18216 0000 70726F70 		.ascii	"prop_cnt\000"
 18216      5F636E74 
 18216      00
 18217              	.LASF15:
 18218 0009 696E7438 		.ascii	"int8_t\000"
 18218      5F7400
 18219              	.LASF586:
 18220 0010 4C565F4B 		.ascii	"LV_KEY_HOME\000"
 18220      45595F48 
 18220      4F4D4500 
 18221              	.LASF164:
 18222 001c 4C565F53 		.ascii	"LV_STYLE_OPA\000"
 18222      54594C45 
 18222      5F4F5041 
 18222      00
 18223              	.LASF348:
 18224 0029 636F6C6F 		.ascii	"color_chroma_key\000"
 18224      725F6368 
 18224      726F6D61 
ARM GAS  C:\Users\haske\AppData\Local\Temp\ccmHbbn5.s 			page 352


 18224      5F6B6579 
 18224      00
 18225              	.LASF303:
 18226 003a 6C765F6C 		.ascii	"lv_ll_node_t\000"
 18226      6C5F6E6F 
 18226      64655F74 
 18226      00
 18227              	.LASF325:
 18228 0047 6C765F64 		.ascii	"lv_disp_draw_buf_t\000"
 18228      6973705F 
 18228      64726177 
 18228      5F627566 
 18228      5F7400
 18229              	.LASF21:
 18230 005a 73697A65 		.ascii	"size_t\000"
 18230      5F7400
 18231              	.LASF50:
 18232 0061 6164765F 		.ascii	"adv_w\000"
 18232      7700
 18233              	.LASF377:
 18234 0067 4C565F49 		.ascii	"LV_INDEV_TYPE_ENCODER\000"
 18234      4E444556 
 18234      5F545950 
 18234      455F454E 
 18234      434F4445 
 18235              	.LASF746:
 18236 007d 6C765F64 		.ascii	"lv_draw_arc\000"
 18236      7261775F 
 18236      61726300 
 18237              	.LASF71:
 18238 0089 73697A65 		.ascii	"sizetype\000"
 18238      74797065 
 18238      00
 18239              	.LASF578:
 18240 0092 4C565F4B 		.ascii	"LV_KEY_RIGHT\000"
 18240      45595F52 
 18240      49474854 
 18240      00
 18241              	.LASF218:
 18242 009f 62675F69 		.ascii	"bg_img_recolor\000"
 18242      6D675F72 
 18242      65636F6C 
 18242      6F7200
 18243              	.LASF546:
 18244 00ae 4C565F45 		.ascii	"LV_EVENT_DRAW_MAIN_BEGIN\000"
 18244      56454E54 
 18244      5F445241 
 18244      575F4D41 
 18244      494E5F42 
 18245              	.LASF728:
 18246 00c7 725F6F66 		.ascii	"r_offset\000"
 18246      66736574 
 18246      00
 18247              	.LASF617:
 18248 00d0 6D61785F 		.ascii	"max_value\000"
 18248      76616C75 
 18248      6500
ARM GAS  C:\Users\haske\AppData\Local\Temp\ccmHbbn5.s 			page 353


 18249              	.LASF148:
 18250 00da 4C565F53 		.ascii	"LV_STYLE_LINE_DASH_GAP\000"
 18250      54594C45 
 18250      5F4C494E 
 18250      455F4441 
 18250      53485F47 
 18251              	.LASF306:
 18252 00f1 7461696C 		.ascii	"tail\000"
 18252      00
 18253              	.LASF778:
 18254 00f6 6C765F6F 		.ascii	"lv_obj_set_style_transform_pivot_x\000"
 18254      626A5F73 
 18254      65745F73 
 18254      74796C65 
 18254      5F747261 
 18255              	.LASF779:
 18256 0119 6C765F6F 		.ascii	"lv_obj_set_style_transform_pivot_y\000"
 18256      626A5F73 
 18256      65745F73 
 18256      74796C65 
 18256      5F747261 
 18257              	.LASF358:
 18258 013c 6163745F 		.ascii	"act_scr\000"
 18258      73637200 
 18259              	.LASF363:
 18260 0144 73637265 		.ascii	"screen_cnt\000"
 18260      656E5F63 
 18260      6E7400
 18261              	.LASF631:
 18262 014f 6C765F6F 		.ascii	"lv_obj_get_style_shadow_ofs_x\000"
 18262      626A5F67 
 18262      65745F73 
 18262      74796C65 
 18262      5F736861 
 18263              	.LASF294:
 18264 016d 64726177 		.ascii	"draw_bg\000"
 18264      5F626700 
 18265              	.LASF663:
 18266 0175 6C765F61 		.ascii	"lv_arc_draw\000"
 18266      72635F64 
 18266      72617700 
 18267              	.LASF78:
 18268 0181 6C765F6F 		.ascii	"lv_opa_t\000"
 18268      70615F74 
 18268      00
 18269              	.LASF155:
 18270 018a 4C565F53 		.ascii	"LV_STYLE_ARC_OPA\000"
 18270      54594C45 
 18270      5F415243 
 18270      5F4F5041 
 18270      00
 18271              	.LASF263:
 18272 019b 7261775F 		.ascii	"raw_end\000"
 18272      656E6400 
 18273              	.LASF757:
 18274 01a3 6C765F61 		.ascii	"lv_area_increase\000"
 18274      7265615F 
ARM GAS  C:\Users\haske\AppData\Local\Temp\ccmHbbn5.s 			page 354


 18274      696E6372 
 18274      65617365 
 18274      00
 18275              	.LASF19:
 18276 01b4 696E7433 		.ascii	"int32_t\000"
 18276      325F7400 
 18277              	.LASF485:
 18278 01bc 6C765F73 		.ascii	"lv_scrollbar_mode_t\000"
 18278      63726F6C 
 18278      6C626172 
 18278      5F6D6F64 
 18278      655F7400 
 18279              	.LASF653:
 18280 01d0 6765745F 		.ascii	"get_knob_area\000"
 18280      6B6E6F62 
 18280      5F617265 
 18280      6100
 18281              	.LASF632:
 18282 01de 6C765F6F 		.ascii	"lv_obj_get_style_shadow_spread\000"
 18282      626A5F67 
 18282      65745F73 
 18282      74796C65 
 18282      5F736861 
 18283              	.LASF602:
 18284 01fd 6C617965 		.ascii	"layer_type\000"
 18284      725F7479 
 18284      706500
 18285              	.LASF192:
 18286 0208 6861735F 		.ascii	"has_group\000"
 18286      67726F75 
 18286      7000
 18287              	.LASF555:
 18288 0212 4C565F45 		.ascii	"LV_EVENT_INSERT\000"
 18288      56454E54 
 18288      5F494E53 
 18288      45525400 
 18289              	.LASF438:
 18290 0222 66726F7A 		.ascii	"frozen\000"
 18290      656E00
 18291              	.LASF24:
 18292 0229 6C765F70 		.ascii	"lv_point_t\000"
 18292      6F696E74 
 18292      5F7400
 18293              	.LASF760:
 18294 0234 6C765F6F 		.ascii	"lv_obj_invalidate\000"
 18294      626A5F69 
 18294      6E76616C 
 18294      69646174 
 18294      6500
 18295              	.LASF536:
 18296 0246 4C565F45 		.ascii	"LV_EVENT_SCROLL_END\000"
 18296      56454E54 
 18296      5F534352 
 18296      4F4C4C5F 
 18296      454E4400 
 18297              	.LASF211:
 18298 025a 72616469 		.ascii	"radius\000"
ARM GAS  C:\Users\haske\AppData\Local\Temp\ccmHbbn5.s 			page 355


 18298      757300
 18299              	.LASF214:
 18300 0261 62675F63 		.ascii	"bg_color\000"
 18300      6F6C6F72 
 18300      00
 18301              	.LASF58:
 18302 026a 6C696E65 		.ascii	"line_height\000"
 18302      5F686569 
 18302      67687400 
 18303              	.LASF82:
 18304 0276 6C765F62 		.ascii	"lv_blend_mode_t\000"
 18304      6C656E64 
 18304      5F6D6F64 
 18304      655F7400 
 18305              	.LASF245:
 18306 0286 62696469 		.ascii	"bidi_dir\000"
 18306      5F646972 
 18306      00
 18307              	.LASF319:
 18308 028f 6275665F 		.ascii	"buf_act\000"
 18308      61637400 
 18309              	.LASF352:
 18310 0297 64726177 		.ascii	"draw_ctx_size\000"
 18310      5F637478 
 18310      5F73697A 
 18310      6500
 18311              	.LASF575:
 18312 02a5 6C765F68 		.ascii	"lv_hit_test_info_t\000"
 18312      69745F74 
 18312      6573745F 
 18312      696E666F 
 18312      5F7400
 18313              	.LASF200:
 18314 02b8 73706563 		.ascii	"spec_attr\000"
 18314      5F617474 
 18314      7200
 18315              	.LASF599:
 18316 02c2 7363726F 		.ascii	"scroll_snap_x\000"
 18316      6C6C5F73 
 18316      6E61705F 
 18316      7800
 18317              	.LASF600:
 18318 02d0 7363726F 		.ascii	"scroll_snap_y\000"
 18318      6C6C5F73 
 18318      6E61705F 
 18318      7900
 18319              	.LASF271:
 18320 02de 4C565F44 		.ascii	"LV_DRAW_LAYER_FLAG_HAS_ALPHA\000"
 18320      5241575F 
 18320      4C415945 
 18320      525F464C 
 18320      41475F48 
 18321              	.LASF574:
 18322 02fb 6C765F65 		.ascii	"lv_event_t\000"
 18322      76656E74 
 18322      5F7400
 18323              	.LASF680:
ARM GAS  C:\Users\haske\AppData\Local\Temp\ccmHbbn5.s 			page 356


 18324 0306 6C765F61 		.ascii	"lv_arc_set_end_angle\000"
 18324      72635F73 
 18324      65745F65 
 18324      6E645F61 
 18324      6E676C65 
 18325              	.LASF560:
 18326 031b 4C565F45 		.ascii	"LV_EVENT_CHILD_CHANGED\000"
 18326      56454E54 
 18326      5F434849 
 18326      4C445F43 
 18326      48414E47 
 18327              	.LASF204:
 18328 0332 73746174 		.ascii	"state\000"
 18328      6500
 18329              	.LASF99:
 18330 0338 4C565F53 		.ascii	"LV_STYLE_HEIGHT\000"
 18330      54594C45 
 18330      5F484549 
 18330      47485400 
 18331              	.LASF706:
 18332 0348 64656C74 		.ascii	"delta_angle\000"
 18332      615F616E 
 18332      676C6500 
 18333              	.LASF313:
 18334 0354 72657065 		.ascii	"repeat_count\000"
 18334      61745F63 
 18334      6F756E74 
 18334      00
 18335              	.LASF251:
 18336 0361 7A6F6F6D 		.ascii	"zoom\000"
 18336      00
 18337              	.LASF489:
 18338 0366 69735F6C 		.ascii	"is_local\000"
 18338      6F63616C 
 18338      00
 18339              	.LASF286:
 18340 036f 64726177 		.ascii	"draw_rect\000"
 18340      5F726563 
 18340      7400
 18341              	.LASF309:
 18342 0379 5F6C765F 		.ascii	"_lv_timer_t\000"
 18342      74696D65 
 18342      725F7400 
 18343              	.LASF648:
 18344 0385 6765745F 		.ascii	"get_angle\000"
 18344      616E676C 
 18344      6500
 18345              	.LASF68:
 18346 038f 4C565F52 		.ascii	"LV_RES_INV\000"
 18346      45535F49 
 18346      4E5600
 18347              	.LASF46:
 18348 039a 4C565F41 		.ascii	"LV_ALIGN_OUT_RIGHT_MID\000"
 18348      4C49474E 
 18348      5F4F5554 
 18348      5F524947 
 18348      48545F4D 
ARM GAS  C:\Users\haske\AppData\Local\Temp\ccmHbbn5.s 			page 357


 18349              	.LASF285:
 18350 03b1 696E6974 		.ascii	"init_buf\000"
 18350      5F627566 
 18350      00
 18351              	.LASF504:
 18352 03ba 636F6E73 		.ascii	"constructor_cb\000"
 18352      74727563 
 18352      746F725F 
 18352      636200
 18353              	.LASF268:
 18354 03c9 726F756E 		.ascii	"rounded\000"
 18354      64656400 
 18355              	.LASF180:
 18356 03d1 5F4C565F 		.ascii	"_LV_STYLE_LAST_BUILT_IN_PROP\000"
 18356      5354594C 
 18356      455F4C41 
 18356      53545F42 
 18356      55494C54 
 18357              	.LASF284:
 18358 03ee 5F6C765F 		.ascii	"_lv_draw_ctx_t\000"
 18358      64726177 
 18358      5F637478 
 18358      5F7400
 18359              	.LASF388:
 18360 03fd 74797065 		.ascii	"type\000"
 18360      00
 18361              	.LASF538:
 18362 0402 4C565F45 		.ascii	"LV_EVENT_GESTURE\000"
 18362      56454E54 
 18362      5F474553 
 18362      54555245 
 18362      00
 18363              	.LASF531:
 18364 0413 4C565F45 		.ascii	"LV_EVENT_LONG_PRESSED\000"
 18364      56454E54 
 18364      5F4C4F4E 
 18364      475F5052 
 18364      45535345 
 18365              	.LASF216:
 18366 0429 62675F69 		.ascii	"bg_img_src\000"
 18366      6D675F73 
 18366      726300
 18367              	.LASF677:
 18368 0434 6F6C645F 		.ascii	"old_delta\000"
 18368      64656C74 
 18368      6100
 18369              	.LASF130:
 18370 043e 4C565F53 		.ascii	"LV_STYLE_BORDER_WIDTH\000"
 18370      54594C45 
 18370      5F424F52 
 18370      4445525F 
 18370      57494454 
 18371              	.LASF626:
 18372 0454 4C565F41 		.ascii	"LV_ARC_DRAW_PART_KNOB\000"
 18372      52435F44 
 18372      5241575F 
 18372      50415254 
ARM GAS  C:\Users\haske\AppData\Local\Temp\ccmHbbn5.s 			page 358


 18372      5F4B4E4F 
 18373              	.LASF561:
 18374 046a 4C565F45 		.ascii	"LV_EVENT_CHILD_CREATED\000"
 18374      56454E54 
 18374      5F434849 
 18374      4C445F43 
 18374      52454154 
 18375              	.LASF112:
 18376 0481 4C565F53 		.ascii	"LV_STYLE_PAD_COLUMN\000"
 18376      54594C45 
 18376      5F504144 
 18376      5F434F4C 
 18376      554D4E00 
 18377              	.LASF387:
 18378 0495 5F6C765F 		.ascii	"_lv_indev_drv_t\000"
 18378      696E6465 
 18378      765F6472 
 18378      765F7400 
 18379              	.LASF765:
 18380 04a5 6C765F69 		.ascii	"lv_indev_get_point\000"
 18380      6E646576 
 18380      5F676574 
 18380      5F706F69 
 18380      6E7400
 18381              	.LASF705:
 18382 04b8 6C617374 		.ascii	"last_angle_rel\000"
 18382      5F616E67 
 18382      6C655F72 
 18382      656C00
 18383              	.LASF721:
 18384 04c7 6B6E6F62 		.ascii	"knob_bottom\000"
 18384      5F626F74 
 18384      746F6D00 
 18385              	.LASF448:
 18386 04d3 4C565F50 		.ascii	"LV_PART_SELECTED\000"
 18386      4152545F 
 18386      53454C45 
 18386      43544544 
 18386      00
 18387              	.LASF382:
 18388 04e4 706F696E 		.ascii	"point\000"
 18388      7400
 18389              	.LASF122:
 18390 04ea 4C565F53 		.ascii	"LV_STYLE_BG_DITHER_MODE\000"
 18390      54594C45 
 18390      5F42475F 
 18390      44495448 
 18390      45525F4D 
 18391              	.LASF226:
 18392 0502 626F7264 		.ascii	"border_side\000"
 18392      65725F73 
 18392      69646500 
 18393              	.LASF1:
 18394 050e 5F5F7569 		.ascii	"__uint8_t\000"
 18394      6E74385F 
 18394      7400
 18395              	.LASF210:
ARM GAS  C:\Users\haske\AppData\Local\Temp\ccmHbbn5.s 			page 359


 18396 0518 775F6C61 		.ascii	"w_layout\000"
 18396      796F7574 
 18396      00
 18397              	.LASF212:
 18398 0521 626C656E 		.ascii	"blend_mode\000"
 18398      645F6D6F 
 18398      646500
 18399              	.LASF106:
 18400 052c 4C565F53 		.ascii	"LV_STYLE_RADIUS\000"
 18400      54594C45 
 18400      5F524144 
 18400      49555300 
 18401              	.LASF328:
 18402 053c 7665725F 		.ascii	"ver_res\000"
 18402      72657300 
 18403              	.LASF206:
 18404 0544 7363725F 		.ascii	"scr_layout_inv\000"
 18404      6C61796F 
 18404      75745F69 
 18404      6E7600
 18405              	.LASF98:
 18406 0553 4C565F53 		.ascii	"LV_STYLE_MAX_WIDTH\000"
 18406      54594C45 
 18406      5F4D4158 
 18406      5F574944 
 18406      544800
 18407              	.LASF357:
 18408 0566 73637265 		.ascii	"screens\000"
 18408      656E7300 
 18409              	.LASF125:
 18410 056e 4C565F53 		.ascii	"LV_STYLE_BG_IMG_RECOLOR\000"
 18410      54594C45 
 18410      5F42475F 
 18410      494D475F 
 18410      5245434F 
 18411              	.LASF142:
 18412 0586 4C565F53 		.ascii	"LV_STYLE_SHADOW_OPA\000"
 18412      54594C45 
 18412      5F534841 
 18412      444F575F 
 18412      4F504100 
 18413              	.LASF745:
 18414 059a 6C765F65 		.ascii	"lv_event_send\000"
 18414      76656E74 
 18414      5F73656E 
 18414      6400
 18415              	.LASF739:
 18416 05a8 6C765F74 		.ascii	"lv_trigo_sin\000"
 18416      7269676F 
 18416      5F73696E 
 18416      00
 18417              	.LASF409:
 18418 05b5 7363726F 		.ascii	"scroll_obj\000"
 18418      6C6C5F6F 
 18418      626A00
 18419              	.LASF173:
 18420 05c0 4C565F53 		.ascii	"LV_STYLE_TRANSFORM_HEIGHT\000"
ARM GAS  C:\Users\haske\AppData\Local\Temp\ccmHbbn5.s 			page 360


 18420      54594C45 
 18420      5F545241 
 18420      4E53464F 
 18420      524D5F48 
 18421              	.LASF459:
 18422 05da 4C565F4F 		.ascii	"LV_OBJ_FLAG_SCROLLABLE\000"
 18422      424A5F46 
 18422      4C41475F 
 18422      5343524F 
 18422      4C4C4142 
 18423              	.LASF110:
 18424 05f1 4C565F53 		.ascii	"LV_STYLE_PAD_RIGHT\000"
 18424      54594C45 
 18424      5F504144 
 18424      5F524947 
 18424      485400
 18425              	.LASF704:
 18426 0604 6465675F 		.ascii	"deg_range\000"
 18426      72616E67 
 18426      6500
 18427              	.LASF526:
 18428 060e 4C565F45 		.ascii	"LV_EVENT_ALL\000"
 18428      56454E54 
 18428      5F414C4C 
 18428      00
 18429              	.LASF613:
 18430 061b 696E6469 		.ascii	"indic_angle_end\000"
 18430      635F616E 
 18430      676C655F 
 18430      656E6400 
 18431              	.LASF372:
 18432 062b 6C617374 		.ascii	"last_activity_time\000"
 18432      5F616374 
 18432      69766974 
 18432      795F7469 
 18432      6D6500
 18433              	.LASF9:
 18434 063e 6C6F6E67 		.ascii	"long int\000"
 18434      20696E74 
 18434      00
 18435              	.LASF170:
 18436 0647 4C565F53 		.ascii	"LV_STYLE_TRANSITION\000"
 18436      54594C45 
 18436      5F545241 
 18436      4E534954 
 18436      494F4E00 
 18437              	.LASF338:
 18438 065b 726F7461 		.ascii	"rotated\000"
 18438      74656400 
 18439              	.LASF413:
 18440 0663 7363726F 		.ascii	"scroll_dir\000"
 18440      6C6C5F64 
 18440      697200
 18441              	.LASF510:
 18442 066e 67726F75 		.ascii	"group_def\000"
 18442      705F6465 
 18442      6600
ARM GAS  C:\Users\haske\AppData\Local\Temp\ccmHbbn5.s 			page 361


 18443              	.LASF351:
 18444 0678 64726177 		.ascii	"draw_ctx_deinit\000"
 18444      5F637478 
 18444      5F646569 
 18444      6E697400 
 18445              	.LASF126:
 18446 0688 4C565F53 		.ascii	"LV_STYLE_BG_IMG_RECOLOR_OPA\000"
 18446      54594C45 
 18446      5F42475F 
 18446      494D475F 
 18446      5245434F 
 18447              	.LASF213:
 18448 06a4 62675F6F 		.ascii	"bg_opa\000"
 18448      706100
 18449              	.LASF355:
 18450 06ab 72656672 		.ascii	"refr_timer\000"
 18450      5F74696D 
 18450      657200
 18451              	.LASF249:
 18452 06b6 6C765F64 		.ascii	"lv_draw_label_dsc_t\000"
 18452      7261775F 
 18452      6C616265 
 18452      6C5F6473 
 18452      635F7400 
 18453              	.LASF443:
 18454 06ca 6C765F73 		.ascii	"lv_state_t\000"
 18454      74617465 
 18454      5F7400
 18455              	.LASF472:
 18456 06d5 4C565F4F 		.ascii	"LV_OBJ_FLAG_ADV_HITTEST\000"
 18456      424A5F46 
 18456      4C41475F 
 18456      4144565F 
 18456      48495454 
 18457              	.LASF242:
 18458 06ed 73656C5F 		.ascii	"sel_bg_color\000"
 18458      62675F63 
 18458      6F6C6F72 
 18458      00
 18459              	.LASF492:
 18460 06fa 64726177 		.ascii	"draw_area\000"
 18460      5F617265 
 18460      6100
 18461              	.LASF782:
 18462 0704 2E2E5C2E 		.ascii	"..\\..\\..\\arduinoLCD\\test\\Pain Drain\\libraries"
 18462      2E5C2E2E 
 18462      5C617264 
 18462      75696E6F 
 18462      4C43445C 
 18463 0731 5C6C7667 		.ascii	"\\lvgl\\src\\widgets\\lv_arc.c\000"
 18463      6C5C7372 
 18463      635C7769 
 18463      64676574 
 18463      735C6C76 
 18464              	.LASF467:
 18465 074c 4C565F4F 		.ascii	"LV_OBJ_FLAG_SCROLL_WITH_ARROW\000"
 18465      424A5F46 
ARM GAS  C:\Users\haske\AppData\Local\Temp\ccmHbbn5.s 			page 362


 18465      4C41475F 
 18465      5343524F 
 18465      4C4C5F57 
 18466              	.LASF437:
 18467 076a 65646765 		.ascii	"edge_cb\000"
 18467      5F636200 
 18468              	.LASF369:
 18469 0772 696E765F 		.ascii	"inv_area_joined\000"
 18469      61726561 
 18469      5F6A6F69 
 18469      6E656400 
 18470              	.LASF127:
 18471 0782 4C565F53 		.ascii	"LV_STYLE_BG_IMG_TILED\000"
 18471      54594C45 
 18471      5F42475F 
 18471      494D475F 
 18471      54494C45 
 18472              	.LASF581:
 18473 0798 4C565F4B 		.ascii	"LV_KEY_DEL\000"
 18473      45595F44 
 18473      454C00
 18474              	.LASF360:
 18475 07a3 7363725F 		.ascii	"scr_to_load\000"
 18475      746F5F6C 
 18475      6F616400 
 18476              	.LASF664:
 18477 07af 70617274 		.ascii	"part_draw_dsc\000"
 18477      5F647261 
 18477      775F6473 
 18477      6300
 18478              	.LASF305:
 18479 07bd 68656164 		.ascii	"head\000"
 18479      00
 18480              	.LASF129:
 18481 07c2 4C565F53 		.ascii	"LV_STYLE_BORDER_OPA\000"
 18481      54594C45 
 18481      5F424F52 
 18481      4445525F 
 18481      4F504100 
 18482              	.LASF672:
 18483 07d6 696E765F 		.ascii	"inv_arc_area\000"
 18483      6172635F 
 18483      61726561 
 18483      00
 18484              	.LASF389:
 18485 07e3 72656164 		.ascii	"read_cb\000"
 18485      5F636200 
 18486              	.LASF553:
 18487 07eb 4C565F45 		.ascii	"LV_EVENT_DRAW_PART_END\000"
 18487      56454E54 
 18487      5F445241 
 18487      575F5041 
 18487      52545F45 
 18488              	.LASF323:
 18489 0802 6C617374 		.ascii	"last_area\000"
 18489      5F617265 
 18489      6100
ARM GAS  C:\Users\haske\AppData\Local\Temp\ccmHbbn5.s 			page 363


 18490              	.LASF412:
 18491 080c 67657374 		.ascii	"gesture_sum\000"
 18491      7572655F 
 18491      73756D00 
 18492              	.LASF296:
 18493 0818 62756666 		.ascii	"buffer_copy\000"
 18493      65725F63 
 18493      6F707900 
 18494              	.LASF410:
 18495 0824 6C617374 		.ascii	"last_pressed\000"
 18495      5F707265 
 18495      73736564 
 18495      00
 18496              	.LASF628:
 18497 0831 6C765F6F 		.ascii	"lv_obj_get_style_pad_top\000"
 18497      626A5F67 
 18497      65745F73 
 18497      74796C65 
 18497      5F706164 
 18498              	.LASF227:
 18499 084a 6F75746C 		.ascii	"outline_color\000"
 18499      696E655F 
 18499      636F6C6F 
 18499      7200
 18500              	.LASF141:
 18501 0858 4C565F53 		.ascii	"LV_STYLE_SHADOW_COLOR\000"
 18501      54594C45 
 18501      5F534841 
 18501      444F575F 
 18501      434F4C4F 
 18502              	.LASF208:
 18503 086e 7374796C 		.ascii	"style_cnt\000"
 18503      655F636E 
 18503      7400
 18504              	.LASF205:
 18505 0878 6C61796F 		.ascii	"layout_inv\000"
 18505      75745F69 
 18505      6E7600
 18506              	.LASF579:
 18507 0883 4C565F4B 		.ascii	"LV_KEY_LEFT\000"
 18507      45595F4C 
 18507      45465400 
 18508              	.LASF2:
 18509 088f 7369676E 		.ascii	"signed char\000"
 18509      65642063 
 18509      68617200 
 18510              	.LASF454:
 18511 089b 6C765F70 		.ascii	"lv_part_t\000"
 18511      6172745F 
 18511      7400
 18512              	.LASF16:
 18513 08a5 75696E74 		.ascii	"uint8_t\000"
 18513      385F7400 
 18514              	.LASF291:
 18515 08ad 64726177 		.ascii	"draw_line\000"
 18515      5F6C696E 
 18515      6500
ARM GAS  C:\Users\haske\AppData\Local\Temp\ccmHbbn5.s 			page 364


 18516              	.LASF327:
 18517 08b7 686F725F 		.ascii	"hor_res\000"
 18517      72657300 
 18518              	.LASF699:
 18519 08bf 6C765F61 		.ascii	"lv_arc_get_bg_angle_end\000"
 18519      72635F67 
 18519      65745F62 
 18519      675F616E 
 18519      676C655F 
 18520              	.LASF231:
 18521 08d7 73686164 		.ascii	"shadow_color\000"
 18521      6F775F63 
 18521      6F6C6F72 
 18521      00
 18522              	.LASF477:
 18523 08e4 4C565F4F 		.ascii	"LV_OBJ_FLAG_LAYOUT_2\000"
 18523      424A5F46 
 18523      4C41475F 
 18523      4C41594F 
 18523      55545F32 
 18524              	.LASF221:
 18525 08f9 62675F69 		.ascii	"bg_img_tiled\000"
 18525      6D675F74 
 18525      696C6564 
 18525      00
 18526              	.LASF118:
 18527 0906 4C565F53 		.ascii	"LV_STYLE_BG_GRAD_DIR\000"
 18527      54594C45 
 18527      5F42475F 
 18527      47524144 
 18527      5F444952 
 18528              	.LASF57:
 18529 091b 6765745F 		.ascii	"get_glyph_bitmap\000"
 18529      676C7970 
 18529      685F6269 
 18529      746D6170 
 18529      00
 18530              	.LASF266:
 18531 092c 656E645F 		.ascii	"end_angle\000"
 18531      616E676C 
 18531      6500
 18532              	.LASF73:
 18533 0936 626C7565 		.ascii	"blue\000"
 18533      00
 18534              	.LASF465:
 18535 093b 4C565F4F 		.ascii	"LV_OBJ_FLAG_SCROLL_CHAIN\000"
 18535      424A5F46 
 18535      4C41475F 
 18535      5343524F 
 18535      4C4C5F43 
 18536              	.LASF219:
 18537 0954 62675F69 		.ascii	"bg_img_opa\000"
 18537      6D675F6F 
 18537      706100
 18538              	.LASF777:
 18539 095f 6C765F6F 		.ascii	"lv_obj_align_to\000"
 18539      626A5F61 
ARM GAS  C:\Users\haske\AppData\Local\Temp\ccmHbbn5.s 			page 365


 18539      6C69676E 
 18539      5F746F00 
 18540              	.LASF478:
 18541 096f 4C565F4F 		.ascii	"LV_OBJ_FLAG_WIDGET_1\000"
 18541      424A5F46 
 18541      4C41475F 
 18541      57494447 
 18541      45545F31 
 18542              	.LASF479:
 18543 0984 4C565F4F 		.ascii	"LV_OBJ_FLAG_WIDGET_2\000"
 18543      424A5F46 
 18543      4C41475F 
 18543      57494447 
 18543      45545F32 
 18544              	.LASF655:
 18545 0999 696E6469 		.ascii	"indic_width\000"
 18545      635F7769 
 18545      64746800 
 18546              	.LASF727:
 18547 09a5 6F626A5F 		.ascii	"obj_to_align\000"
 18547      746F5F61 
 18547      6C69676E 
 18547      00
 18548              	.LASF104:
 18549 09b2 4C565F53 		.ascii	"LV_STYLE_ALIGN\000"
 18549      54594C45 
 18549      5F414C49 
 18549      474E00
 18550              	.LASF3:
 18551 09c1 756E7369 		.ascii	"unsigned char\000"
 18551      676E6564 
 18551      20636861 
 18551      7200
 18552              	.LASF361:
 18553 09cf 746F705F 		.ascii	"top_layer\000"
 18553      6C617965 
 18553      7200
 18554              	.LASF425:
 18555 09d9 74797065 		.ascii	"types\000"
 18555      7300
 18556              	.LASF570:
 18557 09df 4C565F45 		.ascii	"LV_EVENT_GET_SELF_SIZE\000"
 18557      56454E54 
 18557      5F474554 
 18557      5F53454C 
 18557      465F5349 
 18558              	.LASF547:
 18559 09f6 4C565F45 		.ascii	"LV_EVENT_DRAW_MAIN\000"
 18559      56454E54 
 18559      5F445241 
 18559      575F4D41 
 18559      494E00
 18560              	.LASF592:
 18561 0a09 6368696C 		.ascii	"child_cnt\000"
 18561      645F636E 
 18561      7400
 18562              	.LASF264:
ARM GAS  C:\Users\haske\AppData\Local\Temp\ccmHbbn5.s 			page 366


 18563 0a13 6C765F64 		.ascii	"lv_draw_line_dsc_t\000"
 18563      7261775F 
 18563      6C696E65 
 18563      5F647363 
 18563      5F7400
 18564              	.LASF178:
 18565 0a26 4C565F53 		.ascii	"LV_STYLE_TRANSFORM_PIVOT_X\000"
 18565      54594C45 
 18565      5F545241 
 18565      4E53464F 
 18565      524D5F50 
 18566              	.LASF179:
 18567 0a41 4C565F53 		.ascii	"LV_STYLE_TRANSFORM_PIVOT_Y\000"
 18567      54594C45 
 18567      5F545241 
 18567      4E53464F 
 18567      524D5F50 
 18568              	.LASF590:
 18569 0a5c 6C765F67 		.ascii	"lv_group_t\000"
 18569      726F7570 
 18569      5F7400
 18570              	.LASF379:
 18571 0a67 4C565F49 		.ascii	"LV_INDEV_STATE_RELEASED\000"
 18571      4E444556 
 18571      5F535441 
 18571      54455F52 
 18571      454C4541 
 18572              	.LASF144:
 18573 0a7f 4C565F53 		.ascii	"LV_STYLE_IMG_RECOLOR\000"
 18573      54594C45 
 18573      5F494D47 
 18573      5F524543 
 18573      4F4C4F52 
 18574              	.LASF279:
 18575 0a94 61726561 		.ascii	"area_act\000"
 18575      5F616374 
 18575      00
 18576              	.LASF152:
 18577 0a9d 4C565F53 		.ascii	"LV_STYLE_ARC_WIDTH\000"
 18577      54594C45 
 18577      5F415243 
 18577      5F574944 
 18577      544800
 18578              	.LASF53:
 18579 0ab0 6F66735F 		.ascii	"ofs_x\000"
 18579      7800
 18580              	.LASF54:
 18581 0ab6 6F66735F 		.ascii	"ofs_y\000"
 18581      7900
 18582              	.LASF81:
 18583 0abc 6C765F62 		.ascii	"lv_base_dir_t\000"
 18583      6173655F 
 18583      6469725F 
 18583      7400
 18584              	.LASF582:
 18585 0aca 4C565F4B 		.ascii	"LV_KEY_BACKSPACE\000"
 18585      45595F42 
ARM GAS  C:\Users\haske\AppData\Local\Temp\ccmHbbn5.s 			page 367


 18585      41434B53 
 18585      50414345 
 18585      00
 18586              	.LASF366:
 18587 0adb 72656E64 		.ascii	"rendering_in_progress\000"
 18587      6572696E 
 18587      675F696E 
 18587      5F70726F 
 18587      67726573 
 18588              	.LASF209:
 18589 0af1 685F6C61 		.ascii	"h_layout\000"
 18589      796F7574 
 18589      00
 18590              	.LASF322:
 18591 0afa 666C7573 		.ascii	"flushing_last\000"
 18591      68696E67 
 18591      5F6C6173 
 18591      7400
 18592              	.LASF66:
 18593 0b08 5F426F6F 		.ascii	"_Bool\000"
 18593      6C00
 18594              	.LASF598:
 18595 0b0e 7363726F 		.ascii	"scrollbar_mode\000"
 18595      6C6C6261 
 18595      725F6D6F 
 18595      646500
 18596              	.LASF330:
 18597 0b1d 70687973 		.ascii	"physical_ver_res\000"
 18597      6963616C 
 18597      5F766572 
 18597      5F726573 
 18597      00
 18598              	.LASF678:
 18599 0b2e 6E65775F 		.ascii	"new_delta\000"
 18599      64656C74 
 18599      6100
 18600              	.LASF282:
 18601 0b38 6F726967 		.ascii	"original\000"
 18601      696E616C 
 18601      00
 18602              	.LASF174:
 18603 0b41 4C565F53 		.ascii	"LV_STYLE_TRANSLATE_X\000"
 18603      54594C45 
 18603      5F545241 
 18603      4E534C41 
 18603      54455F58 
 18604              	.LASF175:
 18605 0b56 4C565F53 		.ascii	"LV_STYLE_TRANSLATE_Y\000"
 18605      54594C45 
 18605      5F545241 
 18605      4E534C41 
 18605      54455F59 
 18606              	.LASF781:
 18607 0b6b 474E5520 		.ascii	"GNU C11 5.4.1 20160609 (release) [ARM/embedded-5-br"
 18607      43313120 
 18607      352E342E 
 18607      31203230 
ARM GAS  C:\Users\haske\AppData\Local\Temp\ccmHbbn5.s 			page 368


 18607      31363036 
 18608 0b9e 616E6368 		.ascii	"anch revision 237715] -mcpu=cortex-m0plus -mthumb -"
 18608      20726576 
 18608      6973696F 
 18608      6E203233 
 18608      37373135 
 18609 0bd1 67202D4F 		.ascii	"g -Og -ffunction-sections -ffat-lto-objects\000"
 18609      67202D66 
 18609      66756E63 
 18609      74696F6E 
 18609      2D736563 
 18610              	.LASF523:
 18611 0bfd 73746F70 		.ascii	"stop_processing\000"
 18611      5F70726F 
 18611      63657373 
 18611      696E6700 
 18612              	.LASF186:
 18613 0c0d 76616C75 		.ascii	"value\000"
 18613      6500
 18614              	.LASF203:
 18615 0c13 666C6167 		.ascii	"flags\000"
 18615      7300
 18616              	.LASF273:
 18617 0c19 6C765F64 		.ascii	"lv_draw_layer_flags_t\000"
 18617      7261775F 
 18617      6C617965 
 18617      725F666C 
 18617      6167735F 
 18618              	.LASF769:
 18619 0c2f 6C765F67 		.ascii	"lv_group_get_editing\000"
 18619      726F7570 
 18619      5F676574 
 18619      5F656469 
 18619      74696E67 
 18620              	.LASF72:
 18621 0c44 63686172 		.ascii	"char\000"
 18621      00
 18622              	.LASF257:
 18623 0c49 6C765F64 		.ascii	"lv_draw_img_dsc_t\000"
 18623      7261775F 
 18623      696D675F 
 18623      6473635F 
 18623      7400
 18624              	.LASF383:
 18625 0c5b 62746E5F 		.ascii	"btn_id\000"
 18625      696400
 18626              	.LASF545:
 18627 0c62 4C565F45 		.ascii	"LV_EVENT_REFR_EXT_DRAW_SIZE\000"
 18627      56454E54 
 18627      5F524546 
 18627      525F4558 
 18627      545F4452 
 18628              	.LASF61:
 18629 0c7e 756E6465 		.ascii	"underline_position\000"
 18629      726C696E 
 18629      655F706F 
 18629      73697469 
ARM GAS  C:\Users\haske\AppData\Local\Temp\ccmHbbn5.s 			page 369


 18629      6F6E00
 18630              	.LASF301:
 18631 0c91 6C617965 		.ascii	"layer_instance_size\000"
 18631      725F696E 
 18631      7374616E 
 18631      63655F73 
 18631      697A6500 
 18632              	.LASF750:
 18633 0ca5 6C765F74 		.ascii	"lv_tick_get\000"
 18633      69636B5F 
 18633      67657400 
 18634              	.LASF260:
 18635 0cb1 64617368 		.ascii	"dash_gap\000"
 18635      5F676170 
 18635      00
 18636              	.LASF293:
 18637 0cba 64726177 		.ascii	"draw_transform\000"
 18637      5F747261 
 18637      6E73666F 
 18637      726D00
 18638              	.LASF334:
 18639 0cc9 64697265 		.ascii	"direct_mode\000"
 18639      63745F6D 
 18639      6F646500 
 18640              	.LASF544:
 18641 0cd5 4C565F45 		.ascii	"LV_EVENT_COVER_CHECK\000"
 18641      56454E54 
 18641      5F434F56 
 18641      45525F43 
 18641      4845434B 
 18642              	.LASF113:
 18643 0cea 4C565F53 		.ascii	"LV_STYLE_BASE_DIR\000"
 18643      54594C45 
 18643      5F424153 
 18643      455F4449 
 18643      5200
 18644              	.LASF135:
 18645 0cfc 4C565F53 		.ascii	"LV_STYLE_OUTLINE_OPA\000"
 18645      54594C45 
 18645      5F4F5554 
 18645      4C494E45 
 18645      5F4F5041 
 18646              	.LASF91:
 18647 0d11 73746F70 		.ascii	"stops_count\000"
 18647      735F636F 
 18647      756E7400 
 18648              	.LASF337:
 18649 0d1d 616E7469 		.ascii	"antialiasing\000"
 18649      616C6961 
 18649      73696E67 
 18649      00
 18650              	.LASF731:
 18651 0d2a 7069766F 		.ascii	"pivot_x\000"
 18651      745F7800 
 18652              	.LASF732:
 18653 0d32 7069766F 		.ascii	"pivot_y\000"
 18653      745F7900 
ARM GAS  C:\Users\haske\AppData\Local\Temp\ccmHbbn5.s 			page 370


 18654              	.LASF6:
 18655 0d3a 5F5F7569 		.ascii	"__uint16_t\000"
 18655      6E743136 
 18655      5F7400
 18656              	.LASF411:
 18657 0d45 7363726F 		.ascii	"scroll_area\000"
 18657      6C6C5F61 
 18657      72656100 
 18658              	.LASF543:
 18659 0d51 4C565F45 		.ascii	"LV_EVENT_HIT_TEST\000"
 18659      56454E54 
 18659      5F484954 
 18659      5F544553 
 18659      5400
 18660              	.LASF689:
 18661 0d63 6C765F61 		.ascii	"lv_arc_set_value\000"
 18661      72635F73 
 18661      65745F76 
 18661      616C7565 
 18661      00
 18662              	.LASF651:
 18663 0d74 6B6E6F62 		.ascii	"knob_outline_size\000"
 18663      5F6F7574 
 18663      6C696E65 
 18663      5F73697A 
 18663      6500
 18664              	.LASF623:
 18665 0d86 6C765F61 		.ascii	"lv_arc_t\000"
 18665      72635F74 
 18665      00
 18666              	.LASF43:
 18667 0d8f 4C565F41 		.ascii	"LV_ALIGN_OUT_LEFT_MID\000"
 18667      4C49474E 
 18667      5F4F5554 
 18667      5F4C4546 
 18667      545F4D49 
 18668              	.LASF605:
 18669 0da5 5F6C765F 		.ascii	"_lv_obj_spec_attr_t\000"
 18669      6F626A5F 
 18669      73706563 
 18669      5F617474 
 18669      725F7400 
 18670              	.LASF229:
 18671 0db9 6F75746C 		.ascii	"outline_pad\000"
 18671      696E655F 
 18671      70616400 
 18672              	.LASF29:
 18673 0dc5 4C565F41 		.ascii	"LV_ALIGN_TOP_RIGHT\000"
 18673      4C49474E 
 18673      5F544F50 
 18673      5F524947 
 18673      485400
 18674              	.LASF302:
 18675 0dd8 6C765F64 		.ascii	"lv_draw_ctx_t\000"
 18675      7261775F 
 18675      6374785F 
 18675      7400
ARM GAS  C:\Users\haske\AppData\Local\Temp\ccmHbbn5.s 			page 371


 18676              	.LASF115:
 18677 0de6 4C565F53 		.ascii	"LV_STYLE_BG_COLOR\000"
 18677      54594C45 
 18677      5F42475F 
 18677      434F4C4F 
 18677      5200
 18678              	.LASF145:
 18679 0df8 4C565F53 		.ascii	"LV_STYLE_IMG_RECOLOR_OPA\000"
 18679      54594C45 
 18679      5F494D47 
 18679      5F524543 
 18679      4F4C4F52 
 18680              	.LASF429:
 18681 0e11 70726F63 		.ascii	"proc\000"
 18681      00
 18682              	.LASF629:
 18683 0e16 6C765F6F 		.ascii	"lv_obj_get_style_pad_right\000"
 18683      626A5F67 
 18683      65745F73 
 18683      74796C65 
 18683      5F706164 
 18684              	.LASF222:
 18685 0e31 626F7264 		.ascii	"border_color\000"
 18685      65725F63 
 18685      6F6C6F72 
 18685      00
 18686              	.LASF171:
 18687 0e3e 4C565F53 		.ascii	"LV_STYLE_BLEND_MODE\000"
 18687      54594C45 
 18687      5F424C45 
 18687      4E445F4D 
 18687      4F444500 
 18688              	.LASF48:
 18689 0e52 6C765F64 		.ascii	"lv_dir_t\000"
 18689      69725F74 
 18689      00
 18690              	.LASF565:
 18691 0e5b 4C565F45 		.ascii	"LV_EVENT_SCREEN_LOADED\000"
 18691      56454E54 
 18691      5F534352 
 18691      45454E5F 
 18691      4C4F4144 
 18692              	.LASF185:
 18693 0e72 70726F70 		.ascii	"prop\000"
 18693      00
 18694              	.LASF453:
 18695 0e77 4C565F50 		.ascii	"LV_PART_ANY\000"
 18695      4152545F 
 18695      414E5900 
 18696              	.LASF190:
 18697 0e83 636F6E73 		.ascii	"const_props\000"
 18697      745F7072 
 18697      6F707300 
 18698              	.LASF759:
 18699 0e8f 6C765F6F 		.ascii	"lv_obj_class_init_obj\000"
 18699      626A5F63 
 18699      6C617373 
ARM GAS  C:\Users\haske\AppData\Local\Temp\ccmHbbn5.s 			page 372


 18699      5F696E69 
 18699      745F6F62 
 18700              	.LASF491:
 18701 0ea5 5F6C765F 		.ascii	"_lv_obj_style_t\000"
 18701      6F626A5F 
 18701      7374796C 
 18701      655F7400 
 18702              	.LASF670:
 18703 0eb5 6B6E6F62 		.ascii	"knob_rect_dsc\000"
 18703      5F726563 
 18703      745F6473 
 18703      6300
 18704              	.LASF225:
 18705 0ec3 626F7264 		.ascii	"border_post\000"
 18705      65725F70 
 18705      6F737400 
 18706              	.LASF594:
 18707 0ecf 6576656E 		.ascii	"event_dsc\000"
 18707      745F6473 
 18707      6300
 18708              	.LASF642:
 18709 0ed9 63656E74 		.ascii	"center\000"
 18709      657200
 18710              	.LASF755:
 18711 0ee0 6C765F64 		.ascii	"lv_draw_arc_get_area\000"
 18711      7261775F 
 18711      6172635F 
 18711      6765745F 
 18711      61726561 
 18712              	.LASF321:
 18713 0ef5 666C7573 		.ascii	"flushing\000"
 18713      68696E67 
 18713      00
 18714              	.LASF634:
 18715 0efe 6C765F6F 		.ascii	"lv_obj_get_style_shadow_ofs_y\000"
 18715      626A5F67 
 18715      65745F73 
 18715      74796C65 
 18715      5F736861 
 18716              	.LASF147:
 18717 0f1c 4C565F53 		.ascii	"LV_STYLE_LINE_DASH_WIDTH\000"
 18717      54594C45 
 18717      5F4C494E 
 18717      455F4441 
 18717      53485F57 
 18718              	.LASF711:
 18719 0f35 696E666F 		.ascii	"info\000"
 18719      00
 18720              	.LASF513:
 18721 0f3a 4C565F4F 		.ascii	"LV_OBJ_CLASS_EDITABLE_INHERIT\000"
 18721      424A5F43 
 18721      4C415353 
 18721      5F454449 
 18721      5441424C 
 18722              	.LASF33:
 18723 0f58 4C565F41 		.ascii	"LV_ALIGN_LEFT_MID\000"
 18723      4C49474E 
ARM GAS  C:\Users\haske\AppData\Local\Temp\ccmHbbn5.s 			page 373


 18723      5F4C4546 
 18723      545F4D49 
 18723      4400
 18724              	.LASF498:
 18725 0f6a 74657874 		.ascii	"text\000"
 18725      00
 18726              	.LASF723:
 18727 0f6f 6C765F61 		.ascii	"lv_arc_get_min_value\000"
 18727      72635F67 
 18727      65745F6D 
 18727      696E5F76 
 18727      616C7565 
 18728              	.LASF233:
 18729 0f84 73686164 		.ascii	"shadow_ofs_x\000"
 18729      6F775F6F 
 18729      66735F78 
 18729      00
 18730              	.LASF172:
 18731 0f91 4C565F53 		.ascii	"LV_STYLE_TRANSFORM_WIDTH\000"
 18731      54594C45 
 18731      5F545241 
 18731      4E53464F 
 18731      524D5F57 
 18732              	.LASF315:
 18733 0faa 6C765F74 		.ascii	"lv_timer_t\000"
 18733      696D6572 
 18733      5F7400
 18734              	.LASF593:
 18735 0fb5 67726F75 		.ascii	"group_p\000"
 18735      705F7000 
 18736              	.LASF184:
 18737 0fbd 6C765F73 		.ascii	"lv_style_prop_t\000"
 18737      74796C65 
 18737      5F70726F 
 18737      705F7400 
 18738              	.LASF470:
 18739 0fcd 4C565F4F 		.ascii	"LV_OBJ_FLAG_EVENT_BUBBLE\000"
 18739      424A5F46 
 18739      4C41475F 
 18739      4556454E 
 18739      545F4255 
 18740              	.LASF261:
 18741 0fe6 726F756E 		.ascii	"round_start\000"
 18741      645F7374 
 18741      61727400 
 18742              	.LASF595:
 18743 0ff2 7363726F 		.ascii	"scroll\000"
 18743      6C6C00
 18744              	.LASF63:
 18745 0ff9 66616C6C 		.ascii	"fallback\000"
 18745      6261636B 
 18745      00
 18746              	.LASF189:
 18747 1002 76616C75 		.ascii	"values_and_props\000"
 18747      65735F61 
 18747      6E645F70 
 18747      726F7073 
ARM GAS  C:\Users\haske\AppData\Local\Temp\ccmHbbn5.s 			page 374


 18747      00
 18748              	.LASF763:
 18749 1013 6C765F69 		.ascii	"lv_indev_get_act\000"
 18749      6E646576 
 18749      5F676574 
 18749      5F616374 
 18749      00
 18750              	.LASF668:
 18751 1024 626F7474 		.ascii	"bottom_indic\000"
 18751      6F6D5F69 
 18751      6E646963 
 18751      00
 18752              	.LASF381:
 18753 1031 6C765F69 		.ascii	"lv_indev_state_t\000"
 18753      6E646576 
 18753      5F737461 
 18753      74655F74 
 18753      00
 18754              	.LASF625:
 18755 1042 4C565F41 		.ascii	"LV_ARC_DRAW_PART_FOREGROUND\000"
 18755      52435F44 
 18755      5241575F 
 18755      50415254 
 18755      5F464F52 
 18756              	.LASF744:
 18757 105e 6C765F6F 		.ascii	"lv_obj_init_draw_arc_dsc\000"
 18757      626A5F69 
 18757      6E69745F 
 18757      64726177 
 18757      5F617263 
 18758              	.LASF336:
 18759 1077 73775F72 		.ascii	"sw_rotate\000"
 18759      6F746174 
 18759      6500
 18760              	.LASF501:
 18761 1081 7375625F 		.ascii	"sub_part_ptr\000"
 18761      70617274 
 18761      5F707472 
 18761      00
 18762              	.LASF169:
 18763 108e 4C565F53 		.ascii	"LV_STYLE_ANIM_SPEED\000"
 18763      54594C45 
 18763      5F414E49 
 18763      4D5F5350 
 18763      45454400 
 18764              	.LASF176:
 18765 10a2 4C565F53 		.ascii	"LV_STYLE_TRANSFORM_ZOOM\000"
 18765      54594C45 
 18765      5F545241 
 18765      4E53464F 
 18765      524D5F5A 
 18766              	.LASF630:
 18767 10ba 6C765F6F 		.ascii	"lv_obj_get_style_pad_left\000"
 18767      626A5F67 
 18767      65745F73 
 18767      74796C65 
 18767      5F706164 
ARM GAS  C:\Users\haske\AppData\Local\Temp\ccmHbbn5.s 			page 375


 18768              	.LASF25:
 18769 10d4 6C765F61 		.ascii	"lv_area_t\000"
 18769      7265615F 
 18769      7400
 18770              	.LASF297:
 18771 10de 6C617965 		.ascii	"layer_init\000"
 18771      725F696E 
 18771      697400
 18772              	.LASF133:
 18773 10e9 4C565F53 		.ascii	"LV_STYLE_OUTLINE_WIDTH\000"
 18773      54594C45 
 18773      5F4F5554 
 18773      4C494E45 
 18773      5F574944 
 18774              	.LASF597:
 18775 1100 6578745F 		.ascii	"ext_draw_size\000"
 18775      64726177 
 18775      5F73697A 
 18775      6500
 18776              	.LASF614:
 18777 110e 62675F61 		.ascii	"bg_angle_start\000"
 18777      6E676C65 
 18777      5F737461 
 18777      727400
 18778              	.LASF493:
 18779 111d 72656374 		.ascii	"rect_dsc\000"
 18779      5F647363 
 18779      00
 18780              	.LASF737:
 18781 1126 6C765F6F 		.ascii	"lv_obj_get_width\000"
 18781      626A5F67 
 18781      65745F77 
 18781      69647468 
 18781      00
 18782              	.LASF480:
 18783 1137 4C565F4F 		.ascii	"LV_OBJ_FLAG_USER_1\000"
 18783      424A5F46 
 18783      4C41475F 
 18783      55534552 
 18783      5F3100
 18784              	.LASF481:
 18785 114a 4C565F4F 		.ascii	"LV_OBJ_FLAG_USER_2\000"
 18785      424A5F46 
 18785      4C41475F 
 18785      55534552 
 18785      5F3200
 18786              	.LASF482:
 18787 115d 4C565F4F 		.ascii	"LV_OBJ_FLAG_USER_3\000"
 18787      424A5F46 
 18787      4C41475F 
 18787      55534552 
 18787      5F3300
 18788              	.LASF483:
 18789 1170 4C565F4F 		.ascii	"LV_OBJ_FLAG_USER_4\000"
 18789      424A5F46 
 18789      4C41475F 
 18789      55534552 
ARM GAS  C:\Users\haske\AppData\Local\Temp\ccmHbbn5.s 			page 376


 18789      5F3400
 18790              	.LASF533:
 18791 1183 4C565F45 		.ascii	"LV_EVENT_CLICKED\000"
 18791      56454E54 
 18791      5F434C49 
 18791      434B4544 
 18791      00
 18792              	.LASF95:
 18793 1194 4C565F53 		.ascii	"LV_STYLE_PROP_INV\000"
 18793      54594C45 
 18793      5F50524F 
 18793      505F494E 
 18793      5600
 18794              	.LASF161:
 18795 11a6 4C565F53 		.ascii	"LV_STYLE_TEXT_LINE_SPACE\000"
 18795      54594C45 
 18795      5F544558 
 18795      545F4C49 
 18795      4E455F53 
 18796              	.LASF525:
 18797 11bf 6C765F6F 		.ascii	"lv_obj_class_t\000"
 18797      626A5F63 
 18797      6C617373 
 18797      5F7400
 18798              	.LASF187:
 18799 11ce 6C765F73 		.ascii	"lv_style_const_prop_t\000"
 18799      74796C65 
 18799      5F636F6E 
 18799      73745F70 
 18799      726F705F 
 18800              	.LASF548:
 18801 11e4 4C565F45 		.ascii	"LV_EVENT_DRAW_MAIN_END\000"
 18801      56454E54 
 18801      5F445241 
 18801      575F4D41 
 18801      494E5F45 
 18802              	.LASF694:
 18803 11fb 72617465 		.ascii	"rate\000"
 18803      00
 18804              	.LASF418:
 18805 1200 706F696E 		.ascii	"pointer\000"
 18805      74657200 
 18806              	.LASF199:
 18807 1208 70617265 		.ascii	"parent\000"
 18807      6E7400
 18808              	.LASF335:
 18809 120f 66756C6C 		.ascii	"full_refresh\000"
 18809      5F726566 
 18809      72657368 
 18809      00
 18810              	.LASF262:
 18811 121c 726F756E 		.ascii	"round_end\000"
 18811      645F656E 
 18811      6400
 18812              	.LASF267:
 18813 1226 696D675F 		.ascii	"img_src\000"
 18813      73726300 
ARM GAS  C:\Users\haske\AppData\Local\Temp\ccmHbbn5.s 			page 377


 18814              	.LASF490:
 18815 122e 69735F74 		.ascii	"is_trans\000"
 18815      72616E73 
 18815      00
 18816              	.LASF747:
 18817 1237 6C765F64 		.ascii	"lv_draw_rect_dsc_init\000"
 18817      7261775F 
 18817      72656374 
 18817      5F647363 
 18817      5F696E69 
 18818              	.LASF641:
 18819 124d 616E676C 		.ascii	"angle_midpoint\000"
 18819      655F6D69 
 18819      64706F69 
 18819      6E7400
 18820              	.LASF639:
 18821 125c 62675F65 		.ascii	"bg_end\000"
 18821      6E6400
 18822              	.LASF761:
 18823 1263 6C765F6D 		.ascii	"lv_map\000"
 18823      617000
 18824              	.LASF442:
 18825 126a 6C765F69 		.ascii	"lv_indev_t\000"
 18825      6E646576 
 18825      5F7400
 18826              	.LASF432:
 18827 1275 62746E5F 		.ascii	"btn_points\000"
 18827      706F696E 
 18827      747300
 18828              	.LASF496:
 18829 1280 696D675F 		.ascii	"img_dsc\000"
 18829      64736300 
 18830              	.LASF41:
 18831 1288 4C565F41 		.ascii	"LV_ALIGN_OUT_BOTTOM_RIGHT\000"
 18831      4C49474E 
 18831      5F4F5554 
 18831      5F424F54 
 18831      544F4D5F 
 18832              	.LASF235:
 18833 12a2 73686164 		.ascii	"shadow_spread\000"
 18833      6F775F73 
 18833      70726561 
 18833      6400
 18834              	.LASF168:
 18835 12b0 4C565F53 		.ascii	"LV_STYLE_ANIM_TIME\000"
 18835      54594C45 
 18835      5F414E49 
 18835      4D5F5449 
 18835      4D4500
 18836              	.LASF702:
 18837 12c3 696E6465 		.ascii	"indev\000"
 18837      7600
 18838              	.LASF424:
 18839 12c9 77616974 		.ascii	"wait_until_release\000"
 18839      5F756E74 
 18839      696C5F72 
 18839      656C6561 
ARM GAS  C:\Users\haske\AppData\Local\Temp\ccmHbbn5.s 			page 378


 18839      736500
 18840              	.LASF682:
 18841 12dc 76616C75 		.ascii	"value_update\000"
 18841      655F7570 
 18841      64617465 
 18841      00
 18842              	.LASF108:
 18843 12e9 4C565F53 		.ascii	"LV_STYLE_PAD_BOTTOM\000"
 18843      54594C45 
 18843      5F504144 
 18843      5F424F54 
 18843      544F4D00 
 18844              	.LASF507:
 18845 12fd 77696474 		.ascii	"width_def\000"
 18845      685F6465 
 18845      6600
 18846              	.LASF474:
 18847 1307 4C565F4F 		.ascii	"LV_OBJ_FLAG_FLOATING\000"
 18847      424A5F46 
 18847      4C41475F 
 18847      464C4F41 
 18847      54494E47 
 18848              	.LASF464:
 18849 131c 4C565F4F 		.ascii	"LV_OBJ_FLAG_SCROLL_CHAIN_VER\000"
 18849      424A5F46 
 18849      4C41475F 
 18849      5343524F 
 18849      4C4C5F43 
 18850              	.LASF696:
 18851 1339 6C765F61 		.ascii	"lv_arc_get_angle_start\000"
 18851      72635F67 
 18851      65745F61 
 18851      6E676C65 
 18851      5F737461 
 18852              	.LASF342:
 18853 1350 636C6561 		.ascii	"clear_cb\000"
 18853      725F6362 
 18853      00
 18854              	.LASF116:
 18855 1359 4C565F53 		.ascii	"LV_STYLE_BG_OPA\000"
 18855      54594C45 
 18855      5F42475F 
 18855      4F504100 
 18856              	.LASF151:
 18857 1369 4C565F53 		.ascii	"LV_STYLE_LINE_OPA\000"
 18857      54594C45 
 18857      5F4C494E 
 18857      455F4F50 
 18857      4100
 18858              	.LASF194:
 18859 137b 6C765F73 		.ascii	"lv_style_t\000"
 18859      74796C65 
 18859      5F7400
 18860              	.LASF740:
 18861 1386 6C765F65 		.ascii	"lv_event_get_target\000"
 18861      76656E74 
 18861      5F676574 
ARM GAS  C:\Users\haske\AppData\Local\Temp\ccmHbbn5.s 			page 379


 18861      5F746172 
 18861      67657400 
 18862              	.LASF119:
 18863 139a 4C565F53 		.ascii	"LV_STYLE_BG_MAIN_STOP\000"
 18863      54594C45 
 18863      5F42475F 
 18863      4D41494E 
 18863      5F53544F 
 18864              	.LASF475:
 18865 13b0 4C565F4F 		.ascii	"LV_OBJ_FLAG_OVERFLOW_VISIBLE\000"
 18865      424A5F46 
 18865      4C41475F 
 18865      4F564552 
 18865      464C4F57 
 18866              	.LASF201:
 18867 13cd 7374796C 		.ascii	"styles\000"
 18867      657300
 18868              	.LASF385:
 18869 13d4 636F6E74 		.ascii	"continue_reading\000"
 18869      696E7565 
 18869      5F726561 
 18869      64696E67 
 18869      00
 18870              	.LASF143:
 18871 13e5 4C565F53 		.ascii	"LV_STYLE_IMG_OPA\000"
 18871      54594C45 
 18871      5F494D47 
 18871      5F4F5041 
 18871      00
 18872              	.LASF40:
 18873 13f6 4C565F41 		.ascii	"LV_ALIGN_OUT_BOTTOM_MID\000"
 18873      4C49474E 
 18873      5F4F5554 
 18873      5F424F54 
 18873      544F4D5F 
 18874              	.LASF542:
 18875 140e 4C565F45 		.ascii	"LV_EVENT_LEAVE\000"
 18875      56454E54 
 18875      5F4C4541 
 18875      564500
 18876              	.LASF767:
 18877 141d 6C765F74 		.ascii	"lv_tick_elaps\000"
 18877      69636B5F 
 18877      656C6170 
 18877      7300
 18878              	.LASF11:
 18879 142b 6C6F6E67 		.ascii	"long unsigned int\000"
 18879      20756E73 
 18879      69676E65 
 18879      6420696E 
 18879      7400
 18880              	.LASF724:
 18881 143d 6C765F61 		.ascii	"lv_arc_get_max_value\000"
 18881      72635F67 
 18881      65745F6D 
 18881      61785F76 
 18881      616C7565 
ARM GAS  C:\Users\haske\AppData\Local\Temp\ccmHbbn5.s 			page 380


 18882              	.LASF572:
 18883 1452 4C565F45 		.ascii	"LV_EVENT_PREPROCESS\000"
 18883      56454E54 
 18883      5F505245 
 18883      50524F43 
 18883      45535300 
 18884              	.LASF195:
 18885 1466 6C765F69 		.ascii	"lv_img_cf_t\000"
 18885      6D675F63 
 18885      665F7400 
 18886              	.LASF707:
 18887 1472 64656C74 		.ascii	"delta_tick\000"
 18887      615F7469 
 18887      636B00
 18888              	.LASF461:
 18889 147d 4C565F4F 		.ascii	"LV_OBJ_FLAG_SCROLL_MOMENTUM\000"
 18889      424A5F46 
 18889      4C41475F 
 18889      5343524F 
 18889      4C4C5F4D 
 18890              	.LASF158:
 18891 1499 4C565F53 		.ascii	"LV_STYLE_TEXT_OPA\000"
 18891      54594C45 
 18891      5F544558 
 18891      545F4F50 
 18891      4100
 18892              	.LASF265:
 18893 14ab 73746172 		.ascii	"start_angle\000"
 18893      745F616E 
 18893      676C6500 
 18894              	.LASF714:
 18895 14b7 62675F72 		.ascii	"bg_right\000"
 18895      69676874 
 18895      00
 18896              	.LASF520:
 18897 14c0 70617261 		.ascii	"param\000"
 18897      6D00
 18898              	.LASF517:
 18899 14c6 74617267 		.ascii	"target\000"
 18899      657400
 18900              	.LASF364:
 18901 14cd 64726177 		.ascii	"draw_prev_over_act\000"
 18901      5F707265 
 18901      765F6F76 
 18901      65725F61 
 18901      637400
 18902              	.LASF300:
 18903 14e0 6C617965 		.ascii	"layer_destroy\000"
 18903      725F6465 
 18903      7374726F 
 18903      7900
 18904              	.LASF780:
 18905 14ee 6C765F6F 		.ascii	"lv_obj_set_style_transform_angle\000"
 18905      626A5F73 
 18905      65745F73 
 18905      74796C65 
 18905      5F747261 
ARM GAS  C:\Users\haske\AppData\Local\Temp\ccmHbbn5.s 			page 381


 18906              	.LASF259:
 18907 150f 64617368 		.ascii	"dash_width\000"
 18907      5F776964 
 18907      746800
 18908              	.LASF324:
 18909 151a 6C617374 		.ascii	"last_part\000"
 18909      5F706172 
 18909      7400
 18910              	.LASF509:
 18911 1524 65646974 		.ascii	"editable\000"
 18911      61626C65 
 18911      00
 18912              	.LASF356:
 18913 152d 7468656D 		.ascii	"theme\000"
 18913      6500
 18914              	.LASF331:
 18915 1533 6F666673 		.ascii	"offset_x\000"
 18915      65745F78 
 18915      00
 18916              	.LASF332:
 18917 153c 6F666673 		.ascii	"offset_y\000"
 18917      65745F79 
 18917      00
 18918              	.LASF49:
 18919 1545 7265736F 		.ascii	"resolved_font\000"
 18919      6C766564 
 18919      5F666F6E 
 18919      7400
 18920              	.LASF458:
 18921 1553 4C565F4F 		.ascii	"LV_OBJ_FLAG_CHECKABLE\000"
 18921      424A5F46 
 18921      4C41475F 
 18921      43484543 
 18921      4B41424C 
 18922              	.LASF700:
 18923 1569 6C765F61 		.ascii	"lv_arc_get_value\000"
 18923      72635F67 
 18923      65745F76 
 18923      616C7565 
 18923      00
 18924              	.LASF741:
 18925 157a 6C765F65 		.ascii	"lv_event_get_draw_ctx\000"
 18925      76656E74 
 18925      5F676574 
 18925      5F647261 
 18925      775F6374 
 18926              	.LASF434:
 18927 1590 6F626A5F 		.ascii	"obj_ll\000"
 18927      6C6C00
 18928              	.LASF287:
 18929 1597 64726177 		.ascii	"draw_arc\000"
 18929      5F617263 
 18929      00
 18930              	.LASF685:
 18931 15a0 6C765F61 		.ascii	"lv_arc_set_bg_start_angle\000"
 18931      72635F73 
 18931      65745F62 
ARM GAS  C:\Users\haske\AppData\Local\Temp\ccmHbbn5.s 			page 382


 18931      675F7374 
 18931      6172745F 
 18932              	.LASF150:
 18933 15ba 4C565F53 		.ascii	"LV_STYLE_LINE_COLOR\000"
 18933      54594C45 
 18933      5F4C494E 
 18933      455F434F 
 18933      4C4F5200 
 18934              	.LASF455:
 18935 15ce 4C565F4F 		.ascii	"LV_OBJ_FLAG_HIDDEN\000"
 18935      424A5F46 
 18935      4C41475F 
 18935      48494444 
 18935      454E00
 18936              	.LASF726:
 18937 15e1 6C765F61 		.ascii	"lv_arc_align_obj_to_angle\000"
 18937      72635F61 
 18937      6C69676E 
 18937      5F6F626A 
 18937      5F746F5F 
 18938              	.LASF111:
 18939 15fb 4C565F53 		.ascii	"LV_STYLE_PAD_ROW\000"
 18939      54594C45 
 18939      5F504144 
 18939      5F524F57 
 18939      00
 18940              	.LASF316:
 18941 160c 5F6C765F 		.ascii	"_lv_disp_draw_buf_t\000"
 18941      64697370 
 18941      5F647261 
 18941      775F6275 
 18941      665F7400 
 18942              	.LASF275:
 18943 1620 6275665F 		.ascii	"buf_area\000"
 18943      61726561 
 18943      00
 18944              	.LASF236:
 18945 1629 73686164 		.ascii	"shadow_opa\000"
 18945      6F775F6F 
 18945      706100
 18946              	.LASF253:
 18947 1634 7265636F 		.ascii	"recolor\000"
 18947      6C6F7200 
 18948              	.LASF556:
 18949 163c 4C565F45 		.ascii	"LV_EVENT_REFRESH\000"
 18949      56454E54 
 18949      5F524546 
 18949      52455348 
 18949      00
 18950              	.LASF515:
 18951 164d 4C565F4F 		.ascii	"LV_OBJ_CLASS_EDITABLE_FALSE\000"
 18951      424A5F43 
 18951      4C415353 
 18951      5F454449 
 18951      5441424C 
 18952              	.LASF511:
 18953 1669 696E7374 		.ascii	"instance_size\000"
ARM GAS  C:\Users\haske\AppData\Local\Temp\ccmHbbn5.s 			page 383


 18953      616E6365 
 18953      5F73697A 
 18953      6500
 18954              	.LASF250:
 18955 1677 616E676C 		.ascii	"angle\000"
 18955      6500
 18956              	.LASF624:
 18957 167d 4C565F41 		.ascii	"LV_ARC_DRAW_PART_BACKGROUND\000"
 18957      52435F44 
 18957      5241575F 
 18957      50415254 
 18957      5F424143 
 18958              	.LASF109:
 18959 1699 4C565F53 		.ascii	"LV_STYLE_PAD_LEFT\000"
 18959      54594C45 
 18959      5F504144 
 18959      5F4C4546 
 18959      5400
 18960              	.LASF350:
 18961 16ab 64726177 		.ascii	"draw_ctx_init\000"
 18961      5F637478 
 18961      5F696E69 
 18961      7400
 18962              	.LASF608:
 18963 16b9 4C565F41 		.ascii	"LV_ARC_MODE_SYMMETRICAL\000"
 18963      52435F4D 
 18963      4F44455F 
 18963      53594D4D 
 18963      45545249 
 18964              	.LASF562:
 18965 16d1 4C565F45 		.ascii	"LV_EVENT_CHILD_DELETED\000"
 18965      56454E54 
 18965      5F434849 
 18965      4C445F44 
 18965      454C4554 
 18966              	.LASF431:
 18967 16e8 67726F75 		.ascii	"group\000"
 18967      7000
 18968              	.LASF447:
 18969 16ee 4C565F50 		.ascii	"LV_PART_KNOB\000"
 18969      4152545F 
 18969      4B4E4F42 
 18969      00
 18970              	.LASF610:
 18971 16fb 6C765F61 		.ascii	"lv_arc_mode_t\000"
 18971      72635F6D 
 18971      6F64655F 
 18971      7400
 18972              	.LASF380:
 18973 1709 4C565F49 		.ascii	"LV_INDEV_STATE_PRESSED\000"
 18973      4E444556 
 18973      5F535441 
 18973      54455F50 
 18973      52455353 
 18974              	.LASF776:
 18975 1720 6C765F6F 		.ascii	"lv_obj_update_layout\000"
 18975      626A5F75 
ARM GAS  C:\Users\haske\AppData\Local\Temp\ccmHbbn5.s 			page 384


 18975      70646174 
 18975      655F6C61 
 18975      796F7574 
 18976              	.LASF288:
 18977 1735 64726177 		.ascii	"draw_img_decoded\000"
 18977      5F696D67 
 18977      5F646563 
 18977      6F646564 
 18977      00
 18978              	.LASF308:
 18979 1746 6C765F74 		.ascii	"lv_timer_cb_t\000"
 18979      696D6572 
 18979      5F63625F 
 18979      7400
 18980              	.LASF167:
 18981 1754 4C565F53 		.ascii	"LV_STYLE_ANIM\000"
 18981      54594C45 
 18981      5F414E49 
 18981      4D00
 18982              	.LASF102:
 18983 1762 4C565F53 		.ascii	"LV_STYLE_X\000"
 18983      54594C45 
 18983      5F5800
 18984              	.LASF408:
 18985 176d 6C617374 		.ascii	"last_obj\000"
 18985      5F6F626A 
 18985      00
 18986              	.LASF468:
 18987 1776 4C565F4F 		.ascii	"LV_OBJ_FLAG_SNAPPABLE\000"
 18987      424A5F46 
 18987      4C41475F 
 18987      534E4150 
 18987      5041424C 
 18988              	.LASF712:
 18989 178c 6578745F 		.ascii	"ext_click_area\000"
 18989      636C6963 
 18989      6B5F6172 
 18989      656100
 18990              	.LASF378:
 18991 179b 6C765F69 		.ascii	"lv_indev_type_t\000"
 18991      6E646576 
 18991      5F747970 
 18991      655F7400 
 18992              	.LASF512:
 18993 17ab 6C765F6F 		.ascii	"lv_obj_draw_part_dsc_t\000"
 18993      626A5F64 
 18993      7261775F 
 18993      70617274 
 18993      5F647363 
 18994              	.LASF681:
 18995 17c2 6C765F61 		.ascii	"lv_arc_set_angles\000"
 18995      72635F73 
 18995      65745F61 
 18995      6E676C65 
 18995      7300
 18996              	.LASF163:
 18997 17d4 4C565F53 		.ascii	"LV_STYLE_TEXT_ALIGN\000"
ARM GAS  C:\Users\haske\AppData\Local\Temp\ccmHbbn5.s 			page 385


 18997      54594C45 
 18997      5F544558 
 18997      545F414C 
 18997      49474E00 
 18998              	.LASF652:
 18999 17e8 6765745F 		.ascii	"get_center\000"
 18999      63656E74 
 18999      657200
 19000              	.LASF376:
 19001 17f3 4C565F49 		.ascii	"LV_INDEV_TYPE_BUTTON\000"
 19001      4E444556 
 19001      5F545950 
 19001      455F4255 
 19001      54544F4E 
 19002              	.LASF771:
 19003 1808 6C765F65 		.ascii	"lv_event_get_param\000"
 19003      76656E74 
 19003      5F676574 
 19003      5F706172 
 19003      616D00
 19004              	.LASF39:
 19005 181b 4C565F41 		.ascii	"LV_ALIGN_OUT_BOTTOM_LEFT\000"
 19005      4C49474E 
 19005      5F4F5554 
 19005      5F424F54 
 19005      544F4D5F 
 19006              	.LASF196:
 19007 1834 5F6C765F 		.ascii	"_lv_font_t\000"
 19007      666F6E74 
 19007      5F7400
 19008              	.LASF344:
 19009 183f 77616974 		.ascii	"wait_cb\000"
 19009      5F636200 
 19010              	.LASF10:
 19011 1847 5F5F7569 		.ascii	"__uint32_t\000"
 19011      6E743332 
 19011      5F7400
 19012              	.LASF506:
 19013 1852 6576656E 		.ascii	"event_cb\000"
 19013      745F6362 
 19013      00
 19014              	.LASF573:
 19015 185b 6C765F65 		.ascii	"lv_event_code_t\000"
 19015      76656E74 
 19015      5F636F64 
 19015      655F7400 
 19016              	.LASF637:
 19017 186b 6C765F6F 		.ascii	"lv_obj_get_style_arc_width\000"
 19017      626A5F67 
 19017      65745F73 
 19017      74796C65 
 19017      5F617263 
 19018              	.LASF83:
 19019 1886 6C765F74 		.ascii	"lv_text_decor_t\000"
 19019      6578745F 
 19019      6465636F 
 19019      725F7400 
ARM GAS  C:\Users\haske\AppData\Local\Temp\ccmHbbn5.s 			page 386


 19020              	.LASF516:
 19021 1896 5F6C765F 		.ascii	"_lv_event_t\000"
 19021      6576656E 
 19021      745F7400 
 19022              	.LASF12:
 19023 18a2 6C6F6E67 		.ascii	"long long int\000"
 19023      206C6F6E 
 19023      6720696E 
 19023      7400
 19024              	.LASF44:
 19025 18b0 4C565F41 		.ascii	"LV_ALIGN_OUT_LEFT_BOTTOM\000"
 19025      4C49474E 
 19025      5F4F5554 
 19025      5F4C4546 
 19025      545F424F 
 19026              	.LASF751:
 19027 18c9 6C765F6F 		.ascii	"lv_obj_add_flag\000"
 19027      626A5F61 
 19027      64645F66 
 19027      6C616700 
 19028              	.LASF522:
 19029 18d9 64656C65 		.ascii	"deleted\000"
 19029      74656400 
 19030              	.LASF657:
 19031 18e1 6B6E6F62 		.ascii	"knob_x\000"
 19031      5F7800
 19032              	.LASF658:
 19033 18e8 6B6E6F62 		.ascii	"knob_y\000"
 19033      5F7900
 19034              	.LASF258:
 19035 18ef 77696474 		.ascii	"width\000"
 19035      6800
 19036              	.LASF30:
 19037 18f5 4C565F41 		.ascii	"LV_ALIGN_BOTTOM_LEFT\000"
 19037      4C49474E 
 19037      5F424F54 
 19037      544F4D5F 
 19037      4C454654 
 19038              	.LASF772:
 19039 190a 6C765F61 		.ascii	"lv_area_set\000"
 19039      7265615F 
 19039      73657400 
 19040              	.LASF643:
 19041 1916 6172635F 		.ascii	"arc_r\000"
 19041      7200
 19042              	.LASF627:
 19043 191c 6C765F6F 		.ascii	"lv_obj_get_style_pad_bottom\000"
 19043      626A5F67 
 19043      65745F73 
 19043      74796C65 
 19043      5F706164 
 19044              	.LASF471:
 19045 1938 4C565F4F 		.ascii	"LV_OBJ_FLAG_GESTURE_BUBBLE\000"
 19045      424A5F46 
 19045      4C41475F 
 19045      47455354 
 19045      5552455F 
ARM GAS  C:\Users\haske\AppData\Local\Temp\ccmHbbn5.s 			page 387


 19046              	.LASF317:
 19047 1953 62756631 		.ascii	"buf1\000"
 19047      00
 19048              	.LASF318:
 19049 1958 62756632 		.ascii	"buf2\000"
 19049      00
 19050              	.LASF591:
 19051 195d 6368696C 		.ascii	"children\000"
 19051      6472656E 
 19051      00
 19052              	.LASF177:
 19053 1966 4C565F53 		.ascii	"LV_STYLE_TRANSFORM_ANGLE\000"
 19053      54594C45 
 19053      5F545241 
 19053      4E53464F 
 19053      524D5F41 
 19054              	.LASF401:
 19055 197f 6C617374 		.ascii	"last_point\000"
 19055      5F706F69 
 19055      6E7400
 19056              	.LASF583:
 19057 198a 4C565F4B 		.ascii	"LV_KEY_ENTER\000"
 19057      45595F45 
 19057      4E544552 
 19057      00
 19058              	.LASF407:
 19059 1997 6163745F 		.ascii	"act_obj\000"
 19059      6F626A00 
 19060              	.LASF270:
 19061 199f 4C565F44 		.ascii	"LV_DRAW_LAYER_FLAG_NONE\000"
 19061      5241575F 
 19061      4C415945 
 19061      525F464C 
 19061      41475F4E 
 19062              	.LASF165:
 19063 19b7 4C565F53 		.ascii	"LV_STYLE_COLOR_FILTER_DSC\000"
 19063      54594C45 
 19063      5F434F4C 
 19063      4F525F46 
 19063      494C5445 
 19064              	.LASF80:
 19065 19d1 6C765F74 		.ascii	"lv_text_align_t\000"
 19065      6578745F 
 19065      616C6967 
 19065      6E5F7400 
 19066              	.LASF589:
 19067 19e1 6C765F67 		.ascii	"lv_group_edge_cb_t\000"
 19067      726F7570 
 19067      5F656467 
 19067      655F6362 
 19067      5F7400
 19068              	.LASF460:
 19069 19f4 4C565F4F 		.ascii	"LV_OBJ_FLAG_SCROLL_ELASTIC\000"
 19069      424A5F46 
 19069      4C41475F 
 19069      5343524F 
 19069      4C4C5F45 
ARM GAS  C:\Users\haske\AppData\Local\Temp\ccmHbbn5.s 			page 388


 19070              	.LASF646:
 19071 1a0f 746F705F 		.ascii	"top_bg\000"
 19071      626700
 19072              	.LASF62:
 19073 1a16 756E6465 		.ascii	"underline_thickness\000"
 19073      726C696E 
 19073      655F7468 
 19073      69636B6E 
 19073      65737300 
 19074              	.LASF162:
 19075 1a2a 4C565F53 		.ascii	"LV_STYLE_TEXT_DECOR\000"
 19075      54594C45 
 19075      5F544558 
 19075      545F4445 
 19075      434F5200 
 19076              	.LASF535:
 19077 1a3e 4C565F45 		.ascii	"LV_EVENT_SCROLL_BEGIN\000"
 19077      56454E54 
 19077      5F534352 
 19077      4F4C4C5F 
 19077      42454749 
 19078              	.LASF246:
 19079 1a54 616C6967 		.ascii	"align\000"
 19079      6E00
 19080              	.LASF153:
 19081 1a5a 4C565F53 		.ascii	"LV_STYLE_ARC_ROUNDED\000"
 19081      54594C45 
 19081      5F415243 
 19081      5F524F55 
 19081      4E444544 
 19082              	.LASF456:
 19083 1a6f 4C565F4F 		.ascii	"LV_OBJ_FLAG_CLICKABLE\000"
 19083      424A5F46 
 19083      4C41475F 
 19083      434C4943 
 19083      4B41424C 
 19084              	.LASF709:
 19085 1a85 726F756E 		.ascii	"round\000"
 19085      6400
 19086              	.LASF343:
 19087 1a8b 6D6F6E69 		.ascii	"monitor_cb\000"
 19087      746F725F 
 19087      636200
 19088              	.LASF615:
 19089 1a96 62675F61 		.ascii	"bg_angle_end\000"
 19089      6E676C65 
 19089      5F656E64 
 19089      00
 19090              	.LASF207:
 19091 1aa3 736B6970 		.ascii	"skip_trans\000"
 19091      5F747261 
 19091      6E7300
 19092              	.LASF703:
 19093 1aae 696E6465 		.ascii	"indev_type\000"
 19093      765F7479 
 19093      706500
 19094              	.LASF446:
ARM GAS  C:\Users\haske\AppData\Local\Temp\ccmHbbn5.s 			page 389


 19095 1ab9 4C565F50 		.ascii	"LV_PART_INDICATOR\000"
 19095      4152545F 
 19095      494E4449 
 19095      4341544F 
 19095      5200
 19096              	.LASF445:
 19097 1acb 4C565F50 		.ascii	"LV_PART_SCROLLBAR\000"
 19097      4152545F 
 19097      5343524F 
 19097      4C4C4241 
 19097      5200
 19098              	.LASF157:
 19099 1add 4C565F53 		.ascii	"LV_STYLE_TEXT_COLOR\000"
 19099      54594C45 
 19099      5F544558 
 19099      545F434F 
 19099      4C4F5200 
 19100              	.LASF775:
 19101 1af1 6C765F65 		.ascii	"lv_event_get_code\000"
 19101      76656E74 
 19101      5F676574 
 19101      5F636F64 
 19101      6500
 19102              	.LASF559:
 19103 1b03 4C565F45 		.ascii	"LV_EVENT_DELETE\000"
 19103      56454E54 
 19103      5F44454C 
 19103      45544500 
 19104              	.LASF198:
 19105 1b13 636C6173 		.ascii	"class_p\000"
 19105      735F7000 
 19106              	.LASF549:
 19107 1b1b 4C565F45 		.ascii	"LV_EVENT_DRAW_POST_BEGIN\000"
 19107      56454E54 
 19107      5F445241 
 19107      575F504F 
 19107      53545F42 
 19108              	.LASF514:
 19109 1b34 4C565F4F 		.ascii	"LV_OBJ_CLASS_EDITABLE_TRUE\000"
 19109      424A5F43 
 19109      4C415353 
 19109      5F454449 
 19109      5441424C 
 19110              	.LASF14:
 19111 1b4f 756E7369 		.ascii	"unsigned int\000"
 19111      676E6564 
 19111      20696E74 
 19111      00
 19112              	.LASF400:
 19113 1b5c 696E6465 		.ascii	"indev_point\000"
 19113      765F706F 
 19113      696E7400 
 19114              	.LASF494:
 19115 1b68 6C616265 		.ascii	"label_dsc\000"
 19115      6C5F6473 
 19115      6300
 19116              	.LASF391:
ARM GAS  C:\Users\haske\AppData\Local\Temp\ccmHbbn5.s 			page 390


 19117 1b72 64697370 		.ascii	"disp\000"
 19117      00
 19118              	.LASF314:
 19119 1b77 70617573 		.ascii	"paused\000"
 19119      656400
 19120              	.LASF748:
 19121 1b7e 6C765F6F 		.ascii	"lv_obj_init_draw_rect_dsc\000"
 19121      626A5F69 
 19121      6E69745F 
 19121      64726177 
 19121      5F726563 
 19122              	.LASF621:
 19123 1b98 6C617374 		.ascii	"last_tick\000"
 19123      5F746963 
 19123      6B00
 19124              	.LASF274:
 19125 1ba2 636C6970 		.ascii	"clip_area\000"
 19125      5F617265 
 19125      6100
 19126              	.LASF94:
 19127 1bac 6C765F73 		.ascii	"lv_style_value_t\000"
 19127      74796C65 
 19127      5F76616C 
 19127      75655F74 
 19127      00
 19128              	.LASF404:
 19129 1bbd 7363726F 		.ascii	"scroll_sum\000"
 19129      6C6C5F73 
 19129      756D00
 19130              	.LASF645:
 19131 1bc8 72696768 		.ascii	"right_bg\000"
 19131      745F6267 
 19131      00
 19132              	.LASF647:
 19133 1bd1 626F7474 		.ascii	"bottom_bg\000"
 19133      6F6D5F62 
 19133      6700
 19134              	.LASF758:
 19135 1bdb 6C765F6F 		.ascii	"lv_obj_class_create_obj\000"
 19135      626A5F63 
 19135      6C617373 
 19135      5F637265 
 19135      6174655F 
 19136              	.LASF384:
 19137 1bf3 656E635F 		.ascii	"enc_diff\000"
 19137      64696666 
 19137      00
 19138              	.LASF752:
 19139 1bfc 6C765F6F 		.ascii	"lv_obj_clear_flag\000"
 19139      626A5F63 
 19139      6C656172 
 19139      5F666C61 
 19139      6700
 19140              	.LASF240:
 19141 1c0e 73656C5F 		.ascii	"sel_end\000"
 19141      656E6400 
 19142              	.LASF183:
ARM GAS  C:\Users\haske\AppData\Local\Temp\ccmHbbn5.s 			page 391


 19143 1c16 5F4C565F 		.ascii	"_LV_STYLE_PROP_CONST\000"
 19143      5354594C 
 19143      455F5052 
 19143      4F505F43 
 19143      4F4E5354 
 19144              	.LASF278:
 19145 1c2b 61726561 		.ascii	"area_full\000"
 19145      5F66756C 
 19145      6C00
 19146              	.LASF35:
 19147 1c35 4C565F41 		.ascii	"LV_ALIGN_CENTER\000"
 19147      4C49474E 
 19147      5F43454E 
 19147      54455200 
 19148              	.LASF693:
 19149 1c45 6C765F61 		.ascii	"lv_arc_set_change_rate\000"
 19149      72635F73 
 19149      65745F63 
 19149      68616E67 
 19149      655F7261 
 19150              	.LASF247:
 19151 1c5c 666C6167 		.ascii	"flag\000"
 19151      00
 19152              	.LASF708:
 19153 1c61 64656C74 		.ascii	"delta_angle_max\000"
 19153      615F616E 
 19153      676C655F 
 19153      6D617800 
 19154              	.LASF353:
 19155 1c71 5F6C765F 		.ascii	"_lv_disp_t\000"
 19155      64697370 
 19155      5F7400
 19156              	.LASF554:
 19157 1c7c 4C565F45 		.ascii	"LV_EVENT_VALUE_CHANGED\000"
 19157      56454E54 
 19157      5F56414C 
 19157      55455F43 
 19157      48414E47 
 19158              	.LASF635:
 19159 1c93 6C765F6F 		.ascii	"lv_obj_get_style_outline_pad\000"
 19159      626A5F67 
 19159      65745F73 
 19159      74796C65 
 19159      5F6F7574 
 19160              	.LASF277:
 19161 1cb0 5F6C765F 		.ascii	"_lv_draw_layer_ctx_t\000"
 19161      64726177 
 19161      5F6C6179 
 19161      65725F63 
 19161      74785F74 
 19162              	.LASF230:
 19163 1cc5 6F75746C 		.ascii	"outline_opa\000"
 19163      696E655F 
 19163      6F706100 
 19164              	.LASF636:
 19165 1cd1 6C765F6F 		.ascii	"lv_obj_get_style_outline_width\000"
 19165      626A5F67 
ARM GAS  C:\Users\haske\AppData\Local\Temp\ccmHbbn5.s 			page 392


 19165      65745F73 
 19165      74796C65 
 19165      5F6F7574 
 19166              	.LASF368:
 19167 1cf0 696E765F 		.ascii	"inv_areas\000"
 19167      61726561 
 19167      7300
 19168              	.LASF730:
 19169 1cfa 6F626A5F 		.ascii	"obj_to_rotate\000"
 19169      746F5F72 
 19169      6F746174 
 19169      6500
 19170              	.LASF280:
 19171 1d08 6D61785F 		.ascii	"max_row_with_alpha\000"
 19171      726F775F 
 19171      77697468 
 19171      5F616C70 
 19171      686100
 19172              	.LASF427:
 19173 1d1b 6C6F6E67 		.ascii	"longpr_rep_timestamp\000"
 19173      70725F72 
 19173      65705F74 
 19173      696D6573 
 19173      74616D70 
 19174              	.LASF466:
 19175 1d30 4C565F4F 		.ascii	"LV_OBJ_FLAG_SCROLL_ON_FOCUS\000"
 19175      424A5F46 
 19175      4C41475F 
 19175      5343524F 
 19175      4C4C5F4F 
 19176              	.LASF457:
 19177 1d4c 4C565F4F 		.ascii	"LV_OBJ_FLAG_CLICK_FOCUSABLE\000"
 19177      424A5F46 
 19177      4C41475F 
 19177      434C4943 
 19177      4B5F464F 
 19178              	.LASF255:
 19179 1d68 6672616D 		.ascii	"frame_id\000"
 19179      655F6964 
 19179      00
 19180              	.LASF729:
 19181 1d71 6C765F61 		.ascii	"lv_arc_rotate_obj_to_angle\000"
 19181      72635F72 
 19181      6F746174 
 19181      655F6F62 
 19181      6A5F746F 
 19182              	.LASF497:
 19183 1d8c 6172635F 		.ascii	"arc_dsc\000"
 19183      64736300 
 19184              	.LASF722:
 19185 1d94 6B6E6F62 		.ascii	"knob_pad\000"
 19185      5F706164 
 19185      00
 19186              	.LASF254:
 19187 1d9d 7265636F 		.ascii	"recolor_opa\000"
 19187      6C6F725F 
 19187      6F706100 
ARM GAS  C:\Users\haske\AppData\Local\Temp\ccmHbbn5.s 			page 393


 19188              	.LASF105:
 19189 1da9 4C565F53 		.ascii	"LV_STYLE_LAYOUT\000"
 19189      54594C45 
 19189      5F4C4159 
 19189      4F555400 
 19190              	.LASF65:
 19191 1db9 6C765F66 		.ascii	"lv_font_glyph_dsc_t\000"
 19191      6F6E745F 
 19191      676C7970 
 19191      685F6473 
 19191      635F7400 
 19192              	.LASF564:
 19193 1dcd 4C565F45 		.ascii	"LV_EVENT_SCREEN_LOAD_START\000"
 19193      56454E54 
 19193      5F534352 
 19193      45454E5F 
 19193      4C4F4144 
 19194              	.LASF524:
 19195 1de8 73746F70 		.ascii	"stop_bubbling\000"
 19195      5F627562 
 19195      626C696E 
 19195      6700
 19196              	.LASF228:
 19197 1df6 6F75746C 		.ascii	"outline_width\000"
 19197      696E655F 
 19197      77696474 
 19197      6800
 19198              	.LASF137:
 19199 1e04 4C565F53 		.ascii	"LV_STYLE_SHADOW_WIDTH\000"
 19199      54594C45 
 19199      5F534841 
 19199      444F575F 
 19199      57494454 
 19200              	.LASF528:
 19201 1e1a 4C565F45 		.ascii	"LV_EVENT_PRESSING\000"
 19201      56454E54 
 19201      5F505245 
 19201      5353494E 
 19201      4700
 19202              	.LASF473:
 19203 1e2c 4C565F4F 		.ascii	"LV_OBJ_FLAG_IGNORE_LAYOUT\000"
 19203      424A5F46 
 19203      4C41475F 
 19203      49474E4F 
 19203      52455F4C 
 19204              	.LASF114:
 19205 1e46 4C565F53 		.ascii	"LV_STYLE_CLIP_CORNER\000"
 19205      54594C45 
 19205      5F434C49 
 19205      505F434F 
 19205      524E4552 
 19206              	.LASF256:
 19207 1e5b 616E7469 		.ascii	"antialias\000"
 19207      616C6961 
 19207      7300
 19208              	.LASF503:
 19209 1e65 62617365 		.ascii	"base_class\000"
ARM GAS  C:\Users\haske\AppData\Local\Temp\ccmHbbn5.s 			page 394


 19209      5F636C61 
 19209      737300
 19210              	.LASF530:
 19211 1e70 4C565F45 		.ascii	"LV_EVENT_SHORT_CLICKED\000"
 19211      56454E54 
 19211      5F53484F 
 19211      52545F43 
 19211      4C49434B 
 19212              	.LASF684:
 19213 1e87 72616E67 		.ascii	"range_midpoint\000"
 19213      655F6D69 
 19213      64706F69 
 19213      6E7400
 19214              	.LASF31:
 19215 1e96 4C565F41 		.ascii	"LV_ALIGN_BOTTOM_MID\000"
 19215      4C49474E 
 19215      5F424F54 
 19215      544F4D5F 
 19215      4D494400 
 19216              	.LASF649:
 19217 1eaa 6B6E6F62 		.ascii	"knob_get_extra_size\000"
 19217      5F676574 
 19217      5F657874 
 19217      72615F73 
 19217      697A6500 
 19218              	.LASF532:
 19219 1ebe 4C565F45 		.ascii	"LV_EVENT_LONG_PRESSED_REPEAT\000"
 19219      56454E54 
 19219      5F4C4F4E 
 19219      475F5052 
 19219      45535345 
 19220              	.LASF476:
 19221 1edb 4C565F4F 		.ascii	"LV_OBJ_FLAG_LAYOUT_1\000"
 19221      424A5F46 
 19221      4C41475F 
 19221      4C41594F 
 19221      55545F31 
 19222              	.LASF710:
 19223 1ef0 6F6C645F 		.ascii	"old_value\000"
 19223      76616C75 
 19223      6500
 19224              	.LASF436:
 19225 1efa 666F6375 		.ascii	"focus_cb\000"
 19225      735F6362 
 19225      00
 19226              	.LASF698:
 19227 1f03 6C765F61 		.ascii	"lv_arc_get_bg_angle_start\000"
 19227      72635F67 
 19227      65745F62 
 19227      675F616E 
 19227      676C655F 
 19228              	.LASF392:
 19229 1f1d 72656164 		.ascii	"read_timer\000"
 19229      5F74696D 
 19229      657200
 19230              	.LASF70:
 19231 1f28 6C765F72 		.ascii	"lv_res_t\000"
ARM GAS  C:\Users\haske\AppData\Local\Temp\ccmHbbn5.s 			page 395


 19231      65735F74 
 19231      00
 19232              	.LASF166:
 19233 1f31 4C565F53 		.ascii	"LV_STYLE_COLOR_FILTER_OPA\000"
 19233      54594C45 
 19233      5F434F4C 
 19233      4F525F46 
 19233      494C5445 
 19234              	.LASF47:
 19235 1f4b 4C565F41 		.ascii	"LV_ALIGN_OUT_RIGHT_BOTTOM\000"
 19235      4C49474E 
 19235      5F4F5554 
 19235      5F524947 
 19235      48545F42 
 19236              	.LASF22:
 19237 1f65 6C6F6E67 		.ascii	"long double\000"
 19237      20646F75 
 19237      626C6500 
 19238              	.LASF487:
 19239 1f71 7374796C 		.ascii	"style\000"
 19239      6500
 19240              	.LASF86:
 19241 1f77 6C765F64 		.ascii	"lv_dither_mode_t\000"
 19241      69746865 
 19241      725F6D6F 
 19241      64655F74 
 19241      00
 19242              	.LASF486:
 19243 1f88 6C765F73 		.ascii	"lv_scroll_snap_t\000"
 19243      63726F6C 
 19243      6C5F736E 
 19243      61705F74 
 19243      00
 19244              	.LASF416:
 19245 1f99 6C617374 		.ascii	"last_state\000"
 19245      5F737461 
 19245      746500
 19246              	.LASF36:
 19247 1fa4 4C565F41 		.ascii	"LV_ALIGN_OUT_TOP_LEFT\000"
 19247      4C49474E 
 19247      5F4F5554 
 19247      5F544F50 
 19247      5F4C4546 
 19248              	.LASF374:
 19249 1fba 4C565F49 		.ascii	"LV_INDEV_TYPE_POINTER\000"
 19249      4E444556 
 19249      5F545950 
 19249      455F504F 
 19249      494E5445 
 19250              	.LASF756:
 19251 1fd0 6C765F6F 		.ascii	"lv_obj_invalidate_area\000"
 19251      626A5F69 
 19251      6E76616C 
 19251      69646174 
 19251      655F6172 
 19252              	.LASF426:
 19253 1fe7 70725F74 		.ascii	"pr_timestamp\000"
ARM GAS  C:\Users\haske\AppData\Local\Temp\ccmHbbn5.s 			page 396


 19253      696D6573 
 19253      74616D70 
 19253      00
 19254              	.LASF609:
 19255 1ff4 4C565F41 		.ascii	"LV_ARC_MODE_REVERSE\000"
 19255      52435F4D 
 19255      4F44455F 
 19255      52455645 
 19255      52534500 
 19256              	.LASF519:
 19257 2008 636F6465 		.ascii	"code\000"
 19257      00
 19258              	.LASF60:
 19259 200d 73756270 		.ascii	"subpx\000"
 19259      7800
 19260              	.LASF762:
 19261 2013 6C765F6F 		.ascii	"lv_obj_has_flag\000"
 19261      626A5F68 
 19261      61735F66 
 19261      6C616700 
 19262              	.LASF295:
 19263 2023 77616974 		.ascii	"wait_for_finish\000"
 19263      5F666F72 
 19263      5F66696E 
 19263      69736800 
 19264              	.LASF701:
 19265 2033 6C765F61 		.ascii	"lv_arc_event\000"
 19265      72635F65 
 19265      76656E74 
 19265      00
 19266              	.LASF444:
 19267 2040 4C565F50 		.ascii	"LV_PART_MAIN\000"
 19267      4152545F 
 19267      4D41494E 
 19267      00
 19268              	.LASF220:
 19269 204d 62675F69 		.ascii	"bg_img_recolor_opa\000"
 19269      6D675F72 
 19269      65636F6C 
 19269      6F725F6F 
 19269      706100
 19270              	.LASF587:
 19271 2060 4C565F4B 		.ascii	"LV_KEY_END\000"
 19271      45595F45 
 19271      4E4400
 19272              	.LASF272:
 19273 206b 4C565F44 		.ascii	"LV_DRAW_LAYER_FLAG_CAN_SUBDIVIDE\000"
 19273      5241575F 
 19273      4C415945 
 19273      525F464C 
 19273      41475F43 
 19274              	.LASF390:
 19275 208c 66656564 		.ascii	"feedback_cb\000"
 19275      6261636B 
 19275      5F636200 
 19276              	.LASF312:
 19277 2098 74696D65 		.ascii	"timer_cb\000"
ARM GAS  C:\Users\haske\AppData\Local\Temp\ccmHbbn5.s 			page 397


 19277      725F6362 
 19277      00
 19278              	.LASF394:
 19279 20a1 7363726F 		.ascii	"scroll_throw\000"
 19279      6C6C5F74 
 19279      68726F77 
 19279      00
 19280              	.LASF527:
 19281 20ae 4C565F45 		.ascii	"LV_EVENT_PRESSED\000"
 19281      56454E54 
 19281      5F505245 
 19281      53534544 
 19281      00
 19282              	.LASF537:
 19283 20bf 4C565F45 		.ascii	"LV_EVENT_SCROLL\000"
 19283      56454E54 
 19283      5F534352 
 19283      4F4C4C00 
 19284              	.LASF558:
 19285 20cf 4C565F45 		.ascii	"LV_EVENT_CANCEL\000"
 19285      56454E54 
 19285      5F43414E 
 19285      43454C00 
 19286              	.LASF749:
 19287 20df 6C765F64 		.ascii	"lv_draw_rect\000"
 19287      7261775F 
 19287      72656374 
 19287      00
 19288              	.LASF26:
 19289 20ec 4C565F41 		.ascii	"LV_ALIGN_DEFAULT\000"
 19289      4C49474E 
 19289      5F444546 
 19289      41554C54 
 19289      00
 19290              	.LASF449:
 19291 20fd 4C565F50 		.ascii	"LV_PART_ITEMS\000"
 19291      4152545F 
 19291      4954454D 
 19291      5300
 19292              	.LASF669:
 19293 210b 696E6469 		.ascii	"indic_r\000"
 19293      635F7200 
 19294              	.LASF128:
 19295 2113 4C565F53 		.ascii	"LV_STYLE_BORDER_COLOR\000"
 19295      54594C45 
 19295      5F424F52 
 19295      4445525F 
 19295      434F4C4F 
 19296              	.LASF347:
 19297 2129 72656E64 		.ascii	"render_start_cb\000"
 19297      65725F73 
 19297      74617274 
 19297      5F636200 
 19298              	.LASF346:
 19299 2139 6472765F 		.ascii	"drv_update_cb\000"
 19299      75706461 
 19299      74655F63 
ARM GAS  C:\Users\haske\AppData\Local\Temp\ccmHbbn5.s 			page 398


 19299      6200
 19300              	.LASF405:
 19301 2147 7363726F 		.ascii	"scroll_throw_vect\000"
 19301      6C6C5F74 
 19301      68726F77 
 19301      5F766563 
 19301      7400
 19302              	.LASF0:
 19303 2159 5F5F696E 		.ascii	"__int8_t\000"
 19303      74385F74 
 19303      00
 19304              	.LASF27:
 19305 2162 4C565F41 		.ascii	"LV_ALIGN_TOP_LEFT\000"
 19305      4C49474E 
 19305      5F544F50 
 19305      5F4C4546 
 19305      5400
 19306              	.LASF439:
 19307 2174 65646974 		.ascii	"editing\000"
 19307      696E6700 
 19308              	.LASF329:
 19309 217c 70687973 		.ascii	"physical_hor_res\000"
 19309      6963616C 
 19309      5F686F72 
 19309      5F726573 
 19309      00
 19310              	.LASF320:
 19311 218d 73697A65 		.ascii	"size\000"
 19311      00
 19312              	.LASF281:
 19313 2192 6D61785F 		.ascii	"max_row_with_no_alpha\000"
 19313      726F775F 
 19313      77697468 
 19313      5F6E6F5F 
 19313      616C7068 
 19314              	.LASF397:
 19315 21a8 6C6F6E67 		.ascii	"long_press_time\000"
 19315      5F707265 
 19315      73735F74 
 19315      696D6500 
 19316              	.LASF13:
 19317 21b8 6C6F6E67 		.ascii	"long long unsigned int\000"
 19317      206C6F6E 
 19317      6720756E 
 19317      7369676E 
 19317      65642069 
 19318              	.LASF362:
 19319 21cf 7379735F 		.ascii	"sys_layer\000"
 19319      6C617965 
 19319      7200
 19320              	.LASF120:
 19321 21d9 4C565F53 		.ascii	"LV_STYLE_BG_GRAD_STOP\000"
 19321      54594C45 
 19321      5F42475F 
 19321      47524144 
 19321      5F53544F 
 19322              	.LASF131:
ARM GAS  C:\Users\haske\AppData\Local\Temp\ccmHbbn5.s 			page 399


 19323 21ef 4C565F53 		.ascii	"LV_STYLE_BORDER_SIDE\000"
 19323      54594C45 
 19323      5F424F52 
 19323      4445525F 
 19323      53494445 
 19324              	.LASF588:
 19325 2204 6C765F67 		.ascii	"lv_group_focus_cb_t\000"
 19325      726F7570 
 19325      5F666F63 
 19325      75735F63 
 19325      625F7400 
 19326              	.LASF502:
 19327 2218 5F6C765F 		.ascii	"_lv_obj_class_t\000"
 19327      6F626A5F 
 19327      636C6173 
 19327      735F7400 
 19328              	.LASF237:
 19329 2228 6C765F64 		.ascii	"lv_draw_rect_dsc_t\000"
 19329      7261775F 
 19329      72656374 
 19329      5F647363 
 19329      5F7400
 19330              	.LASF45:
 19331 223b 4C565F41 		.ascii	"LV_ALIGN_OUT_RIGHT_TOP\000"
 19331      4C49474E 
 19331      5F4F5554 
 19331      5F524947 
 19331      48545F54 
 19332              	.LASF18:
 19333 2252 75696E74 		.ascii	"uint16_t\000"
 19333      31365F74 
 19333      00
 19334              	.LASF69:
 19335 225b 4C565F52 		.ascii	"LV_RES_OK\000"
 19335      45535F4F 
 19335      4B00
 19336              	.LASF736:
 19337 2265 6C765F6F 		.ascii	"lv_obj_get_style_prop\000"
 19337      626A5F67 
 19337      65745F73 
 19337      74796C65 
 19337      5F70726F 
 19338              	.LASF683:
 19339 227b 62675F6D 		.ascii	"bg_midpoint\000"
 19339      6964706F 
 19339      696E7400 
 19340              	.LASF611:
 19341 2287 726F7461 		.ascii	"rotation\000"
 19341      74696F6E 
 19341      00
 19342              	.LASF311:
 19343 2290 6C617374 		.ascii	"last_run\000"
 19343      5F72756E 
 19343      00
 19344              	.LASF420:
 19345 2299 5F6C765F 		.ascii	"_lv_indev_proc_t\000"
 19345      696E6465 
ARM GAS  C:\Users\haske\AppData\Local\Temp\ccmHbbn5.s 			page 400


 19345      765F7072 
 19345      6F635F74 
 19345      00
 19346              	.LASF742:
 19347 22aa 6C765F6F 		.ascii	"lv_obj_draw_dsc_init\000"
 19347      626A5F64 
 19347      7261775F 
 19347      6473635F 
 19347      696E6974 
 19348              	.LASF441:
 19349 22bf 77726170 		.ascii	"wrap\000"
 19349      00
 19350              	.LASF77:
 19351 22c4 6C765F63 		.ascii	"lv_color_t\000"
 19351      6F6C6F72 
 19351      5F7400
 19352              	.LASF692:
 19353 22cf 6C765F61 		.ascii	"lv_arc_set_range\000"
 19353      72635F73 
 19353      65745F72 
 19353      616E6765 
 19353      00
 19354              	.LASF290:
 19355 22e0 64726177 		.ascii	"draw_letter\000"
 19355      5F6C6574 
 19355      74657200 
 19356              	.LASF422:
 19357 22ec 72657365 		.ascii	"reset_query\000"
 19357      745F7175 
 19357      65727900 
 19358              	.LASF640:
 19359 22f8 696E6469 		.ascii	"indic_end\000"
 19359      635F656E 
 19359      6400
 19360              	.LASF671:
 19361 2302 6C765F61 		.ascii	"lv_arc_constructor\000"
 19361      72635F63 
 19361      6F6E7374 
 19361      72756374 
 19361      6F7200
 19362              	.LASF725:
 19363 2315 6C765F61 		.ascii	"lv_arc_get_mode\000"
 19363      72635F67 
 19363      65745F6D 
 19363      6F646500 
 19364              	.LASF96:
 19365 2325 4C565F53 		.ascii	"LV_STYLE_WIDTH\000"
 19365      54594C45 
 19365      5F574944 
 19365      544800
 19366              	.LASF774:
 19367 2334 6C765F6F 		.ascii	"lv_obj_event_base\000"
 19367      626A5F65 
 19367      76656E74 
 19367      5F626173 
 19367      6500
 19368              	.LASF743:
ARM GAS  C:\Users\haske\AppData\Local\Temp\ccmHbbn5.s 			page 401


 19369 2346 6C765F64 		.ascii	"lv_draw_arc_dsc_init\000"
 19369      7261775F 
 19369      6172635F 
 19369      6473635F 
 19369      696E6974 
 19370              	.LASF223:
 19371 235b 626F7264 		.ascii	"border_width\000"
 19371      65725F77 
 19371      69647468 
 19371      00
 19372              	.LASF97:
 19373 2368 4C565F53 		.ascii	"LV_STYLE_MIN_WIDTH\000"
 19373      54594C45 
 19373      5F4D494E 
 19373      5F574944 
 19373      544800
 19374              	.LASF656:
 19375 237b 696E6469 		.ascii	"indic_width_half\000"
 19375      635F7769 
 19375      6474685F 
 19375      68616C66 
 19375      00
 19376              	.LASF79:
 19377 238c 6C765F74 		.ascii	"lv_text_flag_t\000"
 19377      6578745F 
 19377      666C6167 
 19377      5F7400
 19378              	.LASF406:
 19379 239b 7363726F 		.ascii	"scroll_throw_vect_ori\000"
 19379      6C6C5F74 
 19379      68726F77 
 19379      5F766563 
 19379      745F6F72 
 19380              	.LASF753:
 19381 23b1 6C765F6F 		.ascii	"lv_obj_set_ext_click_area\000"
 19381      626A5F73 
 19381      65745F65 
 19381      78745F63 
 19381      6C69636B 
 19382              	.LASF138:
 19383 23cb 4C565F53 		.ascii	"LV_STYLE_SHADOW_OFS_X\000"
 19383      54594C45 
 19383      5F534841 
 19383      444F575F 
 19383      4F46535F 
 19384              	.LASF139:
 19385 23e1 4C565F53 		.ascii	"LV_STYLE_SHADOW_OFS_Y\000"
 19385      54594C45 
 19385      5F534841 
 19385      444F575F 
 19385      4F46535F 
 19386              	.LASF463:
 19387 23f7 4C565F4F 		.ascii	"LV_OBJ_FLAG_SCROLL_CHAIN_HOR\000"
 19387      424A5F46 
 19387      4C41475F 
 19387      5343524F 
 19387      4C4C5F43 
ARM GAS  C:\Users\haske\AppData\Local\Temp\ccmHbbn5.s 			page 402


 19388              	.LASF375:
 19389 2414 4C565F49 		.ascii	"LV_INDEV_TYPE_KEYPAD\000"
 19389      4E444556 
 19389      5F545950 
 19389      455F4B45 
 19389      59504144 
 19390              	.LASF123:
 19391 2429 4C565F53 		.ascii	"LV_STYLE_BG_IMG_SRC\000"
 19391      54594C45 
 19391      5F42475F 
 19391      494D475F 
 19391      53524300 
 19392              	.LASF577:
 19393 243d 4C565F4B 		.ascii	"LV_KEY_DOWN\000"
 19393      45595F44 
 19393      4F574E00 
 19394              	.LASF580:
 19395 2449 4C565F4B 		.ascii	"LV_KEY_ESC\000"
 19395      45595F45 
 19395      534300
 19396              	.LASF252:
 19397 2454 7069766F 		.ascii	"pivot\000"
 19397      7400
 19398              	.LASF156:
 19399 245a 4C565F53 		.ascii	"LV_STYLE_ARC_IMG_SRC\000"
 19399      54594C45 
 19399      5F415243 
 19399      5F494D47 
 19399      5F535243 
 19400              	.LASF188:
 19401 246f 76616C75 		.ascii	"value1\000"
 19401      653100
 19402              	.LASF333:
 19403 2476 64726177 		.ascii	"draw_buf\000"
 19403      5F627566 
 19403      00
 19404              	.LASF310:
 19405 247f 70657269 		.ascii	"period\000"
 19405      6F6400
 19406              	.LASF340:
 19407 2486 726F756E 		.ascii	"rounder_cb\000"
 19407      6465725F 
 19407      636200
 19408              	.LASF248:
 19409 2491 6465636F 		.ascii	"decor\000"
 19409      7200
 19410              	.LASF4:
 19411 2497 5F5F696E 		.ascii	"__int16_t\000"
 19411      7431365F 
 19411      7400
 19412              	.LASF298:
 19413 24a1 6C617965 		.ascii	"layer_adjust\000"
 19413      725F6164 
 19413      6A757374 
 19413      00
 19414              	.LASF159:
 19415 24ae 4C565F53 		.ascii	"LV_STYLE_TEXT_FONT\000"
ARM GAS  C:\Users\haske\AppData\Local\Temp\ccmHbbn5.s 			page 403


 19415      54594C45 
 19415      5F544558 
 19415      545F464F 
 19415      4E5400
 19416              	.LASF566:
 19417 24c1 4C565F45 		.ascii	"LV_EVENT_SCREEN_UNLOADED\000"
 19417      56454E54 
 19417      5F534352 
 19417      45454E5F 
 19417      554E4C4F 
 19418              	.LASF182:
 19419 24da 4C565F53 		.ascii	"LV_STYLE_PROP_ANY\000"
 19419      54594C45 
 19419      5F50524F 
 19419      505F414E 
 19419      5900
 19420              	.LASF738:
 19421 24ec 6C765F6F 		.ascii	"lv_obj_get_height\000"
 19421      626A5F67 
 19421      65745F68 
 19421      65696768 
 19421      7400
 19422              	.LASF75:
 19423 24fe 66756C6C 		.ascii	"full\000"
 19423      00
 19424              	.LASF734:
 19425 2503 6C765F6F 		.ascii	"lv_obj_class\000"
 19425      626A5F63 
 19425      6C617373 
 19425      00
 19426              	.LASF283:
 19427 2510 6C765F64 		.ascii	"lv_draw_layer_ctx_t\000"
 19427      7261775F 
 19427      6C617965 
 19427      725F6374 
 19427      785F7400 
 19428              	.LASF87:
 19429 2524 636F6C6F 		.ascii	"color\000"
 19429      7200
 19430              	.LASF90:
 19431 252a 73746F70 		.ascii	"stops\000"
 19431      7300
 19432              	.LASF417:
 19433 2530 6C617374 		.ascii	"last_key\000"
 19433      5F6B6579 
 19433      00
 19434              	.LASF243:
 19435 2539 6C696E65 		.ascii	"line_space\000"
 19435      5F737061 
 19435      636500
 19436              	.LASF428:
 19437 2544 5F6C765F 		.ascii	"_lv_indev_t\000"
 19437      696E6465 
 19437      765F7400 
 19438              	.LASF414:
 19439 2550 67657374 		.ascii	"gesture_dir\000"
 19439      7572655F 
ARM GAS  C:\Users\haske\AppData\Local\Temp\ccmHbbn5.s 			page 404


 19439      64697200 
 19440              	.LASF299:
 19441 255c 6C617965 		.ascii	"layer_blend\000"
 19441      725F626C 
 19441      656E6400 
 19442              	.LASF415:
 19443 2568 67657374 		.ascii	"gesture_sent\000"
 19443      7572655F 
 19443      73656E74 
 19443      00
 19444              	.LASF673:
 19445 2575 696E765F 		.ascii	"inv_area\000"
 19445      61726561 
 19445      00
 19446              	.LASF690:
 19447 257e 6E65775F 		.ascii	"new_value\000"
 19447      76616C75 
 19447      6500
 19448              	.LASF616:
 19449 2588 6D696E5F 		.ascii	"min_value\000"
 19449      76616C75 
 19449      6500
 19450              	.LASF505:
 19451 2592 64657374 		.ascii	"destructor_cb\000"
 19451      72756374 
 19451      6F725F63 
 19451      6200
 19452              	.LASF697:
 19453 25a0 6C765F61 		.ascii	"lv_arc_get_angle_end\000"
 19453      72635F67 
 19453      65745F61 
 19453      6E676C65 
 19453      5F656E64 
 19454              	.LASF84:
 19455 25b5 6C765F62 		.ascii	"lv_border_side_t\000"
 19455      6F726465 
 19455      725F7369 
 19455      64655F74 
 19455      00
 19456              	.LASF88:
 19457 25c6 66726163 		.ascii	"frac\000"
 19457      00
 19458              	.LASF197:
 19459 25cb 5F6C765F 		.ascii	"_lv_obj_t\000"
 19459      6F626A5F 
 19459      7400
 19460              	.LASF238:
 19461 25d5 666F6E74 		.ascii	"font\000"
 19461      00
 19462              	.LASF244:
 19463 25da 6C657474 		.ascii	"letter_space\000"
 19463      65725F73 
 19463      70616365 
 19463      00
 19464              	.LASF393:
 19465 25e7 7363726F 		.ascii	"scroll_limit\000"
 19465      6C6C5F6C 
ARM GAS  C:\Users\haske\AppData\Local\Temp\ccmHbbn5.s 			page 405


 19465      696D6974 
 19465      00
 19466              	.LASF101:
 19467 25f4 4C565F53 		.ascii	"LV_STYLE_MAX_HEIGHT\000"
 19467      54594C45 
 19467      5F4D4158 
 19467      5F484549 
 19467      47485400 
 19468              	.LASF354:
 19469 2608 64726976 		.ascii	"driver\000"
 19469      657200
 19470              	.LASF735:
 19471 260f 6C765F61 		.ascii	"lv_arc_class\000"
 19471      72635F63 
 19471      6C617373 
 19471      00
 19472              	.LASF603:
 19473 261c 5F6C765F 		.ascii	"_lv_theme_t\000"
 19473      7468656D 
 19473      655F7400 
 19474              	.LASF269:
 19475 2628 6C765F64 		.ascii	"lv_draw_arc_dsc_t\000"
 19475      7261775F 
 19475      6172635F 
 19475      6473635F 
 19475      7400
 19476              	.LASF584:
 19477 263a 4C565F4B 		.ascii	"LV_KEY_NEXT\000"
 19477      45595F4E 
 19477      45585400 
 19478              	.LASF117:
 19479 2646 4C565F53 		.ascii	"LV_STYLE_BG_GRAD_COLOR\000"
 19479      54594C45 
 19479      5F42475F 
 19479      47524144 
 19479      5F434F4C 
 19480              	.LASF359:
 19481 265d 70726576 		.ascii	"prev_scr\000"
 19481      5F736372 
 19481      00
 19482              	.LASF52:
 19483 2666 626F785F 		.ascii	"box_h\000"
 19483      6800
 19484              	.LASF495:
 19485 266c 6C696E65 		.ascii	"line_dsc\000"
 19485      5F647363 
 19485      00
 19486              	.LASF585:
 19487 2675 4C565F4B 		.ascii	"LV_KEY_PREV\000"
 19487      45595F50 
 19487      52455600 
 19488              	.LASF28:
 19489 2681 4C565F41 		.ascii	"LV_ALIGN_TOP_MID\000"
 19489      4C49474E 
 19489      5F544F50 
 19489      5F4D4944 
 19489      00
ARM GAS  C:\Users\haske\AppData\Local\Temp\ccmHbbn5.s 			page 406


 19490              	.LASF76:
 19491 2692 6C765F63 		.ascii	"lv_color16_t\000"
 19491      6F6C6F72 
 19491      31365F74 
 19491      00
 19492              	.LASF51:
 19493 269f 626F785F 		.ascii	"box_w\000"
 19493      7700
 19494              	.LASF662:
 19495 26a5 626F7474 		.ascii	"bottom_knob\000"
 19495      6F6D5F6B 
 19495      6E6F6200 
 19496              	.LASF5:
 19497 26b1 73686F72 		.ascii	"short int\000"
 19497      7420696E 
 19497      7400
 19498              	.LASF59:
 19499 26bb 62617365 		.ascii	"base_line\000"
 19499      5F6C696E 
 19499      6500
 19500              	.LASF370:
 19501 26c5 696E765F 		.ascii	"inv_p\000"
 19501      7000
 19502              	.LASF307:
 19503 26cb 6C765F6C 		.ascii	"lv_ll_t\000"
 19503      6C5F7400 
 19504              	.LASF733:
 19505 26d3 6C765F66 		.ascii	"lv_font_montserrat_14\000"
 19505      6F6E745F 
 19505      6D6F6E74 
 19505      73657272 
 19505      61745F31 
 19506              	.LASF399:
 19507 26e9 6163745F 		.ascii	"act_point\000"
 19507      706F696E 
 19507      7400
 19508              	.LASF469:
 19509 26f3 4C565F4F 		.ascii	"LV_OBJ_FLAG_PRESS_LOCK\000"
 19509      424A5F46 
 19509      4C41475F 
 19509      50524553 
 19509      535F4C4F 
 19510              	.LASF674:
 19511 270a 696E765F 		.ascii	"inv_knob_area\000"
 19511      6B6E6F62 
 19511      5F617265 
 19511      6100
 19512              	.LASF551:
 19513 2718 4C565F45 		.ascii	"LV_EVENT_DRAW_POST_END\000"
 19513      56454E54 
 19513      5F445241 
 19513      575F504F 
 19513      53545F45 
 19514              	.LASF552:
 19515 272f 4C565F45 		.ascii	"LV_EVENT_DRAW_PART_BEGIN\000"
 19515      56454E54 
 19515      5F445241 
ARM GAS  C:\Users\haske\AppData\Local\Temp\ccmHbbn5.s 			page 407


 19515      575F5041 
 19515      52545F42 
 19516              	.LASF419:
 19517 2748 6B657970 		.ascii	"keypad\000"
 19517      616400
 19518              	.LASF619:
 19519 274f 6D696E5F 		.ascii	"min_close\000"
 19519      636C6F73 
 19519      6500
 19520              	.LASF38:
 19521 2759 4C565F41 		.ascii	"LV_ALIGN_OUT_TOP_RIGHT\000"
 19521      4C49474E 
 19521      5F4F5554 
 19521      5F544F50 
 19521      5F524947 
 19522              	.LASF612:
 19523 2770 696E6469 		.ascii	"indic_angle_start\000"
 19523      635F616E 
 19523      676C655F 
 19523      73746172 
 19523      7400
 19524              	.LASF667:
 19525 2782 746F705F 		.ascii	"top_indic\000"
 19525      696E6469 
 19525      6300
 19526              	.LASF154:
 19527 278c 4C565F53 		.ascii	"LV_STYLE_ARC_COLOR\000"
 19527      54594C45 
 19527      5F415243 
 19527      5F434F4C 
 19527      4F5200
 19528              	.LASF518:
 19529 279f 63757272 		.ascii	"current_target\000"
 19529      656E745F 
 19529      74617267 
 19529      657400
 19530              	.LASF17:
 19531 27ae 696E7431 		.ascii	"int16_t\000"
 19531      365F7400 
 19532              	.LASF371:
 19533 27b6 696E765F 		.ascii	"inv_en_cnt\000"
 19533      656E5F63 
 19533      6E7400
 19534              	.LASF276:
 19535 27c1 73637265 		.ascii	"screen_transp\000"
 19535      656E5F74 
 19535      72616E73 
 19535      7000
 19536              	.LASF676:
 19537 27cf 73746172 		.ascii	"start\000"
 19537      7400
 19538              	.LASF691:
 19539 27d5 6C765F61 		.ascii	"lv_arc_set_mode\000"
 19539      72635F73 
 19539      65745F6D 
 19539      6F646500 
 19540              	.LASF202:
ARM GAS  C:\Users\haske\AppData\Local\Temp\ccmHbbn5.s 			page 408


 19541 27e5 636F6F72 		.ascii	"coords\000"
 19541      647300
 19542              	.LASF679:
 19543 27ec 6C765F61 		.ascii	"lv_arc_set_start_angle\000"
 19543      72635F73 
 19543      65745F73 
 19543      74617274 
 19543      5F616E67 
 19544              	.LASF596:
 19545 2803 6578745F 		.ascii	"ext_click_pad\000"
 19545      636C6963 
 19545      6B5F7061 
 19545      6400
 19546              	.LASF644:
 19547 2811 6C656674 		.ascii	"left_bg\000"
 19547      5F626700 
 19548              	.LASF754:
 19549 2819 6C765F6F 		.ascii	"lv_obj_is_visible\000"
 19549      626A5F69 
 19549      735F7669 
 19549      7369626C 
 19549      6500
 19550              	.LASF660:
 19551 282b 72696768 		.ascii	"right_knob\000"
 19551      745F6B6E 
 19551      6F6200
 19552              	.LASF181:
 19553 2836 5F4C565F 		.ascii	"_LV_STYLE_NUM_BUILT_IN_PROPS\000"
 19553      5354594C 
 19553      455F4E55 
 19553      4D5F4255 
 19553      494C545F 
 19554              	.LASF773:
 19555 2853 5F6C765F 		.ascii	"_lv_area_is_point_on\000"
 19555      61726561 
 19555      5F69735F 
 19555      706F696E 
 19555      745F6F6E 
 19556              	.LASF107:
 19557 2868 4C565F53 		.ascii	"LV_STYLE_PAD_TOP\000"
 19557      54594C45 
 19557      5F504144 
 19557      5F544F50 
 19557      00
 19558              	.LASF687:
 19559 2879 6C765F61 		.ascii	"lv_arc_set_bg_angles\000"
 19559      72635F73 
 19559      65745F62 
 19559      675F616E 
 19559      676C6573 
 19560              	.LASF365:
 19561 288e 64656C5F 		.ascii	"del_prev\000"
 19561      70726576 
 19561      00
 19562              	.LASF571:
 19563 2897 5F4C565F 		.ascii	"_LV_EVENT_LAST\000"
 19563      4556454E 
ARM GAS  C:\Users\haske\AppData\Local\Temp\ccmHbbn5.s 			page 409


 19563      545F4C41 
 19563      535400
 19564              	.LASF367:
 19565 28a6 62675F69 		.ascii	"bg_img\000"
 19565      6D6700
 19566              	.LASF607:
 19567 28ad 4C565F41 		.ascii	"LV_ARC_MODE_NORMAL\000"
 19567      52435F4D 
 19567      4F44455F 
 19567      4E4F524D 
 19567      414C00
 19568              	.LASF452:
 19569 28c0 4C565F50 		.ascii	"LV_PART_CUSTOM_FIRST\000"
 19569      4152545F 
 19569      43555354 
 19569      4F4D5F46 
 19569      49525354 
 19570              	.LASF618:
 19571 28d5 64726167 		.ascii	"dragging\000"
 19571      67696E67 
 19571      00
 19572              	.LASF124:
 19573 28de 4C565F53 		.ascii	"LV_STYLE_BG_IMG_OPA\000"
 19573      54594C45 
 19573      5F42475F 
 19573      494D475F 
 19573      4F504100 
 19574              	.LASF146:
 19575 28f2 4C565F53 		.ascii	"LV_STYLE_LINE_WIDTH\000"
 19575      54594C45 
 19575      5F4C494E 
 19575      455F5749 
 19575      44544800 
 19576              	.LASF650:
 19577 2906 6B6E6F62 		.ascii	"knob_shadow_size\000"
 19577      5F736861 
 19577      646F775F 
 19577      73697A65 
 19577      00
 19578              	.LASF622:
 19579 2917 6C617374 		.ascii	"last_angle\000"
 19579      5F616E67 
 19579      6C6500
 19580              	.LASF541:
 19581 2922 4C565F45 		.ascii	"LV_EVENT_DEFOCUSED\000"
 19581      56454E54 
 19581      5F444546 
 19581      4F435553 
 19581      454400
 19582              	.LASF770:
 19583 2935 6C765F67 		.ascii	"lv_group_set_editing\000"
 19583      726F7570 
 19583      5F736574 
 19583      5F656469 
 19583      74696E67 
 19584              	.LASF783:
 19585 294a 433A5C50 		.ascii	"C:\\Projects\\PainDrain\\firmware\\PainDrain\\PainD"
ARM GAS  C:\Users\haske\AppData\Local\Temp\ccmHbbn5.s 			page 410


 19585      726F6A65 
 19585      6374735C 
 19585      5061696E 
 19585      44726169 
 19586 2978 7261696E 		.ascii	"rain.cydsn\000"
 19586      2E637964 
 19586      736E00
 19587              	.LASF717:
 19588 2983 62675F70 		.ascii	"bg_pad\000"
 19588      616400
 19589              	.LASF191:
 19590 298a 70726F70 		.ascii	"prop1\000"
 19590      3100
 19591              	.LASF341:
 19592 2990 7365745F 		.ascii	"set_px_cb\000"
 19592      70785F63 
 19592      6200
 19593              	.LASF398:
 19594 299a 6C6F6E67 		.ascii	"long_press_repeat_time\000"
 19594      5F707265 
 19594      73735F72 
 19594      65706561 
 19594      745F7469 
 19595              	.LASF34:
 19596 29b1 4C565F41 		.ascii	"LV_ALIGN_RIGHT_MID\000"
 19596      4C49474E 
 19596      5F524947 
 19596      48545F4D 
 19596      494400
 19597              	.LASF499:
 19598 29c4 74657874 		.ascii	"text_length\000"
 19598      5F6C656E 
 19598      67746800 
 19599              	.LASF224:
 19600 29d0 626F7264 		.ascii	"border_opa\000"
 19600      65725F6F 
 19600      706100
 19601              	.LASF686:
 19602 29db 6C765F61 		.ascii	"lv_arc_set_bg_end_angle\000"
 19602      72635F73 
 19602      65745F62 
 19602      675F656E 
 19602      645F616E 
 19603              	.LASF100:
 19604 29f3 4C565F53 		.ascii	"LV_STYLE_MIN_HEIGHT\000"
 19604      54594C45 
 19604      5F4D494E 
 19604      5F484549 
 19604      47485400 
 19605              	.LASF37:
 19606 2a07 4C565F41 		.ascii	"LV_ALIGN_OUT_TOP_MID\000"
 19606      4C49474E 
 19606      5F4F5554 
 19606      5F544F50 
 19606      5F4D4944 
 19607              	.LASF665:
 19608 2a1c 6C656674 		.ascii	"left_indic\000"
ARM GAS  C:\Users\haske\AppData\Local\Temp\ccmHbbn5.s 			page 411


 19608      5F696E64 
 19608      696300
 19609              	.LASF215:
 19610 2a27 62675F67 		.ascii	"bg_grad\000"
 19610      72616400 
 19611              	.LASF386:
 19612 2a2f 6C765F69 		.ascii	"lv_indev_data_t\000"
 19612      6E646576 
 19612      5F646174 
 19612      615F7400 
 19613              	.LASF132:
 19614 2a3f 4C565F53 		.ascii	"LV_STYLE_BORDER_POST\000"
 19614      54594C45 
 19614      5F424F52 
 19614      4445525F 
 19614      504F5354 
 19615              	.LASF349:
 19616 2a54 64726177 		.ascii	"draw_ctx\000"
 19616      5F637478 
 19616      00
 19617              	.LASF719:
 19618 2a5d 6B6E6F62 		.ascii	"knob_right\000"
 19618      5F726967 
 19618      687400
 19619              	.LASF289:
 19620 2a68 64726177 		.ascii	"draw_img\000"
 19620      5F696D67 
 19620      00
 19621              	.LASF89:
 19622 2a71 6C765F67 		.ascii	"lv_gradient_stop_t\000"
 19622      72616469 
 19622      656E745F 
 19622      73746F70 
 19622      5F7400
 19623              	.LASF103:
 19624 2a84 4C565F53 		.ascii	"LV_STYLE_Y\000"
 19624      54594C45 
 19624      5F5900
 19625              	.LASF149:
 19626 2a8f 4C565F53 		.ascii	"LV_STYLE_LINE_ROUNDED\000"
 19626      54594C45 
 19626      5F4C494E 
 19626      455F524F 
 19626      554E4445 
 19627              	.LASF292:
 19628 2aa5 64726177 		.ascii	"draw_polygon\000"
 19628      5F706F6C 
 19628      79676F6E 
 19628      00
 19629              	.LASF568:
 19630 2ab2 4C565F45 		.ascii	"LV_EVENT_STYLE_CHANGED\000"
 19630      56454E54 
 19630      5F535459 
 19630      4C455F43 
 19630      48414E47 
 19631              	.LASF557:
 19632 2ac9 4C565F45 		.ascii	"LV_EVENT_READY\000"
ARM GAS  C:\Users\haske\AppData\Local\Temp\ccmHbbn5.s 			page 412


 19632      56454E54 
 19632      5F524541 
 19632      445900
 19633              	.LASF239:
 19634 2ad8 73656C5F 		.ascii	"sel_start\000"
 19634      73746172 
 19634      7400
 19635              	.LASF550:
 19636 2ae2 4C565F45 		.ascii	"LV_EVENT_DRAW_POST\000"
 19636      56454E54 
 19636      5F445241 
 19636      575F504F 
 19636      535400
 19637              	.LASF20:
 19638 2af5 75696E74 		.ascii	"uint32_t\000"
 19638      33325F74 
 19638      00
 19639              	.LASF451:
 19640 2afe 4C565F50 		.ascii	"LV_PART_CURSOR\000"
 19640      4152545F 
 19640      43555253 
 19640      4F5200
 19641              	.LASF42:
 19642 2b0d 4C565F41 		.ascii	"LV_ALIGN_OUT_LEFT_TOP\000"
 19642      4C49474E 
 19642      5F4F5554 
 19642      5F4C4546 
 19642      545F544F 
 19643              	.LASF484:
 19644 2b23 6C765F6F 		.ascii	"lv_obj_flag_t\000"
 19644      626A5F66 
 19644      6C61675F 
 19644      7400
 19645              	.LASF567:
 19646 2b31 4C565F45 		.ascii	"LV_EVENT_SIZE_CHANGED\000"
 19646      56454E54 
 19646      5F53495A 
 19646      455F4348 
 19646      414E4745 
 19647              	.LASF695:
 19648 2b47 6C765F61 		.ascii	"lv_arc_create\000"
 19648      72635F63 
 19648      72656174 
 19648      6500
 19649              	.LASF232:
 19650 2b55 73686164 		.ascii	"shadow_width\000"
 19650      6F775F77 
 19650      69647468 
 19650      00
 19651              	.LASF423:
 19652 2b62 64697361 		.ascii	"disabled\000"
 19652      626C6564 
 19652      00
 19653              	.LASF74:
 19654 2b6b 67726565 		.ascii	"green\000"
 19654      6E00
 19655              	.LASF67:
ARM GAS  C:\Users\haske\AppData\Local\Temp\ccmHbbn5.s 			page 413


 19656 2b71 6C765F66 		.ascii	"lv_font_t\000"
 19656      6F6E745F 
 19656      7400
 19657              	.LASF688:
 19658 2b7b 6C765F61 		.ascii	"lv_arc_set_rotation\000"
 19658      72635F73 
 19658      65745F72 
 19658      6F746174 
 19658      696F6E00 
 19659              	.LASF569:
 19660 2b8f 4C565F45 		.ascii	"LV_EVENT_LAYOUT_CHANGED\000"
 19660      56454E54 
 19660      5F4C4159 
 19660      4F55545F 
 19660      4348414E 
 19661              	.LASF720:
 19662 2ba7 6B6E6F62 		.ascii	"knob_top\000"
 19662      5F746F70 
 19662      00
 19663              	.LASF395:
 19664 2bb0 67657374 		.ascii	"gesture_min_velocity\000"
 19664      7572655F 
 19664      6D696E5F 
 19664      76656C6F 
 19664      63697479 
 19665              	.LASF92:
 19666 2bc5 64697468 		.ascii	"dither\000"
 19666      657200
 19667              	.LASF7:
 19668 2bcc 73686F72 		.ascii	"short unsigned int\000"
 19668      7420756E 
 19668      7369676E 
 19668      65642069 
 19668      6E7400
 19669              	.LASF539:
 19670 2bdf 4C565F45 		.ascii	"LV_EVENT_KEY\000"
 19670      56454E54 
 19670      5F4B4559 
 19670      00
 19671              	.LASF23:
 19672 2bec 6C765F63 		.ascii	"lv_coord_t\000"
 19672      6F6F7264 
 19672      5F7400
 19673              	.LASF373:
 19674 2bf7 4C565F49 		.ascii	"LV_INDEV_TYPE_NONE\000"
 19674      4E444556 
 19674      5F545950 
 19674      455F4E4F 
 19674      4E4500
 19675              	.LASF715:
 19676 2c0a 62675F74 		.ascii	"bg_top\000"
 19676      6F7000
 19677              	.LASF339:
 19678 2c11 666C7573 		.ascii	"flush_cb\000"
 19678      685F6362 
 19678      00
 19679              	.LASF134:
ARM GAS  C:\Users\haske\AppData\Local\Temp\ccmHbbn5.s 			page 414


 19680 2c1a 4C565F53 		.ascii	"LV_STYLE_OUTLINE_COLOR\000"
 19680      54594C45 
 19680      5F4F5554 
 19680      4C494E45 
 19680      5F434F4C 
 19681              	.LASF64:
 19682 2c31 75736572 		.ascii	"user_data\000"
 19682      5F646174 
 19682      6100
 19683              	.LASF529:
 19684 2c3b 4C565F45 		.ascii	"LV_EVENT_PRESS_LOST\000"
 19684      56454E54 
 19684      5F505245 
 19684      53535F4C 
 19684      4F535400 
 19685              	.LASF32:
 19686 2c4f 4C565F41 		.ascii	"LV_ALIGN_BOTTOM_RIGHT\000"
 19686      4C49474E 
 19686      5F424F54 
 19686      544F4D5F 
 19686      52494748 
 19687              	.LASF604:
 19688 2c65 5F6C765F 		.ascii	"_lv_event_dsc_t\000"
 19688      6576656E 
 19688      745F6473 
 19688      635F7400 
 19689              	.LASF140:
 19690 2c75 4C565F53 		.ascii	"LV_STYLE_SHADOW_SPREAD\000"
 19690      54594C45 
 19690      5F534841 
 19690      444F575F 
 19690      53505245 
 19691              	.LASF450:
 19692 2c8c 4C565F50 		.ascii	"LV_PART_TICKS\000"
 19692      4152545F 
 19692      5449434B 
 19692      5300
 19693              	.LASF620:
 19694 2c9a 6368675F 		.ascii	"chg_rate\000"
 19694      72617465 
 19694      00
 19695              	.LASF766:
 19696 2ca3 6C765F61 		.ascii	"lv_atan2\000"
 19696      74616E32 
 19696      00
 19697              	.LASF56:
 19698 2cac 6765745F 		.ascii	"get_glyph_dsc\000"
 19698      676C7970 
 19698      685F6473 
 19698      6300
 19699              	.LASF8:
 19700 2cba 5F5F696E 		.ascii	"__int32_t\000"
 19700      7433325F 
 19700      7400
 19701              	.LASF661:
 19702 2cc4 746F705F 		.ascii	"top_knob\000"
 19702      6B6E6F62 
ARM GAS  C:\Users\haske\AppData\Local\Temp\ccmHbbn5.s 			page 415


 19702      00
 19703              	.LASF488:
 19704 2ccd 73656C65 		.ascii	"selector\000"
 19704      63746F72 
 19704      00
 19705              	.LASF540:
 19706 2cd6 4C565F45 		.ascii	"LV_EVENT_FOCUSED\000"
 19706      56454E54 
 19706      5F464F43 
 19706      55534544 
 19706      00
 19707              	.LASF85:
 19708 2ce7 6C765F67 		.ascii	"lv_grad_dir_t\000"
 19708      7261645F 
 19708      6469725F 
 19708      7400
 19709              	.LASF402:
 19710 2cf5 6C617374 		.ascii	"last_raw_point\000"
 19710      5F726177 
 19710      5F706F69 
 19710      6E7400
 19711              	.LASF440:
 19712 2d04 7265666F 		.ascii	"refocus_policy\000"
 19712      6375735F 
 19712      706F6C69 
 19712      637900
 19713              	.LASF326:
 19714 2d13 5F6C765F 		.ascii	"_lv_disp_drv_t\000"
 19714      64697370 
 19714      5F647276 
 19714      5F7400
 19715              	.LASF421:
 19716 2d22 6C6F6E67 		.ascii	"long_pr_sent\000"
 19716      5F70725F 
 19716      73656E74 
 19716      00
 19717              	.LASF716:
 19718 2d2f 62675F62 		.ascii	"bg_bottom\000"
 19718      6F74746F 
 19718      6D00
 19719              	.LASF633:
 19720 2d39 6C765F6F 		.ascii	"lv_obj_get_style_shadow_width\000"
 19720      626A5F67 
 19720      65745F73 
 19720      74796C65 
 19720      5F736861 
 19721              	.LASF713:
 19722 2d57 62675F6C 		.ascii	"bg_left\000"
 19722      65667400 
 19723              	.LASF508:
 19724 2d5f 68656967 		.ascii	"height_def\000"
 19724      68745F64 
 19724      656600
 19725              	.LASF764:
 19726 2d6a 6C765F69 		.ascii	"lv_indev_get_type\000"
 19726      6E646576 
 19726      5F676574 
ARM GAS  C:\Users\haske\AppData\Local\Temp\ccmHbbn5.s 			page 416


 19726      5F747970 
 19726      6500
 19727              	.LASF563:
 19728 2d7c 4C565F45 		.ascii	"LV_EVENT_SCREEN_UNLOAD_START\000"
 19728      56454E54 
 19728      5F534352 
 19728      45454E5F 
 19728      554E4C4F 
 19729              	.LASF345:
 19730 2d99 636C6561 		.ascii	"clean_dcache_cb\000"
 19730      6E5F6463 
 19730      61636865 
 19730      5F636200 
 19731              	.LASF576:
 19732 2da9 4C565F4B 		.ascii	"LV_KEY_UP\000"
 19732      45595F55 
 19732      5000
 19733              	.LASF396:
 19734 2db3 67657374 		.ascii	"gesture_limit\000"
 19734      7572655F 
 19734      6C696D69 
 19734      7400
 19735              	.LASF241:
 19736 2dc1 73656C5F 		.ascii	"sel_color\000"
 19736      636F6C6F 
 19736      7200
 19737              	.LASF718:
 19738 2dcb 6B6E6F62 		.ascii	"knob_left\000"
 19738      5F6C6566 
 19738      7400
 19739              	.LASF462:
 19740 2dd5 4C565F4F 		.ascii	"LV_OBJ_FLAG_SCROLL_ONE\000"
 19740      424A5F46 
 19740      4C41475F 
 19740      5343524F 
 19740      4C4C5F4F 
 19741              	.LASF217:
 19742 2dec 62675F69 		.ascii	"bg_img_symbol_font\000"
 19742      6D675F73 
 19742      796D626F 
 19742      6C5F666F 
 19742      6E7400
 19743              	.LASF234:
 19744 2dff 73686164 		.ascii	"shadow_ofs_y\000"
 19744      6F775F6F 
 19744      66735F79 
 19744      00
 19745              	.LASF675:
 19746 2e0c 6B6E6F62 		.ascii	"knob_extra_size\000"
 19746      5F657874 
 19746      72615F73 
 19746      697A6500 
 19747              	.LASF500:
 19748 2e1c 70617274 		.ascii	"part\000"
 19748      00
 19749              	.LASF521:
 19750 2e21 70726576 		.ascii	"prev\000"
ARM GAS  C:\Users\haske\AppData\Local\Temp\ccmHbbn5.s 			page 417


 19750      00
 19751              	.LASF93:
 19752 2e26 6C765F67 		.ascii	"lv_grad_dsc_t\000"
 19752      7261645F 
 19752      6473635F 
 19752      7400
 19753              	.LASF304:
 19754 2e34 6E5F7369 		.ascii	"n_size\000"
 19754      7A6500
 19755              	.LASF430:
 19756 2e3b 63757273 		.ascii	"cursor\000"
 19756      6F7200
 19757              	.LASF433:
 19758 2e42 5F6C765F 		.ascii	"_lv_group_t\000"
 19758      67726F75 
 19758      705F7400 
 19759              	.LASF121:
 19760 2e4e 4C565F53 		.ascii	"LV_STYLE_BG_GRAD\000"
 19760      54594C45 
 19760      5F42475F 
 19760      47524144 
 19760      00
 19761              	.LASF534:
 19762 2e5f 4C565F45 		.ascii	"LV_EVENT_RELEASED\000"
 19762      56454E54 
 19762      5F52454C 
 19762      45415345 
 19762      4400
 19763              	.LASF55:
 19764 2e71 69735F70 		.ascii	"is_placeholder\000"
 19764      6C616365 
 19764      686F6C64 
 19764      657200
 19765              	.LASF136:
 19766 2e80 4C565F53 		.ascii	"LV_STYLE_OUTLINE_PAD\000"
 19766      54594C45 
 19766      5F4F5554 
 19766      4C494E45 
 19766      5F504144 
 19767              	.LASF659:
 19768 2e95 6C656674 		.ascii	"left_knob\000"
 19768      5F6B6E6F 
 19768      6200
 19769              	.LASF768:
 19770 2e9f 6C765F6F 		.ascii	"lv_obj_get_group\000"
 19770      626A5F67 
 19770      65745F67 
 19770      726F7570 
 19770      00
 19771              	.LASF666:
 19772 2eb0 72696768 		.ascii	"right_indic\000"
 19772      745F696E 
 19772      64696300 
 19773              	.LASF403:
 19774 2ebc 76656374 		.ascii	"vect\000"
 19774      00
 19775              	.LASF654:
ARM GAS  C:\Users\haske\AppData\Local\Temp\ccmHbbn5.s 			page 418


 19776 2ec1 6B6E6F62 		.ascii	"knob_area\000"
 19776      5F617265 
 19776      6100
 19777              	.LASF638:
 19778 2ecb 6C765F6F 		.ascii	"lv_obj_get_style_arc_rounded\000"
 19778      626A5F67 
 19778      65745F73 
 19778      74796C65 
 19778      5F617263 
 19779              	.LASF435:
 19780 2ee8 6F626A5F 		.ascii	"obj_focus\000"
 19780      666F6375 
 19780      7300
 19781              	.LASF160:
 19782 2ef2 4C565F53 		.ascii	"LV_STYLE_TEXT_LETTER_SPACE\000"
 19782      54594C45 
 19782      5F544558 
 19782      545F4C45 
 19782      54544552 
 19783              	.LASF606:
 19784 2f0d 6C765F6F 		.ascii	"lv_obj_t\000"
 19784      626A5F74 
 19784      00
 19785              	.LASF601:
 19786 2f16 6576656E 		.ascii	"event_dsc_cnt\000"
 19786      745F6473 
 19786      635F636E 
 19786      7400
 19787              		.ident	"GCC: (GNU Tools for ARM Embedded Processors) 5.4.1 20160609 (release) [ARM/embedded-5-bran
