ARM GAS  C:\Users\haske\AppData\Local\Temp\cceAapTu.s 			page 1


   1              		.syntax unified
   2              		.cpu cortex-m0plus
   3              		.fpu softvfp
   4              		.eabi_attribute 20, 1
   5              		.eabi_attribute 21, 1
   6              		.eabi_attribute 23, 3
   7              		.eabi_attribute 24, 1
   8              		.eabi_attribute 25, 1
   9              		.eabi_attribute 26, 1
  10              		.eabi_attribute 30, 1
  11              		.eabi_attribute 34, 0
  12              		.eabi_attribute 18, 4
  13              		.thumb
  14              		.syntax unified
  15              		.file	"lv_anim.c"
  16              		.text
  17              	.Ltext0:
  18              		.cfi_sections	.debug_frame
  19              		.section	.text.anim_mark_list_change,"ax",%progbits
  20              		.align	2
  21              		.code	16
  22              		.thumb_func
  23              		.type	anim_mark_list_change, %function
  24              	anim_mark_list_change:
  25              	.LFB65:
  26              		.file 1 "..\\..\\..\\arduinoLCD\\test\\Pain Drain\\libraries\\lvgl\\src\\misc\\lv_anim.c"
   1:..\..\..\arduinoLCD\test\Pain Drain\libraries\lvgl\src\misc/lv_anim.c **** /**
   2:..\..\..\arduinoLCD\test\Pain Drain\libraries\lvgl\src\misc/lv_anim.c ****  * @file lv_anim.c
   3:..\..\..\arduinoLCD\test\Pain Drain\libraries\lvgl\src\misc/lv_anim.c ****  *
   4:..\..\..\arduinoLCD\test\Pain Drain\libraries\lvgl\src\misc/lv_anim.c ****  */
   5:..\..\..\arduinoLCD\test\Pain Drain\libraries\lvgl\src\misc/lv_anim.c **** 
   6:..\..\..\arduinoLCD\test\Pain Drain\libraries\lvgl\src\misc/lv_anim.c **** /*********************
   7:..\..\..\arduinoLCD\test\Pain Drain\libraries\lvgl\src\misc/lv_anim.c ****  *      INCLUDES
   8:..\..\..\arduinoLCD\test\Pain Drain\libraries\lvgl\src\misc/lv_anim.c ****  *********************/
   9:..\..\..\arduinoLCD\test\Pain Drain\libraries\lvgl\src\misc/lv_anim.c **** #include "lv_anim.h"
  10:..\..\..\arduinoLCD\test\Pain Drain\libraries\lvgl\src\misc/lv_anim.c **** 
  11:..\..\..\arduinoLCD\test\Pain Drain\libraries\lvgl\src\misc/lv_anim.c **** #include "../hal/lv_hal_tick.h"
  12:..\..\..\arduinoLCD\test\Pain Drain\libraries\lvgl\src\misc/lv_anim.c **** #include "lv_assert.h"
  13:..\..\..\arduinoLCD\test\Pain Drain\libraries\lvgl\src\misc/lv_anim.c **** #include "lv_timer.h"
  14:..\..\..\arduinoLCD\test\Pain Drain\libraries\lvgl\src\misc/lv_anim.c **** #include "lv_math.h"
  15:..\..\..\arduinoLCD\test\Pain Drain\libraries\lvgl\src\misc/lv_anim.c **** #include "lv_mem.h"
  16:..\..\..\arduinoLCD\test\Pain Drain\libraries\lvgl\src\misc/lv_anim.c **** #include "lv_gc.h"
  17:..\..\..\arduinoLCD\test\Pain Drain\libraries\lvgl\src\misc/lv_anim.c **** 
  18:..\..\..\arduinoLCD\test\Pain Drain\libraries\lvgl\src\misc/lv_anim.c **** /*********************
  19:..\..\..\arduinoLCD\test\Pain Drain\libraries\lvgl\src\misc/lv_anim.c ****  *      DEFINES
  20:..\..\..\arduinoLCD\test\Pain Drain\libraries\lvgl\src\misc/lv_anim.c ****  *********************/
  21:..\..\..\arduinoLCD\test\Pain Drain\libraries\lvgl\src\misc/lv_anim.c **** #define LV_ANIM_RESOLUTION 1024
  22:..\..\..\arduinoLCD\test\Pain Drain\libraries\lvgl\src\misc/lv_anim.c **** #define LV_ANIM_RES_SHIFT 10
  23:..\..\..\arduinoLCD\test\Pain Drain\libraries\lvgl\src\misc/lv_anim.c **** 
  24:..\..\..\arduinoLCD\test\Pain Drain\libraries\lvgl\src\misc/lv_anim.c **** /**********************
  25:..\..\..\arduinoLCD\test\Pain Drain\libraries\lvgl\src\misc/lv_anim.c ****  *      TYPEDEFS
  26:..\..\..\arduinoLCD\test\Pain Drain\libraries\lvgl\src\misc/lv_anim.c ****  **********************/
  27:..\..\..\arduinoLCD\test\Pain Drain\libraries\lvgl\src\misc/lv_anim.c **** 
  28:..\..\..\arduinoLCD\test\Pain Drain\libraries\lvgl\src\misc/lv_anim.c **** /**********************
  29:..\..\..\arduinoLCD\test\Pain Drain\libraries\lvgl\src\misc/lv_anim.c ****  *  STATIC PROTOTYPES
  30:..\..\..\arduinoLCD\test\Pain Drain\libraries\lvgl\src\misc/lv_anim.c ****  **********************/
  31:..\..\..\arduinoLCD\test\Pain Drain\libraries\lvgl\src\misc/lv_anim.c **** static void anim_timer(lv_timer_t * param);
ARM GAS  C:\Users\haske\AppData\Local\Temp\cceAapTu.s 			page 2


  32:..\..\..\arduinoLCD\test\Pain Drain\libraries\lvgl\src\misc/lv_anim.c **** static void anim_mark_list_change(void);
  33:..\..\..\arduinoLCD\test\Pain Drain\libraries\lvgl\src\misc/lv_anim.c **** static void anim_ready_handler(lv_anim_t * a);
  34:..\..\..\arduinoLCD\test\Pain Drain\libraries\lvgl\src\misc/lv_anim.c **** 
  35:..\..\..\arduinoLCD\test\Pain Drain\libraries\lvgl\src\misc/lv_anim.c **** /**********************
  36:..\..\..\arduinoLCD\test\Pain Drain\libraries\lvgl\src\misc/lv_anim.c ****  *  STATIC VARIABLES
  37:..\..\..\arduinoLCD\test\Pain Drain\libraries\lvgl\src\misc/lv_anim.c ****  **********************/
  38:..\..\..\arduinoLCD\test\Pain Drain\libraries\lvgl\src\misc/lv_anim.c **** static uint32_t last_timer_run;
  39:..\..\..\arduinoLCD\test\Pain Drain\libraries\lvgl\src\misc/lv_anim.c **** static bool anim_list_changed;
  40:..\..\..\arduinoLCD\test\Pain Drain\libraries\lvgl\src\misc/lv_anim.c **** static bool anim_run_round;
  41:..\..\..\arduinoLCD\test\Pain Drain\libraries\lvgl\src\misc/lv_anim.c **** static lv_timer_t * _lv_anim_tmr;
  42:..\..\..\arduinoLCD\test\Pain Drain\libraries\lvgl\src\misc/lv_anim.c **** 
  43:..\..\..\arduinoLCD\test\Pain Drain\libraries\lvgl\src\misc/lv_anim.c **** /**********************
  44:..\..\..\arduinoLCD\test\Pain Drain\libraries\lvgl\src\misc/lv_anim.c ****  *      MACROS
  45:..\..\..\arduinoLCD\test\Pain Drain\libraries\lvgl\src\misc/lv_anim.c ****  **********************/
  46:..\..\..\arduinoLCD\test\Pain Drain\libraries\lvgl\src\misc/lv_anim.c **** #if LV_LOG_TRACE_ANIM
  47:..\..\..\arduinoLCD\test\Pain Drain\libraries\lvgl\src\misc/lv_anim.c ****     #define TRACE_ANIM(...) LV_LOG_TRACE(__VA_ARGS__)
  48:..\..\..\arduinoLCD\test\Pain Drain\libraries\lvgl\src\misc/lv_anim.c **** #else
  49:..\..\..\arduinoLCD\test\Pain Drain\libraries\lvgl\src\misc/lv_anim.c ****     #define TRACE_ANIM(...)
  50:..\..\..\arduinoLCD\test\Pain Drain\libraries\lvgl\src\misc/lv_anim.c **** #endif
  51:..\..\..\arduinoLCD\test\Pain Drain\libraries\lvgl\src\misc/lv_anim.c **** 
  52:..\..\..\arduinoLCD\test\Pain Drain\libraries\lvgl\src\misc/lv_anim.c **** 
  53:..\..\..\arduinoLCD\test\Pain Drain\libraries\lvgl\src\misc/lv_anim.c **** /**********************
  54:..\..\..\arduinoLCD\test\Pain Drain\libraries\lvgl\src\misc/lv_anim.c ****  *   GLOBAL FUNCTIONS
  55:..\..\..\arduinoLCD\test\Pain Drain\libraries\lvgl\src\misc/lv_anim.c ****  **********************/
  56:..\..\..\arduinoLCD\test\Pain Drain\libraries\lvgl\src\misc/lv_anim.c **** 
  57:..\..\..\arduinoLCD\test\Pain Drain\libraries\lvgl\src\misc/lv_anim.c **** void _lv_anim_core_init(void)
  58:..\..\..\arduinoLCD\test\Pain Drain\libraries\lvgl\src\misc/lv_anim.c **** {
  59:..\..\..\arduinoLCD\test\Pain Drain\libraries\lvgl\src\misc/lv_anim.c ****     _lv_ll_init(&LV_GC_ROOT(_lv_anim_ll), sizeof(lv_anim_t));
  60:..\..\..\arduinoLCD\test\Pain Drain\libraries\lvgl\src\misc/lv_anim.c ****     _lv_anim_tmr = lv_timer_create(anim_timer, LV_DISP_DEF_REFR_PERIOD, NULL);
  61:..\..\..\arduinoLCD\test\Pain Drain\libraries\lvgl\src\misc/lv_anim.c ****     anim_mark_list_change(); /*Turn off the animation timer*/
  62:..\..\..\arduinoLCD\test\Pain Drain\libraries\lvgl\src\misc/lv_anim.c ****     anim_list_changed = false;
  63:..\..\..\arduinoLCD\test\Pain Drain\libraries\lvgl\src\misc/lv_anim.c **** }
  64:..\..\..\arduinoLCD\test\Pain Drain\libraries\lvgl\src\misc/lv_anim.c **** 
  65:..\..\..\arduinoLCD\test\Pain Drain\libraries\lvgl\src\misc/lv_anim.c **** void lv_anim_init(lv_anim_t * a)
  66:..\..\..\arduinoLCD\test\Pain Drain\libraries\lvgl\src\misc/lv_anim.c **** {
  67:..\..\..\arduinoLCD\test\Pain Drain\libraries\lvgl\src\misc/lv_anim.c ****     lv_memset_00(a, sizeof(lv_anim_t));
  68:..\..\..\arduinoLCD\test\Pain Drain\libraries\lvgl\src\misc/lv_anim.c ****     a->time = 500;
  69:..\..\..\arduinoLCD\test\Pain Drain\libraries\lvgl\src\misc/lv_anim.c ****     a->start_value = 0;
  70:..\..\..\arduinoLCD\test\Pain Drain\libraries\lvgl\src\misc/lv_anim.c ****     a->end_value = 100;
  71:..\..\..\arduinoLCD\test\Pain Drain\libraries\lvgl\src\misc/lv_anim.c ****     a->repeat_cnt = 1;
  72:..\..\..\arduinoLCD\test\Pain Drain\libraries\lvgl\src\misc/lv_anim.c ****     a->path_cb = lv_anim_path_linear;
  73:..\..\..\arduinoLCD\test\Pain Drain\libraries\lvgl\src\misc/lv_anim.c ****     a->early_apply = 1;
  74:..\..\..\arduinoLCD\test\Pain Drain\libraries\lvgl\src\misc/lv_anim.c **** }
  75:..\..\..\arduinoLCD\test\Pain Drain\libraries\lvgl\src\misc/lv_anim.c **** 
  76:..\..\..\arduinoLCD\test\Pain Drain\libraries\lvgl\src\misc/lv_anim.c **** lv_anim_t * lv_anim_start(const lv_anim_t * a)
  77:..\..\..\arduinoLCD\test\Pain Drain\libraries\lvgl\src\misc/lv_anim.c **** {
  78:..\..\..\arduinoLCD\test\Pain Drain\libraries\lvgl\src\misc/lv_anim.c ****     TRACE_ANIM("begin");
  79:..\..\..\arduinoLCD\test\Pain Drain\libraries\lvgl\src\misc/lv_anim.c **** 
  80:..\..\..\arduinoLCD\test\Pain Drain\libraries\lvgl\src\misc/lv_anim.c ****     /*Do not let two animations for the same 'var' with the same 'exec_cb'*/
  81:..\..\..\arduinoLCD\test\Pain Drain\libraries\lvgl\src\misc/lv_anim.c ****     if(a->exec_cb != NULL) lv_anim_del(a->var, a->exec_cb); /*exec_cb == NULL would delete all anim
  82:..\..\..\arduinoLCD\test\Pain Drain\libraries\lvgl\src\misc/lv_anim.c **** 
  83:..\..\..\arduinoLCD\test\Pain Drain\libraries\lvgl\src\misc/lv_anim.c ****     /*If the list is empty the anim timer was suspended and it's last run measure is invalid*/
  84:..\..\..\arduinoLCD\test\Pain Drain\libraries\lvgl\src\misc/lv_anim.c ****     if(_lv_ll_is_empty(&LV_GC_ROOT(_lv_anim_ll))) {
  85:..\..\..\arduinoLCD\test\Pain Drain\libraries\lvgl\src\misc/lv_anim.c ****         last_timer_run = lv_tick_get();
  86:..\..\..\arduinoLCD\test\Pain Drain\libraries\lvgl\src\misc/lv_anim.c ****     }
  87:..\..\..\arduinoLCD\test\Pain Drain\libraries\lvgl\src\misc/lv_anim.c **** 
  88:..\..\..\arduinoLCD\test\Pain Drain\libraries\lvgl\src\misc/lv_anim.c ****     /*Add the new animation to the animation linked list*/
ARM GAS  C:\Users\haske\AppData\Local\Temp\cceAapTu.s 			page 3


  89:..\..\..\arduinoLCD\test\Pain Drain\libraries\lvgl\src\misc/lv_anim.c ****     lv_anim_t * new_anim = _lv_ll_ins_head(&LV_GC_ROOT(_lv_anim_ll));
  90:..\..\..\arduinoLCD\test\Pain Drain\libraries\lvgl\src\misc/lv_anim.c ****     LV_ASSERT_MALLOC(new_anim);
  91:..\..\..\arduinoLCD\test\Pain Drain\libraries\lvgl\src\misc/lv_anim.c ****     if(new_anim == NULL) return NULL;
  92:..\..\..\arduinoLCD\test\Pain Drain\libraries\lvgl\src\misc/lv_anim.c **** 
  93:..\..\..\arduinoLCD\test\Pain Drain\libraries\lvgl\src\misc/lv_anim.c ****     /*Initialize the animation descriptor*/
  94:..\..\..\arduinoLCD\test\Pain Drain\libraries\lvgl\src\misc/lv_anim.c ****     lv_memcpy(new_anim, a, sizeof(lv_anim_t));
  95:..\..\..\arduinoLCD\test\Pain Drain\libraries\lvgl\src\misc/lv_anim.c ****     if(a->var == a) new_anim->var = new_anim;
  96:..\..\..\arduinoLCD\test\Pain Drain\libraries\lvgl\src\misc/lv_anim.c ****     new_anim->run_round = anim_run_round;
  97:..\..\..\arduinoLCD\test\Pain Drain\libraries\lvgl\src\misc/lv_anim.c **** 
  98:..\..\..\arduinoLCD\test\Pain Drain\libraries\lvgl\src\misc/lv_anim.c ****     /*Set the start value*/
  99:..\..\..\arduinoLCD\test\Pain Drain\libraries\lvgl\src\misc/lv_anim.c ****     if(new_anim->early_apply) {
 100:..\..\..\arduinoLCD\test\Pain Drain\libraries\lvgl\src\misc/lv_anim.c ****         if(new_anim->get_value_cb) {
 101:..\..\..\arduinoLCD\test\Pain Drain\libraries\lvgl\src\misc/lv_anim.c ****             int32_t v_ofs = new_anim->get_value_cb(new_anim);
 102:..\..\..\arduinoLCD\test\Pain Drain\libraries\lvgl\src\misc/lv_anim.c ****             new_anim->start_value += v_ofs;
 103:..\..\..\arduinoLCD\test\Pain Drain\libraries\lvgl\src\misc/lv_anim.c ****             new_anim->end_value += v_ofs;
 104:..\..\..\arduinoLCD\test\Pain Drain\libraries\lvgl\src\misc/lv_anim.c ****         }
 105:..\..\..\arduinoLCD\test\Pain Drain\libraries\lvgl\src\misc/lv_anim.c **** 
 106:..\..\..\arduinoLCD\test\Pain Drain\libraries\lvgl\src\misc/lv_anim.c ****         if(new_anim->exec_cb && new_anim->var) new_anim->exec_cb(new_anim->var, new_anim->start_val
 107:..\..\..\arduinoLCD\test\Pain Drain\libraries\lvgl\src\misc/lv_anim.c ****     }
 108:..\..\..\arduinoLCD\test\Pain Drain\libraries\lvgl\src\misc/lv_anim.c **** 
 109:..\..\..\arduinoLCD\test\Pain Drain\libraries\lvgl\src\misc/lv_anim.c ****     /*Creating an animation changed the linked list.
 110:..\..\..\arduinoLCD\test\Pain Drain\libraries\lvgl\src\misc/lv_anim.c ****      *It's important if it happens in a ready callback. (see `anim_timer`)*/
 111:..\..\..\arduinoLCD\test\Pain Drain\libraries\lvgl\src\misc/lv_anim.c ****     anim_mark_list_change();
 112:..\..\..\arduinoLCD\test\Pain Drain\libraries\lvgl\src\misc/lv_anim.c **** 
 113:..\..\..\arduinoLCD\test\Pain Drain\libraries\lvgl\src\misc/lv_anim.c ****     TRACE_ANIM("finished");
 114:..\..\..\arduinoLCD\test\Pain Drain\libraries\lvgl\src\misc/lv_anim.c ****     return new_anim;
 115:..\..\..\arduinoLCD\test\Pain Drain\libraries\lvgl\src\misc/lv_anim.c **** }
 116:..\..\..\arduinoLCD\test\Pain Drain\libraries\lvgl\src\misc/lv_anim.c **** 
 117:..\..\..\arduinoLCD\test\Pain Drain\libraries\lvgl\src\misc/lv_anim.c **** uint32_t lv_anim_get_playtime(lv_anim_t * a)
 118:..\..\..\arduinoLCD\test\Pain Drain\libraries\lvgl\src\misc/lv_anim.c **** {
 119:..\..\..\arduinoLCD\test\Pain Drain\libraries\lvgl\src\misc/lv_anim.c ****     uint32_t playtime = LV_ANIM_PLAYTIME_INFINITE;
 120:..\..\..\arduinoLCD\test\Pain Drain\libraries\lvgl\src\misc/lv_anim.c **** 
 121:..\..\..\arduinoLCD\test\Pain Drain\libraries\lvgl\src\misc/lv_anim.c ****     if(a->repeat_cnt == LV_ANIM_REPEAT_INFINITE)
 122:..\..\..\arduinoLCD\test\Pain Drain\libraries\lvgl\src\misc/lv_anim.c ****         return playtime;
 123:..\..\..\arduinoLCD\test\Pain Drain\libraries\lvgl\src\misc/lv_anim.c **** 
 124:..\..\..\arduinoLCD\test\Pain Drain\libraries\lvgl\src\misc/lv_anim.c ****     playtime = a->time - a->act_time;
 125:..\..\..\arduinoLCD\test\Pain Drain\libraries\lvgl\src\misc/lv_anim.c ****     if(a->playback_now == 0)
 126:..\..\..\arduinoLCD\test\Pain Drain\libraries\lvgl\src\misc/lv_anim.c ****         playtime += a->playback_delay + a->playback_time;
 127:..\..\..\arduinoLCD\test\Pain Drain\libraries\lvgl\src\misc/lv_anim.c **** 
 128:..\..\..\arduinoLCD\test\Pain Drain\libraries\lvgl\src\misc/lv_anim.c ****     if(a->repeat_cnt <= 1)
 129:..\..\..\arduinoLCD\test\Pain Drain\libraries\lvgl\src\misc/lv_anim.c ****         return playtime;
 130:..\..\..\arduinoLCD\test\Pain Drain\libraries\lvgl\src\misc/lv_anim.c **** 
 131:..\..\..\arduinoLCD\test\Pain Drain\libraries\lvgl\src\misc/lv_anim.c ****     playtime += (a->repeat_delay + a->time +
 132:..\..\..\arduinoLCD\test\Pain Drain\libraries\lvgl\src\misc/lv_anim.c ****                  a->playback_delay + a->playback_time) *
 133:..\..\..\arduinoLCD\test\Pain Drain\libraries\lvgl\src\misc/lv_anim.c ****                 (a->repeat_cnt - 1);
 134:..\..\..\arduinoLCD\test\Pain Drain\libraries\lvgl\src\misc/lv_anim.c **** 
 135:..\..\..\arduinoLCD\test\Pain Drain\libraries\lvgl\src\misc/lv_anim.c ****     return playtime;
 136:..\..\..\arduinoLCD\test\Pain Drain\libraries\lvgl\src\misc/lv_anim.c **** }
 137:..\..\..\arduinoLCD\test\Pain Drain\libraries\lvgl\src\misc/lv_anim.c **** 
 138:..\..\..\arduinoLCD\test\Pain Drain\libraries\lvgl\src\misc/lv_anim.c **** bool lv_anim_del(void * var, lv_anim_exec_xcb_t exec_cb)
 139:..\..\..\arduinoLCD\test\Pain Drain\libraries\lvgl\src\misc/lv_anim.c **** {
 140:..\..\..\arduinoLCD\test\Pain Drain\libraries\lvgl\src\misc/lv_anim.c ****     lv_anim_t * a;
 141:..\..\..\arduinoLCD\test\Pain Drain\libraries\lvgl\src\misc/lv_anim.c ****     lv_anim_t * a_next;
 142:..\..\..\arduinoLCD\test\Pain Drain\libraries\lvgl\src\misc/lv_anim.c ****     bool del = false;
 143:..\..\..\arduinoLCD\test\Pain Drain\libraries\lvgl\src\misc/lv_anim.c ****     a        = _lv_ll_get_head(&LV_GC_ROOT(_lv_anim_ll));
 144:..\..\..\arduinoLCD\test\Pain Drain\libraries\lvgl\src\misc/lv_anim.c ****     while(a != NULL) {
 145:..\..\..\arduinoLCD\test\Pain Drain\libraries\lvgl\src\misc/lv_anim.c ****         /*'a' might be deleted, so get the next object while 'a' is valid*/
ARM GAS  C:\Users\haske\AppData\Local\Temp\cceAapTu.s 			page 4


 146:..\..\..\arduinoLCD\test\Pain Drain\libraries\lvgl\src\misc/lv_anim.c ****         a_next = _lv_ll_get_next(&LV_GC_ROOT(_lv_anim_ll), a);
 147:..\..\..\arduinoLCD\test\Pain Drain\libraries\lvgl\src\misc/lv_anim.c **** 
 148:..\..\..\arduinoLCD\test\Pain Drain\libraries\lvgl\src\misc/lv_anim.c ****         if((a->var == var || var == NULL) && (a->exec_cb == exec_cb || exec_cb == NULL)) {
 149:..\..\..\arduinoLCD\test\Pain Drain\libraries\lvgl\src\misc/lv_anim.c ****             _lv_ll_remove(&LV_GC_ROOT(_lv_anim_ll), a);
 150:..\..\..\arduinoLCD\test\Pain Drain\libraries\lvgl\src\misc/lv_anim.c ****             if(a->deleted_cb != NULL) a->deleted_cb(a);
 151:..\..\..\arduinoLCD\test\Pain Drain\libraries\lvgl\src\misc/lv_anim.c ****             lv_mem_free(a);
 152:..\..\..\arduinoLCD\test\Pain Drain\libraries\lvgl\src\misc/lv_anim.c ****             anim_mark_list_change(); /*Read by `anim_timer`. It need to know if a delete occurred i
 153:..\..\..\arduinoLCD\test\Pain Drain\libraries\lvgl\src\misc/lv_anim.c ****                                        the linked list*/
 154:..\..\..\arduinoLCD\test\Pain Drain\libraries\lvgl\src\misc/lv_anim.c ****             del = true;
 155:..\..\..\arduinoLCD\test\Pain Drain\libraries\lvgl\src\misc/lv_anim.c ****         }
 156:..\..\..\arduinoLCD\test\Pain Drain\libraries\lvgl\src\misc/lv_anim.c **** 
 157:..\..\..\arduinoLCD\test\Pain Drain\libraries\lvgl\src\misc/lv_anim.c ****         a = a_next;
 158:..\..\..\arduinoLCD\test\Pain Drain\libraries\lvgl\src\misc/lv_anim.c ****     }
 159:..\..\..\arduinoLCD\test\Pain Drain\libraries\lvgl\src\misc/lv_anim.c **** 
 160:..\..\..\arduinoLCD\test\Pain Drain\libraries\lvgl\src\misc/lv_anim.c ****     return del;
 161:..\..\..\arduinoLCD\test\Pain Drain\libraries\lvgl\src\misc/lv_anim.c **** }
 162:..\..\..\arduinoLCD\test\Pain Drain\libraries\lvgl\src\misc/lv_anim.c **** 
 163:..\..\..\arduinoLCD\test\Pain Drain\libraries\lvgl\src\misc/lv_anim.c **** void lv_anim_del_all(void)
 164:..\..\..\arduinoLCD\test\Pain Drain\libraries\lvgl\src\misc/lv_anim.c **** {
 165:..\..\..\arduinoLCD\test\Pain Drain\libraries\lvgl\src\misc/lv_anim.c ****     _lv_ll_clear(&LV_GC_ROOT(_lv_anim_ll));
 166:..\..\..\arduinoLCD\test\Pain Drain\libraries\lvgl\src\misc/lv_anim.c ****     anim_mark_list_change();
 167:..\..\..\arduinoLCD\test\Pain Drain\libraries\lvgl\src\misc/lv_anim.c **** }
 168:..\..\..\arduinoLCD\test\Pain Drain\libraries\lvgl\src\misc/lv_anim.c **** 
 169:..\..\..\arduinoLCD\test\Pain Drain\libraries\lvgl\src\misc/lv_anim.c **** lv_anim_t * lv_anim_get(void * var, lv_anim_exec_xcb_t exec_cb)
 170:..\..\..\arduinoLCD\test\Pain Drain\libraries\lvgl\src\misc/lv_anim.c **** {
 171:..\..\..\arduinoLCD\test\Pain Drain\libraries\lvgl\src\misc/lv_anim.c ****     lv_anim_t * a;
 172:..\..\..\arduinoLCD\test\Pain Drain\libraries\lvgl\src\misc/lv_anim.c ****     _LV_LL_READ(&LV_GC_ROOT(_lv_anim_ll), a) {
 173:..\..\..\arduinoLCD\test\Pain Drain\libraries\lvgl\src\misc/lv_anim.c ****         if(a->var == var && (a->exec_cb == exec_cb || exec_cb == NULL)) {
 174:..\..\..\arduinoLCD\test\Pain Drain\libraries\lvgl\src\misc/lv_anim.c ****             return a;
 175:..\..\..\arduinoLCD\test\Pain Drain\libraries\lvgl\src\misc/lv_anim.c ****         }
 176:..\..\..\arduinoLCD\test\Pain Drain\libraries\lvgl\src\misc/lv_anim.c ****     }
 177:..\..\..\arduinoLCD\test\Pain Drain\libraries\lvgl\src\misc/lv_anim.c **** 
 178:..\..\..\arduinoLCD\test\Pain Drain\libraries\lvgl\src\misc/lv_anim.c ****     return NULL;
 179:..\..\..\arduinoLCD\test\Pain Drain\libraries\lvgl\src\misc/lv_anim.c **** }
 180:..\..\..\arduinoLCD\test\Pain Drain\libraries\lvgl\src\misc/lv_anim.c **** 
 181:..\..\..\arduinoLCD\test\Pain Drain\libraries\lvgl\src\misc/lv_anim.c **** struct _lv_timer_t * lv_anim_get_timer(void)
 182:..\..\..\arduinoLCD\test\Pain Drain\libraries\lvgl\src\misc/lv_anim.c **** {
 183:..\..\..\arduinoLCD\test\Pain Drain\libraries\lvgl\src\misc/lv_anim.c ****     return _lv_anim_tmr;
 184:..\..\..\arduinoLCD\test\Pain Drain\libraries\lvgl\src\misc/lv_anim.c **** }
 185:..\..\..\arduinoLCD\test\Pain Drain\libraries\lvgl\src\misc/lv_anim.c **** 
 186:..\..\..\arduinoLCD\test\Pain Drain\libraries\lvgl\src\misc/lv_anim.c **** uint16_t lv_anim_count_running(void)
 187:..\..\..\arduinoLCD\test\Pain Drain\libraries\lvgl\src\misc/lv_anim.c **** {
 188:..\..\..\arduinoLCD\test\Pain Drain\libraries\lvgl\src\misc/lv_anim.c ****     uint16_t cnt = 0;
 189:..\..\..\arduinoLCD\test\Pain Drain\libraries\lvgl\src\misc/lv_anim.c ****     lv_anim_t * a;
 190:..\..\..\arduinoLCD\test\Pain Drain\libraries\lvgl\src\misc/lv_anim.c ****     _LV_LL_READ(&LV_GC_ROOT(_lv_anim_ll), a) cnt++;
 191:..\..\..\arduinoLCD\test\Pain Drain\libraries\lvgl\src\misc/lv_anim.c **** 
 192:..\..\..\arduinoLCD\test\Pain Drain\libraries\lvgl\src\misc/lv_anim.c ****     return cnt;
 193:..\..\..\arduinoLCD\test\Pain Drain\libraries\lvgl\src\misc/lv_anim.c **** }
 194:..\..\..\arduinoLCD\test\Pain Drain\libraries\lvgl\src\misc/lv_anim.c **** 
 195:..\..\..\arduinoLCD\test\Pain Drain\libraries\lvgl\src\misc/lv_anim.c **** uint32_t lv_anim_speed_to_time(uint32_t speed, int32_t start, int32_t end)
 196:..\..\..\arduinoLCD\test\Pain Drain\libraries\lvgl\src\misc/lv_anim.c **** {
 197:..\..\..\arduinoLCD\test\Pain Drain\libraries\lvgl\src\misc/lv_anim.c ****     uint32_t d    = LV_ABS(start - end);
 198:..\..\..\arduinoLCD\test\Pain Drain\libraries\lvgl\src\misc/lv_anim.c ****     uint32_t time = (d * 1000) / speed;
 199:..\..\..\arduinoLCD\test\Pain Drain\libraries\lvgl\src\misc/lv_anim.c **** 
 200:..\..\..\arduinoLCD\test\Pain Drain\libraries\lvgl\src\misc/lv_anim.c ****     if(time == 0) {
 201:..\..\..\arduinoLCD\test\Pain Drain\libraries\lvgl\src\misc/lv_anim.c ****         time++;
 202:..\..\..\arduinoLCD\test\Pain Drain\libraries\lvgl\src\misc/lv_anim.c ****     }
ARM GAS  C:\Users\haske\AppData\Local\Temp\cceAapTu.s 			page 5


 203:..\..\..\arduinoLCD\test\Pain Drain\libraries\lvgl\src\misc/lv_anim.c **** 
 204:..\..\..\arduinoLCD\test\Pain Drain\libraries\lvgl\src\misc/lv_anim.c ****     return time;
 205:..\..\..\arduinoLCD\test\Pain Drain\libraries\lvgl\src\misc/lv_anim.c **** }
 206:..\..\..\arduinoLCD\test\Pain Drain\libraries\lvgl\src\misc/lv_anim.c **** 
 207:..\..\..\arduinoLCD\test\Pain Drain\libraries\lvgl\src\misc/lv_anim.c **** void lv_anim_refr_now(void)
 208:..\..\..\arduinoLCD\test\Pain Drain\libraries\lvgl\src\misc/lv_anim.c **** {
 209:..\..\..\arduinoLCD\test\Pain Drain\libraries\lvgl\src\misc/lv_anim.c ****     anim_timer(NULL);
 210:..\..\..\arduinoLCD\test\Pain Drain\libraries\lvgl\src\misc/lv_anim.c **** }
 211:..\..\..\arduinoLCD\test\Pain Drain\libraries\lvgl\src\misc/lv_anim.c **** 
 212:..\..\..\arduinoLCD\test\Pain Drain\libraries\lvgl\src\misc/lv_anim.c **** int32_t lv_anim_path_linear(const lv_anim_t * a)
 213:..\..\..\arduinoLCD\test\Pain Drain\libraries\lvgl\src\misc/lv_anim.c **** {
 214:..\..\..\arduinoLCD\test\Pain Drain\libraries\lvgl\src\misc/lv_anim.c ****     /*Calculate the current step*/
 215:..\..\..\arduinoLCD\test\Pain Drain\libraries\lvgl\src\misc/lv_anim.c ****     int32_t step = lv_map(a->act_time, 0, a->time, 0, LV_ANIM_RESOLUTION);
 216:..\..\..\arduinoLCD\test\Pain Drain\libraries\lvgl\src\misc/lv_anim.c **** 
 217:..\..\..\arduinoLCD\test\Pain Drain\libraries\lvgl\src\misc/lv_anim.c ****     /*Get the new value which will be proportional to `step`
 218:..\..\..\arduinoLCD\test\Pain Drain\libraries\lvgl\src\misc/lv_anim.c ****      *and the `start` and `end` values*/
 219:..\..\..\arduinoLCD\test\Pain Drain\libraries\lvgl\src\misc/lv_anim.c ****     int32_t new_value;
 220:..\..\..\arduinoLCD\test\Pain Drain\libraries\lvgl\src\misc/lv_anim.c ****     new_value = step * (a->end_value - a->start_value);
 221:..\..\..\arduinoLCD\test\Pain Drain\libraries\lvgl\src\misc/lv_anim.c ****     new_value = new_value >> LV_ANIM_RES_SHIFT;
 222:..\..\..\arduinoLCD\test\Pain Drain\libraries\lvgl\src\misc/lv_anim.c ****     new_value += a->start_value;
 223:..\..\..\arduinoLCD\test\Pain Drain\libraries\lvgl\src\misc/lv_anim.c **** 
 224:..\..\..\arduinoLCD\test\Pain Drain\libraries\lvgl\src\misc/lv_anim.c ****     return new_value;
 225:..\..\..\arduinoLCD\test\Pain Drain\libraries\lvgl\src\misc/lv_anim.c **** }
 226:..\..\..\arduinoLCD\test\Pain Drain\libraries\lvgl\src\misc/lv_anim.c **** 
 227:..\..\..\arduinoLCD\test\Pain Drain\libraries\lvgl\src\misc/lv_anim.c **** int32_t lv_anim_path_ease_in(const lv_anim_t * a)
 228:..\..\..\arduinoLCD\test\Pain Drain\libraries\lvgl\src\misc/lv_anim.c **** {
 229:..\..\..\arduinoLCD\test\Pain Drain\libraries\lvgl\src\misc/lv_anim.c ****     /*Calculate the current step*/
 230:..\..\..\arduinoLCD\test\Pain Drain\libraries\lvgl\src\misc/lv_anim.c ****     uint32_t t = lv_map(a->act_time, 0, a->time, 0, LV_BEZIER_VAL_MAX);
 231:..\..\..\arduinoLCD\test\Pain Drain\libraries\lvgl\src\misc/lv_anim.c ****     int32_t step = lv_bezier3(t, 0, 50, 100, LV_BEZIER_VAL_MAX);
 232:..\..\..\arduinoLCD\test\Pain Drain\libraries\lvgl\src\misc/lv_anim.c **** 
 233:..\..\..\arduinoLCD\test\Pain Drain\libraries\lvgl\src\misc/lv_anim.c ****     int32_t new_value;
 234:..\..\..\arduinoLCD\test\Pain Drain\libraries\lvgl\src\misc/lv_anim.c ****     new_value = step * (a->end_value - a->start_value);
 235:..\..\..\arduinoLCD\test\Pain Drain\libraries\lvgl\src\misc/lv_anim.c ****     new_value = new_value >> LV_BEZIER_VAL_SHIFT;
 236:..\..\..\arduinoLCD\test\Pain Drain\libraries\lvgl\src\misc/lv_anim.c ****     new_value += a->start_value;
 237:..\..\..\arduinoLCD\test\Pain Drain\libraries\lvgl\src\misc/lv_anim.c **** 
 238:..\..\..\arduinoLCD\test\Pain Drain\libraries\lvgl\src\misc/lv_anim.c ****     return new_value;
 239:..\..\..\arduinoLCD\test\Pain Drain\libraries\lvgl\src\misc/lv_anim.c **** }
 240:..\..\..\arduinoLCD\test\Pain Drain\libraries\lvgl\src\misc/lv_anim.c **** 
 241:..\..\..\arduinoLCD\test\Pain Drain\libraries\lvgl\src\misc/lv_anim.c **** int32_t lv_anim_path_ease_out(const lv_anim_t * a)
 242:..\..\..\arduinoLCD\test\Pain Drain\libraries\lvgl\src\misc/lv_anim.c **** {
 243:..\..\..\arduinoLCD\test\Pain Drain\libraries\lvgl\src\misc/lv_anim.c ****     /*Calculate the current step*/
 244:..\..\..\arduinoLCD\test\Pain Drain\libraries\lvgl\src\misc/lv_anim.c ****     uint32_t t = lv_map(a->act_time, 0, a->time, 0, LV_BEZIER_VAL_MAX);
 245:..\..\..\arduinoLCD\test\Pain Drain\libraries\lvgl\src\misc/lv_anim.c ****     int32_t step = lv_bezier3(t, 0, 900, 950, LV_BEZIER_VAL_MAX);
 246:..\..\..\arduinoLCD\test\Pain Drain\libraries\lvgl\src\misc/lv_anim.c **** 
 247:..\..\..\arduinoLCD\test\Pain Drain\libraries\lvgl\src\misc/lv_anim.c ****     int32_t new_value;
 248:..\..\..\arduinoLCD\test\Pain Drain\libraries\lvgl\src\misc/lv_anim.c ****     new_value = step * (a->end_value - a->start_value);
 249:..\..\..\arduinoLCD\test\Pain Drain\libraries\lvgl\src\misc/lv_anim.c ****     new_value = new_value >> LV_BEZIER_VAL_SHIFT;
 250:..\..\..\arduinoLCD\test\Pain Drain\libraries\lvgl\src\misc/lv_anim.c ****     new_value += a->start_value;
 251:..\..\..\arduinoLCD\test\Pain Drain\libraries\lvgl\src\misc/lv_anim.c **** 
 252:..\..\..\arduinoLCD\test\Pain Drain\libraries\lvgl\src\misc/lv_anim.c ****     return new_value;
 253:..\..\..\arduinoLCD\test\Pain Drain\libraries\lvgl\src\misc/lv_anim.c **** }
 254:..\..\..\arduinoLCD\test\Pain Drain\libraries\lvgl\src\misc/lv_anim.c **** 
 255:..\..\..\arduinoLCD\test\Pain Drain\libraries\lvgl\src\misc/lv_anim.c **** int32_t lv_anim_path_ease_in_out(const lv_anim_t * a)
 256:..\..\..\arduinoLCD\test\Pain Drain\libraries\lvgl\src\misc/lv_anim.c **** {
 257:..\..\..\arduinoLCD\test\Pain Drain\libraries\lvgl\src\misc/lv_anim.c ****     /*Calculate the current step*/
 258:..\..\..\arduinoLCD\test\Pain Drain\libraries\lvgl\src\misc/lv_anim.c ****     uint32_t t = lv_map(a->act_time, 0, a->time, 0, LV_BEZIER_VAL_MAX);
 259:..\..\..\arduinoLCD\test\Pain Drain\libraries\lvgl\src\misc/lv_anim.c ****     int32_t step = lv_bezier3(t, 0, 50, 952, LV_BEZIER_VAL_MAX);
ARM GAS  C:\Users\haske\AppData\Local\Temp\cceAapTu.s 			page 6


 260:..\..\..\arduinoLCD\test\Pain Drain\libraries\lvgl\src\misc/lv_anim.c **** 
 261:..\..\..\arduinoLCD\test\Pain Drain\libraries\lvgl\src\misc/lv_anim.c ****     int32_t new_value;
 262:..\..\..\arduinoLCD\test\Pain Drain\libraries\lvgl\src\misc/lv_anim.c ****     new_value = step * (a->end_value - a->start_value);
 263:..\..\..\arduinoLCD\test\Pain Drain\libraries\lvgl\src\misc/lv_anim.c ****     new_value = new_value >> LV_BEZIER_VAL_SHIFT;
 264:..\..\..\arduinoLCD\test\Pain Drain\libraries\lvgl\src\misc/lv_anim.c ****     new_value += a->start_value;
 265:..\..\..\arduinoLCD\test\Pain Drain\libraries\lvgl\src\misc/lv_anim.c **** 
 266:..\..\..\arduinoLCD\test\Pain Drain\libraries\lvgl\src\misc/lv_anim.c ****     return new_value;
 267:..\..\..\arduinoLCD\test\Pain Drain\libraries\lvgl\src\misc/lv_anim.c **** }
 268:..\..\..\arduinoLCD\test\Pain Drain\libraries\lvgl\src\misc/lv_anim.c **** 
 269:..\..\..\arduinoLCD\test\Pain Drain\libraries\lvgl\src\misc/lv_anim.c **** int32_t lv_anim_path_overshoot(const lv_anim_t * a)
 270:..\..\..\arduinoLCD\test\Pain Drain\libraries\lvgl\src\misc/lv_anim.c **** {
 271:..\..\..\arduinoLCD\test\Pain Drain\libraries\lvgl\src\misc/lv_anim.c ****     /*Calculate the current step*/
 272:..\..\..\arduinoLCD\test\Pain Drain\libraries\lvgl\src\misc/lv_anim.c ****     uint32_t t = lv_map(a->act_time, 0, a->time, 0, LV_BEZIER_VAL_MAX);
 273:..\..\..\arduinoLCD\test\Pain Drain\libraries\lvgl\src\misc/lv_anim.c ****     int32_t step = lv_bezier3(t, 0, 1000, 1300, LV_BEZIER_VAL_MAX);
 274:..\..\..\arduinoLCD\test\Pain Drain\libraries\lvgl\src\misc/lv_anim.c **** 
 275:..\..\..\arduinoLCD\test\Pain Drain\libraries\lvgl\src\misc/lv_anim.c ****     int32_t new_value;
 276:..\..\..\arduinoLCD\test\Pain Drain\libraries\lvgl\src\misc/lv_anim.c ****     new_value = step * (a->end_value - a->start_value);
 277:..\..\..\arduinoLCD\test\Pain Drain\libraries\lvgl\src\misc/lv_anim.c ****     new_value = new_value >> LV_BEZIER_VAL_SHIFT;
 278:..\..\..\arduinoLCD\test\Pain Drain\libraries\lvgl\src\misc/lv_anim.c ****     new_value += a->start_value;
 279:..\..\..\arduinoLCD\test\Pain Drain\libraries\lvgl\src\misc/lv_anim.c **** 
 280:..\..\..\arduinoLCD\test\Pain Drain\libraries\lvgl\src\misc/lv_anim.c ****     return new_value;
 281:..\..\..\arduinoLCD\test\Pain Drain\libraries\lvgl\src\misc/lv_anim.c **** }
 282:..\..\..\arduinoLCD\test\Pain Drain\libraries\lvgl\src\misc/lv_anim.c **** 
 283:..\..\..\arduinoLCD\test\Pain Drain\libraries\lvgl\src\misc/lv_anim.c **** int32_t lv_anim_path_bounce(const lv_anim_t * a)
 284:..\..\..\arduinoLCD\test\Pain Drain\libraries\lvgl\src\misc/lv_anim.c **** {
 285:..\..\..\arduinoLCD\test\Pain Drain\libraries\lvgl\src\misc/lv_anim.c ****     /*Calculate the current step*/
 286:..\..\..\arduinoLCD\test\Pain Drain\libraries\lvgl\src\misc/lv_anim.c ****     int32_t t = lv_map(a->act_time, 0, a->time, 0, LV_BEZIER_VAL_MAX);
 287:..\..\..\arduinoLCD\test\Pain Drain\libraries\lvgl\src\misc/lv_anim.c ****     int32_t diff = (a->end_value - a->start_value);
 288:..\..\..\arduinoLCD\test\Pain Drain\libraries\lvgl\src\misc/lv_anim.c **** 
 289:..\..\..\arduinoLCD\test\Pain Drain\libraries\lvgl\src\misc/lv_anim.c ****     /*3 bounces has 5 parts: 3 down and 2 up. One part is t / 5 long*/
 290:..\..\..\arduinoLCD\test\Pain Drain\libraries\lvgl\src\misc/lv_anim.c **** 
 291:..\..\..\arduinoLCD\test\Pain Drain\libraries\lvgl\src\misc/lv_anim.c ****     if(t < 408) {
 292:..\..\..\arduinoLCD\test\Pain Drain\libraries\lvgl\src\misc/lv_anim.c ****         /*Go down*/
 293:..\..\..\arduinoLCD\test\Pain Drain\libraries\lvgl\src\misc/lv_anim.c ****         t = (t * 2500) >> LV_BEZIER_VAL_SHIFT; /*[0..1024] range*/
 294:..\..\..\arduinoLCD\test\Pain Drain\libraries\lvgl\src\misc/lv_anim.c ****     }
 295:..\..\..\arduinoLCD\test\Pain Drain\libraries\lvgl\src\misc/lv_anim.c ****     else if(t >= 408 && t < 614) {
 296:..\..\..\arduinoLCD\test\Pain Drain\libraries\lvgl\src\misc/lv_anim.c ****         /*First bounce back*/
 297:..\..\..\arduinoLCD\test\Pain Drain\libraries\lvgl\src\misc/lv_anim.c ****         t -= 408;
 298:..\..\..\arduinoLCD\test\Pain Drain\libraries\lvgl\src\misc/lv_anim.c ****         t    = t * 5; /*to [0..1024] range*/
 299:..\..\..\arduinoLCD\test\Pain Drain\libraries\lvgl\src\misc/lv_anim.c ****         t    = LV_BEZIER_VAL_MAX - t;
 300:..\..\..\arduinoLCD\test\Pain Drain\libraries\lvgl\src\misc/lv_anim.c ****         diff = diff / 20;
 301:..\..\..\arduinoLCD\test\Pain Drain\libraries\lvgl\src\misc/lv_anim.c ****     }
 302:..\..\..\arduinoLCD\test\Pain Drain\libraries\lvgl\src\misc/lv_anim.c ****     else if(t >= 614 && t < 819) {
 303:..\..\..\arduinoLCD\test\Pain Drain\libraries\lvgl\src\misc/lv_anim.c ****         /*Fall back*/
 304:..\..\..\arduinoLCD\test\Pain Drain\libraries\lvgl\src\misc/lv_anim.c ****         t -= 614;
 305:..\..\..\arduinoLCD\test\Pain Drain\libraries\lvgl\src\misc/lv_anim.c ****         t    = t * 5; /*to [0..1024] range*/
 306:..\..\..\arduinoLCD\test\Pain Drain\libraries\lvgl\src\misc/lv_anim.c ****         diff = diff / 20;
 307:..\..\..\arduinoLCD\test\Pain Drain\libraries\lvgl\src\misc/lv_anim.c ****     }
 308:..\..\..\arduinoLCD\test\Pain Drain\libraries\lvgl\src\misc/lv_anim.c ****     else if(t >= 819 && t < 921) {
 309:..\..\..\arduinoLCD\test\Pain Drain\libraries\lvgl\src\misc/lv_anim.c ****         /*Second bounce back*/
 310:..\..\..\arduinoLCD\test\Pain Drain\libraries\lvgl\src\misc/lv_anim.c ****         t -= 819;
 311:..\..\..\arduinoLCD\test\Pain Drain\libraries\lvgl\src\misc/lv_anim.c ****         t    = t * 10; /*to [0..1024] range*/
 312:..\..\..\arduinoLCD\test\Pain Drain\libraries\lvgl\src\misc/lv_anim.c ****         t    = LV_BEZIER_VAL_MAX - t;
 313:..\..\..\arduinoLCD\test\Pain Drain\libraries\lvgl\src\misc/lv_anim.c ****         diff = diff / 40;
 314:..\..\..\arduinoLCD\test\Pain Drain\libraries\lvgl\src\misc/lv_anim.c ****     }
 315:..\..\..\arduinoLCD\test\Pain Drain\libraries\lvgl\src\misc/lv_anim.c ****     else if(t >= 921 && t <= LV_BEZIER_VAL_MAX) {
 316:..\..\..\arduinoLCD\test\Pain Drain\libraries\lvgl\src\misc/lv_anim.c ****         /*Fall back*/
ARM GAS  C:\Users\haske\AppData\Local\Temp\cceAapTu.s 			page 7


 317:..\..\..\arduinoLCD\test\Pain Drain\libraries\lvgl\src\misc/lv_anim.c ****         t -= 921;
 318:..\..\..\arduinoLCD\test\Pain Drain\libraries\lvgl\src\misc/lv_anim.c ****         t    = t * 10; /*to [0..1024] range*/
 319:..\..\..\arduinoLCD\test\Pain Drain\libraries\lvgl\src\misc/lv_anim.c ****         diff = diff / 40;
 320:..\..\..\arduinoLCD\test\Pain Drain\libraries\lvgl\src\misc/lv_anim.c ****     }
 321:..\..\..\arduinoLCD\test\Pain Drain\libraries\lvgl\src\misc/lv_anim.c **** 
 322:..\..\..\arduinoLCD\test\Pain Drain\libraries\lvgl\src\misc/lv_anim.c ****     if(t > LV_BEZIER_VAL_MAX) t = LV_BEZIER_VAL_MAX;
 323:..\..\..\arduinoLCD\test\Pain Drain\libraries\lvgl\src\misc/lv_anim.c ****     if(t < 0) t = 0;
 324:..\..\..\arduinoLCD\test\Pain Drain\libraries\lvgl\src\misc/lv_anim.c ****     int32_t step = lv_bezier3(t, LV_BEZIER_VAL_MAX, 800, 500, 0);
 325:..\..\..\arduinoLCD\test\Pain Drain\libraries\lvgl\src\misc/lv_anim.c **** 
 326:..\..\..\arduinoLCD\test\Pain Drain\libraries\lvgl\src\misc/lv_anim.c ****     int32_t new_value;
 327:..\..\..\arduinoLCD\test\Pain Drain\libraries\lvgl\src\misc/lv_anim.c ****     new_value = step * diff;
 328:..\..\..\arduinoLCD\test\Pain Drain\libraries\lvgl\src\misc/lv_anim.c ****     new_value = new_value >> LV_BEZIER_VAL_SHIFT;
 329:..\..\..\arduinoLCD\test\Pain Drain\libraries\lvgl\src\misc/lv_anim.c ****     new_value = a->end_value - new_value;
 330:..\..\..\arduinoLCD\test\Pain Drain\libraries\lvgl\src\misc/lv_anim.c **** 
 331:..\..\..\arduinoLCD\test\Pain Drain\libraries\lvgl\src\misc/lv_anim.c ****     return new_value;
 332:..\..\..\arduinoLCD\test\Pain Drain\libraries\lvgl\src\misc/lv_anim.c **** }
 333:..\..\..\arduinoLCD\test\Pain Drain\libraries\lvgl\src\misc/lv_anim.c **** 
 334:..\..\..\arduinoLCD\test\Pain Drain\libraries\lvgl\src\misc/lv_anim.c **** int32_t lv_anim_path_step(const lv_anim_t * a)
 335:..\..\..\arduinoLCD\test\Pain Drain\libraries\lvgl\src\misc/lv_anim.c **** {
 336:..\..\..\arduinoLCD\test\Pain Drain\libraries\lvgl\src\misc/lv_anim.c ****     if(a->act_time >= a->time)
 337:..\..\..\arduinoLCD\test\Pain Drain\libraries\lvgl\src\misc/lv_anim.c ****         return a->end_value;
 338:..\..\..\arduinoLCD\test\Pain Drain\libraries\lvgl\src\misc/lv_anim.c ****     else
 339:..\..\..\arduinoLCD\test\Pain Drain\libraries\lvgl\src\misc/lv_anim.c ****         return a->start_value;
 340:..\..\..\arduinoLCD\test\Pain Drain\libraries\lvgl\src\misc/lv_anim.c **** }
 341:..\..\..\arduinoLCD\test\Pain Drain\libraries\lvgl\src\misc/lv_anim.c **** 
 342:..\..\..\arduinoLCD\test\Pain Drain\libraries\lvgl\src\misc/lv_anim.c **** /**********************
 343:..\..\..\arduinoLCD\test\Pain Drain\libraries\lvgl\src\misc/lv_anim.c ****  *   STATIC FUNCTIONS
 344:..\..\..\arduinoLCD\test\Pain Drain\libraries\lvgl\src\misc/lv_anim.c ****  **********************/
 345:..\..\..\arduinoLCD\test\Pain Drain\libraries\lvgl\src\misc/lv_anim.c **** 
 346:..\..\..\arduinoLCD\test\Pain Drain\libraries\lvgl\src\misc/lv_anim.c **** /**
 347:..\..\..\arduinoLCD\test\Pain Drain\libraries\lvgl\src\misc/lv_anim.c ****  * Periodically handle the animations.
 348:..\..\..\arduinoLCD\test\Pain Drain\libraries\lvgl\src\misc/lv_anim.c ****  * @param param unused
 349:..\..\..\arduinoLCD\test\Pain Drain\libraries\lvgl\src\misc/lv_anim.c ****  */
 350:..\..\..\arduinoLCD\test\Pain Drain\libraries\lvgl\src\misc/lv_anim.c **** static void anim_timer(lv_timer_t * param)
 351:..\..\..\arduinoLCD\test\Pain Drain\libraries\lvgl\src\misc/lv_anim.c **** {
 352:..\..\..\arduinoLCD\test\Pain Drain\libraries\lvgl\src\misc/lv_anim.c ****     LV_UNUSED(param);
 353:..\..\..\arduinoLCD\test\Pain Drain\libraries\lvgl\src\misc/lv_anim.c **** 
 354:..\..\..\arduinoLCD\test\Pain Drain\libraries\lvgl\src\misc/lv_anim.c ****     uint32_t elaps = lv_tick_elaps(last_timer_run);
 355:..\..\..\arduinoLCD\test\Pain Drain\libraries\lvgl\src\misc/lv_anim.c **** 
 356:..\..\..\arduinoLCD\test\Pain Drain\libraries\lvgl\src\misc/lv_anim.c ****     /*Flip the run round*/
 357:..\..\..\arduinoLCD\test\Pain Drain\libraries\lvgl\src\misc/lv_anim.c ****     anim_run_round = anim_run_round ? false : true;
 358:..\..\..\arduinoLCD\test\Pain Drain\libraries\lvgl\src\misc/lv_anim.c **** 
 359:..\..\..\arduinoLCD\test\Pain Drain\libraries\lvgl\src\misc/lv_anim.c ****     lv_anim_t * a = _lv_ll_get_head(&LV_GC_ROOT(_lv_anim_ll));
 360:..\..\..\arduinoLCD\test\Pain Drain\libraries\lvgl\src\misc/lv_anim.c **** 
 361:..\..\..\arduinoLCD\test\Pain Drain\libraries\lvgl\src\misc/lv_anim.c ****     while(a != NULL) {
 362:..\..\..\arduinoLCD\test\Pain Drain\libraries\lvgl\src\misc/lv_anim.c ****         /*It can be set by `lv_anim_del()` typically in `end_cb`. If set then an animation delete
 363:..\..\..\arduinoLCD\test\Pain Drain\libraries\lvgl\src\misc/lv_anim.c ****          * happened in `anim_ready_handler` which could make this linked list reading corrupt
 364:..\..\..\arduinoLCD\test\Pain Drain\libraries\lvgl\src\misc/lv_anim.c ****          * because the list is changed meanwhile
 365:..\..\..\arduinoLCD\test\Pain Drain\libraries\lvgl\src\misc/lv_anim.c ****          */
 366:..\..\..\arduinoLCD\test\Pain Drain\libraries\lvgl\src\misc/lv_anim.c ****         anim_list_changed = false;
 367:..\..\..\arduinoLCD\test\Pain Drain\libraries\lvgl\src\misc/lv_anim.c **** 
 368:..\..\..\arduinoLCD\test\Pain Drain\libraries\lvgl\src\misc/lv_anim.c ****         if(a->run_round != anim_run_round) {
 369:..\..\..\arduinoLCD\test\Pain Drain\libraries\lvgl\src\misc/lv_anim.c ****             a->run_round = anim_run_round; /*The list readying might be reset so need to know which
 370:..\..\..\arduinoLCD\test\Pain Drain\libraries\lvgl\src\misc/lv_anim.c **** 
 371:..\..\..\arduinoLCD\test\Pain Drain\libraries\lvgl\src\misc/lv_anim.c ****             /*The animation will run now for the first time. Call `start_cb`*/
 372:..\..\..\arduinoLCD\test\Pain Drain\libraries\lvgl\src\misc/lv_anim.c ****             int32_t new_act_time = a->act_time + elaps;
 373:..\..\..\arduinoLCD\test\Pain Drain\libraries\lvgl\src\misc/lv_anim.c ****             if(!a->start_cb_called && a->act_time <= 0 && new_act_time >= 0) {
ARM GAS  C:\Users\haske\AppData\Local\Temp\cceAapTu.s 			page 8


 374:..\..\..\arduinoLCD\test\Pain Drain\libraries\lvgl\src\misc/lv_anim.c ****                 if(a->early_apply == 0 && a->get_value_cb) {
 375:..\..\..\arduinoLCD\test\Pain Drain\libraries\lvgl\src\misc/lv_anim.c ****                     int32_t v_ofs = a->get_value_cb(a);
 376:..\..\..\arduinoLCD\test\Pain Drain\libraries\lvgl\src\misc/lv_anim.c ****                     a->start_value += v_ofs;
 377:..\..\..\arduinoLCD\test\Pain Drain\libraries\lvgl\src\misc/lv_anim.c ****                     a->end_value += v_ofs;
 378:..\..\..\arduinoLCD\test\Pain Drain\libraries\lvgl\src\misc/lv_anim.c ****                 }
 379:..\..\..\arduinoLCD\test\Pain Drain\libraries\lvgl\src\misc/lv_anim.c ****                 if(a->start_cb) a->start_cb(a);
 380:..\..\..\arduinoLCD\test\Pain Drain\libraries\lvgl\src\misc/lv_anim.c ****                 a->start_cb_called = 1;
 381:..\..\..\arduinoLCD\test\Pain Drain\libraries\lvgl\src\misc/lv_anim.c ****             }
 382:..\..\..\arduinoLCD\test\Pain Drain\libraries\lvgl\src\misc/lv_anim.c ****             a->act_time += elaps;
 383:..\..\..\arduinoLCD\test\Pain Drain\libraries\lvgl\src\misc/lv_anim.c ****             if(a->act_time >= 0) {
 384:..\..\..\arduinoLCD\test\Pain Drain\libraries\lvgl\src\misc/lv_anim.c ****                 if(a->act_time > a->time) a->act_time = a->time;
 385:..\..\..\arduinoLCD\test\Pain Drain\libraries\lvgl\src\misc/lv_anim.c **** 
 386:..\..\..\arduinoLCD\test\Pain Drain\libraries\lvgl\src\misc/lv_anim.c ****                 int32_t new_value;
 387:..\..\..\arduinoLCD\test\Pain Drain\libraries\lvgl\src\misc/lv_anim.c ****                 new_value = a->path_cb(a);
 388:..\..\..\arduinoLCD\test\Pain Drain\libraries\lvgl\src\misc/lv_anim.c **** 
 389:..\..\..\arduinoLCD\test\Pain Drain\libraries\lvgl\src\misc/lv_anim.c ****                 if(new_value != a->current_value) {
 390:..\..\..\arduinoLCD\test\Pain Drain\libraries\lvgl\src\misc/lv_anim.c ****                     a->current_value = new_value;
 391:..\..\..\arduinoLCD\test\Pain Drain\libraries\lvgl\src\misc/lv_anim.c ****                     /*Apply the calculated value*/
 392:..\..\..\arduinoLCD\test\Pain Drain\libraries\lvgl\src\misc/lv_anim.c ****                     if(a->exec_cb) a->exec_cb(a->var, new_value);
 393:..\..\..\arduinoLCD\test\Pain Drain\libraries\lvgl\src\misc/lv_anim.c ****                 }
 394:..\..\..\arduinoLCD\test\Pain Drain\libraries\lvgl\src\misc/lv_anim.c **** 
 395:..\..\..\arduinoLCD\test\Pain Drain\libraries\lvgl\src\misc/lv_anim.c ****                 /*If the time is elapsed the animation is ready*/
 396:..\..\..\arduinoLCD\test\Pain Drain\libraries\lvgl\src\misc/lv_anim.c ****                 if(a->act_time >= a->time) {
 397:..\..\..\arduinoLCD\test\Pain Drain\libraries\lvgl\src\misc/lv_anim.c ****                     anim_ready_handler(a);
 398:..\..\..\arduinoLCD\test\Pain Drain\libraries\lvgl\src\misc/lv_anim.c ****                 }
 399:..\..\..\arduinoLCD\test\Pain Drain\libraries\lvgl\src\misc/lv_anim.c ****             }
 400:..\..\..\arduinoLCD\test\Pain Drain\libraries\lvgl\src\misc/lv_anim.c ****         }
 401:..\..\..\arduinoLCD\test\Pain Drain\libraries\lvgl\src\misc/lv_anim.c **** 
 402:..\..\..\arduinoLCD\test\Pain Drain\libraries\lvgl\src\misc/lv_anim.c ****         /*If the linked list changed due to anim. delete then it's not safe to continue
 403:..\..\..\arduinoLCD\test\Pain Drain\libraries\lvgl\src\misc/lv_anim.c ****          *the reading of the list from here -> start from the head*/
 404:..\..\..\arduinoLCD\test\Pain Drain\libraries\lvgl\src\misc/lv_anim.c ****         if(anim_list_changed)
 405:..\..\..\arduinoLCD\test\Pain Drain\libraries\lvgl\src\misc/lv_anim.c ****             a = _lv_ll_get_head(&LV_GC_ROOT(_lv_anim_ll));
 406:..\..\..\arduinoLCD\test\Pain Drain\libraries\lvgl\src\misc/lv_anim.c ****         else
 407:..\..\..\arduinoLCD\test\Pain Drain\libraries\lvgl\src\misc/lv_anim.c ****             a = _lv_ll_get_next(&LV_GC_ROOT(_lv_anim_ll), a);
 408:..\..\..\arduinoLCD\test\Pain Drain\libraries\lvgl\src\misc/lv_anim.c ****     }
 409:..\..\..\arduinoLCD\test\Pain Drain\libraries\lvgl\src\misc/lv_anim.c **** 
 410:..\..\..\arduinoLCD\test\Pain Drain\libraries\lvgl\src\misc/lv_anim.c ****     last_timer_run = lv_tick_get();
 411:..\..\..\arduinoLCD\test\Pain Drain\libraries\lvgl\src\misc/lv_anim.c **** }
 412:..\..\..\arduinoLCD\test\Pain Drain\libraries\lvgl\src\misc/lv_anim.c **** 
 413:..\..\..\arduinoLCD\test\Pain Drain\libraries\lvgl\src\misc/lv_anim.c **** /**
 414:..\..\..\arduinoLCD\test\Pain Drain\libraries\lvgl\src\misc/lv_anim.c ****  * Called when an animation is ready to do the necessary thinks
 415:..\..\..\arduinoLCD\test\Pain Drain\libraries\lvgl\src\misc/lv_anim.c ****  * e.g. repeat, play back, delete etc.
 416:..\..\..\arduinoLCD\test\Pain Drain\libraries\lvgl\src\misc/lv_anim.c ****  * @param a pointer to an animation descriptor
 417:..\..\..\arduinoLCD\test\Pain Drain\libraries\lvgl\src\misc/lv_anim.c ****  */
 418:..\..\..\arduinoLCD\test\Pain Drain\libraries\lvgl\src\misc/lv_anim.c **** static void anim_ready_handler(lv_anim_t * a)
 419:..\..\..\arduinoLCD\test\Pain Drain\libraries\lvgl\src\misc/lv_anim.c **** {
 420:..\..\..\arduinoLCD\test\Pain Drain\libraries\lvgl\src\misc/lv_anim.c ****     /*In the end of a forward anim decrement repeat cnt.*/
 421:..\..\..\arduinoLCD\test\Pain Drain\libraries\lvgl\src\misc/lv_anim.c ****     if(a->playback_now == 0 && a->repeat_cnt > 0 && a->repeat_cnt != LV_ANIM_REPEAT_INFINITE) {
 422:..\..\..\arduinoLCD\test\Pain Drain\libraries\lvgl\src\misc/lv_anim.c ****         a->repeat_cnt--;
 423:..\..\..\arduinoLCD\test\Pain Drain\libraries\lvgl\src\misc/lv_anim.c ****     }
 424:..\..\..\arduinoLCD\test\Pain Drain\libraries\lvgl\src\misc/lv_anim.c **** 
 425:..\..\..\arduinoLCD\test\Pain Drain\libraries\lvgl\src\misc/lv_anim.c ****     /*Delete the animation if
 426:..\..\..\arduinoLCD\test\Pain Drain\libraries\lvgl\src\misc/lv_anim.c ****      * - no repeat left and no play back (simple one shot animation)
 427:..\..\..\arduinoLCD\test\Pain Drain\libraries\lvgl\src\misc/lv_anim.c ****      * - no repeat, play back is enabled and play back is ready*/
 428:..\..\..\arduinoLCD\test\Pain Drain\libraries\lvgl\src\misc/lv_anim.c ****     if(a->repeat_cnt == 0 && (a->playback_time == 0 || a->playback_now == 1)) {
 429:..\..\..\arduinoLCD\test\Pain Drain\libraries\lvgl\src\misc/lv_anim.c **** 
 430:..\..\..\arduinoLCD\test\Pain Drain\libraries\lvgl\src\misc/lv_anim.c ****         /*Delete the animation from the list.
ARM GAS  C:\Users\haske\AppData\Local\Temp\cceAapTu.s 			page 9


 431:..\..\..\arduinoLCD\test\Pain Drain\libraries\lvgl\src\misc/lv_anim.c ****          * This way the `ready_cb` will see the animations like it's animation is ready deleted*/
 432:..\..\..\arduinoLCD\test\Pain Drain\libraries\lvgl\src\misc/lv_anim.c ****         _lv_ll_remove(&LV_GC_ROOT(_lv_anim_ll), a);
 433:..\..\..\arduinoLCD\test\Pain Drain\libraries\lvgl\src\misc/lv_anim.c ****         /*Flag that the list has changed*/
 434:..\..\..\arduinoLCD\test\Pain Drain\libraries\lvgl\src\misc/lv_anim.c ****         anim_mark_list_change();
 435:..\..\..\arduinoLCD\test\Pain Drain\libraries\lvgl\src\misc/lv_anim.c **** 
 436:..\..\..\arduinoLCD\test\Pain Drain\libraries\lvgl\src\misc/lv_anim.c ****         /*Call the callback function at the end*/
 437:..\..\..\arduinoLCD\test\Pain Drain\libraries\lvgl\src\misc/lv_anim.c ****         if(a->ready_cb != NULL) a->ready_cb(a);
 438:..\..\..\arduinoLCD\test\Pain Drain\libraries\lvgl\src\misc/lv_anim.c ****         if(a->deleted_cb != NULL) a->deleted_cb(a);
 439:..\..\..\arduinoLCD\test\Pain Drain\libraries\lvgl\src\misc/lv_anim.c ****         lv_mem_free(a);
 440:..\..\..\arduinoLCD\test\Pain Drain\libraries\lvgl\src\misc/lv_anim.c ****     }
 441:..\..\..\arduinoLCD\test\Pain Drain\libraries\lvgl\src\misc/lv_anim.c ****     /*If the animation is not deleted then restart it*/
 442:..\..\..\arduinoLCD\test\Pain Drain\libraries\lvgl\src\misc/lv_anim.c ****     else {
 443:..\..\..\arduinoLCD\test\Pain Drain\libraries\lvgl\src\misc/lv_anim.c ****         a->act_time = -(int32_t)(a->repeat_delay); /*Restart the animation*/
 444:..\..\..\arduinoLCD\test\Pain Drain\libraries\lvgl\src\misc/lv_anim.c ****         /*Swap the start and end values in play back mode*/
 445:..\..\..\arduinoLCD\test\Pain Drain\libraries\lvgl\src\misc/lv_anim.c ****         if(a->playback_time != 0) {
 446:..\..\..\arduinoLCD\test\Pain Drain\libraries\lvgl\src\misc/lv_anim.c ****             /*If now turning back use the 'playback_pause*/
 447:..\..\..\arduinoLCD\test\Pain Drain\libraries\lvgl\src\misc/lv_anim.c ****             if(a->playback_now == 0) a->act_time = -(int32_t)(a->playback_delay);
 448:..\..\..\arduinoLCD\test\Pain Drain\libraries\lvgl\src\misc/lv_anim.c **** 
 449:..\..\..\arduinoLCD\test\Pain Drain\libraries\lvgl\src\misc/lv_anim.c ****             /*Toggle the play back state*/
 450:..\..\..\arduinoLCD\test\Pain Drain\libraries\lvgl\src\misc/lv_anim.c ****             a->playback_now = a->playback_now == 0 ? 1 : 0;
 451:..\..\..\arduinoLCD\test\Pain Drain\libraries\lvgl\src\misc/lv_anim.c ****             /*Swap the start and end values*/
 452:..\..\..\arduinoLCD\test\Pain Drain\libraries\lvgl\src\misc/lv_anim.c ****             int32_t tmp    = a->start_value;
 453:..\..\..\arduinoLCD\test\Pain Drain\libraries\lvgl\src\misc/lv_anim.c ****             a->start_value = a->end_value;
 454:..\..\..\arduinoLCD\test\Pain Drain\libraries\lvgl\src\misc/lv_anim.c ****             a->end_value   = tmp;
 455:..\..\..\arduinoLCD\test\Pain Drain\libraries\lvgl\src\misc/lv_anim.c ****             /*Swap the time and playback_time*/
 456:..\..\..\arduinoLCD\test\Pain Drain\libraries\lvgl\src\misc/lv_anim.c ****             tmp = a->time;
 457:..\..\..\arduinoLCD\test\Pain Drain\libraries\lvgl\src\misc/lv_anim.c ****             a->time = a->playback_time;
 458:..\..\..\arduinoLCD\test\Pain Drain\libraries\lvgl\src\misc/lv_anim.c ****             a->playback_time = tmp;
 459:..\..\..\arduinoLCD\test\Pain Drain\libraries\lvgl\src\misc/lv_anim.c ****         }
 460:..\..\..\arduinoLCD\test\Pain Drain\libraries\lvgl\src\misc/lv_anim.c ****     }
 461:..\..\..\arduinoLCD\test\Pain Drain\libraries\lvgl\src\misc/lv_anim.c **** }
 462:..\..\..\arduinoLCD\test\Pain Drain\libraries\lvgl\src\misc/lv_anim.c **** 
 463:..\..\..\arduinoLCD\test\Pain Drain\libraries\lvgl\src\misc/lv_anim.c **** static void anim_mark_list_change(void)
 464:..\..\..\arduinoLCD\test\Pain Drain\libraries\lvgl\src\misc/lv_anim.c **** {
  27              		.loc 1 464 0
  28              		.cfi_startproc
  29              		@ args = 0, pretend = 0, frame = 0
  30              		@ frame_needed = 0, uses_anonymous_args = 0
  31 0000 10B5     		push	{r4, lr}
  32              		.cfi_def_cfa_offset 8
  33              		.cfi_offset 4, -8
  34              		.cfi_offset 14, -4
 465:..\..\..\arduinoLCD\test\Pain Drain\libraries\lvgl\src\misc/lv_anim.c ****     anim_list_changed = true;
  35              		.loc 1 465 0
  36 0002 0122     		movs	r2, #1
  37 0004 084B     		ldr	r3, .L4
  38 0006 1A70     		strb	r2, [r3]
 466:..\..\..\arduinoLCD\test\Pain Drain\libraries\lvgl\src\misc/lv_anim.c ****     if(_lv_ll_get_head(&LV_GC_ROOT(_lv_anim_ll)) == NULL)
  39              		.loc 1 466 0
  40 0008 0848     		ldr	r0, .L4+4
  41 000a FFF7FEFF 		bl	_lv_ll_get_head
  42              	.LVL0:
  43 000e 0028     		cmp	r0, #0
  44 0010 04D1     		bne	.L2
 467:..\..\..\arduinoLCD\test\Pain Drain\libraries\lvgl\src\misc/lv_anim.c ****         lv_timer_pause(_lv_anim_tmr);
  45              		.loc 1 467 0
  46 0012 054B     		ldr	r3, .L4
ARM GAS  C:\Users\haske\AppData\Local\Temp\cceAapTu.s 			page 10


  47 0014 5868     		ldr	r0, [r3, #4]
  48 0016 FFF7FEFF 		bl	lv_timer_pause
  49              	.LVL1:
  50 001a 03E0     		b	.L1
  51              	.L2:
 468:..\..\..\arduinoLCD\test\Pain Drain\libraries\lvgl\src\misc/lv_anim.c ****     else
 469:..\..\..\arduinoLCD\test\Pain Drain\libraries\lvgl\src\misc/lv_anim.c ****         lv_timer_resume(_lv_anim_tmr);
  52              		.loc 1 469 0
  53 001c 024B     		ldr	r3, .L4
  54 001e 5868     		ldr	r0, [r3, #4]
  55 0020 FFF7FEFF 		bl	lv_timer_resume
  56              	.LVL2:
  57              	.L1:
 470:..\..\..\arduinoLCD\test\Pain Drain\libraries\lvgl\src\misc/lv_anim.c **** }
  58              		.loc 1 470 0
  59              		@ sp needed
  60 0024 10BD     		pop	{r4, pc}
  61              	.L5:
  62 0026 C046     		.align	2
  63              	.L4:
  64 0028 00000000 		.word	.LANCHOR0
  65 002c 00000000 		.word	_lv_anim_ll
  66              		.cfi_endproc
  67              	.LFE65:
  68              		.size	anim_mark_list_change, .-anim_mark_list_change
  69              		.section	.text.anim_ready_handler,"ax",%progbits
  70              		.align	2
  71              		.code	16
  72              		.thumb_func
  73              		.type	anim_ready_handler, %function
  74              	anim_ready_handler:
  75              	.LFB64:
 419:..\..\..\arduinoLCD\test\Pain Drain\libraries\lvgl\src\misc/lv_anim.c ****     /*In the end of a forward anim decrement repeat cnt.*/
  76              		.loc 1 419 0
  77              		.cfi_startproc
  78              		@ args = 0, pretend = 0, frame = 0
  79              		@ frame_needed = 0, uses_anonymous_args = 0
  80              	.LVL3:
  81 0000 70B5     		push	{r4, r5, r6, lr}
  82              		.cfi_def_cfa_offset 16
  83              		.cfi_offset 4, -16
  84              		.cfi_offset 5, -12
  85              		.cfi_offset 6, -8
  86              		.cfi_offset 14, -4
  87 0002 0400     		movs	r4, r0
 421:..\..\..\arduinoLCD\test\Pain Drain\libraries\lvgl\src\misc/lv_anim.c ****         a->repeat_cnt--;
  88              		.loc 1 421 0
  89 0004 4223     		movs	r3, #66
  90 0006 C35C     		ldrb	r3, [r0, r3]
  91 0008 0222     		movs	r2, #2
  92 000a 1340     		ands	r3, r2
  93 000c 181E     		subs	r0, r3, #0
  94              	.LVL4:
  95 000e 09D1     		bne	.L7
 421:..\..\..\arduinoLCD\test\Pain Drain\libraries\lvgl\src\misc/lv_anim.c ****         a->repeat_cnt--;
  96              		.loc 1 421 0 is_stmt 0 discriminator 1
  97 0010 3E32     		adds	r2, r2, #62
ARM GAS  C:\Users\haske\AppData\Local\Temp\cceAapTu.s 			page 11


  98 0012 A25A     		ldrh	r2, [r4, r2]
  99 0014 002A     		cmp	r2, #0
 100 0016 05D0     		beq	.L7
 421:..\..\..\arduinoLCD\test\Pain Drain\libraries\lvgl\src\misc/lv_anim.c ****         a->repeat_cnt--;
 101              		.loc 1 421 0 discriminator 2
 102 0018 1F49     		ldr	r1, .L14
 103 001a 8A42     		cmp	r2, r1
 104 001c 02D0     		beq	.L7
 422:..\..\..\arduinoLCD\test\Pain Drain\libraries\lvgl\src\misc/lv_anim.c ****     }
 105              		.loc 1 422 0 is_stmt 1
 106 001e 013A     		subs	r2, r2, #1
 107 0020 4021     		movs	r1, #64
 108 0022 6252     		strh	r2, [r4, r1]
 109              	.L7:
 428:..\..\..\arduinoLCD\test\Pain Drain\libraries\lvgl\src\misc/lv_anim.c **** 
 110              		.loc 1 428 0
 111 0024 4022     		movs	r2, #64
 112 0026 A25A     		ldrh	r2, [r4, r2]
 113 0028 002A     		cmp	r2, #0
 114 002a 18D1     		bne	.L8
 428:..\..\..\arduinoLCD\test\Pain Drain\libraries\lvgl\src\misc/lv_anim.c **** 
 115              		.loc 1 428 0 is_stmt 0 discriminator 1
 116 002c A36B     		ldr	r3, [r4, #56]
 117 002e 002B     		cmp	r3, #0
 118 0030 01D0     		beq	.L9
 428:..\..\..\arduinoLCD\test\Pain Drain\libraries\lvgl\src\misc/lv_anim.c **** 
 119              		.loc 1 428 0 discriminator 2
 120 0032 0028     		cmp	r0, #0
 121 0034 13D0     		beq	.L8
 122              	.L9:
 432:..\..\..\arduinoLCD\test\Pain Drain\libraries\lvgl\src\misc/lv_anim.c ****         /*Flag that the list has changed*/
 123              		.loc 1 432 0 is_stmt 1
 124 0036 2100     		movs	r1, r4
 125 0038 1848     		ldr	r0, .L14+4
 126 003a FFF7FEFF 		bl	_lv_ll_remove
 127              	.LVL5:
 434:..\..\..\arduinoLCD\test\Pain Drain\libraries\lvgl\src\misc/lv_anim.c **** 
 128              		.loc 1 434 0
 129 003e FFF7FEFF 		bl	anim_mark_list_change
 130              	.LVL6:
 437:..\..\..\arduinoLCD\test\Pain Drain\libraries\lvgl\src\misc/lv_anim.c ****         if(a->deleted_cb != NULL) a->deleted_cb(a);
 131              		.loc 1 437 0
 132 0042 E368     		ldr	r3, [r4, #12]
 133 0044 002B     		cmp	r3, #0
 134 0046 01D0     		beq	.L10
 437:..\..\..\arduinoLCD\test\Pain Drain\libraries\lvgl\src\misc/lv_anim.c ****         if(a->deleted_cb != NULL) a->deleted_cb(a);
 135              		.loc 1 437 0 is_stmt 0 discriminator 1
 136 0048 2000     		movs	r0, r4
 137 004a 9847     		blx	r3
 138              	.LVL7:
 139              	.L10:
 438:..\..\..\arduinoLCD\test\Pain Drain\libraries\lvgl\src\misc/lv_anim.c ****         lv_mem_free(a);
 140              		.loc 1 438 0 is_stmt 1
 141 004c 2369     		ldr	r3, [r4, #16]
 142 004e 002B     		cmp	r3, #0
 143 0050 01D0     		beq	.L11
 438:..\..\..\arduinoLCD\test\Pain Drain\libraries\lvgl\src\misc/lv_anim.c ****         lv_mem_free(a);
ARM GAS  C:\Users\haske\AppData\Local\Temp\cceAapTu.s 			page 12


 144              		.loc 1 438 0 is_stmt 0 discriminator 1
 145 0052 2000     		movs	r0, r4
 146 0054 9847     		blx	r3
 147              	.LVL8:
 148              	.L11:
 439:..\..\..\arduinoLCD\test\Pain Drain\libraries\lvgl\src\misc/lv_anim.c ****     }
 149              		.loc 1 439 0 is_stmt 1
 150 0056 2000     		movs	r0, r4
 151 0058 FFF7FEFF 		bl	lv_mem_free
 152              	.LVL9:
 153 005c 1AE0     		b	.L6
 154              	.L8:
 443:..\..\..\arduinoLCD\test\Pain Drain\libraries\lvgl\src\misc/lv_anim.c ****         /*Swap the start and end values in play back mode*/
 155              		.loc 1 443 0
 156 005e E36B     		ldr	r3, [r4, #60]
 157 0060 5A42     		rsbs	r2, r3, #0
 158 0062 2263     		str	r2, [r4, #48]
 445:..\..\..\arduinoLCD\test\Pain Drain\libraries\lvgl\src\misc/lv_anim.c ****             /*If now turning back use the 'playback_pause*/
 159              		.loc 1 445 0
 160 0064 A16B     		ldr	r1, [r4, #56]
 161 0066 0029     		cmp	r1, #0
 162 0068 14D0     		beq	.L6
 163              	.LBB2:
 447:..\..\..\arduinoLCD\test\Pain Drain\libraries\lvgl\src\misc/lv_anim.c **** 
 164              		.loc 1 447 0
 165 006a 0028     		cmp	r0, #0
 166 006c 02D1     		bne	.L13
 447:..\..\..\arduinoLCD\test\Pain Drain\libraries\lvgl\src\misc/lv_anim.c **** 
 167              		.loc 1 447 0 is_stmt 0 discriminator 1
 168 006e 636B     		ldr	r3, [r4, #52]
 169 0070 5A42     		rsbs	r2, r3, #0
 170 0072 2263     		str	r2, [r4, #48]
 171              	.L13:
 450:..\..\..\arduinoLCD\test\Pain Drain\libraries\lvgl\src\misc/lv_anim.c ****             /*Swap the start and end values*/
 172              		.loc 1 450 0 is_stmt 1
 173 0074 4342     		rsbs	r3, r0, #0
 174 0076 4341     		adcs	r3, r3, r0
 175 0078 4220     		movs	r0, #66
 176 007a 5A00     		lsls	r2, r3, #1
 177 007c 235C     		ldrb	r3, [r4, r0]
 178 007e 0225     		movs	r5, #2
 179 0080 AB43     		bics	r3, r5
 180 0082 1343     		orrs	r3, r2
 181 0084 2354     		strb	r3, [r4, r0]
 452:..\..\..\arduinoLCD\test\Pain Drain\libraries\lvgl\src\misc/lv_anim.c ****             a->start_value = a->end_value;
 182              		.loc 1 452 0
 183 0086 236A     		ldr	r3, [r4, #32]
 184              	.LVL10:
 453:..\..\..\arduinoLCD\test\Pain Drain\libraries\lvgl\src\misc/lv_anim.c ****             a->end_value   = tmp;
 185              		.loc 1 453 0
 186 0088 A26A     		ldr	r2, [r4, #40]
 187 008a 2262     		str	r2, [r4, #32]
 454:..\..\..\arduinoLCD\test\Pain Drain\libraries\lvgl\src\misc/lv_anim.c ****             /*Swap the time and playback_time*/
 188              		.loc 1 454 0
 189 008c A362     		str	r3, [r4, #40]
 456:..\..\..\arduinoLCD\test\Pain Drain\libraries\lvgl\src\misc/lv_anim.c ****             a->time = a->playback_time;
 190              		.loc 1 456 0
ARM GAS  C:\Users\haske\AppData\Local\Temp\cceAapTu.s 			page 13


 191 008e E36A     		ldr	r3, [r4, #44]
 192              	.LVL11:
 193 0090 A363     		str	r3, [r4, #56]
 194              	.LVL12:
 457:..\..\..\arduinoLCD\test\Pain Drain\libraries\lvgl\src\misc/lv_anim.c ****             a->playback_time = tmp;
 195              		.loc 1 457 0
 196 0092 E162     		str	r1, [r4, #44]
 197              	.LVL13:
 198              	.L6:
 199              	.LBE2:
 461:..\..\..\arduinoLCD\test\Pain Drain\libraries\lvgl\src\misc/lv_anim.c **** 
 200              		.loc 1 461 0
 201              		@ sp needed
 202              	.LVL14:
 203 0094 70BD     		pop	{r4, r5, r6, pc}
 204              	.L15:
 205 0096 C046     		.align	2
 206              	.L14:
 207 0098 FFFF0000 		.word	65535
 208 009c 00000000 		.word	_lv_anim_ll
 209              		.cfi_endproc
 210              	.LFE64:
 211              		.size	anim_ready_handler, .-anim_ready_handler
 212              		.section	.text.anim_timer,"ax",%progbits
 213              		.align	2
 214              		.code	16
 215              		.thumb_func
 216              		.type	anim_timer, %function
 217              	anim_timer:
 218              	.LFB63:
 351:..\..\..\arduinoLCD\test\Pain Drain\libraries\lvgl\src\misc/lv_anim.c ****     LV_UNUSED(param);
 219              		.loc 1 351 0
 220              		.cfi_startproc
 221              		@ args = 0, pretend = 0, frame = 0
 222              		@ frame_needed = 0, uses_anonymous_args = 0
 223              	.LVL15:
 224 0000 70B5     		push	{r4, r5, r6, lr}
 225              		.cfi_def_cfa_offset 16
 226              		.cfi_offset 4, -16
 227              		.cfi_offset 5, -12
 228              		.cfi_offset 6, -8
 229              		.cfi_offset 14, -4
 354:..\..\..\arduinoLCD\test\Pain Drain\libraries\lvgl\src\misc/lv_anim.c **** 
 230              		.loc 1 354 0
 231 0002 3B4C     		ldr	r4, .L29
 232 0004 A068     		ldr	r0, [r4, #8]
 233              	.LVL16:
 234 0006 FFF7FEFF 		bl	lv_tick_elaps
 235              	.LVL17:
 236 000a 0500     		movs	r5, r0
 237              	.LVL18:
 357:..\..\..\arduinoLCD\test\Pain Drain\libraries\lvgl\src\misc/lv_anim.c **** 
 238              		.loc 1 357 0
 239 000c 237B     		ldrb	r3, [r4, #12]
 240 000e 002B     		cmp	r3, #0
 241 0010 01D0     		beq	.L28
 242 0012 0022     		movs	r2, #0
ARM GAS  C:\Users\haske\AppData\Local\Temp\cceAapTu.s 			page 14


 243 0014 00E0     		b	.L17
 244              	.L28:
 245 0016 0122     		movs	r2, #1
 246              	.L17:
 357:..\..\..\arduinoLCD\test\Pain Drain\libraries\lvgl\src\misc/lv_anim.c **** 
 247              		.loc 1 357 0 is_stmt 0 discriminator 4
 248 0018 354B     		ldr	r3, .L29
 249 001a 1A73     		strb	r2, [r3, #12]
 359:..\..\..\arduinoLCD\test\Pain Drain\libraries\lvgl\src\misc/lv_anim.c **** 
 250              		.loc 1 359 0 is_stmt 1 discriminator 4
 251 001c 3548     		ldr	r0, .L29+4
 252              	.LVL19:
 253 001e FFF7FEFF 		bl	_lv_ll_get_head
 254              	.LVL20:
 255 0022 0400     		movs	r4, r0
 256              	.LVL21:
 361:..\..\..\arduinoLCD\test\Pain Drain\libraries\lvgl\src\misc/lv_anim.c ****         /*It can be set by `lv_anim_del()` typically in `end_cb`. If set then an animation delete
 257              		.loc 1 361 0 discriminator 4
 258 0024 5DE0     		b	.L18
 259              	.L27:
 366:..\..\..\arduinoLCD\test\Pain Drain\libraries\lvgl\src\misc/lv_anim.c **** 
 260              		.loc 1 366 0
 261 0026 324B     		ldr	r3, .L29
 262 0028 0022     		movs	r2, #0
 263 002a 1A70     		strb	r2, [r3]
 368:..\..\..\arduinoLCD\test\Pain Drain\libraries\lvgl\src\misc/lv_anim.c ****             a->run_round = anim_run_round; /*The list readying might be reset so need to know which
 264              		.loc 1 368 0
 265 002c 4232     		adds	r2, r2, #66
 266 002e A25C     		ldrb	r2, [r4, r2]
 267 0030 5207     		lsls	r2, r2, #29
 268 0032 D20F     		lsrs	r2, r2, #31
 269 0034 1B7B     		ldrb	r3, [r3, #12]
 270 0036 9A42     		cmp	r2, r3
 271 0038 45D0     		beq	.L19
 272              	.LBB3:
 369:..\..\..\arduinoLCD\test\Pain Drain\libraries\lvgl\src\misc/lv_anim.c **** 
 273              		.loc 1 369 0
 274 003a 4221     		movs	r1, #66
 275 003c 0122     		movs	r2, #1
 276 003e 1340     		ands	r3, r2
 277 0040 9A00     		lsls	r2, r3, #2
 278 0042 635C     		ldrb	r3, [r4, r1]
 279 0044 0420     		movs	r0, #4
 280              	.LVL22:
 281 0046 8343     		bics	r3, r0
 282 0048 1343     		orrs	r3, r2
 283 004a 6354     		strb	r3, [r4, r1]
 372:..\..\..\arduinoLCD\test\Pain Drain\libraries\lvgl\src\misc/lv_anim.c ****             if(!a->start_cb_called && a->act_time <= 0 && new_act_time >= 0) {
 284              		.loc 1 372 0
 285 004c 226B     		ldr	r2, [r4, #48]
 286 004e 5119     		adds	r1, r2, r5
 287              	.LVL23:
 373:..\..\..\arduinoLCD\test\Pain Drain\libraries\lvgl\src\misc/lv_anim.c ****                 if(a->early_apply == 0 && a->get_value_cb) {
 288              		.loc 1 373 0
 289 0050 1807     		lsls	r0, r3, #28
 290 0052 1BD4     		bmi	.L20
 373:..\..\..\arduinoLCD\test\Pain Drain\libraries\lvgl\src\misc/lv_anim.c ****                 if(a->early_apply == 0 && a->get_value_cb) {
ARM GAS  C:\Users\haske\AppData\Local\Temp\cceAapTu.s 			page 15


 291              		.loc 1 373 0 is_stmt 0 discriminator 1
 292 0054 002A     		cmp	r2, #0
 293 0056 19DC     		bgt	.L20
 373:..\..\..\arduinoLCD\test\Pain Drain\libraries\lvgl\src\misc/lv_anim.c ****                 if(a->early_apply == 0 && a->get_value_cb) {
 294              		.loc 1 373 0 discriminator 2
 295 0058 0029     		cmp	r1, #0
 296 005a 17DB     		blt	.L20
 374:..\..\..\arduinoLCD\test\Pain Drain\libraries\lvgl\src\misc/lv_anim.c ****                     int32_t v_ofs = a->get_value_cb(a);
 297              		.loc 1 374 0 is_stmt 1
 298 005c DB07     		lsls	r3, r3, #31
 299 005e 0BD4     		bmi	.L21
 374:..\..\..\arduinoLCD\test\Pain Drain\libraries\lvgl\src\misc/lv_anim.c ****                     int32_t v_ofs = a->get_value_cb(a);
 300              		.loc 1 374 0 is_stmt 0 discriminator 1
 301 0060 6369     		ldr	r3, [r4, #20]
 302 0062 002B     		cmp	r3, #0
 303 0064 08D0     		beq	.L21
 304              	.LBB4:
 375:..\..\..\arduinoLCD\test\Pain Drain\libraries\lvgl\src\misc/lv_anim.c ****                     a->start_value += v_ofs;
 305              		.loc 1 375 0 is_stmt 1
 306 0066 2000     		movs	r0, r4
 307 0068 9847     		blx	r3
 308              	.LVL24:
 376:..\..\..\arduinoLCD\test\Pain Drain\libraries\lvgl\src\misc/lv_anim.c ****                     a->end_value += v_ofs;
 309              		.loc 1 376 0
 310 006a 236A     		ldr	r3, [r4, #32]
 311 006c 1B18     		adds	r3, r3, r0
 312 006e 2362     		str	r3, [r4, #32]
 377:..\..\..\arduinoLCD\test\Pain Drain\libraries\lvgl\src\misc/lv_anim.c ****                 }
 313              		.loc 1 377 0
 314 0070 A36A     		ldr	r3, [r4, #40]
 315 0072 9C46     		mov	ip, r3
 316 0074 6044     		add	r0, r0, ip
 317              	.LVL25:
 318 0076 A062     		str	r0, [r4, #40]
 319              	.L21:
 320              	.LBE4:
 379:..\..\..\arduinoLCD\test\Pain Drain\libraries\lvgl\src\misc/lv_anim.c ****                 a->start_cb_called = 1;
 321              		.loc 1 379 0
 322 0078 A368     		ldr	r3, [r4, #8]
 323 007a 002B     		cmp	r3, #0
 324 007c 01D0     		beq	.L22
 379:..\..\..\arduinoLCD\test\Pain Drain\libraries\lvgl\src\misc/lv_anim.c ****                 a->start_cb_called = 1;
 325              		.loc 1 379 0 is_stmt 0 discriminator 1
 326 007e 2000     		movs	r0, r4
 327 0080 9847     		blx	r3
 328              	.LVL26:
 329              	.L22:
 380:..\..\..\arduinoLCD\test\Pain Drain\libraries\lvgl\src\misc/lv_anim.c ****             }
 330              		.loc 1 380 0 is_stmt 1
 331 0082 4222     		movs	r2, #66
 332 0084 A15C     		ldrb	r1, [r4, r2]
 333 0086 0823     		movs	r3, #8
 334 0088 0B43     		orrs	r3, r1
 335 008a A354     		strb	r3, [r4, r2]
 336              	.L20:
 382:..\..\..\arduinoLCD\test\Pain Drain\libraries\lvgl\src\misc/lv_anim.c ****             if(a->act_time >= 0) {
 337              		.loc 1 382 0
ARM GAS  C:\Users\haske\AppData\Local\Temp\cceAapTu.s 			page 16


 338 008c 236B     		ldr	r3, [r4, #48]
 339 008e EB18     		adds	r3, r5, r3
 340 0090 2363     		str	r3, [r4, #48]
 383:..\..\..\arduinoLCD\test\Pain Drain\libraries\lvgl\src\misc/lv_anim.c ****                 if(a->act_time > a->time) a->act_time = a->time;
 341              		.loc 1 383 0
 342 0092 002B     		cmp	r3, #0
 343 0094 17DB     		blt	.L19
 344              	.LBB5:
 384:..\..\..\arduinoLCD\test\Pain Drain\libraries\lvgl\src\misc/lv_anim.c **** 
 345              		.loc 1 384 0
 346 0096 E26A     		ldr	r2, [r4, #44]
 347 0098 9342     		cmp	r3, r2
 348 009a 00DD     		ble	.L23
 384:..\..\..\arduinoLCD\test\Pain Drain\libraries\lvgl\src\misc/lv_anim.c **** 
 349              		.loc 1 384 0 is_stmt 0 discriminator 1
 350 009c 2263     		str	r2, [r4, #48]
 351              	.L23:
 387:..\..\..\arduinoLCD\test\Pain Drain\libraries\lvgl\src\misc/lv_anim.c **** 
 352              		.loc 1 387 0 is_stmt 1
 353 009e 2000     		movs	r0, r4
 354 00a0 E369     		ldr	r3, [r4, #28]
 355 00a2 9847     		blx	r3
 356              	.LVL27:
 389:..\..\..\arduinoLCD\test\Pain Drain\libraries\lvgl\src\misc/lv_anim.c ****                     a->current_value = new_value;
 357              		.loc 1 389 0
 358 00a4 636A     		ldr	r3, [r4, #36]
 359 00a6 9842     		cmp	r0, r3
 360 00a8 06D0     		beq	.L24
 390:..\..\..\arduinoLCD\test\Pain Drain\libraries\lvgl\src\misc/lv_anim.c ****                     /*Apply the calculated value*/
 361              		.loc 1 390 0
 362 00aa 6062     		str	r0, [r4, #36]
 392:..\..\..\arduinoLCD\test\Pain Drain\libraries\lvgl\src\misc/lv_anim.c ****                 }
 363              		.loc 1 392 0
 364 00ac 6368     		ldr	r3, [r4, #4]
 365 00ae 002B     		cmp	r3, #0
 366 00b0 02D0     		beq	.L24
 392:..\..\..\arduinoLCD\test\Pain Drain\libraries\lvgl\src\misc/lv_anim.c ****                 }
 367              		.loc 1 392 0 is_stmt 0 discriminator 1
 368 00b2 0100     		movs	r1, r0
 369 00b4 2068     		ldr	r0, [r4]
 370              	.LVL28:
 371 00b6 9847     		blx	r3
 372              	.LVL29:
 373              	.L24:
 396:..\..\..\arduinoLCD\test\Pain Drain\libraries\lvgl\src\misc/lv_anim.c ****                     anim_ready_handler(a);
 374              		.loc 1 396 0 is_stmt 1
 375 00b8 236B     		ldr	r3, [r4, #48]
 376 00ba E26A     		ldr	r2, [r4, #44]
 377 00bc 9342     		cmp	r3, r2
 378 00be 02DB     		blt	.L19
 397:..\..\..\arduinoLCD\test\Pain Drain\libraries\lvgl\src\misc/lv_anim.c ****                 }
 379              		.loc 1 397 0
 380 00c0 2000     		movs	r0, r4
 381 00c2 FFF7FEFF 		bl	anim_ready_handler
 382              	.LVL30:
 383              	.L19:
 384              	.LBE5:
ARM GAS  C:\Users\haske\AppData\Local\Temp\cceAapTu.s 			page 17


 385              	.LBE3:
 404:..\..\..\arduinoLCD\test\Pain Drain\libraries\lvgl\src\misc/lv_anim.c ****             a = _lv_ll_get_head(&LV_GC_ROOT(_lv_anim_ll));
 386              		.loc 1 404 0
 387 00c6 0A4B     		ldr	r3, .L29
 388 00c8 1B78     		ldrb	r3, [r3]
 389 00ca 002B     		cmp	r3, #0
 390 00cc 04D0     		beq	.L25
 405:..\..\..\arduinoLCD\test\Pain Drain\libraries\lvgl\src\misc/lv_anim.c ****         else
 391              		.loc 1 405 0
 392 00ce 0948     		ldr	r0, .L29+4
 393 00d0 FFF7FEFF 		bl	_lv_ll_get_head
 394              	.LVL31:
 395 00d4 0400     		movs	r4, r0
 396              	.LVL32:
 397 00d6 04E0     		b	.L18
 398              	.LVL33:
 399              	.L25:
 407:..\..\..\arduinoLCD\test\Pain Drain\libraries\lvgl\src\misc/lv_anim.c ****     }
 400              		.loc 1 407 0
 401 00d8 2100     		movs	r1, r4
 402 00da 0648     		ldr	r0, .L29+4
 403 00dc FFF7FEFF 		bl	_lv_ll_get_next
 404              	.LVL34:
 405 00e0 0400     		movs	r4, r0
 406              	.LVL35:
 407              	.L18:
 361:..\..\..\arduinoLCD\test\Pain Drain\libraries\lvgl\src\misc/lv_anim.c ****         /*It can be set by `lv_anim_del()` typically in `end_cb`. If set then an animation delete
 408              		.loc 1 361 0
 409 00e2 002C     		cmp	r4, #0
 410 00e4 9FD1     		bne	.L27
 410:..\..\..\arduinoLCD\test\Pain Drain\libraries\lvgl\src\misc/lv_anim.c **** }
 411              		.loc 1 410 0
 412 00e6 FFF7FEFF 		bl	lv_tick_get
 413              	.LVL36:
 414 00ea 014B     		ldr	r3, .L29
 415 00ec 9860     		str	r0, [r3, #8]
 411:..\..\..\arduinoLCD\test\Pain Drain\libraries\lvgl\src\misc/lv_anim.c **** 
 416              		.loc 1 411 0
 417              		@ sp needed
 418              	.LVL37:
 419              	.LVL38:
 420 00ee 70BD     		pop	{r4, r5, r6, pc}
 421              	.L30:
 422              		.align	2
 423              	.L29:
 424 00f0 00000000 		.word	.LANCHOR0
 425 00f4 00000000 		.word	_lv_anim_ll
 426              		.cfi_endproc
 427              	.LFE63:
 428              		.size	anim_timer, .-anim_timer
 429              		.section	.text.lv_anim_path_linear,"ax",%progbits
 430              		.align	2
 431              		.global	lv_anim_path_linear
 432              		.code	16
 433              		.thumb_func
 434              		.type	lv_anim_path_linear, %function
 435              	lv_anim_path_linear:
ARM GAS  C:\Users\haske\AppData\Local\Temp\cceAapTu.s 			page 18


 436              	.LFB56:
 213:..\..\..\arduinoLCD\test\Pain Drain\libraries\lvgl\src\misc/lv_anim.c ****     /*Calculate the current step*/
 437              		.loc 1 213 0
 438              		.cfi_startproc
 439              		@ args = 0, pretend = 0, frame = 0
 440              		@ frame_needed = 0, uses_anonymous_args = 0
 441              	.LVL39:
 442 0000 10B5     		push	{r4, lr}
 443              		.cfi_def_cfa_offset 8
 444              		.cfi_offset 4, -8
 445              		.cfi_offset 14, -4
 446 0002 82B0     		sub	sp, sp, #8
 447              		.cfi_def_cfa_offset 16
 448 0004 0400     		movs	r4, r0
 215:..\..\..\arduinoLCD\test\Pain Drain\libraries\lvgl\src\misc/lv_anim.c **** 
 449              		.loc 1 215 0
 450 0006 8023     		movs	r3, #128
 451 0008 DB00     		lsls	r3, r3, #3
 452 000a 0093     		str	r3, [sp]
 453 000c 0023     		movs	r3, #0
 454 000e C26A     		ldr	r2, [r0, #44]
 455 0010 0021     		movs	r1, #0
 456 0012 006B     		ldr	r0, [r0, #48]
 457              	.LVL40:
 458 0014 FFF7FEFF 		bl	lv_map
 459              	.LVL41:
 220:..\..\..\arduinoLCD\test\Pain Drain\libraries\lvgl\src\misc/lv_anim.c ****     new_value = new_value >> LV_ANIM_RES_SHIFT;
 460              		.loc 1 220 0
 461 0018 A36A     		ldr	r3, [r4, #40]
 462 001a 226A     		ldr	r2, [r4, #32]
 463 001c 9B1A     		subs	r3, r3, r2
 464 001e 5843     		muls	r0, r3
 465              	.LVL42:
 221:..\..\..\arduinoLCD\test\Pain Drain\libraries\lvgl\src\misc/lv_anim.c ****     new_value += a->start_value;
 466              		.loc 1 221 0
 467 0020 8012     		asrs	r0, r0, #10
 468              	.LVL43:
 222:..\..\..\arduinoLCD\test\Pain Drain\libraries\lvgl\src\misc/lv_anim.c **** 
 469              		.loc 1 222 0
 470 0022 1018     		adds	r0, r2, r0
 471              	.LVL44:
 225:..\..\..\arduinoLCD\test\Pain Drain\libraries\lvgl\src\misc/lv_anim.c **** 
 472              		.loc 1 225 0
 473 0024 02B0     		add	sp, sp, #8
 474              		@ sp needed
 475              	.LVL45:
 476 0026 10BD     		pop	{r4, pc}
 477              		.cfi_endproc
 478              	.LFE56:
 479              		.size	lv_anim_path_linear, .-lv_anim_path_linear
 480              		.section	.text._lv_anim_core_init,"ax",%progbits
 481              		.align	2
 482              		.global	_lv_anim_core_init
 483              		.code	16
 484              		.thumb_func
 485              		.type	_lv_anim_core_init, %function
 486              	_lv_anim_core_init:
ARM GAS  C:\Users\haske\AppData\Local\Temp\cceAapTu.s 			page 19


 487              	.LFB45:
  58:..\..\..\arduinoLCD\test\Pain Drain\libraries\lvgl\src\misc/lv_anim.c ****     _lv_ll_init(&LV_GC_ROOT(_lv_anim_ll), sizeof(lv_anim_t));
 488              		.loc 1 58 0
 489              		.cfi_startproc
 490              		@ args = 0, pretend = 0, frame = 0
 491              		@ frame_needed = 0, uses_anonymous_args = 0
 492 0000 10B5     		push	{r4, lr}
 493              		.cfi_def_cfa_offset 8
 494              		.cfi_offset 4, -8
 495              		.cfi_offset 14, -4
  59:..\..\..\arduinoLCD\test\Pain Drain\libraries\lvgl\src\misc/lv_anim.c ****     _lv_anim_tmr = lv_timer_create(anim_timer, LV_DISP_DEF_REFR_PERIOD, NULL);
 496              		.loc 1 59 0
 497 0002 4421     		movs	r1, #68
 498 0004 0748     		ldr	r0, .L33
 499 0006 FFF7FEFF 		bl	_lv_ll_init
 500              	.LVL46:
  60:..\..\..\arduinoLCD\test\Pain Drain\libraries\lvgl\src\misc/lv_anim.c ****     anim_mark_list_change(); /*Turn off the animation timer*/
 501              		.loc 1 60 0
 502 000a 0022     		movs	r2, #0
 503 000c 1E21     		movs	r1, #30
 504 000e 0648     		ldr	r0, .L33+4
 505 0010 FFF7FEFF 		bl	lv_timer_create
 506              	.LVL47:
 507 0014 054C     		ldr	r4, .L33+8
 508 0016 6060     		str	r0, [r4, #4]
  61:..\..\..\arduinoLCD\test\Pain Drain\libraries\lvgl\src\misc/lv_anim.c ****     anim_list_changed = false;
 509              		.loc 1 61 0
 510 0018 FFF7FEFF 		bl	anim_mark_list_change
 511              	.LVL48:
  62:..\..\..\arduinoLCD\test\Pain Drain\libraries\lvgl\src\misc/lv_anim.c **** }
 512              		.loc 1 62 0
 513 001c 0023     		movs	r3, #0
 514 001e 2370     		strb	r3, [r4]
  63:..\..\..\arduinoLCD\test\Pain Drain\libraries\lvgl\src\misc/lv_anim.c **** 
 515              		.loc 1 63 0
 516              		@ sp needed
 517 0020 10BD     		pop	{r4, pc}
 518              	.L34:
 519 0022 C046     		.align	2
 520              	.L33:
 521 0024 00000000 		.word	_lv_anim_ll
 522 0028 00000000 		.word	anim_timer
 523 002c 00000000 		.word	.LANCHOR0
 524              		.cfi_endproc
 525              	.LFE45:
 526              		.size	_lv_anim_core_init, .-_lv_anim_core_init
 527              		.section	.text.lv_anim_init,"ax",%progbits
 528              		.align	2
 529              		.global	lv_anim_init
 530              		.code	16
 531              		.thumb_func
 532              		.type	lv_anim_init, %function
 533              	lv_anim_init:
 534              	.LFB46:
  66:..\..\..\arduinoLCD\test\Pain Drain\libraries\lvgl\src\misc/lv_anim.c ****     lv_memset_00(a, sizeof(lv_anim_t));
 535              		.loc 1 66 0
 536              		.cfi_startproc
ARM GAS  C:\Users\haske\AppData\Local\Temp\cceAapTu.s 			page 20


 537              		@ args = 0, pretend = 0, frame = 0
 538              		@ frame_needed = 0, uses_anonymous_args = 0
 539              	.LVL49:
 540 0000 10B5     		push	{r4, lr}
 541              		.cfi_def_cfa_offset 8
 542              		.cfi_offset 4, -8
 543              		.cfi_offset 14, -4
 544 0002 0400     		movs	r4, r0
  67:..\..\..\arduinoLCD\test\Pain Drain\libraries\lvgl\src\misc/lv_anim.c ****     a->time = 500;
 545              		.loc 1 67 0
 546 0004 4421     		movs	r1, #68
 547 0006 FFF7FEFF 		bl	lv_memset_00
 548              	.LVL50:
  68:..\..\..\arduinoLCD\test\Pain Drain\libraries\lvgl\src\misc/lv_anim.c ****     a->start_value = 0;
 549              		.loc 1 68 0
 550 000a FA23     		movs	r3, #250
 551 000c 5B00     		lsls	r3, r3, #1
 552 000e E362     		str	r3, [r4, #44]
  69:..\..\..\arduinoLCD\test\Pain Drain\libraries\lvgl\src\misc/lv_anim.c ****     a->end_value = 100;
 553              		.loc 1 69 0
 554 0010 0023     		movs	r3, #0
 555 0012 2362     		str	r3, [r4, #32]
  70:..\..\..\arduinoLCD\test\Pain Drain\libraries\lvgl\src\misc/lv_anim.c ****     a->repeat_cnt = 1;
 556              		.loc 1 70 0
 557 0014 6433     		adds	r3, r3, #100
 558 0016 A362     		str	r3, [r4, #40]
  71:..\..\..\arduinoLCD\test\Pain Drain\libraries\lvgl\src\misc/lv_anim.c ****     a->path_cb = lv_anim_path_linear;
 559              		.loc 1 71 0
 560 0018 0122     		movs	r2, #1
 561 001a 243B     		subs	r3, r3, #36
 562 001c E252     		strh	r2, [r4, r3]
  72:..\..\..\arduinoLCD\test\Pain Drain\libraries\lvgl\src\misc/lv_anim.c ****     a->early_apply = 1;
 563              		.loc 1 72 0
 564 001e 044B     		ldr	r3, .L36
 565 0020 E361     		str	r3, [r4, #28]
  73:..\..\..\arduinoLCD\test\Pain Drain\libraries\lvgl\src\misc/lv_anim.c **** }
 566              		.loc 1 73 0
 567 0022 4132     		adds	r2, r2, #65
 568 0024 A15C     		ldrb	r1, [r4, r2]
 569 0026 0123     		movs	r3, #1
 570 0028 0B43     		orrs	r3, r1
 571 002a A354     		strb	r3, [r4, r2]
  74:..\..\..\arduinoLCD\test\Pain Drain\libraries\lvgl\src\misc/lv_anim.c **** 
 572              		.loc 1 74 0
 573              		@ sp needed
 574              	.LVL51:
 575 002c 10BD     		pop	{r4, pc}
 576              	.L37:
 577 002e C046     		.align	2
 578              	.L36:
 579 0030 00000000 		.word	lv_anim_path_linear
 580              		.cfi_endproc
 581              	.LFE46:
 582              		.size	lv_anim_init, .-lv_anim_init
 583              		.section	.text.lv_anim_get_playtime,"ax",%progbits
 584              		.align	2
 585              		.global	lv_anim_get_playtime
ARM GAS  C:\Users\haske\AppData\Local\Temp\cceAapTu.s 			page 21


 586              		.code	16
 587              		.thumb_func
 588              		.type	lv_anim_get_playtime, %function
 589              	lv_anim_get_playtime:
 590              	.LFB48:
 118:..\..\..\arduinoLCD\test\Pain Drain\libraries\lvgl\src\misc/lv_anim.c ****     uint32_t playtime = LV_ANIM_PLAYTIME_INFINITE;
 591              		.loc 1 118 0
 592              		.cfi_startproc
 593              		@ args = 0, pretend = 0, frame = 0
 594              		@ frame_needed = 0, uses_anonymous_args = 0
 595              	.LVL52:
 596 0000 30B5     		push	{r4, r5, lr}
 597              		.cfi_def_cfa_offset 12
 598              		.cfi_offset 4, -12
 599              		.cfi_offset 5, -8
 600              		.cfi_offset 14, -4
 601              	.LVL53:
 121:..\..\..\arduinoLCD\test\Pain Drain\libraries\lvgl\src\misc/lv_anim.c ****         return playtime;
 602              		.loc 1 121 0
 603 0002 4023     		movs	r3, #64
 604 0004 C45A     		ldrh	r4, [r0, r3]
 605 0006 114B     		ldr	r3, .L43
 606 0008 9C42     		cmp	r4, r3
 607 000a 19D0     		beq	.L41
 124:..\..\..\arduinoLCD\test\Pain Drain\libraries\lvgl\src\misc/lv_anim.c ****     if(a->playback_now == 0)
 608              		.loc 1 124 0
 609 000c C36A     		ldr	r3, [r0, #44]
 610 000e 026B     		ldr	r2, [r0, #48]
 611 0010 9D1A     		subs	r5, r3, r2
 612              	.LVL54:
 125:..\..\..\arduinoLCD\test\Pain Drain\libraries\lvgl\src\misc/lv_anim.c ****         playtime += a->playback_delay + a->playback_time;
 613              		.loc 1 125 0
 614 0012 4222     		movs	r2, #66
 615 0014 825C     		ldrb	r2, [r0, r2]
 616 0016 9207     		lsls	r2, r2, #30
 617 0018 04D4     		bmi	.L40
 126:..\..\..\arduinoLCD\test\Pain Drain\libraries\lvgl\src\misc/lv_anim.c **** 
 618              		.loc 1 126 0
 619 001a 426B     		ldr	r2, [r0, #52]
 620 001c 816B     		ldr	r1, [r0, #56]
 621 001e 8C46     		mov	ip, r1
 622 0020 6244     		add	r2, r2, ip
 623 0022 AD18     		adds	r5, r5, r2
 624              	.LVL55:
 625              	.L40:
 128:..\..\..\arduinoLCD\test\Pain Drain\libraries\lvgl\src\misc/lv_anim.c ****         return playtime;
 626              		.loc 1 128 0
 627 0024 012C     		cmp	r4, #1
 628 0026 0ED9     		bls	.L42
 131:..\..\..\arduinoLCD\test\Pain Drain\libraries\lvgl\src\misc/lv_anim.c ****                  a->playback_delay + a->playback_time) *
 629              		.loc 1 131 0
 630 0028 C26B     		ldr	r2, [r0, #60]
 631 002a 9446     		mov	ip, r2
 632 002c 6344     		add	r3, r3, ip
 633 002e 426B     		ldr	r2, [r0, #52]
 634 0030 9446     		mov	ip, r2
 635 0032 6344     		add	r3, r3, ip
ARM GAS  C:\Users\haske\AppData\Local\Temp\cceAapTu.s 			page 22


 132:..\..\..\arduinoLCD\test\Pain Drain\libraries\lvgl\src\misc/lv_anim.c ****                 (a->repeat_cnt - 1);
 636              		.loc 1 132 0
 637 0034 816B     		ldr	r1, [r0, #56]
 638 0036 5A18     		adds	r2, r3, r1
 133:..\..\..\arduinoLCD\test\Pain Drain\libraries\lvgl\src\misc/lv_anim.c **** 
 639              		.loc 1 133 0
 640 0038 631E     		subs	r3, r4, #1
 132:..\..\..\arduinoLCD\test\Pain Drain\libraries\lvgl\src\misc/lv_anim.c ****                 (a->repeat_cnt - 1);
 641              		.loc 1 132 0
 642 003a 5343     		muls	r3, r2
 131:..\..\..\arduinoLCD\test\Pain Drain\libraries\lvgl\src\misc/lv_anim.c ****                  a->playback_delay + a->playback_time) *
 643              		.loc 1 131 0
 644 003c E818     		adds	r0, r5, r3
 645              	.LVL56:
 135:..\..\..\arduinoLCD\test\Pain Drain\libraries\lvgl\src\misc/lv_anim.c **** }
 646              		.loc 1 135 0
 647 003e 03E0     		b	.L39
 648              	.LVL57:
 649              	.L41:
 122:..\..\..\arduinoLCD\test\Pain Drain\libraries\lvgl\src\misc/lv_anim.c **** 
 650              		.loc 1 122 0
 651 0040 0120     		movs	r0, #1
 652              	.LVL58:
 653 0042 4042     		rsbs	r0, r0, #0
 654 0044 00E0     		b	.L39
 655              	.LVL59:
 656              	.L42:
 129:..\..\..\arduinoLCD\test\Pain Drain\libraries\lvgl\src\misc/lv_anim.c **** 
 657              		.loc 1 129 0
 658 0046 2800     		movs	r0, r5
 659              	.LVL60:
 660              	.L39:
 136:..\..\..\arduinoLCD\test\Pain Drain\libraries\lvgl\src\misc/lv_anim.c **** 
 661              		.loc 1 136 0
 662              		@ sp needed
 663 0048 30BD     		pop	{r4, r5, pc}
 664              	.L44:
 665 004a C046     		.align	2
 666              	.L43:
 667 004c FFFF0000 		.word	65535
 668              		.cfi_endproc
 669              	.LFE48:
 670              		.size	lv_anim_get_playtime, .-lv_anim_get_playtime
 671              		.section	.text.lv_anim_del,"ax",%progbits
 672              		.align	2
 673              		.global	lv_anim_del
 674              		.code	16
 675              		.thumb_func
 676              		.type	lv_anim_del, %function
 677              	lv_anim_del:
 678              	.LFB49:
 139:..\..\..\arduinoLCD\test\Pain Drain\libraries\lvgl\src\misc/lv_anim.c ****     lv_anim_t * a;
 679              		.loc 1 139 0
 680              		.cfi_startproc
 681              		@ args = 0, pretend = 0, frame = 8
 682              		@ frame_needed = 0, uses_anonymous_args = 0
 683              	.LVL61:
ARM GAS  C:\Users\haske\AppData\Local\Temp\cceAapTu.s 			page 23


 684 0000 F0B5     		push	{r4, r5, r6, r7, lr}
 685              		.cfi_def_cfa_offset 20
 686              		.cfi_offset 4, -20
 687              		.cfi_offset 5, -16
 688              		.cfi_offset 6, -12
 689              		.cfi_offset 7, -8
 690              		.cfi_offset 14, -4
 691 0002 83B0     		sub	sp, sp, #12
 692              		.cfi_def_cfa_offset 32
 693 0004 0600     		movs	r6, r0
 694 0006 0F00     		movs	r7, r1
 695              	.LVL62:
 143:..\..\..\arduinoLCD\test\Pain Drain\libraries\lvgl\src\misc/lv_anim.c ****     while(a != NULL) {
 696              		.loc 1 143 0
 697 0008 1548     		ldr	r0, .L52
 698              	.LVL63:
 699 000a FFF7FEFF 		bl	_lv_ll_get_head
 700              	.LVL64:
 701 000e 0400     		movs	r4, r0
 702              	.LVL65:
 142:..\..\..\arduinoLCD\test\Pain Drain\libraries\lvgl\src\misc/lv_anim.c ****     a        = _lv_ll_get_head(&LV_GC_ROOT(_lv_anim_ll));
 703              		.loc 1 142 0
 704 0010 0023     		movs	r3, #0
 705 0012 0193     		str	r3, [sp, #4]
 144:..\..\..\arduinoLCD\test\Pain Drain\libraries\lvgl\src\misc/lv_anim.c ****         /*'a' might be deleted, so get the next object while 'a' is valid*/
 706              		.loc 1 144 0
 707 0014 1FE0     		b	.L46
 708              	.LVL66:
 709              	.L51:
 146:..\..\..\arduinoLCD\test\Pain Drain\libraries\lvgl\src\misc/lv_anim.c **** 
 710              		.loc 1 146 0
 711 0016 2100     		movs	r1, r4
 712 0018 1148     		ldr	r0, .L52
 713 001a FFF7FEFF 		bl	_lv_ll_get_next
 714              	.LVL67:
 715 001e 0500     		movs	r5, r0
 716              	.LVL68:
 148:..\..\..\arduinoLCD\test\Pain Drain\libraries\lvgl\src\misc/lv_anim.c ****             _lv_ll_remove(&LV_GC_ROOT(_lv_anim_ll), a);
 717              		.loc 1 148 0
 718 0020 2368     		ldr	r3, [r4]
 719 0022 B342     		cmp	r3, r6
 720 0024 01D0     		beq	.L47
 148:..\..\..\arduinoLCD\test\Pain Drain\libraries\lvgl\src\misc/lv_anim.c ****             _lv_ll_remove(&LV_GC_ROOT(_lv_anim_ll), a);
 721              		.loc 1 148 0 is_stmt 0 discriminator 2
 722 0026 002E     		cmp	r6, #0
 723 0028 14D1     		bne	.L48
 724              	.L47:
 148:..\..\..\arduinoLCD\test\Pain Drain\libraries\lvgl\src\misc/lv_anim.c ****             _lv_ll_remove(&LV_GC_ROOT(_lv_anim_ll), a);
 725              		.loc 1 148 0 discriminator 3
 726 002a 6368     		ldr	r3, [r4, #4]
 727 002c BB42     		cmp	r3, r7
 728 002e 01D0     		beq	.L49
 148:..\..\..\arduinoLCD\test\Pain Drain\libraries\lvgl\src\misc/lv_anim.c ****             _lv_ll_remove(&LV_GC_ROOT(_lv_anim_ll), a);
 729              		.loc 1 148 0 discriminator 4
 730 0030 002F     		cmp	r7, #0
 731 0032 0FD1     		bne	.L48
 732              	.L49:
ARM GAS  C:\Users\haske\AppData\Local\Temp\cceAapTu.s 			page 24


 149:..\..\..\arduinoLCD\test\Pain Drain\libraries\lvgl\src\misc/lv_anim.c ****             if(a->deleted_cb != NULL) a->deleted_cb(a);
 733              		.loc 1 149 0 is_stmt 1
 734 0034 2100     		movs	r1, r4
 735 0036 0A48     		ldr	r0, .L52
 736              	.LVL69:
 737 0038 FFF7FEFF 		bl	_lv_ll_remove
 738              	.LVL70:
 150:..\..\..\arduinoLCD\test\Pain Drain\libraries\lvgl\src\misc/lv_anim.c ****             lv_mem_free(a);
 739              		.loc 1 150 0
 740 003c 2369     		ldr	r3, [r4, #16]
 741 003e 002B     		cmp	r3, #0
 742 0040 01D0     		beq	.L50
 150:..\..\..\arduinoLCD\test\Pain Drain\libraries\lvgl\src\misc/lv_anim.c ****             lv_mem_free(a);
 743              		.loc 1 150 0 is_stmt 0 discriminator 1
 744 0042 2000     		movs	r0, r4
 745 0044 9847     		blx	r3
 746              	.LVL71:
 747              	.L50:
 151:..\..\..\arduinoLCD\test\Pain Drain\libraries\lvgl\src\misc/lv_anim.c ****             anim_mark_list_change(); /*Read by `anim_timer`. It need to know if a delete occurred i
 748              		.loc 1 151 0 is_stmt 1
 749 0046 2000     		movs	r0, r4
 750 0048 FFF7FEFF 		bl	lv_mem_free
 751              	.LVL72:
 152:..\..\..\arduinoLCD\test\Pain Drain\libraries\lvgl\src\misc/lv_anim.c ****                                        the linked list*/
 752              		.loc 1 152 0
 753 004c FFF7FEFF 		bl	anim_mark_list_change
 754              	.LVL73:
 154:..\..\..\arduinoLCD\test\Pain Drain\libraries\lvgl\src\misc/lv_anim.c ****         }
 755              		.loc 1 154 0
 756 0050 0123     		movs	r3, #1
 757 0052 0193     		str	r3, [sp, #4]
 758              	.LVL74:
 759              	.L48:
 760 0054 2C00     		movs	r4, r5
 761              	.LVL75:
 762              	.L46:
 144:..\..\..\arduinoLCD\test\Pain Drain\libraries\lvgl\src\misc/lv_anim.c ****         /*'a' might be deleted, so get the next object while 'a' is valid*/
 763              		.loc 1 144 0
 764 0056 002C     		cmp	r4, #0
 765 0058 DDD1     		bne	.L51
 161:..\..\..\arduinoLCD\test\Pain Drain\libraries\lvgl\src\misc/lv_anim.c **** 
 766              		.loc 1 161 0
 767 005a 0198     		ldr	r0, [sp, #4]
 768 005c 03B0     		add	sp, sp, #12
 769              		@ sp needed
 770              	.LVL76:
 771              	.LVL77:
 772              	.LVL78:
 773 005e F0BD     		pop	{r4, r5, r6, r7, pc}
 774              	.L53:
 775              		.align	2
 776              	.L52:
 777 0060 00000000 		.word	_lv_anim_ll
 778              		.cfi_endproc
 779              	.LFE49:
 780              		.size	lv_anim_del, .-lv_anim_del
 781              		.section	.text.lv_anim_start,"ax",%progbits
ARM GAS  C:\Users\haske\AppData\Local\Temp\cceAapTu.s 			page 25


 782              		.align	2
 783              		.global	lv_anim_start
 784              		.code	16
 785              		.thumb_func
 786              		.type	lv_anim_start, %function
 787              	lv_anim_start:
 788              	.LFB47:
  77:..\..\..\arduinoLCD\test\Pain Drain\libraries\lvgl\src\misc/lv_anim.c ****     TRACE_ANIM("begin");
 789              		.loc 1 77 0
 790              		.cfi_startproc
 791              		@ args = 0, pretend = 0, frame = 0
 792              		@ frame_needed = 0, uses_anonymous_args = 0
 793              	.LVL79:
 794 0000 70B5     		push	{r4, r5, r6, lr}
 795              		.cfi_def_cfa_offset 16
 796              		.cfi_offset 4, -16
 797              		.cfi_offset 5, -12
 798              		.cfi_offset 6, -8
 799              		.cfi_offset 14, -4
 800 0002 0500     		movs	r5, r0
  81:..\..\..\arduinoLCD\test\Pain Drain\libraries\lvgl\src\misc/lv_anim.c **** 
 801              		.loc 1 81 0
 802 0004 4168     		ldr	r1, [r0, #4]
 803 0006 0029     		cmp	r1, #0
 804 0008 02D0     		beq	.L55
  81:..\..\..\arduinoLCD\test\Pain Drain\libraries\lvgl\src\misc/lv_anim.c **** 
 805              		.loc 1 81 0 is_stmt 0 discriminator 1
 806 000a 0068     		ldr	r0, [r0]
 807              	.LVL80:
 808 000c FFF7FEFF 		bl	lv_anim_del
 809              	.LVL81:
 810              	.L55:
  84:..\..\..\arduinoLCD\test\Pain Drain\libraries\lvgl\src\misc/lv_anim.c ****         last_timer_run = lv_tick_get();
 811              		.loc 1 84 0 is_stmt 1
 812 0010 1F48     		ldr	r0, .L64
 813 0012 FFF7FEFF 		bl	_lv_ll_is_empty
 814              	.LVL82:
 815 0016 0028     		cmp	r0, #0
 816 0018 03D0     		beq	.L56
  85:..\..\..\arduinoLCD\test\Pain Drain\libraries\lvgl\src\misc/lv_anim.c ****     }
 817              		.loc 1 85 0
 818 001a FFF7FEFF 		bl	lv_tick_get
 819              	.LVL83:
 820 001e 1D4B     		ldr	r3, .L64+4
 821 0020 9860     		str	r0, [r3, #8]
 822              	.L56:
  89:..\..\..\arduinoLCD\test\Pain Drain\libraries\lvgl\src\misc/lv_anim.c ****     LV_ASSERT_MALLOC(new_anim);
 823              		.loc 1 89 0
 824 0022 1B48     		ldr	r0, .L64
 825 0024 FFF7FEFF 		bl	_lv_ll_ins_head
 826              	.LVL84:
 827 0028 041E     		subs	r4, r0, #0
 828              	.LVL85:
  90:..\..\..\arduinoLCD\test\Pain Drain\libraries\lvgl\src\misc/lv_anim.c ****     if(new_anim == NULL) return NULL;
 829              		.loc 1 90 0
 830 002a 00D1     		bne	.L57
 831              	.L58:
ARM GAS  C:\Users\haske\AppData\Local\Temp\cceAapTu.s 			page 26


 832 002c FEE7     		b	.L58
 833              	.L57:
  91:..\..\..\arduinoLCD\test\Pain Drain\libraries\lvgl\src\misc/lv_anim.c **** 
 834              		.loc 1 91 0
 835 002e 0028     		cmp	r0, #0
 836 0030 2CD0     		beq	.L63
  94:..\..\..\arduinoLCD\test\Pain Drain\libraries\lvgl\src\misc/lv_anim.c ****     if(a->var == a) new_anim->var = new_anim;
 837              		.loc 1 94 0
 838 0032 4422     		movs	r2, #68
 839 0034 2900     		movs	r1, r5
 840 0036 FFF7FEFF 		bl	lv_memcpy
 841              	.LVL86:
  95:..\..\..\arduinoLCD\test\Pain Drain\libraries\lvgl\src\misc/lv_anim.c ****     new_anim->run_round = anim_run_round;
 842              		.loc 1 95 0
 843 003a 2B68     		ldr	r3, [r5]
 844 003c 9D42     		cmp	r5, r3
 845 003e 00D1     		bne	.L60
  95:..\..\..\arduinoLCD\test\Pain Drain\libraries\lvgl\src\misc/lv_anim.c ****     new_anim->run_round = anim_run_round;
 846              		.loc 1 95 0 is_stmt 0 discriminator 1
 847 0040 2460     		str	r4, [r4]
 848              	.L60:
  96:..\..\..\arduinoLCD\test\Pain Drain\libraries\lvgl\src\misc/lv_anim.c **** 
 849              		.loc 1 96 0 is_stmt 1
 850 0042 4220     		movs	r0, #66
 851 0044 134B     		ldr	r3, .L64+4
 852 0046 1B7B     		ldrb	r3, [r3, #12]
 853 0048 0121     		movs	r1, #1
 854 004a 0B40     		ands	r3, r1
 855 004c 9A00     		lsls	r2, r3, #2
 856 004e 235C     		ldrb	r3, [r4, r0]
 857 0050 0425     		movs	r5, #4
 858              	.LVL87:
 859 0052 AB43     		bics	r3, r5
 860 0054 1343     		orrs	r3, r2
 861 0056 2354     		strb	r3, [r4, r0]
  99:..\..\..\arduinoLCD\test\Pain Drain\libraries\lvgl\src\misc/lv_anim.c ****         if(new_anim->get_value_cb) {
 862              		.loc 1 99 0
 863 0058 1942     		tst	r1, r3
 864 005a 13D0     		beq	.L61
 100:..\..\..\arduinoLCD\test\Pain Drain\libraries\lvgl\src\misc/lv_anim.c ****             int32_t v_ofs = new_anim->get_value_cb(new_anim);
 865              		.loc 1 100 0
 866 005c 6369     		ldr	r3, [r4, #20]
 867 005e 002B     		cmp	r3, #0
 868 0060 08D0     		beq	.L62
 869              	.LBB6:
 101:..\..\..\arduinoLCD\test\Pain Drain\libraries\lvgl\src\misc/lv_anim.c ****             new_anim->start_value += v_ofs;
 870              		.loc 1 101 0
 871 0062 2000     		movs	r0, r4
 872 0064 9847     		blx	r3
 873              	.LVL88:
 102:..\..\..\arduinoLCD\test\Pain Drain\libraries\lvgl\src\misc/lv_anim.c ****             new_anim->end_value += v_ofs;
 874              		.loc 1 102 0
 875 0066 236A     		ldr	r3, [r4, #32]
 876 0068 1B18     		adds	r3, r3, r0
 877 006a 2362     		str	r3, [r4, #32]
 103:..\..\..\arduinoLCD\test\Pain Drain\libraries\lvgl\src\misc/lv_anim.c ****         }
 878              		.loc 1 103 0
ARM GAS  C:\Users\haske\AppData\Local\Temp\cceAapTu.s 			page 27


 879 006c A36A     		ldr	r3, [r4, #40]
 880 006e 9C46     		mov	ip, r3
 881 0070 6044     		add	r0, r0, ip
 882              	.LVL89:
 883 0072 A062     		str	r0, [r4, #40]
 884              	.L62:
 885              	.LBE6:
 106:..\..\..\arduinoLCD\test\Pain Drain\libraries\lvgl\src\misc/lv_anim.c ****     }
 886              		.loc 1 106 0
 887 0074 6368     		ldr	r3, [r4, #4]
 888 0076 002B     		cmp	r3, #0
 889 0078 04D0     		beq	.L61
 106:..\..\..\arduinoLCD\test\Pain Drain\libraries\lvgl\src\misc/lv_anim.c ****     }
 890              		.loc 1 106 0 is_stmt 0 discriminator 1
 891 007a 2068     		ldr	r0, [r4]
 892 007c 0028     		cmp	r0, #0
 893 007e 01D0     		beq	.L61
 106:..\..\..\arduinoLCD\test\Pain Drain\libraries\lvgl\src\misc/lv_anim.c ****     }
 894              		.loc 1 106 0 discriminator 2
 895 0080 216A     		ldr	r1, [r4, #32]
 896 0082 9847     		blx	r3
 897              	.LVL90:
 898              	.L61:
 111:..\..\..\arduinoLCD\test\Pain Drain\libraries\lvgl\src\misc/lv_anim.c **** 
 899              		.loc 1 111 0 is_stmt 1
 900 0084 FFF7FEFF 		bl	anim_mark_list_change
 901              	.LVL91:
 114:..\..\..\arduinoLCD\test\Pain Drain\libraries\lvgl\src\misc/lv_anim.c **** }
 902              		.loc 1 114 0
 903 0088 2000     		movs	r0, r4
 904 008a 00E0     		b	.L59
 905              	.LVL92:
 906              	.L63:
  91:..\..\..\arduinoLCD\test\Pain Drain\libraries\lvgl\src\misc/lv_anim.c **** 
 907              		.loc 1 91 0
 908 008c 0020     		movs	r0, #0
 909              	.LVL93:
 910              	.L59:
 115:..\..\..\arduinoLCD\test\Pain Drain\libraries\lvgl\src\misc/lv_anim.c **** 
 911              		.loc 1 115 0
 912              		@ sp needed
 913              	.LVL94:
 914 008e 70BD     		pop	{r4, r5, r6, pc}
 915              	.L65:
 916              		.align	2
 917              	.L64:
 918 0090 00000000 		.word	_lv_anim_ll
 919 0094 00000000 		.word	.LANCHOR0
 920              		.cfi_endproc
 921              	.LFE47:
 922              		.size	lv_anim_start, .-lv_anim_start
 923              		.section	.text.lv_anim_del_all,"ax",%progbits
 924              		.align	2
 925              		.global	lv_anim_del_all
 926              		.code	16
 927              		.thumb_func
 928              		.type	lv_anim_del_all, %function
ARM GAS  C:\Users\haske\AppData\Local\Temp\cceAapTu.s 			page 28


 929              	lv_anim_del_all:
 930              	.LFB50:
 164:..\..\..\arduinoLCD\test\Pain Drain\libraries\lvgl\src\misc/lv_anim.c ****     _lv_ll_clear(&LV_GC_ROOT(_lv_anim_ll));
 931              		.loc 1 164 0
 932              		.cfi_startproc
 933              		@ args = 0, pretend = 0, frame = 0
 934              		@ frame_needed = 0, uses_anonymous_args = 0
 935 0000 10B5     		push	{r4, lr}
 936              		.cfi_def_cfa_offset 8
 937              		.cfi_offset 4, -8
 938              		.cfi_offset 14, -4
 165:..\..\..\arduinoLCD\test\Pain Drain\libraries\lvgl\src\misc/lv_anim.c ****     anim_mark_list_change();
 939              		.loc 1 165 0
 940 0002 0348     		ldr	r0, .L67
 941 0004 FFF7FEFF 		bl	_lv_ll_clear
 942              	.LVL95:
 166:..\..\..\arduinoLCD\test\Pain Drain\libraries\lvgl\src\misc/lv_anim.c **** }
 943              		.loc 1 166 0
 944 0008 FFF7FEFF 		bl	anim_mark_list_change
 945              	.LVL96:
 167:..\..\..\arduinoLCD\test\Pain Drain\libraries\lvgl\src\misc/lv_anim.c **** 
 946              		.loc 1 167 0
 947              		@ sp needed
 948 000c 10BD     		pop	{r4, pc}
 949              	.L68:
 950 000e C046     		.align	2
 951              	.L67:
 952 0010 00000000 		.word	_lv_anim_ll
 953              		.cfi_endproc
 954              	.LFE50:
 955              		.size	lv_anim_del_all, .-lv_anim_del_all
 956              		.section	.text.lv_anim_get,"ax",%progbits
 957              		.align	2
 958              		.global	lv_anim_get
 959              		.code	16
 960              		.thumb_func
 961              		.type	lv_anim_get, %function
 962              	lv_anim_get:
 963              	.LFB51:
 170:..\..\..\arduinoLCD\test\Pain Drain\libraries\lvgl\src\misc/lv_anim.c ****     lv_anim_t * a;
 964              		.loc 1 170 0
 965              		.cfi_startproc
 966              		@ args = 0, pretend = 0, frame = 0
 967              		@ frame_needed = 0, uses_anonymous_args = 0
 968              	.LVL97:
 969 0000 70B5     		push	{r4, r5, r6, lr}
 970              		.cfi_def_cfa_offset 16
 971              		.cfi_offset 4, -16
 972              		.cfi_offset 5, -12
 973              		.cfi_offset 6, -8
 974              		.cfi_offset 14, -4
 975 0002 0400     		movs	r4, r0
 976 0004 0D00     		movs	r5, r1
 172:..\..\..\arduinoLCD\test\Pain Drain\libraries\lvgl\src\misc/lv_anim.c ****         if(a->var == var && (a->exec_cb == exec_cb || exec_cb == NULL)) {
 977              		.loc 1 172 0
 978 0006 0948     		ldr	r0, .L76
 979              	.LVL98:
ARM GAS  C:\Users\haske\AppData\Local\Temp\cceAapTu.s 			page 29


 980 0008 FFF7FEFF 		bl	_lv_ll_get_head
 981              	.LVL99:
 982 000c 0BE0     		b	.L70
 983              	.L73:
 173:..\..\..\arduinoLCD\test\Pain Drain\libraries\lvgl\src\misc/lv_anim.c ****             return a;
 984              		.loc 1 173 0
 985 000e 0368     		ldr	r3, [r0]
 986 0010 A342     		cmp	r3, r4
 987 0012 04D1     		bne	.L71
 173:..\..\..\arduinoLCD\test\Pain Drain\libraries\lvgl\src\misc/lv_anim.c ****             return a;
 988              		.loc 1 173 0 is_stmt 0 discriminator 1
 989 0014 4368     		ldr	r3, [r0, #4]
 990 0016 AB42     		cmp	r3, r5
 991 0018 07D0     		beq	.L72
 173:..\..\..\arduinoLCD\test\Pain Drain\libraries\lvgl\src\misc/lv_anim.c ****             return a;
 992              		.loc 1 173 0 discriminator 2
 993 001a 002D     		cmp	r5, #0
 994 001c 05D0     		beq	.L72
 995              	.L71:
 172:..\..\..\arduinoLCD\test\Pain Drain\libraries\lvgl\src\misc/lv_anim.c ****         if(a->var == var && (a->exec_cb == exec_cb || exec_cb == NULL)) {
 996              		.loc 1 172 0 is_stmt 1 discriminator 2
 997 001e 0100     		movs	r1, r0
 998 0020 0248     		ldr	r0, .L76
 999              	.LVL100:
 1000 0022 FFF7FEFF 		bl	_lv_ll_get_next
 1001              	.LVL101:
 1002              	.L70:
 172:..\..\..\arduinoLCD\test\Pain Drain\libraries\lvgl\src\misc/lv_anim.c ****         if(a->var == var && (a->exec_cb == exec_cb || exec_cb == NULL)) {
 1003              		.loc 1 172 0 is_stmt 0 discriminator 1
 1004 0026 0028     		cmp	r0, #0
 1005 0028 F1D1     		bne	.L73
 1006              	.L72:
 179:..\..\..\arduinoLCD\test\Pain Drain\libraries\lvgl\src\misc/lv_anim.c **** 
 1007              		.loc 1 179 0 is_stmt 1
 1008              		@ sp needed
 1009              	.LVL102:
 1010              	.LVL103:
 1011 002a 70BD     		pop	{r4, r5, r6, pc}
 1012              	.L77:
 1013              		.align	2
 1014              	.L76:
 1015 002c 00000000 		.word	_lv_anim_ll
 1016              		.cfi_endproc
 1017              	.LFE51:
 1018              		.size	lv_anim_get, .-lv_anim_get
 1019              		.section	.text.lv_anim_get_timer,"ax",%progbits
 1020              		.align	2
 1021              		.global	lv_anim_get_timer
 1022              		.code	16
 1023              		.thumb_func
 1024              		.type	lv_anim_get_timer, %function
 1025              	lv_anim_get_timer:
 1026              	.LFB52:
 182:..\..\..\arduinoLCD\test\Pain Drain\libraries\lvgl\src\misc/lv_anim.c ****     return _lv_anim_tmr;
 1027              		.loc 1 182 0
 1028              		.cfi_startproc
 1029              		@ args = 0, pretend = 0, frame = 0
ARM GAS  C:\Users\haske\AppData\Local\Temp\cceAapTu.s 			page 30


 1030              		@ frame_needed = 0, uses_anonymous_args = 0
 1031              		@ link register save eliminated.
 183:..\..\..\arduinoLCD\test\Pain Drain\libraries\lvgl\src\misc/lv_anim.c **** }
 1032              		.loc 1 183 0
 1033 0000 014B     		ldr	r3, .L79
 1034 0002 5868     		ldr	r0, [r3, #4]
 184:..\..\..\arduinoLCD\test\Pain Drain\libraries\lvgl\src\misc/lv_anim.c **** 
 1035              		.loc 1 184 0
 1036              		@ sp needed
 1037 0004 7047     		bx	lr
 1038              	.L80:
 1039 0006 C046     		.align	2
 1040              	.L79:
 1041 0008 00000000 		.word	.LANCHOR0
 1042              		.cfi_endproc
 1043              	.LFE52:
 1044              		.size	lv_anim_get_timer, .-lv_anim_get_timer
 1045              		.section	.text.lv_anim_count_running,"ax",%progbits
 1046              		.align	2
 1047              		.global	lv_anim_count_running
 1048              		.code	16
 1049              		.thumb_func
 1050              		.type	lv_anim_count_running, %function
 1051              	lv_anim_count_running:
 1052              	.LFB53:
 187:..\..\..\arduinoLCD\test\Pain Drain\libraries\lvgl\src\misc/lv_anim.c ****     uint16_t cnt = 0;
 1053              		.loc 1 187 0
 1054              		.cfi_startproc
 1055              		@ args = 0, pretend = 0, frame = 0
 1056              		@ frame_needed = 0, uses_anonymous_args = 0
 1057 0000 10B5     		push	{r4, lr}
 1058              		.cfi_def_cfa_offset 8
 1059              		.cfi_offset 4, -8
 1060              		.cfi_offset 14, -4
 1061              	.LVL104:
 190:..\..\..\arduinoLCD\test\Pain Drain\libraries\lvgl\src\misc/lv_anim.c **** 
 1062              		.loc 1 190 0
 1063 0002 0748     		ldr	r0, .L84
 1064 0004 FFF7FEFF 		bl	_lv_ll_get_head
 1065              	.LVL105:
 188:..\..\..\arduinoLCD\test\Pain Drain\libraries\lvgl\src\misc/lv_anim.c ****     lv_anim_t * a;
 1066              		.loc 1 188 0
 1067 0008 0024     		movs	r4, #0
 190:..\..\..\arduinoLCD\test\Pain Drain\libraries\lvgl\src\misc/lv_anim.c **** 
 1068              		.loc 1 190 0
 1069 000a 05E0     		b	.L82
 1070              	.LVL106:
 1071              	.L83:
 190:..\..\..\arduinoLCD\test\Pain Drain\libraries\lvgl\src\misc/lv_anim.c **** 
 1072              		.loc 1 190 0 is_stmt 0 discriminator 3
 1073 000c 0134     		adds	r4, r4, #1
 1074              	.LVL107:
 1075 000e A4B2     		uxth	r4, r4
 1076              	.LVL108:
 1077 0010 0100     		movs	r1, r0
 1078 0012 0348     		ldr	r0, .L84
 1079              	.LVL109:
ARM GAS  C:\Users\haske\AppData\Local\Temp\cceAapTu.s 			page 31


 1080 0014 FFF7FEFF 		bl	_lv_ll_get_next
 1081              	.LVL110:
 1082              	.L82:
 190:..\..\..\arduinoLCD\test\Pain Drain\libraries\lvgl\src\misc/lv_anim.c **** 
 1083              		.loc 1 190 0 discriminator 1
 1084 0018 0028     		cmp	r0, #0
 1085 001a F7D1     		bne	.L83
 193:..\..\..\arduinoLCD\test\Pain Drain\libraries\lvgl\src\misc/lv_anim.c **** 
 1086              		.loc 1 193 0 is_stmt 1
 1087 001c 2000     		movs	r0, r4
 1088              	.LVL111:
 1089              		@ sp needed
 1090              	.LVL112:
 1091 001e 10BD     		pop	{r4, pc}
 1092              	.L85:
 1093              		.align	2
 1094              	.L84:
 1095 0020 00000000 		.word	_lv_anim_ll
 1096              		.cfi_endproc
 1097              	.LFE53:
 1098              		.size	lv_anim_count_running, .-lv_anim_count_running
 1099              		.global	__aeabi_uidiv
 1100              		.section	.text.lv_anim_speed_to_time,"ax",%progbits
 1101              		.align	2
 1102              		.global	lv_anim_speed_to_time
 1103              		.code	16
 1104              		.thumb_func
 1105              		.type	lv_anim_speed_to_time, %function
 1106              	lv_anim_speed_to_time:
 1107              	.LFB54:
 196:..\..\..\arduinoLCD\test\Pain Drain\libraries\lvgl\src\misc/lv_anim.c ****     uint32_t d    = LV_ABS(start - end);
 1108              		.loc 1 196 0
 1109              		.cfi_startproc
 1110              		@ args = 0, pretend = 0, frame = 0
 1111              		@ frame_needed = 0, uses_anonymous_args = 0
 1112              	.LVL113:
 1113 0000 10B5     		push	{r4, lr}
 1114              		.cfi_def_cfa_offset 8
 1115              		.cfi_offset 4, -8
 1116              		.cfi_offset 14, -4
 1117 0002 0300     		movs	r3, r0
 197:..\..\..\arduinoLCD\test\Pain Drain\libraries\lvgl\src\misc/lv_anim.c ****     uint32_t time = (d * 1000) / speed;
 1118              		.loc 1 197 0
 1119 0004 891A     		subs	r1, r1, r2
 1120              	.LVL114:
 1121 0006 CA17     		asrs	r2, r1, #31
 1122              	.LVL115:
 1123 0008 8918     		adds	r1, r1, r2
 1124 000a 5140     		eors	r1, r2
 1125              	.LVL116:
 198:..\..\..\arduinoLCD\test\Pain Drain\libraries\lvgl\src\misc/lv_anim.c **** 
 1126              		.loc 1 198 0
 1127 000c FA20     		movs	r0, #250
 1128              	.LVL117:
 1129 000e 8000     		lsls	r0, r0, #2
 1130 0010 4843     		muls	r0, r1
 1131 0012 1900     		movs	r1, r3
ARM GAS  C:\Users\haske\AppData\Local\Temp\cceAapTu.s 			page 32


 1132              	.LVL118:
 1133 0014 FFF7FEFF 		bl	__aeabi_uidiv
 1134              	.LVL119:
 200:..\..\..\arduinoLCD\test\Pain Drain\libraries\lvgl\src\misc/lv_anim.c ****         time++;
 1135              		.loc 1 200 0
 1136 0018 0028     		cmp	r0, #0
 1137 001a 00D1     		bne	.L87
 201:..\..\..\arduinoLCD\test\Pain Drain\libraries\lvgl\src\misc/lv_anim.c ****     }
 1138              		.loc 1 201 0
 1139 001c 0130     		adds	r0, r0, #1
 1140              	.LVL120:
 1141              	.L87:
 205:..\..\..\arduinoLCD\test\Pain Drain\libraries\lvgl\src\misc/lv_anim.c **** 
 1142              		.loc 1 205 0
 1143              		@ sp needed
 1144 001e 10BD     		pop	{r4, pc}
 1145              		.cfi_endproc
 1146              	.LFE54:
 1147              		.size	lv_anim_speed_to_time, .-lv_anim_speed_to_time
 1148              		.section	.text.lv_anim_refr_now,"ax",%progbits
 1149              		.align	2
 1150              		.global	lv_anim_refr_now
 1151              		.code	16
 1152              		.thumb_func
 1153              		.type	lv_anim_refr_now, %function
 1154              	lv_anim_refr_now:
 1155              	.LFB55:
 208:..\..\..\arduinoLCD\test\Pain Drain\libraries\lvgl\src\misc/lv_anim.c ****     anim_timer(NULL);
 1156              		.loc 1 208 0
 1157              		.cfi_startproc
 1158              		@ args = 0, pretend = 0, frame = 0
 1159              		@ frame_needed = 0, uses_anonymous_args = 0
 1160 0000 10B5     		push	{r4, lr}
 1161              		.cfi_def_cfa_offset 8
 1162              		.cfi_offset 4, -8
 1163              		.cfi_offset 14, -4
 209:..\..\..\arduinoLCD\test\Pain Drain\libraries\lvgl\src\misc/lv_anim.c **** }
 1164              		.loc 1 209 0
 1165 0002 0020     		movs	r0, #0
 1166 0004 FFF7FEFF 		bl	anim_timer
 1167              	.LVL121:
 210:..\..\..\arduinoLCD\test\Pain Drain\libraries\lvgl\src\misc/lv_anim.c **** 
 1168              		.loc 1 210 0
 1169              		@ sp needed
 1170 0008 10BD     		pop	{r4, pc}
 1171              		.cfi_endproc
 1172              	.LFE55:
 1173              		.size	lv_anim_refr_now, .-lv_anim_refr_now
 1174 000a C046     		.section	.text.lv_anim_path_ease_in,"ax",%progbits
 1175              		.align	2
 1176              		.global	lv_anim_path_ease_in
 1177              		.code	16
 1178              		.thumb_func
 1179              		.type	lv_anim_path_ease_in, %function
 1180              	lv_anim_path_ease_in:
 1181              	.LFB57:
 228:..\..\..\arduinoLCD\test\Pain Drain\libraries\lvgl\src\misc/lv_anim.c ****     /*Calculate the current step*/
ARM GAS  C:\Users\haske\AppData\Local\Temp\cceAapTu.s 			page 33


 1182              		.loc 1 228 0
 1183              		.cfi_startproc
 1184              		@ args = 0, pretend = 0, frame = 0
 1185              		@ frame_needed = 0, uses_anonymous_args = 0
 1186              	.LVL122:
 1187 0000 30B5     		push	{r4, r5, lr}
 1188              		.cfi_def_cfa_offset 12
 1189              		.cfi_offset 4, -12
 1190              		.cfi_offset 5, -8
 1191              		.cfi_offset 14, -4
 1192 0002 83B0     		sub	sp, sp, #12
 1193              		.cfi_def_cfa_offset 24
 1194 0004 0400     		movs	r4, r0
 230:..\..\..\arduinoLCD\test\Pain Drain\libraries\lvgl\src\misc/lv_anim.c ****     int32_t step = lv_bezier3(t, 0, 50, 100, LV_BEZIER_VAL_MAX);
 1195              		.loc 1 230 0
 1196 0006 8025     		movs	r5, #128
 1197 0008 ED00     		lsls	r5, r5, #3
 1198 000a 0095     		str	r5, [sp]
 1199 000c 0023     		movs	r3, #0
 1200 000e C26A     		ldr	r2, [r0, #44]
 1201 0010 0021     		movs	r1, #0
 1202 0012 006B     		ldr	r0, [r0, #48]
 1203              	.LVL123:
 1204 0014 FFF7FEFF 		bl	lv_map
 1205              	.LVL124:
 231:..\..\..\arduinoLCD\test\Pain Drain\libraries\lvgl\src\misc/lv_anim.c **** 
 1206              		.loc 1 231 0
 1207 0018 0095     		str	r5, [sp]
 1208 001a 6423     		movs	r3, #100
 1209 001c 3222     		movs	r2, #50
 1210 001e 0021     		movs	r1, #0
 1211 0020 FFF7FEFF 		bl	lv_bezier3
 1212              	.LVL125:
 234:..\..\..\arduinoLCD\test\Pain Drain\libraries\lvgl\src\misc/lv_anim.c ****     new_value = new_value >> LV_BEZIER_VAL_SHIFT;
 1213              		.loc 1 234 0
 1214 0024 A36A     		ldr	r3, [r4, #40]
 1215 0026 226A     		ldr	r2, [r4, #32]
 1216 0028 9B1A     		subs	r3, r3, r2
 1217 002a 5843     		muls	r0, r3
 1218              	.LVL126:
 235:..\..\..\arduinoLCD\test\Pain Drain\libraries\lvgl\src\misc/lv_anim.c ****     new_value += a->start_value;
 1219              		.loc 1 235 0
 1220 002c 8012     		asrs	r0, r0, #10
 1221              	.LVL127:
 236:..\..\..\arduinoLCD\test\Pain Drain\libraries\lvgl\src\misc/lv_anim.c **** 
 1222              		.loc 1 236 0
 1223 002e 1018     		adds	r0, r2, r0
 1224              	.LVL128:
 239:..\..\..\arduinoLCD\test\Pain Drain\libraries\lvgl\src\misc/lv_anim.c **** 
 1225              		.loc 1 239 0
 1226 0030 03B0     		add	sp, sp, #12
 1227              		@ sp needed
 1228              	.LVL129:
 1229 0032 30BD     		pop	{r4, r5, pc}
 1230              		.cfi_endproc
 1231              	.LFE57:
 1232              		.size	lv_anim_path_ease_in, .-lv_anim_path_ease_in
ARM GAS  C:\Users\haske\AppData\Local\Temp\cceAapTu.s 			page 34


 1233              		.section	.text.lv_anim_path_ease_out,"ax",%progbits
 1234              		.align	2
 1235              		.global	lv_anim_path_ease_out
 1236              		.code	16
 1237              		.thumb_func
 1238              		.type	lv_anim_path_ease_out, %function
 1239              	lv_anim_path_ease_out:
 1240              	.LFB58:
 242:..\..\..\arduinoLCD\test\Pain Drain\libraries\lvgl\src\misc/lv_anim.c ****     /*Calculate the current step*/
 1241              		.loc 1 242 0
 1242              		.cfi_startproc
 1243              		@ args = 0, pretend = 0, frame = 0
 1244              		@ frame_needed = 0, uses_anonymous_args = 0
 1245              	.LVL130:
 1246 0000 30B5     		push	{r4, r5, lr}
 1247              		.cfi_def_cfa_offset 12
 1248              		.cfi_offset 4, -12
 1249              		.cfi_offset 5, -8
 1250              		.cfi_offset 14, -4
 1251 0002 83B0     		sub	sp, sp, #12
 1252              		.cfi_def_cfa_offset 24
 1253 0004 0400     		movs	r4, r0
 244:..\..\..\arduinoLCD\test\Pain Drain\libraries\lvgl\src\misc/lv_anim.c ****     int32_t step = lv_bezier3(t, 0, 900, 950, LV_BEZIER_VAL_MAX);
 1254              		.loc 1 244 0
 1255 0006 8025     		movs	r5, #128
 1256 0008 ED00     		lsls	r5, r5, #3
 1257 000a 0095     		str	r5, [sp]
 1258 000c 0023     		movs	r3, #0
 1259 000e C26A     		ldr	r2, [r0, #44]
 1260 0010 0021     		movs	r1, #0
 1261 0012 006B     		ldr	r0, [r0, #48]
 1262              	.LVL131:
 1263 0014 FFF7FEFF 		bl	lv_map
 1264              	.LVL132:
 245:..\..\..\arduinoLCD\test\Pain Drain\libraries\lvgl\src\misc/lv_anim.c **** 
 1265              		.loc 1 245 0
 1266 0018 0095     		str	r5, [sp]
 1267 001a 074B     		ldr	r3, .L91
 1268 001c E122     		movs	r2, #225
 1269 001e 9200     		lsls	r2, r2, #2
 1270 0020 0021     		movs	r1, #0
 1271 0022 FFF7FEFF 		bl	lv_bezier3
 1272              	.LVL133:
 248:..\..\..\arduinoLCD\test\Pain Drain\libraries\lvgl\src\misc/lv_anim.c ****     new_value = new_value >> LV_BEZIER_VAL_SHIFT;
 1273              		.loc 1 248 0
 1274 0026 A36A     		ldr	r3, [r4, #40]
 1275 0028 226A     		ldr	r2, [r4, #32]
 1276 002a 9B1A     		subs	r3, r3, r2
 1277 002c 5843     		muls	r0, r3
 1278              	.LVL134:
 249:..\..\..\arduinoLCD\test\Pain Drain\libraries\lvgl\src\misc/lv_anim.c ****     new_value += a->start_value;
 1279              		.loc 1 249 0
 1280 002e 8012     		asrs	r0, r0, #10
 1281              	.LVL135:
 250:..\..\..\arduinoLCD\test\Pain Drain\libraries\lvgl\src\misc/lv_anim.c **** 
 1282              		.loc 1 250 0
 1283 0030 1018     		adds	r0, r2, r0
ARM GAS  C:\Users\haske\AppData\Local\Temp\cceAapTu.s 			page 35


 1284              	.LVL136:
 253:..\..\..\arduinoLCD\test\Pain Drain\libraries\lvgl\src\misc/lv_anim.c **** 
 1285              		.loc 1 253 0
 1286 0032 03B0     		add	sp, sp, #12
 1287              		@ sp needed
 1288              	.LVL137:
 1289 0034 30BD     		pop	{r4, r5, pc}
 1290              	.L92:
 1291 0036 C046     		.align	2
 1292              	.L91:
 1293 0038 B6030000 		.word	950
 1294              		.cfi_endproc
 1295              	.LFE58:
 1296              		.size	lv_anim_path_ease_out, .-lv_anim_path_ease_out
 1297              		.section	.text.lv_anim_path_ease_in_out,"ax",%progbits
 1298              		.align	2
 1299              		.global	lv_anim_path_ease_in_out
 1300              		.code	16
 1301              		.thumb_func
 1302              		.type	lv_anim_path_ease_in_out, %function
 1303              	lv_anim_path_ease_in_out:
 1304              	.LFB59:
 256:..\..\..\arduinoLCD\test\Pain Drain\libraries\lvgl\src\misc/lv_anim.c ****     /*Calculate the current step*/
 1305              		.loc 1 256 0
 1306              		.cfi_startproc
 1307              		@ args = 0, pretend = 0, frame = 0
 1308              		@ frame_needed = 0, uses_anonymous_args = 0
 1309              	.LVL138:
 1310 0000 30B5     		push	{r4, r5, lr}
 1311              		.cfi_def_cfa_offset 12
 1312              		.cfi_offset 4, -12
 1313              		.cfi_offset 5, -8
 1314              		.cfi_offset 14, -4
 1315 0002 83B0     		sub	sp, sp, #12
 1316              		.cfi_def_cfa_offset 24
 1317 0004 0400     		movs	r4, r0
 258:..\..\..\arduinoLCD\test\Pain Drain\libraries\lvgl\src\misc/lv_anim.c ****     int32_t step = lv_bezier3(t, 0, 50, 952, LV_BEZIER_VAL_MAX);
 1318              		.loc 1 258 0
 1319 0006 8025     		movs	r5, #128
 1320 0008 ED00     		lsls	r5, r5, #3
 1321 000a 0095     		str	r5, [sp]
 1322 000c 0023     		movs	r3, #0
 1323 000e C26A     		ldr	r2, [r0, #44]
 1324 0010 0021     		movs	r1, #0
 1325 0012 006B     		ldr	r0, [r0, #48]
 1326              	.LVL139:
 1327 0014 FFF7FEFF 		bl	lv_map
 1328              	.LVL140:
 259:..\..\..\arduinoLCD\test\Pain Drain\libraries\lvgl\src\misc/lv_anim.c **** 
 1329              		.loc 1 259 0
 1330 0018 0095     		str	r5, [sp]
 1331 001a EE23     		movs	r3, #238
 1332 001c 9B00     		lsls	r3, r3, #2
 1333 001e 3222     		movs	r2, #50
 1334 0020 0021     		movs	r1, #0
 1335 0022 FFF7FEFF 		bl	lv_bezier3
 1336              	.LVL141:
ARM GAS  C:\Users\haske\AppData\Local\Temp\cceAapTu.s 			page 36


 262:..\..\..\arduinoLCD\test\Pain Drain\libraries\lvgl\src\misc/lv_anim.c ****     new_value = new_value >> LV_BEZIER_VAL_SHIFT;
 1337              		.loc 1 262 0
 1338 0026 A36A     		ldr	r3, [r4, #40]
 1339 0028 226A     		ldr	r2, [r4, #32]
 1340 002a 9B1A     		subs	r3, r3, r2
 1341 002c 5843     		muls	r0, r3
 1342              	.LVL142:
 263:..\..\..\arduinoLCD\test\Pain Drain\libraries\lvgl\src\misc/lv_anim.c ****     new_value += a->start_value;
 1343              		.loc 1 263 0
 1344 002e 8012     		asrs	r0, r0, #10
 1345              	.LVL143:
 264:..\..\..\arduinoLCD\test\Pain Drain\libraries\lvgl\src\misc/lv_anim.c **** 
 1346              		.loc 1 264 0
 1347 0030 1018     		adds	r0, r2, r0
 1348              	.LVL144:
 267:..\..\..\arduinoLCD\test\Pain Drain\libraries\lvgl\src\misc/lv_anim.c **** 
 1349              		.loc 1 267 0
 1350 0032 03B0     		add	sp, sp, #12
 1351              		@ sp needed
 1352              	.LVL145:
 1353 0034 30BD     		pop	{r4, r5, pc}
 1354              		.cfi_endproc
 1355              	.LFE59:
 1356              		.size	lv_anim_path_ease_in_out, .-lv_anim_path_ease_in_out
 1357 0036 C046     		.section	.text.lv_anim_path_overshoot,"ax",%progbits
 1358              		.align	2
 1359              		.global	lv_anim_path_overshoot
 1360              		.code	16
 1361              		.thumb_func
 1362              		.type	lv_anim_path_overshoot, %function
 1363              	lv_anim_path_overshoot:
 1364              	.LFB60:
 270:..\..\..\arduinoLCD\test\Pain Drain\libraries\lvgl\src\misc/lv_anim.c ****     /*Calculate the current step*/
 1365              		.loc 1 270 0
 1366              		.cfi_startproc
 1367              		@ args = 0, pretend = 0, frame = 0
 1368              		@ frame_needed = 0, uses_anonymous_args = 0
 1369              	.LVL146:
 1370 0000 30B5     		push	{r4, r5, lr}
 1371              		.cfi_def_cfa_offset 12
 1372              		.cfi_offset 4, -12
 1373              		.cfi_offset 5, -8
 1374              		.cfi_offset 14, -4
 1375 0002 83B0     		sub	sp, sp, #12
 1376              		.cfi_def_cfa_offset 24
 1377 0004 0400     		movs	r4, r0
 272:..\..\..\arduinoLCD\test\Pain Drain\libraries\lvgl\src\misc/lv_anim.c ****     int32_t step = lv_bezier3(t, 0, 1000, 1300, LV_BEZIER_VAL_MAX);
 1378              		.loc 1 272 0
 1379 0006 8025     		movs	r5, #128
 1380 0008 ED00     		lsls	r5, r5, #3
 1381 000a 0095     		str	r5, [sp]
 1382 000c 0023     		movs	r3, #0
 1383 000e C26A     		ldr	r2, [r0, #44]
 1384 0010 0021     		movs	r1, #0
 1385 0012 006B     		ldr	r0, [r0, #48]
 1386              	.LVL147:
 1387 0014 FFF7FEFF 		bl	lv_map
ARM GAS  C:\Users\haske\AppData\Local\Temp\cceAapTu.s 			page 37


 1388              	.LVL148:
 273:..\..\..\arduinoLCD\test\Pain Drain\libraries\lvgl\src\misc/lv_anim.c **** 
 1389              		.loc 1 273 0
 1390 0018 0095     		str	r5, [sp]
 1391 001a 074B     		ldr	r3, .L95
 1392 001c FA22     		movs	r2, #250
 1393 001e 9200     		lsls	r2, r2, #2
 1394 0020 0021     		movs	r1, #0
 1395 0022 FFF7FEFF 		bl	lv_bezier3
 1396              	.LVL149:
 276:..\..\..\arduinoLCD\test\Pain Drain\libraries\lvgl\src\misc/lv_anim.c ****     new_value = new_value >> LV_BEZIER_VAL_SHIFT;
 1397              		.loc 1 276 0
 1398 0026 A36A     		ldr	r3, [r4, #40]
 1399 0028 226A     		ldr	r2, [r4, #32]
 1400 002a 9B1A     		subs	r3, r3, r2
 1401 002c 5843     		muls	r0, r3
 1402              	.LVL150:
 277:..\..\..\arduinoLCD\test\Pain Drain\libraries\lvgl\src\misc/lv_anim.c ****     new_value += a->start_value;
 1403              		.loc 1 277 0
 1404 002e 8012     		asrs	r0, r0, #10
 1405              	.LVL151:
 278:..\..\..\arduinoLCD\test\Pain Drain\libraries\lvgl\src\misc/lv_anim.c **** 
 1406              		.loc 1 278 0
 1407 0030 1018     		adds	r0, r2, r0
 1408              	.LVL152:
 281:..\..\..\arduinoLCD\test\Pain Drain\libraries\lvgl\src\misc/lv_anim.c **** 
 1409              		.loc 1 281 0
 1410 0032 03B0     		add	sp, sp, #12
 1411              		@ sp needed
 1412              	.LVL153:
 1413 0034 30BD     		pop	{r4, r5, pc}
 1414              	.L96:
 1415 0036 C046     		.align	2
 1416              	.L95:
 1417 0038 14050000 		.word	1300
 1418              		.cfi_endproc
 1419              	.LFE60:
 1420              		.size	lv_anim_path_overshoot, .-lv_anim_path_overshoot
 1421              		.global	__aeabi_idiv
 1422              		.section	.text.lv_anim_path_bounce,"ax",%progbits
 1423              		.align	2
 1424              		.global	lv_anim_path_bounce
 1425              		.code	16
 1426              		.thumb_func
 1427              		.type	lv_anim_path_bounce, %function
 1428              	lv_anim_path_bounce:
 1429              	.LFB61:
 284:..\..\..\arduinoLCD\test\Pain Drain\libraries\lvgl\src\misc/lv_anim.c ****     /*Calculate the current step*/
 1430              		.loc 1 284 0
 1431              		.cfi_startproc
 1432              		@ args = 0, pretend = 0, frame = 0
 1433              		@ frame_needed = 0, uses_anonymous_args = 0
 1434              	.LVL154:
 1435 0000 70B5     		push	{r4, r5, r6, lr}
 1436              		.cfi_def_cfa_offset 16
 1437              		.cfi_offset 4, -16
 1438              		.cfi_offset 5, -12
ARM GAS  C:\Users\haske\AppData\Local\Temp\cceAapTu.s 			page 38


 1439              		.cfi_offset 6, -8
 1440              		.cfi_offset 14, -4
 1441 0002 82B0     		sub	sp, sp, #8
 1442              		.cfi_def_cfa_offset 24
 1443 0004 0500     		movs	r5, r0
 286:..\..\..\arduinoLCD\test\Pain Drain\libraries\lvgl\src\misc/lv_anim.c ****     int32_t diff = (a->end_value - a->start_value);
 1444              		.loc 1 286 0
 1445 0006 8023     		movs	r3, #128
 1446 0008 DB00     		lsls	r3, r3, #3
 1447 000a 0093     		str	r3, [sp]
 1448 000c 0023     		movs	r3, #0
 1449 000e C26A     		ldr	r2, [r0, #44]
 1450 0010 0021     		movs	r1, #0
 1451 0012 006B     		ldr	r0, [r0, #48]
 1452              	.LVL155:
 1453 0014 FFF7FEFF 		bl	lv_map
 1454              	.LVL156:
 1455 0018 0400     		movs	r4, r0
 1456              	.LVL157:
 287:..\..\..\arduinoLCD\test\Pain Drain\libraries\lvgl\src\misc/lv_anim.c **** 
 1457              		.loc 1 287 0
 1458 001a AB6A     		ldr	r3, [r5, #40]
 1459 001c 2A6A     		ldr	r2, [r5, #32]
 1460 001e 9E1A     		subs	r6, r3, r2
 1461              	.LVL158:
 291:..\..\..\arduinoLCD\test\Pain Drain\libraries\lvgl\src\misc/lv_anim.c ****         /*Go down*/
 1462              		.loc 1 291 0
 1463 0020 9823     		movs	r3, #152
 1464 0022 FF33     		adds	r3, r3, #255
 1465 0024 9842     		cmp	r0, r3
 1466 0026 03DC     		bgt	.L98
 293:..\..\..\arduinoLCD\test\Pain Drain\libraries\lvgl\src\misc/lv_anim.c ****     }
 1467              		.loc 1 293 0
 1468 0028 2F4B     		ldr	r3, .L107
 1469 002a 5C43     		muls	r4, r3
 1470 002c A412     		asrs	r4, r4, #10
 1471              	.LVL159:
 1472 002e 41E0     		b	.L99
 1473              	.LVL160:
 1474              	.L98:
 295:..\..\..\arduinoLCD\test\Pain Drain\libraries\lvgl\src\misc/lv_anim.c ****         /*First bounce back*/
 1475              		.loc 1 295 0
 1476 0030 0200     		movs	r2, r0
 1477 0032 0300     		movs	r3, r0
 1478 0034 993B     		subs	r3, r3, #153
 1479 0036 FF3B     		subs	r3, r3, #255
 1480 0038 CD2B     		cmp	r3, #205
 1481 003a 0BD8     		bhi	.L100
 297:..\..\..\arduinoLCD\test\Pain Drain\libraries\lvgl\src\misc/lv_anim.c ****         t    = t * 5; /*to [0..1024] range*/
 1482              		.loc 1 297 0
 1483 003c 1C00     		movs	r4, r3
 1484              	.LVL161:
 298:..\..\..\arduinoLCD\test\Pain Drain\libraries\lvgl\src\misc/lv_anim.c ****         t    = LV_BEZIER_VAL_MAX - t;
 1485              		.loc 1 298 0
 1486 003e 9B00     		lsls	r3, r3, #2
 1487              	.LVL162:
 1488 0040 1C19     		adds	r4, r3, r4
ARM GAS  C:\Users\haske\AppData\Local\Temp\cceAapTu.s 			page 39


 1489              	.LVL163:
 299:..\..\..\arduinoLCD\test\Pain Drain\libraries\lvgl\src\misc/lv_anim.c ****         diff = diff / 20;
 1490              		.loc 1 299 0
 1491 0042 8023     		movs	r3, #128
 1492 0044 DB00     		lsls	r3, r3, #3
 1493 0046 1C1B     		subs	r4, r3, r4
 1494              	.LVL164:
 300:..\..\..\arduinoLCD\test\Pain Drain\libraries\lvgl\src\misc/lv_anim.c ****     }
 1495              		.loc 1 300 0
 1496 0048 1421     		movs	r1, #20
 1497 004a 3000     		movs	r0, r6
 1498 004c FFF7FEFF 		bl	__aeabi_idiv
 1499              	.LVL165:
 1500 0050 0600     		movs	r6, r0
 1501              	.LVL166:
 1502 0052 2FE0     		b	.L99
 1503              	.LVL167:
 1504              	.L100:
 302:..\..\..\arduinoLCD\test\Pain Drain\libraries\lvgl\src\misc/lv_anim.c ****         /*Fall back*/
 1505              		.loc 1 302 0
 1506 0054 254B     		ldr	r3, .L107+4
 1507 0056 C318     		adds	r3, r0, r3
 1508 0058 CC2B     		cmp	r3, #204
 1509 005a 0AD8     		bhi	.L101
 304:..\..\..\arduinoLCD\test\Pain Drain\libraries\lvgl\src\misc/lv_anim.c ****         t    = t * 5; /*to [0..1024] range*/
 1510              		.loc 1 304 0
 1511 005c 234B     		ldr	r3, .L107+4
 1512 005e 9C46     		mov	ip, r3
 1513 0060 6444     		add	r4, r4, ip
 1514              	.LVL168:
 305:..\..\..\arduinoLCD\test\Pain Drain\libraries\lvgl\src\misc/lv_anim.c ****         diff = diff / 20;
 1515              		.loc 1 305 0
 1516 0062 A300     		lsls	r3, r4, #2
 1517 0064 1C19     		adds	r4, r3, r4
 1518              	.LVL169:
 306:..\..\..\arduinoLCD\test\Pain Drain\libraries\lvgl\src\misc/lv_anim.c ****     }
 1519              		.loc 1 306 0
 1520 0066 1421     		movs	r1, #20
 1521 0068 3000     		movs	r0, r6
 1522 006a FFF7FEFF 		bl	__aeabi_idiv
 1523              	.LVL170:
 1524 006e 0600     		movs	r6, r0
 1525              	.LVL171:
 1526 0070 20E0     		b	.L99
 1527              	.LVL172:
 1528              	.L101:
 308:..\..\..\arduinoLCD\test\Pain Drain\libraries\lvgl\src\misc/lv_anim.c ****         /*Second bounce back*/
 1529              		.loc 1 308 0
 1530 0072 1F4B     		ldr	r3, .L107+8
 1531 0074 C318     		adds	r3, r0, r3
 1532 0076 652B     		cmp	r3, #101
 1533 0078 0ED8     		bhi	.L102
 310:..\..\..\arduinoLCD\test\Pain Drain\libraries\lvgl\src\misc/lv_anim.c ****         t    = t * 10; /*to [0..1024] range*/
 1534              		.loc 1 310 0
 1535 007a 1D4B     		ldr	r3, .L107+8
 1536 007c 9C46     		mov	ip, r3
 1537 007e 6444     		add	r4, r4, ip
ARM GAS  C:\Users\haske\AppData\Local\Temp\cceAapTu.s 			page 40


 1538              	.LVL173:
 311:..\..\..\arduinoLCD\test\Pain Drain\libraries\lvgl\src\misc/lv_anim.c ****         t    = LV_BEZIER_VAL_MAX - t;
 1539              		.loc 1 311 0
 1540 0080 A300     		lsls	r3, r4, #2
 1541 0082 1C19     		adds	r4, r3, r4
 1542              	.LVL174:
 1543 0084 6300     		lsls	r3, r4, #1
 1544              	.LVL175:
 312:..\..\..\arduinoLCD\test\Pain Drain\libraries\lvgl\src\misc/lv_anim.c ****         diff = diff / 40;
 1545              		.loc 1 312 0
 1546 0086 8024     		movs	r4, #128
 1547 0088 E400     		lsls	r4, r4, #3
 1548 008a E41A     		subs	r4, r4, r3
 1549              	.LVL176:
 313:..\..\..\arduinoLCD\test\Pain Drain\libraries\lvgl\src\misc/lv_anim.c ****     }
 1550              		.loc 1 313 0
 1551 008c 2821     		movs	r1, #40
 1552 008e 3000     		movs	r0, r6
 1553 0090 FFF7FEFF 		bl	__aeabi_idiv
 1554              	.LVL177:
 1555 0094 0600     		movs	r6, r0
 1556              	.LVL178:
 1557 0096 0DE0     		b	.L99
 1558              	.LVL179:
 1559              	.L102:
 315:..\..\..\arduinoLCD\test\Pain Drain\libraries\lvgl\src\misc/lv_anim.c ****         /*Fall back*/
 1560              		.loc 1 315 0
 1561 0098 164B     		ldr	r3, .L107+12
 1562 009a 9C46     		mov	ip, r3
 1563 009c 6244     		add	r2, r2, ip
 1564 009e 672A     		cmp	r2, #103
 1565 00a0 08D8     		bhi	.L99
 317:..\..\..\arduinoLCD\test\Pain Drain\libraries\lvgl\src\misc/lv_anim.c ****         t    = t * 10; /*to [0..1024] range*/
 1566              		.loc 1 317 0
 1567 00a2 6444     		add	r4, r4, ip
 1568              	.LVL180:
 318:..\..\..\arduinoLCD\test\Pain Drain\libraries\lvgl\src\misc/lv_anim.c ****         diff = diff / 40;
 1569              		.loc 1 318 0
 1570 00a4 A300     		lsls	r3, r4, #2
 1571 00a6 1B19     		adds	r3, r3, r4
 1572 00a8 5C00     		lsls	r4, r3, #1
 1573              	.LVL181:
 319:..\..\..\arduinoLCD\test\Pain Drain\libraries\lvgl\src\misc/lv_anim.c ****     }
 1574              		.loc 1 319 0
 1575 00aa 2821     		movs	r1, #40
 1576 00ac 3000     		movs	r0, r6
 1577 00ae FFF7FEFF 		bl	__aeabi_idiv
 1578              	.LVL182:
 1579 00b2 0600     		movs	r6, r0
 1580              	.LVL183:
 1581              	.L99:
 322:..\..\..\arduinoLCD\test\Pain Drain\libraries\lvgl\src\misc/lv_anim.c ****     if(t < 0) t = 0;
 1582              		.loc 1 322 0
 1583 00b4 8023     		movs	r3, #128
 1584 00b6 DB00     		lsls	r3, r3, #3
 1585 00b8 9C42     		cmp	r4, r3
 1586 00ba 00DD     		ble	.L103
ARM GAS  C:\Users\haske\AppData\Local\Temp\cceAapTu.s 			page 41


 1587 00bc 1C00     		movs	r4, r3
 1588              	.LVL184:
 1589              	.L103:
 323:..\..\..\arduinoLCD\test\Pain Drain\libraries\lvgl\src\misc/lv_anim.c ****     int32_t step = lv_bezier3(t, LV_BEZIER_VAL_MAX, 800, 500, 0);
 1590              		.loc 1 323 0
 1591 00be 002C     		cmp	r4, #0
 1592 00c0 00DA     		bge	.L104
 1593 00c2 0024     		movs	r4, #0
 1594              	.LVL185:
 1595              	.L104:
 324:..\..\..\arduinoLCD\test\Pain Drain\libraries\lvgl\src\misc/lv_anim.c **** 
 1596              		.loc 1 324 0
 1597 00c4 0023     		movs	r3, #0
 1598 00c6 0093     		str	r3, [sp]
 1599 00c8 F533     		adds	r3, r3, #245
 1600 00ca FF33     		adds	r3, r3, #255
 1601 00cc C822     		movs	r2, #200
 1602 00ce 9200     		lsls	r2, r2, #2
 1603 00d0 8021     		movs	r1, #128
 1604 00d2 C900     		lsls	r1, r1, #3
 1605 00d4 2000     		movs	r0, r4
 1606 00d6 FFF7FEFF 		bl	lv_bezier3
 1607              	.LVL186:
 327:..\..\..\arduinoLCD\test\Pain Drain\libraries\lvgl\src\misc/lv_anim.c ****     new_value = new_value >> LV_BEZIER_VAL_SHIFT;
 1608              		.loc 1 327 0
 1609 00da 7043     		muls	r0, r6
 1610              	.LVL187:
 328:..\..\..\arduinoLCD\test\Pain Drain\libraries\lvgl\src\misc/lv_anim.c ****     new_value = a->end_value - new_value;
 1611              		.loc 1 328 0
 1612 00dc 8012     		asrs	r0, r0, #10
 1613              	.LVL188:
 329:..\..\..\arduinoLCD\test\Pain Drain\libraries\lvgl\src\misc/lv_anim.c **** 
 1614              		.loc 1 329 0
 1615 00de AB6A     		ldr	r3, [r5, #40]
 1616 00e0 181A     		subs	r0, r3, r0
 1617              	.LVL189:
 332:..\..\..\arduinoLCD\test\Pain Drain\libraries\lvgl\src\misc/lv_anim.c **** 
 1618              		.loc 1 332 0
 1619 00e2 02B0     		add	sp, sp, #8
 1620              		@ sp needed
 1621              	.LVL190:
 1622              	.LVL191:
 1623              	.LVL192:
 1624 00e4 70BD     		pop	{r4, r5, r6, pc}
 1625              	.L108:
 1626 00e6 C046     		.align	2
 1627              	.L107:
 1628 00e8 C4090000 		.word	2500
 1629 00ec 9AFDFFFF 		.word	-614
 1630 00f0 CDFCFFFF 		.word	-819
 1631 00f4 67FCFFFF 		.word	-921
 1632              		.cfi_endproc
 1633              	.LFE61:
 1634              		.size	lv_anim_path_bounce, .-lv_anim_path_bounce
 1635              		.section	.text.lv_anim_path_step,"ax",%progbits
 1636              		.align	2
 1637              		.global	lv_anim_path_step
ARM GAS  C:\Users\haske\AppData\Local\Temp\cceAapTu.s 			page 42


 1638              		.code	16
 1639              		.thumb_func
 1640              		.type	lv_anim_path_step, %function
 1641              	lv_anim_path_step:
 1642              	.LFB62:
 335:..\..\..\arduinoLCD\test\Pain Drain\libraries\lvgl\src\misc/lv_anim.c ****     if(a->act_time >= a->time)
 1643              		.loc 1 335 0
 1644              		.cfi_startproc
 1645              		@ args = 0, pretend = 0, frame = 0
 1646              		@ frame_needed = 0, uses_anonymous_args = 0
 1647              		@ link register save eliminated.
 1648              	.LVL193:
 336:..\..\..\arduinoLCD\test\Pain Drain\libraries\lvgl\src\misc/lv_anim.c ****         return a->end_value;
 1649              		.loc 1 336 0
 1650 0000 036B     		ldr	r3, [r0, #48]
 1651 0002 C26A     		ldr	r2, [r0, #44]
 1652 0004 9342     		cmp	r3, r2
 1653 0006 01DB     		blt	.L110
 337:..\..\..\arduinoLCD\test\Pain Drain\libraries\lvgl\src\misc/lv_anim.c ****     else
 1654              		.loc 1 337 0
 1655 0008 806A     		ldr	r0, [r0, #40]
 1656              	.LVL194:
 1657 000a 00E0     		b	.L111
 1658              	.LVL195:
 1659              	.L110:
 339:..\..\..\arduinoLCD\test\Pain Drain\libraries\lvgl\src\misc/lv_anim.c **** }
 1660              		.loc 1 339 0
 1661 000c 006A     		ldr	r0, [r0, #32]
 1662              	.LVL196:
 1663              	.L111:
 340:..\..\..\arduinoLCD\test\Pain Drain\libraries\lvgl\src\misc/lv_anim.c **** 
 1664              		.loc 1 340 0
 1665              		@ sp needed
 1666 000e 7047     		bx	lr
 1667              		.cfi_endproc
 1668              	.LFE62:
 1669              		.size	lv_anim_path_step, .-lv_anim_path_step
 1670              		.bss
 1671              		.align	2
 1672              		.set	.LANCHOR0,. + 0
 1673              		.type	anim_list_changed, %object
 1674              		.size	anim_list_changed, 1
 1675              	anim_list_changed:
 1676 0000 00       		.space	1
 1677 0001 000000   		.space	3
 1678              		.type	_lv_anim_tmr, %object
 1679              		.size	_lv_anim_tmr, 4
 1680              	_lv_anim_tmr:
 1681 0004 00000000 		.space	4
 1682              		.type	last_timer_run, %object
 1683              		.size	last_timer_run, 4
 1684              	last_timer_run:
 1685 0008 00000000 		.space	4
 1686              		.type	anim_run_round, %object
 1687              		.size	anim_run_round, 1
 1688              	anim_run_round:
 1689 000c 00       		.space	1
ARM GAS  C:\Users\haske\AppData\Local\Temp\cceAapTu.s 			page 43


 1690              		.text
 1691              	.Letext0:
 1692              		.file 2 "c:\\program files (x86)\\cypress\\psoc creator\\4.4\\psoc creator\\import\\gnu\\arm\\5.4.
 1693              		.file 3 "c:\\program files (x86)\\cypress\\psoc creator\\4.4\\psoc creator\\import\\gnu\\arm\\5.4.
 1694              		.file 4 "..\\..\\..\\arduinoLCD\\test\\Pain Drain\\libraries\\lvgl\\src\\misc\\lv_anim.h"
 1695              		.file 5 "..\\..\\..\\arduinoLCD\\test\\Pain Drain\\libraries\\lvgl\\src\\misc\\lv_timer.h"
 1696              		.file 6 "..\\..\\..\\arduinoLCD\\test\\Pain Drain\\libraries\\lvgl\\src\\misc\\lv_ll.h"
 1697              		.file 7 "..\\..\\..\\arduinoLCD\\test\\Pain Drain\\libraries\\lvgl\\src\\misc\\lv_mem.h"
 1698              		.file 8 "..\\..\\..\\arduinoLCD\\test\\Pain Drain\\libraries\\lvgl\\src\\misc\\../hal/lv_hal_tick.
 1699              		.file 9 "..\\..\\..\\arduinoLCD\\test\\Pain Drain\\libraries\\lvgl\\src\\misc\\lv_math.h"
 1700              		.file 10 "..\\..\\..\\arduinoLCD\\test\\Pain Drain\\libraries\\lvgl\\src\\misc\\lv_gc.h"
 1701              		.section	.debug_info,"",%progbits
 1702              	.Ldebug_info0:
 1703 0000 770D0000 		.4byte	0xd77
 1704 0004 0400     		.2byte	0x4
 1705 0006 00000000 		.4byte	.Ldebug_abbrev0
 1706 000a 04       		.byte	0x4
 1707 000b 01       		.uleb128 0x1
 1708 000c 75010000 		.4byte	.LASF115
 1709 0010 0C       		.byte	0xc
 1710 0011 5D000000 		.4byte	.LASF116
 1711 0015 AE030000 		.4byte	.LASF117
 1712 0019 00000000 		.4byte	.Ldebug_ranges0+0
 1713 001d 00000000 		.4byte	0
 1714 0021 00000000 		.4byte	.Ldebug_line0
 1715 0025 02       		.uleb128 0x2
 1716 0026 01       		.byte	0x1
 1717 0027 06       		.byte	0x6
 1718 0028 8A060000 		.4byte	.LASF0
 1719 002c 03       		.uleb128 0x3
 1720 002d 6F050000 		.4byte	.LASF3
 1721 0031 02       		.byte	0x2
 1722 0032 1D       		.byte	0x1d
 1723 0033 37000000 		.4byte	0x37
 1724 0037 02       		.uleb128 0x2
 1725 0038 01       		.byte	0x1
 1726 0039 08       		.byte	0x8
 1727 003a 0E060000 		.4byte	.LASF1
 1728 003e 02       		.uleb128 0x2
 1729 003f 02       		.byte	0x2
 1730 0040 05       		.byte	0x5
 1731 0041 F9040000 		.4byte	.LASF2
 1732 0045 03       		.uleb128 0x3
 1733 0046 40020000 		.4byte	.LASF4
 1734 004a 02       		.byte	0x2
 1735 004b 2B       		.byte	0x2b
 1736 004c 50000000 		.4byte	0x50
 1737 0050 02       		.uleb128 0x2
 1738 0051 02       		.byte	0x2
 1739 0052 07       		.byte	0x7
 1740 0053 9D060000 		.4byte	.LASF5
 1741 0057 03       		.uleb128 0x3
 1742 0058 A8000000 		.4byte	.LASF6
 1743 005c 02       		.byte	0x2
 1744 005d 3F       		.byte	0x3f
 1745 005e 62000000 		.4byte	0x62
 1746 0062 02       		.uleb128 0x2
ARM GAS  C:\Users\haske\AppData\Local\Temp\cceAapTu.s 			page 44


 1747 0063 04       		.byte	0x4
 1748 0064 05       		.byte	0x5
 1749 0065 1C050000 		.4byte	.LASF7
 1750 0069 03       		.uleb128 0x3
 1751 006a 2F060000 		.4byte	.LASF8
 1752 006e 02       		.byte	0x2
 1753 006f 41       		.byte	0x41
 1754 0070 74000000 		.4byte	0x74
 1755 0074 02       		.uleb128 0x2
 1756 0075 04       		.byte	0x4
 1757 0076 07       		.byte	0x7
 1758 0077 AA050000 		.4byte	.LASF9
 1759 007b 02       		.uleb128 0x2
 1760 007c 08       		.byte	0x8
 1761 007d 05       		.byte	0x5
 1762 007e 98030000 		.4byte	.LASF10
 1763 0082 02       		.uleb128 0x2
 1764 0083 08       		.byte	0x8
 1765 0084 07       		.byte	0x7
 1766 0085 19020000 		.4byte	.LASF11
 1767 0089 04       		.uleb128 0x4
 1768 008a 04       		.byte	0x4
 1769 008b 05       		.byte	0x5
 1770 008c 696E7400 		.ascii	"int\000"
 1771 0090 02       		.uleb128 0x2
 1772 0091 04       		.byte	0x4
 1773 0092 07       		.byte	0x7
 1774 0093 44000000 		.4byte	.LASF12
 1775 0097 03       		.uleb128 0x3
 1776 0098 56030000 		.4byte	.LASF13
 1777 009c 03       		.byte	0x3
 1778 009d 18       		.byte	0x18
 1779 009e 2C000000 		.4byte	0x2c
 1780 00a2 03       		.uleb128 0x3
 1781 00a3 AF040000 		.4byte	.LASF14
 1782 00a7 03       		.byte	0x3
 1783 00a8 24       		.byte	0x24
 1784 00a9 45000000 		.4byte	0x45
 1785 00ad 03       		.uleb128 0x3
 1786 00ae D1050000 		.4byte	.LASF15
 1787 00b2 03       		.byte	0x3
 1788 00b3 2C       		.byte	0x2c
 1789 00b4 57000000 		.4byte	0x57
 1790 00b8 03       		.uleb128 0x3
 1791 00b9 3D010000 		.4byte	.LASF16
 1792 00bd 03       		.byte	0x3
 1793 00be 30       		.byte	0x30
 1794 00bf 69000000 		.4byte	0x69
 1795 00c3 02       		.uleb128 0x2
 1796 00c4 08       		.byte	0x8
 1797 00c5 04       		.byte	0x4
 1798 00c6 A3040000 		.4byte	.LASF17
 1799 00ca 03       		.uleb128 0x3
 1800 00cb E7040000 		.4byte	.LASF18
 1801 00cf 04       		.byte	0x4
 1802 00d0 2E       		.byte	0x2e
 1803 00d1 D5000000 		.4byte	0xd5
ARM GAS  C:\Users\haske\AppData\Local\Temp\cceAapTu.s 			page 45


 1804 00d5 05       		.uleb128 0x5
 1805 00d6 04       		.byte	0x4
 1806 00d7 DB000000 		.4byte	0xdb
 1807 00db 06       		.uleb128 0x6
 1808 00dc AD000000 		.4byte	0xad
 1809 00e0 EA000000 		.4byte	0xea
 1810 00e4 07       		.uleb128 0x7
 1811 00e5 EA000000 		.4byte	0xea
 1812 00e9 00       		.byte	0
 1813 00ea 05       		.uleb128 0x5
 1814 00eb 04       		.byte	0x4
 1815 00ec 05020000 		.4byte	0x205
 1816 00f0 08       		.uleb128 0x8
 1817 00f1 24010000 		.4byte	.LASF48
 1818 00f5 44       		.byte	0x44
 1819 00f6 04       		.byte	0x4
 1820 00f7 49       		.byte	0x49
 1821 00f8 05020000 		.4byte	0x205
 1822 00fc 09       		.uleb128 0x9
 1823 00fd 76617200 		.ascii	"var\000"
 1824 0101 04       		.byte	0x4
 1825 0102 4A       		.byte	0x4a
 1826 0103 2B020000 		.4byte	0x22b
 1827 0107 00       		.byte	0
 1828 0108 0A       		.uleb128 0xa
 1829 0109 00000000 		.4byte	.LASF19
 1830 010d 04       		.byte	0x4
 1831 010e 4B       		.byte	0x4b
 1832 010f 0A020000 		.4byte	0x20a
 1833 0113 04       		.byte	0x4
 1834 0114 0A       		.uleb128 0xa
 1835 0115 3B000000 		.4byte	.LASF20
 1836 0119 04       		.byte	0x4
 1837 011a 4C       		.byte	0x4c
 1838 011b 4F020000 		.4byte	0x24f
 1839 011f 08       		.byte	0x8
 1840 0120 0A       		.uleb128 0xa
 1841 0121 B2000000 		.4byte	.LASF21
 1842 0125 04       		.byte	0x4
 1843 0126 4D       		.byte	0x4d
 1844 0127 33020000 		.4byte	0x233
 1845 012b 0C       		.byte	0xc
 1846 012c 0A       		.uleb128 0xa
 1847 012d 8D030000 		.4byte	.LASF22
 1848 0131 04       		.byte	0x4
 1849 0132 4E       		.byte	0x4e
 1850 0133 7A020000 		.4byte	0x27a
 1851 0137 10       		.byte	0x10
 1852 0138 0A       		.uleb128 0xa
 1853 0139 69040000 		.4byte	.LASF23
 1854 013d 04       		.byte	0x4
 1855 013e 4F       		.byte	0x4f
 1856 013f 5A020000 		.4byte	0x25a
 1857 0143 14       		.byte	0x14
 1858 0144 0A       		.uleb128 0xa
 1859 0145 8E050000 		.4byte	.LASF24
 1860 0149 04       		.byte	0x4
ARM GAS  C:\Users\haske\AppData\Local\Temp\cceAapTu.s 			page 46


 1861 014a 51       		.byte	0x51
 1862 014b 2B020000 		.4byte	0x22b
 1863 014f 18       		.byte	0x18
 1864 0150 0A       		.uleb128 0xa
 1865 0151 29040000 		.4byte	.LASF25
 1866 0155 04       		.byte	0x4
 1867 0156 53       		.byte	0x53
 1868 0157 CA000000 		.4byte	0xca
 1869 015b 1C       		.byte	0x1c
 1870 015c 0A       		.uleb128 0xa
 1871 015d 46010000 		.4byte	.LASF26
 1872 0161 04       		.byte	0x4
 1873 0162 54       		.byte	0x54
 1874 0163 AD000000 		.4byte	0xad
 1875 0167 20       		.byte	0x20
 1876 0168 0A       		.uleb128 0xa
 1877 0169 2F010000 		.4byte	.LASF27
 1878 016d 04       		.byte	0x4
 1879 016e 55       		.byte	0x55
 1880 016f AD000000 		.4byte	0xad
 1881 0173 24       		.byte	0x24
 1882 0174 0A       		.uleb128 0xa
 1883 0175 B8040000 		.4byte	.LASF28
 1884 0179 04       		.byte	0x4
 1885 017a 56       		.byte	0x56
 1886 017b AD000000 		.4byte	0xad
 1887 017f 28       		.byte	0x28
 1888 0180 0A       		.uleb128 0xa
 1889 0181 7F020000 		.4byte	.LASF29
 1890 0185 04       		.byte	0x4
 1891 0186 57       		.byte	0x57
 1892 0187 AD000000 		.4byte	0xad
 1893 018b 2C       		.byte	0x2c
 1894 018c 0A       		.uleb128 0xa
 1895 018d A1050000 		.4byte	.LASF30
 1896 0191 04       		.byte	0x4
 1897 0192 58       		.byte	0x58
 1898 0193 AD000000 		.4byte	0xad
 1899 0197 30       		.byte	0x30
 1900 0198 0A       		.uleb128 0xa
 1901 0199 7F050000 		.4byte	.LASF31
 1902 019d 04       		.byte	0x4
 1903 019e 59       		.byte	0x59
 1904 019f B8000000 		.4byte	0xb8
 1905 01a3 34       		.byte	0x34
 1906 01a4 0A       		.uleb128 0xa
 1907 01a5 7F030000 		.4byte	.LASF32
 1908 01a9 04       		.byte	0x4
 1909 01aa 5A       		.byte	0x5a
 1910 01ab B8000000 		.4byte	0xb8
 1911 01af 38       		.byte	0x38
 1912 01b0 0A       		.uleb128 0xa
 1913 01b1 FF020000 		.4byte	.LASF33
 1914 01b5 04       		.byte	0x4
 1915 01b6 5B       		.byte	0x5b
 1916 01b7 B8000000 		.4byte	0xb8
 1917 01bb 3C       		.byte	0x3c
ARM GAS  C:\Users\haske\AppData\Local\Temp\cceAapTu.s 			page 47


 1918 01bc 0A       		.uleb128 0xa
 1919 01bd 61060000 		.4byte	.LASF34
 1920 01c1 04       		.byte	0x4
 1921 01c2 5C       		.byte	0x5c
 1922 01c3 A2000000 		.4byte	0xa2
 1923 01c7 40       		.byte	0x40
 1924 01c8 0B       		.uleb128 0xb
 1925 01c9 63050000 		.4byte	.LASF35
 1926 01cd 04       		.byte	0x4
 1927 01ce 5D       		.byte	0x5d
 1928 01cf 97000000 		.4byte	0x97
 1929 01d3 01       		.byte	0x1
 1930 01d4 01       		.byte	0x1
 1931 01d5 07       		.byte	0x7
 1932 01d6 42       		.byte	0x42
 1933 01d7 0B       		.uleb128 0xb
 1934 01d8 0F050000 		.4byte	.LASF36
 1935 01dc 04       		.byte	0x4
 1936 01dd 60       		.byte	0x60
 1937 01de 97000000 		.4byte	0x97
 1938 01e2 01       		.byte	0x1
 1939 01e3 01       		.byte	0x1
 1940 01e4 06       		.byte	0x6
 1941 01e5 42       		.byte	0x42
 1942 01e6 0B       		.uleb128 0xb
 1943 01e7 BB000000 		.4byte	.LASF37
 1944 01eb 04       		.byte	0x4
 1945 01ec 61       		.byte	0x61
 1946 01ed 97000000 		.4byte	0x97
 1947 01f1 01       		.byte	0x1
 1948 01f2 01       		.byte	0x1
 1949 01f3 05       		.byte	0x5
 1950 01f4 42       		.byte	0x42
 1951 01f5 0B       		.uleb128 0xb
 1952 01f6 04040000 		.4byte	.LASF38
 1953 01fa 04       		.byte	0x4
 1954 01fb 62       		.byte	0x62
 1955 01fc 97000000 		.4byte	0x97
 1956 0200 01       		.byte	0x1
 1957 0201 01       		.byte	0x1
 1958 0202 04       		.byte	0x4
 1959 0203 42       		.byte	0x42
 1960 0204 00       		.byte	0
 1961 0205 0C       		.uleb128 0xc
 1962 0206 F0000000 		.4byte	0xf0
 1963 020a 03       		.uleb128 0x3
 1964 020b FE000000 		.4byte	.LASF39
 1965 020f 04       		.byte	0x4
 1966 0210 36       		.byte	0x36
 1967 0211 15020000 		.4byte	0x215
 1968 0215 05       		.uleb128 0x5
 1969 0216 04       		.byte	0x4
 1970 0217 1B020000 		.4byte	0x21b
 1971 021b 0D       		.uleb128 0xd
 1972 021c 2B020000 		.4byte	0x22b
 1973 0220 07       		.uleb128 0x7
 1974 0221 2B020000 		.4byte	0x22b
ARM GAS  C:\Users\haske\AppData\Local\Temp\cceAapTu.s 			page 48


 1975 0225 07       		.uleb128 0x7
 1976 0226 AD000000 		.4byte	0xad
 1977 022a 00       		.byte	0
 1978 022b 0E       		.uleb128 0xe
 1979 022c 04       		.byte	0x4
 1980 022d 05       		.uleb128 0x5
 1981 022e 04       		.byte	0x4
 1982 022f F0000000 		.4byte	0xf0
 1983 0233 03       		.uleb128 0x3
 1984 0234 84020000 		.4byte	.LASF40
 1985 0238 04       		.byte	0x4
 1986 0239 3D       		.byte	0x3d
 1987 023a 3E020000 		.4byte	0x23e
 1988 023e 05       		.uleb128 0x5
 1989 023f 04       		.byte	0x4
 1990 0240 44020000 		.4byte	0x244
 1991 0244 0D       		.uleb128 0xd
 1992 0245 4F020000 		.4byte	0x24f
 1993 0249 07       		.uleb128 0x7
 1994 024a 2D020000 		.4byte	0x22d
 1995 024e 00       		.byte	0
 1996 024f 03       		.uleb128 0x3
 1997 0250 C2040000 		.4byte	.LASF41
 1998 0254 04       		.byte	0x4
 1999 0255 40       		.byte	0x40
 2000 0256 3E020000 		.4byte	0x23e
 2001 025a 03       		.uleb128 0x3
 2002 025b 35050000 		.4byte	.LASF42
 2003 025f 04       		.byte	0x4
 2004 0260 43       		.byte	0x43
 2005 0261 65020000 		.4byte	0x265
 2006 0265 05       		.uleb128 0x5
 2007 0266 04       		.byte	0x4
 2008 0267 6B020000 		.4byte	0x26b
 2009 026b 06       		.uleb128 0x6
 2010 026c AD000000 		.4byte	0xad
 2011 0270 7A020000 		.4byte	0x27a
 2012 0274 07       		.uleb128 0x7
 2013 0275 2D020000 		.4byte	0x22d
 2014 0279 00       		.byte	0
 2015 027a 03       		.uleb128 0x3
 2016 027b 14040000 		.4byte	.LASF43
 2017 027f 04       		.byte	0x4
 2018 0280 46       		.byte	0x46
 2019 0281 3E020000 		.4byte	0x23e
 2020 0285 03       		.uleb128 0x3
 2021 0286 CD020000 		.4byte	.LASF44
 2022 028a 04       		.byte	0x4
 2023 028b 63       		.byte	0x63
 2024 028c F0000000 		.4byte	0xf0
 2025 0290 02       		.uleb128 0x2
 2026 0291 04       		.byte	0x4
 2027 0292 07       		.byte	0x7
 2028 0293 98050000 		.4byte	.LASF45
 2029 0297 02       		.uleb128 0x2
 2030 0298 01       		.byte	0x1
 2031 0299 08       		.byte	0x8
ARM GAS  C:\Users\haske\AppData\Local\Temp\cceAapTu.s 			page 49


 2032 029a 0C030000 		.4byte	.LASF46
 2033 029e 03       		.uleb128 0x3
 2034 029f 1D030000 		.4byte	.LASF47
 2035 02a3 05       		.byte	0x5
 2036 02a4 27       		.byte	0x27
 2037 02a5 A9020000 		.4byte	0x2a9
 2038 02a9 05       		.uleb128 0x5
 2039 02aa 04       		.byte	0x4
 2040 02ab AF020000 		.4byte	0x2af
 2041 02af 0D       		.uleb128 0xd
 2042 02b0 BA020000 		.4byte	0x2ba
 2043 02b4 07       		.uleb128 0x7
 2044 02b5 BA020000 		.4byte	0x2ba
 2045 02b9 00       		.byte	0
 2046 02ba 05       		.uleb128 0x5
 2047 02bb 04       		.byte	0x4
 2048 02bc C0020000 		.4byte	0x2c0
 2049 02c0 08       		.uleb128 0x8
 2050 02c1 11030000 		.4byte	.LASF49
 2051 02c5 18       		.byte	0x18
 2052 02c6 05       		.byte	0x5
 2053 02c7 2C       		.byte	0x2c
 2054 02c8 18030000 		.4byte	0x318
 2055 02cc 0A       		.uleb128 0xa
 2056 02cd 96060000 		.4byte	.LASF50
 2057 02d1 05       		.byte	0x5
 2058 02d2 2D       		.byte	0x2d
 2059 02d3 B8000000 		.4byte	0xb8
 2060 02d7 00       		.byte	0
 2061 02d8 0A       		.uleb128 0xa
 2062 02d9 51050000 		.4byte	.LASF51
 2063 02dd 05       		.byte	0x5
 2064 02de 2E       		.byte	0x2e
 2065 02df B8000000 		.4byte	0xb8
 2066 02e3 04       		.byte	0x4
 2067 02e4 0A       		.uleb128 0xa
 2068 02e5 CD060000 		.4byte	.LASF52
 2069 02e9 05       		.byte	0x5
 2070 02ea 2F       		.byte	0x2f
 2071 02eb 9E020000 		.4byte	0x29e
 2072 02ef 08       		.byte	0x8
 2073 02f0 0A       		.uleb128 0xa
 2074 02f1 8E050000 		.4byte	.LASF24
 2075 02f5 05       		.byte	0x5
 2076 02f6 30       		.byte	0x30
 2077 02f7 2B020000 		.4byte	0x22b
 2078 02fb 0C       		.byte	0xc
 2079 02fc 0A       		.uleb128 0xa
 2080 02fd B0060000 		.4byte	.LASF53
 2081 0301 05       		.byte	0x5
 2082 0302 31       		.byte	0x31
 2083 0303 AD000000 		.4byte	0xad
 2084 0307 10       		.byte	0x10
 2085 0308 0B       		.uleb128 0xb
 2086 0309 AA020000 		.4byte	.LASF54
 2087 030d 05       		.byte	0x5
 2088 030e 32       		.byte	0x32
ARM GAS  C:\Users\haske\AppData\Local\Temp\cceAapTu.s 			page 50


 2089 030f B8000000 		.4byte	0xb8
 2090 0313 04       		.byte	0x4
 2091 0314 01       		.byte	0x1
 2092 0315 1F       		.byte	0x1f
 2093 0316 14       		.byte	0x14
 2094 0317 00       		.byte	0
 2095 0318 03       		.uleb128 0x3
 2096 0319 B1020000 		.4byte	.LASF55
 2097 031d 05       		.byte	0x5
 2098 031e 33       		.byte	0x33
 2099 031f C0020000 		.4byte	0x2c0
 2100 0323 03       		.uleb128 0x3
 2101 0324 97020000 		.4byte	.LASF56
 2102 0328 06       		.byte	0x6
 2103 0329 1D       		.byte	0x1d
 2104 032a 97000000 		.4byte	0x97
 2105 032e 0F       		.uleb128 0xf
 2106 032f 0C       		.byte	0xc
 2107 0330 06       		.byte	0x6
 2108 0331 20       		.byte	0x20
 2109 0332 5B030000 		.4byte	0x35b
 2110 0336 0A       		.uleb128 0xa
 2111 0337 E3000000 		.4byte	.LASF57
 2112 033b 06       		.byte	0x6
 2113 033c 21       		.byte	0x21
 2114 033d B8000000 		.4byte	0xb8
 2115 0341 00       		.byte	0
 2116 0342 0A       		.uleb128 0xa
 2117 0343 A3000000 		.4byte	.LASF58
 2118 0347 06       		.byte	0x6
 2119 0348 22       		.byte	0x22
 2120 0349 5B030000 		.4byte	0x35b
 2121 034d 04       		.byte	0x4
 2122 034e 0A       		.uleb128 0xa
 2123 034f 50060000 		.4byte	.LASF59
 2124 0353 06       		.byte	0x6
 2125 0354 23       		.byte	0x23
 2126 0355 5B030000 		.4byte	0x35b
 2127 0359 08       		.byte	0x8
 2128 035a 00       		.byte	0
 2129 035b 05       		.uleb128 0x5
 2130 035c 04       		.byte	0x4
 2131 035d 23030000 		.4byte	0x323
 2132 0361 03       		.uleb128 0x3
 2133 0362 A6030000 		.4byte	.LASF60
 2134 0366 06       		.byte	0x6
 2135 0367 24       		.byte	0x24
 2136 0368 2E030000 		.4byte	0x32e
 2137 036c 02       		.uleb128 0x2
 2138 036d 01       		.byte	0x1
 2139 036e 02       		.byte	0x2
 2140 036f A4020000 		.4byte	.LASF61
 2141 0373 10       		.uleb128 0x10
 2142 0374 3A060000 		.4byte	.LASF62
 2143 0378 01       		.byte	0x1
 2144 0379 CF01     		.2byte	0x1cf
 2145 037b 00000000 		.4byte	.LFB65
ARM GAS  C:\Users\haske\AppData\Local\Temp\cceAapTu.s 			page 51


 2146 037f 30000000 		.4byte	.LFE65-.LFB65
 2147 0383 01       		.uleb128 0x1
 2148 0384 9C       		.byte	0x9c
 2149 0385 A5030000 		.4byte	0x3a5
 2150 0389 11       		.uleb128 0x11
 2151 038a 0E000000 		.4byte	.LVL0
 2152 038e BF0C0000 		.4byte	0xcbf
 2153 0392 11       		.uleb128 0x11
 2154 0393 1A000000 		.4byte	.LVL1
 2155 0397 CA0C0000 		.4byte	0xcca
 2156 039b 11       		.uleb128 0x11
 2157 039c 24000000 		.4byte	.LVL2
 2158 03a0 D50C0000 		.4byte	0xcd5
 2159 03a4 00       		.byte	0
 2160 03a5 10       		.uleb128 0x10
 2161 03a6 1C060000 		.4byte	.LASF63
 2162 03aa 01       		.byte	0x1
 2163 03ab A201     		.2byte	0x1a2
 2164 03ad 00000000 		.4byte	.LFB64
 2165 03b1 A0000000 		.4byte	.LFE64-.LFB64
 2166 03b5 01       		.uleb128 0x1
 2167 03b6 9C       		.byte	0x9c
 2168 03b7 35040000 		.4byte	0x435
 2169 03bb 12       		.uleb128 0x12
 2170 03bc 6100     		.ascii	"a\000"
 2171 03be 01       		.byte	0x1
 2172 03bf A201     		.2byte	0x1a2
 2173 03c1 35040000 		.4byte	0x435
 2174 03c5 00000000 		.4byte	.LLST0
 2175 03c9 13       		.uleb128 0x13
 2176 03ca 6A000000 		.4byte	.LBB2
 2177 03ce 2A000000 		.4byte	.LBE2-.LBB2
 2178 03d2 E7030000 		.4byte	0x3e7
 2179 03d6 14       		.uleb128 0x14
 2180 03d7 746D7000 		.ascii	"tmp\000"
 2181 03db 01       		.byte	0x1
 2182 03dc C401     		.2byte	0x1c4
 2183 03de AD000000 		.4byte	0xad
 2184 03e2 2C000000 		.4byte	.LLST1
 2185 03e6 00       		.byte	0
 2186 03e7 15       		.uleb128 0x15
 2187 03e8 3E000000 		.4byte	.LVL5
 2188 03ec E00C0000 		.4byte	0xce0
 2189 03f0 FB030000 		.4byte	0x3fb
 2190 03f4 16       		.uleb128 0x16
 2191 03f5 01       		.uleb128 0x1
 2192 03f6 51       		.byte	0x51
 2193 03f7 02       		.uleb128 0x2
 2194 03f8 74       		.byte	0x74
 2195 03f9 00       		.sleb128 0
 2196 03fa 00       		.byte	0
 2197 03fb 11       		.uleb128 0x11
 2198 03fc 42000000 		.4byte	.LVL6
 2199 0400 73030000 		.4byte	0x373
 2200 0404 17       		.uleb128 0x17
 2201 0405 4C000000 		.4byte	.LVL7
 2202 0409 14040000 		.4byte	0x414
ARM GAS  C:\Users\haske\AppData\Local\Temp\cceAapTu.s 			page 52


 2203 040d 16       		.uleb128 0x16
 2204 040e 01       		.uleb128 0x1
 2205 040f 50       		.byte	0x50
 2206 0410 02       		.uleb128 0x2
 2207 0411 74       		.byte	0x74
 2208 0412 00       		.sleb128 0
 2209 0413 00       		.byte	0
 2210 0414 17       		.uleb128 0x17
 2211 0415 56000000 		.4byte	.LVL8
 2212 0419 24040000 		.4byte	0x424
 2213 041d 16       		.uleb128 0x16
 2214 041e 01       		.uleb128 0x1
 2215 041f 50       		.byte	0x50
 2216 0420 02       		.uleb128 0x2
 2217 0421 74       		.byte	0x74
 2218 0422 00       		.sleb128 0
 2219 0423 00       		.byte	0
 2220 0424 18       		.uleb128 0x18
 2221 0425 5C000000 		.4byte	.LVL9
 2222 0429 EB0C0000 		.4byte	0xceb
 2223 042d 16       		.uleb128 0x16
 2224 042e 01       		.uleb128 0x1
 2225 042f 50       		.byte	0x50
 2226 0430 02       		.uleb128 0x2
 2227 0431 74       		.byte	0x74
 2228 0432 00       		.sleb128 0
 2229 0433 00       		.byte	0
 2230 0434 00       		.byte	0
 2231 0435 05       		.uleb128 0x5
 2232 0436 04       		.byte	0x4
 2233 0437 85020000 		.4byte	0x285
 2234 043b 19       		.uleb128 0x19
 2235 043c BC020000 		.4byte	.LASF64
 2236 0440 01       		.byte	0x1
 2237 0441 5E01     		.2byte	0x15e
 2238 0443 00000000 		.4byte	.LFB63
 2239 0447 F8000000 		.4byte	.LFE63-.LFB63
 2240 044b 01       		.uleb128 0x1
 2241 044c 9C       		.byte	0x9c
 2242 044d 4A050000 		.4byte	0x54a
 2243 0451 1A       		.uleb128 0x1a
 2244 0452 4F040000 		.4byte	.LASF65
 2245 0456 01       		.byte	0x1
 2246 0457 5E01     		.2byte	0x15e
 2247 0459 4A050000 		.4byte	0x54a
 2248 045d 56000000 		.4byte	.LLST2
 2249 0461 1B       		.uleb128 0x1b
 2250 0462 E6060000 		.4byte	.LASF66
 2251 0466 01       		.byte	0x1
 2252 0467 6201     		.2byte	0x162
 2253 0469 B8000000 		.4byte	0xb8
 2254 046d 77000000 		.4byte	.LLST3
 2255 0471 14       		.uleb128 0x14
 2256 0472 6100     		.ascii	"a\000"
 2257 0474 01       		.byte	0x1
 2258 0475 6701     		.2byte	0x167
 2259 0477 35040000 		.4byte	0x435
ARM GAS  C:\Users\haske\AppData\Local\Temp\cceAapTu.s 			page 53


 2260 047b 95000000 		.4byte	.LLST4
 2261 047f 13       		.uleb128 0x13
 2262 0480 3A000000 		.4byte	.LBB3
 2263 0484 8C000000 		.4byte	.LBE3-.LBB3
 2264 0488 11050000 		.4byte	0x511
 2265 048c 1B       		.uleb128 0x1b
 2266 048d C5000000 		.4byte	.LASF67
 2267 0491 01       		.byte	0x1
 2268 0492 7401     		.2byte	0x174
 2269 0494 AD000000 		.4byte	0xad
 2270 0498 DF000000 		.4byte	.LLST5
 2271 049c 13       		.uleb128 0x13
 2272 049d 66000000 		.4byte	.LBB4
 2273 04a1 12000000 		.4byte	.LBE4-.LBB4
 2274 04a5 C6040000 		.4byte	0x4c6
 2275 04a9 1B       		.uleb128 0x1b
 2276 04aa C7020000 		.4byte	.LASF68
 2277 04ae 01       		.byte	0x1
 2278 04af 7701     		.2byte	0x177
 2279 04b1 AD000000 		.4byte	0xad
 2280 04b5 F2000000 		.4byte	.LLST6
 2281 04b9 1C       		.uleb128 0x1c
 2282 04ba 6A000000 		.4byte	.LVL24
 2283 04be 16       		.uleb128 0x16
 2284 04bf 01       		.uleb128 0x1
 2285 04c0 50       		.byte	0x50
 2286 04c1 02       		.uleb128 0x2
 2287 04c2 74       		.byte	0x74
 2288 04c3 00       		.sleb128 0
 2289 04c4 00       		.byte	0
 2290 04c5 00       		.byte	0
 2291 04c6 13       		.uleb128 0x13
 2292 04c7 96000000 		.4byte	.LBB5
 2293 04cb 30000000 		.4byte	.LBE5-.LBB5
 2294 04cf 04050000 		.4byte	0x504
 2295 04d3 1B       		.uleb128 0x1b
 2296 04d4 36040000 		.4byte	.LASF69
 2297 04d8 01       		.byte	0x1
 2298 04d9 8201     		.2byte	0x182
 2299 04db AD000000 		.4byte	0xad
 2300 04df 05010000 		.4byte	.LLST7
 2301 04e3 17       		.uleb128 0x17
 2302 04e4 A4000000 		.4byte	.LVL27
 2303 04e8 F3040000 		.4byte	0x4f3
 2304 04ec 16       		.uleb128 0x16
 2305 04ed 01       		.uleb128 0x1
 2306 04ee 50       		.byte	0x50
 2307 04ef 02       		.uleb128 0x2
 2308 04f0 74       		.byte	0x74
 2309 04f1 00       		.sleb128 0
 2310 04f2 00       		.byte	0
 2311 04f3 18       		.uleb128 0x18
 2312 04f4 C6000000 		.4byte	.LVL30
 2313 04f8 A5030000 		.4byte	0x3a5
 2314 04fc 16       		.uleb128 0x16
 2315 04fd 01       		.uleb128 0x1
 2316 04fe 50       		.byte	0x50
ARM GAS  C:\Users\haske\AppData\Local\Temp\cceAapTu.s 			page 54


 2317 04ff 02       		.uleb128 0x2
 2318 0500 74       		.byte	0x74
 2319 0501 00       		.sleb128 0
 2320 0502 00       		.byte	0
 2321 0503 00       		.byte	0
 2322 0504 1C       		.uleb128 0x1c
 2323 0505 82000000 		.4byte	.LVL26
 2324 0509 16       		.uleb128 0x16
 2325 050a 01       		.uleb128 0x1
 2326 050b 50       		.byte	0x50
 2327 050c 02       		.uleb128 0x2
 2328 050d 74       		.byte	0x74
 2329 050e 00       		.sleb128 0
 2330 050f 00       		.byte	0
 2331 0510 00       		.byte	0
 2332 0511 11       		.uleb128 0x11
 2333 0512 0A000000 		.4byte	.LVL17
 2334 0516 F60C0000 		.4byte	0xcf6
 2335 051a 11       		.uleb128 0x11
 2336 051b 22000000 		.4byte	.LVL20
 2337 051f BF0C0000 		.4byte	0xcbf
 2338 0523 11       		.uleb128 0x11
 2339 0524 D4000000 		.4byte	.LVL31
 2340 0528 BF0C0000 		.4byte	0xcbf
 2341 052c 15       		.uleb128 0x15
 2342 052d E0000000 		.4byte	.LVL34
 2343 0531 010D0000 		.4byte	0xd01
 2344 0535 40050000 		.4byte	0x540
 2345 0539 16       		.uleb128 0x16
 2346 053a 01       		.uleb128 0x1
 2347 053b 51       		.byte	0x51
 2348 053c 02       		.uleb128 0x2
 2349 053d 74       		.byte	0x74
 2350 053e 00       		.sleb128 0
 2351 053f 00       		.byte	0
 2352 0540 11       		.uleb128 0x11
 2353 0541 EA000000 		.4byte	.LVL36
 2354 0545 0C0D0000 		.4byte	0xd0c
 2355 0549 00       		.byte	0
 2356 054a 05       		.uleb128 0x5
 2357 054b 04       		.byte	0x4
 2358 054c 18030000 		.4byte	0x318
 2359 0550 1D       		.uleb128 0x1d
 2360 0551 55040000 		.4byte	.LASF73
 2361 0555 01       		.byte	0x1
 2362 0556 D4       		.byte	0xd4
 2363 0557 AD000000 		.4byte	0xad
 2364 055b 00000000 		.4byte	.LFB56
 2365 055f 28000000 		.4byte	.LFE56-.LFB56
 2366 0563 01       		.uleb128 0x1
 2367 0564 9C       		.byte	0x9c
 2368 0565 AF050000 		.4byte	0x5af
 2369 0569 1E       		.uleb128 0x1e
 2370 056a 6100     		.ascii	"a\000"
 2371 056c 01       		.byte	0x1
 2372 056d D4       		.byte	0xd4
 2373 056e AF050000 		.4byte	0x5af
ARM GAS  C:\Users\haske\AppData\Local\Temp\cceAapTu.s 			page 55


 2374 0572 23010000 		.4byte	.LLST8
 2375 0576 1F       		.uleb128 0x1f
 2376 0577 31040000 		.4byte	.LASF70
 2377 057b 01       		.byte	0x1
 2378 057c D7       		.byte	0xd7
 2379 057d AD000000 		.4byte	0xad
 2380 0581 4F010000 		.4byte	.LLST9
 2381 0585 20       		.uleb128 0x20
 2382 0586 36040000 		.4byte	.LASF69
 2383 058a 01       		.byte	0x1
 2384 058b DB       		.byte	0xdb
 2385 058c AD000000 		.4byte	0xad
 2386 0590 01       		.uleb128 0x1
 2387 0591 50       		.byte	0x50
 2388 0592 18       		.uleb128 0x18
 2389 0593 18000000 		.4byte	.LVL41
 2390 0597 170D0000 		.4byte	0xd17
 2391 059b 16       		.uleb128 0x16
 2392 059c 01       		.uleb128 0x1
 2393 059d 51       		.byte	0x51
 2394 059e 01       		.uleb128 0x1
 2395 059f 30       		.byte	0x30
 2396 05a0 16       		.uleb128 0x16
 2397 05a1 01       		.uleb128 0x1
 2398 05a2 53       		.byte	0x53
 2399 05a3 01       		.uleb128 0x1
 2400 05a4 30       		.byte	0x30
 2401 05a5 16       		.uleb128 0x16
 2402 05a6 02       		.uleb128 0x2
 2403 05a7 7D       		.byte	0x7d
 2404 05a8 00       		.sleb128 0
 2405 05a9 03       		.uleb128 0x3
 2406 05aa 0A       		.byte	0xa
 2407 05ab 0004     		.2byte	0x400
 2408 05ad 00       		.byte	0
 2409 05ae 00       		.byte	0
 2410 05af 05       		.uleb128 0x5
 2411 05b0 04       		.byte	0x4
 2412 05b1 B5050000 		.4byte	0x5b5
 2413 05b5 0C       		.uleb128 0xc
 2414 05b6 85020000 		.4byte	0x285
 2415 05ba 21       		.uleb128 0x21
 2416 05bb 5E030000 		.4byte	.LASF71
 2417 05bf 01       		.byte	0x1
 2418 05c0 39       		.byte	0x39
 2419 05c1 00000000 		.4byte	.LFB45
 2420 05c5 30000000 		.4byte	.LFE45-.LFB45
 2421 05c9 01       		.uleb128 0x1
 2422 05ca 9C       		.byte	0x9c
 2423 05cb 0E060000 		.4byte	0x60e
 2424 05cf 15       		.uleb128 0x15
 2425 05d0 0A000000 		.4byte	.LVL46
 2426 05d4 220D0000 		.4byte	0xd22
 2427 05d8 E3050000 		.4byte	0x5e3
 2428 05dc 16       		.uleb128 0x16
 2429 05dd 01       		.uleb128 0x1
 2430 05de 51       		.byte	0x51
ARM GAS  C:\Users\haske\AppData\Local\Temp\cceAapTu.s 			page 56


 2431 05df 02       		.uleb128 0x2
 2432 05e0 08       		.byte	0x8
 2433 05e1 44       		.byte	0x44
 2434 05e2 00       		.byte	0
 2435 05e3 15       		.uleb128 0x15
 2436 05e4 14000000 		.4byte	.LVL47
 2437 05e8 2D0D0000 		.4byte	0xd2d
 2438 05ec 04060000 		.4byte	0x604
 2439 05f0 16       		.uleb128 0x16
 2440 05f1 01       		.uleb128 0x1
 2441 05f2 50       		.byte	0x50
 2442 05f3 05       		.uleb128 0x5
 2443 05f4 03       		.byte	0x3
 2444 05f5 00000000 		.4byte	anim_timer
 2445 05f9 16       		.uleb128 0x16
 2446 05fa 01       		.uleb128 0x1
 2447 05fb 51       		.byte	0x51
 2448 05fc 01       		.uleb128 0x1
 2449 05fd 4E       		.byte	0x4e
 2450 05fe 16       		.uleb128 0x16
 2451 05ff 01       		.uleb128 0x1
 2452 0600 52       		.byte	0x52
 2453 0601 01       		.uleb128 0x1
 2454 0602 30       		.byte	0x30
 2455 0603 00       		.byte	0
 2456 0604 11       		.uleb128 0x11
 2457 0605 1C000000 		.4byte	.LVL48
 2458 0609 73030000 		.4byte	0x373
 2459 060d 00       		.byte	0
 2460 060e 21       		.uleb128 0x21
 2461 060f 86040000 		.4byte	.LASF72
 2462 0613 01       		.byte	0x1
 2463 0614 41       		.byte	0x41
 2464 0615 00000000 		.4byte	.LFB46
 2465 0619 34000000 		.4byte	.LFE46-.LFB46
 2466 061d 01       		.uleb128 0x1
 2467 061e 9C       		.byte	0x9c
 2468 061f 47060000 		.4byte	0x647
 2469 0623 1E       		.uleb128 0x1e
 2470 0624 6100     		.ascii	"a\000"
 2471 0626 01       		.byte	0x1
 2472 0627 41       		.byte	0x41
 2473 0628 35040000 		.4byte	0x435
 2474 062c 62010000 		.4byte	.LLST10
 2475 0630 18       		.uleb128 0x18
 2476 0631 0A000000 		.4byte	.LVL50
 2477 0635 380D0000 		.4byte	0xd38
 2478 0639 16       		.uleb128 0x16
 2479 063a 01       		.uleb128 0x1
 2480 063b 50       		.byte	0x50
 2481 063c 02       		.uleb128 0x2
 2482 063d 74       		.byte	0x74
 2483 063e 00       		.sleb128 0
 2484 063f 16       		.uleb128 0x16
 2485 0640 01       		.uleb128 0x1
 2486 0641 51       		.byte	0x51
 2487 0642 02       		.uleb128 0x2
ARM GAS  C:\Users\haske\AppData\Local\Temp\cceAapTu.s 			page 57


 2488 0643 08       		.byte	0x8
 2489 0644 44       		.byte	0x44
 2490 0645 00       		.byte	0
 2491 0646 00       		.byte	0
 2492 0647 1D       		.uleb128 0x1d
 2493 0648 BC050000 		.4byte	.LASF74
 2494 064c 01       		.byte	0x1
 2495 064d 75       		.byte	0x75
 2496 064e B8000000 		.4byte	0xb8
 2497 0652 00000000 		.4byte	.LFB48
 2498 0656 50000000 		.4byte	.LFE48-.LFB48
 2499 065a 01       		.uleb128 0x1
 2500 065b 9C       		.byte	0x9c
 2501 065c 7D060000 		.4byte	0x67d
 2502 0660 1E       		.uleb128 0x1e
 2503 0661 6100     		.ascii	"a\000"
 2504 0663 01       		.byte	0x1
 2505 0664 75       		.byte	0x75
 2506 0665 35040000 		.4byte	0x435
 2507 0669 8E010000 		.4byte	.LLST11
 2508 066d 1F       		.uleb128 0x1f
 2509 066e 5A050000 		.4byte	.LASF75
 2510 0672 01       		.byte	0x1
 2511 0673 77       		.byte	0x77
 2512 0674 B8000000 		.4byte	0xb8
 2513 0678 E1010000 		.4byte	.LLST12
 2514 067c 00       		.byte	0
 2515 067d 1D       		.uleb128 0x1d
 2516 067e 03050000 		.4byte	.LASF76
 2517 0682 01       		.byte	0x1
 2518 0683 8A       		.byte	0x8a
 2519 0684 6C030000 		.4byte	0x36c
 2520 0688 00000000 		.4byte	.LFB49
 2521 068c 64000000 		.4byte	.LFE49-.LFB49
 2522 0690 01       		.uleb128 0x1
 2523 0691 9C       		.byte	0x9c
 2524 0692 3E070000 		.4byte	0x73e
 2525 0696 1E       		.uleb128 0x1e
 2526 0697 76617200 		.ascii	"var\000"
 2527 069b 01       		.byte	0x1
 2528 069c 8A       		.byte	0x8a
 2529 069d 2B020000 		.4byte	0x22b
 2530 06a1 19020000 		.4byte	.LLST13
 2531 06a5 22       		.uleb128 0x22
 2532 06a6 00000000 		.4byte	.LASF19
 2533 06aa 01       		.byte	0x1
 2534 06ab 8A       		.byte	0x8a
 2535 06ac 0A020000 		.4byte	0x20a
 2536 06b0 45020000 		.4byte	.LLST14
 2537 06b4 23       		.uleb128 0x23
 2538 06b5 6100     		.ascii	"a\000"
 2539 06b7 01       		.byte	0x1
 2540 06b8 8C       		.byte	0x8c
 2541 06b9 35040000 		.4byte	0x435
 2542 06bd 71020000 		.4byte	.LLST15
 2543 06c1 1F       		.uleb128 0x1f
 2544 06c2 E0040000 		.4byte	.LASF77
ARM GAS  C:\Users\haske\AppData\Local\Temp\cceAapTu.s 			page 58


 2545 06c6 01       		.byte	0x1
 2546 06c7 8D       		.byte	0x8d
 2547 06c8 35040000 		.4byte	0x435
 2548 06cc 8F020000 		.4byte	.LLST16
 2549 06d0 23       		.uleb128 0x23
 2550 06d1 64656C00 		.ascii	"del\000"
 2551 06d5 01       		.byte	0x1
 2552 06d6 8E       		.byte	0x8e
 2553 06d7 6C030000 		.4byte	0x36c
 2554 06db AD020000 		.4byte	.LLST17
 2555 06df 11       		.uleb128 0x11
 2556 06e0 0E000000 		.4byte	.LVL64
 2557 06e4 BF0C0000 		.4byte	0xcbf
 2558 06e8 15       		.uleb128 0x15
 2559 06e9 1E000000 		.4byte	.LVL67
 2560 06ed 010D0000 		.4byte	0xd01
 2561 06f1 FC060000 		.4byte	0x6fc
 2562 06f5 16       		.uleb128 0x16
 2563 06f6 01       		.uleb128 0x1
 2564 06f7 51       		.byte	0x51
 2565 06f8 02       		.uleb128 0x2
 2566 06f9 74       		.byte	0x74
 2567 06fa 00       		.sleb128 0
 2568 06fb 00       		.byte	0
 2569 06fc 15       		.uleb128 0x15
 2570 06fd 3C000000 		.4byte	.LVL70
 2571 0701 E00C0000 		.4byte	0xce0
 2572 0705 10070000 		.4byte	0x710
 2573 0709 16       		.uleb128 0x16
 2574 070a 01       		.uleb128 0x1
 2575 070b 51       		.byte	0x51
 2576 070c 02       		.uleb128 0x2
 2577 070d 74       		.byte	0x74
 2578 070e 00       		.sleb128 0
 2579 070f 00       		.byte	0
 2580 0710 17       		.uleb128 0x17
 2581 0711 46000000 		.4byte	.LVL71
 2582 0715 20070000 		.4byte	0x720
 2583 0719 16       		.uleb128 0x16
 2584 071a 01       		.uleb128 0x1
 2585 071b 50       		.byte	0x50
 2586 071c 02       		.uleb128 0x2
 2587 071d 74       		.byte	0x74
 2588 071e 00       		.sleb128 0
 2589 071f 00       		.byte	0
 2590 0720 15       		.uleb128 0x15
 2591 0721 4C000000 		.4byte	.LVL72
 2592 0725 EB0C0000 		.4byte	0xceb
 2593 0729 34070000 		.4byte	0x734
 2594 072d 16       		.uleb128 0x16
 2595 072e 01       		.uleb128 0x1
 2596 072f 50       		.byte	0x50
 2597 0730 02       		.uleb128 0x2
 2598 0731 74       		.byte	0x74
 2599 0732 00       		.sleb128 0
 2600 0733 00       		.byte	0
 2601 0734 11       		.uleb128 0x11
ARM GAS  C:\Users\haske\AppData\Local\Temp\cceAapTu.s 			page 59


 2602 0735 50000000 		.4byte	.LVL73
 2603 0739 73030000 		.4byte	0x373
 2604 073d 00       		.byte	0
 2605 073e 24       		.uleb128 0x24
 2606 073f E7030000 		.4byte	.LASF78
 2607 0743 01       		.byte	0x1
 2608 0744 4C       		.byte	0x4c
 2609 0745 35040000 		.4byte	0x435
 2610 0749 00000000 		.4byte	.LFB47
 2611 074d 98000000 		.4byte	.LFE47-.LFB47
 2612 0751 01       		.uleb128 0x1
 2613 0752 9C       		.byte	0x9c
 2614 0753 E4070000 		.4byte	0x7e4
 2615 0757 1E       		.uleb128 0x1e
 2616 0758 6100     		.ascii	"a\000"
 2617 075a 01       		.byte	0x1
 2618 075b 4C       		.byte	0x4c
 2619 075c AF050000 		.4byte	0x5af
 2620 0760 E5020000 		.4byte	.LLST18
 2621 0764 1F       		.uleb128 0x1f
 2622 0765 37020000 		.4byte	.LASF79
 2623 0769 01       		.byte	0x1
 2624 076a 59       		.byte	0x59
 2625 076b 35040000 		.4byte	0x435
 2626 076f 2A030000 		.4byte	.LLST19
 2627 0773 13       		.uleb128 0x13
 2628 0774 62000000 		.4byte	.LBB6
 2629 0778 12000000 		.4byte	.LBE6-.LBB6
 2630 077c 9C070000 		.4byte	0x79c
 2631 0780 1F       		.uleb128 0x1f
 2632 0781 C7020000 		.4byte	.LASF68
 2633 0785 01       		.byte	0x1
 2634 0786 65       		.byte	0x65
 2635 0787 AD000000 		.4byte	0xad
 2636 078b 5E030000 		.4byte	.LLST20
 2637 078f 1C       		.uleb128 0x1c
 2638 0790 66000000 		.4byte	.LVL88
 2639 0794 16       		.uleb128 0x16
 2640 0795 01       		.uleb128 0x1
 2641 0796 50       		.byte	0x50
 2642 0797 02       		.uleb128 0x2
 2643 0798 74       		.byte	0x74
 2644 0799 00       		.sleb128 0
 2645 079a 00       		.byte	0
 2646 079b 00       		.byte	0
 2647 079c 11       		.uleb128 0x11
 2648 079d 10000000 		.4byte	.LVL81
 2649 07a1 7D060000 		.4byte	0x67d
 2650 07a5 11       		.uleb128 0x11
 2651 07a6 16000000 		.4byte	.LVL82
 2652 07aa 430D0000 		.4byte	0xd43
 2653 07ae 11       		.uleb128 0x11
 2654 07af 1E000000 		.4byte	.LVL83
 2655 07b3 0C0D0000 		.4byte	0xd0c
 2656 07b7 11       		.uleb128 0x11
 2657 07b8 28000000 		.4byte	.LVL84
 2658 07bc 4E0D0000 		.4byte	0xd4e
ARM GAS  C:\Users\haske\AppData\Local\Temp\cceAapTu.s 			page 60


 2659 07c0 15       		.uleb128 0x15
 2660 07c1 3A000000 		.4byte	.LVL86
 2661 07c5 590D0000 		.4byte	0xd59
 2662 07c9 DA070000 		.4byte	0x7da
 2663 07cd 16       		.uleb128 0x16
 2664 07ce 01       		.uleb128 0x1
 2665 07cf 51       		.byte	0x51
 2666 07d0 02       		.uleb128 0x2
 2667 07d1 75       		.byte	0x75
 2668 07d2 00       		.sleb128 0
 2669 07d3 16       		.uleb128 0x16
 2670 07d4 01       		.uleb128 0x1
 2671 07d5 52       		.byte	0x52
 2672 07d6 02       		.uleb128 0x2
 2673 07d7 08       		.byte	0x8
 2674 07d8 44       		.byte	0x44
 2675 07d9 00       		.byte	0
 2676 07da 11       		.uleb128 0x11
 2677 07db 88000000 		.4byte	.LVL91
 2678 07df 73030000 		.4byte	0x373
 2679 07e3 00       		.byte	0
 2680 07e4 21       		.uleb128 0x21
 2681 07e5 BD060000 		.4byte	.LASF80
 2682 07e9 01       		.byte	0x1
 2683 07ea A3       		.byte	0xa3
 2684 07eb 00000000 		.4byte	.LFB50
 2685 07ef 14000000 		.4byte	.LFE50-.LFB50
 2686 07f3 01       		.uleb128 0x1
 2687 07f4 9C       		.byte	0x9c
 2688 07f5 0C080000 		.4byte	0x80c
 2689 07f9 11       		.uleb128 0x11
 2690 07fa 08000000 		.4byte	.LVL95
 2691 07fe 640D0000 		.4byte	0xd64
 2692 0802 11       		.uleb128 0x11
 2693 0803 0C000000 		.4byte	.LVL96
 2694 0807 73030000 		.4byte	0x373
 2695 080b 00       		.byte	0
 2696 080c 1D       		.uleb128 0x1d
 2697 080d 55060000 		.4byte	.LASF81
 2698 0811 01       		.byte	0x1
 2699 0812 A9       		.byte	0xa9
 2700 0813 35040000 		.4byte	0x435
 2701 0817 00000000 		.4byte	.LFB51
 2702 081b 30000000 		.4byte	.LFE51-.LFB51
 2703 081f 01       		.uleb128 0x1
 2704 0820 9C       		.byte	0x9c
 2705 0821 63080000 		.4byte	0x863
 2706 0825 1E       		.uleb128 0x1e
 2707 0826 76617200 		.ascii	"var\000"
 2708 082a 01       		.byte	0x1
 2709 082b A9       		.byte	0xa9
 2710 082c 2B020000 		.4byte	0x22b
 2711 0830 71030000 		.4byte	.LLST21
 2712 0834 22       		.uleb128 0x22
 2713 0835 00000000 		.4byte	.LASF19
 2714 0839 01       		.byte	0x1
 2715 083a A9       		.byte	0xa9
ARM GAS  C:\Users\haske\AppData\Local\Temp\cceAapTu.s 			page 61


 2716 083b 0A020000 		.4byte	0x20a
 2717 083f 9D030000 		.4byte	.LLST22
 2718 0843 23       		.uleb128 0x23
 2719 0844 6100     		.ascii	"a\000"
 2720 0846 01       		.byte	0x1
 2721 0847 AB       		.byte	0xab
 2722 0848 35040000 		.4byte	0x435
 2723 084c C9030000 		.4byte	.LLST23
 2724 0850 11       		.uleb128 0x11
 2725 0851 0C000000 		.4byte	.LVL99
 2726 0855 BF0C0000 		.4byte	0xcbf
 2727 0859 11       		.uleb128 0x11
 2728 085a 26000000 		.4byte	.LVL101
 2729 085e 010D0000 		.4byte	0xd01
 2730 0862 00       		.byte	0
 2731 0863 25       		.uleb128 0x25
 2732 0864 6C060000 		.4byte	.LASF118
 2733 0868 01       		.byte	0x1
 2734 0869 B5       		.byte	0xb5
 2735 086a BA020000 		.4byte	0x2ba
 2736 086e 00000000 		.4byte	.LFB52
 2737 0872 0C000000 		.4byte	.LFE52-.LFB52
 2738 0876 01       		.uleb128 0x1
 2739 0877 9C       		.byte	0x9c
 2740 0878 1D       		.uleb128 0x1d
 2741 0879 40030000 		.4byte	.LASF82
 2742 087d 01       		.byte	0x1
 2743 087e BA       		.byte	0xba
 2744 087f A2000000 		.4byte	0xa2
 2745 0883 00000000 		.4byte	.LFB53
 2746 0887 24000000 		.4byte	.LFE53-.LFB53
 2747 088b 01       		.uleb128 0x1
 2748 088c 9C       		.byte	0x9c
 2749 088d C0080000 		.4byte	0x8c0
 2750 0891 23       		.uleb128 0x23
 2751 0892 636E7400 		.ascii	"cnt\000"
 2752 0896 01       		.byte	0x1
 2753 0897 BC       		.byte	0xbc
 2754 0898 A2000000 		.4byte	0xa2
 2755 089c F2030000 		.4byte	.LLST24
 2756 08a0 23       		.uleb128 0x23
 2757 08a1 6100     		.ascii	"a\000"
 2758 08a3 01       		.byte	0x1
 2759 08a4 BD       		.byte	0xbd
 2760 08a5 35040000 		.4byte	0x435
 2761 08a9 1C040000 		.4byte	.LLST25
 2762 08ad 11       		.uleb128 0x11
 2763 08ae 08000000 		.4byte	.LVL105
 2764 08b2 BF0C0000 		.4byte	0xcbf
 2765 08b6 11       		.uleb128 0x11
 2766 08b7 18000000 		.4byte	.LVL110
 2767 08bb 010D0000 		.4byte	0xd01
 2768 08bf 00       		.byte	0
 2769 08c0 24       		.uleb128 0x24
 2770 08c1 F8050000 		.4byte	.LASF83
 2771 08c5 01       		.byte	0x1
 2772 08c6 C3       		.byte	0xc3
ARM GAS  C:\Users\haske\AppData\Local\Temp\cceAapTu.s 			page 62


 2773 08c7 B8000000 		.4byte	0xb8
 2774 08cb 00000000 		.4byte	.LFB54
 2775 08cf 20000000 		.4byte	.LFE54-.LFB54
 2776 08d3 01       		.uleb128 0x1
 2777 08d4 9C       		.byte	0x9c
 2778 08d5 21090000 		.4byte	0x921
 2779 08d9 22       		.uleb128 0x22
 2780 08da 1E010000 		.4byte	.LASF84
 2781 08de 01       		.byte	0x1
 2782 08df C3       		.byte	0xc3
 2783 08e0 B8000000 		.4byte	0xb8
 2784 08e4 45040000 		.4byte	.LLST26
 2785 08e8 22       		.uleb128 0x22
 2786 08e9 79050000 		.4byte	.LASF85
 2787 08ed 01       		.byte	0x1
 2788 08ee C3       		.byte	0xc3
 2789 08ef AD000000 		.4byte	0xad
 2790 08f3 71040000 		.4byte	.LLST27
 2791 08f7 1E       		.uleb128 0x1e
 2792 08f8 656E6400 		.ascii	"end\000"
 2793 08fc 01       		.byte	0x1
 2794 08fd C3       		.byte	0xc3
 2795 08fe AD000000 		.4byte	0xad
 2796 0902 92040000 		.4byte	.LLST28
 2797 0906 23       		.uleb128 0x23
 2798 0907 6400     		.ascii	"d\000"
 2799 0909 01       		.byte	0x1
 2800 090a C5       		.byte	0xc5
 2801 090b B8000000 		.4byte	0xb8
 2802 090f B3040000 		.4byte	.LLST29
 2803 0913 20       		.uleb128 0x20
 2804 0914 7F020000 		.4byte	.LASF29
 2805 0918 01       		.byte	0x1
 2806 0919 C6       		.byte	0xc6
 2807 091a B8000000 		.4byte	0xb8
 2808 091e 01       		.uleb128 0x1
 2809 091f 50       		.byte	0x50
 2810 0920 00       		.byte	0
 2811 0921 21       		.uleb128 0x21
 2812 0922 D2000000 		.4byte	.LASF86
 2813 0926 01       		.byte	0x1
 2814 0927 CF       		.byte	0xcf
 2815 0928 00000000 		.4byte	.LFB55
 2816 092c 0A000000 		.4byte	.LFE55-.LFB55
 2817 0930 01       		.uleb128 0x1
 2818 0931 9C       		.byte	0x9c
 2819 0932 46090000 		.4byte	0x946
 2820 0936 18       		.uleb128 0x18
 2821 0937 08000000 		.4byte	.LVL121
 2822 093b 3B040000 		.4byte	0x43b
 2823 093f 16       		.uleb128 0x16
 2824 0940 01       		.uleb128 0x1
 2825 0941 50       		.byte	0x50
 2826 0942 01       		.uleb128 0x1
 2827 0943 30       		.byte	0x30
 2828 0944 00       		.byte	0
 2829 0945 00       		.byte	0
ARM GAS  C:\Users\haske\AppData\Local\Temp\cceAapTu.s 			page 63


 2830 0946 1D       		.uleb128 0x1d
 2831 0947 2B030000 		.4byte	.LASF87
 2832 094b 01       		.byte	0x1
 2833 094c E3       		.byte	0xe3
 2834 094d AD000000 		.4byte	0xad
 2835 0951 00000000 		.4byte	.LFB57
 2836 0955 34000000 		.4byte	.LFE57-.LFB57
 2837 0959 01       		.uleb128 0x1
 2838 095a 9C       		.byte	0x9c
 2839 095b D7090000 		.4byte	0x9d7
 2840 095f 1E       		.uleb128 0x1e
 2841 0960 6100     		.ascii	"a\000"
 2842 0962 01       		.byte	0x1
 2843 0963 E3       		.byte	0xe3
 2844 0964 AF050000 		.4byte	0x5af
 2845 0968 04050000 		.4byte	.LLST30
 2846 096c 23       		.uleb128 0x23
 2847 096d 7400     		.ascii	"t\000"
 2848 096f 01       		.byte	0x1
 2849 0970 E6       		.byte	0xe6
 2850 0971 B8000000 		.4byte	0xb8
 2851 0975 30050000 		.4byte	.LLST31
 2852 0979 1F       		.uleb128 0x1f
 2853 097a 31040000 		.4byte	.LASF70
 2854 097e 01       		.byte	0x1
 2855 097f E7       		.byte	0xe7
 2856 0980 AD000000 		.4byte	0xad
 2857 0984 43050000 		.4byte	.LLST32
 2858 0988 20       		.uleb128 0x20
 2859 0989 36040000 		.4byte	.LASF69
 2860 098d 01       		.byte	0x1
 2861 098e E9       		.byte	0xe9
 2862 098f AD000000 		.4byte	0xad
 2863 0993 01       		.uleb128 0x1
 2864 0994 50       		.byte	0x50
 2865 0995 15       		.uleb128 0x15
 2866 0996 18000000 		.4byte	.LVL124
 2867 099a 170D0000 		.4byte	0xd17
 2868 099e B4090000 		.4byte	0x9b4
 2869 09a2 16       		.uleb128 0x16
 2870 09a3 01       		.uleb128 0x1
 2871 09a4 51       		.byte	0x51
 2872 09a5 01       		.uleb128 0x1
 2873 09a6 30       		.byte	0x30
 2874 09a7 16       		.uleb128 0x16
 2875 09a8 01       		.uleb128 0x1
 2876 09a9 53       		.byte	0x53
 2877 09aa 01       		.uleb128 0x1
 2878 09ab 30       		.byte	0x30
 2879 09ac 16       		.uleb128 0x16
 2880 09ad 02       		.uleb128 0x2
 2881 09ae 7D       		.byte	0x7d
 2882 09af 00       		.sleb128 0
 2883 09b0 02       		.uleb128 0x2
 2884 09b1 75       		.byte	0x75
 2885 09b2 00       		.sleb128 0
 2886 09b3 00       		.byte	0
ARM GAS  C:\Users\haske\AppData\Local\Temp\cceAapTu.s 			page 64


 2887 09b4 18       		.uleb128 0x18
 2888 09b5 24000000 		.4byte	.LVL125
 2889 09b9 6F0D0000 		.4byte	0xd6f
 2890 09bd 16       		.uleb128 0x16
 2891 09be 01       		.uleb128 0x1
 2892 09bf 51       		.byte	0x51
 2893 09c0 01       		.uleb128 0x1
 2894 09c1 30       		.byte	0x30
 2895 09c2 16       		.uleb128 0x16
 2896 09c3 01       		.uleb128 0x1
 2897 09c4 52       		.byte	0x52
 2898 09c5 02       		.uleb128 0x2
 2899 09c6 08       		.byte	0x8
 2900 09c7 32       		.byte	0x32
 2901 09c8 16       		.uleb128 0x16
 2902 09c9 01       		.uleb128 0x1
 2903 09ca 53       		.byte	0x53
 2904 09cb 02       		.uleb128 0x2
 2905 09cc 08       		.byte	0x8
 2906 09cd 64       		.byte	0x64
 2907 09ce 16       		.uleb128 0x16
 2908 09cf 02       		.uleb128 0x2
 2909 09d0 7D       		.byte	0x7d
 2910 09d1 00       		.sleb128 0
 2911 09d2 02       		.uleb128 0x2
 2912 09d3 75       		.byte	0x75
 2913 09d4 00       		.sleb128 0
 2914 09d5 00       		.byte	0
 2915 09d6 00       		.byte	0
 2916 09d7 1D       		.uleb128 0x1d
 2917 09d8 D7020000 		.4byte	.LASF88
 2918 09dc 01       		.byte	0x1
 2919 09dd F1       		.byte	0xf1
 2920 09de AD000000 		.4byte	0xad
 2921 09e2 00000000 		.4byte	.LFB58
 2922 09e6 3C000000 		.4byte	.LFE58-.LFB58
 2923 09ea 01       		.uleb128 0x1
 2924 09eb 9C       		.byte	0x9c
 2925 09ec 6A0A0000 		.4byte	0xa6a
 2926 09f0 1E       		.uleb128 0x1e
 2927 09f1 6100     		.ascii	"a\000"
 2928 09f3 01       		.byte	0x1
 2929 09f4 F1       		.byte	0xf1
 2930 09f5 AF050000 		.4byte	0x5af
 2931 09f9 56050000 		.4byte	.LLST33
 2932 09fd 23       		.uleb128 0x23
 2933 09fe 7400     		.ascii	"t\000"
 2934 0a00 01       		.byte	0x1
 2935 0a01 F4       		.byte	0xf4
 2936 0a02 B8000000 		.4byte	0xb8
 2937 0a06 82050000 		.4byte	.LLST34
 2938 0a0a 1F       		.uleb128 0x1f
 2939 0a0b 31040000 		.4byte	.LASF70
 2940 0a0f 01       		.byte	0x1
 2941 0a10 F5       		.byte	0xf5
 2942 0a11 AD000000 		.4byte	0xad
 2943 0a15 95050000 		.4byte	.LLST35
ARM GAS  C:\Users\haske\AppData\Local\Temp\cceAapTu.s 			page 65


 2944 0a19 20       		.uleb128 0x20
 2945 0a1a 36040000 		.4byte	.LASF69
 2946 0a1e 01       		.byte	0x1
 2947 0a1f F7       		.byte	0xf7
 2948 0a20 AD000000 		.4byte	0xad
 2949 0a24 01       		.uleb128 0x1
 2950 0a25 50       		.byte	0x50
 2951 0a26 15       		.uleb128 0x15
 2952 0a27 18000000 		.4byte	.LVL132
 2953 0a2b 170D0000 		.4byte	0xd17
 2954 0a2f 450A0000 		.4byte	0xa45
 2955 0a33 16       		.uleb128 0x16
 2956 0a34 01       		.uleb128 0x1
 2957 0a35 51       		.byte	0x51
 2958 0a36 01       		.uleb128 0x1
 2959 0a37 30       		.byte	0x30
 2960 0a38 16       		.uleb128 0x16
 2961 0a39 01       		.uleb128 0x1
 2962 0a3a 53       		.byte	0x53
 2963 0a3b 01       		.uleb128 0x1
 2964 0a3c 30       		.byte	0x30
 2965 0a3d 16       		.uleb128 0x16
 2966 0a3e 02       		.uleb128 0x2
 2967 0a3f 7D       		.byte	0x7d
 2968 0a40 00       		.sleb128 0
 2969 0a41 02       		.uleb128 0x2
 2970 0a42 75       		.byte	0x75
 2971 0a43 00       		.sleb128 0
 2972 0a44 00       		.byte	0
 2973 0a45 18       		.uleb128 0x18
 2974 0a46 26000000 		.4byte	.LVL133
 2975 0a4a 6F0D0000 		.4byte	0xd6f
 2976 0a4e 16       		.uleb128 0x16
 2977 0a4f 01       		.uleb128 0x1
 2978 0a50 51       		.byte	0x51
 2979 0a51 01       		.uleb128 0x1
 2980 0a52 30       		.byte	0x30
 2981 0a53 16       		.uleb128 0x16
 2982 0a54 01       		.uleb128 0x1
 2983 0a55 52       		.byte	0x52
 2984 0a56 03       		.uleb128 0x3
 2985 0a57 0A       		.byte	0xa
 2986 0a58 8403     		.2byte	0x384
 2987 0a5a 16       		.uleb128 0x16
 2988 0a5b 01       		.uleb128 0x1
 2989 0a5c 53       		.byte	0x53
 2990 0a5d 03       		.uleb128 0x3
 2991 0a5e 0A       		.byte	0xa
 2992 0a5f B603     		.2byte	0x3b6
 2993 0a61 16       		.uleb128 0x16
 2994 0a62 02       		.uleb128 0x2
 2995 0a63 7D       		.byte	0x7d
 2996 0a64 00       		.sleb128 0
 2997 0a65 02       		.uleb128 0x2
 2998 0a66 75       		.byte	0x75
 2999 0a67 00       		.sleb128 0
 3000 0a68 00       		.byte	0
ARM GAS  C:\Users\haske\AppData\Local\Temp\cceAapTu.s 			page 66


 3001 0a69 00       		.byte	0
 3002 0a6a 1D       		.uleb128 0x1d
 3003 0a6b 16000000 		.4byte	.LASF89
 3004 0a6f 01       		.byte	0x1
 3005 0a70 FF       		.byte	0xff
 3006 0a71 AD000000 		.4byte	0xad
 3007 0a75 00000000 		.4byte	.LFB59
 3008 0a79 36000000 		.4byte	.LFE59-.LFB59
 3009 0a7d 01       		.uleb128 0x1
 3010 0a7e 9C       		.byte	0x9c
 3011 0a7f FF0A0000 		.4byte	0xaff
 3012 0a83 1E       		.uleb128 0x1e
 3013 0a84 6100     		.ascii	"a\000"
 3014 0a86 01       		.byte	0x1
 3015 0a87 FF       		.byte	0xff
 3016 0a88 AF050000 		.4byte	0x5af
 3017 0a8c A8050000 		.4byte	.LLST36
 3018 0a90 14       		.uleb128 0x14
 3019 0a91 7400     		.ascii	"t\000"
 3020 0a93 01       		.byte	0x1
 3021 0a94 0201     		.2byte	0x102
 3022 0a96 B8000000 		.4byte	0xb8
 3023 0a9a D4050000 		.4byte	.LLST37
 3024 0a9e 1B       		.uleb128 0x1b
 3025 0a9f 31040000 		.4byte	.LASF70
 3026 0aa3 01       		.byte	0x1
 3027 0aa4 0301     		.2byte	0x103
 3028 0aa6 AD000000 		.4byte	0xad
 3029 0aaa E7050000 		.4byte	.LLST38
 3030 0aae 26       		.uleb128 0x26
 3031 0aaf 36040000 		.4byte	.LASF69
 3032 0ab3 01       		.byte	0x1
 3033 0ab4 0501     		.2byte	0x105
 3034 0ab6 AD000000 		.4byte	0xad
 3035 0aba 01       		.uleb128 0x1
 3036 0abb 50       		.byte	0x50
 3037 0abc 15       		.uleb128 0x15
 3038 0abd 18000000 		.4byte	.LVL140
 3039 0ac1 170D0000 		.4byte	0xd17
 3040 0ac5 DB0A0000 		.4byte	0xadb
 3041 0ac9 16       		.uleb128 0x16
 3042 0aca 01       		.uleb128 0x1
 3043 0acb 51       		.byte	0x51
 3044 0acc 01       		.uleb128 0x1
 3045 0acd 30       		.byte	0x30
 3046 0ace 16       		.uleb128 0x16
 3047 0acf 01       		.uleb128 0x1
 3048 0ad0 53       		.byte	0x53
 3049 0ad1 01       		.uleb128 0x1
 3050 0ad2 30       		.byte	0x30
 3051 0ad3 16       		.uleb128 0x16
 3052 0ad4 02       		.uleb128 0x2
 3053 0ad5 7D       		.byte	0x7d
 3054 0ad6 00       		.sleb128 0
 3055 0ad7 02       		.uleb128 0x2
 3056 0ad8 75       		.byte	0x75
 3057 0ad9 00       		.sleb128 0
ARM GAS  C:\Users\haske\AppData\Local\Temp\cceAapTu.s 			page 67


 3058 0ada 00       		.byte	0
 3059 0adb 18       		.uleb128 0x18
 3060 0adc 26000000 		.4byte	.LVL141
 3061 0ae0 6F0D0000 		.4byte	0xd6f
 3062 0ae4 16       		.uleb128 0x16
 3063 0ae5 01       		.uleb128 0x1
 3064 0ae6 51       		.byte	0x51
 3065 0ae7 01       		.uleb128 0x1
 3066 0ae8 30       		.byte	0x30
 3067 0ae9 16       		.uleb128 0x16
 3068 0aea 01       		.uleb128 0x1
 3069 0aeb 52       		.byte	0x52
 3070 0aec 02       		.uleb128 0x2
 3071 0aed 08       		.byte	0x8
 3072 0aee 32       		.byte	0x32
 3073 0aef 16       		.uleb128 0x16
 3074 0af0 01       		.uleb128 0x1
 3075 0af1 53       		.byte	0x53
 3076 0af2 03       		.uleb128 0x3
 3077 0af3 0A       		.byte	0xa
 3078 0af4 B803     		.2byte	0x3b8
 3079 0af6 16       		.uleb128 0x16
 3080 0af7 02       		.uleb128 0x2
 3081 0af8 7D       		.byte	0x7d
 3082 0af9 00       		.sleb128 0
 3083 0afa 02       		.uleb128 0x2
 3084 0afb 75       		.byte	0x75
 3085 0afc 00       		.sleb128 0
 3086 0afd 00       		.byte	0
 3087 0afe 00       		.byte	0
 3088 0aff 27       		.uleb128 0x27
 3089 0b00 4B020000 		.4byte	.LASF90
 3090 0b04 01       		.byte	0x1
 3091 0b05 0D01     		.2byte	0x10d
 3092 0b07 AD000000 		.4byte	0xad
 3093 0b0b 00000000 		.4byte	.LFB60
 3094 0b0f 3C000000 		.4byte	.LFE60-.LFB60
 3095 0b13 01       		.uleb128 0x1
 3096 0b14 9C       		.byte	0x9c
 3097 0b15 970B0000 		.4byte	0xb97
 3098 0b19 12       		.uleb128 0x12
 3099 0b1a 6100     		.ascii	"a\000"
 3100 0b1c 01       		.byte	0x1
 3101 0b1d 0D01     		.2byte	0x10d
 3102 0b1f AF050000 		.4byte	0x5af
 3103 0b23 FA050000 		.4byte	.LLST39
 3104 0b27 14       		.uleb128 0x14
 3105 0b28 7400     		.ascii	"t\000"
 3106 0b2a 01       		.byte	0x1
 3107 0b2b 1001     		.2byte	0x110
 3108 0b2d B8000000 		.4byte	0xb8
 3109 0b31 26060000 		.4byte	.LLST40
 3110 0b35 1B       		.uleb128 0x1b
 3111 0b36 31040000 		.4byte	.LASF70
 3112 0b3a 01       		.byte	0x1
 3113 0b3b 1101     		.2byte	0x111
 3114 0b3d AD000000 		.4byte	0xad
ARM GAS  C:\Users\haske\AppData\Local\Temp\cceAapTu.s 			page 68


 3115 0b41 39060000 		.4byte	.LLST41
 3116 0b45 26       		.uleb128 0x26
 3117 0b46 36040000 		.4byte	.LASF69
 3118 0b4a 01       		.byte	0x1
 3119 0b4b 1301     		.2byte	0x113
 3120 0b4d AD000000 		.4byte	0xad
 3121 0b51 01       		.uleb128 0x1
 3122 0b52 50       		.byte	0x50
 3123 0b53 15       		.uleb128 0x15
 3124 0b54 18000000 		.4byte	.LVL148
 3125 0b58 170D0000 		.4byte	0xd17
 3126 0b5c 720B0000 		.4byte	0xb72
 3127 0b60 16       		.uleb128 0x16
 3128 0b61 01       		.uleb128 0x1
 3129 0b62 51       		.byte	0x51
 3130 0b63 01       		.uleb128 0x1
 3131 0b64 30       		.byte	0x30
 3132 0b65 16       		.uleb128 0x16
 3133 0b66 01       		.uleb128 0x1
 3134 0b67 53       		.byte	0x53
 3135 0b68 01       		.uleb128 0x1
 3136 0b69 30       		.byte	0x30
 3137 0b6a 16       		.uleb128 0x16
 3138 0b6b 02       		.uleb128 0x2
 3139 0b6c 7D       		.byte	0x7d
 3140 0b6d 00       		.sleb128 0
 3141 0b6e 02       		.uleb128 0x2
 3142 0b6f 75       		.byte	0x75
 3143 0b70 00       		.sleb128 0
 3144 0b71 00       		.byte	0
 3145 0b72 18       		.uleb128 0x18
 3146 0b73 26000000 		.4byte	.LVL149
 3147 0b77 6F0D0000 		.4byte	0xd6f
 3148 0b7b 16       		.uleb128 0x16
 3149 0b7c 01       		.uleb128 0x1
 3150 0b7d 51       		.byte	0x51
 3151 0b7e 01       		.uleb128 0x1
 3152 0b7f 30       		.byte	0x30
 3153 0b80 16       		.uleb128 0x16
 3154 0b81 01       		.uleb128 0x1
 3155 0b82 52       		.byte	0x52
 3156 0b83 03       		.uleb128 0x3
 3157 0b84 0A       		.byte	0xa
 3158 0b85 E803     		.2byte	0x3e8
 3159 0b87 16       		.uleb128 0x16
 3160 0b88 01       		.uleb128 0x1
 3161 0b89 53       		.byte	0x53
 3162 0b8a 03       		.uleb128 0x3
 3163 0b8b 0A       		.byte	0xa
 3164 0b8c 1405     		.2byte	0x514
 3165 0b8e 16       		.uleb128 0x16
 3166 0b8f 02       		.uleb128 0x2
 3167 0b90 7D       		.byte	0x7d
 3168 0b91 00       		.sleb128 0
 3169 0b92 02       		.uleb128 0x2
 3170 0b93 75       		.byte	0x75
 3171 0b94 00       		.sleb128 0
ARM GAS  C:\Users\haske\AppData\Local\Temp\cceAapTu.s 			page 69


 3172 0b95 00       		.byte	0
 3173 0b96 00       		.byte	0
 3174 0b97 28       		.uleb128 0x28
 3175 0b98 EA000000 		.4byte	.LASF91
 3176 0b9c 01       		.byte	0x1
 3177 0b9d 1B01     		.2byte	0x11b
 3178 0b9f AD000000 		.4byte	0xad
 3179 0ba3 00000000 		.4byte	.LFB61
 3180 0ba7 F8000000 		.4byte	.LFE61-.LFB61
 3181 0bab 01       		.uleb128 0x1
 3182 0bac 9C       		.byte	0x9c
 3183 0bad 470C0000 		.4byte	0xc47
 3184 0bb1 12       		.uleb128 0x12
 3185 0bb2 6100     		.ascii	"a\000"
 3186 0bb4 01       		.byte	0x1
 3187 0bb5 1B01     		.2byte	0x11b
 3188 0bb7 AF050000 		.4byte	0x5af
 3189 0bbb 4C060000 		.4byte	.LLST42
 3190 0bbf 14       		.uleb128 0x14
 3191 0bc0 7400     		.ascii	"t\000"
 3192 0bc2 01       		.byte	0x1
 3193 0bc3 1E01     		.2byte	0x11e
 3194 0bc5 AD000000 		.4byte	0xad
 3195 0bc9 78060000 		.4byte	.LLST43
 3196 0bcd 1B       		.uleb128 0x1b
 3197 0bce 4C050000 		.4byte	.LASF92
 3198 0bd2 01       		.byte	0x1
 3199 0bd3 1F01     		.2byte	0x11f
 3200 0bd5 AD000000 		.4byte	0xad
 3201 0bd9 1F070000 		.4byte	.LLST44
 3202 0bdd 1B       		.uleb128 0x1b
 3203 0bde 31040000 		.4byte	.LASF70
 3204 0be2 01       		.byte	0x1
 3205 0be3 4401     		.2byte	0x144
 3206 0be5 AD000000 		.4byte	0xad
 3207 0be9 74070000 		.4byte	.LLST45
 3208 0bed 26       		.uleb128 0x26
 3209 0bee 36040000 		.4byte	.LASF69
 3210 0bf2 01       		.byte	0x1
 3211 0bf3 4601     		.2byte	0x146
 3212 0bf5 AD000000 		.4byte	0xad
 3213 0bf9 01       		.uleb128 0x1
 3214 0bfa 50       		.byte	0x50
 3215 0bfb 15       		.uleb128 0x15
 3216 0bfc 18000000 		.4byte	.LVL156
 3217 0c00 170D0000 		.4byte	0xd17
 3218 0c04 1B0C0000 		.4byte	0xc1b
 3219 0c08 16       		.uleb128 0x16
 3220 0c09 01       		.uleb128 0x1
 3221 0c0a 51       		.byte	0x51
 3222 0c0b 01       		.uleb128 0x1
 3223 0c0c 30       		.byte	0x30
 3224 0c0d 16       		.uleb128 0x16
 3225 0c0e 01       		.uleb128 0x1
 3226 0c0f 53       		.byte	0x53
 3227 0c10 01       		.uleb128 0x1
 3228 0c11 30       		.byte	0x30
ARM GAS  C:\Users\haske\AppData\Local\Temp\cceAapTu.s 			page 70


 3229 0c12 16       		.uleb128 0x16
 3230 0c13 02       		.uleb128 0x2
 3231 0c14 7D       		.byte	0x7d
 3232 0c15 00       		.sleb128 0
 3233 0c16 03       		.uleb128 0x3
 3234 0c17 0A       		.byte	0xa
 3235 0c18 0004     		.2byte	0x400
 3236 0c1a 00       		.byte	0
 3237 0c1b 18       		.uleb128 0x18
 3238 0c1c DA000000 		.4byte	.LVL186
 3239 0c20 6F0D0000 		.4byte	0xd6f
 3240 0c24 16       		.uleb128 0x16
 3241 0c25 01       		.uleb128 0x1
 3242 0c26 50       		.byte	0x50
 3243 0c27 02       		.uleb128 0x2
 3244 0c28 74       		.byte	0x74
 3245 0c29 00       		.sleb128 0
 3246 0c2a 16       		.uleb128 0x16
 3247 0c2b 01       		.uleb128 0x1
 3248 0c2c 51       		.byte	0x51
 3249 0c2d 03       		.uleb128 0x3
 3250 0c2e 0A       		.byte	0xa
 3251 0c2f 0004     		.2byte	0x400
 3252 0c31 16       		.uleb128 0x16
 3253 0c32 01       		.uleb128 0x1
 3254 0c33 52       		.byte	0x52
 3255 0c34 03       		.uleb128 0x3
 3256 0c35 0A       		.byte	0xa
 3257 0c36 2003     		.2byte	0x320
 3258 0c38 16       		.uleb128 0x16
 3259 0c39 01       		.uleb128 0x1
 3260 0c3a 53       		.byte	0x53
 3261 0c3b 03       		.uleb128 0x3
 3262 0c3c 0A       		.byte	0xa
 3263 0c3d F401     		.2byte	0x1f4
 3264 0c3f 16       		.uleb128 0x16
 3265 0c40 02       		.uleb128 0x2
 3266 0c41 7D       		.byte	0x7d
 3267 0c42 00       		.sleb128 0
 3268 0c43 01       		.uleb128 0x1
 3269 0c44 30       		.byte	0x30
 3270 0c45 00       		.byte	0
 3271 0c46 00       		.byte	0
 3272 0c47 27       		.uleb128 0x27
 3273 0c48 ED020000 		.4byte	.LASF93
 3274 0c4c 01       		.byte	0x1
 3275 0c4d 4E01     		.2byte	0x14e
 3276 0c4f AD000000 		.4byte	0xad
 3277 0c53 00000000 		.4byte	.LFB62
 3278 0c57 10000000 		.4byte	.LFE62-.LFB62
 3279 0c5b 01       		.uleb128 0x1
 3280 0c5c 9C       		.byte	0x9c
 3281 0c5d 700C0000 		.4byte	0xc70
 3282 0c61 12       		.uleb128 0x12
 3283 0c62 6100     		.ascii	"a\000"
 3284 0c64 01       		.byte	0x1
 3285 0c65 4E01     		.2byte	0x14e
ARM GAS  C:\Users\haske\AppData\Local\Temp\cceAapTu.s 			page 71


 3286 0c67 AF050000 		.4byte	0x5af
 3287 0c6b 87070000 		.4byte	.LLST46
 3288 0c6f 00       		.byte	0
 3289 0c70 20       		.uleb128 0x20
 3290 0c71 40040000 		.4byte	.LASF94
 3291 0c75 01       		.byte	0x1
 3292 0c76 26       		.byte	0x26
 3293 0c77 B8000000 		.4byte	0xb8
 3294 0c7b 05       		.uleb128 0x5
 3295 0c7c 03       		.byte	0x3
 3296 0c7d 08000000 		.4byte	last_timer_run
 3297 0c81 20       		.uleb128 0x20
 3298 0c82 07020000 		.4byte	.LASF95
 3299 0c86 01       		.byte	0x1
 3300 0c87 27       		.byte	0x27
 3301 0c88 6C030000 		.4byte	0x36c
 3302 0c8c 05       		.uleb128 0x5
 3303 0c8d 03       		.byte	0x3
 3304 0c8e 00000000 		.4byte	anim_list_changed
 3305 0c92 20       		.uleb128 0x20
 3306 0c93 F5030000 		.4byte	.LASF96
 3307 0c97 01       		.byte	0x1
 3308 0c98 28       		.byte	0x28
 3309 0c99 6C030000 		.4byte	0x36c
 3310 0c9d 05       		.uleb128 0x5
 3311 0c9e 03       		.byte	0x3
 3312 0c9f 0C000000 		.4byte	anim_run_round
 3313 0ca3 20       		.uleb128 0x20
 3314 0ca4 52010000 		.4byte	.LASF97
 3315 0ca8 01       		.byte	0x1
 3316 0ca9 29       		.byte	0x29
 3317 0caa 4A050000 		.4byte	0x54a
 3318 0cae 05       		.uleb128 0x5
 3319 0caf 03       		.byte	0x3
 3320 0cb0 04000000 		.4byte	_lv_anim_tmr
 3321 0cb4 29       		.uleb128 0x29
 3322 0cb5 69010000 		.4byte	.LASF119
 3323 0cb9 0A       		.byte	0xa
 3324 0cba 4C       		.byte	0x4c
 3325 0cbb 61030000 		.4byte	0x361
 3326 0cbf 2A       		.uleb128 0x2a
 3327 0cc0 93040000 		.4byte	.LASF98
 3328 0cc4 93040000 		.4byte	.LASF98
 3329 0cc8 06       		.byte	0x6
 3330 0cc9 64       		.byte	0x64
 3331 0cca 2A       		.uleb128 0x2a
 3332 0ccb D9050000 		.4byte	.LASF99
 3333 0ccf D9050000 		.4byte	.LASF99
 3334 0cd3 05       		.byte	0x5
 3335 0cd4 76       		.byte	0x76
 3336 0cd5 2A       		.uleb128 0x2a
 3337 0cd6 D6060000 		.4byte	.LASF100
 3338 0cda D6060000 		.4byte	.LASF100
 3339 0cde 05       		.byte	0x5
 3340 0cdf 78       		.byte	0x78
 3341 0ce0 2A       		.uleb128 0x2a
 3342 0ce1 08000000 		.4byte	.LASF101
ARM GAS  C:\Users\haske\AppData\Local\Temp\cceAapTu.s 			page 72


 3343 0ce5 08000000 		.4byte	.LASF101
 3344 0ce9 06       		.byte	0x6
 3345 0cea 4D       		.byte	0x4d
 3346 0ceb 2A       		.uleb128 0x2a
 3347 0cec 7E060000 		.4byte	.LASF102
 3348 0cf0 7E060000 		.4byte	.LASF102
 3349 0cf4 07       		.byte	0x7
 3350 0cf5 50       		.byte	0x50
 3351 0cf6 2A       		.uleb128 0x2a
 3352 0cf7 71030000 		.4byte	.LASF103
 3353 0cfb 71030000 		.4byte	.LASF103
 3354 0cff 08       		.byte	0x8
 3355 0d00 3B       		.byte	0x3b
 3356 0d01 2A       		.uleb128 0x2a
 3357 0d02 76040000 		.4byte	.LASF104
 3358 0d06 76040000 		.4byte	.LASF104
 3359 0d0a 06       		.byte	0x6
 3360 0d0b 73       		.byte	0x73
 3361 0d0c 2A       		.uleb128 0x2a
 3362 0d0d 2F000000 		.4byte	.LASF105
 3363 0d11 2F000000 		.4byte	.LASF105
 3364 0d15 08       		.byte	0x8
 3365 0d16 34       		.byte	0x34
 3366 0d17 2A       		.uleb128 0x2a
 3367 0d18 30020000 		.4byte	.LASF106
 3368 0d1c 30020000 		.4byte	.LASF106
 3369 0d20 09       		.byte	0x9
 3370 0d21 6C       		.byte	0x6c
 3371 0d22 2A       		.uleb128 0x2a
 3372 0d23 51000000 		.4byte	.LASF107
 3373 0d27 51000000 		.4byte	.LASF107
 3374 0d2b 06       		.byte	0x6
 3375 0d2c 2F       		.byte	0x2f
 3376 0d2d 2A       		.uleb128 0x2a
 3377 0d2e 62020000 		.4byte	.LASF108
 3378 0d32 62020000 		.4byte	.LASF108
 3379 0d36 05       		.byte	0x5
 3380 0d37 6A       		.byte	0x6a
 3381 0d38 2A       		.uleb128 0x2a
 3382 0d39 11010000 		.4byte	.LASF109
 3383 0d3d 11010000 		.4byte	.LASF109
 3384 0d41 07       		.byte	0x7
 3385 0d42 DE       		.byte	0xde
 3386 0d43 2A       		.uleb128 0x2a
 3387 0d44 E8050000 		.4byte	.LASF110
 3388 0d48 E8050000 		.4byte	.LASF110
 3389 0d4c 06       		.byte	0x6
 3390 0d4d 99       		.byte	0x99
 3391 0d4e 2A       		.uleb128 0x2a
 3392 0d4f 25050000 		.4byte	.LASF111
 3393 0d53 25050000 		.4byte	.LASF111
 3394 0d57 06       		.byte	0x6
 3395 0d58 36       		.byte	0x36
 3396 0d59 2A       		.uleb128 0x2a
 3397 0d5a 5F010000 		.4byte	.LASF112
 3398 0d5e 5F010000 		.4byte	.LASF112
 3399 0d62 07       		.byte	0x7
ARM GAS  C:\Users\haske\AppData\Local\Temp\cceAapTu.s 			page 73


 3400 0d63 BA       		.byte	0xba
 3401 0d64 2A       		.uleb128 0x2a
 3402 0d65 72020000 		.4byte	.LASF113
 3403 0d69 72020000 		.4byte	.LASF113
 3404 0d6d 06       		.byte	0x6
 3405 0d6e 53       		.byte	0x53
 3406 0d6f 2A       		.uleb128 0x2a
 3407 0d70 D5040000 		.4byte	.LASF114
 3408 0d74 D5040000 		.4byte	.LASF114
 3409 0d78 09       		.byte	0x9
 3410 0d79 41       		.byte	0x41
 3411 0d7a 00       		.byte	0
 3412              		.section	.debug_abbrev,"",%progbits
 3413              	.Ldebug_abbrev0:
 3414 0000 01       		.uleb128 0x1
 3415 0001 11       		.uleb128 0x11
 3416 0002 01       		.byte	0x1
 3417 0003 25       		.uleb128 0x25
 3418 0004 0E       		.uleb128 0xe
 3419 0005 13       		.uleb128 0x13
 3420 0006 0B       		.uleb128 0xb
 3421 0007 03       		.uleb128 0x3
 3422 0008 0E       		.uleb128 0xe
 3423 0009 1B       		.uleb128 0x1b
 3424 000a 0E       		.uleb128 0xe
 3425 000b 55       		.uleb128 0x55
 3426 000c 17       		.uleb128 0x17
 3427 000d 11       		.uleb128 0x11
 3428 000e 01       		.uleb128 0x1
 3429 000f 10       		.uleb128 0x10
 3430 0010 17       		.uleb128 0x17
 3431 0011 00       		.byte	0
 3432 0012 00       		.byte	0
 3433 0013 02       		.uleb128 0x2
 3434 0014 24       		.uleb128 0x24
 3435 0015 00       		.byte	0
 3436 0016 0B       		.uleb128 0xb
 3437 0017 0B       		.uleb128 0xb
 3438 0018 3E       		.uleb128 0x3e
 3439 0019 0B       		.uleb128 0xb
 3440 001a 03       		.uleb128 0x3
 3441 001b 0E       		.uleb128 0xe
 3442 001c 00       		.byte	0
 3443 001d 00       		.byte	0
 3444 001e 03       		.uleb128 0x3
 3445 001f 16       		.uleb128 0x16
 3446 0020 00       		.byte	0
 3447 0021 03       		.uleb128 0x3
 3448 0022 0E       		.uleb128 0xe
 3449 0023 3A       		.uleb128 0x3a
 3450 0024 0B       		.uleb128 0xb
 3451 0025 3B       		.uleb128 0x3b
 3452 0026 0B       		.uleb128 0xb
 3453 0027 49       		.uleb128 0x49
 3454 0028 13       		.uleb128 0x13
 3455 0029 00       		.byte	0
 3456 002a 00       		.byte	0
ARM GAS  C:\Users\haske\AppData\Local\Temp\cceAapTu.s 			page 74


 3457 002b 04       		.uleb128 0x4
 3458 002c 24       		.uleb128 0x24
 3459 002d 00       		.byte	0
 3460 002e 0B       		.uleb128 0xb
 3461 002f 0B       		.uleb128 0xb
 3462 0030 3E       		.uleb128 0x3e
 3463 0031 0B       		.uleb128 0xb
 3464 0032 03       		.uleb128 0x3
 3465 0033 08       		.uleb128 0x8
 3466 0034 00       		.byte	0
 3467 0035 00       		.byte	0
 3468 0036 05       		.uleb128 0x5
 3469 0037 0F       		.uleb128 0xf
 3470 0038 00       		.byte	0
 3471 0039 0B       		.uleb128 0xb
 3472 003a 0B       		.uleb128 0xb
 3473 003b 49       		.uleb128 0x49
 3474 003c 13       		.uleb128 0x13
 3475 003d 00       		.byte	0
 3476 003e 00       		.byte	0
 3477 003f 06       		.uleb128 0x6
 3478 0040 15       		.uleb128 0x15
 3479 0041 01       		.byte	0x1
 3480 0042 27       		.uleb128 0x27
 3481 0043 19       		.uleb128 0x19
 3482 0044 49       		.uleb128 0x49
 3483 0045 13       		.uleb128 0x13
 3484 0046 01       		.uleb128 0x1
 3485 0047 13       		.uleb128 0x13
 3486 0048 00       		.byte	0
 3487 0049 00       		.byte	0
 3488 004a 07       		.uleb128 0x7
 3489 004b 05       		.uleb128 0x5
 3490 004c 00       		.byte	0
 3491 004d 49       		.uleb128 0x49
 3492 004e 13       		.uleb128 0x13
 3493 004f 00       		.byte	0
 3494 0050 00       		.byte	0
 3495 0051 08       		.uleb128 0x8
 3496 0052 13       		.uleb128 0x13
 3497 0053 01       		.byte	0x1
 3498 0054 03       		.uleb128 0x3
 3499 0055 0E       		.uleb128 0xe
 3500 0056 0B       		.uleb128 0xb
 3501 0057 0B       		.uleb128 0xb
 3502 0058 3A       		.uleb128 0x3a
 3503 0059 0B       		.uleb128 0xb
 3504 005a 3B       		.uleb128 0x3b
 3505 005b 0B       		.uleb128 0xb
 3506 005c 01       		.uleb128 0x1
 3507 005d 13       		.uleb128 0x13
 3508 005e 00       		.byte	0
 3509 005f 00       		.byte	0
 3510 0060 09       		.uleb128 0x9
 3511 0061 0D       		.uleb128 0xd
 3512 0062 00       		.byte	0
 3513 0063 03       		.uleb128 0x3
ARM GAS  C:\Users\haske\AppData\Local\Temp\cceAapTu.s 			page 75


 3514 0064 08       		.uleb128 0x8
 3515 0065 3A       		.uleb128 0x3a
 3516 0066 0B       		.uleb128 0xb
 3517 0067 3B       		.uleb128 0x3b
 3518 0068 0B       		.uleb128 0xb
 3519 0069 49       		.uleb128 0x49
 3520 006a 13       		.uleb128 0x13
 3521 006b 38       		.uleb128 0x38
 3522 006c 0B       		.uleb128 0xb
 3523 006d 00       		.byte	0
 3524 006e 00       		.byte	0
 3525 006f 0A       		.uleb128 0xa
 3526 0070 0D       		.uleb128 0xd
 3527 0071 00       		.byte	0
 3528 0072 03       		.uleb128 0x3
 3529 0073 0E       		.uleb128 0xe
 3530 0074 3A       		.uleb128 0x3a
 3531 0075 0B       		.uleb128 0xb
 3532 0076 3B       		.uleb128 0x3b
 3533 0077 0B       		.uleb128 0xb
 3534 0078 49       		.uleb128 0x49
 3535 0079 13       		.uleb128 0x13
 3536 007a 38       		.uleb128 0x38
 3537 007b 0B       		.uleb128 0xb
 3538 007c 00       		.byte	0
 3539 007d 00       		.byte	0
 3540 007e 0B       		.uleb128 0xb
 3541 007f 0D       		.uleb128 0xd
 3542 0080 00       		.byte	0
 3543 0081 03       		.uleb128 0x3
 3544 0082 0E       		.uleb128 0xe
 3545 0083 3A       		.uleb128 0x3a
 3546 0084 0B       		.uleb128 0xb
 3547 0085 3B       		.uleb128 0x3b
 3548 0086 0B       		.uleb128 0xb
 3549 0087 49       		.uleb128 0x49
 3550 0088 13       		.uleb128 0x13
 3551 0089 0B       		.uleb128 0xb
 3552 008a 0B       		.uleb128 0xb
 3553 008b 0D       		.uleb128 0xd
 3554 008c 0B       		.uleb128 0xb
 3555 008d 0C       		.uleb128 0xc
 3556 008e 0B       		.uleb128 0xb
 3557 008f 38       		.uleb128 0x38
 3558 0090 0B       		.uleb128 0xb
 3559 0091 00       		.byte	0
 3560 0092 00       		.byte	0
 3561 0093 0C       		.uleb128 0xc
 3562 0094 26       		.uleb128 0x26
 3563 0095 00       		.byte	0
 3564 0096 49       		.uleb128 0x49
 3565 0097 13       		.uleb128 0x13
 3566 0098 00       		.byte	0
 3567 0099 00       		.byte	0
 3568 009a 0D       		.uleb128 0xd
 3569 009b 15       		.uleb128 0x15
 3570 009c 01       		.byte	0x1
ARM GAS  C:\Users\haske\AppData\Local\Temp\cceAapTu.s 			page 76


 3571 009d 27       		.uleb128 0x27
 3572 009e 19       		.uleb128 0x19
 3573 009f 01       		.uleb128 0x1
 3574 00a0 13       		.uleb128 0x13
 3575 00a1 00       		.byte	0
 3576 00a2 00       		.byte	0
 3577 00a3 0E       		.uleb128 0xe
 3578 00a4 0F       		.uleb128 0xf
 3579 00a5 00       		.byte	0
 3580 00a6 0B       		.uleb128 0xb
 3581 00a7 0B       		.uleb128 0xb
 3582 00a8 00       		.byte	0
 3583 00a9 00       		.byte	0
 3584 00aa 0F       		.uleb128 0xf
 3585 00ab 13       		.uleb128 0x13
 3586 00ac 01       		.byte	0x1
 3587 00ad 0B       		.uleb128 0xb
 3588 00ae 0B       		.uleb128 0xb
 3589 00af 3A       		.uleb128 0x3a
 3590 00b0 0B       		.uleb128 0xb
 3591 00b1 3B       		.uleb128 0x3b
 3592 00b2 0B       		.uleb128 0xb
 3593 00b3 01       		.uleb128 0x1
 3594 00b4 13       		.uleb128 0x13
 3595 00b5 00       		.byte	0
 3596 00b6 00       		.byte	0
 3597 00b7 10       		.uleb128 0x10
 3598 00b8 2E       		.uleb128 0x2e
 3599 00b9 01       		.byte	0x1
 3600 00ba 03       		.uleb128 0x3
 3601 00bb 0E       		.uleb128 0xe
 3602 00bc 3A       		.uleb128 0x3a
 3603 00bd 0B       		.uleb128 0xb
 3604 00be 3B       		.uleb128 0x3b
 3605 00bf 05       		.uleb128 0x5
 3606 00c0 27       		.uleb128 0x27
 3607 00c1 19       		.uleb128 0x19
 3608 00c2 11       		.uleb128 0x11
 3609 00c3 01       		.uleb128 0x1
 3610 00c4 12       		.uleb128 0x12
 3611 00c5 06       		.uleb128 0x6
 3612 00c6 40       		.uleb128 0x40
 3613 00c7 18       		.uleb128 0x18
 3614 00c8 9742     		.uleb128 0x2117
 3615 00ca 19       		.uleb128 0x19
 3616 00cb 01       		.uleb128 0x1
 3617 00cc 13       		.uleb128 0x13
 3618 00cd 00       		.byte	0
 3619 00ce 00       		.byte	0
 3620 00cf 11       		.uleb128 0x11
 3621 00d0 898201   		.uleb128 0x4109
 3622 00d3 00       		.byte	0
 3623 00d4 11       		.uleb128 0x11
 3624 00d5 01       		.uleb128 0x1
 3625 00d6 31       		.uleb128 0x31
 3626 00d7 13       		.uleb128 0x13
 3627 00d8 00       		.byte	0
ARM GAS  C:\Users\haske\AppData\Local\Temp\cceAapTu.s 			page 77


 3628 00d9 00       		.byte	0
 3629 00da 12       		.uleb128 0x12
 3630 00db 05       		.uleb128 0x5
 3631 00dc 00       		.byte	0
 3632 00dd 03       		.uleb128 0x3
 3633 00de 08       		.uleb128 0x8
 3634 00df 3A       		.uleb128 0x3a
 3635 00e0 0B       		.uleb128 0xb
 3636 00e1 3B       		.uleb128 0x3b
 3637 00e2 05       		.uleb128 0x5
 3638 00e3 49       		.uleb128 0x49
 3639 00e4 13       		.uleb128 0x13
 3640 00e5 02       		.uleb128 0x2
 3641 00e6 17       		.uleb128 0x17
 3642 00e7 00       		.byte	0
 3643 00e8 00       		.byte	0
 3644 00e9 13       		.uleb128 0x13
 3645 00ea 0B       		.uleb128 0xb
 3646 00eb 01       		.byte	0x1
 3647 00ec 11       		.uleb128 0x11
 3648 00ed 01       		.uleb128 0x1
 3649 00ee 12       		.uleb128 0x12
 3650 00ef 06       		.uleb128 0x6
 3651 00f0 01       		.uleb128 0x1
 3652 00f1 13       		.uleb128 0x13
 3653 00f2 00       		.byte	0
 3654 00f3 00       		.byte	0
 3655 00f4 14       		.uleb128 0x14
 3656 00f5 34       		.uleb128 0x34
 3657 00f6 00       		.byte	0
 3658 00f7 03       		.uleb128 0x3
 3659 00f8 08       		.uleb128 0x8
 3660 00f9 3A       		.uleb128 0x3a
 3661 00fa 0B       		.uleb128 0xb
 3662 00fb 3B       		.uleb128 0x3b
 3663 00fc 05       		.uleb128 0x5
 3664 00fd 49       		.uleb128 0x49
 3665 00fe 13       		.uleb128 0x13
 3666 00ff 02       		.uleb128 0x2
 3667 0100 17       		.uleb128 0x17
 3668 0101 00       		.byte	0
 3669 0102 00       		.byte	0
 3670 0103 15       		.uleb128 0x15
 3671 0104 898201   		.uleb128 0x4109
 3672 0107 01       		.byte	0x1
 3673 0108 11       		.uleb128 0x11
 3674 0109 01       		.uleb128 0x1
 3675 010a 31       		.uleb128 0x31
 3676 010b 13       		.uleb128 0x13
 3677 010c 01       		.uleb128 0x1
 3678 010d 13       		.uleb128 0x13
 3679 010e 00       		.byte	0
 3680 010f 00       		.byte	0
 3681 0110 16       		.uleb128 0x16
 3682 0111 8A8201   		.uleb128 0x410a
 3683 0114 00       		.byte	0
 3684 0115 02       		.uleb128 0x2
ARM GAS  C:\Users\haske\AppData\Local\Temp\cceAapTu.s 			page 78


 3685 0116 18       		.uleb128 0x18
 3686 0117 9142     		.uleb128 0x2111
 3687 0119 18       		.uleb128 0x18
 3688 011a 00       		.byte	0
 3689 011b 00       		.byte	0
 3690 011c 17       		.uleb128 0x17
 3691 011d 898201   		.uleb128 0x4109
 3692 0120 01       		.byte	0x1
 3693 0121 11       		.uleb128 0x11
 3694 0122 01       		.uleb128 0x1
 3695 0123 01       		.uleb128 0x1
 3696 0124 13       		.uleb128 0x13
 3697 0125 00       		.byte	0
 3698 0126 00       		.byte	0
 3699 0127 18       		.uleb128 0x18
 3700 0128 898201   		.uleb128 0x4109
 3701 012b 01       		.byte	0x1
 3702 012c 11       		.uleb128 0x11
 3703 012d 01       		.uleb128 0x1
 3704 012e 31       		.uleb128 0x31
 3705 012f 13       		.uleb128 0x13
 3706 0130 00       		.byte	0
 3707 0131 00       		.byte	0
 3708 0132 19       		.uleb128 0x19
 3709 0133 2E       		.uleb128 0x2e
 3710 0134 01       		.byte	0x1
 3711 0135 03       		.uleb128 0x3
 3712 0136 0E       		.uleb128 0xe
 3713 0137 3A       		.uleb128 0x3a
 3714 0138 0B       		.uleb128 0xb
 3715 0139 3B       		.uleb128 0x3b
 3716 013a 05       		.uleb128 0x5
 3717 013b 27       		.uleb128 0x27
 3718 013c 19       		.uleb128 0x19
 3719 013d 11       		.uleb128 0x11
 3720 013e 01       		.uleb128 0x1
 3721 013f 12       		.uleb128 0x12
 3722 0140 06       		.uleb128 0x6
 3723 0141 40       		.uleb128 0x40
 3724 0142 18       		.uleb128 0x18
 3725 0143 9642     		.uleb128 0x2116
 3726 0145 19       		.uleb128 0x19
 3727 0146 01       		.uleb128 0x1
 3728 0147 13       		.uleb128 0x13
 3729 0148 00       		.byte	0
 3730 0149 00       		.byte	0
 3731 014a 1A       		.uleb128 0x1a
 3732 014b 05       		.uleb128 0x5
 3733 014c 00       		.byte	0
 3734 014d 03       		.uleb128 0x3
 3735 014e 0E       		.uleb128 0xe
 3736 014f 3A       		.uleb128 0x3a
 3737 0150 0B       		.uleb128 0xb
 3738 0151 3B       		.uleb128 0x3b
 3739 0152 05       		.uleb128 0x5
 3740 0153 49       		.uleb128 0x49
 3741 0154 13       		.uleb128 0x13
ARM GAS  C:\Users\haske\AppData\Local\Temp\cceAapTu.s 			page 79


 3742 0155 02       		.uleb128 0x2
 3743 0156 17       		.uleb128 0x17
 3744 0157 00       		.byte	0
 3745 0158 00       		.byte	0
 3746 0159 1B       		.uleb128 0x1b
 3747 015a 34       		.uleb128 0x34
 3748 015b 00       		.byte	0
 3749 015c 03       		.uleb128 0x3
 3750 015d 0E       		.uleb128 0xe
 3751 015e 3A       		.uleb128 0x3a
 3752 015f 0B       		.uleb128 0xb
 3753 0160 3B       		.uleb128 0x3b
 3754 0161 05       		.uleb128 0x5
 3755 0162 49       		.uleb128 0x49
 3756 0163 13       		.uleb128 0x13
 3757 0164 02       		.uleb128 0x2
 3758 0165 17       		.uleb128 0x17
 3759 0166 00       		.byte	0
 3760 0167 00       		.byte	0
 3761 0168 1C       		.uleb128 0x1c
 3762 0169 898201   		.uleb128 0x4109
 3763 016c 01       		.byte	0x1
 3764 016d 11       		.uleb128 0x11
 3765 016e 01       		.uleb128 0x1
 3766 016f 00       		.byte	0
 3767 0170 00       		.byte	0
 3768 0171 1D       		.uleb128 0x1d
 3769 0172 2E       		.uleb128 0x2e
 3770 0173 01       		.byte	0x1
 3771 0174 3F       		.uleb128 0x3f
 3772 0175 19       		.uleb128 0x19
 3773 0176 03       		.uleb128 0x3
 3774 0177 0E       		.uleb128 0xe
 3775 0178 3A       		.uleb128 0x3a
 3776 0179 0B       		.uleb128 0xb
 3777 017a 3B       		.uleb128 0x3b
 3778 017b 0B       		.uleb128 0xb
 3779 017c 27       		.uleb128 0x27
 3780 017d 19       		.uleb128 0x19
 3781 017e 49       		.uleb128 0x49
 3782 017f 13       		.uleb128 0x13
 3783 0180 11       		.uleb128 0x11
 3784 0181 01       		.uleb128 0x1
 3785 0182 12       		.uleb128 0x12
 3786 0183 06       		.uleb128 0x6
 3787 0184 40       		.uleb128 0x40
 3788 0185 18       		.uleb128 0x18
 3789 0186 9742     		.uleb128 0x2117
 3790 0188 19       		.uleb128 0x19
 3791 0189 01       		.uleb128 0x1
 3792 018a 13       		.uleb128 0x13
 3793 018b 00       		.byte	0
 3794 018c 00       		.byte	0
 3795 018d 1E       		.uleb128 0x1e
 3796 018e 05       		.uleb128 0x5
 3797 018f 00       		.byte	0
 3798 0190 03       		.uleb128 0x3
ARM GAS  C:\Users\haske\AppData\Local\Temp\cceAapTu.s 			page 80


 3799 0191 08       		.uleb128 0x8
 3800 0192 3A       		.uleb128 0x3a
 3801 0193 0B       		.uleb128 0xb
 3802 0194 3B       		.uleb128 0x3b
 3803 0195 0B       		.uleb128 0xb
 3804 0196 49       		.uleb128 0x49
 3805 0197 13       		.uleb128 0x13
 3806 0198 02       		.uleb128 0x2
 3807 0199 17       		.uleb128 0x17
 3808 019a 00       		.byte	0
 3809 019b 00       		.byte	0
 3810 019c 1F       		.uleb128 0x1f
 3811 019d 34       		.uleb128 0x34
 3812 019e 00       		.byte	0
 3813 019f 03       		.uleb128 0x3
 3814 01a0 0E       		.uleb128 0xe
 3815 01a1 3A       		.uleb128 0x3a
 3816 01a2 0B       		.uleb128 0xb
 3817 01a3 3B       		.uleb128 0x3b
 3818 01a4 0B       		.uleb128 0xb
 3819 01a5 49       		.uleb128 0x49
 3820 01a6 13       		.uleb128 0x13
 3821 01a7 02       		.uleb128 0x2
 3822 01a8 17       		.uleb128 0x17
 3823 01a9 00       		.byte	0
 3824 01aa 00       		.byte	0
 3825 01ab 20       		.uleb128 0x20
 3826 01ac 34       		.uleb128 0x34
 3827 01ad 00       		.byte	0
 3828 01ae 03       		.uleb128 0x3
 3829 01af 0E       		.uleb128 0xe
 3830 01b0 3A       		.uleb128 0x3a
 3831 01b1 0B       		.uleb128 0xb
 3832 01b2 3B       		.uleb128 0x3b
 3833 01b3 0B       		.uleb128 0xb
 3834 01b4 49       		.uleb128 0x49
 3835 01b5 13       		.uleb128 0x13
 3836 01b6 02       		.uleb128 0x2
 3837 01b7 18       		.uleb128 0x18
 3838 01b8 00       		.byte	0
 3839 01b9 00       		.byte	0
 3840 01ba 21       		.uleb128 0x21
 3841 01bb 2E       		.uleb128 0x2e
 3842 01bc 01       		.byte	0x1
 3843 01bd 3F       		.uleb128 0x3f
 3844 01be 19       		.uleb128 0x19
 3845 01bf 03       		.uleb128 0x3
 3846 01c0 0E       		.uleb128 0xe
 3847 01c1 3A       		.uleb128 0x3a
 3848 01c2 0B       		.uleb128 0xb
 3849 01c3 3B       		.uleb128 0x3b
 3850 01c4 0B       		.uleb128 0xb
 3851 01c5 27       		.uleb128 0x27
 3852 01c6 19       		.uleb128 0x19
 3853 01c7 11       		.uleb128 0x11
 3854 01c8 01       		.uleb128 0x1
 3855 01c9 12       		.uleb128 0x12
ARM GAS  C:\Users\haske\AppData\Local\Temp\cceAapTu.s 			page 81


 3856 01ca 06       		.uleb128 0x6
 3857 01cb 40       		.uleb128 0x40
 3858 01cc 18       		.uleb128 0x18
 3859 01cd 9742     		.uleb128 0x2117
 3860 01cf 19       		.uleb128 0x19
 3861 01d0 01       		.uleb128 0x1
 3862 01d1 13       		.uleb128 0x13
 3863 01d2 00       		.byte	0
 3864 01d3 00       		.byte	0
 3865 01d4 22       		.uleb128 0x22
 3866 01d5 05       		.uleb128 0x5
 3867 01d6 00       		.byte	0
 3868 01d7 03       		.uleb128 0x3
 3869 01d8 0E       		.uleb128 0xe
 3870 01d9 3A       		.uleb128 0x3a
 3871 01da 0B       		.uleb128 0xb
 3872 01db 3B       		.uleb128 0x3b
 3873 01dc 0B       		.uleb128 0xb
 3874 01dd 49       		.uleb128 0x49
 3875 01de 13       		.uleb128 0x13
 3876 01df 02       		.uleb128 0x2
 3877 01e0 17       		.uleb128 0x17
 3878 01e1 00       		.byte	0
 3879 01e2 00       		.byte	0
 3880 01e3 23       		.uleb128 0x23
 3881 01e4 34       		.uleb128 0x34
 3882 01e5 00       		.byte	0
 3883 01e6 03       		.uleb128 0x3
 3884 01e7 08       		.uleb128 0x8
 3885 01e8 3A       		.uleb128 0x3a
 3886 01e9 0B       		.uleb128 0xb
 3887 01ea 3B       		.uleb128 0x3b
 3888 01eb 0B       		.uleb128 0xb
 3889 01ec 49       		.uleb128 0x49
 3890 01ed 13       		.uleb128 0x13
 3891 01ee 02       		.uleb128 0x2
 3892 01ef 17       		.uleb128 0x17
 3893 01f0 00       		.byte	0
 3894 01f1 00       		.byte	0
 3895 01f2 24       		.uleb128 0x24
 3896 01f3 2E       		.uleb128 0x2e
 3897 01f4 01       		.byte	0x1
 3898 01f5 3F       		.uleb128 0x3f
 3899 01f6 19       		.uleb128 0x19
 3900 01f7 03       		.uleb128 0x3
 3901 01f8 0E       		.uleb128 0xe
 3902 01f9 3A       		.uleb128 0x3a
 3903 01fa 0B       		.uleb128 0xb
 3904 01fb 3B       		.uleb128 0x3b
 3905 01fc 0B       		.uleb128 0xb
 3906 01fd 27       		.uleb128 0x27
 3907 01fe 19       		.uleb128 0x19
 3908 01ff 49       		.uleb128 0x49
 3909 0200 13       		.uleb128 0x13
 3910 0201 11       		.uleb128 0x11
 3911 0202 01       		.uleb128 0x1
 3912 0203 12       		.uleb128 0x12
ARM GAS  C:\Users\haske\AppData\Local\Temp\cceAapTu.s 			page 82


 3913 0204 06       		.uleb128 0x6
 3914 0205 40       		.uleb128 0x40
 3915 0206 18       		.uleb128 0x18
 3916 0207 9642     		.uleb128 0x2116
 3917 0209 19       		.uleb128 0x19
 3918 020a 01       		.uleb128 0x1
 3919 020b 13       		.uleb128 0x13
 3920 020c 00       		.byte	0
 3921 020d 00       		.byte	0
 3922 020e 25       		.uleb128 0x25
 3923 020f 2E       		.uleb128 0x2e
 3924 0210 00       		.byte	0
 3925 0211 3F       		.uleb128 0x3f
 3926 0212 19       		.uleb128 0x19
 3927 0213 03       		.uleb128 0x3
 3928 0214 0E       		.uleb128 0xe
 3929 0215 3A       		.uleb128 0x3a
 3930 0216 0B       		.uleb128 0xb
 3931 0217 3B       		.uleb128 0x3b
 3932 0218 0B       		.uleb128 0xb
 3933 0219 27       		.uleb128 0x27
 3934 021a 19       		.uleb128 0x19
 3935 021b 49       		.uleb128 0x49
 3936 021c 13       		.uleb128 0x13
 3937 021d 11       		.uleb128 0x11
 3938 021e 01       		.uleb128 0x1
 3939 021f 12       		.uleb128 0x12
 3940 0220 06       		.uleb128 0x6
 3941 0221 40       		.uleb128 0x40
 3942 0222 18       		.uleb128 0x18
 3943 0223 9742     		.uleb128 0x2117
 3944 0225 19       		.uleb128 0x19
 3945 0226 00       		.byte	0
 3946 0227 00       		.byte	0
 3947 0228 26       		.uleb128 0x26
 3948 0229 34       		.uleb128 0x34
 3949 022a 00       		.byte	0
 3950 022b 03       		.uleb128 0x3
 3951 022c 0E       		.uleb128 0xe
 3952 022d 3A       		.uleb128 0x3a
 3953 022e 0B       		.uleb128 0xb
 3954 022f 3B       		.uleb128 0x3b
 3955 0230 05       		.uleb128 0x5
 3956 0231 49       		.uleb128 0x49
 3957 0232 13       		.uleb128 0x13
 3958 0233 02       		.uleb128 0x2
 3959 0234 18       		.uleb128 0x18
 3960 0235 00       		.byte	0
 3961 0236 00       		.byte	0
 3962 0237 27       		.uleb128 0x27
 3963 0238 2E       		.uleb128 0x2e
 3964 0239 01       		.byte	0x1
 3965 023a 3F       		.uleb128 0x3f
 3966 023b 19       		.uleb128 0x19
 3967 023c 03       		.uleb128 0x3
 3968 023d 0E       		.uleb128 0xe
 3969 023e 3A       		.uleb128 0x3a
ARM GAS  C:\Users\haske\AppData\Local\Temp\cceAapTu.s 			page 83


 3970 023f 0B       		.uleb128 0xb
 3971 0240 3B       		.uleb128 0x3b
 3972 0241 05       		.uleb128 0x5
 3973 0242 27       		.uleb128 0x27
 3974 0243 19       		.uleb128 0x19
 3975 0244 49       		.uleb128 0x49
 3976 0245 13       		.uleb128 0x13
 3977 0246 11       		.uleb128 0x11
 3978 0247 01       		.uleb128 0x1
 3979 0248 12       		.uleb128 0x12
 3980 0249 06       		.uleb128 0x6
 3981 024a 40       		.uleb128 0x40
 3982 024b 18       		.uleb128 0x18
 3983 024c 9742     		.uleb128 0x2117
 3984 024e 19       		.uleb128 0x19
 3985 024f 01       		.uleb128 0x1
 3986 0250 13       		.uleb128 0x13
 3987 0251 00       		.byte	0
 3988 0252 00       		.byte	0
 3989 0253 28       		.uleb128 0x28
 3990 0254 2E       		.uleb128 0x2e
 3991 0255 01       		.byte	0x1
 3992 0256 3F       		.uleb128 0x3f
 3993 0257 19       		.uleb128 0x19
 3994 0258 03       		.uleb128 0x3
 3995 0259 0E       		.uleb128 0xe
 3996 025a 3A       		.uleb128 0x3a
 3997 025b 0B       		.uleb128 0xb
 3998 025c 3B       		.uleb128 0x3b
 3999 025d 05       		.uleb128 0x5
 4000 025e 27       		.uleb128 0x27
 4001 025f 19       		.uleb128 0x19
 4002 0260 49       		.uleb128 0x49
 4003 0261 13       		.uleb128 0x13
 4004 0262 11       		.uleb128 0x11
 4005 0263 01       		.uleb128 0x1
 4006 0264 12       		.uleb128 0x12
 4007 0265 06       		.uleb128 0x6
 4008 0266 40       		.uleb128 0x40
 4009 0267 18       		.uleb128 0x18
 4010 0268 9642     		.uleb128 0x2116
 4011 026a 19       		.uleb128 0x19
 4012 026b 01       		.uleb128 0x1
 4013 026c 13       		.uleb128 0x13
 4014 026d 00       		.byte	0
 4015 026e 00       		.byte	0
 4016 026f 29       		.uleb128 0x29
 4017 0270 34       		.uleb128 0x34
 4018 0271 00       		.byte	0
 4019 0272 03       		.uleb128 0x3
 4020 0273 0E       		.uleb128 0xe
 4021 0274 3A       		.uleb128 0x3a
 4022 0275 0B       		.uleb128 0xb
 4023 0276 3B       		.uleb128 0x3b
 4024 0277 0B       		.uleb128 0xb
 4025 0278 49       		.uleb128 0x49
 4026 0279 13       		.uleb128 0x13
ARM GAS  C:\Users\haske\AppData\Local\Temp\cceAapTu.s 			page 84


 4027 027a 3F       		.uleb128 0x3f
 4028 027b 19       		.uleb128 0x19
 4029 027c 3C       		.uleb128 0x3c
 4030 027d 19       		.uleb128 0x19
 4031 027e 00       		.byte	0
 4032 027f 00       		.byte	0
 4033 0280 2A       		.uleb128 0x2a
 4034 0281 2E       		.uleb128 0x2e
 4035 0282 00       		.byte	0
 4036 0283 3F       		.uleb128 0x3f
 4037 0284 19       		.uleb128 0x19
 4038 0285 3C       		.uleb128 0x3c
 4039 0286 19       		.uleb128 0x19
 4040 0287 6E       		.uleb128 0x6e
 4041 0288 0E       		.uleb128 0xe
 4042 0289 03       		.uleb128 0x3
 4043 028a 0E       		.uleb128 0xe
 4044 028b 3A       		.uleb128 0x3a
 4045 028c 0B       		.uleb128 0xb
 4046 028d 3B       		.uleb128 0x3b
 4047 028e 0B       		.uleb128 0xb
 4048 028f 00       		.byte	0
 4049 0290 00       		.byte	0
 4050 0291 00       		.byte	0
 4051              		.section	.debug_loc,"",%progbits
 4052              	.Ldebug_loc0:
 4053              	.LLST0:
 4054 0000 00000000 		.4byte	.LVL3
 4055 0004 0E000000 		.4byte	.LVL4
 4056 0008 0100     		.2byte	0x1
 4057 000a 50       		.byte	0x50
 4058 000b 0E000000 		.4byte	.LVL4
 4059 000f 94000000 		.4byte	.LVL14
 4060 0013 0100     		.2byte	0x1
 4061 0015 54       		.byte	0x54
 4062 0016 94000000 		.4byte	.LVL14
 4063 001a A0000000 		.4byte	.LFE64
 4064 001e 0400     		.2byte	0x4
 4065 0020 F3       		.byte	0xf3
 4066 0021 01       		.uleb128 0x1
 4067 0022 50       		.byte	0x50
 4068 0023 9F       		.byte	0x9f
 4069 0024 00000000 		.4byte	0
 4070 0028 00000000 		.4byte	0
 4071              	.LLST1:
 4072 002c 88000000 		.4byte	.LVL10
 4073 0030 90000000 		.4byte	.LVL11
 4074 0034 0100     		.2byte	0x1
 4075 0036 53       		.byte	0x53
 4076 0037 90000000 		.4byte	.LVL11
 4077 003b 92000000 		.4byte	.LVL12
 4078 003f 0200     		.2byte	0x2
 4079 0041 74       		.byte	0x74
 4080 0042 28       		.sleb128 40
 4081 0043 92000000 		.4byte	.LVL12
 4082 0047 94000000 		.4byte	.LVL13
 4083 004b 0100     		.2byte	0x1
ARM GAS  C:\Users\haske\AppData\Local\Temp\cceAapTu.s 			page 85


 4084 004d 53       		.byte	0x53
 4085 004e 00000000 		.4byte	0
 4086 0052 00000000 		.4byte	0
 4087              	.LLST2:
 4088 0056 00000000 		.4byte	.LVL15
 4089 005a 06000000 		.4byte	.LVL16
 4090 005e 0100     		.2byte	0x1
 4091 0060 50       		.byte	0x50
 4092 0061 06000000 		.4byte	.LVL16
 4093 0065 F8000000 		.4byte	.LFE63
 4094 0069 0400     		.2byte	0x4
 4095 006b F3       		.byte	0xf3
 4096 006c 01       		.uleb128 0x1
 4097 006d 50       		.byte	0x50
 4098 006e 9F       		.byte	0x9f
 4099 006f 00000000 		.4byte	0
 4100 0073 00000000 		.4byte	0
 4101              	.LLST3:
 4102 0077 0C000000 		.4byte	.LVL18
 4103 007b 1E000000 		.4byte	.LVL19
 4104 007f 0100     		.2byte	0x1
 4105 0081 50       		.byte	0x50
 4106 0082 1E000000 		.4byte	.LVL19
 4107 0086 EE000000 		.4byte	.LVL38
 4108 008a 0100     		.2byte	0x1
 4109 008c 55       		.byte	0x55
 4110 008d 00000000 		.4byte	0
 4111 0091 00000000 		.4byte	0
 4112              	.LLST4:
 4113 0095 24000000 		.4byte	.LVL21
 4114 0099 46000000 		.4byte	.LVL22
 4115 009d 0100     		.2byte	0x1
 4116 009f 50       		.byte	0x50
 4117 00a0 46000000 		.4byte	.LVL22
 4118 00a4 D6000000 		.4byte	.LVL32
 4119 00a8 0100     		.2byte	0x1
 4120 00aa 54       		.byte	0x54
 4121 00ab D6000000 		.4byte	.LVL32
 4122 00af D8000000 		.4byte	.LVL33
 4123 00b3 0100     		.2byte	0x1
 4124 00b5 50       		.byte	0x50
 4125 00b6 D8000000 		.4byte	.LVL33
 4126 00ba E2000000 		.4byte	.LVL35
 4127 00be 0100     		.2byte	0x1
 4128 00c0 54       		.byte	0x54
 4129 00c1 E2000000 		.4byte	.LVL35
 4130 00c5 E9000000 		.4byte	.LVL36-1
 4131 00c9 0100     		.2byte	0x1
 4132 00cb 50       		.byte	0x50
 4133 00cc E9000000 		.4byte	.LVL36-1
 4134 00d0 EE000000 		.4byte	.LVL37
 4135 00d4 0100     		.2byte	0x1
 4136 00d6 54       		.byte	0x54
 4137 00d7 00000000 		.4byte	0
 4138 00db 00000000 		.4byte	0
 4139              	.LLST5:
 4140 00df 50000000 		.4byte	.LVL23
ARM GAS  C:\Users\haske\AppData\Local\Temp\cceAapTu.s 			page 86


 4141 00e3 69000000 		.4byte	.LVL24-1
 4142 00e7 0100     		.2byte	0x1
 4143 00e9 51       		.byte	0x51
 4144 00ea 00000000 		.4byte	0
 4145 00ee 00000000 		.4byte	0
 4146              	.LLST6:
 4147 00f2 6A000000 		.4byte	.LVL24
 4148 00f6 76000000 		.4byte	.LVL25
 4149 00fa 0100     		.2byte	0x1
 4150 00fc 50       		.byte	0x50
 4151 00fd 00000000 		.4byte	0
 4152 0101 00000000 		.4byte	0
 4153              	.LLST7:
 4154 0105 A4000000 		.4byte	.LVL27
 4155 0109 B6000000 		.4byte	.LVL28
 4156 010d 0100     		.2byte	0x1
 4157 010f 50       		.byte	0x50
 4158 0110 B6000000 		.4byte	.LVL28
 4159 0114 B7000000 		.4byte	.LVL29-1
 4160 0118 0100     		.2byte	0x1
 4161 011a 51       		.byte	0x51
 4162 011b 00000000 		.4byte	0
 4163 011f 00000000 		.4byte	0
 4164              	.LLST8:
 4165 0123 00000000 		.4byte	.LVL39
 4166 0127 14000000 		.4byte	.LVL40
 4167 012b 0100     		.2byte	0x1
 4168 012d 50       		.byte	0x50
 4169 012e 14000000 		.4byte	.LVL40
 4170 0132 26000000 		.4byte	.LVL45
 4171 0136 0100     		.2byte	0x1
 4172 0138 54       		.byte	0x54
 4173 0139 26000000 		.4byte	.LVL45
 4174 013d 28000000 		.4byte	.LFE56
 4175 0141 0400     		.2byte	0x4
 4176 0143 F3       		.byte	0xf3
 4177 0144 01       		.uleb128 0x1
 4178 0145 50       		.byte	0x50
 4179 0146 9F       		.byte	0x9f
 4180 0147 00000000 		.4byte	0
 4181 014b 00000000 		.4byte	0
 4182              	.LLST9:
 4183 014f 18000000 		.4byte	.LVL41
 4184 0153 20000000 		.4byte	.LVL42
 4185 0157 0100     		.2byte	0x1
 4186 0159 50       		.byte	0x50
 4187 015a 00000000 		.4byte	0
 4188 015e 00000000 		.4byte	0
 4189              	.LLST10:
 4190 0162 00000000 		.4byte	.LVL49
 4191 0166 09000000 		.4byte	.LVL50-1
 4192 016a 0100     		.2byte	0x1
 4193 016c 50       		.byte	0x50
 4194 016d 09000000 		.4byte	.LVL50-1
 4195 0171 2C000000 		.4byte	.LVL51
 4196 0175 0100     		.2byte	0x1
 4197 0177 54       		.byte	0x54
ARM GAS  C:\Users\haske\AppData\Local\Temp\cceAapTu.s 			page 87


 4198 0178 2C000000 		.4byte	.LVL51
 4199 017c 34000000 		.4byte	.LFE46
 4200 0180 0400     		.2byte	0x4
 4201 0182 F3       		.byte	0xf3
 4202 0183 01       		.uleb128 0x1
 4203 0184 50       		.byte	0x50
 4204 0185 9F       		.byte	0x9f
 4205 0186 00000000 		.4byte	0
 4206 018a 00000000 		.4byte	0
 4207              	.LLST11:
 4208 018e 00000000 		.4byte	.LVL52
 4209 0192 3E000000 		.4byte	.LVL56
 4210 0196 0100     		.2byte	0x1
 4211 0198 50       		.byte	0x50
 4212 0199 3E000000 		.4byte	.LVL56
 4213 019d 40000000 		.4byte	.LVL57
 4214 01a1 0400     		.2byte	0x4
 4215 01a3 F3       		.byte	0xf3
 4216 01a4 01       		.uleb128 0x1
 4217 01a5 50       		.byte	0x50
 4218 01a6 9F       		.byte	0x9f
 4219 01a7 40000000 		.4byte	.LVL57
 4220 01ab 42000000 		.4byte	.LVL58
 4221 01af 0100     		.2byte	0x1
 4222 01b1 50       		.byte	0x50
 4223 01b2 42000000 		.4byte	.LVL58
 4224 01b6 46000000 		.4byte	.LVL59
 4225 01ba 0400     		.2byte	0x4
 4226 01bc F3       		.byte	0xf3
 4227 01bd 01       		.uleb128 0x1
 4228 01be 50       		.byte	0x50
 4229 01bf 9F       		.byte	0x9f
 4230 01c0 46000000 		.4byte	.LVL59
 4231 01c4 48000000 		.4byte	.LVL60
 4232 01c8 0100     		.2byte	0x1
 4233 01ca 50       		.byte	0x50
 4234 01cb 48000000 		.4byte	.LVL60
 4235 01cf 50000000 		.4byte	.LFE48
 4236 01d3 0400     		.2byte	0x4
 4237 01d5 F3       		.byte	0xf3
 4238 01d6 01       		.uleb128 0x1
 4239 01d7 50       		.byte	0x50
 4240 01d8 9F       		.byte	0x9f
 4241 01d9 00000000 		.4byte	0
 4242 01dd 00000000 		.4byte	0
 4243              	.LLST12:
 4244 01e1 02000000 		.4byte	.LVL53
 4245 01e5 12000000 		.4byte	.LVL54
 4246 01e9 0300     		.2byte	0x3
 4247 01eb 09       		.byte	0x9
 4248 01ec FF       		.byte	0xff
 4249 01ed 9F       		.byte	0x9f
 4250 01ee 12000000 		.4byte	.LVL54
 4251 01f2 3E000000 		.4byte	.LVL56
 4252 01f6 0100     		.2byte	0x1
 4253 01f8 55       		.byte	0x55
 4254 01f9 40000000 		.4byte	.LVL57
ARM GAS  C:\Users\haske\AppData\Local\Temp\cceAapTu.s 			page 88


 4255 01fd 46000000 		.4byte	.LVL59
 4256 0201 0300     		.2byte	0x3
 4257 0203 09       		.byte	0x9
 4258 0204 FF       		.byte	0xff
 4259 0205 9F       		.byte	0x9f
 4260 0206 46000000 		.4byte	.LVL59
 4261 020a 48000000 		.4byte	.LVL60
 4262 020e 0100     		.2byte	0x1
 4263 0210 55       		.byte	0x55
 4264 0211 00000000 		.4byte	0
 4265 0215 00000000 		.4byte	0
 4266              	.LLST13:
 4267 0219 00000000 		.4byte	.LVL61
 4268 021d 0A000000 		.4byte	.LVL63
 4269 0221 0100     		.2byte	0x1
 4270 0223 50       		.byte	0x50
 4271 0224 0A000000 		.4byte	.LVL63
 4272 0228 5E000000 		.4byte	.LVL77
 4273 022c 0100     		.2byte	0x1
 4274 022e 56       		.byte	0x56
 4275 022f 5E000000 		.4byte	.LVL77
 4276 0233 64000000 		.4byte	.LFE49
 4277 0237 0400     		.2byte	0x4
 4278 0239 F3       		.byte	0xf3
 4279 023a 01       		.uleb128 0x1
 4280 023b 50       		.byte	0x50
 4281 023c 9F       		.byte	0x9f
 4282 023d 00000000 		.4byte	0
 4283 0241 00000000 		.4byte	0
 4284              	.LLST14:
 4285 0245 00000000 		.4byte	.LVL61
 4286 0249 0D000000 		.4byte	.LVL64-1
 4287 024d 0100     		.2byte	0x1
 4288 024f 51       		.byte	0x51
 4289 0250 0D000000 		.4byte	.LVL64-1
 4290 0254 5E000000 		.4byte	.LVL78
 4291 0258 0100     		.2byte	0x1
 4292 025a 57       		.byte	0x57
 4293 025b 5E000000 		.4byte	.LVL78
 4294 025f 64000000 		.4byte	.LFE49
 4295 0263 0400     		.2byte	0x4
 4296 0265 F3       		.byte	0xf3
 4297 0266 01       		.uleb128 0x1
 4298 0267 51       		.byte	0x51
 4299 0268 9F       		.byte	0x9f
 4300 0269 00000000 		.4byte	0
 4301 026d 00000000 		.4byte	0
 4302              	.LLST15:
 4303 0271 10000000 		.4byte	.LVL65
 4304 0275 16000000 		.4byte	.LVL66
 4305 0279 0100     		.2byte	0x1
 4306 027b 50       		.byte	0x50
 4307 027c 16000000 		.4byte	.LVL66
 4308 0280 5E000000 		.4byte	.LVL76
 4309 0284 0100     		.2byte	0x1
 4310 0286 54       		.byte	0x54
 4311 0287 00000000 		.4byte	0
ARM GAS  C:\Users\haske\AppData\Local\Temp\cceAapTu.s 			page 89


 4312 028b 00000000 		.4byte	0
 4313              	.LLST16:
 4314 028f 20000000 		.4byte	.LVL68
 4315 0293 38000000 		.4byte	.LVL69
 4316 0297 0100     		.2byte	0x1
 4317 0299 50       		.byte	0x50
 4318 029a 38000000 		.4byte	.LVL69
 4319 029e 56000000 		.4byte	.LVL75
 4320 02a2 0100     		.2byte	0x1
 4321 02a4 55       		.byte	0x55
 4322 02a5 00000000 		.4byte	0
 4323 02a9 00000000 		.4byte	0
 4324              	.LLST17:
 4325 02ad 08000000 		.4byte	.LVL62
 4326 02b1 16000000 		.4byte	.LVL66
 4327 02b5 0200     		.2byte	0x2
 4328 02b7 30       		.byte	0x30
 4329 02b8 9F       		.byte	0x9f
 4330 02b9 16000000 		.4byte	.LVL66
 4331 02bd 50000000 		.4byte	.LVL73
 4332 02c1 0200     		.2byte	0x2
 4333 02c3 91       		.byte	0x91
 4334 02c4 64       		.sleb128 -28
 4335 02c5 50000000 		.4byte	.LVL73
 4336 02c9 54000000 		.4byte	.LVL74
 4337 02cd 0200     		.2byte	0x2
 4338 02cf 31       		.byte	0x31
 4339 02d0 9F       		.byte	0x9f
 4340 02d1 56000000 		.4byte	.LVL75
 4341 02d5 64000000 		.4byte	.LFE49
 4342 02d9 0200     		.2byte	0x2
 4343 02db 91       		.byte	0x91
 4344 02dc 64       		.sleb128 -28
 4345 02dd 00000000 		.4byte	0
 4346 02e1 00000000 		.4byte	0
 4347              	.LLST18:
 4348 02e5 00000000 		.4byte	.LVL79
 4349 02e9 0C000000 		.4byte	.LVL80
 4350 02ed 0100     		.2byte	0x1
 4351 02ef 50       		.byte	0x50
 4352 02f0 0C000000 		.4byte	.LVL80
 4353 02f4 52000000 		.4byte	.LVL87
 4354 02f8 0100     		.2byte	0x1
 4355 02fa 55       		.byte	0x55
 4356 02fb 52000000 		.4byte	.LVL87
 4357 02ff 8C000000 		.4byte	.LVL92
 4358 0303 0400     		.2byte	0x4
 4359 0305 F3       		.byte	0xf3
 4360 0306 01       		.uleb128 0x1
 4361 0307 50       		.byte	0x50
 4362 0308 9F       		.byte	0x9f
 4363 0309 8C000000 		.4byte	.LVL92
 4364 030d 8E000000 		.4byte	.LVL93
 4365 0311 0100     		.2byte	0x1
 4366 0313 55       		.byte	0x55
 4367 0314 8E000000 		.4byte	.LVL93
 4368 0318 98000000 		.4byte	.LFE47
ARM GAS  C:\Users\haske\AppData\Local\Temp\cceAapTu.s 			page 90


 4369 031c 0400     		.2byte	0x4
 4370 031e F3       		.byte	0xf3
 4371 031f 01       		.uleb128 0x1
 4372 0320 50       		.byte	0x50
 4373 0321 9F       		.byte	0x9f
 4374 0322 00000000 		.4byte	0
 4375 0326 00000000 		.4byte	0
 4376              	.LLST19:
 4377 032a 2A000000 		.4byte	.LVL85
 4378 032e 39000000 		.4byte	.LVL86-1
 4379 0332 0100     		.2byte	0x1
 4380 0334 50       		.byte	0x50
 4381 0335 39000000 		.4byte	.LVL86-1
 4382 0339 8C000000 		.4byte	.LVL92
 4383 033d 0100     		.2byte	0x1
 4384 033f 54       		.byte	0x54
 4385 0340 8C000000 		.4byte	.LVL92
 4386 0344 8E000000 		.4byte	.LVL93
 4387 0348 0100     		.2byte	0x1
 4388 034a 50       		.byte	0x50
 4389 034b 8E000000 		.4byte	.LVL93
 4390 034f 8E000000 		.4byte	.LVL94
 4391 0353 0100     		.2byte	0x1
 4392 0355 54       		.byte	0x54
 4393 0356 00000000 		.4byte	0
 4394 035a 00000000 		.4byte	0
 4395              	.LLST20:
 4396 035e 66000000 		.4byte	.LVL88
 4397 0362 72000000 		.4byte	.LVL89
 4398 0366 0100     		.2byte	0x1
 4399 0368 50       		.byte	0x50
 4400 0369 00000000 		.4byte	0
 4401 036d 00000000 		.4byte	0
 4402              	.LLST21:
 4403 0371 00000000 		.4byte	.LVL97
 4404 0375 08000000 		.4byte	.LVL98
 4405 0379 0100     		.2byte	0x1
 4406 037b 50       		.byte	0x50
 4407 037c 08000000 		.4byte	.LVL98
 4408 0380 2A000000 		.4byte	.LVL102
 4409 0384 0100     		.2byte	0x1
 4410 0386 54       		.byte	0x54
 4411 0387 2A000000 		.4byte	.LVL102
 4412 038b 30000000 		.4byte	.LFE51
 4413 038f 0400     		.2byte	0x4
 4414 0391 F3       		.byte	0xf3
 4415 0392 01       		.uleb128 0x1
 4416 0393 50       		.byte	0x50
 4417 0394 9F       		.byte	0x9f
 4418 0395 00000000 		.4byte	0
 4419 0399 00000000 		.4byte	0
 4420              	.LLST22:
 4421 039d 00000000 		.4byte	.LVL97
 4422 03a1 0B000000 		.4byte	.LVL99-1
 4423 03a5 0100     		.2byte	0x1
 4424 03a7 51       		.byte	0x51
 4425 03a8 0B000000 		.4byte	.LVL99-1
ARM GAS  C:\Users\haske\AppData\Local\Temp\cceAapTu.s 			page 91


 4426 03ac 2A000000 		.4byte	.LVL103
 4427 03b0 0100     		.2byte	0x1
 4428 03b2 55       		.byte	0x55
 4429 03b3 2A000000 		.4byte	.LVL103
 4430 03b7 30000000 		.4byte	.LFE51
 4431 03bb 0400     		.2byte	0x4
 4432 03bd F3       		.byte	0xf3
 4433 03be 01       		.uleb128 0x1
 4434 03bf 51       		.byte	0x51
 4435 03c0 9F       		.byte	0x9f
 4436 03c1 00000000 		.4byte	0
 4437 03c5 00000000 		.4byte	0
 4438              	.LLST23:
 4439 03c9 0C000000 		.4byte	.LVL99
 4440 03cd 22000000 		.4byte	.LVL100
 4441 03d1 0100     		.2byte	0x1
 4442 03d3 50       		.byte	0x50
 4443 03d4 22000000 		.4byte	.LVL100
 4444 03d8 25000000 		.4byte	.LVL101-1
 4445 03dc 0100     		.2byte	0x1
 4446 03de 51       		.byte	0x51
 4447 03df 26000000 		.4byte	.LVL101
 4448 03e3 30000000 		.4byte	.LFE51
 4449 03e7 0100     		.2byte	0x1
 4450 03e9 50       		.byte	0x50
 4451 03ea 00000000 		.4byte	0
 4452 03ee 00000000 		.4byte	0
 4453              	.LLST24:
 4454 03f2 02000000 		.4byte	.LVL104
 4455 03f6 0C000000 		.4byte	.LVL106
 4456 03fa 0200     		.2byte	0x2
 4457 03fc 30       		.byte	0x30
 4458 03fd 9F       		.byte	0x9f
 4459 03fe 0C000000 		.4byte	.LVL106
 4460 0402 0E000000 		.4byte	.LVL107
 4461 0406 0100     		.2byte	0x1
 4462 0408 54       		.byte	0x54
 4463 0409 10000000 		.4byte	.LVL108
 4464 040d 1E000000 		.4byte	.LVL112
 4465 0411 0100     		.2byte	0x1
 4466 0413 54       		.byte	0x54
 4467 0414 00000000 		.4byte	0
 4468 0418 00000000 		.4byte	0
 4469              	.LLST25:
 4470 041c 08000000 		.4byte	.LVL105
 4471 0420 14000000 		.4byte	.LVL109
 4472 0424 0100     		.2byte	0x1
 4473 0426 50       		.byte	0x50
 4474 0427 14000000 		.4byte	.LVL109
 4475 042b 17000000 		.4byte	.LVL110-1
 4476 042f 0100     		.2byte	0x1
 4477 0431 51       		.byte	0x51
 4478 0432 18000000 		.4byte	.LVL110
 4479 0436 1E000000 		.4byte	.LVL111
 4480 043a 0100     		.2byte	0x1
 4481 043c 50       		.byte	0x50
 4482 043d 00000000 		.4byte	0
ARM GAS  C:\Users\haske\AppData\Local\Temp\cceAapTu.s 			page 92


 4483 0441 00000000 		.4byte	0
 4484              	.LLST26:
 4485 0445 00000000 		.4byte	.LVL113
 4486 0449 0E000000 		.4byte	.LVL117
 4487 044d 0100     		.2byte	0x1
 4488 044f 50       		.byte	0x50
 4489 0450 0E000000 		.4byte	.LVL117
 4490 0454 17000000 		.4byte	.LVL119-1
 4491 0458 0100     		.2byte	0x1
 4492 045a 53       		.byte	0x53
 4493 045b 17000000 		.4byte	.LVL119-1
 4494 045f 20000000 		.4byte	.LFE54
 4495 0463 0400     		.2byte	0x4
 4496 0465 F3       		.byte	0xf3
 4497 0466 01       		.uleb128 0x1
 4498 0467 50       		.byte	0x50
 4499 0468 9F       		.byte	0x9f
 4500 0469 00000000 		.4byte	0
 4501 046d 00000000 		.4byte	0
 4502              	.LLST27:
 4503 0471 00000000 		.4byte	.LVL113
 4504 0475 06000000 		.4byte	.LVL114
 4505 0479 0100     		.2byte	0x1
 4506 047b 51       		.byte	0x51
 4507 047c 06000000 		.4byte	.LVL114
 4508 0480 20000000 		.4byte	.LFE54
 4509 0484 0400     		.2byte	0x4
 4510 0486 F3       		.byte	0xf3
 4511 0487 01       		.uleb128 0x1
 4512 0488 51       		.byte	0x51
 4513 0489 9F       		.byte	0x9f
 4514 048a 00000000 		.4byte	0
 4515 048e 00000000 		.4byte	0
 4516              	.LLST28:
 4517 0492 00000000 		.4byte	.LVL113
 4518 0496 08000000 		.4byte	.LVL115
 4519 049a 0100     		.2byte	0x1
 4520 049c 52       		.byte	0x52
 4521 049d 08000000 		.4byte	.LVL115
 4522 04a1 20000000 		.4byte	.LFE54
 4523 04a5 0400     		.2byte	0x4
 4524 04a7 F3       		.byte	0xf3
 4525 04a8 01       		.uleb128 0x1
 4526 04a9 52       		.byte	0x52
 4527 04aa 9F       		.byte	0x9f
 4528 04ab 00000000 		.4byte	0
 4529 04af 00000000 		.4byte	0
 4530              	.LLST29:
 4531 04b3 0C000000 		.4byte	.LVL116
 4532 04b7 14000000 		.4byte	.LVL118
 4533 04bb 0100     		.2byte	0x1
 4534 04bd 51       		.byte	0x51
 4535 04be 14000000 		.4byte	.LVL118
 4536 04c2 17000000 		.4byte	.LVL119-1
 4537 04c6 0E00     		.2byte	0xe
 4538 04c8 F3       		.byte	0xf3
 4539 04c9 01       		.uleb128 0x1
ARM GAS  C:\Users\haske\AppData\Local\Temp\cceAapTu.s 			page 93


 4540 04ca 51       		.byte	0x51
 4541 04cb 72       		.byte	0x72
 4542 04cc 00       		.sleb128 0
 4543 04cd 22       		.byte	0x22
 4544 04ce F3       		.byte	0xf3
 4545 04cf 01       		.uleb128 0x1
 4546 04d0 52       		.byte	0x52
 4547 04d1 1C       		.byte	0x1c
 4548 04d2 72       		.byte	0x72
 4549 04d3 00       		.sleb128 0
 4550 04d4 27       		.byte	0x27
 4551 04d5 9F       		.byte	0x9f
 4552 04d6 17000000 		.4byte	.LVL119-1
 4553 04da 20000000 		.4byte	.LFE54
 4554 04de 1C00     		.2byte	0x1c
 4555 04e0 F3       		.byte	0xf3
 4556 04e1 01       		.uleb128 0x1
 4557 04e2 51       		.byte	0x51
 4558 04e3 F3       		.byte	0xf3
 4559 04e4 01       		.uleb128 0x1
 4560 04e5 52       		.byte	0x52
 4561 04e6 1C       		.byte	0x1c
 4562 04e7 4F       		.byte	0x4f
 4563 04e8 26       		.byte	0x26
 4564 04e9 F3       		.byte	0xf3
 4565 04ea 01       		.uleb128 0x1
 4566 04eb 51       		.byte	0x51
 4567 04ec 22       		.byte	0x22
 4568 04ed F3       		.byte	0xf3
 4569 04ee 01       		.uleb128 0x1
 4570 04ef 52       		.byte	0x52
 4571 04f0 1C       		.byte	0x1c
 4572 04f1 F3       		.byte	0xf3
 4573 04f2 01       		.uleb128 0x1
 4574 04f3 51       		.byte	0x51
 4575 04f4 F3       		.byte	0xf3
 4576 04f5 01       		.uleb128 0x1
 4577 04f6 52       		.byte	0x52
 4578 04f7 1C       		.byte	0x1c
 4579 04f8 4F       		.byte	0x4f
 4580 04f9 26       		.byte	0x26
 4581 04fa 27       		.byte	0x27
 4582 04fb 9F       		.byte	0x9f
 4583 04fc 00000000 		.4byte	0
 4584 0500 00000000 		.4byte	0
 4585              	.LLST30:
 4586 0504 00000000 		.4byte	.LVL122
 4587 0508 14000000 		.4byte	.LVL123
 4588 050c 0100     		.2byte	0x1
 4589 050e 50       		.byte	0x50
 4590 050f 14000000 		.4byte	.LVL123
 4591 0513 32000000 		.4byte	.LVL129
 4592 0517 0100     		.2byte	0x1
 4593 0519 54       		.byte	0x54
 4594 051a 32000000 		.4byte	.LVL129
 4595 051e 34000000 		.4byte	.LFE57
 4596 0522 0400     		.2byte	0x4
ARM GAS  C:\Users\haske\AppData\Local\Temp\cceAapTu.s 			page 94


 4597 0524 F3       		.byte	0xf3
 4598 0525 01       		.uleb128 0x1
 4599 0526 50       		.byte	0x50
 4600 0527 9F       		.byte	0x9f
 4601 0528 00000000 		.4byte	0
 4602 052c 00000000 		.4byte	0
 4603              	.LLST31:
 4604 0530 18000000 		.4byte	.LVL124
 4605 0534 23000000 		.4byte	.LVL125-1
 4606 0538 0100     		.2byte	0x1
 4607 053a 50       		.byte	0x50
 4608 053b 00000000 		.4byte	0
 4609 053f 00000000 		.4byte	0
 4610              	.LLST32:
 4611 0543 24000000 		.4byte	.LVL125
 4612 0547 2C000000 		.4byte	.LVL126
 4613 054b 0100     		.2byte	0x1
 4614 054d 50       		.byte	0x50
 4615 054e 00000000 		.4byte	0
 4616 0552 00000000 		.4byte	0
 4617              	.LLST33:
 4618 0556 00000000 		.4byte	.LVL130
 4619 055a 14000000 		.4byte	.LVL131
 4620 055e 0100     		.2byte	0x1
 4621 0560 50       		.byte	0x50
 4622 0561 14000000 		.4byte	.LVL131
 4623 0565 34000000 		.4byte	.LVL137
 4624 0569 0100     		.2byte	0x1
 4625 056b 54       		.byte	0x54
 4626 056c 34000000 		.4byte	.LVL137
 4627 0570 3C000000 		.4byte	.LFE58
 4628 0574 0400     		.2byte	0x4
 4629 0576 F3       		.byte	0xf3
 4630 0577 01       		.uleb128 0x1
 4631 0578 50       		.byte	0x50
 4632 0579 9F       		.byte	0x9f
 4633 057a 00000000 		.4byte	0
 4634 057e 00000000 		.4byte	0
 4635              	.LLST34:
 4636 0582 18000000 		.4byte	.LVL132
 4637 0586 25000000 		.4byte	.LVL133-1
 4638 058a 0100     		.2byte	0x1
 4639 058c 50       		.byte	0x50
 4640 058d 00000000 		.4byte	0
 4641 0591 00000000 		.4byte	0
 4642              	.LLST35:
 4643 0595 26000000 		.4byte	.LVL133
 4644 0599 2E000000 		.4byte	.LVL134
 4645 059d 0100     		.2byte	0x1
 4646 059f 50       		.byte	0x50
 4647 05a0 00000000 		.4byte	0
 4648 05a4 00000000 		.4byte	0
 4649              	.LLST36:
 4650 05a8 00000000 		.4byte	.LVL138
 4651 05ac 14000000 		.4byte	.LVL139
 4652 05b0 0100     		.2byte	0x1
 4653 05b2 50       		.byte	0x50
ARM GAS  C:\Users\haske\AppData\Local\Temp\cceAapTu.s 			page 95


 4654 05b3 14000000 		.4byte	.LVL139
 4655 05b7 34000000 		.4byte	.LVL145
 4656 05bb 0100     		.2byte	0x1
 4657 05bd 54       		.byte	0x54
 4658 05be 34000000 		.4byte	.LVL145
 4659 05c2 36000000 		.4byte	.LFE59
 4660 05c6 0400     		.2byte	0x4
 4661 05c8 F3       		.byte	0xf3
 4662 05c9 01       		.uleb128 0x1
 4663 05ca 50       		.byte	0x50
 4664 05cb 9F       		.byte	0x9f
 4665 05cc 00000000 		.4byte	0
 4666 05d0 00000000 		.4byte	0
 4667              	.LLST37:
 4668 05d4 18000000 		.4byte	.LVL140
 4669 05d8 25000000 		.4byte	.LVL141-1
 4670 05dc 0100     		.2byte	0x1
 4671 05de 50       		.byte	0x50
 4672 05df 00000000 		.4byte	0
 4673 05e3 00000000 		.4byte	0
 4674              	.LLST38:
 4675 05e7 26000000 		.4byte	.LVL141
 4676 05eb 2E000000 		.4byte	.LVL142
 4677 05ef 0100     		.2byte	0x1
 4678 05f1 50       		.byte	0x50
 4679 05f2 00000000 		.4byte	0
 4680 05f6 00000000 		.4byte	0
 4681              	.LLST39:
 4682 05fa 00000000 		.4byte	.LVL146
 4683 05fe 14000000 		.4byte	.LVL147
 4684 0602 0100     		.2byte	0x1
 4685 0604 50       		.byte	0x50
 4686 0605 14000000 		.4byte	.LVL147
 4687 0609 34000000 		.4byte	.LVL153
 4688 060d 0100     		.2byte	0x1
 4689 060f 54       		.byte	0x54
 4690 0610 34000000 		.4byte	.LVL153
 4691 0614 3C000000 		.4byte	.LFE60
 4692 0618 0400     		.2byte	0x4
 4693 061a F3       		.byte	0xf3
 4694 061b 01       		.uleb128 0x1
 4695 061c 50       		.byte	0x50
 4696 061d 9F       		.byte	0x9f
 4697 061e 00000000 		.4byte	0
 4698 0622 00000000 		.4byte	0
 4699              	.LLST40:
 4700 0626 18000000 		.4byte	.LVL148
 4701 062a 25000000 		.4byte	.LVL149-1
 4702 062e 0100     		.2byte	0x1
 4703 0630 50       		.byte	0x50
 4704 0631 00000000 		.4byte	0
 4705 0635 00000000 		.4byte	0
 4706              	.LLST41:
 4707 0639 26000000 		.4byte	.LVL149
 4708 063d 2E000000 		.4byte	.LVL150
 4709 0641 0100     		.2byte	0x1
 4710 0643 50       		.byte	0x50
ARM GAS  C:\Users\haske\AppData\Local\Temp\cceAapTu.s 			page 96


 4711 0644 00000000 		.4byte	0
 4712 0648 00000000 		.4byte	0
 4713              	.LLST42:
 4714 064c 00000000 		.4byte	.LVL154
 4715 0650 14000000 		.4byte	.LVL155
 4716 0654 0100     		.2byte	0x1
 4717 0656 50       		.byte	0x50
 4718 0657 14000000 		.4byte	.LVL155
 4719 065b E4000000 		.4byte	.LVL191
 4720 065f 0100     		.2byte	0x1
 4721 0661 55       		.byte	0x55
 4722 0662 E4000000 		.4byte	.LVL191
 4723 0666 F8000000 		.4byte	.LFE61
 4724 066a 0400     		.2byte	0x4
 4725 066c F3       		.byte	0xf3
 4726 066d 01       		.uleb128 0x1
 4727 066e 50       		.byte	0x50
 4728 066f 9F       		.byte	0x9f
 4729 0670 00000000 		.4byte	0
 4730 0674 00000000 		.4byte	0
 4731              	.LLST43:
 4732 0678 1A000000 		.4byte	.LVL157
 4733 067c 2E000000 		.4byte	.LVL159
 4734 0680 0100     		.2byte	0x1
 4735 0682 50       		.byte	0x50
 4736 0683 2E000000 		.4byte	.LVL159
 4737 0687 30000000 		.4byte	.LVL160
 4738 068b 0100     		.2byte	0x1
 4739 068d 54       		.byte	0x54
 4740 068e 30000000 		.4byte	.LVL160
 4741 0692 3E000000 		.4byte	.LVL161
 4742 0696 0100     		.2byte	0x1
 4743 0698 50       		.byte	0x50
 4744 0699 3E000000 		.4byte	.LVL161
 4745 069d 40000000 		.4byte	.LVL162
 4746 06a1 0100     		.2byte	0x1
 4747 06a3 53       		.byte	0x53
 4748 06a4 40000000 		.4byte	.LVL162
 4749 06a8 54000000 		.4byte	.LVL167
 4750 06ac 0100     		.2byte	0x1
 4751 06ae 54       		.byte	0x54
 4752 06af 54000000 		.4byte	.LVL167
 4753 06b3 62000000 		.4byte	.LVL168
 4754 06b7 0100     		.2byte	0x1
 4755 06b9 50       		.byte	0x50
 4756 06ba 62000000 		.4byte	.LVL168
 4757 06be 72000000 		.4byte	.LVL172
 4758 06c2 0100     		.2byte	0x1
 4759 06c4 54       		.byte	0x54
 4760 06c5 72000000 		.4byte	.LVL172
 4761 06c9 80000000 		.4byte	.LVL173
 4762 06cd 0100     		.2byte	0x1
 4763 06cf 50       		.byte	0x50
 4764 06d0 80000000 		.4byte	.LVL173
 4765 06d4 84000000 		.4byte	.LVL174
 4766 06d8 0100     		.2byte	0x1
 4767 06da 54       		.byte	0x54
ARM GAS  C:\Users\haske\AppData\Local\Temp\cceAapTu.s 			page 97


 4768 06db 84000000 		.4byte	.LVL174
 4769 06df 86000000 		.4byte	.LVL175
 4770 06e3 0600     		.2byte	0x6
 4771 06e5 70       		.byte	0x70
 4772 06e6 00       		.sleb128 0
 4773 06e7 7C       		.byte	0x7c
 4774 06e8 00       		.sleb128 0
 4775 06e9 22       		.byte	0x22
 4776 06ea 9F       		.byte	0x9f
 4777 06eb 86000000 		.4byte	.LVL175
 4778 06ef 8C000000 		.4byte	.LVL176
 4779 06f3 0100     		.2byte	0x1
 4780 06f5 53       		.byte	0x53
 4781 06f6 8C000000 		.4byte	.LVL176
 4782 06fa 98000000 		.4byte	.LVL179
 4783 06fe 0100     		.2byte	0x1
 4784 0700 54       		.byte	0x54
 4785 0701 98000000 		.4byte	.LVL179
 4786 0705 A4000000 		.4byte	.LVL180
 4787 0709 0100     		.2byte	0x1
 4788 070b 50       		.byte	0x50
 4789 070c A4000000 		.4byte	.LVL180
 4790 0710 E4000000 		.4byte	.LVL190
 4791 0714 0100     		.2byte	0x1
 4792 0716 54       		.byte	0x54
 4793 0717 00000000 		.4byte	0
 4794 071b 00000000 		.4byte	0
 4795              	.LLST44:
 4796 071f 20000000 		.4byte	.LVL158
 4797 0723 52000000 		.4byte	.LVL166
 4798 0727 0100     		.2byte	0x1
 4799 0729 56       		.byte	0x56
 4800 072a 52000000 		.4byte	.LVL166
 4801 072e 54000000 		.4byte	.LVL167
 4802 0732 0100     		.2byte	0x1
 4803 0734 50       		.byte	0x50
 4804 0735 54000000 		.4byte	.LVL167
 4805 0739 70000000 		.4byte	.LVL171
 4806 073d 0100     		.2byte	0x1
 4807 073f 56       		.byte	0x56
 4808 0740 70000000 		.4byte	.LVL171
 4809 0744 72000000 		.4byte	.LVL172
 4810 0748 0100     		.2byte	0x1
 4811 074a 50       		.byte	0x50
 4812 074b 72000000 		.4byte	.LVL172
 4813 074f 96000000 		.4byte	.LVL178
 4814 0753 0100     		.2byte	0x1
 4815 0755 56       		.byte	0x56
 4816 0756 96000000 		.4byte	.LVL178
 4817 075a 98000000 		.4byte	.LVL179
 4818 075e 0100     		.2byte	0x1
 4819 0760 50       		.byte	0x50
 4820 0761 98000000 		.4byte	.LVL179
 4821 0765 E4000000 		.4byte	.LVL192
 4822 0769 0100     		.2byte	0x1
 4823 076b 56       		.byte	0x56
 4824 076c 00000000 		.4byte	0
ARM GAS  C:\Users\haske\AppData\Local\Temp\cceAapTu.s 			page 98


 4825 0770 00000000 		.4byte	0
 4826              	.LLST45:
 4827 0774 DA000000 		.4byte	.LVL186
 4828 0778 DC000000 		.4byte	.LVL187
 4829 077c 0100     		.2byte	0x1
 4830 077e 50       		.byte	0x50
 4831 077f 00000000 		.4byte	0
 4832 0783 00000000 		.4byte	0
 4833              	.LLST46:
 4834 0787 00000000 		.4byte	.LVL193
 4835 078b 0A000000 		.4byte	.LVL194
 4836 078f 0100     		.2byte	0x1
 4837 0791 50       		.byte	0x50
 4838 0792 0A000000 		.4byte	.LVL194
 4839 0796 0C000000 		.4byte	.LVL195
 4840 079a 0400     		.2byte	0x4
 4841 079c F3       		.byte	0xf3
 4842 079d 01       		.uleb128 0x1
 4843 079e 50       		.byte	0x50
 4844 079f 9F       		.byte	0x9f
 4845 07a0 0C000000 		.4byte	.LVL195
 4846 07a4 0E000000 		.4byte	.LVL196
 4847 07a8 0100     		.2byte	0x1
 4848 07aa 50       		.byte	0x50
 4849 07ab 0E000000 		.4byte	.LVL196
 4850 07af 10000000 		.4byte	.LFE62
 4851 07b3 0400     		.2byte	0x4
 4852 07b5 F3       		.byte	0xf3
 4853 07b6 01       		.uleb128 0x1
 4854 07b7 50       		.byte	0x50
 4855 07b8 9F       		.byte	0x9f
 4856 07b9 00000000 		.4byte	0
 4857 07bd 00000000 		.4byte	0
 4858              		.section	.debug_aranges,"",%progbits
 4859 0000 BC000000 		.4byte	0xbc
 4860 0004 0200     		.2byte	0x2
 4861 0006 00000000 		.4byte	.Ldebug_info0
 4862 000a 04       		.byte	0x4
 4863 000b 00       		.byte	0
 4864 000c 0000     		.2byte	0
 4865 000e 0000     		.2byte	0
 4866 0010 00000000 		.4byte	.LFB65
 4867 0014 30000000 		.4byte	.LFE65-.LFB65
 4868 0018 00000000 		.4byte	.LFB64
 4869 001c A0000000 		.4byte	.LFE64-.LFB64
 4870 0020 00000000 		.4byte	.LFB63
 4871 0024 F8000000 		.4byte	.LFE63-.LFB63
 4872 0028 00000000 		.4byte	.LFB56
 4873 002c 28000000 		.4byte	.LFE56-.LFB56
 4874 0030 00000000 		.4byte	.LFB45
 4875 0034 30000000 		.4byte	.LFE45-.LFB45
 4876 0038 00000000 		.4byte	.LFB46
 4877 003c 34000000 		.4byte	.LFE46-.LFB46
 4878 0040 00000000 		.4byte	.LFB48
 4879 0044 50000000 		.4byte	.LFE48-.LFB48
 4880 0048 00000000 		.4byte	.LFB49
 4881 004c 64000000 		.4byte	.LFE49-.LFB49
ARM GAS  C:\Users\haske\AppData\Local\Temp\cceAapTu.s 			page 99


 4882 0050 00000000 		.4byte	.LFB47
 4883 0054 98000000 		.4byte	.LFE47-.LFB47
 4884 0058 00000000 		.4byte	.LFB50
 4885 005c 14000000 		.4byte	.LFE50-.LFB50
 4886 0060 00000000 		.4byte	.LFB51
 4887 0064 30000000 		.4byte	.LFE51-.LFB51
 4888 0068 00000000 		.4byte	.LFB52
 4889 006c 0C000000 		.4byte	.LFE52-.LFB52
 4890 0070 00000000 		.4byte	.LFB53
 4891 0074 24000000 		.4byte	.LFE53-.LFB53
 4892 0078 00000000 		.4byte	.LFB54
 4893 007c 20000000 		.4byte	.LFE54-.LFB54
 4894 0080 00000000 		.4byte	.LFB55
 4895 0084 0A000000 		.4byte	.LFE55-.LFB55
 4896 0088 00000000 		.4byte	.LFB57
 4897 008c 34000000 		.4byte	.LFE57-.LFB57
 4898 0090 00000000 		.4byte	.LFB58
 4899 0094 3C000000 		.4byte	.LFE58-.LFB58
 4900 0098 00000000 		.4byte	.LFB59
 4901 009c 36000000 		.4byte	.LFE59-.LFB59
 4902 00a0 00000000 		.4byte	.LFB60
 4903 00a4 3C000000 		.4byte	.LFE60-.LFB60
 4904 00a8 00000000 		.4byte	.LFB61
 4905 00ac F8000000 		.4byte	.LFE61-.LFB61
 4906 00b0 00000000 		.4byte	.LFB62
 4907 00b4 10000000 		.4byte	.LFE62-.LFB62
 4908 00b8 00000000 		.4byte	0
 4909 00bc 00000000 		.4byte	0
 4910              		.section	.debug_ranges,"",%progbits
 4911              	.Ldebug_ranges0:
 4912 0000 00000000 		.4byte	.LFB65
 4913 0004 30000000 		.4byte	.LFE65
 4914 0008 00000000 		.4byte	.LFB64
 4915 000c A0000000 		.4byte	.LFE64
 4916 0010 00000000 		.4byte	.LFB63
 4917 0014 F8000000 		.4byte	.LFE63
 4918 0018 00000000 		.4byte	.LFB56
 4919 001c 28000000 		.4byte	.LFE56
 4920 0020 00000000 		.4byte	.LFB45
 4921 0024 30000000 		.4byte	.LFE45
 4922 0028 00000000 		.4byte	.LFB46
 4923 002c 34000000 		.4byte	.LFE46
 4924 0030 00000000 		.4byte	.LFB48
 4925 0034 50000000 		.4byte	.LFE48
 4926 0038 00000000 		.4byte	.LFB49
 4927 003c 64000000 		.4byte	.LFE49
 4928 0040 00000000 		.4byte	.LFB47
 4929 0044 98000000 		.4byte	.LFE47
 4930 0048 00000000 		.4byte	.LFB50
 4931 004c 14000000 		.4byte	.LFE50
 4932 0050 00000000 		.4byte	.LFB51
 4933 0054 30000000 		.4byte	.LFE51
 4934 0058 00000000 		.4byte	.LFB52
 4935 005c 0C000000 		.4byte	.LFE52
 4936 0060 00000000 		.4byte	.LFB53
 4937 0064 24000000 		.4byte	.LFE53
 4938 0068 00000000 		.4byte	.LFB54
ARM GAS  C:\Users\haske\AppData\Local\Temp\cceAapTu.s 			page 100


 4939 006c 20000000 		.4byte	.LFE54
 4940 0070 00000000 		.4byte	.LFB55
 4941 0074 0A000000 		.4byte	.LFE55
 4942 0078 00000000 		.4byte	.LFB57
 4943 007c 34000000 		.4byte	.LFE57
 4944 0080 00000000 		.4byte	.LFB58
 4945 0084 3C000000 		.4byte	.LFE58
 4946 0088 00000000 		.4byte	.LFB59
 4947 008c 36000000 		.4byte	.LFE59
 4948 0090 00000000 		.4byte	.LFB60
 4949 0094 3C000000 		.4byte	.LFE60
 4950 0098 00000000 		.4byte	.LFB61
 4951 009c F8000000 		.4byte	.LFE61
 4952 00a0 00000000 		.4byte	.LFB62
 4953 00a4 10000000 		.4byte	.LFE62
 4954 00a8 00000000 		.4byte	0
 4955 00ac 00000000 		.4byte	0
 4956              		.section	.debug_line,"",%progbits
 4957              	.Ldebug_line0:
 4958 0000 D4040000 		.section	.debug_str,"MS",%progbits,1
 4958      0200F701 
 4958      00000201 
 4958      FB0E0D00 
 4958      01010101 
 4959              	.LASF19:
 4960 0000 65786563 		.ascii	"exec_cb\000"
 4960      5F636200 
 4961              	.LASF101:
 4962 0008 5F6C765F 		.ascii	"_lv_ll_remove\000"
 4962      6C6C5F72 
 4962      656D6F76 
 4962      6500
 4963              	.LASF89:
 4964 0016 6C765F61 		.ascii	"lv_anim_path_ease_in_out\000"
 4964      6E696D5F 
 4964      70617468 
 4964      5F656173 
 4964      655F696E 
 4965              	.LASF105:
 4966 002f 6C765F74 		.ascii	"lv_tick_get\000"
 4966      69636B5F 
 4966      67657400 
 4967              	.LASF20:
 4968 003b 73746172 		.ascii	"start_cb\000"
 4968      745F6362 
 4968      00
 4969              	.LASF12:
 4970 0044 756E7369 		.ascii	"unsigned int\000"
 4970      676E6564 
 4970      20696E74 
 4970      00
 4971              	.LASF107:
 4972 0051 5F6C765F 		.ascii	"_lv_ll_init\000"
 4972      6C6C5F69 
 4972      6E697400 
 4973              	.LASF116:
 4974 005d 2E2E5C2E 		.ascii	"..\\..\\..\\arduinoLCD\\test\\Pain Drain\\libraries"
ARM GAS  C:\Users\haske\AppData\Local\Temp\cceAapTu.s 			page 101


 4974      2E5C2E2E 
 4974      5C617264 
 4974      75696E6F 
 4974      4C43445C 
 4975 008a 5C6C7667 		.ascii	"\\lvgl\\src\\misc\\lv_anim.c\000"
 4975      6C5C7372 
 4975      635C6D69 
 4975      73635C6C 
 4975      765F616E 
 4976              	.LASF58:
 4977 00a3 68656164 		.ascii	"head\000"
 4977      00
 4978              	.LASF6:
 4979 00a8 5F5F696E 		.ascii	"__int32_t\000"
 4979      7433325F 
 4979      7400
 4980              	.LASF21:
 4981 00b2 72656164 		.ascii	"ready_cb\000"
 4981      795F6362 
 4981      00
 4982              	.LASF37:
 4983 00bb 72756E5F 		.ascii	"run_round\000"
 4983      726F756E 
 4983      6400
 4984              	.LASF67:
 4985 00c5 6E65775F 		.ascii	"new_act_time\000"
 4985      6163745F 
 4985      74696D65 
 4985      00
 4986              	.LASF86:
 4987 00d2 6C765F61 		.ascii	"lv_anim_refr_now\000"
 4987      6E696D5F 
 4987      72656672 
 4987      5F6E6F77 
 4987      00
 4988              	.LASF57:
 4989 00e3 6E5F7369 		.ascii	"n_size\000"
 4989      7A6500
 4990              	.LASF91:
 4991 00ea 6C765F61 		.ascii	"lv_anim_path_bounce\000"
 4991      6E696D5F 
 4991      70617468 
 4991      5F626F75 
 4991      6E636500 
 4992              	.LASF39:
 4993 00fe 6C765F61 		.ascii	"lv_anim_exec_xcb_t\000"
 4993      6E696D5F 
 4993      65786563 
 4993      5F786362 
 4993      5F7400
 4994              	.LASF109:
 4995 0111 6C765F6D 		.ascii	"lv_memset_00\000"
 4995      656D7365 
 4995      745F3030 
 4995      00
 4996              	.LASF84:
 4997 011e 73706565 		.ascii	"speed\000"
ARM GAS  C:\Users\haske\AppData\Local\Temp\cceAapTu.s 			page 102


 4997      6400
 4998              	.LASF48:
 4999 0124 5F6C765F 		.ascii	"_lv_anim_t\000"
 4999      616E696D 
 4999      5F7400
 5000              	.LASF27:
 5001 012f 63757272 		.ascii	"current_value\000"
 5001      656E745F 
 5001      76616C75 
 5001      6500
 5002              	.LASF16:
 5003 013d 75696E74 		.ascii	"uint32_t\000"
 5003      33325F74 
 5003      00
 5004              	.LASF26:
 5005 0146 73746172 		.ascii	"start_value\000"
 5005      745F7661 
 5005      6C756500 
 5006              	.LASF97:
 5007 0152 5F6C765F 		.ascii	"_lv_anim_tmr\000"
 5007      616E696D 
 5007      5F746D72 
 5007      00
 5008              	.LASF112:
 5009 015f 6C765F6D 		.ascii	"lv_memcpy\000"
 5009      656D6370 
 5009      7900
 5010              	.LASF119:
 5011 0169 5F6C765F 		.ascii	"_lv_anim_ll\000"
 5011      616E696D 
 5011      5F6C6C00 
 5012              	.LASF115:
 5013 0175 474E5520 		.ascii	"GNU C11 5.4.1 20160609 (release) [ARM/embedded-5-br"
 5013      43313120 
 5013      352E342E 
 5013      31203230 
 5013      31363036 
 5014 01a8 616E6368 		.ascii	"anch revision 237715] -mcpu=cortex-m0plus -mthumb -"
 5014      20726576 
 5014      6973696F 
 5014      6E203233 
 5014      37373135 
 5015 01db 67202D4F 		.ascii	"g -Og -ffunction-sections -ffat-lto-objects\000"
 5015      67202D66 
 5015      66756E63 
 5015      74696F6E 
 5015      2D736563 
 5016              	.LASF95:
 5017 0207 616E696D 		.ascii	"anim_list_changed\000"
 5017      5F6C6973 
 5017      745F6368 
 5017      616E6765 
 5017      6400
 5018              	.LASF11:
 5019 0219 6C6F6E67 		.ascii	"long long unsigned int\000"
 5019      206C6F6E 
 5019      6720756E 
ARM GAS  C:\Users\haske\AppData\Local\Temp\cceAapTu.s 			page 103


 5019      7369676E 
 5019      65642069 
 5020              	.LASF106:
 5021 0230 6C765F6D 		.ascii	"lv_map\000"
 5021      617000
 5022              	.LASF79:
 5023 0237 6E65775F 		.ascii	"new_anim\000"
 5023      616E696D 
 5023      00
 5024              	.LASF4:
 5025 0240 5F5F7569 		.ascii	"__uint16_t\000"
 5025      6E743136 
 5025      5F7400
 5026              	.LASF90:
 5027 024b 6C765F61 		.ascii	"lv_anim_path_overshoot\000"
 5027      6E696D5F 
 5027      70617468 
 5027      5F6F7665 
 5027      7273686F 
 5028              	.LASF108:
 5029 0262 6C765F74 		.ascii	"lv_timer_create\000"
 5029      696D6572 
 5029      5F637265 
 5029      61746500 
 5030              	.LASF113:
 5031 0272 5F6C765F 		.ascii	"_lv_ll_clear\000"
 5031      6C6C5F63 
 5031      6C656172 
 5031      00
 5032              	.LASF29:
 5033 027f 74696D65 		.ascii	"time\000"
 5033      00
 5034              	.LASF40:
 5035 0284 6C765F61 		.ascii	"lv_anim_ready_cb_t\000"
 5035      6E696D5F 
 5035      72656164 
 5035      795F6362 
 5035      5F7400
 5036              	.LASF56:
 5037 0297 6C765F6C 		.ascii	"lv_ll_node_t\000"
 5037      6C5F6E6F 
 5037      64655F74 
 5037      00
 5038              	.LASF61:
 5039 02a4 5F426F6F 		.ascii	"_Bool\000"
 5039      6C00
 5040              	.LASF54:
 5041 02aa 70617573 		.ascii	"paused\000"
 5041      656400
 5042              	.LASF55:
 5043 02b1 6C765F74 		.ascii	"lv_timer_t\000"
 5043      696D6572 
 5043      5F7400
 5044              	.LASF64:
 5045 02bc 616E696D 		.ascii	"anim_timer\000"
 5045      5F74696D 
 5045      657200
ARM GAS  C:\Users\haske\AppData\Local\Temp\cceAapTu.s 			page 104


 5046              	.LASF68:
 5047 02c7 765F6F66 		.ascii	"v_ofs\000"
 5047      7300
 5048              	.LASF44:
 5049 02cd 6C765F61 		.ascii	"lv_anim_t\000"
 5049      6E696D5F 
 5049      7400
 5050              	.LASF88:
 5051 02d7 6C765F61 		.ascii	"lv_anim_path_ease_out\000"
 5051      6E696D5F 
 5051      70617468 
 5051      5F656173 
 5051      655F6F75 
 5052              	.LASF93:
 5053 02ed 6C765F61 		.ascii	"lv_anim_path_step\000"
 5053      6E696D5F 
 5053      70617468 
 5053      5F737465 
 5053      7000
 5054              	.LASF33:
 5055 02ff 72657065 		.ascii	"repeat_delay\000"
 5055      61745F64 
 5055      656C6179 
 5055      00
 5056              	.LASF46:
 5057 030c 63686172 		.ascii	"char\000"
 5057      00
 5058              	.LASF49:
 5059 0311 5F6C765F 		.ascii	"_lv_timer_t\000"
 5059      74696D65 
 5059      725F7400 
 5060              	.LASF47:
 5061 031d 6C765F74 		.ascii	"lv_timer_cb_t\000"
 5061      696D6572 
 5061      5F63625F 
 5061      7400
 5062              	.LASF87:
 5063 032b 6C765F61 		.ascii	"lv_anim_path_ease_in\000"
 5063      6E696D5F 
 5063      70617468 
 5063      5F656173 
 5063      655F696E 
 5064              	.LASF82:
 5065 0340 6C765F61 		.ascii	"lv_anim_count_running\000"
 5065      6E696D5F 
 5065      636F756E 
 5065      745F7275 
 5065      6E6E696E 
 5066              	.LASF13:
 5067 0356 75696E74 		.ascii	"uint8_t\000"
 5067      385F7400 
 5068              	.LASF71:
 5069 035e 5F6C765F 		.ascii	"_lv_anim_core_init\000"
 5069      616E696D 
 5069      5F636F72 
 5069      655F696E 
 5069      697400
ARM GAS  C:\Users\haske\AppData\Local\Temp\cceAapTu.s 			page 105


 5070              	.LASF103:
 5071 0371 6C765F74 		.ascii	"lv_tick_elaps\000"
 5071      69636B5F 
 5071      656C6170 
 5071      7300
 5072              	.LASF32:
 5073 037f 706C6179 		.ascii	"playback_time\000"
 5073      6261636B 
 5073      5F74696D 
 5073      6500
 5074              	.LASF22:
 5075 038d 64656C65 		.ascii	"deleted_cb\000"
 5075      7465645F 
 5075      636200
 5076              	.LASF10:
 5077 0398 6C6F6E67 		.ascii	"long long int\000"
 5077      206C6F6E 
 5077      6720696E 
 5077      7400
 5078              	.LASF60:
 5079 03a6 6C765F6C 		.ascii	"lv_ll_t\000"
 5079      6C5F7400 
 5080              	.LASF117:
 5081 03ae 433A5C50 		.ascii	"C:\\Projects\\PainDrain\\firmware\\PainDrain\\PainD"
 5081      726F6A65 
 5081      6374735C 
 5081      5061696E 
 5081      44726169 
 5082 03dc 7261696E 		.ascii	"rain.cydsn\000"
 5082      2E637964 
 5082      736E00
 5083              	.LASF78:
 5084 03e7 6C765F61 		.ascii	"lv_anim_start\000"
 5084      6E696D5F 
 5084      73746172 
 5084      7400
 5085              	.LASF96:
 5086 03f5 616E696D 		.ascii	"anim_run_round\000"
 5086      5F72756E 
 5086      5F726F75 
 5086      6E6400
 5087              	.LASF38:
 5088 0404 73746172 		.ascii	"start_cb_called\000"
 5088      745F6362 
 5088      5F63616C 
 5088      6C656400 
 5089              	.LASF43:
 5090 0414 6C765F61 		.ascii	"lv_anim_deleted_cb_t\000"
 5090      6E696D5F 
 5090      64656C65 
 5090      7465645F 
 5090      63625F74 
 5091              	.LASF25:
 5092 0429 70617468 		.ascii	"path_cb\000"
 5092      5F636200 
 5093              	.LASF70:
 5094 0431 73746570 		.ascii	"step\000"
ARM GAS  C:\Users\haske\AppData\Local\Temp\cceAapTu.s 			page 106


 5094      00
 5095              	.LASF69:
 5096 0436 6E65775F 		.ascii	"new_value\000"
 5096      76616C75 
 5096      6500
 5097              	.LASF94:
 5098 0440 6C617374 		.ascii	"last_timer_run\000"
 5098      5F74696D 
 5098      65725F72 
 5098      756E00
 5099              	.LASF65:
 5100 044f 70617261 		.ascii	"param\000"
 5100      6D00
 5101              	.LASF73:
 5102 0455 6C765F61 		.ascii	"lv_anim_path_linear\000"
 5102      6E696D5F 
 5102      70617468 
 5102      5F6C696E 
 5102      65617200 
 5103              	.LASF23:
 5104 0469 6765745F 		.ascii	"get_value_cb\000"
 5104      76616C75 
 5104      655F6362 
 5104      00
 5105              	.LASF104:
 5106 0476 5F6C765F 		.ascii	"_lv_ll_get_next\000"
 5106      6C6C5F67 
 5106      65745F6E 
 5106      65787400 
 5107              	.LASF72:
 5108 0486 6C765F61 		.ascii	"lv_anim_init\000"
 5108      6E696D5F 
 5108      696E6974 
 5108      00
 5109              	.LASF98:
 5110 0493 5F6C765F 		.ascii	"_lv_ll_get_head\000"
 5110      6C6C5F67 
 5110      65745F68 
 5110      65616400 
 5111              	.LASF17:
 5112 04a3 6C6F6E67 		.ascii	"long double\000"
 5112      20646F75 
 5112      626C6500 
 5113              	.LASF14:
 5114 04af 75696E74 		.ascii	"uint16_t\000"
 5114      31365F74 
 5114      00
 5115              	.LASF28:
 5116 04b8 656E645F 		.ascii	"end_value\000"
 5116      76616C75 
 5116      6500
 5117              	.LASF41:
 5118 04c2 6C765F61 		.ascii	"lv_anim_start_cb_t\000"
 5118      6E696D5F 
 5118      73746172 
 5118      745F6362 
 5118      5F7400
ARM GAS  C:\Users\haske\AppData\Local\Temp\cceAapTu.s 			page 107


 5119              	.LASF114:
 5120 04d5 6C765F62 		.ascii	"lv_bezier3\000"
 5120      657A6965 
 5120      723300
 5121              	.LASF77:
 5122 04e0 615F6E65 		.ascii	"a_next\000"
 5122      787400
 5123              	.LASF18:
 5124 04e7 6C765F61 		.ascii	"lv_anim_path_cb_t\000"
 5124      6E696D5F 
 5124      70617468 
 5124      5F63625F 
 5124      7400
 5125              	.LASF2:
 5126 04f9 73686F72 		.ascii	"short int\000"
 5126      7420696E 
 5126      7400
 5127              	.LASF76:
 5128 0503 6C765F61 		.ascii	"lv_anim_del\000"
 5128      6E696D5F 
 5128      64656C00 
 5129              	.LASF36:
 5130 050f 706C6179 		.ascii	"playback_now\000"
 5130      6261636B 
 5130      5F6E6F77 
 5130      00
 5131              	.LASF7:
 5132 051c 6C6F6E67 		.ascii	"long int\000"
 5132      20696E74 
 5132      00
 5133              	.LASF111:
 5134 0525 5F6C765F 		.ascii	"_lv_ll_ins_head\000"
 5134      6C6C5F69 
 5134      6E735F68 
 5134      65616400 
 5135              	.LASF42:
 5136 0535 6C765F61 		.ascii	"lv_anim_get_value_cb_t\000"
 5136      6E696D5F 
 5136      6765745F 
 5136      76616C75 
 5136      655F6362 
 5137              	.LASF92:
 5138 054c 64696666 		.ascii	"diff\000"
 5138      00
 5139              	.LASF51:
 5140 0551 6C617374 		.ascii	"last_run\000"
 5140      5F72756E 
 5140      00
 5141              	.LASF75:
 5142 055a 706C6179 		.ascii	"playtime\000"
 5142      74696D65 
 5142      00
 5143              	.LASF35:
 5144 0563 6561726C 		.ascii	"early_apply\000"
 5144      795F6170 
 5144      706C7900 
 5145              	.LASF3:
ARM GAS  C:\Users\haske\AppData\Local\Temp\cceAapTu.s 			page 108


 5146 056f 5F5F7569 		.ascii	"__uint8_t\000"
 5146      6E74385F 
 5146      7400
 5147              	.LASF85:
 5148 0579 73746172 		.ascii	"start\000"
 5148      7400
 5149              	.LASF31:
 5150 057f 706C6179 		.ascii	"playback_delay\000"
 5150      6261636B 
 5150      5F64656C 
 5150      617900
 5151              	.LASF24:
 5152 058e 75736572 		.ascii	"user_data\000"
 5152      5F646174 
 5152      6100
 5153              	.LASF45:
 5154 0598 73697A65 		.ascii	"sizetype\000"
 5154      74797065 
 5154      00
 5155              	.LASF30:
 5156 05a1 6163745F 		.ascii	"act_time\000"
 5156      74696D65 
 5156      00
 5157              	.LASF9:
 5158 05aa 6C6F6E67 		.ascii	"long unsigned int\000"
 5158      20756E73 
 5158      69676E65 
 5158      6420696E 
 5158      7400
 5159              	.LASF74:
 5160 05bc 6C765F61 		.ascii	"lv_anim_get_playtime\000"
 5160      6E696D5F 
 5160      6765745F 
 5160      706C6179 
 5160      74696D65 
 5161              	.LASF15:
 5162 05d1 696E7433 		.ascii	"int32_t\000"
 5162      325F7400 
 5163              	.LASF99:
 5164 05d9 6C765F74 		.ascii	"lv_timer_pause\000"
 5164      696D6572 
 5164      5F706175 
 5164      736500
 5165              	.LASF110:
 5166 05e8 5F6C765F 		.ascii	"_lv_ll_is_empty\000"
 5166      6C6C5F69 
 5166      735F656D 
 5166      70747900 
 5167              	.LASF83:
 5168 05f8 6C765F61 		.ascii	"lv_anim_speed_to_time\000"
 5168      6E696D5F 
 5168      73706565 
 5168      645F746F 
 5168      5F74696D 
 5169              	.LASF1:
 5170 060e 756E7369 		.ascii	"unsigned char\000"
 5170      676E6564 
ARM GAS  C:\Users\haske\AppData\Local\Temp\cceAapTu.s 			page 109


 5170      20636861 
 5170      7200
 5171              	.LASF63:
 5172 061c 616E696D 		.ascii	"anim_ready_handler\000"
 5172      5F726561 
 5172      64795F68 
 5172      616E646C 
 5172      657200
 5173              	.LASF8:
 5174 062f 5F5F7569 		.ascii	"__uint32_t\000"
 5174      6E743332 
 5174      5F7400
 5175              	.LASF62:
 5176 063a 616E696D 		.ascii	"anim_mark_list_change\000"
 5176      5F6D6172 
 5176      6B5F6C69 
 5176      73745F63 
 5176      68616E67 
 5177              	.LASF59:
 5178 0650 7461696C 		.ascii	"tail\000"
 5178      00
 5179              	.LASF81:
 5180 0655 6C765F61 		.ascii	"lv_anim_get\000"
 5180      6E696D5F 
 5180      67657400 
 5181              	.LASF34:
 5182 0661 72657065 		.ascii	"repeat_cnt\000"
 5182      61745F63 
 5182      6E7400
 5183              	.LASF118:
 5184 066c 6C765F61 		.ascii	"lv_anim_get_timer\000"
 5184      6E696D5F 
 5184      6765745F 
 5184      74696D65 
 5184      7200
 5185              	.LASF102:
 5186 067e 6C765F6D 		.ascii	"lv_mem_free\000"
 5186      656D5F66 
 5186      72656500 
 5187              	.LASF0:
 5188 068a 7369676E 		.ascii	"signed char\000"
 5188      65642063 
 5188      68617200 
 5189              	.LASF50:
 5190 0696 70657269 		.ascii	"period\000"
 5190      6F6400
 5191              	.LASF5:
 5192 069d 73686F72 		.ascii	"short unsigned int\000"
 5192      7420756E 
 5192      7369676E 
 5192      65642069 
 5192      6E7400
 5193              	.LASF53:
 5194 06b0 72657065 		.ascii	"repeat_count\000"
 5194      61745F63 
 5194      6F756E74 
 5194      00
ARM GAS  C:\Users\haske\AppData\Local\Temp\cceAapTu.s 			page 110


 5195              	.LASF80:
 5196 06bd 6C765F61 		.ascii	"lv_anim_del_all\000"
 5196      6E696D5F 
 5196      64656C5F 
 5196      616C6C00 
 5197              	.LASF52:
 5198 06cd 74696D65 		.ascii	"timer_cb\000"
 5198      725F6362 
 5198      00
 5199              	.LASF100:
 5200 06d6 6C765F74 		.ascii	"lv_timer_resume\000"
 5200      696D6572 
 5200      5F726573 
 5200      756D6500 
 5201              	.LASF66:
 5202 06e6 656C6170 		.ascii	"elaps\000"
 5202      7300
 5203              		.ident	"GCC: (GNU Tools for ARM Embedded Processors) 5.4.1 20160609 (release) [ARM/embedded-5-bran
