ARM GAS  C:\Users\haske\AppData\Local\Temp\cc8aWFqC.s 			page 1


   1              		.syntax unified
   2              		.cpu cortex-m0plus
   3              		.fpu softvfp
   4              		.eabi_attribute 20, 1
   5              		.eabi_attribute 21, 1
   6              		.eabi_attribute 23, 3
   7              		.eabi_attribute 24, 1
   8              		.eabi_attribute 25, 1
   9              		.eabi_attribute 26, 1
  10              		.eabi_attribute 30, 1
  11              		.eabi_attribute 34, 0
  12              		.eabi_attribute 18, 4
  13              		.thumb
  14              		.syntax unified
  15              		.file	"lv_anim_timeline.c"
  16              		.text
  17              	.Ltext0:
  18              		.cfi_sections	.debug_frame
  19              		.section	.text.lv_anim_timeline_virtual_exec_cb,"ax",%progbits
  20              		.align	2
  21              		.code	16
  22              		.thumb_func
  23              		.type	lv_anim_timeline_virtual_exec_cb, %function
  24              	lv_anim_timeline_virtual_exec_cb:
  25              	.LFB31:
  26              		.file 1 "..\\..\\..\\arduinoLCD\\test\\Pain Drain\\libraries\\lvgl\\src\\misc\\lv_anim_timeline.c"
   1:..\..\..\arduinoLCD\test\Pain Drain\libraries\lvgl\src\misc/lv_anim_timeline.c **** /**
   2:..\..\..\arduinoLCD\test\Pain Drain\libraries\lvgl\src\misc/lv_anim_timeline.c ****  * @file lv_anim_timeline.c
   3:..\..\..\arduinoLCD\test\Pain Drain\libraries\lvgl\src\misc/lv_anim_timeline.c ****  *
   4:..\..\..\arduinoLCD\test\Pain Drain\libraries\lvgl\src\misc/lv_anim_timeline.c ****  */
   5:..\..\..\arduinoLCD\test\Pain Drain\libraries\lvgl\src\misc/lv_anim_timeline.c **** 
   6:..\..\..\arduinoLCD\test\Pain Drain\libraries\lvgl\src\misc/lv_anim_timeline.c **** /*********************
   7:..\..\..\arduinoLCD\test\Pain Drain\libraries\lvgl\src\misc/lv_anim_timeline.c ****  *      INCLUDES
   8:..\..\..\arduinoLCD\test\Pain Drain\libraries\lvgl\src\misc/lv_anim_timeline.c ****  *********************/
   9:..\..\..\arduinoLCD\test\Pain Drain\libraries\lvgl\src\misc/lv_anim_timeline.c **** #include "lv_anim_timeline.h"
  10:..\..\..\arduinoLCD\test\Pain Drain\libraries\lvgl\src\misc/lv_anim_timeline.c **** #include "lv_mem.h"
  11:..\..\..\arduinoLCD\test\Pain Drain\libraries\lvgl\src\misc/lv_anim_timeline.c **** #include "lv_assert.h"
  12:..\..\..\arduinoLCD\test\Pain Drain\libraries\lvgl\src\misc/lv_anim_timeline.c **** 
  13:..\..\..\arduinoLCD\test\Pain Drain\libraries\lvgl\src\misc/lv_anim_timeline.c **** /*********************
  14:..\..\..\arduinoLCD\test\Pain Drain\libraries\lvgl\src\misc/lv_anim_timeline.c ****  *      DEFINES
  15:..\..\..\arduinoLCD\test\Pain Drain\libraries\lvgl\src\misc/lv_anim_timeline.c ****  *********************/
  16:..\..\..\arduinoLCD\test\Pain Drain\libraries\lvgl\src\misc/lv_anim_timeline.c **** 
  17:..\..\..\arduinoLCD\test\Pain Drain\libraries\lvgl\src\misc/lv_anim_timeline.c **** /**********************
  18:..\..\..\arduinoLCD\test\Pain Drain\libraries\lvgl\src\misc/lv_anim_timeline.c ****  *      TYPEDEFS
  19:..\..\..\arduinoLCD\test\Pain Drain\libraries\lvgl\src\misc/lv_anim_timeline.c ****  **********************/
  20:..\..\..\arduinoLCD\test\Pain Drain\libraries\lvgl\src\misc/lv_anim_timeline.c **** 
  21:..\..\..\arduinoLCD\test\Pain Drain\libraries\lvgl\src\misc/lv_anim_timeline.c **** /*Data of anim_timeline_dsc*/
  22:..\..\..\arduinoLCD\test\Pain Drain\libraries\lvgl\src\misc/lv_anim_timeline.c **** typedef struct {
  23:..\..\..\arduinoLCD\test\Pain Drain\libraries\lvgl\src\misc/lv_anim_timeline.c ****     lv_anim_t anim;
  24:..\..\..\arduinoLCD\test\Pain Drain\libraries\lvgl\src\misc/lv_anim_timeline.c ****     uint32_t start_time;
  25:..\..\..\arduinoLCD\test\Pain Drain\libraries\lvgl\src\misc/lv_anim_timeline.c **** } lv_anim_timeline_dsc_t;
  26:..\..\..\arduinoLCD\test\Pain Drain\libraries\lvgl\src\misc/lv_anim_timeline.c **** 
  27:..\..\..\arduinoLCD\test\Pain Drain\libraries\lvgl\src\misc/lv_anim_timeline.c **** /*Data of anim_timeline*/
  28:..\..\..\arduinoLCD\test\Pain Drain\libraries\lvgl\src\misc/lv_anim_timeline.c **** struct _lv_anim_timeline_t {
  29:..\..\..\arduinoLCD\test\Pain Drain\libraries\lvgl\src\misc/lv_anim_timeline.c ****     lv_anim_timeline_dsc_t * anim_dsc;  /**< Dynamically allocated anim dsc array*/
  30:..\..\..\arduinoLCD\test\Pain Drain\libraries\lvgl\src\misc/lv_anim_timeline.c ****     uint32_t anim_dsc_cnt;              /**< The length of anim dsc array*/
  31:..\..\..\arduinoLCD\test\Pain Drain\libraries\lvgl\src\misc/lv_anim_timeline.c ****     bool reverse;                       /**< Reverse playback*/
ARM GAS  C:\Users\haske\AppData\Local\Temp\cc8aWFqC.s 			page 2


  32:..\..\..\arduinoLCD\test\Pain Drain\libraries\lvgl\src\misc/lv_anim_timeline.c **** };
  33:..\..\..\arduinoLCD\test\Pain Drain\libraries\lvgl\src\misc/lv_anim_timeline.c **** 
  34:..\..\..\arduinoLCD\test\Pain Drain\libraries\lvgl\src\misc/lv_anim_timeline.c **** /**********************
  35:..\..\..\arduinoLCD\test\Pain Drain\libraries\lvgl\src\misc/lv_anim_timeline.c ****  *  STATIC PROTOTYPES
  36:..\..\..\arduinoLCD\test\Pain Drain\libraries\lvgl\src\misc/lv_anim_timeline.c ****  **********************/
  37:..\..\..\arduinoLCD\test\Pain Drain\libraries\lvgl\src\misc/lv_anim_timeline.c **** static void lv_anim_timeline_virtual_exec_cb(void * var, int32_t v);
  38:..\..\..\arduinoLCD\test\Pain Drain\libraries\lvgl\src\misc/lv_anim_timeline.c **** 
  39:..\..\..\arduinoLCD\test\Pain Drain\libraries\lvgl\src\misc/lv_anim_timeline.c **** /**********************
  40:..\..\..\arduinoLCD\test\Pain Drain\libraries\lvgl\src\misc/lv_anim_timeline.c ****  *  STATIC VARIABLES
  41:..\..\..\arduinoLCD\test\Pain Drain\libraries\lvgl\src\misc/lv_anim_timeline.c ****  **********************/
  42:..\..\..\arduinoLCD\test\Pain Drain\libraries\lvgl\src\misc/lv_anim_timeline.c **** 
  43:..\..\..\arduinoLCD\test\Pain Drain\libraries\lvgl\src\misc/lv_anim_timeline.c **** /**********************
  44:..\..\..\arduinoLCD\test\Pain Drain\libraries\lvgl\src\misc/lv_anim_timeline.c ****  *      MACROS
  45:..\..\..\arduinoLCD\test\Pain Drain\libraries\lvgl\src\misc/lv_anim_timeline.c ****  **********************/
  46:..\..\..\arduinoLCD\test\Pain Drain\libraries\lvgl\src\misc/lv_anim_timeline.c **** 
  47:..\..\..\arduinoLCD\test\Pain Drain\libraries\lvgl\src\misc/lv_anim_timeline.c **** /**********************
  48:..\..\..\arduinoLCD\test\Pain Drain\libraries\lvgl\src\misc/lv_anim_timeline.c ****  *   GLOBAL FUNCTIONS
  49:..\..\..\arduinoLCD\test\Pain Drain\libraries\lvgl\src\misc/lv_anim_timeline.c ****  **********************/
  50:..\..\..\arduinoLCD\test\Pain Drain\libraries\lvgl\src\misc/lv_anim_timeline.c **** 
  51:..\..\..\arduinoLCD\test\Pain Drain\libraries\lvgl\src\misc/lv_anim_timeline.c **** lv_anim_timeline_t * lv_anim_timeline_create(void)
  52:..\..\..\arduinoLCD\test\Pain Drain\libraries\lvgl\src\misc/lv_anim_timeline.c **** {
  53:..\..\..\arduinoLCD\test\Pain Drain\libraries\lvgl\src\misc/lv_anim_timeline.c ****     lv_anim_timeline_t * at = (lv_anim_timeline_t *)lv_mem_alloc(sizeof(lv_anim_timeline_t));
  54:..\..\..\arduinoLCD\test\Pain Drain\libraries\lvgl\src\misc/lv_anim_timeline.c **** 
  55:..\..\..\arduinoLCD\test\Pain Drain\libraries\lvgl\src\misc/lv_anim_timeline.c ****     LV_ASSERT_MALLOC(at);
  56:..\..\..\arduinoLCD\test\Pain Drain\libraries\lvgl\src\misc/lv_anim_timeline.c **** 
  57:..\..\..\arduinoLCD\test\Pain Drain\libraries\lvgl\src\misc/lv_anim_timeline.c ****     if(at) lv_memset_00(at, sizeof(lv_anim_timeline_t));
  58:..\..\..\arduinoLCD\test\Pain Drain\libraries\lvgl\src\misc/lv_anim_timeline.c **** 
  59:..\..\..\arduinoLCD\test\Pain Drain\libraries\lvgl\src\misc/lv_anim_timeline.c ****     return at;
  60:..\..\..\arduinoLCD\test\Pain Drain\libraries\lvgl\src\misc/lv_anim_timeline.c **** }
  61:..\..\..\arduinoLCD\test\Pain Drain\libraries\lvgl\src\misc/lv_anim_timeline.c **** 
  62:..\..\..\arduinoLCD\test\Pain Drain\libraries\lvgl\src\misc/lv_anim_timeline.c **** void lv_anim_timeline_del(lv_anim_timeline_t * at)
  63:..\..\..\arduinoLCD\test\Pain Drain\libraries\lvgl\src\misc/lv_anim_timeline.c **** {
  64:..\..\..\arduinoLCD\test\Pain Drain\libraries\lvgl\src\misc/lv_anim_timeline.c ****     LV_ASSERT_NULL(at);
  65:..\..\..\arduinoLCD\test\Pain Drain\libraries\lvgl\src\misc/lv_anim_timeline.c **** 
  66:..\..\..\arduinoLCD\test\Pain Drain\libraries\lvgl\src\misc/lv_anim_timeline.c ****     lv_anim_timeline_stop(at);
  67:..\..\..\arduinoLCD\test\Pain Drain\libraries\lvgl\src\misc/lv_anim_timeline.c **** 
  68:..\..\..\arduinoLCD\test\Pain Drain\libraries\lvgl\src\misc/lv_anim_timeline.c ****     lv_mem_free(at->anim_dsc);
  69:..\..\..\arduinoLCD\test\Pain Drain\libraries\lvgl\src\misc/lv_anim_timeline.c ****     lv_mem_free(at);
  70:..\..\..\arduinoLCD\test\Pain Drain\libraries\lvgl\src\misc/lv_anim_timeline.c **** }
  71:..\..\..\arduinoLCD\test\Pain Drain\libraries\lvgl\src\misc/lv_anim_timeline.c **** 
  72:..\..\..\arduinoLCD\test\Pain Drain\libraries\lvgl\src\misc/lv_anim_timeline.c **** void lv_anim_timeline_add(lv_anim_timeline_t * at, uint32_t start_time, lv_anim_t * a)
  73:..\..\..\arduinoLCD\test\Pain Drain\libraries\lvgl\src\misc/lv_anim_timeline.c **** {
  74:..\..\..\arduinoLCD\test\Pain Drain\libraries\lvgl\src\misc/lv_anim_timeline.c ****     LV_ASSERT_NULL(at);
  75:..\..\..\arduinoLCD\test\Pain Drain\libraries\lvgl\src\misc/lv_anim_timeline.c **** 
  76:..\..\..\arduinoLCD\test\Pain Drain\libraries\lvgl\src\misc/lv_anim_timeline.c ****     at->anim_dsc_cnt++;
  77:..\..\..\arduinoLCD\test\Pain Drain\libraries\lvgl\src\misc/lv_anim_timeline.c ****     at->anim_dsc = lv_mem_realloc(at->anim_dsc, at->anim_dsc_cnt * sizeof(lv_anim_timeline_dsc_t));
  78:..\..\..\arduinoLCD\test\Pain Drain\libraries\lvgl\src\misc/lv_anim_timeline.c **** 
  79:..\..\..\arduinoLCD\test\Pain Drain\libraries\lvgl\src\misc/lv_anim_timeline.c ****     LV_ASSERT_MALLOC(at->anim_dsc);
  80:..\..\..\arduinoLCD\test\Pain Drain\libraries\lvgl\src\misc/lv_anim_timeline.c **** 
  81:..\..\..\arduinoLCD\test\Pain Drain\libraries\lvgl\src\misc/lv_anim_timeline.c ****     at->anim_dsc[at->anim_dsc_cnt - 1].anim = *a;
  82:..\..\..\arduinoLCD\test\Pain Drain\libraries\lvgl\src\misc/lv_anim_timeline.c ****     at->anim_dsc[at->anim_dsc_cnt - 1].start_time = start_time;
  83:..\..\..\arduinoLCD\test\Pain Drain\libraries\lvgl\src\misc/lv_anim_timeline.c **** 
  84:..\..\..\arduinoLCD\test\Pain Drain\libraries\lvgl\src\misc/lv_anim_timeline.c ****     /*Add default var and virtual exec_cb, used to delete animation.*/
  85:..\..\..\arduinoLCD\test\Pain Drain\libraries\lvgl\src\misc/lv_anim_timeline.c ****     if(a->var == NULL && a->exec_cb == NULL) {
  86:..\..\..\arduinoLCD\test\Pain Drain\libraries\lvgl\src\misc/lv_anim_timeline.c ****         at->anim_dsc[at->anim_dsc_cnt - 1].anim.var = at;
  87:..\..\..\arduinoLCD\test\Pain Drain\libraries\lvgl\src\misc/lv_anim_timeline.c ****         at->anim_dsc[at->anim_dsc_cnt - 1].anim.exec_cb = lv_anim_timeline_virtual_exec_cb;
  88:..\..\..\arduinoLCD\test\Pain Drain\libraries\lvgl\src\misc/lv_anim_timeline.c ****     }
ARM GAS  C:\Users\haske\AppData\Local\Temp\cc8aWFqC.s 			page 3


  89:..\..\..\arduinoLCD\test\Pain Drain\libraries\lvgl\src\misc/lv_anim_timeline.c **** }
  90:..\..\..\arduinoLCD\test\Pain Drain\libraries\lvgl\src\misc/lv_anim_timeline.c **** 
  91:..\..\..\arduinoLCD\test\Pain Drain\libraries\lvgl\src\misc/lv_anim_timeline.c **** uint32_t lv_anim_timeline_start(lv_anim_timeline_t * at)
  92:..\..\..\arduinoLCD\test\Pain Drain\libraries\lvgl\src\misc/lv_anim_timeline.c **** {
  93:..\..\..\arduinoLCD\test\Pain Drain\libraries\lvgl\src\misc/lv_anim_timeline.c ****     LV_ASSERT_NULL(at);
  94:..\..\..\arduinoLCD\test\Pain Drain\libraries\lvgl\src\misc/lv_anim_timeline.c **** 
  95:..\..\..\arduinoLCD\test\Pain Drain\libraries\lvgl\src\misc/lv_anim_timeline.c ****     const uint32_t playtime = lv_anim_timeline_get_playtime(at);
  96:..\..\..\arduinoLCD\test\Pain Drain\libraries\lvgl\src\misc/lv_anim_timeline.c ****     bool reverse = at->reverse;
  97:..\..\..\arduinoLCD\test\Pain Drain\libraries\lvgl\src\misc/lv_anim_timeline.c **** 
  98:..\..\..\arduinoLCD\test\Pain Drain\libraries\lvgl\src\misc/lv_anim_timeline.c ****     for(uint32_t i = 0; i < at->anim_dsc_cnt; i++) {
  99:..\..\..\arduinoLCD\test\Pain Drain\libraries\lvgl\src\misc/lv_anim_timeline.c ****         lv_anim_t a = at->anim_dsc[i].anim;
 100:..\..\..\arduinoLCD\test\Pain Drain\libraries\lvgl\src\misc/lv_anim_timeline.c ****         uint32_t start_time = at->anim_dsc[i].start_time;
 101:..\..\..\arduinoLCD\test\Pain Drain\libraries\lvgl\src\misc/lv_anim_timeline.c **** 
 102:..\..\..\arduinoLCD\test\Pain Drain\libraries\lvgl\src\misc/lv_anim_timeline.c ****         if(reverse) {
 103:..\..\..\arduinoLCD\test\Pain Drain\libraries\lvgl\src\misc/lv_anim_timeline.c ****             int32_t temp = a.start_value;
 104:..\..\..\arduinoLCD\test\Pain Drain\libraries\lvgl\src\misc/lv_anim_timeline.c ****             a.start_value = a.end_value;
 105:..\..\..\arduinoLCD\test\Pain Drain\libraries\lvgl\src\misc/lv_anim_timeline.c ****             a.end_value = temp;
 106:..\..\..\arduinoLCD\test\Pain Drain\libraries\lvgl\src\misc/lv_anim_timeline.c ****             lv_anim_set_delay(&a, playtime - (start_time + a.time));
 107:..\..\..\arduinoLCD\test\Pain Drain\libraries\lvgl\src\misc/lv_anim_timeline.c ****         }
 108:..\..\..\arduinoLCD\test\Pain Drain\libraries\lvgl\src\misc/lv_anim_timeline.c ****         else {
 109:..\..\..\arduinoLCD\test\Pain Drain\libraries\lvgl\src\misc/lv_anim_timeline.c ****             lv_anim_set_delay(&a, start_time);
 110:..\..\..\arduinoLCD\test\Pain Drain\libraries\lvgl\src\misc/lv_anim_timeline.c ****         }
 111:..\..\..\arduinoLCD\test\Pain Drain\libraries\lvgl\src\misc/lv_anim_timeline.c **** 
 112:..\..\..\arduinoLCD\test\Pain Drain\libraries\lvgl\src\misc/lv_anim_timeline.c ****         lv_anim_start(&a);
 113:..\..\..\arduinoLCD\test\Pain Drain\libraries\lvgl\src\misc/lv_anim_timeline.c ****     }
 114:..\..\..\arduinoLCD\test\Pain Drain\libraries\lvgl\src\misc/lv_anim_timeline.c **** 
 115:..\..\..\arduinoLCD\test\Pain Drain\libraries\lvgl\src\misc/lv_anim_timeline.c ****     return playtime;
 116:..\..\..\arduinoLCD\test\Pain Drain\libraries\lvgl\src\misc/lv_anim_timeline.c **** }
 117:..\..\..\arduinoLCD\test\Pain Drain\libraries\lvgl\src\misc/lv_anim_timeline.c **** 
 118:..\..\..\arduinoLCD\test\Pain Drain\libraries\lvgl\src\misc/lv_anim_timeline.c **** void lv_anim_timeline_stop(lv_anim_timeline_t * at)
 119:..\..\..\arduinoLCD\test\Pain Drain\libraries\lvgl\src\misc/lv_anim_timeline.c **** {
 120:..\..\..\arduinoLCD\test\Pain Drain\libraries\lvgl\src\misc/lv_anim_timeline.c ****     LV_ASSERT_NULL(at);
 121:..\..\..\arduinoLCD\test\Pain Drain\libraries\lvgl\src\misc/lv_anim_timeline.c **** 
 122:..\..\..\arduinoLCD\test\Pain Drain\libraries\lvgl\src\misc/lv_anim_timeline.c ****     for(uint32_t i = 0; i < at->anim_dsc_cnt; i++) {
 123:..\..\..\arduinoLCD\test\Pain Drain\libraries\lvgl\src\misc/lv_anim_timeline.c ****         lv_anim_t * a = &(at->anim_dsc[i].anim);
 124:..\..\..\arduinoLCD\test\Pain Drain\libraries\lvgl\src\misc/lv_anim_timeline.c ****         lv_anim_del(a->var, a->exec_cb);
 125:..\..\..\arduinoLCD\test\Pain Drain\libraries\lvgl\src\misc/lv_anim_timeline.c ****     }
 126:..\..\..\arduinoLCD\test\Pain Drain\libraries\lvgl\src\misc/lv_anim_timeline.c **** }
 127:..\..\..\arduinoLCD\test\Pain Drain\libraries\lvgl\src\misc/lv_anim_timeline.c **** 
 128:..\..\..\arduinoLCD\test\Pain Drain\libraries\lvgl\src\misc/lv_anim_timeline.c **** void lv_anim_timeline_set_reverse(lv_anim_timeline_t * at, bool reverse)
 129:..\..\..\arduinoLCD\test\Pain Drain\libraries\lvgl\src\misc/lv_anim_timeline.c **** {
 130:..\..\..\arduinoLCD\test\Pain Drain\libraries\lvgl\src\misc/lv_anim_timeline.c ****     LV_ASSERT_NULL(at);
 131:..\..\..\arduinoLCD\test\Pain Drain\libraries\lvgl\src\misc/lv_anim_timeline.c ****     at->reverse = reverse;
 132:..\..\..\arduinoLCD\test\Pain Drain\libraries\lvgl\src\misc/lv_anim_timeline.c **** }
 133:..\..\..\arduinoLCD\test\Pain Drain\libraries\lvgl\src\misc/lv_anim_timeline.c **** 
 134:..\..\..\arduinoLCD\test\Pain Drain\libraries\lvgl\src\misc/lv_anim_timeline.c **** void lv_anim_timeline_set_progress(lv_anim_timeline_t * at, uint16_t progress)
 135:..\..\..\arduinoLCD\test\Pain Drain\libraries\lvgl\src\misc/lv_anim_timeline.c **** {
 136:..\..\..\arduinoLCD\test\Pain Drain\libraries\lvgl\src\misc/lv_anim_timeline.c ****     LV_ASSERT_NULL(at);
 137:..\..\..\arduinoLCD\test\Pain Drain\libraries\lvgl\src\misc/lv_anim_timeline.c **** 
 138:..\..\..\arduinoLCD\test\Pain Drain\libraries\lvgl\src\misc/lv_anim_timeline.c ****     const uint32_t playtime = lv_anim_timeline_get_playtime(at);
 139:..\..\..\arduinoLCD\test\Pain Drain\libraries\lvgl\src\misc/lv_anim_timeline.c ****     const uint32_t act_time = progress * playtime / 0xFFFF;
 140:..\..\..\arduinoLCD\test\Pain Drain\libraries\lvgl\src\misc/lv_anim_timeline.c **** 
 141:..\..\..\arduinoLCD\test\Pain Drain\libraries\lvgl\src\misc/lv_anim_timeline.c ****     for(uint32_t i = 0; i < at->anim_dsc_cnt; i++) {
 142:..\..\..\arduinoLCD\test\Pain Drain\libraries\lvgl\src\misc/lv_anim_timeline.c ****         lv_anim_t * a = &(at->anim_dsc[i].anim);
 143:..\..\..\arduinoLCD\test\Pain Drain\libraries\lvgl\src\misc/lv_anim_timeline.c **** 
 144:..\..\..\arduinoLCD\test\Pain Drain\libraries\lvgl\src\misc/lv_anim_timeline.c ****         if(a->exec_cb == NULL) {
 145:..\..\..\arduinoLCD\test\Pain Drain\libraries\lvgl\src\misc/lv_anim_timeline.c ****             continue;
ARM GAS  C:\Users\haske\AppData\Local\Temp\cc8aWFqC.s 			page 4


 146:..\..\..\arduinoLCD\test\Pain Drain\libraries\lvgl\src\misc/lv_anim_timeline.c ****         }
 147:..\..\..\arduinoLCD\test\Pain Drain\libraries\lvgl\src\misc/lv_anim_timeline.c **** 
 148:..\..\..\arduinoLCD\test\Pain Drain\libraries\lvgl\src\misc/lv_anim_timeline.c ****         uint32_t start_time = at->anim_dsc[i].start_time;
 149:..\..\..\arduinoLCD\test\Pain Drain\libraries\lvgl\src\misc/lv_anim_timeline.c ****         int32_t value = 0;
 150:..\..\..\arduinoLCD\test\Pain Drain\libraries\lvgl\src\misc/lv_anim_timeline.c **** 
 151:..\..\..\arduinoLCD\test\Pain Drain\libraries\lvgl\src\misc/lv_anim_timeline.c ****         if(act_time < start_time) {
 152:..\..\..\arduinoLCD\test\Pain Drain\libraries\lvgl\src\misc/lv_anim_timeline.c ****             value = a->start_value;
 153:..\..\..\arduinoLCD\test\Pain Drain\libraries\lvgl\src\misc/lv_anim_timeline.c ****         }
 154:..\..\..\arduinoLCD\test\Pain Drain\libraries\lvgl\src\misc/lv_anim_timeline.c ****         else if(act_time < (start_time + a->time)) {
 155:..\..\..\arduinoLCD\test\Pain Drain\libraries\lvgl\src\misc/lv_anim_timeline.c ****             a->act_time = act_time - start_time;
 156:..\..\..\arduinoLCD\test\Pain Drain\libraries\lvgl\src\misc/lv_anim_timeline.c ****             value = a->path_cb(a);
 157:..\..\..\arduinoLCD\test\Pain Drain\libraries\lvgl\src\misc/lv_anim_timeline.c ****         }
 158:..\..\..\arduinoLCD\test\Pain Drain\libraries\lvgl\src\misc/lv_anim_timeline.c ****         else {
 159:..\..\..\arduinoLCD\test\Pain Drain\libraries\lvgl\src\misc/lv_anim_timeline.c ****             value = a->end_value;
 160:..\..\..\arduinoLCD\test\Pain Drain\libraries\lvgl\src\misc/lv_anim_timeline.c ****         }
 161:..\..\..\arduinoLCD\test\Pain Drain\libraries\lvgl\src\misc/lv_anim_timeline.c **** 
 162:..\..\..\arduinoLCD\test\Pain Drain\libraries\lvgl\src\misc/lv_anim_timeline.c ****         a->exec_cb(a->var, value);
 163:..\..\..\arduinoLCD\test\Pain Drain\libraries\lvgl\src\misc/lv_anim_timeline.c ****     }
 164:..\..\..\arduinoLCD\test\Pain Drain\libraries\lvgl\src\misc/lv_anim_timeline.c **** }
 165:..\..\..\arduinoLCD\test\Pain Drain\libraries\lvgl\src\misc/lv_anim_timeline.c **** 
 166:..\..\..\arduinoLCD\test\Pain Drain\libraries\lvgl\src\misc/lv_anim_timeline.c **** uint32_t lv_anim_timeline_get_playtime(lv_anim_timeline_t * at)
 167:..\..\..\arduinoLCD\test\Pain Drain\libraries\lvgl\src\misc/lv_anim_timeline.c **** {
 168:..\..\..\arduinoLCD\test\Pain Drain\libraries\lvgl\src\misc/lv_anim_timeline.c ****     LV_ASSERT_NULL(at);
 169:..\..\..\arduinoLCD\test\Pain Drain\libraries\lvgl\src\misc/lv_anim_timeline.c **** 
 170:..\..\..\arduinoLCD\test\Pain Drain\libraries\lvgl\src\misc/lv_anim_timeline.c ****     uint32_t playtime = 0;
 171:..\..\..\arduinoLCD\test\Pain Drain\libraries\lvgl\src\misc/lv_anim_timeline.c ****     for(uint32_t i = 0; i < at->anim_dsc_cnt; i++) {
 172:..\..\..\arduinoLCD\test\Pain Drain\libraries\lvgl\src\misc/lv_anim_timeline.c ****         uint32_t end = lv_anim_get_playtime(&at->anim_dsc[i].anim);
 173:..\..\..\arduinoLCD\test\Pain Drain\libraries\lvgl\src\misc/lv_anim_timeline.c ****         if(end == LV_ANIM_PLAYTIME_INFINITE)
 174:..\..\..\arduinoLCD\test\Pain Drain\libraries\lvgl\src\misc/lv_anim_timeline.c ****             return end;
 175:..\..\..\arduinoLCD\test\Pain Drain\libraries\lvgl\src\misc/lv_anim_timeline.c ****         end += at->anim_dsc[i].start_time;
 176:..\..\..\arduinoLCD\test\Pain Drain\libraries\lvgl\src\misc/lv_anim_timeline.c ****         if(end > playtime) {
 177:..\..\..\arduinoLCD\test\Pain Drain\libraries\lvgl\src\misc/lv_anim_timeline.c ****             playtime = end;
 178:..\..\..\arduinoLCD\test\Pain Drain\libraries\lvgl\src\misc/lv_anim_timeline.c ****         }
 179:..\..\..\arduinoLCD\test\Pain Drain\libraries\lvgl\src\misc/lv_anim_timeline.c ****     }
 180:..\..\..\arduinoLCD\test\Pain Drain\libraries\lvgl\src\misc/lv_anim_timeline.c **** 
 181:..\..\..\arduinoLCD\test\Pain Drain\libraries\lvgl\src\misc/lv_anim_timeline.c ****     return playtime;
 182:..\..\..\arduinoLCD\test\Pain Drain\libraries\lvgl\src\misc/lv_anim_timeline.c **** }
 183:..\..\..\arduinoLCD\test\Pain Drain\libraries\lvgl\src\misc/lv_anim_timeline.c **** 
 184:..\..\..\arduinoLCD\test\Pain Drain\libraries\lvgl\src\misc/lv_anim_timeline.c **** bool lv_anim_timeline_get_reverse(lv_anim_timeline_t * at)
 185:..\..\..\arduinoLCD\test\Pain Drain\libraries\lvgl\src\misc/lv_anim_timeline.c **** {
 186:..\..\..\arduinoLCD\test\Pain Drain\libraries\lvgl\src\misc/lv_anim_timeline.c ****     LV_ASSERT_NULL(at);
 187:..\..\..\arduinoLCD\test\Pain Drain\libraries\lvgl\src\misc/lv_anim_timeline.c ****     return at->reverse;
 188:..\..\..\arduinoLCD\test\Pain Drain\libraries\lvgl\src\misc/lv_anim_timeline.c **** }
 189:..\..\..\arduinoLCD\test\Pain Drain\libraries\lvgl\src\misc/lv_anim_timeline.c **** 
 190:..\..\..\arduinoLCD\test\Pain Drain\libraries\lvgl\src\misc/lv_anim_timeline.c **** /**********************
 191:..\..\..\arduinoLCD\test\Pain Drain\libraries\lvgl\src\misc/lv_anim_timeline.c ****  *   STATIC FUNCTIONS
 192:..\..\..\arduinoLCD\test\Pain Drain\libraries\lvgl\src\misc/lv_anim_timeline.c ****  **********************/
 193:..\..\..\arduinoLCD\test\Pain Drain\libraries\lvgl\src\misc/lv_anim_timeline.c **** 
 194:..\..\..\arduinoLCD\test\Pain Drain\libraries\lvgl\src\misc/lv_anim_timeline.c **** static void lv_anim_timeline_virtual_exec_cb(void * var, int32_t v)
 195:..\..\..\arduinoLCD\test\Pain Drain\libraries\lvgl\src\misc/lv_anim_timeline.c **** {
  27              		.loc 1 195 0
  28              		.cfi_startproc
  29              		@ args = 0, pretend = 0, frame = 0
  30              		@ frame_needed = 0, uses_anonymous_args = 0
  31              		@ link register save eliminated.
  32              	.LVL0:
 196:..\..\..\arduinoLCD\test\Pain Drain\libraries\lvgl\src\misc/lv_anim_timeline.c ****     LV_UNUSED(var);
ARM GAS  C:\Users\haske\AppData\Local\Temp\cc8aWFqC.s 			page 5


 197:..\..\..\arduinoLCD\test\Pain Drain\libraries\lvgl\src\misc/lv_anim_timeline.c ****     LV_UNUSED(v);
 198:..\..\..\arduinoLCD\test\Pain Drain\libraries\lvgl\src\misc/lv_anim_timeline.c **** }
  33              		.loc 1 198 0
  34              		@ sp needed
  35 0000 7047     		bx	lr
  36              		.cfi_endproc
  37              	.LFE31:
  38              		.size	lv_anim_timeline_virtual_exec_cb, .-lv_anim_timeline_virtual_exec_cb
  39 0002 C046     		.section	.text.lv_anim_timeline_create,"ax",%progbits
  40              		.align	2
  41              		.global	lv_anim_timeline_create
  42              		.code	16
  43              		.thumb_func
  44              		.type	lv_anim_timeline_create, %function
  45              	lv_anim_timeline_create:
  46              	.LFB22:
  52:..\..\..\arduinoLCD\test\Pain Drain\libraries\lvgl\src\misc/lv_anim_timeline.c ****     lv_anim_timeline_t * at = (lv_anim_timeline_t *)lv_mem_alloc(sizeof(lv_anim_timeline_t));
  47              		.loc 1 52 0
  48              		.cfi_startproc
  49              		@ args = 0, pretend = 0, frame = 0
  50              		@ frame_needed = 0, uses_anonymous_args = 0
  51 0000 10B5     		push	{r4, lr}
  52              		.cfi_def_cfa_offset 8
  53              		.cfi_offset 4, -8
  54              		.cfi_offset 14, -4
  53:..\..\..\arduinoLCD\test\Pain Drain\libraries\lvgl\src\misc/lv_anim_timeline.c **** 
  55              		.loc 1 53 0
  56 0002 0C20     		movs	r0, #12
  57 0004 FFF7FEFF 		bl	lv_mem_alloc
  58              	.LVL1:
  59 0008 041E     		subs	r4, r0, #0
  60              	.LVL2:
  55:..\..\..\arduinoLCD\test\Pain Drain\libraries\lvgl\src\misc/lv_anim_timeline.c **** 
  61              		.loc 1 55 0
  62 000a 00D1     		bne	.L3
  63              	.L4:
  64 000c FEE7     		b	.L4
  65              	.L3:
  57:..\..\..\arduinoLCD\test\Pain Drain\libraries\lvgl\src\misc/lv_anim_timeline.c **** 
  66              		.loc 1 57 0
  67 000e 0028     		cmp	r0, #0
  68 0010 02D0     		beq	.L5
  57:..\..\..\arduinoLCD\test\Pain Drain\libraries\lvgl\src\misc/lv_anim_timeline.c **** 
  69              		.loc 1 57 0 is_stmt 0 discriminator 1
  70 0012 0C21     		movs	r1, #12
  71 0014 FFF7FEFF 		bl	lv_memset_00
  72              	.LVL3:
  73              	.L5:
  60:..\..\..\arduinoLCD\test\Pain Drain\libraries\lvgl\src\misc/lv_anim_timeline.c **** 
  74              		.loc 1 60 0 is_stmt 1
  75 0018 2000     		movs	r0, r4
  76              		@ sp needed
  77              	.LVL4:
  78 001a 10BD     		pop	{r4, pc}
  79              		.cfi_endproc
  80              	.LFE22:
  81              		.size	lv_anim_timeline_create, .-lv_anim_timeline_create
ARM GAS  C:\Users\haske\AppData\Local\Temp\cc8aWFqC.s 			page 6


  82              		.section	.text.lv_anim_timeline_add,"ax",%progbits
  83              		.align	2
  84              		.global	lv_anim_timeline_add
  85              		.code	16
  86              		.thumb_func
  87              		.type	lv_anim_timeline_add, %function
  88              	lv_anim_timeline_add:
  89              	.LFB24:
  73:..\..\..\arduinoLCD\test\Pain Drain\libraries\lvgl\src\misc/lv_anim_timeline.c ****     LV_ASSERT_NULL(at);
  90              		.loc 1 73 0
  91              		.cfi_startproc
  92              		@ args = 0, pretend = 0, frame = 0
  93              		@ frame_needed = 0, uses_anonymous_args = 0
  94              	.LVL5:
  95 0000 70B5     		push	{r4, r5, r6, lr}
  96              		.cfi_def_cfa_offset 16
  97              		.cfi_offset 4, -16
  98              		.cfi_offset 5, -12
  99              		.cfi_offset 6, -8
 100              		.cfi_offset 14, -4
 101 0002 0400     		movs	r4, r0
 102 0004 0E00     		movs	r6, r1
 103 0006 1500     		movs	r5, r2
  74:..\..\..\arduinoLCD\test\Pain Drain\libraries\lvgl\src\misc/lv_anim_timeline.c **** 
 104              		.loc 1 74 0
 105 0008 0028     		cmp	r0, #0
 106 000a 00D1     		bne	.L7
 107              	.L8:
 108 000c FEE7     		b	.L8
 109              	.L7:
  76:..\..\..\arduinoLCD\test\Pain Drain\libraries\lvgl\src\misc/lv_anim_timeline.c ****     at->anim_dsc = lv_mem_realloc(at->anim_dsc, at->anim_dsc_cnt * sizeof(lv_anim_timeline_dsc_t));
 110              		.loc 1 76 0
 111 000e 4368     		ldr	r3, [r0, #4]
 112 0010 0133     		adds	r3, r3, #1
 113 0012 4360     		str	r3, [r0, #4]
  77:..\..\..\arduinoLCD\test\Pain Drain\libraries\lvgl\src\misc/lv_anim_timeline.c **** 
 114              		.loc 1 77 0
 115 0014 DA00     		lsls	r2, r3, #3
 116              	.LVL6:
 117 0016 D318     		adds	r3, r2, r3
 118 0018 D900     		lsls	r1, r3, #3
 119              	.LVL7:
 120 001a 0068     		ldr	r0, [r0]
 121              	.LVL8:
 122 001c FFF7FEFF 		bl	lv_mem_realloc
 123              	.LVL9:
 124 0020 2060     		str	r0, [r4]
  79:..\..\..\arduinoLCD\test\Pain Drain\libraries\lvgl\src\misc/lv_anim_timeline.c **** 
 125              		.loc 1 79 0
 126 0022 0028     		cmp	r0, #0
 127 0024 00D1     		bne	.L9
 128              	.L10:
 129 0026 FEE7     		b	.L10
 130              	.L9:
  81:..\..\..\arduinoLCD\test\Pain Drain\libraries\lvgl\src\misc/lv_anim_timeline.c ****     at->anim_dsc[at->anim_dsc_cnt - 1].start_time = start_time;
 131              		.loc 1 81 0
 132 0028 6268     		ldr	r2, [r4, #4]
ARM GAS  C:\Users\haske\AppData\Local\Temp\cc8aWFqC.s 			page 7


 133 002a D300     		lsls	r3, r2, #3
 134 002c 9A18     		adds	r2, r3, r2
 135 002e D300     		lsls	r3, r2, #3
 136 0030 483B     		subs	r3, r3, #72
 137 0032 C018     		adds	r0, r0, r3
 138 0034 4422     		movs	r2, #68
 139 0036 2900     		movs	r1, r5
 140 0038 FFF7FEFF 		bl	memcpy
 141              	.LVL10:
  82:..\..\..\arduinoLCD\test\Pain Drain\libraries\lvgl\src\misc/lv_anim_timeline.c **** 
 142              		.loc 1 82 0
 143 003c 6368     		ldr	r3, [r4, #4]
 144 003e DA00     		lsls	r2, r3, #3
 145 0040 D218     		adds	r2, r2, r3
 146 0042 D300     		lsls	r3, r2, #3
 147 0044 483B     		subs	r3, r3, #72
 148 0046 2268     		ldr	r2, [r4]
 149 0048 9446     		mov	ip, r2
 150 004a 6344     		add	r3, r3, ip
 151 004c 5E64     		str	r6, [r3, #68]
  85:..\..\..\arduinoLCD\test\Pain Drain\libraries\lvgl\src\misc/lv_anim_timeline.c ****         at->anim_dsc[at->anim_dsc_cnt - 1].anim.var = at;
 152              		.loc 1 85 0
 153 004e 2B68     		ldr	r3, [r5]
 154 0050 002B     		cmp	r3, #0
 155 0052 12D1     		bne	.L6
  85:..\..\..\arduinoLCD\test\Pain Drain\libraries\lvgl\src\misc/lv_anim_timeline.c ****         at->anim_dsc[at->anim_dsc_cnt - 1].anim.var = at;
 156              		.loc 1 85 0 is_stmt 0 discriminator 1
 157 0054 6B68     		ldr	r3, [r5, #4]
 158 0056 002B     		cmp	r3, #0
 159 0058 0FD1     		bne	.L6
  86:..\..\..\arduinoLCD\test\Pain Drain\libraries\lvgl\src\misc/lv_anim_timeline.c ****         at->anim_dsc[at->anim_dsc_cnt - 1].anim.exec_cb = lv_anim_timeline_virtual_exec_cb;
 160              		.loc 1 86 0 is_stmt 1
 161 005a 6368     		ldr	r3, [r4, #4]
 162 005c DA00     		lsls	r2, r3, #3
 163 005e D318     		adds	r3, r2, r3
 164 0060 DA00     		lsls	r2, r3, #3
 165 0062 483A     		subs	r2, r2, #72
 166 0064 2368     		ldr	r3, [r4]
 167 0066 9C50     		str	r4, [r3, r2]
  87:..\..\..\arduinoLCD\test\Pain Drain\libraries\lvgl\src\misc/lv_anim_timeline.c ****     }
 168              		.loc 1 87 0
 169 0068 2168     		ldr	r1, [r4]
 170 006a 6268     		ldr	r2, [r4, #4]
 171 006c D300     		lsls	r3, r2, #3
 172 006e 9A18     		adds	r2, r3, r2
 173 0070 D300     		lsls	r3, r2, #3
 174 0072 483B     		subs	r3, r3, #72
 175 0074 CB18     		adds	r3, r1, r3
 176 0076 014A     		ldr	r2, .L12
 177 0078 5A60     		str	r2, [r3, #4]
 178              	.L6:
  89:..\..\..\arduinoLCD\test\Pain Drain\libraries\lvgl\src\misc/lv_anim_timeline.c **** 
 179              		.loc 1 89 0
 180              		@ sp needed
 181              	.LVL11:
 182              	.LVL12:
 183              	.LVL13:
ARM GAS  C:\Users\haske\AppData\Local\Temp\cc8aWFqC.s 			page 8


 184 007a 70BD     		pop	{r4, r5, r6, pc}
 185              	.L13:
 186              		.align	2
 187              	.L12:
 188 007c 00000000 		.word	lv_anim_timeline_virtual_exec_cb
 189              		.cfi_endproc
 190              	.LFE24:
 191              		.size	lv_anim_timeline_add, .-lv_anim_timeline_add
 192              		.section	.text.lv_anim_timeline_stop,"ax",%progbits
 193              		.align	2
 194              		.global	lv_anim_timeline_stop
 195              		.code	16
 196              		.thumb_func
 197              		.type	lv_anim_timeline_stop, %function
 198              	lv_anim_timeline_stop:
 199              	.LFB26:
 119:..\..\..\arduinoLCD\test\Pain Drain\libraries\lvgl\src\misc/lv_anim_timeline.c ****     LV_ASSERT_NULL(at);
 200              		.loc 1 119 0
 201              		.cfi_startproc
 202              		@ args = 0, pretend = 0, frame = 0
 203              		@ frame_needed = 0, uses_anonymous_args = 0
 204              	.LVL14:
 205 0000 70B5     		push	{r4, r5, r6, lr}
 206              		.cfi_def_cfa_offset 16
 207              		.cfi_offset 4, -16
 208              		.cfi_offset 5, -12
 209              		.cfi_offset 6, -8
 210              		.cfi_offset 14, -4
 211 0002 051E     		subs	r5, r0, #0
 120:..\..\..\arduinoLCD\test\Pain Drain\libraries\lvgl\src\misc/lv_anim_timeline.c **** 
 212              		.loc 1 120 0
 213 0004 0CD1     		bne	.L18
 214              	.L16:
 215 0006 FEE7     		b	.L16
 216              	.LVL15:
 217              	.L17:
 218              	.LBB9:
 219              	.LBB10:
 123:..\..\..\arduinoLCD\test\Pain Drain\libraries\lvgl\src\misc/lv_anim_timeline.c ****         lv_anim_del(a->var, a->exec_cb);
 220              		.loc 1 123 0 discriminator 3
 221 0008 E200     		lsls	r2, r4, #3
 222 000a 1219     		adds	r2, r2, r4
 223 000c D300     		lsls	r3, r2, #3
 224 000e 2A68     		ldr	r2, [r5]
 225 0010 9446     		mov	ip, r2
 226 0012 6344     		add	r3, r3, ip
 227              	.LVL16:
 124:..\..\..\arduinoLCD\test\Pain Drain\libraries\lvgl\src\misc/lv_anim_timeline.c ****     }
 228              		.loc 1 124 0 discriminator 3
 229 0014 5968     		ldr	r1, [r3, #4]
 230 0016 1868     		ldr	r0, [r3]
 231 0018 FFF7FEFF 		bl	lv_anim_del
 232              	.LVL17:
 233              	.LBE10:
 122:..\..\..\arduinoLCD\test\Pain Drain\libraries\lvgl\src\misc/lv_anim_timeline.c ****         lv_anim_t * a = &(at->anim_dsc[i].anim);
 234              		.loc 1 122 0 discriminator 3
 235 001c 0134     		adds	r4, r4, #1
ARM GAS  C:\Users\haske\AppData\Local\Temp\cc8aWFqC.s 			page 9


 236              	.LVL18:
 237 001e 00E0     		b	.L15
 238              	.LVL19:
 239              	.L18:
 240              	.LBE9:
 241 0020 0024     		movs	r4, #0
 242              	.LVL20:
 243              	.L15:
 244              	.LBB11:
 122:..\..\..\arduinoLCD\test\Pain Drain\libraries\lvgl\src\misc/lv_anim_timeline.c ****         lv_anim_t * a = &(at->anim_dsc[i].anim);
 245              		.loc 1 122 0 is_stmt 0 discriminator 1
 246 0022 6B68     		ldr	r3, [r5, #4]
 247 0024 9C42     		cmp	r4, r3
 248 0026 EFD3     		bcc	.L17
 249              	.LBE11:
 126:..\..\..\arduinoLCD\test\Pain Drain\libraries\lvgl\src\misc/lv_anim_timeline.c **** 
 250              		.loc 1 126 0 is_stmt 1
 251              		@ sp needed
 252              	.LVL21:
 253              	.LVL22:
 254 0028 70BD     		pop	{r4, r5, r6, pc}
 255              		.cfi_endproc
 256              	.LFE26:
 257              		.size	lv_anim_timeline_stop, .-lv_anim_timeline_stop
 258 002a C046     		.section	.text.lv_anim_timeline_del,"ax",%progbits
 259              		.align	2
 260              		.global	lv_anim_timeline_del
 261              		.code	16
 262              		.thumb_func
 263              		.type	lv_anim_timeline_del, %function
 264              	lv_anim_timeline_del:
 265              	.LFB23:
  63:..\..\..\arduinoLCD\test\Pain Drain\libraries\lvgl\src\misc/lv_anim_timeline.c ****     LV_ASSERT_NULL(at);
 266              		.loc 1 63 0
 267              		.cfi_startproc
 268              		@ args = 0, pretend = 0, frame = 0
 269              		@ frame_needed = 0, uses_anonymous_args = 0
 270              	.LVL23:
 271 0000 10B5     		push	{r4, lr}
 272              		.cfi_def_cfa_offset 8
 273              		.cfi_offset 4, -8
 274              		.cfi_offset 14, -4
 275 0002 041E     		subs	r4, r0, #0
  64:..\..\..\arduinoLCD\test\Pain Drain\libraries\lvgl\src\misc/lv_anim_timeline.c **** 
 276              		.loc 1 64 0
 277 0004 00D1     		bne	.L20
 278              	.L21:
 279 0006 FEE7     		b	.L21
 280              	.L20:
  66:..\..\..\arduinoLCD\test\Pain Drain\libraries\lvgl\src\misc/lv_anim_timeline.c **** 
 281              		.loc 1 66 0
 282 0008 FFF7FEFF 		bl	lv_anim_timeline_stop
 283              	.LVL24:
  68:..\..\..\arduinoLCD\test\Pain Drain\libraries\lvgl\src\misc/lv_anim_timeline.c ****     lv_mem_free(at);
 284              		.loc 1 68 0
 285 000c 2068     		ldr	r0, [r4]
 286 000e FFF7FEFF 		bl	lv_mem_free
ARM GAS  C:\Users\haske\AppData\Local\Temp\cc8aWFqC.s 			page 10


 287              	.LVL25:
  69:..\..\..\arduinoLCD\test\Pain Drain\libraries\lvgl\src\misc/lv_anim_timeline.c **** }
 288              		.loc 1 69 0
 289 0012 2000     		movs	r0, r4
 290 0014 FFF7FEFF 		bl	lv_mem_free
 291              	.LVL26:
  70:..\..\..\arduinoLCD\test\Pain Drain\libraries\lvgl\src\misc/lv_anim_timeline.c **** 
 292              		.loc 1 70 0
 293              		@ sp needed
 294              	.LVL27:
 295 0018 10BD     		pop	{r4, pc}
 296              		.cfi_endproc
 297              	.LFE23:
 298              		.size	lv_anim_timeline_del, .-lv_anim_timeline_del
 299 001a C046     		.section	.text.lv_anim_timeline_set_reverse,"ax",%progbits
 300              		.align	2
 301              		.global	lv_anim_timeline_set_reverse
 302              		.code	16
 303              		.thumb_func
 304              		.type	lv_anim_timeline_set_reverse, %function
 305              	lv_anim_timeline_set_reverse:
 306              	.LFB27:
 129:..\..\..\arduinoLCD\test\Pain Drain\libraries\lvgl\src\misc/lv_anim_timeline.c ****     LV_ASSERT_NULL(at);
 307              		.loc 1 129 0
 308              		.cfi_startproc
 309              		@ args = 0, pretend = 0, frame = 0
 310              		@ frame_needed = 0, uses_anonymous_args = 0
 311              		@ link register save eliminated.
 312              	.LVL28:
 130:..\..\..\arduinoLCD\test\Pain Drain\libraries\lvgl\src\misc/lv_anim_timeline.c ****     at->reverse = reverse;
 313              		.loc 1 130 0
 314 0000 0028     		cmp	r0, #0
 315 0002 00D1     		bne	.L23
 316              	.L24:
 317 0004 FEE7     		b	.L24
 318              	.L23:
 131:..\..\..\arduinoLCD\test\Pain Drain\libraries\lvgl\src\misc/lv_anim_timeline.c **** }
 319              		.loc 1 131 0
 320 0006 0172     		strb	r1, [r0, #8]
 132:..\..\..\arduinoLCD\test\Pain Drain\libraries\lvgl\src\misc/lv_anim_timeline.c **** 
 321              		.loc 1 132 0
 322              		@ sp needed
 323 0008 7047     		bx	lr
 324              		.cfi_endproc
 325              	.LFE27:
 326              		.size	lv_anim_timeline_set_reverse, .-lv_anim_timeline_set_reverse
 327 000a C046     		.section	.text.lv_anim_timeline_get_playtime,"ax",%progbits
 328              		.align	2
 329              		.global	lv_anim_timeline_get_playtime
 330              		.code	16
 331              		.thumb_func
 332              		.type	lv_anim_timeline_get_playtime, %function
 333              	lv_anim_timeline_get_playtime:
 334              	.LFB29:
 167:..\..\..\arduinoLCD\test\Pain Drain\libraries\lvgl\src\misc/lv_anim_timeline.c ****     LV_ASSERT_NULL(at);
 335              		.loc 1 167 0
 336              		.cfi_startproc
ARM GAS  C:\Users\haske\AppData\Local\Temp\cc8aWFqC.s 			page 11


 337              		@ args = 0, pretend = 0, frame = 0
 338              		@ frame_needed = 0, uses_anonymous_args = 0
 339              	.LVL29:
 340 0000 F8B5     		push	{r3, r4, r5, r6, r7, lr}
 341              		.cfi_def_cfa_offset 24
 342              		.cfi_offset 3, -24
 343              		.cfi_offset 4, -20
 344              		.cfi_offset 5, -16
 345              		.cfi_offset 6, -12
 346              		.cfi_offset 7, -8
 347              		.cfi_offset 14, -4
 348 0002 061E     		subs	r6, r0, #0
 168:..\..\..\arduinoLCD\test\Pain Drain\libraries\lvgl\src\misc/lv_anim_timeline.c **** 
 349              		.loc 1 168 0
 350 0004 13D1     		bne	.L31
 351              	.L27:
 352 0006 FEE7     		b	.L27
 353              	.LVL30:
 354              	.L30:
 355              	.LBB12:
 356              	.LBB13:
 172:..\..\..\arduinoLCD\test\Pain Drain\libraries\lvgl\src\misc/lv_anim_timeline.c ****         if(end == LV_ANIM_PLAYTIME_INFINITE)
 357              		.loc 1 172 0
 358 0008 EB00     		lsls	r3, r5, #3
 359 000a 5B19     		adds	r3, r3, r5
 360 000c DC00     		lsls	r4, r3, #3
 361 000e 3368     		ldr	r3, [r6]
 362 0010 1819     		adds	r0, r3, r4
 363 0012 FFF7FEFF 		bl	lv_anim_get_playtime
 364              	.LVL31:
 173:..\..\..\arduinoLCD\test\Pain Drain\libraries\lvgl\src\misc/lv_anim_timeline.c ****             return end;
 365              		.loc 1 173 0
 366 0016 431C     		adds	r3, r0, #1
 367 0018 0FD0     		beq	.L28
 175:..\..\..\arduinoLCD\test\Pain Drain\libraries\lvgl\src\misc/lv_anim_timeline.c ****         if(end > playtime) {
 368              		.loc 1 175 0
 369 001a 3368     		ldr	r3, [r6]
 370 001c 9C46     		mov	ip, r3
 371 001e 6444     		add	r4, r4, ip
 372 0020 636C     		ldr	r3, [r4, #68]
 373 0022 C018     		adds	r0, r0, r3
 374              	.LVL32:
 176:..\..\..\arduinoLCD\test\Pain Drain\libraries\lvgl\src\misc/lv_anim_timeline.c ****             playtime = end;
 375              		.loc 1 176 0
 376 0024 8742     		cmp	r7, r0
 377 0026 00D2     		bcs	.L29
 177:..\..\..\arduinoLCD\test\Pain Drain\libraries\lvgl\src\misc/lv_anim_timeline.c ****         }
 378              		.loc 1 177 0
 379 0028 0700     		movs	r7, r0
 380              	.LVL33:
 381              	.L29:
 382              	.LBE13:
 171:..\..\..\arduinoLCD\test\Pain Drain\libraries\lvgl\src\misc/lv_anim_timeline.c ****         uint32_t end = lv_anim_get_playtime(&at->anim_dsc[i].anim);
 383              		.loc 1 171 0 discriminator 2
 384 002a 0135     		adds	r5, r5, #1
 385              	.LVL34:
 386 002c 01E0     		b	.L26
ARM GAS  C:\Users\haske\AppData\Local\Temp\cc8aWFqC.s 			page 12


 387              	.LVL35:
 388              	.L31:
 389              	.LBE12:
 390 002e 0025     		movs	r5, #0
 391 0030 0027     		movs	r7, #0
 392              	.LVL36:
 393              	.L26:
 394              	.LBB14:
 171:..\..\..\arduinoLCD\test\Pain Drain\libraries\lvgl\src\misc/lv_anim_timeline.c ****         uint32_t end = lv_anim_get_playtime(&at->anim_dsc[i].anim);
 395              		.loc 1 171 0 is_stmt 0 discriminator 1
 396 0032 7368     		ldr	r3, [r6, #4]
 397 0034 9D42     		cmp	r5, r3
 398 0036 E7D3     		bcc	.L30
 399              	.LBE14:
 181:..\..\..\arduinoLCD\test\Pain Drain\libraries\lvgl\src\misc/lv_anim_timeline.c **** }
 400              		.loc 1 181 0 is_stmt 1
 401 0038 3800     		movs	r0, r7
 402              	.L28:
 182:..\..\..\arduinoLCD\test\Pain Drain\libraries\lvgl\src\misc/lv_anim_timeline.c **** 
 403              		.loc 1 182 0
 404              		@ sp needed
 405              	.LVL37:
 406              	.LVL38:
 407              	.LVL39:
 408 003a F8BD     		pop	{r3, r4, r5, r6, r7, pc}
 409              		.cfi_endproc
 410              	.LFE29:
 411              		.size	lv_anim_timeline_get_playtime, .-lv_anim_timeline_get_playtime
 412              		.section	.text.lv_anim_timeline_start,"ax",%progbits
 413              		.align	2
 414              		.global	lv_anim_timeline_start
 415              		.code	16
 416              		.thumb_func
 417              		.type	lv_anim_timeline_start, %function
 418              	lv_anim_timeline_start:
 419              	.LFB25:
  92:..\..\..\arduinoLCD\test\Pain Drain\libraries\lvgl\src\misc/lv_anim_timeline.c ****     LV_ASSERT_NULL(at);
 420              		.loc 1 92 0
 421              		.cfi_startproc
 422              		@ args = 0, pretend = 0, frame = 80
 423              		@ frame_needed = 0, uses_anonymous_args = 0
 424              	.LVL40:
 425 0000 F0B5     		push	{r4, r5, r6, r7, lr}
 426              		.cfi_def_cfa_offset 20
 427              		.cfi_offset 4, -20
 428              		.cfi_offset 5, -16
 429              		.cfi_offset 6, -12
 430              		.cfi_offset 7, -8
 431              		.cfi_offset 14, -4
 432 0002 95B0     		sub	sp, sp, #84
 433              		.cfi_def_cfa_offset 104
 434 0004 071E     		subs	r7, r0, #0
  93:..\..\..\arduinoLCD\test\Pain Drain\libraries\lvgl\src\misc/lv_anim_timeline.c **** 
 435              		.loc 1 93 0
 436 0006 00D1     		bne	.L35
 437              	.L36:
 438 0008 FEE7     		b	.L36
ARM GAS  C:\Users\haske\AppData\Local\Temp\cc8aWFqC.s 			page 13


 439              	.L35:
  95:..\..\..\arduinoLCD\test\Pain Drain\libraries\lvgl\src\misc/lv_anim_timeline.c ****     bool reverse = at->reverse;
 440              		.loc 1 95 0
 441 000a FFF7FEFF 		bl	lv_anim_timeline_get_playtime
 442              	.LVL41:
 443 000e 0090     		str	r0, [sp]
 444              	.LVL42:
  96:..\..\..\arduinoLCD\test\Pain Drain\libraries\lvgl\src\misc/lv_anim_timeline.c **** 
 445              		.loc 1 96 0
 446 0010 3E7A     		ldrb	r6, [r7, #8]
 447              	.LVL43:
 448              	.LBB15:
  98:..\..\..\arduinoLCD\test\Pain Drain\libraries\lvgl\src\misc/lv_anim_timeline.c ****         lv_anim_t a = at->anim_dsc[i].anim;
 449              		.loc 1 98 0
 450 0012 0025     		movs	r5, #0
 451 0014 20E0     		b	.L37
 452              	.LVL44:
 453              	.L40:
 454              	.LBB16:
  99:..\..\..\arduinoLCD\test\Pain Drain\libraries\lvgl\src\misc/lv_anim_timeline.c ****         uint32_t start_time = at->anim_dsc[i].start_time;
 455              		.loc 1 99 0
 456 0016 EB00     		lsls	r3, r5, #3
 457 0018 5B19     		adds	r3, r3, r5
 458 001a DC00     		lsls	r4, r3, #3
 459 001c 3B68     		ldr	r3, [r7]
 460 001e 1919     		adds	r1, r3, r4
 461 0020 4422     		movs	r2, #68
 462 0022 03A8     		add	r0, sp, #12
 463 0024 FFF7FEFF 		bl	memcpy
 464              	.LVL45:
 100:..\..\..\arduinoLCD\test\Pain Drain\libraries\lvgl\src\misc/lv_anim_timeline.c **** 
 465              		.loc 1 100 0
 466 0028 3B68     		ldr	r3, [r7]
 467 002a 9C46     		mov	ip, r3
 468 002c 6444     		add	r4, r4, ip
 469 002e 636C     		ldr	r3, [r4, #68]
 470              	.LVL46:
 102:..\..\..\arduinoLCD\test\Pain Drain\libraries\lvgl\src\misc/lv_anim_timeline.c ****             int32_t temp = a.start_value;
 471              		.loc 1 102 0
 472 0030 002E     		cmp	r6, #0
 473 0032 0BD0     		beq	.L38
 474              	.LBB17:
 103:..\..\..\arduinoLCD\test\Pain Drain\libraries\lvgl\src\misc/lv_anim_timeline.c ****             a.start_value = a.end_value;
 475              		.loc 1 103 0
 476 0034 0B9A     		ldr	r2, [sp, #44]
 477              	.LVL47:
 104:..\..\..\arduinoLCD\test\Pain Drain\libraries\lvgl\src\misc/lv_anim_timeline.c ****             a.end_value = temp;
 478              		.loc 1 104 0
 479 0036 0D99     		ldr	r1, [sp, #52]
 480 0038 0B91     		str	r1, [sp, #44]
 105:..\..\..\arduinoLCD\test\Pain Drain\libraries\lvgl\src\misc/lv_anim_timeline.c ****             lv_anim_set_delay(&a, playtime - (start_time + a.time));
 481              		.loc 1 105 0
 482 003a 0D92     		str	r2, [sp, #52]
 106:..\..\..\arduinoLCD\test\Pain Drain\libraries\lvgl\src\misc/lv_anim_timeline.c ****         }
 483              		.loc 1 106 0
 484 003c 0E9A     		ldr	r2, [sp, #56]
 485              	.LVL48:
ARM GAS  C:\Users\haske\AppData\Local\Temp\cc8aWFqC.s 			page 14


 486 003e 0192     		str	r2, [sp, #4]
 487 0040 9446     		mov	ip, r2
 488 0042 6344     		add	r3, r3, ip
 489              	.LVL49:
 490              	.LBB18:
 491              	.LBB19:
 492              		.file 2 "..\\..\\..\\arduinoLCD\\test\\Pain Drain\\libraries\\lvgl\\src\\misc\\lv_anim.h"
   1:..\..\..\arduinoLCD\test\Pain Drain\libraries\lvgl\src\misc/lv_anim.h **** /**
   2:..\..\..\arduinoLCD\test\Pain Drain\libraries\lvgl\src\misc/lv_anim.h ****  * @file lv_anim.h
   3:..\..\..\arduinoLCD\test\Pain Drain\libraries\lvgl\src\misc/lv_anim.h ****  *
   4:..\..\..\arduinoLCD\test\Pain Drain\libraries\lvgl\src\misc/lv_anim.h ****  */
   5:..\..\..\arduinoLCD\test\Pain Drain\libraries\lvgl\src\misc/lv_anim.h **** 
   6:..\..\..\arduinoLCD\test\Pain Drain\libraries\lvgl\src\misc/lv_anim.h **** #ifndef LV_ANIM_H
   7:..\..\..\arduinoLCD\test\Pain Drain\libraries\lvgl\src\misc/lv_anim.h **** #define LV_ANIM_H
   8:..\..\..\arduinoLCD\test\Pain Drain\libraries\lvgl\src\misc/lv_anim.h **** 
   9:..\..\..\arduinoLCD\test\Pain Drain\libraries\lvgl\src\misc/lv_anim.h **** #ifdef __cplusplus
  10:..\..\..\arduinoLCD\test\Pain Drain\libraries\lvgl\src\misc/lv_anim.h **** extern "C" {
  11:..\..\..\arduinoLCD\test\Pain Drain\libraries\lvgl\src\misc/lv_anim.h **** #endif
  12:..\..\..\arduinoLCD\test\Pain Drain\libraries\lvgl\src\misc/lv_anim.h **** 
  13:..\..\..\arduinoLCD\test\Pain Drain\libraries\lvgl\src\misc/lv_anim.h **** /*********************
  14:..\..\..\arduinoLCD\test\Pain Drain\libraries\lvgl\src\misc/lv_anim.h ****  *      INCLUDES
  15:..\..\..\arduinoLCD\test\Pain Drain\libraries\lvgl\src\misc/lv_anim.h ****  *********************/
  16:..\..\..\arduinoLCD\test\Pain Drain\libraries\lvgl\src\misc/lv_anim.h **** #include "../lv_conf_internal.h"
  17:..\..\..\arduinoLCD\test\Pain Drain\libraries\lvgl\src\misc/lv_anim.h **** 
  18:..\..\..\arduinoLCD\test\Pain Drain\libraries\lvgl\src\misc/lv_anim.h **** #include <stdint.h>
  19:..\..\..\arduinoLCD\test\Pain Drain\libraries\lvgl\src\misc/lv_anim.h **** #include <stdbool.h>
  20:..\..\..\arduinoLCD\test\Pain Drain\libraries\lvgl\src\misc/lv_anim.h **** #include <stddef.h>
  21:..\..\..\arduinoLCD\test\Pain Drain\libraries\lvgl\src\misc/lv_anim.h **** 
  22:..\..\..\arduinoLCD\test\Pain Drain\libraries\lvgl\src\misc/lv_anim.h **** /*********************
  23:..\..\..\arduinoLCD\test\Pain Drain\libraries\lvgl\src\misc/lv_anim.h ****  *      DEFINES
  24:..\..\..\arduinoLCD\test\Pain Drain\libraries\lvgl\src\misc/lv_anim.h ****  *********************/
  25:..\..\..\arduinoLCD\test\Pain Drain\libraries\lvgl\src\misc/lv_anim.h **** 
  26:..\..\..\arduinoLCD\test\Pain Drain\libraries\lvgl\src\misc/lv_anim.h **** #define LV_ANIM_REPEAT_INFINITE      0xFFFF
  27:..\..\..\arduinoLCD\test\Pain Drain\libraries\lvgl\src\misc/lv_anim.h **** #define LV_ANIM_PLAYTIME_INFINITE    0xFFFFFFFF
  28:..\..\..\arduinoLCD\test\Pain Drain\libraries\lvgl\src\misc/lv_anim.h **** 
  29:..\..\..\arduinoLCD\test\Pain Drain\libraries\lvgl\src\misc/lv_anim.h **** LV_EXPORT_CONST_INT(LV_ANIM_REPEAT_INFINITE);
  30:..\..\..\arduinoLCD\test\Pain Drain\libraries\lvgl\src\misc/lv_anim.h **** LV_EXPORT_CONST_INT(LV_ANIM_PLAYTIME_INFINITE);
  31:..\..\..\arduinoLCD\test\Pain Drain\libraries\lvgl\src\misc/lv_anim.h **** 
  32:..\..\..\arduinoLCD\test\Pain Drain\libraries\lvgl\src\misc/lv_anim.h **** /**********************
  33:..\..\..\arduinoLCD\test\Pain Drain\libraries\lvgl\src\misc/lv_anim.h ****  *      TYPEDEFS
  34:..\..\..\arduinoLCD\test\Pain Drain\libraries\lvgl\src\misc/lv_anim.h ****  **********************/
  35:..\..\..\arduinoLCD\test\Pain Drain\libraries\lvgl\src\misc/lv_anim.h **** 
  36:..\..\..\arduinoLCD\test\Pain Drain\libraries\lvgl\src\misc/lv_anim.h **** /** Can be used to indicate if animations are enabled or disabled in a case*/
  37:..\..\..\arduinoLCD\test\Pain Drain\libraries\lvgl\src\misc/lv_anim.h **** typedef enum {
  38:..\..\..\arduinoLCD\test\Pain Drain\libraries\lvgl\src\misc/lv_anim.h ****     LV_ANIM_OFF,
  39:..\..\..\arduinoLCD\test\Pain Drain\libraries\lvgl\src\misc/lv_anim.h ****     LV_ANIM_ON,
  40:..\..\..\arduinoLCD\test\Pain Drain\libraries\lvgl\src\misc/lv_anim.h **** } lv_anim_enable_t;
  41:..\..\..\arduinoLCD\test\Pain Drain\libraries\lvgl\src\misc/lv_anim.h **** 
  42:..\..\..\arduinoLCD\test\Pain Drain\libraries\lvgl\src\misc/lv_anim.h **** struct _lv_anim_t;
  43:..\..\..\arduinoLCD\test\Pain Drain\libraries\lvgl\src\misc/lv_anim.h **** struct _lv_timer_t;
  44:..\..\..\arduinoLCD\test\Pain Drain\libraries\lvgl\src\misc/lv_anim.h **** 
  45:..\..\..\arduinoLCD\test\Pain Drain\libraries\lvgl\src\misc/lv_anim.h **** /** Get the current value during an animation*/
  46:..\..\..\arduinoLCD\test\Pain Drain\libraries\lvgl\src\misc/lv_anim.h **** typedef int32_t (*lv_anim_path_cb_t)(const struct _lv_anim_t *);
  47:..\..\..\arduinoLCD\test\Pain Drain\libraries\lvgl\src\misc/lv_anim.h **** 
  48:..\..\..\arduinoLCD\test\Pain Drain\libraries\lvgl\src\misc/lv_anim.h **** /** Generic prototype of "animator" functions.
  49:..\..\..\arduinoLCD\test\Pain Drain\libraries\lvgl\src\misc/lv_anim.h ****  * First parameter is the variable to animate.
  50:..\..\..\arduinoLCD\test\Pain Drain\libraries\lvgl\src\misc/lv_anim.h ****  * Second parameter is the value to set.
ARM GAS  C:\Users\haske\AppData\Local\Temp\cc8aWFqC.s 			page 15


  51:..\..\..\arduinoLCD\test\Pain Drain\libraries\lvgl\src\misc/lv_anim.h ****  * Compatible with `lv_xxx_set_yyy(obj, value)` functions
  52:..\..\..\arduinoLCD\test\Pain Drain\libraries\lvgl\src\misc/lv_anim.h ****  * The `x` in `_xcb_t` means it's not a fully generic prototype because
  53:..\..\..\arduinoLCD\test\Pain Drain\libraries\lvgl\src\misc/lv_anim.h ****  * it doesn't receive `lv_anim_t *` as its first argument*/
  54:..\..\..\arduinoLCD\test\Pain Drain\libraries\lvgl\src\misc/lv_anim.h **** typedef void (*lv_anim_exec_xcb_t)(void *, int32_t);
  55:..\..\..\arduinoLCD\test\Pain Drain\libraries\lvgl\src\misc/lv_anim.h **** 
  56:..\..\..\arduinoLCD\test\Pain Drain\libraries\lvgl\src\misc/lv_anim.h **** /** Same as `lv_anim_exec_xcb_t` but receives `lv_anim_t *` as the first parameter.
  57:..\..\..\arduinoLCD\test\Pain Drain\libraries\lvgl\src\misc/lv_anim.h ****  * It's more consistent but less convenient. Might be used by binding generator functions.*/
  58:..\..\..\arduinoLCD\test\Pain Drain\libraries\lvgl\src\misc/lv_anim.h **** typedef void (*lv_anim_custom_exec_cb_t)(struct _lv_anim_t *, int32_t);
  59:..\..\..\arduinoLCD\test\Pain Drain\libraries\lvgl\src\misc/lv_anim.h **** 
  60:..\..\..\arduinoLCD\test\Pain Drain\libraries\lvgl\src\misc/lv_anim.h **** /** Callback to call when the animation is ready*/
  61:..\..\..\arduinoLCD\test\Pain Drain\libraries\lvgl\src\misc/lv_anim.h **** typedef void (*lv_anim_ready_cb_t)(struct _lv_anim_t *);
  62:..\..\..\arduinoLCD\test\Pain Drain\libraries\lvgl\src\misc/lv_anim.h **** 
  63:..\..\..\arduinoLCD\test\Pain Drain\libraries\lvgl\src\misc/lv_anim.h **** /** Callback to call when the animation really stars (considering `delay`)*/
  64:..\..\..\arduinoLCD\test\Pain Drain\libraries\lvgl\src\misc/lv_anim.h **** typedef void (*lv_anim_start_cb_t)(struct _lv_anim_t *);
  65:..\..\..\arduinoLCD\test\Pain Drain\libraries\lvgl\src\misc/lv_anim.h **** 
  66:..\..\..\arduinoLCD\test\Pain Drain\libraries\lvgl\src\misc/lv_anim.h **** /** Callback used when the animation values are relative to get the current value*/
  67:..\..\..\arduinoLCD\test\Pain Drain\libraries\lvgl\src\misc/lv_anim.h **** typedef int32_t (*lv_anim_get_value_cb_t)(struct _lv_anim_t *);
  68:..\..\..\arduinoLCD\test\Pain Drain\libraries\lvgl\src\misc/lv_anim.h **** 
  69:..\..\..\arduinoLCD\test\Pain Drain\libraries\lvgl\src\misc/lv_anim.h **** /** Callback used when the animation is deleted*/
  70:..\..\..\arduinoLCD\test\Pain Drain\libraries\lvgl\src\misc/lv_anim.h **** typedef void (*lv_anim_deleted_cb_t)(struct _lv_anim_t *);
  71:..\..\..\arduinoLCD\test\Pain Drain\libraries\lvgl\src\misc/lv_anim.h **** 
  72:..\..\..\arduinoLCD\test\Pain Drain\libraries\lvgl\src\misc/lv_anim.h **** /** Describes an animation*/
  73:..\..\..\arduinoLCD\test\Pain Drain\libraries\lvgl\src\misc/lv_anim.h **** typedef struct _lv_anim_t {
  74:..\..\..\arduinoLCD\test\Pain Drain\libraries\lvgl\src\misc/lv_anim.h ****     void * var;                          /**<Variable to animate*/
  75:..\..\..\arduinoLCD\test\Pain Drain\libraries\lvgl\src\misc/lv_anim.h ****     lv_anim_exec_xcb_t exec_cb;          /**< Function to execute to animate*/
  76:..\..\..\arduinoLCD\test\Pain Drain\libraries\lvgl\src\misc/lv_anim.h ****     lv_anim_start_cb_t start_cb;         /**< Call it when the animation is starts (considering `de
  77:..\..\..\arduinoLCD\test\Pain Drain\libraries\lvgl\src\misc/lv_anim.h ****     lv_anim_ready_cb_t ready_cb;         /**< Call it when the animation is ready*/
  78:..\..\..\arduinoLCD\test\Pain Drain\libraries\lvgl\src\misc/lv_anim.h ****     lv_anim_deleted_cb_t deleted_cb;     /**< Call it when the animation is deleted*/
  79:..\..\..\arduinoLCD\test\Pain Drain\libraries\lvgl\src\misc/lv_anim.h ****     lv_anim_get_value_cb_t get_value_cb; /**< Get the current value in relative mode*/
  80:..\..\..\arduinoLCD\test\Pain Drain\libraries\lvgl\src\misc/lv_anim.h **** #if LV_USE_USER_DATA
  81:..\..\..\arduinoLCD\test\Pain Drain\libraries\lvgl\src\misc/lv_anim.h ****     void * user_data; /**< Custom user data*/
  82:..\..\..\arduinoLCD\test\Pain Drain\libraries\lvgl\src\misc/lv_anim.h **** #endif
  83:..\..\..\arduinoLCD\test\Pain Drain\libraries\lvgl\src\misc/lv_anim.h ****     lv_anim_path_cb_t path_cb;         /**< Describe the path (curve) of animations*/
  84:..\..\..\arduinoLCD\test\Pain Drain\libraries\lvgl\src\misc/lv_anim.h ****     int32_t start_value;               /**< Start value*/
  85:..\..\..\arduinoLCD\test\Pain Drain\libraries\lvgl\src\misc/lv_anim.h ****     int32_t current_value;             /**< Current value*/
  86:..\..\..\arduinoLCD\test\Pain Drain\libraries\lvgl\src\misc/lv_anim.h ****     int32_t end_value;                 /**< End value*/
  87:..\..\..\arduinoLCD\test\Pain Drain\libraries\lvgl\src\misc/lv_anim.h ****     int32_t time;                /**< Animation time in ms*/
  88:..\..\..\arduinoLCD\test\Pain Drain\libraries\lvgl\src\misc/lv_anim.h ****     int32_t act_time;            /**< Current time in animation. Set to negative to make delay.*/
  89:..\..\..\arduinoLCD\test\Pain Drain\libraries\lvgl\src\misc/lv_anim.h ****     uint32_t playback_delay;     /**< Wait before play back*/
  90:..\..\..\arduinoLCD\test\Pain Drain\libraries\lvgl\src\misc/lv_anim.h ****     uint32_t playback_time;      /**< Duration of playback animation*/
  91:..\..\..\arduinoLCD\test\Pain Drain\libraries\lvgl\src\misc/lv_anim.h ****     uint32_t repeat_delay;       /**< Wait before repeat*/
  92:..\..\..\arduinoLCD\test\Pain Drain\libraries\lvgl\src\misc/lv_anim.h ****     uint16_t repeat_cnt;         /**< Repeat count for the animation*/
  93:..\..\..\arduinoLCD\test\Pain Drain\libraries\lvgl\src\misc/lv_anim.h ****     uint8_t early_apply  : 1;    /**< 1: Apply start value immediately even is there is `delay`*/
  94:..\..\..\arduinoLCD\test\Pain Drain\libraries\lvgl\src\misc/lv_anim.h **** 
  95:..\..\..\arduinoLCD\test\Pain Drain\libraries\lvgl\src\misc/lv_anim.h ****     /*Animation system use these - user shouldn't set*/
  96:..\..\..\arduinoLCD\test\Pain Drain\libraries\lvgl\src\misc/lv_anim.h ****     uint8_t playback_now : 1; /**< Play back is in progress*/
  97:..\..\..\arduinoLCD\test\Pain Drain\libraries\lvgl\src\misc/lv_anim.h ****     uint8_t run_round : 1;    /**< Indicates the animation has run in this round*/
  98:..\..\..\arduinoLCD\test\Pain Drain\libraries\lvgl\src\misc/lv_anim.h ****     uint8_t start_cb_called : 1;    /**< Indicates that the `start_cb` was already called*/
  99:..\..\..\arduinoLCD\test\Pain Drain\libraries\lvgl\src\misc/lv_anim.h **** } lv_anim_t;
 100:..\..\..\arduinoLCD\test\Pain Drain\libraries\lvgl\src\misc/lv_anim.h **** 
 101:..\..\..\arduinoLCD\test\Pain Drain\libraries\lvgl\src\misc/lv_anim.h **** /**********************
 102:..\..\..\arduinoLCD\test\Pain Drain\libraries\lvgl\src\misc/lv_anim.h ****  * GLOBAL PROTOTYPES
 103:..\..\..\arduinoLCD\test\Pain Drain\libraries\lvgl\src\misc/lv_anim.h ****  **********************/
 104:..\..\..\arduinoLCD\test\Pain Drain\libraries\lvgl\src\misc/lv_anim.h **** 
 105:..\..\..\arduinoLCD\test\Pain Drain\libraries\lvgl\src\misc/lv_anim.h **** /**
 106:..\..\..\arduinoLCD\test\Pain Drain\libraries\lvgl\src\misc/lv_anim.h ****  * Init. the animation module
 107:..\..\..\arduinoLCD\test\Pain Drain\libraries\lvgl\src\misc/lv_anim.h ****  */
ARM GAS  C:\Users\haske\AppData\Local\Temp\cc8aWFqC.s 			page 16


 108:..\..\..\arduinoLCD\test\Pain Drain\libraries\lvgl\src\misc/lv_anim.h **** void _lv_anim_core_init(void);
 109:..\..\..\arduinoLCD\test\Pain Drain\libraries\lvgl\src\misc/lv_anim.h **** 
 110:..\..\..\arduinoLCD\test\Pain Drain\libraries\lvgl\src\misc/lv_anim.h **** /**
 111:..\..\..\arduinoLCD\test\Pain Drain\libraries\lvgl\src\misc/lv_anim.h ****  * Initialize an animation variable.
 112:..\..\..\arduinoLCD\test\Pain Drain\libraries\lvgl\src\misc/lv_anim.h ****  * E.g.:
 113:..\..\..\arduinoLCD\test\Pain Drain\libraries\lvgl\src\misc/lv_anim.h ****  * lv_anim_t a;
 114:..\..\..\arduinoLCD\test\Pain Drain\libraries\lvgl\src\misc/lv_anim.h ****  * lv_anim_init(&a);
 115:..\..\..\arduinoLCD\test\Pain Drain\libraries\lvgl\src\misc/lv_anim.h ****  * lv_anim_set_...(&a);
 116:..\..\..\arduinoLCD\test\Pain Drain\libraries\lvgl\src\misc/lv_anim.h ****  * lv_anim_start(&a);
 117:..\..\..\arduinoLCD\test\Pain Drain\libraries\lvgl\src\misc/lv_anim.h ****  * @param a     pointer to an `lv_anim_t` variable to initialize
 118:..\..\..\arduinoLCD\test\Pain Drain\libraries\lvgl\src\misc/lv_anim.h ****  */
 119:..\..\..\arduinoLCD\test\Pain Drain\libraries\lvgl\src\misc/lv_anim.h **** void lv_anim_init(lv_anim_t * a);
 120:..\..\..\arduinoLCD\test\Pain Drain\libraries\lvgl\src\misc/lv_anim.h **** 
 121:..\..\..\arduinoLCD\test\Pain Drain\libraries\lvgl\src\misc/lv_anim.h **** /**
 122:..\..\..\arduinoLCD\test\Pain Drain\libraries\lvgl\src\misc/lv_anim.h ****  * Set a variable to animate
 123:..\..\..\arduinoLCD\test\Pain Drain\libraries\lvgl\src\misc/lv_anim.h ****  * @param a     pointer to an initialized `lv_anim_t` variable
 124:..\..\..\arduinoLCD\test\Pain Drain\libraries\lvgl\src\misc/lv_anim.h ****  * @param var   pointer to a variable to animate
 125:..\..\..\arduinoLCD\test\Pain Drain\libraries\lvgl\src\misc/lv_anim.h ****  */
 126:..\..\..\arduinoLCD\test\Pain Drain\libraries\lvgl\src\misc/lv_anim.h **** static inline void lv_anim_set_var(lv_anim_t * a, void * var)
 127:..\..\..\arduinoLCD\test\Pain Drain\libraries\lvgl\src\misc/lv_anim.h **** {
 128:..\..\..\arduinoLCD\test\Pain Drain\libraries\lvgl\src\misc/lv_anim.h ****     a->var = var;
 129:..\..\..\arduinoLCD\test\Pain Drain\libraries\lvgl\src\misc/lv_anim.h **** }
 130:..\..\..\arduinoLCD\test\Pain Drain\libraries\lvgl\src\misc/lv_anim.h **** 
 131:..\..\..\arduinoLCD\test\Pain Drain\libraries\lvgl\src\misc/lv_anim.h **** /**
 132:..\..\..\arduinoLCD\test\Pain Drain\libraries\lvgl\src\misc/lv_anim.h ****  * Set a function to animate `var`
 133:..\..\..\arduinoLCD\test\Pain Drain\libraries\lvgl\src\misc/lv_anim.h ****  * @param a         pointer to an initialized `lv_anim_t` variable
 134:..\..\..\arduinoLCD\test\Pain Drain\libraries\lvgl\src\misc/lv_anim.h ****  * @param exec_cb   a function to execute during animation
 135:..\..\..\arduinoLCD\test\Pain Drain\libraries\lvgl\src\misc/lv_anim.h ****  *                  LVGL's built-in functions can be used.
 136:..\..\..\arduinoLCD\test\Pain Drain\libraries\lvgl\src\misc/lv_anim.h ****  *                  E.g. lv_obj_set_x
 137:..\..\..\arduinoLCD\test\Pain Drain\libraries\lvgl\src\misc/lv_anim.h ****  */
 138:..\..\..\arduinoLCD\test\Pain Drain\libraries\lvgl\src\misc/lv_anim.h **** static inline void lv_anim_set_exec_cb(lv_anim_t * a, lv_anim_exec_xcb_t exec_cb)
 139:..\..\..\arduinoLCD\test\Pain Drain\libraries\lvgl\src\misc/lv_anim.h **** {
 140:..\..\..\arduinoLCD\test\Pain Drain\libraries\lvgl\src\misc/lv_anim.h ****     a->exec_cb = exec_cb;
 141:..\..\..\arduinoLCD\test\Pain Drain\libraries\lvgl\src\misc/lv_anim.h **** }
 142:..\..\..\arduinoLCD\test\Pain Drain\libraries\lvgl\src\misc/lv_anim.h **** 
 143:..\..\..\arduinoLCD\test\Pain Drain\libraries\lvgl\src\misc/lv_anim.h **** /**
 144:..\..\..\arduinoLCD\test\Pain Drain\libraries\lvgl\src\misc/lv_anim.h ****  * Set the duration of an animation
 145:..\..\..\arduinoLCD\test\Pain Drain\libraries\lvgl\src\misc/lv_anim.h ****  * @param a         pointer to an initialized `lv_anim_t` variable
 146:..\..\..\arduinoLCD\test\Pain Drain\libraries\lvgl\src\misc/lv_anim.h ****  * @param duration  duration of the animation in milliseconds
 147:..\..\..\arduinoLCD\test\Pain Drain\libraries\lvgl\src\misc/lv_anim.h ****  */
 148:..\..\..\arduinoLCD\test\Pain Drain\libraries\lvgl\src\misc/lv_anim.h **** static inline void lv_anim_set_time(lv_anim_t * a, uint32_t duration)
 149:..\..\..\arduinoLCD\test\Pain Drain\libraries\lvgl\src\misc/lv_anim.h **** {
 150:..\..\..\arduinoLCD\test\Pain Drain\libraries\lvgl\src\misc/lv_anim.h ****     a->time = duration;
 151:..\..\..\arduinoLCD\test\Pain Drain\libraries\lvgl\src\misc/lv_anim.h **** }
 152:..\..\..\arduinoLCD\test\Pain Drain\libraries\lvgl\src\misc/lv_anim.h **** 
 153:..\..\..\arduinoLCD\test\Pain Drain\libraries\lvgl\src\misc/lv_anim.h **** /**
 154:..\..\..\arduinoLCD\test\Pain Drain\libraries\lvgl\src\misc/lv_anim.h ****  * Set a delay before starting the animation
 155:..\..\..\arduinoLCD\test\Pain Drain\libraries\lvgl\src\misc/lv_anim.h ****  * @param a         pointer to an initialized `lv_anim_t` variable
 156:..\..\..\arduinoLCD\test\Pain Drain\libraries\lvgl\src\misc/lv_anim.h ****  * @param delay     delay before the animation in milliseconds
 157:..\..\..\arduinoLCD\test\Pain Drain\libraries\lvgl\src\misc/lv_anim.h ****  */
 158:..\..\..\arduinoLCD\test\Pain Drain\libraries\lvgl\src\misc/lv_anim.h **** static inline void lv_anim_set_delay(lv_anim_t * a, uint32_t delay)
 159:..\..\..\arduinoLCD\test\Pain Drain\libraries\lvgl\src\misc/lv_anim.h **** {
 160:..\..\..\arduinoLCD\test\Pain Drain\libraries\lvgl\src\misc/lv_anim.h ****     a->act_time = -(int32_t)(delay);
 493              		.loc 2 160 0
 494 0044 009A     		ldr	r2, [sp]
 495 0046 9B1A     		subs	r3, r3, r2
 496              	.LVL50:
ARM GAS  C:\Users\haske\AppData\Local\Temp\cc8aWFqC.s 			page 17


 497 0048 0F93     		str	r3, [sp, #60]
 498 004a 01E0     		b	.L39
 499              	.LVL51:
 500              	.L38:
 501              	.LBE19:
 502              	.LBE18:
 503              	.LBE17:
 504              	.LBB20:
 505              	.LBB21:
 506 004c 5B42     		rsbs	r3, r3, #0
 507              	.LVL52:
 508 004e 0F93     		str	r3, [sp, #60]
 509              	.LVL53:
 510              	.L39:
 511              	.LBE21:
 512              	.LBE20:
 112:..\..\..\arduinoLCD\test\Pain Drain\libraries\lvgl\src\misc/lv_anim_timeline.c ****     }
 513              		.loc 1 112 0 discriminator 2
 514 0050 03A8     		add	r0, sp, #12
 515 0052 FFF7FEFF 		bl	lv_anim_start
 516              	.LVL54:
 517              	.LBE16:
  98:..\..\..\arduinoLCD\test\Pain Drain\libraries\lvgl\src\misc/lv_anim_timeline.c ****         lv_anim_t a = at->anim_dsc[i].anim;
 518              		.loc 1 98 0 discriminator 2
 519 0056 0135     		adds	r5, r5, #1
 520              	.LVL55:
 521              	.L37:
  98:..\..\..\arduinoLCD\test\Pain Drain\libraries\lvgl\src\misc/lv_anim_timeline.c ****         lv_anim_t a = at->anim_dsc[i].anim;
 522              		.loc 1 98 0 is_stmt 0 discriminator 1
 523 0058 7B68     		ldr	r3, [r7, #4]
 524 005a 9D42     		cmp	r5, r3
 525 005c DBD3     		bcc	.L40
 526              	.LBE15:
 116:..\..\..\arduinoLCD\test\Pain Drain\libraries\lvgl\src\misc/lv_anim_timeline.c **** 
 527              		.loc 1 116 0 is_stmt 1
 528 005e 0098     		ldr	r0, [sp]
 529 0060 15B0     		add	sp, sp, #84
 530              	.LVL56:
 531              		@ sp needed
 532              	.LVL57:
 533              	.LVL58:
 534              	.LVL59:
 535 0062 F0BD     		pop	{r4, r5, r6, r7, pc}
 536              		.cfi_endproc
 537              	.LFE25:
 538              		.size	lv_anim_timeline_start, .-lv_anim_timeline_start
 539              		.global	__aeabi_uidiv
 540              		.section	.text.lv_anim_timeline_set_progress,"ax",%progbits
 541              		.align	2
 542              		.global	lv_anim_timeline_set_progress
 543              		.code	16
 544              		.thumb_func
 545              		.type	lv_anim_timeline_set_progress, %function
 546              	lv_anim_timeline_set_progress:
 547              	.LFB28:
 135:..\..\..\arduinoLCD\test\Pain Drain\libraries\lvgl\src\misc/lv_anim_timeline.c ****     LV_ASSERT_NULL(at);
 548              		.loc 1 135 0
ARM GAS  C:\Users\haske\AppData\Local\Temp\cc8aWFqC.s 			page 18


 549              		.cfi_startproc
 550              		@ args = 0, pretend = 0, frame = 0
 551              		@ frame_needed = 0, uses_anonymous_args = 0
 552              	.LVL60:
 553 0000 F8B5     		push	{r3, r4, r5, r6, r7, lr}
 554              		.cfi_def_cfa_offset 24
 555              		.cfi_offset 3, -24
 556              		.cfi_offset 4, -20
 557              		.cfi_offset 5, -16
 558              		.cfi_offset 6, -12
 559              		.cfi_offset 7, -8
 560              		.cfi_offset 14, -4
 561 0002 0600     		movs	r6, r0
 562 0004 0C00     		movs	r4, r1
 136:..\..\..\arduinoLCD\test\Pain Drain\libraries\lvgl\src\misc/lv_anim_timeline.c **** 
 563              		.loc 1 136 0
 564 0006 0028     		cmp	r0, #0
 565 0008 00D1     		bne	.L42
 566              	.L43:
 567 000a FEE7     		b	.L43
 568              	.L42:
 138:..\..\..\arduinoLCD\test\Pain Drain\libraries\lvgl\src\misc/lv_anim_timeline.c ****     const uint32_t act_time = progress * playtime / 0xFFFF;
 569              		.loc 1 138 0
 570 000c FFF7FEFF 		bl	lv_anim_timeline_get_playtime
 571              	.LVL61:
 139:..\..\..\arduinoLCD\test\Pain Drain\libraries\lvgl\src\misc/lv_anim_timeline.c **** 
 572              		.loc 1 139 0
 573 0010 6043     		muls	r0, r4
 574              	.LVL62:
 575 0012 1449     		ldr	r1, .L50
 576 0014 FFF7FEFF 		bl	__aeabi_uidiv
 577              	.LVL63:
 578 0018 0700     		movs	r7, r0
 579              	.LVL64:
 580              	.LBB22:
 141:..\..\..\arduinoLCD\test\Pain Drain\libraries\lvgl\src\misc/lv_anim_timeline.c ****         lv_anim_t * a = &(at->anim_dsc[i].anim);
 581              		.loc 1 141 0
 582 001a 0025     		movs	r5, #0
 583 001c 1DE0     		b	.L44
 584              	.LVL65:
 585              	.L49:
 586              	.LBB23:
 142:..\..\..\arduinoLCD\test\Pain Drain\libraries\lvgl\src\misc/lv_anim_timeline.c **** 
 587              		.loc 1 142 0
 588 001e EB00     		lsls	r3, r5, #3
 589 0020 5B19     		adds	r3, r3, r5
 590 0022 DC00     		lsls	r4, r3, #3
 591 0024 3368     		ldr	r3, [r6]
 592 0026 9C46     		mov	ip, r3
 593 0028 6444     		add	r4, r4, ip
 594              	.LVL66:
 144:..\..\..\arduinoLCD\test\Pain Drain\libraries\lvgl\src\misc/lv_anim_timeline.c ****             continue;
 595              		.loc 1 144 0
 596 002a 6368     		ldr	r3, [r4, #4]
 597 002c 002B     		cmp	r3, #0
 598 002e 13D0     		beq	.L45
 148:..\..\..\arduinoLCD\test\Pain Drain\libraries\lvgl\src\misc/lv_anim_timeline.c ****         int32_t value = 0;
ARM GAS  C:\Users\haske\AppData\Local\Temp\cc8aWFqC.s 			page 19


 599              		.loc 1 148 0
 600 0030 636C     		ldr	r3, [r4, #68]
 601              	.LVL67:
 151:..\..\..\arduinoLCD\test\Pain Drain\libraries\lvgl\src\misc/lv_anim_timeline.c ****             value = a->start_value;
 602              		.loc 1 151 0
 603 0032 9F42     		cmp	r7, r3
 604 0034 01D2     		bcs	.L46
 152:..\..\..\arduinoLCD\test\Pain Drain\libraries\lvgl\src\misc/lv_anim_timeline.c ****         }
 605              		.loc 1 152 0
 606 0036 216A     		ldr	r1, [r4, #32]
 607              	.LVL68:
 608 0038 0BE0     		b	.L47
 609              	.LVL69:
 610              	.L46:
 154:..\..\..\arduinoLCD\test\Pain Drain\libraries\lvgl\src\misc/lv_anim_timeline.c ****             a->act_time = act_time - start_time;
 611              		.loc 1 154 0
 612 003a E26A     		ldr	r2, [r4, #44]
 613 003c D218     		adds	r2, r2, r3
 614 003e 9742     		cmp	r7, r2
 615 0040 06D2     		bcs	.L48
 155:..\..\..\arduinoLCD\test\Pain Drain\libraries\lvgl\src\misc/lv_anim_timeline.c ****             value = a->path_cb(a);
 616              		.loc 1 155 0
 617 0042 FB1A     		subs	r3, r7, r3
 618              	.LVL70:
 619 0044 2363     		str	r3, [r4, #48]
 156:..\..\..\arduinoLCD\test\Pain Drain\libraries\lvgl\src\misc/lv_anim_timeline.c ****         }
 620              		.loc 1 156 0
 621 0046 2000     		movs	r0, r4
 622 0048 E369     		ldr	r3, [r4, #28]
 623 004a 9847     		blx	r3
 624              	.LVL71:
 625 004c 0100     		movs	r1, r0
 626              	.LVL72:
 627 004e 00E0     		b	.L47
 628              	.LVL73:
 629              	.L48:
 159:..\..\..\arduinoLCD\test\Pain Drain\libraries\lvgl\src\misc/lv_anim_timeline.c ****         }
 630              		.loc 1 159 0
 631 0050 A16A     		ldr	r1, [r4, #40]
 632              	.LVL74:
 633              	.L47:
 162:..\..\..\arduinoLCD\test\Pain Drain\libraries\lvgl\src\misc/lv_anim_timeline.c ****     }
 634              		.loc 1 162 0
 635 0052 6368     		ldr	r3, [r4, #4]
 636 0054 2068     		ldr	r0, [r4]
 637 0056 9847     		blx	r3
 638              	.LVL75:
 639              	.L45:
 640              	.LBE23:
 141:..\..\..\arduinoLCD\test\Pain Drain\libraries\lvgl\src\misc/lv_anim_timeline.c ****         lv_anim_t * a = &(at->anim_dsc[i].anim);
 641              		.loc 1 141 0 discriminator 2
 642 0058 0135     		adds	r5, r5, #1
 643              	.LVL76:
 644              	.L44:
 141:..\..\..\arduinoLCD\test\Pain Drain\libraries\lvgl\src\misc/lv_anim_timeline.c ****         lv_anim_t * a = &(at->anim_dsc[i].anim);
 645              		.loc 1 141 0 is_stmt 0 discriminator 1
 646 005a 7368     		ldr	r3, [r6, #4]
ARM GAS  C:\Users\haske\AppData\Local\Temp\cc8aWFqC.s 			page 20


 647 005c 9D42     		cmp	r5, r3
 648 005e DED3     		bcc	.L49
 649              	.LBE22:
 164:..\..\..\arduinoLCD\test\Pain Drain\libraries\lvgl\src\misc/lv_anim_timeline.c **** 
 650              		.loc 1 164 0 is_stmt 1
 651              		@ sp needed
 652              	.LVL77:
 653              	.LVL78:
 654              	.LVL79:
 655 0060 F8BD     		pop	{r3, r4, r5, r6, r7, pc}
 656              	.L51:
 657 0062 C046     		.align	2
 658              	.L50:
 659 0064 FFFF0000 		.word	65535
 660              		.cfi_endproc
 661              	.LFE28:
 662              		.size	lv_anim_timeline_set_progress, .-lv_anim_timeline_set_progress
 663              		.section	.text.lv_anim_timeline_get_reverse,"ax",%progbits
 664              		.align	2
 665              		.global	lv_anim_timeline_get_reverse
 666              		.code	16
 667              		.thumb_func
 668              		.type	lv_anim_timeline_get_reverse, %function
 669              	lv_anim_timeline_get_reverse:
 670              	.LFB30:
 185:..\..\..\arduinoLCD\test\Pain Drain\libraries\lvgl\src\misc/lv_anim_timeline.c ****     LV_ASSERT_NULL(at);
 671              		.loc 1 185 0
 672              		.cfi_startproc
 673              		@ args = 0, pretend = 0, frame = 0
 674              		@ frame_needed = 0, uses_anonymous_args = 0
 675              		@ link register save eliminated.
 676              	.LVL80:
 186:..\..\..\arduinoLCD\test\Pain Drain\libraries\lvgl\src\misc/lv_anim_timeline.c ****     return at->reverse;
 677              		.loc 1 186 0
 678 0000 0028     		cmp	r0, #0
 679 0002 00D1     		bne	.L53
 680              	.L54:
 681 0004 FEE7     		b	.L54
 682              	.L53:
 187:..\..\..\arduinoLCD\test\Pain Drain\libraries\lvgl\src\misc/lv_anim_timeline.c **** }
 683              		.loc 1 187 0
 684 0006 007A     		ldrb	r0, [r0, #8]
 685              	.LVL81:
 188:..\..\..\arduinoLCD\test\Pain Drain\libraries\lvgl\src\misc/lv_anim_timeline.c **** 
 686              		.loc 1 188 0
 687              		@ sp needed
 688 0008 7047     		bx	lr
 689              		.cfi_endproc
 690              	.LFE30:
 691              		.size	lv_anim_timeline_get_reverse, .-lv_anim_timeline_get_reverse
 692 000a C046     		.text
 693              	.Letext0:
 694              		.file 3 "c:\\program files (x86)\\cypress\\psoc creator\\4.4\\psoc creator\\import\\gnu\\arm\\5.4.
 695              		.file 4 "c:\\program files (x86)\\cypress\\psoc creator\\4.4\\psoc creator\\import\\gnu\\arm\\5.4.
 696              		.file 5 "..\\..\\..\\arduinoLCD\\test\\Pain Drain\\libraries\\lvgl\\src\\misc\\lv_anim_timeline.h"
 697              		.file 6 "..\\..\\..\\arduinoLCD\\test\\Pain Drain\\libraries\\lvgl\\src\\misc\\lv_mem.h"