ARM GAS  C:\Users\haske\AppData\Local\Temp\ccGwRjEb.s 			page 1


   1              		.syntax unified
   2              		.cpu cortex-m0plus
   3              		.fpu softvfp
   4              		.eabi_attribute 20, 1
   5              		.eabi_attribute 21, 1
   6              		.eabi_attribute 23, 3
   7              		.eabi_attribute 24, 1
   8              		.eabi_attribute 25, 1
   9              		.eabi_attribute 26, 1
  10              		.eabi_attribute 30, 1
  11              		.eabi_attribute 34, 0
  12              		.eabi_attribute 18, 4
  13              		.thumb
  14              		.syntax unified
  15              		.file	"lv_animimg.c"
  16              		.text
  17              	.Ltext0:
  18              		.cfi_sections	.debug_frame
  19              		.section	.text.lv_animimg_constructor,"ax",%progbits
  20              		.align	2
  21              		.code	16
  22              		.thumb_func
  23              		.type	lv_animimg_constructor, %function
  24              	lv_animimg_constructor:
  25              	.LFB207:
  26              		.file 1 "..\\..\\..\\arduinoLCD\\test\\Pain Drain\\libraries\\lvgl\\src\\extra\\widgets\\animimg\\
   1:..\..\..\arduinoLCD\test\Pain Drain\libraries\lvgl\src\extra\widgets\animimg/lv_animimg.c **** /**
   2:..\..\..\arduinoLCD\test\Pain Drain\libraries\lvgl\src\extra\widgets\animimg/lv_animimg.c ****  * @file lv_animimg.c
   3:..\..\..\arduinoLCD\test\Pain Drain\libraries\lvgl\src\extra\widgets\animimg/lv_animimg.c ****  *
   4:..\..\..\arduinoLCD\test\Pain Drain\libraries\lvgl\src\extra\widgets\animimg/lv_animimg.c ****  */
   5:..\..\..\arduinoLCD\test\Pain Drain\libraries\lvgl\src\extra\widgets\animimg/lv_animimg.c **** 
   6:..\..\..\arduinoLCD\test\Pain Drain\libraries\lvgl\src\extra\widgets\animimg/lv_animimg.c **** /*********************
   7:..\..\..\arduinoLCD\test\Pain Drain\libraries\lvgl\src\extra\widgets\animimg/lv_animimg.c ****  *      INCLUDES
   8:..\..\..\arduinoLCD\test\Pain Drain\libraries\lvgl\src\extra\widgets\animimg/lv_animimg.c ****  *********************/
   9:..\..\..\arduinoLCD\test\Pain Drain\libraries\lvgl\src\extra\widgets\animimg/lv_animimg.c **** #include "lv_animimg.h"
  10:..\..\..\arduinoLCD\test\Pain Drain\libraries\lvgl\src\extra\widgets\animimg/lv_animimg.c **** #if LV_USE_ANIMIMG != 0
  11:..\..\..\arduinoLCD\test\Pain Drain\libraries\lvgl\src\extra\widgets\animimg/lv_animimg.c **** 
  12:..\..\..\arduinoLCD\test\Pain Drain\libraries\lvgl\src\extra\widgets\animimg/lv_animimg.c **** /*Testing of dependencies*/
  13:..\..\..\arduinoLCD\test\Pain Drain\libraries\lvgl\src\extra\widgets\animimg/lv_animimg.c **** #if LV_USE_IMG == 0
  14:..\..\..\arduinoLCD\test\Pain Drain\libraries\lvgl\src\extra\widgets\animimg/lv_animimg.c ****     #error "lv_animimg: lv_img is required. Enable it in lv_conf.h (LV_USE_IMG  1) "
  15:..\..\..\arduinoLCD\test\Pain Drain\libraries\lvgl\src\extra\widgets\animimg/lv_animimg.c **** #endif
  16:..\..\..\arduinoLCD\test\Pain Drain\libraries\lvgl\src\extra\widgets\animimg/lv_animimg.c **** 
  17:..\..\..\arduinoLCD\test\Pain Drain\libraries\lvgl\src\extra\widgets\animimg/lv_animimg.c **** #include "../../../misc/lv_assert.h"
  18:..\..\..\arduinoLCD\test\Pain Drain\libraries\lvgl\src\extra\widgets\animimg/lv_animimg.c **** #include "../../../draw/lv_img_decoder.h"
  19:..\..\..\arduinoLCD\test\Pain Drain\libraries\lvgl\src\extra\widgets\animimg/lv_animimg.c **** #include "../../../misc/lv_fs.h"
  20:..\..\..\arduinoLCD\test\Pain Drain\libraries\lvgl\src\extra\widgets\animimg/lv_animimg.c **** #include "../../../misc/lv_txt.h"
  21:..\..\..\arduinoLCD\test\Pain Drain\libraries\lvgl\src\extra\widgets\animimg/lv_animimg.c **** #include "../../../misc/lv_math.h"
  22:..\..\..\arduinoLCD\test\Pain Drain\libraries\lvgl\src\extra\widgets\animimg/lv_animimg.c **** #include "../../../misc/lv_log.h"
  23:..\..\..\arduinoLCD\test\Pain Drain\libraries\lvgl\src\extra\widgets\animimg/lv_animimg.c **** #include "../../../misc/lv_anim.h"
  24:..\..\..\arduinoLCD\test\Pain Drain\libraries\lvgl\src\extra\widgets\animimg/lv_animimg.c **** 
  25:..\..\..\arduinoLCD\test\Pain Drain\libraries\lvgl\src\extra\widgets\animimg/lv_animimg.c **** /*********************
  26:..\..\..\arduinoLCD\test\Pain Drain\libraries\lvgl\src\extra\widgets\animimg/lv_animimg.c ****  *      DEFINES
  27:..\..\..\arduinoLCD\test\Pain Drain\libraries\lvgl\src\extra\widgets\animimg/lv_animimg.c ****  *********************/
  28:..\..\..\arduinoLCD\test\Pain Drain\libraries\lvgl\src\extra\widgets\animimg/lv_animimg.c **** #define LV_OBJX_NAME "lv_animimg"
  29:..\..\..\arduinoLCD\test\Pain Drain\libraries\lvgl\src\extra\widgets\animimg/lv_animimg.c **** 
  30:..\..\..\arduinoLCD\test\Pain Drain\libraries\lvgl\src\extra\widgets\animimg/lv_animimg.c **** #define MY_CLASS &lv_animimg_class
  31:..\..\..\arduinoLCD\test\Pain Drain\libraries\lvgl\src\extra\widgets\animimg/lv_animimg.c **** 
ARM GAS  C:\Users\haske\AppData\Local\Temp\ccGwRjEb.s 			page 2


  32:..\..\..\arduinoLCD\test\Pain Drain\libraries\lvgl\src\extra\widgets\animimg/lv_animimg.c **** /**********************
  33:..\..\..\arduinoLCD\test\Pain Drain\libraries\lvgl\src\extra\widgets\animimg/lv_animimg.c ****  *      TYPEDEFS
  34:..\..\..\arduinoLCD\test\Pain Drain\libraries\lvgl\src\extra\widgets\animimg/lv_animimg.c ****  **********************/
  35:..\..\..\arduinoLCD\test\Pain Drain\libraries\lvgl\src\extra\widgets\animimg/lv_animimg.c **** 
  36:..\..\..\arduinoLCD\test\Pain Drain\libraries\lvgl\src\extra\widgets\animimg/lv_animimg.c **** /**********************
  37:..\..\..\arduinoLCD\test\Pain Drain\libraries\lvgl\src\extra\widgets\animimg/lv_animimg.c ****  *  STATIC PROTOTYPES
  38:..\..\..\arduinoLCD\test\Pain Drain\libraries\lvgl\src\extra\widgets\animimg/lv_animimg.c ****  **********************/
  39:..\..\..\arduinoLCD\test\Pain Drain\libraries\lvgl\src\extra\widgets\animimg/lv_animimg.c **** static void index_change(lv_obj_t * obj, int32_t index);
  40:..\..\..\arduinoLCD\test\Pain Drain\libraries\lvgl\src\extra\widgets\animimg/lv_animimg.c **** static void lv_animimg_constructor(const lv_obj_class_t * class_p, lv_obj_t * obj);
  41:..\..\..\arduinoLCD\test\Pain Drain\libraries\lvgl\src\extra\widgets\animimg/lv_animimg.c **** 
  42:..\..\..\arduinoLCD\test\Pain Drain\libraries\lvgl\src\extra\widgets\animimg/lv_animimg.c **** /**********************
  43:..\..\..\arduinoLCD\test\Pain Drain\libraries\lvgl\src\extra\widgets\animimg/lv_animimg.c ****  *  STATIC VARIABLES
  44:..\..\..\arduinoLCD\test\Pain Drain\libraries\lvgl\src\extra\widgets\animimg/lv_animimg.c ****  **********************/
  45:..\..\..\arduinoLCD\test\Pain Drain\libraries\lvgl\src\extra\widgets\animimg/lv_animimg.c **** const lv_obj_class_t lv_animimg_class = {
  46:..\..\..\arduinoLCD\test\Pain Drain\libraries\lvgl\src\extra\widgets\animimg/lv_animimg.c ****     .constructor_cb = lv_animimg_constructor,
  47:..\..\..\arduinoLCD\test\Pain Drain\libraries\lvgl\src\extra\widgets\animimg/lv_animimg.c ****     .instance_size = sizeof(lv_animimg_t),
  48:..\..\..\arduinoLCD\test\Pain Drain\libraries\lvgl\src\extra\widgets\animimg/lv_animimg.c ****     .base_class = &lv_img_class
  49:..\..\..\arduinoLCD\test\Pain Drain\libraries\lvgl\src\extra\widgets\animimg/lv_animimg.c **** };
  50:..\..\..\arduinoLCD\test\Pain Drain\libraries\lvgl\src\extra\widgets\animimg/lv_animimg.c **** 
  51:..\..\..\arduinoLCD\test\Pain Drain\libraries\lvgl\src\extra\widgets\animimg/lv_animimg.c **** /**********************
  52:..\..\..\arduinoLCD\test\Pain Drain\libraries\lvgl\src\extra\widgets\animimg/lv_animimg.c ****  *      MACROS
  53:..\..\..\arduinoLCD\test\Pain Drain\libraries\lvgl\src\extra\widgets\animimg/lv_animimg.c ****  **********************/
  54:..\..\..\arduinoLCD\test\Pain Drain\libraries\lvgl\src\extra\widgets\animimg/lv_animimg.c **** 
  55:..\..\..\arduinoLCD\test\Pain Drain\libraries\lvgl\src\extra\widgets\animimg/lv_animimg.c **** /**********************
  56:..\..\..\arduinoLCD\test\Pain Drain\libraries\lvgl\src\extra\widgets\animimg/lv_animimg.c ****  *   GLOBAL FUNCTIONS
  57:..\..\..\arduinoLCD\test\Pain Drain\libraries\lvgl\src\extra\widgets\animimg/lv_animimg.c ****  **********************/
  58:..\..\..\arduinoLCD\test\Pain Drain\libraries\lvgl\src\extra\widgets\animimg/lv_animimg.c **** 
  59:..\..\..\arduinoLCD\test\Pain Drain\libraries\lvgl\src\extra\widgets\animimg/lv_animimg.c **** lv_obj_t * lv_animimg_create(lv_obj_t * parent)
  60:..\..\..\arduinoLCD\test\Pain Drain\libraries\lvgl\src\extra\widgets\animimg/lv_animimg.c **** {
  61:..\..\..\arduinoLCD\test\Pain Drain\libraries\lvgl\src\extra\widgets\animimg/lv_animimg.c ****     LV_LOG_INFO("begin");
  62:..\..\..\arduinoLCD\test\Pain Drain\libraries\lvgl\src\extra\widgets\animimg/lv_animimg.c ****     lv_obj_t * obj = lv_obj_class_create_obj(&lv_animimg_class, parent);
  63:..\..\..\arduinoLCD\test\Pain Drain\libraries\lvgl\src\extra\widgets\animimg/lv_animimg.c ****     lv_obj_class_init_obj(obj);
  64:..\..\..\arduinoLCD\test\Pain Drain\libraries\lvgl\src\extra\widgets\animimg/lv_animimg.c ****     return obj;
  65:..\..\..\arduinoLCD\test\Pain Drain\libraries\lvgl\src\extra\widgets\animimg/lv_animimg.c **** }
  66:..\..\..\arduinoLCD\test\Pain Drain\libraries\lvgl\src\extra\widgets\animimg/lv_animimg.c **** 
  67:..\..\..\arduinoLCD\test\Pain Drain\libraries\lvgl\src\extra\widgets\animimg/lv_animimg.c **** void lv_animimg_set_src(lv_obj_t * obj, const void * dsc[], uint8_t num)
  68:..\..\..\arduinoLCD\test\Pain Drain\libraries\lvgl\src\extra\widgets\animimg/lv_animimg.c **** {
  69:..\..\..\arduinoLCD\test\Pain Drain\libraries\lvgl\src\extra\widgets\animimg/lv_animimg.c ****     LV_ASSERT_OBJ(obj, MY_CLASS);
  70:..\..\..\arduinoLCD\test\Pain Drain\libraries\lvgl\src\extra\widgets\animimg/lv_animimg.c ****     lv_animimg_t * animimg = (lv_animimg_t *)obj;
  71:..\..\..\arduinoLCD\test\Pain Drain\libraries\lvgl\src\extra\widgets\animimg/lv_animimg.c ****     animimg->dsc = dsc;
  72:..\..\..\arduinoLCD\test\Pain Drain\libraries\lvgl\src\extra\widgets\animimg/lv_animimg.c ****     animimg->pic_count = num;
  73:..\..\..\arduinoLCD\test\Pain Drain\libraries\lvgl\src\extra\widgets\animimg/lv_animimg.c ****     lv_anim_set_values(&animimg->anim, 0, num);
  74:..\..\..\arduinoLCD\test\Pain Drain\libraries\lvgl\src\extra\widgets\animimg/lv_animimg.c **** }
  75:..\..\..\arduinoLCD\test\Pain Drain\libraries\lvgl\src\extra\widgets\animimg/lv_animimg.c **** 
  76:..\..\..\arduinoLCD\test\Pain Drain\libraries\lvgl\src\extra\widgets\animimg/lv_animimg.c **** void lv_animimg_start(lv_obj_t * obj)
  77:..\..\..\arduinoLCD\test\Pain Drain\libraries\lvgl\src\extra\widgets\animimg/lv_animimg.c **** {
  78:..\..\..\arduinoLCD\test\Pain Drain\libraries\lvgl\src\extra\widgets\animimg/lv_animimg.c ****     LV_ASSERT_OBJ(obj, MY_CLASS);
  79:..\..\..\arduinoLCD\test\Pain Drain\libraries\lvgl\src\extra\widgets\animimg/lv_animimg.c ****     lv_animimg_t * animimg = (lv_animimg_t *)obj;
  80:..\..\..\arduinoLCD\test\Pain Drain\libraries\lvgl\src\extra\widgets\animimg/lv_animimg.c ****     lv_anim_start(&animimg->anim);
  81:..\..\..\arduinoLCD\test\Pain Drain\libraries\lvgl\src\extra\widgets\animimg/lv_animimg.c **** }
  82:..\..\..\arduinoLCD\test\Pain Drain\libraries\lvgl\src\extra\widgets\animimg/lv_animimg.c **** 
  83:..\..\..\arduinoLCD\test\Pain Drain\libraries\lvgl\src\extra\widgets\animimg/lv_animimg.c **** /*=====================
  84:..\..\..\arduinoLCD\test\Pain Drain\libraries\lvgl\src\extra\widgets\animimg/lv_animimg.c ****  * Setter functions
  85:..\..\..\arduinoLCD\test\Pain Drain\libraries\lvgl\src\extra\widgets\animimg/lv_animimg.c ****  *====================*/
  86:..\..\..\arduinoLCD\test\Pain Drain\libraries\lvgl\src\extra\widgets\animimg/lv_animimg.c **** 
  87:..\..\..\arduinoLCD\test\Pain Drain\libraries\lvgl\src\extra\widgets\animimg/lv_animimg.c **** void lv_animimg_set_duration(lv_obj_t * obj, uint32_t duration)
  88:..\..\..\arduinoLCD\test\Pain Drain\libraries\lvgl\src\extra\widgets\animimg/lv_animimg.c **** {
ARM GAS  C:\Users\haske\AppData\Local\Temp\ccGwRjEb.s 			page 3


  89:..\..\..\arduinoLCD\test\Pain Drain\libraries\lvgl\src\extra\widgets\animimg/lv_animimg.c ****     LV_ASSERT_OBJ(obj, MY_CLASS);
  90:..\..\..\arduinoLCD\test\Pain Drain\libraries\lvgl\src\extra\widgets\animimg/lv_animimg.c ****     lv_animimg_t * animimg = (lv_animimg_t *)obj;
  91:..\..\..\arduinoLCD\test\Pain Drain\libraries\lvgl\src\extra\widgets\animimg/lv_animimg.c ****     lv_anim_set_time(&animimg->anim, duration);
  92:..\..\..\arduinoLCD\test\Pain Drain\libraries\lvgl\src\extra\widgets\animimg/lv_animimg.c ****     lv_anim_set_playback_delay(&animimg->anim, duration);
  93:..\..\..\arduinoLCD\test\Pain Drain\libraries\lvgl\src\extra\widgets\animimg/lv_animimg.c **** }
  94:..\..\..\arduinoLCD\test\Pain Drain\libraries\lvgl\src\extra\widgets\animimg/lv_animimg.c **** 
  95:..\..\..\arduinoLCD\test\Pain Drain\libraries\lvgl\src\extra\widgets\animimg/lv_animimg.c **** void lv_animimg_set_repeat_count(lv_obj_t * obj, uint16_t count)
  96:..\..\..\arduinoLCD\test\Pain Drain\libraries\lvgl\src\extra\widgets\animimg/lv_animimg.c **** {
  97:..\..\..\arduinoLCD\test\Pain Drain\libraries\lvgl\src\extra\widgets\animimg/lv_animimg.c ****     LV_ASSERT_OBJ(obj, MY_CLASS);
  98:..\..\..\arduinoLCD\test\Pain Drain\libraries\lvgl\src\extra\widgets\animimg/lv_animimg.c ****     lv_animimg_t * animimg = (lv_animimg_t *)obj;
  99:..\..\..\arduinoLCD\test\Pain Drain\libraries\lvgl\src\extra\widgets\animimg/lv_animimg.c ****     lv_anim_set_repeat_count(&animimg->anim, count);
 100:..\..\..\arduinoLCD\test\Pain Drain\libraries\lvgl\src\extra\widgets\animimg/lv_animimg.c **** }
 101:..\..\..\arduinoLCD\test\Pain Drain\libraries\lvgl\src\extra\widgets\animimg/lv_animimg.c **** 
 102:..\..\..\arduinoLCD\test\Pain Drain\libraries\lvgl\src\extra\widgets\animimg/lv_animimg.c **** /*=====================
 103:..\..\..\arduinoLCD\test\Pain Drain\libraries\lvgl\src\extra\widgets\animimg/lv_animimg.c ****  * Getter functions
 104:..\..\..\arduinoLCD\test\Pain Drain\libraries\lvgl\src\extra\widgets\animimg/lv_animimg.c ****  *====================*/
 105:..\..\..\arduinoLCD\test\Pain Drain\libraries\lvgl\src\extra\widgets\animimg/lv_animimg.c **** 
 106:..\..\..\arduinoLCD\test\Pain Drain\libraries\lvgl\src\extra\widgets\animimg/lv_animimg.c **** /**********************
 107:..\..\..\arduinoLCD\test\Pain Drain\libraries\lvgl\src\extra\widgets\animimg/lv_animimg.c ****  *   STATIC FUNCTIONS
 108:..\..\..\arduinoLCD\test\Pain Drain\libraries\lvgl\src\extra\widgets\animimg/lv_animimg.c ****  **********************/
 109:..\..\..\arduinoLCD\test\Pain Drain\libraries\lvgl\src\extra\widgets\animimg/lv_animimg.c **** 
 110:..\..\..\arduinoLCD\test\Pain Drain\libraries\lvgl\src\extra\widgets\animimg/lv_animimg.c **** static void lv_animimg_constructor(const lv_obj_class_t * class_p, lv_obj_t * obj)
 111:..\..\..\arduinoLCD\test\Pain Drain\libraries\lvgl\src\extra\widgets\animimg/lv_animimg.c **** {
  27              		.loc 1 111 0
  28              		.cfi_startproc
  29              		@ args = 0, pretend = 0, frame = 0
  30              		@ frame_needed = 0, uses_anonymous_args = 0
  31              	.LVL0:
  32 0000 70B5     		push	{r4, r5, r6, lr}
  33              		.cfi_def_cfa_offset 16
  34              		.cfi_offset 4, -16
  35              		.cfi_offset 5, -12
  36              		.cfi_offset 6, -8
  37              		.cfi_offset 14, -4
  38 0002 0C00     		movs	r4, r1
  39              	.LVL1:
 112:..\..\..\arduinoLCD\test\Pain Drain\libraries\lvgl\src\extra\widgets\animimg/lv_animimg.c ****     LV_TRACE_OBJ_CREATE("begin");
 113:..\..\..\arduinoLCD\test\Pain Drain\libraries\lvgl\src\extra\widgets\animimg/lv_animimg.c **** 
 114:..\..\..\arduinoLCD\test\Pain Drain\libraries\lvgl\src\extra\widgets\animimg/lv_animimg.c ****     LV_UNUSED(class_p);
 115:..\..\..\arduinoLCD\test\Pain Drain\libraries\lvgl\src\extra\widgets\animimg/lv_animimg.c ****     lv_animimg_t * animimg = (lv_animimg_t *)obj;
 116:..\..\..\arduinoLCD\test\Pain Drain\libraries\lvgl\src\extra\widgets\animimg/lv_animimg.c **** 
 117:..\..\..\arduinoLCD\test\Pain Drain\libraries\lvgl\src\extra\widgets\animimg/lv_animimg.c ****     animimg->dsc = NULL;
  40              		.loc 1 117 0
  41 0004 0025     		movs	r5, #0
  42 0006 8023     		movs	r3, #128
  43 0008 CD50     		str	r5, [r1, r3]
 118:..\..\..\arduinoLCD\test\Pain Drain\libraries\lvgl\src\extra\widgets\animimg/lv_animimg.c ****     animimg->pic_count = -1;
  44              		.loc 1 118 0
  45 000a FF22     		movs	r2, #255
  46 000c 0433     		adds	r3, r3, #4
  47 000e CA54     		strb	r2, [r1, r3]
 119:..\..\..\arduinoLCD\test\Pain Drain\libraries\lvgl\src\extra\widgets\animimg/lv_animimg.c ****     //initial animation
 120:..\..\..\arduinoLCD\test\Pain Drain\libraries\lvgl\src\extra\widgets\animimg/lv_animimg.c ****     lv_anim_init(&animimg->anim);
  48              		.loc 1 120 0
  49 0010 0800     		movs	r0, r1
  50              	.LVL2:
  51 0012 3C30     		adds	r0, r0, #60
ARM GAS  C:\Users\haske\AppData\Local\Temp\ccGwRjEb.s 			page 4


  52 0014 FFF7FEFF 		bl	lv_anim_init
  53              	.LVL3:
  54              	.LBB20:
  55              	.LBB21:
  56              		.file 2 "c:\\projects\\paindrain\\arduinolcd\\test\\pain drain\\libraries\\lvgl\\src/misc/lv_anim.
   1:c:\projects\paindrain\arduinolcd\test\pain drain\libraries\lvgl\src/misc\lv_anim.h **** /**
   2:c:\projects\paindrain\arduinolcd\test\pain drain\libraries\lvgl\src/misc\lv_anim.h ****  * @file lv_anim.h
   3:c:\projects\paindrain\arduinolcd\test\pain drain\libraries\lvgl\src/misc\lv_anim.h ****  *
   4:c:\projects\paindrain\arduinolcd\test\pain drain\libraries\lvgl\src/misc\lv_anim.h ****  */
   5:c:\projects\paindrain\arduinolcd\test\pain drain\libraries\lvgl\src/misc\lv_anim.h **** 
   6:c:\projects\paindrain\arduinolcd\test\pain drain\libraries\lvgl\src/misc\lv_anim.h **** #ifndef LV_ANIM_H
   7:c:\projects\paindrain\arduinolcd\test\pain drain\libraries\lvgl\src/misc\lv_anim.h **** #define LV_ANIM_H
   8:c:\projects\paindrain\arduinolcd\test\pain drain\libraries\lvgl\src/misc\lv_anim.h **** 
   9:c:\projects\paindrain\arduinolcd\test\pain drain\libraries\lvgl\src/misc\lv_anim.h **** #ifdef __cplusplus
  10:c:\projects\paindrain\arduinolcd\test\pain drain\libraries\lvgl\src/misc\lv_anim.h **** extern "C" {
  11:c:\projects\paindrain\arduinolcd\test\pain drain\libraries\lvgl\src/misc\lv_anim.h **** #endif
  12:c:\projects\paindrain\arduinolcd\test\pain drain\libraries\lvgl\src/misc\lv_anim.h **** 
  13:c:\projects\paindrain\arduinolcd\test\pain drain\libraries\lvgl\src/misc\lv_anim.h **** /*********************
  14:c:\projects\paindrain\arduinolcd\test\pain drain\libraries\lvgl\src/misc\lv_anim.h ****  *      INCLUDES
  15:c:\projects\paindrain\arduinolcd\test\pain drain\libraries\lvgl\src/misc\lv_anim.h ****  *********************/
  16:c:\projects\paindrain\arduinolcd\test\pain drain\libraries\lvgl\src/misc\lv_anim.h **** #include "../lv_conf_internal.h"
  17:c:\projects\paindrain\arduinolcd\test\pain drain\libraries\lvgl\src/misc\lv_anim.h **** 
  18:c:\projects\paindrain\arduinolcd\test\pain drain\libraries\lvgl\src/misc\lv_anim.h **** #include <stdint.h>
  19:c:\projects\paindrain\arduinolcd\test\pain drain\libraries\lvgl\src/misc\lv_anim.h **** #include <stdbool.h>
  20:c:\projects\paindrain\arduinolcd\test\pain drain\libraries\lvgl\src/misc\lv_anim.h **** #include <stddef.h>
  21:c:\projects\paindrain\arduinolcd\test\pain drain\libraries\lvgl\src/misc\lv_anim.h **** 
  22:c:\projects\paindrain\arduinolcd\test\pain drain\libraries\lvgl\src/misc\lv_anim.h **** /*********************
  23:c:\projects\paindrain\arduinolcd\test\pain drain\libraries\lvgl\src/misc\lv_anim.h ****  *      DEFINES
  24:c:\projects\paindrain\arduinolcd\test\pain drain\libraries\lvgl\src/misc\lv_anim.h ****  *********************/
  25:c:\projects\paindrain\arduinolcd\test\pain drain\libraries\lvgl\src/misc\lv_anim.h **** 
  26:c:\projects\paindrain\arduinolcd\test\pain drain\libraries\lvgl\src/misc\lv_anim.h **** #define LV_ANIM_REPEAT_INFINITE      0xFFFF
  27:c:\projects\paindrain\arduinolcd\test\pain drain\libraries\lvgl\src/misc\lv_anim.h **** #define LV_ANIM_PLAYTIME_INFINITE    0xFFFFFFFF
  28:c:\projects\paindrain\arduinolcd\test\pain drain\libraries\lvgl\src/misc\lv_anim.h **** 
  29:c:\projects\paindrain\arduinolcd\test\pain drain\libraries\lvgl\src/misc\lv_anim.h **** LV_EXPORT_CONST_INT(LV_ANIM_REPEAT_INFINITE);
  30:c:\projects\paindrain\arduinolcd\test\pain drain\libraries\lvgl\src/misc\lv_anim.h **** LV_EXPORT_CONST_INT(LV_ANIM_PLAYTIME_INFINITE);
  31:c:\projects\paindrain\arduinolcd\test\pain drain\libraries\lvgl\src/misc\lv_anim.h **** 
  32:c:\projects\paindrain\arduinolcd\test\pain drain\libraries\lvgl\src/misc\lv_anim.h **** /**********************
  33:c:\projects\paindrain\arduinolcd\test\pain drain\libraries\lvgl\src/misc\lv_anim.h ****  *      TYPEDEFS
  34:c:\projects\paindrain\arduinolcd\test\pain drain\libraries\lvgl\src/misc\lv_anim.h ****  **********************/
  35:c:\projects\paindrain\arduinolcd\test\pain drain\libraries\lvgl\src/misc\lv_anim.h **** 
  36:c:\projects\paindrain\arduinolcd\test\pain drain\libraries\lvgl\src/misc\lv_anim.h **** /** Can be used to indicate if animations are enabled or disabled in a case*/
  37:c:\projects\paindrain\arduinolcd\test\pain drain\libraries\lvgl\src/misc\lv_anim.h **** typedef enum {
  38:c:\projects\paindrain\arduinolcd\test\pain drain\libraries\lvgl\src/misc\lv_anim.h ****     LV_ANIM_OFF,
  39:c:\projects\paindrain\arduinolcd\test\pain drain\libraries\lvgl\src/misc\lv_anim.h ****     LV_ANIM_ON,
  40:c:\projects\paindrain\arduinolcd\test\pain drain\libraries\lvgl\src/misc\lv_anim.h **** } lv_anim_enable_t;
  41:c:\projects\paindrain\arduinolcd\test\pain drain\libraries\lvgl\src/misc\lv_anim.h **** 
  42:c:\projects\paindrain\arduinolcd\test\pain drain\libraries\lvgl\src/misc\lv_anim.h **** struct _lv_anim_t;
  43:c:\projects\paindrain\arduinolcd\test\pain drain\libraries\lvgl\src/misc\lv_anim.h **** struct _lv_timer_t;
  44:c:\projects\paindrain\arduinolcd\test\pain drain\libraries\lvgl\src/misc\lv_anim.h **** 
  45:c:\projects\paindrain\arduinolcd\test\pain drain\libraries\lvgl\src/misc\lv_anim.h **** /** Get the current value during an animation*/
  46:c:\projects\paindrain\arduinolcd\test\pain drain\libraries\lvgl\src/misc\lv_anim.h **** typedef int32_t (*lv_anim_path_cb_t)(const struct _lv_anim_t *);
  47:c:\projects\paindrain\arduinolcd\test\pain drain\libraries\lvgl\src/misc\lv_anim.h **** 
  48:c:\projects\paindrain\arduinolcd\test\pain drain\libraries\lvgl\src/misc\lv_anim.h **** /** Generic prototype of "animator" functions.
  49:c:\projects\paindrain\arduinolcd\test\pain drain\libraries\lvgl\src/misc\lv_anim.h ****  * First parameter is the variable to animate.
  50:c:\projects\paindrain\arduinolcd\test\pain drain\libraries\lvgl\src/misc\lv_anim.h ****  * Second parameter is the value to set.
  51:c:\projects\paindrain\arduinolcd\test\pain drain\libraries\lvgl\src/misc\lv_anim.h ****  * Compatible with `lv_xxx_set_yyy(obj, value)` functions
  52:c:\projects\paindrain\arduinolcd\test\pain drain\libraries\lvgl\src/misc\lv_anim.h ****  * The `x` in `_xcb_t` means it's not a fully generic prototype because
ARM GAS  C:\Users\haske\AppData\Local\Temp\ccGwRjEb.s 			page 5


  53:c:\projects\paindrain\arduinolcd\test\pain drain\libraries\lvgl\src/misc\lv_anim.h ****  * it doesn't receive `lv_anim_t *` as its first argument*/
  54:c:\projects\paindrain\arduinolcd\test\pain drain\libraries\lvgl\src/misc\lv_anim.h **** typedef void (*lv_anim_exec_xcb_t)(void *, int32_t);
  55:c:\projects\paindrain\arduinolcd\test\pain drain\libraries\lvgl\src/misc\lv_anim.h **** 
  56:c:\projects\paindrain\arduinolcd\test\pain drain\libraries\lvgl\src/misc\lv_anim.h **** /** Same as `lv_anim_exec_xcb_t` but receives `lv_anim_t *` as the first parameter.
  57:c:\projects\paindrain\arduinolcd\test\pain drain\libraries\lvgl\src/misc\lv_anim.h ****  * It's more consistent but less convenient. Might be used by binding generator functions.*/
  58:c:\projects\paindrain\arduinolcd\test\pain drain\libraries\lvgl\src/misc\lv_anim.h **** typedef void (*lv_anim_custom_exec_cb_t)(struct _lv_anim_t *, int32_t);
  59:c:\projects\paindrain\arduinolcd\test\pain drain\libraries\lvgl\src/misc\lv_anim.h **** 
  60:c:\projects\paindrain\arduinolcd\test\pain drain\libraries\lvgl\src/misc\lv_anim.h **** /** Callback to call when the animation is ready*/
  61:c:\projects\paindrain\arduinolcd\test\pain drain\libraries\lvgl\src/misc\lv_anim.h **** typedef void (*lv_anim_ready_cb_t)(struct _lv_anim_t *);
  62:c:\projects\paindrain\arduinolcd\test\pain drain\libraries\lvgl\src/misc\lv_anim.h **** 
  63:c:\projects\paindrain\arduinolcd\test\pain drain\libraries\lvgl\src/misc\lv_anim.h **** /** Callback to call when the animation really stars (considering `delay`)*/
  64:c:\projects\paindrain\arduinolcd\test\pain drain\libraries\lvgl\src/misc\lv_anim.h **** typedef void (*lv_anim_start_cb_t)(struct _lv_anim_t *);
  65:c:\projects\paindrain\arduinolcd\test\pain drain\libraries\lvgl\src/misc\lv_anim.h **** 
  66:c:\projects\paindrain\arduinolcd\test\pain drain\libraries\lvgl\src/misc\lv_anim.h **** /** Callback used when the animation values are relative to get the current value*/
  67:c:\projects\paindrain\arduinolcd\test\pain drain\libraries\lvgl\src/misc\lv_anim.h **** typedef int32_t (*lv_anim_get_value_cb_t)(struct _lv_anim_t *);
  68:c:\projects\paindrain\arduinolcd\test\pain drain\libraries\lvgl\src/misc\lv_anim.h **** 
  69:c:\projects\paindrain\arduinolcd\test\pain drain\libraries\lvgl\src/misc\lv_anim.h **** /** Callback used when the animation is deleted*/
  70:c:\projects\paindrain\arduinolcd\test\pain drain\libraries\lvgl\src/misc\lv_anim.h **** typedef void (*lv_anim_deleted_cb_t)(struct _lv_anim_t *);
  71:c:\projects\paindrain\arduinolcd\test\pain drain\libraries\lvgl\src/misc\lv_anim.h **** 
  72:c:\projects\paindrain\arduinolcd\test\pain drain\libraries\lvgl\src/misc\lv_anim.h **** /** Describes an animation*/
  73:c:\projects\paindrain\arduinolcd\test\pain drain\libraries\lvgl\src/misc\lv_anim.h **** typedef struct _lv_anim_t {
  74:c:\projects\paindrain\arduinolcd\test\pain drain\libraries\lvgl\src/misc\lv_anim.h ****     void * var;                          /**<Variable to animate*/
  75:c:\projects\paindrain\arduinolcd\test\pain drain\libraries\lvgl\src/misc\lv_anim.h ****     lv_anim_exec_xcb_t exec_cb;          /**< Function to execute to animate*/
  76:c:\projects\paindrain\arduinolcd\test\pain drain\libraries\lvgl\src/misc\lv_anim.h ****     lv_anim_start_cb_t start_cb;         /**< Call it when the animation is starts (considering `de
  77:c:\projects\paindrain\arduinolcd\test\pain drain\libraries\lvgl\src/misc\lv_anim.h ****     lv_anim_ready_cb_t ready_cb;         /**< Call it when the animation is ready*/
  78:c:\projects\paindrain\arduinolcd\test\pain drain\libraries\lvgl\src/misc\lv_anim.h ****     lv_anim_deleted_cb_t deleted_cb;     /**< Call it when the animation is deleted*/
  79:c:\projects\paindrain\arduinolcd\test\pain drain\libraries\lvgl\src/misc\lv_anim.h ****     lv_anim_get_value_cb_t get_value_cb; /**< Get the current value in relative mode*/
  80:c:\projects\paindrain\arduinolcd\test\pain drain\libraries\lvgl\src/misc\lv_anim.h **** #if LV_USE_USER_DATA
  81:c:\projects\paindrain\arduinolcd\test\pain drain\libraries\lvgl\src/misc\lv_anim.h ****     void * user_data; /**< Custom user data*/
  82:c:\projects\paindrain\arduinolcd\test\pain drain\libraries\lvgl\src/misc\lv_anim.h **** #endif
  83:c:\projects\paindrain\arduinolcd\test\pain drain\libraries\lvgl\src/misc\lv_anim.h ****     lv_anim_path_cb_t path_cb;         /**< Describe the path (curve) of animations*/
  84:c:\projects\paindrain\arduinolcd\test\pain drain\libraries\lvgl\src/misc\lv_anim.h ****     int32_t start_value;               /**< Start value*/
  85:c:\projects\paindrain\arduinolcd\test\pain drain\libraries\lvgl\src/misc\lv_anim.h ****     int32_t current_value;             /**< Current value*/
  86:c:\projects\paindrain\arduinolcd\test\pain drain\libraries\lvgl\src/misc\lv_anim.h ****     int32_t end_value;                 /**< End value*/
  87:c:\projects\paindrain\arduinolcd\test\pain drain\libraries\lvgl\src/misc\lv_anim.h ****     int32_t time;                /**< Animation time in ms*/
  88:c:\projects\paindrain\arduinolcd\test\pain drain\libraries\lvgl\src/misc\lv_anim.h ****     int32_t act_time;            /**< Current time in animation. Set to negative to make delay.*/
  89:c:\projects\paindrain\arduinolcd\test\pain drain\libraries\lvgl\src/misc\lv_anim.h ****     uint32_t playback_delay;     /**< Wait before play back*/
  90:c:\projects\paindrain\arduinolcd\test\pain drain\libraries\lvgl\src/misc\lv_anim.h ****     uint32_t playback_time;      /**< Duration of playback animation*/
  91:c:\projects\paindrain\arduinolcd\test\pain drain\libraries\lvgl\src/misc\lv_anim.h ****     uint32_t repeat_delay;       /**< Wait before repeat*/
  92:c:\projects\paindrain\arduinolcd\test\pain drain\libraries\lvgl\src/misc\lv_anim.h ****     uint16_t repeat_cnt;         /**< Repeat count for the animation*/
  93:c:\projects\paindrain\arduinolcd\test\pain drain\libraries\lvgl\src/misc\lv_anim.h ****     uint8_t early_apply  : 1;    /**< 1: Apply start value immediately even is there is `delay`*/
  94:c:\projects\paindrain\arduinolcd\test\pain drain\libraries\lvgl\src/misc\lv_anim.h **** 
  95:c:\projects\paindrain\arduinolcd\test\pain drain\libraries\lvgl\src/misc\lv_anim.h ****     /*Animation system use these - user shouldn't set*/
  96:c:\projects\paindrain\arduinolcd\test\pain drain\libraries\lvgl\src/misc\lv_anim.h ****     uint8_t playback_now : 1; /**< Play back is in progress*/
  97:c:\projects\paindrain\arduinolcd\test\pain drain\libraries\lvgl\src/misc\lv_anim.h ****     uint8_t run_round : 1;    /**< Indicates the animation has run in this round*/
  98:c:\projects\paindrain\arduinolcd\test\pain drain\libraries\lvgl\src/misc\lv_anim.h ****     uint8_t start_cb_called : 1;    /**< Indicates that the `start_cb` was already called*/
  99:c:\projects\paindrain\arduinolcd\test\pain drain\libraries\lvgl\src/misc\lv_anim.h **** } lv_anim_t;
 100:c:\projects\paindrain\arduinolcd\test\pain drain\libraries\lvgl\src/misc\lv_anim.h **** 
 101:c:\projects\paindrain\arduinolcd\test\pain drain\libraries\lvgl\src/misc\lv_anim.h **** /**********************
 102:c:\projects\paindrain\arduinolcd\test\pain drain\libraries\lvgl\src/misc\lv_anim.h ****  * GLOBAL PROTOTYPES
 103:c:\projects\paindrain\arduinolcd\test\pain drain\libraries\lvgl\src/misc\lv_anim.h ****  **********************/
 104:c:\projects\paindrain\arduinolcd\test\pain drain\libraries\lvgl\src/misc\lv_anim.h **** 
 105:c:\projects\paindrain\arduinolcd\test\pain drain\libraries\lvgl\src/misc\lv_anim.h **** /**
 106:c:\projects\paindrain\arduinolcd\test\pain drain\libraries\lvgl\src/misc\lv_anim.h ****  * Init. the animation module
 107:c:\projects\paindrain\arduinolcd\test\pain drain\libraries\lvgl\src/misc\lv_anim.h ****  */
 108:c:\projects\paindrain\arduinolcd\test\pain drain\libraries\lvgl\src/misc\lv_anim.h **** void _lv_anim_core_init(void);
 109:c:\projects\paindrain\arduinolcd\test\pain drain\libraries\lvgl\src/misc\lv_anim.h **** 
ARM GAS  C:\Users\haske\AppData\Local\Temp\ccGwRjEb.s 			page 6


 110:c:\projects\paindrain\arduinolcd\test\pain drain\libraries\lvgl\src/misc\lv_anim.h **** /**
 111:c:\projects\paindrain\arduinolcd\test\pain drain\libraries\lvgl\src/misc\lv_anim.h ****  * Initialize an animation variable.
 112:c:\projects\paindrain\arduinolcd\test\pain drain\libraries\lvgl\src/misc\lv_anim.h ****  * E.g.:
 113:c:\projects\paindrain\arduinolcd\test\pain drain\libraries\lvgl\src/misc\lv_anim.h ****  * lv_anim_t a;
 114:c:\projects\paindrain\arduinolcd\test\pain drain\libraries\lvgl\src/misc\lv_anim.h ****  * lv_anim_init(&a);
 115:c:\projects\paindrain\arduinolcd\test\pain drain\libraries\lvgl\src/misc\lv_anim.h ****  * lv_anim_set_...(&a);
 116:c:\projects\paindrain\arduinolcd\test\pain drain\libraries\lvgl\src/misc\lv_anim.h ****  * lv_anim_start(&a);
 117:c:\projects\paindrain\arduinolcd\test\pain drain\libraries\lvgl\src/misc\lv_anim.h ****  * @param a     pointer to an `lv_anim_t` variable to initialize
 118:c:\projects\paindrain\arduinolcd\test\pain drain\libraries\lvgl\src/misc\lv_anim.h ****  */
 119:c:\projects\paindrain\arduinolcd\test\pain drain\libraries\lvgl\src/misc\lv_anim.h **** void lv_anim_init(lv_anim_t * a);
 120:c:\projects\paindrain\arduinolcd\test\pain drain\libraries\lvgl\src/misc\lv_anim.h **** 
 121:c:\projects\paindrain\arduinolcd\test\pain drain\libraries\lvgl\src/misc\lv_anim.h **** /**
 122:c:\projects\paindrain\arduinolcd\test\pain drain\libraries\lvgl\src/misc\lv_anim.h ****  * Set a variable to animate
 123:c:\projects\paindrain\arduinolcd\test\pain drain\libraries\lvgl\src/misc\lv_anim.h ****  * @param a     pointer to an initialized `lv_anim_t` variable
 124:c:\projects\paindrain\arduinolcd\test\pain drain\libraries\lvgl\src/misc\lv_anim.h ****  * @param var   pointer to a variable to animate
 125:c:\projects\paindrain\arduinolcd\test\pain drain\libraries\lvgl\src/misc\lv_anim.h ****  */
 126:c:\projects\paindrain\arduinolcd\test\pain drain\libraries\lvgl\src/misc\lv_anim.h **** static inline void lv_anim_set_var(lv_anim_t * a, void * var)
 127:c:\projects\paindrain\arduinolcd\test\pain drain\libraries\lvgl\src/misc\lv_anim.h **** {
 128:c:\projects\paindrain\arduinolcd\test\pain drain\libraries\lvgl\src/misc\lv_anim.h ****     a->var = var;
  57              		.loc 2 128 0
  58 0018 E463     		str	r4, [r4, #60]
  59              	.LVL4:
  60              	.LBE21:
  61              	.LBE20:
  62              	.LBB22:
  63              	.LBB23:
 129:c:\projects\paindrain\arduinolcd\test\pain drain\libraries\lvgl\src/misc\lv_anim.h **** }
 130:c:\projects\paindrain\arduinolcd\test\pain drain\libraries\lvgl\src/misc\lv_anim.h **** 
 131:c:\projects\paindrain\arduinolcd\test\pain drain\libraries\lvgl\src/misc\lv_anim.h **** /**
 132:c:\projects\paindrain\arduinolcd\test\pain drain\libraries\lvgl\src/misc\lv_anim.h ****  * Set a function to animate `var`
 133:c:\projects\paindrain\arduinolcd\test\pain drain\libraries\lvgl\src/misc\lv_anim.h ****  * @param a         pointer to an initialized `lv_anim_t` variable
 134:c:\projects\paindrain\arduinolcd\test\pain drain\libraries\lvgl\src/misc\lv_anim.h ****  * @param exec_cb   a function to execute during animation
 135:c:\projects\paindrain\arduinolcd\test\pain drain\libraries\lvgl\src/misc\lv_anim.h ****  *                  LVGL's built-in functions can be used.
 136:c:\projects\paindrain\arduinolcd\test\pain drain\libraries\lvgl\src/misc\lv_anim.h ****  *                  E.g. lv_obj_set_x
 137:c:\projects\paindrain\arduinolcd\test\pain drain\libraries\lvgl\src/misc\lv_anim.h ****  */
 138:c:\projects\paindrain\arduinolcd\test\pain drain\libraries\lvgl\src/misc\lv_anim.h **** static inline void lv_anim_set_exec_cb(lv_anim_t * a, lv_anim_exec_xcb_t exec_cb)
 139:c:\projects\paindrain\arduinolcd\test\pain drain\libraries\lvgl\src/misc\lv_anim.h **** {
 140:c:\projects\paindrain\arduinolcd\test\pain drain\libraries\lvgl\src/misc\lv_anim.h ****     a->exec_cb = exec_cb;
 141:c:\projects\paindrain\arduinolcd\test\pain drain\libraries\lvgl\src/misc\lv_anim.h **** }
 142:c:\projects\paindrain\arduinolcd\test\pain drain\libraries\lvgl\src/misc\lv_anim.h **** 
 143:c:\projects\paindrain\arduinolcd\test\pain drain\libraries\lvgl\src/misc\lv_anim.h **** /**
 144:c:\projects\paindrain\arduinolcd\test\pain drain\libraries\lvgl\src/misc\lv_anim.h ****  * Set the duration of an animation
 145:c:\projects\paindrain\arduinolcd\test\pain drain\libraries\lvgl\src/misc\lv_anim.h ****  * @param a         pointer to an initialized `lv_anim_t` variable
 146:c:\projects\paindrain\arduinolcd\test\pain drain\libraries\lvgl\src/misc\lv_anim.h ****  * @param duration  duration of the animation in milliseconds
 147:c:\projects\paindrain\arduinolcd\test\pain drain\libraries\lvgl\src/misc\lv_anim.h ****  */
 148:c:\projects\paindrain\arduinolcd\test\pain drain\libraries\lvgl\src/misc\lv_anim.h **** static inline void lv_anim_set_time(lv_anim_t * a, uint32_t duration)
 149:c:\projects\paindrain\arduinolcd\test\pain drain\libraries\lvgl\src/misc\lv_anim.h **** {
 150:c:\projects\paindrain\arduinolcd\test\pain drain\libraries\lvgl\src/misc\lv_anim.h ****     a->time = duration;
  64              		.loc 2 150 0
  65 001a 1E23     		movs	r3, #30
  66 001c A366     		str	r3, [r4, #104]
  67              	.LVL5:
  68              	.LBE23:
  69              	.LBE22:
  70              	.LBB24:
  71              	.LBB25:
 140:c:\projects\paindrain\arduinolcd\test\pain drain\libraries\lvgl\src/misc\lv_anim.h **** }
ARM GAS  C:\Users\haske\AppData\Local\Temp\ccGwRjEb.s 			page 7


  72              		.loc 2 140 0
  73 001e 054B     		ldr	r3, .L2
  74 0020 2364     		str	r3, [r4, #64]
  75              	.LVL6:
  76              	.LBE25:
  77              	.LBE24:
  78              	.LBB26:
  79              	.LBB27:
 151:c:\projects\paindrain\arduinolcd\test\pain drain\libraries\lvgl\src/misc\lv_anim.h **** }
 152:c:\projects\paindrain\arduinolcd\test\pain drain\libraries\lvgl\src/misc\lv_anim.h **** 
 153:c:\projects\paindrain\arduinolcd\test\pain drain\libraries\lvgl\src/misc\lv_anim.h **** /**
 154:c:\projects\paindrain\arduinolcd\test\pain drain\libraries\lvgl\src/misc\lv_anim.h ****  * Set a delay before starting the animation
 155:c:\projects\paindrain\arduinolcd\test\pain drain\libraries\lvgl\src/misc\lv_anim.h ****  * @param a         pointer to an initialized `lv_anim_t` variable
 156:c:\projects\paindrain\arduinolcd\test\pain drain\libraries\lvgl\src/misc\lv_anim.h ****  * @param delay     delay before the animation in milliseconds
 157:c:\projects\paindrain\arduinolcd\test\pain drain\libraries\lvgl\src/misc\lv_anim.h ****  */
 158:c:\projects\paindrain\arduinolcd\test\pain drain\libraries\lvgl\src/misc\lv_anim.h **** static inline void lv_anim_set_delay(lv_anim_t * a, uint32_t delay)
 159:c:\projects\paindrain\arduinolcd\test\pain drain\libraries\lvgl\src/misc\lv_anim.h **** {
 160:c:\projects\paindrain\arduinolcd\test\pain drain\libraries\lvgl\src/misc\lv_anim.h ****     a->act_time = -(int32_t)(delay);
 161:c:\projects\paindrain\arduinolcd\test\pain drain\libraries\lvgl\src/misc\lv_anim.h **** }
 162:c:\projects\paindrain\arduinolcd\test\pain drain\libraries\lvgl\src/misc\lv_anim.h **** 
 163:c:\projects\paindrain\arduinolcd\test\pain drain\libraries\lvgl\src/misc\lv_anim.h **** /**
 164:c:\projects\paindrain\arduinolcd\test\pain drain\libraries\lvgl\src/misc\lv_anim.h ****  * Set the start and end values of an animation
 165:c:\projects\paindrain\arduinolcd\test\pain drain\libraries\lvgl\src/misc\lv_anim.h ****  * @param a         pointer to an initialized `lv_anim_t` variable
 166:c:\projects\paindrain\arduinolcd\test\pain drain\libraries\lvgl\src/misc\lv_anim.h ****  * @param start     the start value
 167:c:\projects\paindrain\arduinolcd\test\pain drain\libraries\lvgl\src/misc\lv_anim.h ****  * @param end       the end value
 168:c:\projects\paindrain\arduinolcd\test\pain drain\libraries\lvgl\src/misc\lv_anim.h ****  */
 169:c:\projects\paindrain\arduinolcd\test\pain drain\libraries\lvgl\src/misc\lv_anim.h **** static inline void lv_anim_set_values(lv_anim_t * a, int32_t start, int32_t end)
 170:c:\projects\paindrain\arduinolcd\test\pain drain\libraries\lvgl\src/misc\lv_anim.h **** {
 171:c:\projects\paindrain\arduinolcd\test\pain drain\libraries\lvgl\src/misc\lv_anim.h ****     a->start_value = start;
  80              		.loc 2 171 0
  81 0022 E565     		str	r5, [r4, #92]
 172:c:\projects\paindrain\arduinolcd\test\pain drain\libraries\lvgl\src/misc\lv_anim.h ****     a->current_value = start;
  82              		.loc 2 172 0
  83 0024 2566     		str	r5, [r4, #96]
 173:c:\projects\paindrain\arduinolcd\test\pain drain\libraries\lvgl\src/misc\lv_anim.h ****     a->end_value = end;
  84              		.loc 2 173 0
  85 0026 0123     		movs	r3, #1
  86 0028 6366     		str	r3, [r4, #100]
  87              	.LVL7:
  88              	.LBE27:
  89              	.LBE26:
  90              	.LBB28:
  91              	.LBB29:
 174:c:\projects\paindrain\arduinolcd\test\pain drain\libraries\lvgl\src/misc\lv_anim.h **** }
 175:c:\projects\paindrain\arduinolcd\test\pain drain\libraries\lvgl\src/misc\lv_anim.h **** 
 176:c:\projects\paindrain\arduinolcd\test\pain drain\libraries\lvgl\src/misc\lv_anim.h **** /**
 177:c:\projects\paindrain\arduinolcd\test\pain drain\libraries\lvgl\src/misc\lv_anim.h ****  * Similar to `lv_anim_set_exec_cb` but `lv_anim_custom_exec_cb_t` receives
 178:c:\projects\paindrain\arduinolcd\test\pain drain\libraries\lvgl\src/misc\lv_anim.h ****  * `lv_anim_t * ` as its first parameter instead of `void *`.
 179:c:\projects\paindrain\arduinolcd\test\pain drain\libraries\lvgl\src/misc\lv_anim.h ****  * This function might be used when LVGL is bound to other languages because
 180:c:\projects\paindrain\arduinolcd\test\pain drain\libraries\lvgl\src/misc\lv_anim.h ****  * it's more consistent to have `lv_anim_t *` as first parameter.
 181:c:\projects\paindrain\arduinolcd\test\pain drain\libraries\lvgl\src/misc\lv_anim.h ****  * The variable to animate can be stored in the animation's `user_data`
 182:c:\projects\paindrain\arduinolcd\test\pain drain\libraries\lvgl\src/misc\lv_anim.h ****  * @param a         pointer to an initialized `lv_anim_t` variable
 183:c:\projects\paindrain\arduinolcd\test\pain drain\libraries\lvgl\src/misc\lv_anim.h ****  * @param exec_cb   a function to execute.
 184:c:\projects\paindrain\arduinolcd\test\pain drain\libraries\lvgl\src/misc\lv_anim.h ****  */
 185:c:\projects\paindrain\arduinolcd\test\pain drain\libraries\lvgl\src/misc\lv_anim.h **** static inline void lv_anim_set_custom_exec_cb(lv_anim_t * a, lv_anim_custom_exec_cb_t exec_cb)
 186:c:\projects\paindrain\arduinolcd\test\pain drain\libraries\lvgl\src/misc\lv_anim.h **** {
 187:c:\projects\paindrain\arduinolcd\test\pain drain\libraries\lvgl\src/misc\lv_anim.h ****     a->var     = a;
ARM GAS  C:\Users\haske\AppData\Local\Temp\ccGwRjEb.s 			page 8


 188:c:\projects\paindrain\arduinolcd\test\pain drain\libraries\lvgl\src/misc\lv_anim.h ****     a->exec_cb = (lv_anim_exec_xcb_t)exec_cb;
 189:c:\projects\paindrain\arduinolcd\test\pain drain\libraries\lvgl\src/misc\lv_anim.h **** }
 190:c:\projects\paindrain\arduinolcd\test\pain drain\libraries\lvgl\src/misc\lv_anim.h **** 
 191:c:\projects\paindrain\arduinolcd\test\pain drain\libraries\lvgl\src/misc\lv_anim.h **** /**
 192:c:\projects\paindrain\arduinolcd\test\pain drain\libraries\lvgl\src/misc\lv_anim.h ****  * Set the path (curve) of the animation.
 193:c:\projects\paindrain\arduinolcd\test\pain drain\libraries\lvgl\src/misc\lv_anim.h ****  * @param a         pointer to an initialized `lv_anim_t` variable
 194:c:\projects\paindrain\arduinolcd\test\pain drain\libraries\lvgl\src/misc\lv_anim.h ****  * @param path_cb a function to set the current value of the animation.
 195:c:\projects\paindrain\arduinolcd\test\pain drain\libraries\lvgl\src/misc\lv_anim.h ****  */
 196:c:\projects\paindrain\arduinolcd\test\pain drain\libraries\lvgl\src/misc\lv_anim.h **** static inline void lv_anim_set_path_cb(lv_anim_t * a, lv_anim_path_cb_t path_cb)
 197:c:\projects\paindrain\arduinolcd\test\pain drain\libraries\lvgl\src/misc\lv_anim.h **** {
 198:c:\projects\paindrain\arduinolcd\test\pain drain\libraries\lvgl\src/misc\lv_anim.h ****     a->path_cb = path_cb;
 199:c:\projects\paindrain\arduinolcd\test\pain drain\libraries\lvgl\src/misc\lv_anim.h **** }
 200:c:\projects\paindrain\arduinolcd\test\pain drain\libraries\lvgl\src/misc\lv_anim.h **** 
 201:c:\projects\paindrain\arduinolcd\test\pain drain\libraries\lvgl\src/misc\lv_anim.h **** /**
 202:c:\projects\paindrain\arduinolcd\test\pain drain\libraries\lvgl\src/misc\lv_anim.h ****  * Set a function call when the animation really starts (considering `delay`)
 203:c:\projects\paindrain\arduinolcd\test\pain drain\libraries\lvgl\src/misc\lv_anim.h ****  * @param a         pointer to an initialized `lv_anim_t` variable
 204:c:\projects\paindrain\arduinolcd\test\pain drain\libraries\lvgl\src/misc\lv_anim.h ****  * @param start_cb  a function call when the animation starts
 205:c:\projects\paindrain\arduinolcd\test\pain drain\libraries\lvgl\src/misc\lv_anim.h ****  */
 206:c:\projects\paindrain\arduinolcd\test\pain drain\libraries\lvgl\src/misc\lv_anim.h **** static inline void lv_anim_set_start_cb(lv_anim_t * a, lv_anim_start_cb_t start_cb)
 207:c:\projects\paindrain\arduinolcd\test\pain drain\libraries\lvgl\src/misc\lv_anim.h **** {
 208:c:\projects\paindrain\arduinolcd\test\pain drain\libraries\lvgl\src/misc\lv_anim.h ****     a->start_cb = start_cb;
 209:c:\projects\paindrain\arduinolcd\test\pain drain\libraries\lvgl\src/misc\lv_anim.h **** }
 210:c:\projects\paindrain\arduinolcd\test\pain drain\libraries\lvgl\src/misc\lv_anim.h **** 
 211:c:\projects\paindrain\arduinolcd\test\pain drain\libraries\lvgl\src/misc\lv_anim.h **** /**
 212:c:\projects\paindrain\arduinolcd\test\pain drain\libraries\lvgl\src/misc\lv_anim.h ****  * Set a function to use the current value of the variable and make start and end value
 213:c:\projects\paindrain\arduinolcd\test\pain drain\libraries\lvgl\src/misc\lv_anim.h ****  * relative to the returned current value.
 214:c:\projects\paindrain\arduinolcd\test\pain drain\libraries\lvgl\src/misc\lv_anim.h ****  * @param a             pointer to an initialized `lv_anim_t` variable
 215:c:\projects\paindrain\arduinolcd\test\pain drain\libraries\lvgl\src/misc\lv_anim.h ****  * @param get_value_cb  a function call when the animation starts
 216:c:\projects\paindrain\arduinolcd\test\pain drain\libraries\lvgl\src/misc\lv_anim.h ****  */
 217:c:\projects\paindrain\arduinolcd\test\pain drain\libraries\lvgl\src/misc\lv_anim.h **** static inline void lv_anim_set_get_value_cb(lv_anim_t * a, lv_anim_get_value_cb_t get_value_cb)
 218:c:\projects\paindrain\arduinolcd\test\pain drain\libraries\lvgl\src/misc\lv_anim.h **** {
 219:c:\projects\paindrain\arduinolcd\test\pain drain\libraries\lvgl\src/misc\lv_anim.h ****     a->get_value_cb = get_value_cb;
 220:c:\projects\paindrain\arduinolcd\test\pain drain\libraries\lvgl\src/misc\lv_anim.h **** }
 221:c:\projects\paindrain\arduinolcd\test\pain drain\libraries\lvgl\src/misc\lv_anim.h **** 
 222:c:\projects\paindrain\arduinolcd\test\pain drain\libraries\lvgl\src/misc\lv_anim.h **** /**
 223:c:\projects\paindrain\arduinolcd\test\pain drain\libraries\lvgl\src/misc\lv_anim.h ****  * Set a function call when the animation is ready
 224:c:\projects\paindrain\arduinolcd\test\pain drain\libraries\lvgl\src/misc\lv_anim.h ****  * @param a         pointer to an initialized `lv_anim_t` variable
 225:c:\projects\paindrain\arduinolcd\test\pain drain\libraries\lvgl\src/misc\lv_anim.h ****  * @param ready_cb  a function call when the animation is ready
 226:c:\projects\paindrain\arduinolcd\test\pain drain\libraries\lvgl\src/misc\lv_anim.h ****  */
 227:c:\projects\paindrain\arduinolcd\test\pain drain\libraries\lvgl\src/misc\lv_anim.h **** static inline void lv_anim_set_ready_cb(lv_anim_t * a, lv_anim_ready_cb_t ready_cb)
 228:c:\projects\paindrain\arduinolcd\test\pain drain\libraries\lvgl\src/misc\lv_anim.h **** {
 229:c:\projects\paindrain\arduinolcd\test\pain drain\libraries\lvgl\src/misc\lv_anim.h ****     a->ready_cb = ready_cb;
 230:c:\projects\paindrain\arduinolcd\test\pain drain\libraries\lvgl\src/misc\lv_anim.h **** }
 231:c:\projects\paindrain\arduinolcd\test\pain drain\libraries\lvgl\src/misc\lv_anim.h **** 
 232:c:\projects\paindrain\arduinolcd\test\pain drain\libraries\lvgl\src/misc\lv_anim.h **** /**
 233:c:\projects\paindrain\arduinolcd\test\pain drain\libraries\lvgl\src/misc\lv_anim.h ****  * Set a function call when the animation is deleted.
 234:c:\projects\paindrain\arduinolcd\test\pain drain\libraries\lvgl\src/misc\lv_anim.h ****  * @param a         pointer to an initialized `lv_anim_t` variable
 235:c:\projects\paindrain\arduinolcd\test\pain drain\libraries\lvgl\src/misc\lv_anim.h ****  * @param deleted_cb  a function call when the animation is deleted
 236:c:\projects\paindrain\arduinolcd\test\pain drain\libraries\lvgl\src/misc\lv_anim.h ****  */
 237:c:\projects\paindrain\arduinolcd\test\pain drain\libraries\lvgl\src/misc\lv_anim.h **** static inline void lv_anim_set_deleted_cb(lv_anim_t * a, lv_anim_deleted_cb_t deleted_cb)
 238:c:\projects\paindrain\arduinolcd\test\pain drain\libraries\lvgl\src/misc\lv_anim.h **** {
 239:c:\projects\paindrain\arduinolcd\test\pain drain\libraries\lvgl\src/misc\lv_anim.h ****     a->deleted_cb = deleted_cb;
 240:c:\projects\paindrain\arduinolcd\test\pain drain\libraries\lvgl\src/misc\lv_anim.h **** }
 241:c:\projects\paindrain\arduinolcd\test\pain drain\libraries\lvgl\src/misc\lv_anim.h **** 
 242:c:\projects\paindrain\arduinolcd\test\pain drain\libraries\lvgl\src/misc\lv_anim.h **** /**
 243:c:\projects\paindrain\arduinolcd\test\pain drain\libraries\lvgl\src/misc\lv_anim.h ****  * Make the animation to play back to when the forward direction is ready
 244:c:\projects\paindrain\arduinolcd\test\pain drain\libraries\lvgl\src/misc\lv_anim.h ****  * @param a         pointer to an initialized `lv_anim_t` variable
ARM GAS  C:\Users\haske\AppData\Local\Temp\ccGwRjEb.s 			page 9


 245:c:\projects\paindrain\arduinolcd\test\pain drain\libraries\lvgl\src/misc\lv_anim.h ****  * @param time      the duration of the playback animation in milliseconds. 0: disable playback
 246:c:\projects\paindrain\arduinolcd\test\pain drain\libraries\lvgl\src/misc\lv_anim.h ****  */
 247:c:\projects\paindrain\arduinolcd\test\pain drain\libraries\lvgl\src/misc\lv_anim.h **** static inline void lv_anim_set_playback_time(lv_anim_t * a, uint32_t time)
 248:c:\projects\paindrain\arduinolcd\test\pain drain\libraries\lvgl\src/misc\lv_anim.h **** {
 249:c:\projects\paindrain\arduinolcd\test\pain drain\libraries\lvgl\src/misc\lv_anim.h ****     a->playback_time = time;
 250:c:\projects\paindrain\arduinolcd\test\pain drain\libraries\lvgl\src/misc\lv_anim.h **** }
 251:c:\projects\paindrain\arduinolcd\test\pain drain\libraries\lvgl\src/misc\lv_anim.h **** 
 252:c:\projects\paindrain\arduinolcd\test\pain drain\libraries\lvgl\src/misc\lv_anim.h **** /**
 253:c:\projects\paindrain\arduinolcd\test\pain drain\libraries\lvgl\src/misc\lv_anim.h ****  * Make the animation to play back to when the forward direction is ready
 254:c:\projects\paindrain\arduinolcd\test\pain drain\libraries\lvgl\src/misc\lv_anim.h ****  * @param a         pointer to an initialized `lv_anim_t` variable
 255:c:\projects\paindrain\arduinolcd\test\pain drain\libraries\lvgl\src/misc\lv_anim.h ****  * @param delay     delay in milliseconds before starting the playback animation.
 256:c:\projects\paindrain\arduinolcd\test\pain drain\libraries\lvgl\src/misc\lv_anim.h ****  */
 257:c:\projects\paindrain\arduinolcd\test\pain drain\libraries\lvgl\src/misc\lv_anim.h **** static inline void lv_anim_set_playback_delay(lv_anim_t * a, uint32_t delay)
 258:c:\projects\paindrain\arduinolcd\test\pain drain\libraries\lvgl\src/misc\lv_anim.h **** {
 259:c:\projects\paindrain\arduinolcd\test\pain drain\libraries\lvgl\src/misc\lv_anim.h ****     a->playback_delay = delay;
 260:c:\projects\paindrain\arduinolcd\test\pain drain\libraries\lvgl\src/misc\lv_anim.h **** }
 261:c:\projects\paindrain\arduinolcd\test\pain drain\libraries\lvgl\src/misc\lv_anim.h **** 
 262:c:\projects\paindrain\arduinolcd\test\pain drain\libraries\lvgl\src/misc\lv_anim.h **** /**
 263:c:\projects\paindrain\arduinolcd\test\pain drain\libraries\lvgl\src/misc\lv_anim.h ****  * Make the animation repeat itself.
 264:c:\projects\paindrain\arduinolcd\test\pain drain\libraries\lvgl\src/misc\lv_anim.h ****  * @param a         pointer to an initialized `lv_anim_t` variable
 265:c:\projects\paindrain\arduinolcd\test\pain drain\libraries\lvgl\src/misc\lv_anim.h ****  * @param cnt       repeat count or `LV_ANIM_REPEAT_INFINITE` for infinite repetition. 0: to disabl
 266:c:\projects\paindrain\arduinolcd\test\pain drain\libraries\lvgl\src/misc\lv_anim.h ****  */
 267:c:\projects\paindrain\arduinolcd\test\pain drain\libraries\lvgl\src/misc\lv_anim.h **** static inline void lv_anim_set_repeat_count(lv_anim_t * a, uint16_t cnt)
 268:c:\projects\paindrain\arduinolcd\test\pain drain\libraries\lvgl\src/misc\lv_anim.h **** {
 269:c:\projects\paindrain\arduinolcd\test\pain drain\libraries\lvgl\src/misc\lv_anim.h ****     a->repeat_cnt = cnt;
  92              		.loc 2 269 0
  93 002a 0122     		movs	r2, #1
  94 002c 5242     		rsbs	r2, r2, #0
  95 002e 7B33     		adds	r3, r3, #123
  96 0030 E252     		strh	r2, [r4, r3]
  97              	.LVL8:
  98              	.LBE29:
  99              	.LBE28:
 121:..\..\..\arduinoLCD\test\Pain Drain\libraries\lvgl\src\extra\widgets\animimg/lv_animimg.c ****     lv_anim_set_var(&animimg->anim, obj);
 122:..\..\..\arduinoLCD\test\Pain Drain\libraries\lvgl\src\extra\widgets\animimg/lv_animimg.c ****     lv_anim_set_time(&animimg->anim, 30);
 123:..\..\..\arduinoLCD\test\Pain Drain\libraries\lvgl\src\extra\widgets\animimg/lv_animimg.c ****     lv_anim_set_exec_cb(&animimg->anim, (lv_anim_exec_xcb_t)index_change);
 124:..\..\..\arduinoLCD\test\Pain Drain\libraries\lvgl\src\extra\widgets\animimg/lv_animimg.c ****     lv_anim_set_values(&animimg->anim, 0, 1);
 125:..\..\..\arduinoLCD\test\Pain Drain\libraries\lvgl\src\extra\widgets\animimg/lv_animimg.c ****     lv_anim_set_repeat_count(&animimg->anim, LV_ANIM_REPEAT_INFINITE);
 126:..\..\..\arduinoLCD\test\Pain Drain\libraries\lvgl\src\extra\widgets\animimg/lv_animimg.c **** }
 100              		.loc 1 126 0
 101              		@ sp needed
 102              	.LVL9:
 103 0032 70BD     		pop	{r4, r5, r6, pc}
 104              	.L3:
 105              		.align	2
 106              	.L2:
 107 0034 00000000 		.word	index_change
 108              		.cfi_endproc
 109              	.LFE207:
 110              		.size	lv_animimg_constructor, .-lv_animimg_constructor
 111              		.global	__aeabi_idivmod
 112              		.section	.text.index_change,"ax",%progbits
 113              		.align	2
 114              		.code	16
 115              		.thumb_func
 116              		.type	index_change, %function
 117              	index_change:
ARM GAS  C:\Users\haske\AppData\Local\Temp\ccGwRjEb.s 			page 10


 118              	.LFB208:
 127:..\..\..\arduinoLCD\test\Pain Drain\libraries\lvgl\src\extra\widgets\animimg/lv_animimg.c **** 
 128:..\..\..\arduinoLCD\test\Pain Drain\libraries\lvgl\src\extra\widgets\animimg/lv_animimg.c **** static void index_change(lv_obj_t * obj, int32_t index)
 129:..\..\..\arduinoLCD\test\Pain Drain\libraries\lvgl\src\extra\widgets\animimg/lv_animimg.c **** {
 119              		.loc 1 129 0
 120              		.cfi_startproc
 121              		@ args = 0, pretend = 0, frame = 0
 122              		@ frame_needed = 0, uses_anonymous_args = 0
 123              	.LVL10:
 124 0000 10B5     		push	{r4, lr}
 125              		.cfi_def_cfa_offset 8
 126              		.cfi_offset 4, -8
 127              		.cfi_offset 14, -4
 128 0002 0400     		movs	r4, r0
 129 0004 0800     		movs	r0, r1
 130              	.LVL11:
 130:..\..\..\arduinoLCD\test\Pain Drain\libraries\lvgl\src\extra\widgets\animimg/lv_animimg.c ****     lv_coord_t idx;
 131:..\..\..\arduinoLCD\test\Pain Drain\libraries\lvgl\src\extra\widgets\animimg/lv_animimg.c ****     lv_animimg_t * animimg = (lv_animimg_t *)obj;
 132:..\..\..\arduinoLCD\test\Pain Drain\libraries\lvgl\src\extra\widgets\animimg/lv_animimg.c **** 
 133:..\..\..\arduinoLCD\test\Pain Drain\libraries\lvgl\src\extra\widgets\animimg/lv_animimg.c ****     idx = index % animimg->pic_count;
 131              		.loc 1 133 0
 132 0006 8423     		movs	r3, #132
 133 0008 E156     		ldrsb	r1, [r4, r3]
 134              	.LVL12:
 135 000a FFF7FEFF 		bl	__aeabi_idivmod
 136              	.LVL13:
 137 000e 09B2     		sxth	r1, r1
 138              	.LVL14:
 134:..\..\..\arduinoLCD\test\Pain Drain\libraries\lvgl\src\extra\widgets\animimg/lv_animimg.c **** 
 135:..\..\..\arduinoLCD\test\Pain Drain\libraries\lvgl\src\extra\widgets\animimg/lv_animimg.c ****     lv_img_set_src(obj, animimg->dsc[idx]);
 139              		.loc 1 135 0
 140 0010 8023     		movs	r3, #128
 141 0012 E358     		ldr	r3, [r4, r3]
 142 0014 8900     		lsls	r1, r1, #2
 143              	.LVL15:
 144 0016 5958     		ldr	r1, [r3, r1]
 145 0018 2000     		movs	r0, r4
 146 001a FFF7FEFF 		bl	lv_img_set_src
 147              	.LVL16:
 136:..\..\..\arduinoLCD\test\Pain Drain\libraries\lvgl\src\extra\widgets\animimg/lv_animimg.c **** }
 148              		.loc 1 136 0
 149              		@ sp needed
 150              	.LVL17:
 151 001e 10BD     		pop	{r4, pc}
 152              		.cfi_endproc
 153              	.LFE208:
 154              		.size	index_change, .-index_change
 155              		.section	.text.lv_animimg_create,"ax",%progbits
 156              		.align	2
 157              		.global	lv_animimg_create
 158              		.code	16
 159              		.thumb_func
 160              		.type	lv_animimg_create, %function
 161              	lv_animimg_create:
 162              	.LFB202:
  60:..\..\..\arduinoLCD\test\Pain Drain\libraries\lvgl\src\extra\widgets\animimg/lv_animimg.c ****     LV_LOG_INFO("begin");
 163              		.loc 1 60 0
ARM GAS  C:\Users\haske\AppData\Local\Temp\ccGwRjEb.s 			page 11


 164              		.cfi_startproc
 165              		@ args = 0, pretend = 0, frame = 0
 166              		@ frame_needed = 0, uses_anonymous_args = 0
 167              	.LVL18:
 168 0000 10B5     		push	{r4, lr}
 169              		.cfi_def_cfa_offset 8
 170              		.cfi_offset 4, -8
 171              		.cfi_offset 14, -4
 172 0002 0100     		movs	r1, r0
  62:..\..\..\arduinoLCD\test\Pain Drain\libraries\lvgl\src\extra\widgets\animimg/lv_animimg.c ****     lv_obj_class_init_obj(obj);
 173              		.loc 1 62 0
 174 0004 0348     		ldr	r0, .L6
 175              	.LVL19:
 176 0006 FFF7FEFF 		bl	lv_obj_class_create_obj
 177              	.LVL20:
 178 000a 0400     		movs	r4, r0
 179              	.LVL21:
  63:..\..\..\arduinoLCD\test\Pain Drain\libraries\lvgl\src\extra\widgets\animimg/lv_animimg.c ****     return obj;
 180              		.loc 1 63 0
 181 000c FFF7FEFF 		bl	lv_obj_class_init_obj
 182              	.LVL22:
  65:..\..\..\arduinoLCD\test\Pain Drain\libraries\lvgl\src\extra\widgets\animimg/lv_animimg.c **** 
 183              		.loc 1 65 0
 184 0010 2000     		movs	r0, r4
 185              		@ sp needed
 186              	.LVL23:
 187 0012 10BD     		pop	{r4, pc}
 188              	.L7:
 189              		.align	2
 190              	.L6:
 191 0014 00000000 		.word	.LANCHOR0
 192              		.cfi_endproc
 193              	.LFE202:
 194              		.size	lv_animimg_create, .-lv_animimg_create
 195              		.section	.text.lv_animimg_set_src,"ax",%progbits
 196              		.align	2
 197              		.global	lv_animimg_set_src
 198              		.code	16
 199              		.thumb_func
 200              		.type	lv_animimg_set_src, %function
 201              	lv_animimg_set_src:
 202              	.LFB203:
  68:..\..\..\arduinoLCD\test\Pain Drain\libraries\lvgl\src\extra\widgets\animimg/lv_animimg.c ****     LV_ASSERT_OBJ(obj, MY_CLASS);
 203              		.loc 1 68 0
 204              		.cfi_startproc
 205              		@ args = 0, pretend = 0, frame = 0
 206              		@ frame_needed = 0, uses_anonymous_args = 0
 207              		@ link register save eliminated.
 208              	.LVL24:
  71:..\..\..\arduinoLCD\test\Pain Drain\libraries\lvgl\src\extra\widgets\animimg/lv_animimg.c ****     animimg->pic_count = num;
 209              		.loc 1 71 0
 210 0000 8023     		movs	r3, #128
 211 0002 C150     		str	r1, [r0, r3]
  72:..\..\..\arduinoLCD\test\Pain Drain\libraries\lvgl\src\extra\widgets\animimg/lv_animimg.c ****     lv_anim_set_values(&animimg->anim, 0, num);
 212              		.loc 1 72 0
 213 0004 0433     		adds	r3, r3, #4
 214 0006 C254     		strb	r2, [r0, r3]
ARM GAS  C:\Users\haske\AppData\Local\Temp\ccGwRjEb.s 			page 12


 215              	.LVL25:
 216              	.LBB30:
 217              	.LBB31:
 171:c:\projects\paindrain\arduinolcd\test\pain drain\libraries\lvgl\src/misc\lv_anim.h ****     a->current_value = start;
 218              		.loc 2 171 0
 219 0008 0023     		movs	r3, #0
 220 000a C365     		str	r3, [r0, #92]
 172:c:\projects\paindrain\arduinolcd\test\pain drain\libraries\lvgl\src/misc\lv_anim.h ****     a->end_value = end;
 221              		.loc 2 172 0
 222 000c 0366     		str	r3, [r0, #96]
 173:c:\projects\paindrain\arduinolcd\test\pain drain\libraries\lvgl\src/misc\lv_anim.h **** }
 223              		.loc 2 173 0
 224 000e 4266     		str	r2, [r0, #100]
 225              	.LVL26:
 226              	.LBE31:
 227              	.LBE30:
  74:..\..\..\arduinoLCD\test\Pain Drain\libraries\lvgl\src\extra\widgets\animimg/lv_animimg.c **** 
 228              		.loc 1 74 0
 229              		@ sp needed
 230 0010 7047     		bx	lr
 231              		.cfi_endproc
 232              	.LFE203:
 233              		.size	lv_animimg_set_src, .-lv_animimg_set_src
 234 0012 C046     		.section	.text.lv_animimg_start,"ax",%progbits
 235              		.align	2
 236              		.global	lv_animimg_start
 237              		.code	16
 238              		.thumb_func
 239              		.type	lv_animimg_start, %function
 240              	lv_animimg_start:
 241              	.LFB204:
  77:..\..\..\arduinoLCD\test\Pain Drain\libraries\lvgl\src\extra\widgets\animimg/lv_animimg.c ****     LV_ASSERT_OBJ(obj, MY_CLASS);
 242              		.loc 1 77 0
 243              		.cfi_startproc
 244              		@ args = 0, pretend = 0, frame = 0
 245              		@ frame_needed = 0, uses_anonymous_args = 0
 246              	.LVL27:
 247 0000 10B5     		push	{r4, lr}
 248              		.cfi_def_cfa_offset 8
 249              		.cfi_offset 4, -8
 250              		.cfi_offset 14, -4
 251              	.LVL28:
  80:..\..\..\arduinoLCD\test\Pain Drain\libraries\lvgl\src\extra\widgets\animimg/lv_animimg.c **** }
 252              		.loc 1 80 0
 253 0002 3C30     		adds	r0, r0, #60
 254              	.LVL29:
 255 0004 FFF7FEFF 		bl	lv_anim_start
 256              	.LVL30:
  81:..\..\..\arduinoLCD\test\Pain Drain\libraries\lvgl\src\extra\widgets\animimg/lv_animimg.c **** 
 257              		.loc 1 81 0
 258              		@ sp needed
 259 0008 10BD     		pop	{r4, pc}
 260              		.cfi_endproc
 261              	.LFE204:
 262              		.size	lv_animimg_start, .-lv_animimg_start
 263 000a C046     		.section	.text.lv_animimg_set_duration,"ax",%progbits
 264              		.align	2
ARM GAS  C:\Users\haske\AppData\Local\Temp\ccGwRjEb.s 			page 13


 265              		.global	lv_animimg_set_duration
 266              		.code	16
 267              		.thumb_func
 268              		.type	lv_animimg_set_duration, %function
 269              	lv_animimg_set_duration:
 270              	.LFB205:
  88:..\..\..\arduinoLCD\test\Pain Drain\libraries\lvgl\src\extra\widgets\animimg/lv_animimg.c ****     LV_ASSERT_OBJ(obj, MY_CLASS);
 271              		.loc 1 88 0
 272              		.cfi_startproc
 273              		@ args = 0, pretend = 0, frame = 0
 274              		@ frame_needed = 0, uses_anonymous_args = 0
 275              		@ link register save eliminated.
 276              	.LVL31:
 277              	.LBB32:
 278              	.LBB33:
 150:c:\projects\paindrain\arduinolcd\test\pain drain\libraries\lvgl\src/misc\lv_anim.h **** }
 279              		.loc 2 150 0
 280 0000 8166     		str	r1, [r0, #104]
 281              	.LVL32:
 282              	.LBE33:
 283              	.LBE32:
 284              	.LBB34:
 285              	.LBB35:
 259:c:\projects\paindrain\arduinolcd\test\pain drain\libraries\lvgl\src/misc\lv_anim.h **** }
 286              		.loc 2 259 0
 287 0002 0167     		str	r1, [r0, #112]
 288              	.LVL33:
 289              	.LBE35:
 290              	.LBE34:
  93:..\..\..\arduinoLCD\test\Pain Drain\libraries\lvgl\src\extra\widgets\animimg/lv_animimg.c **** 
 291              		.loc 1 93 0
 292              		@ sp needed
 293 0004 7047     		bx	lr
 294              		.cfi_endproc
 295              	.LFE205:
 296              		.size	lv_animimg_set_duration, .-lv_animimg_set_duration
 297 0006 C046     		.section	.text.lv_animimg_set_repeat_count,"ax",%progbits
 298              		.align	2
 299              		.global	lv_animimg_set_repeat_count
 300              		.code	16
 301              		.thumb_func
 302              		.type	lv_animimg_set_repeat_count, %function
 303              	lv_animimg_set_repeat_count:
 304              	.LFB206:
  96:..\..\..\arduinoLCD\test\Pain Drain\libraries\lvgl\src\extra\widgets\animimg/lv_animimg.c ****     LV_ASSERT_OBJ(obj, MY_CLASS);
 305              		.loc 1 96 0
 306              		.cfi_startproc
 307              		@ args = 0, pretend = 0, frame = 0
 308              		@ frame_needed = 0, uses_anonymous_args = 0
 309              		@ link register save eliminated.
 310              	.LVL34:
 311              	.LBB36:
 312              	.LBB37:
 313              		.loc 2 269 0
 314 0000 7C23     		movs	r3, #124
 315 0002 C152     		strh	r1, [r0, r3]
 316              	.LVL35:
ARM GAS  C:\Users\haske\AppData\Local\Temp\ccGwRjEb.s 			page 14


 317              	.LBE37:
 318              	.LBE36:
 100:..\..\..\arduinoLCD\test\Pain Drain\libraries\lvgl\src\extra\widgets\animimg/lv_animimg.c **** 
 319              		.loc 1 100 0
 320              		@ sp needed
 321 0004 7047     		bx	lr
 322              		.cfi_endproc
 323              	.LFE206:
 324              		.size	lv_animimg_set_repeat_count, .-lv_animimg_set_repeat_count
 325              		.global	lv_animimg_class
 326 0006 C046     		.section	.rodata
 327              		.align	2
 328              		.set	.LANCHOR0,. + 0
 329              		.type	lv_animimg_class, %object
 330              		.size	lv_animimg_class, 28
 331              	lv_animimg_class:
 332 0000 00000000 		.word	lv_img_class
 333 0004 00000000 		.word	lv_animimg_constructor
 334 0008 00000000 		.space	16
 334      00000000 
 334      00000000 
 334      00000000 
 335 0018 80       		.byte	128
 336 0019 08       		.byte	8
 337 001a 00       		.byte	0
 338 001b 00       		.space	1
 339              		.text
 340              	.Letext0:
 341              		.file 3 "c:\\program files (x86)\\cypress\\psoc creator\\4.4\\psoc creator\\import\\gnu\\arm\\5.4.
 342              		.file 4 "c:\\program files (x86)\\cypress\\psoc creator\\4.4\\psoc creator\\import\\gnu\\arm\\5.4.
 343              		.file 5 "c:\\projects\\paindrain\\arduinolcd\\test\\pain drain\\libraries\\lvgl\\src\\misc\\lv_are
 344              		.file 6 "c:\\projects\\paindrain\\arduinolcd\\test\\pain drain\\libraries\\lvgl\\src\\font\\lv_fon
 345              		.file 7 "c:\\projects\\paindrain\\arduinolcd\\test\\pain drain\\libraries\\lvgl\\src\\misc\\lv_col
 346              		.file 8 "c:\\projects\\paindrain\\arduinolcd\\test\\pain drain\\libraries\\lvgl\\src\\misc\\lv_sty
 347              		.file 9 "c:\\projects\\paindrain\\arduinolcd\\test\\pain drain\\libraries\\lvgl\\src/core/lv_obj.h
 348              		.file 10 "c:\\projects\\paindrain\\arduinolcd\\test\\pain drain\\libraries\\lvgl\\src\\misc\\lv_ll
 349              		.file 11 "c:\\projects\\paindrain\\arduinolcd\\test\\pain drain\\libraries\\lvgl\\src/core/lv_grou
 350              		.file 12 "c:\\projects\\paindrain\\arduinolcd\\test\\pain drain\\libraries\\lvgl\\src/core/lv_obj_
 351              		.file 13 "c:\\projects\\paindrain\\arduinolcd\\test\\pain drain\\libraries\\lvgl\\src/core/lv_obj_
 352              		.file 14 "c:\\projects\\paindrain\\arduinolcd\\test\\pain drain\\libraries\\lvgl\\src/core/lv_obj_
 353              		.file 15 "c:\\projects\\paindrain\\arduinolcd\\test\\pain drain\\libraries\\lvgl\\src/core/lv_even
 354              		.file 16 "c:\\projects\\paindrain\\arduinolcd\\test\\pain drain\\libraries\\lvgl\\src/widgets/lv_i
 355              		.file 17 "c:\\projects\\paindrain\\arduinolcd\\test\\pain drain\\libraries\\lvgl\\src/widgets/lv_b
 356              		.file 18 "c:\\projects\\paindrain\\arduinolcd\\test\\pain drain\\libraries\\lvgl\\src/extra/widget
 357              		.file 19 "..\\..\\..\\arduinoLCD\\test\\Pain Drain\\libraries\\lvgl\\src\\extra\\widgets\\animimg\
 358              		.file 20 "c:\\projects\\paindrain\\arduinolcd\\test\\pain drain\\libraries\\lvgl\\src/extra/layout
 359              		.file 21 "c:\\projects\\paindrain\\arduinolcd\\test\\pain drain\\libraries\\lvgl\\src/extra/layout