ARM GAS  C:\Users\haske\AppData\Local\Temp\cceAapTu.s 			page 1


   1              		.syntax unified
   2              		.cpu cortex-m0plus
   3              		.fpu softvfp
   4              		.eabi_attribute 20, 1
   5              		.eabi_attribute 21, 1
   6              		.eabi_attribute 23, 3
   7              		.eabi_attribute 24, 1
   8              		.eabi_attribute 25, 1
   9              		.eabi_attribute 26, 1
  10              		.eabi_attribute 30, 1
  11              		.eabi_attribute 34, 0
  12              		.eabi_attribute 18, 4
  13              		.thumb
  14              		.syntax unified
  15              		.file	"lv_anim.c"
  16              		.text
  17              	.Ltext0:
  18              		.cfi_sections	.debug_frame
  19              		.section	.text.anim_mark_list_change,"ax",%progbits
  20              		.align	2
  21              		.code	16
  22              		.thumb_func
  23              		.type	anim_mark_list_change, %function
  24              	anim_mark_list_change:
  25              	.LFB65:
  26              		.file 1 "..\\..\\..\\arduinoLCD\\test\\Pain Drain\\libraries\\lvgl\\src\\misc\\lv_anim.c"
   1:..\..\..\arduinoLCD\test\Pain Drain\libraries\lvgl\src\misc/lv_anim.c **** /**
   2:..\..\..\arduinoLCD\test\Pain Drain\libraries\lvgl\src\misc/lv_anim.c ****  * @file lv_anim.c
   3:..\..\..\arduinoLCD\test\Pain Drain\libraries\lvgl\src\misc/lv_anim.c ****  *
   4:..\..\..\arduinoLCD\test\Pain Drain\libraries\lvgl\src\misc/lv_anim.c ****  */
   5:..\..\..\arduinoLCD\test\Pain Drain\libraries\lvgl\src\misc/lv_anim.c **** 
   6:..\..\..\arduinoLCD\test\Pain Drain\libraries\lvgl\src\misc/lv_anim.c **** /*********************
   7:..\..\..\arduinoLCD\test\Pain Drain\libraries\lvgl\src\misc/lv_anim.c ****  *      INCLUDES
   8:..\..\..\arduinoLCD\test\Pain Drain\libraries\lvgl\src\misc/lv_anim.c ****  *********************/
   9:..\..\..\arduinoLCD\test\Pain Drain\libraries\lvgl\src\misc/lv_anim.c **** #include "lv_anim.h"
  10:..\..\..\arduinoLCD\test\Pain Drain\libraries\lvgl\src\misc/lv_anim.c **** 
  11:..\..\..\arduinoLCD\test\Pain Drain\libraries\lvgl\src\misc/lv_anim.c **** #include "../hal/lv_hal_tick.h"
  12:..\..\..\arduinoLCD\test\Pain Drain\libraries\lvgl\src\misc/lv_anim.c **** #include "lv_assert.h"
  13:..\..\..\arduinoLCD\test\Pain Drain\libraries\lvgl\src\misc/lv_anim.c **** #include "lv_timer.h"
  14:..\..\..\arduinoLCD\test\Pain Drain\libraries\lvgl\src\misc/lv_anim.c **** #include "lv_math.h"
  15:..\..\..\arduinoLCD\test\Pain Drain\libraries\lvgl\src\misc/lv_anim.c **** #include "lv_mem.h"
  16:..\..\..\arduinoLCD\test\Pain Drain\libraries\lvgl\src\misc/lv_anim.c **** #include "lv_gc.h"
  17:..\..\..\arduinoLCD\test\Pain Drain\libraries\lvgl\src\misc/lv_anim.c **** 
  18:..\..\..\arduinoLCD\test\Pain Drain\libraries\lvgl\src\misc/lv_anim.c **** /*********************
  19:..\..\..\arduinoLCD\test\Pain Drain\libraries\lvgl\src\misc/lv_anim.c ****  *      DEFINES
  20:..\..\..\arduinoLCD\test\Pain Drain\libraries\lvgl\src\misc/lv_anim.c ****  *********************/
  21:..\..\..\arduinoLCD\test\Pain Drain\libraries\lvgl\src\misc/lv_anim.c **** #define LV_ANIM_RESOLUTION 1024
  22:..\..\..\arduinoLCD\test\Pain Drain\libraries\lvgl\src\misc/lv_anim.c **** #define LV_ANIM_RES_SHIFT 10
  23:..\..\..\arduinoLCD\test\Pain Drain\libraries\lvgl\src\misc/lv_anim.c **** 
  24:..\..\..\arduinoLCD\test\Pain Drain\libraries\lvgl\src\misc/lv_anim.c **** /**********************
  25:..\..\..\arduinoLCD\test\Pain Drain\libraries\lvgl\src\misc/lv_anim.c ****  *      TYPEDEFS
  26:..\..\..\arduinoLCD\test\Pain Drain\libraries\lvgl\src\misc/lv_anim.c ****  **********************/
  27:..\..\..\arduinoLCD\test\Pain Drain\libraries\lvgl\src\misc/lv_anim.c **** 
  28:..\..\..\arduinoLCD\test\Pain Drain\libraries\lvgl\src\misc/lv_anim.c **** /**********************
  29:..\..\..\arduinoLCD\test\Pain Drain\libraries\lvgl\src\misc/lv_anim.c ****  *  STATIC PROTOTYPES
  30:..\..\..\arduinoLCD\test\Pain Drain\libraries\lvgl\src\misc/lv_anim.c ****  **********************/
  31:..\..\..\arduinoLCD\test\Pain Drain\libraries\lvgl\src\misc/lv_anim.c **** static void anim_timer(lv_timer_t * param);
ARM GAS  C:\Users\haske\AppData\Local\Temp\cceAapTu.s 			page 2


  32:..\..\..\arduinoLCD\test\Pain Drain\libraries\lvgl\src\misc/lv_anim.c **** static void anim_mark_list_change(void);
  33:..\..\..\arduinoLCD\test\Pain Drain\libraries\lvgl\src\misc/lv_anim.c **** static void anim_ready_handler(lv_anim_t * a);
  34:..\..\..\arduinoLCD\test\Pain Drain\libraries\lvgl\src\misc/lv_anim.c **** 
  35:..\..\..\arduinoLCD\test\Pain Drain\libraries\lvgl\src\misc/lv_anim.c **** /**********************
  36:..\..\..\arduinoLCD\test\Pain Drain\libraries\lvgl\src\misc/lv_anim.c ****  *  STATIC VARIABLES
  37:..\..\..\arduinoLCD\test\Pain Drain\libraries\lvgl\src\misc/lv_anim.c ****  **********************/
  38:..\..\..\arduinoLCD\test\Pain Drain\libraries\lvgl\src\misc/lv_anim.c **** static uint32_t last_timer_run;
  39:..\..\..\arduinoLCD\test\Pain Drain\libraries\lvgl\src\misc/lv_anim.c **** static bool anim_list_changed;
  40:..\..\..\arduinoLCD\test\Pain Drain\libraries\lvgl\src\misc/lv_anim.c **** static bool anim_run_round;
  41:..\..\..\arduinoLCD\test\Pain Drain\libraries\lvgl\src\misc/lv_anim.c **** static lv_timer_t * _lv_anim_tmr;
  42:..\..\..\arduinoLCD\test\Pain Drain\libraries\lvgl\src\misc/lv_anim.c **** 
  43:..\..\..\arduinoLCD\test\Pain Drain\libraries\lvgl\src\misc/lv_anim.c **** /**********************
  44:..\..\..\arduinoLCD\test\Pain Drain\libraries\lvgl\src\misc/lv_anim.c ****  *      MACROS
  45:..\..\..\arduinoLCD\test\Pain Drain\libraries\lvgl\src\misc/lv_anim.c ****  **********************/
  46:..\..\..\arduinoLCD\test\Pain Drain\libraries\lvgl\src\misc/lv_anim.c **** #if LV_LOG_TRACE_ANIM
  47:..\..\..\arduinoLCD\test\Pain Drain\libraries\lvgl\src\misc/lv_anim.c ****     #define TRACE_ANIM(...) LV_LOG_TRACE(__VA_ARGS__)
  48:..\..\..\arduinoLCD\test\Pain Drain\libraries\lvgl\src\misc/lv_anim.c **** #else
  49:..\..\..\arduinoLCD\test\Pain Drain\libraries\lvgl\src\misc/lv_anim.c ****     #define TRACE_ANIM(...)
  50:..\..\..\arduinoLCD\test\Pain Drain\libraries\lvgl\src\misc/lv_anim.c **** #endif
  51:..\..\..\arduinoLCD\test\Pain Drain\libraries\lvgl\src\misc/lv_anim.c **** 
  52:..\..\..\arduinoLCD\test\Pain Drain\libraries\lvgl\src\misc/lv_anim.c **** 
  53:..\..\..\arduinoLCD\test\Pain Drain\libraries\lvgl\src\misc/lv_anim.c **** /**********************
  54:..\..\..\arduinoLCD\test\Pain Drain\libraries\lvgl\src\misc/lv_anim.c ****  *   GLOBAL FUNCTIONS
  55:..\..\..\arduinoLCD\test\Pain Drain\libraries\lvgl\src\misc/lv_anim.c ****  **********************/
  56:..\..\..\arduinoLCD\test\Pain Drain\libraries\lvgl\src\misc/lv_anim.c **** 
  57:..\..\..\arduinoLCD\test\Pain Drain\libraries\lvgl\src\misc/lv_anim.c **** void _lv_anim_core_init(void)
  58:..\..\..\arduinoLCD\test\Pain Drain\libraries\lvgl\src\misc/lv_anim.c **** {
  59:..\..\..\arduinoLCD\test\Pain Drain\libraries\lvgl\src\misc/lv_anim.c ****     _lv_ll_init(&LV_GC_ROOT(_lv_anim_ll), sizeof(lv_anim_t));
  60:..\..\..\arduinoLCD\test\Pain Drain\libraries\lvgl\src\misc/lv_anim.c ****     _lv_anim_tmr = lv_timer_create(anim_timer, LV_DISP_DEF_REFR_PERIOD, NULL);
  61:..\..\..\arduinoLCD\test\Pain Drain\libraries\lvgl\src\misc/lv_anim.c ****     anim_mark_list_change(); /*Turn off the animation timer*/
  62:..\..\..\arduinoLCD\test\Pain Drain\libraries\lvgl\src\misc/lv_anim.c ****     anim_list_changed = false;
  63:..\..\..\arduinoLCD\test\Pain Drain\libraries\lvgl\src\misc/lv_anim.c **** }
  64:..\..\..\arduinoLCD\test\Pain Drain\libraries\lvgl\src\misc/lv_anim.c **** 
  65:..\..\..\arduinoLCD\test\Pain Drain\libraries\lvgl\src\misc/lv_anim.c **** void lv_anim_init(lv_anim_t * a)
  66:..\..\..\arduinoLCD\test\Pain Drain\libraries\lvgl\src\misc/lv_anim.c **** {
  67:..\..\..\arduinoLCD\test\Pain Drain\libraries\lvgl\src\misc/lv_anim.c ****     lv_memset_00(a, sizeof(lv_anim_t));
  68:..\..\..\arduinoLCD\test\Pain Drain\libraries\lvgl\src\misc/lv_anim.c ****     a->time = 500;
  69:..\..\..\arduinoLCD\test\Pain Drain\libraries\lvgl\src\misc/lv_anim.c ****     a->start_value = 0;
  70:..\..\..\arduinoLCD\test\Pain Drain\libraries\lvgl\src\misc/lv_anim.c ****     a->end_value = 100;
  71:..\..\..\arduinoLCD\test\Pain Drain\libraries\lvgl\src\misc/lv_anim.c ****     a->repeat_cnt = 1;
  72:..\..\..\arduinoLCD\test\Pain Drain\libraries\lvgl\src\misc/lv_anim.c ****     a->path_cb = lv_anim_path_linear;
  73:..\..\..\arduinoLCD\test\Pain Drain\libraries\lvgl\src\misc/lv_anim.c ****     a->early_apply = 1;
  74:..\..\..\arduinoLCD\test\Pain Drain\libraries\lvgl\src\misc/lv_anim.c **** }
  75:..\..\..\arduinoLCD\test\Pain Drain\libraries\lvgl\src\misc/lv_anim.c **** 
  76:..\..\..\arduinoLCD\test\Pain Drain\libraries\lvgl\src\misc/lv_anim.c **** lv_anim_t * lv_anim_start(const lv_anim_t * a)
  77:..\..\..\arduinoLCD\test\Pain Drain\libraries\lvgl\src\misc/lv_anim.c **** {
  78:..\..\..\arduinoLCD\test\Pain Drain\libraries\lvgl\src\misc/lv_anim.c ****     TRACE_ANIM("begin");
  79:..\..\..\arduinoLCD\test\Pain Drain\libraries\lvgl\src\misc/lv_anim.c **** 
  80:..\..\..\arduinoLCD\test\Pain Drain\libraries\lvgl\src\misc/lv_anim.c ****     /*Do not let two animations for the same 'var' with the same 'exec_cb'*/
  81:..\..\..\arduinoLCD\test\Pain Drain\libraries\lvgl\src\misc/lv_anim.c ****     if(a->exec_cb != NULL) lv_anim_del(a->var, a->exec_cb); /*exec_cb == NULL would delete all anim
  82:..\..\..\arduinoLCD\test\Pain Drain\libraries\lvgl\src\misc/lv_anim.c **** 
  83:..\..\..\arduinoLCD\test\Pain Drain\libraries\lvgl\src\misc/lv_anim.c ****     /*If the list is empty the anim timer was suspended and it's last run measure is invalid*/
  84:..\..\..\arduinoLCD\test\Pain Drain\libraries\lvgl\src\misc/lv_anim.c ****     if(_lv_ll_is_empty(&LV_GC_ROOT(_lv_anim_ll))) {
  85:..\..\..\arduinoLCD\test\Pain Drain\libraries\lvgl\src\misc/lv_anim.c ****         last_timer_run = lv_tick_get();
  86:..\..\..\arduinoLCD\test\Pain Drain\libraries\lvgl\src\misc/lv_anim.c ****     }
  87:..\..\..\arduinoLCD\test\Pain Drain\libraries\lvgl\src\misc/lv_anim.c **** 
  88:..\..\..\arduinoLCD\test\Pain Drain\libraries\lvgl\src\misc/lv_anim.c ****     /*Add the new animation to the animation linked list*/
ARM GAS  C:\Users\haske\AppData\Local\Temp\cceAapTu.s 			page 3


  89:..\..\..\arduinoLCD\test\Pain Drain\libraries\lvgl\src\misc/lv_anim.c ****     lv_anim_t * new_anim = _lv_ll_ins_head(&LV_GC_ROOT(_lv_anim_ll));
  90:..\..\..\arduinoLCD\test\Pain Drain\libraries\lvgl\src\misc/lv_anim.c ****     LV_ASSERT_MALLOC(new_anim);
  91:..\..\..\arduinoLCD\test\Pain Drain\libraries\lvgl\src\misc/lv_anim.c ****     if(new_anim == NULL) return NULL;
  92:..\..\..\arduinoLCD\test\Pain Drain\libraries\lvgl\src\misc/lv_anim.c **** 
  93:..\..\..\arduinoLCD\test\Pain Drain\libraries\lvgl\src\misc/lv_anim.c ****     /*Initialize the animation descriptor*/
  94:..\..\..\arduinoLCD\test\Pain Drain\libraries\lvgl\src\misc/lv_anim.c ****     lv_memcpy(new_anim, a, sizeof(lv_anim_t));
  95:..\..\..\arduinoLCD\test\Pain Drain\libraries\lvgl\src\misc/lv_anim.c ****     if(a->var == a) new_anim->var = new_anim;
  96:..\..\..\arduinoLCD\test\Pain Drain\libraries\lvgl\src\misc/lv_anim.c ****     new_anim->run_round = anim_run_round;
  97:..\..\..\arduinoLCD\test\Pain Drain\libraries\lvgl\src\misc/lv_anim.c **** 
  98:..\..\..\arduinoLCD\test\Pain Drain\libraries\lvgl\src\misc/lv_anim.c ****     /*Set the start value*/
  99:..\..\..\arduinoLCD\test\Pain Drain\libraries\lvgl\src\misc/lv_anim.c ****     if(new_anim->early_apply) {
 100:..\..\..\arduinoLCD\test\Pain Drain\libraries\lvgl\src\misc/lv_anim.c ****         if(new_anim->get_value_cb) {
 101:..\..\..\arduinoLCD\test\Pain Drain\libraries\lvgl\src\misc/lv_anim.c ****             int32_t v_ofs = new_anim->get_value_cb(new_anim);
 102:..\..\..\arduinoLCD\test\Pain Drain\libraries\lvgl\src\misc/lv_anim.c ****             new_anim->start_value += v_ofs;
 103:..\..\..\arduinoLCD\test\Pain Drain\libraries\lvgl\src\misc/lv_anim.c ****             new_anim->end_value += v_ofs;
 104:..\..\..\arduinoLCD\test\Pain Drain\libraries\lvgl\src\misc/lv_anim.c ****         }
 105:..\..\..\arduinoLCD\test\Pain Drain\libraries\lvgl\src\misc/lv_anim.c **** 
 106:..\..\..\arduinoLCD\test\Pain Drain\libraries\lvgl\src\misc/lv_anim.c ****         if(new_anim->exec_cb && new_anim->var) new_anim->exec_cb(new_anim->var, new_anim->start_val
 107:..\..\..\arduinoLCD\test\Pain Drain\libraries\lvgl\src\misc/lv_anim.c ****     }
 108:..\..\..\arduinoLCD\test\Pain Drain\libraries\lvgl\src\misc/lv_anim.c **** 
 109:..\..\..\arduinoLCD\test\Pain Drain\libraries\lvgl\src\misc/lv_anim.c ****     /*Creating an animation changed the linked list.
 110:..\..\..\arduinoLCD\test\Pain Drain\libraries\lvgl\src\misc/lv_anim.c ****      *It's important if it happens in a ready callback. (see `anim_timer`)*/
 111:..\..\..\arduinoLCD\test\Pain Drain\libraries\lvgl\src\misc/lv_anim.c ****     anim_mark_list_change();
 112:..\..\..\arduinoLCD\test\Pain Drain\libraries\lvgl\src\misc/lv_anim.c **** 
 113:..\..\..\arduinoLCD\test\Pain Drain\libraries\lvgl\src\misc/lv_anim.c ****     TRACE_ANIM("finished");
 114:..\..\..\arduinoLCD\test\Pain Drain\libraries\lvgl\src\misc/lv_anim.c ****     return new_anim;
 115:..\..\..\arduinoLCD\test\Pain Drain\libraries\lvgl\src\misc/lv_anim.c **** }
 116:..\..\..\arduinoLCD\test\Pain Drain\libraries\lvgl\src\misc/lv_anim.c **** 
 117:..\..\..\arduinoLCD\test\Pain Drain\libraries\lvgl\src\misc/lv_anim.c **** uint32_t lv_anim_get_playtime(lv_anim_t * a)
 118:..\..\..\arduinoLCD\test\Pain Drain\libraries\lvgl\src\misc/lv_anim.c **** {
 119:..\..\..\arduinoLCD\test\Pain Drain\libraries\lvgl\src\misc/lv_anim.c ****     uint32_t playtime = LV_ANIM_PLAYTIME_INFINITE;
 120:..\..\..\arduinoLCD\test\Pain Drain\libraries\lvgl\src\misc/lv_anim.c **** 
 121:..\..\..\arduinoLCD\test\Pain Drain\libraries\lvgl\src\misc/lv_anim.c ****     if(a->repeat_cnt == LV_ANIM_REPEAT_INFINITE)
 122:..\..\..\arduinoLCD\test\Pain Drain\libraries\lvgl\src\misc/lv_anim.c ****         return playtime;
 123:..\..\..\arduinoLCD\test\Pain Drain\libraries\lvgl\src\misc/lv_anim.c **** 
 124:..\..\..\arduinoLCD\test\Pain Drain\libraries\lvgl\src\misc/lv_anim.c ****     playtime = a->time - a->act_time;
 125:..\..\..\arduinoLCD\test\Pain Drain\libraries\lvgl\src\misc/lv_anim.c ****     if(a->playback_now == 0)
 126:..\..\..\arduinoLCD\test\Pain Drain\libraries\lvgl\src\misc/lv_anim.c ****         playtime += a->playback_delay + a->playback_time;
 127:..\..\..\arduinoLCD\test\Pain Drain\libraries\lvgl\src\misc/lv_anim.c **** 
 128:..\..\..\arduinoLCD\test\Pain Drain\libraries\lvgl\src\misc/lv_anim.c ****     if(a->repeat_cnt <= 1)
 129:..\..\..\arduinoLCD\test\Pain Drain\libraries\lvgl\src\misc/lv_anim.c ****         return playtime;
 130:..\..\..\arduinoLCD\test\Pain Drain\libraries\lvgl\src\misc/lv_anim.c **** 
 131:..\..\..\arduinoLCD\test\Pain Drain\libraries\lvgl\src\misc/lv_anim.c ****     playtime += (a->repeat_delay + a->time +
 132:..\..\..\arduinoLCD\test\Pain Drain\libraries\lvgl\src\misc/lv_anim.c ****                  a->playback_delay + a->playback_time) *
 133:..\..\..\arduinoLCD\test\Pain Drain\libraries\lvgl\src\misc/lv_anim.c ****                 (a->repeat_cnt - 1);
 134:..\..\..\arduinoLCD\test\Pain Drain\libraries\lvgl\src\misc/lv_anim.c **** 
 135:..\..\..\arduinoLCD\test\Pain Drain\libraries\lvgl\src\misc/lv_anim.c ****     return playtime;
 136:..\..\..\arduinoLCD\test\Pain Drain\libraries\lvgl\src\misc/lv_anim.c **** }
 137:..\..\..\arduinoLCD\test\Pain Drain\libraries\lvgl\src\misc/lv_anim.c **** 
 138:..\..\..\arduinoLCD\test\Pain Drain\libraries\lvgl\src\misc/lv_anim.c **** bool lv_anim_del(void * var, lv_anim_exec_xcb_t exec_cb)
 139:..\..\..\arduinoLCD\test\Pain Drain\libraries\lvgl\src\misc/lv_anim.c **** {
 140:..\..\..\arduinoLCD\test\Pain Drain\libraries\lvgl\src\misc/lv_anim.c ****     lv_anim_t * a;
 141:..\..\..\arduinoLCD\test\Pain Drain\libraries\lvgl\src\misc/lv_anim.c ****     lv_anim_t * a_next;
 142:..\..\..\arduinoLCD\test\Pain Drain\libraries\lvgl\src\misc/lv_anim.c ****     bool del = false;
 143:..\..\..\arduinoLCD\test\Pain Drain\libraries\lvgl\src\misc/lv_anim.c ****     a        = _lv_ll_get_head(&LV_GC_ROOT(_lv_anim_ll));
 144:..\..\..\arduinoLCD\test\Pain Drain\libraries\lvgl\src\misc/lv_anim.c ****     while(a != NULL) {
 145:..\..\..\arduinoLCD\test\Pain Drain\libraries\lvgl\src\misc/lv_anim.c ****         /*'a' might be deleted, so get the next object while 'a' is valid*/
ARM GAS  C:\Users\haske\AppData\Local\Temp\cceAapTu.s 			page 4


 146:..\..\..\arduinoLCD\test\Pain Drain\libraries\lvgl\src\misc/lv_anim.c ****         a_next = _lv_ll_get_next(&LV_GC_ROOT(_lv_anim_ll), a);
 147:..\..\..\arduinoLCD\test\Pain Drain\libraries\lvgl\src\misc/lv_anim.c **** 
 148:..\..\..\arduinoLCD\test\Pain Drain\libraries\lvgl\src\misc/lv_anim.c ****         if((a->var == var || var == NULL) && (a->exec_cb == exec_cb || exec_cb == NULL)) {
 149:..\..\..\arduinoLCD\test\Pain Drain\libraries\lvgl\src\misc/lv_anim.c ****             _lv_ll_remove(&LV_GC_ROOT(_lv_anim_ll), a);
 150:..\..\..\arduinoLCD\test\Pain Drain\libraries\lvgl\src\misc/lv_anim.c ****             if(a->deleted_cb != NULL) a->deleted_cb(a);
 151:..\..\..\arduinoLCD\test\Pain Drain\libraries\lvgl\src\misc/lv_anim.c ****             lv_mem_free(a);
 152:..\..\..\arduinoLCD\test\Pain Drain\libraries\lvgl\src\misc/lv_anim.c ****             anim_mark_list_change(); /*Read by `anim_timer`. It need to know if a delete occurred i
 153:..\..\..\arduinoLCD\test\Pain Drain\libraries\lvgl\src\misc/lv_anim.c ****                                        the linked list*/
 154:..\..\..\arduinoLCD\test\Pain Drain\libraries\lvgl\src\misc/lv_anim.c ****             del = true;
 155:..\..\..\arduinoLCD\test\Pain Drain\libraries\lvgl\src\misc/lv_anim.c ****         }
 156:..\..\..\arduinoLCD\test\Pain Drain\libraries\lvgl\src\misc/lv_anim.c **** 
 157:..\..\..\arduinoLCD\test\Pain Drain\libraries\lvgl\src\misc/lv_anim.c ****         a = a_next;
 158:..\..\..\arduinoLCD\test\Pain Drain\libraries\lvgl\src\misc/lv_anim.c ****     }
 159:..\..\..\arduinoLCD\test\Pain Drain\libraries\lvgl\src\misc/lv_anim.c **** 
 160:..\..\..\arduinoLCD\test\Pain Drain\libraries\lvgl\src\misc/lv_anim.c ****     return del;
 161:..\..\..\arduinoLCD\test\Pain Drain\libraries\lvgl\src\misc/lv_anim.c **** }
 162:..\..\..\arduinoLCD\test\Pain Drain\libraries\lvgl\src\misc/lv_anim.c **** 
 163:..\..\..\arduinoLCD\test\Pain Drain\libraries\lvgl\src\misc/lv_anim.c **** void lv_anim_del_all(void)
 164:..\..\..\arduinoLCD\test\Pain Drain\libraries\lvgl\src\misc/lv_anim.c **** {
 165:..\..\..\arduinoLCD\test\Pain Drain\libraries\lvgl\src\misc/lv_anim.c ****     _lv_ll_clear(&LV_GC_ROOT(_lv_anim_ll));
 166:..\..\..\arduinoLCD\test\Pain Drain\libraries\lvgl\src\misc/lv_anim.c ****     anim_mark_list_change();
 167:..\..\..\arduinoLCD\test\Pain Drain\libraries\lvgl\src\misc/lv_anim.c **** }
 168:..\..\..\arduinoLCD\test\Pain Drain\libraries\lvgl\src\misc/lv_anim.c **** 
 169:..\..\..\arduinoLCD\test\Pain Drain\libraries\lvgl\src\misc/lv_anim.c **** lv_anim_t * lv_anim_get(void * var, lv_anim_exec_xcb_t exec_cb)
 170:..\..\..\arduinoLCD\test\Pain Drain\libraries\lvgl\src\misc/lv_anim.c **** {
 171:..\..\..\arduinoLCD\test\Pain Drain\libraries\lvgl\src\misc/lv_anim.c ****     lv_anim_t * a;
 172:..\..\..\arduinoLCD\test\Pain Drain\libraries\lvgl\src\misc/lv_anim.c ****     _LV_LL_READ(&LV_GC_ROOT(_lv_anim_ll), a) {
 173:..\..\..\arduinoLCD\test\Pain Drain\libraries\lvgl\src\misc/lv_anim.c ****         if(a->var == var && (a->exec_cb == exec_cb || exec_cb == NULL)) {
 174:..\..\..\arduinoLCD\test\Pain Drain\libraries\lvgl\src\misc/lv_anim.c ****             return a;
 175:..\..\..\arduinoLCD\test\Pain Drain\libraries\lvgl\src\misc/lv_anim.c ****         }
 176:..\..\..\arduinoLCD\test\Pain Drain\libraries\lvgl\src\misc/lv_anim.c ****     }
 177:..\..\..\arduinoLCD\test\Pain Drain\libraries\lvgl\src\misc/lv_anim.c **** 
 178:..\..\..\arduinoLCD\test\Pain Drain\libraries\lvgl\src\misc/lv_anim.c ****     return NULL;
 179:..\..\..\arduinoLCD\test\Pain Drain\libraries\lvgl\src\misc/lv_anim.c **** }
 180:..\..\..\arduinoLCD\test\Pain Drain\libraries\lvgl\src\misc/lv_anim.c **** 
 181:..\..\..\arduinoLCD\test\Pain Drain\libraries\lvgl\src\misc/lv_anim.c **** struct _lv_timer_t * lv_anim_get_timer(void)
 182:..\..\..\arduinoLCD\test\Pain Drain\libraries\lvgl\src\misc/lv_anim.c **** {
 183:..\..\..\arduinoLCD\test\Pain Drain\libraries\lvgl\src\misc/lv_anim.c ****     return _lv_anim_tmr;
 184:..\..\..\arduinoLCD\test\Pain Drain\libraries\lvgl\src\misc/lv_anim.c **** }
 185:..\..\..\arduinoLCD\test\Pain Drain\libraries\lvgl\src\misc/lv_anim.c **** 
 186:..\..\..\arduinoLCD\test\Pain Drain\libraries\lvgl\src\misc/lv_anim.c **** uint16_t lv_anim_count_running(void)
 187:..\..\..\arduinoLCD\test\Pain Drain\libraries\lvgl\src\misc/lv_anim.c **** {
 188:..\..\..\arduinoLCD\test\Pain Drain\libraries\lvgl\src\misc/lv_anim.c ****     uint16_t cnt = 0;
 189:..\..\..\arduinoLCD\test\Pain Drain\libraries\lvgl\src\misc/lv_anim.c ****     lv_anim_t * a;
 190:..\..\..\arduinoLCD\test\Pain Drain\libraries\lvgl\src\misc/lv_anim.c ****     _LV_LL_READ(&LV_GC_ROOT(_lv_anim_ll), a) cnt++;
 191:..\..\..\arduinoLCD\test\Pain Drain\libraries\lvgl\src\misc/lv_anim.c **** 
 192:..\..\..\arduinoLCD\test\Pain Drain\libraries\lvgl\src\misc/lv_anim.c ****     return cnt;
 193:..\..\..\arduinoLCD\test\Pain Drain\libraries\lvgl\src\misc/lv_anim.c **** }
 194:..\..\..\arduinoLCD\test\Pain Drain\libraries\lvgl\src\misc/lv_anim.c **** 
 195:..\..\..\arduinoLCD\test\Pain Drain\libraries\lvgl\src\misc/lv_anim.c **** uint32_t lv_anim_speed_to_time(uint32_t speed, int32_t start, int32_t end)
 196:..\..\..\arduinoLCD\test\Pain Drain\libraries\lvgl\src\misc/lv_anim.c **** {
 197:..\..\..\arduinoLCD\test\Pain Drain\libraries\lvgl\src\misc/lv_anim.c ****     uint32_t d    = LV_ABS(start - end);
 198:..\..\..\arduinoLCD\test\Pain Drain\libraries\lvgl\src\misc/lv_anim.c ****     uint32_t time = (d * 1000) / speed;
 199:..\..\..\arduinoLCD\test\Pain Drain\libraries\lvgl\src\misc/lv_anim.c **** 
 200:..\..\..\arduinoLCD\test\Pain Drain\libraries\lvgl\src\misc/lv_anim.c ****     if(time == 0) {
 201:..\..\..\arduinoLCD\test\Pain Drain\libraries\lvgl\src\misc/lv_anim.c ****         time++;
 202:..\..\..\arduinoLCD\test\Pain Drain\libraries\lvgl\src\misc/lv_anim.c ****     }
ARM GAS  C:\Users\haske\AppData\Local\Temp\cceAapTu.s 			page 5


 203:..\..\..\arduinoLCD\test\Pain Drain\libraries\lvgl\src\misc/lv_anim.c **** 
 204:..\..\..\arduinoLCD\test\Pain Drain\libraries\lvgl\src\misc/lv_anim.c ****     return time;
 205:..\..\..\arduinoLCD\test\Pain Drain\libraries\lvgl\src\misc/lv_anim.c **** }
 206:..\..\..\arduinoLCD\test\Pain Drain\libraries\lvgl\src\misc/lv_anim.c **** 
 207:..\..\..\arduinoLCD\test\Pain Drain\libraries\lvgl\src\misc/lv_anim.c **** void lv_anim_refr_now(void)
 208:..\..\..\arduinoLCD\test\Pain Drain\libraries\lvgl\src\misc/lv_anim.c **** {
 209:..\..\..\arduinoLCD\test\Pain Drain\libraries\lvgl\src\misc/lv_anim.c ****     anim_timer(NULL);
 210:..\..\..\arduinoLCD\test\Pain Drain\libraries\lvgl\src\misc/lv_anim.c **** }
 211:..\..\..\arduinoLCD\test\Pain Drain\libraries\lvgl\src\misc/lv_anim.c **** 
 212:..\..\..\arduinoLCD\test\Pain Drain\libraries\lvgl\src\misc/lv_anim.c **** int32_t lv_anim_path_linear(const lv_anim_t * a)
 213:..\..\..\arduinoLCD\test\Pain Drain\libraries\lvgl\src\misc/lv_anim.c **** {
 214:..\..\..\arduinoLCD\test\Pain Drain\libraries\lvgl\src\misc/lv_anim.c ****     /*Calculate the current step*/
 215:..\..\..\arduinoLCD\test\Pain Drain\libraries\lvgl\src\misc/lv_anim.c ****     int32_t step = lv_map(a->act_time, 0, a->time, 0, LV_ANIM_RESOLUTION);
 216:..\..\..\arduinoLCD\test\Pain Drain\libraries\lvgl\src\misc/lv_anim.c **** 
 217:..\..\..\arduinoLCD\test\Pain Drain\libraries\lvgl\src\misc/lv_anim.c ****     /*Get the new value which will be proportional to `step`
 218:..\..\..\arduinoLCD\test\Pain Drain\libraries\lvgl\src\misc/lv_anim.c ****      *and the `start` and `end` values*/
 219:..\..\..\arduinoLCD\test\Pain Drain\libraries\lvgl\src\misc/lv_anim.c ****     int32_t new_value;
 220:..\..\..\arduinoLCD\test\Pain Drain\libraries\lvgl\src\misc/lv_anim.c ****     new_value = step * (a->end_value - a->start_value);
 221:..\..\..\arduinoLCD\test\Pain Drain\libraries\lvgl\src\misc/lv_anim.c ****     new_value = new_value >> LV_ANIM_RES_SHIFT;
 222:..\..\..\arduinoLCD\test\Pain Drain\libraries\lvgl\src\misc/lv_anim.c ****     new_value += a->start_value;
 223:..\..\..\arduinoLCD\test\Pain Drain\libraries\lvgl\src\misc/lv_anim.c **** 
 224:..\..\..\arduinoLCD\test\Pain Drain\libraries\lvgl\src\misc/lv_anim.c ****     return new_value;
 225:..\..\..\arduinoLCD\test\Pain Drain\libraries\lvgl\src\misc/lv_anim.c **** }
 226:..\..\..\arduinoLCD\test\Pain Drain\libraries\lvgl\src\misc/lv_anim.c **** 
 227:..\..\..\arduinoLCD\test\Pain Drain\libraries\lvgl\src\misc/lv_anim.c **** int32_t lv_anim_path_ease_in(const lv_anim_t * a)
 228:..\..\..\arduinoLCD\test\Pain Drain\libraries\lvgl\src\misc/lv_anim.c **** {
 229:..\..\..\arduinoLCD\test\Pain Drain\libraries\lvgl\src\misc/lv_anim.c ****     /*Calculate the current step*/
 230:..\..\..\arduinoLCD\test\Pain Drain\libraries\lvgl\src\misc/lv_anim.c ****     uint32_t t = lv_map(a->act_time, 0, a->time, 0, LV_BEZIER_VAL_MAX);
 231:..\..\..\arduinoLCD\test\Pain Drain\libraries\lvgl\src\misc/lv_anim.c ****     int32_t step = lv_bezier3(t, 0, 50, 100, LV_BEZIER_VAL_MAX);
 232:..\..\..\arduinoLCD\test\Pain Drain\libraries\lvgl\src\misc/lv_anim.c **** 
 233:..\..\..\arduinoLCD\test\Pain Drain\libraries\lvgl\src\misc/lv_anim.c ****     int32_t new_value;
 234:..\..\..\arduinoLCD\test\Pain Drain\libraries\lvgl\src\misc/lv_anim.c ****     new_value = step * (a->end_value - a->start_value);
 235:..\..\..\arduinoLCD\test\Pain Drain\libraries\lvgl\src\misc/lv_anim.c ****     new_value = new_value >> LV_BEZIER_VAL_SHIFT;
 236:..\..\..\arduinoLCD\test\Pain Drain\libraries\lvgl\src\misc/lv_anim.c ****     new_value += a->start_value;
 237:..\..\..\arduinoLCD\test\Pain Drain\libraries\lvgl\src\misc/lv_anim.c **** 
 238:..\..\..\arduinoLCD\test\Pain Drain\libraries\lvgl\src\misc/lv_anim.c ****     return new_value;
 239:..\..\..\arduinoLCD\test\Pain Drain\libraries\lvgl\src\misc/lv_anim.c **** }
 240:..\..\..\arduinoLCD\test\Pain Drain\libraries\lvgl\src\misc/lv_anim.c **** 
 241:..\..\..\arduinoLCD\test\Pain Drain\libraries\lvgl\src\misc/lv_anim.c **** int32_t lv_anim_path_ease_out(const lv_anim_t * a)
 242:..\..\..\arduinoLCD\test\Pain Drain\libraries\lvgl\src\misc/lv_anim.c **** {
 243:..\..\..\arduinoLCD\test\Pain Drain\libraries\lvgl\src\misc/lv_anim.c ****     /*Calculate the current step*/
 244:..\..\..\arduinoLCD\test\Pain Drain\libraries\lvgl\src\misc/lv_anim.c ****     uint32_t t = lv_map(a->act_time, 0, a->time, 0, LV_BEZIER_VAL_MAX);
 245:..\..\..\arduinoLCD\test\Pain Drain\libraries\lvgl\src\misc/lv_anim.c ****     int32_t step = lv_bezier3(t, 0, 900, 950, LV_BEZIER_VAL_MAX);
 246:..\..\..\arduinoLCD\test\Pain Drain\libraries\lvgl\src\misc/lv_anim.c **** 
 247:..\..\..\arduinoLCD\test\Pain Drain\libraries\lvgl\src\misc/lv_anim.c ****     int32_t new_value;
 248:..\..\..\arduinoLCD\test\Pain Drain\libraries\lvgl\src\misc/lv_anim.c ****     new_value = step * (a->end_value - a->start_value);
 249:..\..\..\arduinoLCD\test\Pain Drain\libraries\lvgl\src\misc/lv_anim.c ****     new_value = new_value >> LV_BEZIER_VAL_SHIFT;
 250:..\..\..\arduinoLCD\test\Pain Drain\libraries\lvgl\src\misc/lv_anim.c ****     new_value += a->start_value;
 251:..\..\..\arduinoLCD\test\Pain Drain\libraries\lvgl\src\misc/lv_anim.c **** 
 252:..\..\..\arduinoLCD\test\Pain Drain\libraries\lvgl\src\misc/lv_anim.c ****     return new_value;
 253:..\..\..\arduinoLCD\test\Pain Drain\libraries\lvgl\src\misc/lv_anim.c **** }
 254:..\..\..\arduinoLCD\test\Pain Drain\libraries\lvgl\src\misc/lv_anim.c **** 
 255:..\..\..\arduinoLCD\test\Pain Drain\libraries\lvgl\src\misc/lv_anim.c **** int32_t lv_anim_path_ease_in_out(const lv_anim_t * a)
 256:..\..\..\arduinoLCD\test\Pain Drain\libraries\lvgl\src\misc/lv_anim.c **** {
 257:..\..\..\arduinoLCD\test\Pain Drain\libraries\lvgl\src\misc/lv_anim.c ****     /*Calculate the current step*/
 258:..\..\..\arduinoLCD\test\Pain Drain\libraries\lvgl\src\misc/lv_anim.c ****     uint32_t t = lv_map(a->act_time, 0, a->time, 0, LV_BEZIER_VAL_MAX);
 259:..\..\..\arduinoLCD\test\Pain Drain\libraries\lvgl\src\misc/lv_anim.c ****     int32_t step = lv_bezier3(t, 0, 50, 952, LV_BEZIER_VAL_MAX);
ARM GAS  C:\Users\haske\AppData\Local\Temp\cceAapTu.s 			page 6


 260:..\..\..\arduinoLCD\test\Pain Drain\libraries\lvgl\src\misc/lv_anim.c **** 
 261:..\..\..\arduinoLCD\test\Pain Drain\libraries\lvgl\src\misc/lv_anim.c ****     int32_t new_value;
 262:..\..\..\arduinoLCD\test\Pain Drain\libraries\lvgl\src\misc/lv_anim.c ****     new_value = step * (a->end_value - a->start_value);
 263:..\..\..\arduinoLCD\test\Pain Drain\libraries\lvgl\src\misc/lv_anim.c ****     new_value = new_value >> LV_BEZIER_VAL_SHIFT;
 264:..\..\..\arduinoLCD\test\Pain Drain\libraries\lvgl\src\misc/lv_anim.c ****     new_value += a->start_value;
 265:..\..\..\arduinoLCD\test\Pain Drain\libraries\lvgl\src\misc/lv_anim.c **** 
 266:..\..\..\arduinoLCD\test\Pain Drain\libraries\lvgl\src\misc/lv_anim.c ****     return new_value;
 267:..\..\..\arduinoLCD\test\Pain Drain\libraries\lvgl\src\misc/lv_anim.c **** }
 268:..\..\..\arduinoLCD\test\Pain Drain\libraries\lvgl\src\misc/lv_anim.c **** 
 269:..\..\..\arduinoLCD\test\Pain Drain\libraries\lvgl\src\misc/lv_anim.c **** int32_t lv_anim_path_overshoot(const lv_anim_t * a)
 270:..\..\..\arduinoLCD\test\Pain Drain\libraries\lvgl\src\misc/lv_anim.c **** {
 271:..\..\..\arduinoLCD\test\Pain Drain\libraries\lvgl\src\misc/lv_anim.c ****     /*Calculate the current step*/
 272:..\..\..\arduinoLCD\test\Pain Drain\libraries\lvgl\src\misc/lv_anim.c ****     uint32_t t = lv_map(a->act_time, 0, a->time, 0, LV_BEZIER_VAL_MAX);
 273:..\..\..\arduinoLCD\test\Pain Drain\libraries\lvgl\src\misc/lv_anim.c ****     int32_t step = lv_bezier3(t, 0, 1000, 1300, LV_BEZIER_VAL_MAX);
 274:..\..\..\arduinoLCD\test\Pain Drain\libraries\lvgl\src\misc/lv_anim.c **** 
 275:..\..\..\arduinoLCD\test\Pain Drain\libraries\lvgl\src\misc/lv_anim.c ****     int32_t new_value;
 276:..\..\..\arduinoLCD\test\Pain Drain\libraries\lvgl\src\misc/lv_anim.c ****     new_value = step * (a->end_value - a->start_value);
 277:..\..\..\arduinoLCD\test\Pain Drain\libraries\lvgl\src\misc/lv_anim.c ****     new_value = new_value >> LV_BEZIER_VAL_SHIFT;
 278:..\..\..\arduinoLCD\test\Pain Drain\libraries\lvgl\src\misc/lv_anim.c ****     new_value += a->start_value;
 279:..\..\..\arduinoLCD\test\Pain Drain\libraries\lvgl\src\misc/lv_anim.c **** 
 280:..\..\..\arduinoLCD\test\Pain Drain\libraries\lvgl\src\misc/lv_anim.c ****     return new_value;
 281:..\..\..\arduinoLCD\test\Pain Drain\libraries\lvgl\src\misc/lv_anim.c **** }
 282:..\..\..\arduinoLCD\test\Pain Drain\libraries\lvgl\src\misc/lv_anim.c **** 
 283:..\..\..\arduinoLCD\test\Pain Drain\libraries\lvgl\src\misc/lv_anim.c **** int32_t lv_anim_path_bounce(const lv_anim_t * a)
 284:..\..\..\arduinoLCD\test\Pain Drain\libraries\lvgl\src\misc/lv_anim.c **** {
 285:..\..\..\arduinoLCD\test\Pain Drain\libraries\lvgl\src\misc/lv_anim.c ****     /*Calculate the current step*/
 286:..\..\..\arduinoLCD\test\Pain Drain\libraries\lvgl\src\misc/lv_anim.c ****     int32_t t = lv_map(a->act_time, 0, a->time, 0, LV_BEZIER_VAL_MAX);
 287:..\..\..\arduinoLCD\test\Pain Drain\libraries\lvgl\src\misc/lv_anim.c ****     int32_t diff = (a->end_value - a->start_value);
 288:..\..\..\arduinoLCD\test\Pain Drain\libraries\lvgl\src\misc/lv_anim.c **** 
 289:..\..\..\arduinoLCD\test\Pain Drain\libraries\lvgl\src\misc/lv_anim.c ****     /*3 bounces has 5 parts: 3 down and 2 up. One part is t / 5 long*/
 290:..\..\..\arduinoLCD\test\Pain Drain\libraries\lvgl\src\misc/lv_anim.c **** 
 291:..\..\..\arduinoLCD\test\Pain Drain\libraries\lvgl\src\misc/lv_anim.c ****     if(t < 408) {
 292:..\..\..\arduinoLCD\test\Pain Drain\libraries\lvgl\src\misc/lv_anim.c ****         /*Go down*/
 293:..\..\..\arduinoLCD\test\Pain Drain\libraries\lvgl\src\misc/lv_anim.c ****         t = (t * 2500) >> LV_BEZIER_VAL_SHIFT; /*[0..1024] range*/
 294:..\..\..\arduinoLCD\test\Pain Drain\libraries\lvgl\src\misc/lv_anim.c ****     }
 295:..\..\..\arduinoLCD\test\Pain Drain\libraries\lvgl\src\misc/lv_anim.c ****     else if(t >= 408 && t < 614) {
 296:..\..\..\arduinoLCD\test\Pain Drain\libraries\lvgl\src\misc/lv_anim.c ****         /*First bounce back*/
 297:..\..\..\arduinoLCD\test\Pain Drain\libraries\lvgl\src\misc/lv_anim.c ****         t -= 408;
 298:..\..\..\arduinoLCD\test\Pain Drain\libraries\lvgl\src\misc/lv_anim.c ****         t    = t * 5; /*to [0..1024] range*/
 299:..\..\..\arduinoLCD\test\Pain Drain\libraries\lvgl\src\misc/lv_anim.c ****         t    = LV_BEZIER_VAL_MAX - t;
 300:..\..\..\arduinoLCD\test\Pain Drain\libraries\lvgl\src\misc/lv_anim.c ****         diff = diff / 20;
 301:..\..\..\arduinoLCD\test\Pain Drain\libraries\lvgl\src\misc/lv_anim.c ****     }
 302:..\..\..\arduinoLCD\test\Pain Drain\libraries\lvgl\src\misc/lv_anim.c ****     else if(t >= 614 && t < 819) {
 303:..\..\..\arduinoLCD\test\Pain Drain\libraries\lvgl\src\misc/lv_anim.c ****         /*Fall back*/
 304:..\..\..\arduinoLCD\test\Pain Drain\libraries\lvgl\src\misc/lv_anim.c ****         t -= 614;
 305:..\..\..\arduinoLCD\test\Pain Drain\libraries\lvgl\src\misc/lv_anim.c ****         t    = t * 5; /*to [0..1024] range*/
 306:..\..\..\arduinoLCD\test\Pain Drain\libraries\lvgl\src\misc/lv_anim.c ****         diff = diff / 20;
 307:..\..\..\arduinoLCD\test\Pain Drain\libraries\lvgl\src\misc/lv_anim.c ****     }
 308:..\..\..\arduinoLCD\test\Pain Drain\libraries\lvgl\src\misc/lv_anim.c ****     else if(t >= 819 && t < 921) {
 309:..\..\..\arduinoLCD\test\Pain Drain\libraries\lvgl\src\misc/lv_anim.c ****         /*Second bounce back*/
 310:..\..\..\arduinoLCD\test\Pain Drain\libraries\lvgl\src\misc/lv_anim.c ****         t -= 819;
 311:..\..\..\arduinoLCD\test\Pain Drain\libraries\lvgl\src\misc/lv_anim.c ****         t    = t * 10; /*to [0..1024] range*/
 312:..\..\..\arduinoLCD\test\Pain Drain\libraries\lvgl\src\misc/lv_anim.c ****         t    = LV_BEZIER_VAL_MAX - t;
 313:..\..\..\arduinoLCD\test\Pain Drain\libraries\lvgl\src\misc/lv_anim.c ****         diff = diff / 40;
 314:..\..\..\arduinoLCD\test\Pain Drain\libraries\lvgl\src\misc/lv_anim.c ****     }
 315:..\..\..\arduinoLCD\test\Pain Drain\libraries\lvgl\src\misc/lv_anim.c ****     else if(t >= 921 && t <= LV_BEZIER_VAL_MAX) {
 316:..\..\..\arduinoLCD\test\Pain Drain\libraries\lvgl\src\misc/lv_anim.c ****         /*Fall back*/
ARM GAS  C:\Users\haske\AppData\Local\Temp\cceAapTu.s 			page 7


 317:..\..\..\arduinoLCD\test\Pain Drain\libraries\lvgl\src\misc/lv_anim.c ****         t -= 921;
 318:..\..\..\arduinoLCD\test\Pain Drain\libraries\lvgl\src\misc/lv_anim.c ****         t    = t * 10; /*to [0..1024] range*/
 319:..\..\..\arduinoLCD\test\Pain Drain\libraries\lvgl\src\misc/lv_anim.c ****         diff = diff / 40;
 320:..\..\..\arduinoLCD\test\Pain Drain\libraries\lvgl\src\misc/lv_anim.c ****     }
 321:..\..\..\arduinoLCD\test\Pain Drain\libraries\lvgl\src\misc/lv_anim.c **** 
 322:..\..\..\arduinoLCD\test\Pain Drain\libraries\lvgl\src\misc/lv_anim.c ****     if(t > LV_BEZIER_VAL_MAX) t = LV_BEZIER_VAL_MAX;
 323:..\..\..\arduinoLCD\test\Pain Drain\libraries\lvgl\src\misc/lv_anim.c ****     if(t < 0) t = 0;
 324:..\..\..\arduinoLCD\test\Pain Drain\libraries\lvgl\src\misc/lv_anim.c ****     int32_t step = lv_bezier3(t, LV_BEZIER_VAL_MAX, 800, 500, 0);
 325:..\..\..\arduinoLCD\test\Pain Drain\libraries\lvgl\src\misc/lv_anim.c **** 
 326:..\..\..\arduinoLCD\test\Pain Drain\libraries\lvgl\src\misc/lv_anim.c ****     int32_t new_value;
 327:..\..\..\arduinoLCD\test\Pain Drain\libraries\lvgl\src\misc/lv_anim.c ****     new_value = step * diff;
 328:..\..\..\arduinoLCD\test\Pain Drain\libraries\lvgl\src\misc/lv_anim.c ****     new_value = new_value >> LV_BEZIER_VAL_SHIFT;
 329:..\..\..\arduinoLCD\test\Pain Drain\libraries\lvgl\src\misc/lv_anim.c ****     new_value = a->end_value - new_value;
 330:..\..\..\arduinoLCD\test\Pain Drain\libraries\lvgl\src\misc/lv_anim.c **** 
 331:..\..\..\arduinoLCD\test\Pain Drain\libraries\lvgl\src\misc/lv_anim.c ****     return new_value;
 332:..\..\..\arduinoLCD\test\Pain Drain\libraries\lvgl\src\misc/lv_anim.c **** }
 333:..\..\..\arduinoLCD\test\Pain Drain\libraries\lvgl\src\misc/lv_anim.c **** 
 334:..\..\..\arduinoLCD\test\Pain Drain\libraries\lvgl\src\misc/lv_anim.c **** int32_t lv_anim_path_step(const lv_anim_t * a)
 335:..\..\..\arduinoLCD\test\Pain Drain\libraries\lvgl\src\misc/lv_anim.c **** {
 336:..\..\..\arduinoLCD\test\Pain Drain\libraries\lvgl\src\misc/lv_anim.c ****     if(a->act_time >= a->time)
 337:..\..\..\arduinoLCD\test\Pain Drain\libraries\lvgl\src\misc/lv_anim.c ****         return a->end_value;
 338:..\..\..\arduinoLCD\test\Pain Drain\libraries\lvgl\src\misc/lv_anim.c ****     else
 339:..\..\..\arduinoLCD\test\Pain Drain\libraries\lvgl\src\misc/lv_anim.c ****         return a->start_value;
 340:..\..\..\arduinoLCD\test\Pain Drain\libraries\lvgl\src\misc/lv_anim.c **** }
 341:..\..\..\arduinoLCD\test\Pain Drain\libraries\lvgl\src\misc/lv_anim.c **** 
 342:..\..\..\arduinoLCD\test\Pain Drain\libraries\lvgl\src\misc/lv_anim.c **** /**********************
 343:..\..\..\arduinoLCD\test\Pain Drain\libraries\lvgl\src\misc/lv_anim.c ****  *   STATIC FUNCTIONS
 344:..\..\..\arduinoLCD\test\Pain Drain\libraries\lvgl\src\misc/lv_anim.c ****  **********************/
 345:..\..\..\arduinoLCD\test\Pain Drain\libraries\lvgl\src\misc/lv_anim.c **** 
 346:..\..\..\arduinoLCD\test\Pain Drain\libraries\lvgl\src\misc/lv_anim.c **** /**
 347:..\..\..\arduinoLCD\test\Pain Drain\libraries\lvgl\src\misc/lv_anim.c ****  * Periodically handle the animations.
 348:..\..\..\arduinoLCD\test\Pain Drain\libraries\lvgl\src\misc/lv_anim.c ****  * @param param unused
 349:..\..\..\arduinoLCD\test\Pain Drain\libraries\lvgl\src\misc/lv_anim.c ****  */
 350:..\..\..\arduinoLCD\test\Pain Drain\libraries\lvgl\src\misc/lv_anim.c **** static void anim_timer(lv_timer_t * param)
 351:..\..\..\arduinoLCD\test\Pain Drain\libraries\lvgl\src\misc/lv_anim.c **** {
 352:..\..\..\arduinoLCD\test\Pain Drain\libraries\lvgl\src\misc/lv_anim.c ****     LV_UNUSED(param);
 353:..\..\..\arduinoLCD\test\Pain Drain\libraries\lvgl\src\misc/lv_anim.c **** 
 354:..\..\..\arduinoLCD\test\Pain Drain\libraries\lvgl\src\misc/lv_anim.c ****     uint32_t elaps = lv_tick_elaps(last_timer_run);
 355:..\..\..\arduinoLCD\test\Pain Drain\libraries\lvgl\src\misc/lv_anim.c **** 
 356:..\..\..\arduinoLCD\test\Pain Drain\libraries\lvgl\src\misc/lv_anim.c ****     /*Flip the run round*/
 357:..\..\..\arduinoLCD\test\Pain Drain\libraries\lvgl\src\misc/lv_anim.c ****     anim_run_round = anim_run_round ? false : true;
 358:..\..\..\arduinoLCD\test\Pain Drain\libraries\lvgl\src\misc/lv_anim.c **** 
 359:..\..\..\arduinoLCD\test\Pain Drain\libraries\lvgl\src\misc/lv_anim.c ****     lv_anim_t * a = _lv_ll_get_head(&LV_GC_ROOT(_lv_anim_ll));
 360:..\..\..\arduinoLCD\test\Pain Drain\libraries\lvgl\src\misc/lv_anim.c **** 
 361:..\..\..\arduinoLCD\test\Pain Drain\libraries\lvgl\src\misc/lv_anim.c ****     while(a != NULL) {
 362:..\..\..\arduinoLCD\test\Pain Drain\libraries\lvgl\src\misc/lv_anim.c ****         /*It can be set by `lv_anim_del()` typically in `end_cb`. If set then an animation delete
 363:..\..\..\arduinoLCD\test\Pain Drain\libraries\lvgl\src\misc/lv_anim.c ****          * happened in `anim_ready_handler` which could make this linked list reading corrupt
 364:..\..\..\arduinoLCD\test\Pain Drain\libraries\lvgl\src\misc/lv_anim.c ****          * because the list is changed meanwhile
 365:..\..\..\arduinoLCD\test\Pain Drain\libraries\lvgl\src\misc/lv_anim.c ****          */
 366:..\..\..\arduinoLCD\test\Pain Drain\libraries\lvgl\src\misc/lv_anim.c ****         anim_list_changed = false;
 367:..\..\..\arduinoLCD\test\Pain Drain\libraries\lvgl\src\misc/lv_anim.c **** 
 368:..\..\..\arduinoLCD\test\Pain Drain\libraries\lvgl\src\misc/lv_anim.c ****         if(a->run_round != anim_run_round) {
 369:..\..\..\arduinoLCD\test\Pain Drain\libraries\lvgl\src\misc/lv_anim.c ****             a->run_round = anim_run_round; /*The list readying might be reset so need to know which
 370:..\..\..\arduinoLCD\test\Pain Drain\libraries\lvgl\src\misc/lv_anim.c **** 
 371:..\..\..\arduinoLCD\test\Pain Drain\libraries\lvgl\src\misc/lv_anim.c ****             /*The animation will run now for the first time. Call `start_cb`*/
 372:..\..\..\arduinoLCD\test\Pain Drain\libraries\lvgl\src\misc/lv_anim.c ****             int32_t new_act_time = a->act_time + elaps;
 373:..\..\..\arduinoLCD\test\Pain Drain\libraries\lvgl\src\misc/lv_anim.c ****             if(!a->start_cb_called && a->act_time <= 0 && new_act_time >= 0) {
ARM GAS  C:\Users\haske\AppData\Local\Temp\cceAapTu.s 			page 8


 374:..\..\..\arduinoLCD\test\Pain Drain\libraries\lvgl\src\misc/lv_anim.c ****                 if(a->early_apply == 0 && a->get_value_cb) {
 375:..\..\..\arduinoLCD\test\Pain Drain\libraries\lvgl\src\misc/lv_anim.c ****                     int32_t v_ofs = a->get_value_cb(a);
 376:..\..\..\arduinoLCD\test\Pain Drain\libraries\lvgl\src\misc/lv_anim.c ****                     a->start_value += v_ofs;
 377:..\..\..\arduinoLCD\test\Pain Drain\libraries\lvgl\src\misc/lv_anim.c ****                     a->end_value += v_ofs;
 378:..\..\..\arduinoLCD\test\Pain Drain\libraries\lvgl\src\misc/lv_anim.c ****                 }
 379:..\..\..\arduinoLCD\test\Pain Drain\libraries\lvgl\src\misc/lv_anim.c ****                 if(a->start_cb) a->start_cb(a);
 380:..\..\..\arduinoLCD\test\Pain Drain\libraries\lvgl\src\misc/lv_anim.c ****                 a->start_cb_called = 1;
 381:..\..\..\arduinoLCD\test\Pain Drain\libraries\lvgl\src\misc/lv_anim.c ****             }
 382:..\..\..\arduinoLCD\test\Pain Drain\libraries\lvgl\src\misc/lv_anim.c ****             a->act_time += elaps;
 383:..\..\..\arduinoLCD\test\Pain Drain\libraries\lvgl\src\misc/lv_anim.c ****             if(a->act_time >= 0) {
 384:..\..\..\arduinoLCD\test\Pain Drain\libraries\lvgl\src\misc/lv_anim.c ****                 if(a->act_time > a->time) a->act_time = a->time;
 385:..\..\..\arduinoLCD\test\Pain Drain\libraries\lvgl\src\misc/lv_anim.c **** 
 386:..\..\..\arduinoLCD\test\Pain Drain\libraries\lvgl\src\misc/lv_anim.c ****                 int32_t new_value;
 387:..\..\..\arduinoLCD\test\Pain Drain\libraries\lvgl\src\misc/lv_anim.c ****                 new_value = a->path_cb(a);
 388:..\..\..\arduinoLCD\test\Pain Drain\libraries\lvgl\src\misc/lv_anim.c **** 
 389:..\..\..\arduinoLCD\test\Pain Drain\libraries\lvgl\src\misc/lv_anim.c ****                 if(new_value != a->current_value) {
 390:..\..\..\arduinoLCD\test\Pain Drain\libraries\lvgl\src\misc/lv_anim.c ****                     a->current_value = new_value;
 391:..\..\..\arduinoLCD\test\Pain Drain\libraries\lvgl\src\misc/lv_anim.c ****                     /*Apply the calculated value*/
 392:..\..\..\arduinoLCD\test\Pain Drain\libraries\lvgl\src\misc/lv_anim.c ****                     if(a->exec_cb) a->exec_cb(a->var, new_value);
 393:..\..\..\arduinoLCD\test\Pain Drain\libraries\lvgl\src\misc/lv_anim.c ****                 }
 394:..\..\..\arduinoLCD\test\Pain Drain\libraries\lvgl\src\misc/lv_anim.c **** 
 395:..\..\..\arduinoLCD\test\Pain Drain\libraries\lvgl\src\misc/lv_anim.c ****                 /*If the time is elapsed the animation is ready*/
 396:..\..\..\arduinoLCD\test\Pain Drain\libraries\lvgl\src\misc/lv_anim.c ****                 if(a->act_time >= a->time) {
 397:..\..\..\arduinoLCD\test\Pain Drain\libraries\lvgl\src\misc/lv_anim.c ****                     anim_ready_handler(a);
 398:..\..\..\arduinoLCD\test\Pain Drain\libraries\lvgl\src\misc/lv_anim.c ****                 }
 399:..\..\..\arduinoLCD\test\Pain Drain\libraries\lvgl\src\misc/lv_anim.c ****             }
 400:..\..\..\arduinoLCD\test\Pain Drain\libraries\lvgl\src\misc/lv_anim.c ****         }
 401:..\..\..\arduinoLCD\test\Pain Drain\libraries\lvgl\src\misc/lv_anim.c **** 
 402:..\..\..\arduinoLCD\test\Pain Drain\libraries\lvgl\src\misc/lv_anim.c ****         /*If the linked list changed due to anim. delete then it's not safe to continue
 403:..\..\..\arduinoLCD\test\Pain Drain\libraries\lvgl\src\misc/lv_anim.c ****          *the reading of the list from here -> start from the head*/
 404:..\..\..\arduinoLCD\test\Pain Drain\libraries\lvgl\src\misc/lv_anim.c ****         if(anim_list_changed)
 405:..\..\..\arduinoLCD\test\Pain Drain\libraries\lvgl\src\misc/lv_anim.c ****             a = _lv_ll_get_head(&LV_GC_ROOT(_lv_anim_ll));
 406:..\..\..\arduinoLCD\test\Pain Drain\libraries\lvgl\src\misc/lv_anim.c ****         else
 407:..\..\..\arduinoLCD\test\Pain Drain\libraries\lvgl\src\misc/lv_anim.c ****             a = _lv_ll_get_next(&LV_GC_ROOT(_lv_anim_ll), a);
 408:..\..\..\arduinoLCD\test\Pain Drain\libraries\lvgl\src\misc/lv_anim.c ****     }
 409:..\..\..\arduinoLCD\test\Pain Drain\libraries\lvgl\src\misc/lv_anim.c **** 
 410:..\..\..\arduinoLCD\test\Pain Drain\libraries\lvgl\src\misc/lv_anim.c ****     last_timer_run = lv_tick_get();
 411:..\..\..\arduinoLCD\test\Pain Drain\libraries\lvgl\src\misc/lv_anim.c **** }
 412:..\..\..\arduinoLCD\test\Pain Drain\libraries\lvgl\src\misc/lv_anim.c **** 
 413:..\..\..\arduinoLCD\test\Pain Drain\libraries\lvgl\src\misc/lv_anim.c **** /**
 414:..\..\..\arduinoLCD\test\Pain Drain\libraries\lvgl\src\misc/lv_anim.c ****  * Called when an animation is ready to do the necessary thinks
 415:..\..\..\arduinoLCD\test\Pain Drain\libraries\lvgl\src\misc/lv_anim.c ****  * e.g. repeat, play back, delete etc.
 416:..\..\..\arduinoLCD\test\Pain Drain\libraries\lvgl\src\misc/lv_anim.c ****  * @param a pointer to an animation descriptor
 417:..\..\..\arduinoLCD\test\Pain Drain\libraries\lvgl\src\misc/lv_anim.c ****  */
 418:..\..\..\arduinoLCD\test\Pain Drain\libraries\lvgl\src\misc/lv_anim.c **** static void anim_ready_handler(lv_anim_t * a)
 419:..\..\..\arduinoLCD\test\Pain Drain\libraries\lvgl\src\misc/lv_anim.c **** {
 420:..\..\..\arduinoLCD\test\Pain Drain\libraries\lvgl\src\misc/lv_anim.c ****     /*In the end of a forward anim decrement repeat cnt.*/
 421:..\..\..\arduinoLCD\test\Pain Drain\libraries\lvgl\src\misc/lv_anim.c ****     if(a->playback_now == 0 && a->repeat_cnt > 0 && a->repeat_cnt != LV_ANIM_REPEAT_INFINITE) {
 422:..\..\..\arduinoLCD\test\Pain Drain\libraries\lvgl\src\misc/lv_anim.c ****         a->repeat_cnt--;
 423:..\..\..\arduinoLCD\test\Pain Drain\libraries\lvgl\src\misc/lv_anim.c ****     }
 424:..\..\..\arduinoLCD\test\Pain Drain\libraries\lvgl\src\misc/lv_anim.c **** 
 425:..\..\..\arduinoLCD\test\Pain Drain\libraries\lvgl\src\misc/lv_anim.c ****     /*Delete the animation if
 426:..\..\..\arduinoLCD\test\Pain Drain\libraries\lvgl\src\misc/lv_anim.c ****      * - no repeat left and no play back (simple one shot animation)
 427:..\..\..\arduinoLCD\test\Pain Drain\libraries\lvgl\src\misc/lv_anim.c ****      * - no repeat, play back is enabled and play back is ready*/
 428:..\..\..\arduinoLCD\test\Pain Drain\libraries\lvgl\src\misc/lv_anim.c ****     if(a->repeat_cnt == 0 && (a->playback_time == 0 || a->playback_now == 1)) {
 429:..\..\..\arduinoLCD\test\Pain Drain\libraries\lvgl\src\misc/lv_anim.c **** 
 430:..\..\..\arduinoLCD\test\Pain Drain\libraries\lvgl\src\misc/lv_anim.c ****         /*Delete the animation from the list.
ARM GAS  C:\Users\haske\AppData\Local\Temp\cceAapTu.s 			page 9


 431:..\..\..\arduinoLCD\test\Pain Drain\libraries\lvgl\src\misc/lv_anim.c ****          * This way the `ready_cb` will see the animations like it's animation is ready deleted*/
 432:..\..\..\arduinoLCD\test\Pain Drain\libraries\lvgl\src\misc/lv_anim.c ****         _lv_ll_remove(&LV_GC_ROOT(_lv_anim_ll), a);
 433:..\..\..\arduinoLCD\test\Pain Drain\libraries\lvgl\src\misc/lv_anim.c ****         /*Flag that the list has changed*/
 434:..\..\..\arduinoLCD\test\Pain Drain\libraries\lvgl\src\misc/lv_anim.c ****         anim_mark_list_change();
 435:..\..\..\arduinoLCD\test\Pain Drain\libraries\lvgl\src\misc/lv_anim.c **** 
 436:..\..\..\arduinoLCD\test\Pain Drain\libraries\lvgl\src\misc/lv_anim.c ****         /*Call the callback function at the end*/
 437:..\..\..\arduinoLCD\test\Pain Drain\libraries\lvgl\src\misc/lv_anim.c ****         if(a->ready_cb != NULL) a->ready_cb(a);
 438:..\..\..\arduinoLCD\test\Pain Drain\libraries\lvgl\src\misc/lv_anim.c ****         if(a->deleted_cb != NULL) a->deleted_cb(a);
 439:..\..\..\arduinoLCD\test\Pain Drain\libraries\lvgl\src\misc/lv_anim.c ****         lv_mem_free(a);
 440:..\..\..\arduinoLCD\test\Pain Drain\libraries\lvgl\src\misc/lv_anim.c ****     }
 441:..\..\..\arduinoLCD\test\Pain Drain\libraries\lvgl\src\misc/lv_anim.c ****     /*If the animation is not deleted then restart it*/
 442:..\..\..\arduinoLCD\test\Pain Drain\libraries\lvgl\src\misc/lv_anim.c ****     else {
 443:..\..\..\arduinoLCD\test\Pain Drain\libraries\lvgl\src\misc/lv_anim.c ****         a->act_time = -(int32_t)(a->repeat_delay); /*Restart the animation*/
 444:..\..\..\arduinoLCD\test\Pain Drain\libraries\lvgl\src\misc/lv_anim.c ****         /*Swap the start and end values in play back mode*/
 445:..\..\..\arduinoLCD\test\Pain Drain\libraries\lvgl\src\misc/lv_anim.c ****         if(a->playback_time != 0) {
 446:..\..\..\arduinoLCD\test\Pain Drain\libraries\lvgl\src\misc/lv_anim.c ****             /*If now turning back use the 'playback_pause*/
 447:..\..\..\arduinoLCD\test\Pain Drain\libraries\lvgl\src\misc/lv_anim.c ****             if(a->playback_now == 0) a->act_time = -(int32_t)(a->playback_delay);
 448:..\..\..\arduinoLCD\test\Pain Drain\libraries\lvgl\src\misc/lv_anim.c **** 
 449:..\..\..\arduinoLCD\test\Pain Drain\libraries\lvgl\src\misc/lv_anim.c ****             /*Toggle the play back state*/
 450:..\..\..\arduinoLCD\test\Pain Drain\libraries\lvgl\src\misc/lv_anim.c ****             a->playback_now = a->playback_now == 0 ? 1 : 0;
 451:..\..\..\arduinoLCD\test\Pain Drain\libraries\lvgl\src\misc/lv_anim.c ****             /*Swap the start and end values*/
 452:..\..\..\arduinoLCD\test\Pain Drain\libraries\lvgl\src\misc/lv_anim.c ****             int32_t tmp    = a->start_value;
 453:..\..\..\arduinoLCD\test\Pain Drain\libraries\lvgl\src\misc/lv_anim.c ****             a->start_value = a->end_value;
 454:..\..\..\arduinoLCD\test\Pain Drain\libraries\lvgl\src\misc/lv_anim.c ****             a->end_value   = tmp;
 455:..\..\..\arduinoLCD\test\Pain Drain\libraries\lvgl\src\misc/lv_anim.c ****             /*Swap the time and playback_time*/
 456:..\..\..\arduinoLCD\test\Pain Drain\libraries\lvgl\src\misc/lv_anim.c ****             tmp = a->time;
 457:..\..\..\arduinoLCD\test\Pain Drain\libraries\lvgl\src\misc/lv_anim.c ****             a->time = a->playback_time;
 458:..\..\..\arduinoLCD\test\Pain Drain\libraries\lvgl\src\misc/lv_anim.c ****             a->playback_time = tmp;
 459:..\..\..\arduinoLCD\test\Pain Drain\libraries\lvgl\src\misc/lv_anim.c ****         }
 460:..\..\..\arduinoLCD\test\Pain Drain\libraries\lvgl\src\misc/lv_anim.c ****     }
 461:..\..\..\arduinoLCD\test\Pain Drain\libraries\lvgl\src\misc/lv_anim.c **** }
 462:..\..\..\arduinoLCD\test\Pain Drain\libraries\lvgl\src\misc/lv_anim.c **** 
 463:..\..\..\arduinoLCD\test\Pain Drain\libraries\lvgl\src\misc/lv_anim.c **** static void anim_mark_list_change(void)
 464:..\..\..\arduinoLCD\test\Pain Drain\libraries\lvgl\src\misc/lv_anim.c **** {
  27              		.loc 1 464 0
  28              		.cfi_startproc
  29              		@ args = 0, pretend = 0, frame = 0
  30              		@ frame_needed = 0, uses_anonymous_args = 0
  31 0000 10B5     		push	{r4, lr}
  32              		.cfi_def_cfa_offset 8
  33              		.cfi_offset 4, -8
  34              		.cfi_offset 14, -4
 465:..\..\..\arduinoLCD\test\Pain Drain\libraries\lvgl\src\misc/lv_anim.c ****     anim_list_changed = true;
  35              		.loc 1 465 0
  36 0002 0122     		movs	r2, #1
  37 0004 084B     		ldr	r3, .L4
  38 0006 1A70     		strb	r2, [r3]
 466:..\..\..\arduinoLCD\test\Pain Drain\libraries\lvgl\src\misc/lv_anim.c ****     if(_lv_ll_get_head(&LV_GC_ROOT(_lv_anim_ll)) == NULL)
  39              		.loc 1 466 0
  40 0008 0848     		ldr	r0, .L4+4
  41 000a FFF7FEFF 		bl	_lv_ll_get_head
  42              	.LVL0:
  43 000e 0028     		cmp	r0, #0
  44 0010 04D1     		bne	.L2
 467:..\..\..\arduinoLCD\test\Pain Drain\libraries\lvgl\src\misc/lv_anim.c ****         lv_timer_pause(_lv_anim_tmr);
  45              		.loc 1 467 0
  46 0012 054B     		ldr	r3, .L4
ARM GAS  C:\Users\haske\AppData\Local\Temp\cceAapTu.s 			page 10


  47 0014 5868     		ldr	r0, [r3, #4]
  48 0016 FFF7FEFF 		bl	lv_timer_pause
  49              	.LVL1:
  50 001a 03E0     		b	.L1
  51              	.L2:
 468:..\..\..\arduinoLCD\test\Pain Drain\libraries\lvgl\src\misc/lv_anim.c ****     else
 469:..\..\..\arduinoLCD\test\Pain Drain\libraries\lvgl\src\misc/lv_anim.c ****         lv_timer_resume(_lv_anim_tmr);
  52              		.loc 1 469 0
  53 001c 024B     		ldr	r3, .L4
  54 001e 5868     		ldr	r0, [r3, #4]
  55 0020 FFF7FEFF 		bl	lv_timer_resume
  56              	.LVL2:
  57              	.L1:
 470:..\..\..\arduinoLCD\test\Pain Drain\libraries\lvgl\src\misc/lv_anim.c **** }
  58              		.loc 1 470 0
  59              		@ sp needed
  60 0024 10BD     		pop	{r4, pc}
  61              	.L5:
  62 0026 C046     		.align	2
  63              	.L4:
  64 0028 00000000 		.word	.LANCHOR0
  65 002c 00000000 		.word	_lv_anim_ll
  66              		.cfi_endproc
  67              	.LFE65:
  68              		.size	anim_mark_list_change, .-anim_mark_list_change
  69              		.section	.text.anim_ready_handler,"ax",%progbits
  70              		.align	2
  71              		.code	16
  72              		.thumb_func
  73              		.type	anim_ready_handler, %function
  74              	anim_ready_handler:
  75              	.LFB64:
 419:..\..\..\arduinoLCD\test\Pain Drain\libraries\lvgl\src\misc/lv_anim.c ****     /*In the end of a forward anim decrement repeat cnt.*/
  76              		.loc 1 419 0
  77              		.cfi_startproc
  78              		@ args = 0, pretend = 0, frame = 0
  79              		@ frame_needed = 0, uses_anonymous_args = 0
  80              	.LVL3:
  81 0000 70B5     		push	{r4, r5, r6, lr}
  82              		.cfi_def_cfa_offset 16
  83              		.cfi_offset 4, -16
  84              		.cfi_offset 5, -12
  85              		.cfi_offset 6, -8
  86              		.cfi_offset 14, -4
  87 0002 0400     		movs	r4, r0
 421:..\..\..\arduinoLCD\test\Pain Drain\libraries\lvgl\src\misc/lv_anim.c ****         a->repeat_cnt--;
  88              		.loc 1 421 0
  89 0004 4223     		movs	r3, #66
  90 0006 C35C     		ldrb	r3, [r0, r3]
  91 0008 0222     		movs	r2, #2
  92 000a 1340     		ands	r3, r2
  93 000c 181E     		subs	r0, r3, #0
  94              	.LVL4:
  95 000e 09D1     		bne	.L7
 421:..\..\..\arduinoLCD\test\Pain Drain\libraries\lvgl\src\misc/lv_anim.c ****         a->repeat_cnt--;
  96              		.loc 1 421 0 is_stmt 0 discriminator 1
  97 0010 3E32     		adds	r2, r2, #62
ARM GAS  C:\Users\haske\AppData\Local\Temp\cceAapTu.s 			page 11


  98 0012 A25A     		ldrh	r2, [r4, r2]
  99 0014 002A     		cmp	r2, #0
 100 0016 05D0     		beq	.L7
 421:..\..\..\arduinoLCD\test\Pain Drain\libraries\lvgl\src\misc/lv_anim.c ****         a->repeat_cnt--;
 101              		.loc 1 421 0 discriminator 2
 102 0018 1F49     		ldr	r1, .L14
 103 001a 8A42     		cmp	r2, r1
 104 001c 02D0     		beq	.L7
 422:..\..\..\arduinoLCD\test\Pain Drain\libraries\lvgl\src\misc/lv_anim.c ****     }
 105              		.loc 1 422 0 is_stmt 1
 106 001e 013A     		subs	r2, r2, #1
 107 0020 4021     		movs	r1, #64
 108 0022 6252     		strh	r2, [r4, r1]
 109              	.L7:
 428:..\..\..\arduinoLCD\test\Pain Drain\libraries\lvgl\src\misc/lv_anim.c **** 
 110              		.loc 1 428 0
 111 0024 4022     		movs	r2, #64
 112 0026 A25A     		ldrh	r2, [r4, r2]
 113 0028 002A     		cmp	r2, #0
 114 002a 18D1     		bne	.L8
 428:..\..\..\arduinoLCD\test\Pain Drain\libraries\lvgl\src\misc/lv_anim.c **** 
 115              		.loc 1 428 0 is_stmt 0 discriminator 1
 116 002c A36B     		ldr	r3, [r4, #56]
 117 002e 002B     		cmp	r3, #0
 118 0030 01D0     		beq	.L9
 428:..\..\..\arduinoLCD\test\Pain Drain\libraries\lvgl\src\misc/lv_anim.c **** 
 119              		.loc 1 428 0 discriminator 2
 120 0032 0028     		cmp	r0, #0
 121 0034 13D0     		beq	.L8
 122              	.L9:
 432:..\..\..\arduinoLCD\test\Pain Drain\libraries\lvgl\src\misc/lv_anim.c ****         /*Flag that the list has changed*/
 123              		.loc 1 432 0 is_stmt 1
 124 0036 2100     		movs	r1, r4
 125 0038 1848     		ldr	r0, .L14+4
 126 003a FFF7FEFF 		bl	_lv_ll_remove
 127              	.LVL5:
 434:..\..\..\arduinoLCD\test\Pain Drain\libraries\lvgl\src\misc/lv_anim.c **** 
 128              		.loc 1 434 0
 129 003e FFF7FEFF 		bl	anim_mark_list_change
 130              	.LVL6:
 437:..\..\..\arduinoLCD\test\Pain Drain\libraries\lvgl\src\misc/lv_anim.c ****         if(a->deleted_cb != NULL) a->deleted_cb(a);
 131              		.loc 1 437 0
 132 0042 E368     		ldr	r3, [r4, #12]
 133 0044 002B     		cmp	r3, #0
 134 0046 01D0     		beq	.L10
 437:..\..\..\arduinoLCD\test\Pain Drain\libraries\lvgl\src\misc/lv_anim.c ****         if(a->deleted_cb != NULL) a->deleted_cb(a);
 135              		.loc 1 437 0 is_stmt 0 discriminator 1
 136 0048 2000     		movs	r0, r4
 137 004a 9847     		blx	r3
 138              	.LVL7:
 139              	.L10:
 438:..\..\..\arduinoLCD\test\Pain Drain\libraries\lvgl\src\misc/lv_anim.c ****         lv_mem_free(a);
 140              		.loc 1 438 0 is_stmt 1
 141 004c 2369     		ldr	r3, [r4, #16]
 142 004e 002B     		cmp	r3, #0
 143 0050 01D0     		beq	.L11
 438:..\..\..\arduinoLCD\test\Pain Drain\libraries\lvgl\src\misc/lv_anim.c ****         lv_mem_free(a);
ARM GAS  C:\Users\haske\AppData\Local\Temp\cceAapTu.s 			page 12


 144              		.loc 1 438 0 is_stmt 0 discriminator 1
 145 0052 2000     		movs	r0, r4
 146 0054 9847     		blx	r3
 147              	.LVL8:
 148              	.L11:
 439:..\..\..\arduinoLCD\test\Pain Drain\libraries\lvgl\src\misc/lv_anim.c ****     }
 149              		.loc 1 439 0 is_stmt 1
 150 0056 2000     		movs	r0, r4
 151 0058 FFF7FEFF 		bl	lv_mem_free
 152              	.LVL9:
 153 005c 1AE0     		b	.L6
 154              	.L8:
 443:..\..\..\arduinoLCD\test\Pain Drain\libraries\lvgl\src\misc/lv_anim.c ****         /*Swap the start and end values in play back mode*/
 155              		.loc 1 443 0
 156 005e E36B     		ldr	r3, [r4, #60]
 157 0060 5A42     		rsbs	r2, r3, #0
 158 0062 2263     		str	r2, [r4, #48]
 445:..\..\..\arduinoLCD\test\Pain Drain\libraries\lvgl\src\misc/lv_anim.c ****             /*If now turning back use the 'playback_pause*/
 159              		.loc 1 445 0
 160 0064 A16B     		ldr	r1, [r4, #56]
 161 0066 0029     		cmp	r1, #0
 162 0068 14D0     		beq	.L6
 163              	.LBB2:
 447:..\..\..\arduinoLCD\test\Pain Drain\libraries\lvgl\src\misc/lv_anim.c **** 
 164              		.loc 1 447 0
 165 006a 0028     		cmp	r0, #0
 166 006c 02D1     		bne	.L13
 447:..\..\..\arduinoLCD\test\Pain Drain\libraries\lvgl\src\misc/lv_anim.c **** 
 167              		.loc 1 447 0 is_stmt 0 discriminator 1
 168 006e 636B     		ldr	r3, [r4, #52]
 169 0070 5A42     		rsbs	r2, r3, #0
 170 0072 2263     		str	r2, [r4, #48]
 171              	.L13:
 450:..\..\..\arduinoLCD\test\Pain Drain\libraries\lvgl\src\misc/lv_anim.c ****             /*Swap the start and end values*/
 172              		.loc 1 450 0 is_stmt 1
 173 0074 4342     		rsbs	r3, r0, #0
 174 0076 4341     		adcs	r3, r3, r0
 175 0078 4220     		movs	r0, #66
 176 007a 5A00     		lsls	r2, r3, #1
 177 007c 235C     		ldrb	r3, [r4, r0]
 178 007e 0225     		movs	r5, #2
 179 0080 AB43     		bics	r3, r5
 180 0082 1343     		orrs	r3, r2
 181 0084 2354     		strb	r3, [r4, r0]
 452:..\..\..\arduinoLCD\test\Pain Drain\libraries\lvgl\src\misc/lv_anim.c ****             a->start_value = a->end_value;
 182              		.loc 1 452 0
 183 0086 236A     		ldr	r3, [r4, #32]
 184              	.LVL10:
 453:..\..\..\arduinoLCD\test\Pain Drain\libraries\lvgl\src\misc/lv_anim.c ****             a->end_value   = tmp;
 185              		.loc 1 453 0
 186 0088 A26A     		ldr	r2, [r4, #40]
 187 008a 2262     		str	r2, [r4, #32]
 454:..\..\..\arduinoLCD\test\Pain Drain\libraries\lvgl\src\misc/lv_anim.c ****             /*Swap the time and playback_time*/
 188              		.loc 1 454 0
 189 008c A362     		str	r3, [r4, #40]
 456:..\..\..\arduinoLCD\test\Pain Drain\libraries\lvgl\src\misc/lv_anim.c ****             a->time = a->playback_time;
 190              		.loc 1 456 0
ARM GAS  C:\Users\haske\AppData\Local\Temp\cceAapTu.s 			page 13


 191 008e E36A     		ldr	r3, [r4, #44]
 192              	.LVL11:
 193 0090 A363     		str	r3, [r4, #56]
 194              	.LVL12:
 457:..\..\..\arduinoLCD\test\Pain Drain\libraries\lvgl\src\misc/lv_anim.c ****             a->playback_time = tmp;
 195              		.loc 1 457 0
 196 0092 E162     		str	r1, [r4, #44]
 197              	.LVL13:
 198              	.L6:
 199              	.LBE2:
 461:..\..\..\arduinoLCD\test\Pain Drain\libraries\lvgl\src\misc/lv_anim.c **** 
 200              		.loc 1 461 0
 201              		@ sp needed
 202              	.LVL14:
 203 0094 70BD     		pop	{r4, r5, r6, pc}
 204              	.L15:
 205 0096 C046     		.align	2
 206              	.L14:
 207 0098 FFFF0000 		.word	65535
 208 009c 00000000 		.word	_lv_anim_ll
 209              		.cfi_endproc
 210              	.LFE64:
 211              		.size	anim_ready_handler, .-anim_ready_handler
 212              		.section	.text.anim_timer,"ax",%progbits
 213              		.align	2
 214              		.code	16
 215              		.thumb_func
 216              		.type	anim_timer, %function
 217              	anim_timer:
 218              	.LFB63:
 351:..\..\..\arduinoLCD\test\Pain Drain\libraries\lvgl\src\misc/lv_anim.c ****     LV_UNUSED(param);
 219              		.loc 1 351 0
 220              		.cfi_startproc
 221              		@ args = 0, pretend = 0, frame = 0
 222              		@ frame_needed = 0, uses_anonymous_args = 0
 223              	.LVL15:
 224 0000 70B5     		push	{r4, r5, r6, lr}
 225              		.cfi_def_cfa_offset 16
 226              		.cfi_offset 4, -16
 227              		.cfi_offset 5, -12
 228              		.cfi_offset 6, -8
 229              		.cfi_offset 14, -4
 354:..\..\..\arduinoLCD\test\Pain Drain\libraries\lvgl\src\misc/lv_anim.c **** 
 230              		.loc 1 354 0
 231 0002 3B4C     		ldr	r4, .L29
 232 0004 A068     		ldr	r0, [r4, #8]
 233              	.LVL16:
 234 0006 FFF7FEFF 		bl	lv_tick_elaps
 235              	.LVL17:
 236 000a 0500     		movs	r5, r0
 237              	.LVL18:
 357:..\..\..\arduinoLCD\test\Pain Drain\libraries\lvgl\src\misc/lv_anim.c **** 
 238              		.loc 1 357 0
 239 000c 237B     		ldrb	r3, [r4, #12]
 240 000e 002B     		cmp	r3, #0
 241 0010 01D0     		beq	.L28
 242 0012 0022     		movs	r2, #0
ARM GAS  C:\Users\haske\AppData\Local\Temp\cceAapTu.s 			page 14


 243 0014 00E0     		b	.L17
 244              	.L28:
 245 0016 0122     		movs	r2, #1
 246              	.L17:
 357:..\..\..\arduinoLCD\test\Pain Drain\libraries\lvgl\src\misc/lv_anim.c **** 
 247              		.loc 1 357 0 is_stmt 0 discriminator 4
 248 0018 354B     		ldr	r3, .L29
 249 001a 1A73     		strb	r2, [r3, #12]
 359:..\..\..\arduinoLCD\test\Pain Drain\libraries\lvgl\src\misc/lv_anim.c **** 
 250              		.loc 1 359 0 is_stmt 1 discriminator 4
 251 001c 3548     		ldr	r0, .L29+4
 252              	.LVL19:
 253 001e FFF7FEFF 		bl	_lv_ll_get_head
 254              	.LVL20:
 255 0022 0400     		movs	r4, r0
 256              	.LVL21:
 361:..\..\..\arduinoLCD\test\Pain Drain\libraries\lvgl\src\misc/lv_anim.c ****         /*It can be set by `lv_anim_del()` typically in `end_cb`. If set then an animation delete
 257              		.loc 1 361 0 discriminator 4
 258 0024 5DE0     		b	.L18
 259              	.L27:
 366:..\..\..\arduinoLCD\test\Pain Drain\libraries\lvgl\src\misc/lv_anim.c **** 
 260              		.loc 1 366 0
 261 0026 324B     		ldr	r3, .L29
 262 0028 0022     		movs	r2, #0
 263 002a 1A70     		strb	r2, [r3]
 368:..\..\..\arduinoLCD\test\Pain Drain\libraries\lvgl\src\misc/lv_anim.c ****             a->run_round = anim_run_round; /*The list readying might be reset so need to know which
 264              		.loc 1 368 0
 265 002c 4232     		adds	r2, r2, #66
 266 002e A25C     		ldrb	r2, [r4, r2]
 267 0030 5207     		lsls	r2, r2, #29
 268 0032 D20F     		lsrs	r2, r2, #31
 269 0034 1B7B     		ldrb	r3, [r3, #12]
 270 0036 9A42     		cmp	r2, r3
 271 0038 45D0     		beq	.L19
 272              	.LBB3:
 369:..\..\..\arduinoLCD\test\Pain Drain\libraries\lvgl\src\misc/lv_anim.c **** 
 273              		.loc 1 369 0
 274 003a 4221     		movs	r1, #66
 275 003c 0122     		movs	r2, #1
 276 003e 1340     		ands	r3, r2
 277 0040 9A00     		lsls	r2, r3, #2
 278 0042 635C     		ldrb	r3, [r4, r1]
 279 0044 0420     		movs	r0, #4
 280              	.LVL22:
 281 0046 8343     		bics	r3, r0
 282 0048 1343     		orrs	r3, r2
 283 004a 6354     		strb	r3, [r4, r1]
 372:..\..\..\arduinoLCD\test\Pain Drain\libraries\lvgl\src\misc/lv_anim.c ****             if(!a->start_cb_called && a->act_time <= 0 && new_act_time >= 0) {
 284              		.loc 1 372 0
 285 004c 226B     		ldr	r2, [r4, #48]
 286 004e 5119     		adds	r1, r2, r5
 287              	.LVL23:
 373:..\..\..\arduinoLCD\test\Pain Drain\libraries\lvgl\src\misc/lv_anim.c ****                 if(a->early_apply == 0 && a->get_value_cb) {
 288              		.loc 1 373 0
 289 0050 1807     		lsls	r0, r3, #28
 290 0052 1BD4     		bmi	.L20
 373:..\..\..\arduinoLCD\test\Pain Drain\libraries\lvgl\src\misc/lv_anim.c ****                 if(a->early_apply == 0 && a->get_value_cb) {
ARM GAS  C:\Users\haske\AppData\Local\Temp\cceAapTu.s 			page 15


 291              		.loc 1 373 0 is_stmt 0 discriminator 1
 292 0054 002A     		cmp	r2, #0
 293 0056 19DC     		bgt	.L20
 373:..\..\..\arduinoLCD\test\Pain Drain\libraries\lvgl\src\misc/lv_anim.c ****                 if(a->early_apply == 0 && a->get_value_cb) {
 294              		.loc 1 373 0 discriminator 2
 295 0058 0029     		cmp	r1, #0
 296 005a 17DB     		blt	.L20
 374:..\..\..\arduinoLCD\test\Pain Drain\libraries\lvgl\src\misc/lv_anim.c ****                     int32_t v_ofs = a->get_value_cb(a);
 297              		.loc 1 374 0 is_stmt 1
 298 005c DB07     		lsls	r3, r3, #31
 299 005e 0BD4     		bmi	.L21
 374:..\..\..\arduinoLCD\test\Pain Drain\libraries\lvgl\src\misc/lv_anim.c ****                     int32_t v_ofs = a->get_value_cb(a);
 300              		.loc 1 374 0 is_stmt 0 discriminator 1
 301 0060 6369     		ldr	r3, [r4, #20]
 302 0062 002B     		cmp	r3, #0
 303 0064 08D0     		beq	.L21
 304              	.LBB4:
 375:..\..\..\arduinoLCD\test\Pain Drain\libraries\lvgl\src\misc/lv_anim.c ****                     a->start_value += v_ofs;
 305              		.loc 1 375 0 is_stmt 1
 306 0066 2000     		movs	r0, r4
 307 0068 9847     		blx	r3
 308              	.LVL24:
 376:..\..\..\arduinoLCD\test\Pain Drain\libraries\lvgl\src\misc/lv_anim.c ****                     a->end_value += v_ofs;
 309              		.loc 1 376 0
 310 006a 236A     		ldr	r3, [r4, #32]
 311 006c 1B18     		adds	r3, r3, r0
 312 006e 2362     		str	r3, [r4, #32]
 377:..\..\..\arduinoLCD\test\Pain Drain\libraries\lvgl\src\misc/lv_anim.c ****                 }
 313              		.loc 1 377 0
 314 0070 A36A     		ldr	r3, [r4, #40]
 315 0072 9C46     		mov	ip, r3
 316 0074 6044     		add	r0, r0, ip
 317              	.LVL25:
 318 0076 A062     		str	r0, [r4, #40]
 319              	.L21:
 320              	.LBE4:
 379:..\..\..\arduinoLCD\test\Pain Drain\libraries\lvgl\src\misc/lv_anim.c ****                 a->start_cb_called = 1;
 321              		.loc 1 379 0
 322 0078 A368     		ldr	r3, [r4, #8]
 323 007a 002B     		cmp	r3, #0
 324 007c 01D0     		beq	.L22
 379:..\..\..\arduinoLCD\test\Pain Drain\libraries\lvgl\src\misc/lv_anim.c ****                 a->start_cb_called = 1;
 325              		.loc 1 379 0 is_stmt 0 discriminator 1
 326 007e 2000     		movs	r0, r4
 327 0080 9847     		blx	r3
 328              	.LVL26:
 329              	.L22:
 380:..\..\..\arduinoLCD\test\Pain Drain\libraries\lvgl\src\misc/lv_anim.c ****             }
 330              		.loc 1 380 0 is_stmt 1
 331 0082 4222     		movs	r2, #66
 332 0084 A15C     		ldrb	r1, [r4, r2]
 333 0086 0823     		movs	r3, #8
 334 0088 0B43     		orrs	r3, r1
 335 008a A354     		strb	r3, [r4, r2]
 336              	.L20:
 382:..\..\..\arduinoLCD\test\Pain Drain\libraries\lvgl\src\misc/lv_anim.c ****             if(a->act_time >= 0) {
 337              		.loc 1 382 0
ARM GAS  C:\Users\haske\AppData\Local\Temp\cceAapTu.s 			page 16


 338 008c 236B     		ldr	r3, [r4, #48]
 339 008e EB18     		adds	r3, r5, r3
 340 0090 2363     		str	r3, [r4, #48]
 383:..\..\..\arduinoLCD\test\Pain Drain\libraries\lvgl\src\misc/lv_anim.c ****                 if(a->act_time > a->time) a->act_time = a->time;
 341              		.loc 1 383 0
 342 0092 002B     		cmp	r3, #0
 343 0094 17DB     		blt	.L19
 344              	.LBB5:
 384:..\..\..\arduinoLCD\test\Pain Drain\libraries\lvgl\src\misc/lv_anim.c **** 
 345              		.loc 1 384 0
 346 0096 E26A     		ldr	r2, [r4, #44]
 347 0098 9342     		cmp	r3, r2
 348 009a 00DD     		ble	.L23
 384:..\..\..\arduinoLCD\test\Pain Drain\libraries\lvgl\src\misc/lv_anim.c **** 
 349              		.loc 1 384 0 is_stmt 0 discriminator 1
 350 009c 2263     		str	r2, [r4, #48]
 351              	.L23:
 387:..\..\..\arduinoLCD\test\Pain Drain\libraries\lvgl\src\misc/lv_anim.c **** 
 352              		.loc 1 387 0 is_stmt 1
 353 009e 2000     		movs	r0, r4
 354 00a0 E369     		ldr	r3, [r4, #28]
 355 00a2 9847     		blx	r3
 356              	.LVL27:
 389:..\..\..\arduinoLCD\test\Pain Drain\libraries\lvgl\src\misc/lv_anim.c ****                     a->current_value = new_value;
 357              		.loc 1 389 0
 358 00a4 636A     		ldr	r3, [r4, #36]
 359 00a6 9842     		cmp	r0, r3
 360 00a8 06D0     		beq	.L24
 390:..\..\..\arduinoLCD\test\Pain Drain\libraries\lvgl\src\misc/lv_anim.c ****                     /*Apply the calculated value*/
 361              		.loc 1 390 0
 362 00aa 6062     		str	r0, [r4, #36]
 392:..\..\..\arduinoLCD\test\Pain Drain\libraries\lvgl\src\misc/lv_anim.c ****                 }
 363              		.loc 1 392 0
 364 00ac 6368     		ldr	r3, [r4, #4]
 365 00ae 002B     		cmp	r3, #0
 366 00b0 02D0     		beq	.L24
 392:..\..\..\arduinoLCD\test\Pain Drain\libraries\lvgl\src\misc/lv_anim.c ****                 }
 367              		.loc 1 392 0 is_stmt 0 discriminator 1
 368 00b2 0100     		movs	r1, r0
 369 00b4 2068     		ldr	r0, [r4]
 370              	.LVL28:
 371 00b6 9847     		blx	r3
 372              	.LVL29:
 373              	.L24:
 396:..\..\..\arduinoLCD\test\Pain Drain\libraries\lvgl\src\misc/lv_anim.c ****                     anim_ready_handler(a);
 374              		.loc 1 396 0 is_stmt 1
 375 00b8 236B     		ldr	r3, [r4, #48]
 376 00ba E26A     		ldr	r2, [r4, #44]
 377 00bc 9342     		cmp	r3, r2
 378 00be 02DB     		blt	.L19
 397:..\..\..\arduinoLCD\test\Pain Drain\libraries\lvgl\src\misc/lv_anim.c ****                 }
 379              		.loc 1 397 0
 380 00c0 2000     		movs	r0, r4
 381 00c2 FFF7FEFF 		bl	anim_ready_handler
 382              	.LVL30:
 383              	.L19:
 384              	.LBE5:
ARM GAS  C:\Users\haske\AppData\Local\Temp\cceAapTu.s 			page 17


 385              	.LBE3:
 404:..\..\..\arduinoLCD\test\Pain Drain\libraries\lvgl\src\misc/lv_anim.c ****             a = _lv_ll_get_head(&LV_GC_ROOT(_lv_anim_ll));
 386              		.loc 1 404 0
 387 00c6 0A4B     		ldr	r3, .L29
 388 00c8 1B78     		ldrb	r3, [r3]
 389 00ca 002B     		cmp	r3, #0
 390 00cc 04D0     		beq	.L25
 405:..\..\..\arduinoLCD\test\Pain Drain\libraries\lvgl\src\misc/lv_anim.c ****         else
 391              		.loc 1 405 0
 392 00ce 0948     		ldr	r0, .L29+4
 393 00d0 FFF7FEFF 		bl	_lv_ll_get_head
 394              	.LVL31:
 395 00d4 0400     		movs	r4, r0
 396              	.LVL32:
 397 00d6 04E0     		b	.L18
 398              	.LVL33:
 399              	.L25:
 407:..\..\..\arduinoLCD\test\Pain Drain\libraries\lvgl\src\misc/lv_anim.c ****     }
 400              		.loc 1 407 0
 401 00d8 2100     		movs	r1, r4
 402 00da 0648     		ldr	r0, .L29+4
 403 00dc FFF7FEFF 		bl	_lv_ll_get_next
 404              	.LVL34:
 405 00e0 0400     		movs	r4, r0
 406              	.LVL35:
 407              	.L18:
 361:..\..\..\arduinoLCD\test\Pain Drain\libraries\lvgl\src\misc/lv_anim.c ****         /*It can be set by `lv_anim_del()` typically in `end_cb`. If set then an animation delete
 408              		.loc 1 361 0
 409 00e2 002C     		cmp	r4, #0
 410 00e4 9FD1     		bne	.L27
 410:..\..\..\arduinoLCD\test\Pain Drain\libraries\lvgl\src\misc/lv_anim.c **** }
 411              		.loc 1 410 0
 412 00e6 FFF7FEFF 		bl	lv_tick_get
 413              	.LVL36:
 414 00ea 014B     		ldr	r3, .L29
 415 00ec 9860     		str	r0, [r3, #8]
 411:..\..\..\arduinoLCD\test\Pain Drain\libraries\lvgl\src\misc/lv_anim.c **** 
 416              		.loc 1 411 0
 417              		@ sp needed
 418              	.LVL37:
 419              	.LVL38:
 420 00ee 70BD     		pop	{r4, r5, r6, pc}
 421              	.L30:
 422              		.align	2
 423              	.L29:
 424 00f0 00000000 		.word	.LANCHOR0
 425 00f4 00000000 		.word	_lv_anim_ll
 426              		.cfi_endproc
 427              	.LFE63:
 428              		.size	anim_timer, .-anim_timer
 429              		.section	.text.lv_anim_path_linear,"ax",%progbits
 430              		.align	2
 431              		.global	lv_anim_path_linear
 432              		.code	16
 433              		.thumb_func
 434              		.type	lv_anim_path_linear, %function
 435              	lv_anim_path_linear:
ARM GAS  C:\Users\haske\AppData\Local\Temp\cceAapTu.s 			page 18


 436              	.LFB56:
 213:..\..\..\arduinoLCD\test\Pain Drain\libraries\lvgl\src\misc/lv_anim.c ****     /*Calculate the current step*/
 437              		.loc 1 213 0
 438              		.cfi_startproc
 439              		@ args = 0, pretend = 0, frame = 0
 440              		@ frame_needed = 0, uses_anonymous_args = 0
 441              	.LVL39:
 442 0000 10B5     		push	{r4, lr}
 443              		.cfi_def_cfa_offset 8
 444              		.cfi_offset 4, -8
 445              		.cfi_offset 14, -4
 446 0002 82B0     		sub	sp, sp, #8
 447              		.cfi_def_cfa_offset 16
 448 0004 0400     		movs	r4, r0
 215:..\..\..\arduinoLCD\test\Pain Drain\libraries\lvgl\src\misc/lv_anim.c **** 
 449              		.loc 1 215 0
 450 0006 8023     		movs	r3, #128
 451 0008 DB00     		lsls	r3, r3, #3
 452 000a 0093     		str	r3, [sp]
 453 000c 0023     		movs	r3, #0
 454 000e C26A     		ldr	r2, [r0, #44]
 455 0010 0021     		movs	r1, #0
 456 0012 006B     		ldr	r0, [r0, #48]
 457              	.LVL40:
 458 0014 FFF7FEFF 		bl	lv_map
 459              	.LVL41:
 220:..\..\..\arduinoLCD\test\Pain Drain\libraries\lvgl\src\misc/lv_anim.c ****     new_value = new_value >> LV_ANIM_RES_SHIFT;
 460              		.loc 1 220 0
 461 0018 A36A     		ldr	r3, [r4, #40]
 462 001a 226A     		ldr	r2, [r4, #32]
 463 001c 9B1A     		subs	r3, r3, r2
 464 001e 5843     		muls	r0, r3
 465              	.LVL42:
 221:..\..\..\arduinoLCD\test\Pain Drain\libraries\lvgl\src\misc/lv_anim.c ****     new_value += a->start_value;
 466              		.loc 1 221 0
 467 0020 8012     		asrs	r0, r0, #10
 468              	.LVL43:
 222:..\..\..\arduinoLCD\test\Pain Drain\libraries\lvgl\src\misc/lv_anim.c **** 
 469              		.loc 1 222 0
 470 0022 1018     		adds	r0, r2, r0
 471              	.LVL44:
 225:..\..\..\arduinoLCD\test\Pain Drain\libraries\lvgl\src\misc/lv_anim.c **** 
 472              		.loc 1 225 0
 473 0024 02B0     		add	sp, sp, #8
 474              		@ sp needed
 475              	.LVL45:
 476 0026 10BD     		pop	{r4, pc}
 477              		.cfi_endproc
 478              	.LFE56:
 479              		.size	lv_anim_path_linear, .-lv_anim_path_linear
 480              		.section	.text._lv_anim_core_init,"ax",%progbits
 481              		.align	2
 482              		.global	_lv_anim_core_init
 483              		.code	16
 484              		.thumb_func
 485              		.type	_lv_anim_core_init, %function
 486              	_lv_anim_core_init:
ARM GAS  C:\Users\haske\AppData\Local\Temp\cceAapTu.s 			page 19


 487              	.LFB45:
  58:..\..\..\arduinoLCD\test\Pain Drain\libraries\lvgl\src\misc/lv_anim.c ****     _lv_ll_init(&LV_GC_ROOT(_lv_anim_ll), sizeof(lv_anim_t));
 488              		.loc 1 58 0
 489              		.cfi_startproc
 490              		@ args = 0, pretend = 0, frame = 0
 491              		@ frame_needed = 0, uses_anonymous_args = 0
 492 0000 10B5     		push	{r4, lr}
 493              		.cfi_def_cfa_offset 8
 494              		.cfi_offset 4, -8
 495              		.cfi_offset 14, -4
  59:..\..\..\arduinoLCD\test\Pain Drain\libraries\lvgl\src\misc/lv_anim.c ****     _lv_anim_tmr = lv_timer_create(anim_timer, LV_DISP_DEF_REFR_PERIOD, NULL);
 496              		.loc 1 59 0
 497 0002 4421     		movs	r1, #68
 498 0004 0748     		ldr	r0, .L33
 499 0006 FFF7FEFF 		bl	_lv_ll_init
 500              	.LVL46:
  60:..\..\..\arduinoLCD\test\Pain Drain\libraries\lvgl\src\misc/lv_anim.c ****     anim_mark_list_change(); /*Turn off the animation timer*/
 501              		.loc 1 60 0
 502 000a 0022     		movs	r2, #0
 503 000c 1E21     		movs	r1, #30
 504 000e 0648     		ldr	r0, .L33+4
 505 0010 FFF7FEFF 		bl	lv_timer_create
 506              	.LVL47:
 507 0014 054C     		ldr	r4, .L33+8
 508 0016 6060     		str	r0, [r4, #4]
  61:..\..\..\arduinoLCD\test\Pain Drain\libraries\lvgl\src\misc/lv_anim.c ****     anim_list_changed = false;
 509              		.loc 1 61 0
 510 0018 FFF7FEFF 		bl	anim_mark_list_change
 511              	.LVL48:
  62:..\..\..\arduinoLCD\test\Pain Drain\libraries\lvgl\src\misc/lv_anim.c **** }
 512              		.loc 1 62 0
 513 001c 0023     		movs	r3, #0
 514 001e 2370     		strb	r3, [r4]
  63:..\..\..\arduinoLCD\test\Pain Drain\libraries\lvgl\src\misc/lv_anim.c **** 
 515              		.loc 1 63 0
 516              		@ sp needed
 517 0020 10BD     		pop	{r4, pc}
 518              	.L34:
 519 0022 C046     		.align	2
 520              	.L33:
 521 0024 00000000 		.word	_lv_anim_ll
 522 0028 00000000 		.word	anim_timer
 523 002c 00000000 		.word	.LANCHOR0
 524              		.cfi_endproc
 525              	.LFE45:
 526              		.size	_lv_anim_core_init, .-_lv_anim_core_init
 527              		.section	.text.lv_anim_init,"ax",%progbits
 528              		.align	2
 529              		.global	lv_anim_init
 530              		.code	16
 531              		.thumb_func
 532              		.type	lv_anim_init, %function
 533              	lv_anim_init:
 534              	.LFB46:
  66:..\..\..\arduinoLCD\test\Pain Drain\libraries\lvgl\src\misc/lv_anim.c ****     lv_memset_00(a, sizeof(lv_anim_t));
 535              		.loc 1 66 0
 536              		.cfi_startproc
ARM GAS  C:\Users\haske\AppData\Local\Temp\cceAapTu.s 			page 20


 537              		@ args = 0, pretend = 0, frame = 0
 538              		@ frame_needed = 0, uses_anonymous_args = 0
 539              	.LVL49:
 540 0000 10B5     		push	{r4, lr}
 541              		.cfi_def_cfa_offset 8
 542              		.cfi_offset 4, -8
 543              		.cfi_offset 14, -4
 544 0002 0400     		movs	r4, r0
  67:..\..\..\arduinoLCD\test\Pain Drain\libraries\lvgl\src\misc/lv_anim.c ****     a->time = 500;
 545              		.loc 1 67 0
 546 0004 4421     		movs	r1, #68
 547 0006 FFF7FEFF 		bl	lv_memset_00
 548              	.LVL50:
  68:..\..\..\arduinoLCD\test\Pain Drain\libraries\lvgl\src\misc/lv_anim.c ****     a->start_value = 0;
 549              		.loc 1 68 0
 550 000a FA23     		movs	r3, #250
 551 000c 5B00     		lsls	r3, r3, #1
 552 000e E362     		str	r3, [r4, #44]
  69:..\..\..\arduinoLCD\test\Pain Drain\libraries\lvgl\src\misc/lv_anim.c ****     a->end_value = 100;
 553              		.loc 1 69 0
 554 0010 0023     		movs	r3, #0
 555 0012 2362     		str	r3, [r4, #32]
  70:..\..\..\arduinoLCD\test\Pain Drain\libraries\lvgl\src\misc/lv_anim.c ****     a->repeat_cnt = 1;
 556              		.loc 1 70 0
 557 0014 6433     		adds	r3, r3, #100
 558 0016 A362     		str	r3, [r4, #40]
  71:..\..\..\arduinoLCD\test\Pain Drain\libraries\lvgl\src\misc/lv_anim.c ****     a->path_cb = lv_anim_path_linear;
 559              		.loc 1 71 0
 560 0018 0122     		movs	r2, #1
 561 001a 243B     		subs	r3, r3, #36
 562 001c E252     		strh	r2, [r4, r3]
  72:..\..\..\arduinoLCD\test\Pain Drain\libraries\lvgl\src\misc/lv_anim.c ****     a->early_apply = 1;
 563              		.loc 1 72 0
 564 001e 044B     		ldr	r3, .L36
 565 0020 E361     		str	r3, [r4, #28]
  73:..\..\..\arduinoLCD\test\Pain Drain\libraries\lvgl\src\misc/lv_anim.c **** }
 566              		.loc 1 73 0
 567 0022 4132     		adds	r2, r2, #65
 568 0024 A15C     		ldrb	r1, [r4, r2]
 569 0026 0123     		movs	r3, #1
 570 0028 0B43     		orrs	r3, r1
 571 002a A354     		strb	r3, [r4, r2]
  74:..\..\..\arduinoLCD\test\Pain Drain\libraries\lvgl\src\misc/lv_anim.c **** 
 572              		.loc 1 74 0
 573              		@ sp needed
 574              	.LVL51:
 575 002c 10BD     		pop	{r4, pc}
 576              	.L37:
 577 002e C046     		.align	2
 578              	.L36:
 579 0030 00000000 		.word	lv_anim_path_linear
 580              		.cfi_endproc
 581              	.LFE46:
 582              		.size	lv_anim_init, .-lv_anim_init
 583              		.section	.text.lv_anim_get_playtime,"ax",%progbits
 584              		.align	2
 585              		.global	lv_anim_get_playtime
ARM GAS  C:\Users\haske\AppData\Local\Temp\cceAapTu.s 			page 21


 586              		.code	16
 587              		.thumb_func
 588              		.type	lv_anim_get_playtime, %function
 589              	lv_anim_get_playtime:
 590              	.LFB48:
 118:..\..\..\arduinoLCD\test\Pain Drain\libraries\lvgl\src\misc/lv_anim.c ****     uint32_t playtime = LV_ANIM_PLAYTIME_INFINITE;
 591              		.loc 1 118 0
 592              		.cfi_startproc
 593              		@ args = 0, pretend = 0, frame = 0
 594              		@ frame_needed = 0, uses_anonymous_args = 0
 595              	.LVL52:
 596 0000 30B5     		push	{r4, r5, lr}
 597              		.cfi_def_cfa_offset 12
 598              		.cfi_offset 4, -12
 599              		.cfi_offset 5, -8
 600              		.cfi_offset 14, -4
 601              	.LVL53:
 121:..\..\..\arduinoLCD\test\Pain Drain\libraries\lvgl\src\misc/lv_anim.c ****         return playtime;
 602              		.loc 1 121 0
 603 0002 4023     		movs	r3, #64
 604 0004 C45A     		ldrh	r4, [r0, r3]
 605 0006 114B     		ldr	r3, .L43
 606 0008 9C42     		cmp	r4, r3
 607 000a 19D0     		beq	.L41
 124:..\..\..\arduinoLCD\test\Pain Drain\libraries\lvgl\src\misc/lv_anim.c ****     if(a->playback_now == 0)
 608              		.loc 1 124 0
 609 000c C36A     		ldr	r3, [r0, #44]
 610 000e 026B     		ldr	r2, [r0, #48]
 611 0010 9D1A     		subs	r5, r3, r2
 612              	.LVL54:
 125:..\..\..\arduinoLCD\test\Pain Drain\libraries\lvgl\src\misc/lv_anim.c ****         playtime += a->playback_delay + a->playback_time;
 613              		.loc 1 125 0
 614 0012 4222     		movs	r2, #66
 615 0014 825C     		ldrb	r2, [r0, r2]
 616 0016 9207     		lsls	r2, r2, #30
 617 0018 04D4     		bmi	.L40
 126:..\..\..\arduinoLCD\test\Pain Drain\libraries\lvgl\src\misc/lv_anim.c **** 
 618              		.loc 1 126 0
 619 001a 426B     		ldr	r2, [r0, #52]
 620 001c 816B     		ldr	r1, [r0, #56]
 621 001e 8C46     		mov	ip, r1
 622 0020 6244     		add	r2, r2, ip
 623 0022 AD18     		adds	r5, r5, r2
 624              	.LVL55:
 625              	.L40:
 128:..\..\..\arduinoLCD\test\Pain Drain\libraries\lvgl\src\misc/lv_anim.c ****         return playtime;
 626              		.loc 1 128 0
 627 0024 012C     		cmp	r4, #1
 628 0026 0ED9     		bls	.L42
 131:..\..\..\arduinoLCD\test\Pain Drain\libraries\lvgl\src\misc/lv_anim.c ****                  a->playback_delay + a->playback_time) *
 629              		.loc 1 131 0
 630 0028 C26B     		ldr	r2, [r0, #60]
 631 002a 9446     		mov	ip, r2
 632 002c 6344     		add	r3, r3, ip
 633 002e 426B     		ldr	r2, [r0, #52]
 634 0030 9446     		mov	ip, r2
 635 0032 6344     		add	r3, r3, ip
ARM GAS  C:\Users\haske\AppData\Local\Temp\cceAapTu.s 			page 22


 132:..\..\..\arduinoLCD\test\Pain Drain\libraries\lvgl\src\misc/lv_anim.c ****                 (a->repeat_cnt - 1);
 636              		.loc 1 132 0
 637 0034 816B     		ldr	r1, [r0, #56]
 638 0036 5A18     		adds	r2, r3, r1
 133:..\..\..\arduinoLCD\test\Pain Drain\libraries\lvgl\src\misc/lv_anim.c **** 
 639              		.loc 1 133 0
 640 0038 631E     		subs	r3, r4, #1
 132:..\..\..\arduinoLCD\test\Pain Drain\libraries\lvgl\src\misc/lv_anim.c ****                 (a->repeat_cnt - 1);
 641              		.loc 1 132 0
 642 003a 5343     		muls	r3, r2
 131:..\..\..\arduinoLCD\test\Pain Drain\libraries\lvgl\src\misc/lv_anim.c ****                  a->playback_delay + a->playback_time) *
 643              		.loc 1 131 0
 644 003c E818     		adds	r0, r5, r3
 645              	.LVL56:
 135:..\..\..\arduinoLCD\test\Pain Drain\libraries\lvgl\src\misc/lv_anim.c **** }
 646              		.loc 1 135 0
 647 003e 03E0     		b	.L39
 648              	.LVL57:
 649              	.L41:
 122:..\..\..\arduinoLCD\test\Pain Drain\libraries\lvgl\src\misc/lv_anim.c **** 
 650              		.loc 1 122 0
 651 0040 0120     		movs	r0, #1
 652              	.LVL58:
 653 0042 4042     		rsbs	r0, r0, #0
 654 0044 00E0     		b	.L39
 655              	.LVL59:
 656              	.L42:
 129:..\..\..\arduinoLCD\test\Pain Drain\libraries\lvgl\src\misc/lv_anim.c **** 
 657              		.loc 1 129 0
 658 0046 2800     		movs	r0, r5
 659              	.LVL60:
 660              	.L39:
 136:..\..\..\arduinoLCD\test\Pain Drain\libraries\lvgl\src\misc/lv_anim.c **** 
 661              		.loc 1 136 0
 662              		@ sp needed
 663 0048 30BD     		pop	{r4, r5, pc}
 664              	.L44:
 665 004a C046     		.align	2
 666              	.L43:
 667 004c FFFF0000 		.word	65535
 668              		.cfi_endproc
 669              	.LFE48:
 670              		.size	lv_anim_get_playtime, .-lv_anim_get_playtime
 671              		.section	.text.lv_anim_del,"ax",%progbits
 672              		.align	2
 673              		.global	lv_anim_del
 674              		.code	16
 675              		.thumb_func
 676              		.type	lv_anim_del, %function
 677              	lv_anim_del:
 678              	.LFB49:
 139:..\..\..\arduinoLCD\test\Pain Drain\libraries\lvgl\src\misc/lv_anim.c ****     lv_anim_t * a;
 679              		.loc 1 139 0
 680              		.cfi_startproc
 681              		@ args = 0, pretend = 0, frame = 8
 682              		@ frame_needed = 0, uses_anonymous_args = 0
 683              	.LVL61:
ARM GAS  C:\Users\haske\AppData\Local\Temp\cceAapTu.s 			page 23


 684 0000 F0B5     		push	{r4, r5, r6, r7, lr}
 685              		.cfi_def_cfa_offset 20
 686              		.cfi_offset 4, -20
 687              		.cfi_offset 5, -16
 688              		.cfi_offset 6, -12
 689              		.cfi_offset 7, -8
 690              		.cfi_offset 14, -4
 691 0002 83B0     		sub	sp, sp, #12
 692              		.cfi_def_cfa_offset 32
 693 0004 0600     		movs	r6, r0
 694 0006 0F00     		movs	r7, r1
 695              	.LVL62:
 143:..\..\..\arduinoLCD\test\Pain Drain\libraries\lvgl\src\misc/lv_anim.c ****     while(a != NULL) {
 696              		.loc 1 143 0
 697 0008 1548     		ldr	r0, .L52
 698              	.LVL63:
 699 000a FFF7FEFF 		bl	_lv_ll_get_head
 700              	.LVL64:
 701 000e 0400     		movs	r4, r0
 702              	.LVL65:
 142:..\..\..\arduinoLCD\test\Pain Drain\libraries\lvgl\src\misc/lv_anim.c ****     a        = _lv_ll_get_head(&LV_GC_ROOT(_lv_anim_ll));
 703              		.loc 1 142 0
 704 0010 0023     		movs	r3, #0
 705 0012 0193     		str	r3, [sp, #4]
 144:..\..\..\arduinoLCD\test\Pain Drain\libraries\lvgl\src\misc/lv_anim.c ****         /*'a' might be deleted, so get the next object while 'a' is valid*/
 706              		.loc 1 144 0
 707 0014 1FE0     		b	.L46
 708              	.LVL66:
 709              	.L51:
 146:..\..\..\arduinoLCD\test\Pain Drain\libraries\lvgl\src\misc/lv_anim.c **** 
 710              		.loc 1 146 0
 711 0016 2100     		movs	r1, r4
 712 0018 1148     		ldr	r0, .L52
 713 001a FFF7FEFF 		bl	_lv_ll_get_next
 714              	.LVL67:
 715 001e 0500     		movs	r5, r0
 716              	.LVL68:
 148:..\..\..\arduinoLCD\test\Pain Drain\libraries\lvgl\src\misc/lv_anim.c ****             _lv_ll_remove(&LV_GC_ROOT(_lv_anim_ll), a);
 717              		.loc 1 148 0
 718 0020 2368     		ldr	r3, [r4]
 719 0022 B342     		cmp	r3, r6
 720 0024 01D0     		beq	.L47
 148:..\..\..\arduinoLCD\test\Pain Drain\libraries\lvgl\src\misc/lv_anim.c ****             _lv_ll_remove(&LV_GC_ROOT(_lv_anim_ll), a);
 721              		.loc 1 148 0 is_stmt 0 discriminator 2
 722 0026 002E     		cmp	r6, #0
 723 0028 14D1     		bne	.L48
 724              	.L47:
 148:..\..\..\arduinoLCD\test\Pain Drain\libraries\lvgl\src\misc/lv_anim.c ****             _lv_ll_remove(&LV_GC_ROOT(_lv_anim_ll), a);
 725              		.loc 1 148 0 discriminator 3
 726 002a 6368     		ldr	r3, [r4, #4]
 727 002c BB42     		cmp	r3, r7
 728 002e 01D0     		beq	.L49
 148:..\..\..\arduinoLCD\test\Pain Drain\libraries\lvgl\src\misc/lv_anim.c ****             _lv_ll_remove(&LV_GC_ROOT(_lv_anim_ll), a);
 729              		.loc 1 148 0 discriminator 4
 730 0030 002F     		cmp	r7, #0
 731 0032 0FD1     		bne	.L48
 732              	.L49:
ARM GAS  C:\Users\haske\AppData\Local\Temp\cceAapTu.s 			page 24


 149:..\..\..\arduinoLCD\test\Pain Drain\libraries\lvgl\src\misc/lv_anim.c ****             if(a->deleted_cb != NULL) a->deleted_cb(a);
 733              		.loc 1 149 0 is_stmt 1
 734 0034 2100     		movs	r1, r4
 735 0036 0A48     		ldr	r0, .L52
 736              	.LVL69:
 737 0038 FFF7FEFF 		bl	_lv_ll_remove
 738              	.LVL70:
 150:..\..\..\arduinoLCD\test\Pain Drain\libraries\lvgl\src\misc/lv_anim.c ****             lv_mem_free(a);
 739              		.loc 1 150 0
 740 003c 2369     		ldr	r3, [r4, #16]
 741 003e 002B     		cmp	r3, #0
 742 0040 01D0     		beq	.L50
 150:..\..\..\arduinoLCD\test\Pain Drain\libraries\lvgl\src\misc/lv_anim.c ****             lv_mem_free(a);
 743              		.loc 1 150 0 is_stmt 0 discriminator 1
 744 0042 2000     		movs	r0, r4
 745 0044 9847     		blx	r3
 746              	.LVL71:
 747              	.L50:
 151:..\..\..\arduinoLCD\test\Pain Drain\libraries\lvgl\src\misc/lv_anim.c ****             anim_mark_list_change(); /*Read by `anim_timer`. It need to know if a delete occurred i
 748              		.loc 1 151 0 is_stmt 1
 749 0046 2000     		movs	r0, r4
 750 0048 FFF7FEFF 		bl	lv_mem_free
 751              	.LVL72:
 152:..\..\..\arduinoLCD\test\Pain Drain\libraries\lvgl\src\misc/lv_anim.c ****                                        the linked list*/
 752              		.loc 1 152 0
 753 004c FFF7FEFF 		bl	anim_mark_list_change
 754              	.LVL73:
 154:..\..\..\arduinoLCD\test\Pain Drain\libraries\lvgl\src\misc/lv_anim.c ****         }
 755              		.loc 1 154 0
 756 0050 0123     		movs	r3, #1
 757 0052 0193     		str	r3, [sp, #4]
 758              	.LVL74:
 759              	.L48:
 760 0054 2C00     		movs	r4, r5
 761              	.LVL75:
 762              	.L46:
 144:..\..\..\arduinoLCD\test\Pain Drain\libraries\lvgl\src\misc/lv_anim.c ****         /*'a' might be deleted, so get the next object while 'a' is valid*/
 763              		.loc 1 144 0
 764 0056 002C     		cmp	r4, #0
 765 0058 DDD1     		bne	.L51
 161:..\..\..\arduinoLCD\test\Pain Drain\libraries\lvgl\src\misc/lv_anim.c **** 
 766              		.loc 1 161 0
 767 005a 0198     		ldr	r0, [sp, #4]
 768 005c 03B0     		add	sp, sp, #12
 769              		@ sp needed
 770              	.LVL76:
 771              	.LVL77:
 772              	.LVL78:
 773 005e F0BD     		pop	{r4, r5, r6, r7, pc}
 774              	.L53:
 775              		.align	2
 776              	.L52:
 777 0060 00000000 		.word	_lv_anim_ll
 778              		.cfi_endproc
 779              	.LFE49:
 780              		.size	lv_anim_del, .-lv_anim_del
 781              		.section	.text.lv_anim_start,"ax",%progbits
ARM GAS  C:\Users\haske\AppData\Local\Temp\cceAapTu.s 			page 25


 782              		.align	2
 783              		.global	lv_anim_start
 784              		.code	16
 785              		.thumb_func
 786              		.type	lv_anim_start, %function
 787              	lv_anim_start:
 788              	.LFB47:
  77:..\..\..\arduinoLCD\test\Pain Drain\libraries\lvgl\src\misc/lv_anim.c ****     TRACE_ANIM("begin");
 789              		.loc 1 77 0
 790              		.cfi_startproc
 791              		@ args = 0, pretend = 0, frame = 0
 792              		@ frame_needed = 0, uses_anonymous_args = 0
 793              	.LVL79:
 794 0000 70B5     		push	{r4, r5, r6, lr}
 795              		.cfi_def_cfa_offset 16
 796              		.cfi_offset 4, -16
 797              		.cfi_offset 5, -12
 798              		.cfi_offset 6, -8
 799              		.cfi_offset 14, -4
 800 0002 0500     		movs	r5, r0
  81:..\..\..\arduinoLCD\test\Pain Drain\libraries\lvgl\src\misc/lv_anim.c **** 
 801              		.loc 1 81 0
 802 0004 4168     		ldr	r1, [r0, #4]
 803 0006 0029     		cmp	r1, #0
 804 0008 02D0     		beq	.L55
  81:..\..\..\arduinoLCD\test\Pain Drain\libraries\lvgl\src\misc/lv_anim.c **** 
 805              		.loc 1 81 0 is_stmt 0 discriminator 1
 806 000a 0068     		ldr	r0, [r0]
 807              	.LVL80:
 808 000c FFF7FEFF 		bl	lv_anim_del
 809              	.LVL81:
 810              	.L55:
  84:..\..\..\arduinoLCD\test\Pain Drain\libraries\lvgl\src\misc/lv_anim.c ****         last_timer_run = lv_tick_get();
 811              		.loc 1 84 0 is_stmt 1
 812 0010 1F48     		ldr	r0, .L64
 813 0012 FFF7FEFF 		bl	_lv_ll_is_empty
 814              	.LVL82:
 815 0016 0028     		cmp	r0, #0
 816 0018 03D0     		beq	.L56
  85:..\..\..\arduinoLCD\test\Pain Drain\libraries\lvgl\src\misc/lv_anim.c ****     }
 817              		.loc 1 85 0
 818 001a FFF7FEFF 		bl	lv_tick_get
 819              	.LVL83:
 820 001e 1D4B     		ldr	r3, .L64+4
 821 0020 9860     		str	r0, [r3, #8]
 822              	.L56:
  89:..\..\..\arduinoLCD\test\Pain Drain\libraries\lvgl\src\misc/lv_anim.c ****     LV_ASSERT_MALLOC(new_anim);
 823              		.loc 1 89 0
 824 0022 1B48     		ldr	r0, .L64
 825 0024 FFF7FEFF 		bl	_lv_ll_ins_head
 826              	.LVL84:
 827 0028 041E     		subs	r4, r0, #0
 828              	.LVL85:
  90:..\..\..\arduinoLCD\test\Pain Drain\libraries\lvgl\src\misc/lv_anim.c ****     if(new_anim == NULL) return NULL;
 829              		.loc 1 90 0
 830 002a 00D1     		bne	.L57
 831              	.L58:
ARM GAS  C:\Users\haske\AppData\Local\Temp\cceAapTu.s 			page 26


 832 002c FEE7     		b	.L58
 833              	.L57:
  91:..\..\..\arduinoLCD\test\Pain Drain\libraries\lvgl\src\misc/lv_anim.c **** 
 834              		.loc 1 91 0
 835 002e 0028     		cmp	r0, #0
 836 0030 2CD0     		beq	.L63
  94:..\..\..\arduinoLCD\test\Pain Drain\libraries\lvgl\src\misc/lv_anim.c ****     if(a->var == a) new_anim->var = new_anim;
 837              		.loc 1 94 0
 838 0032 4422     		movs	r2, #68
 839 0034 2900     		movs	r1, r5
 840 0036 FFF7FEFF 		bl	lv_memcpy
 841              	.LVL86:
  95:..\..\..\arduinoLCD\test\Pain Drain\libraries\lvgl\src\misc/lv_anim.c ****     new_anim->run_round = anim_run_round;
 842              		.loc 1 95 0
 843 003a 2B68     		ldr	r3, [r5]
 844 003c 9D42     		cmp	r5, r3
 845 003e 00D1     		bne	.L60
  95:..\..\..\arduinoLCD\test\Pain Drain\libraries\lvgl\src\misc/lv_anim.c ****     new_anim->run_round = anim_run_round;
 846              		.loc 1 95 0 is_stmt 0 discriminator 1
 847 0040 2460     		str	r4, [r4]
 848              	.L60:
  96:..\..\..\arduinoLCD\test\Pain Drain\libraries\lvgl\src\misc/lv_anim.c **** 
 849              		.loc 1 96 0 is_stmt 1
 850 0042 4220     		movs	r0, #66
 851 0044 134B     		ldr	r3, .L64+4
 852 0046 1B7B     		ldrb	r3, [r3, #12]
 853 0048 0121     		movs	r1, #1
 854 004a 0B40     		ands	r3, r1
 855 004c 9A00     		lsls	r2, r3, #2
 856 004e 235C     		ldrb	r3, [r4, r0]
 857 0050 0425     		movs	r5, #4
 858              	.LVL87:
 859 0052 AB43     		bics	r3, r5
 860 0054 1343     		orrs	r3, r2
 861 0056 2354     		strb	r3, [r4, r0]
  99:..\..\..\arduinoLCD\test\Pain Drain\libraries\lvgl\src\misc/lv_anim.c ****         if(new_anim->get_value_cb) {
 862              		.loc 1 99 0
 863 0058 1942     		tst	r1, r3
 864 005a 13D0     		beq	.L61
 100:..\..\..\arduinoLCD\test\Pain Drain\libraries\lvgl\src\misc/lv_anim.c ****             int32_t v_ofs = new_anim->get_value_cb(new_anim);
 865              		.loc 1 100 0
 866 005c 6369     		ldr	r3, [r4, #20]
 867 005e 002B     		cmp	r3, #0
 868 0060 08D0     		beq	.L62
 869              	.LBB6:
 101:..\..\..\arduinoLCD\test\Pain Drain\libraries\lvgl\src\misc/lv_anim.c ****             new_anim->start_value += v_ofs;
 870              		.loc 1 101 0
 871 0062 2000     		movs	r0, r4
 872 0064 9847     		blx	r3
 873              	.LVL88:
 102:..\..\..\arduinoLCD\test\Pain Drain\libraries\lvgl\src\misc/lv_anim.c ****             new_anim->end_value += v_ofs;
 874              		.loc 1 102 0
 875 0066 236A     		ldr	r3, [r4, #32]
 876 0068 1B18     		adds	r3, r3, r0
 877 006a 2362     		str	r3, [r4, #32]
 103:..\..\..\arduinoLCD\test\Pain Drain\libraries\lvgl\src\misc/lv_anim.c ****         }
 878              		.loc 1 103 0
ARM GAS  C:\Users\haske\AppData\Local\Temp\cceAapTu.s 			page 27


 879 006c A36A     		ldr	r3, [r4, #40]
 880 006e 9C46     		mov	ip, r3
 881 0070 6044     		add	r0, r0, ip
 882              	.LVL89:
 883 0072 A062     		str	r0, [r4, #40]
 884              	.L62:
 885              	.LBE6:
 106:..\..\..\arduinoLCD\test\Pain Drain\libraries\lvgl\src\misc/lv_anim.c ****     }
 886              		.loc 1 106 0
 887 0074 6368     		ldr	r3, [r4, #4]
 888 0076 002B     		cmp	r3, #0
 889 0078 04D0     		beq	.L61
 106:..\..\..\arduinoLCD\test\Pain Drain\libraries\lvgl\src\misc/lv_anim.c ****     }
 890              		.loc 1 106 0 is_stmt 0 discriminator 1
 891 007a 2068     		ldr	r0, [r4]
 892 007c 0028     		cmp	r0, #0
 893 007e 01D0     		beq	.L61
 106:..\..\..\arduinoLCD\test\Pain Drain\libraries\lvgl\src\misc/lv_anim.c ****     }
 894              		.loc 1 106 0 discriminator 2
 895 0080 216A     		ldr	r1, [r4, #32]
 896 0082 9847     		blx	r3
 897              	.LVL90:
 898              	.L61:
 111:..\..\..\arduinoLCD\test\Pain Drain\libraries\lvgl\src\misc/lv_anim.c **** 
 899              		.loc 1 111 0 is_stmt 1
 900 0084 FFF7FEFF 		bl	anim_mark_list_change
 901              	.LVL91:
 114:..\..\..\arduinoLCD\test\Pain Drain\libraries\lvgl\src\misc/lv_anim.c **** }
 902              		.loc 1 114 0
 903 0088 2000     		movs	r0, r4
 904 008a 00E0     		b	.L59
 905              	.LVL92:
 906              	.L63:
  91:..\..\..\arduinoLCD\test\Pain Drain\libraries\lvgl\src\misc/lv_anim.c **** 
 907              		.loc 1 91 0
 908 008c 0020     		movs	r0, #0
 909              	.LVL93:
 910              	.L59:
 115:..\..\..\arduinoLCD\test\Pain Drain\libraries\lvgl\src\misc/lv_anim.c **** 
 911              		.loc 1 115 0
 912              		@ sp needed
 913              	.LVL94:
 914 008e 70BD     		pop	{r4, r5, r6, pc}
 915              	.L65:
 916              		.align	2
 917              	.L64:
 918 0090 00000000 		.word	_lv_anim_ll
 919 0094 00000000 		.word	.LANCHOR0
 920              		.cfi_endproc
 921              	.LFE47:
 922              		.size	lv_anim_start, .-lv_anim_start
 923              		.section	.text.lv_anim_del_all,"ax",%progbits
 924              		.align	2
 925              		.global	lv_anim_del_all
 926              		.code	16
 927              		.thumb_func
 928              		.type	lv_anim_del_all, %function
ARM GAS  C:\Users\haske\AppData\Local\Temp\cceAapTu.s 			page 28


 929              	lv_anim_del_all:
 930              	.LFB50:
 164:..\..\..\arduinoLCD\test\Pain Drain\libraries\lvgl\src\misc/lv_anim.c ****     _lv_ll_clear(&LV_GC_ROOT(_lv_anim_ll));
 931              		.loc 1 164 0
 932              		.cfi_startproc
 933              		@ args = 0, pretend = 0, frame = 0
 934              		@ frame_needed = 0, uses_anonymous_args = 0
 935 0000 10B5     		push	{r4, lr}
 936              		.cfi_def_cfa_offset 8
 937              		.cfi_offset 4, -8
 938              		.cfi_offset 14, -4
 165:..\..\..\arduinoLCD\test\Pain Drain\libraries\lvgl\src\misc/lv_anim.c ****     anim_mark_list_change();
 939              		.loc 1 165 0
 940 0002 0348     		ldr	r0, .L67
 941 0004 FFF7FEFF 		bl	_lv_ll_clear
 942              	.LVL95:
 166:..\..\..\arduinoLCD\test\Pain Drain\libraries\lvgl\src\misc/lv_anim.c **** }
 943              		.loc 1 166 0
 944 0008 FFF7FEFF 		bl	anim_mark_list_change
 945              	.LVL96:
 167:..\..\..\arduinoLCD\test\Pain Drain\libraries\lvgl\src\misc/lv_anim.c **** 
 946              		.loc 1 167 0
 947              		@ sp needed
 948 000c 10BD     		pop	{r4, pc}
 949              	.L68:
 950 000e C046     		.align	2
 951              	.L67:
 952 0010 00000000 		.word	_lv_anim_ll
 953              		.cfi_endproc
 954              	.LFE50:
 955              		.size	lv_anim_del_all, .-lv_anim_del_all
 956              		.section	.text.lv_anim_get,"ax",%progbits
 957              		.align	2
 958              		.global	lv_anim_get
 959              		.code	16
 960              		.thumb_func
 961              		.type	lv_anim_get, %function
 962              	lv_anim_get:
 963              	.LFB51:
 170:..\..\..\arduinoLCD\test\Pain Drain\libraries\lvgl\src\misc/lv_anim.c ****     lv_anim_t * a;
 964              		.loc 1 170 0
 965              		.cfi_startproc
 966              		@ args = 0, pretend = 0, frame = 0
 967              		@ frame_needed = 0, uses_anonymous_args = 0
 968              	.LVL97:
 969 0000 70B5     		push	{r4, r5, r6, lr}
 970              		.cfi_def_cfa_offset 16
 971              		.cfi_offset 4, -16
 972              		.cfi_offset 5, -12
 973              		.cfi_offset 6, -8
 974              		.cfi_offset 14, -4
 975 0002 0400     		movs	r4, r0
 976 0004 0D00     		movs	r5, r1
 172:..\..\..\arduinoLCD\test\Pain Drain\libraries\lvgl\src\misc/lv_anim.c ****         if(a->var == var && (a->exec_cb == exec_cb || exec_cb == NULL)) {
 977              		.loc 1 172 0
 978 0006 0948     		ldr	r0, .L76
 979              	.LVL98:
ARM GAS  C:\Users\haske\AppData\Local\Temp\cceAapTu.s 			page 29


 980 0008 FFF7FEFF 		bl	_lv_ll_get_head
 981              	.LVL99:
 982 000c 0BE0     		b	.L70
 983              	.L73:
 173:..\..\..\arduinoLCD\test\Pain Drain\libraries\lvgl\src\misc/lv_anim.c ****             return a;
 984              		.loc 1 173 0
 985 000e 0368     		ldr	r3, [r0]
 986 0010 A342     		cmp	r3, r4
 987 0012 04D1     		bne	.L71
 173:..\..\..\arduinoLCD\test\Pain Drain\libraries\lvgl\src\misc/lv_anim.c ****             return a;
 988              		.loc 1 173 0 is_stmt 0 discriminator 1
 989 0014 4368     		ldr	r3, [r0, #4]
 990 0016 AB42     		cmp	r3, r5
 991 0018 07D0     		beq	.L72
 173:..\..\..\arduinoLCD\test\Pain Drain\libraries\lvgl\src\misc/lv_anim.c ****             return a;
 992              		.loc 1 173 0 discriminator 2
 993 001a 002D     		cmp	r5, #0
 994 001c 05D0     		beq	.L72
 995              	.L71:
 172:..\..\..\arduinoLCD\test\Pain Drain\libraries\lvgl\src\misc/lv_anim.c ****         if(a->var == var && (a->exec_cb == exec_cb || exec_cb == NULL)) {
 996              		.loc 1 172 0 is_stmt 1 discriminator 2
 997 001e 0100     		movs	r1, r0
 998 0020 0248     		ldr	r0, .L76
 999              	.LVL100:
 1000 0022 FFF7FEFF 		bl	_lv_ll_get_next
 1001              	.LVL101:
 1002              	.L70:
 172:..\..\..\arduinoLCD\test\Pain Drain\libraries\lvgl\src\misc/lv_anim.c ****         if(a->var == var && (a->exec_cb == exec_cb || exec_cb == NULL)) {
 1003              		.loc 1 172 0 is_stmt 0 discriminator 1
 1004 0026 0028     		cmp	r0, #0
 1005 0028 F1D1     		bne	.L73
 1006              	.L72:
 179:..\..\..\arduinoLCD\test\Pain Drain\libraries\lvgl\src\misc/lv_anim.c **** 
 1007              		.loc 1 179 0 is_stmt 1
 1008              		@ sp needed
 1009              	.LVL102:
 1010              	.LVL103:
 1011 002a 70BD     		pop	{r4, r5, r6, pc}
 1012              	.L77:
 1013              		.align	2
 1014              	.L76:
 1015 002c 00000000 		.word	_lv_anim_ll
 1016              		.cfi_endproc
 1017              	.LFE51:
 1018              		.size	lv_anim_get, .-lv_anim_get
 1019              		.section	.text.lv_anim_get_timer,"ax",%progbits
 1020              		.align	2
 1021              		.global	lv_anim_get_timer
 1022              		.code	16
 1023              		.thumb_func
 1024              		.type	lv_anim_get_timer, %function
 1025              	lv_anim_get_timer:
 1026              	.LFB52:
 182:..\..\..\arduinoLCD\test\Pain Drain\libraries\lvgl\src\misc/lv_anim.c ****     return _lv_anim_tmr;
 1027              		.loc 1 182 0
 1028              		.cfi_startproc
 1029              		@ args = 0, pretend = 0, frame = 0
ARM GAS  C:\Users\haske\AppData\Local\Temp\cceAapTu.s 			page 30


 1030              		@ frame_needed = 0, uses_anonymous_args = 0
 1031              		@ link register save eliminated.
 183:..\..\..\arduinoLCD\test\Pain Drain\libraries\lvgl\src\misc/lv_anim.c **** }
 1032              		.loc 1 183 0
 1033 0000 014B     		ldr	r3, .L79
 1034 0002 5868     		ldr	r0, [r3, #4]
 184:..\..\..\arduinoLCD\test\Pain Drain\libraries\lvgl\src\misc/lv_anim.c **** 
 1035              		.loc 1 184 0
 1036              		@ sp needed
 1037 0004 7047     		bx	lr
 1038              	.L80:
 1039 0006 C046     		.align	2
 1040              	.L79:
 1041 0008 00000000 		.word	.LANCHOR0
 1042              		.cfi_endproc
 1043              	.LFE52:
 1044              		.size	lv_anim_get_timer, .-lv_anim_get_timer
 1045              		.section	.text.lv_anim_count_running,"ax",%progbits
 1046              		.align	2
 1047              		.global	lv_anim_count_running
 1048              		.code	16
 1049              		.thumb_func
 1050              		.type	lv_anim_count_running, %function
 1051              	lv_anim_count_running:
 1052              	.LFB53:
 187:..\..\..\arduinoLCD\test\Pain Drain\libraries\lvgl\src\misc/lv_anim.c ****     uint16_t cnt = 0;
 1053              		.loc 1 187 0
 1054              		.cfi_startproc
 1055              		@ args = 0, pretend = 0, frame = 0
 1056              		@ frame_needed = 0, uses_anonymous_args = 0
 1057 0000 10B5     		push	{r4, lr}
 1058              		.cfi_def_cfa_offset 8
 1059              		.cfi_offset 4, -8
 1060              		.cfi_offset 14, -4
 1061              	.LVL104:
 190:..\..\..\arduinoLCD\test\Pain Drain\libraries\lvgl\src\misc/lv_anim.c **** 
 1062              		.loc 1 190 0
 1063 0002 0748     		ldr	r0, .L84
 1064 0004 FFF7FEFF 		bl	_lv_ll_get_head
 1065              	.LVL105:
 188:..\..\..\arduinoLCD\test\Pain Drain\libraries\lvgl\src\misc/lv_anim.c ****     lv_anim_t * a;
 1066              		.loc 1 188 0
 1067 0008 0024     		movs	r4, #0
 190:..\..\..\arduinoLCD\test\Pain Drain\libraries\lvgl\src\misc/lv_anim.c **** 
 1068              		.loc 1 190 0
 1069 000a 05E0     		b	.L82
 1070              	.LVL106:
 1071              	.L83:
 190:..\..\..\arduinoLCD\test\Pain Drain\libraries\lvgl\src\misc/lv_anim.c **** 
 1072              		.loc 1 190 0 is_stmt 0 discriminator 3
 1073 000c 0134     		adds	r4, r4, #1
 1074              	.LVL107:
 1075 000e A4B2     		uxth	r4, r4
 1076              	.LVL108:
 1077 0010 0100     		movs	r1, r0
 1078 0012 0348     		ldr	r0, .L84
 1079              	.LVL109:
ARM GAS  C:\Users\haske\AppData\Local\Temp\cceAapTu.s 			page 31


 1080 0014 FFF7FEFF 		bl	_lv_ll_get_next
 1081              	.LVL110:
 1082              	.L82:
 190:..\..\..\arduinoLCD\test\Pain Drain\libraries\lvgl\src\misc/lv_anim.c **** 
 1083              		.loc 1 190 0 discriminator 1
 1084 0018 0028     		cmp	r0, #0
 1085 001a F7D1     		bne	.L83
 193:..\..\..\arduinoLCD\test\Pain Drain\libraries\lvgl\src\misc/lv_anim.c **** 
 1086              		.loc 1 193 0 is_stmt 1
 1087 001c 2000     		movs	r0, r4
 1088              	.LVL111:
 1089              		@ sp needed
 1090              	.LVL112:
 1091 001e 10BD     		pop	{r4, pc}
 1092              	.L85:
 1093              		.align	2
 1094              	.L84:
 1095 0020 00000000 		.word	_lv_anim_ll
 1096              		.cfi_endproc
 1097              	.LFE53:
 1098              		.size	lv_anim_count_running, .-lv_anim_count_running
 1099              		.global	__aeabi_uidiv
 1100              		.section	.text.lv_anim_speed_to_time,"ax",%progbits
 1101              		.align	2
 1102              		.global	lv_anim_speed_to_time
 1103              		.code	16
 1104              		.thumb_func
 1105              		.type	lv_anim_speed_to_time, %function
 1106              	lv_anim_speed_to_time:
 1107              	.LFB54:
 196:..\..\..\arduinoLCD\test\Pain Drain\libraries\lvgl\src\misc/lv_anim.c ****     uint32_t d    = LV_ABS(start - end);
 1108              		.loc 1 196 0
 1109              		.cfi_startproc
 1110              		@ args = 0, pretend = 0, frame = 0
 1111              		@ frame_needed = 0, uses_anonymous_args = 0
 1112              	.LVL113:
 1113 0000 10B5     		push	{r4, lr}
 1114              		.cfi_def_cfa_offset 8
 1115              		.cfi_offset 4, -8
 1116              		.cfi_offset 14, -4
 1117 0002 0300     		movs	r3, r0
 197:..\..\..\arduinoLCD\test\Pain Drain\libraries\lvgl\src\misc/lv_anim.c ****     uint32_t time = (d * 1000) / speed;
 1118              		.loc 1 197 0
 1119 0004 891A     		subs	r1, r1, r2
 1120              	.LVL114:
 1121 0006 CA17     		asrs	r2, r1, #31
 1122              	.LVL115:
 1123 0008 8918     		adds	r1, r1, r2
 1124 000a 5140     		eors	r1, r2
 1125              	.LVL116:
 198:..\..\..\arduinoLCD\test\Pain Drain\libraries\lvgl\src\misc/lv_anim.c **** 
 1126              		.loc 1 198 0
 1127 000c FA20     		movs	r0, #250
 1128              	.LVL117:
 1129 000e 8000     		lsls	r0, r0, #2
 1130 0010 4843     		muls	r0, r1
 1131 0012 1900     		movs	r1, r3
ARM GAS  C:\Users\haske\AppData\Local\Temp\cceAapTu.s 			page 32


 1132              	.LVL118:
 1133 0014 FFF7FEFF 		bl	__aeabi_uidiv
 1134              	.LVL119:
 200:..\..\..\arduinoLCD\test\Pain Drain\libraries\lvgl\src\misc/lv_anim.c ****         time++;
 1135              		.loc 1 200 0
 1136 0018 0028     		cmp	r0, #0
 1137 001a 00D1     		bne	.L87
 201:..\..\..\arduinoLCD\test\Pain Drain\libraries\lvgl\src\misc/lv_anim.c ****     }
 1138              		.loc 1 201 0
 1139 001c 0130     		adds	r0, r0, #1
 1140              	.LVL120:
 1141              	.L87:
 205:..\..\..\arduinoLCD\test\Pain Drain\libraries\lvgl\src\misc/lv_anim.c **** 
 1142              		.loc 1 205 0
 1143              		@ sp needed
 1144 001e 10BD     		pop	{r4, pc}
 1145              		.cfi_endproc
 1146              	.LFE54:
 1147              		.size	lv_anim_speed_to_time, .-lv_anim_speed_to_time
 1148              		.section	.text.lv_anim_refr_now,"ax",%progbits
 1149              		.align	2
 1150              		.global	lv_anim_refr_now
 1151              		.code	16
 1152              		.thumb_func
 1153              		.type	lv_anim_refr_now, %function
 1154              	lv_anim_refr_now:
 1155              	.LFB55:
 208:..\..\..\arduinoLCD\test\Pain Drain\libraries\lvgl\src\misc/lv_anim.c ****     anim_timer(NULL);
 1156              		.loc 1 208 0
 1157              		.cfi_startproc
 1158              		@ args = 0, pretend = 0, frame = 0
 1159              		@ frame_needed = 0, uses_anonymous_args = 0
 1160 0000 10B5     		push	{r4, lr}
 1161              		.cfi_def_cfa_offset 8
 1162              		.cfi_offset 4, -8
 1163              		.cfi_offset 14, -4
 209:..\..\..\arduinoLCD\test\Pain Drain\libraries\lvgl\src\misc/lv_anim.c **** }
 1164              		.loc 1 209 0
 1165 0002 0020     		movs	r0, #0
 1166 0004 FFF7FEFF 		bl	anim_timer
 1167              	.LVL121:
 210:..\..\..\arduinoLCD\test\Pain Drain\libraries\lvgl\src\misc/lv_anim.c **** 
 1168              		.loc 1 210 0
 1169              		@ sp needed
 1170 0008 10BD     		pop	{r4, pc}
 1171              		.cfi_endproc
 1172              	.LFE55:
 1173              		.size	lv_anim_refr_now, .-lv_anim_refr_now
 1174 000a C046     		.section	.text.lv_anim_path_ease_in,"ax",%progbits
 1175              		.align	2
 1176              		.global	lv_anim_path_ease_in
 1177              		.code	16
 1178              		.thumb_func
 1179              		.type	lv_anim_path_ease_in, %function
 1180              	lv_anim_path_ease_in:
 1181              	.LFB57:
 228:..\..\..\arduinoLCD\test\Pain Drain\libraries\lvgl\src\misc/lv_anim.c ****     /*Calculate the current step*/
ARM GAS  C:\Users\haske\AppData\Local\Temp\cceAapTu.s 			page 33


 1182              		.loc 1 228 0
 1183              		.cfi_startproc
 1184              		@ args = 0, pretend = 0, frame = 0
 1185              		@ frame_needed = 0, uses_anonymous_args = 0
 1186              	.LVL122:
 1187 0000 30B5     		push	{r4, r5, lr}
 1188              		.cfi_def_cfa_offset 12
 1189              		.cfi_offset 4, -12
 1190              		.cfi_offset 5, -8
 1191              		.cfi_offset 14, -4
 1192 0002 83B0     		sub	sp, sp, #12
 1193              		.cfi_def_cfa_offset 24
 1194 0004 0400     		movs	r4, r0
 230:..\..\..\arduinoLCD\test\Pain Drain\libraries\lvgl\src\misc/lv_anim.c ****     int32_t step = lv_bezier3(t, 0, 50, 100, LV_BEZIER_VAL_MAX);
 1195              		.loc 1 230 0
 1196 0006 8025     		movs	r5, #128
 1197 0008 ED00     		lsls	r5, r5, #3
 1198 000a 0095     		str	r5, [sp]
 1199 000c 0023     		movs	r3, #0
 1200 000e C26A     		ldr	r2, [r0, #44]
 1201 0010 0021     		movs	r1, #0
 1202 0012 006B     		ldr	r0, [r0, #48]
 1203              	.LVL123:
 1204 0014 FFF7FEFF 		bl	lv_map
 1205              	.LVL124:
 231:..\..\..\arduinoLCD\test\Pain Drain\libraries\lvgl\src\misc/lv_anim.c **** 
 1206              		.loc 1 231 0
 1207 0018 0095     		str	r5, [sp]
 1208 001a 6423     		movs	r3, #100
 1209 001c 3222     		movs	r2, #50
 1210 001e 0021     		movs	r1, #0
 1211 0020 FFF7FEFF 		bl	lv_bezier3
 1212              	.LVL125:
 234:..\..\..\arduinoLCD\test\Pain Drain\libraries\lvgl\src\misc/lv_anim.c ****     new_value = new_value >> LV_BEZIER_VAL_SHIFT;
 1213              		.loc 1 234 0
 1214 0024 A36A     		ldr	r3, [r4, #40]
 1215 0026 226A     		ldr	r2, [r4, #32]
 1216 0028 9B1A     		subs	r3, r3, r2
 1217 002a 5843     		muls	r0, r3
 1218              	.LVL126:
 235:..\..\..\arduinoLCD\test\Pain Drain\libraries\lvgl\src\misc/lv_anim.c ****     new_value += a->start_value;
 1219              		.loc 1 235 0
 1220 002c 8012     		asrs	r0, r0, #10
 1221              	.LVL127:
 236:..\..\..\arduinoLCD\test\Pain Drain\libraries\lvgl\src\misc/lv_anim.c **** 
 1222              		.loc 1 236 0
 1223 002e 1018     		adds	r0, r2, r0
 1224              	.LVL128:
 239:..\..\..\arduinoLCD\test\Pain Drain\libraries\lvgl\src\misc/lv_anim.c **** 
 1225              		.loc 1 239 0
 1226 0030 03B0     		add	sp, sp, #12
 1227              		@ sp needed
 1228              	.LVL129:
 1229 0032 30BD     		pop	{r4, r5, pc}
 1230              		.cfi_endproc
 1231              	.LFE57:
 1232              		.size	lv_anim_path_ease_in, .-lv_anim_path_ease_in
ARM GAS  C:\Users\haske\AppData\Local\Temp\cceAapTu.s 			page 34


 1233              		.section	.text.lv_anim_path_ease_out,"ax",%progbits
 1234              		.align	2
 1235              		.global	lv_anim_path_ease_out
 1236              		.code	16
 1237              		.thumb_func
 1238              		.type	lv_anim_path_ease_out, %function
 1239              	lv_anim_path_ease_out:
 1240              	.LFB58:
 242:..\..\..\arduinoLCD\test\Pain Drain\libraries\lvgl\src\misc/lv_anim.c ****     /*Calculate the current step*/
 1241              		.loc 1 242 0
 1242              		.cfi_startproc
 1243              		@ args = 0, pretend = 0, frame = 0
 1244              		@ frame_needed = 0, uses_anonymous_args = 0
 1245              	.LVL130:
 1246 0000 30B5     		push	{r4, r5, lr}
 1247              		.cfi_def_cfa_offset 12
 1248              		.cfi_offset 4, -12
 1249              		.cfi_offset 5, -8
 1250              		.cfi_offset 14, -4
 1251 0002 83B0     		sub	sp, sp, #12
 1252              		.cfi_def_cfa_offset 24
 1253 0004 0400     		movs	r4, r0
 244:..\..\..\arduinoLCD\test\Pain Drain\libraries\lvgl\src\misc/lv_anim.c ****     int32_t step = lv_bezier3(t, 0, 900, 950, LV_BEZIER_VAL_MAX);
 1254              		.loc 1 244 0
 1255 0006 8025     		movs	r5, #128
 1256 0008 ED00     		lsls	r5, r5, #3
 1257 000a 0095     		str	r5, [sp]
 1258 000c 0023     		movs	r3, #0
 1259 000e C26A     		ldr	r2, [r0, #44]
 1260 0010 0021     		movs	r1, #0
 1261 0012 006B     		ldr	r0, [r0, #48]
 1262              	.LVL131:
 1263 0014 FFF7FEFF 		bl	lv_map
 1264              	.LVL132:
 245:..\..\..\arduinoLCD\test\Pain Drain\libraries\lvgl\src\misc/lv_anim.c **** 
 1265              		.loc 1 245 0
 1266 0018 0095     		str	r5, [sp]
 1267 001a 074B     		ldr	r3, .L91
 1268 001c E122     		movs	r2, #225
 1269 001e 9200     		lsls	r2, r2, #2
 1270 0020 0021     		movs	r1, #0
 1271 0022 FFF7FEFF 		bl	lv_bezier3
 1272              	.LVL133:
 248:..\..\..\arduinoLCD\test\Pain Drain\libraries\lvgl\src\misc/lv_anim.c ****     new_value = new_value >> LV_BEZIER_VAL_SHIFT;
 1273              		.loc 1 248 0
 1274 0026 A36A     		ldr	r3, [r4, #40]
 1275 0028 226A     		ldr	r2, [r4, #32]
 1276 002a 9B1A     		subs	r3, r3, r2
 1277 002c 5843     		muls	r0, r3
 1278              	.LVL134:
 249:..\..\..\arduinoLCD\test\Pain Drain\libraries\lvgl\src\misc/lv_anim.c ****     new_value += a->start_value;
 1279              		.loc 1 249 0
 1280 002e 8012     		asrs	r0, r0, #10
 1281              	.LVL135:
 250:..\..\..\arduinoLCD\test\Pain Drain\libraries\lvgl\src\misc/lv_anim.c **** 
 1282              		.loc 1 250 0
 1283 0030 1018     		adds	r0, r2, r0
ARM GAS  C:\Users\haske\AppData\Local\Temp\cceAapTu.s 			page 35


 1284              	.LVL136:
 253:..\..\..\arduinoLCD\test\Pain Drain\libraries\lvgl\src\misc/lv_anim.c **** 
 1285              		.loc 1 253 0
 1286 0032 03B0     		add	sp, sp, #12
 1287              		@ sp needed
 1288              	.LVL137:
 1289 0034 30BD     		pop	{r4, r5, pc}
 1290              	.L92:
 1291 0036 C046     		.align	2
 1292              	.L91:
 1293 0038 B6030000 		.word	950
 1294              		.cfi_endproc
 1295              	.LFE58:
 1296              		.size	lv_anim_path_ease_out, .-lv_anim_path_ease_out
 1297              		.section	.text.lv_anim_path_ease_in_out,"ax",%progbits
 1298              		.align	2
 1299              		.global	lv_anim_path_ease_in_out
 1300              		.code	16
 1301              		.thumb_func
 1302              		.type	lv_anim_path_ease_in_out, %function
 1303              	lv_anim_path_ease_in_out:
 1304              	.LFB59:
 256:..\..\..\arduinoLCD\test\Pain Drain\libraries\lvgl\src\misc/lv_anim.c ****     /*Calculate the current step*/
 1305              		.loc 1 256 0
 1306              		.cfi_startproc
 1307              		@ args = 0, pretend = 0, frame = 0
 1308              		@ frame_needed = 0, uses_anonymous_args = 0
 1309              	.LVL138:
 1310 0000 30B5     		push	{r4, r5, lr}
 1311              		.cfi_def_cfa_offset 12
 1312              		.cfi_offset 4, -12
 1313              		.cfi_offset 5, -8
 1314              		.cfi_offset 14, -4
 1315 0002 83B0     		sub	sp, sp, #12
 1316              		.cfi_def_cfa_offset 24
 1317 0004 0400     		movs	r4, r0
 258:..\..\..\arduinoLCD\test\Pain Drain\libraries\lvgl\src\misc/lv_anim.c ****     int32_t step = lv_bezier3(t, 0, 50, 952, LV_BEZIER_VAL_MAX);
 1318              		.loc 1 258 0
 1319 0006 8025     		movs	r5, #128
 1320 0008 ED00     		lsls	r5, r5, #3
 1321 000a 0095     		str	r5, [sp]
 1322 000c 0023     		movs	r3, #0
 1323 000e C26A     		ldr	r2, [r0, #44]
 1324 0010 0021     		movs	r1, #0
 1325 0012 006B     		ldr	r0, [r0, #48]
 1326              	.LVL139:
 1327 0014 FFF7FEFF 		bl	lv_map
 1328              	.LVL140:
 259:..\..\..\arduinoLCD\test\Pain Drain\libraries\lvgl\src\misc/lv_anim.c **** 
 1329              		.loc 1 259 0
 1330 0018 0095     		str	r5, [sp]
 1331 001a EE23     		movs	r3, #238
 1332 001c 9B00     		lsls	r3, r3, #2
 1333 001e 3222     		movs	r2, #50
 1334 0020 0021     		movs	r1, #0
 1335 0022 FFF7FEFF 		bl	lv_bezier3
 1336              	.LVL141:
ARM GAS  C:\Users\haske\AppData\Local\Temp\cceAapTu.s 			page 36


 262:..\..\..\arduinoLCD\test\Pain Drain\libraries\lvgl\src\misc/lv_anim.c ****     new_value = new_value >> LV_BEZIER_VAL_SHIFT;
 1337              		.loc 1 262 0
 1338 0026 A36A     		ldr	r3, [r4, #40]
 1339 0028 226A     		ldr	r2, [r4, #32]
 1340 002a 9B1A     		subs	r3, r3, r2
 1341 002c 5843     		muls	r0, r3
 1342              	.LVL142:
 263:..\..\..\arduinoLCD\test\Pain Drain\libraries\lvgl\src\misc/lv_anim.c ****     new_value += a->start_value;
 1343              		.loc 1 263 0
 1344 002e 8012     		asrs	r0, r0, #10
 1345              	.LVL143:
 264:..\..\..\arduinoLCD\test\Pain Drain\libraries\lvgl\src\misc/lv_anim.c **** 
 1346              		.loc 1 264 0
 1347 0030 1018     		adds	r0, r2, r0
 1348              	.LVL144:
 267:..\..\..\arduinoLCD\test\Pain Drain\libraries\lvgl\src\misc/lv_anim.c **** 
 1349              		.loc 1 267 0
 1350 0032 03B0     		add	sp, sp, #12
 1351              		@ sp needed
 1352              	.LVL145:
 1353 0034 30BD     		pop	{r4, r5, pc}
 1354              		.cfi_endproc
 1355              	.LFE59:
 1356              		.size	lv_anim_path_ease_in_out, .-lv_anim_path_ease_in_out
 1357 0036 C046     		.section	.text.lv_anim_path_overshoot,"ax",%progbits
 1358              		.align	2
 1359              		.global	lv_anim_path_overshoot
 1360              		.code	16
 1361              		.thumb_func
 1362              		.type	lv_anim_path_overshoot, %function
 1363              	lv_anim_path_overshoot:
 1364              	.LFB60:
 270:..\..\..\arduinoLCD\test\Pain Drain\libraries\lvgl\src\misc/lv_anim.c ****     /*Calculate the current step*/
 1365              		.loc 1 270 0
 1366              		.cfi_startproc
 1367              		@ args = 0, pretend = 0, frame = 0
 1368              		@ frame_needed = 0, uses_anonymous_args = 0
 1369              	.LVL146:
 1370 0000 30B5     		push	{r4, r5, lr}
 1371              		.cfi_def_cfa_offset 12
 1372              		.cfi_offset 4, -12
 1373              		.cfi_offset 5, -8
 1374              		.cfi_offset 14, -4
 1375 0002 83B0     		sub	sp, sp, #12
 1376              		.cfi_def_cfa_offset 24
 1377 0004 0400     		movs	r4, r0
 272:..\..\..\arduinoLCD\test\Pain Drain\libraries\lvgl\src\misc/lv_anim.c ****     int32_t step = lv_bezier3(t, 0, 1000, 1300, LV_BEZIER_VAL_MAX);
 1378              		.loc 1 272 0
 1379 0006 8025     		movs	r5, #128
 1380 0008 ED00     		lsls	r5, r5, #3
 1381 000a 0095     		str	r5, [sp]
 1382 000c 0023     		movs	r3, #0
 1383 000e C26A     		ldr	r2, [r0, #44]
 1384 0010 0021     		movs	r1, #0
 1385 0012 006B     		ldr	r0, [r0, #48]
 1386              	.LVL147:
 1387 0014 FFF7FEFF 		bl	lv_map
ARM GAS  C:\Users\haske\AppData\Local\Temp\cceAapTu.s 			page 37


 1388              	.LVL148:
 273:..\..\..\arduinoLCD\test\Pain Drain\libraries\lvgl\src\misc/lv_anim.c **** 
 1389              		.loc 1 273 0
 1390 0018 0095     		str	r5, [sp]
 1391 001a 074B     		ldr	r3, .L95
 1392 001c FA22     		movs	r2, #250
 1393 001e 9200     		lsls	r2, r2, #2
 1394 0020 0021     		movs	r1, #0
 1395 0022 FFF7FEFF 		bl	lv_bezier3
 1396              	.LVL149:
 276:..\..\..\arduinoLCD\test\Pain Drain\libraries\lvgl\src\misc/lv_anim.c ****     new_value = new_value >> LV_BEZIER_VAL_SHIFT;
 1397              		.loc 1 276 0
 1398 0026 A36A     		ldr	r3, [r4, #40]
 1399 0028 226A     		ldr	r2, [r4, #32]
 1400 002a 9B1A     		subs	r3, r3, r2
 1401 002c 5843     		muls	r0, r3
 1402              	.LVL150:
 277:..\..\..\arduinoLCD\test\Pain Drain\libraries\lvgl\src\misc/lv_anim.c ****     new_value += a->start_value;
 1403              		.loc 1 277 0
 1404 002e 8012     		asrs	r0, r0, #10
 1405              	.LVL151:
 278:..\..\..\arduinoLCD\test\Pain Drain\libraries\lvgl\src\misc/lv_anim.c **** 
 1406              		.loc 1 278 0
 1407 0030 1018     		adds	r0, r2, r0
 1408              	.LVL152:
 281:..\..\..\arduinoLCD\test\Pain Drain\libraries\lvgl\src\misc/lv_anim.c **** 
 1409              		.loc 1 281 0
 1410 0032 03B0     		add	sp, sp, #12
 1411              		@ sp needed
 1412              	.LVL153:
 1413 0034 30BD     		pop	{r4, r5, pc}
 1414              	.L96:
 1415 0036 C046     		.align	2
 1416              	.L95:
 1417 0038 14050000 		.word	1300
 1418              		.cfi_endproc
 1419              	.LFE60:
 1420              		.size	lv_anim_path_overshoot, .-lv_anim_path_overshoot
 1421              		.global	__aeabi_idiv
 1422              		.section	.text.lv_anim_path_bounce,"ax",%progbits
 1423              		.align	2
 1424              		.global	lv_anim_path_bounce
 1425              		.code	16
 1426              		.thumb_func
 1427              		.type	lv_anim_path_bounce, %function
 1428              	lv_anim_path_bounce:
 1429              	.LFB61:
 284:..\..\..\arduinoLCD\test\Pain Drain\libraries\lvgl\src\misc/lv_anim.c ****     /*Calculate the current step*/
 1430              		.loc 1 284 0
 1431              		.cfi_startproc
 1432              		@ args = 0, pretend = 0, frame = 0
 1433              		@ frame_needed = 0, uses_anonymous_args = 0
 1434              	.LVL154:
 1435 0000 70B5     		push	{r4, r5, r6, lr}
 1436              		.cfi_def_cfa_offset 16
 1437              		.cfi_offset 4, -16
 1438              		.cfi_offset 5, -12
ARM GAS  C:\Users\haske\AppData\Local\Temp\cceAapTu.s 			page 38


 1439              		.cfi_offset 6, -8
 1440              		.cfi_offset 14, -4
 1441 0002 82B0     		sub	sp, sp, #8
 1442              		.cfi_def_cfa_offset 24
 1443 0004 0500     		movs	r5, r0
 286:..\..\..\arduinoLCD\test\Pain Drain\libraries\lvgl\src\misc/lv_anim.c ****     int32_t diff = (a->end_value - a->start_value);
 1444              		.loc 1 286 0
 1445 0006 8023     		movs	r3, #128
 1446 0008 DB00     		lsls	r3, r3, #3
 1447 000a 0093     		str	r3, [sp]
 1448 000c 0023     		movs	r3, #0
 1449 000e C26A     		ldr	r2, [r0, #44]
 1450 0010 0021     		movs	r1, #0
 1451 0012 006B     		ldr	r0, [r0, #48]
 1452              	.LVL155:
 1453 0014 FFF7FEFF 		bl	lv_map
 1454              	.LVL156:
 1455 0018 0400     		movs	r4, r0
 1456              	.LVL157:
 287:..\..\..\arduinoLCD\test\Pain Drain\libraries\lvgl\src\misc/lv_anim.c **** 
 1457              		.loc 1 287 0
 1458 001a AB6A     		ldr	r3, [r5, #40]
 1459 001c 2A6A     		ldr	r2, [r5, #32]
 1460 001e 9E1A     		subs	r6, r3, r2
 1461              	.LVL158:
 291:..\..\..\arduinoLCD\test\Pain Drain\libraries\lvgl\src\misc/lv_anim.c ****         /*Go down*/
 1462              		.loc 1 291 0
 1463 0020 9823     		movs	r3, #152
 1464 0022 FF33     		adds	r3, r3, #255
 1465 0024 9842     		cmp	r0, r3
 1466 0026 03DC     		bgt	.L98
 293:..\..\..\arduinoLCD\test\Pain Drain\libraries\lvgl\src\misc/lv_anim.c ****     }
 1467              		.loc 1 293 0
 1468 0028 2F4B     		ldr	r3, .L107
 1469 002a 5C43     		muls	r4, r3
 1470 002c A412     		asrs	r4, r4, #10
 1471              	.LVL159:
 1472 002e 41E0     		b	.L99
 1473              	.LVL160:
 1474              	.L98:
 295:..\..\..\arduinoLCD\test\Pain Drain\libraries\lvgl\src\misc/lv_anim.c ****         /*First bounce back*/
 1475              		.loc 1 295 0
 1476 0030 0200     		movs	r2, r0
 1477 0032 0300     		movs	r3, r0
 1478 0034 993B     		subs	r3, r3, #153
 1479 0036 FF3B     		subs	r3, r3, #255
 1480 0038 CD2B     		cmp	r3, #205
 1481 003a 0BD8     		bhi	.L100
 297:..\..\..\arduinoLCD\test\Pain Drain\libraries\lvgl\src\misc/lv_anim.c ****         t    = t * 5; /*to [0..1024] range*/
 1482              		.loc 1 297 0
 1483 003c 1C00     		movs	r4, r3
 1484              	.LVL161:
 298:..\..\..\arduinoLCD\test\Pain Drain\libraries\lvgl\src\misc/lv_anim.c ****         t    = LV_BEZIER_VAL_MAX - t;
 1485              		.loc 1 298 0
 1486 003e 9B00     		lsls	r3, r3, #2
 1487              	.LVL162:
 1488 0040 1C19     		adds	r4, r3, r4
ARM GAS  C:\Users\haske\AppData\Local\Temp\cceAapTu.s 			page 39


 1489              	.LVL163:
 299:..\..\..\arduinoLCD\test\Pain Drain\libraries\lvgl\src\misc/lv_anim.c ****         diff = diff / 20;
 1490              		.loc 1 299 0
 1491 0042 8023     		movs	r3, #128
 1492 0044 DB00     		lsls	r3, r3, #3
 1493 0046 1C1B     		subs	r4, r3, r4
 1494              	.LVL164:
 300:..\..\..\arduinoLCD\test\Pain Drain\libraries\lvgl\src\misc/lv_anim.c ****     }
 1495              		.loc 1 300 0
 1496 0048 1421     		movs	r1, #20
 1497 004a 3000     		movs	r0, r6
 1498 004c FFF7FEFF 		bl	__aeabi_idiv
 1499              	.LVL165:
 1500 0050 0600     		movs	r6, r0
 1501              	.LVL166:
 1502 0052 2FE0     		b	.L99
 1503              	.LVL167:
 1504              	.L100:
 302:..\..\..\arduinoLCD\test\Pain Drain\libraries\lvgl\src\misc/lv_anim.c ****         /*Fall back*/
 1505              		.loc 1 302 0
 1506 0054 254B     		ldr	r3, .L107+4
 1507 0056 C318     		adds	r3, r0, r3
 1508 0058 CC2B     		cmp	r3, #204
 1509 005a 0AD8     		bhi	.L101
 304:..\..\..\arduinoLCD\test\Pain Drain\libraries\lvgl\src\misc/lv_anim.c ****         t    = t * 5; /*to [0..1024] range*/
 1510              		.loc 1 304 0
 1511 005c 234B     		ldr	r3, .L107+4
 1512 005e 9C46     		mov	ip, r3
 1513 0060 6444     		add	r4, r4, ip
 1514              	.LVL168:
 305:..\..\..\arduinoLCD\test\Pain Drain\libraries\lvgl\src\misc/lv_anim.c ****         diff = diff / 20;
 1515              		.loc 1 305 0
 1516 0062 A300     		lsls	r3, r4, #2
 1517 0064 1C19     		adds	r4, r3, r4
 1518              	.LVL169:
 306:..\..\..\arduinoLCD\test\Pain Drain\libraries\lvgl\src\misc/lv_anim.c ****     }
 1519              		.loc 1 306 0
 1520 0066 1421     		movs	r1, #20
 1521 0068 3000     		movs	r0, r6
 1522 006a FFF7FEFF 		bl	__aeabi_idiv
 1523              	.LVL170:
 1524 006e 0600     		movs	r6, r0
 1525              	.LVL171:
 1526 0070 20E0     		b	.L99
 1527              	.LVL172:
 1528              	.L101:
 308:..\..\..\arduinoLCD\test\Pain Drain\libraries\lvgl\src\misc/lv_anim.c ****         /*Second bounce back*/
 1529              		.loc 1 308 0
 1530 0072 1F4B     		ldr	r3, .L107+8
 1531 0074 C318     		adds	r3, r0, r3
 1532 0076 652B     		cmp	r3, #101
 1533 0078 0ED8     		bhi	.L102
 310:..\..\..\arduinoLCD\test\Pain Drain\libraries\lvgl\src\misc/lv_anim.c ****         t    = t * 10; /*to [0..1024] range*/
 1534              		.loc 1 310 0
 1535 007a 1D4B     		ldr	r3, .L107+8
 1536 007c 9C46     		mov	ip, r3
 1537 007e 6444     		add	r4, r4, ip
ARM GAS  C:\Users\haske\AppData\Local\Temp\cceAapTu.s 			page 40


 1538              	.LVL173:
 311:..\..\..\arduinoLCD\test\Pain Drain\libraries\lvgl\src\misc/lv_anim.c ****         t    = LV_BEZIER_VAL_MAX - t;
 1539              		.loc 1 311 0
 1540 0080 A300     		lsls	r3, r4, #2
 1541 0082 1C19     		adds	r4, r3, r4
 1542              	.LVL174:
 1543 0084 6300     		lsls	r3, r4, #1
 1544              	.LVL175:
 312:..\..\..\arduinoLCD\test\Pain Drain\libraries\lvgl\src\misc/lv_anim.c ****         diff = diff / 40;
 1545              		.loc 1 312 0
 1546 0086 8024     		movs	r4, #128
 1547 0088 E400     		lsls	r4, r4, #3
 1548 008a E41A     		subs	r4, r4, r3
 1549              	.LVL176:
 313:..\..\..\arduinoLCD\test\Pain Drain\libraries\lvgl\src\misc/lv_anim.c ****     }
 1550              		.loc 1 313 0
 1551 008c 2821     		movs	r1, #40
 1552 008e 3000     		movs	r0, r6
 1553 0090 FFF7FEFF 		bl	__aeabi_idiv
 1554              	.LVL177:
 1555 0094 0600     		movs	r6, r0
 1556              	.LVL178:
 1557 0096 0DE0     		b	.L99
 1558              	.LVL179:
 1559              	.L102:
 315:..\..\..\arduinoLCD\test\Pain Drain\libraries\lvgl\src\misc/lv_anim.c ****         /*Fall back*/
 1560              		.loc 1 315 0
 1561 0098 164B     		ldr	r3, .L107+12
 1562 009a 9C46     		mov	ip, r3
 1563 009c 6244     		add	r2, r2, ip
 1564 009e 672A     		cmp	r2, #103
 1565 00a0 08D8     		bhi	.L99
 317:..\..\..\arduinoLCD\test\Pain Drain\libraries\lvgl\src\misc/lv_anim.c ****         t    = t * 10; /*to [0..1024] range*/
 1566              		.loc 1 317 0
 1567 00a2 6444     		add	r4, r4, ip
 1568              	.LVL180:
 318:..\..\..\arduinoLCD\test\Pain Drain\libraries\lvgl\src\misc/lv_anim.c ****         diff = diff / 40;
 1569              		.loc 1 318 0
 1570 00a4 A300     		lsls	r3, r4, #2
 1571 00a6 1B19     		adds	r3, r3, r4
 1572 00a8 5C00     		lsls	r4, r3, #1
 1573              	.LVL181:
 319:..\..\..\arduinoLCD\test\Pain Drain\libraries\lvgl\src\misc/lv_anim.c ****     }
 1574              		.loc 1 319 0
 1575 00aa 2821     		movs	r1, #40
 1576 00ac 3000     		movs	r0, r6
 1577 00ae FFF7FEFF 		bl	__aeabi_idiv
 1578              	.LVL182:
 1579 00b2 0600     		movs	r6, r0
 1580              	.LVL183:
 1581              	.L99:
 322:..\..\..\arduinoLCD\test\Pain Drain\libraries\lvgl\src\misc/lv_anim.c ****     if(t < 0) t = 0;
 1582              		.loc 1 322 0
 1583 00b4 8023     		movs	r3, #128
 1584 00b6 DB00     		lsls	r3, r3, #3
 1585 00b8 9C42     		cmp	r4, r3
 1586 00ba 00DD     		ble	.L103
ARM GAS  C:\Users\haske\AppData\Local\Temp\cceAapTu.s 			page 41


 1587 00bc 1C00     		movs	r4, r3
 1588              	.LVL184:
 1589              	.L103:
 323:..\..\..\arduinoLCD\test\Pain Drain\libraries\lvgl\src\misc/lv_anim.c ****     int32_t step = lv_bezier3(t, LV_BEZIER_VAL_MAX, 800, 500, 0);
 1590              		.loc 1 323 0
 1591 00be 002C     		cmp	r4, #0
 1592 00c0 00DA     		bge	.L104
 1593 00c2 0024     		movs	r4, #0
 1594              	.LVL185:
 1595              	.L104:
 324:..\..\..\arduinoLCD\test\Pain Drain\libraries\lvgl\src\misc/lv_anim.c **** 
 1596              		.loc 1 324 0
 1597 00c4 0023     		movs	r3, #0
 1598 00c6 0093     		str	r3, [sp]
 1599 00c8 F533     		adds	r3, r3, #245
 1600 00ca FF33     		adds	r3, r3, #255
 1601 00cc C822     		movs	r2, #200
 1602 00ce 9200     		lsls	r2, r2, #2
 1603 00d0 8021     		movs	r1, #128
 1604 00d2 C900     		lsls	r1, r1, #3
 1605 00d4 2000     		movs	r0, r4
 1606 00d6 FFF7FEFF 		bl	lv_bezier3
 1607              	.LVL186:
 327:..\..\..\arduinoLCD\test\Pain Drain\libraries\lvgl\src\misc/lv_anim.c ****     new_value = new_value >> LV_BEZIER_VAL_SHIFT;
 1608              		.loc 1 327 0
 1609 00da 7043     		muls	r0, r6
 1610              	.LVL187:
 328:..\..\..\arduinoLCD\test\Pain Drain\libraries\lvgl\src\misc/lv_anim.c ****     new_value = a->end_value - new_value;
 1611              		.loc 1 328 0
 1612 00dc 8012     		asrs	r0, r0, #10
 1613              	.LVL188:
 329:..\..\..\arduinoLCD\test\Pain Drain\libraries\lvgl\src\misc/lv_anim.c **** 
 1614              		.loc 1 329 0
 1615 00de AB6A     		ldr	r3, [r5, #40]
 1616 00e0 181A     		subs	r0, r3, r0
 1617              	.LVL189:
 332:..\..\..\arduinoLCD\test\Pain Drain\libraries\lvgl\src\misc/lv_anim.c **** 
 1618              		.loc 1 332 0
 1619 00e2 02B0     		add	sp, sp, #8
 1620              		@ sp needed
 1621              	.LVL190:
 1622              	.LVL191:
 1623              	.LVL192:
 1624 00e4 70BD     		pop	{r4, r5, r6, pc}
 1625              	.L108:
 1626 00e6 C046     		.align	2
 1627              	.L107:
 1628 00e8 C4090000 		.word	2500
 1629 00ec 9AFDFFFF 		.word	-614
 1630 00f0 CDFCFFFF 		.word	-819
 1631 00f4 67FCFFFF 		.word	-921
 1632              		.cfi_endproc
 1633              	.LFE61:
 1634              		.size	lv_anim_path_bounce, .-lv_anim_path_bounce
 1635              		.section	.text.lv_anim_path_step,"ax",%progbits
 1636              		.align	2
 1637              		.global	lv_anim_path_step
ARM GAS  C:\Users\haske\AppData\Local\Temp\cceAapTu.s 			page 42


 1638              		.code	16
 1639              		.thumb_func
 1640              		.type	lv_anim_path_step, %function
 1641              	lv_anim_path_step:
 1642              	.LFB62:
 335:..\..\..\arduinoLCD\test\Pain Drain\libraries\lvgl\src\misc/lv_anim.c ****     if(a->act_time >= a->time)
 1643              		.loc 1 335 0
 1644              		.cfi_startproc
 1645              		@ args = 0, pretend = 0, frame = 0
 1646              		@ frame_needed = 0, uses_anonymous_args = 0
 1647              		@ link register save eliminated.
 1648              	.LVL193:
 336:..\..\..\arduinoLCD\test\Pain Drain\libraries\lvgl\src\misc/lv_anim.c ****         return a->end_value;
 1649              		.loc 1 336 0
 1650 0000 036B     		ldr	r3, [r0, #48]
 1651 0002 C26A     		ldr	r2, [r0, #44]
 1652 0004 9342     		cmp	r3, r2
 1653 0006 01DB     		blt	.L110
 337:..\..\..\arduinoLCD\test\Pain Drain\libraries\lvgl\src\misc/lv_anim.c ****     else
 1654              		.loc 1 337 0
 1655 0008 806A     		ldr	r0, [r0, #40]
 1656              	.LVL194:
 1657 000a 00E0     		b	.L111
 1658              	.LVL195:
 1659              	.L110:
 339:..\..\..\arduinoLCD\test\Pain Drain\libraries\lvgl\src\misc/lv_anim.c **** }
 1660              		.loc 1 339 0
 1661 000c 006A     		ldr	r0, [r0, #32]
 1662              	.LVL196:
 1663              	.L111:
 340:..\..\..\arduinoLCD\test\Pain Drain\libraries\lvgl\src\misc/lv_anim.c **** 
 1664              		.loc 1 340 0
 1665              		@ sp needed
 1666 000e 7047     		bx	lr
 1667              		.cfi_endproc
 1668              	.LFE62:
 1669              		.size	lv_anim_path_step, .-lv_anim_path_step
 1670              		.bss
 1671              		.align	2
 1672              		.set	.LANCHOR0,. + 0
 1673              		.type	anim_list_changed, %object
 1674              		.size	anim_list_changed, 1
 1675              	anim_list_changed:
 1676 0000 00       		.space	1
 1677 0001 000000   		.space	3
 1678              		.type	_lv_anim_tmr, %object
 1679              		.size	_lv_anim_tmr, 4
 1680              	_lv_anim_tmr:
 1681 0004 00000000 		.space	4
 1682              		.type	last_timer_run, %object
 1683              		.size	last_timer_run, 4
 1684              	last_timer_run:
 1685 0008 00000000 		.space	4
 1686              		.type	anim_run_round, %object
 1687              		.size	anim_run_round, 1
 1688              	anim_run_round:
 1689 000c 00       		.space	1
ARM GAS  C:\Users\haske\AppData\Local\Temp\cceAapTu.s 			page 43


 1690              		.text
 1691              	.Letext0:
 1692              		.file 2 "c:\\program files (x86)\\cypress\\psoc creator\\4.4\\psoc creator\\import\\gnu\\arm\\5.4.
 1693              		.file 3 "c:\\program files (x86)\\cypress\\psoc creator\\4.4\\psoc creator\\import\\gnu\\arm\\5.4.
 1694              		.file 4 "..\\..\\..\\arduinoLCD\\test\\Pain Drain\\libraries\\lvgl\\src\\misc\\lv_anim.h"
 1695              		.file 5 "..\\..\\..\\arduinoLCD\\test\\Pain Drain\\libraries\\lvgl\\src\\misc\\lv_timer.h"
 1696              		.file 6 "..\\..\\..\\arduinoLCD\\test\\Pain Drain\\libraries\\lvgl\\src\\misc\\lv_ll.h"
 1697              		.file 7 "..\\..\\..\\arduinoLCD\\test\\Pain Drain\\libraries\\lvgl\\src\\misc\\lv_mem.h"
 1698              		.file 8 "..\\..\\..\\arduinoLCD\\test\\Pain Drain\\libraries\\lvgl\\src\\misc\\../hal/lv_hal_tick.
 1699              		.file 9 "..\\..\\..\\arduinoLCD\\test\\Pain Drain\\libraries\\lvgl\\src\\misc\\lv_math.h"
 1700              		.file 10 "..\\..\\..\\arduinoLCD\\test\\Pain Drain\\libraries\\lvgl\\src\\misc\\lv_gc.h"