ARM GAS  C:\Users\haske\AppData\Local\Temp\cc8C2ZcK.s 			page 1


   1              		.syntax unified
   2              		.cpu cortex-m0plus
   3              		.fpu softvfp
   4              		.eabi_attribute 20, 1
   5              		.eabi_attribute 21, 1
   6              		.eabi_attribute 23, 3
   7              		.eabi_attribute 24, 1
   8              		.eabi_attribute 25, 1
   9              		.eabi_attribute 26, 1
  10              		.eabi_attribute 30, 1
  11              		.eabi_attribute 34, 0
  12              		.eabi_attribute 18, 4
  13              		.thumb
  14              		.syntax unified
  15              		.file	"lv_area.c"
  16              		.text
  17              	.Ltext0:
  18              		.cfi_sections	.debug_frame
  19              		.section	.text.lv_point_within_circle,"ax",%progbits
  20              		.align	2
  21              		.code	16
  22              		.thumb_func
  23              		.type	lv_point_within_circle, %function
  24              	lv_point_within_circle:
  25              	.LFB21:
  26              		.file 1 "..\\..\\..\\arduinoLCD\\test\\Pain Drain\\libraries\\lvgl\\src\\misc\\lv_area.c"
   1:..\..\..\arduinoLCD\test\Pain Drain\libraries\lvgl\src\misc/lv_area.c **** /**
   2:..\..\..\arduinoLCD\test\Pain Drain\libraries\lvgl\src\misc/lv_area.c ****  * @file lv_area.c
   3:..\..\..\arduinoLCD\test\Pain Drain\libraries\lvgl\src\misc/lv_area.c ****  *
   4:..\..\..\arduinoLCD\test\Pain Drain\libraries\lvgl\src\misc/lv_area.c ****  */
   5:..\..\..\arduinoLCD\test\Pain Drain\libraries\lvgl\src\misc/lv_area.c **** 
   6:..\..\..\arduinoLCD\test\Pain Drain\libraries\lvgl\src\misc/lv_area.c **** /*********************
   7:..\..\..\arduinoLCD\test\Pain Drain\libraries\lvgl\src\misc/lv_area.c ****  *      INCLUDES
   8:..\..\..\arduinoLCD\test\Pain Drain\libraries\lvgl\src\misc/lv_area.c ****  *********************/
   9:..\..\..\arduinoLCD\test\Pain Drain\libraries\lvgl\src\misc/lv_area.c **** #include "../lv_conf_internal.h"
  10:..\..\..\arduinoLCD\test\Pain Drain\libraries\lvgl\src\misc/lv_area.c **** 
  11:..\..\..\arduinoLCD\test\Pain Drain\libraries\lvgl\src\misc/lv_area.c **** #include "lv_area.h"
  12:..\..\..\arduinoLCD\test\Pain Drain\libraries\lvgl\src\misc/lv_area.c **** #include "lv_math.h"
  13:..\..\..\arduinoLCD\test\Pain Drain\libraries\lvgl\src\misc/lv_area.c **** 
  14:..\..\..\arduinoLCD\test\Pain Drain\libraries\lvgl\src\misc/lv_area.c **** /*********************
  15:..\..\..\arduinoLCD\test\Pain Drain\libraries\lvgl\src\misc/lv_area.c ****  *      DEFINES
  16:..\..\..\arduinoLCD\test\Pain Drain\libraries\lvgl\src\misc/lv_area.c ****  *********************/
  17:..\..\..\arduinoLCD\test\Pain Drain\libraries\lvgl\src\misc/lv_area.c **** 
  18:..\..\..\arduinoLCD\test\Pain Drain\libraries\lvgl\src\misc/lv_area.c **** /**********************
  19:..\..\..\arduinoLCD\test\Pain Drain\libraries\lvgl\src\misc/lv_area.c ****  *      TYPEDEFS
  20:..\..\..\arduinoLCD\test\Pain Drain\libraries\lvgl\src\misc/lv_area.c ****  **********************/
  21:..\..\..\arduinoLCD\test\Pain Drain\libraries\lvgl\src\misc/lv_area.c **** 
  22:..\..\..\arduinoLCD\test\Pain Drain\libraries\lvgl\src\misc/lv_area.c **** /**********************
  23:..\..\..\arduinoLCD\test\Pain Drain\libraries\lvgl\src\misc/lv_area.c ****  *  STATIC PROTOTYPES
  24:..\..\..\arduinoLCD\test\Pain Drain\libraries\lvgl\src\misc/lv_area.c ****  **********************/
  25:..\..\..\arduinoLCD\test\Pain Drain\libraries\lvgl\src\misc/lv_area.c **** 
  26:..\..\..\arduinoLCD\test\Pain Drain\libraries\lvgl\src\misc/lv_area.c **** static bool lv_point_within_circle(const lv_area_t * area, const lv_point_t * p);
  27:..\..\..\arduinoLCD\test\Pain Drain\libraries\lvgl\src\misc/lv_area.c **** 
  28:..\..\..\arduinoLCD\test\Pain Drain\libraries\lvgl\src\misc/lv_area.c **** /**********************
  29:..\..\..\arduinoLCD\test\Pain Drain\libraries\lvgl\src\misc/lv_area.c ****  *  STATIC VARIABLES
  30:..\..\..\arduinoLCD\test\Pain Drain\libraries\lvgl\src\misc/lv_area.c ****  **********************/
  31:..\..\..\arduinoLCD\test\Pain Drain\libraries\lvgl\src\misc/lv_area.c **** 
ARM GAS  C:\Users\haske\AppData\Local\Temp\cc8C2ZcK.s 			page 2


  32:..\..\..\arduinoLCD\test\Pain Drain\libraries\lvgl\src\misc/lv_area.c **** /**********************
  33:..\..\..\arduinoLCD\test\Pain Drain\libraries\lvgl\src\misc/lv_area.c ****  *      MACROS
  34:..\..\..\arduinoLCD\test\Pain Drain\libraries\lvgl\src\misc/lv_area.c ****  **********************/
  35:..\..\..\arduinoLCD\test\Pain Drain\libraries\lvgl\src\misc/lv_area.c **** 
  36:..\..\..\arduinoLCD\test\Pain Drain\libraries\lvgl\src\misc/lv_area.c **** /**********************
  37:..\..\..\arduinoLCD\test\Pain Drain\libraries\lvgl\src\misc/lv_area.c ****  *   GLOBAL FUNCTIONS
  38:..\..\..\arduinoLCD\test\Pain Drain\libraries\lvgl\src\misc/lv_area.c ****  **********************/
  39:..\..\..\arduinoLCD\test\Pain Drain\libraries\lvgl\src\misc/lv_area.c **** 
  40:..\..\..\arduinoLCD\test\Pain Drain\libraries\lvgl\src\misc/lv_area.c **** /**
  41:..\..\..\arduinoLCD\test\Pain Drain\libraries\lvgl\src\misc/lv_area.c ****  * Initialize an area
  42:..\..\..\arduinoLCD\test\Pain Drain\libraries\lvgl\src\misc/lv_area.c ****  * @param area_p pointer to an area
  43:..\..\..\arduinoLCD\test\Pain Drain\libraries\lvgl\src\misc/lv_area.c ****  * @param x1 left coordinate of the area
  44:..\..\..\arduinoLCD\test\Pain Drain\libraries\lvgl\src\misc/lv_area.c ****  * @param y1 top coordinate of the area
  45:..\..\..\arduinoLCD\test\Pain Drain\libraries\lvgl\src\misc/lv_area.c ****  * @param x2 right coordinate of the area
  46:..\..\..\arduinoLCD\test\Pain Drain\libraries\lvgl\src\misc/lv_area.c ****  * @param y2 bottom coordinate of the area
  47:..\..\..\arduinoLCD\test\Pain Drain\libraries\lvgl\src\misc/lv_area.c ****  */
  48:..\..\..\arduinoLCD\test\Pain Drain\libraries\lvgl\src\misc/lv_area.c **** void lv_area_set(lv_area_t * area_p, lv_coord_t x1, lv_coord_t y1, lv_coord_t x2, lv_coord_t y2)
  49:..\..\..\arduinoLCD\test\Pain Drain\libraries\lvgl\src\misc/lv_area.c **** {
  50:..\..\..\arduinoLCD\test\Pain Drain\libraries\lvgl\src\misc/lv_area.c ****     area_p->x1 = x1;
  51:..\..\..\arduinoLCD\test\Pain Drain\libraries\lvgl\src\misc/lv_area.c ****     area_p->y1 = y1;
  52:..\..\..\arduinoLCD\test\Pain Drain\libraries\lvgl\src\misc/lv_area.c ****     area_p->x2 = x2;
  53:..\..\..\arduinoLCD\test\Pain Drain\libraries\lvgl\src\misc/lv_area.c ****     area_p->y2 = y2;
  54:..\..\..\arduinoLCD\test\Pain Drain\libraries\lvgl\src\misc/lv_area.c **** }
  55:..\..\..\arduinoLCD\test\Pain Drain\libraries\lvgl\src\misc/lv_area.c **** 
  56:..\..\..\arduinoLCD\test\Pain Drain\libraries\lvgl\src\misc/lv_area.c **** /**
  57:..\..\..\arduinoLCD\test\Pain Drain\libraries\lvgl\src\misc/lv_area.c ****  * Set the width of an area
  58:..\..\..\arduinoLCD\test\Pain Drain\libraries\lvgl\src\misc/lv_area.c ****  * @param area_p pointer to an area
  59:..\..\..\arduinoLCD\test\Pain Drain\libraries\lvgl\src\misc/lv_area.c ****  * @param w the new width of the area (w == 1 makes x1 == x2)
  60:..\..\..\arduinoLCD\test\Pain Drain\libraries\lvgl\src\misc/lv_area.c ****  */
  61:..\..\..\arduinoLCD\test\Pain Drain\libraries\lvgl\src\misc/lv_area.c **** void lv_area_set_width(lv_area_t * area_p, lv_coord_t w)
  62:..\..\..\arduinoLCD\test\Pain Drain\libraries\lvgl\src\misc/lv_area.c **** {
  63:..\..\..\arduinoLCD\test\Pain Drain\libraries\lvgl\src\misc/lv_area.c ****     area_p->x2 = area_p->x1 + w - 1;
  64:..\..\..\arduinoLCD\test\Pain Drain\libraries\lvgl\src\misc/lv_area.c **** }
  65:..\..\..\arduinoLCD\test\Pain Drain\libraries\lvgl\src\misc/lv_area.c **** 
  66:..\..\..\arduinoLCD\test\Pain Drain\libraries\lvgl\src\misc/lv_area.c **** /**
  67:..\..\..\arduinoLCD\test\Pain Drain\libraries\lvgl\src\misc/lv_area.c ****  * Set the height of an area
  68:..\..\..\arduinoLCD\test\Pain Drain\libraries\lvgl\src\misc/lv_area.c ****  * @param area_p pointer to an area
  69:..\..\..\arduinoLCD\test\Pain Drain\libraries\lvgl\src\misc/lv_area.c ****  * @param h the new height of the area (h == 1 makes y1 == y2)
  70:..\..\..\arduinoLCD\test\Pain Drain\libraries\lvgl\src\misc/lv_area.c ****  */
  71:..\..\..\arduinoLCD\test\Pain Drain\libraries\lvgl\src\misc/lv_area.c **** void lv_area_set_height(lv_area_t * area_p, lv_coord_t h)
  72:..\..\..\arduinoLCD\test\Pain Drain\libraries\lvgl\src\misc/lv_area.c **** {
  73:..\..\..\arduinoLCD\test\Pain Drain\libraries\lvgl\src\misc/lv_area.c ****     area_p->y2 = area_p->y1 + h - 1;
  74:..\..\..\arduinoLCD\test\Pain Drain\libraries\lvgl\src\misc/lv_area.c **** }
  75:..\..\..\arduinoLCD\test\Pain Drain\libraries\lvgl\src\misc/lv_area.c **** 
  76:..\..\..\arduinoLCD\test\Pain Drain\libraries\lvgl\src\misc/lv_area.c **** /**
  77:..\..\..\arduinoLCD\test\Pain Drain\libraries\lvgl\src\misc/lv_area.c ****  * Set the position of an area (width and height will be kept)
  78:..\..\..\arduinoLCD\test\Pain Drain\libraries\lvgl\src\misc/lv_area.c ****  * @param area_p pointer to an area
  79:..\..\..\arduinoLCD\test\Pain Drain\libraries\lvgl\src\misc/lv_area.c ****  * @param x the new x coordinate of the area
  80:..\..\..\arduinoLCD\test\Pain Drain\libraries\lvgl\src\misc/lv_area.c ****  * @param y the new y coordinate of the area
  81:..\..\..\arduinoLCD\test\Pain Drain\libraries\lvgl\src\misc/lv_area.c ****  */
  82:..\..\..\arduinoLCD\test\Pain Drain\libraries\lvgl\src\misc/lv_area.c **** void _lv_area_set_pos(lv_area_t * area_p, lv_coord_t x, lv_coord_t y)
  83:..\..\..\arduinoLCD\test\Pain Drain\libraries\lvgl\src\misc/lv_area.c **** {
  84:..\..\..\arduinoLCD\test\Pain Drain\libraries\lvgl\src\misc/lv_area.c ****     lv_coord_t w = lv_area_get_width(area_p);
  85:..\..\..\arduinoLCD\test\Pain Drain\libraries\lvgl\src\misc/lv_area.c ****     lv_coord_t h = lv_area_get_height(area_p);
  86:..\..\..\arduinoLCD\test\Pain Drain\libraries\lvgl\src\misc/lv_area.c ****     area_p->x1   = x;
  87:..\..\..\arduinoLCD\test\Pain Drain\libraries\lvgl\src\misc/lv_area.c ****     area_p->y1   = y;
  88:..\..\..\arduinoLCD\test\Pain Drain\libraries\lvgl\src\misc/lv_area.c ****     lv_area_set_width(area_p, w);
ARM GAS  C:\Users\haske\AppData\Local\Temp\cc8C2ZcK.s 			page 3


  89:..\..\..\arduinoLCD\test\Pain Drain\libraries\lvgl\src\misc/lv_area.c ****     lv_area_set_height(area_p, h);
  90:..\..\..\arduinoLCD\test\Pain Drain\libraries\lvgl\src\misc/lv_area.c **** }
  91:..\..\..\arduinoLCD\test\Pain Drain\libraries\lvgl\src\misc/lv_area.c **** 
  92:..\..\..\arduinoLCD\test\Pain Drain\libraries\lvgl\src\misc/lv_area.c **** /**
  93:..\..\..\arduinoLCD\test\Pain Drain\libraries\lvgl\src\misc/lv_area.c ****  * Return with area of an area (x * y)
  94:..\..\..\arduinoLCD\test\Pain Drain\libraries\lvgl\src\misc/lv_area.c ****  * @param area_p pointer to an area
  95:..\..\..\arduinoLCD\test\Pain Drain\libraries\lvgl\src\misc/lv_area.c ****  * @return size of area
  96:..\..\..\arduinoLCD\test\Pain Drain\libraries\lvgl\src\misc/lv_area.c ****  */
  97:..\..\..\arduinoLCD\test\Pain Drain\libraries\lvgl\src\misc/lv_area.c **** uint32_t lv_area_get_size(const lv_area_t * area_p)
  98:..\..\..\arduinoLCD\test\Pain Drain\libraries\lvgl\src\misc/lv_area.c **** {
  99:..\..\..\arduinoLCD\test\Pain Drain\libraries\lvgl\src\misc/lv_area.c ****     uint32_t size;
 100:..\..\..\arduinoLCD\test\Pain Drain\libraries\lvgl\src\misc/lv_area.c **** 
 101:..\..\..\arduinoLCD\test\Pain Drain\libraries\lvgl\src\misc/lv_area.c ****     size = (uint32_t)(area_p->x2 - area_p->x1 + 1) * (area_p->y2 - area_p->y1 + 1);
 102:..\..\..\arduinoLCD\test\Pain Drain\libraries\lvgl\src\misc/lv_area.c **** 
 103:..\..\..\arduinoLCD\test\Pain Drain\libraries\lvgl\src\misc/lv_area.c ****     return size;
 104:..\..\..\arduinoLCD\test\Pain Drain\libraries\lvgl\src\misc/lv_area.c **** }
 105:..\..\..\arduinoLCD\test\Pain Drain\libraries\lvgl\src\misc/lv_area.c **** 
 106:..\..\..\arduinoLCD\test\Pain Drain\libraries\lvgl\src\misc/lv_area.c **** void lv_area_increase(lv_area_t * area, lv_coord_t w_extra, lv_coord_t h_extra)
 107:..\..\..\arduinoLCD\test\Pain Drain\libraries\lvgl\src\misc/lv_area.c **** {
 108:..\..\..\arduinoLCD\test\Pain Drain\libraries\lvgl\src\misc/lv_area.c ****     area->x1 -= w_extra;
 109:..\..\..\arduinoLCD\test\Pain Drain\libraries\lvgl\src\misc/lv_area.c ****     area->x2 += w_extra;
 110:..\..\..\arduinoLCD\test\Pain Drain\libraries\lvgl\src\misc/lv_area.c ****     area->y1 -= h_extra;
 111:..\..\..\arduinoLCD\test\Pain Drain\libraries\lvgl\src\misc/lv_area.c ****     area->y2 += h_extra;
 112:..\..\..\arduinoLCD\test\Pain Drain\libraries\lvgl\src\misc/lv_area.c **** }
 113:..\..\..\arduinoLCD\test\Pain Drain\libraries\lvgl\src\misc/lv_area.c **** 
 114:..\..\..\arduinoLCD\test\Pain Drain\libraries\lvgl\src\misc/lv_area.c **** void lv_area_move(lv_area_t * area, lv_coord_t x_ofs, lv_coord_t y_ofs)
 115:..\..\..\arduinoLCD\test\Pain Drain\libraries\lvgl\src\misc/lv_area.c **** {
 116:..\..\..\arduinoLCD\test\Pain Drain\libraries\lvgl\src\misc/lv_area.c ****     area->x1 += x_ofs;
 117:..\..\..\arduinoLCD\test\Pain Drain\libraries\lvgl\src\misc/lv_area.c ****     area->x2 += x_ofs;
 118:..\..\..\arduinoLCD\test\Pain Drain\libraries\lvgl\src\misc/lv_area.c ****     area->y1 += y_ofs;
 119:..\..\..\arduinoLCD\test\Pain Drain\libraries\lvgl\src\misc/lv_area.c ****     area->y2 += y_ofs;
 120:..\..\..\arduinoLCD\test\Pain Drain\libraries\lvgl\src\misc/lv_area.c **** }
 121:..\..\..\arduinoLCD\test\Pain Drain\libraries\lvgl\src\misc/lv_area.c **** 
 122:..\..\..\arduinoLCD\test\Pain Drain\libraries\lvgl\src\misc/lv_area.c **** /**
 123:..\..\..\arduinoLCD\test\Pain Drain\libraries\lvgl\src\misc/lv_area.c ****  * Get the common parts of two areas
 124:..\..\..\arduinoLCD\test\Pain Drain\libraries\lvgl\src\misc/lv_area.c ****  * @param res_p pointer to an area, the result will be stored here
 125:..\..\..\arduinoLCD\test\Pain Drain\libraries\lvgl\src\misc/lv_area.c ****  * @param a1_p pointer to the first area
 126:..\..\..\arduinoLCD\test\Pain Drain\libraries\lvgl\src\misc/lv_area.c ****  * @param a2_p pointer to the second area
 127:..\..\..\arduinoLCD\test\Pain Drain\libraries\lvgl\src\misc/lv_area.c ****  * @return false: the two area has NO common parts, res_p is invalid
 128:..\..\..\arduinoLCD\test\Pain Drain\libraries\lvgl\src\misc/lv_area.c ****  */
 129:..\..\..\arduinoLCD\test\Pain Drain\libraries\lvgl\src\misc/lv_area.c **** bool _lv_area_intersect(lv_area_t * res_p, const lv_area_t * a1_p, const lv_area_t * a2_p)
 130:..\..\..\arduinoLCD\test\Pain Drain\libraries\lvgl\src\misc/lv_area.c **** {
 131:..\..\..\arduinoLCD\test\Pain Drain\libraries\lvgl\src\misc/lv_area.c ****     /*Get the smaller area from 'a1_p' and 'a2_p'*/
 132:..\..\..\arduinoLCD\test\Pain Drain\libraries\lvgl\src\misc/lv_area.c ****     res_p->x1 = LV_MAX(a1_p->x1, a2_p->x1);
 133:..\..\..\arduinoLCD\test\Pain Drain\libraries\lvgl\src\misc/lv_area.c ****     res_p->y1 = LV_MAX(a1_p->y1, a2_p->y1);
 134:..\..\..\arduinoLCD\test\Pain Drain\libraries\lvgl\src\misc/lv_area.c ****     res_p->x2 = LV_MIN(a1_p->x2, a2_p->x2);
 135:..\..\..\arduinoLCD\test\Pain Drain\libraries\lvgl\src\misc/lv_area.c ****     res_p->y2 = LV_MIN(a1_p->y2, a2_p->y2);
 136:..\..\..\arduinoLCD\test\Pain Drain\libraries\lvgl\src\misc/lv_area.c **** 
 137:..\..\..\arduinoLCD\test\Pain Drain\libraries\lvgl\src\misc/lv_area.c ****     /*If x1 or y1 greater than x2 or y2 then the areas union is empty*/
 138:..\..\..\arduinoLCD\test\Pain Drain\libraries\lvgl\src\misc/lv_area.c ****     bool union_ok = true;
 139:..\..\..\arduinoLCD\test\Pain Drain\libraries\lvgl\src\misc/lv_area.c ****     if((res_p->x1 > res_p->x2) || (res_p->y1 > res_p->y2)) {
 140:..\..\..\arduinoLCD\test\Pain Drain\libraries\lvgl\src\misc/lv_area.c ****         union_ok = false;
 141:..\..\..\arduinoLCD\test\Pain Drain\libraries\lvgl\src\misc/lv_area.c ****     }
 142:..\..\..\arduinoLCD\test\Pain Drain\libraries\lvgl\src\misc/lv_area.c **** 
 143:..\..\..\arduinoLCD\test\Pain Drain\libraries\lvgl\src\misc/lv_area.c ****     return union_ok;
 144:..\..\..\arduinoLCD\test\Pain Drain\libraries\lvgl\src\misc/lv_area.c **** }
 145:..\..\..\arduinoLCD\test\Pain Drain\libraries\lvgl\src\misc/lv_area.c **** 
ARM GAS  C:\Users\haske\AppData\Local\Temp\cc8C2ZcK.s 			page 4


 146:..\..\..\arduinoLCD\test\Pain Drain\libraries\lvgl\src\misc/lv_area.c **** /**
 147:..\..\..\arduinoLCD\test\Pain Drain\libraries\lvgl\src\misc/lv_area.c ****  * Join two areas into a third which involves the other two
 148:..\..\..\arduinoLCD\test\Pain Drain\libraries\lvgl\src\misc/lv_area.c ****  * @param res_p pointer to an area, the result will be stored here
 149:..\..\..\arduinoLCD\test\Pain Drain\libraries\lvgl\src\misc/lv_area.c ****  * @param a1_p pointer to the first area
 150:..\..\..\arduinoLCD\test\Pain Drain\libraries\lvgl\src\misc/lv_area.c ****  * @param a2_p pointer to the second area
 151:..\..\..\arduinoLCD\test\Pain Drain\libraries\lvgl\src\misc/lv_area.c ****  */
 152:..\..\..\arduinoLCD\test\Pain Drain\libraries\lvgl\src\misc/lv_area.c **** void _lv_area_join(lv_area_t * a_res_p, const lv_area_t * a1_p, const lv_area_t * a2_p)
 153:..\..\..\arduinoLCD\test\Pain Drain\libraries\lvgl\src\misc/lv_area.c **** {
 154:..\..\..\arduinoLCD\test\Pain Drain\libraries\lvgl\src\misc/lv_area.c ****     a_res_p->x1 = LV_MIN(a1_p->x1, a2_p->x1);
 155:..\..\..\arduinoLCD\test\Pain Drain\libraries\lvgl\src\misc/lv_area.c ****     a_res_p->y1 = LV_MIN(a1_p->y1, a2_p->y1);
 156:..\..\..\arduinoLCD\test\Pain Drain\libraries\lvgl\src\misc/lv_area.c ****     a_res_p->x2 = LV_MAX(a1_p->x2, a2_p->x2);
 157:..\..\..\arduinoLCD\test\Pain Drain\libraries\lvgl\src\misc/lv_area.c ****     a_res_p->y2 = LV_MAX(a1_p->y2, a2_p->y2);
 158:..\..\..\arduinoLCD\test\Pain Drain\libraries\lvgl\src\misc/lv_area.c **** }
 159:..\..\..\arduinoLCD\test\Pain Drain\libraries\lvgl\src\misc/lv_area.c **** 
 160:..\..\..\arduinoLCD\test\Pain Drain\libraries\lvgl\src\misc/lv_area.c **** /**
 161:..\..\..\arduinoLCD\test\Pain Drain\libraries\lvgl\src\misc/lv_area.c ****  * Check if a point is on an area
 162:..\..\..\arduinoLCD\test\Pain Drain\libraries\lvgl\src\misc/lv_area.c ****  * @param a_p pointer to an area
 163:..\..\..\arduinoLCD\test\Pain Drain\libraries\lvgl\src\misc/lv_area.c ****  * @param p_p pointer to a point
 164:..\..\..\arduinoLCD\test\Pain Drain\libraries\lvgl\src\misc/lv_area.c ****  * @param radius radius of area (e.g. for rounded rectangle)
 165:..\..\..\arduinoLCD\test\Pain Drain\libraries\lvgl\src\misc/lv_area.c ****  * @return false:the point is out of the area
 166:..\..\..\arduinoLCD\test\Pain Drain\libraries\lvgl\src\misc/lv_area.c ****  */
 167:..\..\..\arduinoLCD\test\Pain Drain\libraries\lvgl\src\misc/lv_area.c **** bool _lv_area_is_point_on(const lv_area_t * a_p, const lv_point_t * p_p, lv_coord_t radius)
 168:..\..\..\arduinoLCD\test\Pain Drain\libraries\lvgl\src\misc/lv_area.c **** {
 169:..\..\..\arduinoLCD\test\Pain Drain\libraries\lvgl\src\misc/lv_area.c ****     /*First check the basic area*/
 170:..\..\..\arduinoLCD\test\Pain Drain\libraries\lvgl\src\misc/lv_area.c ****     bool is_on_rect = false;
 171:..\..\..\arduinoLCD\test\Pain Drain\libraries\lvgl\src\misc/lv_area.c ****     if((p_p->x >= a_p->x1 && p_p->x <= a_p->x2) && ((p_p->y >= a_p->y1 && p_p->y <= a_p->y2))) {
 172:..\..\..\arduinoLCD\test\Pain Drain\libraries\lvgl\src\misc/lv_area.c ****         is_on_rect = true;
 173:..\..\..\arduinoLCD\test\Pain Drain\libraries\lvgl\src\misc/lv_area.c ****     }
 174:..\..\..\arduinoLCD\test\Pain Drain\libraries\lvgl\src\misc/lv_area.c ****     if(!is_on_rect)
 175:..\..\..\arduinoLCD\test\Pain Drain\libraries\lvgl\src\misc/lv_area.c ****         return false;
 176:..\..\..\arduinoLCD\test\Pain Drain\libraries\lvgl\src\misc/lv_area.c ****     /*Now handle potential rounded rectangles*/
 177:..\..\..\arduinoLCD\test\Pain Drain\libraries\lvgl\src\misc/lv_area.c ****     if(radius <= 0) {
 178:..\..\..\arduinoLCD\test\Pain Drain\libraries\lvgl\src\misc/lv_area.c ****         /*No radius, it is within the rectangle*/
 179:..\..\..\arduinoLCD\test\Pain Drain\libraries\lvgl\src\misc/lv_area.c ****         return true;
 180:..\..\..\arduinoLCD\test\Pain Drain\libraries\lvgl\src\misc/lv_area.c ****     }
 181:..\..\..\arduinoLCD\test\Pain Drain\libraries\lvgl\src\misc/lv_area.c ****     lv_coord_t w = lv_area_get_width(a_p) / 2;
 182:..\..\..\arduinoLCD\test\Pain Drain\libraries\lvgl\src\misc/lv_area.c ****     lv_coord_t h = lv_area_get_height(a_p) / 2;
 183:..\..\..\arduinoLCD\test\Pain Drain\libraries\lvgl\src\misc/lv_area.c ****     lv_coord_t max_radius = LV_MIN(w, h);
 184:..\..\..\arduinoLCD\test\Pain Drain\libraries\lvgl\src\misc/lv_area.c ****     if(radius > max_radius)
 185:..\..\..\arduinoLCD\test\Pain Drain\libraries\lvgl\src\misc/lv_area.c ****         radius = max_radius;
 186:..\..\..\arduinoLCD\test\Pain Drain\libraries\lvgl\src\misc/lv_area.c **** 
 187:..\..\..\arduinoLCD\test\Pain Drain\libraries\lvgl\src\misc/lv_area.c ****     /*Check if it's in one of the corners*/
 188:..\..\..\arduinoLCD\test\Pain Drain\libraries\lvgl\src\misc/lv_area.c ****     lv_area_t corner_area;
 189:..\..\..\arduinoLCD\test\Pain Drain\libraries\lvgl\src\misc/lv_area.c ****     /*Top left*/
 190:..\..\..\arduinoLCD\test\Pain Drain\libraries\lvgl\src\misc/lv_area.c ****     corner_area.x1 = a_p->x1;
 191:..\..\..\arduinoLCD\test\Pain Drain\libraries\lvgl\src\misc/lv_area.c ****     corner_area.x2 = a_p->x1 + radius;
 192:..\..\..\arduinoLCD\test\Pain Drain\libraries\lvgl\src\misc/lv_area.c ****     corner_area.y1 = a_p->y1;
 193:..\..\..\arduinoLCD\test\Pain Drain\libraries\lvgl\src\misc/lv_area.c ****     corner_area.y2 = a_p->y1 + radius;
 194:..\..\..\arduinoLCD\test\Pain Drain\libraries\lvgl\src\misc/lv_area.c ****     if(_lv_area_is_point_on(&corner_area, p_p, 0)) {
 195:..\..\..\arduinoLCD\test\Pain Drain\libraries\lvgl\src\misc/lv_area.c ****         corner_area.x2 += radius;
 196:..\..\..\arduinoLCD\test\Pain Drain\libraries\lvgl\src\misc/lv_area.c ****         corner_area.y2 += radius;
 197:..\..\..\arduinoLCD\test\Pain Drain\libraries\lvgl\src\misc/lv_area.c ****         return lv_point_within_circle(&corner_area, p_p);
 198:..\..\..\arduinoLCD\test\Pain Drain\libraries\lvgl\src\misc/lv_area.c ****     }
 199:..\..\..\arduinoLCD\test\Pain Drain\libraries\lvgl\src\misc/lv_area.c ****     /*Bottom left*/
 200:..\..\..\arduinoLCD\test\Pain Drain\libraries\lvgl\src\misc/lv_area.c ****     corner_area.y1 = a_p->y2 - radius;
 201:..\..\..\arduinoLCD\test\Pain Drain\libraries\lvgl\src\misc/lv_area.c ****     corner_area.y2 = a_p->y2;
 202:..\..\..\arduinoLCD\test\Pain Drain\libraries\lvgl\src\misc/lv_area.c ****     if(_lv_area_is_point_on(&corner_area, p_p, 0)) {
ARM GAS  C:\Users\haske\AppData\Local\Temp\cc8C2ZcK.s 			page 5


 203:..\..\..\arduinoLCD\test\Pain Drain\libraries\lvgl\src\misc/lv_area.c ****         corner_area.x2 += radius;
 204:..\..\..\arduinoLCD\test\Pain Drain\libraries\lvgl\src\misc/lv_area.c ****         corner_area.y1 -= radius;
 205:..\..\..\arduinoLCD\test\Pain Drain\libraries\lvgl\src\misc/lv_area.c ****         return lv_point_within_circle(&corner_area, p_p);
 206:..\..\..\arduinoLCD\test\Pain Drain\libraries\lvgl\src\misc/lv_area.c ****     }
 207:..\..\..\arduinoLCD\test\Pain Drain\libraries\lvgl\src\misc/lv_area.c ****     /*Bottom right*/
 208:..\..\..\arduinoLCD\test\Pain Drain\libraries\lvgl\src\misc/lv_area.c ****     corner_area.x1 = a_p->x2 - radius;
 209:..\..\..\arduinoLCD\test\Pain Drain\libraries\lvgl\src\misc/lv_area.c ****     corner_area.x2 = a_p->x2;
 210:..\..\..\arduinoLCD\test\Pain Drain\libraries\lvgl\src\misc/lv_area.c ****     if(_lv_area_is_point_on(&corner_area, p_p, 0)) {
 211:..\..\..\arduinoLCD\test\Pain Drain\libraries\lvgl\src\misc/lv_area.c ****         corner_area.x1 -= radius;
 212:..\..\..\arduinoLCD\test\Pain Drain\libraries\lvgl\src\misc/lv_area.c ****         corner_area.y1 -= radius;
 213:..\..\..\arduinoLCD\test\Pain Drain\libraries\lvgl\src\misc/lv_area.c ****         return lv_point_within_circle(&corner_area, p_p);
 214:..\..\..\arduinoLCD\test\Pain Drain\libraries\lvgl\src\misc/lv_area.c ****     }
 215:..\..\..\arduinoLCD\test\Pain Drain\libraries\lvgl\src\misc/lv_area.c ****     /*Top right*/
 216:..\..\..\arduinoLCD\test\Pain Drain\libraries\lvgl\src\misc/lv_area.c ****     corner_area.y1 = a_p->y1;
 217:..\..\..\arduinoLCD\test\Pain Drain\libraries\lvgl\src\misc/lv_area.c ****     corner_area.y2 = a_p->y1 + radius;
 218:..\..\..\arduinoLCD\test\Pain Drain\libraries\lvgl\src\misc/lv_area.c ****     if(_lv_area_is_point_on(&corner_area, p_p, 0)) {
 219:..\..\..\arduinoLCD\test\Pain Drain\libraries\lvgl\src\misc/lv_area.c ****         corner_area.x1 -= radius;
 220:..\..\..\arduinoLCD\test\Pain Drain\libraries\lvgl\src\misc/lv_area.c ****         corner_area.y2 += radius;
 221:..\..\..\arduinoLCD\test\Pain Drain\libraries\lvgl\src\misc/lv_area.c ****         return lv_point_within_circle(&corner_area, p_p);
 222:..\..\..\arduinoLCD\test\Pain Drain\libraries\lvgl\src\misc/lv_area.c ****     }
 223:..\..\..\arduinoLCD\test\Pain Drain\libraries\lvgl\src\misc/lv_area.c ****     /*Not within corners*/
 224:..\..\..\arduinoLCD\test\Pain Drain\libraries\lvgl\src\misc/lv_area.c ****     return true;
 225:..\..\..\arduinoLCD\test\Pain Drain\libraries\lvgl\src\misc/lv_area.c **** }
 226:..\..\..\arduinoLCD\test\Pain Drain\libraries\lvgl\src\misc/lv_area.c **** 
 227:..\..\..\arduinoLCD\test\Pain Drain\libraries\lvgl\src\misc/lv_area.c **** /**
 228:..\..\..\arduinoLCD\test\Pain Drain\libraries\lvgl\src\misc/lv_area.c ****  * Check if two area has common parts
 229:..\..\..\arduinoLCD\test\Pain Drain\libraries\lvgl\src\misc/lv_area.c ****  * @param a1_p pointer to an area.
 230:..\..\..\arduinoLCD\test\Pain Drain\libraries\lvgl\src\misc/lv_area.c ****  * @param a2_p pointer to an other area
 231:..\..\..\arduinoLCD\test\Pain Drain\libraries\lvgl\src\misc/lv_area.c ****  * @return false: a1_p and a2_p has no common parts
 232:..\..\..\arduinoLCD\test\Pain Drain\libraries\lvgl\src\misc/lv_area.c ****  */
 233:..\..\..\arduinoLCD\test\Pain Drain\libraries\lvgl\src\misc/lv_area.c **** bool _lv_area_is_on(const lv_area_t * a1_p, const lv_area_t * a2_p)
 234:..\..\..\arduinoLCD\test\Pain Drain\libraries\lvgl\src\misc/lv_area.c **** {
 235:..\..\..\arduinoLCD\test\Pain Drain\libraries\lvgl\src\misc/lv_area.c ****     if((a1_p->x1 <= a2_p->x2) && (a1_p->x2 >= a2_p->x1) && (a1_p->y1 <= a2_p->y2) && (a1_p->y2 >= a
 236:..\..\..\arduinoLCD\test\Pain Drain\libraries\lvgl\src\misc/lv_area.c ****         return true;
 237:..\..\..\arduinoLCD\test\Pain Drain\libraries\lvgl\src\misc/lv_area.c ****     }
 238:..\..\..\arduinoLCD\test\Pain Drain\libraries\lvgl\src\misc/lv_area.c ****     else {
 239:..\..\..\arduinoLCD\test\Pain Drain\libraries\lvgl\src\misc/lv_area.c ****         return false;
 240:..\..\..\arduinoLCD\test\Pain Drain\libraries\lvgl\src\misc/lv_area.c ****     }
 241:..\..\..\arduinoLCD\test\Pain Drain\libraries\lvgl\src\misc/lv_area.c **** }
 242:..\..\..\arduinoLCD\test\Pain Drain\libraries\lvgl\src\misc/lv_area.c **** 
 243:..\..\..\arduinoLCD\test\Pain Drain\libraries\lvgl\src\misc/lv_area.c **** /**
 244:..\..\..\arduinoLCD\test\Pain Drain\libraries\lvgl\src\misc/lv_area.c ****  * Check if an area is fully on an other
 245:..\..\..\arduinoLCD\test\Pain Drain\libraries\lvgl\src\misc/lv_area.c ****  * @param ain_p pointer to an area which could be in 'aholder_p'
 246:..\..\..\arduinoLCD\test\Pain Drain\libraries\lvgl\src\misc/lv_area.c ****  * @param aholder_p pointer to an area which could involve 'ain_p'
 247:..\..\..\arduinoLCD\test\Pain Drain\libraries\lvgl\src\misc/lv_area.c ****  * @param radius radius of `aholder_p` (e.g. for rounded rectangle)
 248:..\..\..\arduinoLCD\test\Pain Drain\libraries\lvgl\src\misc/lv_area.c ****  * @return true: `ain_p` is fully inside `aholder_p`
 249:..\..\..\arduinoLCD\test\Pain Drain\libraries\lvgl\src\misc/lv_area.c ****  */
 250:..\..\..\arduinoLCD\test\Pain Drain\libraries\lvgl\src\misc/lv_area.c **** bool _lv_area_is_in(const lv_area_t * ain_p, const lv_area_t * aholder_p, lv_coord_t radius)
 251:..\..\..\arduinoLCD\test\Pain Drain\libraries\lvgl\src\misc/lv_area.c **** {
 252:..\..\..\arduinoLCD\test\Pain Drain\libraries\lvgl\src\misc/lv_area.c ****     bool is_in = false;
 253:..\..\..\arduinoLCD\test\Pain Drain\libraries\lvgl\src\misc/lv_area.c **** 
 254:..\..\..\arduinoLCD\test\Pain Drain\libraries\lvgl\src\misc/lv_area.c ****     if(ain_p->x1 >= aholder_p->x1 && ain_p->y1 >= aholder_p->y1 && ain_p->x2 <= aholder_p->x2 &&
 255:..\..\..\arduinoLCD\test\Pain Drain\libraries\lvgl\src\misc/lv_area.c ****        ain_p->y2 <= aholder_p->y2) {
 256:..\..\..\arduinoLCD\test\Pain Drain\libraries\lvgl\src\misc/lv_area.c ****         is_in = true;
 257:..\..\..\arduinoLCD\test\Pain Drain\libraries\lvgl\src\misc/lv_area.c ****     }
 258:..\..\..\arduinoLCD\test\Pain Drain\libraries\lvgl\src\misc/lv_area.c **** 
 259:..\..\..\arduinoLCD\test\Pain Drain\libraries\lvgl\src\misc/lv_area.c ****     if(!is_in) return false;
ARM GAS  C:\Users\haske\AppData\Local\Temp\cc8C2ZcK.s 			page 6


 260:..\..\..\arduinoLCD\test\Pain Drain\libraries\lvgl\src\misc/lv_area.c ****     if(radius == 0) return true;
 261:..\..\..\arduinoLCD\test\Pain Drain\libraries\lvgl\src\misc/lv_area.c **** 
 262:..\..\..\arduinoLCD\test\Pain Drain\libraries\lvgl\src\misc/lv_area.c ****     /*Check if the corner points are inside the radius or not*/
 263:..\..\..\arduinoLCD\test\Pain Drain\libraries\lvgl\src\misc/lv_area.c ****     lv_point_t p;
 264:..\..\..\arduinoLCD\test\Pain Drain\libraries\lvgl\src\misc/lv_area.c **** 
 265:..\..\..\arduinoLCD\test\Pain Drain\libraries\lvgl\src\misc/lv_area.c ****     p.x = ain_p->x1;
 266:..\..\..\arduinoLCD\test\Pain Drain\libraries\lvgl\src\misc/lv_area.c ****     p.y = ain_p->y1;
 267:..\..\..\arduinoLCD\test\Pain Drain\libraries\lvgl\src\misc/lv_area.c ****     if(_lv_area_is_point_on(aholder_p, &p, radius) == false) return false;
 268:..\..\..\arduinoLCD\test\Pain Drain\libraries\lvgl\src\misc/lv_area.c **** 
 269:..\..\..\arduinoLCD\test\Pain Drain\libraries\lvgl\src\misc/lv_area.c ****     p.x = ain_p->x2;
 270:..\..\..\arduinoLCD\test\Pain Drain\libraries\lvgl\src\misc/lv_area.c ****     p.y = ain_p->y1;
 271:..\..\..\arduinoLCD\test\Pain Drain\libraries\lvgl\src\misc/lv_area.c ****     if(_lv_area_is_point_on(aholder_p, &p, radius) == false) return false;
 272:..\..\..\arduinoLCD\test\Pain Drain\libraries\lvgl\src\misc/lv_area.c **** 
 273:..\..\..\arduinoLCD\test\Pain Drain\libraries\lvgl\src\misc/lv_area.c ****     p.x = ain_p->x1;
 274:..\..\..\arduinoLCD\test\Pain Drain\libraries\lvgl\src\misc/lv_area.c ****     p.y = ain_p->y2;
 275:..\..\..\arduinoLCD\test\Pain Drain\libraries\lvgl\src\misc/lv_area.c ****     if(_lv_area_is_point_on(aholder_p, &p, radius) == false) return false;
 276:..\..\..\arduinoLCD\test\Pain Drain\libraries\lvgl\src\misc/lv_area.c **** 
 277:..\..\..\arduinoLCD\test\Pain Drain\libraries\lvgl\src\misc/lv_area.c ****     p.x = ain_p->x2;
 278:..\..\..\arduinoLCD\test\Pain Drain\libraries\lvgl\src\misc/lv_area.c ****     p.y = ain_p->y2;
 279:..\..\..\arduinoLCD\test\Pain Drain\libraries\lvgl\src\misc/lv_area.c ****     if(_lv_area_is_point_on(aholder_p, &p, radius) == false) return false;
 280:..\..\..\arduinoLCD\test\Pain Drain\libraries\lvgl\src\misc/lv_area.c **** 
 281:..\..\..\arduinoLCD\test\Pain Drain\libraries\lvgl\src\misc/lv_area.c ****     return true;
 282:..\..\..\arduinoLCD\test\Pain Drain\libraries\lvgl\src\misc/lv_area.c **** }
 283:..\..\..\arduinoLCD\test\Pain Drain\libraries\lvgl\src\misc/lv_area.c **** 
 284:..\..\..\arduinoLCD\test\Pain Drain\libraries\lvgl\src\misc/lv_area.c **** /**
 285:..\..\..\arduinoLCD\test\Pain Drain\libraries\lvgl\src\misc/lv_area.c ****  * Check if an area is fully out of an other
 286:..\..\..\arduinoLCD\test\Pain Drain\libraries\lvgl\src\misc/lv_area.c ****  * @param aout_p pointer to an area which could be in 'aholder_p'
 287:..\..\..\arduinoLCD\test\Pain Drain\libraries\lvgl\src\misc/lv_area.c ****  * @param aholder_p pointer to an area which could involve 'ain_p'
 288:..\..\..\arduinoLCD\test\Pain Drain\libraries\lvgl\src\misc/lv_area.c ****  * @param radius radius of `aholder_p` (e.g. for rounded rectangle)
 289:..\..\..\arduinoLCD\test\Pain Drain\libraries\lvgl\src\misc/lv_area.c ****  * @return true: `aout_p` is fully outside `aholder_p`
 290:..\..\..\arduinoLCD\test\Pain Drain\libraries\lvgl\src\misc/lv_area.c ****  */
 291:..\..\..\arduinoLCD\test\Pain Drain\libraries\lvgl\src\misc/lv_area.c **** bool _lv_area_is_out(const lv_area_t * aout_p, const lv_area_t * aholder_p, lv_coord_t radius)
 292:..\..\..\arduinoLCD\test\Pain Drain\libraries\lvgl\src\misc/lv_area.c **** {
 293:..\..\..\arduinoLCD\test\Pain Drain\libraries\lvgl\src\misc/lv_area.c ****     if(aout_p->x2 < aholder_p->x1 || aout_p->y2 < aholder_p->y1 || aout_p->x1 > aholder_p->x2 ||
 294:..\..\..\arduinoLCD\test\Pain Drain\libraries\lvgl\src\misc/lv_area.c ****        aout_p->y1 > aholder_p->y2) {
 295:..\..\..\arduinoLCD\test\Pain Drain\libraries\lvgl\src\misc/lv_area.c ****         return true;
 296:..\..\..\arduinoLCD\test\Pain Drain\libraries\lvgl\src\misc/lv_area.c ****     }
 297:..\..\..\arduinoLCD\test\Pain Drain\libraries\lvgl\src\misc/lv_area.c **** 
 298:..\..\..\arduinoLCD\test\Pain Drain\libraries\lvgl\src\misc/lv_area.c ****     if(radius == 0) return false;
 299:..\..\..\arduinoLCD\test\Pain Drain\libraries\lvgl\src\misc/lv_area.c **** 
 300:..\..\..\arduinoLCD\test\Pain Drain\libraries\lvgl\src\misc/lv_area.c ****     /*Check if the corner points are outside the radius or not*/
 301:..\..\..\arduinoLCD\test\Pain Drain\libraries\lvgl\src\misc/lv_area.c ****     lv_point_t p;
 302:..\..\..\arduinoLCD\test\Pain Drain\libraries\lvgl\src\misc/lv_area.c **** 
 303:..\..\..\arduinoLCD\test\Pain Drain\libraries\lvgl\src\misc/lv_area.c ****     p.x = aout_p->x1;
 304:..\..\..\arduinoLCD\test\Pain Drain\libraries\lvgl\src\misc/lv_area.c ****     p.y = aout_p->y1;
 305:..\..\..\arduinoLCD\test\Pain Drain\libraries\lvgl\src\misc/lv_area.c ****     if(_lv_area_is_point_on(aholder_p, &p, radius)) return false;
 306:..\..\..\arduinoLCD\test\Pain Drain\libraries\lvgl\src\misc/lv_area.c **** 
 307:..\..\..\arduinoLCD\test\Pain Drain\libraries\lvgl\src\misc/lv_area.c ****     p.x = aout_p->x2;
 308:..\..\..\arduinoLCD\test\Pain Drain\libraries\lvgl\src\misc/lv_area.c ****     p.y = aout_p->y1;
 309:..\..\..\arduinoLCD\test\Pain Drain\libraries\lvgl\src\misc/lv_area.c ****     if(_lv_area_is_point_on(aholder_p, &p, radius)) return false;
 310:..\..\..\arduinoLCD\test\Pain Drain\libraries\lvgl\src\misc/lv_area.c **** 
 311:..\..\..\arduinoLCD\test\Pain Drain\libraries\lvgl\src\misc/lv_area.c ****     p.x = aout_p->x1;
 312:..\..\..\arduinoLCD\test\Pain Drain\libraries\lvgl\src\misc/lv_area.c ****     p.y = aout_p->y2;
 313:..\..\..\arduinoLCD\test\Pain Drain\libraries\lvgl\src\misc/lv_area.c ****     if(_lv_area_is_point_on(aholder_p, &p, radius)) return false;
 314:..\..\..\arduinoLCD\test\Pain Drain\libraries\lvgl\src\misc/lv_area.c **** 
 315:..\..\..\arduinoLCD\test\Pain Drain\libraries\lvgl\src\misc/lv_area.c ****     p.x = aout_p->x2;
 316:..\..\..\arduinoLCD\test\Pain Drain\libraries\lvgl\src\misc/lv_area.c ****     p.y = aout_p->y2;
ARM GAS  C:\Users\haske\AppData\Local\Temp\cc8C2ZcK.s 			page 7


 317:..\..\..\arduinoLCD\test\Pain Drain\libraries\lvgl\src\misc/lv_area.c ****     if(_lv_area_is_point_on(aholder_p, &p, radius)) return false;
 318:..\..\..\arduinoLCD\test\Pain Drain\libraries\lvgl\src\misc/lv_area.c **** 
 319:..\..\..\arduinoLCD\test\Pain Drain\libraries\lvgl\src\misc/lv_area.c ****     return true;
 320:..\..\..\arduinoLCD\test\Pain Drain\libraries\lvgl\src\misc/lv_area.c **** }
 321:..\..\..\arduinoLCD\test\Pain Drain\libraries\lvgl\src\misc/lv_area.c **** 
 322:..\..\..\arduinoLCD\test\Pain Drain\libraries\lvgl\src\misc/lv_area.c **** bool _lv_area_is_equal(const lv_area_t * a, const lv_area_t * b)
 323:..\..\..\arduinoLCD\test\Pain Drain\libraries\lvgl\src\misc/lv_area.c **** {
 324:..\..\..\arduinoLCD\test\Pain Drain\libraries\lvgl\src\misc/lv_area.c ****     return a->x1 == b->x1 && a->x2 == b->x2 && a->y1 == b->y1 && a->y2 == b->y2;
 325:..\..\..\arduinoLCD\test\Pain Drain\libraries\lvgl\src\misc/lv_area.c **** }
 326:..\..\..\arduinoLCD\test\Pain Drain\libraries\lvgl\src\misc/lv_area.c **** 
 327:..\..\..\arduinoLCD\test\Pain Drain\libraries\lvgl\src\misc/lv_area.c **** /**
 328:..\..\..\arduinoLCD\test\Pain Drain\libraries\lvgl\src\misc/lv_area.c ****  * Align an area to an other
 329:..\..\..\arduinoLCD\test\Pain Drain\libraries\lvgl\src\misc/lv_area.c ****  * @param base an are where the other will be aligned
 330:..\..\..\arduinoLCD\test\Pain Drain\libraries\lvgl\src\misc/lv_area.c ****  * @param to_align the area to align
 331:..\..\..\arduinoLCD\test\Pain Drain\libraries\lvgl\src\misc/lv_area.c ****  * @param align `LV_ALIGN_...`
 332:..\..\..\arduinoLCD\test\Pain Drain\libraries\lvgl\src\misc/lv_area.c ****  * @param res x/y coordinates where `to_align` align area should be placed
 333:..\..\..\arduinoLCD\test\Pain Drain\libraries\lvgl\src\misc/lv_area.c ****  */
 334:..\..\..\arduinoLCD\test\Pain Drain\libraries\lvgl\src\misc/lv_area.c **** void lv_area_align(const lv_area_t * base, lv_area_t * to_align, lv_align_t align, lv_coord_t ofs_x
 335:..\..\..\arduinoLCD\test\Pain Drain\libraries\lvgl\src\misc/lv_area.c **** {
 336:..\..\..\arduinoLCD\test\Pain Drain\libraries\lvgl\src\misc/lv_area.c **** 
 337:..\..\..\arduinoLCD\test\Pain Drain\libraries\lvgl\src\misc/lv_area.c ****     lv_coord_t x;
 338:..\..\..\arduinoLCD\test\Pain Drain\libraries\lvgl\src\misc/lv_area.c ****     lv_coord_t y;
 339:..\..\..\arduinoLCD\test\Pain Drain\libraries\lvgl\src\misc/lv_area.c ****     switch(align) {
 340:..\..\..\arduinoLCD\test\Pain Drain\libraries\lvgl\src\misc/lv_area.c ****         case LV_ALIGN_CENTER:
 341:..\..\..\arduinoLCD\test\Pain Drain\libraries\lvgl\src\misc/lv_area.c ****             x = lv_area_get_width(base) / 2 - lv_area_get_width(to_align) / 2;
 342:..\..\..\arduinoLCD\test\Pain Drain\libraries\lvgl\src\misc/lv_area.c ****             y = lv_area_get_height(base) / 2 - lv_area_get_height(to_align) / 2;
 343:..\..\..\arduinoLCD\test\Pain Drain\libraries\lvgl\src\misc/lv_area.c ****             break;
 344:..\..\..\arduinoLCD\test\Pain Drain\libraries\lvgl\src\misc/lv_area.c **** 
 345:..\..\..\arduinoLCD\test\Pain Drain\libraries\lvgl\src\misc/lv_area.c ****         case LV_ALIGN_TOP_LEFT:
 346:..\..\..\arduinoLCD\test\Pain Drain\libraries\lvgl\src\misc/lv_area.c ****             x = 0;
 347:..\..\..\arduinoLCD\test\Pain Drain\libraries\lvgl\src\misc/lv_area.c ****             y = 0;
 348:..\..\..\arduinoLCD\test\Pain Drain\libraries\lvgl\src\misc/lv_area.c ****             break;
 349:..\..\..\arduinoLCD\test\Pain Drain\libraries\lvgl\src\misc/lv_area.c ****         case LV_ALIGN_TOP_MID:
 350:..\..\..\arduinoLCD\test\Pain Drain\libraries\lvgl\src\misc/lv_area.c ****             x = lv_area_get_width(base) / 2 - lv_area_get_width(to_align) / 2;
 351:..\..\..\arduinoLCD\test\Pain Drain\libraries\lvgl\src\misc/lv_area.c ****             y = 0;
 352:..\..\..\arduinoLCD\test\Pain Drain\libraries\lvgl\src\misc/lv_area.c ****             break;
 353:..\..\..\arduinoLCD\test\Pain Drain\libraries\lvgl\src\misc/lv_area.c **** 
 354:..\..\..\arduinoLCD\test\Pain Drain\libraries\lvgl\src\misc/lv_area.c ****         case LV_ALIGN_TOP_RIGHT:
 355:..\..\..\arduinoLCD\test\Pain Drain\libraries\lvgl\src\misc/lv_area.c ****             x = lv_area_get_width(base) - lv_area_get_width(to_align);
 356:..\..\..\arduinoLCD\test\Pain Drain\libraries\lvgl\src\misc/lv_area.c ****             y = 0;
 357:..\..\..\arduinoLCD\test\Pain Drain\libraries\lvgl\src\misc/lv_area.c ****             break;
 358:..\..\..\arduinoLCD\test\Pain Drain\libraries\lvgl\src\misc/lv_area.c **** 
 359:..\..\..\arduinoLCD\test\Pain Drain\libraries\lvgl\src\misc/lv_area.c ****         case LV_ALIGN_BOTTOM_LEFT:
 360:..\..\..\arduinoLCD\test\Pain Drain\libraries\lvgl\src\misc/lv_area.c ****             x = 0;
 361:..\..\..\arduinoLCD\test\Pain Drain\libraries\lvgl\src\misc/lv_area.c ****             y = lv_area_get_height(base) - lv_area_get_height(to_align);
 362:..\..\..\arduinoLCD\test\Pain Drain\libraries\lvgl\src\misc/lv_area.c ****             break;
 363:..\..\..\arduinoLCD\test\Pain Drain\libraries\lvgl\src\misc/lv_area.c ****         case LV_ALIGN_BOTTOM_MID:
 364:..\..\..\arduinoLCD\test\Pain Drain\libraries\lvgl\src\misc/lv_area.c ****             x = lv_area_get_width(base) / 2 - lv_area_get_width(to_align) / 2;
 365:..\..\..\arduinoLCD\test\Pain Drain\libraries\lvgl\src\misc/lv_area.c ****             y = lv_area_get_height(base) - lv_area_get_height(to_align);
 366:..\..\..\arduinoLCD\test\Pain Drain\libraries\lvgl\src\misc/lv_area.c ****             break;
 367:..\..\..\arduinoLCD\test\Pain Drain\libraries\lvgl\src\misc/lv_area.c **** 
 368:..\..\..\arduinoLCD\test\Pain Drain\libraries\lvgl\src\misc/lv_area.c ****         case LV_ALIGN_BOTTOM_RIGHT:
 369:..\..\..\arduinoLCD\test\Pain Drain\libraries\lvgl\src\misc/lv_area.c ****             x = lv_area_get_width(base) - lv_area_get_width(to_align);
 370:..\..\..\arduinoLCD\test\Pain Drain\libraries\lvgl\src\misc/lv_area.c ****             y = lv_area_get_height(base) - lv_area_get_height(to_align);
 371:..\..\..\arduinoLCD\test\Pain Drain\libraries\lvgl\src\misc/lv_area.c ****             break;
 372:..\..\..\arduinoLCD\test\Pain Drain\libraries\lvgl\src\misc/lv_area.c **** 
 373:..\..\..\arduinoLCD\test\Pain Drain\libraries\lvgl\src\misc/lv_area.c ****         case LV_ALIGN_LEFT_MID:
ARM GAS  C:\Users\haske\AppData\Local\Temp\cc8C2ZcK.s 			page 8


 374:..\..\..\arduinoLCD\test\Pain Drain\libraries\lvgl\src\misc/lv_area.c ****             x = 0;
 375:..\..\..\arduinoLCD\test\Pain Drain\libraries\lvgl\src\misc/lv_area.c ****             y = lv_area_get_height(base) / 2 - lv_area_get_height(to_align) / 2;
 376:..\..\..\arduinoLCD\test\Pain Drain\libraries\lvgl\src\misc/lv_area.c ****             break;
 377:..\..\..\arduinoLCD\test\Pain Drain\libraries\lvgl\src\misc/lv_area.c **** 
 378:..\..\..\arduinoLCD\test\Pain Drain\libraries\lvgl\src\misc/lv_area.c ****         case LV_ALIGN_RIGHT_MID:
 379:..\..\..\arduinoLCD\test\Pain Drain\libraries\lvgl\src\misc/lv_area.c ****             x = lv_area_get_width(base) - lv_area_get_width(to_align);
 380:..\..\..\arduinoLCD\test\Pain Drain\libraries\lvgl\src\misc/lv_area.c ****             y = lv_area_get_height(base) / 2 - lv_area_get_height(to_align) / 2;
 381:..\..\..\arduinoLCD\test\Pain Drain\libraries\lvgl\src\misc/lv_area.c ****             break;
 382:..\..\..\arduinoLCD\test\Pain Drain\libraries\lvgl\src\misc/lv_area.c **** 
 383:..\..\..\arduinoLCD\test\Pain Drain\libraries\lvgl\src\misc/lv_area.c ****         case LV_ALIGN_OUT_TOP_LEFT:
 384:..\..\..\arduinoLCD\test\Pain Drain\libraries\lvgl\src\misc/lv_area.c ****             x = 0;
 385:..\..\..\arduinoLCD\test\Pain Drain\libraries\lvgl\src\misc/lv_area.c ****             y = -lv_area_get_height(to_align);
 386:..\..\..\arduinoLCD\test\Pain Drain\libraries\lvgl\src\misc/lv_area.c ****             break;
 387:..\..\..\arduinoLCD\test\Pain Drain\libraries\lvgl\src\misc/lv_area.c **** 
 388:..\..\..\arduinoLCD\test\Pain Drain\libraries\lvgl\src\misc/lv_area.c ****         case LV_ALIGN_OUT_TOP_MID:
 389:..\..\..\arduinoLCD\test\Pain Drain\libraries\lvgl\src\misc/lv_area.c ****             x = lv_area_get_width(base) / 2 - lv_area_get_width(to_align) / 2;
 390:..\..\..\arduinoLCD\test\Pain Drain\libraries\lvgl\src\misc/lv_area.c ****             y = -lv_area_get_height(to_align);
 391:..\..\..\arduinoLCD\test\Pain Drain\libraries\lvgl\src\misc/lv_area.c ****             break;
 392:..\..\..\arduinoLCD\test\Pain Drain\libraries\lvgl\src\misc/lv_area.c **** 
 393:..\..\..\arduinoLCD\test\Pain Drain\libraries\lvgl\src\misc/lv_area.c ****         case LV_ALIGN_OUT_TOP_RIGHT:
 394:..\..\..\arduinoLCD\test\Pain Drain\libraries\lvgl\src\misc/lv_area.c ****             x = lv_area_get_width(base) - lv_area_get_width(to_align);
 395:..\..\..\arduinoLCD\test\Pain Drain\libraries\lvgl\src\misc/lv_area.c ****             y = -lv_area_get_height(to_align);
 396:..\..\..\arduinoLCD\test\Pain Drain\libraries\lvgl\src\misc/lv_area.c ****             break;
 397:..\..\..\arduinoLCD\test\Pain Drain\libraries\lvgl\src\misc/lv_area.c **** 
 398:..\..\..\arduinoLCD\test\Pain Drain\libraries\lvgl\src\misc/lv_area.c ****         case LV_ALIGN_OUT_BOTTOM_LEFT:
 399:..\..\..\arduinoLCD\test\Pain Drain\libraries\lvgl\src\misc/lv_area.c ****             x = 0;
 400:..\..\..\arduinoLCD\test\Pain Drain\libraries\lvgl\src\misc/lv_area.c ****             y = lv_area_get_height(base);
 401:..\..\..\arduinoLCD\test\Pain Drain\libraries\lvgl\src\misc/lv_area.c ****             break;
 402:..\..\..\arduinoLCD\test\Pain Drain\libraries\lvgl\src\misc/lv_area.c **** 
 403:..\..\..\arduinoLCD\test\Pain Drain\libraries\lvgl\src\misc/lv_area.c ****         case LV_ALIGN_OUT_BOTTOM_MID:
 404:..\..\..\arduinoLCD\test\Pain Drain\libraries\lvgl\src\misc/lv_area.c ****             x = lv_area_get_width(base) / 2 - lv_area_get_width(to_align) / 2;
 405:..\..\..\arduinoLCD\test\Pain Drain\libraries\lvgl\src\misc/lv_area.c ****             y = lv_area_get_height(base);
 406:..\..\..\arduinoLCD\test\Pain Drain\libraries\lvgl\src\misc/lv_area.c ****             break;
 407:..\..\..\arduinoLCD\test\Pain Drain\libraries\lvgl\src\misc/lv_area.c **** 
 408:..\..\..\arduinoLCD\test\Pain Drain\libraries\lvgl\src\misc/lv_area.c ****         case LV_ALIGN_OUT_BOTTOM_RIGHT:
 409:..\..\..\arduinoLCD\test\Pain Drain\libraries\lvgl\src\misc/lv_area.c ****             x = lv_area_get_width(base) - lv_area_get_width(to_align);
 410:..\..\..\arduinoLCD\test\Pain Drain\libraries\lvgl\src\misc/lv_area.c ****             y = lv_area_get_height(base);
 411:..\..\..\arduinoLCD\test\Pain Drain\libraries\lvgl\src\misc/lv_area.c ****             break;
 412:..\..\..\arduinoLCD\test\Pain Drain\libraries\lvgl\src\misc/lv_area.c **** 
 413:..\..\..\arduinoLCD\test\Pain Drain\libraries\lvgl\src\misc/lv_area.c ****         case LV_ALIGN_OUT_LEFT_TOP:
 414:..\..\..\arduinoLCD\test\Pain Drain\libraries\lvgl\src\misc/lv_area.c ****             x = -lv_area_get_width(to_align);
 415:..\..\..\arduinoLCD\test\Pain Drain\libraries\lvgl\src\misc/lv_area.c ****             y = 0;
 416:..\..\..\arduinoLCD\test\Pain Drain\libraries\lvgl\src\misc/lv_area.c ****             break;
 417:..\..\..\arduinoLCD\test\Pain Drain\libraries\lvgl\src\misc/lv_area.c **** 
 418:..\..\..\arduinoLCD\test\Pain Drain\libraries\lvgl\src\misc/lv_area.c ****         case LV_ALIGN_OUT_LEFT_MID:
 419:..\..\..\arduinoLCD\test\Pain Drain\libraries\lvgl\src\misc/lv_area.c ****             x = -lv_area_get_width(to_align);
 420:..\..\..\arduinoLCD\test\Pain Drain\libraries\lvgl\src\misc/lv_area.c ****             y = lv_area_get_height(base) / 2 - lv_area_get_height(to_align) / 2;
 421:..\..\..\arduinoLCD\test\Pain Drain\libraries\lvgl\src\misc/lv_area.c ****             break;
 422:..\..\..\arduinoLCD\test\Pain Drain\libraries\lvgl\src\misc/lv_area.c **** 
 423:..\..\..\arduinoLCD\test\Pain Drain\libraries\lvgl\src\misc/lv_area.c ****         case LV_ALIGN_OUT_LEFT_BOTTOM:
 424:..\..\..\arduinoLCD\test\Pain Drain\libraries\lvgl\src\misc/lv_area.c ****             x = -lv_area_get_width(to_align);
 425:..\..\..\arduinoLCD\test\Pain Drain\libraries\lvgl\src\misc/lv_area.c ****             y = lv_area_get_height(base) - lv_area_get_height(to_align);
 426:..\..\..\arduinoLCD\test\Pain Drain\libraries\lvgl\src\misc/lv_area.c ****             break;
 427:..\..\..\arduinoLCD\test\Pain Drain\libraries\lvgl\src\misc/lv_area.c **** 
 428:..\..\..\arduinoLCD\test\Pain Drain\libraries\lvgl\src\misc/lv_area.c ****         case LV_ALIGN_OUT_RIGHT_TOP:
 429:..\..\..\arduinoLCD\test\Pain Drain\libraries\lvgl\src\misc/lv_area.c ****             x = lv_area_get_width(base);
 430:..\..\..\arduinoLCD\test\Pain Drain\libraries\lvgl\src\misc/lv_area.c ****             y = 0;
ARM GAS  C:\Users\haske\AppData\Local\Temp\cc8C2ZcK.s 			page 9


 431:..\..\..\arduinoLCD\test\Pain Drain\libraries\lvgl\src\misc/lv_area.c ****             break;
 432:..\..\..\arduinoLCD\test\Pain Drain\libraries\lvgl\src\misc/lv_area.c **** 
 433:..\..\..\arduinoLCD\test\Pain Drain\libraries\lvgl\src\misc/lv_area.c ****         case LV_ALIGN_OUT_RIGHT_MID:
 434:..\..\..\arduinoLCD\test\Pain Drain\libraries\lvgl\src\misc/lv_area.c ****             x = lv_area_get_width(base);
 435:..\..\..\arduinoLCD\test\Pain Drain\libraries\lvgl\src\misc/lv_area.c ****             y = lv_area_get_height(base) / 2 - lv_area_get_height(to_align) / 2;
 436:..\..\..\arduinoLCD\test\Pain Drain\libraries\lvgl\src\misc/lv_area.c ****             break;
 437:..\..\..\arduinoLCD\test\Pain Drain\libraries\lvgl\src\misc/lv_area.c **** 
 438:..\..\..\arduinoLCD\test\Pain Drain\libraries\lvgl\src\misc/lv_area.c ****         case LV_ALIGN_OUT_RIGHT_BOTTOM:
 439:..\..\..\arduinoLCD\test\Pain Drain\libraries\lvgl\src\misc/lv_area.c ****             x = lv_area_get_width(base);
 440:..\..\..\arduinoLCD\test\Pain Drain\libraries\lvgl\src\misc/lv_area.c ****             y = lv_area_get_height(base) - lv_area_get_height(to_align);
 441:..\..\..\arduinoLCD\test\Pain Drain\libraries\lvgl\src\misc/lv_area.c ****             break;
 442:..\..\..\arduinoLCD\test\Pain Drain\libraries\lvgl\src\misc/lv_area.c ****         default:
 443:..\..\..\arduinoLCD\test\Pain Drain\libraries\lvgl\src\misc/lv_area.c ****             x = 0;
 444:..\..\..\arduinoLCD\test\Pain Drain\libraries\lvgl\src\misc/lv_area.c ****             y = 0;
 445:..\..\..\arduinoLCD\test\Pain Drain\libraries\lvgl\src\misc/lv_area.c ****             break;
 446:..\..\..\arduinoLCD\test\Pain Drain\libraries\lvgl\src\misc/lv_area.c ****     }
 447:..\..\..\arduinoLCD\test\Pain Drain\libraries\lvgl\src\misc/lv_area.c **** 
 448:..\..\..\arduinoLCD\test\Pain Drain\libraries\lvgl\src\misc/lv_area.c ****     x += base->x1;
 449:..\..\..\arduinoLCD\test\Pain Drain\libraries\lvgl\src\misc/lv_area.c ****     y += base->y1;
 450:..\..\..\arduinoLCD\test\Pain Drain\libraries\lvgl\src\misc/lv_area.c **** 
 451:..\..\..\arduinoLCD\test\Pain Drain\libraries\lvgl\src\misc/lv_area.c ****     lv_coord_t w = lv_area_get_width(to_align);
 452:..\..\..\arduinoLCD\test\Pain Drain\libraries\lvgl\src\misc/lv_area.c ****     lv_coord_t h = lv_area_get_height(to_align);
 453:..\..\..\arduinoLCD\test\Pain Drain\libraries\lvgl\src\misc/lv_area.c ****     to_align->x1 = x + ofs_x;
 454:..\..\..\arduinoLCD\test\Pain Drain\libraries\lvgl\src\misc/lv_area.c ****     to_align->y1 = y + ofs_y;
 455:..\..\..\arduinoLCD\test\Pain Drain\libraries\lvgl\src\misc/lv_area.c ****     to_align->x2 = to_align->x1 + w - 1;
 456:..\..\..\arduinoLCD\test\Pain Drain\libraries\lvgl\src\misc/lv_area.c ****     to_align->y2 = to_align->y1 + h - 1;
 457:..\..\..\arduinoLCD\test\Pain Drain\libraries\lvgl\src\misc/lv_area.c **** }
 458:..\..\..\arduinoLCD\test\Pain Drain\libraries\lvgl\src\misc/lv_area.c **** 
 459:..\..\..\arduinoLCD\test\Pain Drain\libraries\lvgl\src\misc/lv_area.c **** #define _LV_TRANSFORM_TRIGO_SHIFT 10
 460:..\..\..\arduinoLCD\test\Pain Drain\libraries\lvgl\src\misc/lv_area.c **** void lv_point_transform(lv_point_t * p, int32_t angle, int32_t zoom, const lv_point_t * pivot)
 461:..\..\..\arduinoLCD\test\Pain Drain\libraries\lvgl\src\misc/lv_area.c **** {
 462:..\..\..\arduinoLCD\test\Pain Drain\libraries\lvgl\src\misc/lv_area.c ****     if(angle == 0 && zoom == 256) {
 463:..\..\..\arduinoLCD\test\Pain Drain\libraries\lvgl\src\misc/lv_area.c ****         return;
 464:..\..\..\arduinoLCD\test\Pain Drain\libraries\lvgl\src\misc/lv_area.c ****     }
 465:..\..\..\arduinoLCD\test\Pain Drain\libraries\lvgl\src\misc/lv_area.c **** 
 466:..\..\..\arduinoLCD\test\Pain Drain\libraries\lvgl\src\misc/lv_area.c ****     p->x -= pivot->x;
 467:..\..\..\arduinoLCD\test\Pain Drain\libraries\lvgl\src\misc/lv_area.c ****     p->y -= pivot->y;
 468:..\..\..\arduinoLCD\test\Pain Drain\libraries\lvgl\src\misc/lv_area.c **** 
 469:..\..\..\arduinoLCD\test\Pain Drain\libraries\lvgl\src\misc/lv_area.c ****     if(angle == 0) {
 470:..\..\..\arduinoLCD\test\Pain Drain\libraries\lvgl\src\misc/lv_area.c ****         p->x = (((int32_t)(p->x) * zoom) >> 8) + pivot->x;
 471:..\..\..\arduinoLCD\test\Pain Drain\libraries\lvgl\src\misc/lv_area.c ****         p->y = (((int32_t)(p->y) * zoom) >> 8) + pivot->y;
 472:..\..\..\arduinoLCD\test\Pain Drain\libraries\lvgl\src\misc/lv_area.c ****         return;
 473:..\..\..\arduinoLCD\test\Pain Drain\libraries\lvgl\src\misc/lv_area.c ****     }
 474:..\..\..\arduinoLCD\test\Pain Drain\libraries\lvgl\src\misc/lv_area.c **** 
 475:..\..\..\arduinoLCD\test\Pain Drain\libraries\lvgl\src\misc/lv_area.c ****     static int32_t angle_prev = INT32_MIN;
 476:..\..\..\arduinoLCD\test\Pain Drain\libraries\lvgl\src\misc/lv_area.c ****     static int32_t sinma;
 477:..\..\..\arduinoLCD\test\Pain Drain\libraries\lvgl\src\misc/lv_area.c ****     static int32_t cosma;
 478:..\..\..\arduinoLCD\test\Pain Drain\libraries\lvgl\src\misc/lv_area.c ****     if(angle_prev != angle) {
 479:..\..\..\arduinoLCD\test\Pain Drain\libraries\lvgl\src\misc/lv_area.c ****         int32_t angle_limited = angle;
 480:..\..\..\arduinoLCD\test\Pain Drain\libraries\lvgl\src\misc/lv_area.c ****         if(angle_limited > 3600) angle_limited -= 3600;
 481:..\..\..\arduinoLCD\test\Pain Drain\libraries\lvgl\src\misc/lv_area.c ****         if(angle_limited < 0) angle_limited += 3600;
 482:..\..\..\arduinoLCD\test\Pain Drain\libraries\lvgl\src\misc/lv_area.c **** 
 483:..\..\..\arduinoLCD\test\Pain Drain\libraries\lvgl\src\misc/lv_area.c ****         int32_t angle_low = angle_limited / 10;
 484:..\..\..\arduinoLCD\test\Pain Drain\libraries\lvgl\src\misc/lv_area.c ****         int32_t angle_high = angle_low + 1;
 485:..\..\..\arduinoLCD\test\Pain Drain\libraries\lvgl\src\misc/lv_area.c ****         int32_t angle_rem = angle_limited  - (angle_low * 10);
 486:..\..\..\arduinoLCD\test\Pain Drain\libraries\lvgl\src\misc/lv_area.c **** 
 487:..\..\..\arduinoLCD\test\Pain Drain\libraries\lvgl\src\misc/lv_area.c ****         int32_t s1 = lv_trigo_sin(angle_low);
ARM GAS  C:\Users\haske\AppData\Local\Temp\cc8C2ZcK.s 			page 10


 488:..\..\..\arduinoLCD\test\Pain Drain\libraries\lvgl\src\misc/lv_area.c ****         int32_t s2 = lv_trigo_sin(angle_high);
 489:..\..\..\arduinoLCD\test\Pain Drain\libraries\lvgl\src\misc/lv_area.c **** 
 490:..\..\..\arduinoLCD\test\Pain Drain\libraries\lvgl\src\misc/lv_area.c ****         int32_t c1 = lv_trigo_sin(angle_low + 90);
 491:..\..\..\arduinoLCD\test\Pain Drain\libraries\lvgl\src\misc/lv_area.c ****         int32_t c2 = lv_trigo_sin(angle_high + 90);
 492:..\..\..\arduinoLCD\test\Pain Drain\libraries\lvgl\src\misc/lv_area.c **** 
 493:..\..\..\arduinoLCD\test\Pain Drain\libraries\lvgl\src\misc/lv_area.c ****         sinma = (s1 * (10 - angle_rem) + s2 * angle_rem) / 10;
 494:..\..\..\arduinoLCD\test\Pain Drain\libraries\lvgl\src\misc/lv_area.c ****         cosma = (c1 * (10 - angle_rem) + c2 * angle_rem) / 10;
 495:..\..\..\arduinoLCD\test\Pain Drain\libraries\lvgl\src\misc/lv_area.c ****         sinma = sinma >> (LV_TRIGO_SHIFT - _LV_TRANSFORM_TRIGO_SHIFT);
 496:..\..\..\arduinoLCD\test\Pain Drain\libraries\lvgl\src\misc/lv_area.c ****         cosma = cosma >> (LV_TRIGO_SHIFT - _LV_TRANSFORM_TRIGO_SHIFT);
 497:..\..\..\arduinoLCD\test\Pain Drain\libraries\lvgl\src\misc/lv_area.c ****         angle_prev = angle;
 498:..\..\..\arduinoLCD\test\Pain Drain\libraries\lvgl\src\misc/lv_area.c ****     }
 499:..\..\..\arduinoLCD\test\Pain Drain\libraries\lvgl\src\misc/lv_area.c ****     int32_t x = p->x;
 500:..\..\..\arduinoLCD\test\Pain Drain\libraries\lvgl\src\misc/lv_area.c ****     int32_t y = p->y;
 501:..\..\..\arduinoLCD\test\Pain Drain\libraries\lvgl\src\misc/lv_area.c ****     if(zoom == 256) {
 502:..\..\..\arduinoLCD\test\Pain Drain\libraries\lvgl\src\misc/lv_area.c ****         p->x = ((cosma * x - sinma * y) >> _LV_TRANSFORM_TRIGO_SHIFT) + pivot->x;
 503:..\..\..\arduinoLCD\test\Pain Drain\libraries\lvgl\src\misc/lv_area.c ****         p->y = ((sinma * x + cosma * y) >> _LV_TRANSFORM_TRIGO_SHIFT) + pivot->y;
 504:..\..\..\arduinoLCD\test\Pain Drain\libraries\lvgl\src\misc/lv_area.c ****     }
 505:..\..\..\arduinoLCD\test\Pain Drain\libraries\lvgl\src\misc/lv_area.c ****     else {
 506:..\..\..\arduinoLCD\test\Pain Drain\libraries\lvgl\src\misc/lv_area.c ****         p->x = (((cosma * x - sinma * y) * zoom) >> (_LV_TRANSFORM_TRIGO_SHIFT + 8)) + pivot->x;
 507:..\..\..\arduinoLCD\test\Pain Drain\libraries\lvgl\src\misc/lv_area.c ****         p->y = (((sinma * x + cosma * y) * zoom) >> (_LV_TRANSFORM_TRIGO_SHIFT + 8)) + pivot->y;
 508:..\..\..\arduinoLCD\test\Pain Drain\libraries\lvgl\src\misc/lv_area.c ****     }
 509:..\..\..\arduinoLCD\test\Pain Drain\libraries\lvgl\src\misc/lv_area.c **** }
 510:..\..\..\arduinoLCD\test\Pain Drain\libraries\lvgl\src\misc/lv_area.c **** 
 511:..\..\..\arduinoLCD\test\Pain Drain\libraries\lvgl\src\misc/lv_area.c **** 
 512:..\..\..\arduinoLCD\test\Pain Drain\libraries\lvgl\src\misc/lv_area.c **** /**********************
 513:..\..\..\arduinoLCD\test\Pain Drain\libraries\lvgl\src\misc/lv_area.c ****  *   STATIC FUNCTIONS
 514:..\..\..\arduinoLCD\test\Pain Drain\libraries\lvgl\src\misc/lv_area.c ****  **********************/
 515:..\..\..\arduinoLCD\test\Pain Drain\libraries\lvgl\src\misc/lv_area.c **** 
 516:..\..\..\arduinoLCD\test\Pain Drain\libraries\lvgl\src\misc/lv_area.c **** static bool lv_point_within_circle(const lv_area_t * area, const lv_point_t * p)
 517:..\..\..\arduinoLCD\test\Pain Drain\libraries\lvgl\src\misc/lv_area.c **** {
  27              		.loc 1 517 0
  28              		.cfi_startproc
  29              		@ args = 0, pretend = 0, frame = 0
  30              		@ frame_needed = 0, uses_anonymous_args = 0
  31              	.LVL0:
  32 0000 70B5     		push	{r4, r5, r6, lr}
  33              		.cfi_def_cfa_offset 16
  34              		.cfi_offset 4, -16
  35              		.cfi_offset 5, -12
  36              		.cfi_offset 6, -8
  37              		.cfi_offset 14, -4
 518:..\..\..\arduinoLCD\test\Pain Drain\libraries\lvgl\src\misc/lv_area.c ****     lv_coord_t r = (area->x2 - area->x1) / 2;
  38              		.loc 1 518 0
  39 0002 0422     		movs	r2, #4
  40 0004 835E     		ldrsh	r3, [r0, r2]
  41 0006 0024     		movs	r4, #0
  42 0008 025F     		ldrsh	r2, [r0, r4]
  43 000a 9B1A     		subs	r3, r3, r2
  44 000c DC0F     		lsrs	r4, r3, #31
  45 000e E318     		adds	r3, r4, r3
  46 0010 5B10     		asrs	r3, r3, #1
  47 0012 1EB2     		sxth	r6, r3
  48              	.LVL1:
 519:..\..\..\arduinoLCD\test\Pain Drain\libraries\lvgl\src\misc/lv_area.c **** 
 520:..\..\..\arduinoLCD\test\Pain Drain\libraries\lvgl\src\misc/lv_area.c ****     /*Circle center*/
 521:..\..\..\arduinoLCD\test\Pain Drain\libraries\lvgl\src\misc/lv_area.c ****     lv_coord_t cx = area->x1 + r;
  49              		.loc 1 521 0
ARM GAS  C:\Users\haske\AppData\Local\Temp\cc8C2ZcK.s 			page 11


  50 0014 9BB2     		uxth	r3, r3
  51 0016 9A18     		adds	r2, r3, r2
  52 0018 95B2     		uxth	r5, r2
  53              	.LVL2:
 522:..\..\..\arduinoLCD\test\Pain Drain\libraries\lvgl\src\misc/lv_area.c ****     lv_coord_t cy = area->y1 + r;
  54              		.loc 1 522 0
  55 001a 0222     		movs	r2, #2
  56 001c 825E     		ldrsh	r2, [r0, r2]
  57              	.LVL3:
  58 001e 9B18     		adds	r3, r3, r2
  59 0020 9BB2     		uxth	r3, r3
  60              	.LVL4:
 523:..\..\..\arduinoLCD\test\Pain Drain\libraries\lvgl\src\misc/lv_area.c **** 
 524:..\..\..\arduinoLCD\test\Pain Drain\libraries\lvgl\src\misc/lv_area.c ****     /*Simplify the code by moving everything to (0, 0)*/
 525:..\..\..\arduinoLCD\test\Pain Drain\libraries\lvgl\src\misc/lv_area.c ****     lv_coord_t px = p->x - cx;
  61              		.loc 1 525 0
  62 0022 0022     		movs	r2, #0
  63 0024 8C5E     		ldrsh	r4, [r1, r2]
  64 0026 601B     		subs	r0, r4, r5
  65 0028 00B2     		sxth	r0, r0
  66              	.LVL5:
 526:..\..\..\arduinoLCD\test\Pain Drain\libraries\lvgl\src\misc/lv_area.c ****     lv_coord_t py = p->y - cy;
  67              		.loc 1 526 0
  68 002a 0222     		movs	r2, #2
  69 002c 895E     		ldrsh	r1, [r1, r2]
  70              	.LVL6:
  71 002e CA1A     		subs	r2, r1, r3
  72 0030 13B2     		sxth	r3, r2
  73              	.LVL7:
 527:..\..\..\arduinoLCD\test\Pain Drain\libraries\lvgl\src\misc/lv_area.c **** 
 528:..\..\..\arduinoLCD\test\Pain Drain\libraries\lvgl\src\misc/lv_area.c ****     uint32_t r_sqrd = r * r;
  74              		.loc 1 528 0
  75 0032 7643     		muls	r6, r6
  76              	.LVL8:
 529:..\..\..\arduinoLCD\test\Pain Drain\libraries\lvgl\src\misc/lv_area.c ****     uint32_t dist = (px * px) + (py * py);
  77              		.loc 1 529 0
  78 0034 4043     		muls	r0, r0
  79              	.LVL9:
  80 0036 5B43     		muls	r3, r3
  81              	.LVL10:
  82 0038 C318     		adds	r3, r0, r3
  83              	.LVL11:
 530:..\..\..\arduinoLCD\test\Pain Drain\libraries\lvgl\src\misc/lv_area.c **** 
 531:..\..\..\arduinoLCD\test\Pain Drain\libraries\lvgl\src\misc/lv_area.c ****     if(dist <= r_sqrd)
  84              		.loc 1 531 0
  85 003a 9E42     		cmp	r6, r3
  86 003c 01D3     		bcc	.L3
 532:..\..\..\arduinoLCD\test\Pain Drain\libraries\lvgl\src\misc/lv_area.c ****         return true;
  87              		.loc 1 532 0
  88 003e 0120     		movs	r0, #1
  89 0040 00E0     		b	.L2
  90              	.L3:
 533:..\..\..\arduinoLCD\test\Pain Drain\libraries\lvgl\src\misc/lv_area.c ****     else
 534:..\..\..\arduinoLCD\test\Pain Drain\libraries\lvgl\src\misc/lv_area.c ****         return false;
  91              		.loc 1 534 0
  92 0042 0020     		movs	r0, #0
  93              	.L2:
ARM GAS  C:\Users\haske\AppData\Local\Temp\cc8C2ZcK.s 			page 12


 535:..\..\..\arduinoLCD\test\Pain Drain\libraries\lvgl\src\misc/lv_area.c **** }
  94              		.loc 1 535 0
  95              		@ sp needed
  96              	.LVL12:
  97              	.LVL13:
  98              	.LVL14:
  99 0044 70BD     		pop	{r4, r5, r6, pc}
 100              		.cfi_endproc
 101              	.LFE21:
 102              		.size	lv_point_within_circle, .-lv_point_within_circle
 103 0046 C046     		.section	.text.lv_area_set,"ax",%progbits
 104              		.align	2
 105              		.global	lv_area_set
 106              		.code	16
 107              		.thumb_func
 108              		.type	lv_area_set, %function
 109              	lv_area_set:
 110              	.LFB5:
  49:..\..\..\arduinoLCD\test\Pain Drain\libraries\lvgl\src\misc/lv_area.c ****     area_p->x1 = x1;
 111              		.loc 1 49 0
 112              		.cfi_startproc
 113              		@ args = 4, pretend = 0, frame = 0
 114              		@ frame_needed = 0, uses_anonymous_args = 0
 115              	.LVL15:
 116 0000 30B5     		push	{r4, r5, lr}
 117              		.cfi_def_cfa_offset 12
 118              		.cfi_offset 4, -12
 119              		.cfi_offset 5, -8
 120              		.cfi_offset 14, -4
 121 0002 03AC     		add	r4, sp, #12
 122              	.LVL16:
 123 0004 0025     		movs	r5, #0
 124 0006 645F     		ldrsh	r4, [r4, r5]
 125              	.LVL17:
  50:..\..\..\arduinoLCD\test\Pain Drain\libraries\lvgl\src\misc/lv_area.c ****     area_p->y1 = y1;
 126              		.loc 1 50 0
 127 0008 0180     		strh	r1, [r0]
  51:..\..\..\arduinoLCD\test\Pain Drain\libraries\lvgl\src\misc/lv_area.c ****     area_p->x2 = x2;
 128              		.loc 1 51 0
 129 000a 4280     		strh	r2, [r0, #2]
  52:..\..\..\arduinoLCD\test\Pain Drain\libraries\lvgl\src\misc/lv_area.c ****     area_p->y2 = y2;
 130              		.loc 1 52 0
 131 000c 8380     		strh	r3, [r0, #4]
  53:..\..\..\arduinoLCD\test\Pain Drain\libraries\lvgl\src\misc/lv_area.c **** }
 132              		.loc 1 53 0
 133 000e C480     		strh	r4, [r0, #6]
  54:..\..\..\arduinoLCD\test\Pain Drain\libraries\lvgl\src\misc/lv_area.c **** 
 134              		.loc 1 54 0
 135              		@ sp needed
 136 0010 30BD     		pop	{r4, r5, pc}
 137              		.cfi_endproc
 138              	.LFE5:
 139              		.size	lv_area_set, .-lv_area_set
 140 0012 C046     		.section	.text.lv_area_set_width,"ax",%progbits
 141              		.align	2
 142              		.global	lv_area_set_width
 143              		.code	16
ARM GAS  C:\Users\haske\AppData\Local\Temp\cc8C2ZcK.s 			page 13


 144              		.thumb_func
 145              		.type	lv_area_set_width, %function
 146              	lv_area_set_width:
 147              	.LFB6:
  62:..\..\..\arduinoLCD\test\Pain Drain\libraries\lvgl\src\misc/lv_area.c ****     area_p->x2 = area_p->x1 + w - 1;
 148              		.loc 1 62 0
 149              		.cfi_startproc
 150              		@ args = 0, pretend = 0, frame = 0
 151              		@ frame_needed = 0, uses_anonymous_args = 0
 152              		@ link register save eliminated.
 153              	.LVL18:
  63:..\..\..\arduinoLCD\test\Pain Drain\libraries\lvgl\src\misc/lv_area.c **** }
 154              		.loc 1 63 0
 155 0000 0022     		movs	r2, #0
 156 0002 835E     		ldrsh	r3, [r0, r2]
 157 0004 5918     		adds	r1, r3, r1
 158              	.LVL19:
 159 0006 0139     		subs	r1, r1, #1
 160 0008 8180     		strh	r1, [r0, #4]
  64:..\..\..\arduinoLCD\test\Pain Drain\libraries\lvgl\src\misc/lv_area.c **** 
 161              		.loc 1 64 0
 162              		@ sp needed
 163 000a 7047     		bx	lr
 164              		.cfi_endproc
 165              	.LFE6:
 166              		.size	lv_area_set_width, .-lv_area_set_width
 167              		.section	.text.lv_area_set_height,"ax",%progbits
 168              		.align	2
 169              		.global	lv_area_set_height
 170              		.code	16
 171              		.thumb_func
 172              		.type	lv_area_set_height, %function
 173              	lv_area_set_height:
 174              	.LFB7:
  72:..\..\..\arduinoLCD\test\Pain Drain\libraries\lvgl\src\misc/lv_area.c ****     area_p->y2 = area_p->y1 + h - 1;
 175              		.loc 1 72 0
 176              		.cfi_startproc
 177              		@ args = 0, pretend = 0, frame = 0
 178              		@ frame_needed = 0, uses_anonymous_args = 0
 179              		@ link register save eliminated.
 180              	.LVL20:
  73:..\..\..\arduinoLCD\test\Pain Drain\libraries\lvgl\src\misc/lv_area.c **** }
 181              		.loc 1 73 0
 182 0000 0222     		movs	r2, #2
 183 0002 835E     		ldrsh	r3, [r0, r2]
 184 0004 5918     		adds	r1, r3, r1
 185              	.LVL21:
 186 0006 0139     		subs	r1, r1, #1
 187 0008 C180     		strh	r1, [r0, #6]
  74:..\..\..\arduinoLCD\test\Pain Drain\libraries\lvgl\src\misc/lv_area.c **** 
 188              		.loc 1 74 0
 189              		@ sp needed
 190 000a 7047     		bx	lr
 191              		.cfi_endproc
 192              	.LFE7:
 193              		.size	lv_area_set_height, .-lv_area_set_height
 194              		.section	.text._lv_area_set_pos,"ax",%progbits
ARM GAS  C:\Users\haske\AppData\Local\Temp\cc8C2ZcK.s 			page 14


 195              		.align	2
 196              		.global	_lv_area_set_pos
 197              		.code	16
 198              		.thumb_func
 199              		.type	_lv_area_set_pos, %function
 200              	_lv_area_set_pos:
 201              	.LFB8:
  83:..\..\..\arduinoLCD\test\Pain Drain\libraries\lvgl\src\misc/lv_area.c ****     lv_coord_t w = lv_area_get_width(area_p);
 202              		.loc 1 83 0
 203              		.cfi_startproc
 204              		@ args = 0, pretend = 0, frame = 0
 205              		@ frame_needed = 0, uses_anonymous_args = 0
 206              	.LVL22:
 207 0000 70B5     		push	{r4, r5, r6, lr}
 208              		.cfi_def_cfa_offset 16
 209              		.cfi_offset 4, -16
 210              		.cfi_offset 5, -12
 211              		.cfi_offset 6, -8
 212              		.cfi_offset 14, -4
 213 0002 0400     		movs	r4, r0
 214 0004 0800     		movs	r0, r1
 215              	.LVL23:
 216              	.LBB118:
 217              	.LBB119:
 218              		.file 2 "..\\..\\..\\arduinoLCD\\test\\Pain Drain\\libraries\\lvgl\\src\\misc\\lv_area.h"
   1:..\..\..\arduinoLCD\test\Pain Drain\libraries\lvgl\src\misc/lv_area.h **** /**
   2:..\..\..\arduinoLCD\test\Pain Drain\libraries\lvgl\src\misc/lv_area.h ****  * @file lv_area.h
   3:..\..\..\arduinoLCD\test\Pain Drain\libraries\lvgl\src\misc/lv_area.h ****  *
   4:..\..\..\arduinoLCD\test\Pain Drain\libraries\lvgl\src\misc/lv_area.h ****  */
   5:..\..\..\arduinoLCD\test\Pain Drain\libraries\lvgl\src\misc/lv_area.h **** 
   6:..\..\..\arduinoLCD\test\Pain Drain\libraries\lvgl\src\misc/lv_area.h **** #ifndef LV_AREA_H
   7:..\..\..\arduinoLCD\test\Pain Drain\libraries\lvgl\src\misc/lv_area.h **** #define LV_AREA_H
   8:..\..\..\arduinoLCD\test\Pain Drain\libraries\lvgl\src\misc/lv_area.h **** 
   9:..\..\..\arduinoLCD\test\Pain Drain\libraries\lvgl\src\misc/lv_area.h **** #ifdef __cplusplus
  10:..\..\..\arduinoLCD\test\Pain Drain\libraries\lvgl\src\misc/lv_area.h **** extern "C" {
  11:..\..\..\arduinoLCD\test\Pain Drain\libraries\lvgl\src\misc/lv_area.h **** #endif
  12:..\..\..\arduinoLCD\test\Pain Drain\libraries\lvgl\src\misc/lv_area.h **** 
  13:..\..\..\arduinoLCD\test\Pain Drain\libraries\lvgl\src\misc/lv_area.h **** /*********************
  14:..\..\..\arduinoLCD\test\Pain Drain\libraries\lvgl\src\misc/lv_area.h ****  *      INCLUDES
  15:..\..\..\arduinoLCD\test\Pain Drain\libraries\lvgl\src\misc/lv_area.h ****  *********************/
  16:..\..\..\arduinoLCD\test\Pain Drain\libraries\lvgl\src\misc/lv_area.h **** #include "../lv_conf_internal.h"
  17:..\..\..\arduinoLCD\test\Pain Drain\libraries\lvgl\src\misc/lv_area.h **** #include <stdbool.h>
  18:..\..\..\arduinoLCD\test\Pain Drain\libraries\lvgl\src\misc/lv_area.h **** #include <stdint.h>
  19:..\..\..\arduinoLCD\test\Pain Drain\libraries\lvgl\src\misc/lv_area.h **** 
  20:..\..\..\arduinoLCD\test\Pain Drain\libraries\lvgl\src\misc/lv_area.h **** /*********************
  21:..\..\..\arduinoLCD\test\Pain Drain\libraries\lvgl\src\misc/lv_area.h ****  *      DEFINES
  22:..\..\..\arduinoLCD\test\Pain Drain\libraries\lvgl\src\misc/lv_area.h ****  *********************/
  23:..\..\..\arduinoLCD\test\Pain Drain\libraries\lvgl\src\misc/lv_area.h **** 
  24:..\..\..\arduinoLCD\test\Pain Drain\libraries\lvgl\src\misc/lv_area.h **** #if LV_USE_LARGE_COORD
  25:..\..\..\arduinoLCD\test\Pain Drain\libraries\lvgl\src\misc/lv_area.h **** typedef int32_t lv_coord_t;
  26:..\..\..\arduinoLCD\test\Pain Drain\libraries\lvgl\src\misc/lv_area.h **** #else
  27:..\..\..\arduinoLCD\test\Pain Drain\libraries\lvgl\src\misc/lv_area.h **** typedef int16_t lv_coord_t;
  28:..\..\..\arduinoLCD\test\Pain Drain\libraries\lvgl\src\misc/lv_area.h **** #endif
  29:..\..\..\arduinoLCD\test\Pain Drain\libraries\lvgl\src\misc/lv_area.h **** 
  30:..\..\..\arduinoLCD\test\Pain Drain\libraries\lvgl\src\misc/lv_area.h **** /**********************
  31:..\..\..\arduinoLCD\test\Pain Drain\libraries\lvgl\src\misc/lv_area.h ****  *      TYPEDEFS
  32:..\..\..\arduinoLCD\test\Pain Drain\libraries\lvgl\src\misc/lv_area.h ****  **********************/
ARM GAS  C:\Users\haske\AppData\Local\Temp\cc8C2ZcK.s 			page 15


  33:..\..\..\arduinoLCD\test\Pain Drain\libraries\lvgl\src\misc/lv_area.h **** 
  34:..\..\..\arduinoLCD\test\Pain Drain\libraries\lvgl\src\misc/lv_area.h **** /**
  35:..\..\..\arduinoLCD\test\Pain Drain\libraries\lvgl\src\misc/lv_area.h ****  * Represents a point on the screen.
  36:..\..\..\arduinoLCD\test\Pain Drain\libraries\lvgl\src\misc/lv_area.h ****  */
  37:..\..\..\arduinoLCD\test\Pain Drain\libraries\lvgl\src\misc/lv_area.h **** typedef struct {
  38:..\..\..\arduinoLCD\test\Pain Drain\libraries\lvgl\src\misc/lv_area.h ****     lv_coord_t x;
  39:..\..\..\arduinoLCD\test\Pain Drain\libraries\lvgl\src\misc/lv_area.h ****     lv_coord_t y;
  40:..\..\..\arduinoLCD\test\Pain Drain\libraries\lvgl\src\misc/lv_area.h **** } lv_point_t;
  41:..\..\..\arduinoLCD\test\Pain Drain\libraries\lvgl\src\misc/lv_area.h **** 
  42:..\..\..\arduinoLCD\test\Pain Drain\libraries\lvgl\src\misc/lv_area.h **** /** Represents an area of the screen.*/
  43:..\..\..\arduinoLCD\test\Pain Drain\libraries\lvgl\src\misc/lv_area.h **** typedef struct {
  44:..\..\..\arduinoLCD\test\Pain Drain\libraries\lvgl\src\misc/lv_area.h ****     lv_coord_t x1;
  45:..\..\..\arduinoLCD\test\Pain Drain\libraries\lvgl\src\misc/lv_area.h ****     lv_coord_t y1;
  46:..\..\..\arduinoLCD\test\Pain Drain\libraries\lvgl\src\misc/lv_area.h ****     lv_coord_t x2;
  47:..\..\..\arduinoLCD\test\Pain Drain\libraries\lvgl\src\misc/lv_area.h ****     lv_coord_t y2;
  48:..\..\..\arduinoLCD\test\Pain Drain\libraries\lvgl\src\misc/lv_area.h **** } lv_area_t;
  49:..\..\..\arduinoLCD\test\Pain Drain\libraries\lvgl\src\misc/lv_area.h **** 
  50:..\..\..\arduinoLCD\test\Pain Drain\libraries\lvgl\src\misc/lv_area.h **** /** Alignments*/
  51:..\..\..\arduinoLCD\test\Pain Drain\libraries\lvgl\src\misc/lv_area.h **** enum {
  52:..\..\..\arduinoLCD\test\Pain Drain\libraries\lvgl\src\misc/lv_area.h ****     LV_ALIGN_DEFAULT = 0,
  53:..\..\..\arduinoLCD\test\Pain Drain\libraries\lvgl\src\misc/lv_area.h ****     LV_ALIGN_TOP_LEFT,
  54:..\..\..\arduinoLCD\test\Pain Drain\libraries\lvgl\src\misc/lv_area.h ****     LV_ALIGN_TOP_MID,
  55:..\..\..\arduinoLCD\test\Pain Drain\libraries\lvgl\src\misc/lv_area.h ****     LV_ALIGN_TOP_RIGHT,
  56:..\..\..\arduinoLCD\test\Pain Drain\libraries\lvgl\src\misc/lv_area.h ****     LV_ALIGN_BOTTOM_LEFT,
  57:..\..\..\arduinoLCD\test\Pain Drain\libraries\lvgl\src\misc/lv_area.h ****     LV_ALIGN_BOTTOM_MID,
  58:..\..\..\arduinoLCD\test\Pain Drain\libraries\lvgl\src\misc/lv_area.h ****     LV_ALIGN_BOTTOM_RIGHT,
  59:..\..\..\arduinoLCD\test\Pain Drain\libraries\lvgl\src\misc/lv_area.h ****     LV_ALIGN_LEFT_MID,
  60:..\..\..\arduinoLCD\test\Pain Drain\libraries\lvgl\src\misc/lv_area.h ****     LV_ALIGN_RIGHT_MID,
  61:..\..\..\arduinoLCD\test\Pain Drain\libraries\lvgl\src\misc/lv_area.h ****     LV_ALIGN_CENTER,
  62:..\..\..\arduinoLCD\test\Pain Drain\libraries\lvgl\src\misc/lv_area.h **** 
  63:..\..\..\arduinoLCD\test\Pain Drain\libraries\lvgl\src\misc/lv_area.h ****     LV_ALIGN_OUT_TOP_LEFT,
  64:..\..\..\arduinoLCD\test\Pain Drain\libraries\lvgl\src\misc/lv_area.h ****     LV_ALIGN_OUT_TOP_MID,
  65:..\..\..\arduinoLCD\test\Pain Drain\libraries\lvgl\src\misc/lv_area.h ****     LV_ALIGN_OUT_TOP_RIGHT,
  66:..\..\..\arduinoLCD\test\Pain Drain\libraries\lvgl\src\misc/lv_area.h ****     LV_ALIGN_OUT_BOTTOM_LEFT,
  67:..\..\..\arduinoLCD\test\Pain Drain\libraries\lvgl\src\misc/lv_area.h ****     LV_ALIGN_OUT_BOTTOM_MID,
  68:..\..\..\arduinoLCD\test\Pain Drain\libraries\lvgl\src\misc/lv_area.h ****     LV_ALIGN_OUT_BOTTOM_RIGHT,
  69:..\..\..\arduinoLCD\test\Pain Drain\libraries\lvgl\src\misc/lv_area.h ****     LV_ALIGN_OUT_LEFT_TOP,
  70:..\..\..\arduinoLCD\test\Pain Drain\libraries\lvgl\src\misc/lv_area.h ****     LV_ALIGN_OUT_LEFT_MID,
  71:..\..\..\arduinoLCD\test\Pain Drain\libraries\lvgl\src\misc/lv_area.h ****     LV_ALIGN_OUT_LEFT_BOTTOM,
  72:..\..\..\arduinoLCD\test\Pain Drain\libraries\lvgl\src\misc/lv_area.h ****     LV_ALIGN_OUT_RIGHT_TOP,
  73:..\..\..\arduinoLCD\test\Pain Drain\libraries\lvgl\src\misc/lv_area.h ****     LV_ALIGN_OUT_RIGHT_MID,
  74:..\..\..\arduinoLCD\test\Pain Drain\libraries\lvgl\src\misc/lv_area.h ****     LV_ALIGN_OUT_RIGHT_BOTTOM,
  75:..\..\..\arduinoLCD\test\Pain Drain\libraries\lvgl\src\misc/lv_area.h **** };
  76:..\..\..\arduinoLCD\test\Pain Drain\libraries\lvgl\src\misc/lv_area.h **** typedef uint8_t lv_align_t;
  77:..\..\..\arduinoLCD\test\Pain Drain\libraries\lvgl\src\misc/lv_area.h **** 
  78:..\..\..\arduinoLCD\test\Pain Drain\libraries\lvgl\src\misc/lv_area.h **** enum {
  79:..\..\..\arduinoLCD\test\Pain Drain\libraries\lvgl\src\misc/lv_area.h ****     LV_DIR_NONE     = 0x00,
  80:..\..\..\arduinoLCD\test\Pain Drain\libraries\lvgl\src\misc/lv_area.h ****     LV_DIR_LEFT     = (1 << 0),
  81:..\..\..\arduinoLCD\test\Pain Drain\libraries\lvgl\src\misc/lv_area.h ****     LV_DIR_RIGHT    = (1 << 1),
  82:..\..\..\arduinoLCD\test\Pain Drain\libraries\lvgl\src\misc/lv_area.h ****     LV_DIR_TOP      = (1 << 2),
  83:..\..\..\arduinoLCD\test\Pain Drain\libraries\lvgl\src\misc/lv_area.h ****     LV_DIR_BOTTOM   = (1 << 3),
  84:..\..\..\arduinoLCD\test\Pain Drain\libraries\lvgl\src\misc/lv_area.h ****     LV_DIR_HOR      = LV_DIR_LEFT | LV_DIR_RIGHT,
  85:..\..\..\arduinoLCD\test\Pain Drain\libraries\lvgl\src\misc/lv_area.h ****     LV_DIR_VER      = LV_DIR_TOP | LV_DIR_BOTTOM,
  86:..\..\..\arduinoLCD\test\Pain Drain\libraries\lvgl\src\misc/lv_area.h ****     LV_DIR_ALL      = LV_DIR_HOR | LV_DIR_VER,
  87:..\..\..\arduinoLCD\test\Pain Drain\libraries\lvgl\src\misc/lv_area.h **** };
  88:..\..\..\arduinoLCD\test\Pain Drain\libraries\lvgl\src\misc/lv_area.h **** 
  89:..\..\..\arduinoLCD\test\Pain Drain\libraries\lvgl\src\misc/lv_area.h **** typedef uint8_t lv_dir_t;
ARM GAS  C:\Users\haske\AppData\Local\Temp\cc8C2ZcK.s 			page 16


  90:..\..\..\arduinoLCD\test\Pain Drain\libraries\lvgl\src\misc/lv_area.h **** 
  91:..\..\..\arduinoLCD\test\Pain Drain\libraries\lvgl\src\misc/lv_area.h **** /**********************
  92:..\..\..\arduinoLCD\test\Pain Drain\libraries\lvgl\src\misc/lv_area.h ****  * GLOBAL PROTOTYPES
  93:..\..\..\arduinoLCD\test\Pain Drain\libraries\lvgl\src\misc/lv_area.h ****  **********************/
  94:..\..\..\arduinoLCD\test\Pain Drain\libraries\lvgl\src\misc/lv_area.h **** 
  95:..\..\..\arduinoLCD\test\Pain Drain\libraries\lvgl\src\misc/lv_area.h **** /**
  96:..\..\..\arduinoLCD\test\Pain Drain\libraries\lvgl\src\misc/lv_area.h ****  * Initialize an area
  97:..\..\..\arduinoLCD\test\Pain Drain\libraries\lvgl\src\misc/lv_area.h ****  * @param area_p pointer to an area
  98:..\..\..\arduinoLCD\test\Pain Drain\libraries\lvgl\src\misc/lv_area.h ****  * @param x1 left coordinate of the area
  99:..\..\..\arduinoLCD\test\Pain Drain\libraries\lvgl\src\misc/lv_area.h ****  * @param y1 top coordinate of the area
 100:..\..\..\arduinoLCD\test\Pain Drain\libraries\lvgl\src\misc/lv_area.h ****  * @param x2 right coordinate of the area
 101:..\..\..\arduinoLCD\test\Pain Drain\libraries\lvgl\src\misc/lv_area.h ****  * @param y2 bottom coordinate of the area
 102:..\..\..\arduinoLCD\test\Pain Drain\libraries\lvgl\src\misc/lv_area.h ****  */
 103:..\..\..\arduinoLCD\test\Pain Drain\libraries\lvgl\src\misc/lv_area.h **** void lv_area_set(lv_area_t * area_p, lv_coord_t x1, lv_coord_t y1, lv_coord_t x2, lv_coord_t y2);
 104:..\..\..\arduinoLCD\test\Pain Drain\libraries\lvgl\src\misc/lv_area.h **** 
 105:..\..\..\arduinoLCD\test\Pain Drain\libraries\lvgl\src\misc/lv_area.h **** /**
 106:..\..\..\arduinoLCD\test\Pain Drain\libraries\lvgl\src\misc/lv_area.h ****  * Copy an area
 107:..\..\..\arduinoLCD\test\Pain Drain\libraries\lvgl\src\misc/lv_area.h ****  * @param dest pointer to the destination area
 108:..\..\..\arduinoLCD\test\Pain Drain\libraries\lvgl\src\misc/lv_area.h ****  * @param src pointer to the source area
 109:..\..\..\arduinoLCD\test\Pain Drain\libraries\lvgl\src\misc/lv_area.h ****  */
 110:..\..\..\arduinoLCD\test\Pain Drain\libraries\lvgl\src\misc/lv_area.h **** inline static void lv_area_copy(lv_area_t * dest, const lv_area_t * src)
 111:..\..\..\arduinoLCD\test\Pain Drain\libraries\lvgl\src\misc/lv_area.h **** {
 112:..\..\..\arduinoLCD\test\Pain Drain\libraries\lvgl\src\misc/lv_area.h ****     dest->x1 = src->x1;
 113:..\..\..\arduinoLCD\test\Pain Drain\libraries\lvgl\src\misc/lv_area.h ****     dest->y1 = src->y1;
 114:..\..\..\arduinoLCD\test\Pain Drain\libraries\lvgl\src\misc/lv_area.h ****     dest->x2 = src->x2;
 115:..\..\..\arduinoLCD\test\Pain Drain\libraries\lvgl\src\misc/lv_area.h ****     dest->y2 = src->y2;
 116:..\..\..\arduinoLCD\test\Pain Drain\libraries\lvgl\src\misc/lv_area.h **** }
 117:..\..\..\arduinoLCD\test\Pain Drain\libraries\lvgl\src\misc/lv_area.h **** 
 118:..\..\..\arduinoLCD\test\Pain Drain\libraries\lvgl\src\misc/lv_area.h **** /**
 119:..\..\..\arduinoLCD\test\Pain Drain\libraries\lvgl\src\misc/lv_area.h ****  * Get the width of an area
 120:..\..\..\arduinoLCD\test\Pain Drain\libraries\lvgl\src\misc/lv_area.h ****  * @param area_p pointer to an area
 121:..\..\..\arduinoLCD\test\Pain Drain\libraries\lvgl\src\misc/lv_area.h ****  * @return the width of the area (if x1 == x2 -> width = 1)
 122:..\..\..\arduinoLCD\test\Pain Drain\libraries\lvgl\src\misc/lv_area.h ****  */
 123:..\..\..\arduinoLCD\test\Pain Drain\libraries\lvgl\src\misc/lv_area.h **** static inline lv_coord_t lv_area_get_width(const lv_area_t * area_p)
 124:..\..\..\arduinoLCD\test\Pain Drain\libraries\lvgl\src\misc/lv_area.h **** {
 125:..\..\..\arduinoLCD\test\Pain Drain\libraries\lvgl\src\misc/lv_area.h ****     return (lv_coord_t)(area_p->x2 - area_p->x1 + 1);
 219              		.loc 2 125 0
 220 0006 0421     		movs	r1, #4
 221 0008 635E     		ldrsh	r3, [r4, r1]
 222              	.LVL24:
 223 000a 0025     		movs	r5, #0
 224 000c 615F     		ldrsh	r1, [r4, r5]
 225 000e 5B1A     		subs	r3, r3, r1
 226 0010 0133     		adds	r3, r3, #1
 227 0012 19B2     		sxth	r1, r3
 228              	.LVL25:
 229              	.LBE119:
 230              	.LBE118:
 231              	.LBB120:
 232              	.LBB121:
 126:..\..\..\arduinoLCD\test\Pain Drain\libraries\lvgl\src\misc/lv_area.h **** }
 127:..\..\..\arduinoLCD\test\Pain Drain\libraries\lvgl\src\misc/lv_area.h **** 
 128:..\..\..\arduinoLCD\test\Pain Drain\libraries\lvgl\src\misc/lv_area.h **** /**
 129:..\..\..\arduinoLCD\test\Pain Drain\libraries\lvgl\src\misc/lv_area.h ****  * Get the height of an area
 130:..\..\..\arduinoLCD\test\Pain Drain\libraries\lvgl\src\misc/lv_area.h ****  * @param area_p pointer to an area
 131:..\..\..\arduinoLCD\test\Pain Drain\libraries\lvgl\src\misc/lv_area.h ****  * @return the height of the area (if y1 == y2 -> height = 1)
 132:..\..\..\arduinoLCD\test\Pain Drain\libraries\lvgl\src\misc/lv_area.h ****  */
ARM GAS  C:\Users\haske\AppData\Local\Temp\cc8C2ZcK.s 			page 17


 133:..\..\..\arduinoLCD\test\Pain Drain\libraries\lvgl\src\misc/lv_area.h **** static inline lv_coord_t lv_area_get_height(const lv_area_t * area_p)
 134:..\..\..\arduinoLCD\test\Pain Drain\libraries\lvgl\src\misc/lv_area.h **** {
 135:..\..\..\arduinoLCD\test\Pain Drain\libraries\lvgl\src\misc/lv_area.h ****     return (lv_coord_t)(area_p->y2 - area_p->y1 + 1);
 233              		.loc 2 135 0
 234 0014 0625     		movs	r5, #6
 235 0016 635F     		ldrsh	r3, [r4, r5]
 236 0018 0226     		movs	r6, #2
 237 001a A55F     		ldrsh	r5, [r4, r6]
 238 001c 5D1B     		subs	r5, r3, r5
 239 001e 0135     		adds	r5, r5, #1
 240 0020 2DB2     		sxth	r5, r5
 241              	.LVL26:
 242              	.LBE121:
 243              	.LBE120:
  86:..\..\..\arduinoLCD\test\Pain Drain\libraries\lvgl\src\misc/lv_area.c ****     area_p->y1   = y;
 244              		.loc 1 86 0
 245 0022 2080     		strh	r0, [r4]
  87:..\..\..\arduinoLCD\test\Pain Drain\libraries\lvgl\src\misc/lv_area.c ****     lv_area_set_width(area_p, w);
 246              		.loc 1 87 0
 247 0024 6280     		strh	r2, [r4, #2]
  88:..\..\..\arduinoLCD\test\Pain Drain\libraries\lvgl\src\misc/lv_area.c ****     lv_area_set_height(area_p, h);
 248              		.loc 1 88 0
 249 0026 2000     		movs	r0, r4
 250 0028 FFF7FEFF 		bl	lv_area_set_width
 251              	.LVL27:
  89:..\..\..\arduinoLCD\test\Pain Drain\libraries\lvgl\src\misc/lv_area.c **** }
 252              		.loc 1 89 0
 253 002c 2900     		movs	r1, r5
 254 002e 2000     		movs	r0, r4
 255 0030 FFF7FEFF 		bl	lv_area_set_height
 256              	.LVL28:
  90:..\..\..\arduinoLCD\test\Pain Drain\libraries\lvgl\src\misc/lv_area.c **** 
 257              		.loc 1 90 0
 258              		@ sp needed
 259              	.LVL29:
 260 0034 70BD     		pop	{r4, r5, r6, pc}
 261              		.cfi_endproc
 262              	.LFE8:
 263              		.size	_lv_area_set_pos, .-_lv_area_set_pos
 264 0036 C046     		.section	.text.lv_area_get_size,"ax",%progbits
 265              		.align	2
 266              		.global	lv_area_get_size
 267              		.code	16
 268              		.thumb_func
 269              		.type	lv_area_get_size, %function
 270              	lv_area_get_size:
 271              	.LFB9:
  98:..\..\..\arduinoLCD\test\Pain Drain\libraries\lvgl\src\misc/lv_area.c ****     uint32_t size;
 272              		.loc 1 98 0
 273              		.cfi_startproc
 274              		@ args = 0, pretend = 0, frame = 0
 275              		@ frame_needed = 0, uses_anonymous_args = 0
 276              		@ link register save eliminated.
 277              	.LVL30:
 101:..\..\..\arduinoLCD\test\Pain Drain\libraries\lvgl\src\misc/lv_area.c **** 
 278              		.loc 1 101 0
 279 0000 0422     		movs	r2, #4
ARM GAS  C:\Users\haske\AppData\Local\Temp\cc8C2ZcK.s 			page 18


 280 0002 835E     		ldrsh	r3, [r0, r2]
 281 0004 0021     		movs	r1, #0
 282 0006 425E     		ldrsh	r2, [r0, r1]
 283 0008 9A1A     		subs	r2, r3, r2
 284 000a 0132     		adds	r2, r2, #1
 285 000c 0621     		movs	r1, #6
 286 000e 435E     		ldrsh	r3, [r0, r1]
 287 0010 0221     		movs	r1, #2
 288 0012 405E     		ldrsh	r0, [r0, r1]
 289              	.LVL31:
 290 0014 1B1A     		subs	r3, r3, r0
 291 0016 0133     		adds	r3, r3, #1
 292 0018 5343     		muls	r3, r2
 293 001a 1800     		movs	r0, r3
 294              	.LVL32:
 104:..\..\..\arduinoLCD\test\Pain Drain\libraries\lvgl\src\misc/lv_area.c **** 
 295              		.loc 1 104 0
 296              		@ sp needed
 297 001c 7047     		bx	lr
 298              		.cfi_endproc
 299              	.LFE9:
 300              		.size	lv_area_get_size, .-lv_area_get_size
 301 001e C046     		.section	.text.lv_area_increase,"ax",%progbits
 302              		.align	2
 303              		.global	lv_area_increase
 304              		.code	16
 305              		.thumb_func
 306              		.type	lv_area_increase, %function
 307              	lv_area_increase:
 308              	.LFB10:
 107:..\..\..\arduinoLCD\test\Pain Drain\libraries\lvgl\src\misc/lv_area.c ****     area->x1 -= w_extra;
 309              		.loc 1 107 0
 310              		.cfi_startproc
 311              		@ args = 0, pretend = 0, frame = 0
 312              		@ frame_needed = 0, uses_anonymous_args = 0
 313              		@ link register save eliminated.
 314              	.LVL33:
 108:..\..\..\arduinoLCD\test\Pain Drain\libraries\lvgl\src\misc/lv_area.c ****     area->x2 += w_extra;
 315              		.loc 1 108 0
 316 0000 89B2     		uxth	r1, r1
 317 0002 0388     		ldrh	r3, [r0]
 318 0004 5B1A     		subs	r3, r3, r1
 319 0006 0380     		strh	r3, [r0]
 109:..\..\..\arduinoLCD\test\Pain Drain\libraries\lvgl\src\misc/lv_area.c ****     area->y1 -= h_extra;
 320              		.loc 1 109 0
 321 0008 8388     		ldrh	r3, [r0, #4]
 322 000a C918     		adds	r1, r1, r3
 323              	.LVL34:
 324 000c 8180     		strh	r1, [r0, #4]
 110:..\..\..\arduinoLCD\test\Pain Drain\libraries\lvgl\src\misc/lv_area.c ****     area->y2 += h_extra;
 325              		.loc 1 110 0
 326 000e 92B2     		uxth	r2, r2
 327 0010 4388     		ldrh	r3, [r0, #2]
 328 0012 9B1A     		subs	r3, r3, r2
 329 0014 4380     		strh	r3, [r0, #2]
 111:..\..\..\arduinoLCD\test\Pain Drain\libraries\lvgl\src\misc/lv_area.c **** }
 330              		.loc 1 111 0
ARM GAS  C:\Users\haske\AppData\Local\Temp\cc8C2ZcK.s 			page 19


 331 0016 C388     		ldrh	r3, [r0, #6]
 332 0018 D218     		adds	r2, r2, r3
 333              	.LVL35:
 334 001a C280     		strh	r2, [r0, #6]
 112:..\..\..\arduinoLCD\test\Pain Drain\libraries\lvgl\src\misc/lv_area.c **** 
 335              		.loc 1 112 0
 336              		@ sp needed
 337 001c 7047     		bx	lr
 338              		.cfi_endproc
 339              	.LFE10:
 340              		.size	lv_area_increase, .-lv_area_increase
 341 001e C046     		.section	.text.lv_area_move,"ax",%progbits
 342              		.align	2
 343              		.global	lv_area_move
 344              		.code	16
 345              		.thumb_func
 346              		.type	lv_area_move, %function
 347              	lv_area_move:
 348              	.LFB11:
 115:..\..\..\arduinoLCD\test\Pain Drain\libraries\lvgl\src\misc/lv_area.c ****     area->x1 += x_ofs;
 349              		.loc 1 115 0
 350              		.cfi_startproc
 351              		@ args = 0, pretend = 0, frame = 0
 352              		@ frame_needed = 0, uses_anonymous_args = 0
 353              		@ link register save eliminated.
 354              	.LVL36:
 116:..\..\..\arduinoLCD\test\Pain Drain\libraries\lvgl\src\misc/lv_area.c ****     area->x2 += x_ofs;
 355              		.loc 1 116 0
 356 0000 89B2     		uxth	r1, r1
 357 0002 0388     		ldrh	r3, [r0]
 358 0004 CB18     		adds	r3, r1, r3
 359 0006 0380     		strh	r3, [r0]
 117:..\..\..\arduinoLCD\test\Pain Drain\libraries\lvgl\src\misc/lv_area.c ****     area->y1 += y_ofs;
 360              		.loc 1 117 0
 361 0008 8388     		ldrh	r3, [r0, #4]
 362 000a C918     		adds	r1, r1, r3
 363              	.LVL37:
 364 000c 8180     		strh	r1, [r0, #4]
 118:..\..\..\arduinoLCD\test\Pain Drain\libraries\lvgl\src\misc/lv_area.c ****     area->y2 += y_ofs;
 365              		.loc 1 118 0
 366 000e 92B2     		uxth	r2, r2
 367 0010 4388     		ldrh	r3, [r0, #2]
 368 0012 D318     		adds	r3, r2, r3
 369 0014 4380     		strh	r3, [r0, #2]
 119:..\..\..\arduinoLCD\test\Pain Drain\libraries\lvgl\src\misc/lv_area.c **** }
 370              		.loc 1 119 0
 371 0016 C388     		ldrh	r3, [r0, #6]
 372 0018 D218     		adds	r2, r2, r3
 373              	.LVL38:
 374 001a C280     		strh	r2, [r0, #6]
 120:..\..\..\arduinoLCD\test\Pain Drain\libraries\lvgl\src\misc/lv_area.c **** 
 375              		.loc 1 120 0
 376              		@ sp needed
 377 001c 7047     		bx	lr
 378              		.cfi_endproc
 379              	.LFE11:
 380              		.size	lv_area_move, .-lv_area_move
ARM GAS  C:\Users\haske\AppData\Local\Temp\cc8C2ZcK.s 			page 20


 381 001e C046     		.section	.text._lv_area_intersect,"ax",%progbits
 382              		.align	2
 383              		.global	_lv_area_intersect
 384              		.code	16
 385              		.thumb_func
 386              		.type	_lv_area_intersect, %function
 387              	_lv_area_intersect:
 388              	.LFB12:
 130:..\..\..\arduinoLCD\test\Pain Drain\libraries\lvgl\src\misc/lv_area.c ****     /*Get the smaller area from 'a1_p' and 'a2_p'*/
 389              		.loc 1 130 0
 390              		.cfi_startproc
 391              		@ args = 0, pretend = 0, frame = 0
 392              		@ frame_needed = 0, uses_anonymous_args = 0
 393              	.LVL39:
 394 0000 F0B5     		push	{r4, r5, r6, r7, lr}
 395              		.cfi_def_cfa_offset 20
 396              		.cfi_offset 4, -20
 397              		.cfi_offset 5, -16
 398              		.cfi_offset 6, -12
 399              		.cfi_offset 7, -8
 400              		.cfi_offset 14, -4
 132:..\..\..\arduinoLCD\test\Pain Drain\libraries\lvgl\src\misc/lv_area.c ****     res_p->y1 = LV_MAX(a1_p->y1, a2_p->y1);
 401              		.loc 1 132 0
 402 0002 0023     		movs	r3, #0
 403 0004 D45E     		ldrsh	r4, [r2, r3]
 404 0006 0023     		movs	r3, #0
 405 0008 CD5E     		ldrsh	r5, [r1, r3]
 406 000a 231C     		adds	r3, r4, #0
 407 000c AC42     		cmp	r4, r5
 408 000e 00DA     		bge	.L12
 409 0010 2B1C     		adds	r3, r5, #0
 410              	.L12:
 411 0012 1EB2     		sxth	r6, r3
 412 0014 0380     		strh	r3, [r0]
 133:..\..\..\arduinoLCD\test\Pain Drain\libraries\lvgl\src\misc/lv_area.c ****     res_p->x2 = LV_MIN(a1_p->x2, a2_p->x2);
 413              		.loc 1 133 0
 414 0016 0223     		movs	r3, #2
 415 0018 D45E     		ldrsh	r4, [r2, r3]
 416 001a 0223     		movs	r3, #2
 417 001c CD5E     		ldrsh	r5, [r1, r3]
 418 001e 231C     		adds	r3, r4, #0
 419 0020 AC42     		cmp	r4, r5
 420 0022 00DA     		bge	.L13
 421 0024 2B1C     		adds	r3, r5, #0
 422              	.L13:
 423 0026 1FB2     		sxth	r7, r3
 424 0028 4380     		strh	r3, [r0, #2]
 134:..\..\..\arduinoLCD\test\Pain Drain\libraries\lvgl\src\misc/lv_area.c ****     res_p->y2 = LV_MIN(a1_p->y2, a2_p->y2);
 425              		.loc 1 134 0
 426 002a 0423     		movs	r3, #4
 427 002c D45E     		ldrsh	r4, [r2, r3]
 428 002e 0423     		movs	r3, #4
 429 0030 CD5E     		ldrsh	r5, [r1, r3]
 430 0032 231C     		adds	r3, r4, #0
 431 0034 AC42     		cmp	r4, r5
 432 0036 00DD     		ble	.L14
 433 0038 2B1C     		adds	r3, r5, #0
ARM GAS  C:\Users\haske\AppData\Local\Temp\cc8C2ZcK.s 			page 21


 434              	.L14:
 435 003a 1CB2     		sxth	r4, r3
 436 003c 8380     		strh	r3, [r0, #4]
 135:..\..\..\arduinoLCD\test\Pain Drain\libraries\lvgl\src\misc/lv_area.c **** 
 437              		.loc 1 135 0
 438 003e 0623     		movs	r3, #6
 439 0040 D25E     		ldrsh	r2, [r2, r3]
 440              	.LVL40:
 441 0042 0623     		movs	r3, #6
 442 0044 C95E     		ldrsh	r1, [r1, r3]
 443              	.LVL41:
 444 0046 131C     		adds	r3, r2, #0
 445 0048 8A42     		cmp	r2, r1
 446 004a 00DD     		ble	.L15
 447 004c 0B1C     		adds	r3, r1, #0
 448              	.L15:
 449 004e 1AB2     		sxth	r2, r3
 450 0050 C380     		strh	r3, [r0, #6]
 451              	.LVL42:
 139:..\..\..\arduinoLCD\test\Pain Drain\libraries\lvgl\src\misc/lv_area.c ****         union_ok = false;
 452              		.loc 1 139 0
 453 0052 A642     		cmp	r6, r4
 454 0054 03DC     		bgt	.L17
 139:..\..\..\arduinoLCD\test\Pain Drain\libraries\lvgl\src\misc/lv_area.c ****         union_ok = false;
 455              		.loc 1 139 0 is_stmt 0 discriminator 1
 456 0056 9742     		cmp	r7, r2
 457 0058 03DC     		bgt	.L18
 138:..\..\..\arduinoLCD\test\Pain Drain\libraries\lvgl\src\misc/lv_area.c ****     if((res_p->x1 > res_p->x2) || (res_p->y1 > res_p->y2)) {
 458              		.loc 1 138 0 is_stmt 1
 459 005a 0120     		movs	r0, #1
 460              	.LVL43:
 461 005c 02E0     		b	.L16
 462              	.LVL44:
 463              	.L17:
 140:..\..\..\arduinoLCD\test\Pain Drain\libraries\lvgl\src\misc/lv_area.c ****     }
 464              		.loc 1 140 0
 465 005e 0020     		movs	r0, #0
 466              	.LVL45:
 467 0060 00E0     		b	.L16
 468              	.LVL46:
 469              	.L18:
 470 0062 0020     		movs	r0, #0
 471              	.LVL47:
 472              	.L16:
 144:..\..\..\arduinoLCD\test\Pain Drain\libraries\lvgl\src\misc/lv_area.c **** 
 473              		.loc 1 144 0
 474              		@ sp needed
 475 0064 F0BD     		pop	{r4, r5, r6, r7, pc}
 476              		.cfi_endproc
 477              	.LFE12:
 478              		.size	_lv_area_intersect, .-_lv_area_intersect
 479 0066 C046     		.section	.text._lv_area_join,"ax",%progbits
 480              		.align	2
 481              		.global	_lv_area_join
 482              		.code	16
 483              		.thumb_func
 484              		.type	_lv_area_join, %function
ARM GAS  C:\Users\haske\AppData\Local\Temp\cc8C2ZcK.s 			page 22


 485              	_lv_area_join:
 486              	.LFB13:
 153:..\..\..\arduinoLCD\test\Pain Drain\libraries\lvgl\src\misc/lv_area.c ****     a_res_p->x1 = LV_MIN(a1_p->x1, a2_p->x1);
 487              		.loc 1 153 0
 488              		.cfi_startproc
 489              		@ args = 0, pretend = 0, frame = 0
 490              		@ frame_needed = 0, uses_anonymous_args = 0
 491              	.LVL48:
 492 0000 30B5     		push	{r4, r5, lr}
 493              		.cfi_def_cfa_offset 12
 494              		.cfi_offset 4, -12
 495              		.cfi_offset 5, -8
 496              		.cfi_offset 14, -4
 154:..\..\..\arduinoLCD\test\Pain Drain\libraries\lvgl\src\misc/lv_area.c ****     a_res_p->y1 = LV_MIN(a1_p->y1, a2_p->y1);
 497              		.loc 1 154 0
 498 0002 0024     		movs	r4, #0
 499 0004 135F     		ldrsh	r3, [r2, r4]
 500 0006 0024     		movs	r4, #0
 501 0008 0D5F     		ldrsh	r5, [r1, r4]
 502 000a 1C1C     		adds	r4, r3, #0
 503 000c AB42     		cmp	r3, r5
 504 000e 00DD     		ble	.L20
 505 0010 2C1C     		adds	r4, r5, #0
 506              	.L20:
 507 0012 0480     		strh	r4, [r0]
 155:..\..\..\arduinoLCD\test\Pain Drain\libraries\lvgl\src\misc/lv_area.c ****     a_res_p->x2 = LV_MAX(a1_p->x2, a2_p->x2);
 508              		.loc 1 155 0
 509 0014 0224     		movs	r4, #2
 510 0016 135F     		ldrsh	r3, [r2, r4]
 511 0018 0224     		movs	r4, #2
 512 001a 0D5F     		ldrsh	r5, [r1, r4]
 513 001c 1C1C     		adds	r4, r3, #0
 514 001e AB42     		cmp	r3, r5
 515 0020 00DD     		ble	.L21
 516 0022 2C1C     		adds	r4, r5, #0
 517              	.L21:
 518 0024 4480     		strh	r4, [r0, #2]
 156:..\..\..\arduinoLCD\test\Pain Drain\libraries\lvgl\src\misc/lv_area.c ****     a_res_p->y2 = LV_MAX(a1_p->y2, a2_p->y2);
 519              		.loc 1 156 0
 520 0026 0424     		movs	r4, #4
 521 0028 135F     		ldrsh	r3, [r2, r4]
 522 002a 0424     		movs	r4, #4
 523 002c 0D5F     		ldrsh	r5, [r1, r4]
 524 002e 1C1C     		adds	r4, r3, #0
 525 0030 AB42     		cmp	r3, r5
 526 0032 00DA     		bge	.L22
 527 0034 2C1C     		adds	r4, r5, #0
 528              	.L22:
 529 0036 8480     		strh	r4, [r0, #4]
 157:..\..\..\arduinoLCD\test\Pain Drain\libraries\lvgl\src\misc/lv_area.c **** }
 530              		.loc 1 157 0
 531 0038 0623     		movs	r3, #6
 532 003a D35E     		ldrsh	r3, [r2, r3]
 533              	.LVL49:
 534 003c 0622     		movs	r2, #6
 535 003e 895E     		ldrsh	r1, [r1, r2]
 536              	.LVL50:
ARM GAS  C:\Users\haske\AppData\Local\Temp\cc8C2ZcK.s 			page 23


 537 0040 1A1C     		adds	r2, r3, #0
 538 0042 8B42     		cmp	r3, r1
 539 0044 00DA     		bge	.L23
 540 0046 0A1C     		adds	r2, r1, #0
 541              	.L23:
 542 0048 C280     		strh	r2, [r0, #6]
 158:..\..\..\arduinoLCD\test\Pain Drain\libraries\lvgl\src\misc/lv_area.c **** 
 543              		.loc 1 158 0
 544              		@ sp needed
 545 004a 30BD     		pop	{r4, r5, pc}
 546              		.cfi_endproc
 547              	.LFE13:
 548              		.size	_lv_area_join, .-_lv_area_join
 549              		.section	.text._lv_area_is_point_on,"ax",%progbits
 550              		.align	2
 551              		.global	_lv_area_is_point_on
 552              		.code	16
 553              		.thumb_func
 554              		.type	_lv_area_is_point_on, %function
 555              	_lv_area_is_point_on:
 556              	.LFB14:
 168:..\..\..\arduinoLCD\test\Pain Drain\libraries\lvgl\src\misc/lv_area.c ****     /*First check the basic area*/
 557              		.loc 1 168 0
 558              		.cfi_startproc
 559              		@ args = 0, pretend = 0, frame = 8
 560              		@ frame_needed = 0, uses_anonymous_args = 0
 561              	.LVL51:
 562 0000 F0B5     		push	{r4, r5, r6, r7, lr}
 563              		.cfi_def_cfa_offset 20
 564              		.cfi_offset 4, -20
 565              		.cfi_offset 5, -16
 566              		.cfi_offset 6, -12
 567              		.cfi_offset 7, -8
 568              		.cfi_offset 14, -4
 569 0002 83B0     		sub	sp, sp, #12
 570              		.cfi_def_cfa_offset 32
 571 0004 0500     		movs	r5, r0
 572 0006 0C00     		movs	r4, r1
 573              	.LVL52:
 171:..\..\..\arduinoLCD\test\Pain Drain\libraries\lvgl\src\misc/lv_area.c ****         is_on_rect = true;
 574              		.loc 1 171 0
 575 0008 0021     		movs	r1, #0
 576 000a 635E     		ldrsh	r3, [r4, r1]
 577              	.LVL53:
 578 000c 0021     		movs	r1, #0
 579 000e 405E     		ldrsh	r0, [r0, r1]
 580              	.LVL54:
 581 0010 8342     		cmp	r3, r0
 582 0012 0FDB     		blt	.L32
 171:..\..\..\arduinoLCD\test\Pain Drain\libraries\lvgl\src\misc/lv_area.c ****         is_on_rect = true;
 583              		.loc 1 171 0 is_stmt 0 discriminator 1
 584 0014 0426     		movs	r6, #4
 585 0016 A95F     		ldrsh	r1, [r5, r6]
 586 0018 8B42     		cmp	r3, r1
 587 001a 0DDC     		bgt	.L33
 171:..\..\..\arduinoLCD\test\Pain Drain\libraries\lvgl\src\misc/lv_area.c ****         is_on_rect = true;
 588              		.loc 1 171 0 discriminator 2
ARM GAS  C:\Users\haske\AppData\Local\Temp\cc8C2ZcK.s 			page 24


 589 001c 0221     		movs	r1, #2
 590 001e 635E     		ldrsh	r3, [r4, r1]
 591 0020 0226     		movs	r6, #2
 592 0022 A95F     		ldrsh	r1, [r5, r6]
 593 0024 8B42     		cmp	r3, r1
 594 0026 09DB     		blt	.L34
 171:..\..\..\arduinoLCD\test\Pain Drain\libraries\lvgl\src\misc/lv_area.c ****         is_on_rect = true;
 595              		.loc 1 171 0 discriminator 3
 596 0028 0626     		movs	r6, #6
 597 002a A95F     		ldrsh	r1, [r5, r6]
 598 002c 8B42     		cmp	r3, r1
 599 002e 07DD     		ble	.L35
 170:..\..\..\arduinoLCD\test\Pain Drain\libraries\lvgl\src\misc/lv_area.c ****     if((p_p->x >= a_p->x1 && p_p->x <= a_p->x2) && ((p_p->y >= a_p->y1 && p_p->y <= a_p->y2))) {
 600              		.loc 1 170 0 is_stmt 1
 601 0030 0023     		movs	r3, #0
 602 0032 06E0     		b	.L25
 603              	.L32:
 604 0034 0023     		movs	r3, #0
 605 0036 04E0     		b	.L25
 606              	.L33:
 607 0038 0023     		movs	r3, #0
 608 003a 02E0     		b	.L25
 609              	.L34:
 610 003c 0023     		movs	r3, #0
 611 003e 00E0     		b	.L25
 612              	.L35:
 172:..\..\..\arduinoLCD\test\Pain Drain\libraries\lvgl\src\misc/lv_area.c ****     }
 613              		.loc 1 172 0
 614 0040 0123     		movs	r3, #1
 615              	.L25:
 616              	.LVL55:
 174:..\..\..\arduinoLCD\test\Pain Drain\libraries\lvgl\src\misc/lv_area.c ****         return false;
 617              		.loc 1 174 0
 618 0042 002B     		cmp	r3, #0
 619 0044 00D1     		bne	.LCB506
 620 0046 8CE0     		b	.L36	@long jump
 621              	.LCB506:
 177:..\..\..\arduinoLCD\test\Pain Drain\libraries\lvgl\src\misc/lv_area.c ****         /*No radius, it is within the rectangle*/
 622              		.loc 1 177 0
 623 0048 002A     		cmp	r2, #0
 624 004a 00DC     		bgt	.LCB508
 625 004c 8BE0     		b	.L37	@long jump
 626              	.LCB508:
 627              	.LVL56:
 628              	.LBB122:
 629              	.LBB123:
 125:..\..\..\arduinoLCD\test\Pain Drain\libraries\lvgl\src\misc/lv_area.h **** }
 630              		.loc 2 125 0
 631 004e 0421     		movs	r1, #4
 632 0050 6B5E     		ldrsh	r3, [r5, r1]
 633              	.LVL57:
 634 0052 1B1A     		subs	r3, r3, r0
 635 0054 0133     		adds	r3, r3, #1
 636 0056 1BB2     		sxth	r3, r3
 637              	.LVL58:
 638              	.LBE123:
 639              	.LBE122:
ARM GAS  C:\Users\haske\AppData\Local\Temp\cc8C2ZcK.s 			page 25


 181:..\..\..\arduinoLCD\test\Pain Drain\libraries\lvgl\src\misc/lv_area.c ****     lv_coord_t h = lv_area_get_height(a_p) / 2;
 640              		.loc 1 181 0
 641 0058 D90F     		lsrs	r1, r3, #31
 642 005a CB18     		adds	r3, r1, r3
 643 005c 5B10     		asrs	r3, r3, #1
 644              	.LVL59:
 645              	.LBB124:
 646              	.LBB125:
 647              		.loc 2 135 0
 648 005e 0626     		movs	r6, #6
 649 0060 A95F     		ldrsh	r1, [r5, r6]
 650 0062 0227     		movs	r7, #2
 651 0064 EE5F     		ldrsh	r6, [r5, r7]
 652 0066 891B     		subs	r1, r1, r6
 653 0068 0131     		adds	r1, r1, #1
 654 006a 09B2     		sxth	r1, r1
 655              	.LVL60:
 656              	.LBE125:
 657              	.LBE124:
 182:..\..\..\arduinoLCD\test\Pain Drain\libraries\lvgl\src\misc/lv_area.c ****     lv_coord_t max_radius = LV_MIN(w, h);
 658              		.loc 1 182 0
 659 006c CE0F     		lsrs	r6, r1, #31
 660 006e 7118     		adds	r1, r6, r1
 661 0070 4910     		asrs	r1, r1, #1
 662              	.LVL61:
 183:..\..\..\arduinoLCD\test\Pain Drain\libraries\lvgl\src\misc/lv_area.c ****     if(radius > max_radius)
 663              		.loc 1 183 0
 664 0072 1E1C     		adds	r6, r3, #0
 665 0074 8B42     		cmp	r3, r1
 666 0076 00DD     		ble	.L27
 667 0078 0E1C     		adds	r6, r1, #0
 668              	.L27:
 669 007a 36B2     		sxth	r6, r6
 670              	.LVL62:
 184:..\..\..\arduinoLCD\test\Pain Drain\libraries\lvgl\src\misc/lv_area.c ****         radius = max_radius;
 671              		.loc 1 184 0
 672 007c B242     		cmp	r2, r6
 673 007e 00DC     		bgt	.L28
 674 0080 1600     		movs	r6, r2
 675              	.LVL63:
 676              	.L28:
 190:..\..\..\arduinoLCD\test\Pain Drain\libraries\lvgl\src\misc/lv_area.c ****     corner_area.x2 = a_p->x1 + radius;
 677              		.loc 1 190 0
 678 0082 6B46     		mov	r3, sp
 679              	.LVL64:
 680 0084 1880     		strh	r0, [r3]
 681              	.LVL65:
 191:..\..\..\arduinoLCD\test\Pain Drain\libraries\lvgl\src\misc/lv_area.c ****     corner_area.y1 = a_p->y1;
 682              		.loc 1 191 0
 683 0086 0022     		movs	r2, #0
 684 0088 AB5E     		ldrsh	r3, [r5, r2]
 685 008a B6B2     		uxth	r6, r6
 686 008c F318     		adds	r3, r6, r3
 687 008e 6A46     		mov	r2, sp
 688 0090 9380     		strh	r3, [r2, #4]
 192:..\..\..\arduinoLCD\test\Pain Drain\libraries\lvgl\src\misc/lv_area.c ****     corner_area.y2 = a_p->y1 + radius;
 689              		.loc 1 192 0
ARM GAS  C:\Users\haske\AppData\Local\Temp\cc8C2ZcK.s 			page 26


 690 0092 0222     		movs	r2, #2
 691 0094 AB5E     		ldrsh	r3, [r5, r2]
 692 0096 6A46     		mov	r2, sp
 693 0098 5380     		strh	r3, [r2, #2]
 193:..\..\..\arduinoLCD\test\Pain Drain\libraries\lvgl\src\misc/lv_area.c ****     if(_lv_area_is_point_on(&corner_area, p_p, 0)) {
 694              		.loc 1 193 0
 695 009a F318     		adds	r3, r6, r3
 696 009c D380     		strh	r3, [r2, #6]
 194:..\..\..\arduinoLCD\test\Pain Drain\libraries\lvgl\src\misc/lv_area.c ****         corner_area.x2 += radius;
 697              		.loc 1 194 0
 698 009e 0022     		movs	r2, #0
 699 00a0 2100     		movs	r1, r4
 700              	.LVL66:
 701 00a2 6846     		mov	r0, sp
 702 00a4 FFF7FEFF 		bl	_lv_area_is_point_on
 703              	.LVL67:
 704 00a8 0028     		cmp	r0, #0
 705 00aa 0CD0     		beq	.L29
 195:..\..\..\arduinoLCD\test\Pain Drain\libraries\lvgl\src\misc/lv_area.c ****         corner_area.y2 += radius;
 706              		.loc 1 195 0
 707 00ac 6B46     		mov	r3, sp
 708 00ae 9B88     		ldrh	r3, [r3, #4]
 709 00b0 F318     		adds	r3, r6, r3
 710 00b2 6A46     		mov	r2, sp
 711 00b4 9380     		strh	r3, [r2, #4]
 196:..\..\..\arduinoLCD\test\Pain Drain\libraries\lvgl\src\misc/lv_area.c ****         return lv_point_within_circle(&corner_area, p_p);
 712              		.loc 1 196 0
 713 00b6 D388     		ldrh	r3, [r2, #6]
 714 00b8 F618     		adds	r6, r6, r3
 715              	.LVL68:
 716 00ba D680     		strh	r6, [r2, #6]
 197:..\..\..\arduinoLCD\test\Pain Drain\libraries\lvgl\src\misc/lv_area.c ****     }
 717              		.loc 1 197 0
 718 00bc 2100     		movs	r1, r4
 719 00be 6846     		mov	r0, sp
 720 00c0 FFF7FEFF 		bl	lv_point_within_circle
 721              	.LVL69:
 722 00c4 52E0     		b	.L26
 723              	.LVL70:
 724              	.L29:
 200:..\..\..\arduinoLCD\test\Pain Drain\libraries\lvgl\src\misc/lv_area.c ****     corner_area.y2 = a_p->y2;
 725              		.loc 1 200 0
 726 00c6 0622     		movs	r2, #6
 727 00c8 AB5E     		ldrsh	r3, [r5, r2]
 728 00ca 9A1B     		subs	r2, r3, r6
 729 00cc 6946     		mov	r1, sp
 730 00ce 4A80     		strh	r2, [r1, #2]
 201:..\..\..\arduinoLCD\test\Pain Drain\libraries\lvgl\src\misc/lv_area.c ****     if(_lv_area_is_point_on(&corner_area, p_p, 0)) {
 731              		.loc 1 201 0
 732 00d0 CB80     		strh	r3, [r1, #6]
 202:..\..\..\arduinoLCD\test\Pain Drain\libraries\lvgl\src\misc/lv_area.c ****         corner_area.x2 += radius;
 733              		.loc 1 202 0
 734 00d2 0022     		movs	r2, #0
 735 00d4 2100     		movs	r1, r4
 736 00d6 6846     		mov	r0, sp
 737 00d8 FFF7FEFF 		bl	_lv_area_is_point_on
 738              	.LVL71:
ARM GAS  C:\Users\haske\AppData\Local\Temp\cc8C2ZcK.s 			page 27


 739 00dc 0028     		cmp	r0, #0
 740 00de 0CD0     		beq	.L30
 203:..\..\..\arduinoLCD\test\Pain Drain\libraries\lvgl\src\misc/lv_area.c ****         corner_area.y1 -= radius;
 741              		.loc 1 203 0
 742 00e0 6B46     		mov	r3, sp
 743 00e2 9B88     		ldrh	r3, [r3, #4]
 744 00e4 F318     		adds	r3, r6, r3
 745 00e6 6A46     		mov	r2, sp
 746 00e8 9380     		strh	r3, [r2, #4]
 204:..\..\..\arduinoLCD\test\Pain Drain\libraries\lvgl\src\misc/lv_area.c ****         return lv_point_within_circle(&corner_area, p_p);
 747              		.loc 1 204 0
 748 00ea 5388     		ldrh	r3, [r2, #2]
 749 00ec 9E1B     		subs	r6, r3, r6
 750              	.LVL72:
 751 00ee 5680     		strh	r6, [r2, #2]
 205:..\..\..\arduinoLCD\test\Pain Drain\libraries\lvgl\src\misc/lv_area.c ****     }
 752              		.loc 1 205 0
 753 00f0 2100     		movs	r1, r4
 754 00f2 6846     		mov	r0, sp
 755 00f4 FFF7FEFF 		bl	lv_point_within_circle
 756              	.LVL73:
 757 00f8 38E0     		b	.L26
 758              	.LVL74:
 759              	.L30:
 208:..\..\..\arduinoLCD\test\Pain Drain\libraries\lvgl\src\misc/lv_area.c ****     corner_area.x2 = a_p->x2;
 760              		.loc 1 208 0
 761 00fa 0422     		movs	r2, #4
 762 00fc AB5E     		ldrsh	r3, [r5, r2]
 763 00fe 9A1B     		subs	r2, r3, r6
 764 0100 6946     		mov	r1, sp
 765 0102 0A80     		strh	r2, [r1]
 209:..\..\..\arduinoLCD\test\Pain Drain\libraries\lvgl\src\misc/lv_area.c ****     if(_lv_area_is_point_on(&corner_area, p_p, 0)) {
 766              		.loc 1 209 0
 767 0104 8B80     		strh	r3, [r1, #4]
 210:..\..\..\arduinoLCD\test\Pain Drain\libraries\lvgl\src\misc/lv_area.c ****         corner_area.x1 -= radius;
 768              		.loc 1 210 0
 769 0106 0022     		movs	r2, #0
 770 0108 2100     		movs	r1, r4
 771 010a 6846     		mov	r0, sp
 772 010c FFF7FEFF 		bl	_lv_area_is_point_on
 773              	.LVL75:
 774 0110 0028     		cmp	r0, #0
 775 0112 0CD0     		beq	.L31
 211:..\..\..\arduinoLCD\test\Pain Drain\libraries\lvgl\src\misc/lv_area.c ****         corner_area.y1 -= radius;
 776              		.loc 1 211 0
 777 0114 6B46     		mov	r3, sp
 778 0116 1B88     		ldrh	r3, [r3]
 779 0118 9B1B     		subs	r3, r3, r6
 780 011a 6A46     		mov	r2, sp
 781 011c 1380     		strh	r3, [r2]
 212:..\..\..\arduinoLCD\test\Pain Drain\libraries\lvgl\src\misc/lv_area.c ****         return lv_point_within_circle(&corner_area, p_p);
 782              		.loc 1 212 0
 783 011e 5388     		ldrh	r3, [r2, #2]
 784 0120 9E1B     		subs	r6, r3, r6
 785              	.LVL76:
 786 0122 5680     		strh	r6, [r2, #2]
 213:..\..\..\arduinoLCD\test\Pain Drain\libraries\lvgl\src\misc/lv_area.c ****     }
ARM GAS  C:\Users\haske\AppData\Local\Temp\cc8C2ZcK.s 			page 28


 787              		.loc 1 213 0
 788 0124 2100     		movs	r1, r4
 789 0126 6846     		mov	r0, sp
 790 0128 FFF7FEFF 		bl	lv_point_within_circle
 791              	.LVL77:
 792 012c 1EE0     		b	.L26
 793              	.LVL78:
 794              	.L31:
 216:..\..\..\arduinoLCD\test\Pain Drain\libraries\lvgl\src\misc/lv_area.c ****     corner_area.y2 = a_p->y1 + radius;
 795              		.loc 1 216 0
 796 012e 0222     		movs	r2, #2
 797 0130 AB5E     		ldrsh	r3, [r5, r2]
 798 0132 6A46     		mov	r2, sp
 799 0134 5380     		strh	r3, [r2, #2]
 217:..\..\..\arduinoLCD\test\Pain Drain\libraries\lvgl\src\misc/lv_area.c ****     if(_lv_area_is_point_on(&corner_area, p_p, 0)) {
 800              		.loc 1 217 0
 801 0136 F318     		adds	r3, r6, r3
 802 0138 D380     		strh	r3, [r2, #6]
 218:..\..\..\arduinoLCD\test\Pain Drain\libraries\lvgl\src\misc/lv_area.c ****         corner_area.x1 -= radius;
 803              		.loc 1 218 0
 804 013a 0022     		movs	r2, #0
 805 013c 2100     		movs	r1, r4
 806 013e 6846     		mov	r0, sp
 807 0140 FFF7FEFF 		bl	_lv_area_is_point_on
 808              	.LVL79:
 809 0144 0028     		cmp	r0, #0
 810 0146 10D0     		beq	.L38
 219:..\..\..\arduinoLCD\test\Pain Drain\libraries\lvgl\src\misc/lv_area.c ****         corner_area.y2 += radius;
 811              		.loc 1 219 0
 812 0148 6B46     		mov	r3, sp
 813 014a 1B88     		ldrh	r3, [r3]
 814 014c 9B1B     		subs	r3, r3, r6
 815 014e 6A46     		mov	r2, sp
 816 0150 1380     		strh	r3, [r2]
 220:..\..\..\arduinoLCD\test\Pain Drain\libraries\lvgl\src\misc/lv_area.c ****         return lv_point_within_circle(&corner_area, p_p);
 817              		.loc 1 220 0
 818 0152 D388     		ldrh	r3, [r2, #6]
 819 0154 F618     		adds	r6, r6, r3
 820              	.LVL80:
 821 0156 D680     		strh	r6, [r2, #6]
 221:..\..\..\arduinoLCD\test\Pain Drain\libraries\lvgl\src\misc/lv_area.c ****     }
 822              		.loc 1 221 0
 823 0158 2100     		movs	r1, r4
 824 015a 6846     		mov	r0, sp
 825 015c FFF7FEFF 		bl	lv_point_within_circle
 826              	.LVL81:
 827 0160 04E0     		b	.L26
 828              	.LVL82:
 829              	.L36:
 175:..\..\..\arduinoLCD\test\Pain Drain\libraries\lvgl\src\misc/lv_area.c ****     /*Now handle potential rounded rectangles*/
 830              		.loc 1 175 0
 831 0162 0020     		movs	r0, #0
 832 0164 02E0     		b	.L26
 833              	.L37:
 179:..\..\..\arduinoLCD\test\Pain Drain\libraries\lvgl\src\misc/lv_area.c ****     }
 834              		.loc 1 179 0
 835 0166 0120     		movs	r0, #1
ARM GAS  C:\Users\haske\AppData\Local\Temp\cc8C2ZcK.s 			page 29


 836 0168 00E0     		b	.L26
 837              	.LVL83:
 838              	.L38:
 224:..\..\..\arduinoLCD\test\Pain Drain\libraries\lvgl\src\misc/lv_area.c **** }
 839              		.loc 1 224 0
 840 016a 0120     		movs	r0, #1
 841              	.LVL84:
 842              	.L26:
 225:..\..\..\arduinoLCD\test\Pain Drain\libraries\lvgl\src\misc/lv_area.c **** 
 843              		.loc 1 225 0
 844 016c 03B0     		add	sp, sp, #12
 845              		@ sp needed
 846              	.LVL85:
 847              	.LVL86:
 848 016e F0BD     		pop	{r4, r5, r6, r7, pc}
 849              		.cfi_endproc
 850              	.LFE14:
 851              		.size	_lv_area_is_point_on, .-_lv_area_is_point_on
 852              		.section	.text._lv_area_is_on,"ax",%progbits
 853              		.align	2
 854              		.global	_lv_area_is_on
 855              		.code	16
 856              		.thumb_func
 857              		.type	_lv_area_is_on, %function
 858              	_lv_area_is_on:
 859              	.LFB15:
 234:..\..\..\arduinoLCD\test\Pain Drain\libraries\lvgl\src\misc/lv_area.c ****     if((a1_p->x1 <= a2_p->x2) && (a1_p->x2 >= a2_p->x1) && (a1_p->y1 <= a2_p->y2) && (a1_p->y2 >= a
 860              		.loc 1 234 0
 861              		.cfi_startproc
 862              		@ args = 0, pretend = 0, frame = 0
 863              		@ frame_needed = 0, uses_anonymous_args = 0
 864              	.LVL87:
 865 0000 10B5     		push	{r4, lr}
 866              		.cfi_def_cfa_offset 8
 867              		.cfi_offset 4, -8
 868              		.cfi_offset 14, -4
 235:..\..\..\arduinoLCD\test\Pain Drain\libraries\lvgl\src\misc/lv_area.c ****         return true;
 869              		.loc 1 235 0
 870 0002 0023     		movs	r3, #0
 871 0004 C25E     		ldrsh	r2, [r0, r3]
 872 0006 0424     		movs	r4, #4
 873 0008 0B5F     		ldrsh	r3, [r1, r4]
 874 000a 9A42     		cmp	r2, r3
 875 000c 13DC     		bgt	.L41
 235:..\..\..\arduinoLCD\test\Pain Drain\libraries\lvgl\src\misc/lv_area.c ****         return true;
 876              		.loc 1 235 0 is_stmt 0 discriminator 1
 877 000e 0423     		movs	r3, #4
 878 0010 C25E     		ldrsh	r2, [r0, r3]
 879 0012 0024     		movs	r4, #0
 880 0014 0B5F     		ldrsh	r3, [r1, r4]
 881 0016 9A42     		cmp	r2, r3
 882 0018 0FDB     		blt	.L42
 235:..\..\..\arduinoLCD\test\Pain Drain\libraries\lvgl\src\misc/lv_area.c ****         return true;
 883              		.loc 1 235 0 discriminator 2
 884 001a 0223     		movs	r3, #2
 885 001c C25E     		ldrsh	r2, [r0, r3]
 886 001e 0624     		movs	r4, #6
ARM GAS  C:\Users\haske\AppData\Local\Temp\cc8C2ZcK.s 			page 30


 887 0020 0B5F     		ldrsh	r3, [r1, r4]
 888 0022 9A42     		cmp	r2, r3
 889 0024 0BDC     		bgt	.L43
 235:..\..\..\arduinoLCD\test\Pain Drain\libraries\lvgl\src\misc/lv_area.c ****         return true;
 890              		.loc 1 235 0 discriminator 3
 891 0026 0623     		movs	r3, #6
 892 0028 C25E     		ldrsh	r2, [r0, r3]
 893 002a 0223     		movs	r3, #2
 894 002c CB5E     		ldrsh	r3, [r1, r3]
 895              	.LVL88:
 896 002e 9A42     		cmp	r2, r3
 897 0030 07DA     		bge	.L44
 239:..\..\..\arduinoLCD\test\Pain Drain\libraries\lvgl\src\misc/lv_area.c ****     }
 898              		.loc 1 239 0 is_stmt 1
 899 0032 0020     		movs	r0, #0
 900              	.LVL89:
 901 0034 06E0     		b	.L40
 902              	.LVL90:
 903              	.L41:
 904 0036 0020     		movs	r0, #0
 905              	.LVL91:
 906 0038 04E0     		b	.L40
 907              	.LVL92:
 908              	.L42:
 909 003a 0020     		movs	r0, #0
 910              	.LVL93:
 911 003c 02E0     		b	.L40
 912              	.LVL94:
 913              	.L43:
 914 003e 0020     		movs	r0, #0
 915              	.LVL95:
 916 0040 00E0     		b	.L40
 917              	.LVL96:
 918              	.L44:
 236:..\..\..\arduinoLCD\test\Pain Drain\libraries\lvgl\src\misc/lv_area.c ****     }
 919              		.loc 1 236 0
 920 0042 0120     		movs	r0, #1
 921              	.LVL97:
 922              	.L40:
 241:..\..\..\arduinoLCD\test\Pain Drain\libraries\lvgl\src\misc/lv_area.c **** 
 923              		.loc 1 241 0
 924              		@ sp needed
 925 0044 10BD     		pop	{r4, pc}
 926              		.cfi_endproc
 927              	.LFE15:
 928              		.size	_lv_area_is_on, .-_lv_area_is_on
 929 0046 C046     		.section	.text._lv_area_is_in,"ax",%progbits
 930              		.align	2
 931              		.global	_lv_area_is_in
 932              		.code	16
 933              		.thumb_func
 934              		.type	_lv_area_is_in, %function
 935              	_lv_area_is_in:
 936              	.LFB16:
 251:..\..\..\arduinoLCD\test\Pain Drain\libraries\lvgl\src\misc/lv_area.c ****     bool is_in = false;
 937              		.loc 1 251 0
 938              		.cfi_startproc
ARM GAS  C:\Users\haske\AppData\Local\Temp\cc8C2ZcK.s 			page 31


 939              		@ args = 0, pretend = 0, frame = 8
 940              		@ frame_needed = 0, uses_anonymous_args = 0
 941              	.LVL98:
 942 0000 F0B5     		push	{r4, r5, r6, r7, lr}
 943              		.cfi_def_cfa_offset 20
 944              		.cfi_offset 4, -20
 945              		.cfi_offset 5, -16
 946              		.cfi_offset 6, -12
 947              		.cfi_offset 7, -8
 948              		.cfi_offset 14, -4
 949 0002 83B0     		sub	sp, sp, #12
 950              		.cfi_def_cfa_offset 32
 951 0004 0400     		movs	r4, r0
 952 0006 0E00     		movs	r6, r1
 953 0008 1500     		movs	r5, r2
 954              	.LVL99:
 254:..\..\..\arduinoLCD\test\Pain Drain\libraries\lvgl\src\misc/lv_area.c ****        ain_p->y2 <= aholder_p->y2) {
 955              		.loc 1 254 0
 956 000a 0022     		movs	r2, #0
 957 000c 835E     		ldrsh	r3, [r0, r2]
 958              	.LVL100:
 959 000e 0021     		movs	r1, #0
 960 0010 725E     		ldrsh	r2, [r6, r1]
 961              	.LVL101:
 962 0012 9342     		cmp	r3, r2
 963 0014 13DB     		blt	.L48
 254:..\..\..\arduinoLCD\test\Pain Drain\libraries\lvgl\src\misc/lv_area.c ****        ain_p->y2 <= aholder_p->y2) {
 964              		.loc 1 254 0 is_stmt 0 discriminator 1
 965 0016 0222     		movs	r2, #2
 966 0018 815E     		ldrsh	r1, [r0, r2]
 967 001a 0220     		movs	r0, #2
 968 001c 325E     		ldrsh	r2, [r6, r0]
 969              	.LVL102:
 970 001e 9142     		cmp	r1, r2
 971 0020 0FDB     		blt	.L49
 254:..\..\..\arduinoLCD\test\Pain Drain\libraries\lvgl\src\misc/lv_area.c ****        ain_p->y2 <= aholder_p->y2) {
 972              		.loc 1 254 0 discriminator 2
 973 0022 0422     		movs	r2, #4
 974 0024 A15E     		ldrsh	r1, [r4, r2]
 975 0026 0420     		movs	r0, #4
 976 0028 325E     		ldrsh	r2, [r6, r0]
 977 002a 9142     		cmp	r1, r2
 978 002c 0BDC     		bgt	.L50
 255:..\..\..\arduinoLCD\test\Pain Drain\libraries\lvgl\src\misc/lv_area.c ****         is_in = true;
 979              		.loc 1 255 0 is_stmt 1 discriminator 3
 980 002e 0622     		movs	r2, #6
 981 0030 A15E     		ldrsh	r1, [r4, r2]
 982 0032 0620     		movs	r0, #6
 983 0034 325E     		ldrsh	r2, [r6, r0]
 254:..\..\..\arduinoLCD\test\Pain Drain\libraries\lvgl\src\misc/lv_area.c ****        ain_p->y2 <= aholder_p->y2) {
 984              		.loc 1 254 0 discriminator 3
 985 0036 9142     		cmp	r1, r2
 986 0038 07DD     		ble	.L51
 252:..\..\..\arduinoLCD\test\Pain Drain\libraries\lvgl\src\misc/lv_area.c **** 
 987              		.loc 1 252 0
 988 003a 0022     		movs	r2, #0
 989 003c 06E0     		b	.L46
ARM GAS  C:\Users\haske\AppData\Local\Temp\cc8C2ZcK.s 			page 32


 990              	.LVL103:
 991              	.L48:
 992 003e 0022     		movs	r2, #0
 993 0040 04E0     		b	.L46
 994              	.LVL104:
 995              	.L49:
 996 0042 0022     		movs	r2, #0
 997 0044 02E0     		b	.L46
 998              	.L50:
 999 0046 0022     		movs	r2, #0
 1000 0048 00E0     		b	.L46
 1001              	.L51:
 256:..\..\..\arduinoLCD\test\Pain Drain\libraries\lvgl\src\misc/lv_area.c ****     }
 1002              		.loc 1 256 0
 1003 004a 0122     		movs	r2, #1
 1004              	.L46:
 1005              	.LVL105:
 259:..\..\..\arduinoLCD\test\Pain Drain\libraries\lvgl\src\misc/lv_area.c ****     if(radius == 0) return true;
 1006              		.loc 1 259 0
 1007 004c 002A     		cmp	r2, #0
 1008 004e 2DD0     		beq	.L52
 260:..\..\..\arduinoLCD\test\Pain Drain\libraries\lvgl\src\misc/lv_area.c **** 
 1009              		.loc 1 260 0
 1010 0050 002D     		cmp	r5, #0
 1011 0052 2DD0     		beq	.L53
 265:..\..\..\arduinoLCD\test\Pain Drain\libraries\lvgl\src\misc/lv_area.c ****     p.y = ain_p->y1;
 1012              		.loc 1 265 0
 1013 0054 01A9     		add	r1, sp, #4
 1014 0056 0B80     		strh	r3, [r1]
 266:..\..\..\arduinoLCD\test\Pain Drain\libraries\lvgl\src\misc/lv_area.c ****     if(_lv_area_is_point_on(aholder_p, &p, radius) == false) return false;
 1015              		.loc 1 266 0
 1016 0058 0222     		movs	r2, #2
 1017 005a A35E     		ldrsh	r3, [r4, r2]
 1018              	.LVL106:
 1019 005c 4B80     		strh	r3, [r1, #2]
 267:..\..\..\arduinoLCD\test\Pain Drain\libraries\lvgl\src\misc/lv_area.c **** 
 1020              		.loc 1 267 0
 1021 005e 2A00     		movs	r2, r5
 1022 0060 3000     		movs	r0, r6
 1023 0062 FFF7FEFF 		bl	_lv_area_is_point_on
 1024              	.LVL107:
 1025 0066 0028     		cmp	r0, #0
 1026 0068 23D0     		beq	.L47
 269:..\..\..\arduinoLCD\test\Pain Drain\libraries\lvgl\src\misc/lv_area.c ****     p.y = ain_p->y1;
 1027              		.loc 1 269 0
 1028 006a 0423     		movs	r3, #4
 1029 006c E75E     		ldrsh	r7, [r4, r3]
 1030 006e 01A9     		add	r1, sp, #4
 1031 0070 0F80     		strh	r7, [r1]
 270:..\..\..\arduinoLCD\test\Pain Drain\libraries\lvgl\src\misc/lv_area.c ****     if(_lv_area_is_point_on(aholder_p, &p, radius) == false) return false;
 1032              		.loc 1 270 0
 1033 0072 0222     		movs	r2, #2
 1034 0074 A35E     		ldrsh	r3, [r4, r2]
 1035 0076 4B80     		strh	r3, [r1, #2]
 271:..\..\..\arduinoLCD\test\Pain Drain\libraries\lvgl\src\misc/lv_area.c **** 
 1036              		.loc 1 271 0
 1037 0078 2A00     		movs	r2, r5
ARM GAS  C:\Users\haske\AppData\Local\Temp\cc8C2ZcK.s 			page 33


 1038 007a 3000     		movs	r0, r6
 1039 007c FFF7FEFF 		bl	_lv_area_is_point_on
 1040              	.LVL108:
 1041 0080 0028     		cmp	r0, #0
 1042 0082 16D0     		beq	.L47
 273:..\..\..\arduinoLCD\test\Pain Drain\libraries\lvgl\src\misc/lv_area.c ****     p.y = ain_p->y2;
 1043              		.loc 1 273 0
 1044 0084 0022     		movs	r2, #0
 1045 0086 A35E     		ldrsh	r3, [r4, r2]
 1046 0088 01A9     		add	r1, sp, #4
 1047 008a 0B80     		strh	r3, [r1]
 274:..\..\..\arduinoLCD\test\Pain Drain\libraries\lvgl\src\misc/lv_area.c ****     if(_lv_area_is_point_on(aholder_p, &p, radius) == false) return false;
 1048              		.loc 1 274 0
 1049 008c 0622     		movs	r2, #6
 1050 008e A35E     		ldrsh	r3, [r4, r2]
 1051 0090 4B80     		strh	r3, [r1, #2]
 275:..\..\..\arduinoLCD\test\Pain Drain\libraries\lvgl\src\misc/lv_area.c **** 
 1052              		.loc 1 275 0
 1053 0092 2A00     		movs	r2, r5
 1054 0094 3000     		movs	r0, r6
 1055 0096 FFF7FEFF 		bl	_lv_area_is_point_on
 1056              	.LVL109:
 1057 009a 0028     		cmp	r0, #0
 1058 009c 09D0     		beq	.L47
 277:..\..\..\arduinoLCD\test\Pain Drain\libraries\lvgl\src\misc/lv_area.c ****     p.y = ain_p->y2;
 1059              		.loc 1 277 0
 1060 009e 01A9     		add	r1, sp, #4
 1061 00a0 0F80     		strh	r7, [r1]
 279:..\..\..\arduinoLCD\test\Pain Drain\libraries\lvgl\src\misc/lv_area.c **** 
 1062              		.loc 1 279 0
 1063 00a2 2A00     		movs	r2, r5
 1064 00a4 3000     		movs	r0, r6
 1065 00a6 FFF7FEFF 		bl	_lv_area_is_point_on
 1066              	.LVL110:
 1067 00aa 02E0     		b	.L47
 1068              	.LVL111:
 1069              	.L52:
 259:..\..\..\arduinoLCD\test\Pain Drain\libraries\lvgl\src\misc/lv_area.c ****     if(radius == 0) return true;
 1070              		.loc 1 259 0
 1071 00ac 0020     		movs	r0, #0
 1072 00ae 00E0     		b	.L47
 1073              	.L53:
 260:..\..\..\arduinoLCD\test\Pain Drain\libraries\lvgl\src\misc/lv_area.c **** 
 1074              		.loc 1 260 0
 1075 00b0 0120     		movs	r0, #1
 1076              	.LVL112:
 1077              	.L47:
 282:..\..\..\arduinoLCD\test\Pain Drain\libraries\lvgl\src\misc/lv_area.c **** 
 1078              		.loc 1 282 0
 1079 00b2 03B0     		add	sp, sp, #12
 1080              		@ sp needed
 1081              	.LVL113:
 1082              	.LVL114:
 1083 00b4 F0BD     		pop	{r4, r5, r6, r7, pc}
 1084              		.cfi_endproc
 1085              	.LFE16:
 1086              		.size	_lv_area_is_in, .-_lv_area_is_in
ARM GAS  C:\Users\haske\AppData\Local\Temp\cc8C2ZcK.s 			page 34


 1087 00b6 C046     		.section	.text._lv_area_is_out,"ax",%progbits
 1088              		.align	2
 1089              		.global	_lv_area_is_out
 1090              		.code	16
 1091              		.thumb_func
 1092              		.type	_lv_area_is_out, %function
 1093              	_lv_area_is_out:
 1094              	.LFB17:
 292:..\..\..\arduinoLCD\test\Pain Drain\libraries\lvgl\src\misc/lv_area.c ****     if(aout_p->x2 < aholder_p->x1 || aout_p->y2 < aholder_p->y1 || aout_p->x1 > aholder_p->x2 ||
 1095              		.loc 1 292 0
 1096              		.cfi_startproc
 1097              		@ args = 0, pretend = 0, frame = 16
 1098              		@ frame_needed = 0, uses_anonymous_args = 0
 1099              	.LVL115:
 1100 0000 F0B5     		push	{r4, r5, r6, r7, lr}
 1101              		.cfi_def_cfa_offset 20
 1102              		.cfi_offset 4, -20
 1103              		.cfi_offset 5, -16
 1104              		.cfi_offset 6, -12
 1105              		.cfi_offset 7, -8
 1106              		.cfi_offset 14, -4
 1107 0002 5746     		mov	r7, r10
 1108 0004 4E46     		mov	r6, r9
 1109 0006 C0B4     		push	{r6, r7}
 1110              		.cfi_def_cfa_offset 28
 1111              		.cfi_offset 9, -28
 1112              		.cfi_offset 10, -24
 1113 0008 85B0     		sub	sp, sp, #20
 1114              		.cfi_def_cfa_offset 48
 1115 000a 0500     		movs	r5, r0
 1116 000c 0C00     		movs	r4, r1
 1117 000e 1000     		movs	r0, r2
 1118              	.LVL116:
 1119 0010 0192     		str	r2, [sp, #4]
 293:..\..\..\arduinoLCD\test\Pain Drain\libraries\lvgl\src\misc/lv_area.c ****        aout_p->y1 > aholder_p->y2) {
 1120              		.loc 1 293 0
 1121 0012 0423     		movs	r3, #4
 1122 0014 EF5E     		ldrsh	r7, [r5, r3]
 1123 0016 0022     		movs	r2, #0
 1124 0018 8B5E     		ldrsh	r3, [r1, r2]
 1125              	.LVL117:
 1126 001a 9F42     		cmp	r7, r3
 1127 001c 3EDB     		blt	.L56
 293:..\..\..\arduinoLCD\test\Pain Drain\libraries\lvgl\src\misc/lv_area.c ****        aout_p->y1 > aholder_p->y2) {
 1128              		.loc 1 293 0 is_stmt 0 discriminator 1
 1129 001e 0622     		movs	r2, #6
 1130 0020 AB5E     		ldrsh	r3, [r5, r2]
 1131 0022 9946     		mov	r9, r3
 1132 0024 0222     		movs	r2, #2
 1133 0026 8B5E     		ldrsh	r3, [r1, r2]
 1134 0028 9945     		cmp	r9, r3
 1135 002a 39DB     		blt	.L57
 293:..\..\..\arduinoLCD\test\Pain Drain\libraries\lvgl\src\misc/lv_area.c ****        aout_p->y1 > aholder_p->y2) {
 1136              		.loc 1 293 0 discriminator 2
 1137 002c 0022     		movs	r2, #0
 1138 002e AB5E     		ldrsh	r3, [r5, r2]
 1139 0030 0421     		movs	r1, #4
ARM GAS  C:\Users\haske\AppData\Local\Temp\cc8C2ZcK.s 			page 35


 1140 0032 625E     		ldrsh	r2, [r4, r1]
 1141              	.LVL118:
 1142 0034 9342     		cmp	r3, r2
 1143 0036 35DC     		bgt	.L58
 294:..\..\..\arduinoLCD\test\Pain Drain\libraries\lvgl\src\misc/lv_area.c ****         return true;
 1144              		.loc 1 294 0 is_stmt 1 discriminator 3
 1145 0038 0221     		movs	r1, #2
 1146 003a 6A5E     		ldrsh	r2, [r5, r1]
 1147 003c 0626     		movs	r6, #6
 1148 003e A15F     		ldrsh	r1, [r4, r6]
 293:..\..\..\arduinoLCD\test\Pain Drain\libraries\lvgl\src\misc/lv_area.c ****        aout_p->y1 > aholder_p->y2) {
 1149              		.loc 1 293 0 discriminator 3
 1150 0040 8A42     		cmp	r2, r1
 1151 0042 31DC     		bgt	.L59
 298:..\..\..\arduinoLCD\test\Pain Drain\libraries\lvgl\src\misc/lv_area.c **** 
 1152              		.loc 1 298 0
 1153 0044 0028     		cmp	r0, #0
 1154 0046 31D0     		beq	.L60
 303:..\..\..\arduinoLCD\test\Pain Drain\libraries\lvgl\src\misc/lv_area.c ****     p.y = aout_p->y1;
 1155              		.loc 1 303 0
 1156 0048 03A9     		add	r1, sp, #12
 1157 004a 0B80     		strh	r3, [r1]
 304:..\..\..\arduinoLCD\test\Pain Drain\libraries\lvgl\src\misc/lv_area.c ****     if(_lv_area_is_point_on(aholder_p, &p, radius)) return false;
 1158              		.loc 1 304 0
 1159 004c 4A80     		strh	r2, [r1, #2]
 305:..\..\..\arduinoLCD\test\Pain Drain\libraries\lvgl\src\misc/lv_area.c **** 
 1160              		.loc 1 305 0
 1161 004e 0200     		movs	r2, r0
 1162 0050 2000     		movs	r0, r4
 1163 0052 FFF7FEFF 		bl	_lv_area_is_point_on
 1164              	.LVL119:
 1165 0056 061E     		subs	r6, r0, #0
 1166 0058 2AD1     		bne	.L61
 307:..\..\..\arduinoLCD\test\Pain Drain\libraries\lvgl\src\misc/lv_area.c ****     p.y = aout_p->y1;
 1167              		.loc 1 307 0
 1168 005a 03A9     		add	r1, sp, #12
 1169 005c 0F80     		strh	r7, [r1]
 308:..\..\..\arduinoLCD\test\Pain Drain\libraries\lvgl\src\misc/lv_area.c ****     if(_lv_area_is_point_on(aholder_p, &p, radius)) return false;
 1170              		.loc 1 308 0
 1171 005e 0222     		movs	r2, #2
 1172 0060 AB5E     		ldrsh	r3, [r5, r2]
 1173 0062 4B80     		strh	r3, [r1, #2]
 309:..\..\..\arduinoLCD\test\Pain Drain\libraries\lvgl\src\misc/lv_area.c **** 
 1174              		.loc 1 309 0
 1175 0064 019A     		ldr	r2, [sp, #4]
 1176 0066 2000     		movs	r0, r4
 1177 0068 FFF7FEFF 		bl	_lv_area_is_point_on
 1178              	.LVL120:
 1179 006c 8246     		mov	r10, r0
 1180 006e 0028     		cmp	r0, #0
 1181 0070 23D1     		bne	.L55
 311:..\..\..\arduinoLCD\test\Pain Drain\libraries\lvgl\src\misc/lv_area.c ****     p.y = aout_p->y2;
 1182              		.loc 1 311 0
 1183 0072 0022     		movs	r2, #0
 1184 0074 AB5E     		ldrsh	r3, [r5, r2]
 1185 0076 03A9     		add	r1, sp, #12
 1186 0078 0B80     		strh	r3, [r1]
ARM GAS  C:\Users\haske\AppData\Local\Temp\cc8C2ZcK.s 			page 36


 312:..\..\..\arduinoLCD\test\Pain Drain\libraries\lvgl\src\misc/lv_area.c ****     if(_lv_area_is_point_on(aholder_p, &p, radius)) return false;
 1187              		.loc 1 312 0
 1188 007a 4B46     		mov	r3, r9
 1189 007c 4B80     		strh	r3, [r1, #2]
 313:..\..\..\arduinoLCD\test\Pain Drain\libraries\lvgl\src\misc/lv_area.c **** 
 1190              		.loc 1 313 0
 1191 007e 019A     		ldr	r2, [sp, #4]
 1192 0080 2000     		movs	r0, r4
 1193 0082 FFF7FEFF 		bl	_lv_area_is_point_on
 1194              	.LVL121:
 1195 0086 061E     		subs	r6, r0, #0
 1196 0088 14D1     		bne	.L62
 315:..\..\..\arduinoLCD\test\Pain Drain\libraries\lvgl\src\misc/lv_area.c ****     p.y = aout_p->y2;
 1197              		.loc 1 315 0
 1198 008a 03A9     		add	r1, sp, #12
 1199 008c 0F80     		strh	r7, [r1]
 317:..\..\..\arduinoLCD\test\Pain Drain\libraries\lvgl\src\misc/lv_area.c **** 
 1200              		.loc 1 317 0
 1201 008e 019A     		ldr	r2, [sp, #4]
 1202 0090 2000     		movs	r0, r4
 1203 0092 FFF7FEFF 		bl	_lv_area_is_point_on
 1204              	.LVL122:
 1205 0096 0028     		cmp	r0, #0
 1206 0098 0ED0     		beq	.L63
 1207 009a 0EE0     		b	.L55
 1208              	.LVL123:
 1209              	.L56:
 295:..\..\..\arduinoLCD\test\Pain Drain\libraries\lvgl\src\misc/lv_area.c ****     }
 1210              		.loc 1 295 0
 1211 009c 0126     		movs	r6, #1
 1212 009e 0CE0     		b	.L55
 1213              	.L57:
 1214 00a0 0126     		movs	r6, #1
 1215 00a2 0AE0     		b	.L55
 1216              	.LVL124:
 1217              	.L58:
 1218 00a4 0126     		movs	r6, #1
 1219 00a6 08E0     		b	.L55
 1220              	.L59:
 1221 00a8 0126     		movs	r6, #1
 1222 00aa 06E0     		b	.L55
 1223              	.L60:
 298:..\..\..\arduinoLCD\test\Pain Drain\libraries\lvgl\src\misc/lv_area.c **** 
 1224              		.loc 1 298 0
 1225 00ac 0026     		movs	r6, #0
 1226 00ae 04E0     		b	.L55
 1227              	.L61:
 305:..\..\..\arduinoLCD\test\Pain Drain\libraries\lvgl\src\misc/lv_area.c **** 
 1228              		.loc 1 305 0
 1229 00b0 0026     		movs	r6, #0
 1230 00b2 02E0     		b	.L55
 1231              	.L62:
 313:..\..\..\arduinoLCD\test\Pain Drain\libraries\lvgl\src\misc/lv_area.c **** 
 1232              		.loc 1 313 0
 1233 00b4 5646     		mov	r6, r10
 1234 00b6 00E0     		b	.L55
 1235              	.L63:
ARM GAS  C:\Users\haske\AppData\Local\Temp\cc8C2ZcK.s 			page 37


 319:..\..\..\arduinoLCD\test\Pain Drain\libraries\lvgl\src\misc/lv_area.c **** }
 1236              		.loc 1 319 0
 1237 00b8 0126     		movs	r6, #1
 1238              	.L55:
 320:..\..\..\arduinoLCD\test\Pain Drain\libraries\lvgl\src\misc/lv_area.c **** 
 1239              		.loc 1 320 0
 1240 00ba 3000     		movs	r0, r6
 1241 00bc 05B0     		add	sp, sp, #20
 1242              		@ sp needed
 1243              	.LVL125:
 1244              	.LVL126:
 1245 00be 0CBC     		pop	{r2, r3}
 1246 00c0 9146     		mov	r9, r2
 1247 00c2 9A46     		mov	r10, r3
 1248 00c4 F0BD     		pop	{r4, r5, r6, r7, pc}
 1249              		.cfi_endproc
 1250              	.LFE17:
 1251              		.size	_lv_area_is_out, .-_lv_area_is_out
 1252 00c6 C046     		.section	.text._lv_area_is_equal,"ax",%progbits
 1253              		.align	2
 1254              		.global	_lv_area_is_equal
 1255              		.code	16
 1256              		.thumb_func
 1257              		.type	_lv_area_is_equal, %function
 1258              	_lv_area_is_equal:
 1259              	.LFB18:
 323:..\..\..\arduinoLCD\test\Pain Drain\libraries\lvgl\src\misc/lv_area.c ****     return a->x1 == b->x1 && a->x2 == b->x2 && a->y1 == b->y1 && a->y2 == b->y2;
 1260              		.loc 1 323 0
 1261              		.cfi_startproc
 1262              		@ args = 0, pretend = 0, frame = 0
 1263              		@ frame_needed = 0, uses_anonymous_args = 0
 1264              	.LVL127:
 1265 0000 10B5     		push	{r4, lr}
 1266              		.cfi_def_cfa_offset 8
 1267              		.cfi_offset 4, -8
 1268              		.cfi_offset 14, -4
 324:..\..\..\arduinoLCD\test\Pain Drain\libraries\lvgl\src\misc/lv_area.c **** }
 1269              		.loc 1 324 0
 1270 0002 0023     		movs	r3, #0
 1271 0004 C25E     		ldrsh	r2, [r0, r3]
 1272 0006 0024     		movs	r4, #0
 1273 0008 0B5F     		ldrsh	r3, [r1, r4]
 1274 000a 9A42     		cmp	r2, r3
 1275 000c 13D1     		bne	.L66
 324:..\..\..\arduinoLCD\test\Pain Drain\libraries\lvgl\src\misc/lv_area.c **** }
 1276              		.loc 1 324 0 is_stmt 0 discriminator 1
 1277 000e 0423     		movs	r3, #4
 1278 0010 C25E     		ldrsh	r2, [r0, r3]
 1279 0012 0424     		movs	r4, #4
 1280 0014 0B5F     		ldrsh	r3, [r1, r4]
 1281 0016 9A42     		cmp	r2, r3
 1282 0018 0FD1     		bne	.L67
 324:..\..\..\arduinoLCD\test\Pain Drain\libraries\lvgl\src\misc/lv_area.c **** }
 1283              		.loc 1 324 0 discriminator 3
 1284 001a 0223     		movs	r3, #2
 1285 001c C25E     		ldrsh	r2, [r0, r3]
 1286 001e 0224     		movs	r4, #2
ARM GAS  C:\Users\haske\AppData\Local\Temp\cc8C2ZcK.s 			page 38


 1287 0020 0B5F     		ldrsh	r3, [r1, r4]
 1288 0022 9A42     		cmp	r2, r3
 1289 0024 0BD1     		bne	.L68
 324:..\..\..\arduinoLCD\test\Pain Drain\libraries\lvgl\src\misc/lv_area.c **** }
 1290              		.loc 1 324 0 discriminator 5
 1291 0026 0623     		movs	r3, #6
 1292 0028 C25E     		ldrsh	r2, [r0, r3]
 1293 002a 0623     		movs	r3, #6
 1294 002c CB5E     		ldrsh	r3, [r1, r3]
 1295              	.LVL128:
 1296 002e 9A42     		cmp	r2, r3
 1297 0030 07D0     		beq	.L69
 324:..\..\..\arduinoLCD\test\Pain Drain\libraries\lvgl\src\misc/lv_area.c **** }
 1298              		.loc 1 324 0
 1299 0032 0020     		movs	r0, #0
 1300              	.LVL129:
 1301 0034 06E0     		b	.L65
 1302              	.LVL130:
 1303              	.L66:
 1304 0036 0020     		movs	r0, #0
 1305              	.LVL131:
 1306 0038 04E0     		b	.L65
 1307              	.LVL132:
 1308              	.L67:
 1309 003a 0020     		movs	r0, #0
 1310              	.LVL133:
 1311 003c 02E0     		b	.L65
 1312              	.LVL134:
 1313              	.L68:
 1314 003e 0020     		movs	r0, #0
 1315              	.LVL135:
 1316 0040 00E0     		b	.L65
 1317              	.LVL136:
 1318              	.L69:
 1319 0042 0120     		movs	r0, #1
 1320              	.LVL137:
 1321              	.L65:
 325:..\..\..\arduinoLCD\test\Pain Drain\libraries\lvgl\src\misc/lv_area.c **** 
 1322              		.loc 1 325 0 is_stmt 1 discriminator 10
 1323              		@ sp needed
 1324 0044 10BD     		pop	{r4, pc}
 1325              		.cfi_endproc
 1326              	.LFE18:
 1327              		.size	_lv_area_is_equal, .-_lv_area_is_equal
 1328 0046 C046     		.section	.text.lv_area_align,"ax",%progbits
 1329              		.align	2
 1330              		.global	lv_area_align
 1331              		.code	16
 1332              		.thumb_func
 1333              		.type	lv_area_align, %function
 1334              	lv_area_align:
 1335              	.LFB19:
 335:..\..\..\arduinoLCD\test\Pain Drain\libraries\lvgl\src\misc/lv_area.c **** 
 1336              		.loc 1 335 0
 1337              		.cfi_startproc
 1338              		@ args = 4, pretend = 0, frame = 0
 1339              		@ frame_needed = 0, uses_anonymous_args = 0
ARM GAS  C:\Users\haske\AppData\Local\Temp\cc8C2ZcK.s 			page 39


 1340              	.LVL138:
 1341 0000 F0B5     		push	{r4, r5, r6, r7, lr}
 1342              		.cfi_def_cfa_offset 20
 1343              		.cfi_offset 4, -20
 1344              		.cfi_offset 5, -16
 1345              		.cfi_offset 6, -12
 1346              		.cfi_offset 7, -8
 1347              		.cfi_offset 14, -4
 1348 0002 9C46     		mov	ip, r3
 1349 0004 05AC     		add	r4, sp, #20
 1350              	.LVL139:
 1351 0006 0026     		movs	r6, #0
 1352 0008 A65F     		ldrsh	r6, [r4, r6]
 1353              	.LVL140:
 339:..\..\..\arduinoLCD\test\Pain Drain\libraries\lvgl\src\misc/lv_area.c ****         case LV_ALIGN_CENTER:
 1354              		.loc 1 339 0
 1355 000a 152A     		cmp	r2, #21
 1356 000c 00D9     		bls	.LCB1195
 1357 000e FDE1     		b	.L93	@long jump
 1358              	.LCB1195:
 1359 0010 9200     		lsls	r2, r2, #2
 1360              	.LVL141:
 1361 0012 F14C     		ldr	r4, .L94
 1362 0014 A258     		ldr	r2, [r4, r2]
 1363 0016 9746     		mov	pc, r2
 1364              		.section	.rodata
 1365              		.align	2
 1366              	.L73:
 1367 0000 0C040000 		.word	.L93
 1368 0004 0C040000 		.word	.L93
 1369 0008 72000000 		.word	.L72
 1370 000c A2000000 		.word	.L74
 1371 0010 C6000000 		.word	.L75
 1372 0014 EA000000 		.word	.L76
 1373 0018 38010000 		.word	.L77
 1374 001c 7A010000 		.word	.L78
 1375 0020 AA010000 		.word	.L79
 1376 0024 18000000 		.word	.L80
 1377 0028 F8010000 		.word	.L81
 1378 002c 0E020000 		.word	.L82
 1379 0030 4E020000 		.word	.L83
 1380 0034 82020000 		.word	.L84
 1381 0038 94020000 		.word	.L85
 1382 003c D0020000 		.word	.L86
 1383 0040 00030000 		.word	.L87
 1384 0044 16030000 		.word	.L88
 1385 0048 56030000 		.word	.L89
 1386 004c 8A030000 		.word	.L90
 1387 0050 9C030000 		.word	.L91
 1388 0054 DC030000 		.word	.L92
 1389              		.section	.text.lv_area_align
 1390              	.L80:
 1391              	.LVL142:
 1392              	.LBB126:
 1393              	.LBB127:
 125:..\..\..\arduinoLCD\test\Pain Drain\libraries\lvgl\src\misc/lv_area.h **** }
 1394              		.loc 2 125 0
ARM GAS  C:\Users\haske\AppData\Local\Temp\cc8C2ZcK.s 			page 40


 1395 0018 0423     		movs	r3, #4
 1396 001a C25E     		ldrsh	r2, [r0, r3]
 1397              	.LVL143:
 1398 001c 0023     		movs	r3, #0
 1399 001e C45E     		ldrsh	r4, [r0, r3]
 1400 0020 121B     		subs	r2, r2, r4
 1401 0022 0132     		adds	r2, r2, #1
 1402 0024 12B2     		sxth	r2, r2
 1403              	.LVL144:
 1404              	.LBE127:
 1405              	.LBE126:
 1406              	.LBB128:
 1407              	.LBB129:
 1408 0026 0423     		movs	r3, #4
 1409 0028 CC5E     		ldrsh	r4, [r1, r3]
 1410 002a 0023     		movs	r3, #0
 1411 002c CD5E     		ldrsh	r5, [r1, r3]
 1412 002e 641B     		subs	r4, r4, r5
 1413 0030 0134     		adds	r4, r4, #1
 1414 0032 24B2     		sxth	r4, r4
 1415              	.LVL145:
 1416              	.LBE129:
 1417              	.LBE128:
 341:..\..\..\arduinoLCD\test\Pain Drain\libraries\lvgl\src\misc/lv_area.c ****             y = lv_area_get_height(base) / 2 - lv_area_get_height(to_align) / 2;
 1418              		.loc 1 341 0
 1419 0034 D70F     		lsrs	r7, r2, #31
 1420 0036 BA18     		adds	r2, r7, r2
 1421 0038 5210     		asrs	r2, r2, #1
 1422 003a E70F     		lsrs	r7, r4, #31
 1423 003c 3C19     		adds	r4, r7, r4
 1424 003e 6410     		asrs	r4, r4, #1
 1425 0040 171B     		subs	r7, r2, r4
 1426 0042 3FB2     		sxth	r7, r7
 1427              	.LVL146:
 1428              	.LBB130:
 1429              	.LBB131:
 1430              		.loc 2 135 0
 1431 0044 0623     		movs	r3, #6
 1432 0046 C25E     		ldrsh	r2, [r0, r3]
 1433 0048 0223     		movs	r3, #2
 1434 004a C55E     		ldrsh	r5, [r0, r3]
 1435 004c 551B     		subs	r5, r2, r5
 1436 004e 0135     		adds	r5, r5, #1
 1437 0050 2DB2     		sxth	r5, r5
 1438              	.LVL147:
 1439              	.LBE131:
 1440              	.LBE130:
 1441              	.LBB132:
 1442              	.LBB133:
 1443 0052 0623     		movs	r3, #6
 1444 0054 CA5E     		ldrsh	r2, [r1, r3]
 1445 0056 0223     		movs	r3, #2
 1446 0058 CC5E     		ldrsh	r4, [r1, r3]
 1447 005a 121B     		subs	r2, r2, r4
 1448 005c 0132     		adds	r2, r2, #1
 1449 005e 12B2     		sxth	r2, r2
 1450              	.LVL148:
ARM GAS  C:\Users\haske\AppData\Local\Temp\cc8C2ZcK.s 			page 41


 1451              	.LBE133:
 1452              	.LBE132:
 342:..\..\..\arduinoLCD\test\Pain Drain\libraries\lvgl\src\misc/lv_area.c ****             break;
 1453              		.loc 1 342 0
 1454 0060 EC0F     		lsrs	r4, r5, #31
 1455 0062 6519     		adds	r5, r4, r5
 1456 0064 6D10     		asrs	r5, r5, #1
 1457 0066 D40F     		lsrs	r4, r2, #31
 1458 0068 A218     		adds	r2, r4, r2
 1459 006a 5210     		asrs	r2, r2, #1
 1460 006c AC1A     		subs	r4, r5, r2
 1461 006e 24B2     		sxth	r4, r4
 1462              	.LVL149:
 343:..\..\..\arduinoLCD\test\Pain Drain\libraries\lvgl\src\misc/lv_area.c **** 
 1463              		.loc 1 343 0
 1464 0070 CEE1     		b	.L71
 1465              	.LVL150:
 1466              	.L72:
 1467              	.LBB134:
 1468              	.LBB135:
 125:..\..\..\arduinoLCD\test\Pain Drain\libraries\lvgl\src\misc/lv_area.h **** }
 1469              		.loc 2 125 0
 1470 0072 0423     		movs	r3, #4
 1471 0074 C25E     		ldrsh	r2, [r0, r3]
 1472              	.LVL151:
 1473 0076 0023     		movs	r3, #0
 1474 0078 C45E     		ldrsh	r4, [r0, r3]
 1475 007a 121B     		subs	r2, r2, r4
 1476 007c 0132     		adds	r2, r2, #1
 1477 007e 12B2     		sxth	r2, r2
 1478              	.LVL152:
 1479              	.LBE135:
 1480              	.LBE134:
 1481              	.LBB136:
 1482              	.LBB137:
 1483 0080 0423     		movs	r3, #4
 1484 0082 CC5E     		ldrsh	r4, [r1, r3]
 1485 0084 0023     		movs	r3, #0
 1486 0086 CD5E     		ldrsh	r5, [r1, r3]
 1487 0088 641B     		subs	r4, r4, r5
 1488 008a 0134     		adds	r4, r4, #1
 1489 008c 24B2     		sxth	r4, r4
 1490              	.LVL153:
 1491              	.LBE137:
 1492              	.LBE136:
 350:..\..\..\arduinoLCD\test\Pain Drain\libraries\lvgl\src\misc/lv_area.c ****             y = 0;
 1493              		.loc 1 350 0
 1494 008e D70F     		lsrs	r7, r2, #31
 1495 0090 BA18     		adds	r2, r7, r2
 1496 0092 5210     		asrs	r2, r2, #1
 1497 0094 E70F     		lsrs	r7, r4, #31
 1498 0096 3C19     		adds	r4, r7, r4
 1499 0098 6410     		asrs	r4, r4, #1
 1500 009a 171B     		subs	r7, r2, r4
 1501 009c 3FB2     		sxth	r7, r7
 1502              	.LVL154:
 351:..\..\..\arduinoLCD\test\Pain Drain\libraries\lvgl\src\misc/lv_area.c ****             break;
ARM GAS  C:\Users\haske\AppData\Local\Temp\cc8C2ZcK.s 			page 42


 1503              		.loc 1 351 0
 1504 009e 0024     		movs	r4, #0
 352:..\..\..\arduinoLCD\test\Pain Drain\libraries\lvgl\src\misc/lv_area.c **** 
 1505              		.loc 1 352 0
 1506 00a0 B6E1     		b	.L71
 1507              	.LVL155:
 1508              	.L74:
 1509              	.LBB138:
 1510              	.LBB139:
 125:..\..\..\arduinoLCD\test\Pain Drain\libraries\lvgl\src\misc/lv_area.h **** }
 1511              		.loc 2 125 0
 1512 00a2 0423     		movs	r3, #4
 1513 00a4 C25E     		ldrsh	r2, [r0, r3]
 1514              	.LVL156:
 1515 00a6 0023     		movs	r3, #0
 1516 00a8 C75E     		ldrsh	r7, [r0, r3]
 1517 00aa D71B     		subs	r7, r2, r7
 1518 00ac 0137     		adds	r7, r7, #1
 1519 00ae BAB2     		uxth	r2, r7
 1520              	.LVL157:
 1521              	.LBE139:
 1522              	.LBE138:
 1523              	.LBB140:
 1524              	.LBB141:
 1525 00b0 0423     		movs	r3, #4
 1526 00b2 CC5E     		ldrsh	r4, [r1, r3]
 1527 00b4 0023     		movs	r3, #0
 1528 00b6 CF5E     		ldrsh	r7, [r1, r3]
 1529 00b8 E71B     		subs	r7, r4, r7
 1530 00ba 0137     		adds	r7, r7, #1
 1531 00bc BFB2     		uxth	r7, r7
 1532              	.LVL158:
 1533              	.LBE141:
 1534              	.LBE140:
 355:..\..\..\arduinoLCD\test\Pain Drain\libraries\lvgl\src\misc/lv_area.c ****             y = 0;
 1535              		.loc 1 355 0
 1536 00be D71B     		subs	r7, r2, r7
 1537 00c0 3FB2     		sxth	r7, r7
 1538              	.LVL159:
 356:..\..\..\arduinoLCD\test\Pain Drain\libraries\lvgl\src\misc/lv_area.c ****             break;
 1539              		.loc 1 356 0
 1540 00c2 0024     		movs	r4, #0
 357:..\..\..\arduinoLCD\test\Pain Drain\libraries\lvgl\src\misc/lv_area.c **** 
 1541              		.loc 1 357 0
 1542 00c4 A4E1     		b	.L71
 1543              	.LVL160:
 1544              	.L75:
 1545              	.LBB142:
 1546              	.LBB143:
 1547              		.loc 2 135 0
 1548 00c6 0623     		movs	r3, #6
 1549 00c8 C25E     		ldrsh	r2, [r0, r3]
 1550              	.LVL161:
 1551 00ca 0223     		movs	r3, #2
 1552 00cc C45E     		ldrsh	r4, [r0, r3]
 1553 00ce 141B     		subs	r4, r2, r4
 1554 00d0 0134     		adds	r4, r4, #1
ARM GAS  C:\Users\haske\AppData\Local\Temp\cc8C2ZcK.s 			page 43


 1555 00d2 A2B2     		uxth	r2, r4
 1556              	.LVL162:
 1557              	.LBE143:
 1558              	.LBE142:
 1559              	.LBB144:
 1560              	.LBB145:
 1561 00d4 0623     		movs	r3, #6
 1562 00d6 CC5E     		ldrsh	r4, [r1, r3]
 1563 00d8 0223     		movs	r3, #2
 1564 00da CD5E     		ldrsh	r5, [r1, r3]
 1565 00dc 641B     		subs	r4, r4, r5
 1566 00de 0134     		adds	r4, r4, #1
 1567 00e0 A4B2     		uxth	r4, r4
 1568              	.LVL163:
 1569              	.LBE145:
 1570              	.LBE144:
 361:..\..\..\arduinoLCD\test\Pain Drain\libraries\lvgl\src\misc/lv_area.c ****             break;
 1571              		.loc 1 361 0
 1572 00e2 141B     		subs	r4, r2, r4
 1573 00e4 24B2     		sxth	r4, r4
 1574              	.LVL164:
 360:..\..\..\arduinoLCD\test\Pain Drain\libraries\lvgl\src\misc/lv_area.c ****             y = lv_area_get_height(base) - lv_area_get_height(to_align);
 1575              		.loc 1 360 0
 1576 00e6 0027     		movs	r7, #0
 362:..\..\..\arduinoLCD\test\Pain Drain\libraries\lvgl\src\misc/lv_area.c ****         case LV_ALIGN_BOTTOM_MID:
 1577              		.loc 1 362 0
 1578 00e8 92E1     		b	.L71
 1579              	.LVL165:
 1580              	.L76:
 1581              	.LBB146:
 1582              	.LBB147:
 125:..\..\..\arduinoLCD\test\Pain Drain\libraries\lvgl\src\misc/lv_area.h **** }
 1583              		.loc 2 125 0
 1584 00ea 0423     		movs	r3, #4
 1585 00ec C25E     		ldrsh	r2, [r0, r3]
 1586              	.LVL166:
 1587 00ee 0023     		movs	r3, #0
 1588 00f0 C45E     		ldrsh	r4, [r0, r3]
 1589 00f2 121B     		subs	r2, r2, r4
 1590 00f4 0132     		adds	r2, r2, #1
 1591 00f6 12B2     		sxth	r2, r2
 1592              	.LVL167:
 1593              	.LBE147:
 1594              	.LBE146:
 1595              	.LBB148:
 1596              	.LBB149:
 1597 00f8 0423     		movs	r3, #4
 1598 00fa CC5E     		ldrsh	r4, [r1, r3]
 1599 00fc 0023     		movs	r3, #0
 1600 00fe CD5E     		ldrsh	r5, [r1, r3]
 1601 0100 641B     		subs	r4, r4, r5
 1602 0102 0134     		adds	r4, r4, #1
 1603 0104 24B2     		sxth	r4, r4
 1604              	.LVL168:
 1605              	.LBE149:
 1606              	.LBE148:
 364:..\..\..\arduinoLCD\test\Pain Drain\libraries\lvgl\src\misc/lv_area.c ****             y = lv_area_get_height(base) - lv_area_get_height(to_align);
ARM GAS  C:\Users\haske\AppData\Local\Temp\cc8C2ZcK.s 			page 44


 1607              		.loc 1 364 0
 1608 0106 D70F     		lsrs	r7, r2, #31
 1609 0108 BA18     		adds	r2, r7, r2
 1610 010a 5210     		asrs	r2, r2, #1
 1611 010c E70F     		lsrs	r7, r4, #31
 1612 010e 3C19     		adds	r4, r7, r4
 1613 0110 6410     		asrs	r4, r4, #1
 1614 0112 171B     		subs	r7, r2, r4
 1615 0114 3FB2     		sxth	r7, r7
 1616              	.LVL169:
 1617              	.LBB150:
 1618              	.LBB151:
 1619              		.loc 2 135 0
 1620 0116 0623     		movs	r3, #6
 1621 0118 C25E     		ldrsh	r2, [r0, r3]
 1622 011a 0223     		movs	r3, #2
 1623 011c C45E     		ldrsh	r4, [r0, r3]
 1624 011e 141B     		subs	r4, r2, r4
 1625 0120 0134     		adds	r4, r4, #1
 1626 0122 A2B2     		uxth	r2, r4
 1627              	.LVL170:
 1628              	.LBE151:
 1629              	.LBE150:
 1630              	.LBB152:
 1631              	.LBB153:
 1632 0124 0623     		movs	r3, #6
 1633 0126 CC5E     		ldrsh	r4, [r1, r3]
 1634 0128 0223     		movs	r3, #2
 1635 012a CD5E     		ldrsh	r5, [r1, r3]
 1636 012c 641B     		subs	r4, r4, r5
 1637 012e 0134     		adds	r4, r4, #1
 1638 0130 A4B2     		uxth	r4, r4
 1639              	.LVL171:
 1640              	.LBE153:
 1641              	.LBE152:
 365:..\..\..\arduinoLCD\test\Pain Drain\libraries\lvgl\src\misc/lv_area.c ****             break;
 1642              		.loc 1 365 0
 1643 0132 141B     		subs	r4, r2, r4
 1644 0134 24B2     		sxth	r4, r4
 1645              	.LVL172:
 366:..\..\..\arduinoLCD\test\Pain Drain\libraries\lvgl\src\misc/lv_area.c **** 
 1646              		.loc 1 366 0
 1647 0136 6BE1     		b	.L71
 1648              	.LVL173:
 1649              	.L77:
 1650              	.LBB154:
 1651              	.LBB155:
 125:..\..\..\arduinoLCD\test\Pain Drain\libraries\lvgl\src\misc/lv_area.h **** }
 1652              		.loc 2 125 0
 1653 0138 0423     		movs	r3, #4
 1654 013a C25E     		ldrsh	r2, [r0, r3]
 1655              	.LVL174:
 1656 013c 0023     		movs	r3, #0
 1657 013e C75E     		ldrsh	r7, [r0, r3]
 1658 0140 D71B     		subs	r7, r2, r7
 1659 0142 0137     		adds	r7, r7, #1
 1660 0144 BAB2     		uxth	r2, r7
ARM GAS  C:\Users\haske\AppData\Local\Temp\cc8C2ZcK.s 			page 45


 1661              	.LVL175:
 1662              	.LBE155:
 1663              	.LBE154:
 1664              	.LBB156:
 1665              	.LBB157:
 1666 0146 0423     		movs	r3, #4
 1667 0148 CC5E     		ldrsh	r4, [r1, r3]
 1668 014a 0023     		movs	r3, #0
 1669 014c CF5E     		ldrsh	r7, [r1, r3]
 1670 014e E71B     		subs	r7, r4, r7
 1671 0150 0137     		adds	r7, r7, #1
 1672 0152 BFB2     		uxth	r7, r7
 1673              	.LVL176:
 1674              	.LBE157:
 1675              	.LBE156:
 369:..\..\..\arduinoLCD\test\Pain Drain\libraries\lvgl\src\misc/lv_area.c ****             y = lv_area_get_height(base) - lv_area_get_height(to_align);
 1676              		.loc 1 369 0
 1677 0154 D71B     		subs	r7, r2, r7
 1678 0156 3FB2     		sxth	r7, r7
 1679              	.LVL177:
 1680              	.LBB158:
 1681              	.LBB159:
 1682              		.loc 2 135 0
 1683 0158 0623     		movs	r3, #6
 1684 015a C25E     		ldrsh	r2, [r0, r3]
 1685 015c 0223     		movs	r3, #2
 1686 015e C45E     		ldrsh	r4, [r0, r3]
 1687 0160 141B     		subs	r4, r2, r4
 1688 0162 0134     		adds	r4, r4, #1
 1689 0164 A2B2     		uxth	r2, r4
 1690              	.LVL178:
 1691              	.LBE159:
 1692              	.LBE158:
 1693              	.LBB160:
 1694              	.LBB161:
 1695 0166 0623     		movs	r3, #6
 1696 0168 CC5E     		ldrsh	r4, [r1, r3]
 1697 016a 0223     		movs	r3, #2
 1698 016c CD5E     		ldrsh	r5, [r1, r3]
 1699 016e 641B     		subs	r4, r4, r5
 1700 0170 0134     		adds	r4, r4, #1
 1701 0172 A4B2     		uxth	r4, r4
 1702              	.LVL179:
 1703              	.LBE161:
 1704              	.LBE160:
 370:..\..\..\arduinoLCD\test\Pain Drain\libraries\lvgl\src\misc/lv_area.c ****             break;
 1705              		.loc 1 370 0
 1706 0174 141B     		subs	r4, r2, r4
 1707 0176 24B2     		sxth	r4, r4
 1708              	.LVL180:
 371:..\..\..\arduinoLCD\test\Pain Drain\libraries\lvgl\src\misc/lv_area.c **** 
 1709              		.loc 1 371 0
 1710 0178 4AE1     		b	.L71
 1711              	.LVL181:
 1712              	.L78:
 1713              	.LBB162:
 1714              	.LBB163:
ARM GAS  C:\Users\haske\AppData\Local\Temp\cc8C2ZcK.s 			page 46


 1715              		.loc 2 135 0
 1716 017a 0623     		movs	r3, #6
 1717 017c C25E     		ldrsh	r2, [r0, r3]
 1718              	.LVL182:
 1719 017e 0223     		movs	r3, #2
 1720 0180 C55E     		ldrsh	r5, [r0, r3]
 1721 0182 551B     		subs	r5, r2, r5
 1722 0184 0135     		adds	r5, r5, #1
 1723 0186 2DB2     		sxth	r5, r5
 1724              	.LVL183:
 1725              	.LBE163:
 1726              	.LBE162:
 1727              	.LBB164:
 1728              	.LBB165:
 1729 0188 0623     		movs	r3, #6
 1730 018a CA5E     		ldrsh	r2, [r1, r3]
 1731 018c 0223     		movs	r3, #2
 1732 018e CC5E     		ldrsh	r4, [r1, r3]
 1733 0190 121B     		subs	r2, r2, r4
 1734 0192 0132     		adds	r2, r2, #1
 1735 0194 12B2     		sxth	r2, r2
 1736              	.LVL184:
 1737              	.LBE165:
 1738              	.LBE164:
 375:..\..\..\arduinoLCD\test\Pain Drain\libraries\lvgl\src\misc/lv_area.c ****             break;
 1739              		.loc 1 375 0
 1740 0196 EC0F     		lsrs	r4, r5, #31
 1741 0198 6519     		adds	r5, r4, r5
 1742 019a 6D10     		asrs	r5, r5, #1
 1743 019c D40F     		lsrs	r4, r2, #31
 1744 019e A218     		adds	r2, r4, r2
 1745 01a0 5210     		asrs	r2, r2, #1
 1746 01a2 AC1A     		subs	r4, r5, r2
 1747 01a4 24B2     		sxth	r4, r4
 1748              	.LVL185:
 374:..\..\..\arduinoLCD\test\Pain Drain\libraries\lvgl\src\misc/lv_area.c ****             y = lv_area_get_height(base) / 2 - lv_area_get_height(to_align) / 2;
 1749              		.loc 1 374 0
 1750 01a6 0027     		movs	r7, #0
 376:..\..\..\arduinoLCD\test\Pain Drain\libraries\lvgl\src\misc/lv_area.c **** 
 1751              		.loc 1 376 0
 1752 01a8 32E1     		b	.L71
 1753              	.LVL186:
 1754              	.L79:
 1755              	.LBB166:
 1756              	.LBB167:
 125:..\..\..\arduinoLCD\test\Pain Drain\libraries\lvgl\src\misc/lv_area.h **** }
 1757              		.loc 2 125 0
 1758 01aa 0423     		movs	r3, #4
 1759 01ac C25E     		ldrsh	r2, [r0, r3]
 1760              	.LVL187:
 1761 01ae 0023     		movs	r3, #0
 1762 01b0 C75E     		ldrsh	r7, [r0, r3]
 1763 01b2 D71B     		subs	r7, r2, r7
 1764 01b4 0137     		adds	r7, r7, #1
 1765 01b6 BAB2     		uxth	r2, r7
 1766              	.LVL188:
 1767              	.LBE167:
ARM GAS  C:\Users\haske\AppData\Local\Temp\cc8C2ZcK.s 			page 47


 1768              	.LBE166:
 1769              	.LBB168:
 1770              	.LBB169:
 1771 01b8 0423     		movs	r3, #4
 1772 01ba CC5E     		ldrsh	r4, [r1, r3]
 1773 01bc 0023     		movs	r3, #0
 1774 01be CF5E     		ldrsh	r7, [r1, r3]
 1775 01c0 E71B     		subs	r7, r4, r7
 1776 01c2 0137     		adds	r7, r7, #1
 1777 01c4 BFB2     		uxth	r7, r7
 1778              	.LVL189:
 1779              	.LBE169:
 1780              	.LBE168:
 379:..\..\..\arduinoLCD\test\Pain Drain\libraries\lvgl\src\misc/lv_area.c ****             y = lv_area_get_height(base) / 2 - lv_area_get_height(to_align) / 2;
 1781              		.loc 1 379 0
 1782 01c6 D71B     		subs	r7, r2, r7
 1783 01c8 3FB2     		sxth	r7, r7
 1784              	.LVL190:
 1785              	.LBB170:
 1786              	.LBB171:
 1787              		.loc 2 135 0
 1788 01ca 0623     		movs	r3, #6
 1789 01cc C25E     		ldrsh	r2, [r0, r3]
 1790 01ce 0223     		movs	r3, #2
 1791 01d0 C55E     		ldrsh	r5, [r0, r3]
 1792 01d2 551B     		subs	r5, r2, r5
 1793 01d4 0135     		adds	r5, r5, #1
 1794 01d6 2DB2     		sxth	r5, r5
 1795              	.LVL191:
 1796              	.LBE171:
 1797              	.LBE170:
 1798              	.LBB172:
 1799              	.LBB173:
 1800 01d8 0623     		movs	r3, #6
 1801 01da CA5E     		ldrsh	r2, [r1, r3]
 1802 01dc 0223     		movs	r3, #2
 1803 01de CC5E     		ldrsh	r4, [r1, r3]
 1804 01e0 121B     		subs	r2, r2, r4
 1805 01e2 0132     		adds	r2, r2, #1
 1806 01e4 12B2     		sxth	r2, r2
 1807              	.LVL192:
 1808              	.LBE173:
 1809              	.LBE172:
 380:..\..\..\arduinoLCD\test\Pain Drain\libraries\lvgl\src\misc/lv_area.c ****             break;
 1810              		.loc 1 380 0
 1811 01e6 EC0F     		lsrs	r4, r5, #31
 1812 01e8 6519     		adds	r5, r4, r5
 1813 01ea 6D10     		asrs	r5, r5, #1
 1814 01ec D40F     		lsrs	r4, r2, #31
 1815 01ee A218     		adds	r2, r4, r2
 1816 01f0 5210     		asrs	r2, r2, #1
 1817 01f2 AC1A     		subs	r4, r5, r2
 1818 01f4 24B2     		sxth	r4, r4
 1819              	.LVL193:
 381:..\..\..\arduinoLCD\test\Pain Drain\libraries\lvgl\src\misc/lv_area.c **** 
 1820              		.loc 1 381 0
 1821 01f6 0BE1     		b	.L71
ARM GAS  C:\Users\haske\AppData\Local\Temp\cc8C2ZcK.s 			page 48


 1822              	.LVL194:
 1823              	.L81:
 1824              	.LBB174:
 1825              	.LBB175:
 1826              		.loc 2 135 0
 1827 01f8 0623     		movs	r3, #6
 1828 01fa CA5E     		ldrsh	r2, [r1, r3]
 1829              	.LVL195:
 1830 01fc 0223     		movs	r3, #2
 1831 01fe CC5E     		ldrsh	r4, [r1, r3]
 1832 0200 141B     		subs	r4, r2, r4
 1833 0202 0134     		adds	r4, r4, #1
 1834 0204 A4B2     		uxth	r4, r4
 1835              	.LVL196:
 1836              	.LBE175:
 1837              	.LBE174:
 385:..\..\..\arduinoLCD\test\Pain Drain\libraries\lvgl\src\misc/lv_area.c ****             break;
 1838              		.loc 1 385 0
 1839 0206 6442     		rsbs	r4, r4, #0
 1840 0208 24B2     		sxth	r4, r4
 1841              	.LVL197:
 384:..\..\..\arduinoLCD\test\Pain Drain\libraries\lvgl\src\misc/lv_area.c ****             y = -lv_area_get_height(to_align);
 1842              		.loc 1 384 0
 1843 020a 0027     		movs	r7, #0
 386:..\..\..\arduinoLCD\test\Pain Drain\libraries\lvgl\src\misc/lv_area.c **** 
 1844              		.loc 1 386 0
 1845 020c 00E1     		b	.L71
 1846              	.LVL198:
 1847              	.L82:
 1848              	.LBB176:
 1849              	.LBB177:
 125:..\..\..\arduinoLCD\test\Pain Drain\libraries\lvgl\src\misc/lv_area.h **** }
 1850              		.loc 2 125 0
 1851 020e 0423     		movs	r3, #4
 1852 0210 C25E     		ldrsh	r2, [r0, r3]
 1853              	.LVL199:
 1854 0212 0023     		movs	r3, #0
 1855 0214 C45E     		ldrsh	r4, [r0, r3]
 1856 0216 121B     		subs	r2, r2, r4
 1857 0218 0132     		adds	r2, r2, #1
 1858 021a 12B2     		sxth	r2, r2
 1859              	.LVL200:
 1860              	.LBE177:
 1861              	.LBE176:
 1862              	.LBB178:
 1863              	.LBB179:
 1864 021c 0423     		movs	r3, #4
 1865 021e CC5E     		ldrsh	r4, [r1, r3]
 1866 0220 0023     		movs	r3, #0
 1867 0222 CD5E     		ldrsh	r5, [r1, r3]
 1868 0224 641B     		subs	r4, r4, r5
 1869 0226 0134     		adds	r4, r4, #1
 1870 0228 24B2     		sxth	r4, r4
 1871              	.LVL201:
 1872              	.LBE179:
 1873              	.LBE178:
 389:..\..\..\arduinoLCD\test\Pain Drain\libraries\lvgl\src\misc/lv_area.c ****             y = -lv_area_get_height(to_align);
ARM GAS  C:\Users\haske\AppData\Local\Temp\cc8C2ZcK.s 			page 49


 1874              		.loc 1 389 0
 1875 022a D70F     		lsrs	r7, r2, #31
 1876 022c BA18     		adds	r2, r7, r2
 1877 022e 5210     		asrs	r2, r2, #1
 1878 0230 E70F     		lsrs	r7, r4, #31
 1879 0232 3C19     		adds	r4, r7, r4
 1880 0234 6410     		asrs	r4, r4, #1
 1881 0236 171B     		subs	r7, r2, r4
 1882 0238 3FB2     		sxth	r7, r7
 1883              	.LVL202:
 1884              	.LBB180:
 1885              	.LBB181:
 1886              		.loc 2 135 0
 1887 023a 0623     		movs	r3, #6
 1888 023c CA5E     		ldrsh	r2, [r1, r3]
 1889 023e 0223     		movs	r3, #2
 1890 0240 CC5E     		ldrsh	r4, [r1, r3]
 1891 0242 141B     		subs	r4, r2, r4
 1892 0244 0134     		adds	r4, r4, #1
 1893 0246 A4B2     		uxth	r4, r4
 1894              	.LVL203:
 1895              	.LBE181:
 1896              	.LBE180:
 390:..\..\..\arduinoLCD\test\Pain Drain\libraries\lvgl\src\misc/lv_area.c ****             break;
 1897              		.loc 1 390 0
 1898 0248 6442     		rsbs	r4, r4, #0
 1899 024a 24B2     		sxth	r4, r4
 1900              	.LVL204:
 391:..\..\..\arduinoLCD\test\Pain Drain\libraries\lvgl\src\misc/lv_area.c **** 
 1901              		.loc 1 391 0
 1902 024c E0E0     		b	.L71
 1903              	.LVL205:
 1904              	.L83:
 1905              	.LBB182:
 1906              	.LBB183:
 125:..\..\..\arduinoLCD\test\Pain Drain\libraries\lvgl\src\misc/lv_area.h **** }
 1907              		.loc 2 125 0
 1908 024e 0423     		movs	r3, #4
 1909 0250 C25E     		ldrsh	r2, [r0, r3]
 1910              	.LVL206:
 1911 0252 0023     		movs	r3, #0
 1912 0254 C75E     		ldrsh	r7, [r0, r3]
 1913 0256 D71B     		subs	r7, r2, r7
 1914 0258 0137     		adds	r7, r7, #1
 1915 025a BAB2     		uxth	r2, r7
 1916              	.LVL207:
 1917              	.LBE183:
 1918              	.LBE182:
 1919              	.LBB184:
 1920              	.LBB185:
 1921 025c 0423     		movs	r3, #4
 1922 025e CC5E     		ldrsh	r4, [r1, r3]
 1923 0260 0023     		movs	r3, #0
 1924 0262 CF5E     		ldrsh	r7, [r1, r3]
 1925 0264 E71B     		subs	r7, r4, r7
 1926 0266 0137     		adds	r7, r7, #1
 1927 0268 BFB2     		uxth	r7, r7
ARM GAS  C:\Users\haske\AppData\Local\Temp\cc8C2ZcK.s 			page 50


 1928              	.LVL208:
 1929              	.LBE185:
 1930              	.LBE184:
 394:..\..\..\arduinoLCD\test\Pain Drain\libraries\lvgl\src\misc/lv_area.c ****             y = -lv_area_get_height(to_align);
 1931              		.loc 1 394 0
 1932 026a D71B     		subs	r7, r2, r7
 1933 026c 3FB2     		sxth	r7, r7
 1934              	.LVL209:
 1935              	.LBB186:
 1936              	.LBB187:
 1937              		.loc 2 135 0
 1938 026e 0623     		movs	r3, #6
 1939 0270 CA5E     		ldrsh	r2, [r1, r3]
 1940 0272 0223     		movs	r3, #2
 1941 0274 CC5E     		ldrsh	r4, [r1, r3]
 1942 0276 141B     		subs	r4, r2, r4
 1943 0278 0134     		adds	r4, r4, #1
 1944 027a A4B2     		uxth	r4, r4
 1945              	.LVL210:
 1946              	.LBE187:
 1947              	.LBE186:
 395:..\..\..\arduinoLCD\test\Pain Drain\libraries\lvgl\src\misc/lv_area.c ****             break;
 1948              		.loc 1 395 0
 1949 027c 6442     		rsbs	r4, r4, #0
 1950 027e 24B2     		sxth	r4, r4
 1951              	.LVL211:
 396:..\..\..\arduinoLCD\test\Pain Drain\libraries\lvgl\src\misc/lv_area.c **** 
 1952              		.loc 1 396 0
 1953 0280 C6E0     		b	.L71
 1954              	.LVL212:
 1955              	.L84:
 1956              	.LBB188:
 1957              	.LBB189:
 1958              		.loc 2 135 0
 1959 0282 0623     		movs	r3, #6
 1960 0284 C25E     		ldrsh	r2, [r0, r3]
 1961              	.LVL213:
 1962 0286 0223     		movs	r3, #2
 1963 0288 C45E     		ldrsh	r4, [r0, r3]
 1964 028a 141B     		subs	r4, r2, r4
 1965 028c 0134     		adds	r4, r4, #1
 1966 028e 24B2     		sxth	r4, r4
 1967              	.LVL214:
 1968              	.LBE189:
 1969              	.LBE188:
 399:..\..\..\arduinoLCD\test\Pain Drain\libraries\lvgl\src\misc/lv_area.c ****             y = lv_area_get_height(base);
 1970              		.loc 1 399 0
 1971 0290 0027     		movs	r7, #0
 401:..\..\..\arduinoLCD\test\Pain Drain\libraries\lvgl\src\misc/lv_area.c **** 
 1972              		.loc 1 401 0
 1973 0292 BDE0     		b	.L71
 1974              	.LVL215:
 1975              	.L85:
 1976              	.LBB190:
 1977              	.LBB191:
 125:..\..\..\arduinoLCD\test\Pain Drain\libraries\lvgl\src\misc/lv_area.h **** }
 1978              		.loc 2 125 0
ARM GAS  C:\Users\haske\AppData\Local\Temp\cc8C2ZcK.s 			page 51


 1979 0294 0423     		movs	r3, #4
 1980 0296 C25E     		ldrsh	r2, [r0, r3]
 1981              	.LVL216:
 1982 0298 0023     		movs	r3, #0
 1983 029a C45E     		ldrsh	r4, [r0, r3]
 1984 029c 121B     		subs	r2, r2, r4
 1985 029e 0132     		adds	r2, r2, #1
 1986 02a0 12B2     		sxth	r2, r2
 1987              	.LVL217:
 1988              	.LBE191:
 1989              	.LBE190:
 1990              	.LBB192:
 1991              	.LBB193:
 1992 02a2 0423     		movs	r3, #4
 1993 02a4 CC5E     		ldrsh	r4, [r1, r3]
 1994 02a6 0023     		movs	r3, #0
 1995 02a8 CD5E     		ldrsh	r5, [r1, r3]
 1996 02aa 641B     		subs	r4, r4, r5
 1997 02ac 0134     		adds	r4, r4, #1
 1998 02ae 24B2     		sxth	r4, r4
 1999              	.LVL218:
 2000              	.LBE193:
 2001              	.LBE192:
 404:..\..\..\arduinoLCD\test\Pain Drain\libraries\lvgl\src\misc/lv_area.c ****             y = lv_area_get_height(base);
 2002              		.loc 1 404 0
 2003 02b0 D70F     		lsrs	r7, r2, #31
 2004 02b2 BA18     		adds	r2, r7, r2
 2005 02b4 5210     		asrs	r2, r2, #1
 2006 02b6 E70F     		lsrs	r7, r4, #31
 2007 02b8 3C19     		adds	r4, r7, r4
 2008 02ba 6410     		asrs	r4, r4, #1
 2009 02bc 171B     		subs	r7, r2, r4
 2010 02be 3FB2     		sxth	r7, r7
 2011              	.LVL219:
 2012              	.LBB194:
 2013              	.LBB195:
 2014              		.loc 2 135 0
 2015 02c0 0623     		movs	r3, #6
 2016 02c2 C25E     		ldrsh	r2, [r0, r3]
 2017 02c4 0223     		movs	r3, #2
 2018 02c6 C45E     		ldrsh	r4, [r0, r3]
 2019 02c8 141B     		subs	r4, r2, r4
 2020 02ca 0134     		adds	r4, r4, #1
 2021 02cc 24B2     		sxth	r4, r4
 2022              	.LVL220:
 2023              	.LBE195:
 2024              	.LBE194:
 406:..\..\..\arduinoLCD\test\Pain Drain\libraries\lvgl\src\misc/lv_area.c **** 
 2025              		.loc 1 406 0
 2026 02ce 9FE0     		b	.L71
 2027              	.LVL221:
 2028              	.L86:
 2029              	.LBB196:
 2030              	.LBB197:
 125:..\..\..\arduinoLCD\test\Pain Drain\libraries\lvgl\src\misc/lv_area.h **** }
 2031              		.loc 2 125 0
 2032 02d0 0423     		movs	r3, #4
ARM GAS  C:\Users\haske\AppData\Local\Temp\cc8C2ZcK.s 			page 52


 2033 02d2 C25E     		ldrsh	r2, [r0, r3]
 2034              	.LVL222:
 2035 02d4 0023     		movs	r3, #0
 2036 02d6 C75E     		ldrsh	r7, [r0, r3]
 2037 02d8 D71B     		subs	r7, r2, r7
 2038 02da 0137     		adds	r7, r7, #1
 2039 02dc BAB2     		uxth	r2, r7
 2040              	.LVL223:
 2041              	.LBE197:
 2042              	.LBE196:
 2043              	.LBB198:
 2044              	.LBB199:
 2045 02de 0423     		movs	r3, #4
 2046 02e0 CC5E     		ldrsh	r4, [r1, r3]
 2047 02e2 0023     		movs	r3, #0
 2048 02e4 CF5E     		ldrsh	r7, [r1, r3]
 2049 02e6 E71B     		subs	r7, r4, r7
 2050 02e8 0137     		adds	r7, r7, #1
 2051 02ea BFB2     		uxth	r7, r7
 2052              	.LVL224:
 2053              	.LBE199:
 2054              	.LBE198:
 409:..\..\..\arduinoLCD\test\Pain Drain\libraries\lvgl\src\misc/lv_area.c ****             y = lv_area_get_height(base);
 2055              		.loc 1 409 0
 2056 02ec D71B     		subs	r7, r2, r7
 2057 02ee 3FB2     		sxth	r7, r7
 2058              	.LVL225:
 2059              	.LBB200:
 2060              	.LBB201:
 2061              		.loc 2 135 0
 2062 02f0 0623     		movs	r3, #6
 2063 02f2 C25E     		ldrsh	r2, [r0, r3]
 2064 02f4 0223     		movs	r3, #2
 2065 02f6 C45E     		ldrsh	r4, [r0, r3]
 2066 02f8 141B     		subs	r4, r2, r4
 2067 02fa 0134     		adds	r4, r4, #1
 2068 02fc 24B2     		sxth	r4, r4
 2069              	.LVL226:
 2070              	.LBE201:
 2071              	.LBE200:
 411:..\..\..\arduinoLCD\test\Pain Drain\libraries\lvgl\src\misc/lv_area.c **** 
 2072              		.loc 1 411 0
 2073 02fe 87E0     		b	.L71
 2074              	.LVL227:
 2075              	.L87:
 2076              	.LBB202:
 2077              	.LBB203:
 125:..\..\..\arduinoLCD\test\Pain Drain\libraries\lvgl\src\misc/lv_area.h **** }
 2078              		.loc 2 125 0
 2079 0300 0423     		movs	r3, #4
 2080 0302 CA5E     		ldrsh	r2, [r1, r3]
 2081              	.LVL228:
 2082 0304 0023     		movs	r3, #0
 2083 0306 CF5E     		ldrsh	r7, [r1, r3]
 2084 0308 D71B     		subs	r7, r2, r7
 2085 030a 0137     		adds	r7, r7, #1
 2086 030c BFB2     		uxth	r7, r7
ARM GAS  C:\Users\haske\AppData\Local\Temp\cc8C2ZcK.s 			page 53


 2087              	.LVL229:
 2088              	.LBE203:
 2089              	.LBE202:
 414:..\..\..\arduinoLCD\test\Pain Drain\libraries\lvgl\src\misc/lv_area.c ****             y = 0;
 2090              		.loc 1 414 0
 2091 030e 7F42     		rsbs	r7, r7, #0
 2092 0310 3FB2     		sxth	r7, r7
 2093              	.LVL230:
 415:..\..\..\arduinoLCD\test\Pain Drain\libraries\lvgl\src\misc/lv_area.c ****             break;
 2094              		.loc 1 415 0
 2095 0312 0024     		movs	r4, #0
 416:..\..\..\arduinoLCD\test\Pain Drain\libraries\lvgl\src\misc/lv_area.c **** 
 2096              		.loc 1 416 0
 2097 0314 7CE0     		b	.L71
 2098              	.LVL231:
 2099              	.L88:
 2100              	.LBB204:
 2101              	.LBB205:
 125:..\..\..\arduinoLCD\test\Pain Drain\libraries\lvgl\src\misc/lv_area.h **** }
 2102              		.loc 2 125 0
 2103 0316 0423     		movs	r3, #4
 2104 0318 CA5E     		ldrsh	r2, [r1, r3]
 2105              	.LVL232:
 2106 031a 0023     		movs	r3, #0
 2107 031c CF5E     		ldrsh	r7, [r1, r3]
 2108 031e D71B     		subs	r7, r2, r7
 2109 0320 0137     		adds	r7, r7, #1
 2110 0322 BFB2     		uxth	r7, r7
 2111              	.LVL233:
 2112              	.LBE205:
 2113              	.LBE204:
 419:..\..\..\arduinoLCD\test\Pain Drain\libraries\lvgl\src\misc/lv_area.c ****             y = lv_area_get_height(base) / 2 - lv_area_get_height(to_align) / 2;
 2114              		.loc 1 419 0
 2115 0324 7F42     		rsbs	r7, r7, #0
 2116 0326 3FB2     		sxth	r7, r7
 2117              	.LVL234:
 2118              	.LBB206:
 2119              	.LBB207:
 2120              		.loc 2 135 0
 2121 0328 0623     		movs	r3, #6
 2122 032a C25E     		ldrsh	r2, [r0, r3]
 2123 032c 0223     		movs	r3, #2
 2124 032e C55E     		ldrsh	r5, [r0, r3]
 2125 0330 551B     		subs	r5, r2, r5
 2126 0332 0135     		adds	r5, r5, #1
 2127 0334 2DB2     		sxth	r5, r5
 2128              	.LVL235:
 2129              	.LBE207:
 2130              	.LBE206:
 2131              	.LBB208:
 2132              	.LBB209:
 2133 0336 0623     		movs	r3, #6
 2134 0338 CA5E     		ldrsh	r2, [r1, r3]
 2135 033a 0223     		movs	r3, #2
 2136 033c CC5E     		ldrsh	r4, [r1, r3]
 2137 033e 121B     		subs	r2, r2, r4
 2138 0340 0132     		adds	r2, r2, #1
ARM GAS  C:\Users\haske\AppData\Local\Temp\cc8C2ZcK.s 			page 54


 2139 0342 12B2     		sxth	r2, r2
 2140              	.LVL236:
 2141              	.LBE209:
 2142              	.LBE208:
 420:..\..\..\arduinoLCD\test\Pain Drain\libraries\lvgl\src\misc/lv_area.c ****             break;
 2143              		.loc 1 420 0
 2144 0344 EC0F     		lsrs	r4, r5, #31
 2145 0346 6519     		adds	r5, r4, r5
 2146 0348 6D10     		asrs	r5, r5, #1
 2147 034a D40F     		lsrs	r4, r2, #31
 2148 034c A218     		adds	r2, r4, r2
 2149 034e 5210     		asrs	r2, r2, #1
 2150 0350 AC1A     		subs	r4, r5, r2
 2151 0352 24B2     		sxth	r4, r4
 2152              	.LVL237:
 421:..\..\..\arduinoLCD\test\Pain Drain\libraries\lvgl\src\misc/lv_area.c **** 
 2153              		.loc 1 421 0
 2154 0354 5CE0     		b	.L71
 2155              	.LVL238:
 2156              	.L89:
 2157              	.LBB210:
 2158              	.LBB211:
 125:..\..\..\arduinoLCD\test\Pain Drain\libraries\lvgl\src\misc/lv_area.h **** }
 2159              		.loc 2 125 0
 2160 0356 0423     		movs	r3, #4
 2161 0358 CA5E     		ldrsh	r2, [r1, r3]
 2162              	.LVL239:
 2163 035a 0023     		movs	r3, #0
 2164 035c CF5E     		ldrsh	r7, [r1, r3]
 2165 035e D71B     		subs	r7, r2, r7
 2166 0360 0137     		adds	r7, r7, #1
 2167 0362 BFB2     		uxth	r7, r7
 2168              	.LVL240:
 2169              	.LBE211:
 2170              	.LBE210:
 424:..\..\..\arduinoLCD\test\Pain Drain\libraries\lvgl\src\misc/lv_area.c ****             y = lv_area_get_height(base) - lv_area_get_height(to_align);
 2171              		.loc 1 424 0
 2172 0364 7F42     		rsbs	r7, r7, #0
 2173 0366 3FB2     		sxth	r7, r7
 2174              	.LVL241:
 2175              	.LBB212:
 2176              	.LBB213:
 2177              		.loc 2 135 0
 2178 0368 0623     		movs	r3, #6
 2179 036a C25E     		ldrsh	r2, [r0, r3]
 2180 036c 0223     		movs	r3, #2
 2181 036e C45E     		ldrsh	r4, [r0, r3]
 2182 0370 141B     		subs	r4, r2, r4
 2183 0372 0134     		adds	r4, r4, #1
 2184 0374 A2B2     		uxth	r2, r4
 2185              	.LVL242:
 2186              	.LBE213:
 2187              	.LBE212:
 2188              	.LBB214:
 2189              	.LBB215:
 2190 0376 0623     		movs	r3, #6
 2191 0378 CC5E     		ldrsh	r4, [r1, r3]
ARM GAS  C:\Users\haske\AppData\Local\Temp\cc8C2ZcK.s 			page 55


 2192 037a 0223     		movs	r3, #2
 2193 037c CD5E     		ldrsh	r5, [r1, r3]
 2194 037e 641B     		subs	r4, r4, r5
 2195 0380 0134     		adds	r4, r4, #1
 2196 0382 A4B2     		uxth	r4, r4
 2197              	.LVL243:
 2198              	.LBE215:
 2199              	.LBE214:
 425:..\..\..\arduinoLCD\test\Pain Drain\libraries\lvgl\src\misc/lv_area.c ****             break;
 2200              		.loc 1 425 0
 2201 0384 141B     		subs	r4, r2, r4
 2202 0386 24B2     		sxth	r4, r4
 2203              	.LVL244:
 426:..\..\..\arduinoLCD\test\Pain Drain\libraries\lvgl\src\misc/lv_area.c **** 
 2204              		.loc 1 426 0
 2205 0388 42E0     		b	.L71
 2206              	.LVL245:
 2207              	.L90:
 2208              	.LBB216:
 2209              	.LBB217:
 125:..\..\..\arduinoLCD\test\Pain Drain\libraries\lvgl\src\misc/lv_area.h **** }
 2210              		.loc 2 125 0
 2211 038a 0423     		movs	r3, #4
 2212 038c C25E     		ldrsh	r2, [r0, r3]
 2213              	.LVL246:
 2214 038e 0023     		movs	r3, #0
 2215 0390 C75E     		ldrsh	r7, [r0, r3]
 2216 0392 D71B     		subs	r7, r2, r7
 2217 0394 0137     		adds	r7, r7, #1
 2218 0396 3FB2     		sxth	r7, r7
 2219              	.LVL247:
 2220              	.LBE217:
 2221              	.LBE216:
 430:..\..\..\arduinoLCD\test\Pain Drain\libraries\lvgl\src\misc/lv_area.c ****             break;
 2222              		.loc 1 430 0
 2223 0398 0024     		movs	r4, #0
 431:..\..\..\arduinoLCD\test\Pain Drain\libraries\lvgl\src\misc/lv_area.c **** 
 2224              		.loc 1 431 0
 2225 039a 39E0     		b	.L71
 2226              	.LVL248:
 2227              	.L91:
 2228              	.LBB218:
 2229              	.LBB219:
 125:..\..\..\arduinoLCD\test\Pain Drain\libraries\lvgl\src\misc/lv_area.h **** }
 2230              		.loc 2 125 0
 2231 039c 0423     		movs	r3, #4
 2232 039e C25E     		ldrsh	r2, [r0, r3]
 2233              	.LVL249:
 2234 03a0 0023     		movs	r3, #0
 2235 03a2 C75E     		ldrsh	r7, [r0, r3]
 2236 03a4 D71B     		subs	r7, r2, r7
 2237 03a6 0137     		adds	r7, r7, #1
 2238 03a8 3FB2     		sxth	r7, r7
 2239              	.LVL250:
 2240              	.LBE219:
 2241              	.LBE218:
 2242              	.LBB220:
ARM GAS  C:\Users\haske\AppData\Local\Temp\cc8C2ZcK.s 			page 56


 2243              	.LBB221:
 2244              		.loc 2 135 0
 2245 03aa 0623     		movs	r3, #6
 2246 03ac C25E     		ldrsh	r2, [r0, r3]
 2247 03ae 0223     		movs	r3, #2
 2248 03b0 C55E     		ldrsh	r5, [r0, r3]
 2249 03b2 551B     		subs	r5, r2, r5
 2250 03b4 0135     		adds	r5, r5, #1
 2251 03b6 2DB2     		sxth	r5, r5
 2252              	.LVL251:
 2253              	.LBE221:
 2254              	.LBE220:
 2255              	.LBB222:
 2256              	.LBB223:
 2257 03b8 0623     		movs	r3, #6
 2258 03ba CA5E     		ldrsh	r2, [r1, r3]
 2259 03bc 0223     		movs	r3, #2
 2260 03be CC5E     		ldrsh	r4, [r1, r3]
 2261 03c0 121B     		subs	r2, r2, r4
 2262 03c2 0132     		adds	r2, r2, #1
 2263 03c4 12B2     		sxth	r2, r2
 2264              	.LVL252:
 2265              	.LBE223:
 2266              	.LBE222:
 435:..\..\..\arduinoLCD\test\Pain Drain\libraries\lvgl\src\misc/lv_area.c ****             break;
 2267              		.loc 1 435 0
 2268 03c6 EC0F     		lsrs	r4, r5, #31
 2269 03c8 6519     		adds	r5, r4, r5
 2270 03ca 6D10     		asrs	r5, r5, #1
 2271 03cc D40F     		lsrs	r4, r2, #31
 2272 03ce A218     		adds	r2, r4, r2
 2273 03d0 5210     		asrs	r2, r2, #1
 2274 03d2 AC1A     		subs	r4, r5, r2
 2275 03d4 24B2     		sxth	r4, r4
 2276              	.LVL253:
 436:..\..\..\arduinoLCD\test\Pain Drain\libraries\lvgl\src\misc/lv_area.c **** 
 2277              		.loc 1 436 0
 2278 03d6 1BE0     		b	.L71
 2279              	.L95:
 2280              		.align	2
 2281              	.L94:
 2282 03d8 00000000 		.word	.L73
 2283              	.LVL254:
 2284              	.L92:
 2285              	.LBB224:
 2286              	.LBB225:
 125:..\..\..\arduinoLCD\test\Pain Drain\libraries\lvgl\src\misc/lv_area.h **** }
 2287              		.loc 2 125 0
 2288 03dc 0423     		movs	r3, #4
 2289 03de C25E     		ldrsh	r2, [r0, r3]
 2290              	.LVL255:
 2291 03e0 0023     		movs	r3, #0
 2292 03e2 C75E     		ldrsh	r7, [r0, r3]
 2293 03e4 D71B     		subs	r7, r2, r7
 2294 03e6 0137     		adds	r7, r7, #1
 2295 03e8 3FB2     		sxth	r7, r7
 2296              	.LVL256:
ARM GAS  C:\Users\haske\AppData\Local\Temp\cc8C2ZcK.s 			page 57


 2297              	.LBE225:
 2298              	.LBE224:
 2299              	.LBB226:
 2300              	.LBB227:
 2301              		.loc 2 135 0
 2302 03ea 0623     		movs	r3, #6
 2303 03ec C25E     		ldrsh	r2, [r0, r3]
 2304 03ee 0223     		movs	r3, #2
 2305 03f0 C45E     		ldrsh	r4, [r0, r3]
 2306 03f2 141B     		subs	r4, r2, r4
 2307 03f4 0134     		adds	r4, r4, #1
 2308 03f6 A2B2     		uxth	r2, r4
 2309              	.LVL257:
 2310              	.LBE227:
 2311              	.LBE226:
 2312              	.LBB228:
 2313              	.LBB229:
 2314 03f8 0623     		movs	r3, #6
 2315 03fa CC5E     		ldrsh	r4, [r1, r3]
 2316 03fc 0223     		movs	r3, #2
 2317 03fe CD5E     		ldrsh	r5, [r1, r3]
 2318 0400 641B     		subs	r4, r4, r5
 2319 0402 0134     		adds	r4, r4, #1
 2320 0404 A4B2     		uxth	r4, r4
 2321              	.LVL258:
 2322              	.LBE229:
 2323              	.LBE228:
 440:..\..\..\arduinoLCD\test\Pain Drain\libraries\lvgl\src\misc/lv_area.c ****             break;
 2324              		.loc 1 440 0
 2325 0406 141B     		subs	r4, r2, r4
 2326 0408 24B2     		sxth	r4, r4
 2327              	.LVL259:
 441:..\..\..\arduinoLCD\test\Pain Drain\libraries\lvgl\src\misc/lv_area.c ****         default:
 2328              		.loc 1 441 0
 2329 040a 01E0     		b	.L71
 2330              	.LVL260:
 2331              	.L93:
 347:..\..\..\arduinoLCD\test\Pain Drain\libraries\lvgl\src\misc/lv_area.c ****             break;
 2332              		.loc 1 347 0
 2333 040c 0024     		movs	r4, #0
 346:..\..\..\arduinoLCD\test\Pain Drain\libraries\lvgl\src\misc/lv_area.c ****             y = 0;
 2334              		.loc 1 346 0
 2335 040e 0027     		movs	r7, #0
 2336              	.LVL261:
 2337              	.L71:
 448:..\..\..\arduinoLCD\test\Pain Drain\libraries\lvgl\src\misc/lv_area.c ****     y += base->y1;
 2338              		.loc 1 448 0
 2339 0410 0025     		movs	r5, #0
 2340 0412 425F     		ldrsh	r2, [r0, r5]
 2341 0414 D719     		adds	r7, r2, r7
 2342              	.LVL262:
 2343 0416 BFB2     		uxth	r7, r7
 2344              	.LVL263:
 449:..\..\..\arduinoLCD\test\Pain Drain\libraries\lvgl\src\misc/lv_area.c **** 
 2345              		.loc 1 449 0
 2346 0418 0222     		movs	r2, #2
 2347 041a 825E     		ldrsh	r2, [r0, r2]
ARM GAS  C:\Users\haske\AppData\Local\Temp\cc8C2ZcK.s 			page 58


 2348              	.LVL264:
 2349 041c 1019     		adds	r0, r2, r4
 2350 041e 82B2     		uxth	r2, r0
 2351              	.LVL265:
 2352              	.LBB230:
 2353              	.LBB231:
 125:..\..\..\arduinoLCD\test\Pain Drain\libraries\lvgl\src\misc/lv_area.h **** }
 2354              		.loc 2 125 0
 2355 0420 0424     		movs	r4, #4
 2356 0422 085F     		ldrsh	r0, [r1, r4]
 2357 0424 0025     		movs	r5, #0
 2358 0426 4C5F     		ldrsh	r4, [r1, r5]
 2359 0428 041B     		subs	r4, r0, r4
 2360 042a 0134     		adds	r4, r4, #1
 2361 042c A4B2     		uxth	r4, r4
 2362              	.LVL266:
 2363              	.LBE231:
 2364              	.LBE230:
 2365              	.LBB232:
 2366              	.LBB233:
 2367              		.loc 2 135 0
 2368 042e 0625     		movs	r5, #6
 2369 0430 485F     		ldrsh	r0, [r1, r5]
 2370 0432 0223     		movs	r3, #2
 2371 0434 CD5E     		ldrsh	r5, [r1, r3]
 2372 0436 401B     		subs	r0, r0, r5
 2373 0438 0130     		adds	r0, r0, #1
 2374 043a 80B2     		uxth	r0, r0
 2375              	.LVL267:
 2376              	.LBE233:
 2377              	.LBE232:
 453:..\..\..\arduinoLCD\test\Pain Drain\libraries\lvgl\src\misc/lv_area.c ****     to_align->y1 = y + ofs_y;
 2378              		.loc 1 453 0
 2379 043c 3B00     		movs	r3, r7
 2380 043e 6344     		add	r3, r3, ip
 2381 0440 9BB2     		uxth	r3, r3
 2382 0442 0B80     		strh	r3, [r1]
 454:..\..\..\arduinoLCD\test\Pain Drain\libraries\lvgl\src\misc/lv_area.c ****     to_align->x2 = to_align->x1 + w - 1;
 2383              		.loc 1 454 0
 2384 0444 9219     		adds	r2, r2, r6
 2385              	.LVL268:
 2386 0446 92B2     		uxth	r2, r2
 2387 0448 4A80     		strh	r2, [r1, #2]
 455:..\..\..\arduinoLCD\test\Pain Drain\libraries\lvgl\src\misc/lv_area.c ****     to_align->y2 = to_align->y1 + h - 1;
 2388              		.loc 1 455 0
 2389 044a 1B19     		adds	r3, r3, r4
 2390 044c 013B     		subs	r3, r3, #1
 2391 044e 8B80     		strh	r3, [r1, #4]
 456:..\..\..\arduinoLCD\test\Pain Drain\libraries\lvgl\src\misc/lv_area.c **** }
 2392              		.loc 1 456 0
 2393 0450 1218     		adds	r2, r2, r0
 2394 0452 013A     		subs	r2, r2, #1
 2395 0454 CA80     		strh	r2, [r1, #6]
 457:..\..\..\arduinoLCD\test\Pain Drain\libraries\lvgl\src\misc/lv_area.c **** 
 2396              		.loc 1 457 0
 2397              		@ sp needed
 2398              	.LVL269:
ARM GAS  C:\Users\haske\AppData\Local\Temp\cc8C2ZcK.s 			page 59


 2399 0456 F0BD     		pop	{r4, r5, r6, r7, pc}
 2400              		.cfi_endproc
 2401              	.LFE19:
 2402              		.size	lv_area_align, .-lv_area_align
 2403              		.global	__aeabi_idiv
 2404              		.section	.text.lv_point_transform,"ax",%progbits
 2405              		.align	2
 2406              		.global	lv_point_transform
 2407              		.code	16
 2408              		.thumb_func
 2409              		.type	lv_point_transform, %function
 2410              	lv_point_transform:
 2411              	.LFB20:
 461:..\..\..\arduinoLCD\test\Pain Drain\libraries\lvgl\src\misc/lv_area.c ****     if(angle == 0 && zoom == 256) {
 2412              		.loc 1 461 0
 2413              		.cfi_startproc
 2414              		@ args = 0, pretend = 0, frame = 16
 2415              		@ frame_needed = 0, uses_anonymous_args = 0
 2416              	.LVL270:
 2417 0000 F0B5     		push	{r4, r5, r6, r7, lr}
 2418              		.cfi_def_cfa_offset 20
 2419              		.cfi_offset 4, -20
 2420              		.cfi_offset 5, -16
 2421              		.cfi_offset 6, -12
 2422              		.cfi_offset 7, -8
 2423              		.cfi_offset 14, -4
 2424 0002 5F46     		mov	r7, fp
 2425 0004 5646     		mov	r6, r10
 2426 0006 4D46     		mov	r5, r9
 2427 0008 4446     		mov	r4, r8
 2428 000a F0B4     		push	{r4, r5, r6, r7}
 2429              		.cfi_def_cfa_offset 36
 2430              		.cfi_offset 8, -36
 2431              		.cfi_offset 9, -32
 2432              		.cfi_offset 10, -28
 2433              		.cfi_offset 11, -24
 2434 000c 85B0     		sub	sp, sp, #20
 2435              		.cfi_def_cfa_offset 56
 2436 000e 0400     		movs	r4, r0
 2437 0010 0D00     		movs	r5, r1
 2438 0012 1700     		movs	r7, r2
 2439 0014 1E00     		movs	r6, r3
 462:..\..\..\arduinoLCD\test\Pain Drain\libraries\lvgl\src\misc/lv_area.c ****         return;
 2440              		.loc 1 462 0
 2441 0016 0029     		cmp	r1, #0
 2442 0018 04D1     		bne	.L97
 462:..\..\..\arduinoLCD\test\Pain Drain\libraries\lvgl\src\misc/lv_area.c ****         return;
 2443              		.loc 1 462 0 is_stmt 0 discriminator 1
 2444 001a 8023     		movs	r3, #128
 2445              	.LVL271:
 2446 001c 5B00     		lsls	r3, r3, #1
 2447 001e 9A42     		cmp	r2, r3
 2448 0020 00D1     		bne	.LCB2231
 2449 0022 B0E0     		b	.L96	@long jump
 2450              	.LCB2231:
 2451              	.L97:
 466:..\..\..\arduinoLCD\test\Pain Drain\libraries\lvgl\src\misc/lv_area.c ****     p->y -= pivot->y;
ARM GAS  C:\Users\haske\AppData\Local\Temp\cc8C2ZcK.s 			page 60


 2452              		.loc 1 466 0 is_stmt 1
 2453 0024 0023     		movs	r3, #0
 2454 0026 F25E     		ldrsh	r2, [r6, r3]
 2455              	.LVL272:
 2456 0028 2388     		ldrh	r3, [r4]
 2457 002a 9A1A     		subs	r2, r3, r2
 2458 002c 12B2     		sxth	r2, r2
 2459 002e 2280     		strh	r2, [r4]
 467:..\..\..\arduinoLCD\test\Pain Drain\libraries\lvgl\src\misc/lv_area.c **** 
 2460              		.loc 1 467 0
 2461 0030 0223     		movs	r3, #2
 2462 0032 F15E     		ldrsh	r1, [r6, r3]
 2463              	.LVL273:
 2464 0034 6388     		ldrh	r3, [r4, #2]
 2465 0036 5B1A     		subs	r3, r3, r1
 2466 0038 1BB2     		sxth	r3, r3
 2467 003a 6380     		strh	r3, [r4, #2]
 469:..\..\..\arduinoLCD\test\Pain Drain\libraries\lvgl\src\misc/lv_area.c ****         p->x = (((int32_t)(p->x) * zoom) >> 8) + pivot->x;
 2468              		.loc 1 469 0
 2469 003c 002D     		cmp	r5, #0
 2470 003e 0CD1     		bne	.L99
 470:..\..\..\arduinoLCD\test\Pain Drain\libraries\lvgl\src\misc/lv_area.c ****         p->y = (((int32_t)(p->y) * zoom) >> 8) + pivot->y;
 2471              		.loc 1 470 0
 2472 0040 7A43     		muls	r2, r7
 2473 0042 1212     		asrs	r2, r2, #8
 2474 0044 0020     		movs	r0, #0
 2475 0046 315E     		ldrsh	r1, [r6, r0]
 2476              	.LVL274:
 2477 0048 5218     		adds	r2, r2, r1
 2478 004a 2280     		strh	r2, [r4]
 471:..\..\..\arduinoLCD\test\Pain Drain\libraries\lvgl\src\misc/lv_area.c ****         return;
 2479              		.loc 1 471 0
 2480 004c 5F43     		muls	r7, r3
 2481              	.LVL275:
 2482 004e 3F12     		asrs	r7, r7, #8
 2483 0050 0222     		movs	r2, #2
 2484 0052 B35E     		ldrsh	r3, [r6, r2]
 2485 0054 FF18     		adds	r7, r7, r3
 2486 0056 6780     		strh	r7, [r4, #2]
 472:..\..\..\arduinoLCD\test\Pain Drain\libraries\lvgl\src\misc/lv_area.c ****     }
 2487              		.loc 1 472 0
 2488 0058 95E0     		b	.L96
 2489              	.LVL276:
 2490              	.L99:
 478:..\..\..\arduinoLCD\test\Pain Drain\libraries\lvgl\src\misc/lv_area.c ****         int32_t angle_limited = angle;
 2491              		.loc 1 478 0
 2492 005a 4E4B     		ldr	r3, .L105
 2493 005c 1B68     		ldr	r3, [r3]
 2494 005e 9D42     		cmp	r5, r3
 2495 0060 56D0     		beq	.L100
 2496              	.LVL277:
 2497              	.LBB234:
 480:..\..\..\arduinoLCD\test\Pain Drain\libraries\lvgl\src\misc/lv_area.c ****         if(angle_limited < 0) angle_limited += 3600;
 2498              		.loc 1 480 0
 2499 0062 E123     		movs	r3, #225
 2500 0064 1B01     		lsls	r3, r3, #4
 2501 0066 9D42     		cmp	r5, r3
ARM GAS  C:\Users\haske\AppData\Local\Temp\cc8C2ZcK.s 			page 61


 2502 0068 03DD     		ble	.L104
 480:..\..\..\arduinoLCD\test\Pain Drain\libraries\lvgl\src\misc/lv_area.c ****         if(angle_limited < 0) angle_limited += 3600;
 2503              		.loc 1 480 0 is_stmt 0 discriminator 1
 2504 006a 4B4B     		ldr	r3, .L105+4
 2505 006c 9B46     		mov	fp, r3
 2506 006e AB44     		add	fp, fp, r5
 2507              	.LVL278:
 2508 0070 00E0     		b	.L101
 2509              	.LVL279:
 2510              	.L104:
 479:..\..\..\arduinoLCD\test\Pain Drain\libraries\lvgl\src\misc/lv_area.c ****         if(angle_limited > 3600) angle_limited -= 3600;
 2511              		.loc 1 479 0 is_stmt 1
 2512 0072 AB46     		mov	fp, r5
 2513              	.LVL280:
 2514              	.L101:
 481:..\..\..\arduinoLCD\test\Pain Drain\libraries\lvgl\src\misc/lv_area.c **** 
 2515              		.loc 1 481 0
 2516 0074 5B46     		mov	r3, fp
 2517 0076 002B     		cmp	r3, #0
 2518 0078 03DA     		bge	.L102
 2519              	.LVL281:
 481:..\..\..\arduinoLCD\test\Pain Drain\libraries\lvgl\src\misc/lv_area.c **** 
 2520              		.loc 1 481 0 is_stmt 0 discriminator 1
 2521 007a E123     		movs	r3, #225
 2522              	.LVL282:
 2523 007c 1B01     		lsls	r3, r3, #4
 2524 007e 9C46     		mov	ip, r3
 2525 0080 E344     		add	fp, fp, ip
 2526              	.LVL283:
 2527              	.L102:
 483:..\..\..\arduinoLCD\test\Pain Drain\libraries\lvgl\src\misc/lv_area.c ****         int32_t angle_high = angle_low + 1;
 2528              		.loc 1 483 0 is_stmt 1
 2529 0082 0A21     		movs	r1, #10
 2530 0084 5846     		mov	r0, fp
 2531              	.LVL284:
 2532 0086 FFF7FEFF 		bl	__aeabi_idiv
 2533              	.LVL285:
 2534 008a 8046     		mov	r8, r0
 2535              	.LVL286:
 484:..\..\..\arduinoLCD\test\Pain Drain\libraries\lvgl\src\misc/lv_area.c ****         int32_t angle_rem = angle_limited  - (angle_low * 10);
 2536              		.loc 1 484 0
 2537 008c 0123     		movs	r3, #1
 2538 008e 4344     		add	r3, r3, r8
 2539 0090 9A46     		mov	r10, r3
 2540              	.LVL287:
 485:..\..\..\arduinoLCD\test\Pain Drain\libraries\lvgl\src\misc/lv_area.c **** 
 2541              		.loc 1 485 0
 2542 0092 0A20     		movs	r0, #10
 2543              	.LVL288:
 2544 0094 4042     		rsbs	r0, r0, #0
 2545 0096 4346     		mov	r3, r8
 2546              	.LVL289:
 2547 0098 5843     		muls	r0, r3
 2548 009a 5844     		add	r0, r0, fp
 2549 009c 8146     		mov	r9, r0
 2550              	.LVL290:
 487:..\..\..\arduinoLCD\test\Pain Drain\libraries\lvgl\src\misc/lv_area.c ****         int32_t s2 = lv_trigo_sin(angle_high);
ARM GAS  C:\Users\haske\AppData\Local\Temp\cc8C2ZcK.s 			page 62


 2551              		.loc 1 487 0
 2552 009e 4346     		mov	r3, r8
 2553 00a0 18B2     		sxth	r0, r3
 2554              	.LVL291:
 2555 00a2 FFF7FEFF 		bl	lv_trigo_sin
 2556              	.LVL292:
 2557 00a6 8346     		mov	fp, r0
 2558              	.LVL293:
 488:..\..\..\arduinoLCD\test\Pain Drain\libraries\lvgl\src\misc/lv_area.c **** 
 2559              		.loc 1 488 0
 2560 00a8 5346     		mov	r3, r10
 2561 00aa 18B2     		sxth	r0, r3
 2562              	.LVL294:
 2563 00ac FFF7FEFF 		bl	lv_trigo_sin
 2564              	.LVL295:
 2565 00b0 0190     		str	r0, [sp, #4]
 2566              	.LVL296:
 490:..\..\..\arduinoLCD\test\Pain Drain\libraries\lvgl\src\misc/lv_area.c ****         int32_t c2 = lv_trigo_sin(angle_high + 90);
 2567              		.loc 1 490 0
 2568 00b2 4346     		mov	r3, r8
 2569 00b4 5A33     		adds	r3, r3, #90
 2570 00b6 18B2     		sxth	r0, r3
 2571              	.LVL297:
 2572 00b8 FFF7FEFF 		bl	lv_trigo_sin
 2573              	.LVL298:
 2574 00bc 0290     		str	r0, [sp, #8]
 2575              	.LVL299:
 491:..\..\..\arduinoLCD\test\Pain Drain\libraries\lvgl\src\misc/lv_area.c **** 
 2576              		.loc 1 491 0
 2577 00be 5346     		mov	r3, r10
 2578 00c0 5A33     		adds	r3, r3, #90
 2579 00c2 18B2     		sxth	r0, r3
 2580              	.LVL300:
 2581 00c4 FFF7FEFF 		bl	lv_trigo_sin
 2582              	.LVL301:
 2583 00c8 0390     		str	r0, [sp, #12]
 2584              	.LVL302:
 493:..\..\..\arduinoLCD\test\Pain Drain\libraries\lvgl\src\misc/lv_area.c ****         cosma = (c1 * (10 - angle_rem) + c2 * angle_rem) / 10;
 2585              		.loc 1 493 0
 2586 00ca 0A20     		movs	r0, #10
 2587              	.LVL303:
 2588 00cc 4946     		mov	r1, r9
 2589 00ce 411A     		subs	r1, r0, r1
 2590 00d0 8846     		mov	r8, r1
 2591              	.LVL304:
 2592 00d2 5B46     		mov	r3, fp
 2593 00d4 4B43     		muls	r3, r1
 2594 00d6 019A     		ldr	r2, [sp, #4]
 2595 00d8 4946     		mov	r1, r9
 2596 00da 4A43     		muls	r2, r1
 2597 00dc 9818     		adds	r0, r3, r2
 2598 00de 0A21     		movs	r1, #10
 2599 00e0 FFF7FEFF 		bl	__aeabi_idiv
 2600              	.LVL305:
 2601 00e4 8346     		mov	fp, r0
 2602              	.LVL306:
 2603 00e6 2D4A     		ldr	r2, .L105+8
ARM GAS  C:\Users\haske\AppData\Local\Temp\cc8C2ZcK.s 			page 63


 2604 00e8 9246     		mov	r10, r2
 2605              	.LVL307:
 494:..\..\..\arduinoLCD\test\Pain Drain\libraries\lvgl\src\misc/lv_area.c ****         sinma = sinma >> (LV_TRIGO_SHIFT - _LV_TRANSFORM_TRIGO_SHIFT);
 2606              		.loc 1 494 0
 2607 00ea 029B     		ldr	r3, [sp, #8]
 2608 00ec 4246     		mov	r2, r8
 2609 00ee 5343     		muls	r3, r2
 2610 00f0 1800     		movs	r0, r3
 2611 00f2 039B     		ldr	r3, [sp, #12]
 2612 00f4 4A46     		mov	r2, r9
 2613 00f6 5343     		muls	r3, r2
 2614 00f8 C018     		adds	r0, r0, r3
 2615 00fa 0A21     		movs	r1, #10
 2616 00fc FFF7FEFF 		bl	__aeabi_idiv
 2617              	.LVL308:
 495:..\..\..\arduinoLCD\test\Pain Drain\libraries\lvgl\src\misc/lv_area.c ****         cosma = cosma >> (LV_TRIGO_SHIFT - _LV_TRANSFORM_TRIGO_SHIFT);
 2618              		.loc 1 495 0
 2619 0100 5B46     		mov	r3, fp
 2620 0102 5B11     		asrs	r3, r3, #5
 2621 0104 5246     		mov	r2, r10
 2622 0106 1360     		str	r3, [r2]
 496:..\..\..\arduinoLCD\test\Pain Drain\libraries\lvgl\src\misc/lv_area.c ****         angle_prev = angle;
 2623              		.loc 1 496 0
 2624 0108 4011     		asrs	r0, r0, #5
 2625 010a 5060     		str	r0, [r2, #4]
 497:..\..\..\arduinoLCD\test\Pain Drain\libraries\lvgl\src\misc/lv_area.c ****     }
 2626              		.loc 1 497 0
 2627 010c 214B     		ldr	r3, .L105
 2628 010e 1D60     		str	r5, [r3]
 2629              	.LVL309:
 2630              	.L100:
 2631              	.LBE234:
 499:..\..\..\arduinoLCD\test\Pain Drain\libraries\lvgl\src\misc/lv_area.c ****     int32_t y = p->y;
 2632              		.loc 1 499 0
 2633 0110 0022     		movs	r2, #0
 2634 0112 A35E     		ldrsh	r3, [r4, r2]
 2635 0114 9C46     		mov	ip, r3
 2636              	.LVL310:
 500:..\..\..\arduinoLCD\test\Pain Drain\libraries\lvgl\src\misc/lv_area.c ****     if(zoom == 256) {
 2637              		.loc 1 500 0
 2638 0116 0223     		movs	r3, #2
 2639 0118 E55E     		ldrsh	r5, [r4, r3]
 2640              	.LVL311:
 501:..\..\..\arduinoLCD\test\Pain Drain\libraries\lvgl\src\misc/lv_area.c ****         p->x = ((cosma * x - sinma * y) >> _LV_TRANSFORM_TRIGO_SHIFT) + pivot->x;
 2641              		.loc 1 501 0
 2642 011a 8023     		movs	r3, #128
 2643 011c 5B00     		lsls	r3, r3, #1
 2644 011e 9F42     		cmp	r7, r3
 2645 0120 17D1     		bne	.L103
 502:..\..\..\arduinoLCD\test\Pain Drain\libraries\lvgl\src\misc/lv_area.c ****         p->y = ((sinma * x + cosma * y) >> _LV_TRANSFORM_TRIGO_SHIFT) + pivot->y;
 2646              		.loc 1 502 0
 2647 0122 1E4B     		ldr	r3, .L105+8
 2648 0124 5A68     		ldr	r2, [r3, #4]
 2649 0126 6046     		mov	r0, ip
 2650 0128 5043     		muls	r0, r2
 2651 012a 1B68     		ldr	r3, [r3]
 2652 012c 1900     		movs	r1, r3
ARM GAS  C:\Users\haske\AppData\Local\Temp\cc8C2ZcK.s 			page 64


 2653 012e 6943     		muls	r1, r5
 2654 0130 401A     		subs	r0, r0, r1
 2655 0132 8012     		asrs	r0, r0, #10
 2656 0134 0027     		movs	r7, #0
 2657 0136 F15F     		ldrsh	r1, [r6, r7]
 2658              	.LVL312:
 2659 0138 4018     		adds	r0, r0, r1
 2660 013a 2080     		strh	r0, [r4]
 503:..\..\..\arduinoLCD\test\Pain Drain\libraries\lvgl\src\misc/lv_area.c ****     }
 2661              		.loc 1 503 0
 2662 013c 6146     		mov	r1, ip
 2663 013e 5943     		muls	r1, r3
 2664 0140 1300     		movs	r3, r2
 2665 0142 6B43     		muls	r3, r5
 2666 0144 CB18     		adds	r3, r1, r3
 2667 0146 9B12     		asrs	r3, r3, #10
 2668 0148 0221     		movs	r1, #2
 2669 014a 725E     		ldrsh	r2, [r6, r1]
 2670 014c 9B18     		adds	r3, r3, r2
 2671 014e 6380     		strh	r3, [r4, #2]
 2672 0150 19E0     		b	.L96
 2673              	.LVL313:
 2674              	.L103:
 506:..\..\..\arduinoLCD\test\Pain Drain\libraries\lvgl\src\misc/lv_area.c ****         p->y = (((sinma * x + cosma * y) * zoom) >> (_LV_TRANSFORM_TRIGO_SHIFT + 8)) + pivot->y;
 2675              		.loc 1 506 0
 2676 0152 1249     		ldr	r1, .L105+8
 2677 0154 4B68     		ldr	r3, [r1, #4]
 2678 0156 6246     		mov	r2, ip
 2679 0158 5A43     		muls	r2, r3
 2680 015a 0968     		ldr	r1, [r1]
 2681 015c 0800     		movs	r0, r1
 2682 015e 6843     		muls	r0, r5
 2683 0160 121A     		subs	r2, r2, r0
 2684 0162 7A43     		muls	r2, r7
 2685 0164 9214     		asrs	r2, r2, #18
 2686 0166 9046     		mov	r8, r2
 2687 0168 0022     		movs	r2, #0
 2688 016a B05E     		ldrsh	r0, [r6, r2]
 2689 016c 0200     		movs	r2, r0
 2690 016e 4244     		add	r2, r2, r8
 2691 0170 2280     		strh	r2, [r4]
 507:..\..\..\arduinoLCD\test\Pain Drain\libraries\lvgl\src\misc/lv_area.c ****     }
 2692              		.loc 1 507 0
 2693 0172 6246     		mov	r2, ip
 2694 0174 5143     		muls	r1, r2
 2695 0176 6B43     		muls	r3, r5
 2696 0178 CB18     		adds	r3, r1, r3
 2697 017a 5F43     		muls	r7, r3
 2698              	.LVL314:
 2699 017c BF14     		asrs	r7, r7, #18
 2700 017e 0222     		movs	r2, #2
 2701 0180 B35E     		ldrsh	r3, [r6, r2]
 2702 0182 FF18     		adds	r7, r7, r3
 2703 0184 6780     		strh	r7, [r4, #2]
 2704              	.LVL315:
 2705              	.L96:
 509:..\..\..\arduinoLCD\test\Pain Drain\libraries\lvgl\src\misc/lv_area.c **** 
ARM GAS  C:\Users\haske\AppData\Local\Temp\cc8C2ZcK.s 			page 65


 2706              		.loc 1 509 0
 2707 0186 05B0     		add	sp, sp, #20
 2708              		@ sp needed
 2709              	.LVL316:
 2710              	.LVL317:
 2711 0188 3CBC     		pop	{r2, r3, r4, r5}
 2712 018a 9046     		mov	r8, r2
 2713 018c 9946     		mov	r9, r3
 2714 018e A246     		mov	r10, r4
 2715 0190 AB46     		mov	fp, r5
 2716 0192 F0BD     		pop	{r4, r5, r6, r7, pc}
 2717              	.L106:
 2718              		.align	2
 2719              	.L105:
 2720 0194 00000000 		.word	.LANCHOR0
 2721 0198 F0F1FFFF 		.word	-3600
 2722 019c 00000000 		.word	.LANCHOR1
 2723              		.cfi_endproc
 2724              	.LFE20:
 2725              		.size	lv_point_transform, .-lv_point_transform
 2726              		.data
 2727              		.align	2
 2728              		.set	.LANCHOR0,. + 0
 2729              		.type	angle_prev.4486, %object
 2730              		.size	angle_prev.4486, 4
 2731              	angle_prev.4486:
 2732 0000 00000080 		.word	-2147483648
 2733              		.bss
 2734              		.align	2
 2735              		.set	.LANCHOR1,. + 0
 2736              		.type	sinma.4487, %object
 2737              		.size	sinma.4487, 4
 2738              	sinma.4487:
 2739 0000 00000000 		.space	4
 2740              		.type	cosma.4488, %object
 2741              		.size	cosma.4488, 4
 2742              	cosma.4488:
 2743 0004 00000000 		.space	4
 2744              		.text
 2745              	.Letext0:
 2746              		.file 3 "c:\\program files (x86)\\cypress\\psoc creator\\4.4\\psoc creator\\import\\gnu\\arm\\5.4.
 2747              		.file 4 "c:\\program files (x86)\\cypress\\psoc creator\\4.4\\psoc creator\\import\\gnu\\arm\\5.4.
 2748              		.file 5 "..\\..\\..\\arduinoLCD\\test\\Pain Drain\\libraries\\lvgl\\src\\misc\\lv_math.h"