ARM GAS  C:\Users\haske\AppData\Local\Temp\cc11ZRIl.s 			page 1


   1              		.syntax unified
   2              		.cpu cortex-m0plus
   3              		.fpu softvfp
   4              		.eabi_attribute 20, 1
   5              		.eabi_attribute 21, 1
   6              		.eabi_attribute 23, 3
   7              		.eabi_attribute 24, 1
   8              		.eabi_attribute 25, 1
   9              		.eabi_attribute 26, 1
  10              		.eabi_attribute 30, 1
  11              		.eabi_attribute 34, 0
  12              		.eabi_attribute 18, 4
  13              		.thumb
  14              		.syntax unified
  15              		.file	"lv_bar.c"
  16              		.text
  17              	.Ltext0:
  18              		.cfi_sections	.debug_frame
  19              		.section	.text.lv_area_get_width,"ax",%progbits
  20              		.align	2
  21              		.code	16
  22              		.thumb_func
  23              		.type	lv_area_get_width, %function
  24              	lv_area_get_width:
  25              	.LFB1:
  26              		.file 1 "c:\\projects\\paindrain\\arduinolcd\\test\\pain drain\\libraries\\lvgl\\src\\misc\\lv_are
   1:c:\projects\paindrain\arduinolcd\test\pain drain\libraries\lvgl\src\misc\lv_area.h **** /**
   2:c:\projects\paindrain\arduinolcd\test\pain drain\libraries\lvgl\src\misc\lv_area.h ****  * @file lv_area.h
   3:c:\projects\paindrain\arduinolcd\test\pain drain\libraries\lvgl\src\misc\lv_area.h ****  *
   4:c:\projects\paindrain\arduinolcd\test\pain drain\libraries\lvgl\src\misc\lv_area.h ****  */
   5:c:\projects\paindrain\arduinolcd\test\pain drain\libraries\lvgl\src\misc\lv_area.h **** 
   6:c:\projects\paindrain\arduinolcd\test\pain drain\libraries\lvgl\src\misc\lv_area.h **** #ifndef LV_AREA_H
   7:c:\projects\paindrain\arduinolcd\test\pain drain\libraries\lvgl\src\misc\lv_area.h **** #define LV_AREA_H
   8:c:\projects\paindrain\arduinolcd\test\pain drain\libraries\lvgl\src\misc\lv_area.h **** 
   9:c:\projects\paindrain\arduinolcd\test\pain drain\libraries\lvgl\src\misc\lv_area.h **** #ifdef __cplusplus
  10:c:\projects\paindrain\arduinolcd\test\pain drain\libraries\lvgl\src\misc\lv_area.h **** extern "C" {
  11:c:\projects\paindrain\arduinolcd\test\pain drain\libraries\lvgl\src\misc\lv_area.h **** #endif
  12:c:\projects\paindrain\arduinolcd\test\pain drain\libraries\lvgl\src\misc\lv_area.h **** 
  13:c:\projects\paindrain\arduinolcd\test\pain drain\libraries\lvgl\src\misc\lv_area.h **** /*********************
  14:c:\projects\paindrain\arduinolcd\test\pain drain\libraries\lvgl\src\misc\lv_area.h ****  *      INCLUDES
  15:c:\projects\paindrain\arduinolcd\test\pain drain\libraries\lvgl\src\misc\lv_area.h ****  *********************/
  16:c:\projects\paindrain\arduinolcd\test\pain drain\libraries\lvgl\src\misc\lv_area.h **** #include "../lv_conf_internal.h"
  17:c:\projects\paindrain\arduinolcd\test\pain drain\libraries\lvgl\src\misc\lv_area.h **** #include <stdbool.h>
  18:c:\projects\paindrain\arduinolcd\test\pain drain\libraries\lvgl\src\misc\lv_area.h **** #include <stdint.h>
  19:c:\projects\paindrain\arduinolcd\test\pain drain\libraries\lvgl\src\misc\lv_area.h **** 
  20:c:\projects\paindrain\arduinolcd\test\pain drain\libraries\lvgl\src\misc\lv_area.h **** /*********************
  21:c:\projects\paindrain\arduinolcd\test\pain drain\libraries\lvgl\src\misc\lv_area.h ****  *      DEFINES
  22:c:\projects\paindrain\arduinolcd\test\pain drain\libraries\lvgl\src\misc\lv_area.h ****  *********************/
  23:c:\projects\paindrain\arduinolcd\test\pain drain\libraries\lvgl\src\misc\lv_area.h **** 
  24:c:\projects\paindrain\arduinolcd\test\pain drain\libraries\lvgl\src\misc\lv_area.h **** #if LV_USE_LARGE_COORD
  25:c:\projects\paindrain\arduinolcd\test\pain drain\libraries\lvgl\src\misc\lv_area.h **** typedef int32_t lv_coord_t;
  26:c:\projects\paindrain\arduinolcd\test\pain drain\libraries\lvgl\src\misc\lv_area.h **** #else
  27:c:\projects\paindrain\arduinolcd\test\pain drain\libraries\lvgl\src\misc\lv_area.h **** typedef int16_t lv_coord_t;
  28:c:\projects\paindrain\arduinolcd\test\pain drain\libraries\lvgl\src\misc\lv_area.h **** #endif
  29:c:\projects\paindrain\arduinolcd\test\pain drain\libraries\lvgl\src\misc\lv_area.h **** 
  30:c:\projects\paindrain\arduinolcd\test\pain drain\libraries\lvgl\src\misc\lv_area.h **** /**********************
  31:c:\projects\paindrain\arduinolcd\test\pain drain\libraries\lvgl\src\misc\lv_area.h ****  *      TYPEDEFS
ARM GAS  C:\Users\haske\AppData\Local\Temp\cc11ZRIl.s 			page 2


  32:c:\projects\paindrain\arduinolcd\test\pain drain\libraries\lvgl\src\misc\lv_area.h ****  **********************/
  33:c:\projects\paindrain\arduinolcd\test\pain drain\libraries\lvgl\src\misc\lv_area.h **** 
  34:c:\projects\paindrain\arduinolcd\test\pain drain\libraries\lvgl\src\misc\lv_area.h **** /**
  35:c:\projects\paindrain\arduinolcd\test\pain drain\libraries\lvgl\src\misc\lv_area.h ****  * Represents a point on the screen.
  36:c:\projects\paindrain\arduinolcd\test\pain drain\libraries\lvgl\src\misc\lv_area.h ****  */
  37:c:\projects\paindrain\arduinolcd\test\pain drain\libraries\lvgl\src\misc\lv_area.h **** typedef struct {
  38:c:\projects\paindrain\arduinolcd\test\pain drain\libraries\lvgl\src\misc\lv_area.h ****     lv_coord_t x;
  39:c:\projects\paindrain\arduinolcd\test\pain drain\libraries\lvgl\src\misc\lv_area.h ****     lv_coord_t y;
  40:c:\projects\paindrain\arduinolcd\test\pain drain\libraries\lvgl\src\misc\lv_area.h **** } lv_point_t;
  41:c:\projects\paindrain\arduinolcd\test\pain drain\libraries\lvgl\src\misc\lv_area.h **** 
  42:c:\projects\paindrain\arduinolcd\test\pain drain\libraries\lvgl\src\misc\lv_area.h **** /** Represents an area of the screen.*/
  43:c:\projects\paindrain\arduinolcd\test\pain drain\libraries\lvgl\src\misc\lv_area.h **** typedef struct {
  44:c:\projects\paindrain\arduinolcd\test\pain drain\libraries\lvgl\src\misc\lv_area.h ****     lv_coord_t x1;
  45:c:\projects\paindrain\arduinolcd\test\pain drain\libraries\lvgl\src\misc\lv_area.h ****     lv_coord_t y1;
  46:c:\projects\paindrain\arduinolcd\test\pain drain\libraries\lvgl\src\misc\lv_area.h ****     lv_coord_t x2;
  47:c:\projects\paindrain\arduinolcd\test\pain drain\libraries\lvgl\src\misc\lv_area.h ****     lv_coord_t y2;
  48:c:\projects\paindrain\arduinolcd\test\pain drain\libraries\lvgl\src\misc\lv_area.h **** } lv_area_t;
  49:c:\projects\paindrain\arduinolcd\test\pain drain\libraries\lvgl\src\misc\lv_area.h **** 
  50:c:\projects\paindrain\arduinolcd\test\pain drain\libraries\lvgl\src\misc\lv_area.h **** /** Alignments*/
  51:c:\projects\paindrain\arduinolcd\test\pain drain\libraries\lvgl\src\misc\lv_area.h **** enum {
  52:c:\projects\paindrain\arduinolcd\test\pain drain\libraries\lvgl\src\misc\lv_area.h ****     LV_ALIGN_DEFAULT = 0,
  53:c:\projects\paindrain\arduinolcd\test\pain drain\libraries\lvgl\src\misc\lv_area.h ****     LV_ALIGN_TOP_LEFT,
  54:c:\projects\paindrain\arduinolcd\test\pain drain\libraries\lvgl\src\misc\lv_area.h ****     LV_ALIGN_TOP_MID,
  55:c:\projects\paindrain\arduinolcd\test\pain drain\libraries\lvgl\src\misc\lv_area.h ****     LV_ALIGN_TOP_RIGHT,
  56:c:\projects\paindrain\arduinolcd\test\pain drain\libraries\lvgl\src\misc\lv_area.h ****     LV_ALIGN_BOTTOM_LEFT,
  57:c:\projects\paindrain\arduinolcd\test\pain drain\libraries\lvgl\src\misc\lv_area.h ****     LV_ALIGN_BOTTOM_MID,
  58:c:\projects\paindrain\arduinolcd\test\pain drain\libraries\lvgl\src\misc\lv_area.h ****     LV_ALIGN_BOTTOM_RIGHT,
  59:c:\projects\paindrain\arduinolcd\test\pain drain\libraries\lvgl\src\misc\lv_area.h ****     LV_ALIGN_LEFT_MID,
  60:c:\projects\paindrain\arduinolcd\test\pain drain\libraries\lvgl\src\misc\lv_area.h ****     LV_ALIGN_RIGHT_MID,
  61:c:\projects\paindrain\arduinolcd\test\pain drain\libraries\lvgl\src\misc\lv_area.h ****     LV_ALIGN_CENTER,
  62:c:\projects\paindrain\arduinolcd\test\pain drain\libraries\lvgl\src\misc\lv_area.h **** 
  63:c:\projects\paindrain\arduinolcd\test\pain drain\libraries\lvgl\src\misc\lv_area.h ****     LV_ALIGN_OUT_TOP_LEFT,
  64:c:\projects\paindrain\arduinolcd\test\pain drain\libraries\lvgl\src\misc\lv_area.h ****     LV_ALIGN_OUT_TOP_MID,
  65:c:\projects\paindrain\arduinolcd\test\pain drain\libraries\lvgl\src\misc\lv_area.h ****     LV_ALIGN_OUT_TOP_RIGHT,
  66:c:\projects\paindrain\arduinolcd\test\pain drain\libraries\lvgl\src\misc\lv_area.h ****     LV_ALIGN_OUT_BOTTOM_LEFT,
  67:c:\projects\paindrain\arduinolcd\test\pain drain\libraries\lvgl\src\misc\lv_area.h ****     LV_ALIGN_OUT_BOTTOM_MID,
  68:c:\projects\paindrain\arduinolcd\test\pain drain\libraries\lvgl\src\misc\lv_area.h ****     LV_ALIGN_OUT_BOTTOM_RIGHT,
  69:c:\projects\paindrain\arduinolcd\test\pain drain\libraries\lvgl\src\misc\lv_area.h ****     LV_ALIGN_OUT_LEFT_TOP,
  70:c:\projects\paindrain\arduinolcd\test\pain drain\libraries\lvgl\src\misc\lv_area.h ****     LV_ALIGN_OUT_LEFT_MID,
  71:c:\projects\paindrain\arduinolcd\test\pain drain\libraries\lvgl\src\misc\lv_area.h ****     LV_ALIGN_OUT_LEFT_BOTTOM,
  72:c:\projects\paindrain\arduinolcd\test\pain drain\libraries\lvgl\src\misc\lv_area.h ****     LV_ALIGN_OUT_RIGHT_TOP,
  73:c:\projects\paindrain\arduinolcd\test\pain drain\libraries\lvgl\src\misc\lv_area.h ****     LV_ALIGN_OUT_RIGHT_MID,
  74:c:\projects\paindrain\arduinolcd\test\pain drain\libraries\lvgl\src\misc\lv_area.h ****     LV_ALIGN_OUT_RIGHT_BOTTOM,
  75:c:\projects\paindrain\arduinolcd\test\pain drain\libraries\lvgl\src\misc\lv_area.h **** };
  76:c:\projects\paindrain\arduinolcd\test\pain drain\libraries\lvgl\src\misc\lv_area.h **** typedef uint8_t lv_align_t;
  77:c:\projects\paindrain\arduinolcd\test\pain drain\libraries\lvgl\src\misc\lv_area.h **** 
  78:c:\projects\paindrain\arduinolcd\test\pain drain\libraries\lvgl\src\misc\lv_area.h **** enum {
  79:c:\projects\paindrain\arduinolcd\test\pain drain\libraries\lvgl\src\misc\lv_area.h ****     LV_DIR_NONE     = 0x00,
  80:c:\projects\paindrain\arduinolcd\test\pain drain\libraries\lvgl\src\misc\lv_area.h ****     LV_DIR_LEFT     = (1 << 0),
  81:c:\projects\paindrain\arduinolcd\test\pain drain\libraries\lvgl\src\misc\lv_area.h ****     LV_DIR_RIGHT    = (1 << 1),
  82:c:\projects\paindrain\arduinolcd\test\pain drain\libraries\lvgl\src\misc\lv_area.h ****     LV_DIR_TOP      = (1 << 2),
  83:c:\projects\paindrain\arduinolcd\test\pain drain\libraries\lvgl\src\misc\lv_area.h ****     LV_DIR_BOTTOM   = (1 << 3),
  84:c:\projects\paindrain\arduinolcd\test\pain drain\libraries\lvgl\src\misc\lv_area.h ****     LV_DIR_HOR      = LV_DIR_LEFT | LV_DIR_RIGHT,
  85:c:\projects\paindrain\arduinolcd\test\pain drain\libraries\lvgl\src\misc\lv_area.h ****     LV_DIR_VER      = LV_DIR_TOP | LV_DIR_BOTTOM,
  86:c:\projects\paindrain\arduinolcd\test\pain drain\libraries\lvgl\src\misc\lv_area.h ****     LV_DIR_ALL      = LV_DIR_HOR | LV_DIR_VER,
  87:c:\projects\paindrain\arduinolcd\test\pain drain\libraries\lvgl\src\misc\lv_area.h **** };
  88:c:\projects\paindrain\arduinolcd\test\pain drain\libraries\lvgl\src\misc\lv_area.h **** 
ARM GAS  C:\Users\haske\AppData\Local\Temp\cc11ZRIl.s 			page 3


  89:c:\projects\paindrain\arduinolcd\test\pain drain\libraries\lvgl\src\misc\lv_area.h **** typedef uint8_t lv_dir_t;
  90:c:\projects\paindrain\arduinolcd\test\pain drain\libraries\lvgl\src\misc\lv_area.h **** 
  91:c:\projects\paindrain\arduinolcd\test\pain drain\libraries\lvgl\src\misc\lv_area.h **** /**********************
  92:c:\projects\paindrain\arduinolcd\test\pain drain\libraries\lvgl\src\misc\lv_area.h ****  * GLOBAL PROTOTYPES
  93:c:\projects\paindrain\arduinolcd\test\pain drain\libraries\lvgl\src\misc\lv_area.h ****  **********************/
  94:c:\projects\paindrain\arduinolcd\test\pain drain\libraries\lvgl\src\misc\lv_area.h **** 
  95:c:\projects\paindrain\arduinolcd\test\pain drain\libraries\lvgl\src\misc\lv_area.h **** /**
  96:c:\projects\paindrain\arduinolcd\test\pain drain\libraries\lvgl\src\misc\lv_area.h ****  * Initialize an area
  97:c:\projects\paindrain\arduinolcd\test\pain drain\libraries\lvgl\src\misc\lv_area.h ****  * @param area_p pointer to an area
  98:c:\projects\paindrain\arduinolcd\test\pain drain\libraries\lvgl\src\misc\lv_area.h ****  * @param x1 left coordinate of the area
  99:c:\projects\paindrain\arduinolcd\test\pain drain\libraries\lvgl\src\misc\lv_area.h ****  * @param y1 top coordinate of the area
 100:c:\projects\paindrain\arduinolcd\test\pain drain\libraries\lvgl\src\misc\lv_area.h ****  * @param x2 right coordinate of the area
 101:c:\projects\paindrain\arduinolcd\test\pain drain\libraries\lvgl\src\misc\lv_area.h ****  * @param y2 bottom coordinate of the area
 102:c:\projects\paindrain\arduinolcd\test\pain drain\libraries\lvgl\src\misc\lv_area.h ****  */
 103:c:\projects\paindrain\arduinolcd\test\pain drain\libraries\lvgl\src\misc\lv_area.h **** void lv_area_set(lv_area_t * area_p, lv_coord_t x1, lv_coord_t y1, lv_coord_t x2, lv_coord_t y2);
 104:c:\projects\paindrain\arduinolcd\test\pain drain\libraries\lvgl\src\misc\lv_area.h **** 
 105:c:\projects\paindrain\arduinolcd\test\pain drain\libraries\lvgl\src\misc\lv_area.h **** /**
 106:c:\projects\paindrain\arduinolcd\test\pain drain\libraries\lvgl\src\misc\lv_area.h ****  * Copy an area
 107:c:\projects\paindrain\arduinolcd\test\pain drain\libraries\lvgl\src\misc\lv_area.h ****  * @param dest pointer to the destination area
 108:c:\projects\paindrain\arduinolcd\test\pain drain\libraries\lvgl\src\misc\lv_area.h ****  * @param src pointer to the source area
 109:c:\projects\paindrain\arduinolcd\test\pain drain\libraries\lvgl\src\misc\lv_area.h ****  */
 110:c:\projects\paindrain\arduinolcd\test\pain drain\libraries\lvgl\src\misc\lv_area.h **** inline static void lv_area_copy(lv_area_t * dest, const lv_area_t * src)
 111:c:\projects\paindrain\arduinolcd\test\pain drain\libraries\lvgl\src\misc\lv_area.h **** {
 112:c:\projects\paindrain\arduinolcd\test\pain drain\libraries\lvgl\src\misc\lv_area.h ****     dest->x1 = src->x1;
 113:c:\projects\paindrain\arduinolcd\test\pain drain\libraries\lvgl\src\misc\lv_area.h ****     dest->y1 = src->y1;
 114:c:\projects\paindrain\arduinolcd\test\pain drain\libraries\lvgl\src\misc\lv_area.h ****     dest->x2 = src->x2;
 115:c:\projects\paindrain\arduinolcd\test\pain drain\libraries\lvgl\src\misc\lv_area.h ****     dest->y2 = src->y2;
 116:c:\projects\paindrain\arduinolcd\test\pain drain\libraries\lvgl\src\misc\lv_area.h **** }
 117:c:\projects\paindrain\arduinolcd\test\pain drain\libraries\lvgl\src\misc\lv_area.h **** 
 118:c:\projects\paindrain\arduinolcd\test\pain drain\libraries\lvgl\src\misc\lv_area.h **** /**
 119:c:\projects\paindrain\arduinolcd\test\pain drain\libraries\lvgl\src\misc\lv_area.h ****  * Get the width of an area
 120:c:\projects\paindrain\arduinolcd\test\pain drain\libraries\lvgl\src\misc\lv_area.h ****  * @param area_p pointer to an area
 121:c:\projects\paindrain\arduinolcd\test\pain drain\libraries\lvgl\src\misc\lv_area.h ****  * @return the width of the area (if x1 == x2 -> width = 1)
 122:c:\projects\paindrain\arduinolcd\test\pain drain\libraries\lvgl\src\misc\lv_area.h ****  */
 123:c:\projects\paindrain\arduinolcd\test\pain drain\libraries\lvgl\src\misc\lv_area.h **** static inline lv_coord_t lv_area_get_width(const lv_area_t * area_p)
 124:c:\projects\paindrain\arduinolcd\test\pain drain\libraries\lvgl\src\misc\lv_area.h **** {
  27              		.loc 1 124 0
  28              		.cfi_startproc
  29              		@ args = 0, pretend = 0, frame = 0
  30              		@ frame_needed = 0, uses_anonymous_args = 0
  31              		@ link register save eliminated.
  32              	.LVL0:
 125:c:\projects\paindrain\arduinolcd\test\pain drain\libraries\lvgl\src\misc\lv_area.h ****     return (lv_coord_t)(area_p->x2 - area_p->x1 + 1);
  33              		.loc 1 125 0
  34 0000 0422     		movs	r2, #4
  35 0002 835E     		ldrsh	r3, [r0, r2]
  36 0004 0022     		movs	r2, #0
  37 0006 805E     		ldrsh	r0, [r0, r2]
  38              	.LVL1:
  39 0008 181A     		subs	r0, r3, r0
  40 000a 0130     		adds	r0, r0, #1
  41 000c 00B2     		sxth	r0, r0
 126:c:\projects\paindrain\arduinolcd\test\pain drain\libraries\lvgl\src\misc\lv_area.h **** }
  42              		.loc 1 126 0
  43              		@ sp needed
  44 000e 7047     		bx	lr
  45              		.cfi_endproc
ARM GAS  C:\Users\haske\AppData\Local\Temp\cc11ZRIl.s 			page 4


  46              	.LFE1:
  47              		.size	lv_area_get_width, .-lv_area_get_width
  48              		.section	.text.lv_area_get_height,"ax",%progbits
  49              		.align	2
  50              		.code	16
  51              		.thumb_func
  52              		.type	lv_area_get_height, %function
  53              	lv_area_get_height:
  54              	.LFB2:
 127:c:\projects\paindrain\arduinolcd\test\pain drain\libraries\lvgl\src\misc\lv_area.h **** 
 128:c:\projects\paindrain\arduinolcd\test\pain drain\libraries\lvgl\src\misc\lv_area.h **** /**
 129:c:\projects\paindrain\arduinolcd\test\pain drain\libraries\lvgl\src\misc\lv_area.h ****  * Get the height of an area
 130:c:\projects\paindrain\arduinolcd\test\pain drain\libraries\lvgl\src\misc\lv_area.h ****  * @param area_p pointer to an area
 131:c:\projects\paindrain\arduinolcd\test\pain drain\libraries\lvgl\src\misc\lv_area.h ****  * @return the height of the area (if y1 == y2 -> height = 1)
 132:c:\projects\paindrain\arduinolcd\test\pain drain\libraries\lvgl\src\misc\lv_area.h ****  */
 133:c:\projects\paindrain\arduinolcd\test\pain drain\libraries\lvgl\src\misc\lv_area.h **** static inline lv_coord_t lv_area_get_height(const lv_area_t * area_p)
 134:c:\projects\paindrain\arduinolcd\test\pain drain\libraries\lvgl\src\misc\lv_area.h **** {
  55              		.loc 1 134 0
  56              		.cfi_startproc
  57              		@ args = 0, pretend = 0, frame = 0
  58              		@ frame_needed = 0, uses_anonymous_args = 0
  59              		@ link register save eliminated.
  60              	.LVL2:
 135:c:\projects\paindrain\arduinolcd\test\pain drain\libraries\lvgl\src\misc\lv_area.h ****     return (lv_coord_t)(area_p->y2 - area_p->y1 + 1);
  61              		.loc 1 135 0
  62 0000 0622     		movs	r2, #6
  63 0002 835E     		ldrsh	r3, [r0, r2]
  64 0004 0222     		movs	r2, #2
  65 0006 805E     		ldrsh	r0, [r0, r2]
  66              	.LVL3:
  67 0008 181A     		subs	r0, r3, r0
  68 000a 0130     		adds	r0, r0, #1
  69 000c 00B2     		sxth	r0, r0
 136:c:\projects\paindrain\arduinolcd\test\pain drain\libraries\lvgl\src\misc\lv_area.h **** }
  70              		.loc 1 136 0
  71              		@ sp needed
  72 000e 7047     		bx	lr
  73              		.cfi_endproc
  74              	.LFE2:
  75              		.size	lv_area_get_height, .-lv_area_get_height
  76              		.section	.text.lv_bar_init_anim,"ax",%progbits
  77              		.align	2
  78              		.code	16
  79              		.thumb_func
  80              		.type	lv_bar_init_anim, %function
  81              	lv_bar_init_anim:
  82              	.LFB176:
  83              		.file 2 "..\\..\\..\\arduinoLCD\\test\\Pain Drain\\libraries\\lvgl\\src\\widgets\\lv_bar.c"
   1:..\..\..\arduinoLCD\test\Pain Drain\libraries\lvgl\src\widgets/lv_bar.c **** /**
   2:..\..\..\arduinoLCD\test\Pain Drain\libraries\lvgl\src\widgets/lv_bar.c ****  * @file lv_bar.c
   3:..\..\..\arduinoLCD\test\Pain Drain\libraries\lvgl\src\widgets/lv_bar.c ****  *
   4:..\..\..\arduinoLCD\test\Pain Drain\libraries\lvgl\src\widgets/lv_bar.c ****  */
   5:..\..\..\arduinoLCD\test\Pain Drain\libraries\lvgl\src\widgets/lv_bar.c **** 
   6:..\..\..\arduinoLCD\test\Pain Drain\libraries\lvgl\src\widgets/lv_bar.c **** /*********************
   7:..\..\..\arduinoLCD\test\Pain Drain\libraries\lvgl\src\widgets/lv_bar.c ****  *      INCLUDES
   8:..\..\..\arduinoLCD\test\Pain Drain\libraries\lvgl\src\widgets/lv_bar.c ****  *********************/
   9:..\..\..\arduinoLCD\test\Pain Drain\libraries\lvgl\src\widgets/lv_bar.c **** #include "lv_bar.h"
ARM GAS  C:\Users\haske\AppData\Local\Temp\cc11ZRIl.s 			page 5


  10:..\..\..\arduinoLCD\test\Pain Drain\libraries\lvgl\src\widgets/lv_bar.c **** #if LV_USE_BAR != 0
  11:..\..\..\arduinoLCD\test\Pain Drain\libraries\lvgl\src\widgets/lv_bar.c **** 
  12:..\..\..\arduinoLCD\test\Pain Drain\libraries\lvgl\src\widgets/lv_bar.c **** #include "../misc/lv_assert.h"
  13:..\..\..\arduinoLCD\test\Pain Drain\libraries\lvgl\src\widgets/lv_bar.c **** #include "../draw/lv_draw.h"
  14:..\..\..\arduinoLCD\test\Pain Drain\libraries\lvgl\src\widgets/lv_bar.c **** #include "../misc/lv_anim.h"
  15:..\..\..\arduinoLCD\test\Pain Drain\libraries\lvgl\src\widgets/lv_bar.c **** #include "../misc/lv_math.h"
  16:..\..\..\arduinoLCD\test\Pain Drain\libraries\lvgl\src\widgets/lv_bar.c **** 
  17:..\..\..\arduinoLCD\test\Pain Drain\libraries\lvgl\src\widgets/lv_bar.c **** /*********************
  18:..\..\..\arduinoLCD\test\Pain Drain\libraries\lvgl\src\widgets/lv_bar.c ****  *      DEFINES
  19:..\..\..\arduinoLCD\test\Pain Drain\libraries\lvgl\src\widgets/lv_bar.c ****  *********************/
  20:..\..\..\arduinoLCD\test\Pain Drain\libraries\lvgl\src\widgets/lv_bar.c **** #define MY_CLASS &lv_bar_class
  21:..\..\..\arduinoLCD\test\Pain Drain\libraries\lvgl\src\widgets/lv_bar.c **** 
  22:..\..\..\arduinoLCD\test\Pain Drain\libraries\lvgl\src\widgets/lv_bar.c **** /** hor. pad and ver. pad cannot make the indicator smaller than this [px]*/
  23:..\..\..\arduinoLCD\test\Pain Drain\libraries\lvgl\src\widgets/lv_bar.c **** #define LV_BAR_SIZE_MIN  4
  24:..\..\..\arduinoLCD\test\Pain Drain\libraries\lvgl\src\widgets/lv_bar.c **** 
  25:..\..\..\arduinoLCD\test\Pain Drain\libraries\lvgl\src\widgets/lv_bar.c **** #define LV_BAR_IS_ANIMATING(anim_struct) (((anim_struct).anim_state) != LV_BAR_ANIM_STATE_INV)
  26:..\..\..\arduinoLCD\test\Pain Drain\libraries\lvgl\src\widgets/lv_bar.c **** #define LV_BAR_GET_ANIM_VALUE(orig_value, anim_struct) (LV_BAR_IS_ANIMATING(anim_struct) ? ((anim_s
  27:..\..\..\arduinoLCD\test\Pain Drain\libraries\lvgl\src\widgets/lv_bar.c **** 
  28:..\..\..\arduinoLCD\test\Pain Drain\libraries\lvgl\src\widgets/lv_bar.c **** /** Bar animation start value. (Not the real value of the Bar just indicates process animation)*/
  29:..\..\..\arduinoLCD\test\Pain Drain\libraries\lvgl\src\widgets/lv_bar.c **** #define LV_BAR_ANIM_STATE_START 0
  30:..\..\..\arduinoLCD\test\Pain Drain\libraries\lvgl\src\widgets/lv_bar.c **** 
  31:..\..\..\arduinoLCD\test\Pain Drain\libraries\lvgl\src\widgets/lv_bar.c **** /** Bar animation end value.  (Not the real value of the Bar just indicates process animation)*/
  32:..\..\..\arduinoLCD\test\Pain Drain\libraries\lvgl\src\widgets/lv_bar.c **** #define LV_BAR_ANIM_STATE_END   256
  33:..\..\..\arduinoLCD\test\Pain Drain\libraries\lvgl\src\widgets/lv_bar.c **** 
  34:..\..\..\arduinoLCD\test\Pain Drain\libraries\lvgl\src\widgets/lv_bar.c **** /** Mark no animation is in progress*/
  35:..\..\..\arduinoLCD\test\Pain Drain\libraries\lvgl\src\widgets/lv_bar.c **** #define LV_BAR_ANIM_STATE_INV   -1
  36:..\..\..\arduinoLCD\test\Pain Drain\libraries\lvgl\src\widgets/lv_bar.c **** 
  37:..\..\..\arduinoLCD\test\Pain Drain\libraries\lvgl\src\widgets/lv_bar.c **** /** log2(LV_BAR_ANIM_STATE_END) used to normalize data*/
  38:..\..\..\arduinoLCD\test\Pain Drain\libraries\lvgl\src\widgets/lv_bar.c **** #define LV_BAR_ANIM_STATE_NORM  8
  39:..\..\..\arduinoLCD\test\Pain Drain\libraries\lvgl\src\widgets/lv_bar.c **** 
  40:..\..\..\arduinoLCD\test\Pain Drain\libraries\lvgl\src\widgets/lv_bar.c **** /**********************
  41:..\..\..\arduinoLCD\test\Pain Drain\libraries\lvgl\src\widgets/lv_bar.c ****  *      TYPEDEFS
  42:..\..\..\arduinoLCD\test\Pain Drain\libraries\lvgl\src\widgets/lv_bar.c ****  **********************/
  43:..\..\..\arduinoLCD\test\Pain Drain\libraries\lvgl\src\widgets/lv_bar.c **** 
  44:..\..\..\arduinoLCD\test\Pain Drain\libraries\lvgl\src\widgets/lv_bar.c **** /**********************
  45:..\..\..\arduinoLCD\test\Pain Drain\libraries\lvgl\src\widgets/lv_bar.c ****  *  STATIC PROTOTYPES
  46:..\..\..\arduinoLCD\test\Pain Drain\libraries\lvgl\src\widgets/lv_bar.c ****  **********************/
  47:..\..\..\arduinoLCD\test\Pain Drain\libraries\lvgl\src\widgets/lv_bar.c **** static void lv_bar_constructor(const lv_obj_class_t * class_p, lv_obj_t * obj);
  48:..\..\..\arduinoLCD\test\Pain Drain\libraries\lvgl\src\widgets/lv_bar.c **** static void lv_bar_destructor(const lv_obj_class_t * class_p, lv_obj_t * obj);
  49:..\..\..\arduinoLCD\test\Pain Drain\libraries\lvgl\src\widgets/lv_bar.c **** static void lv_bar_event(const lv_obj_class_t * class_p, lv_event_t * e);
  50:..\..\..\arduinoLCD\test\Pain Drain\libraries\lvgl\src\widgets/lv_bar.c **** static void draw_indic(lv_event_t * e);
  51:..\..\..\arduinoLCD\test\Pain Drain\libraries\lvgl\src\widgets/lv_bar.c **** static void lv_bar_set_value_with_anim(lv_obj_t * obj, int32_t new_value, int32_t * value_ptr,
  52:..\..\..\arduinoLCD\test\Pain Drain\libraries\lvgl\src\widgets/lv_bar.c ****                                        _lv_bar_anim_t * anim_info, lv_anim_enable_t en);
  53:..\..\..\arduinoLCD\test\Pain Drain\libraries\lvgl\src\widgets/lv_bar.c **** static void lv_bar_init_anim(lv_obj_t * bar, _lv_bar_anim_t * bar_anim);
  54:..\..\..\arduinoLCD\test\Pain Drain\libraries\lvgl\src\widgets/lv_bar.c **** static void lv_bar_anim(void * bar, int32_t value);
  55:..\..\..\arduinoLCD\test\Pain Drain\libraries\lvgl\src\widgets/lv_bar.c **** static void lv_bar_anim_ready(lv_anim_t * a);
  56:..\..\..\arduinoLCD\test\Pain Drain\libraries\lvgl\src\widgets/lv_bar.c **** 
  57:..\..\..\arduinoLCD\test\Pain Drain\libraries\lvgl\src\widgets/lv_bar.c **** /**********************
  58:..\..\..\arduinoLCD\test\Pain Drain\libraries\lvgl\src\widgets/lv_bar.c ****  *  STATIC VARIABLES
  59:..\..\..\arduinoLCD\test\Pain Drain\libraries\lvgl\src\widgets/lv_bar.c ****  **********************/
  60:..\..\..\arduinoLCD\test\Pain Drain\libraries\lvgl\src\widgets/lv_bar.c **** const lv_obj_class_t lv_bar_class = {
  61:..\..\..\arduinoLCD\test\Pain Drain\libraries\lvgl\src\widgets/lv_bar.c ****     .constructor_cb = lv_bar_constructor,
  62:..\..\..\arduinoLCD\test\Pain Drain\libraries\lvgl\src\widgets/lv_bar.c ****     .destructor_cb = lv_bar_destructor,
  63:..\..\..\arduinoLCD\test\Pain Drain\libraries\lvgl\src\widgets/lv_bar.c ****     .event_cb = lv_bar_event,
  64:..\..\..\arduinoLCD\test\Pain Drain\libraries\lvgl\src\widgets/lv_bar.c ****     .width_def = LV_DPI_DEF * 2,
  65:..\..\..\arduinoLCD\test\Pain Drain\libraries\lvgl\src\widgets/lv_bar.c ****     .height_def = LV_DPI_DEF / 10,
  66:..\..\..\arduinoLCD\test\Pain Drain\libraries\lvgl\src\widgets/lv_bar.c ****     .instance_size = sizeof(lv_bar_t),
ARM GAS  C:\Users\haske\AppData\Local\Temp\cc11ZRIl.s 			page 6


  67:..\..\..\arduinoLCD\test\Pain Drain\libraries\lvgl\src\widgets/lv_bar.c ****     .base_class = &lv_obj_class
  68:..\..\..\arduinoLCD\test\Pain Drain\libraries\lvgl\src\widgets/lv_bar.c **** };
  69:..\..\..\arduinoLCD\test\Pain Drain\libraries\lvgl\src\widgets/lv_bar.c **** 
  70:..\..\..\arduinoLCD\test\Pain Drain\libraries\lvgl\src\widgets/lv_bar.c **** /**********************
  71:..\..\..\arduinoLCD\test\Pain Drain\libraries\lvgl\src\widgets/lv_bar.c ****  *      MACROS
  72:..\..\..\arduinoLCD\test\Pain Drain\libraries\lvgl\src\widgets/lv_bar.c ****  **********************/
  73:..\..\..\arduinoLCD\test\Pain Drain\libraries\lvgl\src\widgets/lv_bar.c **** 
  74:..\..\..\arduinoLCD\test\Pain Drain\libraries\lvgl\src\widgets/lv_bar.c **** /**********************
  75:..\..\..\arduinoLCD\test\Pain Drain\libraries\lvgl\src\widgets/lv_bar.c ****  *   GLOBAL FUNCTIONS
  76:..\..\..\arduinoLCD\test\Pain Drain\libraries\lvgl\src\widgets/lv_bar.c ****  **********************/
  77:..\..\..\arduinoLCD\test\Pain Drain\libraries\lvgl\src\widgets/lv_bar.c **** 
  78:..\..\..\arduinoLCD\test\Pain Drain\libraries\lvgl\src\widgets/lv_bar.c **** lv_obj_t * lv_bar_create(lv_obj_t * parent)
  79:..\..\..\arduinoLCD\test\Pain Drain\libraries\lvgl\src\widgets/lv_bar.c **** {
  80:..\..\..\arduinoLCD\test\Pain Drain\libraries\lvgl\src\widgets/lv_bar.c ****     LV_LOG_INFO("begin");
  81:..\..\..\arduinoLCD\test\Pain Drain\libraries\lvgl\src\widgets/lv_bar.c ****     lv_obj_t * obj = lv_obj_class_create_obj(MY_CLASS, parent);
  82:..\..\..\arduinoLCD\test\Pain Drain\libraries\lvgl\src\widgets/lv_bar.c ****     lv_obj_class_init_obj(obj);
  83:..\..\..\arduinoLCD\test\Pain Drain\libraries\lvgl\src\widgets/lv_bar.c ****     return obj;
  84:..\..\..\arduinoLCD\test\Pain Drain\libraries\lvgl\src\widgets/lv_bar.c **** }
  85:..\..\..\arduinoLCD\test\Pain Drain\libraries\lvgl\src\widgets/lv_bar.c **** 
  86:..\..\..\arduinoLCD\test\Pain Drain\libraries\lvgl\src\widgets/lv_bar.c **** /*=====================
  87:..\..\..\arduinoLCD\test\Pain Drain\libraries\lvgl\src\widgets/lv_bar.c ****  * Setter functions
  88:..\..\..\arduinoLCD\test\Pain Drain\libraries\lvgl\src\widgets/lv_bar.c ****  *====================*/
  89:..\..\..\arduinoLCD\test\Pain Drain\libraries\lvgl\src\widgets/lv_bar.c **** 
  90:..\..\..\arduinoLCD\test\Pain Drain\libraries\lvgl\src\widgets/lv_bar.c **** void lv_bar_set_value(lv_obj_t * obj, int32_t value, lv_anim_enable_t anim)
  91:..\..\..\arduinoLCD\test\Pain Drain\libraries\lvgl\src\widgets/lv_bar.c **** {
  92:..\..\..\arduinoLCD\test\Pain Drain\libraries\lvgl\src\widgets/lv_bar.c ****     LV_ASSERT_OBJ(obj, MY_CLASS);
  93:..\..\..\arduinoLCD\test\Pain Drain\libraries\lvgl\src\widgets/lv_bar.c ****     lv_bar_t * bar = (lv_bar_t *)obj;
  94:..\..\..\arduinoLCD\test\Pain Drain\libraries\lvgl\src\widgets/lv_bar.c **** 
  95:..\..\..\arduinoLCD\test\Pain Drain\libraries\lvgl\src\widgets/lv_bar.c ****     if(bar->cur_value == value) return;
  96:..\..\..\arduinoLCD\test\Pain Drain\libraries\lvgl\src\widgets/lv_bar.c **** 
  97:..\..\..\arduinoLCD\test\Pain Drain\libraries\lvgl\src\widgets/lv_bar.c ****     value = LV_CLAMP(bar->min_value, value, bar->max_value);
  98:..\..\..\arduinoLCD\test\Pain Drain\libraries\lvgl\src\widgets/lv_bar.c ****     value = value < bar->start_value ? bar->start_value : value; /*Can't be smaller than the left v
  99:..\..\..\arduinoLCD\test\Pain Drain\libraries\lvgl\src\widgets/lv_bar.c **** 
 100:..\..\..\arduinoLCD\test\Pain Drain\libraries\lvgl\src\widgets/lv_bar.c ****     if(bar->cur_value == value) return;
 101:..\..\..\arduinoLCD\test\Pain Drain\libraries\lvgl\src\widgets/lv_bar.c ****     lv_bar_set_value_with_anim(obj, value, &bar->cur_value, &bar->cur_value_anim, anim);
 102:..\..\..\arduinoLCD\test\Pain Drain\libraries\lvgl\src\widgets/lv_bar.c **** }
 103:..\..\..\arduinoLCD\test\Pain Drain\libraries\lvgl\src\widgets/lv_bar.c **** 
 104:..\..\..\arduinoLCD\test\Pain Drain\libraries\lvgl\src\widgets/lv_bar.c **** void lv_bar_set_start_value(lv_obj_t * obj, int32_t value, lv_anim_enable_t anim)
 105:..\..\..\arduinoLCD\test\Pain Drain\libraries\lvgl\src\widgets/lv_bar.c **** {
 106:..\..\..\arduinoLCD\test\Pain Drain\libraries\lvgl\src\widgets/lv_bar.c ****     LV_ASSERT_OBJ(obj, MY_CLASS);
 107:..\..\..\arduinoLCD\test\Pain Drain\libraries\lvgl\src\widgets/lv_bar.c **** 
 108:..\..\..\arduinoLCD\test\Pain Drain\libraries\lvgl\src\widgets/lv_bar.c ****     lv_bar_t * bar = (lv_bar_t *)obj;
 109:..\..\..\arduinoLCD\test\Pain Drain\libraries\lvgl\src\widgets/lv_bar.c **** 
 110:..\..\..\arduinoLCD\test\Pain Drain\libraries\lvgl\src\widgets/lv_bar.c ****     if(bar->mode != LV_BAR_MODE_RANGE) {
 111:..\..\..\arduinoLCD\test\Pain Drain\libraries\lvgl\src\widgets/lv_bar.c ****         return;
 112:..\..\..\arduinoLCD\test\Pain Drain\libraries\lvgl\src\widgets/lv_bar.c ****     }
 113:..\..\..\arduinoLCD\test\Pain Drain\libraries\lvgl\src\widgets/lv_bar.c **** 
 114:..\..\..\arduinoLCD\test\Pain Drain\libraries\lvgl\src\widgets/lv_bar.c ****     value = LV_CLAMP(bar->min_value, value, bar->max_value);
 115:..\..\..\arduinoLCD\test\Pain Drain\libraries\lvgl\src\widgets/lv_bar.c ****     value = value > bar->cur_value ? bar->cur_value : value; /*Can't be greater than the right valu
 116:..\..\..\arduinoLCD\test\Pain Drain\libraries\lvgl\src\widgets/lv_bar.c **** 
 117:..\..\..\arduinoLCD\test\Pain Drain\libraries\lvgl\src\widgets/lv_bar.c ****     if(bar->start_value == value) return;
 118:..\..\..\arduinoLCD\test\Pain Drain\libraries\lvgl\src\widgets/lv_bar.c ****     lv_bar_set_value_with_anim(obj, value, &bar->start_value, &bar->start_value_anim, anim);
 119:..\..\..\arduinoLCD\test\Pain Drain\libraries\lvgl\src\widgets/lv_bar.c **** }
 120:..\..\..\arduinoLCD\test\Pain Drain\libraries\lvgl\src\widgets/lv_bar.c **** 
 121:..\..\..\arduinoLCD\test\Pain Drain\libraries\lvgl\src\widgets/lv_bar.c **** void lv_bar_set_range(lv_obj_t * obj, int32_t min, int32_t max)
 122:..\..\..\arduinoLCD\test\Pain Drain\libraries\lvgl\src\widgets/lv_bar.c **** {
 123:..\..\..\arduinoLCD\test\Pain Drain\libraries\lvgl\src\widgets/lv_bar.c ****     LV_ASSERT_OBJ(obj, MY_CLASS);
ARM GAS  C:\Users\haske\AppData\Local\Temp\cc11ZRIl.s 			page 7


 124:..\..\..\arduinoLCD\test\Pain Drain\libraries\lvgl\src\widgets/lv_bar.c **** 
 125:..\..\..\arduinoLCD\test\Pain Drain\libraries\lvgl\src\widgets/lv_bar.c ****     lv_bar_t * bar = (lv_bar_t *)obj;
 126:..\..\..\arduinoLCD\test\Pain Drain\libraries\lvgl\src\widgets/lv_bar.c **** 
 127:..\..\..\arduinoLCD\test\Pain Drain\libraries\lvgl\src\widgets/lv_bar.c ****     if(bar->min_value == min && bar->max_value == max) return;
 128:..\..\..\arduinoLCD\test\Pain Drain\libraries\lvgl\src\widgets/lv_bar.c **** 
 129:..\..\..\arduinoLCD\test\Pain Drain\libraries\lvgl\src\widgets/lv_bar.c ****     bar->max_value = max;
 130:..\..\..\arduinoLCD\test\Pain Drain\libraries\lvgl\src\widgets/lv_bar.c ****     bar->min_value = min;
 131:..\..\..\arduinoLCD\test\Pain Drain\libraries\lvgl\src\widgets/lv_bar.c **** 
 132:..\..\..\arduinoLCD\test\Pain Drain\libraries\lvgl\src\widgets/lv_bar.c ****     if(lv_bar_get_mode(obj) != LV_BAR_MODE_RANGE)
 133:..\..\..\arduinoLCD\test\Pain Drain\libraries\lvgl\src\widgets/lv_bar.c ****         bar->start_value = min;
 134:..\..\..\arduinoLCD\test\Pain Drain\libraries\lvgl\src\widgets/lv_bar.c **** 
 135:..\..\..\arduinoLCD\test\Pain Drain\libraries\lvgl\src\widgets/lv_bar.c ****     if(bar->cur_value > max) {
 136:..\..\..\arduinoLCD\test\Pain Drain\libraries\lvgl\src\widgets/lv_bar.c ****         bar->cur_value = max;
 137:..\..\..\arduinoLCD\test\Pain Drain\libraries\lvgl\src\widgets/lv_bar.c ****         lv_bar_set_value(obj, bar->cur_value, LV_ANIM_OFF);
 138:..\..\..\arduinoLCD\test\Pain Drain\libraries\lvgl\src\widgets/lv_bar.c ****     }
 139:..\..\..\arduinoLCD\test\Pain Drain\libraries\lvgl\src\widgets/lv_bar.c ****     if(bar->cur_value < min) {
 140:..\..\..\arduinoLCD\test\Pain Drain\libraries\lvgl\src\widgets/lv_bar.c ****         bar->cur_value = min;
 141:..\..\..\arduinoLCD\test\Pain Drain\libraries\lvgl\src\widgets/lv_bar.c ****         lv_bar_set_value(obj, bar->cur_value, LV_ANIM_OFF);
 142:..\..\..\arduinoLCD\test\Pain Drain\libraries\lvgl\src\widgets/lv_bar.c ****     }
 143:..\..\..\arduinoLCD\test\Pain Drain\libraries\lvgl\src\widgets/lv_bar.c ****     lv_obj_invalidate(obj);
 144:..\..\..\arduinoLCD\test\Pain Drain\libraries\lvgl\src\widgets/lv_bar.c **** }
 145:..\..\..\arduinoLCD\test\Pain Drain\libraries\lvgl\src\widgets/lv_bar.c **** 
 146:..\..\..\arduinoLCD\test\Pain Drain\libraries\lvgl\src\widgets/lv_bar.c **** void lv_bar_set_mode(lv_obj_t * obj, lv_bar_mode_t mode)
 147:..\..\..\arduinoLCD\test\Pain Drain\libraries\lvgl\src\widgets/lv_bar.c **** {
 148:..\..\..\arduinoLCD\test\Pain Drain\libraries\lvgl\src\widgets/lv_bar.c ****     LV_ASSERT_OBJ(obj, MY_CLASS);
 149:..\..\..\arduinoLCD\test\Pain Drain\libraries\lvgl\src\widgets/lv_bar.c ****     lv_bar_t * bar = (lv_bar_t *)obj;
 150:..\..\..\arduinoLCD\test\Pain Drain\libraries\lvgl\src\widgets/lv_bar.c **** 
 151:..\..\..\arduinoLCD\test\Pain Drain\libraries\lvgl\src\widgets/lv_bar.c ****     bar->mode = mode;
 152:..\..\..\arduinoLCD\test\Pain Drain\libraries\lvgl\src\widgets/lv_bar.c ****     if(bar->mode != LV_BAR_MODE_RANGE) {
 153:..\..\..\arduinoLCD\test\Pain Drain\libraries\lvgl\src\widgets/lv_bar.c ****         bar->start_value = bar->min_value;
 154:..\..\..\arduinoLCD\test\Pain Drain\libraries\lvgl\src\widgets/lv_bar.c ****     }
 155:..\..\..\arduinoLCD\test\Pain Drain\libraries\lvgl\src\widgets/lv_bar.c **** 
 156:..\..\..\arduinoLCD\test\Pain Drain\libraries\lvgl\src\widgets/lv_bar.c ****     lv_obj_invalidate(obj);
 157:..\..\..\arduinoLCD\test\Pain Drain\libraries\lvgl\src\widgets/lv_bar.c **** }
 158:..\..\..\arduinoLCD\test\Pain Drain\libraries\lvgl\src\widgets/lv_bar.c **** 
 159:..\..\..\arduinoLCD\test\Pain Drain\libraries\lvgl\src\widgets/lv_bar.c **** /*=====================
 160:..\..\..\arduinoLCD\test\Pain Drain\libraries\lvgl\src\widgets/lv_bar.c ****  * Getter functions
 161:..\..\..\arduinoLCD\test\Pain Drain\libraries\lvgl\src\widgets/lv_bar.c ****  *====================*/
 162:..\..\..\arduinoLCD\test\Pain Drain\libraries\lvgl\src\widgets/lv_bar.c **** 
 163:..\..\..\arduinoLCD\test\Pain Drain\libraries\lvgl\src\widgets/lv_bar.c **** int32_t lv_bar_get_value(const lv_obj_t * obj)
 164:..\..\..\arduinoLCD\test\Pain Drain\libraries\lvgl\src\widgets/lv_bar.c **** {
 165:..\..\..\arduinoLCD\test\Pain Drain\libraries\lvgl\src\widgets/lv_bar.c ****     LV_ASSERT_OBJ(obj, MY_CLASS);
 166:..\..\..\arduinoLCD\test\Pain Drain\libraries\lvgl\src\widgets/lv_bar.c ****     lv_bar_t * bar = (lv_bar_t *)obj;
 167:..\..\..\arduinoLCD\test\Pain Drain\libraries\lvgl\src\widgets/lv_bar.c **** 
 168:..\..\..\arduinoLCD\test\Pain Drain\libraries\lvgl\src\widgets/lv_bar.c ****     return LV_BAR_GET_ANIM_VALUE(bar->cur_value, bar->cur_value_anim);
 169:..\..\..\arduinoLCD\test\Pain Drain\libraries\lvgl\src\widgets/lv_bar.c **** }
 170:..\..\..\arduinoLCD\test\Pain Drain\libraries\lvgl\src\widgets/lv_bar.c **** 
 171:..\..\..\arduinoLCD\test\Pain Drain\libraries\lvgl\src\widgets/lv_bar.c **** int32_t lv_bar_get_start_value(const lv_obj_t * obj)
 172:..\..\..\arduinoLCD\test\Pain Drain\libraries\lvgl\src\widgets/lv_bar.c **** {
 173:..\..\..\arduinoLCD\test\Pain Drain\libraries\lvgl\src\widgets/lv_bar.c ****     LV_ASSERT_OBJ(obj, MY_CLASS);
 174:..\..\..\arduinoLCD\test\Pain Drain\libraries\lvgl\src\widgets/lv_bar.c ****     lv_bar_t * bar = (lv_bar_t *)obj;
 175:..\..\..\arduinoLCD\test\Pain Drain\libraries\lvgl\src\widgets/lv_bar.c **** 
 176:..\..\..\arduinoLCD\test\Pain Drain\libraries\lvgl\src\widgets/lv_bar.c ****     if(bar->mode != LV_BAR_MODE_RANGE) return bar->min_value;
 177:..\..\..\arduinoLCD\test\Pain Drain\libraries\lvgl\src\widgets/lv_bar.c **** 
 178:..\..\..\arduinoLCD\test\Pain Drain\libraries\lvgl\src\widgets/lv_bar.c ****     return LV_BAR_GET_ANIM_VALUE(bar->start_value, bar->start_value_anim);
 179:..\..\..\arduinoLCD\test\Pain Drain\libraries\lvgl\src\widgets/lv_bar.c **** }
 180:..\..\..\arduinoLCD\test\Pain Drain\libraries\lvgl\src\widgets/lv_bar.c **** 
ARM GAS  C:\Users\haske\AppData\Local\Temp\cc11ZRIl.s 			page 8


 181:..\..\..\arduinoLCD\test\Pain Drain\libraries\lvgl\src\widgets/lv_bar.c **** int32_t lv_bar_get_min_value(const lv_obj_t * obj)
 182:..\..\..\arduinoLCD\test\Pain Drain\libraries\lvgl\src\widgets/lv_bar.c **** {
 183:..\..\..\arduinoLCD\test\Pain Drain\libraries\lvgl\src\widgets/lv_bar.c ****     LV_ASSERT_OBJ(obj, MY_CLASS);
 184:..\..\..\arduinoLCD\test\Pain Drain\libraries\lvgl\src\widgets/lv_bar.c ****     lv_bar_t * bar = (lv_bar_t *)obj;
 185:..\..\..\arduinoLCD\test\Pain Drain\libraries\lvgl\src\widgets/lv_bar.c ****     return bar->min_value;
 186:..\..\..\arduinoLCD\test\Pain Drain\libraries\lvgl\src\widgets/lv_bar.c **** }
 187:..\..\..\arduinoLCD\test\Pain Drain\libraries\lvgl\src\widgets/lv_bar.c **** 
 188:..\..\..\arduinoLCD\test\Pain Drain\libraries\lvgl\src\widgets/lv_bar.c **** int32_t lv_bar_get_max_value(const lv_obj_t * obj)
 189:..\..\..\arduinoLCD\test\Pain Drain\libraries\lvgl\src\widgets/lv_bar.c **** {
 190:..\..\..\arduinoLCD\test\Pain Drain\libraries\lvgl\src\widgets/lv_bar.c ****     LV_ASSERT_OBJ(obj, MY_CLASS);
 191:..\..\..\arduinoLCD\test\Pain Drain\libraries\lvgl\src\widgets/lv_bar.c ****     lv_bar_t * bar = (lv_bar_t *)obj;
 192:..\..\..\arduinoLCD\test\Pain Drain\libraries\lvgl\src\widgets/lv_bar.c **** 
 193:..\..\..\arduinoLCD\test\Pain Drain\libraries\lvgl\src\widgets/lv_bar.c ****     return bar->max_value;
 194:..\..\..\arduinoLCD\test\Pain Drain\libraries\lvgl\src\widgets/lv_bar.c **** }
 195:..\..\..\arduinoLCD\test\Pain Drain\libraries\lvgl\src\widgets/lv_bar.c **** 
 196:..\..\..\arduinoLCD\test\Pain Drain\libraries\lvgl\src\widgets/lv_bar.c **** lv_bar_mode_t lv_bar_get_mode(lv_obj_t * obj)
 197:..\..\..\arduinoLCD\test\Pain Drain\libraries\lvgl\src\widgets/lv_bar.c **** {
 198:..\..\..\arduinoLCD\test\Pain Drain\libraries\lvgl\src\widgets/lv_bar.c ****     LV_ASSERT_OBJ(obj, MY_CLASS);
 199:..\..\..\arduinoLCD\test\Pain Drain\libraries\lvgl\src\widgets/lv_bar.c ****     lv_bar_t * bar = (lv_bar_t *)obj;
 200:..\..\..\arduinoLCD\test\Pain Drain\libraries\lvgl\src\widgets/lv_bar.c **** 
 201:..\..\..\arduinoLCD\test\Pain Drain\libraries\lvgl\src\widgets/lv_bar.c ****     return bar->mode;
 202:..\..\..\arduinoLCD\test\Pain Drain\libraries\lvgl\src\widgets/lv_bar.c **** }
 203:..\..\..\arduinoLCD\test\Pain Drain\libraries\lvgl\src\widgets/lv_bar.c **** 
 204:..\..\..\arduinoLCD\test\Pain Drain\libraries\lvgl\src\widgets/lv_bar.c **** /**********************
 205:..\..\..\arduinoLCD\test\Pain Drain\libraries\lvgl\src\widgets/lv_bar.c ****  *   STATIC FUNCTIONS
 206:..\..\..\arduinoLCD\test\Pain Drain\libraries\lvgl\src\widgets/lv_bar.c ****  **********************/
 207:..\..\..\arduinoLCD\test\Pain Drain\libraries\lvgl\src\widgets/lv_bar.c **** 
 208:..\..\..\arduinoLCD\test\Pain Drain\libraries\lvgl\src\widgets/lv_bar.c **** static void lv_bar_constructor(const lv_obj_class_t * class_p, lv_obj_t * obj)
 209:..\..\..\arduinoLCD\test\Pain Drain\libraries\lvgl\src\widgets/lv_bar.c **** {
 210:..\..\..\arduinoLCD\test\Pain Drain\libraries\lvgl\src\widgets/lv_bar.c ****     LV_UNUSED(class_p);
 211:..\..\..\arduinoLCD\test\Pain Drain\libraries\lvgl\src\widgets/lv_bar.c ****     LV_TRACE_OBJ_CREATE("begin");
 212:..\..\..\arduinoLCD\test\Pain Drain\libraries\lvgl\src\widgets/lv_bar.c **** 
 213:..\..\..\arduinoLCD\test\Pain Drain\libraries\lvgl\src\widgets/lv_bar.c ****     lv_bar_t * bar = (lv_bar_t *)obj;
 214:..\..\..\arduinoLCD\test\Pain Drain\libraries\lvgl\src\widgets/lv_bar.c ****     bar->min_value = 0;
 215:..\..\..\arduinoLCD\test\Pain Drain\libraries\lvgl\src\widgets/lv_bar.c ****     bar->max_value = 100;
 216:..\..\..\arduinoLCD\test\Pain Drain\libraries\lvgl\src\widgets/lv_bar.c ****     bar->start_value = 0;
 217:..\..\..\arduinoLCD\test\Pain Drain\libraries\lvgl\src\widgets/lv_bar.c ****     bar->cur_value = 0;
 218:..\..\..\arduinoLCD\test\Pain Drain\libraries\lvgl\src\widgets/lv_bar.c ****     bar->indic_area.x1 = 0;
 219:..\..\..\arduinoLCD\test\Pain Drain\libraries\lvgl\src\widgets/lv_bar.c ****     bar->indic_area.x2 = 0;
 220:..\..\..\arduinoLCD\test\Pain Drain\libraries\lvgl\src\widgets/lv_bar.c ****     bar->indic_area.y1 = 0;
 221:..\..\..\arduinoLCD\test\Pain Drain\libraries\lvgl\src\widgets/lv_bar.c ****     bar->indic_area.y2 = 0;
 222:..\..\..\arduinoLCD\test\Pain Drain\libraries\lvgl\src\widgets/lv_bar.c ****     bar->mode = LV_BAR_MODE_NORMAL;
 223:..\..\..\arduinoLCD\test\Pain Drain\libraries\lvgl\src\widgets/lv_bar.c **** 
 224:..\..\..\arduinoLCD\test\Pain Drain\libraries\lvgl\src\widgets/lv_bar.c ****     lv_bar_init_anim(obj, &bar->cur_value_anim);
 225:..\..\..\arduinoLCD\test\Pain Drain\libraries\lvgl\src\widgets/lv_bar.c ****     lv_bar_init_anim(obj, &bar->start_value_anim);
 226:..\..\..\arduinoLCD\test\Pain Drain\libraries\lvgl\src\widgets/lv_bar.c **** 
 227:..\..\..\arduinoLCD\test\Pain Drain\libraries\lvgl\src\widgets/lv_bar.c ****     lv_obj_clear_flag(obj, LV_OBJ_FLAG_CHECKABLE);
 228:..\..\..\arduinoLCD\test\Pain Drain\libraries\lvgl\src\widgets/lv_bar.c ****     lv_obj_clear_flag(obj, LV_OBJ_FLAG_SCROLLABLE);
 229:..\..\..\arduinoLCD\test\Pain Drain\libraries\lvgl\src\widgets/lv_bar.c ****     lv_bar_set_value(obj, 0, LV_ANIM_OFF);
 230:..\..\..\arduinoLCD\test\Pain Drain\libraries\lvgl\src\widgets/lv_bar.c **** 
 231:..\..\..\arduinoLCD\test\Pain Drain\libraries\lvgl\src\widgets/lv_bar.c ****     LV_TRACE_OBJ_CREATE("finished");
 232:..\..\..\arduinoLCD\test\Pain Drain\libraries\lvgl\src\widgets/lv_bar.c **** }
 233:..\..\..\arduinoLCD\test\Pain Drain\libraries\lvgl\src\widgets/lv_bar.c **** 
 234:..\..\..\arduinoLCD\test\Pain Drain\libraries\lvgl\src\widgets/lv_bar.c **** static void lv_bar_destructor(const lv_obj_class_t * class_p, lv_obj_t * obj)
 235:..\..\..\arduinoLCD\test\Pain Drain\libraries\lvgl\src\widgets/lv_bar.c **** {
 236:..\..\..\arduinoLCD\test\Pain Drain\libraries\lvgl\src\widgets/lv_bar.c ****     LV_UNUSED(class_p);
 237:..\..\..\arduinoLCD\test\Pain Drain\libraries\lvgl\src\widgets/lv_bar.c ****     lv_bar_t * bar = (lv_bar_t *)obj;
ARM GAS  C:\Users\haske\AppData\Local\Temp\cc11ZRIl.s 			page 9


 238:..\..\..\arduinoLCD\test\Pain Drain\libraries\lvgl\src\widgets/lv_bar.c **** 
 239:..\..\..\arduinoLCD\test\Pain Drain\libraries\lvgl\src\widgets/lv_bar.c ****     lv_anim_del(&bar->cur_value_anim, NULL);
 240:..\..\..\arduinoLCD\test\Pain Drain\libraries\lvgl\src\widgets/lv_bar.c ****     lv_anim_del(&bar->start_value_anim, NULL);
 241:..\..\..\arduinoLCD\test\Pain Drain\libraries\lvgl\src\widgets/lv_bar.c **** }
 242:..\..\..\arduinoLCD\test\Pain Drain\libraries\lvgl\src\widgets/lv_bar.c **** 
 243:..\..\..\arduinoLCD\test\Pain Drain\libraries\lvgl\src\widgets/lv_bar.c **** static void draw_indic(lv_event_t * e)
 244:..\..\..\arduinoLCD\test\Pain Drain\libraries\lvgl\src\widgets/lv_bar.c **** {
 245:..\..\..\arduinoLCD\test\Pain Drain\libraries\lvgl\src\widgets/lv_bar.c ****     lv_obj_t * obj = lv_event_get_target(e);
 246:..\..\..\arduinoLCD\test\Pain Drain\libraries\lvgl\src\widgets/lv_bar.c ****     lv_bar_t * bar = (lv_bar_t *)obj;
 247:..\..\..\arduinoLCD\test\Pain Drain\libraries\lvgl\src\widgets/lv_bar.c **** 
 248:..\..\..\arduinoLCD\test\Pain Drain\libraries\lvgl\src\widgets/lv_bar.c ****     lv_draw_ctx_t * draw_ctx = lv_event_get_draw_ctx(e);
 249:..\..\..\arduinoLCD\test\Pain Drain\libraries\lvgl\src\widgets/lv_bar.c **** 
 250:..\..\..\arduinoLCD\test\Pain Drain\libraries\lvgl\src\widgets/lv_bar.c ****     lv_area_t bar_coords;
 251:..\..\..\arduinoLCD\test\Pain Drain\libraries\lvgl\src\widgets/lv_bar.c ****     lv_obj_get_coords(obj, &bar_coords);
 252:..\..\..\arduinoLCD\test\Pain Drain\libraries\lvgl\src\widgets/lv_bar.c **** 
 253:..\..\..\arduinoLCD\test\Pain Drain\libraries\lvgl\src\widgets/lv_bar.c ****     lv_coord_t transf_w = lv_obj_get_style_transform_width(obj, LV_PART_MAIN);
 254:..\..\..\arduinoLCD\test\Pain Drain\libraries\lvgl\src\widgets/lv_bar.c ****     lv_coord_t transf_h = lv_obj_get_style_transform_height(obj, LV_PART_MAIN);
 255:..\..\..\arduinoLCD\test\Pain Drain\libraries\lvgl\src\widgets/lv_bar.c ****     bar_coords.x1 -= transf_w;
 256:..\..\..\arduinoLCD\test\Pain Drain\libraries\lvgl\src\widgets/lv_bar.c ****     bar_coords.x2 += transf_w;
 257:..\..\..\arduinoLCD\test\Pain Drain\libraries\lvgl\src\widgets/lv_bar.c ****     bar_coords.y1 -= transf_h;
 258:..\..\..\arduinoLCD\test\Pain Drain\libraries\lvgl\src\widgets/lv_bar.c ****     bar_coords.y2 += transf_h;
 259:..\..\..\arduinoLCD\test\Pain Drain\libraries\lvgl\src\widgets/lv_bar.c ****     lv_coord_t barw = lv_area_get_width(&bar_coords);
 260:..\..\..\arduinoLCD\test\Pain Drain\libraries\lvgl\src\widgets/lv_bar.c ****     lv_coord_t barh = lv_area_get_height(&bar_coords);
 261:..\..\..\arduinoLCD\test\Pain Drain\libraries\lvgl\src\widgets/lv_bar.c ****     int32_t range = bar->max_value - bar->min_value;
 262:..\..\..\arduinoLCD\test\Pain Drain\libraries\lvgl\src\widgets/lv_bar.c ****     bool hor = barw >= barh ? true : false;
 263:..\..\..\arduinoLCD\test\Pain Drain\libraries\lvgl\src\widgets/lv_bar.c ****     bool sym = false;
 264:..\..\..\arduinoLCD\test\Pain Drain\libraries\lvgl\src\widgets/lv_bar.c ****     if(bar->mode == LV_BAR_MODE_SYMMETRICAL && bar->min_value < 0 && bar->max_value > 0 &&
 265:..\..\..\arduinoLCD\test\Pain Drain\libraries\lvgl\src\widgets/lv_bar.c ****        bar->start_value == bar->min_value) sym = true;
 266:..\..\..\arduinoLCD\test\Pain Drain\libraries\lvgl\src\widgets/lv_bar.c **** 
 267:..\..\..\arduinoLCD\test\Pain Drain\libraries\lvgl\src\widgets/lv_bar.c ****     /*Calculate the indicator area*/
 268:..\..\..\arduinoLCD\test\Pain Drain\libraries\lvgl\src\widgets/lv_bar.c ****     lv_coord_t bg_left = lv_obj_get_style_pad_left(obj,     LV_PART_MAIN);
 269:..\..\..\arduinoLCD\test\Pain Drain\libraries\lvgl\src\widgets/lv_bar.c ****     lv_coord_t bg_right = lv_obj_get_style_pad_right(obj,   LV_PART_MAIN);
 270:..\..\..\arduinoLCD\test\Pain Drain\libraries\lvgl\src\widgets/lv_bar.c ****     lv_coord_t bg_top = lv_obj_get_style_pad_top(obj,       LV_PART_MAIN);
 271:..\..\..\arduinoLCD\test\Pain Drain\libraries\lvgl\src\widgets/lv_bar.c ****     lv_coord_t bg_bottom = lv_obj_get_style_pad_bottom(obj, LV_PART_MAIN);
 272:..\..\..\arduinoLCD\test\Pain Drain\libraries\lvgl\src\widgets/lv_bar.c ****     /*Respect padding and minimum width/height too*/
 273:..\..\..\arduinoLCD\test\Pain Drain\libraries\lvgl\src\widgets/lv_bar.c ****     lv_area_copy(&bar->indic_area, &bar_coords);
 274:..\..\..\arduinoLCD\test\Pain Drain\libraries\lvgl\src\widgets/lv_bar.c ****     bar->indic_area.x1 += bg_left;
 275:..\..\..\arduinoLCD\test\Pain Drain\libraries\lvgl\src\widgets/lv_bar.c ****     bar->indic_area.x2 -= bg_right;
 276:..\..\..\arduinoLCD\test\Pain Drain\libraries\lvgl\src\widgets/lv_bar.c ****     bar->indic_area.y1 += bg_top;
 277:..\..\..\arduinoLCD\test\Pain Drain\libraries\lvgl\src\widgets/lv_bar.c ****     bar->indic_area.y2 -= bg_bottom;
 278:..\..\..\arduinoLCD\test\Pain Drain\libraries\lvgl\src\widgets/lv_bar.c **** 
 279:..\..\..\arduinoLCD\test\Pain Drain\libraries\lvgl\src\widgets/lv_bar.c ****     if(hor && lv_area_get_height(&bar->indic_area) < LV_BAR_SIZE_MIN) {
 280:..\..\..\arduinoLCD\test\Pain Drain\libraries\lvgl\src\widgets/lv_bar.c ****         bar->indic_area.y1 = obj->coords.y1 + (barh / 2) - (LV_BAR_SIZE_MIN / 2);
 281:..\..\..\arduinoLCD\test\Pain Drain\libraries\lvgl\src\widgets/lv_bar.c ****         bar->indic_area.y2 = bar->indic_area.y1 + LV_BAR_SIZE_MIN;
 282:..\..\..\arduinoLCD\test\Pain Drain\libraries\lvgl\src\widgets/lv_bar.c ****     }
 283:..\..\..\arduinoLCD\test\Pain Drain\libraries\lvgl\src\widgets/lv_bar.c ****     else if(!hor && lv_area_get_width(&bar->indic_area) < LV_BAR_SIZE_MIN) {
 284:..\..\..\arduinoLCD\test\Pain Drain\libraries\lvgl\src\widgets/lv_bar.c ****         bar->indic_area.x1 = obj->coords.x1 + (barw / 2) - (LV_BAR_SIZE_MIN / 2);
 285:..\..\..\arduinoLCD\test\Pain Drain\libraries\lvgl\src\widgets/lv_bar.c ****         bar->indic_area.x2 = bar->indic_area.x1 + LV_BAR_SIZE_MIN;
 286:..\..\..\arduinoLCD\test\Pain Drain\libraries\lvgl\src\widgets/lv_bar.c ****     }
 287:..\..\..\arduinoLCD\test\Pain Drain\libraries\lvgl\src\widgets/lv_bar.c **** 
 288:..\..\..\arduinoLCD\test\Pain Drain\libraries\lvgl\src\widgets/lv_bar.c ****     lv_coord_t indicw = lv_area_get_width(&bar->indic_area);
 289:..\..\..\arduinoLCD\test\Pain Drain\libraries\lvgl\src\widgets/lv_bar.c ****     lv_coord_t indich = lv_area_get_height(&bar->indic_area);
 290:..\..\..\arduinoLCD\test\Pain Drain\libraries\lvgl\src\widgets/lv_bar.c **** 
 291:..\..\..\arduinoLCD\test\Pain Drain\libraries\lvgl\src\widgets/lv_bar.c ****     /*Calculate the indicator length*/
 292:..\..\..\arduinoLCD\test\Pain Drain\libraries\lvgl\src\widgets/lv_bar.c ****     lv_coord_t anim_length = hor ? indicw : indich;
 293:..\..\..\arduinoLCD\test\Pain Drain\libraries\lvgl\src\widgets/lv_bar.c **** 
 294:..\..\..\arduinoLCD\test\Pain Drain\libraries\lvgl\src\widgets/lv_bar.c ****     lv_coord_t anim_cur_value_x, anim_start_value_x;
ARM GAS  C:\Users\haske\AppData\Local\Temp\cc11ZRIl.s 			page 10


 295:..\..\..\arduinoLCD\test\Pain Drain\libraries\lvgl\src\widgets/lv_bar.c **** 
 296:..\..\..\arduinoLCD\test\Pain Drain\libraries\lvgl\src\widgets/lv_bar.c ****     lv_coord_t * axis1, * axis2;
 297:..\..\..\arduinoLCD\test\Pain Drain\libraries\lvgl\src\widgets/lv_bar.c ****     lv_coord_t (*indic_length_calc)(const lv_area_t * area);
 298:..\..\..\arduinoLCD\test\Pain Drain\libraries\lvgl\src\widgets/lv_bar.c **** 
 299:..\..\..\arduinoLCD\test\Pain Drain\libraries\lvgl\src\widgets/lv_bar.c ****     if(hor) {
 300:..\..\..\arduinoLCD\test\Pain Drain\libraries\lvgl\src\widgets/lv_bar.c ****         axis1 = &bar->indic_area.x1;
 301:..\..\..\arduinoLCD\test\Pain Drain\libraries\lvgl\src\widgets/lv_bar.c ****         axis2 = &bar->indic_area.x2;
 302:..\..\..\arduinoLCD\test\Pain Drain\libraries\lvgl\src\widgets/lv_bar.c ****         indic_length_calc = lv_area_get_width;
 303:..\..\..\arduinoLCD\test\Pain Drain\libraries\lvgl\src\widgets/lv_bar.c ****     }
 304:..\..\..\arduinoLCD\test\Pain Drain\libraries\lvgl\src\widgets/lv_bar.c ****     else {
 305:..\..\..\arduinoLCD\test\Pain Drain\libraries\lvgl\src\widgets/lv_bar.c ****         axis1 = &bar->indic_area.y1;
 306:..\..\..\arduinoLCD\test\Pain Drain\libraries\lvgl\src\widgets/lv_bar.c ****         axis2 = &bar->indic_area.y2;
 307:..\..\..\arduinoLCD\test\Pain Drain\libraries\lvgl\src\widgets/lv_bar.c ****         indic_length_calc = lv_area_get_height;
 308:..\..\..\arduinoLCD\test\Pain Drain\libraries\lvgl\src\widgets/lv_bar.c ****     }
 309:..\..\..\arduinoLCD\test\Pain Drain\libraries\lvgl\src\widgets/lv_bar.c **** 
 310:..\..\..\arduinoLCD\test\Pain Drain\libraries\lvgl\src\widgets/lv_bar.c ****     if(LV_BAR_IS_ANIMATING(bar->start_value_anim)) {
 311:..\..\..\arduinoLCD\test\Pain Drain\libraries\lvgl\src\widgets/lv_bar.c ****         lv_coord_t anim_start_value_start_x =
 312:..\..\..\arduinoLCD\test\Pain Drain\libraries\lvgl\src\widgets/lv_bar.c ****             (int32_t)((int32_t)anim_length * (bar->start_value_anim.anim_start - bar->min_value)) /
 313:..\..\..\arduinoLCD\test\Pain Drain\libraries\lvgl\src\widgets/lv_bar.c ****         lv_coord_t anim_start_value_end_x =
 314:..\..\..\arduinoLCD\test\Pain Drain\libraries\lvgl\src\widgets/lv_bar.c ****             (int32_t)((int32_t)anim_length * (bar->start_value_anim.anim_end - bar->min_value)) / r
 315:..\..\..\arduinoLCD\test\Pain Drain\libraries\lvgl\src\widgets/lv_bar.c **** 
 316:..\..\..\arduinoLCD\test\Pain Drain\libraries\lvgl\src\widgets/lv_bar.c ****         anim_start_value_x = (((anim_start_value_end_x - anim_start_value_start_x) * bar->start_val
 317:..\..\..\arduinoLCD\test\Pain Drain\libraries\lvgl\src\widgets/lv_bar.c ****                               LV_BAR_ANIM_STATE_END);
 318:..\..\..\arduinoLCD\test\Pain Drain\libraries\lvgl\src\widgets/lv_bar.c **** 
 319:..\..\..\arduinoLCD\test\Pain Drain\libraries\lvgl\src\widgets/lv_bar.c ****         anim_start_value_x += anim_start_value_start_x;
 320:..\..\..\arduinoLCD\test\Pain Drain\libraries\lvgl\src\widgets/lv_bar.c ****     }
 321:..\..\..\arduinoLCD\test\Pain Drain\libraries\lvgl\src\widgets/lv_bar.c ****     else {
 322:..\..\..\arduinoLCD\test\Pain Drain\libraries\lvgl\src\widgets/lv_bar.c ****         anim_start_value_x = (int32_t)((int32_t)anim_length * (bar->start_value - bar->min_value)) 
 323:..\..\..\arduinoLCD\test\Pain Drain\libraries\lvgl\src\widgets/lv_bar.c ****     }
 324:..\..\..\arduinoLCD\test\Pain Drain\libraries\lvgl\src\widgets/lv_bar.c **** 
 325:..\..\..\arduinoLCD\test\Pain Drain\libraries\lvgl\src\widgets/lv_bar.c ****     if(LV_BAR_IS_ANIMATING(bar->cur_value_anim)) {
 326:..\..\..\arduinoLCD\test\Pain Drain\libraries\lvgl\src\widgets/lv_bar.c ****         lv_coord_t anim_cur_value_start_x =
 327:..\..\..\arduinoLCD\test\Pain Drain\libraries\lvgl\src\widgets/lv_bar.c ****             (int32_t)((int32_t)anim_length * (bar->cur_value_anim.anim_start - bar->min_value)) / r
 328:..\..\..\arduinoLCD\test\Pain Drain\libraries\lvgl\src\widgets/lv_bar.c ****         lv_coord_t anim_cur_value_end_x =
 329:..\..\..\arduinoLCD\test\Pain Drain\libraries\lvgl\src\widgets/lv_bar.c ****             (int32_t)((int32_t)anim_length * (bar->cur_value_anim.anim_end - bar->min_value)) / ran
 330:..\..\..\arduinoLCD\test\Pain Drain\libraries\lvgl\src\widgets/lv_bar.c **** 
 331:..\..\..\arduinoLCD\test\Pain Drain\libraries\lvgl\src\widgets/lv_bar.c ****         anim_cur_value_x = anim_cur_value_start_x + (((anim_cur_value_end_x - anim_cur_value_start_
 332:..\..\..\arduinoLCD\test\Pain Drain\libraries\lvgl\src\widgets/lv_bar.c ****                                                       bar->cur_value_anim.anim_state) /
 333:..\..\..\arduinoLCD\test\Pain Drain\libraries\lvgl\src\widgets/lv_bar.c ****                                                      LV_BAR_ANIM_STATE_END);
 334:..\..\..\arduinoLCD\test\Pain Drain\libraries\lvgl\src\widgets/lv_bar.c ****     }
 335:..\..\..\arduinoLCD\test\Pain Drain\libraries\lvgl\src\widgets/lv_bar.c ****     else {
 336:..\..\..\arduinoLCD\test\Pain Drain\libraries\lvgl\src\widgets/lv_bar.c ****         anim_cur_value_x = (int32_t)((int32_t)anim_length * (bar->cur_value - bar->min_value)) / ra
 337:..\..\..\arduinoLCD\test\Pain Drain\libraries\lvgl\src\widgets/lv_bar.c ****     }
 338:..\..\..\arduinoLCD\test\Pain Drain\libraries\lvgl\src\widgets/lv_bar.c **** 
 339:..\..\..\arduinoLCD\test\Pain Drain\libraries\lvgl\src\widgets/lv_bar.c ****     lv_base_dir_t base_dir = lv_obj_get_style_base_dir(obj, LV_PART_MAIN);
 340:..\..\..\arduinoLCD\test\Pain Drain\libraries\lvgl\src\widgets/lv_bar.c ****     if(hor && base_dir == LV_BASE_DIR_RTL) {
 341:..\..\..\arduinoLCD\test\Pain Drain\libraries\lvgl\src\widgets/lv_bar.c ****         /*Swap axes*/
 342:..\..\..\arduinoLCD\test\Pain Drain\libraries\lvgl\src\widgets/lv_bar.c ****         lv_coord_t * tmp;
 343:..\..\..\arduinoLCD\test\Pain Drain\libraries\lvgl\src\widgets/lv_bar.c ****         tmp = axis1;
 344:..\..\..\arduinoLCD\test\Pain Drain\libraries\lvgl\src\widgets/lv_bar.c ****         axis1 = axis2;
 345:..\..\..\arduinoLCD\test\Pain Drain\libraries\lvgl\src\widgets/lv_bar.c ****         axis2 = tmp;
 346:..\..\..\arduinoLCD\test\Pain Drain\libraries\lvgl\src\widgets/lv_bar.c ****         anim_cur_value_x = -anim_cur_value_x;
 347:..\..\..\arduinoLCD\test\Pain Drain\libraries\lvgl\src\widgets/lv_bar.c ****         anim_start_value_x = -anim_start_value_x;
 348:..\..\..\arduinoLCD\test\Pain Drain\libraries\lvgl\src\widgets/lv_bar.c ****     }
 349:..\..\..\arduinoLCD\test\Pain Drain\libraries\lvgl\src\widgets/lv_bar.c **** 
 350:..\..\..\arduinoLCD\test\Pain Drain\libraries\lvgl\src\widgets/lv_bar.c ****     /*Set the indicator length*/
 351:..\..\..\arduinoLCD\test\Pain Drain\libraries\lvgl\src\widgets/lv_bar.c ****     if(hor) {
ARM GAS  C:\Users\haske\AppData\Local\Temp\cc11ZRIl.s 			page 11


 352:..\..\..\arduinoLCD\test\Pain Drain\libraries\lvgl\src\widgets/lv_bar.c ****         *axis2 = *axis1 + anim_cur_value_x;
 353:..\..\..\arduinoLCD\test\Pain Drain\libraries\lvgl\src\widgets/lv_bar.c ****         *axis1 += anim_start_value_x;
 354:..\..\..\arduinoLCD\test\Pain Drain\libraries\lvgl\src\widgets/lv_bar.c ****     }
 355:..\..\..\arduinoLCD\test\Pain Drain\libraries\lvgl\src\widgets/lv_bar.c ****     else {
 356:..\..\..\arduinoLCD\test\Pain Drain\libraries\lvgl\src\widgets/lv_bar.c ****         *axis1 = *axis2 - anim_cur_value_x + 1;
 357:..\..\..\arduinoLCD\test\Pain Drain\libraries\lvgl\src\widgets/lv_bar.c ****         *axis2 -= anim_start_value_x;
 358:..\..\..\arduinoLCD\test\Pain Drain\libraries\lvgl\src\widgets/lv_bar.c ****     }
 359:..\..\..\arduinoLCD\test\Pain Drain\libraries\lvgl\src\widgets/lv_bar.c ****     if(sym) {
 360:..\..\..\arduinoLCD\test\Pain Drain\libraries\lvgl\src\widgets/lv_bar.c ****         lv_coord_t zero, shift;
 361:..\..\..\arduinoLCD\test\Pain Drain\libraries\lvgl\src\widgets/lv_bar.c ****         shift = (-bar->min_value * anim_length) / range;
 362:..\..\..\arduinoLCD\test\Pain Drain\libraries\lvgl\src\widgets/lv_bar.c ****         if(hor) {
 363:..\..\..\arduinoLCD\test\Pain Drain\libraries\lvgl\src\widgets/lv_bar.c ****             zero = *axis1 + shift;
 364:..\..\..\arduinoLCD\test\Pain Drain\libraries\lvgl\src\widgets/lv_bar.c ****             if(*axis2 > zero)
 365:..\..\..\arduinoLCD\test\Pain Drain\libraries\lvgl\src\widgets/lv_bar.c ****                 *axis1 = zero;
 366:..\..\..\arduinoLCD\test\Pain Drain\libraries\lvgl\src\widgets/lv_bar.c ****             else {
 367:..\..\..\arduinoLCD\test\Pain Drain\libraries\lvgl\src\widgets/lv_bar.c ****                 *axis1 = *axis2;
 368:..\..\..\arduinoLCD\test\Pain Drain\libraries\lvgl\src\widgets/lv_bar.c ****                 *axis2 = zero;
 369:..\..\..\arduinoLCD\test\Pain Drain\libraries\lvgl\src\widgets/lv_bar.c ****             }
 370:..\..\..\arduinoLCD\test\Pain Drain\libraries\lvgl\src\widgets/lv_bar.c ****         }
 371:..\..\..\arduinoLCD\test\Pain Drain\libraries\lvgl\src\widgets/lv_bar.c ****         else {
 372:..\..\..\arduinoLCD\test\Pain Drain\libraries\lvgl\src\widgets/lv_bar.c ****             zero = *axis2 - shift + 1;
 373:..\..\..\arduinoLCD\test\Pain Drain\libraries\lvgl\src\widgets/lv_bar.c ****             if(*axis1 > zero)
 374:..\..\..\arduinoLCD\test\Pain Drain\libraries\lvgl\src\widgets/lv_bar.c ****                 *axis2 = zero;
 375:..\..\..\arduinoLCD\test\Pain Drain\libraries\lvgl\src\widgets/lv_bar.c ****             else {
 376:..\..\..\arduinoLCD\test\Pain Drain\libraries\lvgl\src\widgets/lv_bar.c ****                 *axis2 = *axis1;
 377:..\..\..\arduinoLCD\test\Pain Drain\libraries\lvgl\src\widgets/lv_bar.c ****                 *axis1 = zero;
 378:..\..\..\arduinoLCD\test\Pain Drain\libraries\lvgl\src\widgets/lv_bar.c ****             }
 379:..\..\..\arduinoLCD\test\Pain Drain\libraries\lvgl\src\widgets/lv_bar.c ****             if(*axis2 < *axis1) {
 380:..\..\..\arduinoLCD\test\Pain Drain\libraries\lvgl\src\widgets/lv_bar.c ****                 /*swap*/
 381:..\..\..\arduinoLCD\test\Pain Drain\libraries\lvgl\src\widgets/lv_bar.c ****                 zero = *axis1;
 382:..\..\..\arduinoLCD\test\Pain Drain\libraries\lvgl\src\widgets/lv_bar.c ****                 *axis1 = *axis2;
 383:..\..\..\arduinoLCD\test\Pain Drain\libraries\lvgl\src\widgets/lv_bar.c ****                 *axis2 = zero;
 384:..\..\..\arduinoLCD\test\Pain Drain\libraries\lvgl\src\widgets/lv_bar.c ****             }
 385:..\..\..\arduinoLCD\test\Pain Drain\libraries\lvgl\src\widgets/lv_bar.c ****         }
 386:..\..\..\arduinoLCD\test\Pain Drain\libraries\lvgl\src\widgets/lv_bar.c ****     }
 387:..\..\..\arduinoLCD\test\Pain Drain\libraries\lvgl\src\widgets/lv_bar.c **** 
 388:..\..\..\arduinoLCD\test\Pain Drain\libraries\lvgl\src\widgets/lv_bar.c ****     /*Do not draw a zero length indicator but at least call the draw part events*/
 389:..\..\..\arduinoLCD\test\Pain Drain\libraries\lvgl\src\widgets/lv_bar.c ****     if(!sym && indic_length_calc(&bar->indic_area) <= 1) {
 390:..\..\..\arduinoLCD\test\Pain Drain\libraries\lvgl\src\widgets/lv_bar.c **** 
 391:..\..\..\arduinoLCD\test\Pain Drain\libraries\lvgl\src\widgets/lv_bar.c ****         lv_obj_draw_part_dsc_t part_draw_dsc;
 392:..\..\..\arduinoLCD\test\Pain Drain\libraries\lvgl\src\widgets/lv_bar.c ****         lv_obj_draw_dsc_init(&part_draw_dsc, draw_ctx);
 393:..\..\..\arduinoLCD\test\Pain Drain\libraries\lvgl\src\widgets/lv_bar.c ****         part_draw_dsc.part = LV_PART_INDICATOR;
 394:..\..\..\arduinoLCD\test\Pain Drain\libraries\lvgl\src\widgets/lv_bar.c ****         part_draw_dsc.class_p = MY_CLASS;
 395:..\..\..\arduinoLCD\test\Pain Drain\libraries\lvgl\src\widgets/lv_bar.c ****         part_draw_dsc.type = LV_BAR_DRAW_PART_INDICATOR;
 396:..\..\..\arduinoLCD\test\Pain Drain\libraries\lvgl\src\widgets/lv_bar.c ****         part_draw_dsc.draw_area = &bar->indic_area;
 397:..\..\..\arduinoLCD\test\Pain Drain\libraries\lvgl\src\widgets/lv_bar.c **** 
 398:..\..\..\arduinoLCD\test\Pain Drain\libraries\lvgl\src\widgets/lv_bar.c ****         lv_event_send(obj, LV_EVENT_DRAW_PART_BEGIN, &part_draw_dsc);
 399:..\..\..\arduinoLCD\test\Pain Drain\libraries\lvgl\src\widgets/lv_bar.c ****         lv_event_send(obj, LV_EVENT_DRAW_PART_END, &part_draw_dsc);
 400:..\..\..\arduinoLCD\test\Pain Drain\libraries\lvgl\src\widgets/lv_bar.c ****         return;
 401:..\..\..\arduinoLCD\test\Pain Drain\libraries\lvgl\src\widgets/lv_bar.c ****     }
 402:..\..\..\arduinoLCD\test\Pain Drain\libraries\lvgl\src\widgets/lv_bar.c **** 
 403:..\..\..\arduinoLCD\test\Pain Drain\libraries\lvgl\src\widgets/lv_bar.c ****     lv_area_t indic_area;
 404:..\..\..\arduinoLCD\test\Pain Drain\libraries\lvgl\src\widgets/lv_bar.c ****     lv_area_copy(&indic_area, &bar->indic_area);
 405:..\..\..\arduinoLCD\test\Pain Drain\libraries\lvgl\src\widgets/lv_bar.c **** 
 406:..\..\..\arduinoLCD\test\Pain Drain\libraries\lvgl\src\widgets/lv_bar.c ****     lv_draw_rect_dsc_t draw_rect_dsc;
 407:..\..\..\arduinoLCD\test\Pain Drain\libraries\lvgl\src\widgets/lv_bar.c ****     lv_draw_rect_dsc_init(&draw_rect_dsc);
 408:..\..\..\arduinoLCD\test\Pain Drain\libraries\lvgl\src\widgets/lv_bar.c ****     lv_obj_init_draw_rect_dsc(obj, LV_PART_INDICATOR, &draw_rect_dsc);
ARM GAS  C:\Users\haske\AppData\Local\Temp\cc11ZRIl.s 			page 12


 409:..\..\..\arduinoLCD\test\Pain Drain\libraries\lvgl\src\widgets/lv_bar.c **** 
 410:..\..\..\arduinoLCD\test\Pain Drain\libraries\lvgl\src\widgets/lv_bar.c ****     lv_obj_draw_part_dsc_t part_draw_dsc;
 411:..\..\..\arduinoLCD\test\Pain Drain\libraries\lvgl\src\widgets/lv_bar.c ****     lv_obj_draw_dsc_init(&part_draw_dsc, draw_ctx);
 412:..\..\..\arduinoLCD\test\Pain Drain\libraries\lvgl\src\widgets/lv_bar.c ****     part_draw_dsc.part = LV_PART_INDICATOR;
 413:..\..\..\arduinoLCD\test\Pain Drain\libraries\lvgl\src\widgets/lv_bar.c ****     part_draw_dsc.class_p = MY_CLASS;
 414:..\..\..\arduinoLCD\test\Pain Drain\libraries\lvgl\src\widgets/lv_bar.c ****     part_draw_dsc.type = LV_BAR_DRAW_PART_INDICATOR;
 415:..\..\..\arduinoLCD\test\Pain Drain\libraries\lvgl\src\widgets/lv_bar.c ****     part_draw_dsc.rect_dsc = &draw_rect_dsc;
 416:..\..\..\arduinoLCD\test\Pain Drain\libraries\lvgl\src\widgets/lv_bar.c ****     part_draw_dsc.draw_area = &bar->indic_area;
 417:..\..\..\arduinoLCD\test\Pain Drain\libraries\lvgl\src\widgets/lv_bar.c **** 
 418:..\..\..\arduinoLCD\test\Pain Drain\libraries\lvgl\src\widgets/lv_bar.c ****     lv_event_send(obj, LV_EVENT_DRAW_PART_BEGIN, &part_draw_dsc);
 419:..\..\..\arduinoLCD\test\Pain Drain\libraries\lvgl\src\widgets/lv_bar.c **** 
 420:..\..\..\arduinoLCD\test\Pain Drain\libraries\lvgl\src\widgets/lv_bar.c ****     lv_coord_t bg_radius = lv_obj_get_style_radius(obj, LV_PART_MAIN);
 421:..\..\..\arduinoLCD\test\Pain Drain\libraries\lvgl\src\widgets/lv_bar.c ****     lv_coord_t short_side = LV_MIN(barw, barh);
 422:..\..\..\arduinoLCD\test\Pain Drain\libraries\lvgl\src\widgets/lv_bar.c ****     if(bg_radius > short_side >> 1) bg_radius = short_side >> 1;
 423:..\..\..\arduinoLCD\test\Pain Drain\libraries\lvgl\src\widgets/lv_bar.c **** 
 424:..\..\..\arduinoLCD\test\Pain Drain\libraries\lvgl\src\widgets/lv_bar.c ****     lv_coord_t indic_radius = draw_rect_dsc.radius;
 425:..\..\..\arduinoLCD\test\Pain Drain\libraries\lvgl\src\widgets/lv_bar.c ****     short_side = LV_MIN(indicw, indich);
 426:..\..\..\arduinoLCD\test\Pain Drain\libraries\lvgl\src\widgets/lv_bar.c ****     if(indic_radius > short_side >> 1) indic_radius = short_side >> 1;
 427:..\..\..\arduinoLCD\test\Pain Drain\libraries\lvgl\src\widgets/lv_bar.c **** 
 428:..\..\..\arduinoLCD\test\Pain Drain\libraries\lvgl\src\widgets/lv_bar.c ****     /*Draw only the shadow and outline only if the indicator is long enough.
 429:..\..\..\arduinoLCD\test\Pain Drain\libraries\lvgl\src\widgets/lv_bar.c ****      *The radius of the bg and the indicator can make a strange shape where
 430:..\..\..\arduinoLCD\test\Pain Drain\libraries\lvgl\src\widgets/lv_bar.c ****      *it'd be very difficult to draw shadow.*/
 431:..\..\..\arduinoLCD\test\Pain Drain\libraries\lvgl\src\widgets/lv_bar.c ****     if((hor && lv_area_get_width(&bar->indic_area) > indic_radius * 2) ||
 432:..\..\..\arduinoLCD\test\Pain Drain\libraries\lvgl\src\widgets/lv_bar.c ****        (!hor && lv_area_get_height(&bar->indic_area) > indic_radius * 2)) {
 433:..\..\..\arduinoLCD\test\Pain Drain\libraries\lvgl\src\widgets/lv_bar.c ****         lv_opa_t bg_opa = draw_rect_dsc.bg_opa;
 434:..\..\..\arduinoLCD\test\Pain Drain\libraries\lvgl\src\widgets/lv_bar.c ****         lv_opa_t bg_img_opa = draw_rect_dsc.bg_img_opa;
 435:..\..\..\arduinoLCD\test\Pain Drain\libraries\lvgl\src\widgets/lv_bar.c ****         lv_opa_t border_opa = draw_rect_dsc.border_opa;
 436:..\..\..\arduinoLCD\test\Pain Drain\libraries\lvgl\src\widgets/lv_bar.c ****         draw_rect_dsc.bg_opa = LV_OPA_TRANSP;
 437:..\..\..\arduinoLCD\test\Pain Drain\libraries\lvgl\src\widgets/lv_bar.c ****         draw_rect_dsc.bg_img_opa = LV_OPA_TRANSP;
 438:..\..\..\arduinoLCD\test\Pain Drain\libraries\lvgl\src\widgets/lv_bar.c ****         draw_rect_dsc.border_opa = LV_OPA_TRANSP;
 439:..\..\..\arduinoLCD\test\Pain Drain\libraries\lvgl\src\widgets/lv_bar.c **** 
 440:..\..\..\arduinoLCD\test\Pain Drain\libraries\lvgl\src\widgets/lv_bar.c ****         lv_draw_rect(draw_ctx, &draw_rect_dsc, &bar->indic_area);
 441:..\..\..\arduinoLCD\test\Pain Drain\libraries\lvgl\src\widgets/lv_bar.c **** 
 442:..\..\..\arduinoLCD\test\Pain Drain\libraries\lvgl\src\widgets/lv_bar.c ****         draw_rect_dsc.bg_opa = bg_opa;
 443:..\..\..\arduinoLCD\test\Pain Drain\libraries\lvgl\src\widgets/lv_bar.c ****         draw_rect_dsc.bg_img_opa = bg_img_opa;
 444:..\..\..\arduinoLCD\test\Pain Drain\libraries\lvgl\src\widgets/lv_bar.c ****         draw_rect_dsc.border_opa = border_opa;
 445:..\..\..\arduinoLCD\test\Pain Drain\libraries\lvgl\src\widgets/lv_bar.c ****     }
 446:..\..\..\arduinoLCD\test\Pain Drain\libraries\lvgl\src\widgets/lv_bar.c **** 
 447:..\..\..\arduinoLCD\test\Pain Drain\libraries\lvgl\src\widgets/lv_bar.c **** #if LV_DRAW_COMPLEX
 448:..\..\..\arduinoLCD\test\Pain Drain\libraries\lvgl\src\widgets/lv_bar.c ****     lv_draw_mask_radius_param_t mask_bg_param;
 449:..\..\..\arduinoLCD\test\Pain Drain\libraries\lvgl\src\widgets/lv_bar.c ****     lv_area_t bg_mask_area;
 450:..\..\..\arduinoLCD\test\Pain Drain\libraries\lvgl\src\widgets/lv_bar.c ****     bg_mask_area.x1 = obj->coords.x1 + bg_left;
 451:..\..\..\arduinoLCD\test\Pain Drain\libraries\lvgl\src\widgets/lv_bar.c ****     bg_mask_area.x2 = obj->coords.x2 - bg_right;
 452:..\..\..\arduinoLCD\test\Pain Drain\libraries\lvgl\src\widgets/lv_bar.c ****     bg_mask_area.y1 = obj->coords.y1 + bg_top;
 453:..\..\..\arduinoLCD\test\Pain Drain\libraries\lvgl\src\widgets/lv_bar.c ****     bg_mask_area.y2 = obj->coords.y2 - bg_bottom;
 454:..\..\..\arduinoLCD\test\Pain Drain\libraries\lvgl\src\widgets/lv_bar.c **** 
 455:..\..\..\arduinoLCD\test\Pain Drain\libraries\lvgl\src\widgets/lv_bar.c ****     lv_draw_mask_radius_init(&mask_bg_param, &bg_mask_area, bg_radius, false);
 456:..\..\..\arduinoLCD\test\Pain Drain\libraries\lvgl\src\widgets/lv_bar.c ****     lv_coord_t mask_bg_id = lv_draw_mask_add(&mask_bg_param, NULL);
 457:..\..\..\arduinoLCD\test\Pain Drain\libraries\lvgl\src\widgets/lv_bar.c **** #endif
 458:..\..\..\arduinoLCD\test\Pain Drain\libraries\lvgl\src\widgets/lv_bar.c **** 
 459:..\..\..\arduinoLCD\test\Pain Drain\libraries\lvgl\src\widgets/lv_bar.c ****     /*Draw_only the background and background image*/
 460:..\..\..\arduinoLCD\test\Pain Drain\libraries\lvgl\src\widgets/lv_bar.c ****     lv_opa_t shadow_opa = draw_rect_dsc.shadow_opa;
 461:..\..\..\arduinoLCD\test\Pain Drain\libraries\lvgl\src\widgets/lv_bar.c ****     lv_opa_t border_opa = draw_rect_dsc.border_opa;
 462:..\..\..\arduinoLCD\test\Pain Drain\libraries\lvgl\src\widgets/lv_bar.c ****     draw_rect_dsc.border_opa = LV_OPA_TRANSP;
 463:..\..\..\arduinoLCD\test\Pain Drain\libraries\lvgl\src\widgets/lv_bar.c ****     draw_rect_dsc.shadow_opa = LV_OPA_TRANSP;
 464:..\..\..\arduinoLCD\test\Pain Drain\libraries\lvgl\src\widgets/lv_bar.c **** 
 465:..\..\..\arduinoLCD\test\Pain Drain\libraries\lvgl\src\widgets/lv_bar.c ****     /*Get the max possible indicator area. The gradient should be applied on this*/
ARM GAS  C:\Users\haske\AppData\Local\Temp\cc11ZRIl.s 			page 13


 466:..\..\..\arduinoLCD\test\Pain Drain\libraries\lvgl\src\widgets/lv_bar.c ****     lv_area_t mask_indic_max_area;
 467:..\..\..\arduinoLCD\test\Pain Drain\libraries\lvgl\src\widgets/lv_bar.c ****     lv_area_copy(&mask_indic_max_area, &bar_coords);
 468:..\..\..\arduinoLCD\test\Pain Drain\libraries\lvgl\src\widgets/lv_bar.c ****     mask_indic_max_area.x1 += bg_left;
 469:..\..\..\arduinoLCD\test\Pain Drain\libraries\lvgl\src\widgets/lv_bar.c ****     mask_indic_max_area.y1 += bg_top;
 470:..\..\..\arduinoLCD\test\Pain Drain\libraries\lvgl\src\widgets/lv_bar.c ****     mask_indic_max_area.x2 -= bg_right;
 471:..\..\..\arduinoLCD\test\Pain Drain\libraries\lvgl\src\widgets/lv_bar.c ****     mask_indic_max_area.y2 -= bg_bottom;
 472:..\..\..\arduinoLCD\test\Pain Drain\libraries\lvgl\src\widgets/lv_bar.c ****     if(hor && lv_area_get_height(&mask_indic_max_area) < LV_BAR_SIZE_MIN) {
 473:..\..\..\arduinoLCD\test\Pain Drain\libraries\lvgl\src\widgets/lv_bar.c ****         mask_indic_max_area.y1 = obj->coords.y1 + (barh / 2) - (LV_BAR_SIZE_MIN / 2);
 474:..\..\..\arduinoLCD\test\Pain Drain\libraries\lvgl\src\widgets/lv_bar.c ****         mask_indic_max_area.y2 = mask_indic_max_area.y1 + LV_BAR_SIZE_MIN;
 475:..\..\..\arduinoLCD\test\Pain Drain\libraries\lvgl\src\widgets/lv_bar.c ****     }
 476:..\..\..\arduinoLCD\test\Pain Drain\libraries\lvgl\src\widgets/lv_bar.c ****     else if(!hor && lv_area_get_width(&mask_indic_max_area) < LV_BAR_SIZE_MIN) {
 477:..\..\..\arduinoLCD\test\Pain Drain\libraries\lvgl\src\widgets/lv_bar.c ****         mask_indic_max_area.x1 = obj->coords.x1 + (barw / 2) - (LV_BAR_SIZE_MIN / 2);
 478:..\..\..\arduinoLCD\test\Pain Drain\libraries\lvgl\src\widgets/lv_bar.c ****         mask_indic_max_area.x2 = mask_indic_max_area.x1 + LV_BAR_SIZE_MIN;
 479:..\..\..\arduinoLCD\test\Pain Drain\libraries\lvgl\src\widgets/lv_bar.c ****     }
 480:..\..\..\arduinoLCD\test\Pain Drain\libraries\lvgl\src\widgets/lv_bar.c **** 
 481:..\..\..\arduinoLCD\test\Pain Drain\libraries\lvgl\src\widgets/lv_bar.c **** #if LV_DRAW_COMPLEX
 482:..\..\..\arduinoLCD\test\Pain Drain\libraries\lvgl\src\widgets/lv_bar.c ****     /*Create a mask to the current indicator area to see only this part from the whole gradient.*/
 483:..\..\..\arduinoLCD\test\Pain Drain\libraries\lvgl\src\widgets/lv_bar.c ****     lv_draw_mask_radius_param_t mask_indic_param;
 484:..\..\..\arduinoLCD\test\Pain Drain\libraries\lvgl\src\widgets/lv_bar.c ****     lv_draw_mask_radius_init(&mask_indic_param, &bar->indic_area, draw_rect_dsc.radius, false);
 485:..\..\..\arduinoLCD\test\Pain Drain\libraries\lvgl\src\widgets/lv_bar.c ****     int16_t mask_indic_id = lv_draw_mask_add(&mask_indic_param, NULL);
 486:..\..\..\arduinoLCD\test\Pain Drain\libraries\lvgl\src\widgets/lv_bar.c **** #endif
 487:..\..\..\arduinoLCD\test\Pain Drain\libraries\lvgl\src\widgets/lv_bar.c **** 
 488:..\..\..\arduinoLCD\test\Pain Drain\libraries\lvgl\src\widgets/lv_bar.c ****     lv_draw_rect(draw_ctx, &draw_rect_dsc, &mask_indic_max_area);
 489:..\..\..\arduinoLCD\test\Pain Drain\libraries\lvgl\src\widgets/lv_bar.c ****     draw_rect_dsc.border_opa = border_opa;
 490:..\..\..\arduinoLCD\test\Pain Drain\libraries\lvgl\src\widgets/lv_bar.c ****     draw_rect_dsc.shadow_opa = shadow_opa;
 491:..\..\..\arduinoLCD\test\Pain Drain\libraries\lvgl\src\widgets/lv_bar.c **** 
 492:..\..\..\arduinoLCD\test\Pain Drain\libraries\lvgl\src\widgets/lv_bar.c ****     /*Draw the border*/
 493:..\..\..\arduinoLCD\test\Pain Drain\libraries\lvgl\src\widgets/lv_bar.c ****     draw_rect_dsc.bg_opa = LV_OPA_TRANSP;
 494:..\..\..\arduinoLCD\test\Pain Drain\libraries\lvgl\src\widgets/lv_bar.c ****     draw_rect_dsc.bg_img_opa = LV_OPA_TRANSP;
 495:..\..\..\arduinoLCD\test\Pain Drain\libraries\lvgl\src\widgets/lv_bar.c ****     draw_rect_dsc.shadow_opa = LV_OPA_TRANSP;
 496:..\..\..\arduinoLCD\test\Pain Drain\libraries\lvgl\src\widgets/lv_bar.c ****     lv_draw_rect(draw_ctx, &draw_rect_dsc, &bar->indic_area);
 497:..\..\..\arduinoLCD\test\Pain Drain\libraries\lvgl\src\widgets/lv_bar.c **** 
 498:..\..\..\arduinoLCD\test\Pain Drain\libraries\lvgl\src\widgets/lv_bar.c **** #if LV_DRAW_COMPLEX
 499:..\..\..\arduinoLCD\test\Pain Drain\libraries\lvgl\src\widgets/lv_bar.c ****     lv_draw_mask_free_param(&mask_indic_param);
 500:..\..\..\arduinoLCD\test\Pain Drain\libraries\lvgl\src\widgets/lv_bar.c ****     lv_draw_mask_free_param(&mask_bg_param);
 501:..\..\..\arduinoLCD\test\Pain Drain\libraries\lvgl\src\widgets/lv_bar.c ****     lv_draw_mask_remove_id(mask_indic_id);
 502:..\..\..\arduinoLCD\test\Pain Drain\libraries\lvgl\src\widgets/lv_bar.c ****     lv_draw_mask_remove_id(mask_bg_id);
 503:..\..\..\arduinoLCD\test\Pain Drain\libraries\lvgl\src\widgets/lv_bar.c **** #endif
 504:..\..\..\arduinoLCD\test\Pain Drain\libraries\lvgl\src\widgets/lv_bar.c **** 
 505:..\..\..\arduinoLCD\test\Pain Drain\libraries\lvgl\src\widgets/lv_bar.c ****     lv_event_send(obj, LV_EVENT_DRAW_PART_END, &part_draw_dsc);
 506:..\..\..\arduinoLCD\test\Pain Drain\libraries\lvgl\src\widgets/lv_bar.c **** }
 507:..\..\..\arduinoLCD\test\Pain Drain\libraries\lvgl\src\widgets/lv_bar.c **** 
 508:..\..\..\arduinoLCD\test\Pain Drain\libraries\lvgl\src\widgets/lv_bar.c **** static void lv_bar_event(const lv_obj_class_t * class_p, lv_event_t * e)
 509:..\..\..\arduinoLCD\test\Pain Drain\libraries\lvgl\src\widgets/lv_bar.c **** {
 510:..\..\..\arduinoLCD\test\Pain Drain\libraries\lvgl\src\widgets/lv_bar.c ****     LV_UNUSED(class_p);
 511:..\..\..\arduinoLCD\test\Pain Drain\libraries\lvgl\src\widgets/lv_bar.c **** 
 512:..\..\..\arduinoLCD\test\Pain Drain\libraries\lvgl\src\widgets/lv_bar.c ****     lv_res_t res;
 513:..\..\..\arduinoLCD\test\Pain Drain\libraries\lvgl\src\widgets/lv_bar.c **** 
 514:..\..\..\arduinoLCD\test\Pain Drain\libraries\lvgl\src\widgets/lv_bar.c ****     /*Call the ancestor's event handler*/
 515:..\..\..\arduinoLCD\test\Pain Drain\libraries\lvgl\src\widgets/lv_bar.c ****     res = lv_obj_event_base(MY_CLASS, e);
 516:..\..\..\arduinoLCD\test\Pain Drain\libraries\lvgl\src\widgets/lv_bar.c ****     if(res != LV_RES_OK) return;
 517:..\..\..\arduinoLCD\test\Pain Drain\libraries\lvgl\src\widgets/lv_bar.c **** 
 518:..\..\..\arduinoLCD\test\Pain Drain\libraries\lvgl\src\widgets/lv_bar.c ****     lv_event_code_t code = lv_event_get_code(e);
 519:..\..\..\arduinoLCD\test\Pain Drain\libraries\lvgl\src\widgets/lv_bar.c ****     lv_obj_t * obj = lv_event_get_target(e);
 520:..\..\..\arduinoLCD\test\Pain Drain\libraries\lvgl\src\widgets/lv_bar.c **** 
 521:..\..\..\arduinoLCD\test\Pain Drain\libraries\lvgl\src\widgets/lv_bar.c ****     if(code == LV_EVENT_REFR_EXT_DRAW_SIZE) {
 522:..\..\..\arduinoLCD\test\Pain Drain\libraries\lvgl\src\widgets/lv_bar.c ****         lv_coord_t indic_size;
ARM GAS  C:\Users\haske\AppData\Local\Temp\cc11ZRIl.s 			page 14


 523:..\..\..\arduinoLCD\test\Pain Drain\libraries\lvgl\src\widgets/lv_bar.c ****         indic_size = lv_obj_calculate_ext_draw_size(obj, LV_PART_INDICATOR);
 524:..\..\..\arduinoLCD\test\Pain Drain\libraries\lvgl\src\widgets/lv_bar.c **** 
 525:..\..\..\arduinoLCD\test\Pain Drain\libraries\lvgl\src\widgets/lv_bar.c ****         /*Bg size is handled by lv_obj*/
 526:..\..\..\arduinoLCD\test\Pain Drain\libraries\lvgl\src\widgets/lv_bar.c ****         lv_coord_t * s = lv_event_get_param(e);
 527:..\..\..\arduinoLCD\test\Pain Drain\libraries\lvgl\src\widgets/lv_bar.c ****         *s = LV_MAX(*s, indic_size);
 528:..\..\..\arduinoLCD\test\Pain Drain\libraries\lvgl\src\widgets/lv_bar.c **** 
 529:..\..\..\arduinoLCD\test\Pain Drain\libraries\lvgl\src\widgets/lv_bar.c ****         /*Calculate the indicator area*/
 530:..\..\..\arduinoLCD\test\Pain Drain\libraries\lvgl\src\widgets/lv_bar.c ****         lv_coord_t bg_left = lv_obj_get_style_pad_left(obj, LV_PART_MAIN);
 531:..\..\..\arduinoLCD\test\Pain Drain\libraries\lvgl\src\widgets/lv_bar.c ****         lv_coord_t bg_right = lv_obj_get_style_pad_right(obj, LV_PART_MAIN);
 532:..\..\..\arduinoLCD\test\Pain Drain\libraries\lvgl\src\widgets/lv_bar.c ****         lv_coord_t bg_top = lv_obj_get_style_pad_top(obj, LV_PART_MAIN);
 533:..\..\..\arduinoLCD\test\Pain Drain\libraries\lvgl\src\widgets/lv_bar.c ****         lv_coord_t bg_bottom = lv_obj_get_style_pad_bottom(obj, LV_PART_MAIN);
 534:..\..\..\arduinoLCD\test\Pain Drain\libraries\lvgl\src\widgets/lv_bar.c **** 
 535:..\..\..\arduinoLCD\test\Pain Drain\libraries\lvgl\src\widgets/lv_bar.c ****         lv_coord_t pad = LV_MIN4(bg_left, bg_right, bg_top, bg_bottom);
 536:..\..\..\arduinoLCD\test\Pain Drain\libraries\lvgl\src\widgets/lv_bar.c ****         if(pad < 0) {
 537:..\..\..\arduinoLCD\test\Pain Drain\libraries\lvgl\src\widgets/lv_bar.c ****             *s = LV_MAX(*s, -pad);
 538:..\..\..\arduinoLCD\test\Pain Drain\libraries\lvgl\src\widgets/lv_bar.c ****         }
 539:..\..\..\arduinoLCD\test\Pain Drain\libraries\lvgl\src\widgets/lv_bar.c ****     }
 540:..\..\..\arduinoLCD\test\Pain Drain\libraries\lvgl\src\widgets/lv_bar.c ****     else if(code == LV_EVENT_PRESSED || code == LV_EVENT_RELEASED) {
 541:..\..\..\arduinoLCD\test\Pain Drain\libraries\lvgl\src\widgets/lv_bar.c ****         lv_bar_t * bar = (lv_bar_t *)obj;
 542:..\..\..\arduinoLCD\test\Pain Drain\libraries\lvgl\src\widgets/lv_bar.c ****         lv_obj_invalidate_area(obj, &bar->indic_area);
 543:..\..\..\arduinoLCD\test\Pain Drain\libraries\lvgl\src\widgets/lv_bar.c ****     }
 544:..\..\..\arduinoLCD\test\Pain Drain\libraries\lvgl\src\widgets/lv_bar.c ****     else if(code == LV_EVENT_DRAW_MAIN) {
 545:..\..\..\arduinoLCD\test\Pain Drain\libraries\lvgl\src\widgets/lv_bar.c ****         draw_indic(e);
 546:..\..\..\arduinoLCD\test\Pain Drain\libraries\lvgl\src\widgets/lv_bar.c ****     }
 547:..\..\..\arduinoLCD\test\Pain Drain\libraries\lvgl\src\widgets/lv_bar.c **** }
 548:..\..\..\arduinoLCD\test\Pain Drain\libraries\lvgl\src\widgets/lv_bar.c **** 
 549:..\..\..\arduinoLCD\test\Pain Drain\libraries\lvgl\src\widgets/lv_bar.c **** static void lv_bar_anim(void * var, int32_t value)
 550:..\..\..\arduinoLCD\test\Pain Drain\libraries\lvgl\src\widgets/lv_bar.c **** {
 551:..\..\..\arduinoLCD\test\Pain Drain\libraries\lvgl\src\widgets/lv_bar.c ****     _lv_bar_anim_t * bar_anim = var;
 552:..\..\..\arduinoLCD\test\Pain Drain\libraries\lvgl\src\widgets/lv_bar.c ****     bar_anim->anim_state    = value;
 553:..\..\..\arduinoLCD\test\Pain Drain\libraries\lvgl\src\widgets/lv_bar.c ****     lv_obj_invalidate(bar_anim->bar);
 554:..\..\..\arduinoLCD\test\Pain Drain\libraries\lvgl\src\widgets/lv_bar.c **** }
 555:..\..\..\arduinoLCD\test\Pain Drain\libraries\lvgl\src\widgets/lv_bar.c **** 
 556:..\..\..\arduinoLCD\test\Pain Drain\libraries\lvgl\src\widgets/lv_bar.c **** static void lv_bar_anim_ready(lv_anim_t * a)
 557:..\..\..\arduinoLCD\test\Pain Drain\libraries\lvgl\src\widgets/lv_bar.c **** {
 558:..\..\..\arduinoLCD\test\Pain Drain\libraries\lvgl\src\widgets/lv_bar.c ****     _lv_bar_anim_t * var = a->var;
 559:..\..\..\arduinoLCD\test\Pain Drain\libraries\lvgl\src\widgets/lv_bar.c ****     lv_obj_t * obj = (lv_obj_t *)var->bar;
 560:..\..\..\arduinoLCD\test\Pain Drain\libraries\lvgl\src\widgets/lv_bar.c ****     lv_bar_t * bar = (lv_bar_t *)obj;
 561:..\..\..\arduinoLCD\test\Pain Drain\libraries\lvgl\src\widgets/lv_bar.c **** 
 562:..\..\..\arduinoLCD\test\Pain Drain\libraries\lvgl\src\widgets/lv_bar.c ****     var->anim_state = LV_BAR_ANIM_STATE_INV;
 563:..\..\..\arduinoLCD\test\Pain Drain\libraries\lvgl\src\widgets/lv_bar.c ****     if(var == &bar->cur_value_anim)
 564:..\..\..\arduinoLCD\test\Pain Drain\libraries\lvgl\src\widgets/lv_bar.c ****         bar->cur_value = var->anim_end;
 565:..\..\..\arduinoLCD\test\Pain Drain\libraries\lvgl\src\widgets/lv_bar.c ****     else if(var == &bar->start_value_anim)
 566:..\..\..\arduinoLCD\test\Pain Drain\libraries\lvgl\src\widgets/lv_bar.c ****         bar->start_value = var->anim_end;
 567:..\..\..\arduinoLCD\test\Pain Drain\libraries\lvgl\src\widgets/lv_bar.c ****     lv_obj_invalidate(var->bar);
 568:..\..\..\arduinoLCD\test\Pain Drain\libraries\lvgl\src\widgets/lv_bar.c **** }
 569:..\..\..\arduinoLCD\test\Pain Drain\libraries\lvgl\src\widgets/lv_bar.c **** 
 570:..\..\..\arduinoLCD\test\Pain Drain\libraries\lvgl\src\widgets/lv_bar.c **** static void lv_bar_set_value_with_anim(lv_obj_t * obj, int32_t new_value, int32_t * value_ptr,
 571:..\..\..\arduinoLCD\test\Pain Drain\libraries\lvgl\src\widgets/lv_bar.c ****                                        _lv_bar_anim_t * anim_info, lv_anim_enable_t en)
 572:..\..\..\arduinoLCD\test\Pain Drain\libraries\lvgl\src\widgets/lv_bar.c **** {
 573:..\..\..\arduinoLCD\test\Pain Drain\libraries\lvgl\src\widgets/lv_bar.c ****     if(en == LV_ANIM_OFF) {
 574:..\..\..\arduinoLCD\test\Pain Drain\libraries\lvgl\src\widgets/lv_bar.c ****         lv_anim_del(anim_info, NULL);
 575:..\..\..\arduinoLCD\test\Pain Drain\libraries\lvgl\src\widgets/lv_bar.c ****         anim_info->anim_state = LV_BAR_ANIM_STATE_INV;
 576:..\..\..\arduinoLCD\test\Pain Drain\libraries\lvgl\src\widgets/lv_bar.c ****         *value_ptr = new_value;
 577:..\..\..\arduinoLCD\test\Pain Drain\libraries\lvgl\src\widgets/lv_bar.c ****         lv_obj_invalidate((lv_obj_t *)obj);
 578:..\..\..\arduinoLCD\test\Pain Drain\libraries\lvgl\src\widgets/lv_bar.c ****     }
 579:..\..\..\arduinoLCD\test\Pain Drain\libraries\lvgl\src\widgets/lv_bar.c ****     else {
ARM GAS  C:\Users\haske\AppData\Local\Temp\cc11ZRIl.s 			page 15


 580:..\..\..\arduinoLCD\test\Pain Drain\libraries\lvgl\src\widgets/lv_bar.c ****         /*No animation in progress -> simply set the values*/
 581:..\..\..\arduinoLCD\test\Pain Drain\libraries\lvgl\src\widgets/lv_bar.c ****         if(anim_info->anim_state == LV_BAR_ANIM_STATE_INV) {
 582:..\..\..\arduinoLCD\test\Pain Drain\libraries\lvgl\src\widgets/lv_bar.c ****             anim_info->anim_start = *value_ptr;
 583:..\..\..\arduinoLCD\test\Pain Drain\libraries\lvgl\src\widgets/lv_bar.c ****             anim_info->anim_end   = new_value;
 584:..\..\..\arduinoLCD\test\Pain Drain\libraries\lvgl\src\widgets/lv_bar.c ****         }
 585:..\..\..\arduinoLCD\test\Pain Drain\libraries\lvgl\src\widgets/lv_bar.c ****         /*Animation in progress. Start from the animation end value*/
 586:..\..\..\arduinoLCD\test\Pain Drain\libraries\lvgl\src\widgets/lv_bar.c ****         else {
 587:..\..\..\arduinoLCD\test\Pain Drain\libraries\lvgl\src\widgets/lv_bar.c ****             anim_info->anim_start = anim_info->anim_end;
 588:..\..\..\arduinoLCD\test\Pain Drain\libraries\lvgl\src\widgets/lv_bar.c ****             anim_info->anim_end   = new_value;
 589:..\..\..\arduinoLCD\test\Pain Drain\libraries\lvgl\src\widgets/lv_bar.c ****         }
 590:..\..\..\arduinoLCD\test\Pain Drain\libraries\lvgl\src\widgets/lv_bar.c ****         *value_ptr = new_value;
 591:..\..\..\arduinoLCD\test\Pain Drain\libraries\lvgl\src\widgets/lv_bar.c ****         /*Stop the previous animation if it exists*/
 592:..\..\..\arduinoLCD\test\Pain Drain\libraries\lvgl\src\widgets/lv_bar.c ****         lv_anim_del(anim_info, NULL);
 593:..\..\..\arduinoLCD\test\Pain Drain\libraries\lvgl\src\widgets/lv_bar.c **** 
 594:..\..\..\arduinoLCD\test\Pain Drain\libraries\lvgl\src\widgets/lv_bar.c ****         lv_anim_t a;
 595:..\..\..\arduinoLCD\test\Pain Drain\libraries\lvgl\src\widgets/lv_bar.c ****         lv_anim_init(&a);
 596:..\..\..\arduinoLCD\test\Pain Drain\libraries\lvgl\src\widgets/lv_bar.c ****         lv_anim_set_var(&a, anim_info);
 597:..\..\..\arduinoLCD\test\Pain Drain\libraries\lvgl\src\widgets/lv_bar.c ****         lv_anim_set_exec_cb(&a, lv_bar_anim);
 598:..\..\..\arduinoLCD\test\Pain Drain\libraries\lvgl\src\widgets/lv_bar.c ****         lv_anim_set_values(&a, LV_BAR_ANIM_STATE_START, LV_BAR_ANIM_STATE_END);
 599:..\..\..\arduinoLCD\test\Pain Drain\libraries\lvgl\src\widgets/lv_bar.c ****         lv_anim_set_ready_cb(&a, lv_bar_anim_ready);
 600:..\..\..\arduinoLCD\test\Pain Drain\libraries\lvgl\src\widgets/lv_bar.c ****         lv_anim_set_time(&a, lv_obj_get_style_anim_time(obj, LV_PART_MAIN));
 601:..\..\..\arduinoLCD\test\Pain Drain\libraries\lvgl\src\widgets/lv_bar.c ****         lv_anim_start(&a);
 602:..\..\..\arduinoLCD\test\Pain Drain\libraries\lvgl\src\widgets/lv_bar.c ****     }
 603:..\..\..\arduinoLCD\test\Pain Drain\libraries\lvgl\src\widgets/lv_bar.c **** }
 604:..\..\..\arduinoLCD\test\Pain Drain\libraries\lvgl\src\widgets/lv_bar.c **** 
 605:..\..\..\arduinoLCD\test\Pain Drain\libraries\lvgl\src\widgets/lv_bar.c **** static void lv_bar_init_anim(lv_obj_t * obj, _lv_bar_anim_t * bar_anim)
 606:..\..\..\arduinoLCD\test\Pain Drain\libraries\lvgl\src\widgets/lv_bar.c **** {
  84              		.loc 2 606 0
  85              		.cfi_startproc
  86              		@ args = 0, pretend = 0, frame = 0
  87              		@ frame_needed = 0, uses_anonymous_args = 0
  88              		@ link register save eliminated.
  89              	.LVL4:
 607:..\..\..\arduinoLCD\test\Pain Drain\libraries\lvgl\src\widgets/lv_bar.c ****     bar_anim->bar = obj;
  90              		.loc 2 607 0
  91 0000 0860     		str	r0, [r1]
 608:..\..\..\arduinoLCD\test\Pain Drain\libraries\lvgl\src\widgets/lv_bar.c ****     bar_anim->anim_start = 0;
  92              		.loc 2 608 0
  93 0002 0023     		movs	r3, #0
  94 0004 4B60     		str	r3, [r1, #4]
 609:..\..\..\arduinoLCD\test\Pain Drain\libraries\lvgl\src\widgets/lv_bar.c ****     bar_anim->anim_end = 0;
  95              		.loc 2 609 0
  96 0006 8B60     		str	r3, [r1, #8]
 610:..\..\..\arduinoLCD\test\Pain Drain\libraries\lvgl\src\widgets/lv_bar.c ****     bar_anim->anim_state = LV_BAR_ANIM_STATE_INV;
  97              		.loc 2 610 0
  98 0008 013B     		subs	r3, r3, #1
  99 000a CB60     		str	r3, [r1, #12]
 611:..\..\..\arduinoLCD\test\Pain Drain\libraries\lvgl\src\widgets/lv_bar.c **** }
 100              		.loc 2 611 0
 101              		@ sp needed
 102 000c 7047     		bx	lr
 103              		.cfi_endproc
 104              	.LFE176:
 105              		.size	lv_bar_init_anim, .-lv_bar_init_anim
 106              		.global	__aeabi_idiv
 107 000e C046     		.section	.text.draw_indic,"ax",%progbits
 108              		.align	2
ARM GAS  C:\Users\haske\AppData\Local\Temp\cc11ZRIl.s 			page 16


 109              		.code	16
 110              		.thumb_func
 111              		.type	draw_indic, %function
 112              	draw_indic:
 113              	.LFB171:
 244:..\..\..\arduinoLCD\test\Pain Drain\libraries\lvgl\src\widgets/lv_bar.c ****     lv_obj_t * obj = lv_event_get_target(e);
 114              		.loc 2 244 0
 115              		.cfi_startproc
 116              		@ args = 0, pretend = 0, frame = 328
 117              		@ frame_needed = 0, uses_anonymous_args = 0
 118              	.LVL5:
 119 0000 F0B5     		push	{r4, r5, r6, r7, lr}
 120              		.cfi_def_cfa_offset 20
 121              		.cfi_offset 4, -20
 122              		.cfi_offset 5, -16
 123              		.cfi_offset 6, -12
 124              		.cfi_offset 7, -8
 125              		.cfi_offset 14, -4
 126 0002 5F46     		mov	r7, fp
 127 0004 5646     		mov	r6, r10
 128 0006 4D46     		mov	r5, r9
 129 0008 4446     		mov	r4, r8
 130 000a F0B4     		push	{r4, r5, r6, r7}
 131              		.cfi_def_cfa_offset 36
 132              		.cfi_offset 8, -36
 133              		.cfi_offset 9, -32
 134              		.cfi_offset 10, -28
 135              		.cfi_offset 11, -24
 136 000c D3B0     		sub	sp, sp, #332
 137              		.cfi_def_cfa_offset 368
 138 000e 0500     		movs	r5, r0
 245:..\..\..\arduinoLCD\test\Pain Drain\libraries\lvgl\src\widgets/lv_bar.c ****     lv_bar_t * bar = (lv_bar_t *)obj;
 139              		.loc 2 245 0
 140 0010 FFF7FEFF 		bl	lv_event_get_target
 141              	.LVL6:
 142 0014 0400     		movs	r4, r0
 143              	.LVL7:
 248:..\..\..\arduinoLCD\test\Pain Drain\libraries\lvgl\src\widgets/lv_bar.c **** 
 144              		.loc 2 248 0
 145 0016 2800     		movs	r0, r5
 146              	.LVL8:
 147 0018 FFF7FEFF 		bl	lv_event_get_draw_ctx
 148              	.LVL9:
 149 001c 0390     		str	r0, [sp, #12]
 150              	.LVL10:
 251:..\..\..\arduinoLCD\test\Pain Drain\libraries\lvgl\src\widgets/lv_bar.c **** 
 151              		.loc 2 251 0
 152 001e 50AD     		add	r5, sp, #320
 153              	.LVL11:
 154 0020 2900     		movs	r1, r5
 155 0022 2000     		movs	r0, r4
 156              	.LVL12:
 157 0024 FFF7FEFF 		bl	lv_obj_get_coords
 158              	.LVL13:
 159              	.LBB73:
 160              	.LBB74:
 161              		.file 3 "..\\..\\..\\arduinoLCD\\test\\Pain Drain\\libraries\\lvgl\\src\\widgets\\../core/lv_obj_s
ARM GAS  C:\Users\haske\AppData\Local\Temp\cc11ZRIl.s 			page 17


   1:..\..\..\arduinoLCD\test\Pain Drain\libraries\lvgl\src\widgets\../core/lv_obj_style_gen.h **** static inline lv_coord_t lv_obj_get_style_width(const struct _lv_obj_t * obj, uint32_t part)
   2:..\..\..\arduinoLCD\test\Pain Drain\libraries\lvgl\src\widgets\../core/lv_obj_style_gen.h **** {
   3:..\..\..\arduinoLCD\test\Pain Drain\libraries\lvgl\src\widgets\../core/lv_obj_style_gen.h ****     lv_style_value_t v = lv_obj_get_style_prop(obj, part, LV_STYLE_WIDTH);
   4:..\..\..\arduinoLCD\test\Pain Drain\libraries\lvgl\src\widgets\../core/lv_obj_style_gen.h ****     return (lv_coord_t)v.num;
   5:..\..\..\arduinoLCD\test\Pain Drain\libraries\lvgl\src\widgets\../core/lv_obj_style_gen.h **** }
   6:..\..\..\arduinoLCD\test\Pain Drain\libraries\lvgl\src\widgets\../core/lv_obj_style_gen.h **** 
   7:..\..\..\arduinoLCD\test\Pain Drain\libraries\lvgl\src\widgets\../core/lv_obj_style_gen.h **** static inline lv_coord_t lv_obj_get_style_min_width(const struct _lv_obj_t * obj, uint32_t part)
   8:..\..\..\arduinoLCD\test\Pain Drain\libraries\lvgl\src\widgets\../core/lv_obj_style_gen.h **** {
   9:..\..\..\arduinoLCD\test\Pain Drain\libraries\lvgl\src\widgets\../core/lv_obj_style_gen.h ****     lv_style_value_t v = lv_obj_get_style_prop(obj, part, LV_STYLE_MIN_WIDTH);
  10:..\..\..\arduinoLCD\test\Pain Drain\libraries\lvgl\src\widgets\../core/lv_obj_style_gen.h ****     return (lv_coord_t)v.num;
  11:..\..\..\arduinoLCD\test\Pain Drain\libraries\lvgl\src\widgets\../core/lv_obj_style_gen.h **** }
  12:..\..\..\arduinoLCD\test\Pain Drain\libraries\lvgl\src\widgets\../core/lv_obj_style_gen.h **** 
  13:..\..\..\arduinoLCD\test\Pain Drain\libraries\lvgl\src\widgets\../core/lv_obj_style_gen.h **** static inline lv_coord_t lv_obj_get_style_max_width(const struct _lv_obj_t * obj, uint32_t part)
  14:..\..\..\arduinoLCD\test\Pain Drain\libraries\lvgl\src\widgets\../core/lv_obj_style_gen.h **** {
  15:..\..\..\arduinoLCD\test\Pain Drain\libraries\lvgl\src\widgets\../core/lv_obj_style_gen.h ****     lv_style_value_t v = lv_obj_get_style_prop(obj, part, LV_STYLE_MAX_WIDTH);
  16:..\..\..\arduinoLCD\test\Pain Drain\libraries\lvgl\src\widgets\../core/lv_obj_style_gen.h ****     return (lv_coord_t)v.num;
  17:..\..\..\arduinoLCD\test\Pain Drain\libraries\lvgl\src\widgets\../core/lv_obj_style_gen.h **** }
  18:..\..\..\arduinoLCD\test\Pain Drain\libraries\lvgl\src\widgets\../core/lv_obj_style_gen.h **** 
  19:..\..\..\arduinoLCD\test\Pain Drain\libraries\lvgl\src\widgets\../core/lv_obj_style_gen.h **** static inline lv_coord_t lv_obj_get_style_height(const struct _lv_obj_t * obj, uint32_t part)
  20:..\..\..\arduinoLCD\test\Pain Drain\libraries\lvgl\src\widgets\../core/lv_obj_style_gen.h **** {
  21:..\..\..\arduinoLCD\test\Pain Drain\libraries\lvgl\src\widgets\../core/lv_obj_style_gen.h ****     lv_style_value_t v = lv_obj_get_style_prop(obj, part, LV_STYLE_HEIGHT);
  22:..\..\..\arduinoLCD\test\Pain Drain\libraries\lvgl\src\widgets\../core/lv_obj_style_gen.h ****     return (lv_coord_t)v.num;
  23:..\..\..\arduinoLCD\test\Pain Drain\libraries\lvgl\src\widgets\../core/lv_obj_style_gen.h **** }
  24:..\..\..\arduinoLCD\test\Pain Drain\libraries\lvgl\src\widgets\../core/lv_obj_style_gen.h **** 
  25:..\..\..\arduinoLCD\test\Pain Drain\libraries\lvgl\src\widgets\../core/lv_obj_style_gen.h **** static inline lv_coord_t lv_obj_get_style_min_height(const struct _lv_obj_t * obj, uint32_t part)
  26:..\..\..\arduinoLCD\test\Pain Drain\libraries\lvgl\src\widgets\../core/lv_obj_style_gen.h **** {
  27:..\..\..\arduinoLCD\test\Pain Drain\libraries\lvgl\src\widgets\../core/lv_obj_style_gen.h ****     lv_style_value_t v = lv_obj_get_style_prop(obj, part, LV_STYLE_MIN_HEIGHT);
  28:..\..\..\arduinoLCD\test\Pain Drain\libraries\lvgl\src\widgets\../core/lv_obj_style_gen.h ****     return (lv_coord_t)v.num;
  29:..\..\..\arduinoLCD\test\Pain Drain\libraries\lvgl\src\widgets\../core/lv_obj_style_gen.h **** }
  30:..\..\..\arduinoLCD\test\Pain Drain\libraries\lvgl\src\widgets\../core/lv_obj_style_gen.h **** 
  31:..\..\..\arduinoLCD\test\Pain Drain\libraries\lvgl\src\widgets\../core/lv_obj_style_gen.h **** static inline lv_coord_t lv_obj_get_style_max_height(const struct _lv_obj_t * obj, uint32_t part)
  32:..\..\..\arduinoLCD\test\Pain Drain\libraries\lvgl\src\widgets\../core/lv_obj_style_gen.h **** {
  33:..\..\..\arduinoLCD\test\Pain Drain\libraries\lvgl\src\widgets\../core/lv_obj_style_gen.h ****     lv_style_value_t v = lv_obj_get_style_prop(obj, part, LV_STYLE_MAX_HEIGHT);
  34:..\..\..\arduinoLCD\test\Pain Drain\libraries\lvgl\src\widgets\../core/lv_obj_style_gen.h ****     return (lv_coord_t)v.num;
  35:..\..\..\arduinoLCD\test\Pain Drain\libraries\lvgl\src\widgets\../core/lv_obj_style_gen.h **** }
  36:..\..\..\arduinoLCD\test\Pain Drain\libraries\lvgl\src\widgets\../core/lv_obj_style_gen.h **** 
  37:..\..\..\arduinoLCD\test\Pain Drain\libraries\lvgl\src\widgets\../core/lv_obj_style_gen.h **** static inline lv_coord_t lv_obj_get_style_x(const struct _lv_obj_t * obj, uint32_t part)
  38:..\..\..\arduinoLCD\test\Pain Drain\libraries\lvgl\src\widgets\../core/lv_obj_style_gen.h **** {
  39:..\..\..\arduinoLCD\test\Pain Drain\libraries\lvgl\src\widgets\../core/lv_obj_style_gen.h ****     lv_style_value_t v = lv_obj_get_style_prop(obj, part, LV_STYLE_X);
  40:..\..\..\arduinoLCD\test\Pain Drain\libraries\lvgl\src\widgets\../core/lv_obj_style_gen.h ****     return (lv_coord_t)v.num;
  41:..\..\..\arduinoLCD\test\Pain Drain\libraries\lvgl\src\widgets\../core/lv_obj_style_gen.h **** }
  42:..\..\..\arduinoLCD\test\Pain Drain\libraries\lvgl\src\widgets\../core/lv_obj_style_gen.h **** 
  43:..\..\..\arduinoLCD\test\Pain Drain\libraries\lvgl\src\widgets\../core/lv_obj_style_gen.h **** static inline lv_coord_t lv_obj_get_style_y(const struct _lv_obj_t * obj, uint32_t part)
  44:..\..\..\arduinoLCD\test\Pain Drain\libraries\lvgl\src\widgets\../core/lv_obj_style_gen.h **** {
  45:..\..\..\arduinoLCD\test\Pain Drain\libraries\lvgl\src\widgets\../core/lv_obj_style_gen.h ****     lv_style_value_t v = lv_obj_get_style_prop(obj, part, LV_STYLE_Y);
  46:..\..\..\arduinoLCD\test\Pain Drain\libraries\lvgl\src\widgets\../core/lv_obj_style_gen.h ****     return (lv_coord_t)v.num;
  47:..\..\..\arduinoLCD\test\Pain Drain\libraries\lvgl\src\widgets\../core/lv_obj_style_gen.h **** }
  48:..\..\..\arduinoLCD\test\Pain Drain\libraries\lvgl\src\widgets\../core/lv_obj_style_gen.h **** 
  49:..\..\..\arduinoLCD\test\Pain Drain\libraries\lvgl\src\widgets\../core/lv_obj_style_gen.h **** static inline lv_align_t lv_obj_get_style_align(const struct _lv_obj_t * obj, uint32_t part)
  50:..\..\..\arduinoLCD\test\Pain Drain\libraries\lvgl\src\widgets\../core/lv_obj_style_gen.h **** {
  51:..\..\..\arduinoLCD\test\Pain Drain\libraries\lvgl\src\widgets\../core/lv_obj_style_gen.h ****     lv_style_value_t v = lv_obj_get_style_prop(obj, part, LV_STYLE_ALIGN);
  52:..\..\..\arduinoLCD\test\Pain Drain\libraries\lvgl\src\widgets\../core/lv_obj_style_gen.h ****     return (lv_align_t)v.num;
  53:..\..\..\arduinoLCD\test\Pain Drain\libraries\lvgl\src\widgets\../core/lv_obj_style_gen.h **** }
  54:..\..\..\arduinoLCD\test\Pain Drain\libraries\lvgl\src\widgets\../core/lv_obj_style_gen.h **** 
  55:..\..\..\arduinoLCD\test\Pain Drain\libraries\lvgl\src\widgets\../core/lv_obj_style_gen.h **** static inline lv_coord_t lv_obj_get_style_transform_width(const struct _lv_obj_t * obj, uint32_t pa
  56:..\..\..\arduinoLCD\test\Pain Drain\libraries\lvgl\src\widgets\../core/lv_obj_style_gen.h **** {
  57:..\..\..\arduinoLCD\test\Pain Drain\libraries\lvgl\src\widgets\../core/lv_obj_style_gen.h ****     lv_style_value_t v = lv_obj_get_style_prop(obj, part, LV_STYLE_TRANSFORM_WIDTH);
ARM GAS  C:\Users\haske\AppData\Local\Temp\cc11ZRIl.s 			page 18


 162              		.loc 3 57 0
 163 0028 6822     		movs	r2, #104
 164 002a 0021     		movs	r1, #0
 165 002c 2000     		movs	r0, r4
 166 002e FFF7FEFF 		bl	lv_obj_get_style_prop
 167              	.LVL14:
 168 0032 0600     		movs	r6, r0
 169              	.LVL15:
 170              	.LBE74:
 171              	.LBE73:
 172              	.LBB75:
 173              	.LBB76:
  58:..\..\..\arduinoLCD\test\Pain Drain\libraries\lvgl\src\widgets\../core/lv_obj_style_gen.h ****     return (lv_coord_t)v.num;
  59:..\..\..\arduinoLCD\test\Pain Drain\libraries\lvgl\src\widgets\../core/lv_obj_style_gen.h **** }
  60:..\..\..\arduinoLCD\test\Pain Drain\libraries\lvgl\src\widgets\../core/lv_obj_style_gen.h **** 
  61:..\..\..\arduinoLCD\test\Pain Drain\libraries\lvgl\src\widgets\../core/lv_obj_style_gen.h **** static inline lv_coord_t lv_obj_get_style_transform_height(const struct _lv_obj_t * obj, uint32_t p
  62:..\..\..\arduinoLCD\test\Pain Drain\libraries\lvgl\src\widgets\../core/lv_obj_style_gen.h **** {
  63:..\..\..\arduinoLCD\test\Pain Drain\libraries\lvgl\src\widgets\../core/lv_obj_style_gen.h ****     lv_style_value_t v = lv_obj_get_style_prop(obj, part, LV_STYLE_TRANSFORM_HEIGHT);
 174              		.loc 3 63 0
 175 0034 6922     		movs	r2, #105
 176 0036 0021     		movs	r1, #0
 177 0038 2000     		movs	r0, r4
 178 003a FFF7FEFF 		bl	lv_obj_get_style_prop
 179              	.LVL16:
 180              	.LBE76:
 181              	.LBE75:
 255:..\..\..\arduinoLCD\test\Pain Drain\libraries\lvgl\src\widgets/lv_bar.c ****     bar_coords.x2 += transf_w;
 182              		.loc 2 255 0
 183 003e B2B2     		uxth	r2, r6
 184 0040 2F88     		ldrh	r7, [r5]
 185 0042 BF1A     		subs	r7, r7, r2
 186 0044 BFB2     		uxth	r7, r7
 187 0046 2F80     		strh	r7, [r5]
 256:..\..\..\arduinoLCD\test\Pain Drain\libraries\lvgl\src\widgets/lv_bar.c ****     bar_coords.y1 -= transf_h;
 188              		.loc 2 256 0
 189 0048 A988     		ldrh	r1, [r5, #4]
 190 004a 5118     		adds	r1, r2, r1
 191 004c 8AB2     		uxth	r2, r1
 192 004e AA80     		strh	r2, [r5, #4]
 193              	.LVL17:
 257:..\..\..\arduinoLCD\test\Pain Drain\libraries\lvgl\src\widgets/lv_bar.c ****     bar_coords.y2 += transf_h;
 194              		.loc 2 257 0
 195 0050 80B2     		uxth	r0, r0
 196 0052 6988     		ldrh	r1, [r5, #2]
 197 0054 091A     		subs	r1, r1, r0
 198 0056 89B2     		uxth	r1, r1
 199 0058 6980     		strh	r1, [r5, #2]
 258:..\..\..\arduinoLCD\test\Pain Drain\libraries\lvgl\src\widgets/lv_bar.c ****     lv_coord_t barw = lv_area_get_width(&bar_coords);
 200              		.loc 2 258 0
 201 005a EB88     		ldrh	r3, [r5, #6]
 202 005c C318     		adds	r3, r0, r3
 203 005e 98B2     		uxth	r0, r3
 204 0060 E880     		strh	r0, [r5, #6]
 205              	.LVL18:
 206              	.LBB77:
 207              	.LBB78:
 125:c:\projects\paindrain\arduinolcd\test\pain drain\libraries\lvgl\src\misc\lv_area.h **** }
ARM GAS  C:\Users\haske\AppData\Local\Temp\cc11ZRIl.s 			page 19


 208              		.loc 1 125 0
 209 0062 D21B     		subs	r2, r2, r7
 210 0064 0132     		adds	r2, r2, #1
 211 0066 13B2     		sxth	r3, r2
 212 0068 9A46     		mov	r10, r3
 213              	.LVL19:
 214              	.LBE78:
 215              	.LBE77:
 216              	.LBB79:
 217              	.LBB80:
 135:c:\projects\paindrain\arduinolcd\test\pain drain\libraries\lvgl\src\misc\lv_area.h **** }
 218              		.loc 1 135 0
 219 006a 401A     		subs	r0, r0, r1
 220 006c 0130     		adds	r0, r0, #1
 221 006e 03B2     		sxth	r3, r0
 222 0070 9946     		mov	r9, r3
 223              	.LVL20:
 224              	.LBE80:
 225              	.LBE79:
 261:..\..\..\arduinoLCD\test\Pain Drain\libraries\lvgl\src\widgets/lv_bar.c ****     bool hor = barw >= barh ? true : false;
 226              		.loc 2 261 0
 227 0072 E16A     		ldr	r1, [r4, #44]
 228 0074 A26A     		ldr	r2, [r4, #40]
 229 0076 8B1A     		subs	r3, r1, r2
 230 0078 0293     		str	r3, [sp, #8]
 231              	.LVL21:
 264:..\..\..\arduinoLCD\test\Pain Drain\libraries\lvgl\src\widgets/lv_bar.c ****        bar->start_value == bar->min_value) sym = true;
 232              		.loc 2 264 0
 233 007a 5C23     		movs	r3, #92
 234              	.LVL22:
 235 007c E35C     		ldrb	r3, [r4, r3]
 236 007e 0320     		movs	r0, #3
 237 0080 0340     		ands	r3, r0
 238 0082 012B     		cmp	r3, #1
 239 0084 09D1     		bne	.L34
 264:..\..\..\arduinoLCD\test\Pain Drain\libraries\lvgl\src\widgets/lv_bar.c ****        bar->start_value == bar->min_value) sym = true;
 240              		.loc 2 264 0 is_stmt 0 discriminator 1
 241 0086 002A     		cmp	r2, #0
 242 0088 0ADA     		bge	.L35
 264:..\..\..\arduinoLCD\test\Pain Drain\libraries\lvgl\src\widgets/lv_bar.c ****        bar->start_value == bar->min_value) sym = true;
 243              		.loc 2 264 0 discriminator 2
 244 008a 0029     		cmp	r1, #0
 245 008c 0BDD     		ble	.L36
 264:..\..\..\arduinoLCD\test\Pain Drain\libraries\lvgl\src\widgets/lv_bar.c ****        bar->start_value == bar->min_value) sym = true;
 246              		.loc 2 264 0 discriminator 3
 247 008e 236B     		ldr	r3, [r4, #48]
 248 0090 9A42     		cmp	r2, r3
 249 0092 0BD0     		beq	.L37
 263:..\..\..\arduinoLCD\test\Pain Drain\libraries\lvgl\src\widgets/lv_bar.c ****     if(bar->mode == LV_BAR_MODE_SYMMETRICAL && bar->min_value < 0 && bar->max_value > 0 &&
 250              		.loc 2 263 0 is_stmt 1
 251 0094 0023     		movs	r3, #0
 252 0096 0493     		str	r3, [sp, #16]
 253 0098 0AE0     		b	.L5
 254              	.L34:
 255 009a 0023     		movs	r3, #0
 256 009c 0493     		str	r3, [sp, #16]
 257 009e 07E0     		b	.L5
ARM GAS  C:\Users\haske\AppData\Local\Temp\cc11ZRIl.s 			page 20


 258              	.L35:
 259 00a0 0023     		movs	r3, #0
 260 00a2 0493     		str	r3, [sp, #16]
 261 00a4 04E0     		b	.L5
 262              	.L36:
 263 00a6 0023     		movs	r3, #0
 264 00a8 0493     		str	r3, [sp, #16]
 265 00aa 01E0     		b	.L5
 266              	.L37:
 265:..\..\..\arduinoLCD\test\Pain Drain\libraries\lvgl\src\widgets/lv_bar.c **** 
 267              		.loc 2 265 0
 268 00ac 0123     		movs	r3, #1
 269 00ae 0493     		str	r3, [sp, #16]
 270              	.L5:
 271              	.LVL23:
 272              	.LBB81:
 273              	.LBB82:
  64:..\..\..\arduinoLCD\test\Pain Drain\libraries\lvgl\src\widgets\../core/lv_obj_style_gen.h ****     return (lv_coord_t)v.num;
  65:..\..\..\arduinoLCD\test\Pain Drain\libraries\lvgl\src\widgets\../core/lv_obj_style_gen.h **** }
  66:..\..\..\arduinoLCD\test\Pain Drain\libraries\lvgl\src\widgets\../core/lv_obj_style_gen.h **** 
  67:..\..\..\arduinoLCD\test\Pain Drain\libraries\lvgl\src\widgets\../core/lv_obj_style_gen.h **** static inline lv_coord_t lv_obj_get_style_translate_x(const struct _lv_obj_t * obj, uint32_t part)
  68:..\..\..\arduinoLCD\test\Pain Drain\libraries\lvgl\src\widgets\../core/lv_obj_style_gen.h **** {
  69:..\..\..\arduinoLCD\test\Pain Drain\libraries\lvgl\src\widgets\../core/lv_obj_style_gen.h ****     lv_style_value_t v = lv_obj_get_style_prop(obj, part, LV_STYLE_TRANSLATE_X);
  70:..\..\..\arduinoLCD\test\Pain Drain\libraries\lvgl\src\widgets\../core/lv_obj_style_gen.h ****     return (lv_coord_t)v.num;
  71:..\..\..\arduinoLCD\test\Pain Drain\libraries\lvgl\src\widgets\../core/lv_obj_style_gen.h **** }
  72:..\..\..\arduinoLCD\test\Pain Drain\libraries\lvgl\src\widgets\../core/lv_obj_style_gen.h **** 
  73:..\..\..\arduinoLCD\test\Pain Drain\libraries\lvgl\src\widgets\../core/lv_obj_style_gen.h **** static inline lv_coord_t lv_obj_get_style_translate_y(const struct _lv_obj_t * obj, uint32_t part)
  74:..\..\..\arduinoLCD\test\Pain Drain\libraries\lvgl\src\widgets\../core/lv_obj_style_gen.h **** {
  75:..\..\..\arduinoLCD\test\Pain Drain\libraries\lvgl\src\widgets\../core/lv_obj_style_gen.h ****     lv_style_value_t v = lv_obj_get_style_prop(obj, part, LV_STYLE_TRANSLATE_Y);
  76:..\..\..\arduinoLCD\test\Pain Drain\libraries\lvgl\src\widgets\../core/lv_obj_style_gen.h ****     return (lv_coord_t)v.num;
  77:..\..\..\arduinoLCD\test\Pain Drain\libraries\lvgl\src\widgets\../core/lv_obj_style_gen.h **** }
  78:..\..\..\arduinoLCD\test\Pain Drain\libraries\lvgl\src\widgets\../core/lv_obj_style_gen.h **** 
  79:..\..\..\arduinoLCD\test\Pain Drain\libraries\lvgl\src\widgets\../core/lv_obj_style_gen.h **** static inline lv_coord_t lv_obj_get_style_transform_zoom(const struct _lv_obj_t * obj, uint32_t par
  80:..\..\..\arduinoLCD\test\Pain Drain\libraries\lvgl\src\widgets\../core/lv_obj_style_gen.h **** {
  81:..\..\..\arduinoLCD\test\Pain Drain\libraries\lvgl\src\widgets\../core/lv_obj_style_gen.h ****     lv_style_value_t v = lv_obj_get_style_prop(obj, part, LV_STYLE_TRANSFORM_ZOOM);
  82:..\..\..\arduinoLCD\test\Pain Drain\libraries\lvgl\src\widgets\../core/lv_obj_style_gen.h ****     return (lv_coord_t)v.num;
  83:..\..\..\arduinoLCD\test\Pain Drain\libraries\lvgl\src\widgets\../core/lv_obj_style_gen.h **** }
  84:..\..\..\arduinoLCD\test\Pain Drain\libraries\lvgl\src\widgets\../core/lv_obj_style_gen.h **** 
  85:..\..\..\arduinoLCD\test\Pain Drain\libraries\lvgl\src\widgets\../core/lv_obj_style_gen.h **** static inline lv_coord_t lv_obj_get_style_transform_angle(const struct _lv_obj_t * obj, uint32_t pa
  86:..\..\..\arduinoLCD\test\Pain Drain\libraries\lvgl\src\widgets\../core/lv_obj_style_gen.h **** {
  87:..\..\..\arduinoLCD\test\Pain Drain\libraries\lvgl\src\widgets\../core/lv_obj_style_gen.h ****     lv_style_value_t v = lv_obj_get_style_prop(obj, part, LV_STYLE_TRANSFORM_ANGLE);
  88:..\..\..\arduinoLCD\test\Pain Drain\libraries\lvgl\src\widgets\../core/lv_obj_style_gen.h ****     return (lv_coord_t)v.num;
  89:..\..\..\arduinoLCD\test\Pain Drain\libraries\lvgl\src\widgets\../core/lv_obj_style_gen.h **** }
  90:..\..\..\arduinoLCD\test\Pain Drain\libraries\lvgl\src\widgets\../core/lv_obj_style_gen.h **** 
  91:..\..\..\arduinoLCD\test\Pain Drain\libraries\lvgl\src\widgets\../core/lv_obj_style_gen.h **** static inline lv_coord_t lv_obj_get_style_transform_pivot_x(const struct _lv_obj_t * obj, uint32_t 
  92:..\..\..\arduinoLCD\test\Pain Drain\libraries\lvgl\src\widgets\../core/lv_obj_style_gen.h **** {
  93:..\..\..\arduinoLCD\test\Pain Drain\libraries\lvgl\src\widgets\../core/lv_obj_style_gen.h ****     lv_style_value_t v = lv_obj_get_style_prop(obj, part, LV_STYLE_TRANSFORM_PIVOT_X);
  94:..\..\..\arduinoLCD\test\Pain Drain\libraries\lvgl\src\widgets\../core/lv_obj_style_gen.h ****     return (lv_coord_t)v.num;
  95:..\..\..\arduinoLCD\test\Pain Drain\libraries\lvgl\src\widgets\../core/lv_obj_style_gen.h **** }
  96:..\..\..\arduinoLCD\test\Pain Drain\libraries\lvgl\src\widgets\../core/lv_obj_style_gen.h **** 
  97:..\..\..\arduinoLCD\test\Pain Drain\libraries\lvgl\src\widgets\../core/lv_obj_style_gen.h **** static inline lv_coord_t lv_obj_get_style_transform_pivot_y(const struct _lv_obj_t * obj, uint32_t 
  98:..\..\..\arduinoLCD\test\Pain Drain\libraries\lvgl\src\widgets\../core/lv_obj_style_gen.h **** {
  99:..\..\..\arduinoLCD\test\Pain Drain\libraries\lvgl\src\widgets\../core/lv_obj_style_gen.h ****     lv_style_value_t v = lv_obj_get_style_prop(obj, part, LV_STYLE_TRANSFORM_PIVOT_Y);
 100:..\..\..\arduinoLCD\test\Pain Drain\libraries\lvgl\src\widgets\../core/lv_obj_style_gen.h ****     return (lv_coord_t)v.num;
 101:..\..\..\arduinoLCD\test\Pain Drain\libraries\lvgl\src\widgets\../core/lv_obj_style_gen.h **** }
 102:..\..\..\arduinoLCD\test\Pain Drain\libraries\lvgl\src\widgets\../core/lv_obj_style_gen.h **** 
 103:..\..\..\arduinoLCD\test\Pain Drain\libraries\lvgl\src\widgets\../core/lv_obj_style_gen.h **** static inline lv_coord_t lv_obj_get_style_pad_top(const struct _lv_obj_t * obj, uint32_t part)
ARM GAS  C:\Users\haske\AppData\Local\Temp\cc11ZRIl.s 			page 21


 104:..\..\..\arduinoLCD\test\Pain Drain\libraries\lvgl\src\widgets\../core/lv_obj_style_gen.h **** {
 105:..\..\..\arduinoLCD\test\Pain Drain\libraries\lvgl\src\widgets\../core/lv_obj_style_gen.h ****     lv_style_value_t v = lv_obj_get_style_prop(obj, part, LV_STYLE_PAD_TOP);
 106:..\..\..\arduinoLCD\test\Pain Drain\libraries\lvgl\src\widgets\../core/lv_obj_style_gen.h ****     return (lv_coord_t)v.num;
 107:..\..\..\arduinoLCD\test\Pain Drain\libraries\lvgl\src\widgets\../core/lv_obj_style_gen.h **** }
 108:..\..\..\arduinoLCD\test\Pain Drain\libraries\lvgl\src\widgets\../core/lv_obj_style_gen.h **** 
 109:..\..\..\arduinoLCD\test\Pain Drain\libraries\lvgl\src\widgets\../core/lv_obj_style_gen.h **** static inline lv_coord_t lv_obj_get_style_pad_bottom(const struct _lv_obj_t * obj, uint32_t part)
 110:..\..\..\arduinoLCD\test\Pain Drain\libraries\lvgl\src\widgets\../core/lv_obj_style_gen.h **** {
 111:..\..\..\arduinoLCD\test\Pain Drain\libraries\lvgl\src\widgets\../core/lv_obj_style_gen.h ****     lv_style_value_t v = lv_obj_get_style_prop(obj, part, LV_STYLE_PAD_BOTTOM);
 112:..\..\..\arduinoLCD\test\Pain Drain\libraries\lvgl\src\widgets\../core/lv_obj_style_gen.h ****     return (lv_coord_t)v.num;
 113:..\..\..\arduinoLCD\test\Pain Drain\libraries\lvgl\src\widgets\../core/lv_obj_style_gen.h **** }
 114:..\..\..\arduinoLCD\test\Pain Drain\libraries\lvgl\src\widgets\../core/lv_obj_style_gen.h **** 
 115:..\..\..\arduinoLCD\test\Pain Drain\libraries\lvgl\src\widgets\../core/lv_obj_style_gen.h **** static inline lv_coord_t lv_obj_get_style_pad_left(const struct _lv_obj_t * obj, uint32_t part)
 116:..\..\..\arduinoLCD\test\Pain Drain\libraries\lvgl\src\widgets\../core/lv_obj_style_gen.h **** {
 117:..\..\..\arduinoLCD\test\Pain Drain\libraries\lvgl\src\widgets\../core/lv_obj_style_gen.h ****     lv_style_value_t v = lv_obj_get_style_prop(obj, part, LV_STYLE_PAD_LEFT);
 274              		.loc 3 117 0
 275 00b0 1222     		movs	r2, #18
 276 00b2 0021     		movs	r1, #0
 277 00b4 2000     		movs	r0, r4
 278 00b6 FFF7FEFF 		bl	lv_obj_get_style_prop
 279              	.LVL24:
 280 00ba 0700     		movs	r7, r0
 281              	.LVL25:
 282              	.LBE82:
 283              	.LBE81:
 284              	.LBB83:
 285              	.LBB84:
 118:..\..\..\arduinoLCD\test\Pain Drain\libraries\lvgl\src\widgets\../core/lv_obj_style_gen.h ****     return (lv_coord_t)v.num;
 119:..\..\..\arduinoLCD\test\Pain Drain\libraries\lvgl\src\widgets\../core/lv_obj_style_gen.h **** }
 120:..\..\..\arduinoLCD\test\Pain Drain\libraries\lvgl\src\widgets\../core/lv_obj_style_gen.h **** 
 121:..\..\..\arduinoLCD\test\Pain Drain\libraries\lvgl\src\widgets\../core/lv_obj_style_gen.h **** static inline lv_coord_t lv_obj_get_style_pad_right(const struct _lv_obj_t * obj, uint32_t part)
 122:..\..\..\arduinoLCD\test\Pain Drain\libraries\lvgl\src\widgets\../core/lv_obj_style_gen.h **** {
 123:..\..\..\arduinoLCD\test\Pain Drain\libraries\lvgl\src\widgets\../core/lv_obj_style_gen.h ****     lv_style_value_t v = lv_obj_get_style_prop(obj, part, LV_STYLE_PAD_RIGHT);
 286              		.loc 3 123 0
 287 00bc 1322     		movs	r2, #19
 288 00be 0021     		movs	r1, #0
 289 00c0 2000     		movs	r0, r4
 290 00c2 FFF7FEFF 		bl	lv_obj_get_style_prop
 291              	.LVL26:
 292 00c6 0190     		str	r0, [sp, #4]
 293              	.LVL27:
 294              	.LBE84:
 295              	.LBE83:
 296              	.LBB85:
 297              	.LBB86:
 105:..\..\..\arduinoLCD\test\Pain Drain\libraries\lvgl\src\widgets\../core/lv_obj_style_gen.h ****     return (lv_coord_t)v.num;
 298              		.loc 3 105 0
 299 00c8 1022     		movs	r2, #16
 300 00ca 0021     		movs	r1, #0
 301 00cc 2000     		movs	r0, r4
 302 00ce FFF7FEFF 		bl	lv_obj_get_style_prop
 303              	.LVL28:
 304 00d2 0790     		str	r0, [sp, #28]
 305              	.LVL29:
 306              	.LBE86:
 307              	.LBE85:
 308              	.LBB87:
 309              	.LBB88:
ARM GAS  C:\Users\haske\AppData\Local\Temp\cc11ZRIl.s 			page 22


 111:..\..\..\arduinoLCD\test\Pain Drain\libraries\lvgl\src\widgets\../core/lv_obj_style_gen.h ****     return (lv_coord_t)v.num;
 310              		.loc 3 111 0
 311 00d4 1122     		movs	r2, #17
 312 00d6 0021     		movs	r1, #0
 313 00d8 2000     		movs	r0, r4
 314 00da FFF7FEFF 		bl	lv_obj_get_style_prop
 315              	.LVL30:
 316              	.LBE88:
 317              	.LBE87:
 318              	.LBB89:
 319              	.LBB90:
 112:c:\projects\paindrain\arduinolcd\test\pain drain\libraries\lvgl\src\misc\lv_area.h ****     dest->y1 = src->y1;
 320              		.loc 1 112 0
 321 00de 50A9     		add	r1, sp, #320
 322 00e0 0023     		movs	r3, #0
 323 00e2 CD5E     		ldrsh	r5, [r1, r3]
 324              	.LVL31:
 325 00e4 A586     		strh	r5, [r4, #52]
 113:c:\projects\paindrain\arduinolcd\test\pain drain\libraries\lvgl\src\misc\lv_area.h ****     dest->x2 = src->x2;
 326              		.loc 1 113 0
 327 00e6 0223     		movs	r3, #2
 328 00e8 CA5E     		ldrsh	r2, [r1, r3]
 329 00ea E286     		strh	r2, [r4, #54]
 114:c:\projects\paindrain\arduinolcd\test\pain drain\libraries\lvgl\src\misc\lv_area.h ****     dest->y2 = src->y2;
 330              		.loc 1 114 0
 331 00ec 0426     		movs	r6, #4
 332 00ee 8B5F     		ldrsh	r3, [r1, r6]
 333 00f0 2387     		strh	r3, [r4, #56]
 115:c:\projects\paindrain\arduinolcd\test\pain drain\libraries\lvgl\src\misc\lv_area.h **** }
 334              		.loc 1 115 0
 335 00f2 0626     		movs	r6, #6
 336 00f4 895F     		ldrsh	r1, [r1, r6]
 337              	.LVL32:
 338              	.LBE90:
 339              	.LBE89:
 274:..\..\..\arduinoLCD\test\Pain Drain\libraries\lvgl\src\widgets/lv_bar.c ****     bar->indic_area.x2 -= bg_right;
 340              		.loc 2 274 0
 341 00f6 BFB2     		uxth	r7, r7
 342 00f8 0597     		str	r7, [sp, #20]
 343 00fa 7F19     		adds	r7, r7, r5
 344 00fc BFB2     		uxth	r7, r7
 345 00fe A786     		strh	r7, [r4, #52]
 275:..\..\..\arduinoLCD\test\Pain Drain\libraries\lvgl\src\widgets/lv_bar.c ****     bar->indic_area.y1 += bg_top;
 346              		.loc 2 275 0
 347 0100 6D46     		mov	r5, sp
 348 0102 AD88     		ldrh	r5, [r5, #4]
 349 0104 0695     		str	r5, [sp, #24]
 350 0106 5B1B     		subs	r3, r3, r5
 351 0108 9BB2     		uxth	r3, r3
 352 010a 2387     		strh	r3, [r4, #56]
 276:..\..\..\arduinoLCD\test\Pain Drain\libraries\lvgl\src\widgets/lv_bar.c ****     bar->indic_area.y2 -= bg_bottom;
 353              		.loc 2 276 0
 354 010c 6D46     		mov	r5, sp
 355 010e AD8B     		ldrh	r5, [r5, #28]
 356 0110 0795     		str	r5, [sp, #28]
 357 0112 AC46     		mov	ip, r5
 358 0114 6244     		add	r2, r2, ip
ARM GAS  C:\Users\haske\AppData\Local\Temp\cc11ZRIl.s 			page 23


 359 0116 92B2     		uxth	r2, r2
 360 0118 E286     		strh	r2, [r4, #54]
 361              	.LVL33:
 277:..\..\..\arduinoLCD\test\Pain Drain\libraries\lvgl\src\widgets/lv_bar.c **** 
 362              		.loc 2 277 0
 363 011a 80B2     		uxth	r0, r0
 364 011c 0890     		str	r0, [sp, #32]
 365 011e 091A     		subs	r1, r1, r0
 366 0120 89B2     		uxth	r1, r1
 367 0122 6187     		strh	r1, [r4, #58]
 279:..\..\..\arduinoLCD\test\Pain Drain\libraries\lvgl\src\widgets/lv_bar.c ****         bar->indic_area.y1 = obj->coords.y1 + (barh / 2) - (LV_BAR_SIZE_MIN / 2);
 368              		.loc 2 279 0
 369 0124 D145     		cmp	r9, r10
 370 0126 11DC     		bgt	.L6
 371              	.LVL34:
 372              	.LBB91:
 373              	.LBB92:
 135:c:\projects\paindrain\arduinolcd\test\pain drain\libraries\lvgl\src\misc\lv_area.h **** }
 374              		.loc 1 135 0 discriminator 1
 375 0128 8A1A     		subs	r2, r1, r2
 376 012a 0132     		adds	r2, r2, #1
 377 012c 12B2     		sxth	r2, r2
 378              	.LVL35:
 379              	.LBE92:
 380              	.LBE91:
 279:..\..\..\arduinoLCD\test\Pain Drain\libraries\lvgl\src\widgets/lv_bar.c ****         bar->indic_area.y1 = obj->coords.y1 + (barh / 2) - (LV_BAR_SIZE_MIN / 2);
 381              		.loc 2 279 0 discriminator 1
 382 012e 032A     		cmp	r2, #3
 383 0130 0CDC     		bgt	.L6
 280:..\..\..\arduinoLCD\test\Pain Drain\libraries\lvgl\src\widgets/lv_bar.c ****         bar->indic_area.y2 = bar->indic_area.y1 + LV_BAR_SIZE_MIN;
 384              		.loc 2 280 0
 385 0132 1623     		movs	r3, #22
 386 0134 E25E     		ldrsh	r2, [r4, r3]
 387 0136 4B46     		mov	r3, r9
 388 0138 DB0F     		lsrs	r3, r3, #31
 389 013a 4B44     		add	r3, r3, r9
 390 013c 5B10     		asrs	r3, r3, #1
 391 013e 9B18     		adds	r3, r3, r2
 392 0140 023B     		subs	r3, r3, #2
 393 0142 9BB2     		uxth	r3, r3
 394 0144 E386     		strh	r3, [r4, #54]
 281:..\..\..\arduinoLCD\test\Pain Drain\libraries\lvgl\src\widgets/lv_bar.c ****     }
 395              		.loc 2 281 0
 396 0146 0433     		adds	r3, r3, #4
 397 0148 6387     		strh	r3, [r4, #58]
 398 014a 12E0     		b	.L7
 399              	.L6:
 283:..\..\..\arduinoLCD\test\Pain Drain\libraries\lvgl\src\widgets/lv_bar.c ****         bar->indic_area.x1 = obj->coords.x1 + (barw / 2) - (LV_BAR_SIZE_MIN / 2);
 400              		.loc 2 283 0
 401 014c D145     		cmp	r9, r10
 402 014e 10DD     		ble	.L7
 403              	.LVL36:
 404              	.LBB93:
 405              	.LBB94:
 125:c:\projects\paindrain\arduinolcd\test\pain drain\libraries\lvgl\src\misc\lv_area.h **** }
 406              		.loc 1 125 0 discriminator 1
 407 0150 DF1B     		subs	r7, r3, r7
ARM GAS  C:\Users\haske\AppData\Local\Temp\cc11ZRIl.s 			page 24


 408 0152 0137     		adds	r7, r7, #1
 409 0154 3FB2     		sxth	r7, r7
 410              	.LVL37:
 411              	.LBE94:
 412              	.LBE93:
 283:..\..\..\arduinoLCD\test\Pain Drain\libraries\lvgl\src\widgets/lv_bar.c ****         bar->indic_area.x1 = obj->coords.x1 + (barw / 2) - (LV_BAR_SIZE_MIN / 2);
 413              		.loc 2 283 0 discriminator 1
 414 0156 032F     		cmp	r7, #3
 415 0158 0BDC     		bgt	.L7
 284:..\..\..\arduinoLCD\test\Pain Drain\libraries\lvgl\src\widgets/lv_bar.c ****         bar->indic_area.x2 = bar->indic_area.x1 + LV_BAR_SIZE_MIN;
 416              		.loc 2 284 0
 417 015a 1423     		movs	r3, #20
 418 015c E25E     		ldrsh	r2, [r4, r3]
 419 015e 5346     		mov	r3, r10
 420 0160 DB0F     		lsrs	r3, r3, #31
 421 0162 5344     		add	r3, r3, r10
 422 0164 5B10     		asrs	r3, r3, #1
 423 0166 9B18     		adds	r3, r3, r2
 424 0168 023B     		subs	r3, r3, #2
 425 016a 9BB2     		uxth	r3, r3
 426 016c A386     		strh	r3, [r4, #52]
 285:..\..\..\arduinoLCD\test\Pain Drain\libraries\lvgl\src\widgets/lv_bar.c ****     }
 427              		.loc 2 285 0
 428 016e 0433     		adds	r3, r3, #4
 429 0170 2387     		strh	r3, [r4, #56]
 430              	.L7:
 431              	.LVL38:
 432              	.LBB95:
 433              	.LBB96:
 125:c:\projects\paindrain\arduinolcd\test\pain drain\libraries\lvgl\src\misc\lv_area.h **** }
 434              		.loc 1 125 0
 435 0172 3822     		movs	r2, #56
 436 0174 A35E     		ldrsh	r3, [r4, r2]
 437 0176 3421     		movs	r1, #52
 438 0178 625E     		ldrsh	r2, [r4, r1]
 439 017a 9B1A     		subs	r3, r3, r2
 440 017c 0133     		adds	r3, r3, #1
 441 017e 1BB2     		sxth	r3, r3
 442 0180 1900     		movs	r1, r3
 443 0182 0B93     		str	r3, [sp, #44]
 444              	.LVL39:
 445              	.LBE96:
 446              	.LBE95:
 447              	.LBB97:
 448              	.LBB98:
 135:c:\projects\paindrain\arduinolcd\test\pain drain\libraries\lvgl\src\misc\lv_area.h **** }
 449              		.loc 1 135 0
 450 0184 3A22     		movs	r2, #58
 451 0186 A35E     		ldrsh	r3, [r4, r2]
 452 0188 3620     		movs	r0, #54
 453 018a 225E     		ldrsh	r2, [r4, r0]
 454 018c 9B1A     		subs	r3, r3, r2
 455 018e 0133     		adds	r3, r3, #1
 456 0190 1BB2     		sxth	r3, r3
 457 0192 0993     		str	r3, [sp, #36]
 458              	.LVL40:
 459              	.LBE98:
ARM GAS  C:\Users\haske\AppData\Local\Temp\cc11ZRIl.s 			page 25


 460              	.LBE97:
 292:..\..\..\arduinoLCD\test\Pain Drain\libraries\lvgl\src\widgets/lv_bar.c **** 
 461              		.loc 2 292 0
 462 0194 D145     		cmp	r9, r10
 463 0196 01DC     		bgt	.L38
 464 0198 0191     		str	r1, [sp, #4]
 465 019a 01E0     		b	.L8
 466              	.L38:
 467 019c 099B     		ldr	r3, [sp, #36]
 468 019e 0193     		str	r3, [sp, #4]
 469              	.L8:
 470              	.LVL41:
 299:..\..\..\arduinoLCD\test\Pain Drain\libraries\lvgl\src\widgets/lv_bar.c ****         axis1 = &bar->indic_area.x1;
 471              		.loc 2 299 0 discriminator 4
 472 01a0 D145     		cmp	r9, r10
 473 01a2 07DC     		bgt	.L9
 300:..\..\..\arduinoLCD\test\Pain Drain\libraries\lvgl\src\widgets/lv_bar.c ****         axis2 = &bar->indic_area.x2;
 474              		.loc 2 300 0
 475 01a4 2600     		movs	r6, r4
 476 01a6 3436     		adds	r6, r6, #52
 477              	.LVL42:
 301:..\..\..\arduinoLCD\test\Pain Drain\libraries\lvgl\src\widgets/lv_bar.c ****         indic_length_calc = lv_area_get_width;
 478              		.loc 2 301 0
 479 01a8 3823     		movs	r3, #56
 480 01aa 9B46     		mov	fp, r3
 481 01ac A344     		add	fp, fp, r4
 482              	.LVL43:
 302:..\..\..\arduinoLCD\test\Pain Drain\libraries\lvgl\src\widgets/lv_bar.c ****     }
 483              		.loc 2 302 0
 484 01ae D84B     		ldr	r3, .L39
 485 01b0 0C93     		str	r3, [sp, #48]
 486 01b2 06E0     		b	.L10
 487              	.LVL44:
 488              	.L9:
 305:..\..\..\arduinoLCD\test\Pain Drain\libraries\lvgl\src\widgets/lv_bar.c ****         axis2 = &bar->indic_area.y2;
 489              		.loc 2 305 0
 490 01b4 2600     		movs	r6, r4
 491 01b6 3636     		adds	r6, r6, #54
 492              	.LVL45:
 306:..\..\..\arduinoLCD\test\Pain Drain\libraries\lvgl\src\widgets/lv_bar.c ****         indic_length_calc = lv_area_get_height;
 493              		.loc 2 306 0
 494 01b8 3A23     		movs	r3, #58
 495 01ba 9B46     		mov	fp, r3
 496 01bc A344     		add	fp, fp, r4
 497              	.LVL46:
 307:..\..\..\arduinoLCD\test\Pain Drain\libraries\lvgl\src\widgets/lv_bar.c ****     }
 498              		.loc 2 307 0
 499 01be D54B     		ldr	r3, .L39+4
 500 01c0 0C93     		str	r3, [sp, #48]
 501              	.LVL47:
 502              	.L10:
 310:..\..\..\arduinoLCD\test\Pain Drain\libraries\lvgl\src\widgets/lv_bar.c ****         lv_coord_t anim_start_value_start_x =
 503              		.loc 2 310 0
 504 01c2 A76D     		ldr	r7, [r4, #88]
 505 01c4 7B1C     		adds	r3, r7, #1
 506 01c6 23D0     		beq	.L11
 507              	.LBB99:
ARM GAS  C:\Users\haske\AppData\Local\Temp\cc11ZRIl.s 			page 26


 312:..\..\..\arduinoLCD\test\Pain Drain\libraries\lvgl\src\widgets/lv_bar.c ****         lv_coord_t anim_start_value_end_x =
 508              		.loc 2 312 0
 509 01c8 A36A     		ldr	r3, [r4, #40]
 510 01ca 9846     		mov	r8, r3
 511 01cc 236D     		ldr	r3, [r4, #80]
 512 01ce 4246     		mov	r2, r8
 513 01d0 981A     		subs	r0, r3, r2
 514 01d2 019B     		ldr	r3, [sp, #4]
 515 01d4 5843     		muls	r0, r3
 516 01d6 0299     		ldr	r1, [sp, #8]
 517 01d8 FFF7FEFF 		bl	__aeabi_idiv
 518              	.LVL48:
 311:..\..\..\arduinoLCD\test\Pain Drain\libraries\lvgl\src\widgets/lv_bar.c ****             (int32_t)((int32_t)anim_length * (bar->start_value_anim.anim_start - bar->min_value)) /
 519              		.loc 2 311 0
 520 01dc 0A90     		str	r0, [sp, #40]
 521 01de 6B46     		mov	r3, sp
 522 01e0 2822     		movs	r2, #40
 523 01e2 9D5E     		ldrsh	r5, [r3, r2]
 524              	.LVL49:
 314:..\..\..\arduinoLCD\test\Pain Drain\libraries\lvgl\src\widgets/lv_bar.c **** 
 525              		.loc 2 314 0
 526 01e4 626D     		ldr	r2, [r4, #84]
 527 01e6 4146     		mov	r1, r8
 528 01e8 501A     		subs	r0, r2, r1
 529 01ea 019B     		ldr	r3, [sp, #4]
 530 01ec 5843     		muls	r0, r3
 531 01ee 0299     		ldr	r1, [sp, #8]
 532 01f0 FFF7FEFF 		bl	__aeabi_idiv
 533              	.LVL50:
 313:..\..\..\arduinoLCD\test\Pain Drain\libraries\lvgl\src\widgets/lv_bar.c ****             (int32_t)((int32_t)anim_length * (bar->start_value_anim.anim_end - bar->min_value)) / r
 534              		.loc 2 313 0
 535 01f4 00B2     		sxth	r0, r0
 536              	.LVL51:
 316:..\..\..\arduinoLCD\test\Pain Drain\libraries\lvgl\src\widgets/lv_bar.c ****                               LV_BAR_ANIM_STATE_END);
 537              		.loc 2 316 0
 538 01f6 401B     		subs	r0, r0, r5
 539              	.LVL52:
 540 01f8 4743     		muls	r7, r0
 541 01fa FB17     		asrs	r3, r7, #31
 542 01fc FF20     		movs	r0, #255
 543 01fe 1840     		ands	r0, r3
 544 0200 C719     		adds	r7, r0, r7
 545 0202 3F12     		asrs	r7, r7, #8
 546              	.LVL53:
 319:..\..\..\arduinoLCD\test\Pain Drain\libraries\lvgl\src\widgets/lv_bar.c ****     }
 547              		.loc 2 319 0
 548 0204 0A9B     		ldr	r3, [sp, #40]
 549 0206 9C46     		mov	ip, r3
 550 0208 6744     		add	r7, r7, ip
 551              	.LVL54:
 552 020a 3BB2     		sxth	r3, r7
 553 020c 9846     		mov	r8, r3
 554              	.LVL55:
 555              	.LBE99:
 556 020e 09E0     		b	.L12
 557              	.LVL56:
 558              	.L11:
ARM GAS  C:\Users\haske\AppData\Local\Temp\cc11ZRIl.s 			page 27


 322:..\..\..\arduinoLCD\test\Pain Drain\libraries\lvgl\src\widgets/lv_bar.c ****     }
 559              		.loc 2 322 0
 560 0210 236B     		ldr	r3, [r4, #48]
 561 0212 A26A     		ldr	r2, [r4, #40]
 562 0214 981A     		subs	r0, r3, r2
 563 0216 019B     		ldr	r3, [sp, #4]
 564 0218 5843     		muls	r0, r3
 565 021a 0299     		ldr	r1, [sp, #8]
 566 021c FFF7FEFF 		bl	__aeabi_idiv
 567              	.LVL57:
 568 0220 03B2     		sxth	r3, r0
 569 0222 9846     		mov	r8, r3
 570              	.LVL58:
 571              	.L12:
 325:..\..\..\arduinoLCD\test\Pain Drain\libraries\lvgl\src\widgets/lv_bar.c ****         lv_coord_t anim_cur_value_start_x =
 572              		.loc 2 325 0
 573 0224 A76C     		ldr	r7, [r4, #72]
 574 0226 7B1C     		adds	r3, r7, #1
 575 0228 20D0     		beq	.L13
 576              	.LBB100:
 327:..\..\..\arduinoLCD\test\Pain Drain\libraries\lvgl\src\widgets/lv_bar.c ****         lv_coord_t anim_cur_value_end_x =
 577              		.loc 2 327 0
 578 022a A56A     		ldr	r5, [r4, #40]
 579 022c 236C     		ldr	r3, [r4, #64]
 580 022e 581B     		subs	r0, r3, r5
 581 0230 019B     		ldr	r3, [sp, #4]
 582 0232 5843     		muls	r0, r3
 583 0234 0299     		ldr	r1, [sp, #8]
 584 0236 FFF7FEFF 		bl	__aeabi_idiv
 585              	.LVL59:
 326:..\..\..\arduinoLCD\test\Pain Drain\libraries\lvgl\src\widgets/lv_bar.c ****             (int32_t)((int32_t)anim_length * (bar->cur_value_anim.anim_start - bar->min_value)) / r
 586              		.loc 2 326 0
 587 023a 0A90     		str	r0, [sp, #40]
 588 023c 6B46     		mov	r3, sp
 589 023e 2821     		movs	r1, #40
 590 0240 5A5E     		ldrsh	r2, [r3, r1]
 591 0242 0D92     		str	r2, [sp, #52]
 592              	.LVL60:
 329:..\..\..\arduinoLCD\test\Pain Drain\libraries\lvgl\src\widgets/lv_bar.c **** 
 593              		.loc 2 329 0
 594 0244 616C     		ldr	r1, [r4, #68]
 595 0246 481B     		subs	r0, r1, r5
 596 0248 019B     		ldr	r3, [sp, #4]
 597 024a 5843     		muls	r0, r3
 598 024c 0299     		ldr	r1, [sp, #8]
 599 024e FFF7FEFF 		bl	__aeabi_idiv
 600              	.LVL61:
 328:..\..\..\arduinoLCD\test\Pain Drain\libraries\lvgl\src\widgets/lv_bar.c ****             (int32_t)((int32_t)anim_length * (bar->cur_value_anim.anim_end - bar->min_value)) / ran
 601              		.loc 2 328 0
 602 0252 00B2     		sxth	r0, r0
 603              	.LVL62:
 331:..\..\..\arduinoLCD\test\Pain Drain\libraries\lvgl\src\widgets/lv_bar.c ****                                                       bar->cur_value_anim.anim_state) /
 604              		.loc 2 331 0
 605 0254 0D9A     		ldr	r2, [sp, #52]
 606 0256 801A     		subs	r0, r0, r2
 607              	.LVL63:
 608 0258 4743     		muls	r7, r0
ARM GAS  C:\Users\haske\AppData\Local\Temp\cc11ZRIl.s 			page 28


 332:..\..\..\arduinoLCD\test\Pain Drain\libraries\lvgl\src\widgets/lv_bar.c ****                                                      LV_BAR_ANIM_STATE_END);
 609              		.loc 2 332 0
 610 025a FB17     		asrs	r3, r7, #31
 611 025c FF20     		movs	r0, #255
 612 025e 1840     		ands	r0, r3
 613 0260 C719     		adds	r7, r0, r7
 614 0262 3F12     		asrs	r7, r7, #8
 331:..\..\..\arduinoLCD\test\Pain Drain\libraries\lvgl\src\widgets/lv_bar.c ****                                                       bar->cur_value_anim.anim_state) /
 615              		.loc 2 331 0
 616 0264 0A9B     		ldr	r3, [sp, #40]
 617 0266 FD18     		adds	r5, r7, r3
 618 0268 2DB2     		sxth	r5, r5
 619              	.LVL64:
 620              	.LBE100:
 621 026a 08E0     		b	.L14
 622              	.LVL65:
 623              	.L13:
 336:..\..\..\arduinoLCD\test\Pain Drain\libraries\lvgl\src\widgets/lv_bar.c ****     }
 624              		.loc 2 336 0
 625 026c 636A     		ldr	r3, [r4, #36]
 626 026e A26A     		ldr	r2, [r4, #40]
 627 0270 981A     		subs	r0, r3, r2
 628 0272 019B     		ldr	r3, [sp, #4]
 629 0274 5843     		muls	r0, r3
 630 0276 0299     		ldr	r1, [sp, #8]
 631 0278 FFF7FEFF 		bl	__aeabi_idiv
 632              	.LVL66:
 633 027c 05B2     		sxth	r5, r0
 634              	.LVL67:
 635              	.L14:
 636              	.LBB101:
 637              	.LBB102:
 124:..\..\..\arduinoLCD\test\Pain Drain\libraries\lvgl\src\widgets\../core/lv_obj_style_gen.h ****     return (lv_coord_t)v.num;
 125:..\..\..\arduinoLCD\test\Pain Drain\libraries\lvgl\src\widgets\../core/lv_obj_style_gen.h **** }
 126:..\..\..\arduinoLCD\test\Pain Drain\libraries\lvgl\src\widgets\../core/lv_obj_style_gen.h **** 
 127:..\..\..\arduinoLCD\test\Pain Drain\libraries\lvgl\src\widgets\../core/lv_obj_style_gen.h **** static inline lv_coord_t lv_obj_get_style_pad_row(const struct _lv_obj_t * obj, uint32_t part)
 128:..\..\..\arduinoLCD\test\Pain Drain\libraries\lvgl\src\widgets\../core/lv_obj_style_gen.h **** {
 129:..\..\..\arduinoLCD\test\Pain Drain\libraries\lvgl\src\widgets\../core/lv_obj_style_gen.h ****     lv_style_value_t v = lv_obj_get_style_prop(obj, part, LV_STYLE_PAD_ROW);
 130:..\..\..\arduinoLCD\test\Pain Drain\libraries\lvgl\src\widgets\../core/lv_obj_style_gen.h ****     return (lv_coord_t)v.num;
 131:..\..\..\arduinoLCD\test\Pain Drain\libraries\lvgl\src\widgets\../core/lv_obj_style_gen.h **** }
 132:..\..\..\arduinoLCD\test\Pain Drain\libraries\lvgl\src\widgets\../core/lv_obj_style_gen.h **** 
 133:..\..\..\arduinoLCD\test\Pain Drain\libraries\lvgl\src\widgets\../core/lv_obj_style_gen.h **** static inline lv_coord_t lv_obj_get_style_pad_column(const struct _lv_obj_t * obj, uint32_t part)
 134:..\..\..\arduinoLCD\test\Pain Drain\libraries\lvgl\src\widgets\../core/lv_obj_style_gen.h **** {
 135:..\..\..\arduinoLCD\test\Pain Drain\libraries\lvgl\src\widgets\../core/lv_obj_style_gen.h ****     lv_style_value_t v = lv_obj_get_style_prop(obj, part, LV_STYLE_PAD_COLUMN);
 136:..\..\..\arduinoLCD\test\Pain Drain\libraries\lvgl\src\widgets\../core/lv_obj_style_gen.h ****     return (lv_coord_t)v.num;
 137:..\..\..\arduinoLCD\test\Pain Drain\libraries\lvgl\src\widgets\../core/lv_obj_style_gen.h **** }
 138:..\..\..\arduinoLCD\test\Pain Drain\libraries\lvgl\src\widgets\../core/lv_obj_style_gen.h **** 
 139:..\..\..\arduinoLCD\test\Pain Drain\libraries\lvgl\src\widgets\../core/lv_obj_style_gen.h **** static inline lv_color_t lv_obj_get_style_bg_color(const struct _lv_obj_t * obj, uint32_t part)
 140:..\..\..\arduinoLCD\test\Pain Drain\libraries\lvgl\src\widgets\../core/lv_obj_style_gen.h **** {
 141:..\..\..\arduinoLCD\test\Pain Drain\libraries\lvgl\src\widgets\../core/lv_obj_style_gen.h ****     lv_style_value_t v = lv_obj_get_style_prop(obj, part, LV_STYLE_BG_COLOR);
 142:..\..\..\arduinoLCD\test\Pain Drain\libraries\lvgl\src\widgets\../core/lv_obj_style_gen.h ****     return v.color;
 143:..\..\..\arduinoLCD\test\Pain Drain\libraries\lvgl\src\widgets\../core/lv_obj_style_gen.h **** }
 144:..\..\..\arduinoLCD\test\Pain Drain\libraries\lvgl\src\widgets\../core/lv_obj_style_gen.h **** 
 145:..\..\..\arduinoLCD\test\Pain Drain\libraries\lvgl\src\widgets\../core/lv_obj_style_gen.h **** static inline lv_color_t lv_obj_get_style_bg_color_filtered(const struct _lv_obj_t * obj, uint32_t 
 146:..\..\..\arduinoLCD\test\Pain Drain\libraries\lvgl\src\widgets\../core/lv_obj_style_gen.h **** {
 147:..\..\..\arduinoLCD\test\Pain Drain\libraries\lvgl\src\widgets\../core/lv_obj_style_gen.h ****     lv_style_value_t v = _lv_obj_style_apply_color_filter(obj, part, lv_obj_get_style_prop(obj, par
 148:..\..\..\arduinoLCD\test\Pain Drain\libraries\lvgl\src\widgets\../core/lv_obj_style_gen.h ****     return v.color;
ARM GAS  C:\Users\haske\AppData\Local\Temp\cc11ZRIl.s 			page 29


 149:..\..\..\arduinoLCD\test\Pain Drain\libraries\lvgl\src\widgets\../core/lv_obj_style_gen.h **** }
 150:..\..\..\arduinoLCD\test\Pain Drain\libraries\lvgl\src\widgets\../core/lv_obj_style_gen.h **** 
 151:..\..\..\arduinoLCD\test\Pain Drain\libraries\lvgl\src\widgets\../core/lv_obj_style_gen.h **** static inline lv_opa_t lv_obj_get_style_bg_opa(const struct _lv_obj_t * obj, uint32_t part)
 152:..\..\..\arduinoLCD\test\Pain Drain\libraries\lvgl\src\widgets\../core/lv_obj_style_gen.h **** {
 153:..\..\..\arduinoLCD\test\Pain Drain\libraries\lvgl\src\widgets\../core/lv_obj_style_gen.h ****     lv_style_value_t v = lv_obj_get_style_prop(obj, part, LV_STYLE_BG_OPA);
 154:..\..\..\arduinoLCD\test\Pain Drain\libraries\lvgl\src\widgets\../core/lv_obj_style_gen.h ****     return (lv_opa_t)v.num;
 155:..\..\..\arduinoLCD\test\Pain Drain\libraries\lvgl\src\widgets\../core/lv_obj_style_gen.h **** }
 156:..\..\..\arduinoLCD\test\Pain Drain\libraries\lvgl\src\widgets\../core/lv_obj_style_gen.h **** 
 157:..\..\..\arduinoLCD\test\Pain Drain\libraries\lvgl\src\widgets\../core/lv_obj_style_gen.h **** static inline lv_color_t lv_obj_get_style_bg_grad_color(const struct _lv_obj_t * obj, uint32_t part
 158:..\..\..\arduinoLCD\test\Pain Drain\libraries\lvgl\src\widgets\../core/lv_obj_style_gen.h **** {
 159:..\..\..\arduinoLCD\test\Pain Drain\libraries\lvgl\src\widgets\../core/lv_obj_style_gen.h ****     lv_style_value_t v = lv_obj_get_style_prop(obj, part, LV_STYLE_BG_GRAD_COLOR);
 160:..\..\..\arduinoLCD\test\Pain Drain\libraries\lvgl\src\widgets\../core/lv_obj_style_gen.h ****     return v.color;
 161:..\..\..\arduinoLCD\test\Pain Drain\libraries\lvgl\src\widgets\../core/lv_obj_style_gen.h **** }
 162:..\..\..\arduinoLCD\test\Pain Drain\libraries\lvgl\src\widgets\../core/lv_obj_style_gen.h **** 
 163:..\..\..\arduinoLCD\test\Pain Drain\libraries\lvgl\src\widgets\../core/lv_obj_style_gen.h **** static inline lv_color_t lv_obj_get_style_bg_grad_color_filtered(const struct _lv_obj_t * obj, uint
 164:..\..\..\arduinoLCD\test\Pain Drain\libraries\lvgl\src\widgets\../core/lv_obj_style_gen.h **** {
 165:..\..\..\arduinoLCD\test\Pain Drain\libraries\lvgl\src\widgets\../core/lv_obj_style_gen.h ****     lv_style_value_t v = _lv_obj_style_apply_color_filter(obj, part, lv_obj_get_style_prop(obj, par
 166:..\..\..\arduinoLCD\test\Pain Drain\libraries\lvgl\src\widgets\../core/lv_obj_style_gen.h ****     return v.color;
 167:..\..\..\arduinoLCD\test\Pain Drain\libraries\lvgl\src\widgets\../core/lv_obj_style_gen.h **** }
 168:..\..\..\arduinoLCD\test\Pain Drain\libraries\lvgl\src\widgets\../core/lv_obj_style_gen.h **** 
 169:..\..\..\arduinoLCD\test\Pain Drain\libraries\lvgl\src\widgets\../core/lv_obj_style_gen.h **** static inline lv_grad_dir_t lv_obj_get_style_bg_grad_dir(const struct _lv_obj_t * obj, uint32_t par
 170:..\..\..\arduinoLCD\test\Pain Drain\libraries\lvgl\src\widgets\../core/lv_obj_style_gen.h **** {
 171:..\..\..\arduinoLCD\test\Pain Drain\libraries\lvgl\src\widgets\../core/lv_obj_style_gen.h ****     lv_style_value_t v = lv_obj_get_style_prop(obj, part, LV_STYLE_BG_GRAD_DIR);
 172:..\..\..\arduinoLCD\test\Pain Drain\libraries\lvgl\src\widgets\../core/lv_obj_style_gen.h ****     return (lv_grad_dir_t)v.num;
 173:..\..\..\arduinoLCD\test\Pain Drain\libraries\lvgl\src\widgets\../core/lv_obj_style_gen.h **** }
 174:..\..\..\arduinoLCD\test\Pain Drain\libraries\lvgl\src\widgets\../core/lv_obj_style_gen.h **** 
 175:..\..\..\arduinoLCD\test\Pain Drain\libraries\lvgl\src\widgets\../core/lv_obj_style_gen.h **** static inline lv_coord_t lv_obj_get_style_bg_main_stop(const struct _lv_obj_t * obj, uint32_t part)
 176:..\..\..\arduinoLCD\test\Pain Drain\libraries\lvgl\src\widgets\../core/lv_obj_style_gen.h **** {
 177:..\..\..\arduinoLCD\test\Pain Drain\libraries\lvgl\src\widgets\../core/lv_obj_style_gen.h ****     lv_style_value_t v = lv_obj_get_style_prop(obj, part, LV_STYLE_BG_MAIN_STOP);
 178:..\..\..\arduinoLCD\test\Pain Drain\libraries\lvgl\src\widgets\../core/lv_obj_style_gen.h ****     return (lv_coord_t)v.num;
 179:..\..\..\arduinoLCD\test\Pain Drain\libraries\lvgl\src\widgets\../core/lv_obj_style_gen.h **** }
 180:..\..\..\arduinoLCD\test\Pain Drain\libraries\lvgl\src\widgets\../core/lv_obj_style_gen.h **** 
 181:..\..\..\arduinoLCD\test\Pain Drain\libraries\lvgl\src\widgets\../core/lv_obj_style_gen.h **** static inline lv_coord_t lv_obj_get_style_bg_grad_stop(const struct _lv_obj_t * obj, uint32_t part)
 182:..\..\..\arduinoLCD\test\Pain Drain\libraries\lvgl\src\widgets\../core/lv_obj_style_gen.h **** {
 183:..\..\..\arduinoLCD\test\Pain Drain\libraries\lvgl\src\widgets\../core/lv_obj_style_gen.h ****     lv_style_value_t v = lv_obj_get_style_prop(obj, part, LV_STYLE_BG_GRAD_STOP);
 184:..\..\..\arduinoLCD\test\Pain Drain\libraries\lvgl\src\widgets\../core/lv_obj_style_gen.h ****     return (lv_coord_t)v.num;
 185:..\..\..\arduinoLCD\test\Pain Drain\libraries\lvgl\src\widgets\../core/lv_obj_style_gen.h **** }
 186:..\..\..\arduinoLCD\test\Pain Drain\libraries\lvgl\src\widgets\../core/lv_obj_style_gen.h **** 
 187:..\..\..\arduinoLCD\test\Pain Drain\libraries\lvgl\src\widgets\../core/lv_obj_style_gen.h **** static inline const lv_grad_dsc_t * lv_obj_get_style_bg_grad(const struct _lv_obj_t * obj, uint32_t
 188:..\..\..\arduinoLCD\test\Pain Drain\libraries\lvgl\src\widgets\../core/lv_obj_style_gen.h **** {
 189:..\..\..\arduinoLCD\test\Pain Drain\libraries\lvgl\src\widgets\../core/lv_obj_style_gen.h ****     lv_style_value_t v = lv_obj_get_style_prop(obj, part, LV_STYLE_BG_GRAD);
 190:..\..\..\arduinoLCD\test\Pain Drain\libraries\lvgl\src\widgets\../core/lv_obj_style_gen.h ****     return (const lv_grad_dsc_t *)v.ptr;
 191:..\..\..\arduinoLCD\test\Pain Drain\libraries\lvgl\src\widgets\../core/lv_obj_style_gen.h **** }
 192:..\..\..\arduinoLCD\test\Pain Drain\libraries\lvgl\src\widgets\../core/lv_obj_style_gen.h **** 
 193:..\..\..\arduinoLCD\test\Pain Drain\libraries\lvgl\src\widgets\../core/lv_obj_style_gen.h **** static inline lv_dither_mode_t lv_obj_get_style_bg_dither_mode(const struct _lv_obj_t * obj, uint32
 194:..\..\..\arduinoLCD\test\Pain Drain\libraries\lvgl\src\widgets\../core/lv_obj_style_gen.h **** {
 195:..\..\..\arduinoLCD\test\Pain Drain\libraries\lvgl\src\widgets\../core/lv_obj_style_gen.h ****     lv_style_value_t v = lv_obj_get_style_prop(obj, part, LV_STYLE_BG_DITHER_MODE);
 196:..\..\..\arduinoLCD\test\Pain Drain\libraries\lvgl\src\widgets\../core/lv_obj_style_gen.h ****     return (lv_dither_mode_t)v.num;
 197:..\..\..\arduinoLCD\test\Pain Drain\libraries\lvgl\src\widgets\../core/lv_obj_style_gen.h **** }
 198:..\..\..\arduinoLCD\test\Pain Drain\libraries\lvgl\src\widgets\../core/lv_obj_style_gen.h **** 
 199:..\..\..\arduinoLCD\test\Pain Drain\libraries\lvgl\src\widgets\../core/lv_obj_style_gen.h **** static inline const void * lv_obj_get_style_bg_img_src(const struct _lv_obj_t * obj, uint32_t part)
 200:..\..\..\arduinoLCD\test\Pain Drain\libraries\lvgl\src\widgets\../core/lv_obj_style_gen.h **** {
 201:..\..\..\arduinoLCD\test\Pain Drain\libraries\lvgl\src\widgets\../core/lv_obj_style_gen.h ****     lv_style_value_t v = lv_obj_get_style_prop(obj, part, LV_STYLE_BG_IMG_SRC);
 202:..\..\..\arduinoLCD\test\Pain Drain\libraries\lvgl\src\widgets\../core/lv_obj_style_gen.h ****     return (const void *)v.ptr;
 203:..\..\..\arduinoLCD\test\Pain Drain\libraries\lvgl\src\widgets\../core/lv_obj_style_gen.h **** }
 204:..\..\..\arduinoLCD\test\Pain Drain\libraries\lvgl\src\widgets\../core/lv_obj_style_gen.h **** 
 205:..\..\..\arduinoLCD\test\Pain Drain\libraries\lvgl\src\widgets\../core/lv_obj_style_gen.h **** static inline lv_opa_t lv_obj_get_style_bg_img_opa(const struct _lv_obj_t * obj, uint32_t part)
ARM GAS  C:\Users\haske\AppData\Local\Temp\cc11ZRIl.s 			page 30


 206:..\..\..\arduinoLCD\test\Pain Drain\libraries\lvgl\src\widgets\../core/lv_obj_style_gen.h **** {
 207:..\..\..\arduinoLCD\test\Pain Drain\libraries\lvgl\src\widgets\../core/lv_obj_style_gen.h ****     lv_style_value_t v = lv_obj_get_style_prop(obj, part, LV_STYLE_BG_IMG_OPA);
 208:..\..\..\arduinoLCD\test\Pain Drain\libraries\lvgl\src\widgets\../core/lv_obj_style_gen.h ****     return (lv_opa_t)v.num;
 209:..\..\..\arduinoLCD\test\Pain Drain\libraries\lvgl\src\widgets\../core/lv_obj_style_gen.h **** }
 210:..\..\..\arduinoLCD\test\Pain Drain\libraries\lvgl\src\widgets\../core/lv_obj_style_gen.h **** 
 211:..\..\..\arduinoLCD\test\Pain Drain\libraries\lvgl\src\widgets\../core/lv_obj_style_gen.h **** static inline lv_color_t lv_obj_get_style_bg_img_recolor(const struct _lv_obj_t * obj, uint32_t par
 212:..\..\..\arduinoLCD\test\Pain Drain\libraries\lvgl\src\widgets\../core/lv_obj_style_gen.h **** {
 213:..\..\..\arduinoLCD\test\Pain Drain\libraries\lvgl\src\widgets\../core/lv_obj_style_gen.h ****     lv_style_value_t v = lv_obj_get_style_prop(obj, part, LV_STYLE_BG_IMG_RECOLOR);
 214:..\..\..\arduinoLCD\test\Pain Drain\libraries\lvgl\src\widgets\../core/lv_obj_style_gen.h ****     return v.color;
 215:..\..\..\arduinoLCD\test\Pain Drain\libraries\lvgl\src\widgets\../core/lv_obj_style_gen.h **** }
 216:..\..\..\arduinoLCD\test\Pain Drain\libraries\lvgl\src\widgets\../core/lv_obj_style_gen.h **** 
 217:..\..\..\arduinoLCD\test\Pain Drain\libraries\lvgl\src\widgets\../core/lv_obj_style_gen.h **** static inline lv_color_t lv_obj_get_style_bg_img_recolor_filtered(const struct _lv_obj_t * obj, uin
 218:..\..\..\arduinoLCD\test\Pain Drain\libraries\lvgl\src\widgets\../core/lv_obj_style_gen.h **** {
 219:..\..\..\arduinoLCD\test\Pain Drain\libraries\lvgl\src\widgets\../core/lv_obj_style_gen.h ****     lv_style_value_t v = _lv_obj_style_apply_color_filter(obj, part, lv_obj_get_style_prop(obj, par
 220:..\..\..\arduinoLCD\test\Pain Drain\libraries\lvgl\src\widgets\../core/lv_obj_style_gen.h ****     return v.color;
 221:..\..\..\arduinoLCD\test\Pain Drain\libraries\lvgl\src\widgets\../core/lv_obj_style_gen.h **** }
 222:..\..\..\arduinoLCD\test\Pain Drain\libraries\lvgl\src\widgets\../core/lv_obj_style_gen.h **** 
 223:..\..\..\arduinoLCD\test\Pain Drain\libraries\lvgl\src\widgets\../core/lv_obj_style_gen.h **** static inline lv_opa_t lv_obj_get_style_bg_img_recolor_opa(const struct _lv_obj_t * obj, uint32_t p
 224:..\..\..\arduinoLCD\test\Pain Drain\libraries\lvgl\src\widgets\../core/lv_obj_style_gen.h **** {
 225:..\..\..\arduinoLCD\test\Pain Drain\libraries\lvgl\src\widgets\../core/lv_obj_style_gen.h ****     lv_style_value_t v = lv_obj_get_style_prop(obj, part, LV_STYLE_BG_IMG_RECOLOR_OPA);
 226:..\..\..\arduinoLCD\test\Pain Drain\libraries\lvgl\src\widgets\../core/lv_obj_style_gen.h ****     return (lv_opa_t)v.num;
 227:..\..\..\arduinoLCD\test\Pain Drain\libraries\lvgl\src\widgets\../core/lv_obj_style_gen.h **** }
 228:..\..\..\arduinoLCD\test\Pain Drain\libraries\lvgl\src\widgets\../core/lv_obj_style_gen.h **** 
 229:..\..\..\arduinoLCD\test\Pain Drain\libraries\lvgl\src\widgets\../core/lv_obj_style_gen.h **** static inline bool lv_obj_get_style_bg_img_tiled(const struct _lv_obj_t * obj, uint32_t part)
 230:..\..\..\arduinoLCD\test\Pain Drain\libraries\lvgl\src\widgets\../core/lv_obj_style_gen.h **** {
 231:..\..\..\arduinoLCD\test\Pain Drain\libraries\lvgl\src\widgets\../core/lv_obj_style_gen.h ****     lv_style_value_t v = lv_obj_get_style_prop(obj, part, LV_STYLE_BG_IMG_TILED);
 232:..\..\..\arduinoLCD\test\Pain Drain\libraries\lvgl\src\widgets\../core/lv_obj_style_gen.h ****     return (bool)v.num;
 233:..\..\..\arduinoLCD\test\Pain Drain\libraries\lvgl\src\widgets\../core/lv_obj_style_gen.h **** }
 234:..\..\..\arduinoLCD\test\Pain Drain\libraries\lvgl\src\widgets\../core/lv_obj_style_gen.h **** 
 235:..\..\..\arduinoLCD\test\Pain Drain\libraries\lvgl\src\widgets\../core/lv_obj_style_gen.h **** static inline lv_color_t lv_obj_get_style_border_color(const struct _lv_obj_t * obj, uint32_t part)
 236:..\..\..\arduinoLCD\test\Pain Drain\libraries\lvgl\src\widgets\../core/lv_obj_style_gen.h **** {
 237:..\..\..\arduinoLCD\test\Pain Drain\libraries\lvgl\src\widgets\../core/lv_obj_style_gen.h ****     lv_style_value_t v = lv_obj_get_style_prop(obj, part, LV_STYLE_BORDER_COLOR);
 238:..\..\..\arduinoLCD\test\Pain Drain\libraries\lvgl\src\widgets\../core/lv_obj_style_gen.h ****     return v.color;
 239:..\..\..\arduinoLCD\test\Pain Drain\libraries\lvgl\src\widgets\../core/lv_obj_style_gen.h **** }
 240:..\..\..\arduinoLCD\test\Pain Drain\libraries\lvgl\src\widgets\../core/lv_obj_style_gen.h **** 
 241:..\..\..\arduinoLCD\test\Pain Drain\libraries\lvgl\src\widgets\../core/lv_obj_style_gen.h **** static inline lv_color_t lv_obj_get_style_border_color_filtered(const struct _lv_obj_t * obj, uint3
 242:..\..\..\arduinoLCD\test\Pain Drain\libraries\lvgl\src\widgets\../core/lv_obj_style_gen.h **** {
 243:..\..\..\arduinoLCD\test\Pain Drain\libraries\lvgl\src\widgets\../core/lv_obj_style_gen.h ****     lv_style_value_t v = _lv_obj_style_apply_color_filter(obj, part, lv_obj_get_style_prop(obj, par
 244:..\..\..\arduinoLCD\test\Pain Drain\libraries\lvgl\src\widgets\../core/lv_obj_style_gen.h ****     return v.color;
 245:..\..\..\arduinoLCD\test\Pain Drain\libraries\lvgl\src\widgets\../core/lv_obj_style_gen.h **** }
 246:..\..\..\arduinoLCD\test\Pain Drain\libraries\lvgl\src\widgets\../core/lv_obj_style_gen.h **** 
 247:..\..\..\arduinoLCD\test\Pain Drain\libraries\lvgl\src\widgets\../core/lv_obj_style_gen.h **** static inline lv_opa_t lv_obj_get_style_border_opa(const struct _lv_obj_t * obj, uint32_t part)
 248:..\..\..\arduinoLCD\test\Pain Drain\libraries\lvgl\src\widgets\../core/lv_obj_style_gen.h **** {
 249:..\..\..\arduinoLCD\test\Pain Drain\libraries\lvgl\src\widgets\../core/lv_obj_style_gen.h ****     lv_style_value_t v = lv_obj_get_style_prop(obj, part, LV_STYLE_BORDER_OPA);
 250:..\..\..\arduinoLCD\test\Pain Drain\libraries\lvgl\src\widgets\../core/lv_obj_style_gen.h ****     return (lv_opa_t)v.num;
 251:..\..\..\arduinoLCD\test\Pain Drain\libraries\lvgl\src\widgets\../core/lv_obj_style_gen.h **** }
 252:..\..\..\arduinoLCD\test\Pain Drain\libraries\lvgl\src\widgets\../core/lv_obj_style_gen.h **** 
 253:..\..\..\arduinoLCD\test\Pain Drain\libraries\lvgl\src\widgets\../core/lv_obj_style_gen.h **** static inline lv_coord_t lv_obj_get_style_border_width(const struct _lv_obj_t * obj, uint32_t part)
 254:..\..\..\arduinoLCD\test\Pain Drain\libraries\lvgl\src\widgets\../core/lv_obj_style_gen.h **** {
 255:..\..\..\arduinoLCD\test\Pain Drain\libraries\lvgl\src\widgets\../core/lv_obj_style_gen.h ****     lv_style_value_t v = lv_obj_get_style_prop(obj, part, LV_STYLE_BORDER_WIDTH);
 256:..\..\..\arduinoLCD\test\Pain Drain\libraries\lvgl\src\widgets\../core/lv_obj_style_gen.h ****     return (lv_coord_t)v.num;
 257:..\..\..\arduinoLCD\test\Pain Drain\libraries\lvgl\src\widgets\../core/lv_obj_style_gen.h **** }
 258:..\..\..\arduinoLCD\test\Pain Drain\libraries\lvgl\src\widgets\../core/lv_obj_style_gen.h **** 
 259:..\..\..\arduinoLCD\test\Pain Drain\libraries\lvgl\src\widgets\../core/lv_obj_style_gen.h **** static inline lv_border_side_t lv_obj_get_style_border_side(const struct _lv_obj_t * obj, uint32_t 
 260:..\..\..\arduinoLCD\test\Pain Drain\libraries\lvgl\src\widgets\../core/lv_obj_style_gen.h **** {
 261:..\..\..\arduinoLCD\test\Pain Drain\libraries\lvgl\src\widgets\../core/lv_obj_style_gen.h ****     lv_style_value_t v = lv_obj_get_style_prop(obj, part, LV_STYLE_BORDER_SIDE);
 262:..\..\..\arduinoLCD\test\Pain Drain\libraries\lvgl\src\widgets\../core/lv_obj_style_gen.h ****     return (lv_border_side_t)v.num;
ARM GAS  C:\Users\haske\AppData\Local\Temp\cc11ZRIl.s 			page 31


 263:..\..\..\arduinoLCD\test\Pain Drain\libraries\lvgl\src\widgets\../core/lv_obj_style_gen.h **** }
 264:..\..\..\arduinoLCD\test\Pain Drain\libraries\lvgl\src\widgets\../core/lv_obj_style_gen.h **** 
 265:..\..\..\arduinoLCD\test\Pain Drain\libraries\lvgl\src\widgets\../core/lv_obj_style_gen.h **** static inline bool lv_obj_get_style_border_post(const struct _lv_obj_t * obj, uint32_t part)
 266:..\..\..\arduinoLCD\test\Pain Drain\libraries\lvgl\src\widgets\../core/lv_obj_style_gen.h **** {
 267:..\..\..\arduinoLCD\test\Pain Drain\libraries\lvgl\src\widgets\../core/lv_obj_style_gen.h ****     lv_style_value_t v = lv_obj_get_style_prop(obj, part, LV_STYLE_BORDER_POST);
 268:..\..\..\arduinoLCD\test\Pain Drain\libraries\lvgl\src\widgets\../core/lv_obj_style_gen.h ****     return (bool)v.num;
 269:..\..\..\arduinoLCD\test\Pain Drain\libraries\lvgl\src\widgets\../core/lv_obj_style_gen.h **** }
 270:..\..\..\arduinoLCD\test\Pain Drain\libraries\lvgl\src\widgets\../core/lv_obj_style_gen.h **** 
 271:..\..\..\arduinoLCD\test\Pain Drain\libraries\lvgl\src\widgets\../core/lv_obj_style_gen.h **** static inline lv_coord_t lv_obj_get_style_outline_width(const struct _lv_obj_t * obj, uint32_t part
 272:..\..\..\arduinoLCD\test\Pain Drain\libraries\lvgl\src\widgets\../core/lv_obj_style_gen.h **** {
 273:..\..\..\arduinoLCD\test\Pain Drain\libraries\lvgl\src\widgets\../core/lv_obj_style_gen.h ****     lv_style_value_t v = lv_obj_get_style_prop(obj, part, LV_STYLE_OUTLINE_WIDTH);
 274:..\..\..\arduinoLCD\test\Pain Drain\libraries\lvgl\src\widgets\../core/lv_obj_style_gen.h ****     return (lv_coord_t)v.num;
 275:..\..\..\arduinoLCD\test\Pain Drain\libraries\lvgl\src\widgets\../core/lv_obj_style_gen.h **** }
 276:..\..\..\arduinoLCD\test\Pain Drain\libraries\lvgl\src\widgets\../core/lv_obj_style_gen.h **** 
 277:..\..\..\arduinoLCD\test\Pain Drain\libraries\lvgl\src\widgets\../core/lv_obj_style_gen.h **** static inline lv_color_t lv_obj_get_style_outline_color(const struct _lv_obj_t * obj, uint32_t part
 278:..\..\..\arduinoLCD\test\Pain Drain\libraries\lvgl\src\widgets\../core/lv_obj_style_gen.h **** {
 279:..\..\..\arduinoLCD\test\Pain Drain\libraries\lvgl\src\widgets\../core/lv_obj_style_gen.h ****     lv_style_value_t v = lv_obj_get_style_prop(obj, part, LV_STYLE_OUTLINE_COLOR);
 280:..\..\..\arduinoLCD\test\Pain Drain\libraries\lvgl\src\widgets\../core/lv_obj_style_gen.h ****     return v.color;
 281:..\..\..\arduinoLCD\test\Pain Drain\libraries\lvgl\src\widgets\../core/lv_obj_style_gen.h **** }
 282:..\..\..\arduinoLCD\test\Pain Drain\libraries\lvgl\src\widgets\../core/lv_obj_style_gen.h **** 
 283:..\..\..\arduinoLCD\test\Pain Drain\libraries\lvgl\src\widgets\../core/lv_obj_style_gen.h **** static inline lv_color_t lv_obj_get_style_outline_color_filtered(const struct _lv_obj_t * obj, uint
 284:..\..\..\arduinoLCD\test\Pain Drain\libraries\lvgl\src\widgets\../core/lv_obj_style_gen.h **** {
 285:..\..\..\arduinoLCD\test\Pain Drain\libraries\lvgl\src\widgets\../core/lv_obj_style_gen.h ****     lv_style_value_t v = _lv_obj_style_apply_color_filter(obj, part, lv_obj_get_style_prop(obj, par
 286:..\..\..\arduinoLCD\test\Pain Drain\libraries\lvgl\src\widgets\../core/lv_obj_style_gen.h ****     return v.color;
 287:..\..\..\arduinoLCD\test\Pain Drain\libraries\lvgl\src\widgets\../core/lv_obj_style_gen.h **** }
 288:..\..\..\arduinoLCD\test\Pain Drain\libraries\lvgl\src\widgets\../core/lv_obj_style_gen.h **** 
 289:..\..\..\arduinoLCD\test\Pain Drain\libraries\lvgl\src\widgets\../core/lv_obj_style_gen.h **** static inline lv_opa_t lv_obj_get_style_outline_opa(const struct _lv_obj_t * obj, uint32_t part)
 290:..\..\..\arduinoLCD\test\Pain Drain\libraries\lvgl\src\widgets\../core/lv_obj_style_gen.h **** {
 291:..\..\..\arduinoLCD\test\Pain Drain\libraries\lvgl\src\widgets\../core/lv_obj_style_gen.h ****     lv_style_value_t v = lv_obj_get_style_prop(obj, part, LV_STYLE_OUTLINE_OPA);
 292:..\..\..\arduinoLCD\test\Pain Drain\libraries\lvgl\src\widgets\../core/lv_obj_style_gen.h ****     return (lv_opa_t)v.num;
 293:..\..\..\arduinoLCD\test\Pain Drain\libraries\lvgl\src\widgets\../core/lv_obj_style_gen.h **** }
 294:..\..\..\arduinoLCD\test\Pain Drain\libraries\lvgl\src\widgets\../core/lv_obj_style_gen.h **** 
 295:..\..\..\arduinoLCD\test\Pain Drain\libraries\lvgl\src\widgets\../core/lv_obj_style_gen.h **** static inline lv_coord_t lv_obj_get_style_outline_pad(const struct _lv_obj_t * obj, uint32_t part)
 296:..\..\..\arduinoLCD\test\Pain Drain\libraries\lvgl\src\widgets\../core/lv_obj_style_gen.h **** {
 297:..\..\..\arduinoLCD\test\Pain Drain\libraries\lvgl\src\widgets\../core/lv_obj_style_gen.h ****     lv_style_value_t v = lv_obj_get_style_prop(obj, part, LV_STYLE_OUTLINE_PAD);
 298:..\..\..\arduinoLCD\test\Pain Drain\libraries\lvgl\src\widgets\../core/lv_obj_style_gen.h ****     return (lv_coord_t)v.num;
 299:..\..\..\arduinoLCD\test\Pain Drain\libraries\lvgl\src\widgets\../core/lv_obj_style_gen.h **** }
 300:..\..\..\arduinoLCD\test\Pain Drain\libraries\lvgl\src\widgets\../core/lv_obj_style_gen.h **** 
 301:..\..\..\arduinoLCD\test\Pain Drain\libraries\lvgl\src\widgets\../core/lv_obj_style_gen.h **** static inline lv_coord_t lv_obj_get_style_shadow_width(const struct _lv_obj_t * obj, uint32_t part)
 302:..\..\..\arduinoLCD\test\Pain Drain\libraries\lvgl\src\widgets\../core/lv_obj_style_gen.h **** {
 303:..\..\..\arduinoLCD\test\Pain Drain\libraries\lvgl\src\widgets\../core/lv_obj_style_gen.h ****     lv_style_value_t v = lv_obj_get_style_prop(obj, part, LV_STYLE_SHADOW_WIDTH);
 304:..\..\..\arduinoLCD\test\Pain Drain\libraries\lvgl\src\widgets\../core/lv_obj_style_gen.h ****     return (lv_coord_t)v.num;
 305:..\..\..\arduinoLCD\test\Pain Drain\libraries\lvgl\src\widgets\../core/lv_obj_style_gen.h **** }
 306:..\..\..\arduinoLCD\test\Pain Drain\libraries\lvgl\src\widgets\../core/lv_obj_style_gen.h **** 
 307:..\..\..\arduinoLCD\test\Pain Drain\libraries\lvgl\src\widgets\../core/lv_obj_style_gen.h **** static inline lv_coord_t lv_obj_get_style_shadow_ofs_x(const struct _lv_obj_t * obj, uint32_t part)
 308:..\..\..\arduinoLCD\test\Pain Drain\libraries\lvgl\src\widgets\../core/lv_obj_style_gen.h **** {
 309:..\..\..\arduinoLCD\test\Pain Drain\libraries\lvgl\src\widgets\../core/lv_obj_style_gen.h ****     lv_style_value_t v = lv_obj_get_style_prop(obj, part, LV_STYLE_SHADOW_OFS_X);
 310:..\..\..\arduinoLCD\test\Pain Drain\libraries\lvgl\src\widgets\../core/lv_obj_style_gen.h ****     return (lv_coord_t)v.num;
 311:..\..\..\arduinoLCD\test\Pain Drain\libraries\lvgl\src\widgets\../core/lv_obj_style_gen.h **** }
 312:..\..\..\arduinoLCD\test\Pain Drain\libraries\lvgl\src\widgets\../core/lv_obj_style_gen.h **** 
 313:..\..\..\arduinoLCD\test\Pain Drain\libraries\lvgl\src\widgets\../core/lv_obj_style_gen.h **** static inline lv_coord_t lv_obj_get_style_shadow_ofs_y(const struct _lv_obj_t * obj, uint32_t part)
 314:..\..\..\arduinoLCD\test\Pain Drain\libraries\lvgl\src\widgets\../core/lv_obj_style_gen.h **** {
 315:..\..\..\arduinoLCD\test\Pain Drain\libraries\lvgl\src\widgets\../core/lv_obj_style_gen.h ****     lv_style_value_t v = lv_obj_get_style_prop(obj, part, LV_STYLE_SHADOW_OFS_Y);
 316:..\..\..\arduinoLCD\test\Pain Drain\libraries\lvgl\src\widgets\../core/lv_obj_style_gen.h ****     return (lv_coord_t)v.num;
 317:..\..\..\arduinoLCD\test\Pain Drain\libraries\lvgl\src\widgets\../core/lv_obj_style_gen.h **** }
 318:..\..\..\arduinoLCD\test\Pain Drain\libraries\lvgl\src\widgets\../core/lv_obj_style_gen.h **** 
 319:..\..\..\arduinoLCD\test\Pain Drain\libraries\lvgl\src\widgets\../core/lv_obj_style_gen.h **** static inline lv_coord_t lv_obj_get_style_shadow_spread(const struct _lv_obj_t * obj, uint32_t part
ARM GAS  C:\Users\haske\AppData\Local\Temp\cc11ZRIl.s 			page 32


 320:..\..\..\arduinoLCD\test\Pain Drain\libraries\lvgl\src\widgets\../core/lv_obj_style_gen.h **** {
 321:..\..\..\arduinoLCD\test\Pain Drain\libraries\lvgl\src\widgets\../core/lv_obj_style_gen.h ****     lv_style_value_t v = lv_obj_get_style_prop(obj, part, LV_STYLE_SHADOW_SPREAD);
 322:..\..\..\arduinoLCD\test\Pain Drain\libraries\lvgl\src\widgets\../core/lv_obj_style_gen.h ****     return (lv_coord_t)v.num;
 323:..\..\..\arduinoLCD\test\Pain Drain\libraries\lvgl\src\widgets\../core/lv_obj_style_gen.h **** }
 324:..\..\..\arduinoLCD\test\Pain Drain\libraries\lvgl\src\widgets\../core/lv_obj_style_gen.h **** 
 325:..\..\..\arduinoLCD\test\Pain Drain\libraries\lvgl\src\widgets\../core/lv_obj_style_gen.h **** static inline lv_color_t lv_obj_get_style_shadow_color(const struct _lv_obj_t * obj, uint32_t part)
 326:..\..\..\arduinoLCD\test\Pain Drain\libraries\lvgl\src\widgets\../core/lv_obj_style_gen.h **** {
 327:..\..\..\arduinoLCD\test\Pain Drain\libraries\lvgl\src\widgets\../core/lv_obj_style_gen.h ****     lv_style_value_t v = lv_obj_get_style_prop(obj, part, LV_STYLE_SHADOW_COLOR);
 328:..\..\..\arduinoLCD\test\Pain Drain\libraries\lvgl\src\widgets\../core/lv_obj_style_gen.h ****     return v.color;
 329:..\..\..\arduinoLCD\test\Pain Drain\libraries\lvgl\src\widgets\../core/lv_obj_style_gen.h **** }
 330:..\..\..\arduinoLCD\test\Pain Drain\libraries\lvgl\src\widgets\../core/lv_obj_style_gen.h **** 
 331:..\..\..\arduinoLCD\test\Pain Drain\libraries\lvgl\src\widgets\../core/lv_obj_style_gen.h **** static inline lv_color_t lv_obj_get_style_shadow_color_filtered(const struct _lv_obj_t * obj, uint3
 332:..\..\..\arduinoLCD\test\Pain Drain\libraries\lvgl\src\widgets\../core/lv_obj_style_gen.h **** {
 333:..\..\..\arduinoLCD\test\Pain Drain\libraries\lvgl\src\widgets\../core/lv_obj_style_gen.h ****     lv_style_value_t v = _lv_obj_style_apply_color_filter(obj, part, lv_obj_get_style_prop(obj, par
 334:..\..\..\arduinoLCD\test\Pain Drain\libraries\lvgl\src\widgets\../core/lv_obj_style_gen.h ****     return v.color;
 335:..\..\..\arduinoLCD\test\Pain Drain\libraries\lvgl\src\widgets\../core/lv_obj_style_gen.h **** }
 336:..\..\..\arduinoLCD\test\Pain Drain\libraries\lvgl\src\widgets\../core/lv_obj_style_gen.h **** 
 337:..\..\..\arduinoLCD\test\Pain Drain\libraries\lvgl\src\widgets\../core/lv_obj_style_gen.h **** static inline lv_opa_t lv_obj_get_style_shadow_opa(const struct _lv_obj_t * obj, uint32_t part)
 338:..\..\..\arduinoLCD\test\Pain Drain\libraries\lvgl\src\widgets\../core/lv_obj_style_gen.h **** {
 339:..\..\..\arduinoLCD\test\Pain Drain\libraries\lvgl\src\widgets\../core/lv_obj_style_gen.h ****     lv_style_value_t v = lv_obj_get_style_prop(obj, part, LV_STYLE_SHADOW_OPA);
 340:..\..\..\arduinoLCD\test\Pain Drain\libraries\lvgl\src\widgets\../core/lv_obj_style_gen.h ****     return (lv_opa_t)v.num;
 341:..\..\..\arduinoLCD\test\Pain Drain\libraries\lvgl\src\widgets\../core/lv_obj_style_gen.h **** }
 342:..\..\..\arduinoLCD\test\Pain Drain\libraries\lvgl\src\widgets\../core/lv_obj_style_gen.h **** 
 343:..\..\..\arduinoLCD\test\Pain Drain\libraries\lvgl\src\widgets\../core/lv_obj_style_gen.h **** static inline lv_opa_t lv_obj_get_style_img_opa(const struct _lv_obj_t * obj, uint32_t part)
 344:..\..\..\arduinoLCD\test\Pain Drain\libraries\lvgl\src\widgets\../core/lv_obj_style_gen.h **** {
 345:..\..\..\arduinoLCD\test\Pain Drain\libraries\lvgl\src\widgets\../core/lv_obj_style_gen.h ****     lv_style_value_t v = lv_obj_get_style_prop(obj, part, LV_STYLE_IMG_OPA);
 346:..\..\..\arduinoLCD\test\Pain Drain\libraries\lvgl\src\widgets\../core/lv_obj_style_gen.h ****     return (lv_opa_t)v.num;
 347:..\..\..\arduinoLCD\test\Pain Drain\libraries\lvgl\src\widgets\../core/lv_obj_style_gen.h **** }
 348:..\..\..\arduinoLCD\test\Pain Drain\libraries\lvgl\src\widgets\../core/lv_obj_style_gen.h **** 
 349:..\..\..\arduinoLCD\test\Pain Drain\libraries\lvgl\src\widgets\../core/lv_obj_style_gen.h **** static inline lv_color_t lv_obj_get_style_img_recolor(const struct _lv_obj_t * obj, uint32_t part)
 350:..\..\..\arduinoLCD\test\Pain Drain\libraries\lvgl\src\widgets\../core/lv_obj_style_gen.h **** {
 351:..\..\..\arduinoLCD\test\Pain Drain\libraries\lvgl\src\widgets\../core/lv_obj_style_gen.h ****     lv_style_value_t v = lv_obj_get_style_prop(obj, part, LV_STYLE_IMG_RECOLOR);
 352:..\..\..\arduinoLCD\test\Pain Drain\libraries\lvgl\src\widgets\../core/lv_obj_style_gen.h ****     return v.color;
 353:..\..\..\arduinoLCD\test\Pain Drain\libraries\lvgl\src\widgets\../core/lv_obj_style_gen.h **** }
 354:..\..\..\arduinoLCD\test\Pain Drain\libraries\lvgl\src\widgets\../core/lv_obj_style_gen.h **** 
 355:..\..\..\arduinoLCD\test\Pain Drain\libraries\lvgl\src\widgets\../core/lv_obj_style_gen.h **** static inline lv_color_t lv_obj_get_style_img_recolor_filtered(const struct _lv_obj_t * obj, uint32
 356:..\..\..\arduinoLCD\test\Pain Drain\libraries\lvgl\src\widgets\../core/lv_obj_style_gen.h **** {
 357:..\..\..\arduinoLCD\test\Pain Drain\libraries\lvgl\src\widgets\../core/lv_obj_style_gen.h ****     lv_style_value_t v = _lv_obj_style_apply_color_filter(obj, part, lv_obj_get_style_prop(obj, par
 358:..\..\..\arduinoLCD\test\Pain Drain\libraries\lvgl\src\widgets\../core/lv_obj_style_gen.h ****     return v.color;
 359:..\..\..\arduinoLCD\test\Pain Drain\libraries\lvgl\src\widgets\../core/lv_obj_style_gen.h **** }
 360:..\..\..\arduinoLCD\test\Pain Drain\libraries\lvgl\src\widgets\../core/lv_obj_style_gen.h **** 
 361:..\..\..\arduinoLCD\test\Pain Drain\libraries\lvgl\src\widgets\../core/lv_obj_style_gen.h **** static inline lv_opa_t lv_obj_get_style_img_recolor_opa(const struct _lv_obj_t * obj, uint32_t part
 362:..\..\..\arduinoLCD\test\Pain Drain\libraries\lvgl\src\widgets\../core/lv_obj_style_gen.h **** {
 363:..\..\..\arduinoLCD\test\Pain Drain\libraries\lvgl\src\widgets\../core/lv_obj_style_gen.h ****     lv_style_value_t v = lv_obj_get_style_prop(obj, part, LV_STYLE_IMG_RECOLOR_OPA);
 364:..\..\..\arduinoLCD\test\Pain Drain\libraries\lvgl\src\widgets\../core/lv_obj_style_gen.h ****     return (lv_opa_t)v.num;
 365:..\..\..\arduinoLCD\test\Pain Drain\libraries\lvgl\src\widgets\../core/lv_obj_style_gen.h **** }
 366:..\..\..\arduinoLCD\test\Pain Drain\libraries\lvgl\src\widgets\../core/lv_obj_style_gen.h **** 
 367:..\..\..\arduinoLCD\test\Pain Drain\libraries\lvgl\src\widgets\../core/lv_obj_style_gen.h **** static inline lv_coord_t lv_obj_get_style_line_width(const struct _lv_obj_t * obj, uint32_t part)
 368:..\..\..\arduinoLCD\test\Pain Drain\libraries\lvgl\src\widgets\../core/lv_obj_style_gen.h **** {
 369:..\..\..\arduinoLCD\test\Pain Drain\libraries\lvgl\src\widgets\../core/lv_obj_style_gen.h ****     lv_style_value_t v = lv_obj_get_style_prop(obj, part, LV_STYLE_LINE_WIDTH);
 370:..\..\..\arduinoLCD\test\Pain Drain\libraries\lvgl\src\widgets\../core/lv_obj_style_gen.h ****     return (lv_coord_t)v.num;
 371:..\..\..\arduinoLCD\test\Pain Drain\libraries\lvgl\src\widgets\../core/lv_obj_style_gen.h **** }
 372:..\..\..\arduinoLCD\test\Pain Drain\libraries\lvgl\src\widgets\../core/lv_obj_style_gen.h **** 
 373:..\..\..\arduinoLCD\test\Pain Drain\libraries\lvgl\src\widgets\../core/lv_obj_style_gen.h **** static inline lv_coord_t lv_obj_get_style_line_dash_width(const struct _lv_obj_t * obj, uint32_t pa
 374:..\..\..\arduinoLCD\test\Pain Drain\libraries\lvgl\src\widgets\../core/lv_obj_style_gen.h **** {
 375:..\..\..\arduinoLCD\test\Pain Drain\libraries\lvgl\src\widgets\../core/lv_obj_style_gen.h ****     lv_style_value_t v = lv_obj_get_style_prop(obj, part, LV_STYLE_LINE_DASH_WIDTH);
 376:..\..\..\arduinoLCD\test\Pain Drain\libraries\lvgl\src\widgets\../core/lv_obj_style_gen.h ****     return (lv_coord_t)v.num;
ARM GAS  C:\Users\haske\AppData\Local\Temp\cc11ZRIl.s 			page 33


 377:..\..\..\arduinoLCD\test\Pain Drain\libraries\lvgl\src\widgets\../core/lv_obj_style_gen.h **** }
 378:..\..\..\arduinoLCD\test\Pain Drain\libraries\lvgl\src\widgets\../core/lv_obj_style_gen.h **** 
 379:..\..\..\arduinoLCD\test\Pain Drain\libraries\lvgl\src\widgets\../core/lv_obj_style_gen.h **** static inline lv_coord_t lv_obj_get_style_line_dash_gap(const struct _lv_obj_t * obj, uint32_t part
 380:..\..\..\arduinoLCD\test\Pain Drain\libraries\lvgl\src\widgets\../core/lv_obj_style_gen.h **** {
 381:..\..\..\arduinoLCD\test\Pain Drain\libraries\lvgl\src\widgets\../core/lv_obj_style_gen.h ****     lv_style_value_t v = lv_obj_get_style_prop(obj, part, LV_STYLE_LINE_DASH_GAP);
 382:..\..\..\arduinoLCD\test\Pain Drain\libraries\lvgl\src\widgets\../core/lv_obj_style_gen.h ****     return (lv_coord_t)v.num;
 383:..\..\..\arduinoLCD\test\Pain Drain\libraries\lvgl\src\widgets\../core/lv_obj_style_gen.h **** }
 384:..\..\..\arduinoLCD\test\Pain Drain\libraries\lvgl\src\widgets\../core/lv_obj_style_gen.h **** 
 385:..\..\..\arduinoLCD\test\Pain Drain\libraries\lvgl\src\widgets\../core/lv_obj_style_gen.h **** static inline bool lv_obj_get_style_line_rounded(const struct _lv_obj_t * obj, uint32_t part)
 386:..\..\..\arduinoLCD\test\Pain Drain\libraries\lvgl\src\widgets\../core/lv_obj_style_gen.h **** {
 387:..\..\..\arduinoLCD\test\Pain Drain\libraries\lvgl\src\widgets\../core/lv_obj_style_gen.h ****     lv_style_value_t v = lv_obj_get_style_prop(obj, part, LV_STYLE_LINE_ROUNDED);
 388:..\..\..\arduinoLCD\test\Pain Drain\libraries\lvgl\src\widgets\../core/lv_obj_style_gen.h ****     return (bool)v.num;
 389:..\..\..\arduinoLCD\test\Pain Drain\libraries\lvgl\src\widgets\../core/lv_obj_style_gen.h **** }
 390:..\..\..\arduinoLCD\test\Pain Drain\libraries\lvgl\src\widgets\../core/lv_obj_style_gen.h **** 
 391:..\..\..\arduinoLCD\test\Pain Drain\libraries\lvgl\src\widgets\../core/lv_obj_style_gen.h **** static inline lv_color_t lv_obj_get_style_line_color(const struct _lv_obj_t * obj, uint32_t part)
 392:..\..\..\arduinoLCD\test\Pain Drain\libraries\lvgl\src\widgets\../core/lv_obj_style_gen.h **** {
 393:..\..\..\arduinoLCD\test\Pain Drain\libraries\lvgl\src\widgets\../core/lv_obj_style_gen.h ****     lv_style_value_t v = lv_obj_get_style_prop(obj, part, LV_STYLE_LINE_COLOR);
 394:..\..\..\arduinoLCD\test\Pain Drain\libraries\lvgl\src\widgets\../core/lv_obj_style_gen.h ****     return v.color;
 395:..\..\..\arduinoLCD\test\Pain Drain\libraries\lvgl\src\widgets\../core/lv_obj_style_gen.h **** }
 396:..\..\..\arduinoLCD\test\Pain Drain\libraries\lvgl\src\widgets\../core/lv_obj_style_gen.h **** 
 397:..\..\..\arduinoLCD\test\Pain Drain\libraries\lvgl\src\widgets\../core/lv_obj_style_gen.h **** static inline lv_color_t lv_obj_get_style_line_color_filtered(const struct _lv_obj_t * obj, uint32_
 398:..\..\..\arduinoLCD\test\Pain Drain\libraries\lvgl\src\widgets\../core/lv_obj_style_gen.h **** {
 399:..\..\..\arduinoLCD\test\Pain Drain\libraries\lvgl\src\widgets\../core/lv_obj_style_gen.h ****     lv_style_value_t v = _lv_obj_style_apply_color_filter(obj, part, lv_obj_get_style_prop(obj, par
 400:..\..\..\arduinoLCD\test\Pain Drain\libraries\lvgl\src\widgets\../core/lv_obj_style_gen.h ****     return v.color;
 401:..\..\..\arduinoLCD\test\Pain Drain\libraries\lvgl\src\widgets\../core/lv_obj_style_gen.h **** }
 402:..\..\..\arduinoLCD\test\Pain Drain\libraries\lvgl\src\widgets\../core/lv_obj_style_gen.h **** 
 403:..\..\..\arduinoLCD\test\Pain Drain\libraries\lvgl\src\widgets\../core/lv_obj_style_gen.h **** static inline lv_opa_t lv_obj_get_style_line_opa(const struct _lv_obj_t * obj, uint32_t part)
 404:..\..\..\arduinoLCD\test\Pain Drain\libraries\lvgl\src\widgets\../core/lv_obj_style_gen.h **** {
 405:..\..\..\arduinoLCD\test\Pain Drain\libraries\lvgl\src\widgets\../core/lv_obj_style_gen.h ****     lv_style_value_t v = lv_obj_get_style_prop(obj, part, LV_STYLE_LINE_OPA);
 406:..\..\..\arduinoLCD\test\Pain Drain\libraries\lvgl\src\widgets\../core/lv_obj_style_gen.h ****     return (lv_opa_t)v.num;
 407:..\..\..\arduinoLCD\test\Pain Drain\libraries\lvgl\src\widgets\../core/lv_obj_style_gen.h **** }
 408:..\..\..\arduinoLCD\test\Pain Drain\libraries\lvgl\src\widgets\../core/lv_obj_style_gen.h **** 
 409:..\..\..\arduinoLCD\test\Pain Drain\libraries\lvgl\src\widgets\../core/lv_obj_style_gen.h **** static inline lv_coord_t lv_obj_get_style_arc_width(const struct _lv_obj_t * obj, uint32_t part)
 410:..\..\..\arduinoLCD\test\Pain Drain\libraries\lvgl\src\widgets\../core/lv_obj_style_gen.h **** {
 411:..\..\..\arduinoLCD\test\Pain Drain\libraries\lvgl\src\widgets\../core/lv_obj_style_gen.h ****     lv_style_value_t v = lv_obj_get_style_prop(obj, part, LV_STYLE_ARC_WIDTH);
 412:..\..\..\arduinoLCD\test\Pain Drain\libraries\lvgl\src\widgets\../core/lv_obj_style_gen.h ****     return (lv_coord_t)v.num;
 413:..\..\..\arduinoLCD\test\Pain Drain\libraries\lvgl\src\widgets\../core/lv_obj_style_gen.h **** }
 414:..\..\..\arduinoLCD\test\Pain Drain\libraries\lvgl\src\widgets\../core/lv_obj_style_gen.h **** 
 415:..\..\..\arduinoLCD\test\Pain Drain\libraries\lvgl\src\widgets\../core/lv_obj_style_gen.h **** static inline bool lv_obj_get_style_arc_rounded(const struct _lv_obj_t * obj, uint32_t part)
 416:..\..\..\arduinoLCD\test\Pain Drain\libraries\lvgl\src\widgets\../core/lv_obj_style_gen.h **** {
 417:..\..\..\arduinoLCD\test\Pain Drain\libraries\lvgl\src\widgets\../core/lv_obj_style_gen.h ****     lv_style_value_t v = lv_obj_get_style_prop(obj, part, LV_STYLE_ARC_ROUNDED);
 418:..\..\..\arduinoLCD\test\Pain Drain\libraries\lvgl\src\widgets\../core/lv_obj_style_gen.h ****     return (bool)v.num;
 419:..\..\..\arduinoLCD\test\Pain Drain\libraries\lvgl\src\widgets\../core/lv_obj_style_gen.h **** }
 420:..\..\..\arduinoLCD\test\Pain Drain\libraries\lvgl\src\widgets\../core/lv_obj_style_gen.h **** 
 421:..\..\..\arduinoLCD\test\Pain Drain\libraries\lvgl\src\widgets\../core/lv_obj_style_gen.h **** static inline lv_color_t lv_obj_get_style_arc_color(const struct _lv_obj_t * obj, uint32_t part)
 422:..\..\..\arduinoLCD\test\Pain Drain\libraries\lvgl\src\widgets\../core/lv_obj_style_gen.h **** {
 423:..\..\..\arduinoLCD\test\Pain Drain\libraries\lvgl\src\widgets\../core/lv_obj_style_gen.h ****     lv_style_value_t v = lv_obj_get_style_prop(obj, part, LV_STYLE_ARC_COLOR);
 424:..\..\..\arduinoLCD\test\Pain Drain\libraries\lvgl\src\widgets\../core/lv_obj_style_gen.h ****     return v.color;
 425:..\..\..\arduinoLCD\test\Pain Drain\libraries\lvgl\src\widgets\../core/lv_obj_style_gen.h **** }
 426:..\..\..\arduinoLCD\test\Pain Drain\libraries\lvgl\src\widgets\../core/lv_obj_style_gen.h **** 
 427:..\..\..\arduinoLCD\test\Pain Drain\libraries\lvgl\src\widgets\../core/lv_obj_style_gen.h **** static inline lv_color_t lv_obj_get_style_arc_color_filtered(const struct _lv_obj_t * obj, uint32_t
 428:..\..\..\arduinoLCD\test\Pain Drain\libraries\lvgl\src\widgets\../core/lv_obj_style_gen.h **** {
 429:..\..\..\arduinoLCD\test\Pain Drain\libraries\lvgl\src\widgets\../core/lv_obj_style_gen.h ****     lv_style_value_t v = _lv_obj_style_apply_color_filter(obj, part, lv_obj_get_style_prop(obj, par
 430:..\..\..\arduinoLCD\test\Pain Drain\libraries\lvgl\src\widgets\../core/lv_obj_style_gen.h ****     return v.color;
 431:..\..\..\arduinoLCD\test\Pain Drain\libraries\lvgl\src\widgets\../core/lv_obj_style_gen.h **** }
 432:..\..\..\arduinoLCD\test\Pain Drain\libraries\lvgl\src\widgets\../core/lv_obj_style_gen.h **** 
 433:..\..\..\arduinoLCD\test\Pain Drain\libraries\lvgl\src\widgets\../core/lv_obj_style_gen.h **** static inline lv_opa_t lv_obj_get_style_arc_opa(const struct _lv_obj_t * obj, uint32_t part)
ARM GAS  C:\Users\haske\AppData\Local\Temp\cc11ZRIl.s 			page 34


 434:..\..\..\arduinoLCD\test\Pain Drain\libraries\lvgl\src\widgets\../core/lv_obj_style_gen.h **** {
 435:..\..\..\arduinoLCD\test\Pain Drain\libraries\lvgl\src\widgets\../core/lv_obj_style_gen.h ****     lv_style_value_t v = lv_obj_get_style_prop(obj, part, LV_STYLE_ARC_OPA);
 436:..\..\..\arduinoLCD\test\Pain Drain\libraries\lvgl\src\widgets\../core/lv_obj_style_gen.h ****     return (lv_opa_t)v.num;
 437:..\..\..\arduinoLCD\test\Pain Drain\libraries\lvgl\src\widgets\../core/lv_obj_style_gen.h **** }
 438:..\..\..\arduinoLCD\test\Pain Drain\libraries\lvgl\src\widgets\../core/lv_obj_style_gen.h **** 
 439:..\..\..\arduinoLCD\test\Pain Drain\libraries\lvgl\src\widgets\../core/lv_obj_style_gen.h **** static inline const void * lv_obj_get_style_arc_img_src(const struct _lv_obj_t * obj, uint32_t part
 440:..\..\..\arduinoLCD\test\Pain Drain\libraries\lvgl\src\widgets\../core/lv_obj_style_gen.h **** {
 441:..\..\..\arduinoLCD\test\Pain Drain\libraries\lvgl\src\widgets\../core/lv_obj_style_gen.h ****     lv_style_value_t v = lv_obj_get_style_prop(obj, part, LV_STYLE_ARC_IMG_SRC);
 442:..\..\..\arduinoLCD\test\Pain Drain\libraries\lvgl\src\widgets\../core/lv_obj_style_gen.h ****     return (const void *)v.ptr;
 443:..\..\..\arduinoLCD\test\Pain Drain\libraries\lvgl\src\widgets\../core/lv_obj_style_gen.h **** }
 444:..\..\..\arduinoLCD\test\Pain Drain\libraries\lvgl\src\widgets\../core/lv_obj_style_gen.h **** 
 445:..\..\..\arduinoLCD\test\Pain Drain\libraries\lvgl\src\widgets\../core/lv_obj_style_gen.h **** static inline lv_color_t lv_obj_get_style_text_color(const struct _lv_obj_t * obj, uint32_t part)
 446:..\..\..\arduinoLCD\test\Pain Drain\libraries\lvgl\src\widgets\../core/lv_obj_style_gen.h **** {
 447:..\..\..\arduinoLCD\test\Pain Drain\libraries\lvgl\src\widgets\../core/lv_obj_style_gen.h ****     lv_style_value_t v = lv_obj_get_style_prop(obj, part, LV_STYLE_TEXT_COLOR);
 448:..\..\..\arduinoLCD\test\Pain Drain\libraries\lvgl\src\widgets\../core/lv_obj_style_gen.h ****     return v.color;
 449:..\..\..\arduinoLCD\test\Pain Drain\libraries\lvgl\src\widgets\../core/lv_obj_style_gen.h **** }
 450:..\..\..\arduinoLCD\test\Pain Drain\libraries\lvgl\src\widgets\../core/lv_obj_style_gen.h **** 
 451:..\..\..\arduinoLCD\test\Pain Drain\libraries\lvgl\src\widgets\../core/lv_obj_style_gen.h **** static inline lv_color_t lv_obj_get_style_text_color_filtered(const struct _lv_obj_t * obj, uint32_
 452:..\..\..\arduinoLCD\test\Pain Drain\libraries\lvgl\src\widgets\../core/lv_obj_style_gen.h **** {
 453:..\..\..\arduinoLCD\test\Pain Drain\libraries\lvgl\src\widgets\../core/lv_obj_style_gen.h ****     lv_style_value_t v = _lv_obj_style_apply_color_filter(obj, part, lv_obj_get_style_prop(obj, par
 454:..\..\..\arduinoLCD\test\Pain Drain\libraries\lvgl\src\widgets\../core/lv_obj_style_gen.h ****     return v.color;
 455:..\..\..\arduinoLCD\test\Pain Drain\libraries\lvgl\src\widgets\../core/lv_obj_style_gen.h **** }
 456:..\..\..\arduinoLCD\test\Pain Drain\libraries\lvgl\src\widgets\../core/lv_obj_style_gen.h **** 
 457:..\..\..\arduinoLCD\test\Pain Drain\libraries\lvgl\src\widgets\../core/lv_obj_style_gen.h **** static inline lv_opa_t lv_obj_get_style_text_opa(const struct _lv_obj_t * obj, uint32_t part)
 458:..\..\..\arduinoLCD\test\Pain Drain\libraries\lvgl\src\widgets\../core/lv_obj_style_gen.h **** {
 459:..\..\..\arduinoLCD\test\Pain Drain\libraries\lvgl\src\widgets\../core/lv_obj_style_gen.h ****     lv_style_value_t v = lv_obj_get_style_prop(obj, part, LV_STYLE_TEXT_OPA);
 460:..\..\..\arduinoLCD\test\Pain Drain\libraries\lvgl\src\widgets\../core/lv_obj_style_gen.h ****     return (lv_opa_t)v.num;
 461:..\..\..\arduinoLCD\test\Pain Drain\libraries\lvgl\src\widgets\../core/lv_obj_style_gen.h **** }
 462:..\..\..\arduinoLCD\test\Pain Drain\libraries\lvgl\src\widgets\../core/lv_obj_style_gen.h **** 
 463:..\..\..\arduinoLCD\test\Pain Drain\libraries\lvgl\src\widgets\../core/lv_obj_style_gen.h **** static inline const lv_font_t * lv_obj_get_style_text_font(const struct _lv_obj_t * obj, uint32_t p
 464:..\..\..\arduinoLCD\test\Pain Drain\libraries\lvgl\src\widgets\../core/lv_obj_style_gen.h **** {
 465:..\..\..\arduinoLCD\test\Pain Drain\libraries\lvgl\src\widgets\../core/lv_obj_style_gen.h ****     lv_style_value_t v = lv_obj_get_style_prop(obj, part, LV_STYLE_TEXT_FONT);
 466:..\..\..\arduinoLCD\test\Pain Drain\libraries\lvgl\src\widgets\../core/lv_obj_style_gen.h ****     return (const lv_font_t *)v.ptr;
 467:..\..\..\arduinoLCD\test\Pain Drain\libraries\lvgl\src\widgets\../core/lv_obj_style_gen.h **** }
 468:..\..\..\arduinoLCD\test\Pain Drain\libraries\lvgl\src\widgets\../core/lv_obj_style_gen.h **** 
 469:..\..\..\arduinoLCD\test\Pain Drain\libraries\lvgl\src\widgets\../core/lv_obj_style_gen.h **** static inline lv_coord_t lv_obj_get_style_text_letter_space(const struct _lv_obj_t * obj, uint32_t 
 470:..\..\..\arduinoLCD\test\Pain Drain\libraries\lvgl\src\widgets\../core/lv_obj_style_gen.h **** {
 471:..\..\..\arduinoLCD\test\Pain Drain\libraries\lvgl\src\widgets\../core/lv_obj_style_gen.h ****     lv_style_value_t v = lv_obj_get_style_prop(obj, part, LV_STYLE_TEXT_LETTER_SPACE);
 472:..\..\..\arduinoLCD\test\Pain Drain\libraries\lvgl\src\widgets\../core/lv_obj_style_gen.h ****     return (lv_coord_t)v.num;
 473:..\..\..\arduinoLCD\test\Pain Drain\libraries\lvgl\src\widgets\../core/lv_obj_style_gen.h **** }
 474:..\..\..\arduinoLCD\test\Pain Drain\libraries\lvgl\src\widgets\../core/lv_obj_style_gen.h **** 
 475:..\..\..\arduinoLCD\test\Pain Drain\libraries\lvgl\src\widgets\../core/lv_obj_style_gen.h **** static inline lv_coord_t lv_obj_get_style_text_line_space(const struct _lv_obj_t * obj, uint32_t pa
 476:..\..\..\arduinoLCD\test\Pain Drain\libraries\lvgl\src\widgets\../core/lv_obj_style_gen.h **** {
 477:..\..\..\arduinoLCD\test\Pain Drain\libraries\lvgl\src\widgets\../core/lv_obj_style_gen.h ****     lv_style_value_t v = lv_obj_get_style_prop(obj, part, LV_STYLE_TEXT_LINE_SPACE);
 478:..\..\..\arduinoLCD\test\Pain Drain\libraries\lvgl\src\widgets\../core/lv_obj_style_gen.h ****     return (lv_coord_t)v.num;
 479:..\..\..\arduinoLCD\test\Pain Drain\libraries\lvgl\src\widgets\../core/lv_obj_style_gen.h **** }
 480:..\..\..\arduinoLCD\test\Pain Drain\libraries\lvgl\src\widgets\../core/lv_obj_style_gen.h **** 
 481:..\..\..\arduinoLCD\test\Pain Drain\libraries\lvgl\src\widgets\../core/lv_obj_style_gen.h **** static inline lv_text_decor_t lv_obj_get_style_text_decor(const struct _lv_obj_t * obj, uint32_t pa
 482:..\..\..\arduinoLCD\test\Pain Drain\libraries\lvgl\src\widgets\../core/lv_obj_style_gen.h **** {
 483:..\..\..\arduinoLCD\test\Pain Drain\libraries\lvgl\src\widgets\../core/lv_obj_style_gen.h ****     lv_style_value_t v = lv_obj_get_style_prop(obj, part, LV_STYLE_TEXT_DECOR);
 484:..\..\..\arduinoLCD\test\Pain Drain\libraries\lvgl\src\widgets\../core/lv_obj_style_gen.h ****     return (lv_text_decor_t)v.num;
 485:..\..\..\arduinoLCD\test\Pain Drain\libraries\lvgl\src\widgets\../core/lv_obj_style_gen.h **** }
 486:..\..\..\arduinoLCD\test\Pain Drain\libraries\lvgl\src\widgets\../core/lv_obj_style_gen.h **** 
 487:..\..\..\arduinoLCD\test\Pain Drain\libraries\lvgl\src\widgets\../core/lv_obj_style_gen.h **** static inline lv_text_align_t lv_obj_get_style_text_align(const struct _lv_obj_t * obj, uint32_t pa
 488:..\..\..\arduinoLCD\test\Pain Drain\libraries\lvgl\src\widgets\../core/lv_obj_style_gen.h **** {
 489:..\..\..\arduinoLCD\test\Pain Drain\libraries\lvgl\src\widgets\../core/lv_obj_style_gen.h ****     lv_style_value_t v = lv_obj_get_style_prop(obj, part, LV_STYLE_TEXT_ALIGN);
 490:..\..\..\arduinoLCD\test\Pain Drain\libraries\lvgl\src\widgets\../core/lv_obj_style_gen.h ****     return (lv_text_align_t)v.num;
ARM GAS  C:\Users\haske\AppData\Local\Temp\cc11ZRIl.s 			page 35


 491:..\..\..\arduinoLCD\test\Pain Drain\libraries\lvgl\src\widgets\../core/lv_obj_style_gen.h **** }
 492:..\..\..\arduinoLCD\test\Pain Drain\libraries\lvgl\src\widgets\../core/lv_obj_style_gen.h **** 
 493:..\..\..\arduinoLCD\test\Pain Drain\libraries\lvgl\src\widgets\../core/lv_obj_style_gen.h **** static inline lv_coord_t lv_obj_get_style_radius(const struct _lv_obj_t * obj, uint32_t part)
 494:..\..\..\arduinoLCD\test\Pain Drain\libraries\lvgl\src\widgets\../core/lv_obj_style_gen.h **** {
 495:..\..\..\arduinoLCD\test\Pain Drain\libraries\lvgl\src\widgets\../core/lv_obj_style_gen.h ****     lv_style_value_t v = lv_obj_get_style_prop(obj, part, LV_STYLE_RADIUS);
 496:..\..\..\arduinoLCD\test\Pain Drain\libraries\lvgl\src\widgets\../core/lv_obj_style_gen.h ****     return (lv_coord_t)v.num;
 497:..\..\..\arduinoLCD\test\Pain Drain\libraries\lvgl\src\widgets\../core/lv_obj_style_gen.h **** }
 498:..\..\..\arduinoLCD\test\Pain Drain\libraries\lvgl\src\widgets\../core/lv_obj_style_gen.h **** 
 499:..\..\..\arduinoLCD\test\Pain Drain\libraries\lvgl\src\widgets\../core/lv_obj_style_gen.h **** static inline bool lv_obj_get_style_clip_corner(const struct _lv_obj_t * obj, uint32_t part)
 500:..\..\..\arduinoLCD\test\Pain Drain\libraries\lvgl\src\widgets\../core/lv_obj_style_gen.h **** {
 501:..\..\..\arduinoLCD\test\Pain Drain\libraries\lvgl\src\widgets\../core/lv_obj_style_gen.h ****     lv_style_value_t v = lv_obj_get_style_prop(obj, part, LV_STYLE_CLIP_CORNER);
 502:..\..\..\arduinoLCD\test\Pain Drain\libraries\lvgl\src\widgets\../core/lv_obj_style_gen.h ****     return (bool)v.num;
 503:..\..\..\arduinoLCD\test\Pain Drain\libraries\lvgl\src\widgets\../core/lv_obj_style_gen.h **** }
 504:..\..\..\arduinoLCD\test\Pain Drain\libraries\lvgl\src\widgets\../core/lv_obj_style_gen.h **** 
 505:..\..\..\arduinoLCD\test\Pain Drain\libraries\lvgl\src\widgets\../core/lv_obj_style_gen.h **** static inline lv_opa_t lv_obj_get_style_opa(const struct _lv_obj_t * obj, uint32_t part)
 506:..\..\..\arduinoLCD\test\Pain Drain\libraries\lvgl\src\widgets\../core/lv_obj_style_gen.h **** {
 507:..\..\..\arduinoLCD\test\Pain Drain\libraries\lvgl\src\widgets\../core/lv_obj_style_gen.h ****     lv_style_value_t v = lv_obj_get_style_prop(obj, part, LV_STYLE_OPA);
 508:..\..\..\arduinoLCD\test\Pain Drain\libraries\lvgl\src\widgets\../core/lv_obj_style_gen.h ****     return (lv_opa_t)v.num;
 509:..\..\..\arduinoLCD\test\Pain Drain\libraries\lvgl\src\widgets\../core/lv_obj_style_gen.h **** }
 510:..\..\..\arduinoLCD\test\Pain Drain\libraries\lvgl\src\widgets\../core/lv_obj_style_gen.h **** 
 511:..\..\..\arduinoLCD\test\Pain Drain\libraries\lvgl\src\widgets\../core/lv_obj_style_gen.h **** static inline const lv_color_filter_dsc_t * lv_obj_get_style_color_filter_dsc(const struct _lv_obj_
 512:..\..\..\arduinoLCD\test\Pain Drain\libraries\lvgl\src\widgets\../core/lv_obj_style_gen.h **** {
 513:..\..\..\arduinoLCD\test\Pain Drain\libraries\lvgl\src\widgets\../core/lv_obj_style_gen.h ****     lv_style_value_t v = lv_obj_get_style_prop(obj, part, LV_STYLE_COLOR_FILTER_DSC);
 514:..\..\..\arduinoLCD\test\Pain Drain\libraries\lvgl\src\widgets\../core/lv_obj_style_gen.h ****     return (const lv_color_filter_dsc_t *)v.ptr;
 515:..\..\..\arduinoLCD\test\Pain Drain\libraries\lvgl\src\widgets\../core/lv_obj_style_gen.h **** }
 516:..\..\..\arduinoLCD\test\Pain Drain\libraries\lvgl\src\widgets\../core/lv_obj_style_gen.h **** 
 517:..\..\..\arduinoLCD\test\Pain Drain\libraries\lvgl\src\widgets\../core/lv_obj_style_gen.h **** static inline lv_opa_t lv_obj_get_style_color_filter_opa(const struct _lv_obj_t * obj, uint32_t par
 518:..\..\..\arduinoLCD\test\Pain Drain\libraries\lvgl\src\widgets\../core/lv_obj_style_gen.h **** {
 519:..\..\..\arduinoLCD\test\Pain Drain\libraries\lvgl\src\widgets\../core/lv_obj_style_gen.h ****     lv_style_value_t v = lv_obj_get_style_prop(obj, part, LV_STYLE_COLOR_FILTER_OPA);
 520:..\..\..\arduinoLCD\test\Pain Drain\libraries\lvgl\src\widgets\../core/lv_obj_style_gen.h ****     return (lv_opa_t)v.num;
 521:..\..\..\arduinoLCD\test\Pain Drain\libraries\lvgl\src\widgets\../core/lv_obj_style_gen.h **** }
 522:..\..\..\arduinoLCD\test\Pain Drain\libraries\lvgl\src\widgets\../core/lv_obj_style_gen.h **** 
 523:..\..\..\arduinoLCD\test\Pain Drain\libraries\lvgl\src\widgets\../core/lv_obj_style_gen.h **** static inline const lv_anim_t * lv_obj_get_style_anim(const struct _lv_obj_t * obj, uint32_t part)
 524:..\..\..\arduinoLCD\test\Pain Drain\libraries\lvgl\src\widgets\../core/lv_obj_style_gen.h **** {
 525:..\..\..\arduinoLCD\test\Pain Drain\libraries\lvgl\src\widgets\../core/lv_obj_style_gen.h ****     lv_style_value_t v = lv_obj_get_style_prop(obj, part, LV_STYLE_ANIM);
 526:..\..\..\arduinoLCD\test\Pain Drain\libraries\lvgl\src\widgets\../core/lv_obj_style_gen.h ****     return (const lv_anim_t *)v.ptr;
 527:..\..\..\arduinoLCD\test\Pain Drain\libraries\lvgl\src\widgets\../core/lv_obj_style_gen.h **** }
 528:..\..\..\arduinoLCD\test\Pain Drain\libraries\lvgl\src\widgets\../core/lv_obj_style_gen.h **** 
 529:..\..\..\arduinoLCD\test\Pain Drain\libraries\lvgl\src\widgets\../core/lv_obj_style_gen.h **** static inline uint32_t lv_obj_get_style_anim_time(const struct _lv_obj_t * obj, uint32_t part)
 530:..\..\..\arduinoLCD\test\Pain Drain\libraries\lvgl\src\widgets\../core/lv_obj_style_gen.h **** {
 531:..\..\..\arduinoLCD\test\Pain Drain\libraries\lvgl\src\widgets\../core/lv_obj_style_gen.h ****     lv_style_value_t v = lv_obj_get_style_prop(obj, part, LV_STYLE_ANIM_TIME);
 532:..\..\..\arduinoLCD\test\Pain Drain\libraries\lvgl\src\widgets\../core/lv_obj_style_gen.h ****     return (uint32_t)v.num;
 533:..\..\..\arduinoLCD\test\Pain Drain\libraries\lvgl\src\widgets\../core/lv_obj_style_gen.h **** }
 534:..\..\..\arduinoLCD\test\Pain Drain\libraries\lvgl\src\widgets\../core/lv_obj_style_gen.h **** 
 535:..\..\..\arduinoLCD\test\Pain Drain\libraries\lvgl\src\widgets\../core/lv_obj_style_gen.h **** static inline uint32_t lv_obj_get_style_anim_speed(const struct _lv_obj_t * obj, uint32_t part)
 536:..\..\..\arduinoLCD\test\Pain Drain\libraries\lvgl\src\widgets\../core/lv_obj_style_gen.h **** {
 537:..\..\..\arduinoLCD\test\Pain Drain\libraries\lvgl\src\widgets\../core/lv_obj_style_gen.h ****     lv_style_value_t v = lv_obj_get_style_prop(obj, part, LV_STYLE_ANIM_SPEED);
 538:..\..\..\arduinoLCD\test\Pain Drain\libraries\lvgl\src\widgets\../core/lv_obj_style_gen.h ****     return (uint32_t)v.num;
 539:..\..\..\arduinoLCD\test\Pain Drain\libraries\lvgl\src\widgets\../core/lv_obj_style_gen.h **** }
 540:..\..\..\arduinoLCD\test\Pain Drain\libraries\lvgl\src\widgets\../core/lv_obj_style_gen.h **** 
 541:..\..\..\arduinoLCD\test\Pain Drain\libraries\lvgl\src\widgets\../core/lv_obj_style_gen.h **** static inline const lv_style_transition_dsc_t * lv_obj_get_style_transition(const struct _lv_obj_t 
 542:..\..\..\arduinoLCD\test\Pain Drain\libraries\lvgl\src\widgets\../core/lv_obj_style_gen.h **** {
 543:..\..\..\arduinoLCD\test\Pain Drain\libraries\lvgl\src\widgets\../core/lv_obj_style_gen.h ****     lv_style_value_t v = lv_obj_get_style_prop(obj, part, LV_STYLE_TRANSITION);
 544:..\..\..\arduinoLCD\test\Pain Drain\libraries\lvgl\src\widgets\../core/lv_obj_style_gen.h ****     return (const lv_style_transition_dsc_t *)v.ptr;
 545:..\..\..\arduinoLCD\test\Pain Drain\libraries\lvgl\src\widgets\../core/lv_obj_style_gen.h **** }
 546:..\..\..\arduinoLCD\test\Pain Drain\libraries\lvgl\src\widgets\../core/lv_obj_style_gen.h **** 
 547:..\..\..\arduinoLCD\test\Pain Drain\libraries\lvgl\src\widgets\../core/lv_obj_style_gen.h **** static inline lv_blend_mode_t lv_obj_get_style_blend_mode(const struct _lv_obj_t * obj, uint32_t pa
ARM GAS  C:\Users\haske\AppData\Local\Temp\cc11ZRIl.s 			page 36


 548:..\..\..\arduinoLCD\test\Pain Drain\libraries\lvgl\src\widgets\../core/lv_obj_style_gen.h **** {
 549:..\..\..\arduinoLCD\test\Pain Drain\libraries\lvgl\src\widgets\../core/lv_obj_style_gen.h ****     lv_style_value_t v = lv_obj_get_style_prop(obj, part, LV_STYLE_BLEND_MODE);
 550:..\..\..\arduinoLCD\test\Pain Drain\libraries\lvgl\src\widgets\../core/lv_obj_style_gen.h ****     return (lv_blend_mode_t)v.num;
 551:..\..\..\arduinoLCD\test\Pain Drain\libraries\lvgl\src\widgets\../core/lv_obj_style_gen.h **** }
 552:..\..\..\arduinoLCD\test\Pain Drain\libraries\lvgl\src\widgets\../core/lv_obj_style_gen.h **** 
 553:..\..\..\arduinoLCD\test\Pain Drain\libraries\lvgl\src\widgets\../core/lv_obj_style_gen.h **** static inline uint16_t lv_obj_get_style_layout(const struct _lv_obj_t * obj, uint32_t part)
 554:..\..\..\arduinoLCD\test\Pain Drain\libraries\lvgl\src\widgets\../core/lv_obj_style_gen.h **** {
 555:..\..\..\arduinoLCD\test\Pain Drain\libraries\lvgl\src\widgets\../core/lv_obj_style_gen.h ****     lv_style_value_t v = lv_obj_get_style_prop(obj, part, LV_STYLE_LAYOUT);
 556:..\..\..\arduinoLCD\test\Pain Drain\libraries\lvgl\src\widgets\../core/lv_obj_style_gen.h ****     return (uint16_t)v.num;
 557:..\..\..\arduinoLCD\test\Pain Drain\libraries\lvgl\src\widgets\../core/lv_obj_style_gen.h **** }
 558:..\..\..\arduinoLCD\test\Pain Drain\libraries\lvgl\src\widgets\../core/lv_obj_style_gen.h **** 
 559:..\..\..\arduinoLCD\test\Pain Drain\libraries\lvgl\src\widgets\../core/lv_obj_style_gen.h **** static inline lv_base_dir_t lv_obj_get_style_base_dir(const struct _lv_obj_t * obj, uint32_t part)
 560:..\..\..\arduinoLCD\test\Pain Drain\libraries\lvgl\src\widgets\../core/lv_obj_style_gen.h **** {
 561:..\..\..\arduinoLCD\test\Pain Drain\libraries\lvgl\src\widgets\../core/lv_obj_style_gen.h ****     lv_style_value_t v = lv_obj_get_style_prop(obj, part, LV_STYLE_BASE_DIR);
 638              		.loc 3 561 0
 639 027e 1622     		movs	r2, #22
 640 0280 0021     		movs	r1, #0
 641 0282 2000     		movs	r0, r4
 642 0284 FFF7FEFF 		bl	lv_obj_get_style_prop
 643              	.LVL68:
 562:..\..\..\arduinoLCD\test\Pain Drain\libraries\lvgl\src\widgets\../core/lv_obj_style_gen.h ****     return (lv_base_dir_t)v.num;
 644              		.loc 3 562 0
 645 0288 C0B2     		uxtb	r0, r0
 646              	.LVL69:
 647              	.LBE102:
 648              	.LBE101:
 340:..\..\..\arduinoLCD\test\Pain Drain\libraries\lvgl\src\widgets/lv_bar.c ****         /*Swap axes*/
 649              		.loc 2 340 0
 650 028a D145     		cmp	r9, r10
 651 028c 0ADC     		bgt	.L15
 340:..\..\..\arduinoLCD\test\Pain Drain\libraries\lvgl\src\widgets/lv_bar.c ****         /*Swap axes*/
 652              		.loc 2 340 0 is_stmt 0 discriminator 1
 653 028e 0128     		cmp	r0, #1
 654 0290 08D1     		bne	.L15
 655              	.LVL70:
 656              	.LBB103:
 346:..\..\..\arduinoLCD\test\Pain Drain\libraries\lvgl\src\widgets/lv_bar.c ****         anim_start_value_x = -anim_start_value_x;
 657              		.loc 2 346 0 is_stmt 1
 658 0292 6D42     		rsbs	r5, r5, #0
 659              	.LVL71:
 660 0294 2DB2     		sxth	r5, r5
 661              	.LVL72:
 347:..\..\..\arduinoLCD\test\Pain Drain\libraries\lvgl\src\widgets/lv_bar.c ****     }
 662              		.loc 2 347 0
 663 0296 4346     		mov	r3, r8
 664 0298 5842     		rsbs	r0, r3, #0
 665 029a 03B2     		sxth	r3, r0
 666 029c 9846     		mov	r8, r3
 667              	.LVL73:
 668 029e 3300     		movs	r3, r6
 344:..\..\..\arduinoLCD\test\Pain Drain\libraries\lvgl\src\widgets/lv_bar.c ****         axis2 = tmp;
 669              		.loc 2 344 0
 670 02a0 5E46     		mov	r6, fp
 671              	.LVL74:
 345:..\..\..\arduinoLCD\test\Pain Drain\libraries\lvgl\src\widgets/lv_bar.c ****         anim_cur_value_x = -anim_cur_value_x;
 672              		.loc 2 345 0
 673 02a2 9B46     		mov	fp, r3
ARM GAS  C:\Users\haske\AppData\Local\Temp\cc11ZRIl.s 			page 37


 674              	.LVL75:
 675              	.L15:
 676              	.LBE103:
 351:..\..\..\arduinoLCD\test\Pain Drain\libraries\lvgl\src\widgets/lv_bar.c ****         *axis2 = *axis1 + anim_cur_value_x;
 677              		.loc 2 351 0
 678 02a4 D145     		cmp	r9, r10
 679 02a6 08DC     		bgt	.L16
 352:..\..\..\arduinoLCD\test\Pain Drain\libraries\lvgl\src\widgets/lv_bar.c ****         *axis1 += anim_start_value_x;
 680              		.loc 2 352 0
 681 02a8 0023     		movs	r3, #0
 682 02aa F05E     		ldrsh	r0, [r6, r3]
 683 02ac 4519     		adds	r5, r0, r5
 684              	.LVL76:
 685 02ae 5B46     		mov	r3, fp
 686 02b0 1D80     		strh	r5, [r3]
 353:..\..\..\arduinoLCD\test\Pain Drain\libraries\lvgl\src\widgets/lv_bar.c ****     }
 687              		.loc 2 353 0
 688 02b2 3588     		ldrh	r5, [r6]
 689 02b4 4544     		add	r5, r5, r8
 690 02b6 3580     		strh	r5, [r6]
 691 02b8 0BE0     		b	.L17
 692              	.LVL77:
 693              	.L16:
 356:..\..\..\arduinoLCD\test\Pain Drain\libraries\lvgl\src\widgets/lv_bar.c ****         *axis2 -= anim_start_value_x;
 694              		.loc 2 356 0
 695 02ba 5B46     		mov	r3, fp
 696 02bc 0020     		movs	r0, #0
 697 02be 185E     		ldrsh	r0, [r3, r0]
 698 02c0 451B     		subs	r5, r0, r5
 699              	.LVL78:
 700 02c2 0135     		adds	r5, r5, #1
 701 02c4 3580     		strh	r5, [r6]
 357:..\..\..\arduinoLCD\test\Pain Drain\libraries\lvgl\src\widgets/lv_bar.c ****     }
 702              		.loc 2 357 0
 703 02c6 5B46     		mov	r3, fp
 704 02c8 1888     		ldrh	r0, [r3]
 705 02ca 4346     		mov	r3, r8
 706 02cc C01A     		subs	r0, r0, r3
 707 02ce 5B46     		mov	r3, fp
 708 02d0 1880     		strh	r0, [r3]
 709              	.LVL79:
 710              	.L17:
 359:..\..\..\arduinoLCD\test\Pain Drain\libraries\lvgl\src\widgets/lv_bar.c ****         lv_coord_t zero, shift;
 711              		.loc 2 359 0
 712 02d2 049B     		ldr	r3, [sp, #16]
 713              	.LVL80:
 714 02d4 002B     		cmp	r3, #0
 715 02d6 31D0     		beq	.L18
 716              	.LBB104:
 361:..\..\..\arduinoLCD\test\Pain Drain\libraries\lvgl\src\widgets/lv_bar.c ****         if(hor) {
 717              		.loc 2 361 0
 718 02d8 A36A     		ldr	r3, [r4, #40]
 719 02da 5842     		rsbs	r0, r3, #0
 720 02dc 019B     		ldr	r3, [sp, #4]
 721 02de 5843     		muls	r0, r3
 722 02e0 0299     		ldr	r1, [sp, #8]
 723 02e2 FFF7FEFF 		bl	__aeabi_idiv
ARM GAS  C:\Users\haske\AppData\Local\Temp\cc11ZRIl.s 			page 38


 724              	.LVL81:
 362:..\..\..\arduinoLCD\test\Pain Drain\libraries\lvgl\src\widgets/lv_bar.c ****             zero = *axis1 + shift;
 725              		.loc 2 362 0
 726 02e6 D145     		cmp	r9, r10
 727 02e8 0EDC     		bgt	.L19
 363:..\..\..\arduinoLCD\test\Pain Drain\libraries\lvgl\src\widgets/lv_bar.c ****             if(*axis2 > zero)
 728              		.loc 2 363 0
 729 02ea 0022     		movs	r2, #0
 730 02ec B35E     		ldrsh	r3, [r6, r2]
 731 02ee 1818     		adds	r0, r3, r0
 732              	.LVL82:
 733 02f0 00B2     		sxth	r0, r0
 734              	.LVL83:
 364:..\..\..\arduinoLCD\test\Pain Drain\libraries\lvgl\src\widgets/lv_bar.c ****                 *axis1 = zero;
 735              		.loc 2 364 0
 736 02f2 5B46     		mov	r3, fp
 737 02f4 0022     		movs	r2, #0
 738 02f6 9B5E     		ldrsh	r3, [r3, r2]
 739 02f8 9842     		cmp	r0, r3
 740 02fa 01DA     		bge	.L20
 365:..\..\..\arduinoLCD\test\Pain Drain\libraries\lvgl\src\widgets/lv_bar.c ****             else {
 741              		.loc 2 365 0
 742 02fc 3080     		strh	r0, [r6]
 743 02fe 1DE0     		b	.L18
 744              	.L20:
 367:..\..\..\arduinoLCD\test\Pain Drain\libraries\lvgl\src\widgets/lv_bar.c ****                 *axis2 = zero;
 745              		.loc 2 367 0
 746 0300 3380     		strh	r3, [r6]
 368:..\..\..\arduinoLCD\test\Pain Drain\libraries\lvgl\src\widgets/lv_bar.c ****             }
 747              		.loc 2 368 0
 748 0302 5B46     		mov	r3, fp
 749 0304 1880     		strh	r0, [r3]
 750 0306 19E0     		b	.L18
 751              	.LVL84:
 752              	.L19:
 372:..\..\..\arduinoLCD\test\Pain Drain\libraries\lvgl\src\widgets/lv_bar.c ****             if(*axis1 > zero)
 753              		.loc 2 372 0
 754 0308 5B46     		mov	r3, fp
 755 030a 0022     		movs	r2, #0
 756 030c 9B5E     		ldrsh	r3, [r3, r2]
 757 030e 181A     		subs	r0, r3, r0
 758              	.LVL85:
 759 0310 0130     		adds	r0, r0, #1
 760 0312 00B2     		sxth	r0, r0
 761              	.LVL86:
 373:..\..\..\arduinoLCD\test\Pain Drain\libraries\lvgl\src\widgets/lv_bar.c ****                 *axis2 = zero;
 762              		.loc 2 373 0
 763 0314 0022     		movs	r2, #0
 764 0316 B35E     		ldrsh	r3, [r6, r2]
 765 0318 9842     		cmp	r0, r3
 766 031a 02DA     		bge	.L21
 374:..\..\..\arduinoLCD\test\Pain Drain\libraries\lvgl\src\widgets/lv_bar.c ****             else {
 767              		.loc 2 374 0
 768 031c 5B46     		mov	r3, fp
 769 031e 1880     		strh	r0, [r3]
 770 0320 02E0     		b	.L22
 771              	.L21:
ARM GAS  C:\Users\haske\AppData\Local\Temp\cc11ZRIl.s 			page 39


 376:..\..\..\arduinoLCD\test\Pain Drain\libraries\lvgl\src\widgets/lv_bar.c ****                 *axis1 = zero;
 772              		.loc 2 376 0
 773 0322 5A46     		mov	r2, fp
 774 0324 1380     		strh	r3, [r2]
 377:..\..\..\arduinoLCD\test\Pain Drain\libraries\lvgl\src\widgets/lv_bar.c ****             }
 775              		.loc 2 377 0
 776 0326 3080     		strh	r0, [r6]
 777              	.L22:
 379:..\..\..\arduinoLCD\test\Pain Drain\libraries\lvgl\src\widgets/lv_bar.c ****                 /*swap*/
 778              		.loc 2 379 0
 779 0328 5B46     		mov	r3, fp
 780 032a 0022     		movs	r2, #0
 781 032c 9A5E     		ldrsh	r2, [r3, r2]
 782 032e 0021     		movs	r1, #0
 783 0330 735E     		ldrsh	r3, [r6, r1]
 784 0332 9A42     		cmp	r2, r3
 785 0334 02DA     		bge	.L18
 786              	.LVL87:
 382:..\..\..\arduinoLCD\test\Pain Drain\libraries\lvgl\src\widgets/lv_bar.c ****                 *axis2 = zero;
 787              		.loc 2 382 0
 788 0336 3280     		strh	r2, [r6]
 383:..\..\..\arduinoLCD\test\Pain Drain\libraries\lvgl\src\widgets/lv_bar.c ****             }
 789              		.loc 2 383 0
 790 0338 5A46     		mov	r2, fp
 791 033a 1380     		strh	r3, [r2]
 792              	.LVL88:
 793              	.L18:
 794              	.LBE104:
 389:..\..\..\arduinoLCD\test\Pain Drain\libraries\lvgl\src\widgets/lv_bar.c **** 
 795              		.loc 2 389 0
 796 033c 049B     		ldr	r3, [sp, #16]
 797 033e 002B     		cmp	r3, #0
 798 0340 1DD1     		bne	.L23
 389:..\..\..\arduinoLCD\test\Pain Drain\libraries\lvgl\src\widgets/lv_bar.c **** 
 799              		.loc 2 389 0 is_stmt 0 discriminator 1
 800 0342 2500     		movs	r5, r4
 801 0344 3435     		adds	r5, r5, #52
 802 0346 2800     		movs	r0, r5
 803 0348 0C9B     		ldr	r3, [sp, #48]
 804 034a 9847     		blx	r3
 805              	.LVL89:
 806 034c 0128     		cmp	r0, #1
 807 034e 16DC     		bgt	.L23
 808              	.LBB105:
 392:..\..\..\arduinoLCD\test\Pain Drain\libraries\lvgl\src\widgets/lv_bar.c ****         part_draw_dsc.part = LV_PART_INDICATOR;
 809              		.loc 2 392 0 is_stmt 1
 810 0350 0399     		ldr	r1, [sp, #12]
 811 0352 0EA8     		add	r0, sp, #56
 812 0354 FFF7FEFF 		bl	lv_obj_draw_dsc_init
 813              	.LVL90:
 393:..\..\..\arduinoLCD\test\Pain Drain\libraries\lvgl\src\widgets/lv_bar.c ****         part_draw_dsc.class_p = MY_CLASS;
 814              		.loc 2 393 0
 815 0358 8023     		movs	r3, #128
 816 035a 9B02     		lsls	r3, r3, #10
 817 035c 1B93     		str	r3, [sp, #108]
 394:..\..\..\arduinoLCD\test\Pain Drain\libraries\lvgl\src\widgets/lv_bar.c ****         part_draw_dsc.type = LV_BAR_DRAW_PART_INDICATOR;
 818              		.loc 2 394 0
ARM GAS  C:\Users\haske\AppData\Local\Temp\cc11ZRIl.s 			page 40


 819 035e 6E4B     		ldr	r3, .L39+8
 820 0360 0F93     		str	r3, [sp, #60]
 395:..\..\..\arduinoLCD\test\Pain Drain\libraries\lvgl\src\widgets/lv_bar.c ****         part_draw_dsc.draw_area = &bar->indic_area;
 821              		.loc 2 395 0
 822 0362 0023     		movs	r3, #0
 823 0364 1093     		str	r3, [sp, #64]
 396:..\..\..\arduinoLCD\test\Pain Drain\libraries\lvgl\src\widgets/lv_bar.c **** 
 824              		.loc 2 396 0
 825 0366 1195     		str	r5, [sp, #68]
 398:..\..\..\arduinoLCD\test\Pain Drain\libraries\lvgl\src\widgets/lv_bar.c ****         lv_event_send(obj, LV_EVENT_DRAW_PART_END, &part_draw_dsc);
 826              		.loc 2 398 0
 827 0368 0EAA     		add	r2, sp, #56
 828 036a 1A21     		movs	r1, #26
 829 036c 2000     		movs	r0, r4
 830 036e FFF7FEFF 		bl	lv_event_send
 831              	.LVL91:
 399:..\..\..\arduinoLCD\test\Pain Drain\libraries\lvgl\src\widgets/lv_bar.c ****         return;
 832              		.loc 2 399 0
 833 0372 0EAA     		add	r2, sp, #56
 834 0374 1B21     		movs	r1, #27
 835 0376 2000     		movs	r0, r4
 836 0378 FFF7FEFF 		bl	lv_event_send
 837              	.LVL92:
 838 037c 12E1     		b	.L4
 839              	.L23:
 840              	.LBE105:
 407:..\..\..\arduinoLCD\test\Pain Drain\libraries\lvgl\src\widgets/lv_bar.c ****     lv_obj_init_draw_rect_dsc(obj, LV_PART_INDICATOR, &draw_rect_dsc);
 841              		.loc 2 407 0
 842 037e 42AD     		add	r5, sp, #264
 843 0380 2800     		movs	r0, r5
 844 0382 FFF7FEFF 		bl	lv_draw_rect_dsc_init
 845              	.LVL93:
 408:..\..\..\arduinoLCD\test\Pain Drain\libraries\lvgl\src\widgets/lv_bar.c **** 
 846              		.loc 2 408 0
 847 0386 8026     		movs	r6, #128
 848              	.LVL94:
 849 0388 B602     		lsls	r6, r6, #10
 850 038a 2A00     		movs	r2, r5
 851 038c 3100     		movs	r1, r6
 852 038e 2000     		movs	r0, r4
 853 0390 FFF7FEFF 		bl	lv_obj_init_draw_rect_dsc
 854              	.LVL95:
 411:..\..\..\arduinoLCD\test\Pain Drain\libraries\lvgl\src\widgets/lv_bar.c ****     part_draw_dsc.part = LV_PART_INDICATOR;
 855              		.loc 2 411 0
 856 0394 0399     		ldr	r1, [sp, #12]
 857 0396 30A8     		add	r0, sp, #192
 858 0398 FFF7FEFF 		bl	lv_obj_draw_dsc_init
 859              	.LVL96:
 412:..\..\..\arduinoLCD\test\Pain Drain\libraries\lvgl\src\widgets/lv_bar.c ****     part_draw_dsc.class_p = MY_CLASS;
 860              		.loc 2 412 0
 861 039c 3D96     		str	r6, [sp, #244]
 413:..\..\..\arduinoLCD\test\Pain Drain\libraries\lvgl\src\widgets/lv_bar.c ****     part_draw_dsc.type = LV_BAR_DRAW_PART_INDICATOR;
 862              		.loc 2 413 0
 863 039e 5E4B     		ldr	r3, .L39+8
 864 03a0 3193     		str	r3, [sp, #196]
 414:..\..\..\arduinoLCD\test\Pain Drain\libraries\lvgl\src\widgets/lv_bar.c ****     part_draw_dsc.rect_dsc = &draw_rect_dsc;
 865              		.loc 2 414 0
ARM GAS  C:\Users\haske\AppData\Local\Temp\cc11ZRIl.s 			page 41


 866 03a2 0023     		movs	r3, #0
 867 03a4 3293     		str	r3, [sp, #200]
 415:..\..\..\arduinoLCD\test\Pain Drain\libraries\lvgl\src\widgets/lv_bar.c ****     part_draw_dsc.draw_area = &bar->indic_area;
 868              		.loc 2 415 0
 869 03a6 3495     		str	r5, [sp, #208]
 416:..\..\..\arduinoLCD\test\Pain Drain\libraries\lvgl\src\widgets/lv_bar.c **** 
 870              		.loc 2 416 0
 871 03a8 3433     		adds	r3, r3, #52
 872 03aa 9C46     		mov	ip, r3
 873 03ac A444     		add	ip, ip, r4
 874 03ae 6346     		mov	r3, ip
 875 03b0 0193     		str	r3, [sp, #4]
 876              	.LVL97:
 877 03b2 3393     		str	r3, [sp, #204]
 418:..\..\..\arduinoLCD\test\Pain Drain\libraries\lvgl\src\widgets/lv_bar.c **** 
 878              		.loc 2 418 0
 879 03b4 30AA     		add	r2, sp, #192
 880 03b6 1A21     		movs	r1, #26
 881 03b8 2000     		movs	r0, r4
 882 03ba FFF7FEFF 		bl	lv_event_send
 883              	.LVL98:
 884              	.LBB106:
 885              	.LBB107:
 495:..\..\..\arduinoLCD\test\Pain Drain\libraries\lvgl\src\widgets\../core/lv_obj_style_gen.h ****     return (lv_coord_t)v.num;
 886              		.loc 3 495 0
 887 03be 0B22     		movs	r2, #11
 888 03c0 0021     		movs	r1, #0
 889 03c2 2000     		movs	r0, r4
 890 03c4 FFF7FEFF 		bl	lv_obj_get_style_prop
 891              	.LVL99:
 496:..\..\..\arduinoLCD\test\Pain Drain\libraries\lvgl\src\widgets\../core/lv_obj_style_gen.h **** }
 892              		.loc 3 496 0
 893 03c8 00B2     		sxth	r0, r0
 894              	.LVL100:
 895              	.LBE107:
 896              	.LBE106:
 421:..\..\..\arduinoLCD\test\Pain Drain\libraries\lvgl\src\widgets/lv_bar.c ****     if(bg_radius > short_side >> 1) bg_radius = short_side >> 1;
 897              		.loc 2 421 0
 898 03ca 4D46     		mov	r5, r9
 899 03cc D145     		cmp	r9, r10
 900 03ce 00DD     		ble	.L25
 901              	.LVL101:
 902 03d0 5546     		mov	r5, r10
 903              	.LVL102:
 904              	.L25:
 905 03d2 2DB2     		sxth	r5, r5
 906              	.LVL103:
 422:..\..\..\arduinoLCD\test\Pain Drain\libraries\lvgl\src\widgets/lv_bar.c **** 
 907              		.loc 2 422 0
 908 03d4 6D10     		asrs	r5, r5, #1
 909              	.LVL104:
 910 03d6 8542     		cmp	r5, r0
 911 03d8 00DB     		blt	.L26
 420:..\..\..\arduinoLCD\test\Pain Drain\libraries\lvgl\src\widgets/lv_bar.c ****     lv_coord_t short_side = LV_MIN(barw, barh);
 912              		.loc 2 420 0
 913 03da 0500     		movs	r5, r0
 914              	.L26:
ARM GAS  C:\Users\haske\AppData\Local\Temp\cc11ZRIl.s 			page 42


 915              	.LVL105:
 424:..\..\..\arduinoLCD\test\Pain Drain\libraries\lvgl\src\widgets/lv_bar.c ****     short_side = LV_MIN(indicw, indich);
 916              		.loc 2 424 0
 917 03dc 42AB     		add	r3, sp, #264
 918 03de 0022     		movs	r2, #0
 919 03e0 9A5E     		ldrsh	r2, [r3, r2]
 920              	.LVL106:
 425:..\..\..\arduinoLCD\test\Pain Drain\libraries\lvgl\src\widgets/lv_bar.c ****     if(indic_radius > short_side >> 1) indic_radius = short_side >> 1;
 921              		.loc 2 425 0
 922 03e2 0999     		ldr	r1, [sp, #36]
 923 03e4 0B1C     		adds	r3, r1, #0
 924 03e6 0E00     		movs	r6, r1
 925 03e8 0B98     		ldr	r0, [sp, #44]
 926 03ea 8642     		cmp	r6, r0
 927 03ec 00DD     		ble	.L27
 928 03ee 031C     		adds	r3, r0, #0
 929              	.L27:
 930 03f0 1BB2     		sxth	r3, r3
 931              	.LVL107:
 426:..\..\..\arduinoLCD\test\Pain Drain\libraries\lvgl\src\widgets/lv_bar.c **** 
 932              		.loc 2 426 0
 933 03f2 5B10     		asrs	r3, r3, #1
 934              	.LVL108:
 935 03f4 9A42     		cmp	r2, r3
 936 03f6 00DC     		bgt	.L28
 424:..\..\..\arduinoLCD\test\Pain Drain\libraries\lvgl\src\widgets/lv_bar.c ****     short_side = LV_MIN(indicw, indich);
 937              		.loc 2 424 0
 938 03f8 1300     		movs	r3, r2
 939              	.L28:
 940              	.LVL109:
 431:..\..\..\arduinoLCD\test\Pain Drain\libraries\lvgl\src\widgets/lv_bar.c ****        (!hor && lv_area_get_height(&bar->indic_area) > indic_radius * 2)) {
 941              		.loc 2 431 0
 942 03fa D145     		cmp	r9, r10
 943 03fc 09DC     		bgt	.L29
 944              	.LVL110:
 945              	.LBB108:
 946              	.LBB109:
 125:c:\projects\paindrain\arduinolcd\test\pain drain\libraries\lvgl\src\misc\lv_area.h **** }
 947              		.loc 1 125 0 discriminator 1
 948 03fe 3821     		movs	r1, #56
 949 0400 625E     		ldrsh	r2, [r4, r1]
 950 0402 3420     		movs	r0, #52
 951 0404 215E     		ldrsh	r1, [r4, r0]
 952 0406 521A     		subs	r2, r2, r1
 953 0408 0132     		adds	r2, r2, #1
 954 040a 12B2     		sxth	r2, r2
 955              	.LVL111:
 956              	.LBE109:
 957              	.LBE108:
 431:..\..\..\arduinoLCD\test\Pain Drain\libraries\lvgl\src\widgets/lv_bar.c ****        (!hor && lv_area_get_height(&bar->indic_area) > indic_radius * 2)) {
 958              		.loc 2 431 0 discriminator 1
 959 040c 5900     		lsls	r1, r3, #1
 960 040e 8A42     		cmp	r2, r1
 961 0410 0BDC     		bgt	.L30
 962              	.L29:
 431:..\..\..\arduinoLCD\test\Pain Drain\libraries\lvgl\src\widgets/lv_bar.c ****        (!hor && lv_area_get_height(&bar->indic_area) > indic_radius * 2)) {
 963              		.loc 2 431 0 is_stmt 0 discriminator 3
ARM GAS  C:\Users\haske\AppData\Local\Temp\cc11ZRIl.s 			page 43


 964 0412 D145     		cmp	r9, r10
 965 0414 21DD     		ble	.L31
 966              	.LVL112:
 967              	.LBB110:
 968              	.LBB111:
 135:c:\projects\paindrain\arduinolcd\test\pain drain\libraries\lvgl\src\misc\lv_area.h **** }
 969              		.loc 1 135 0 is_stmt 1
 970 0416 3A21     		movs	r1, #58
 971 0418 625E     		ldrsh	r2, [r4, r1]
 972 041a 3620     		movs	r0, #54
 973 041c 215E     		ldrsh	r1, [r4, r0]
 974 041e 521A     		subs	r2, r2, r1
 975 0420 0132     		adds	r2, r2, #1
 976 0422 12B2     		sxth	r2, r2
 977              	.LVL113:
 978              	.LBE111:
 979              	.LBE110:
 432:..\..\..\arduinoLCD\test\Pain Drain\libraries\lvgl\src\widgets/lv_bar.c ****         lv_opa_t bg_opa = draw_rect_dsc.bg_opa;
 980              		.loc 2 432 0
 981 0424 5B00     		lsls	r3, r3, #1
 982              	.LVL114:
 983 0426 9A42     		cmp	r2, r3
 984 0428 17DD     		ble	.L31
 985              	.L30:
 986              	.LBB112:
 433:..\..\..\arduinoLCD\test\Pain Drain\libraries\lvgl\src\widgets/lv_bar.c ****         lv_opa_t bg_img_opa = draw_rect_dsc.bg_img_opa;
 987              		.loc 2 433 0
 988 042a 42AE     		add	r6, sp, #264
 989 042c F378     		ldrb	r3, [r6, #3]
 990 042e 9B46     		mov	fp, r3
 991              	.LVL115:
 434:..\..\..\arduinoLCD\test\Pain Drain\libraries\lvgl\src\widgets/lv_bar.c ****         lv_opa_t border_opa = draw_rect_dsc.border_opa;
 992              		.loc 2 434 0
 993 0430 B37E     		ldrb	r3, [r6, #26]
 994 0432 0293     		str	r3, [sp, #8]
 995              	.LVL116:
 435:..\..\..\arduinoLCD\test\Pain Drain\libraries\lvgl\src\widgets/lv_bar.c ****         draw_rect_dsc.bg_opa = LV_OPA_TRANSP;
 996              		.loc 2 435 0
 997 0434 2227     		movs	r7, #34
 998 0436 F25D     		ldrb	r2, [r6, r7]
 999 0438 9046     		mov	r8, r2
 1000              	.LVL117:
 436:..\..\..\arduinoLCD\test\Pain Drain\libraries\lvgl\src\widgets/lv_bar.c ****         draw_rect_dsc.bg_img_opa = LV_OPA_TRANSP;
 1001              		.loc 2 436 0
 1002 043a 0023     		movs	r3, #0
 1003 043c F370     		strb	r3, [r6, #3]
 437:..\..\..\arduinoLCD\test\Pain Drain\libraries\lvgl\src\widgets/lv_bar.c ****         draw_rect_dsc.border_opa = LV_OPA_TRANSP;
 1004              		.loc 2 437 0
 1005 043e B376     		strb	r3, [r6, #26]
 438:..\..\..\arduinoLCD\test\Pain Drain\libraries\lvgl\src\widgets/lv_bar.c **** 
 1006              		.loc 2 438 0
 1007 0440 F355     		strb	r3, [r6, r7]
 440:..\..\..\arduinoLCD\test\Pain Drain\libraries\lvgl\src\widgets/lv_bar.c **** 
 1008              		.loc 2 440 0
 1009 0442 019A     		ldr	r2, [sp, #4]
 1010 0444 3100     		movs	r1, r6
 1011 0446 0398     		ldr	r0, [sp, #12]
ARM GAS  C:\Users\haske\AppData\Local\Temp\cc11ZRIl.s 			page 44


 1012 0448 FFF7FEFF 		bl	lv_draw_rect
 1013              	.LVL118:
 442:..\..\..\arduinoLCD\test\Pain Drain\libraries\lvgl\src\widgets/lv_bar.c ****         draw_rect_dsc.bg_img_opa = bg_img_opa;
 1014              		.loc 2 442 0
 1015 044c 5A46     		mov	r2, fp
 1016 044e F270     		strb	r2, [r6, #3]
 443:..\..\..\arduinoLCD\test\Pain Drain\libraries\lvgl\src\widgets/lv_bar.c ****         draw_rect_dsc.border_opa = border_opa;
 1017              		.loc 2 443 0
 1018 0450 6B46     		mov	r3, sp
 1019 0452 1B7A     		ldrb	r3, [r3, #8]
 1020 0454 B376     		strb	r3, [r6, #26]
 444:..\..\..\arduinoLCD\test\Pain Drain\libraries\lvgl\src\widgets/lv_bar.c ****     }
 1021              		.loc 2 444 0
 1022 0456 4346     		mov	r3, r8
 1023 0458 F355     		strb	r3, [r6, r7]
 1024              	.LVL119:
 1025              	.L31:
 1026              	.LBE112:
 450:..\..\..\arduinoLCD\test\Pain Drain\libraries\lvgl\src\widgets/lv_bar.c ****     bg_mask_area.x2 = obj->coords.x2 - bg_right;
 1027              		.loc 2 450 0
 1028 045a 1422     		movs	r2, #20
 1029 045c A35E     		ldrsh	r3, [r4, r2]
 1030 045e 28A9     		add	r1, sp, #160
 1031 0460 059A     		ldr	r2, [sp, #20]
 1032 0462 9446     		mov	ip, r2
 1033 0464 6344     		add	r3, r3, ip
 1034 0466 0B80     		strh	r3, [r1]
 451:..\..\..\arduinoLCD\test\Pain Drain\libraries\lvgl\src\widgets/lv_bar.c ****     bg_mask_area.y1 = obj->coords.y1 + bg_top;
 1035              		.loc 2 451 0
 1036 0468 1820     		movs	r0, #24
 1037 046a 235E     		ldrsh	r3, [r4, r0]
 1038 046c 0698     		ldr	r0, [sp, #24]
 1039 046e 1B1A     		subs	r3, r3, r0
 1040 0470 8B80     		strh	r3, [r1, #4]
 452:..\..\..\arduinoLCD\test\Pain Drain\libraries\lvgl\src\widgets/lv_bar.c ****     bg_mask_area.y2 = obj->coords.y2 - bg_bottom;
 1041              		.loc 2 452 0
 1042 0472 1626     		movs	r6, #22
 1043 0474 A35F     		ldrsh	r3, [r4, r6]
 1044 0476 079E     		ldr	r6, [sp, #28]
 1045 0478 B446     		mov	ip, r6
 1046 047a 6344     		add	r3, r3, ip
 1047 047c 4B80     		strh	r3, [r1, #2]
 453:..\..\..\arduinoLCD\test\Pain Drain\libraries\lvgl\src\widgets/lv_bar.c **** 
 1048              		.loc 2 453 0
 1049 047e 1A27     		movs	r7, #26
 1050 0480 E35F     		ldrsh	r3, [r4, r7]
 1051 0482 089F     		ldr	r7, [sp, #32]
 1052 0484 DB1B     		subs	r3, r3, r7
 1053 0486 CB80     		strh	r3, [r1, #6]
 455:..\..\..\arduinoLCD\test\Pain Drain\libraries\lvgl\src\widgets/lv_bar.c ****     lv_coord_t mask_bg_id = lv_draw_mask_add(&mask_bg_param, NULL);
 1054              		.loc 2 455 0
 1055 0488 0023     		movs	r3, #0
 1056 048a 2A00     		movs	r2, r5
 1057 048c 2AA8     		add	r0, sp, #168
 1058 048e FFF7FEFF 		bl	lv_draw_mask_radius_init
 1059              	.LVL120:
 456:..\..\..\arduinoLCD\test\Pain Drain\libraries\lvgl\src\widgets/lv_bar.c **** #endif
ARM GAS  C:\Users\haske\AppData\Local\Temp\cc11ZRIl.s 			page 45


 1060              		.loc 2 456 0
 1061 0492 0021     		movs	r1, #0
 1062 0494 2AAB     		add	r3, sp, #168
 1063 0496 1800     		movs	r0, r3
 1064 0498 FFF7FEFF 		bl	lv_draw_mask_add
 1065              	.LVL121:
 1066 049c 0290     		str	r0, [sp, #8]
 1067              	.LVL122:
 460:..\..\..\arduinoLCD\test\Pain Drain\libraries\lvgl\src\widgets/lv_bar.c ****     lv_opa_t border_opa = draw_rect_dsc.border_opa;
 1068              		.loc 2 460 0
 1069 049e 42AB     		add	r3, sp, #264
 1070              	.LVL123:
 461:..\..\..\arduinoLCD\test\Pain Drain\libraries\lvgl\src\widgets/lv_bar.c ****     draw_rect_dsc.border_opa = LV_OPA_TRANSP;
 1071              		.loc 2 461 0
 1072 04a0 2221     		movs	r1, #34
 1073 04a2 5E5C     		ldrb	r6, [r3, r1]
 1074              	.LVL124:
 462:..\..\..\arduinoLCD\test\Pain Drain\libraries\lvgl\src\widgets/lv_bar.c ****     draw_rect_dsc.shadow_opa = LV_OPA_TRANSP;
 1075              		.loc 2 462 0
 1076 04a4 0022     		movs	r2, #0
 1077 04a6 5A54     		strb	r2, [r3, r1]
 1078              	.LVL125:
 463:..\..\..\arduinoLCD\test\Pain Drain\libraries\lvgl\src\widgets/lv_bar.c **** 
 1079              		.loc 2 463 0
 1080 04a8 1431     		adds	r1, r1, #20
 1081 04aa 5A54     		strb	r2, [r3, r1]
 1082              	.LVL126:
 1083              	.LBB113:
 1084              	.LBB114:
 112:c:\projects\paindrain\arduinolcd\test\pain drain\libraries\lvgl\src\misc\lv_area.h ****     dest->y1 = src->y1;
 1085              		.loc 1 112 0
 1086 04ac 50A9     		add	r1, sp, #320
 1087              	.LVL127:
 1088 04ae 0023     		movs	r3, #0
 1089 04b0 CF5E     		ldrsh	r7, [r1, r3]
 1090 04b2 26AA     		add	r2, sp, #152
 1091              	.LVL128:
 113:c:\projects\paindrain\arduinolcd\test\pain drain\libraries\lvgl\src\misc\lv_area.h ****     dest->x2 = src->x2;
 1092              		.loc 1 113 0
 1093 04b4 0223     		movs	r3, #2
 1094 04b6 CD5E     		ldrsh	r5, [r1, r3]
 1095              	.LVL129:
 114:c:\projects\paindrain\arduinolcd\test\pain drain\libraries\lvgl\src\misc\lv_area.h ****     dest->y2 = src->y2;
 1096              		.loc 1 114 0
 1097 04b8 0420     		movs	r0, #4
 1098 04ba 0B5E     		ldrsh	r3, [r1, r0]
 115:c:\projects\paindrain\arduinolcd\test\pain drain\libraries\lvgl\src\misc\lv_area.h **** }
 1099              		.loc 1 115 0
 1100 04bc 0620     		movs	r0, #6
 1101 04be 085E     		ldrsh	r0, [r1, r0]
 1102              	.LVL130:
 1103              	.LBE114:
 1104              	.LBE113:
 468:..\..\..\arduinoLCD\test\Pain Drain\libraries\lvgl\src\widgets/lv_bar.c ****     mask_indic_max_area.y1 += bg_top;
 1105              		.loc 2 468 0
 1106 04c0 0599     		ldr	r1, [sp, #20]
 1107 04c2 8C46     		mov	ip, r1
ARM GAS  C:\Users\haske\AppData\Local\Temp\cc11ZRIl.s 			page 46


 1108 04c4 6744     		add	r7, r7, ip
 1109 04c6 BFB2     		uxth	r7, r7
 1110 04c8 1780     		strh	r7, [r2]
 469:..\..\..\arduinoLCD\test\Pain Drain\libraries\lvgl\src\widgets/lv_bar.c ****     mask_indic_max_area.x2 -= bg_right;
 1111              		.loc 2 469 0
 1112 04ca 0799     		ldr	r1, [sp, #28]
 1113 04cc 8C46     		mov	ip, r1
 1114 04ce 6544     		add	r5, r5, ip
 1115 04d0 ADB2     		uxth	r5, r5
 1116 04d2 5580     		strh	r5, [r2, #2]
 470:..\..\..\arduinoLCD\test\Pain Drain\libraries\lvgl\src\widgets/lv_bar.c ****     mask_indic_max_area.y2 -= bg_bottom;
 1117              		.loc 2 470 0
 1118 04d4 0699     		ldr	r1, [sp, #24]
 1119 04d6 5B1A     		subs	r3, r3, r1
 1120 04d8 9BB2     		uxth	r3, r3
 1121 04da 9380     		strh	r3, [r2, #4]
 471:..\..\..\arduinoLCD\test\Pain Drain\libraries\lvgl\src\widgets/lv_bar.c ****     if(hor && lv_area_get_height(&mask_indic_max_area) < LV_BAR_SIZE_MIN) {
 1122              		.loc 2 471 0
 1123 04dc 0899     		ldr	r1, [sp, #32]
 1124 04de 401A     		subs	r0, r0, r1
 1125 04e0 80B2     		uxth	r0, r0
 1126 04e2 D080     		strh	r0, [r2, #6]
 472:..\..\..\arduinoLCD\test\Pain Drain\libraries\lvgl\src\widgets/lv_bar.c ****         mask_indic_max_area.y1 = obj->coords.y1 + (barh / 2) - (LV_BAR_SIZE_MIN / 2);
 1127              		.loc 2 472 0
 1128 04e4 D145     		cmp	r9, r10
 1129 04e6 19DC     		bgt	.L32
 1130              	.LVL131:
 1131              	.LBB115:
 1132              	.LBB116:
 135:c:\projects\paindrain\arduinolcd\test\pain drain\libraries\lvgl\src\misc\lv_area.h **** }
 1133              		.loc 1 135 0
 1134 04e8 451B     		subs	r5, r0, r5
 1135 04ea 0135     		adds	r5, r5, #1
 1136 04ec 2DB2     		sxth	r5, r5
 1137              	.LVL132:
 1138              	.LBE116:
 1139              	.LBE115:
 472:..\..\..\arduinoLCD\test\Pain Drain\libraries\lvgl\src\widgets/lv_bar.c ****         mask_indic_max_area.y1 = obj->coords.y1 + (barh / 2) - (LV_BAR_SIZE_MIN / 2);
 1140              		.loc 2 472 0
 1141 04ee 032D     		cmp	r5, #3
 1142 04f0 14DC     		bgt	.L32
 473:..\..\..\arduinoLCD\test\Pain Drain\libraries\lvgl\src\widgets/lv_bar.c ****         mask_indic_max_area.y2 = mask_indic_max_area.y1 + LV_BAR_SIZE_MIN;
 1143              		.loc 2 473 0
 1144 04f2 1623     		movs	r3, #22
 1145 04f4 E25E     		ldrsh	r2, [r4, r3]
 1146 04f6 4B46     		mov	r3, r9
 1147 04f8 DB0F     		lsrs	r3, r3, #31
 1148 04fa 4B44     		add	r3, r3, r9
 1149 04fc 5B10     		asrs	r3, r3, #1
 1150 04fe 9B18     		adds	r3, r3, r2
 1151 0500 023B     		subs	r3, r3, #2
 1152 0502 9BB2     		uxth	r3, r3
 1153 0504 26AA     		add	r2, sp, #152
 1154 0506 5380     		strh	r3, [r2, #2]
 474:..\..\..\arduinoLCD\test\Pain Drain\libraries\lvgl\src\widgets/lv_bar.c ****     }
 1155              		.loc 2 474 0
 1156 0508 0433     		adds	r3, r3, #4
ARM GAS  C:\Users\haske\AppData\Local\Temp\cc11ZRIl.s 			page 47


 1157 050a D380     		strh	r3, [r2, #6]
 1158 050c 1AE0     		b	.L33
 1159              	.L40:
 1160 050e C046     		.align	2
 1161              	.L39:
 1162 0510 00000000 		.word	lv_area_get_width
 1163 0514 00000000 		.word	lv_area_get_height
 1164 0518 00000000 		.word	.LANCHOR0
 1165              	.L32:
 476:..\..\..\arduinoLCD\test\Pain Drain\libraries\lvgl\src\widgets/lv_bar.c ****         mask_indic_max_area.x1 = obj->coords.x1 + (barw / 2) - (LV_BAR_SIZE_MIN / 2);
 1166              		.loc 2 476 0
 1167 051c D145     		cmp	r9, r10
 1168 051e 11DD     		ble	.L33
 1169              	.LVL133:
 1170              	.LBB117:
 1171              	.LBB118:
 125:c:\projects\paindrain\arduinolcd\test\pain drain\libraries\lvgl\src\misc\lv_area.h **** }
 1172              		.loc 1 125 0
 1173 0520 DF1B     		subs	r7, r3, r7
 1174 0522 0137     		adds	r7, r7, #1
 1175 0524 3FB2     		sxth	r7, r7
 1176              	.LVL134:
 1177              	.LBE118:
 1178              	.LBE117:
 476:..\..\..\arduinoLCD\test\Pain Drain\libraries\lvgl\src\widgets/lv_bar.c ****         mask_indic_max_area.x1 = obj->coords.x1 + (barw / 2) - (LV_BAR_SIZE_MIN / 2);
 1179              		.loc 2 476 0
 1180 0526 032F     		cmp	r7, #3
 1181 0528 0CDC     		bgt	.L33
 477:..\..\..\arduinoLCD\test\Pain Drain\libraries\lvgl\src\widgets/lv_bar.c ****         mask_indic_max_area.x2 = mask_indic_max_area.x1 + LV_BAR_SIZE_MIN;
 1182              		.loc 2 477 0
 1183 052a 1423     		movs	r3, #20
 1184 052c E25E     		ldrsh	r2, [r4, r3]
 1185 052e 5346     		mov	r3, r10
 1186 0530 DB0F     		lsrs	r3, r3, #31
 1187 0532 5344     		add	r3, r3, r10
 1188 0534 5B10     		asrs	r3, r3, #1
 1189 0536 9B18     		adds	r3, r3, r2
 1190 0538 023B     		subs	r3, r3, #2
 1191 053a 9BB2     		uxth	r3, r3
 1192 053c 26AA     		add	r2, sp, #152
 1193 053e 1380     		strh	r3, [r2]
 478:..\..\..\arduinoLCD\test\Pain Drain\libraries\lvgl\src\widgets/lv_bar.c ****     }
 1194              		.loc 2 478 0
 1195 0540 0433     		adds	r3, r3, #4
 1196 0542 9380     		strh	r3, [r2, #4]
 1197              	.L33:
 484:..\..\..\arduinoLCD\test\Pain Drain\libraries\lvgl\src\widgets/lv_bar.c ****     int16_t mask_indic_id = lv_draw_mask_add(&mask_indic_param, NULL);
 1198              		.loc 2 484 0
 1199 0544 42AD     		add	r5, sp, #264
 1200 0546 0023     		movs	r3, #0
 1201 0548 EA5E     		ldrsh	r2, [r5, r3]
 1202 054a 0023     		movs	r3, #0
 1203 054c 0199     		ldr	r1, [sp, #4]
 1204 054e 8846     		mov	r8, r1
 1205 0550 20A8     		add	r0, sp, #128
 1206 0552 FFF7FEFF 		bl	lv_draw_mask_radius_init
 1207              	.LVL135:
ARM GAS  C:\Users\haske\AppData\Local\Temp\cc11ZRIl.s 			page 48


 485:..\..\..\arduinoLCD\test\Pain Drain\libraries\lvgl\src\widgets/lv_bar.c **** #endif
 1208              		.loc 2 485 0
 1209 0556 0021     		movs	r1, #0
 1210 0558 20A8     		add	r0, sp, #128
 1211 055a FFF7FEFF 		bl	lv_draw_mask_add
 1212              	.LVL136:
 1213 055e 0700     		movs	r7, r0
 1214              	.LVL137:
 488:..\..\..\arduinoLCD\test\Pain Drain\libraries\lvgl\src\widgets/lv_bar.c ****     draw_rect_dsc.border_opa = border_opa;
 1215              		.loc 2 488 0
 1216 0560 26AA     		add	r2, sp, #152
 1217 0562 2900     		movs	r1, r5
 1218 0564 0398     		ldr	r0, [sp, #12]
 1219 0566 FFF7FEFF 		bl	lv_draw_rect
 1220              	.LVL138:
 489:..\..\..\arduinoLCD\test\Pain Drain\libraries\lvgl\src\widgets/lv_bar.c ****     draw_rect_dsc.shadow_opa = shadow_opa;
 1221              		.loc 2 489 0
 1222 056a 2223     		movs	r3, #34
 1223 056c EE54     		strb	r6, [r5, r3]
 493:..\..\..\arduinoLCD\test\Pain Drain\libraries\lvgl\src\widgets/lv_bar.c ****     draw_rect_dsc.bg_img_opa = LV_OPA_TRANSP;
 1224              		.loc 2 493 0
 1225 056e 0023     		movs	r3, #0
 1226 0570 EB70     		strb	r3, [r5, #3]
 494:..\..\..\arduinoLCD\test\Pain Drain\libraries\lvgl\src\widgets/lv_bar.c ****     draw_rect_dsc.shadow_opa = LV_OPA_TRANSP;
 1227              		.loc 2 494 0
 1228 0572 AB76     		strb	r3, [r5, #26]
 495:..\..\..\arduinoLCD\test\Pain Drain\libraries\lvgl\src\widgets/lv_bar.c ****     lv_draw_rect(draw_ctx, &draw_rect_dsc, &bar->indic_area);
 1229              		.loc 2 495 0
 1230 0574 3622     		movs	r2, #54
 1231 0576 AB54     		strb	r3, [r5, r2]
 496:..\..\..\arduinoLCD\test\Pain Drain\libraries\lvgl\src\widgets/lv_bar.c **** 
 1232              		.loc 2 496 0
 1233 0578 4246     		mov	r2, r8
 1234 057a 2900     		movs	r1, r5
 1235 057c 0398     		ldr	r0, [sp, #12]
 1236 057e FFF7FEFF 		bl	lv_draw_rect
 1237              	.LVL139:
 499:..\..\..\arduinoLCD\test\Pain Drain\libraries\lvgl\src\widgets/lv_bar.c ****     lv_draw_mask_free_param(&mask_bg_param);
 1238              		.loc 2 499 0
 1239 0582 20A8     		add	r0, sp, #128
 1240 0584 FFF7FEFF 		bl	lv_draw_mask_free_param
 1241              	.LVL140:
 500:..\..\..\arduinoLCD\test\Pain Drain\libraries\lvgl\src\widgets/lv_bar.c ****     lv_draw_mask_remove_id(mask_indic_id);
 1242              		.loc 2 500 0
 1243 0588 2AA8     		add	r0, sp, #168
 1244 058a FFF7FEFF 		bl	lv_draw_mask_free_param
 1245              	.LVL141:
 501:..\..\..\arduinoLCD\test\Pain Drain\libraries\lvgl\src\widgets/lv_bar.c ****     lv_draw_mask_remove_id(mask_bg_id);
 1246              		.loc 2 501 0
 1247 058e 3800     		movs	r0, r7
 1248 0590 FFF7FEFF 		bl	lv_draw_mask_remove_id
 1249              	.LVL142:
 502:..\..\..\arduinoLCD\test\Pain Drain\libraries\lvgl\src\widgets/lv_bar.c **** #endif
 1250              		.loc 2 502 0
 1251 0594 0298     		ldr	r0, [sp, #8]
 1252 0596 FFF7FEFF 		bl	lv_draw_mask_remove_id
 1253              	.LVL143:
ARM GAS  C:\Users\haske\AppData\Local\Temp\cc11ZRIl.s 			page 49


 505:..\..\..\arduinoLCD\test\Pain Drain\libraries\lvgl\src\widgets/lv_bar.c **** }
 1254              		.loc 2 505 0
 1255 059a 30AA     		add	r2, sp, #192
 1256 059c 1B21     		movs	r1, #27
 1257 059e 2000     		movs	r0, r4
 1258 05a0 FFF7FEFF 		bl	lv_event_send
 1259              	.LVL144:
 1260              	.L4:
 506:..\..\..\arduinoLCD\test\Pain Drain\libraries\lvgl\src\widgets/lv_bar.c **** 
 1261              		.loc 2 506 0
 1262 05a4 53B0     		add	sp, sp, #332
 1263              		@ sp needed
 1264              	.LVL145:
 1265              	.LVL146:
 1266 05a6 3CBC     		pop	{r2, r3, r4, r5}
 1267 05a8 9046     		mov	r8, r2
 1268 05aa 9946     		mov	r9, r3
 1269 05ac A246     		mov	r10, r4
 1270 05ae AB46     		mov	fp, r5
 1271 05b0 F0BD     		pop	{r4, r5, r6, r7, pc}
 1272              		.cfi_endproc
 1273              	.LFE171:
 1274              		.size	draw_indic, .-draw_indic
 1275 05b2 C046     		.section	.text.lv_bar_event,"ax",%progbits
 1276              		.align	2
 1277              		.code	16
 1278              		.thumb_func
 1279              		.type	lv_bar_event, %function
 1280              	lv_bar_event:
 1281              	.LFB172:
 509:..\..\..\arduinoLCD\test\Pain Drain\libraries\lvgl\src\widgets/lv_bar.c ****     LV_UNUSED(class_p);
 1282              		.loc 2 509 0
 1283              		.cfi_startproc
 1284              		@ args = 0, pretend = 0, frame = 0
 1285              		@ frame_needed = 0, uses_anonymous_args = 0
 1286              	.LVL147:
 1287 0000 F0B5     		push	{r4, r5, r6, r7, lr}
 1288              		.cfi_def_cfa_offset 20
 1289              		.cfi_offset 4, -20
 1290              		.cfi_offset 5, -16
 1291              		.cfi_offset 6, -12
 1292              		.cfi_offset 7, -8
 1293              		.cfi_offset 14, -4
 1294 0002 4746     		mov	r7, r8
 1295 0004 80B4     		push	{r7}
 1296              		.cfi_def_cfa_offset 24
 1297              		.cfi_offset 8, -24
 1298 0006 0C00     		movs	r4, r1
 515:..\..\..\arduinoLCD\test\Pain Drain\libraries\lvgl\src\widgets/lv_bar.c ****     if(res != LV_RES_OK) return;
 1299              		.loc 2 515 0
 1300 0008 3148     		ldr	r0, .L51
 1301              	.LVL148:
 1302 000a FFF7FEFF 		bl	lv_obj_event_base
 1303              	.LVL149:
 516:..\..\..\arduinoLCD\test\Pain Drain\libraries\lvgl\src\widgets/lv_bar.c **** 
 1304              		.loc 2 516 0
 1305 000e 0128     		cmp	r0, #1
ARM GAS  C:\Users\haske\AppData\Local\Temp\cc11ZRIl.s 			page 50


 1306 0010 5AD1     		bne	.L41
 518:..\..\..\arduinoLCD\test\Pain Drain\libraries\lvgl\src\widgets/lv_bar.c ****     lv_obj_t * obj = lv_event_get_target(e);
 1307              		.loc 2 518 0
 1308 0012 2000     		movs	r0, r4
 1309              	.LVL150:
 1310 0014 FFF7FEFF 		bl	lv_event_get_code
 1311              	.LVL151:
 1312 0018 0500     		movs	r5, r0
 1313              	.LVL152:
 519:..\..\..\arduinoLCD\test\Pain Drain\libraries\lvgl\src\widgets/lv_bar.c **** 
 1314              		.loc 2 519 0
 1315 001a 2000     		movs	r0, r4
 1316              	.LVL153:
 1317 001c FFF7FEFF 		bl	lv_event_get_target
 1318              	.LVL154:
 1319 0020 0600     		movs	r6, r0
 1320              	.LVL155:
 521:..\..\..\arduinoLCD\test\Pain Drain\libraries\lvgl\src\widgets/lv_bar.c ****         lv_coord_t indic_size;
 1321              		.loc 2 521 0
 1322 0022 132D     		cmp	r5, #19
 1323 0024 41D1     		bne	.L43
 1324              	.LBB119:
 523:..\..\..\arduinoLCD\test\Pain Drain\libraries\lvgl\src\widgets/lv_bar.c **** 
 1325              		.loc 2 523 0
 1326 0026 8021     		movs	r1, #128
 1327 0028 8902     		lsls	r1, r1, #10
 1328 002a FFF7FEFF 		bl	lv_obj_calculate_ext_draw_size
 1329              	.LVL156:
 1330 002e 0700     		movs	r7, r0
 1331              	.LVL157:
 526:..\..\..\arduinoLCD\test\Pain Drain\libraries\lvgl\src\widgets/lv_bar.c ****         *s = LV_MAX(*s, indic_size);
 1332              		.loc 2 526 0
 1333 0030 2000     		movs	r0, r4
 1334 0032 FFF7FEFF 		bl	lv_event_get_param
 1335              	.LVL158:
 1336 0036 0500     		movs	r5, r0
 1337              	.LVL159:
 527:..\..\..\arduinoLCD\test\Pain Drain\libraries\lvgl\src\widgets/lv_bar.c **** 
 1338              		.loc 2 527 0
 1339 0038 0023     		movs	r3, #0
 1340 003a C25E     		ldrsh	r2, [r0, r3]
 1341 003c 3B1C     		adds	r3, r7, #0
 1342 003e 9742     		cmp	r7, r2
 1343 0040 00DA     		bge	.L44
 1344 0042 131C     		adds	r3, r2, #0
 1345              	.L44:
 1346 0044 2B80     		strh	r3, [r5]
 1347              	.LVL160:
 1348              	.LBB120:
 1349              	.LBB121:
 117:..\..\..\arduinoLCD\test\Pain Drain\libraries\lvgl\src\widgets\../core/lv_obj_style_gen.h ****     return (lv_coord_t)v.num;
 1350              		.loc 3 117 0
 1351 0046 1222     		movs	r2, #18
 1352 0048 0021     		movs	r1, #0
 1353 004a 3000     		movs	r0, r6
 1354              	.LVL161:
 1355 004c FFF7FEFF 		bl	lv_obj_get_style_prop
ARM GAS  C:\Users\haske\AppData\Local\Temp\cc11ZRIl.s 			page 51


 1356              	.LVL162:
 118:..\..\..\arduinoLCD\test\Pain Drain\libraries\lvgl\src\widgets\../core/lv_obj_style_gen.h **** }
 1357              		.loc 3 118 0
 1358 0050 07B2     		sxth	r7, r0
 1359              	.LVL163:
 1360              	.LBE121:
 1361              	.LBE120:
 1362              	.LBB122:
 1363              	.LBB123:
 123:..\..\..\arduinoLCD\test\Pain Drain\libraries\lvgl\src\widgets\../core/lv_obj_style_gen.h ****     return (lv_coord_t)v.num;
 1364              		.loc 3 123 0
 1365 0052 1322     		movs	r2, #19
 1366 0054 0021     		movs	r1, #0
 1367 0056 3000     		movs	r0, r6
 1368 0058 FFF7FEFF 		bl	lv_obj_get_style_prop
 1369              	.LVL164:
 124:..\..\..\arduinoLCD\test\Pain Drain\libraries\lvgl\src\widgets\../core/lv_obj_style_gen.h **** }
 1370              		.loc 3 124 0
 1371 005c 04B2     		sxth	r4, r0
 1372              	.LVL165:
 1373              	.LBE123:
 1374              	.LBE122:
 1375              	.LBB124:
 1376              	.LBB125:
 105:..\..\..\arduinoLCD\test\Pain Drain\libraries\lvgl\src\widgets\../core/lv_obj_style_gen.h ****     return (lv_coord_t)v.num;
 1377              		.loc 3 105 0
 1378 005e 1022     		movs	r2, #16
 1379 0060 0021     		movs	r1, #0
 1380 0062 3000     		movs	r0, r6
 1381 0064 FFF7FEFF 		bl	lv_obj_get_style_prop
 1382              	.LVL166:
 106:..\..\..\arduinoLCD\test\Pain Drain\libraries\lvgl\src\widgets\../core/lv_obj_style_gen.h **** }
 1383              		.loc 3 106 0
 1384 0068 03B2     		sxth	r3, r0
 1385 006a 9846     		mov	r8, r3
 1386              	.LVL167:
 1387              	.LBE125:
 1388              	.LBE124:
 1389              	.LBB126:
 1390              	.LBB127:
 111:..\..\..\arduinoLCD\test\Pain Drain\libraries\lvgl\src\widgets\../core/lv_obj_style_gen.h ****     return (lv_coord_t)v.num;
 1391              		.loc 3 111 0
 1392 006c 1122     		movs	r2, #17
 1393 006e 0021     		movs	r1, #0
 1394 0070 3000     		movs	r0, r6
 1395 0072 FFF7FEFF 		bl	lv_obj_get_style_prop
 1396              	.LVL168:
 112:..\..\..\arduinoLCD\test\Pain Drain\libraries\lvgl\src\widgets\../core/lv_obj_style_gen.h **** }
 1397              		.loc 3 112 0
 1398 0076 00B2     		sxth	r0, r0
 1399              	.LVL169:
 1400              	.LBE127:
 1401              	.LBE126:
 535:..\..\..\arduinoLCD\test\Pain Drain\libraries\lvgl\src\widgets/lv_bar.c ****         if(pad < 0) {
 1402              		.loc 2 535 0
 1403 0078 031C     		adds	r3, r0, #0
 1404 007a 4045     		cmp	r0, r8
ARM GAS  C:\Users\haske\AppData\Local\Temp\cc11ZRIl.s 			page 52


 1405 007c 00DD     		ble	.L45
 1406 007e 4346     		mov	r3, r8
 1407              	.L45:
 1408 0080 1BB2     		sxth	r3, r3
 1409 0082 211C     		adds	r1, r4, #0
 1410 0084 BC42     		cmp	r4, r7
 1411 0086 00DD     		ble	.L46
 1412 0088 391C     		adds	r1, r7, #0
 1413              	.L46:
 1414 008a 1A1C     		adds	r2, r3, #0
 1415 008c 08B2     		sxth	r0, r1
 1416 008e 8342     		cmp	r3, r0
 1417 0090 00DD     		ble	.L47
 1418 0092 0A1C     		adds	r2, r1, #0
 1419              	.L47:
 1420 0094 12B2     		sxth	r2, r2
 1421              	.LVL170:
 536:..\..\..\arduinoLCD\test\Pain Drain\libraries\lvgl\src\widgets/lv_bar.c ****             *s = LV_MAX(*s, -pad);
 1422              		.loc 2 536 0
 1423 0096 002A     		cmp	r2, #0
 1424 0098 16DA     		bge	.L41
 537:..\..\..\arduinoLCD\test\Pain Drain\libraries\lvgl\src\widgets/lv_bar.c ****         }
 1425              		.loc 2 537 0
 1426 009a 5242     		rsbs	r2, r2, #0
 1427              	.LVL171:
 1428 009c 0021     		movs	r1, #0
 1429 009e 6B5E     		ldrsh	r3, [r5, r1]
 1430 00a0 9342     		cmp	r3, r2
 1431 00a2 00DA     		bge	.L48
 1432 00a4 1300     		movs	r3, r2
 1433              	.L48:
 1434 00a6 2B80     		strh	r3, [r5]
 1435 00a8 0EE0     		b	.L41
 1436              	.LVL172:
 1437              	.L43:
 1438              	.LBE119:
 540:..\..\..\arduinoLCD\test\Pain Drain\libraries\lvgl\src\widgets/lv_bar.c ****         lv_bar_t * bar = (lv_bar_t *)obj;
 1439              		.loc 2 540 0
 1440 00aa 012D     		cmp	r5, #1
 1441 00ac 01D0     		beq	.L49
 540:..\..\..\arduinoLCD\test\Pain Drain\libraries\lvgl\src\widgets/lv_bar.c ****         lv_bar_t * bar = (lv_bar_t *)obj;
 1442              		.loc 2 540 0 is_stmt 0 discriminator 1
 1443 00ae 082D     		cmp	r5, #8
 1444 00b0 05D1     		bne	.L50
 1445              	.L49:
 1446              	.LVL173:
 1447              	.LBB128:
 542:..\..\..\arduinoLCD\test\Pain Drain\libraries\lvgl\src\widgets/lv_bar.c ****     }
 1448              		.loc 2 542 0 is_stmt 1
 1449 00b2 3100     		movs	r1, r6
 1450 00b4 3431     		adds	r1, r1, #52
 1451 00b6 3000     		movs	r0, r6
 1452              	.LVL174:
 1453 00b8 FFF7FEFF 		bl	lv_obj_invalidate_area
 1454              	.LVL175:
 1455              	.LBE128:
 540:..\..\..\arduinoLCD\test\Pain Drain\libraries\lvgl\src\widgets/lv_bar.c ****         lv_bar_t * bar = (lv_bar_t *)obj;
ARM GAS  C:\Users\haske\AppData\Local\Temp\cc11ZRIl.s 			page 53


 1456              		.loc 2 540 0
 1457 00bc 04E0     		b	.L41
 1458              	.LVL176:
 1459              	.L50:
 544:..\..\..\arduinoLCD\test\Pain Drain\libraries\lvgl\src\widgets/lv_bar.c ****         draw_indic(e);
 1460              		.loc 2 544 0
 1461 00be 152D     		cmp	r5, #21
 1462 00c0 02D1     		bne	.L41
 545:..\..\..\arduinoLCD\test\Pain Drain\libraries\lvgl\src\widgets/lv_bar.c ****     }
 1463              		.loc 2 545 0
 1464 00c2 2000     		movs	r0, r4
 1465              	.LVL177:
 1466 00c4 FFF7FEFF 		bl	draw_indic
 1467              	.LVL178:
 1468              	.L41:
 547:..\..\..\arduinoLCD\test\Pain Drain\libraries\lvgl\src\widgets/lv_bar.c **** 
 1469              		.loc 2 547 0
 1470              		@ sp needed
 1471 00c8 04BC     		pop	{r2}
 1472 00ca 9046     		mov	r8, r2
 1473 00cc F0BD     		pop	{r4, r5, r6, r7, pc}
 1474              	.L52:
 1475 00ce C046     		.align	2
 1476              	.L51:
 1477 00d0 00000000 		.word	.LANCHOR0
 1478              		.cfi_endproc
 1479              	.LFE172:
 1480              		.size	lv_bar_event, .-lv_bar_event
 1481              		.section	.text.lv_bar_destructor,"ax",%progbits
 1482              		.align	2
 1483              		.code	16
 1484              		.thumb_func
 1485              		.type	lv_bar_destructor, %function
 1486              	lv_bar_destructor:
 1487              	.LFB170:
 235:..\..\..\arduinoLCD\test\Pain Drain\libraries\lvgl\src\widgets/lv_bar.c ****     LV_UNUSED(class_p);
 1488              		.loc 2 235 0
 1489              		.cfi_startproc
 1490              		@ args = 0, pretend = 0, frame = 0
 1491              		@ frame_needed = 0, uses_anonymous_args = 0
 1492              	.LVL179:
 1493 0000 10B5     		push	{r4, lr}
 1494              		.cfi_def_cfa_offset 8
 1495              		.cfi_offset 4, -8
 1496              		.cfi_offset 14, -4
 1497 0002 0C00     		movs	r4, r1
 1498              	.LVL180:
 239:..\..\..\arduinoLCD\test\Pain Drain\libraries\lvgl\src\widgets/lv_bar.c ****     lv_anim_del(&bar->start_value_anim, NULL);
 1499              		.loc 2 239 0
 1500 0004 0800     		movs	r0, r1
 1501              	.LVL181:
 1502 0006 3C30     		adds	r0, r0, #60
 1503 0008 0021     		movs	r1, #0
 1504              	.LVL182:
 1505 000a FFF7FEFF 		bl	lv_anim_del
 1506              	.LVL183:
 240:..\..\..\arduinoLCD\test\Pain Drain\libraries\lvgl\src\widgets/lv_bar.c **** }
ARM GAS  C:\Users\haske\AppData\Local\Temp\cc11ZRIl.s 			page 54


 1507              		.loc 2 240 0
 1508 000e 2000     		movs	r0, r4
 1509 0010 4C30     		adds	r0, r0, #76
 1510 0012 0021     		movs	r1, #0
 1511 0014 FFF7FEFF 		bl	lv_anim_del
 1512              	.LVL184:
 241:..\..\..\arduinoLCD\test\Pain Drain\libraries\lvgl\src\widgets/lv_bar.c **** 
 1513              		.loc 2 241 0
 1514              		@ sp needed
 1515              	.LVL185:
 1516 0018 10BD     		pop	{r4, pc}
 1517              		.cfi_endproc
 1518              	.LFE170:
 1519              		.size	lv_bar_destructor, .-lv_bar_destructor
 1520 001a C046     		.section	.text.lv_bar_anim_ready,"ax",%progbits
 1521              		.align	2
 1522              		.code	16
 1523              		.thumb_func
 1524              		.type	lv_bar_anim_ready, %function
 1525              	lv_bar_anim_ready:
 1526              	.LFB174:
 557:..\..\..\arduinoLCD\test\Pain Drain\libraries\lvgl\src\widgets/lv_bar.c ****     _lv_bar_anim_t * var = a->var;
 1527              		.loc 2 557 0
 1528              		.cfi_startproc
 1529              		@ args = 0, pretend = 0, frame = 0
 1530              		@ frame_needed = 0, uses_anonymous_args = 0
 1531              	.LVL186:
 1532 0000 10B5     		push	{r4, lr}
 1533              		.cfi_def_cfa_offset 8
 1534              		.cfi_offset 4, -8
 1535              		.cfi_offset 14, -4
 558:..\..\..\arduinoLCD\test\Pain Drain\libraries\lvgl\src\widgets/lv_bar.c ****     lv_obj_t * obj = (lv_obj_t *)var->bar;
 1536              		.loc 2 558 0
 1537 0002 0368     		ldr	r3, [r0]
 1538              	.LVL187:
 559:..\..\..\arduinoLCD\test\Pain Drain\libraries\lvgl\src\widgets/lv_bar.c ****     lv_bar_t * bar = (lv_bar_t *)obj;
 1539              		.loc 2 559 0
 1540 0004 1A68     		ldr	r2, [r3]
 1541              	.LVL188:
 562:..\..\..\arduinoLCD\test\Pain Drain\libraries\lvgl\src\widgets/lv_bar.c ****     if(var == &bar->cur_value_anim)
 1542              		.loc 2 562 0
 1543 0006 0121     		movs	r1, #1
 1544 0008 4942     		rsbs	r1, r1, #0
 1545 000a D960     		str	r1, [r3, #12]
 563:..\..\..\arduinoLCD\test\Pain Drain\libraries\lvgl\src\widgets/lv_bar.c ****         bar->cur_value = var->anim_end;
 1546              		.loc 2 563 0
 1547 000c 1100     		movs	r1, r2
 1548 000e 3C31     		adds	r1, r1, #60
 1549 0010 8B42     		cmp	r3, r1
 1550 0012 02D1     		bne	.L55
 564:..\..\..\arduinoLCD\test\Pain Drain\libraries\lvgl\src\widgets/lv_bar.c ****     else if(var == &bar->start_value_anim)
 1551              		.loc 2 564 0
 1552 0014 9968     		ldr	r1, [r3, #8]
 1553 0016 5162     		str	r1, [r2, #36]
 1554 0018 05E0     		b	.L56
 1555              	.L55:
 565:..\..\..\arduinoLCD\test\Pain Drain\libraries\lvgl\src\widgets/lv_bar.c ****         bar->start_value = var->anim_end;
ARM GAS  C:\Users\haske\AppData\Local\Temp\cc11ZRIl.s 			page 55


 1556              		.loc 2 565 0
 1557 001a 1100     		movs	r1, r2
 1558 001c 4C31     		adds	r1, r1, #76
 1559 001e 8B42     		cmp	r3, r1
 1560 0020 01D1     		bne	.L56
 566:..\..\..\arduinoLCD\test\Pain Drain\libraries\lvgl\src\widgets/lv_bar.c ****     lv_obj_invalidate(var->bar);
 1561              		.loc 2 566 0
 1562 0022 9968     		ldr	r1, [r3, #8]
 1563 0024 1163     		str	r1, [r2, #48]
 1564              	.L56:
 567:..\..\..\arduinoLCD\test\Pain Drain\libraries\lvgl\src\widgets/lv_bar.c **** }
 1565              		.loc 2 567 0
 1566 0026 1868     		ldr	r0, [r3]
 1567              	.LVL189:
 1568 0028 FFF7FEFF 		bl	lv_obj_invalidate
 1569              	.LVL190:
 568:..\..\..\arduinoLCD\test\Pain Drain\libraries\lvgl\src\widgets/lv_bar.c **** 
 1570              		.loc 2 568 0
 1571              		@ sp needed
 1572 002c 10BD     		pop	{r4, pc}
 1573              		.cfi_endproc
 1574              	.LFE174:
 1575              		.size	lv_bar_anim_ready, .-lv_bar_anim_ready
 1576 002e C046     		.section	.text.lv_bar_anim,"ax",%progbits
 1577              		.align	2
 1578              		.code	16
 1579              		.thumb_func
 1580              		.type	lv_bar_anim, %function
 1581              	lv_bar_anim:
 1582              	.LFB173:
 550:..\..\..\arduinoLCD\test\Pain Drain\libraries\lvgl\src\widgets/lv_bar.c ****     _lv_bar_anim_t * bar_anim = var;
 1583              		.loc 2 550 0
 1584              		.cfi_startproc
 1585              		@ args = 0, pretend = 0, frame = 0
 1586              		@ frame_needed = 0, uses_anonymous_args = 0
 1587              	.LVL191:
 1588 0000 10B5     		push	{r4, lr}
 1589              		.cfi_def_cfa_offset 8
 1590              		.cfi_offset 4, -8
 1591              		.cfi_offset 14, -4
 1592              	.LVL192:
 552:..\..\..\arduinoLCD\test\Pain Drain\libraries\lvgl\src\widgets/lv_bar.c ****     lv_obj_invalidate(bar_anim->bar);
 1593              		.loc 2 552 0
 1594 0002 C160     		str	r1, [r0, #12]
 553:..\..\..\arduinoLCD\test\Pain Drain\libraries\lvgl\src\widgets/lv_bar.c **** }
 1595              		.loc 2 553 0
 1596 0004 0068     		ldr	r0, [r0]
 1597              	.LVL193:
 1598 0006 FFF7FEFF 		bl	lv_obj_invalidate
 1599              	.LVL194:
 554:..\..\..\arduinoLCD\test\Pain Drain\libraries\lvgl\src\widgets/lv_bar.c **** 
 1600              		.loc 2 554 0
 1601              		@ sp needed
 1602 000a 10BD     		pop	{r4, pc}
 1603              		.cfi_endproc
 1604              	.LFE173:
 1605              		.size	lv_bar_anim, .-lv_bar_anim
ARM GAS  C:\Users\haske\AppData\Local\Temp\cc11ZRIl.s 			page 56


 1606              		.section	.text.lv_bar_set_value_with_anim,"ax",%progbits
 1607              		.align	2
 1608              		.code	16
 1609              		.thumb_func
 1610              		.type	lv_bar_set_value_with_anim, %function
 1611              	lv_bar_set_value_with_anim:
 1612              	.LFB175:
 572:..\..\..\arduinoLCD\test\Pain Drain\libraries\lvgl\src\widgets/lv_bar.c ****     if(en == LV_ANIM_OFF) {
 1613              		.loc 2 572 0
 1614              		.cfi_startproc
 1615              		@ args = 4, pretend = 0, frame = 72
 1616              		@ frame_needed = 0, uses_anonymous_args = 0
 1617              	.LVL195:
 1618 0000 F0B5     		push	{r4, r5, r6, r7, lr}
 1619              		.cfi_def_cfa_offset 20
 1620              		.cfi_offset 4, -20
 1621              		.cfi_offset 5, -16
 1622              		.cfi_offset 6, -12
 1623              		.cfi_offset 7, -8
 1624              		.cfi_offset 14, -4
 1625 0002 93B0     		sub	sp, sp, #76
 1626              		.cfi_def_cfa_offset 96
 1627 0004 0600     		movs	r6, r0
 1628 0006 0D00     		movs	r5, r1
 1629 0008 1700     		movs	r7, r2
 1630 000a 1C00     		movs	r4, r3
 1631 000c 18AB     		add	r3, sp, #96
 1632              	.LVL196:
 1633 000e 1B78     		ldrb	r3, [r3]
 1634              	.LVL197:
 573:..\..\..\arduinoLCD\test\Pain Drain\libraries\lvgl\src\widgets/lv_bar.c ****         lv_anim_del(anim_info, NULL);
 1635              		.loc 2 573 0
 1636 0010 002B     		cmp	r3, #0
 1637 0012 0BD1     		bne	.L59
 574:..\..\..\arduinoLCD\test\Pain Drain\libraries\lvgl\src\widgets/lv_bar.c ****         anim_info->anim_state = LV_BAR_ANIM_STATE_INV;
 1638              		.loc 2 574 0
 1639 0014 0021     		movs	r1, #0
 1640              	.LVL198:
 1641 0016 2000     		movs	r0, r4
 1642              	.LVL199:
 1643 0018 FFF7FEFF 		bl	lv_anim_del
 1644              	.LVL200:
 575:..\..\..\arduinoLCD\test\Pain Drain\libraries\lvgl\src\widgets/lv_bar.c ****         *value_ptr = new_value;
 1645              		.loc 2 575 0
 1646 001c 0123     		movs	r3, #1
 1647 001e 5B42     		rsbs	r3, r3, #0
 1648 0020 E360     		str	r3, [r4, #12]
 576:..\..\..\arduinoLCD\test\Pain Drain\libraries\lvgl\src\widgets/lv_bar.c ****         lv_obj_invalidate((lv_obj_t *)obj);
 1649              		.loc 2 576 0
 1650 0022 3D60     		str	r5, [r7]
 577:..\..\..\arduinoLCD\test\Pain Drain\libraries\lvgl\src\widgets/lv_bar.c ****     }
 1651              		.loc 2 577 0
 1652 0024 3000     		movs	r0, r6
 1653 0026 FFF7FEFF 		bl	lv_obj_invalidate
 1654              	.LVL201:
 1655 002a 25E0     		b	.L58
 1656              	.LVL202:
ARM GAS  C:\Users\haske\AppData\Local\Temp\cc11ZRIl.s 			page 57


 1657              	.L59:
 1658              	.LBB129:
 581:..\..\..\arduinoLCD\test\Pain Drain\libraries\lvgl\src\widgets/lv_bar.c ****             anim_info->anim_start = *value_ptr;
 1659              		.loc 2 581 0
 1660 002c E368     		ldr	r3, [r4, #12]
 1661 002e 0133     		adds	r3, r3, #1
 1662 0030 03D1     		bne	.L61
 582:..\..\..\arduinoLCD\test\Pain Drain\libraries\lvgl\src\widgets/lv_bar.c ****             anim_info->anim_end   = new_value;
 1663              		.loc 2 582 0
 1664 0032 1368     		ldr	r3, [r2]
 1665 0034 6360     		str	r3, [r4, #4]
 583:..\..\..\arduinoLCD\test\Pain Drain\libraries\lvgl\src\widgets/lv_bar.c ****         }
 1666              		.loc 2 583 0
 1667 0036 A160     		str	r1, [r4, #8]
 1668 0038 02E0     		b	.L62
 1669              	.L61:
 587:..\..\..\arduinoLCD\test\Pain Drain\libraries\lvgl\src\widgets/lv_bar.c ****             anim_info->anim_end   = new_value;
 1670              		.loc 2 587 0
 1671 003a A368     		ldr	r3, [r4, #8]
 1672 003c 6360     		str	r3, [r4, #4]
 588:..\..\..\arduinoLCD\test\Pain Drain\libraries\lvgl\src\widgets/lv_bar.c ****         }
 1673              		.loc 2 588 0
 1674 003e A160     		str	r1, [r4, #8]
 1675              	.L62:
 590:..\..\..\arduinoLCD\test\Pain Drain\libraries\lvgl\src\widgets/lv_bar.c ****         /*Stop the previous animation if it exists*/
 1676              		.loc 2 590 0
 1677 0040 3D60     		str	r5, [r7]
 592:..\..\..\arduinoLCD\test\Pain Drain\libraries\lvgl\src\widgets/lv_bar.c **** 
 1678              		.loc 2 592 0
 1679 0042 0021     		movs	r1, #0
 1680              	.LVL203:
 1681 0044 2000     		movs	r0, r4
 1682              	.LVL204:
 1683 0046 FFF7FEFF 		bl	lv_anim_del
 1684              	.LVL205:
 595:..\..\..\arduinoLCD\test\Pain Drain\libraries\lvgl\src\widgets/lv_bar.c ****         lv_anim_set_var(&a, anim_info);
 1685              		.loc 2 595 0
 1686 004a 01A8     		add	r0, sp, #4
 1687 004c FFF7FEFF 		bl	lv_anim_init
 1688              	.LVL206:
 1689              	.LBB130:
 1690              	.LBB131:
 1691              		.file 4 "c:\\projects\\paindrain\\arduinolcd\\test\\pain drain\\libraries\\lvgl\\src\\misc\\lv_ani
   1:c:\projects\paindrain\arduinolcd\test\pain drain\libraries\lvgl\src\misc\lv_anim.h **** /**
   2:c:\projects\paindrain\arduinolcd\test\pain drain\libraries\lvgl\src\misc\lv_anim.h ****  * @file lv_anim.h
   3:c:\projects\paindrain\arduinolcd\test\pain drain\libraries\lvgl\src\misc\lv_anim.h ****  *
   4:c:\projects\paindrain\arduinolcd\test\pain drain\libraries\lvgl\src\misc\lv_anim.h ****  */
   5:c:\projects\paindrain\arduinolcd\test\pain drain\libraries\lvgl\src\misc\lv_anim.h **** 
   6:c:\projects\paindrain\arduinolcd\test\pain drain\libraries\lvgl\src\misc\lv_anim.h **** #ifndef LV_ANIM_H
   7:c:\projects\paindrain\arduinolcd\test\pain drain\libraries\lvgl\src\misc\lv_anim.h **** #define LV_ANIM_H
   8:c:\projects\paindrain\arduinolcd\test\pain drain\libraries\lvgl\src\misc\lv_anim.h **** 
   9:c:\projects\paindrain\arduinolcd\test\pain drain\libraries\lvgl\src\misc\lv_anim.h **** #ifdef __cplusplus
  10:c:\projects\paindrain\arduinolcd\test\pain drain\libraries\lvgl\src\misc\lv_anim.h **** extern "C" {
  11:c:\projects\paindrain\arduinolcd\test\pain drain\libraries\lvgl\src\misc\lv_anim.h **** #endif
  12:c:\projects\paindrain\arduinolcd\test\pain drain\libraries\lvgl\src\misc\lv_anim.h **** 
  13:c:\projects\paindrain\arduinolcd\test\pain drain\libraries\lvgl\src\misc\lv_anim.h **** /*********************
  14:c:\projects\paindrain\arduinolcd\test\pain drain\libraries\lvgl\src\misc\lv_anim.h ****  *      INCLUDES
ARM GAS  C:\Users\haske\AppData\Local\Temp\cc11ZRIl.s 			page 58


  15:c:\projects\paindrain\arduinolcd\test\pain drain\libraries\lvgl\src\misc\lv_anim.h ****  *********************/
  16:c:\projects\paindrain\arduinolcd\test\pain drain\libraries\lvgl\src\misc\lv_anim.h **** #include "../lv_conf_internal.h"
  17:c:\projects\paindrain\arduinolcd\test\pain drain\libraries\lvgl\src\misc\lv_anim.h **** 
  18:c:\projects\paindrain\arduinolcd\test\pain drain\libraries\lvgl\src\misc\lv_anim.h **** #include <stdint.h>
  19:c:\projects\paindrain\arduinolcd\test\pain drain\libraries\lvgl\src\misc\lv_anim.h **** #include <stdbool.h>
  20:c:\projects\paindrain\arduinolcd\test\pain drain\libraries\lvgl\src\misc\lv_anim.h **** #include <stddef.h>
  21:c:\projects\paindrain\arduinolcd\test\pain drain\libraries\lvgl\src\misc\lv_anim.h **** 
  22:c:\projects\paindrain\arduinolcd\test\pain drain\libraries\lvgl\src\misc\lv_anim.h **** /*********************
  23:c:\projects\paindrain\arduinolcd\test\pain drain\libraries\lvgl\src\misc\lv_anim.h ****  *      DEFINES
  24:c:\projects\paindrain\arduinolcd\test\pain drain\libraries\lvgl\src\misc\lv_anim.h ****  *********************/
  25:c:\projects\paindrain\arduinolcd\test\pain drain\libraries\lvgl\src\misc\lv_anim.h **** 
  26:c:\projects\paindrain\arduinolcd\test\pain drain\libraries\lvgl\src\misc\lv_anim.h **** #define LV_ANIM_REPEAT_INFINITE      0xFFFF
  27:c:\projects\paindrain\arduinolcd\test\pain drain\libraries\lvgl\src\misc\lv_anim.h **** #define LV_ANIM_PLAYTIME_INFINITE    0xFFFFFFFF
  28:c:\projects\paindrain\arduinolcd\test\pain drain\libraries\lvgl\src\misc\lv_anim.h **** 
  29:c:\projects\paindrain\arduinolcd\test\pain drain\libraries\lvgl\src\misc\lv_anim.h **** LV_EXPORT_CONST_INT(LV_ANIM_REPEAT_INFINITE);
  30:c:\projects\paindrain\arduinolcd\test\pain drain\libraries\lvgl\src\misc\lv_anim.h **** LV_EXPORT_CONST_INT(LV_ANIM_PLAYTIME_INFINITE);
  31:c:\projects\paindrain\arduinolcd\test\pain drain\libraries\lvgl\src\misc\lv_anim.h **** 
  32:c:\projects\paindrain\arduinolcd\test\pain drain\libraries\lvgl\src\misc\lv_anim.h **** /**********************
  33:c:\projects\paindrain\arduinolcd\test\pain drain\libraries\lvgl\src\misc\lv_anim.h ****  *      TYPEDEFS
  34:c:\projects\paindrain\arduinolcd\test\pain drain\libraries\lvgl\src\misc\lv_anim.h ****  **********************/
  35:c:\projects\paindrain\arduinolcd\test\pain drain\libraries\lvgl\src\misc\lv_anim.h **** 
  36:c:\projects\paindrain\arduinolcd\test\pain drain\libraries\lvgl\src\misc\lv_anim.h **** /** Can be used to indicate if animations are enabled or disabled in a case*/
  37:c:\projects\paindrain\arduinolcd\test\pain drain\libraries\lvgl\src\misc\lv_anim.h **** typedef enum {
  38:c:\projects\paindrain\arduinolcd\test\pain drain\libraries\lvgl\src\misc\lv_anim.h ****     LV_ANIM_OFF,
  39:c:\projects\paindrain\arduinolcd\test\pain drain\libraries\lvgl\src\misc\lv_anim.h ****     LV_ANIM_ON,
  40:c:\projects\paindrain\arduinolcd\test\pain drain\libraries\lvgl\src\misc\lv_anim.h **** } lv_anim_enable_t;
  41:c:\projects\paindrain\arduinolcd\test\pain drain\libraries\lvgl\src\misc\lv_anim.h **** 
  42:c:\projects\paindrain\arduinolcd\test\pain drain\libraries\lvgl\src\misc\lv_anim.h **** struct _lv_anim_t;
  43:c:\projects\paindrain\arduinolcd\test\pain drain\libraries\lvgl\src\misc\lv_anim.h **** struct _lv_timer_t;
  44:c:\projects\paindrain\arduinolcd\test\pain drain\libraries\lvgl\src\misc\lv_anim.h **** 
  45:c:\projects\paindrain\arduinolcd\test\pain drain\libraries\lvgl\src\misc\lv_anim.h **** /** Get the current value during an animation*/
  46:c:\projects\paindrain\arduinolcd\test\pain drain\libraries\lvgl\src\misc\lv_anim.h **** typedef int32_t (*lv_anim_path_cb_t)(const struct _lv_anim_t *);
  47:c:\projects\paindrain\arduinolcd\test\pain drain\libraries\lvgl\src\misc\lv_anim.h **** 
  48:c:\projects\paindrain\arduinolcd\test\pain drain\libraries\lvgl\src\misc\lv_anim.h **** /** Generic prototype of "animator" functions.
  49:c:\projects\paindrain\arduinolcd\test\pain drain\libraries\lvgl\src\misc\lv_anim.h ****  * First parameter is the variable to animate.
  50:c:\projects\paindrain\arduinolcd\test\pain drain\libraries\lvgl\src\misc\lv_anim.h ****  * Second parameter is the value to set.
  51:c:\projects\paindrain\arduinolcd\test\pain drain\libraries\lvgl\src\misc\lv_anim.h ****  * Compatible with `lv_xxx_set_yyy(obj, value)` functions
  52:c:\projects\paindrain\arduinolcd\test\pain drain\libraries\lvgl\src\misc\lv_anim.h ****  * The `x` in `_xcb_t` means it's not a fully generic prototype because
  53:c:\projects\paindrain\arduinolcd\test\pain drain\libraries\lvgl\src\misc\lv_anim.h ****  * it doesn't receive `lv_anim_t *` as its first argument*/
  54:c:\projects\paindrain\arduinolcd\test\pain drain\libraries\lvgl\src\misc\lv_anim.h **** typedef void (*lv_anim_exec_xcb_t)(void *, int32_t);
  55:c:\projects\paindrain\arduinolcd\test\pain drain\libraries\lvgl\src\misc\lv_anim.h **** 
  56:c:\projects\paindrain\arduinolcd\test\pain drain\libraries\lvgl\src\misc\lv_anim.h **** /** Same as `lv_anim_exec_xcb_t` but receives `lv_anim_t *` as the first parameter.
  57:c:\projects\paindrain\arduinolcd\test\pain drain\libraries\lvgl\src\misc\lv_anim.h ****  * It's more consistent but less convenient. Might be used by binding generator functions.*/
  58:c:\projects\paindrain\arduinolcd\test\pain drain\libraries\lvgl\src\misc\lv_anim.h **** typedef void (*lv_anim_custom_exec_cb_t)(struct _lv_anim_t *, int32_t);
  59:c:\projects\paindrain\arduinolcd\test\pain drain\libraries\lvgl\src\misc\lv_anim.h **** 
  60:c:\projects\paindrain\arduinolcd\test\pain drain\libraries\lvgl\src\misc\lv_anim.h **** /** Callback to call when the animation is ready*/
  61:c:\projects\paindrain\arduinolcd\test\pain drain\libraries\lvgl\src\misc\lv_anim.h **** typedef void (*lv_anim_ready_cb_t)(struct _lv_anim_t *);
  62:c:\projects\paindrain\arduinolcd\test\pain drain\libraries\lvgl\src\misc\lv_anim.h **** 
  63:c:\projects\paindrain\arduinolcd\test\pain drain\libraries\lvgl\src\misc\lv_anim.h **** /** Callback to call when the animation really stars (considering `delay`)*/
  64:c:\projects\paindrain\arduinolcd\test\pain drain\libraries\lvgl\src\misc\lv_anim.h **** typedef void (*lv_anim_start_cb_t)(struct _lv_anim_t *);
  65:c:\projects\paindrain\arduinolcd\test\pain drain\libraries\lvgl\src\misc\lv_anim.h **** 
  66:c:\projects\paindrain\arduinolcd\test\pain drain\libraries\lvgl\src\misc\lv_anim.h **** /** Callback used when the animation values are relative to get the current value*/
  67:c:\projects\paindrain\arduinolcd\test\pain drain\libraries\lvgl\src\misc\lv_anim.h **** typedef int32_t (*lv_anim_get_value_cb_t)(struct _lv_anim_t *);
  68:c:\projects\paindrain\arduinolcd\test\pain drain\libraries\lvgl\src\misc\lv_anim.h **** 
  69:c:\projects\paindrain\arduinolcd\test\pain drain\libraries\lvgl\src\misc\lv_anim.h **** /** Callback used when the animation is deleted*/
  70:c:\projects\paindrain\arduinolcd\test\pain drain\libraries\lvgl\src\misc\lv_anim.h **** typedef void (*lv_anim_deleted_cb_t)(struct _lv_anim_t *);
  71:c:\projects\paindrain\arduinolcd\test\pain drain\libraries\lvgl\src\misc\lv_anim.h **** 
ARM GAS  C:\Users\haske\AppData\Local\Temp\cc11ZRIl.s 			page 59


  72:c:\projects\paindrain\arduinolcd\test\pain drain\libraries\lvgl\src\misc\lv_anim.h **** /** Describes an animation*/
  73:c:\projects\paindrain\arduinolcd\test\pain drain\libraries\lvgl\src\misc\lv_anim.h **** typedef struct _lv_anim_t {
  74:c:\projects\paindrain\arduinolcd\test\pain drain\libraries\lvgl\src\misc\lv_anim.h ****     void * var;                          /**<Variable to animate*/
  75:c:\projects\paindrain\arduinolcd\test\pain drain\libraries\lvgl\src\misc\lv_anim.h ****     lv_anim_exec_xcb_t exec_cb;          /**< Function to execute to animate*/
  76:c:\projects\paindrain\arduinolcd\test\pain drain\libraries\lvgl\src\misc\lv_anim.h ****     lv_anim_start_cb_t start_cb;         /**< Call it when the animation is starts (considering `de
  77:c:\projects\paindrain\arduinolcd\test\pain drain\libraries\lvgl\src\misc\lv_anim.h ****     lv_anim_ready_cb_t ready_cb;         /**< Call it when the animation is ready*/
  78:c:\projects\paindrain\arduinolcd\test\pain drain\libraries\lvgl\src\misc\lv_anim.h ****     lv_anim_deleted_cb_t deleted_cb;     /**< Call it when the animation is deleted*/
  79:c:\projects\paindrain\arduinolcd\test\pain drain\libraries\lvgl\src\misc\lv_anim.h ****     lv_anim_get_value_cb_t get_value_cb; /**< Get the current value in relative mode*/
  80:c:\projects\paindrain\arduinolcd\test\pain drain\libraries\lvgl\src\misc\lv_anim.h **** #if LV_USE_USER_DATA
  81:c:\projects\paindrain\arduinolcd\test\pain drain\libraries\lvgl\src\misc\lv_anim.h ****     void * user_data; /**< Custom user data*/
  82:c:\projects\paindrain\arduinolcd\test\pain drain\libraries\lvgl\src\misc\lv_anim.h **** #endif
  83:c:\projects\paindrain\arduinolcd\test\pain drain\libraries\lvgl\src\misc\lv_anim.h ****     lv_anim_path_cb_t path_cb;         /**< Describe the path (curve) of animations*/
  84:c:\projects\paindrain\arduinolcd\test\pain drain\libraries\lvgl\src\misc\lv_anim.h ****     int32_t start_value;               /**< Start value*/
  85:c:\projects\paindrain\arduinolcd\test\pain drain\libraries\lvgl\src\misc\lv_anim.h ****     int32_t current_value;             /**< Current value*/
  86:c:\projects\paindrain\arduinolcd\test\pain drain\libraries\lvgl\src\misc\lv_anim.h ****     int32_t end_value;                 /**< End value*/
  87:c:\projects\paindrain\arduinolcd\test\pain drain\libraries\lvgl\src\misc\lv_anim.h ****     int32_t time;                /**< Animation time in ms*/
  88:c:\projects\paindrain\arduinolcd\test\pain drain\libraries\lvgl\src\misc\lv_anim.h ****     int32_t act_time;            /**< Current time in animation. Set to negative to make delay.*/
  89:c:\projects\paindrain\arduinolcd\test\pain drain\libraries\lvgl\src\misc\lv_anim.h ****     uint32_t playback_delay;     /**< Wait before play back*/
  90:c:\projects\paindrain\arduinolcd\test\pain drain\libraries\lvgl\src\misc\lv_anim.h ****     uint32_t playback_time;      /**< Duration of playback animation*/
  91:c:\projects\paindrain\arduinolcd\test\pain drain\libraries\lvgl\src\misc\lv_anim.h ****     uint32_t repeat_delay;       /**< Wait before repeat*/
  92:c:\projects\paindrain\arduinolcd\test\pain drain\libraries\lvgl\src\misc\lv_anim.h ****     uint16_t repeat_cnt;         /**< Repeat count for the animation*/
  93:c:\projects\paindrain\arduinolcd\test\pain drain\libraries\lvgl\src\misc\lv_anim.h ****     uint8_t early_apply  : 1;    /**< 1: Apply start value immediately even is there is `delay`*/
  94:c:\projects\paindrain\arduinolcd\test\pain drain\libraries\lvgl\src\misc\lv_anim.h **** 
  95:c:\projects\paindrain\arduinolcd\test\pain drain\libraries\lvgl\src\misc\lv_anim.h ****     /*Animation system use these - user shouldn't set*/
  96:c:\projects\paindrain\arduinolcd\test\pain drain\libraries\lvgl\src\misc\lv_anim.h ****     uint8_t playback_now : 1; /**< Play back is in progress*/
  97:c:\projects\paindrain\arduinolcd\test\pain drain\libraries\lvgl\src\misc\lv_anim.h ****     uint8_t run_round : 1;    /**< Indicates the animation has run in this round*/
  98:c:\projects\paindrain\arduinolcd\test\pain drain\libraries\lvgl\src\misc\lv_anim.h ****     uint8_t start_cb_called : 1;    /**< Indicates that the `start_cb` was already called*/
  99:c:\projects\paindrain\arduinolcd\test\pain drain\libraries\lvgl\src\misc\lv_anim.h **** } lv_anim_t;
 100:c:\projects\paindrain\arduinolcd\test\pain drain\libraries\lvgl\src\misc\lv_anim.h **** 
 101:c:\projects\paindrain\arduinolcd\test\pain drain\libraries\lvgl\src\misc\lv_anim.h **** /**********************
 102:c:\projects\paindrain\arduinolcd\test\pain drain\libraries\lvgl\src\misc\lv_anim.h ****  * GLOBAL PROTOTYPES
 103:c:\projects\paindrain\arduinolcd\test\pain drain\libraries\lvgl\src\misc\lv_anim.h ****  **********************/
 104:c:\projects\paindrain\arduinolcd\test\pain drain\libraries\lvgl\src\misc\lv_anim.h **** 
 105:c:\projects\paindrain\arduinolcd\test\pain drain\libraries\lvgl\src\misc\lv_anim.h **** /**
 106:c:\projects\paindrain\arduinolcd\test\pain drain\libraries\lvgl\src\misc\lv_anim.h ****  * Init. the animation module
 107:c:\projects\paindrain\arduinolcd\test\pain drain\libraries\lvgl\src\misc\lv_anim.h ****  */
 108:c:\projects\paindrain\arduinolcd\test\pain drain\libraries\lvgl\src\misc\lv_anim.h **** void _lv_anim_core_init(void);
 109:c:\projects\paindrain\arduinolcd\test\pain drain\libraries\lvgl\src\misc\lv_anim.h **** 
 110:c:\projects\paindrain\arduinolcd\test\pain drain\libraries\lvgl\src\misc\lv_anim.h **** /**
 111:c:\projects\paindrain\arduinolcd\test\pain drain\libraries\lvgl\src\misc\lv_anim.h ****  * Initialize an animation variable.
 112:c:\projects\paindrain\arduinolcd\test\pain drain\libraries\lvgl\src\misc\lv_anim.h ****  * E.g.:
 113:c:\projects\paindrain\arduinolcd\test\pain drain\libraries\lvgl\src\misc\lv_anim.h ****  * lv_anim_t a;
 114:c:\projects\paindrain\arduinolcd\test\pain drain\libraries\lvgl\src\misc\lv_anim.h ****  * lv_anim_init(&a);
 115:c:\projects\paindrain\arduinolcd\test\pain drain\libraries\lvgl\src\misc\lv_anim.h ****  * lv_anim_set_...(&a);
 116:c:\projects\paindrain\arduinolcd\test\pain drain\libraries\lvgl\src\misc\lv_anim.h ****  * lv_anim_start(&a);
 117:c:\projects\paindrain\arduinolcd\test\pain drain\libraries\lvgl\src\misc\lv_anim.h ****  * @param a     pointer to an `lv_anim_t` variable to initialize
 118:c:\projects\paindrain\arduinolcd\test\pain drain\libraries\lvgl\src\misc\lv_anim.h ****  */
 119:c:\projects\paindrain\arduinolcd\test\pain drain\libraries\lvgl\src\misc\lv_anim.h **** void lv_anim_init(lv_anim_t * a);
 120:c:\projects\paindrain\arduinolcd\test\pain drain\libraries\lvgl\src\misc\lv_anim.h **** 
 121:c:\projects\paindrain\arduinolcd\test\pain drain\libraries\lvgl\src\misc\lv_anim.h **** /**
 122:c:\projects\paindrain\arduinolcd\test\pain drain\libraries\lvgl\src\misc\lv_anim.h ****  * Set a variable to animate
 123:c:\projects\paindrain\arduinolcd\test\pain drain\libraries\lvgl\src\misc\lv_anim.h ****  * @param a     pointer to an initialized `lv_anim_t` variable
 124:c:\projects\paindrain\arduinolcd\test\pain drain\libraries\lvgl\src\misc\lv_anim.h ****  * @param var   pointer to a variable to animate
 125:c:\projects\paindrain\arduinolcd\test\pain drain\libraries\lvgl\src\misc\lv_anim.h ****  */
 126:c:\projects\paindrain\arduinolcd\test\pain drain\libraries\lvgl\src\misc\lv_anim.h **** static inline void lv_anim_set_var(lv_anim_t * a, void * var)
 127:c:\projects\paindrain\arduinolcd\test\pain drain\libraries\lvgl\src\misc\lv_anim.h **** {
 128:c:\projects\paindrain\arduinolcd\test\pain drain\libraries\lvgl\src\misc\lv_anim.h ****     a->var = var;
ARM GAS  C:\Users\haske\AppData\Local\Temp\cc11ZRIl.s 			page 60


 1692              		.loc 4 128 0
 1693 0050 0194     		str	r4, [sp, #4]
 1694              	.LVL207:
 1695              	.LBE131:
 1696              	.LBE130:
 1697              	.LBB132:
 1698              	.LBB133:
 129:c:\projects\paindrain\arduinolcd\test\pain drain\libraries\lvgl\src\misc\lv_anim.h **** }
 130:c:\projects\paindrain\arduinolcd\test\pain drain\libraries\lvgl\src\misc\lv_anim.h **** 
 131:c:\projects\paindrain\arduinolcd\test\pain drain\libraries\lvgl\src\misc\lv_anim.h **** /**
 132:c:\projects\paindrain\arduinolcd\test\pain drain\libraries\lvgl\src\misc\lv_anim.h ****  * Set a function to animate `var`
 133:c:\projects\paindrain\arduinolcd\test\pain drain\libraries\lvgl\src\misc\lv_anim.h ****  * @param a         pointer to an initialized `lv_anim_t` variable
 134:c:\projects\paindrain\arduinolcd\test\pain drain\libraries\lvgl\src\misc\lv_anim.h ****  * @param exec_cb   a function to execute during animation
 135:c:\projects\paindrain\arduinolcd\test\pain drain\libraries\lvgl\src\misc\lv_anim.h ****  *                  LVGL's built-in functions can be used.
 136:c:\projects\paindrain\arduinolcd\test\pain drain\libraries\lvgl\src\misc\lv_anim.h ****  *                  E.g. lv_obj_set_x
 137:c:\projects\paindrain\arduinolcd\test\pain drain\libraries\lvgl\src\misc\lv_anim.h ****  */
 138:c:\projects\paindrain\arduinolcd\test\pain drain\libraries\lvgl\src\misc\lv_anim.h **** static inline void lv_anim_set_exec_cb(lv_anim_t * a, lv_anim_exec_xcb_t exec_cb)
 139:c:\projects\paindrain\arduinolcd\test\pain drain\libraries\lvgl\src\misc\lv_anim.h **** {
 140:c:\projects\paindrain\arduinolcd\test\pain drain\libraries\lvgl\src\misc\lv_anim.h ****     a->exec_cb = exec_cb;
 1699              		.loc 4 140 0
 1700 0052 0A4B     		ldr	r3, .L63
 1701 0054 0293     		str	r3, [sp, #8]
 1702              	.LVL208:
 1703              	.LBE133:
 1704              	.LBE132:
 1705              	.LBB134:
 1706              	.LBB135:
 141:c:\projects\paindrain\arduinolcd\test\pain drain\libraries\lvgl\src\misc\lv_anim.h **** }
 142:c:\projects\paindrain\arduinolcd\test\pain drain\libraries\lvgl\src\misc\lv_anim.h **** 
 143:c:\projects\paindrain\arduinolcd\test\pain drain\libraries\lvgl\src\misc\lv_anim.h **** /**
 144:c:\projects\paindrain\arduinolcd\test\pain drain\libraries\lvgl\src\misc\lv_anim.h ****  * Set the duration of an animation
 145:c:\projects\paindrain\arduinolcd\test\pain drain\libraries\lvgl\src\misc\lv_anim.h ****  * @param a         pointer to an initialized `lv_anim_t` variable
 146:c:\projects\paindrain\arduinolcd\test\pain drain\libraries\lvgl\src\misc\lv_anim.h ****  * @param duration  duration of the animation in milliseconds
 147:c:\projects\paindrain\arduinolcd\test\pain drain\libraries\lvgl\src\misc\lv_anim.h ****  */
 148:c:\projects\paindrain\arduinolcd\test\pain drain\libraries\lvgl\src\misc\lv_anim.h **** static inline void lv_anim_set_time(lv_anim_t * a, uint32_t duration)
 149:c:\projects\paindrain\arduinolcd\test\pain drain\libraries\lvgl\src\misc\lv_anim.h **** {
 150:c:\projects\paindrain\arduinolcd\test\pain drain\libraries\lvgl\src\misc\lv_anim.h ****     a->time = duration;
 151:c:\projects\paindrain\arduinolcd\test\pain drain\libraries\lvgl\src\misc\lv_anim.h **** }
 152:c:\projects\paindrain\arduinolcd\test\pain drain\libraries\lvgl\src\misc\lv_anim.h **** 
 153:c:\projects\paindrain\arduinolcd\test\pain drain\libraries\lvgl\src\misc\lv_anim.h **** /**
 154:c:\projects\paindrain\arduinolcd\test\pain drain\libraries\lvgl\src\misc\lv_anim.h ****  * Set a delay before starting the animation
 155:c:\projects\paindrain\arduinolcd\test\pain drain\libraries\lvgl\src\misc\lv_anim.h ****  * @param a         pointer to an initialized `lv_anim_t` variable
 156:c:\projects\paindrain\arduinolcd\test\pain drain\libraries\lvgl\src\misc\lv_anim.h ****  * @param delay     delay before the animation in milliseconds
 157:c:\projects\paindrain\arduinolcd\test\pain drain\libraries\lvgl\src\misc\lv_anim.h ****  */
 158:c:\projects\paindrain\arduinolcd\test\pain drain\libraries\lvgl\src\misc\lv_anim.h **** static inline void lv_anim_set_delay(lv_anim_t * a, uint32_t delay)
 159:c:\projects\paindrain\arduinolcd\test\pain drain\libraries\lvgl\src\misc\lv_anim.h **** {
 160:c:\projects\paindrain\arduinolcd\test\pain drain\libraries\lvgl\src\misc\lv_anim.h ****     a->act_time = -(int32_t)(delay);
 161:c:\projects\paindrain\arduinolcd\test\pain drain\libraries\lvgl\src\misc\lv_anim.h **** }
 162:c:\projects\paindrain\arduinolcd\test\pain drain\libraries\lvgl\src\misc\lv_anim.h **** 
 163:c:\projects\paindrain\arduinolcd\test\pain drain\libraries\lvgl\src\misc\lv_anim.h **** /**
 164:c:\projects\paindrain\arduinolcd\test\pain drain\libraries\lvgl\src\misc\lv_anim.h ****  * Set the start and end values of an animation
 165:c:\projects\paindrain\arduinolcd\test\pain drain\libraries\lvgl\src\misc\lv_anim.h ****  * @param a         pointer to an initialized `lv_anim_t` variable
 166:c:\projects\paindrain\arduinolcd\test\pain drain\libraries\lvgl\src\misc\lv_anim.h ****  * @param start     the start value
 167:c:\projects\paindrain\arduinolcd\test\pain drain\libraries\lvgl\src\misc\lv_anim.h ****  * @param end       the end value
 168:c:\projects\paindrain\arduinolcd\test\pain drain\libraries\lvgl\src\misc\lv_anim.h ****  */
 169:c:\projects\paindrain\arduinolcd\test\pain drain\libraries\lvgl\src\misc\lv_anim.h **** static inline void lv_anim_set_values(lv_anim_t * a, int32_t start, int32_t end)
 170:c:\projects\paindrain\arduinolcd\test\pain drain\libraries\lvgl\src\misc\lv_anim.h **** {
ARM GAS  C:\Users\haske\AppData\Local\Temp\cc11ZRIl.s 			page 61


 171:c:\projects\paindrain\arduinolcd\test\pain drain\libraries\lvgl\src\misc\lv_anim.h ****     a->start_value = start;
 1707              		.loc 4 171 0
 1708 0056 0023     		movs	r3, #0
 1709 0058 0993     		str	r3, [sp, #36]
 172:c:\projects\paindrain\arduinolcd\test\pain drain\libraries\lvgl\src\misc\lv_anim.h ****     a->current_value = start;
 1710              		.loc 4 172 0
 1711 005a 0A93     		str	r3, [sp, #40]
 173:c:\projects\paindrain\arduinolcd\test\pain drain\libraries\lvgl\src\misc\lv_anim.h ****     a->end_value = end;
 1712              		.loc 4 173 0
 1713 005c 0133     		adds	r3, r3, #1
 1714 005e FF33     		adds	r3, r3, #255
 1715 0060 0B93     		str	r3, [sp, #44]
 1716              	.LVL209:
 1717              	.LBE135:
 1718              	.LBE134:
 1719              	.LBB136:
 1720              	.LBB137:
 174:c:\projects\paindrain\arduinolcd\test\pain drain\libraries\lvgl\src\misc\lv_anim.h **** }
 175:c:\projects\paindrain\arduinolcd\test\pain drain\libraries\lvgl\src\misc\lv_anim.h **** 
 176:c:\projects\paindrain\arduinolcd\test\pain drain\libraries\lvgl\src\misc\lv_anim.h **** /**
 177:c:\projects\paindrain\arduinolcd\test\pain drain\libraries\lvgl\src\misc\lv_anim.h ****  * Similar to `lv_anim_set_exec_cb` but `lv_anim_custom_exec_cb_t` receives
 178:c:\projects\paindrain\arduinolcd\test\pain drain\libraries\lvgl\src\misc\lv_anim.h ****  * `lv_anim_t * ` as its first parameter instead of `void *`.
 179:c:\projects\paindrain\arduinolcd\test\pain drain\libraries\lvgl\src\misc\lv_anim.h ****  * This function might be used when LVGL is bound to other languages because
 180:c:\projects\paindrain\arduinolcd\test\pain drain\libraries\lvgl\src\misc\lv_anim.h ****  * it's more consistent to have `lv_anim_t *` as first parameter.
 181:c:\projects\paindrain\arduinolcd\test\pain drain\libraries\lvgl\src\misc\lv_anim.h ****  * The variable to animate can be stored in the animation's `user_data`
 182:c:\projects\paindrain\arduinolcd\test\pain drain\libraries\lvgl\src\misc\lv_anim.h ****  * @param a         pointer to an initialized `lv_anim_t` variable
 183:c:\projects\paindrain\arduinolcd\test\pain drain\libraries\lvgl\src\misc\lv_anim.h ****  * @param exec_cb   a function to execute.
 184:c:\projects\paindrain\arduinolcd\test\pain drain\libraries\lvgl\src\misc\lv_anim.h ****  */
 185:c:\projects\paindrain\arduinolcd\test\pain drain\libraries\lvgl\src\misc\lv_anim.h **** static inline void lv_anim_set_custom_exec_cb(lv_anim_t * a, lv_anim_custom_exec_cb_t exec_cb)
 186:c:\projects\paindrain\arduinolcd\test\pain drain\libraries\lvgl\src\misc\lv_anim.h **** {
 187:c:\projects\paindrain\arduinolcd\test\pain drain\libraries\lvgl\src\misc\lv_anim.h ****     a->var     = a;
 188:c:\projects\paindrain\arduinolcd\test\pain drain\libraries\lvgl\src\misc\lv_anim.h ****     a->exec_cb = (lv_anim_exec_xcb_t)exec_cb;
 189:c:\projects\paindrain\arduinolcd\test\pain drain\libraries\lvgl\src\misc\lv_anim.h **** }
 190:c:\projects\paindrain\arduinolcd\test\pain drain\libraries\lvgl\src\misc\lv_anim.h **** 
 191:c:\projects\paindrain\arduinolcd\test\pain drain\libraries\lvgl\src\misc\lv_anim.h **** /**
 192:c:\projects\paindrain\arduinolcd\test\pain drain\libraries\lvgl\src\misc\lv_anim.h ****  * Set the path (curve) of the animation.
 193:c:\projects\paindrain\arduinolcd\test\pain drain\libraries\lvgl\src\misc\lv_anim.h ****  * @param a         pointer to an initialized `lv_anim_t` variable
 194:c:\projects\paindrain\arduinolcd\test\pain drain\libraries\lvgl\src\misc\lv_anim.h ****  * @param path_cb a function to set the current value of the animation.
 195:c:\projects\paindrain\arduinolcd\test\pain drain\libraries\lvgl\src\misc\lv_anim.h ****  */
 196:c:\projects\paindrain\arduinolcd\test\pain drain\libraries\lvgl\src\misc\lv_anim.h **** static inline void lv_anim_set_path_cb(lv_anim_t * a, lv_anim_path_cb_t path_cb)
 197:c:\projects\paindrain\arduinolcd\test\pain drain\libraries\lvgl\src\misc\lv_anim.h **** {
 198:c:\projects\paindrain\arduinolcd\test\pain drain\libraries\lvgl\src\misc\lv_anim.h ****     a->path_cb = path_cb;
 199:c:\projects\paindrain\arduinolcd\test\pain drain\libraries\lvgl\src\misc\lv_anim.h **** }
 200:c:\projects\paindrain\arduinolcd\test\pain drain\libraries\lvgl\src\misc\lv_anim.h **** 
 201:c:\projects\paindrain\arduinolcd\test\pain drain\libraries\lvgl\src\misc\lv_anim.h **** /**
 202:c:\projects\paindrain\arduinolcd\test\pain drain\libraries\lvgl\src\misc\lv_anim.h ****  * Set a function call when the animation really starts (considering `delay`)
 203:c:\projects\paindrain\arduinolcd\test\pain drain\libraries\lvgl\src\misc\lv_anim.h ****  * @param a         pointer to an initialized `lv_anim_t` variable
 204:c:\projects\paindrain\arduinolcd\test\pain drain\libraries\lvgl\src\misc\lv_anim.h ****  * @param start_cb  a function call when the animation starts
 205:c:\projects\paindrain\arduinolcd\test\pain drain\libraries\lvgl\src\misc\lv_anim.h ****  */
 206:c:\projects\paindrain\arduinolcd\test\pain drain\libraries\lvgl\src\misc\lv_anim.h **** static inline void lv_anim_set_start_cb(lv_anim_t * a, lv_anim_start_cb_t start_cb)
 207:c:\projects\paindrain\arduinolcd\test\pain drain\libraries\lvgl\src\misc\lv_anim.h **** {
 208:c:\projects\paindrain\arduinolcd\test\pain drain\libraries\lvgl\src\misc\lv_anim.h ****     a->start_cb = start_cb;
 209:c:\projects\paindrain\arduinolcd\test\pain drain\libraries\lvgl\src\misc\lv_anim.h **** }
 210:c:\projects\paindrain\arduinolcd\test\pain drain\libraries\lvgl\src\misc\lv_anim.h **** 
 211:c:\projects\paindrain\arduinolcd\test\pain drain\libraries\lvgl\src\misc\lv_anim.h **** /**
 212:c:\projects\paindrain\arduinolcd\test\pain drain\libraries\lvgl\src\misc\lv_anim.h ****  * Set a function to use the current value of the variable and make start and end value
 213:c:\projects\paindrain\arduinolcd\test\pain drain\libraries\lvgl\src\misc\lv_anim.h ****  * relative to the returned current value.
ARM GAS  C:\Users\haske\AppData\Local\Temp\cc11ZRIl.s 			page 62


 214:c:\projects\paindrain\arduinolcd\test\pain drain\libraries\lvgl\src\misc\lv_anim.h ****  * @param a             pointer to an initialized `lv_anim_t` variable
 215:c:\projects\paindrain\arduinolcd\test\pain drain\libraries\lvgl\src\misc\lv_anim.h ****  * @param get_value_cb  a function call when the animation starts
 216:c:\projects\paindrain\arduinolcd\test\pain drain\libraries\lvgl\src\misc\lv_anim.h ****  */
 217:c:\projects\paindrain\arduinolcd\test\pain drain\libraries\lvgl\src\misc\lv_anim.h **** static inline void lv_anim_set_get_value_cb(lv_anim_t * a, lv_anim_get_value_cb_t get_value_cb)
 218:c:\projects\paindrain\arduinolcd\test\pain drain\libraries\lvgl\src\misc\lv_anim.h **** {
 219:c:\projects\paindrain\arduinolcd\test\pain drain\libraries\lvgl\src\misc\lv_anim.h ****     a->get_value_cb = get_value_cb;
 220:c:\projects\paindrain\arduinolcd\test\pain drain\libraries\lvgl\src\misc\lv_anim.h **** }
 221:c:\projects\paindrain\arduinolcd\test\pain drain\libraries\lvgl\src\misc\lv_anim.h **** 
 222:c:\projects\paindrain\arduinolcd\test\pain drain\libraries\lvgl\src\misc\lv_anim.h **** /**
 223:c:\projects\paindrain\arduinolcd\test\pain drain\libraries\lvgl\src\misc\lv_anim.h ****  * Set a function call when the animation is ready
 224:c:\projects\paindrain\arduinolcd\test\pain drain\libraries\lvgl\src\misc\lv_anim.h ****  * @param a         pointer to an initialized `lv_anim_t` variable
 225:c:\projects\paindrain\arduinolcd\test\pain drain\libraries\lvgl\src\misc\lv_anim.h ****  * @param ready_cb  a function call when the animation is ready
 226:c:\projects\paindrain\arduinolcd\test\pain drain\libraries\lvgl\src\misc\lv_anim.h ****  */
 227:c:\projects\paindrain\arduinolcd\test\pain drain\libraries\lvgl\src\misc\lv_anim.h **** static inline void lv_anim_set_ready_cb(lv_anim_t * a, lv_anim_ready_cb_t ready_cb)
 228:c:\projects\paindrain\arduinolcd\test\pain drain\libraries\lvgl\src\misc\lv_anim.h **** {
 229:c:\projects\paindrain\arduinolcd\test\pain drain\libraries\lvgl\src\misc\lv_anim.h ****     a->ready_cb = ready_cb;
 1721              		.loc 4 229 0
 1722 0062 074B     		ldr	r3, .L63+4
 1723 0064 0493     		str	r3, [sp, #16]
 1724              	.LVL210:
 1725              	.LBE137:
 1726              	.LBE136:
 1727              	.LBB138:
 1728              	.LBB139:
 531:..\..\..\arduinoLCD\test\Pain Drain\libraries\lvgl\src\widgets\../core/lv_obj_style_gen.h ****     return (uint32_t)v.num;
 1729              		.loc 3 531 0
 1730 0066 6422     		movs	r2, #100
 1731 0068 0021     		movs	r1, #0
 1732 006a 3000     		movs	r0, r6
 1733 006c FFF7FEFF 		bl	lv_obj_get_style_prop
 1734              	.LVL211:
 1735              	.LBE139:
 1736              	.LBE138:
 1737              	.LBB140:
 1738              	.LBB141:
 150:c:\projects\paindrain\arduinolcd\test\pain drain\libraries\lvgl\src\misc\lv_anim.h **** }
 1739              		.loc 4 150 0
 1740 0070 0C90     		str	r0, [sp, #48]
 1741              	.LVL212:
 1742              	.LBE141:
 1743              	.LBE140:
 601:..\..\..\arduinoLCD\test\Pain Drain\libraries\lvgl\src\widgets/lv_bar.c ****     }
 1744              		.loc 2 601 0
 1745 0072 01A8     		add	r0, sp, #4
 1746              	.LVL213:
 1747 0074 FFF7FEFF 		bl	lv_anim_start
 1748              	.LVL214:
 1749              	.L58:
 1750              	.LBE129:
 603:..\..\..\arduinoLCD\test\Pain Drain\libraries\lvgl\src\widgets/lv_bar.c **** 
 1751              		.loc 2 603 0
 1752 0078 13B0     		add	sp, sp, #76
 1753              		@ sp needed
 1754              	.LVL215:
 1755              	.LVL216:
 1756              	.LVL217:
 1757              	.LVL218:
ARM GAS  C:\Users\haske\AppData\Local\Temp\cc11ZRIl.s 			page 63


 1758 007a F0BD     		pop	{r4, r5, r6, r7, pc}
 1759              	.L64:
 1760              		.align	2
 1761              	.L63:
 1762 007c 00000000 		.word	lv_bar_anim
 1763 0080 00000000 		.word	lv_bar_anim_ready
 1764              		.cfi_endproc
 1765              	.LFE175:
 1766              		.size	lv_bar_set_value_with_anim, .-lv_bar_set_value_with_anim
 1767              		.section	.text.lv_bar_create,"ax",%progbits
 1768              		.align	2
 1769              		.global	lv_bar_create
 1770              		.code	16
 1771              		.thumb_func
 1772              		.type	lv_bar_create, %function
 1773              	lv_bar_create:
 1774              	.LFB159:
  79:..\..\..\arduinoLCD\test\Pain Drain\libraries\lvgl\src\widgets/lv_bar.c ****     LV_LOG_INFO("begin");
 1775              		.loc 2 79 0
 1776              		.cfi_startproc
 1777              		@ args = 0, pretend = 0, frame = 0
 1778              		@ frame_needed = 0, uses_anonymous_args = 0
 1779              	.LVL219:
 1780 0000 10B5     		push	{r4, lr}
 1781              		.cfi_def_cfa_offset 8
 1782              		.cfi_offset 4, -8
 1783              		.cfi_offset 14, -4
 1784 0002 0100     		movs	r1, r0
  81:..\..\..\arduinoLCD\test\Pain Drain\libraries\lvgl\src\widgets/lv_bar.c ****     lv_obj_class_init_obj(obj);
 1785              		.loc 2 81 0
 1786 0004 0348     		ldr	r0, .L66
 1787              	.LVL220:
 1788 0006 FFF7FEFF 		bl	lv_obj_class_create_obj
 1789              	.LVL221:
 1790 000a 0400     		movs	r4, r0
 1791              	.LVL222:
  82:..\..\..\arduinoLCD\test\Pain Drain\libraries\lvgl\src\widgets/lv_bar.c ****     return obj;
 1792              		.loc 2 82 0
 1793 000c FFF7FEFF 		bl	lv_obj_class_init_obj
 1794              	.LVL223:
  84:..\..\..\arduinoLCD\test\Pain Drain\libraries\lvgl\src\widgets/lv_bar.c **** 
 1795              		.loc 2 84 0
 1796 0010 2000     		movs	r0, r4
 1797              		@ sp needed
 1798              	.LVL224:
 1799 0012 10BD     		pop	{r4, pc}
 1800              	.L67:
 1801              		.align	2
 1802              	.L66:
 1803 0014 00000000 		.word	.LANCHOR0
 1804              		.cfi_endproc
 1805              	.LFE159:
 1806              		.size	lv_bar_create, .-lv_bar_create
 1807              		.section	.text.lv_bar_set_value,"ax",%progbits
 1808              		.align	2
 1809              		.global	lv_bar_set_value
 1810              		.code	16
ARM GAS  C:\Users\haske\AppData\Local\Temp\cc11ZRIl.s 			page 64


 1811              		.thumb_func
 1812              		.type	lv_bar_set_value, %function
 1813              	lv_bar_set_value:
 1814              	.LFB160:
  91:..\..\..\arduinoLCD\test\Pain Drain\libraries\lvgl\src\widgets/lv_bar.c ****     LV_ASSERT_OBJ(obj, MY_CLASS);
 1815              		.loc 2 91 0
 1816              		.cfi_startproc
 1817              		@ args = 0, pretend = 0, frame = 0
 1818              		@ frame_needed = 0, uses_anonymous_args = 0
 1819              	.LVL225:
 1820 0000 10B5     		push	{r4, lr}
 1821              		.cfi_def_cfa_offset 8
 1822              		.cfi_offset 4, -8
 1823              		.cfi_offset 14, -4
 1824 0002 82B0     		sub	sp, sp, #8
 1825              		.cfi_def_cfa_offset 16
 1826              	.LVL226:
  95:..\..\..\arduinoLCD\test\Pain Drain\libraries\lvgl\src\widgets/lv_bar.c **** 
 1827              		.loc 2 95 0
 1828 0004 436A     		ldr	r3, [r0, #36]
 1829 0006 8B42     		cmp	r3, r1
 1830 0008 15D0     		beq	.L68
  97:..\..\..\arduinoLCD\test\Pain Drain\libraries\lvgl\src\widgets/lv_bar.c ****     value = value < bar->start_value ? bar->start_value : value; /*Can't be smaller than the left v
 1831              		.loc 2 97 0
 1832 000a C46A     		ldr	r4, [r0, #44]
 1833 000c A142     		cmp	r1, r4
 1834 000e 00DD     		ble	.L70
 1835 0010 2100     		movs	r1, r4
 1836              	.LVL227:
 1837              	.L70:
 1838 0012 846A     		ldr	r4, [r0, #40]
 1839 0014 A142     		cmp	r1, r4
 1840 0016 00DA     		bge	.L71
 1841 0018 2100     		movs	r1, r4
 1842              	.L71:
 1843              	.LVL228:
  98:..\..\..\arduinoLCD\test\Pain Drain\libraries\lvgl\src\widgets/lv_bar.c **** 
 1844              		.loc 2 98 0
 1845 001a 046B     		ldr	r4, [r0, #48]
 1846 001c A142     		cmp	r1, r4
 1847 001e 00DA     		bge	.L72
 1848 0020 2100     		movs	r1, r4
 1849              	.LVL229:
 1850              	.L72:
 100:..\..\..\arduinoLCD\test\Pain Drain\libraries\lvgl\src\widgets/lv_bar.c ****     lv_bar_set_value_with_anim(obj, value, &bar->cur_value, &bar->cur_value_anim, anim);
 1851              		.loc 2 100 0
 1852 0022 8B42     		cmp	r3, r1
 1853 0024 07D0     		beq	.L68
 101:..\..\..\arduinoLCD\test\Pain Drain\libraries\lvgl\src\widgets/lv_bar.c **** }
 1854              		.loc 2 101 0
 1855 0026 0300     		movs	r3, r0
 1856 0028 3C33     		adds	r3, r3, #60
 1857 002a 0400     		movs	r4, r0
 1858 002c 2434     		adds	r4, r4, #36
 1859 002e 0092     		str	r2, [sp]
 1860 0030 2200     		movs	r2, r4
 1861              	.LVL230:
ARM GAS  C:\Users\haske\AppData\Local\Temp\cc11ZRIl.s 			page 65


 1862 0032 FFF7FEFF 		bl	lv_bar_set_value_with_anim
 1863              	.LVL231:
 1864              	.L68:
 102:..\..\..\arduinoLCD\test\Pain Drain\libraries\lvgl\src\widgets/lv_bar.c **** 
 1865              		.loc 2 102 0
 1866 0036 02B0     		add	sp, sp, #8
 1867              		@ sp needed
 1868 0038 10BD     		pop	{r4, pc}
 1869              		.cfi_endproc
 1870              	.LFE160:
 1871              		.size	lv_bar_set_value, .-lv_bar_set_value
 1872 003a C046     		.section	.text.lv_bar_constructor,"ax",%progbits
 1873              		.align	2
 1874              		.code	16
 1875              		.thumb_func
 1876              		.type	lv_bar_constructor, %function
 1877              	lv_bar_constructor:
 1878              	.LFB169:
 209:..\..\..\arduinoLCD\test\Pain Drain\libraries\lvgl\src\widgets/lv_bar.c ****     LV_UNUSED(class_p);
 1879              		.loc 2 209 0
 1880              		.cfi_startproc
 1881              		@ args = 0, pretend = 0, frame = 0
 1882              		@ frame_needed = 0, uses_anonymous_args = 0
 1883              	.LVL232:
 1884 0000 10B5     		push	{r4, lr}
 1885              		.cfi_def_cfa_offset 8
 1886              		.cfi_offset 4, -8
 1887              		.cfi_offset 14, -4
 1888 0002 0C00     		movs	r4, r1
 1889              	.LVL233:
 214:..\..\..\arduinoLCD\test\Pain Drain\libraries\lvgl\src\widgets/lv_bar.c ****     bar->max_value = 100;
 1890              		.loc 2 214 0
 1891 0004 0023     		movs	r3, #0
 1892 0006 8B62     		str	r3, [r1, #40]
 215:..\..\..\arduinoLCD\test\Pain Drain\libraries\lvgl\src\widgets/lv_bar.c ****     bar->start_value = 0;
 1893              		.loc 2 215 0
 1894 0008 6422     		movs	r2, #100
 1895 000a CA62     		str	r2, [r1, #44]
 216:..\..\..\arduinoLCD\test\Pain Drain\libraries\lvgl\src\widgets/lv_bar.c ****     bar->cur_value = 0;
 1896              		.loc 2 216 0
 1897 000c 0B63     		str	r3, [r1, #48]
 217:..\..\..\arduinoLCD\test\Pain Drain\libraries\lvgl\src\widgets/lv_bar.c ****     bar->indic_area.x1 = 0;
 1898              		.loc 2 217 0
 1899 000e 4B62     		str	r3, [r1, #36]
 218:..\..\..\arduinoLCD\test\Pain Drain\libraries\lvgl\src\widgets/lv_bar.c ****     bar->indic_area.x2 = 0;
 1900              		.loc 2 218 0
 1901 0010 8B86     		strh	r3, [r1, #52]
 219:..\..\..\arduinoLCD\test\Pain Drain\libraries\lvgl\src\widgets/lv_bar.c ****     bar->indic_area.y1 = 0;
 1902              		.loc 2 219 0
 1903 0012 0B87     		strh	r3, [r1, #56]
 220:..\..\..\arduinoLCD\test\Pain Drain\libraries\lvgl\src\widgets/lv_bar.c ****     bar->indic_area.y2 = 0;
 1904              		.loc 2 220 0
 1905 0014 CB86     		strh	r3, [r1, #54]
 221:..\..\..\arduinoLCD\test\Pain Drain\libraries\lvgl\src\widgets/lv_bar.c ****     bar->mode = LV_BAR_MODE_NORMAL;
 1906              		.loc 2 221 0
 1907 0016 4B87     		strh	r3, [r1, #58]
 222:..\..\..\arduinoLCD\test\Pain Drain\libraries\lvgl\src\widgets/lv_bar.c **** 
ARM GAS  C:\Users\haske\AppData\Local\Temp\cc11ZRIl.s 			page 66


 1908              		.loc 2 222 0
 1909 0018 083A     		subs	r2, r2, #8
 1910 001a 8B5C     		ldrb	r3, [r1, r2]
 1911 001c 0321     		movs	r1, #3
 1912              	.LVL234:
 1913 001e 8B43     		bics	r3, r1
 1914 0020 A354     		strb	r3, [r4, r2]
 224:..\..\..\arduinoLCD\test\Pain Drain\libraries\lvgl\src\widgets/lv_bar.c ****     lv_bar_init_anim(obj, &bar->start_value_anim);
 1915              		.loc 2 224 0
 1916 0022 2100     		movs	r1, r4
 1917 0024 3C31     		adds	r1, r1, #60
 1918 0026 2000     		movs	r0, r4
 1919              	.LVL235:
 1920 0028 FFF7FEFF 		bl	lv_bar_init_anim
 1921              	.LVL236:
 225:..\..\..\arduinoLCD\test\Pain Drain\libraries\lvgl\src\widgets/lv_bar.c **** 
 1922              		.loc 2 225 0
 1923 002c 2100     		movs	r1, r4
 1924 002e 4C31     		adds	r1, r1, #76
 1925 0030 2000     		movs	r0, r4
 1926 0032 FFF7FEFF 		bl	lv_bar_init_anim
 1927              	.LVL237:
 227:..\..\..\arduinoLCD\test\Pain Drain\libraries\lvgl\src\widgets/lv_bar.c ****     lv_obj_clear_flag(obj, LV_OBJ_FLAG_SCROLLABLE);
 1928              		.loc 2 227 0
 1929 0036 0821     		movs	r1, #8
 1930 0038 2000     		movs	r0, r4
 1931 003a FFF7FEFF 		bl	lv_obj_clear_flag
 1932              	.LVL238:
 228:..\..\..\arduinoLCD\test\Pain Drain\libraries\lvgl\src\widgets/lv_bar.c ****     lv_bar_set_value(obj, 0, LV_ANIM_OFF);
 1933              		.loc 2 228 0
 1934 003e 1021     		movs	r1, #16
 1935 0040 2000     		movs	r0, r4
 1936 0042 FFF7FEFF 		bl	lv_obj_clear_flag
 1937              	.LVL239:
 229:..\..\..\arduinoLCD\test\Pain Drain\libraries\lvgl\src\widgets/lv_bar.c **** 
 1938              		.loc 2 229 0
 1939 0046 0022     		movs	r2, #0
 1940 0048 0021     		movs	r1, #0
 1941 004a 2000     		movs	r0, r4
 1942 004c FFF7FEFF 		bl	lv_bar_set_value
 1943              	.LVL240:
 232:..\..\..\arduinoLCD\test\Pain Drain\libraries\lvgl\src\widgets/lv_bar.c **** 
 1944              		.loc 2 232 0
 1945              		@ sp needed
 1946              	.LVL241:
 1947 0050 10BD     		pop	{r4, pc}
 1948              		.cfi_endproc
 1949              	.LFE169:
 1950              		.size	lv_bar_constructor, .-lv_bar_constructor
 1951 0052 C046     		.section	.text.lv_bar_set_start_value,"ax",%progbits
 1952              		.align	2
 1953              		.global	lv_bar_set_start_value
 1954              		.code	16
 1955              		.thumb_func
 1956              		.type	lv_bar_set_start_value, %function
 1957              	lv_bar_set_start_value:
 1958              	.LFB161:
ARM GAS  C:\Users\haske\AppData\Local\Temp\cc11ZRIl.s 			page 67


 105:..\..\..\arduinoLCD\test\Pain Drain\libraries\lvgl\src\widgets/lv_bar.c ****     LV_ASSERT_OBJ(obj, MY_CLASS);
 1959              		.loc 2 105 0
 1960              		.cfi_startproc
 1961              		@ args = 0, pretend = 0, frame = 0
 1962              		@ frame_needed = 0, uses_anonymous_args = 0
 1963              	.LVL242:
 1964 0000 10B5     		push	{r4, lr}
 1965              		.cfi_def_cfa_offset 8
 1966              		.cfi_offset 4, -8
 1967              		.cfi_offset 14, -4
 1968 0002 82B0     		sub	sp, sp, #8
 1969              		.cfi_def_cfa_offset 16
 1970              	.LVL243:
 110:..\..\..\arduinoLCD\test\Pain Drain\libraries\lvgl\src\widgets/lv_bar.c ****         return;
 1971              		.loc 2 110 0
 1972 0004 5C23     		movs	r3, #92
 1973 0006 C35C     		ldrb	r3, [r0, r3]
 1974 0008 0324     		movs	r4, #3
 1975 000a 2340     		ands	r3, r4
 1976 000c 022B     		cmp	r3, #2
 1977 000e 17D1     		bne	.L74
 114:..\..\..\arduinoLCD\test\Pain Drain\libraries\lvgl\src\widgets/lv_bar.c ****     value = value > bar->cur_value ? bar->cur_value : value; /*Can't be greater than the right valu
 1978              		.loc 2 114 0
 1979 0010 C36A     		ldr	r3, [r0, #44]
 1980 0012 8B42     		cmp	r3, r1
 1981 0014 00DD     		ble	.L76
 1982 0016 0B00     		movs	r3, r1
 1983              	.L76:
 1984 0018 846A     		ldr	r4, [r0, #40]
 1985 001a 1900     		movs	r1, r3
 1986              	.LVL244:
 1987 001c A342     		cmp	r3, r4
 1988 001e 00DA     		bge	.L77
 1989 0020 2100     		movs	r1, r4
 1990              	.L77:
 1991              	.LVL245:
 115:..\..\..\arduinoLCD\test\Pain Drain\libraries\lvgl\src\widgets/lv_bar.c **** 
 1992              		.loc 2 115 0
 1993 0022 436A     		ldr	r3, [r0, #36]
 1994 0024 9942     		cmp	r1, r3
 1995 0026 00DD     		ble	.L78
 1996 0028 1900     		movs	r1, r3
 1997              	.LVL246:
 1998              	.L78:
 117:..\..\..\arduinoLCD\test\Pain Drain\libraries\lvgl\src\widgets/lv_bar.c ****     lv_bar_set_value_with_anim(obj, value, &bar->start_value, &bar->start_value_anim, anim);
 1999              		.loc 2 117 0
 2000 002a 036B     		ldr	r3, [r0, #48]
 2001 002c 9942     		cmp	r1, r3
 2002 002e 07D0     		beq	.L74
 118:..\..\..\arduinoLCD\test\Pain Drain\libraries\lvgl\src\widgets/lv_bar.c **** }
 2003              		.loc 2 118 0
 2004 0030 0300     		movs	r3, r0
 2005 0032 4C33     		adds	r3, r3, #76
 2006 0034 0400     		movs	r4, r0
 2007 0036 3034     		adds	r4, r4, #48
 2008 0038 0092     		str	r2, [sp]
 2009 003a 2200     		movs	r2, r4
ARM GAS  C:\Users\haske\AppData\Local\Temp\cc11ZRIl.s 			page 68


 2010              	.LVL247:
 2011 003c FFF7FEFF 		bl	lv_bar_set_value_with_anim
 2012              	.LVL248:
 2013              	.L74:
 119:..\..\..\arduinoLCD\test\Pain Drain\libraries\lvgl\src\widgets/lv_bar.c **** 
 2014              		.loc 2 119 0
 2015 0040 02B0     		add	sp, sp, #8
 2016              		@ sp needed
 2017 0042 10BD     		pop	{r4, pc}
 2018              		.cfi_endproc
 2019              	.LFE161:
 2020              		.size	lv_bar_set_start_value, .-lv_bar_set_start_value
 2021              		.section	.text.lv_bar_set_mode,"ax",%progbits
 2022              		.align	2
 2023              		.global	lv_bar_set_mode
 2024              		.code	16
 2025              		.thumb_func
 2026              		.type	lv_bar_set_mode, %function
 2027              	lv_bar_set_mode:
 2028              	.LFB163:
 147:..\..\..\arduinoLCD\test\Pain Drain\libraries\lvgl\src\widgets/lv_bar.c ****     LV_ASSERT_OBJ(obj, MY_CLASS);
 2029              		.loc 2 147 0
 2030              		.cfi_startproc
 2031              		@ args = 0, pretend = 0, frame = 0
 2032              		@ frame_needed = 0, uses_anonymous_args = 0
 2033              	.LVL249:
 2034 0000 70B5     		push	{r4, r5, r6, lr}
 2035              		.cfi_def_cfa_offset 16
 2036              		.cfi_offset 4, -16
 2037              		.cfi_offset 5, -12
 2038              		.cfi_offset 6, -8
 2039              		.cfi_offset 14, -4
 2040              	.LVL250:
 151:..\..\..\arduinoLCD\test\Pain Drain\libraries\lvgl\src\widgets/lv_bar.c ****     if(bar->mode != LV_BAR_MODE_RANGE) {
 2041              		.loc 2 151 0
 2042 0002 5C25     		movs	r5, #92
 2043 0004 0324     		movs	r4, #3
 2044 0006 0B00     		movs	r3, r1
 2045 0008 2340     		ands	r3, r4
 2046 000a 425D     		ldrb	r2, [r0, r5]
 2047 000c 0321     		movs	r1, #3
 2048              	.LVL251:
 2049 000e 8A43     		bics	r2, r1
 2050 0010 1A43     		orrs	r2, r3
 2051 0012 1100     		movs	r1, r2
 2052 0014 4255     		strb	r2, [r0, r5]
 152:..\..\..\arduinoLCD\test\Pain Drain\libraries\lvgl\src\widgets/lv_bar.c ****         bar->start_value = bar->min_value;
 2053              		.loc 2 152 0
 2054 0016 2140     		ands	r1, r4
 2055 0018 0229     		cmp	r1, #2
 2056 001a 01D0     		beq	.L80
 153:..\..\..\arduinoLCD\test\Pain Drain\libraries\lvgl\src\widgets/lv_bar.c ****     }
 2057              		.loc 2 153 0
 2058 001c 836A     		ldr	r3, [r0, #40]
 2059 001e 0363     		str	r3, [r0, #48]
 2060              	.L80:
 156:..\..\..\arduinoLCD\test\Pain Drain\libraries\lvgl\src\widgets/lv_bar.c **** }
ARM GAS  C:\Users\haske\AppData\Local\Temp\cc11ZRIl.s 			page 69


 2061              		.loc 2 156 0
 2062 0020 FFF7FEFF 		bl	lv_obj_invalidate
 2063              	.LVL252:
 157:..\..\..\arduinoLCD\test\Pain Drain\libraries\lvgl\src\widgets/lv_bar.c **** 
 2064              		.loc 2 157 0
 2065              		@ sp needed
 2066 0024 70BD     		pop	{r4, r5, r6, pc}
 2067              		.cfi_endproc
 2068              	.LFE163:
 2069              		.size	lv_bar_set_mode, .-lv_bar_set_mode
 2070 0026 C046     		.section	.text.lv_bar_get_value,"ax",%progbits
 2071              		.align	2
 2072              		.global	lv_bar_get_value
 2073              		.code	16
 2074              		.thumb_func
 2075              		.type	lv_bar_get_value, %function
 2076              	lv_bar_get_value:
 2077              	.LFB164:
 164:..\..\..\arduinoLCD\test\Pain Drain\libraries\lvgl\src\widgets/lv_bar.c ****     LV_ASSERT_OBJ(obj, MY_CLASS);
 2078              		.loc 2 164 0
 2079              		.cfi_startproc
 2080              		@ args = 0, pretend = 0, frame = 0
 2081              		@ frame_needed = 0, uses_anonymous_args = 0
 2082              		@ link register save eliminated.
 2083              	.LVL253:
 168:..\..\..\arduinoLCD\test\Pain Drain\libraries\lvgl\src\widgets/lv_bar.c **** }
 2084              		.loc 2 168 0
 2085 0000 836C     		ldr	r3, [r0, #72]
 2086 0002 0133     		adds	r3, r3, #1
 2087 0004 01D0     		beq	.L82
 168:..\..\..\arduinoLCD\test\Pain Drain\libraries\lvgl\src\widgets/lv_bar.c **** }
 2088              		.loc 2 168 0 is_stmt 0 discriminator 1
 2089 0006 406C     		ldr	r0, [r0, #68]
 2090              	.LVL254:
 2091 0008 00E0     		b	.L83
 2092              	.LVL255:
 2093              	.L82:
 168:..\..\..\arduinoLCD\test\Pain Drain\libraries\lvgl\src\widgets/lv_bar.c **** }
 2094              		.loc 2 168 0 discriminator 2
 2095 000a 406A     		ldr	r0, [r0, #36]
 2096              	.LVL256:
 2097              	.L83:
 169:..\..\..\arduinoLCD\test\Pain Drain\libraries\lvgl\src\widgets/lv_bar.c **** 
 2098              		.loc 2 169 0 is_stmt 1 discriminator 4
 2099              		@ sp needed
 2100 000c 7047     		bx	lr
 2101              		.cfi_endproc
 2102              	.LFE164:
 2103              		.size	lv_bar_get_value, .-lv_bar_get_value
 2104 000e C046     		.section	.text.lv_bar_get_start_value,"ax",%progbits
 2105              		.align	2
 2106              		.global	lv_bar_get_start_value
 2107              		.code	16
 2108              		.thumb_func
 2109              		.type	lv_bar_get_start_value, %function
 2110              	lv_bar_get_start_value:
 2111              	.LFB165:
ARM GAS  C:\Users\haske\AppData\Local\Temp\cc11ZRIl.s 			page 70


 172:..\..\..\arduinoLCD\test\Pain Drain\libraries\lvgl\src\widgets/lv_bar.c ****     LV_ASSERT_OBJ(obj, MY_CLASS);
 2112              		.loc 2 172 0
 2113              		.cfi_startproc
 2114              		@ args = 0, pretend = 0, frame = 0
 2115              		@ frame_needed = 0, uses_anonymous_args = 0
 2116              		@ link register save eliminated.
 2117              	.LVL257:
 176:..\..\..\arduinoLCD\test\Pain Drain\libraries\lvgl\src\widgets/lv_bar.c **** 
 2118              		.loc 2 176 0
 2119 0000 5C23     		movs	r3, #92
 2120 0002 C35C     		ldrb	r3, [r0, r3]
 2121 0004 0322     		movs	r2, #3
 2122 0006 1340     		ands	r3, r2
 2123 0008 022B     		cmp	r3, #2
 2124 000a 01D0     		beq	.L85
 176:..\..\..\arduinoLCD\test\Pain Drain\libraries\lvgl\src\widgets/lv_bar.c **** 
 2125              		.loc 2 176 0 is_stmt 0 discriminator 1
 2126 000c 806A     		ldr	r0, [r0, #40]
 2127              	.LVL258:
 2128 000e 05E0     		b	.L86
 2129              	.LVL259:
 2130              	.L85:
 178:..\..\..\arduinoLCD\test\Pain Drain\libraries\lvgl\src\widgets/lv_bar.c **** }
 2131              		.loc 2 178 0 is_stmt 1
 2132 0010 836D     		ldr	r3, [r0, #88]
 2133 0012 0133     		adds	r3, r3, #1
 2134 0014 01D0     		beq	.L87
 178:..\..\..\arduinoLCD\test\Pain Drain\libraries\lvgl\src\widgets/lv_bar.c **** }
 2135              		.loc 2 178 0 is_stmt 0 discriminator 1
 2136 0016 406D     		ldr	r0, [r0, #84]
 2137              	.LVL260:
 2138 0018 00E0     		b	.L86
 2139              	.LVL261:
 2140              	.L87:
 178:..\..\..\arduinoLCD\test\Pain Drain\libraries\lvgl\src\widgets/lv_bar.c **** }
 2141              		.loc 2 178 0 discriminator 2
 2142 001a 006B     		ldr	r0, [r0, #48]
 2143              	.LVL262:
 2144              	.L86:
 179:..\..\..\arduinoLCD\test\Pain Drain\libraries\lvgl\src\widgets/lv_bar.c **** 
 2145              		.loc 2 179 0 is_stmt 1
 2146              		@ sp needed
 2147 001c 7047     		bx	lr
 2148              		.cfi_endproc
 2149              	.LFE165:
 2150              		.size	lv_bar_get_start_value, .-lv_bar_get_start_value
 2151 001e C046     		.section	.text.lv_bar_get_min_value,"ax",%progbits
 2152              		.align	2
 2153              		.global	lv_bar_get_min_value
 2154              		.code	16
 2155              		.thumb_func
 2156              		.type	lv_bar_get_min_value, %function
 2157              	lv_bar_get_min_value:
 2158              	.LFB166:
 182:..\..\..\arduinoLCD\test\Pain Drain\libraries\lvgl\src\widgets/lv_bar.c ****     LV_ASSERT_OBJ(obj, MY_CLASS);
 2159              		.loc 2 182 0
 2160              		.cfi_startproc
ARM GAS  C:\Users\haske\AppData\Local\Temp\cc11ZRIl.s 			page 71


 2161              		@ args = 0, pretend = 0, frame = 0
 2162              		@ frame_needed = 0, uses_anonymous_args = 0
 2163              		@ link register save eliminated.
 2164              	.LVL263:
 185:..\..\..\arduinoLCD\test\Pain Drain\libraries\lvgl\src\widgets/lv_bar.c **** }
 2165              		.loc 2 185 0
 2166 0000 806A     		ldr	r0, [r0, #40]
 2167              	.LVL264:
 186:..\..\..\arduinoLCD\test\Pain Drain\libraries\lvgl\src\widgets/lv_bar.c **** 
 2168              		.loc 2 186 0
 2169              		@ sp needed
 2170 0002 7047     		bx	lr
 2171              		.cfi_endproc
 2172              	.LFE166:
 2173              		.size	lv_bar_get_min_value, .-lv_bar_get_min_value
 2174              		.section	.text.lv_bar_get_max_value,"ax",%progbits
 2175              		.align	2
 2176              		.global	lv_bar_get_max_value
 2177              		.code	16
 2178              		.thumb_func
 2179              		.type	lv_bar_get_max_value, %function
 2180              	lv_bar_get_max_value:
 2181              	.LFB167:
 189:..\..\..\arduinoLCD\test\Pain Drain\libraries\lvgl\src\widgets/lv_bar.c ****     LV_ASSERT_OBJ(obj, MY_CLASS);
 2182              		.loc 2 189 0
 2183              		.cfi_startproc
 2184              		@ args = 0, pretend = 0, frame = 0
 2185              		@ frame_needed = 0, uses_anonymous_args = 0
 2186              		@ link register save eliminated.
 2187              	.LVL265:
 193:..\..\..\arduinoLCD\test\Pain Drain\libraries\lvgl\src\widgets/lv_bar.c **** }
 2188              		.loc 2 193 0
 2189 0000 C06A     		ldr	r0, [r0, #44]
 2190              	.LVL266:
 194:..\..\..\arduinoLCD\test\Pain Drain\libraries\lvgl\src\widgets/lv_bar.c **** 
 2191              		.loc 2 194 0
 2192              		@ sp needed
 2193 0002 7047     		bx	lr
 2194              		.cfi_endproc
 2195              	.LFE167:
 2196              		.size	lv_bar_get_max_value, .-lv_bar_get_max_value
 2197              		.section	.text.lv_bar_get_mode,"ax",%progbits
 2198              		.align	2
 2199              		.global	lv_bar_get_mode
 2200              		.code	16
 2201              		.thumb_func
 2202              		.type	lv_bar_get_mode, %function
 2203              	lv_bar_get_mode:
 2204              	.LFB168:
 197:..\..\..\arduinoLCD\test\Pain Drain\libraries\lvgl\src\widgets/lv_bar.c ****     LV_ASSERT_OBJ(obj, MY_CLASS);
 2205              		.loc 2 197 0
 2206              		.cfi_startproc
 2207              		@ args = 0, pretend = 0, frame = 0
 2208              		@ frame_needed = 0, uses_anonymous_args = 0
 2209              		@ link register save eliminated.
 2210              	.LVL267:
 201:..\..\..\arduinoLCD\test\Pain Drain\libraries\lvgl\src\widgets/lv_bar.c **** }
ARM GAS  C:\Users\haske\AppData\Local\Temp\cc11ZRIl.s 			page 72


 2211              		.loc 2 201 0
 2212 0000 5C23     		movs	r3, #92
 2213 0002 C05C     		ldrb	r0, [r0, r3]
 2214              	.LVL268:
 2215 0004 8007     		lsls	r0, r0, #30
 2216 0006 800F     		lsrs	r0, r0, #30
 202:..\..\..\arduinoLCD\test\Pain Drain\libraries\lvgl\src\widgets/lv_bar.c **** 
 2217              		.loc 2 202 0
 2218              		@ sp needed
 2219 0008 7047     		bx	lr
 2220              		.cfi_endproc
 2221              	.LFE168:
 2222              		.size	lv_bar_get_mode, .-lv_bar_get_mode
 2223 000a C046     		.section	.text.lv_bar_set_range,"ax",%progbits
 2224              		.align	2
 2225              		.global	lv_bar_set_range
 2226              		.code	16
 2227              		.thumb_func
 2228              		.type	lv_bar_set_range, %function
 2229              	lv_bar_set_range:
 2230              	.LFB162:
 122:..\..\..\arduinoLCD\test\Pain Drain\libraries\lvgl\src\widgets/lv_bar.c ****     LV_ASSERT_OBJ(obj, MY_CLASS);
 2231              		.loc 2 122 0
 2232              		.cfi_startproc
 2233              		@ args = 0, pretend = 0, frame = 0
 2234              		@ frame_needed = 0, uses_anonymous_args = 0
 2235              	.LVL269:
 2236 0000 70B5     		push	{r4, r5, r6, lr}
 2237              		.cfi_def_cfa_offset 16
 2238              		.cfi_offset 4, -16
 2239              		.cfi_offset 5, -12
 2240              		.cfi_offset 6, -8
 2241              		.cfi_offset 14, -4
 2242 0002 0400     		movs	r4, r0
 2243 0004 0D00     		movs	r5, r1
 2244 0006 1600     		movs	r6, r2
 2245              	.LVL270:
 127:..\..\..\arduinoLCD\test\Pain Drain\libraries\lvgl\src\widgets/lv_bar.c **** 
 2246              		.loc 2 127 0
 2247 0008 836A     		ldr	r3, [r0, #40]
 2248 000a 8B42     		cmp	r3, r1
 2249 000c 02D1     		bne	.L92
 127:..\..\..\arduinoLCD\test\Pain Drain\libraries\lvgl\src\widgets/lv_bar.c **** 
 2250              		.loc 2 127 0 is_stmt 0 discriminator 1
 2251 000e C36A     		ldr	r3, [r0, #44]
 2252 0010 9342     		cmp	r3, r2
 2253 0012 1CD0     		beq	.L91
 2254              	.L92:
 129:..\..\..\arduinoLCD\test\Pain Drain\libraries\lvgl\src\widgets/lv_bar.c ****     bar->min_value = min;
 2255              		.loc 2 129 0 is_stmt 1
 2256 0014 E662     		str	r6, [r4, #44]
 130:..\..\..\arduinoLCD\test\Pain Drain\libraries\lvgl\src\widgets/lv_bar.c **** 
 2257              		.loc 2 130 0
 2258 0016 A562     		str	r5, [r4, #40]
 132:..\..\..\arduinoLCD\test\Pain Drain\libraries\lvgl\src\widgets/lv_bar.c ****         bar->start_value = min;
 2259              		.loc 2 132 0
 2260 0018 2000     		movs	r0, r4
ARM GAS  C:\Users\haske\AppData\Local\Temp\cc11ZRIl.s 			page 73


 2261              	.LVL271:
 2262 001a FFF7FEFF 		bl	lv_bar_get_mode
 2263              	.LVL272:
 2264 001e 0228     		cmp	r0, #2
 2265 0020 00D0     		beq	.L94
 133:..\..\..\arduinoLCD\test\Pain Drain\libraries\lvgl\src\widgets/lv_bar.c **** 
 2266              		.loc 2 133 0
 2267 0022 2563     		str	r5, [r4, #48]
 2268              	.L94:
 135:..\..\..\arduinoLCD\test\Pain Drain\libraries\lvgl\src\widgets/lv_bar.c ****         bar->cur_value = max;
 2269              		.loc 2 135 0
 2270 0024 636A     		ldr	r3, [r4, #36]
 2271 0026 9E42     		cmp	r6, r3
 2272 0028 05DA     		bge	.L95
 136:..\..\..\arduinoLCD\test\Pain Drain\libraries\lvgl\src\widgets/lv_bar.c ****         lv_bar_set_value(obj, bar->cur_value, LV_ANIM_OFF);
 2273              		.loc 2 136 0
 2274 002a 6662     		str	r6, [r4, #36]
 137:..\..\..\arduinoLCD\test\Pain Drain\libraries\lvgl\src\widgets/lv_bar.c ****     }
 2275              		.loc 2 137 0
 2276 002c 0022     		movs	r2, #0
 2277 002e 3100     		movs	r1, r6
 2278 0030 2000     		movs	r0, r4
 2279 0032 FFF7FEFF 		bl	lv_bar_set_value
 2280              	.LVL273:
 2281              	.L95:
 139:..\..\..\arduinoLCD\test\Pain Drain\libraries\lvgl\src\widgets/lv_bar.c ****         bar->cur_value = min;
 2282              		.loc 2 139 0
 2283 0036 636A     		ldr	r3, [r4, #36]
 2284 0038 9D42     		cmp	r5, r3
 2285 003a 05DD     		ble	.L96
 140:..\..\..\arduinoLCD\test\Pain Drain\libraries\lvgl\src\widgets/lv_bar.c ****         lv_bar_set_value(obj, bar->cur_value, LV_ANIM_OFF);
 2286              		.loc 2 140 0
 2287 003c 6562     		str	r5, [r4, #36]
 141:..\..\..\arduinoLCD\test\Pain Drain\libraries\lvgl\src\widgets/lv_bar.c ****     }
 2288              		.loc 2 141 0
 2289 003e 0022     		movs	r2, #0
 2290 0040 2900     		movs	r1, r5
 2291 0042 2000     		movs	r0, r4
 2292 0044 FFF7FEFF 		bl	lv_bar_set_value
 2293              	.LVL274:
 2294              	.L96:
 143:..\..\..\arduinoLCD\test\Pain Drain\libraries\lvgl\src\widgets/lv_bar.c **** }
 2295              		.loc 2 143 0
 2296 0048 2000     		movs	r0, r4
 2297 004a FFF7FEFF 		bl	lv_obj_invalidate
 2298              	.LVL275:
 2299              	.L91:
 144:..\..\..\arduinoLCD\test\Pain Drain\libraries\lvgl\src\widgets/lv_bar.c **** 
 2300              		.loc 2 144 0
 2301              		@ sp needed
 2302              	.LVL276:
 2303              	.LVL277:
 2304              	.LVL278:
 2305 004e 70BD     		pop	{r4, r5, r6, pc}
 2306              		.cfi_endproc
 2307              	.LFE162:
 2308              		.size	lv_bar_set_range, .-lv_bar_set_range
ARM GAS  C:\Users\haske\AppData\Local\Temp\cc11ZRIl.s 			page 74


 2309              		.global	lv_bar_class
 2310              		.section	.rodata
 2311              		.align	2
 2312              		.set	.LANCHOR0,. + 0
 2313              		.type	lv_bar_class, %object
 2314              		.size	lv_bar_class, 28
 2315              	lv_bar_class:
 2316 0000 00000000 		.word	lv_obj_class
 2317 0004 00000000 		.word	lv_bar_constructor
 2318 0008 00000000 		.word	lv_bar_destructor
 2319 000c 00000000 		.space	4
 2320 0010 00000000 		.word	lv_bar_event
 2321 0014 0401     		.short	260
 2322 0016 0D00     		.short	13
 2323 0018 00       		.byte	0
 2324 0019 06       		.byte	6
 2325 001a 00       		.byte	0
 2326 001b 00       		.space	1
 2327              		.text
 2328              	.Letext0:
 2329              		.file 5 "c:\\program files (x86)\\cypress\\psoc creator\\4.4\\psoc creator\\import\\gnu\\arm\\5.4.
 2330              		.file 6 "c:\\program files (x86)\\cypress\\psoc creator\\4.4\\psoc creator\\import\\gnu\\arm\\5.4.
 2331              		.file 7 "c:\\program files (x86)\\cypress\\psoc creator\\4.4\\psoc creator\\import\\gnu\\arm\\5.4.
 2332              		.file 8 "c:\\projects\\paindrain\\arduinolcd\\test\\pain drain\\libraries\\lvgl\\src\\font\\lv_fon
 2333              		.file 9 "c:\\projects\\paindrain\\arduinolcd\\test\\pain drain\\libraries\\lvgl\\src\\misc\\lv_typ
 2334              		.file 10 "c:\\projects\\paindrain\\arduinolcd\\test\\pain drain\\libraries\\lvgl\\src\\misc\\lv_co
 2335              		.file 11 "c:\\projects\\paindrain\\arduinolcd\\test\\pain drain\\libraries\\lvgl\\src\\misc\\lv_tx
 2336              		.file 12 "c:\\projects\\paindrain\\arduinolcd\\test\\pain drain\\libraries\\lvgl\\src\\misc\\lv_bi
 2337              		.file 13 "c:\\projects\\paindrain\\arduinolcd\\test\\pain drain\\libraries\\lvgl\\src\\misc\\lv_st
 2338              		.file 14 "c:\\projects\\paindrain\\arduinolcd\\test\\pain drain\\libraries\\lvgl\\src\\draw\\lv_im
 2339              		.file 15 "..\\..\\..\\arduinoLCD\\test\\Pain Drain\\libraries\\lvgl\\src\\widgets\\../core/lv_obj.
 2340              		.file 16 "c:\\projects\\paindrain\\arduinolcd\\test\\pain drain\\libraries\\lvgl\\src\\draw\\lv_dr
 2341              		.file 17 "c:\\projects\\paindrain\\arduinolcd\\test\\pain drain\\libraries\\lvgl\\src\\draw\\lv_dr
 2342              		.file 18 "c:\\projects\\paindrain\\arduinolcd\\test\\pain drain\\libraries\\lvgl\\src\\draw\\lv_dr
 2343              		.file 19 "c:\\projects\\paindrain\\arduinolcd\\test\\pain drain\\libraries\\lvgl\\src\\draw\\lv_dr
 2344              		.file 20 "c:\\projects\\paindrain\\arduinolcd\\test\\pain drain\\libraries\\lvgl\\src\\draw\\lv_dr
 2345              		.file 21 "c:\\projects\\paindrain\\arduinolcd\\test\\pain drain\\libraries\\lvgl\\src\\draw\\lv_dr
 2346              		.file 22 "c:\\projects\\paindrain\\arduinolcd\\test\\pain drain\\libraries\\lvgl\\src\\draw\\lv_dr
 2347              		.file 23 "c:\\projects\\paindrain\\arduinolcd\\test\\pain drain\\libraries\\lvgl\\src\\draw\\lv_dr
 2348              		.file 24 "c:\\projects\\paindrain\\arduinolcd\\test\\pain drain\\libraries\\lvgl\\src\\misc\\lv_ll
 2349              		.file 25 "..\\..\\..\\arduinoLCD\\test\\Pain Drain\\libraries\\lvgl\\src\\widgets\\../core/lv_grou
 2350              		.file 26 "..\\..\\..\\arduinoLCD\\test\\Pain Drain\\libraries\\lvgl\\src\\widgets\\../core/lv_obj_
 2351              		.file 27 "..\\..\\..\\arduinoLCD\\test\\Pain Drain\\libraries\\lvgl\\src\\widgets\\../core/lv_obj_
 2352              		.file 28 "..\\..\\..\\arduinoLCD\\test\\Pain Drain\\libraries\\lvgl\\src\\widgets\\../core/lv_obj_
 2353              		.file 29 "..\\..\\..\\arduinoLCD\\test\\Pain Drain\\libraries\\lvgl\\src\\widgets\\../core/lv_obj_
 2354              		.file 30 "..\\..\\..\\arduinoLCD\\test\\Pain Drain\\libraries\\lvgl\\src\\widgets\\../core/lv_even
 2355              		.file 31 "..\\..\\..\\arduinoLCD\\test\\Pain Drain\\libraries\\lvgl\\src\\widgets\\lv_bar.h"
 2356              		.file 32 "c:\\projects\\paindrain\\arduinolcd\\test\\pain drain\\libraries\\lvgl\\src\\core\\lv_ob
 2357              		.section	.debug_info,"",%progbits
 2358              	.Ldebug_info0:
 2359 0000 2F350000 		.4byte	0x352f
 2360 0004 0400     		.2byte	0x4
 2361 0006 00000000 		.4byte	.Ldebug_abbrev0
 2362 000a 04       		.byte	0x4
 2363 000b 01       		.uleb128 0x1
 2364 000c D3090000 		.4byte	.LASF631
 2365 0010 0C       		.byte	0xc
ARM GAS  C:\Users\haske\AppData\Local\Temp\cc11ZRIl.s 			page 75


 2366 0011 56120000 		.4byte	.LASF632
 2367 0015 2F210000 		.4byte	.LASF633
 2368 0019 00000000 		.4byte	.Ldebug_ranges0+0
 2369 001d 00000000 		.4byte	0
 2370 0021 00000000 		.4byte	.Ldebug_line0
 2371 0025 02       		.uleb128 0x2
 2372 0026 B51A0000 		.4byte	.LASF0
 2373 002a 05       		.byte	0x5
 2374 002b 1B       		.byte	0x1b
 2375 002c 30000000 		.4byte	0x30
 2376 0030 03       		.uleb128 0x3
 2377 0031 01       		.byte	0x1
 2378 0032 06       		.byte	0x6
 2379 0033 17070000 		.4byte	.LASF2
 2380 0037 02       		.uleb128 0x2
 2381 0038 0C040000 		.4byte	.LASF1
 2382 003c 05       		.byte	0x5
 2383 003d 1D       		.byte	0x1d
 2384 003e 42000000 		.4byte	0x42
 2385 0042 03       		.uleb128 0x3
 2386 0043 01       		.byte	0x1
 2387 0044 08       		.byte	0x8
 2388 0045 3B080000 		.4byte	.LASF3
 2389 0049 02       		.uleb128 0x2
 2390 004a 0A1D0000 		.4byte	.LASF4
 2391 004e 05       		.byte	0x5
 2392 004f 29       		.byte	0x29
 2393 0050 54000000 		.4byte	0x54
 2394 0054 03       		.uleb128 0x3
 2395 0055 02       		.byte	0x2
 2396 0056 05       		.byte	0x5
 2397 0057 541F0000 		.4byte	.LASF5
 2398 005b 02       		.uleb128 0x2
 2399 005c 8D0B0000 		.4byte	.LASF6
 2400 0060 05       		.byte	0x5
 2401 0061 2B       		.byte	0x2b
 2402 0062 66000000 		.4byte	0x66
 2403 0066 03       		.uleb128 0x3
 2404 0067 02       		.byte	0x2
 2405 0068 07       		.byte	0x7
 2406 0069 74230000 		.4byte	.LASF7
 2407 006d 02       		.uleb128 0x2
 2408 006e 64240000 		.4byte	.LASF8
 2409 0072 05       		.byte	0x5
 2410 0073 3F       		.byte	0x3f
 2411 0074 78000000 		.4byte	0x78
 2412 0078 03       		.uleb128 0x3
 2413 0079 04       		.byte	0x4
 2414 007a 05       		.byte	0x5
 2415 007b 2B050000 		.4byte	.LASF9
 2416 007f 02       		.uleb128 0x2
 2417 0080 F2130000 		.4byte	.LASF10
 2418 0084 05       		.byte	0x5
 2419 0085 41       		.byte	0x41
 2420 0086 8A000000 		.4byte	0x8a
 2421 008a 03       		.uleb128 0x3
 2422 008b 04       		.byte	0x4
ARM GAS  C:\Users\haske\AppData\Local\Temp\cc11ZRIl.s 			page 76


 2423 008c 07       		.byte	0x7
 2424 008d E3100000 		.4byte	.LASF11
 2425 0091 03       		.uleb128 0x3
 2426 0092 08       		.byte	0x8
 2427 0093 05       		.byte	0x5
 2428 0094 32140000 		.4byte	.LASF12
 2429 0098 03       		.uleb128 0x3
 2430 0099 08       		.byte	0x8
 2431 009a 07       		.byte	0x7
 2432 009b FB1A0000 		.4byte	.LASF13
 2433 009f 04       		.uleb128 0x4
 2434 00a0 04       		.byte	0x4
 2435 00a1 05       		.byte	0x5
 2436 00a2 696E7400 		.ascii	"int\000"
 2437 00a6 03       		.uleb128 0x3
 2438 00a7 04       		.byte	0x4
 2439 00a8 07       		.byte	0x7
 2440 00a9 93160000 		.4byte	.LASF14
 2441 00ad 02       		.uleb128 0x2
 2442 00ae 09000000 		.4byte	.LASF15
 2443 00b2 06       		.byte	0x6
 2444 00b3 14       		.byte	0x14
 2445 00b4 25000000 		.4byte	0x25
 2446 00b8 02       		.uleb128 0x2
 2447 00b9 23070000 		.4byte	.LASF16
 2448 00bd 06       		.byte	0x6
 2449 00be 18       		.byte	0x18
 2450 00bf 37000000 		.4byte	0x37
 2451 00c3 02       		.uleb128 0x2
 2452 00c4 20200000 		.4byte	.LASF17
 2453 00c8 06       		.byte	0x6
 2454 00c9 20       		.byte	0x20
 2455 00ca 49000000 		.4byte	0x49
 2456 00ce 02       		.uleb128 0x2
 2457 00cf 861B0000 		.4byte	.LASF18
 2458 00d3 06       		.byte	0x6
 2459 00d4 24       		.byte	0x24
 2460 00d5 5B000000 		.4byte	0x5b
 2461 00d9 02       		.uleb128 0x2
 2462 00da EE000000 		.4byte	.LASF19
 2463 00de 06       		.byte	0x6
 2464 00df 2C       		.byte	0x2c
 2465 00e0 6D000000 		.4byte	0x6d
 2466 00e4 02       		.uleb128 0x2
 2467 00e5 C4220000 		.4byte	.LASF20
 2468 00e9 06       		.byte	0x6
 2469 00ea 30       		.byte	0x30
 2470 00eb 7F000000 		.4byte	0x7f
 2471 00ef 02       		.uleb128 0x2
 2472 00f0 2A000000 		.4byte	.LASF21
 2473 00f4 07       		.byte	0x7
 2474 00f5 D8       		.byte	0xd8
 2475 00f6 A6000000 		.4byte	0xa6
 2476 00fa 03       		.uleb128 0x3
 2477 00fb 08       		.byte	0x8
 2478 00fc 04       		.byte	0x4
 2479 00fd A4190000 		.4byte	.LASF22
ARM GAS  C:\Users\haske\AppData\Local\Temp\cc11ZRIl.s 			page 77


 2480 0101 02       		.uleb128 0x2
 2481 0102 A0230000 		.4byte	.LASF23
 2482 0106 01       		.byte	0x1
 2483 0107 1B       		.byte	0x1b
 2484 0108 C3000000 		.4byte	0xc3
 2485 010c 05       		.uleb128 0x5
 2486 010d 04       		.byte	0x4
 2487 010e 01       		.byte	0x1
 2488 010f 25       		.byte	0x25
 2489 0110 29010000 		.4byte	0x129
 2490 0114 06       		.uleb128 0x6
 2491 0115 7800     		.ascii	"x\000"
 2492 0117 01       		.byte	0x1
 2493 0118 26       		.byte	0x26
 2494 0119 01010000 		.4byte	0x101
 2495 011d 00       		.byte	0
 2496 011e 06       		.uleb128 0x6
 2497 011f 7900     		.ascii	"y\000"
 2498 0121 01       		.byte	0x1
 2499 0122 27       		.byte	0x27
 2500 0123 01010000 		.4byte	0x101
 2501 0127 02       		.byte	0x2
 2502 0128 00       		.byte	0
 2503 0129 02       		.uleb128 0x2
 2504 012a 2F010000 		.4byte	.LASF24
 2505 012e 01       		.byte	0x1
 2506 012f 28       		.byte	0x28
 2507 0130 0C010000 		.4byte	0x10c
 2508 0134 05       		.uleb128 0x5
 2509 0135 08       		.byte	0x8
 2510 0136 01       		.byte	0x1
 2511 0137 2B       		.byte	0x2b
 2512 0138 69010000 		.4byte	0x169
 2513 013c 06       		.uleb128 0x6
 2514 013d 783100   		.ascii	"x1\000"
 2515 0140 01       		.byte	0x1
 2516 0141 2C       		.byte	0x2c
 2517 0142 01010000 		.4byte	0x101
 2518 0146 00       		.byte	0
 2519 0147 06       		.uleb128 0x6
 2520 0148 793100   		.ascii	"y1\000"
 2521 014b 01       		.byte	0x1
 2522 014c 2D       		.byte	0x2d
 2523 014d 01010000 		.4byte	0x101
 2524 0151 02       		.byte	0x2
 2525 0152 06       		.uleb128 0x6
 2526 0153 783200   		.ascii	"x2\000"
 2527 0156 01       		.byte	0x1
 2528 0157 2E       		.byte	0x2e
 2529 0158 01010000 		.4byte	0x101
 2530 015c 04       		.byte	0x4
 2531 015d 06       		.uleb128 0x6
 2532 015e 793200   		.ascii	"y2\000"
 2533 0161 01       		.byte	0x1
 2534 0162 2F       		.byte	0x2f
 2535 0163 01010000 		.4byte	0x101
 2536 0167 06       		.byte	0x6
ARM GAS  C:\Users\haske\AppData\Local\Temp\cc11ZRIl.s 			page 78


 2537 0168 00       		.byte	0
 2538 0169 02       		.uleb128 0x2
 2539 016a B80D0000 		.4byte	.LASF25
 2540 016e 01       		.byte	0x1
 2541 016f 30       		.byte	0x30
 2542 0170 34010000 		.4byte	0x134
 2543 0174 02       		.uleb128 0x2
 2544 0175 5D0C0000 		.4byte	.LASF26
 2545 0179 01       		.byte	0x1
 2546 017a 59       		.byte	0x59
 2547 017b B8000000 		.4byte	0xb8
 2548 017f 05       		.uleb128 0x5
 2549 0180 10       		.byte	0x10
 2550 0181 08       		.byte	0x8
 2551 0182 29       		.byte	0x29
 2552 0183 EE010000 		.4byte	0x1ee
 2553 0187 07       		.uleb128 0x7
 2554 0188 CB110000 		.4byte	.LASF27
 2555 018c 08       		.byte	0x8
 2556 018d 2B       		.byte	0x2b
 2557 018e 76020000 		.4byte	0x276
 2558 0192 00       		.byte	0
 2559 0193 07       		.uleb128 0x7
 2560 0194 31000000 		.4byte	.LASF28
 2561 0198 08       		.byte	0x8
 2562 0199 2C       		.byte	0x2c
 2563 019a CE000000 		.4byte	0xce
 2564 019e 04       		.byte	0x4
 2565 019f 07       		.uleb128 0x7
 2566 01a0 4E1F0000 		.4byte	.LASF29
 2567 01a4 08       		.byte	0x8
 2568 01a5 2D       		.byte	0x2d
 2569 01a6 CE000000 		.4byte	0xce
 2570 01aa 06       		.byte	0x6
 2571 01ab 07       		.uleb128 0x7
 2572 01ac FF1E0000 		.4byte	.LASF30
 2573 01b0 08       		.byte	0x8
 2574 01b1 2E       		.byte	0x2e
 2575 01b2 CE000000 		.4byte	0xce
 2576 01b6 08       		.byte	0x8
 2577 01b7 07       		.uleb128 0x7
 2578 01b8 68090000 		.4byte	.LASF31
 2579 01bc 08       		.byte	0x8
 2580 01bd 2F       		.byte	0x2f
 2581 01be C3000000 		.4byte	0xc3
 2582 01c2 0A       		.byte	0xa
 2583 01c3 07       		.uleb128 0x7
 2584 01c4 6E090000 		.4byte	.LASF32
 2585 01c8 08       		.byte	0x8
 2586 01c9 30       		.byte	0x30
 2587 01ca C3000000 		.4byte	0xc3
 2588 01ce 0C       		.byte	0xc
 2589 01cf 08       		.uleb128 0x8
 2590 01d0 62707000 		.ascii	"bpp\000"
 2591 01d4 08       		.byte	0x8
 2592 01d5 31       		.byte	0x31
 2593 01d6 B8000000 		.4byte	0xb8
ARM GAS  C:\Users\haske\AppData\Local\Temp\cc11ZRIl.s 			page 79


 2594 01da 01       		.byte	0x1
 2595 01db 04       		.byte	0x4
 2596 01dc 04       		.byte	0x4
 2597 01dd 0E       		.byte	0xe
 2598 01de 09       		.uleb128 0x9
 2599 01df 1B260000 		.4byte	.LASF33
 2600 01e3 08       		.byte	0x8
 2601 01e4 32       		.byte	0x32
 2602 01e5 B8000000 		.4byte	0xb8
 2603 01e9 01       		.byte	0x1
 2604 01ea 01       		.byte	0x1
 2605 01eb 03       		.byte	0x3
 2606 01ec 0E       		.byte	0xe
 2607 01ed 00       		.byte	0
 2608 01ee 0A       		.uleb128 0xa
 2609 01ef E7130000 		.4byte	.LASF74
 2610 01f3 1C       		.byte	0x1c
 2611 01f4 08       		.byte	0x8
 2612 01f5 40       		.byte	0x40
 2613 01f6 76020000 		.4byte	0x276
 2614 01fa 07       		.uleb128 0x7
 2615 01fb 56240000 		.4byte	.LASF34
 2616 01ff 08       		.byte	0x8
 2617 0200 42       		.byte	0x42
 2618 0201 B7020000 		.4byte	0x2b7
 2619 0205 00       		.byte	0
 2620 0206 07       		.uleb128 0x7
 2621 0207 A2070000 		.4byte	.LASF35
 2622 020b 08       		.byte	0x8
 2623 020c 45       		.byte	0x45
 2624 020d DC020000 		.4byte	0x2dc
 2625 0211 04       		.byte	0x4
 2626 0212 07       		.uleb128 0x7
 2627 0213 73010000 		.4byte	.LASF36
 2628 0217 08       		.byte	0x8
 2629 0218 48       		.byte	0x48
 2630 0219 01010000 		.4byte	0x101
 2631 021d 08       		.byte	0x8
 2632 021e 07       		.uleb128 0x7
 2633 021f 5E1F0000 		.4byte	.LASF37
 2634 0223 08       		.byte	0x8
 2635 0224 49       		.byte	0x49
 2636 0225 01010000 		.4byte	0x101
 2637 0229 0A       		.byte	0xa
 2638 022a 09       		.uleb128 0x9
 2639 022b F4190000 		.4byte	.LASF38
 2640 022f 08       		.byte	0x8
 2641 0230 4A       		.byte	0x4a
 2642 0231 B8000000 		.4byte	0xb8
 2643 0235 01       		.byte	0x1
 2644 0236 02       		.byte	0x2
 2645 0237 06       		.byte	0x6
 2646 0238 0C       		.byte	0xc
 2647 0239 07       		.uleb128 0x7
 2648 023a EA0A0000 		.4byte	.LASF39
 2649 023e 08       		.byte	0x8
 2650 023f 4C       		.byte	0x4c
ARM GAS  C:\Users\haske\AppData\Local\Temp\cc11ZRIl.s 			page 80


 2651 0240 AD000000 		.4byte	0xad
 2652 0244 0D       		.byte	0xd
 2653 0245 07       		.uleb128 0x7
 2654 0246 88150000 		.4byte	.LASF40
 2655 024a 08       		.byte	0x8
 2656 024b 4D       		.byte	0x4d
 2657 024c AD000000 		.4byte	0xad
 2658 0250 0E       		.byte	0xe
 2659 0251 06       		.uleb128 0x6
 2660 0252 64736300 		.ascii	"dsc\000"
 2661 0256 08       		.byte	0x8
 2662 0257 4F       		.byte	0x4f
 2663 0258 E2020000 		.4byte	0x2e2
 2664 025c 10       		.byte	0x10
 2665 025d 07       		.uleb128 0x7
 2666 025e 630D0000 		.4byte	.LASF41
 2667 0262 08       		.byte	0x8
 2668 0263 50       		.byte	0x50
 2669 0264 76020000 		.4byte	0x276
 2670 0268 14       		.byte	0x14
 2671 0269 07       		.uleb128 0x7
 2672 026a F6230000 		.4byte	.LASF42
 2673 026e 08       		.byte	0x8
 2674 026f 52       		.byte	0x52
 2675 0270 E9020000 		.4byte	0x2e9
 2676 0274 18       		.byte	0x18
 2677 0275 00       		.byte	0
 2678 0276 0B       		.uleb128 0xb
 2679 0277 04       		.byte	0x4
 2680 0278 7C020000 		.4byte	0x27c
 2681 027c 0C       		.uleb128 0xc
 2682 027d EE010000 		.4byte	0x1ee
 2683 0281 02       		.uleb128 0x2
 2684 0282 4A180000 		.4byte	.LASF43
 2685 0286 08       		.byte	0x8
 2686 0287 33       		.byte	0x33
 2687 0288 7F010000 		.4byte	0x17f
 2688 028c 0D       		.uleb128 0xd
 2689 028d AA020000 		.4byte	0x2aa
 2690 0291 AA020000 		.4byte	0x2aa
 2691 0295 0E       		.uleb128 0xe
 2692 0296 76020000 		.4byte	0x276
 2693 029a 0E       		.uleb128 0xe
 2694 029b B1020000 		.4byte	0x2b1
 2695 029f 0E       		.uleb128 0xe
 2696 02a0 E4000000 		.4byte	0xe4
 2697 02a4 0E       		.uleb128 0xe
 2698 02a5 E4000000 		.4byte	0xe4
 2699 02a9 00       		.byte	0
 2700 02aa 03       		.uleb128 0x3
 2701 02ab 01       		.byte	0x1
 2702 02ac 02       		.byte	0x2
 2703 02ad 8B090000 		.4byte	.LASF44
 2704 02b1 0B       		.uleb128 0xb
 2705 02b2 04       		.byte	0x4
 2706 02b3 81020000 		.4byte	0x281
 2707 02b7 0B       		.uleb128 0xb
ARM GAS  C:\Users\haske\AppData\Local\Temp\cc11ZRIl.s 			page 81


 2708 02b8 04       		.byte	0x4
 2709 02b9 8C020000 		.4byte	0x28c
 2710 02bd 0D       		.uleb128 0xd
 2711 02be D1020000 		.4byte	0x2d1
 2712 02c2 D1020000 		.4byte	0x2d1
 2713 02c6 0E       		.uleb128 0xe
 2714 02c7 76020000 		.4byte	0x276
 2715 02cb 0E       		.uleb128 0xe
 2716 02cc E4000000 		.4byte	0xe4
 2717 02d0 00       		.byte	0
 2718 02d1 0B       		.uleb128 0xb
 2719 02d2 04       		.byte	0x4
 2720 02d3 D7020000 		.4byte	0x2d7
 2721 02d7 0C       		.uleb128 0xc
 2722 02d8 B8000000 		.4byte	0xb8
 2723 02dc 0B       		.uleb128 0xb
 2724 02dd 04       		.byte	0x4
 2725 02de BD020000 		.4byte	0x2bd
 2726 02e2 0B       		.uleb128 0xb
 2727 02e3 04       		.byte	0x4
 2728 02e4 E8020000 		.4byte	0x2e8
 2729 02e8 0F       		.uleb128 0xf
 2730 02e9 10       		.uleb128 0x10
 2731 02ea 04       		.byte	0x4
 2732 02eb 02       		.uleb128 0x2
 2733 02ec 1D230000 		.4byte	.LASF45
 2734 02f0 08       		.byte	0x8
 2735 02f1 54       		.byte	0x54
 2736 02f2 EE010000 		.4byte	0x1ee
 2737 02f6 11       		.uleb128 0x11
 2738 02f7 01       		.byte	0x1
 2739 02f8 42000000 		.4byte	0x42
 2740 02fc 09       		.byte	0x9
 2741 02fd 2A       		.byte	0x2a
 2742 02fe 0F030000 		.4byte	0x30f
 2743 0302 12       		.uleb128 0x12
 2744 0303 95020000 		.4byte	.LASF46
 2745 0307 00       		.byte	0
 2746 0308 12       		.uleb128 0x12
 2747 0309 8F1B0000 		.4byte	.LASF47
 2748 030d 01       		.byte	0x1
 2749 030e 00       		.byte	0
 2750 030f 02       		.uleb128 0x2
 2751 0310 74190000 		.4byte	.LASF48
 2752 0314 09       		.byte	0x9
 2753 0315 2F       		.byte	0x2f
 2754 0316 B8000000 		.4byte	0xb8
 2755 031a 03       		.uleb128 0x3
 2756 031b 04       		.byte	0x4
 2757 031c 07       		.byte	0x7
 2758 031d 37000000 		.4byte	.LASF49
 2759 0321 0B       		.uleb128 0xb
 2760 0322 04       		.byte	0x4
 2761 0323 27030000 		.4byte	0x327
 2762 0327 03       		.uleb128 0x3
 2763 0328 01       		.byte	0x1
 2764 0329 08       		.byte	0x8
ARM GAS  C:\Users\haske\AppData\Local\Temp\cc11ZRIl.s 			page 82


 2765 032a 970A0000 		.4byte	.LASF50
 2766 032e 11       		.uleb128 0x11
 2767 032f 01       		.byte	0x1
 2768 0330 42000000 		.4byte	0x42
 2769 0334 0A       		.byte	0xa
 2770 0335 29       		.byte	0x29
 2771 0336 89030000 		.4byte	0x389
 2772 033a 12       		.uleb128 0x12
 2773 033b B6150000 		.4byte	.LASF51
 2774 033f 00       		.byte	0
 2775 0340 12       		.uleb128 0x12
 2776 0341 3C120000 		.4byte	.LASF52
 2777 0345 00       		.byte	0
 2778 0346 12       		.uleb128 0x12
 2779 0347 AB1C0000 		.4byte	.LASF53
 2780 034b 19       		.byte	0x19
 2781 034c 12       		.uleb128 0x12
 2782 034d 7B1D0000 		.4byte	.LASF54
 2783 0351 33       		.byte	0x33
 2784 0352 12       		.uleb128 0x12
 2785 0353 771E0000 		.4byte	.LASF55
 2786 0357 4C       		.byte	0x4c
 2787 0358 12       		.uleb128 0x12
 2788 0359 16200000 		.4byte	.LASF56
 2789 035d 66       		.byte	0x66
 2790 035e 12       		.uleb128 0x12
 2791 035f FF200000 		.4byte	.LASF57
 2792 0363 7F       		.byte	0x7f
 2793 0364 12       		.uleb128 0x12
 2794 0365 65220000 		.4byte	.LASF58
 2795 0369 99       		.byte	0x99
 2796 036a 12       		.uleb128 0x12
 2797 036b 6A230000 		.4byte	.LASF59
 2798 036f B2       		.byte	0xb2
 2799 0370 12       		.uleb128 0x12
 2800 0371 E9240000 		.4byte	.LASF60
 2801 0375 CC       		.byte	0xcc
 2802 0376 12       		.uleb128 0x12
 2803 0377 3F260000 		.4byte	.LASF61
 2804 037b E5       		.byte	0xe5
 2805 037c 12       		.uleb128 0x12
 2806 037d 0F190000 		.4byte	.LASF62
 2807 0381 FF       		.byte	0xff
 2808 0382 12       		.uleb128 0x12
 2809 0383 FA190000 		.4byte	.LASF63
 2810 0387 FF       		.byte	0xff
 2811 0388 00       		.byte	0
 2812 0389 05       		.uleb128 0x5
 2813 038a 02       		.byte	0x2
 2814 038b 0A       		.byte	0xa
 2815 038c D1       		.byte	0xd1
 2816 038d BF030000 		.4byte	0x3bf
 2817 0391 09       		.uleb128 0x9
 2818 0392 C6070000 		.4byte	.LASF64
 2819 0396 0A       		.byte	0xa
 2820 0397 D3       		.byte	0xd3
 2821 0398 CE000000 		.4byte	0xce
ARM GAS  C:\Users\haske\AppData\Local\Temp\cc11ZRIl.s 			page 83


 2822 039c 02       		.byte	0x2
 2823 039d 05       		.byte	0x5
 2824 039e 0B       		.byte	0xb
 2825 039f 00       		.byte	0
 2826 03a0 09       		.uleb128 0x9
 2827 03a1 17230000 		.4byte	.LASF65
 2828 03a5 0A       		.byte	0xa
 2829 03a6 D4       		.byte	0xd4
 2830 03a7 CE000000 		.4byte	0xce
 2831 03ab 02       		.byte	0x2
 2832 03ac 06       		.byte	0x6
 2833 03ad 05       		.byte	0x5
 2834 03ae 00       		.byte	0
 2835 03af 08       		.uleb128 0x8
 2836 03b0 72656400 		.ascii	"red\000"
 2837 03b4 0A       		.byte	0xa
 2838 03b5 D5       		.byte	0xd5
 2839 03b6 CE000000 		.4byte	0xce
 2840 03ba 02       		.byte	0x2
 2841 03bb 05       		.byte	0x5
 2842 03bc 00       		.byte	0
 2843 03bd 00       		.byte	0
 2844 03be 00       		.byte	0
 2845 03bf 13       		.uleb128 0x13
 2846 03c0 02       		.byte	0x2
 2847 03c1 0A       		.byte	0xa
 2848 03c2 D0       		.byte	0xd0
 2849 03c3 DD030000 		.4byte	0x3dd
 2850 03c7 14       		.uleb128 0x14
 2851 03c8 636800   		.ascii	"ch\000"
 2852 03cb 0A       		.byte	0xa
 2853 03cc DC       		.byte	0xdc
 2854 03cd 89030000 		.4byte	0x389
 2855 03d1 15       		.uleb128 0x15
 2856 03d2 621D0000 		.4byte	.LASF66
 2857 03d6 0A       		.byte	0xa
 2858 03d7 DD       		.byte	0xdd
 2859 03d8 CE000000 		.4byte	0xce
 2860 03dc 00       		.byte	0
 2861 03dd 02       		.uleb128 0x2
 2862 03de 411F0000 		.4byte	.LASF67
 2863 03e2 0A       		.byte	0xa
 2864 03e3 DE       		.byte	0xde
 2865 03e4 BF030000 		.4byte	0x3bf
 2866 03e8 02       		.uleb128 0x2
 2867 03e9 BE1B0000 		.4byte	.LASF68
 2868 03ed 0A       		.byte	0xa
 2869 03ee EB       		.byte	0xeb
 2870 03ef DD030000 		.4byte	0x3dd
 2871 03f3 02       		.uleb128 0x2
 2872 03f4 CC000000 		.4byte	.LASF69
 2873 03f8 0A       		.byte	0xa
 2874 03f9 F5       		.byte	0xf5
 2875 03fa B8000000 		.4byte	0xb8
 2876 03fe 11       		.uleb128 0x11
 2877 03ff 01       		.byte	0x1
 2878 0400 42000000 		.4byte	0x42
ARM GAS  C:\Users\haske\AppData\Local\Temp\cc11ZRIl.s 			page 84


 2879 0404 04       		.byte	0x4
 2880 0405 25       		.byte	0x25
 2881 0406 17040000 		.4byte	0x417
 2882 040a 12       		.uleb128 0x12
 2883 040b 41070000 		.4byte	.LASF70
 2884 040f 00       		.byte	0
 2885 0410 12       		.uleb128 0x12
 2886 0411 76000000 		.4byte	.LASF71
 2887 0415 01       		.byte	0x1
 2888 0416 00       		.byte	0
 2889 0417 02       		.uleb128 0x2
 2890 0418 DE120000 		.4byte	.LASF72
 2891 041c 04       		.byte	0x4
 2892 041d 28       		.byte	0x28
 2893 041e FE030000 		.4byte	0x3fe
 2894 0422 02       		.uleb128 0x2
 2895 0423 B5160000 		.4byte	.LASF73
 2896 0427 04       		.byte	0x4
 2897 0428 2E       		.byte	0x2e
 2898 0429 2D040000 		.4byte	0x42d
 2899 042d 0B       		.uleb128 0xb
 2900 042e 04       		.byte	0x4
 2901 042f 33040000 		.4byte	0x433
 2902 0433 0D       		.uleb128 0xd
 2903 0434 D9000000 		.4byte	0xd9
 2904 0438 42040000 		.4byte	0x442
 2905 043c 0E       		.uleb128 0xe
 2906 043d 42040000 		.4byte	0x442
 2907 0441 00       		.byte	0
 2908 0442 0B       		.uleb128 0xb
 2909 0443 04       		.byte	0x4
 2910 0444 5D050000 		.4byte	0x55d
 2911 0448 0A       		.uleb128 0xa
 2912 0449 C4250000 		.4byte	.LASF75
 2913 044d 44       		.byte	0x44
 2914 044e 04       		.byte	0x4
 2915 044f 49       		.byte	0x49
 2916 0450 5D050000 		.4byte	0x55d
 2917 0454 06       		.uleb128 0x6
 2918 0455 76617200 		.ascii	"var\000"
 2919 0459 04       		.byte	0x4
 2920 045a 4A       		.byte	0x4a
 2921 045b E9020000 		.4byte	0x2e9
 2922 045f 00       		.byte	0
 2923 0460 07       		.uleb128 0x7
 2924 0461 861C0000 		.4byte	.LASF76
 2925 0465 04       		.byte	0x4
 2926 0466 4B       		.byte	0x4b
 2927 0467 62050000 		.4byte	0x562
 2928 046b 04       		.byte	0x4
 2929 046c 07       		.uleb128 0x7
 2930 046d B3070000 		.4byte	.LASF77
 2931 0471 04       		.byte	0x4
 2932 0472 4C       		.byte	0x4c
 2933 0473 A5050000 		.4byte	0x5a5
 2934 0477 08       		.byte	0x8
 2935 0478 07       		.uleb128 0x7
ARM GAS  C:\Users\haske\AppData\Local\Temp\cc11ZRIl.s 			page 85


 2936 0479 040D0000 		.4byte	.LASF78
 2937 047d 04       		.byte	0x4
 2938 047e 4D       		.byte	0x4d
 2939 047f 89050000 		.4byte	0x589
 2940 0483 0C       		.byte	0xc
 2941 0484 07       		.uleb128 0x7
 2942 0485 77240000 		.4byte	.LASF79
 2943 0489 04       		.byte	0x4
 2944 048a 4E       		.byte	0x4e
 2945 048b D0050000 		.4byte	0x5d0
 2946 048f 10       		.byte	0x10
 2947 0490 07       		.uleb128 0x7
 2948 0491 52190000 		.4byte	.LASF80
 2949 0495 04       		.byte	0x4
 2950 0496 4F       		.byte	0x4f
 2951 0497 B0050000 		.4byte	0x5b0
 2952 049b 14       		.byte	0x14
 2953 049c 07       		.uleb128 0x7
 2954 049d F6230000 		.4byte	.LASF42
 2955 04a1 04       		.byte	0x4
 2956 04a2 51       		.byte	0x51
 2957 04a3 E9020000 		.4byte	0x2e9
 2958 04a7 18       		.byte	0x18
 2959 04a8 07       		.uleb128 0x7
 2960 04a9 99010000 		.4byte	.LASF81
 2961 04ad 04       		.byte	0x4
 2962 04ae 53       		.byte	0x53
 2963 04af 22040000 		.4byte	0x422
 2964 04b3 1C       		.byte	0x1c
 2965 04b4 07       		.uleb128 0x7
 2966 04b5 20080000 		.4byte	.LASF82
 2967 04b9 04       		.byte	0x4
 2968 04ba 54       		.byte	0x54
 2969 04bb D9000000 		.4byte	0xd9
 2970 04bf 20       		.byte	0x20
 2971 04c0 07       		.uleb128 0x7
 2972 04c1 85160000 		.4byte	.LASF83
 2973 04c5 04       		.byte	0x4
 2974 04c6 55       		.byte	0x55
 2975 04c7 D9000000 		.4byte	0xd9
 2976 04cb 24       		.byte	0x24
 2977 04cc 07       		.uleb128 0x7
 2978 04cd AF1B0000 		.4byte	.LASF84
 2979 04d1 04       		.byte	0x4
 2980 04d2 56       		.byte	0x56
 2981 04d3 D9000000 		.4byte	0xd9
 2982 04d7 28       		.byte	0x28
 2983 04d8 07       		.uleb128 0x7
 2984 04d9 8B1D0000 		.4byte	.LASF85
 2985 04dd 04       		.byte	0x4
 2986 04de 57       		.byte	0x57
 2987 04df D9000000 		.4byte	0xd9
 2988 04e3 2C       		.byte	0x2c
 2989 04e4 07       		.uleb128 0x7
 2990 04e5 78210000 		.4byte	.LASF86
 2991 04e9 04       		.byte	0x4
 2992 04ea 58       		.byte	0x58
ARM GAS  C:\Users\haske\AppData\Local\Temp\cc11ZRIl.s 			page 86


 2993 04eb D9000000 		.4byte	0xd9
 2994 04ef 30       		.byte	0x30
 2995 04f0 07       		.uleb128 0x7
 2996 04f1 AF0F0000 		.4byte	.LASF87
 2997 04f5 04       		.byte	0x4
 2998 04f6 59       		.byte	0x59
 2999 04f7 E4000000 		.4byte	0xe4
 3000 04fb 34       		.byte	0x34
 3001 04fc 07       		.uleb128 0x7
 3002 04fd C91C0000 		.4byte	.LASF88
 3003 0501 04       		.byte	0x4
 3004 0502 5A       		.byte	0x5a
 3005 0503 E4000000 		.4byte	0xe4
 3006 0507 38       		.byte	0x38
 3007 0508 07       		.uleb128 0x7
 3008 0509 1F190000 		.4byte	.LASF89
 3009 050d 04       		.byte	0x4
 3010 050e 5B       		.byte	0x5b
 3011 050f E4000000 		.4byte	0xe4
 3012 0513 3C       		.byte	0x3c
 3013 0514 07       		.uleb128 0x7
 3014 0515 171A0000 		.4byte	.LASF90
 3015 0519 04       		.byte	0x4
 3016 051a 5C       		.byte	0x5c
 3017 051b CE000000 		.4byte	0xce
 3018 051f 40       		.byte	0x40
 3019 0520 09       		.uleb128 0x9
 3020 0521 A6060000 		.4byte	.LASF91
 3021 0525 04       		.byte	0x4
 3022 0526 5D       		.byte	0x5d
 3023 0527 B8000000 		.4byte	0xb8
 3024 052b 01       		.byte	0x1
 3025 052c 01       		.byte	0x1
 3026 052d 07       		.byte	0x7
 3027 052e 42       		.byte	0x42
 3028 052f 09       		.uleb128 0x9
 3029 0530 14240000 		.4byte	.LASF92
 3030 0534 04       		.byte	0x4
 3031 0535 60       		.byte	0x60
 3032 0536 B8000000 		.4byte	0xb8
 3033 053a 01       		.byte	0x1
 3034 053b 01       		.byte	0x1
 3035 053c 06       		.byte	0x6
 3036 053d 42       		.byte	0x42
 3037 053e 09       		.uleb128 0x9
 3038 053f 5C040000 		.4byte	.LASF93
 3039 0543 04       		.byte	0x4
 3040 0544 61       		.byte	0x61
 3041 0545 B8000000 		.4byte	0xb8
 3042 0549 01       		.byte	0x1
 3043 054a 01       		.byte	0x1
 3044 054b 05       		.byte	0x5
 3045 054c 42       		.byte	0x42
 3046 054d 09       		.uleb128 0x9
 3047 054e A7120000 		.4byte	.LASF94
 3048 0552 04       		.byte	0x4
 3049 0553 62       		.byte	0x62
ARM GAS  C:\Users\haske\AppData\Local\Temp\cc11ZRIl.s 			page 87


 3050 0554 B8000000 		.4byte	0xb8
 3051 0558 01       		.byte	0x1
 3052 0559 01       		.byte	0x1
 3053 055a 04       		.byte	0x4
 3054 055b 42       		.byte	0x42
 3055 055c 00       		.byte	0
 3056 055d 0C       		.uleb128 0xc
 3057 055e 48040000 		.4byte	0x448
 3058 0562 02       		.uleb128 0x2
 3059 0563 BB0A0000 		.4byte	.LASF95
 3060 0567 04       		.byte	0x4
 3061 0568 36       		.byte	0x36
 3062 0569 6D050000 		.4byte	0x56d
 3063 056d 0B       		.uleb128 0xb
 3064 056e 04       		.byte	0x4
 3065 056f 73050000 		.4byte	0x573
 3066 0573 16       		.uleb128 0x16
 3067 0574 83050000 		.4byte	0x583
 3068 0578 0E       		.uleb128 0xe
 3069 0579 E9020000 		.4byte	0x2e9
 3070 057d 0E       		.uleb128 0xe
 3071 057e D9000000 		.4byte	0xd9
 3072 0582 00       		.byte	0
 3073 0583 0B       		.uleb128 0xb
 3074 0584 04       		.byte	0x4
 3075 0585 48040000 		.4byte	0x448
 3076 0589 02       		.uleb128 0x2
 3077 058a FE0E0000 		.4byte	.LASF96
 3078 058e 04       		.byte	0x4
 3079 058f 3D       		.byte	0x3d
 3080 0590 94050000 		.4byte	0x594
 3081 0594 0B       		.uleb128 0xb
 3082 0595 04       		.byte	0x4
 3083 0596 9A050000 		.4byte	0x59a
 3084 059a 16       		.uleb128 0x16
 3085 059b A5050000 		.4byte	0x5a5
 3086 059f 0E       		.uleb128 0xe
 3087 05a0 83050000 		.4byte	0x583
 3088 05a4 00       		.byte	0
 3089 05a5 02       		.uleb128 0x2
 3090 05a6 0E1F0000 		.4byte	.LASF97
 3091 05aa 04       		.byte	0x4
 3092 05ab 40       		.byte	0x40
 3093 05ac 94050000 		.4byte	0x594
 3094 05b0 02       		.uleb128 0x2
 3095 05b1 B5010000 		.4byte	.LASF98
 3096 05b5 04       		.byte	0x4
 3097 05b6 43       		.byte	0x43
 3098 05b7 BB050000 		.4byte	0x5bb
 3099 05bb 0B       		.uleb128 0xb
 3100 05bc 04       		.byte	0x4
 3101 05bd C1050000 		.4byte	0x5c1
 3102 05c1 0D       		.uleb128 0xd
 3103 05c2 D9000000 		.4byte	0xd9
 3104 05c6 D0050000 		.4byte	0x5d0
 3105 05ca 0E       		.uleb128 0xe
 3106 05cb 83050000 		.4byte	0x583
ARM GAS  C:\Users\haske\AppData\Local\Temp\cc11ZRIl.s 			page 88


 3107 05cf 00       		.byte	0
 3108 05d0 02       		.uleb128 0x2
 3109 05d1 C7160000 		.4byte	.LASF99
 3110 05d5 04       		.byte	0x4
 3111 05d6 46       		.byte	0x46
 3112 05d7 94050000 		.4byte	0x594
 3113 05db 02       		.uleb128 0x2
 3114 05dc D9100000 		.4byte	.LASF100
 3115 05e0 04       		.byte	0x4
 3116 05e1 63       		.byte	0x63
 3117 05e2 48040000 		.4byte	0x448
 3118 05e6 02       		.uleb128 0x2
 3119 05e7 4F1C0000 		.4byte	.LASF101
 3120 05eb 0B       		.byte	0xb
 3121 05ec 30       		.byte	0x30
 3122 05ed B8000000 		.4byte	0xb8
 3123 05f1 02       		.uleb128 0x2
 3124 05f2 3A150000 		.4byte	.LASF102
 3125 05f6 0B       		.byte	0xb
 3126 05f7 42       		.byte	0x42
 3127 05f8 B8000000 		.4byte	0xb8
 3128 05fc 11       		.uleb128 0x11
 3129 05fd 01       		.byte	0x1
 3130 05fe 42000000 		.4byte	0x42
 3131 0602 0C       		.byte	0xc
 3132 0603 21       		.byte	0x21
 3133 0604 27060000 		.4byte	0x627
 3134 0608 12       		.uleb128 0x12
 3135 0609 D9240000 		.4byte	.LASF103
 3136 060d 00       		.byte	0
 3137 060e 12       		.uleb128 0x12
 3138 060f 02060000 		.4byte	.LASF104
 3139 0613 01       		.byte	0x1
 3140 0614 12       		.uleb128 0x12
 3141 0615 D4250000 		.4byte	.LASF105
 3142 0619 02       		.byte	0x2
 3143 061a 12       		.uleb128 0x12
 3144 061b 4A150000 		.4byte	.LASF106
 3145 061f 20       		.byte	0x20
 3146 0620 12       		.uleb128 0x12
 3147 0621 44090000 		.4byte	.LASF107
 3148 0625 21       		.byte	0x21
 3149 0626 00       		.byte	0
 3150 0627 02       		.uleb128 0x2
 3151 0628 74090000 		.4byte	.LASF108
 3152 062c 0C       		.byte	0xc
 3153 062d 2A       		.byte	0x2a
 3154 062e B8000000 		.4byte	0xb8
 3155 0632 02       		.uleb128 0x2
 3156 0633 91100000 		.4byte	.LASF109
 3157 0637 0D       		.byte	0xd
 3158 0638 5E       		.byte	0x5e
 3159 0639 B8000000 		.4byte	0xb8
 3160 063d 02       		.uleb128 0x2
 3161 063e 16140000 		.4byte	.LASF110
 3162 0642 0D       		.byte	0xd
 3163 0643 6A       		.byte	0x6a
ARM GAS  C:\Users\haske\AppData\Local\Temp\cc11ZRIl.s 			page 89


 3164 0644 B8000000 		.4byte	0xb8
 3165 0648 02       		.uleb128 0x2
 3166 0649 211E0000 		.4byte	.LASF111
 3167 064d 0D       		.byte	0xd
 3168 064e 79       		.byte	0x79
 3169 064f B8000000 		.4byte	0xb8
 3170 0653 02       		.uleb128 0x2
 3171 0654 82240000 		.4byte	.LASF112
 3172 0658 0D       		.byte	0xd
 3173 0659 84       		.byte	0x84
 3174 065a B8000000 		.4byte	0xb8
 3175 065e 02       		.uleb128 0x2
 3176 065f B6190000 		.4byte	.LASF113
 3177 0663 0D       		.byte	0xd
 3178 0664 90       		.byte	0x90
 3179 0665 B8000000 		.4byte	0xb8
 3180 0669 05       		.uleb128 0x5
 3181 066a 04       		.byte	0x4
 3182 066b 0D       		.byte	0xd
 3183 066c 95       		.byte	0x95
 3184 066d 8A060000 		.4byte	0x68a
 3185 0671 07       		.uleb128 0x7
 3186 0672 851D0000 		.4byte	.LASF114
 3187 0676 0D       		.byte	0xd
 3188 0677 96       		.byte	0x96
 3189 0678 E8030000 		.4byte	0x3e8
 3190 067c 00       		.byte	0
 3191 067d 07       		.uleb128 0x7
 3192 067e 321E0000 		.4byte	.LASF115
 3193 0682 0D       		.byte	0xd
 3194 0683 97       		.byte	0x97
 3195 0684 B8000000 		.4byte	0xb8
 3196 0688 02       		.byte	0x2
 3197 0689 00       		.byte	0
 3198 068a 02       		.uleb128 0x2
 3199 068b 31220000 		.4byte	.LASF116
 3200 068f 0D       		.byte	0xd
 3201 0690 98       		.byte	0x98
 3202 0691 69060000 		.4byte	0x669
 3203 0695 05       		.uleb128 0x5
 3204 0696 0A       		.byte	0xa
 3205 0697 0D       		.byte	0xd
 3206 0698 9B       		.byte	0x9b
 3207 0699 D4060000 		.4byte	0x6d4
 3208 069d 07       		.uleb128 0x7
 3209 069e A41D0000 		.4byte	.LASF117
 3210 06a2 0D       		.byte	0xd
 3211 06a3 9C       		.byte	0x9c
 3212 06a4 D4060000 		.4byte	0x6d4
 3213 06a8 00       		.byte	0
 3214 06a9 07       		.uleb128 0x7
 3215 06aa 740B0000 		.4byte	.LASF118
 3216 06ae 0D       		.byte	0xd
 3217 06af 9D       		.byte	0x9d
 3218 06b0 B8000000 		.4byte	0xb8
 3219 06b4 08       		.byte	0x8
 3220 06b5 08       		.uleb128 0x8
ARM GAS  C:\Users\haske\AppData\Local\Temp\cc11ZRIl.s 			page 90


 3221 06b6 64697200 		.ascii	"dir\000"
 3222 06ba 0D       		.byte	0xd
 3223 06bb 9E       		.byte	0x9e
 3224 06bc 53060000 		.4byte	0x653
 3225 06c0 01       		.byte	0x1
 3226 06c1 03       		.byte	0x3
 3227 06c2 05       		.byte	0x5
 3228 06c3 09       		.byte	0x9
 3229 06c4 09       		.uleb128 0x9
 3230 06c5 63230000 		.4byte	.LASF119
 3231 06c9 0D       		.byte	0xd
 3232 06ca A0       		.byte	0xa0
 3233 06cb 5E060000 		.4byte	0x65e
 3234 06cf 01       		.byte	0x1
 3235 06d0 03       		.byte	0x3
 3236 06d1 02       		.byte	0x2
 3237 06d2 09       		.byte	0x9
 3238 06d3 00       		.byte	0
 3239 06d4 17       		.uleb128 0x17
 3240 06d5 8A060000 		.4byte	0x68a
 3241 06d9 E4060000 		.4byte	0x6e4
 3242 06dd 18       		.uleb128 0x18
 3243 06de 1A030000 		.4byte	0x31a
 3244 06e2 01       		.byte	0x1
 3245 06e3 00       		.byte	0
 3246 06e4 02       		.uleb128 0x2
 3247 06e5 411B0000 		.4byte	.LASF120
 3248 06e9 0D       		.byte	0xd
 3249 06ea A2       		.byte	0xa2
 3250 06eb 95060000 		.4byte	0x695
 3251 06ef 13       		.uleb128 0x13
 3252 06f0 04       		.byte	0x4
 3253 06f1 0D       		.byte	0xd
 3254 06f2 A7       		.byte	0xa7
 3255 06f3 19070000 		.4byte	0x719
 3256 06f7 14       		.uleb128 0x14
 3257 06f8 6E756D00 		.ascii	"num\000"
 3258 06fc 0D       		.byte	0xd
 3259 06fd A8       		.byte	0xa8
 3260 06fe D9000000 		.4byte	0xd9
 3261 0702 14       		.uleb128 0x14
 3262 0703 70747200 		.ascii	"ptr\000"
 3263 0707 0D       		.byte	0xd
 3264 0708 A9       		.byte	0xa9
 3265 0709 E2020000 		.4byte	0x2e2
 3266 070d 15       		.uleb128 0x15
 3267 070e 851D0000 		.4byte	.LASF114
 3268 0712 0D       		.byte	0xd
 3269 0713 AA       		.byte	0xaa
 3270 0714 E8030000 		.4byte	0x3e8
 3271 0718 00       		.byte	0
 3272 0719 02       		.uleb128 0x2
 3273 071a 26170000 		.4byte	.LASF121
 3274 071e 0D       		.byte	0xd
 3275 071f AB       		.byte	0xab
 3276 0720 EF060000 		.4byte	0x6ef
 3277 0724 11       		.uleb128 0x11
ARM GAS  C:\Users\haske\AppData\Local\Temp\cc11ZRIl.s 			page 91


 3278 0725 02       		.byte	0x2
 3279 0726 66000000 		.4byte	0x66
 3280 072a 0D       		.byte	0xd
 3281 072b B2       		.byte	0xb2
 3282 072c 49090000 		.4byte	0x949
 3283 0730 12       		.uleb128 0x12
 3284 0731 6F0E0000 		.4byte	.LASF122
 3285 0735 00       		.byte	0
 3286 0736 12       		.uleb128 0x12
 3287 0737 0D1C0000 		.4byte	.LASF123
 3288 073b 01       		.byte	0x1
 3289 073c 12       		.uleb128 0x12
 3290 073d 3C1C0000 		.4byte	.LASF124
 3291 0741 02       		.byte	0x2
 3292 0742 12       		.uleb128 0x12
 3293 0743 49040000 		.4byte	.LASF125
 3294 0747 03       		.byte	0x3
 3295 0748 12       		.uleb128 0x12
 3296 0749 49020000 		.4byte	.LASF126
 3297 074d 04       		.byte	0x4
 3298 074e 12       		.uleb128 0x12
 3299 074f 98210000 		.4byte	.LASF127
 3300 0753 05       		.byte	0x5
 3301 0754 12       		.uleb128 0x12
 3302 0755 631E0000 		.4byte	.LASF128
 3303 0759 06       		.byte	0x6
 3304 075a 12       		.uleb128 0x12
 3305 075b 71130000 		.4byte	.LASF129
 3306 075f 07       		.byte	0x7
 3307 0760 12       		.uleb128 0x12
 3308 0761 44220000 		.4byte	.LASF130
 3309 0765 08       		.byte	0x8
 3310 0766 12       		.uleb128 0x12
 3311 0767 2C080000 		.4byte	.LASF131
 3312 076b 09       		.byte	0x9
 3313 076c 12       		.uleb128 0x12
 3314 076d 3A180000 		.4byte	.LASF132
 3315 0771 0A       		.byte	0xa
 3316 0772 12       		.uleb128 0x12
 3317 0773 2A040000 		.4byte	.LASF133
 3318 0777 0B       		.byte	0xb
 3319 0778 12       		.uleb128 0x12
 3320 0779 84200000 		.4byte	.LASF134
 3321 077d 10       		.byte	0x10
 3322 077e 12       		.uleb128 0x12
 3323 077f C60F0000 		.4byte	.LASF135
 3324 0783 11       		.byte	0x11
 3325 0784 12       		.uleb128 0x12
 3326 0785 F5120000 		.4byte	.LASF136
 3327 0789 12       		.byte	0x12
 3328 078a 12       		.uleb128 0x12
 3329 078b FB040000 		.4byte	.LASF137
 3330 078f 13       		.byte	0x13
 3331 0790 12       		.uleb128 0x12
 3332 0791 45120000 		.4byte	.LASF138
 3333 0795 14       		.byte	0x14
 3334 0796 12       		.uleb128 0x12
ARM GAS  C:\Users\haske\AppData\Local\Temp\cc11ZRIl.s 			page 92


 3335 0797 83030000 		.4byte	.LASF139
 3336 079b 15       		.byte	0x15
 3337 079c 12       		.uleb128 0x12
 3338 079d 430B0000 		.4byte	.LASF140
 3339 07a1 16       		.byte	0x16
 3340 07a2 12       		.uleb128 0x12
 3341 07a3 D7180000 		.4byte	.LASF141
 3342 07a7 17       		.byte	0x17
 3343 07a8 12       		.uleb128 0x12
 3344 07a9 F60B0000 		.4byte	.LASF142
 3345 07ad 20       		.byte	0x20
 3346 07ae 12       		.uleb128 0x12
 3347 07af 16100000 		.4byte	.LASF143
 3348 07b3 21       		.byte	0x21
 3349 07b4 12       		.uleb128 0x12
 3350 07b5 E81E0000 		.4byte	.LASF144
 3351 07b9 22       		.byte	0x22
 3352 07ba 12       		.uleb128 0x12
 3353 07bb 8D070000 		.4byte	.LASF145
 3354 07bf 23       		.byte	0x23
 3355 07c0 12       		.uleb128 0x12
 3356 07c1 57100000 		.4byte	.LASF146
 3357 07c5 24       		.byte	0x24
 3358 07c6 12       		.uleb128 0x12
 3359 07c7 2B1B0000 		.4byte	.LASF147
 3360 07cb 25       		.byte	0x25
 3361 07cc 12       		.uleb128 0x12
 3362 07cd F8250000 		.4byte	.LASF148
 3363 07d1 26       		.byte	0x26
 3364 07d2 12       		.uleb128 0x12
 3365 07d3 DC030000 		.4byte	.LASF149
 3366 07d7 27       		.byte	0x27
 3367 07d8 12       		.uleb128 0x12
 3368 07d9 B51C0000 		.4byte	.LASF150
 3369 07dd 28       		.byte	0x28
 3370 07de 12       		.uleb128 0x12
 3371 07df BC200000 		.4byte	.LASF151
 3372 07e3 29       		.byte	0x29
 3373 07e4 12       		.uleb128 0x12
 3374 07e5 66040000 		.4byte	.LASF152
 3375 07e9 2A       		.byte	0x2a
 3376 07ea 12       		.uleb128 0x12
 3377 07eb 66050000 		.4byte	.LASF153
 3378 07ef 2B       		.byte	0x2b
 3379 07f0 12       		.uleb128 0x12
 3380 07f1 54060000 		.4byte	.LASF154
 3381 07f5 2C       		.byte	0x2c
 3382 07f6 12       		.uleb128 0x12
 3383 07f7 9F1A0000 		.4byte	.LASF155
 3384 07fb 30       		.byte	0x30
 3385 07fc 12       		.uleb128 0x12
 3386 07fd 7B060000 		.4byte	.LASF156
 3387 0801 31       		.byte	0x31
 3388 0802 12       		.uleb128 0x12
 3389 0803 32030000 		.4byte	.LASF157
 3390 0807 32       		.byte	0x32
 3391 0808 12       		.uleb128 0x12
ARM GAS  C:\Users\haske\AppData\Local\Temp\cc11ZRIl.s 			page 93


 3392 0809 D60C0000 		.4byte	.LASF158
 3393 080d 33       		.byte	0x33
 3394 080e 12       		.uleb128 0x12
 3395 080f 0A220000 		.4byte	.LASF159
 3396 0813 34       		.byte	0x34
 3397 0814 12       		.uleb128 0x12
 3398 0815 CD0D0000 		.4byte	.LASF160
 3399 0819 35       		.byte	0x35
 3400 081a 12       		.uleb128 0x12
 3401 081b DF230000 		.4byte	.LASF161
 3402 081f 36       		.byte	0x36
 3403 0820 12       		.uleb128 0x12
 3404 0821 5F0B0000 		.4byte	.LASF162
 3405 0825 37       		.byte	0x37
 3406 0826 12       		.uleb128 0x12
 3407 0827 2A260000 		.4byte	.LASF163
 3408 082b 38       		.byte	0x38
 3409 082c 12       		.uleb128 0x12
 3410 082d 95180000 		.4byte	.LASF164
 3411 0831 40       		.byte	0x40
 3412 0832 12       		.uleb128 0x12
 3413 0833 701C0000 		.4byte	.LASF165
 3414 0837 41       		.byte	0x41
 3415 0838 12       		.uleb128 0x12
 3416 0839 07130000 		.4byte	.LASF166
 3417 083d 42       		.byte	0x42
 3418 083e 12       		.uleb128 0x12
 3419 083f 31240000 		.4byte	.LASF167
 3420 0843 43       		.byte	0x43
 3421 0844 12       		.uleb128 0x12
 3422 0845 EC060000 		.4byte	.LASF168
 3423 0849 44       		.byte	0x44
 3424 084a 12       		.uleb128 0x12
 3425 084b 7E040000 		.4byte	.LASF169
 3426 084f 45       		.byte	0x45
 3427 0850 12       		.uleb128 0x12
 3428 0851 A1100000 		.4byte	.LASF170
 3429 0855 46       		.byte	0x46
 3430 0856 12       		.uleb128 0x12
 3431 0857 26090000 		.4byte	.LASF171
 3432 085b 47       		.byte	0x47
 3433 085c 12       		.uleb128 0x12
 3434 085d 080C0000 		.4byte	.LASF172
 3435 0861 48       		.byte	0x48
 3436 0862 12       		.uleb128 0x12
 3437 0863 D0200000 		.4byte	.LASF173
 3438 0867 49       		.byte	0x49
 3439 0868 12       		.uleb128 0x12
 3440 0869 EB0C0000 		.4byte	.LASF174
 3441 086d 4A       		.byte	0x4a
 3442 086e 12       		.uleb128 0x12
 3443 086f 5F000000 		.4byte	.LASF175
 3444 0873 4B       		.byte	0x4b
 3445 0874 12       		.uleb128 0x12
 3446 0875 4F220000 		.4byte	.LASF176
 3447 0879 4C       		.byte	0x4c
 3448 087a 12       		.uleb128 0x12
ARM GAS  C:\Users\haske\AppData\Local\Temp\cc11ZRIl.s 			page 94


 3449 087b 15120000 		.4byte	.LASF177
 3450 087f 4D       		.byte	0x4d
 3451 0880 12       		.uleb128 0x12
 3452 0881 26100000 		.4byte	.LASF178
 3453 0885 4E       		.byte	0x4e
 3454 0886 12       		.uleb128 0x12
 3455 0887 55090000 		.4byte	.LASF179
 3456 088b 50       		.byte	0x50
 3457 088c 12       		.uleb128 0x12
 3458 088d C4150000 		.4byte	.LASF180
 3459 0891 51       		.byte	0x51
 3460 0892 12       		.uleb128 0x12
 3461 0893 03200000 		.4byte	.LASF181
 3462 0897 52       		.byte	0x52
 3463 0898 12       		.uleb128 0x12
 3464 0899 D5000000 		.4byte	.LASF182
 3465 089d 53       		.byte	0x53
 3466 089e 12       		.uleb128 0x12
 3467 089f DD1C0000 		.4byte	.LASF183
 3468 08a3 54       		.byte	0x54
 3469 08a4 12       		.uleb128 0x12
 3470 08a5 47160000 		.4byte	.LASF184
 3471 08a9 55       		.byte	0x55
 3472 08aa 12       		.uleb128 0x12
 3473 08ab 31110000 		.4byte	.LASF185
 3474 08af 56       		.byte	0x56
 3475 08b0 12       		.uleb128 0x12
 3476 08b1 211D0000 		.4byte	.LASF186
 3477 08b5 57       		.byte	0x57
 3478 08b6 12       		.uleb128 0x12
 3479 08b7 53260000 		.4byte	.LASF187
 3480 08bb 58       		.byte	0x58
 3481 08bc 12       		.uleb128 0x12
 3482 08bd 810E0000 		.4byte	.LASF188
 3483 08c1 59       		.byte	0x59
 3484 08c2 12       		.uleb128 0x12
 3485 08c3 9C150000 		.4byte	.LASF189
 3486 08c7 5A       		.byte	0x5a
 3487 08c8 12       		.uleb128 0x12
 3488 08c9 A9130000 		.4byte	.LASF190
 3489 08cd 5B       		.byte	0x5b
 3490 08ce 12       		.uleb128 0x12
 3491 08cf 10000000 		.4byte	.LASF191
 3492 08d3 60       		.byte	0x60
 3493 08d4 12       		.uleb128 0x12
 3494 08d5 20150000 		.4byte	.LASF192
 3495 08d9 61       		.byte	0x61
 3496 08da 12       		.uleb128 0x12
 3497 08db 7D190000 		.4byte	.LASF193
 3498 08df 62       		.byte	0x62
 3499 08e0 12       		.uleb128 0x12
 3500 08e1 63130000 		.4byte	.LASF194
 3501 08e5 63       		.byte	0x63
 3502 08e6 12       		.uleb128 0x12
 3503 08e7 9C0F0000 		.4byte	.LASF195
 3504 08eb 64       		.byte	0x64
 3505 08ec 12       		.uleb128 0x12
ARM GAS  C:\Users\haske\AppData\Local\Temp\cc11ZRIl.s 			page 95


 3506 08ed 8A0D0000 		.4byte	.LASF196
 3507 08f1 65       		.byte	0x65
 3508 08f2 12       		.uleb128 0x12
 3509 08f3 34050000 		.4byte	.LASF197
 3510 08f7 66       		.byte	0x66
 3511 08f8 12       		.uleb128 0x12
 3512 08f9 2E0C0000 		.4byte	.LASF198
 3513 08fd 67       		.byte	0x67
 3514 08fe 12       		.uleb128 0x12
 3515 08ff 1F0D0000 		.4byte	.LASF199
 3516 0903 68       		.byte	0x68
 3517 0904 12       		.uleb128 0x12
 3518 0905 A9040000 		.4byte	.LASF200
 3519 0909 69       		.byte	0x69
 3520 090a 12       		.uleb128 0x12
 3521 090b A9090000 		.4byte	.LASF201
 3522 090f 6A       		.byte	0x6a
 3523 0910 12       		.uleb128 0x12
 3524 0911 BE090000 		.4byte	.LASF202
 3525 0915 6B       		.byte	0x6b
 3526 0916 12       		.uleb128 0x12
 3527 0917 B2100000 		.4byte	.LASF203
 3528 091b 6C       		.byte	0x6c
 3529 091c 12       		.uleb128 0x12
 3530 091d DE140000 		.4byte	.LASF204
 3531 0921 6D       		.byte	0x6d
 3532 0922 12       		.uleb128 0x12
 3533 0923 D1080000 		.4byte	.LASF205
 3534 0927 6E       		.byte	0x6e
 3535 0928 12       		.uleb128 0x12
 3536 0929 EC080000 		.4byte	.LASF206
 3537 092d 6F       		.byte	0x6f
 3538 092e 12       		.uleb128 0x12
 3539 092f C0020000 		.4byte	.LASF207
 3540 0933 6F       		.byte	0x6f
 3541 0934 12       		.uleb128 0x12
 3542 0935 5A200000 		.4byte	.LASF208
 3543 0939 70       		.byte	0x70
 3544 093a 19       		.uleb128 0x19
 3545 093b 4B1D0000 		.4byte	.LASF209
 3546 093f FFFF     		.2byte	0xffff
 3547 0941 19       		.uleb128 0x19
 3548 0942 69170000 		.4byte	.LASF210
 3549 0946 FFFF     		.2byte	0xffff
 3550 0948 00       		.byte	0
 3551 0949 1A       		.uleb128 0x1a
 3552 094a 400D0000 		.4byte	.LASF211
 3553 094e 0D       		.byte	0xd
 3554 094f 1C01     		.2byte	0x11c
 3555 0951 24070000 		.4byte	0x724
 3556 0955 1B       		.uleb128 0x1b
 3557 0956 08       		.byte	0x8
 3558 0957 0D       		.byte	0xd
 3559 0958 3601     		.2byte	0x136
 3560 095a 79090000 		.4byte	0x979
 3561 095e 1C       		.uleb128 0x1c
 3562 095f 7D0C0000 		.4byte	.LASF212
ARM GAS  C:\Users\haske\AppData\Local\Temp\cc11ZRIl.s 			page 96


 3563 0963 0D       		.byte	0xd
 3564 0964 3701     		.2byte	0x137
 3565 0966 49090000 		.4byte	0x949
 3566 096a 00       		.byte	0
 3567 096b 1C       		.uleb128 0x1c
 3568 096c 750A0000 		.4byte	.LASF213
 3569 0970 0D       		.byte	0xd
 3570 0971 3801     		.2byte	0x138
 3571 0973 19070000 		.4byte	0x719
 3572 0977 04       		.byte	0x4
 3573 0978 00       		.byte	0
 3574 0979 1A       		.uleb128 0x1a
 3575 097a A90E0000 		.4byte	.LASF214
 3576 097e 0D       		.byte	0xd
 3577 097f 3901     		.2byte	0x139
 3578 0981 55090000 		.4byte	0x955
 3579 0985 1D       		.uleb128 0x1d
 3580 0986 04       		.byte	0x4
 3581 0987 0D       		.byte	0xd
 3582 0988 4601     		.2byte	0x146
 3583 098a B3090000 		.4byte	0x9b3
 3584 098e 1E       		.uleb128 0x1e
 3585 098f F21C0000 		.4byte	.LASF215
 3586 0993 0D       		.byte	0xd
 3587 0994 4701     		.2byte	0x147
 3588 0996 19070000 		.4byte	0x719
 3589 099a 1E       		.uleb128 0x1e
 3590 099b 6C0D0000 		.4byte	.LASF216
 3591 099f 0D       		.byte	0xd
 3592 09a0 4801     		.2byte	0x148
 3593 09a2 B3090000 		.4byte	0x9b3
 3594 09a6 1E       		.uleb128 0x1e
 3595 09a7 8E0C0000 		.4byte	.LASF217
 3596 09ab 0D       		.byte	0xd
 3597 09ac 4901     		.2byte	0x149
 3598 09ae B9090000 		.4byte	0x9b9
 3599 09b2 00       		.byte	0
 3600 09b3 0B       		.uleb128 0xb
 3601 09b4 04       		.byte	0x4
 3602 09b5 B8000000 		.4byte	0xb8
 3603 09b9 0B       		.uleb128 0xb
 3604 09ba 04       		.byte	0x4
 3605 09bb BF090000 		.4byte	0x9bf
 3606 09bf 0C       		.uleb128 0xc
 3607 09c0 79090000 		.4byte	0x979
 3608 09c4 1B       		.uleb128 0x1b
 3609 09c5 08       		.byte	0x8
 3610 09c6 0D       		.byte	0xd
 3611 09c7 3E01     		.2byte	0x13e
 3612 09c9 020A0000 		.4byte	0xa02
 3613 09cd 1F       		.uleb128 0x1f
 3614 09ce 765F7000 		.ascii	"v_p\000"
 3615 09d2 0D       		.byte	0xd
 3616 09d3 4A01     		.2byte	0x14a
 3617 09d5 85090000 		.4byte	0x985
 3618 09d9 00       		.byte	0
 3619 09da 1C       		.uleb128 0x1c
ARM GAS  C:\Users\haske\AppData\Local\Temp\cc11ZRIl.s 			page 97


 3620 09db 68210000 		.4byte	.LASF218
 3621 09df 0D       		.byte	0xd
 3622 09e0 4C01     		.2byte	0x14c
 3623 09e2 CE000000 		.4byte	0xce
 3624 09e6 04       		.byte	0x4
 3625 09e7 1C       		.uleb128 0x1c
 3626 09e8 15010000 		.4byte	.LASF219
 3627 09ec 0D       		.byte	0xd
 3628 09ed 4D01     		.2byte	0x14d
 3629 09ef B8000000 		.4byte	0xb8
 3630 09f3 06       		.byte	0x6
 3631 09f4 1C       		.uleb128 0x1c
 3632 09f5 00000000 		.4byte	.LASF220
 3633 09f9 0D       		.byte	0xd
 3634 09fa 4E01     		.2byte	0x14e
 3635 09fc B8000000 		.4byte	0xb8
 3636 0a00 07       		.byte	0x7
 3637 0a01 00       		.byte	0
 3638 0a02 1A       		.uleb128 0x1a
 3639 0a03 38100000 		.4byte	.LASF221
 3640 0a07 0D       		.byte	0xd
 3641 0a08 4F01     		.2byte	0x14f
 3642 0a0a C4090000 		.4byte	0x9c4
 3643 0a0e 02       		.uleb128 0x2
 3644 0a0f 09110000 		.4byte	.LASF222
 3645 0a13 0E       		.byte	0xe
 3646 0a14 69       		.byte	0x69
 3647 0a15 B8000000 		.4byte	0xb8
 3648 0a19 0B       		.uleb128 0xb
 3649 0a1a 04       		.byte	0x4
 3650 0a1b 1F0A0000 		.4byte	0xa1f
 3651 0a1f 0A       		.uleb128 0xa
 3652 0a20 471E0000 		.4byte	.LASF223
 3653 0a24 24       		.byte	0x24
 3654 0a25 0F       		.byte	0xf
 3655 0a26 AE       		.byte	0xae
 3656 0a27 E60A0000 		.4byte	0xae6
 3657 0a2b 07       		.uleb128 0x7
 3658 0a2c 7D160000 		.4byte	.LASF224
 3659 0a30 0F       		.byte	0xf
 3660 0a31 AF       		.byte	0xaf
 3661 0a32 811B0000 		.4byte	0x1b81
 3662 0a36 00       		.byte	0
 3663 0a37 07       		.uleb128 0x7
 3664 0a38 ED0E0000 		.4byte	.LASF225
 3665 0a3c 0F       		.byte	0xf
 3666 0a3d B0       		.byte	0xb0
 3667 0a3e 190A0000 		.4byte	0xa19
 3668 0a42 04       		.byte	0x4
 3669 0a43 07       		.uleb128 0x7
 3670 0a44 550B0000 		.4byte	.LASF226
 3671 0a48 0F       		.byte	0xf
 3672 0a49 B1       		.byte	0xb1
 3673 0a4a 8C1B0000 		.4byte	0x1b8c
 3674 0a4e 08       		.byte	0x8
 3675 0a4f 07       		.uleb128 0x7
 3676 0a50 8A100000 		.4byte	.LASF227
ARM GAS  C:\Users\haske\AppData\Local\Temp\cc11ZRIl.s 			page 98


 3677 0a54 0F       		.byte	0xf
 3678 0a55 B2       		.byte	0xb2
 3679 0a56 921B0000 		.4byte	0x1b92
 3680 0a5a 0C       		.byte	0xc
 3681 0a5b 07       		.uleb128 0x7
 3682 0a5c F6230000 		.4byte	.LASF42
 3683 0a60 0F       		.byte	0xf
 3684 0a61 B4       		.byte	0xb4
 3685 0a62 E9020000 		.4byte	0x2e9
 3686 0a66 10       		.byte	0x10
 3687 0a67 07       		.uleb128 0x7
 3688 0a68 45200000 		.4byte	.LASF228
 3689 0a6c 0F       		.byte	0xf
 3690 0a6d B6       		.byte	0xb6
 3691 0a6e 69010000 		.4byte	0x169
 3692 0a72 14       		.byte	0x14
 3693 0a73 07       		.uleb128 0x7
 3694 0a74 7B0A0000 		.4byte	.LASF229
 3695 0a78 0F       		.byte	0xf
 3696 0a79 B7       		.byte	0xb7
 3697 0a7a 50160000 		.4byte	0x1650
 3698 0a7e 1C       		.byte	0x1c
 3699 0a7f 07       		.uleb128 0x7
 3700 0a80 43020000 		.4byte	.LASF230
 3701 0a84 0F       		.byte	0xf
 3702 0a85 B8       		.byte	0xb8
 3703 0a86 F9140000 		.4byte	0x14f9
 3704 0a8a 20       		.byte	0x20
 3705 0a8b 09       		.uleb128 0x9
 3706 0a8c 0C070000 		.4byte	.LASF231
 3707 0a90 0F       		.byte	0xf
 3708 0a91 B9       		.byte	0xb9
 3709 0a92 CE000000 		.4byte	0xce
 3710 0a96 02       		.byte	0x2
 3711 0a97 01       		.byte	0x1
 3712 0a98 0F       		.byte	0xf
 3713 0a99 22       		.byte	0x22
 3714 0a9a 09       		.uleb128 0x9
 3715 0a9b 3A040000 		.4byte	.LASF232
 3716 0a9f 0F       		.byte	0xf
 3717 0aa0 BA       		.byte	0xba
 3718 0aa1 CE000000 		.4byte	0xce
 3719 0aa5 02       		.byte	0x2
 3720 0aa6 01       		.byte	0x1
 3721 0aa7 0E       		.byte	0xe
 3722 0aa8 22       		.byte	0x22
 3723 0aa9 09       		.uleb128 0x9
 3724 0aaa 0A160000 		.4byte	.LASF233
 3725 0aae 0F       		.byte	0xf
 3726 0aaf BB       		.byte	0xbb
 3727 0ab0 CE000000 		.4byte	0xce
 3728 0ab4 02       		.byte	0x2
 3729 0ab5 01       		.byte	0x1
 3730 0ab6 0D       		.byte	0xd
 3731 0ab7 22       		.byte	0x22
 3732 0ab8 09       		.uleb128 0x9
 3733 0ab9 02070000 		.4byte	.LASF234
ARM GAS  C:\Users\haske\AppData\Local\Temp\cc11ZRIl.s 			page 99


 3734 0abd 0F       		.byte	0xf
 3735 0abe BC       		.byte	0xbc
 3736 0abf CE000000 		.4byte	0xce
 3737 0ac3 02       		.byte	0x2
 3738 0ac4 06       		.byte	0x6
 3739 0ac5 07       		.byte	0x7
 3740 0ac6 22       		.byte	0x22
 3741 0ac7 09       		.uleb128 0x9
 3742 0ac8 82090000 		.4byte	.LASF235
 3743 0acc 0F       		.byte	0xf
 3744 0acd BD       		.byte	0xbd
 3745 0ace CE000000 		.4byte	0xce
 3746 0ad2 02       		.byte	0x2
 3747 0ad3 01       		.byte	0x1
 3748 0ad4 06       		.byte	0x6
 3749 0ad5 22       		.byte	0x22
 3750 0ad6 09       		.uleb128 0x9
 3751 0ad7 16040000 		.4byte	.LASF236
 3752 0adb 0F       		.byte	0xf
 3753 0adc BE       		.byte	0xbe
 3754 0add CE000000 		.4byte	0xce
 3755 0ae1 02       		.byte	0x2
 3756 0ae2 01       		.byte	0x1
 3757 0ae3 05       		.byte	0x5
 3758 0ae4 22       		.byte	0x22
 3759 0ae5 00       		.byte	0
 3760 0ae6 0B       		.uleb128 0xb
 3761 0ae7 04       		.byte	0x4
 3762 0ae8 E8030000 		.4byte	0x3e8
 3763 0aec 05       		.uleb128 0x5
 3764 0aed 38       		.byte	0x38
 3765 0aee 10       		.byte	0x10
 3766 0aef 20       		.byte	0x20
 3767 0af0 330C0000 		.4byte	0xc33
 3768 0af4 07       		.uleb128 0x7
 3769 0af5 4E010000 		.4byte	.LASF237
 3770 0af9 10       		.byte	0x10
 3771 0afa 21       		.byte	0x21
 3772 0afb 01010000 		.4byte	0x101
 3773 0aff 00       		.byte	0
 3774 0b00 07       		.uleb128 0x7
 3775 0b01 1F040000 		.4byte	.LASF238
 3776 0b05 10       		.byte	0x10
 3777 0b06 22       		.byte	0x22
 3778 0b07 32060000 		.4byte	0x632
 3779 0b0b 02       		.byte	0x2
 3780 0b0c 07       		.uleb128 0x7
 3781 0b0d 95050000 		.4byte	.LASF239
 3782 0b11 10       		.byte	0x10
 3783 0b12 25       		.byte	0x25
 3784 0b13 F3030000 		.4byte	0x3f3
 3785 0b17 03       		.byte	0x3
 3786 0b18 07       		.uleb128 0x7
 3787 0b19 55010000 		.4byte	.LASF240
 3788 0b1d 10       		.byte	0x10
 3789 0b1e 26       		.byte	0x26
 3790 0b1f E8030000 		.4byte	0x3e8
ARM GAS  C:\Users\haske\AppData\Local\Temp\cc11ZRIl.s 			page 100


 3791 0b23 04       		.byte	0x4
 3792 0b24 07       		.uleb128 0x7
 3793 0b25 F9210000 		.4byte	.LASF241
 3794 0b29 10       		.byte	0x10
 3795 0b2a 27       		.byte	0x27
 3796 0b2b E4060000 		.4byte	0x6e4
 3797 0b2f 06       		.byte	0x6
 3798 0b30 07       		.uleb128 0x7
 3799 0b31 27030000 		.4byte	.LASF242
 3800 0b35 10       		.byte	0x10
 3801 0b36 2A       		.byte	0x2a
 3802 0b37 E2020000 		.4byte	0x2e2
 3803 0b3b 10       		.byte	0x10
 3804 0b3c 07       		.uleb128 0x7
 3805 0b3d A4250000 		.4byte	.LASF243
 3806 0b41 10       		.byte	0x10
 3807 0b42 2B       		.byte	0x2b
 3808 0b43 E2020000 		.4byte	0x2e2
 3809 0b47 14       		.byte	0x14
 3810 0b48 07       		.uleb128 0x7
 3811 0b49 211F0000 		.4byte	.LASF244
 3812 0b4d 10       		.byte	0x10
 3813 0b4e 2C       		.byte	0x2c
 3814 0b4f E8030000 		.4byte	0x3e8
 3815 0b53 18       		.byte	0x18
 3816 0b54 07       		.uleb128 0x7
 3817 0b55 E4070000 		.4byte	.LASF245
 3818 0b59 10       		.byte	0x10
 3819 0b5a 2D       		.byte	0x2d
 3820 0b5b F3030000 		.4byte	0x3f3
 3821 0b5f 1A       		.byte	0x1a
 3822 0b60 07       		.uleb128 0x7
 3823 0b61 2F1A0000 		.4byte	.LASF246
 3824 0b65 10       		.byte	0x10
 3825 0b66 2E       		.byte	0x2e
 3826 0b67 F3030000 		.4byte	0x3f3
 3827 0b6b 1B       		.byte	0x1b
 3828 0b6c 07       		.uleb128 0x7
 3829 0b6d 80070000 		.4byte	.LASF247
 3830 0b71 10       		.byte	0x10
 3831 0b72 2F       		.byte	0x2f
 3832 0b73 B8000000 		.4byte	0xb8
 3833 0b77 1C       		.byte	0x1c
 3834 0b78 07       		.uleb128 0x7
 3835 0b79 210C0000 		.4byte	.LASF248
 3836 0b7d 10       		.byte	0x10
 3837 0b7e 32       		.byte	0x32
 3838 0b7f E8030000 		.4byte	0x3e8
 3839 0b83 1E       		.byte	0x1e
 3840 0b84 07       		.uleb128 0x7
 3841 0b85 2F1C0000 		.4byte	.LASF249
 3842 0b89 10       		.byte	0x10
 3843 0b8a 33       		.byte	0x33
 3844 0b8b 01010000 		.4byte	0x101
 3845 0b8f 20       		.byte	0x20
 3846 0b90 07       		.uleb128 0x7
 3847 0b91 81210000 		.4byte	.LASF250
ARM GAS  C:\Users\haske\AppData\Local\Temp\cc11ZRIl.s 			page 101


 3848 0b95 10       		.byte	0x10
 3849 0b96 34       		.byte	0x34
 3850 0b97 F3030000 		.4byte	0x3f3
 3851 0b9b 22       		.byte	0x22
 3852 0b9c 09       		.uleb128 0x9
 3853 0b9d C00C0000 		.4byte	.LASF251
 3854 0ba1 10       		.byte	0x10
 3855 0ba2 35       		.byte	0x35
 3856 0ba3 B8000000 		.4byte	0xb8
 3857 0ba7 01       		.byte	0x1
 3858 0ba8 01       		.byte	0x1
 3859 0ba9 07       		.byte	0x7
 3860 0baa 23       		.byte	0x23
 3861 0bab 09       		.uleb128 0x9
 3862 0bac 00040000 		.4byte	.LASF252
 3863 0bb0 10       		.byte	0x10
 3864 0bb1 36       		.byte	0x36
 3865 0bb2 48060000 		.4byte	0x648
 3866 0bb6 01       		.byte	0x1
 3867 0bb7 05       		.byte	0x5
 3868 0bb8 02       		.byte	0x2
 3869 0bb9 23       		.byte	0x23
 3870 0bba 07       		.uleb128 0x7
 3871 0bbb DE060000 		.4byte	.LASF253
 3872 0bbf 10       		.byte	0x10
 3873 0bc0 39       		.byte	0x39
 3874 0bc1 E8030000 		.4byte	0x3e8
 3875 0bc5 24       		.byte	0x24
 3876 0bc6 07       		.uleb128 0x7
 3877 0bc7 87180000 		.4byte	.LASF254
 3878 0bcb 10       		.byte	0x10
 3879 0bcc 3A       		.byte	0x3a
 3880 0bcd 01010000 		.4byte	0x101
 3881 0bd1 26       		.byte	0x26
 3882 0bd2 07       		.uleb128 0x7
 3883 0bd3 C90B0000 		.4byte	.LASF255
 3884 0bd7 10       		.byte	0x10
 3885 0bd8 3B       		.byte	0x3b
 3886 0bd9 01010000 		.4byte	0x101
 3887 0bdd 28       		.byte	0x28
 3888 0bde 07       		.uleb128 0x7
 3889 0bdf B9170000 		.4byte	.LASF256
 3890 0be3 10       		.byte	0x10
 3891 0be4 3C       		.byte	0x3c
 3892 0be5 F3030000 		.4byte	0x3f3
 3893 0be9 2A       		.byte	0x2a
 3894 0bea 07       		.uleb128 0x7
 3895 0beb 40140000 		.4byte	.LASF257
 3896 0bef 10       		.byte	0x10
 3897 0bf0 3F       		.byte	0x3f
 3898 0bf1 E8030000 		.4byte	0x3e8
 3899 0bf5 2C       		.byte	0x2c
 3900 0bf6 07       		.uleb128 0x7
 3901 0bf7 0A230000 		.4byte	.LASF258
 3902 0bfb 10       		.byte	0x10
 3903 0bfc 40       		.byte	0x40
 3904 0bfd 01010000 		.4byte	0x101
ARM GAS  C:\Users\haske\AppData\Local\Temp\cc11ZRIl.s 			page 102


 3905 0c01 2E       		.byte	0x2e
 3906 0c02 07       		.uleb128 0x7
 3907 0c03 120D0000 		.4byte	.LASF259
 3908 0c07 10       		.byte	0x10
 3909 0c08 41       		.byte	0x41
 3910 0c09 01010000 		.4byte	0x101
 3911 0c0d 30       		.byte	0x30
 3912 0c0e 07       		.uleb128 0x7
 3913 0c0f B7250000 		.4byte	.LASF260
 3914 0c13 10       		.byte	0x10
 3915 0c14 42       		.byte	0x42
 3916 0c15 01010000 		.4byte	0x101
 3917 0c19 32       		.byte	0x32
 3918 0c1a 07       		.uleb128 0x7
 3919 0c1b 8E0F0000 		.4byte	.LASF261
 3920 0c1f 10       		.byte	0x10
 3921 0c20 43       		.byte	0x43
 3922 0c21 01010000 		.4byte	0x101
 3923 0c25 34       		.byte	0x34
 3924 0c26 07       		.uleb128 0x7
 3925 0c27 F81F0000 		.4byte	.LASF262
 3926 0c2b 10       		.byte	0x10
 3927 0c2c 44       		.byte	0x44
 3928 0c2d F3030000 		.4byte	0x3f3
 3929 0c31 36       		.byte	0x36
 3930 0c32 00       		.byte	0
 3931 0c33 02       		.uleb128 0x2
 3932 0c34 731B0000 		.4byte	.LASF263
 3933 0c38 10       		.byte	0x10
 3934 0c39 45       		.byte	0x45
 3935 0c3a EC0A0000 		.4byte	0xaec
 3936 0c3e 05       		.uleb128 0x5
 3937 0c3f 20       		.byte	0x20
 3938 0c40 11       		.byte	0x11
 3939 0c41 1E       		.byte	0x1e
 3940 0c42 0D0D0000 		.4byte	0xd0d
 3941 0c46 07       		.uleb128 0x7
 3942 0c47 511E0000 		.4byte	.LASF264
 3943 0c4b 11       		.byte	0x11
 3944 0c4c 1F       		.byte	0x1f
 3945 0c4d 0D0D0000 		.4byte	0xd0d
 3946 0c51 00       		.byte	0
 3947 0c52 07       		.uleb128 0x7
 3948 0c53 A7220000 		.4byte	.LASF265
 3949 0c57 11       		.byte	0x11
 3950 0c58 20       		.byte	0x20
 3951 0c59 E4000000 		.4byte	0xe4
 3952 0c5d 04       		.byte	0x4
 3953 0c5e 07       		.uleb128 0x7
 3954 0c5f 61170000 		.4byte	.LASF266
 3955 0c63 11       		.byte	0x11
 3956 0c64 21       		.byte	0x21
 3957 0c65 E4000000 		.4byte	0xe4
 3958 0c69 08       		.byte	0x8
 3959 0c6a 07       		.uleb128 0x7
 3960 0c6b 851D0000 		.4byte	.LASF114
 3961 0c6f 11       		.byte	0x11
ARM GAS  C:\Users\haske\AppData\Local\Temp\cc11ZRIl.s 			page 103


 3962 0c70 22       		.byte	0x22
 3963 0c71 E8030000 		.4byte	0x3e8
 3964 0c75 0C       		.byte	0xc
 3965 0c76 07       		.uleb128 0x7
 3966 0c77 3E250000 		.4byte	.LASF267
 3967 0c7b 11       		.byte	0x11
 3968 0c7c 23       		.byte	0x23
 3969 0c7d E8030000 		.4byte	0x3e8
 3970 0c81 0E       		.byte	0xe
 3971 0c82 07       		.uleb128 0x7
 3972 0c83 D3050000 		.4byte	.LASF268
 3973 0c87 11       		.byte	0x11
 3974 0c88 24       		.byte	0x24
 3975 0c89 E8030000 		.4byte	0x3e8
 3976 0c8d 10       		.byte	0x10
 3977 0c8e 07       		.uleb128 0x7
 3978 0c8f AA1D0000 		.4byte	.LASF269
 3979 0c93 11       		.byte	0x11
 3980 0c94 25       		.byte	0x25
 3981 0c95 01010000 		.4byte	0x101
 3982 0c99 12       		.byte	0x12
 3983 0c9a 07       		.uleb128 0x7
 3984 0c9b 561E0000 		.4byte	.LASF270
 3985 0c9f 11       		.byte	0x11
 3986 0ca0 26       		.byte	0x26
 3987 0ca1 01010000 		.4byte	0x101
 3988 0ca5 14       		.byte	0x14
 3989 0ca6 07       		.uleb128 0x7
 3990 0ca7 68090000 		.4byte	.LASF31
 3991 0cab 11       		.byte	0x11
 3992 0cac 27       		.byte	0x27
 3993 0cad 01010000 		.4byte	0x101
 3994 0cb1 16       		.byte	0x16
 3995 0cb2 07       		.uleb128 0x7
 3996 0cb3 6E090000 		.4byte	.LASF32
 3997 0cb7 11       		.byte	0x11
 3998 0cb8 28       		.byte	0x28
 3999 0cb9 01010000 		.4byte	0x101
 4000 0cbd 18       		.byte	0x18
 4001 0cbe 06       		.uleb128 0x6
 4002 0cbf 6F706100 		.ascii	"opa\000"
 4003 0cc3 11       		.byte	0x11
 4004 0cc4 29       		.byte	0x29
 4005 0cc5 F3030000 		.4byte	0x3f3
 4006 0cc9 1A       		.byte	0x1a
 4007 0cca 07       		.uleb128 0x7
 4008 0ccb A1010000 		.4byte	.LASF271
 4009 0ccf 11       		.byte	0x11
 4010 0cd0 2A       		.byte	0x2a
 4011 0cd1 27060000 		.4byte	0x627
 4012 0cd5 1B       		.byte	0x1b
 4013 0cd6 07       		.uleb128 0x7
 4014 0cd7 B0150000 		.4byte	.LASF272
 4015 0cdb 11       		.byte	0x11
 4016 0cdc 2B       		.byte	0x2b
 4017 0cdd F1050000 		.4byte	0x5f1
 4018 0ce1 1C       		.byte	0x1c
ARM GAS  C:\Users\haske\AppData\Local\Temp\cc11ZRIl.s 			page 104


 4019 0ce2 07       		.uleb128 0x7
 4020 0ce3 88170000 		.4byte	.LASF273
 4021 0ce7 11       		.byte	0x11
 4022 0ce8 2C       		.byte	0x2c
 4023 0ce9 E6050000 		.4byte	0x5e6
 4024 0ced 1D       		.byte	0x1d
 4025 0cee 09       		.uleb128 0x9
 4026 0cef 041D0000 		.4byte	.LASF274
 4027 0cf3 11       		.byte	0x11
 4028 0cf4 2D       		.byte	0x2d
 4029 0cf5 3D060000 		.4byte	0x63d
 4030 0cf9 01       		.byte	0x1
 4031 0cfa 03       		.byte	0x3
 4032 0cfb 05       		.byte	0x5
 4033 0cfc 1E       		.byte	0x1e
 4034 0cfd 09       		.uleb128 0x9
 4035 0cfe 1F040000 		.4byte	.LASF238
 4036 0d02 11       		.byte	0x11
 4037 0d03 2E       		.byte	0x2e
 4038 0d04 32060000 		.4byte	0x632
 4039 0d08 01       		.byte	0x1
 4040 0d09 03       		.byte	0x3
 4041 0d0a 02       		.byte	0x2
 4042 0d0b 1E       		.byte	0x1e
 4043 0d0c 00       		.byte	0
 4044 0d0d 0B       		.uleb128 0xb
 4045 0d0e 04       		.byte	0x4
 4046 0d0f 130D0000 		.4byte	0xd13
 4047 0d13 0C       		.uleb128 0xc
 4048 0d14 EB020000 		.4byte	0x2eb
 4049 0d18 02       		.uleb128 0x2
 4050 0d19 9C050000 		.4byte	.LASF275
 4051 0d1d 11       		.byte	0x11
 4052 0d1e 2F       		.byte	0x2f
 4053 0d1f 3E0C0000 		.4byte	0xc3e
 4054 0d23 05       		.uleb128 0x5
 4055 0d24 18       		.byte	0x18
 4056 0d25 12       		.byte	0x12
 4057 0d26 20       		.byte	0x20
 4058 0d27 9E0D0000 		.4byte	0xd9e
 4059 0d2b 07       		.uleb128 0x7
 4060 0d2c EF120000 		.4byte	.LASF276
 4061 0d30 12       		.byte	0x12
 4062 0d31 22       		.byte	0x22
 4063 0d32 C3000000 		.4byte	0xc3
 4064 0d36 00       		.byte	0
 4065 0d37 07       		.uleb128 0x7
 4066 0d38 59020000 		.4byte	.LASF277
 4067 0d3c 12       		.byte	0x12
 4068 0d3d 23       		.byte	0x23
 4069 0d3e CE000000 		.4byte	0xce
 4070 0d42 02       		.byte	0x2
 4071 0d43 07       		.uleb128 0x7
 4072 0d44 D71C0000 		.4byte	.LASF278
 4073 0d48 12       		.byte	0x12
 4074 0d49 24       		.byte	0x24
 4075 0d4a 29010000 		.4byte	0x129
ARM GAS  C:\Users\haske\AppData\Local\Temp\cc11ZRIl.s 			page 105


 4076 0d4e 04       		.byte	0x4
 4077 0d4f 07       		.uleb128 0x7
 4078 0d50 B7120000 		.4byte	.LASF279
 4079 0d54 12       		.byte	0x12
 4080 0d55 26       		.byte	0x26
 4081 0d56 E8030000 		.4byte	0x3e8
 4082 0d5a 08       		.byte	0x8
 4083 0d5b 07       		.uleb128 0x7
 4084 0d5c 2E180000 		.4byte	.LASF280
 4085 0d60 12       		.byte	0x12
 4086 0d61 27       		.byte	0x27
 4087 0d62 F3030000 		.4byte	0x3f3
 4088 0d66 0A       		.byte	0xa
 4089 0d67 06       		.uleb128 0x6
 4090 0d68 6F706100 		.ascii	"opa\000"
 4091 0d6c 12       		.byte	0x12
 4092 0d6d 29       		.byte	0x29
 4093 0d6e F3030000 		.4byte	0x3f3
 4094 0d72 0B       		.byte	0xb
 4095 0d73 09       		.uleb128 0x9
 4096 0d74 1F040000 		.4byte	.LASF238
 4097 0d78 12       		.byte	0x12
 4098 0d79 2A       		.byte	0x2a
 4099 0d7a 32060000 		.4byte	0x632
 4100 0d7e 01       		.byte	0x1
 4101 0d7f 04       		.byte	0x4
 4102 0d80 04       		.byte	0x4
 4103 0d81 0C       		.byte	0xc
 4104 0d82 07       		.uleb128 0x7
 4105 0d83 05180000 		.4byte	.LASF281
 4106 0d87 12       		.byte	0x12
 4107 0d88 2C       		.byte	0x2c
 4108 0d89 D9000000 		.4byte	0xd9
 4109 0d8d 10       		.byte	0x10
 4110 0d8e 09       		.uleb128 0x9
 4111 0d8f FA180000 		.4byte	.LASF282
 4112 0d93 12       		.byte	0x12
 4113 0d94 2D       		.byte	0x2d
 4114 0d95 B8000000 		.4byte	0xb8
 4115 0d99 01       		.byte	0x1
 4116 0d9a 01       		.byte	0x1
 4117 0d9b 07       		.byte	0x7
 4118 0d9c 14       		.byte	0x14
 4119 0d9d 00       		.byte	0
 4120 0d9e 02       		.uleb128 0x2
 4121 0d9f 9C0A0000 		.4byte	.LASF283
 4122 0da3 12       		.byte	0x12
 4123 0da4 2E       		.byte	0x2e
 4124 0da5 230D0000 		.4byte	0xd23
 4125 0da9 05       		.uleb128 0x5
 4126 0daa 0A       		.byte	0xa
 4127 0dab 13       		.byte	0x13
 4128 0dac 1C       		.byte	0x1c
 4129 0dad 2A0E0000 		.4byte	0xe2a
 4130 0db1 07       		.uleb128 0x7
 4131 0db2 851D0000 		.4byte	.LASF114
 4132 0db6 13       		.byte	0x13
ARM GAS  C:\Users\haske\AppData\Local\Temp\cc11ZRIl.s 			page 106


 4133 0db7 1D       		.byte	0x1d
 4134 0db8 E8030000 		.4byte	0x3e8
 4135 0dbc 00       		.byte	0
 4136 0dbd 07       		.uleb128 0x7
 4137 0dbe 5F140000 		.4byte	.LASF284
 4138 0dc2 13       		.byte	0x13
 4139 0dc3 1E       		.byte	0x1e
 4140 0dc4 01010000 		.4byte	0x101
 4141 0dc8 02       		.byte	0x2
 4142 0dc9 07       		.uleb128 0x7
 4143 0dca 94110000 		.4byte	.LASF285
 4144 0dce 13       		.byte	0x13
 4145 0dcf 1F       		.byte	0x1f
 4146 0dd0 01010000 		.4byte	0x101
 4147 0dd4 04       		.byte	0x4
 4148 0dd5 07       		.uleb128 0x7
 4149 0dd6 110B0000 		.4byte	.LASF286
 4150 0dda 13       		.byte	0x13
 4151 0ddb 20       		.byte	0x20
 4152 0ddc 01010000 		.4byte	0x101
 4153 0de0 06       		.byte	0x6
 4154 0de1 06       		.uleb128 0x6
 4155 0de2 6F706100 		.ascii	"opa\000"
 4156 0de6 13       		.byte	0x13
 4157 0de7 21       		.byte	0x21
 4158 0de8 F3030000 		.4byte	0x3f3
 4159 0dec 08       		.byte	0x8
 4160 0ded 09       		.uleb128 0x9
 4161 0dee 1F040000 		.4byte	.LASF238
 4162 0df2 13       		.byte	0x13
 4163 0df3 22       		.byte	0x22
 4164 0df4 32060000 		.4byte	0x632
 4165 0df8 01       		.byte	0x1
 4166 0df9 02       		.byte	0x2
 4167 0dfa 06       		.byte	0x6
 4168 0dfb 09       		.byte	0x9
 4169 0dfc 09       		.uleb128 0x9
 4170 0dfd 500D0000 		.4byte	.LASF287
 4171 0e01 13       		.byte	0x13
 4172 0e02 23       		.byte	0x23
 4173 0e03 B8000000 		.4byte	0xb8
 4174 0e07 01       		.byte	0x1
 4175 0e08 01       		.byte	0x1
 4176 0e09 05       		.byte	0x5
 4177 0e0a 09       		.byte	0x9
 4178 0e0b 09       		.uleb128 0x9
 4179 0e0c F40E0000 		.4byte	.LASF288
 4180 0e10 13       		.byte	0x13
 4181 0e11 24       		.byte	0x24
 4182 0e12 B8000000 		.4byte	0xb8
 4183 0e16 01       		.byte	0x1
 4184 0e17 01       		.byte	0x1
 4185 0e18 04       		.byte	0x4
 4186 0e19 09       		.byte	0x9
 4187 0e1a 09       		.uleb128 0x9
 4188 0e1b E6000000 		.4byte	.LASF289
 4189 0e1f 13       		.byte	0x13
ARM GAS  C:\Users\haske\AppData\Local\Temp\cc11ZRIl.s 			page 107


 4190 0e20 25       		.byte	0x25
 4191 0e21 B8000000 		.4byte	0xb8
 4192 0e25 01       		.byte	0x1
 4193 0e26 01       		.byte	0x1
 4194 0e27 03       		.byte	0x3
 4195 0e28 09       		.byte	0x9
 4196 0e29 00       		.byte	0
 4197 0e2a 02       		.uleb128 0x2
 4198 0e2b BE080000 		.4byte	.LASF290
 4199 0e2f 13       		.byte	0x13
 4200 0e30 26       		.byte	0x26
 4201 0e31 A90D0000 		.4byte	0xda9
 4202 0e35 05       		.uleb128 0x5
 4203 0e36 10       		.byte	0x10
 4204 0e37 14       		.byte	0x14
 4205 0e38 1C       		.byte	0x1c
 4206 0e39 A40E0000 		.4byte	0xea4
 4207 0e3d 07       		.uleb128 0x7
 4208 0e3e 851D0000 		.4byte	.LASF114
 4209 0e42 14       		.byte	0x14
 4210 0e43 1D       		.byte	0x1d
 4211 0e44 E8030000 		.4byte	0x3e8
 4212 0e48 00       		.byte	0
 4213 0e49 07       		.uleb128 0x7
 4214 0e4a 5F140000 		.4byte	.LASF284
 4215 0e4e 14       		.byte	0x14
 4216 0e4f 1E       		.byte	0x1e
 4217 0e50 01010000 		.4byte	0x101
 4218 0e54 02       		.byte	0x2
 4219 0e55 07       		.uleb128 0x7
 4220 0e56 43110000 		.4byte	.LASF291
 4221 0e5a 14       		.byte	0x14
 4222 0e5b 1F       		.byte	0x1f
 4223 0e5c CE000000 		.4byte	0xce
 4224 0e60 04       		.byte	0x4
 4225 0e61 07       		.uleb128 0x7
 4226 0e62 BC070000 		.4byte	.LASF292
 4227 0e66 14       		.byte	0x14
 4228 0e67 20       		.byte	0x20
 4229 0e68 CE000000 		.4byte	0xce
 4230 0e6c 06       		.byte	0x6
 4231 0e6d 07       		.uleb128 0x7
 4232 0e6e 1F0F0000 		.4byte	.LASF293
 4233 0e72 14       		.byte	0x14
 4234 0e73 21       		.byte	0x21
 4235 0e74 E2020000 		.4byte	0x2e2
 4236 0e78 08       		.byte	0x8
 4237 0e79 06       		.uleb128 0x6
 4238 0e7a 6F706100 		.ascii	"opa\000"
 4239 0e7e 14       		.byte	0x14
 4240 0e7f 22       		.byte	0x22
 4241 0e80 F3030000 		.4byte	0x3f3
 4242 0e84 0C       		.byte	0xc
 4243 0e85 09       		.uleb128 0x9
 4244 0e86 1F040000 		.4byte	.LASF238
 4245 0e8a 14       		.byte	0x14
 4246 0e8b 23       		.byte	0x23
ARM GAS  C:\Users\haske\AppData\Local\Temp\cc11ZRIl.s 			page 108


 4247 0e8c 32060000 		.4byte	0x632
 4248 0e90 01       		.byte	0x1
 4249 0e91 02       		.byte	0x2
 4250 0e92 06       		.byte	0x6
 4251 0e93 0D       		.byte	0xd
 4252 0e94 09       		.uleb128 0x9
 4253 0e95 B8020000 		.4byte	.LASF294
 4254 0e99 14       		.byte	0x14
 4255 0e9a 24       		.byte	0x24
 4256 0e9b B8000000 		.4byte	0xb8
 4257 0e9f 01       		.byte	0x1
 4258 0ea0 01       		.byte	0x1
 4259 0ea1 05       		.byte	0x5
 4260 0ea2 0D       		.byte	0xd
 4261 0ea3 00       		.byte	0
 4262 0ea4 02       		.uleb128 0x2
 4263 0ea5 BE1E0000 		.4byte	.LASF295
 4264 0ea9 14       		.byte	0x14
 4265 0eaa 25       		.byte	0x25
 4266 0eab 350E0000 		.4byte	0xe35
 4267 0eaf 02       		.uleb128 0x2
 4268 0eb0 5E020000 		.4byte	.LASF296
 4269 0eb4 15       		.byte	0x15
 4270 0eb5 2B       		.byte	0x2b
 4271 0eb6 B8000000 		.4byte	0xb8
 4272 0eba 02       		.uleb128 0x2
 4273 0ebb 93220000 		.4byte	.LASF297
 4274 0ebf 15       		.byte	0x15
 4275 0ec0 4F       		.byte	0x4f
 4276 0ec1 B8000000 		.4byte	0xb8
 4277 0ec5 02       		.uleb128 0x2
 4278 0ec6 C91B0000 		.4byte	.LASF298
 4279 0eca 15       		.byte	0x15
 4280 0ecb 5C       		.byte	0x5c
 4281 0ecc D00E0000 		.4byte	0xed0
 4282 0ed0 0B       		.uleb128 0xb
 4283 0ed1 04       		.byte	0x4
 4284 0ed2 D60E0000 		.4byte	0xed6
 4285 0ed6 0D       		.uleb128 0xd
 4286 0ed7 AF0E0000 		.4byte	0xeaf
 4287 0edb F90E0000 		.4byte	0xef9
 4288 0edf 0E       		.uleb128 0xe
 4289 0ee0 F90E0000 		.4byte	0xef9
 4290 0ee4 0E       		.uleb128 0xe
 4291 0ee5 01010000 		.4byte	0x101
 4292 0ee9 0E       		.uleb128 0xe
 4293 0eea 01010000 		.4byte	0x101
 4294 0eee 0E       		.uleb128 0xe
 4295 0eef 01010000 		.4byte	0x101
 4296 0ef3 0E       		.uleb128 0xe
 4297 0ef4 E9020000 		.4byte	0x2e9
 4298 0ef8 00       		.byte	0
 4299 0ef9 0B       		.uleb128 0xb
 4300 0efa 04       		.byte	0x4
 4301 0efb F3030000 		.4byte	0x3f3
 4302 0eff 05       		.uleb128 0x5
 4303 0f00 08       		.byte	0x8
ARM GAS  C:\Users\haske\AppData\Local\Temp\cc11ZRIl.s 			page 109


 4304 0f01 15       		.byte	0x15
 4305 0f02 62       		.byte	0x62
 4306 0f03 1F0F0000 		.4byte	0xf1f
 4307 0f07 06       		.uleb128 0x6
 4308 0f08 636200   		.ascii	"cb\000"
 4309 0f0b 15       		.byte	0x15
 4310 0f0c 63       		.byte	0x63
 4311 0f0d C50E0000 		.4byte	0xec5
 4312 0f11 00       		.byte	0
 4313 0f12 07       		.uleb128 0x7
 4314 0f13 EC020000 		.4byte	.LASF299
 4315 0f17 15       		.byte	0x15
 4316 0f18 64       		.byte	0x64
 4317 0f19 BA0E0000 		.4byte	0xeba
 4318 0f1d 04       		.byte	0x4
 4319 0f1e 00       		.byte	0
 4320 0f1f 02       		.uleb128 0x2
 4321 0f20 72250000 		.4byte	.LASF300
 4322 0f24 15       		.byte	0x15
 4323 0f25 65       		.byte	0x65
 4324 0f26 FF0E0000 		.4byte	0xeff
 4325 0f2a 05       		.uleb128 0x5
 4326 0f2b 1C       		.byte	0x1c
 4327 0f2c 15       		.byte	0x15
 4328 0f2d 9C       		.byte	0x9c
 4329 0f2e 870F0000 		.4byte	0xf87
 4330 0f32 06       		.uleb128 0x6
 4331 0f33 62756600 		.ascii	"buf\000"
 4332 0f37 15       		.byte	0x15
 4333 0f38 9D       		.byte	0x9d
 4334 0f39 B3090000 		.4byte	0x9b3
 4335 0f3d 00       		.byte	0
 4336 0f3e 07       		.uleb128 0x7
 4337 0f3f BE0F0000 		.4byte	.LASF301
 4338 0f43 15       		.byte	0x15
 4339 0f44 9E       		.byte	0x9e
 4340 0f45 F90E0000 		.4byte	0xef9
 4341 0f49 04       		.byte	0x4
 4342 0f4a 07       		.uleb128 0x7
 4343 0f4b 800B0000 		.4byte	.LASF302
 4344 0f4f 15       		.byte	0x15
 4345 0f50 9F       		.byte	0x9f
 4346 0f51 870F0000 		.4byte	0xf87
 4347 0f55 08       		.byte	0x8
 4348 0f56 07       		.uleb128 0x7
 4349 0f57 D91E0000 		.4byte	.LASF303
 4350 0f5b 15       		.byte	0x15
 4351 0f5c A0       		.byte	0xa0
 4352 0f5d 870F0000 		.4byte	0xf87
 4353 0f61 0C       		.byte	0xc
 4354 0f62 07       		.uleb128 0x7
 4355 0f63 6A060000 		.4byte	.LASF304
 4356 0f67 15       		.byte	0x15
 4357 0f68 A1       		.byte	0xa1
 4358 0f69 D9000000 		.4byte	0xd9
 4359 0f6d 10       		.byte	0x10
 4360 0f6e 07       		.uleb128 0x7
ARM GAS  C:\Users\haske\AppData\Local\Temp\cc11ZRIl.s 			page 110


 4361 0f6f 06250000 		.4byte	.LASF305
 4362 0f73 15       		.byte	0x15
 4363 0f74 A2       		.byte	0xa2
 4364 0f75 E4000000 		.4byte	0xe4
 4365 0f79 14       		.byte	0x14
 4366 0f7a 07       		.uleb128 0x7
 4367 0f7b 4E010000 		.4byte	.LASF237
 4368 0f7f 15       		.byte	0x15
 4369 0f80 A3       		.byte	0xa3
 4370 0f81 01010000 		.4byte	0x101
 4371 0f85 18       		.byte	0x18
 4372 0f86 00       		.byte	0
 4373 0f87 0B       		.uleb128 0xb
 4374 0f88 04       		.byte	0x4
 4375 0f89 CE000000 		.4byte	0xce
 4376 0f8d 02       		.uleb128 0x2
 4377 0f8e 71080000 		.4byte	.LASF306
 4378 0f92 15       		.byte	0x15
 4379 0f93 A4       		.byte	0xa4
 4380 0f94 2A0F0000 		.4byte	0xf2a
 4381 0f98 05       		.uleb128 0x5
 4382 0f99 0C       		.byte	0xc
 4383 0f9a 15       		.byte	0x15
 4384 0f9b AC       		.byte	0xac
 4385 0f9c C80F0000 		.4byte	0xfc8
 4386 0fa0 07       		.uleb128 0x7
 4387 0fa1 1A190000 		.4byte	.LASF307
 4388 0fa5 15       		.byte	0x15
 4389 0fa6 AD       		.byte	0xad
 4390 0fa7 69010000 		.4byte	0x169
 4391 0fab 00       		.byte	0
 4392 0fac 07       		.uleb128 0x7
 4393 0fad 4E010000 		.4byte	.LASF237
 4394 0fb1 15       		.byte	0x15
 4395 0fb2 AE       		.byte	0xae
 4396 0fb3 01010000 		.4byte	0x101
 4397 0fb7 08       		.byte	0x8
 4398 0fb8 09       		.uleb128 0x9
 4399 0fb9 901D0000 		.4byte	.LASF308
 4400 0fbd 15       		.byte	0x15
 4401 0fbe B0       		.byte	0xb0
 4402 0fbf B8000000 		.4byte	0xb8
 4403 0fc3 01       		.byte	0x1
 4404 0fc4 01       		.byte	0x1
 4405 0fc5 07       		.byte	0x7
 4406 0fc6 0A       		.byte	0xa
 4407 0fc7 00       		.byte	0
 4408 0fc8 05       		.uleb128 0x5
 4409 0fc9 18       		.byte	0x18
 4410 0fca 15       		.byte	0x15
 4411 0fcb A8       		.byte	0xa8
 4412 0fcc F50F0000 		.4byte	0xff5
 4413 0fd0 06       		.uleb128 0x6
 4414 0fd1 64736300 		.ascii	"dsc\000"
 4415 0fd5 15       		.byte	0x15
 4416 0fd6 AA       		.byte	0xaa
 4417 0fd7 1F0F0000 		.4byte	0xf1f
ARM GAS  C:\Users\haske\AppData\Local\Temp\cc11ZRIl.s 			page 111


 4418 0fdb 00       		.byte	0
 4419 0fdc 06       		.uleb128 0x6
 4420 0fdd 63666700 		.ascii	"cfg\000"
 4421 0fe1 15       		.byte	0x15
 4422 0fe2 B1       		.byte	0xb1
 4423 0fe3 980F0000 		.4byte	0xf98
 4424 0fe7 08       		.byte	0x8
 4425 0fe8 07       		.uleb128 0x7
 4426 0fe9 CE140000 		.4byte	.LASF309
 4427 0fed 15       		.byte	0x15
 4428 0fee B3       		.byte	0xb3
 4429 0fef F50F0000 		.4byte	0xff5
 4430 0ff3 14       		.byte	0x14
 4431 0ff4 00       		.byte	0
 4432 0ff5 0B       		.uleb128 0xb
 4433 0ff6 04       		.byte	0x4
 4434 0ff7 8D0F0000 		.4byte	0xf8d
 4435 0ffb 02       		.uleb128 0x2
 4436 0ffc EF070000 		.4byte	.LASF310
 4437 1000 15       		.byte	0x15
 4438 1001 B4       		.byte	0xb4
 4439 1002 C80F0000 		.4byte	0xfc8
 4440 1006 11       		.uleb128 0x11
 4441 1007 01       		.byte	0x1
 4442 1008 42000000 		.4byte	0x42
 4443 100c 16       		.byte	0x16
 4444 100d 1C       		.byte	0x1c
 4445 100e 25100000 		.4byte	0x1025
 4446 1012 12       		.uleb128 0x12
 4447 1013 08150000 		.4byte	.LASF311
 4448 1017 00       		.byte	0
 4449 1018 12       		.uleb128 0x12
 4450 1019 E8010000 		.4byte	.LASF312
 4451 101d 01       		.byte	0x1
 4452 101e 12       		.uleb128 0x12
 4453 101f 421A0000 		.4byte	.LASF313
 4454 1023 02       		.byte	0x2
 4455 1024 00       		.byte	0
 4456 1025 02       		.uleb128 0x2
 4457 1026 810A0000 		.4byte	.LASF314
 4458 102a 16       		.byte	0x16
 4459 102b 20       		.byte	0x20
 4460 102c 06100000 		.4byte	0x1006
 4461 1030 05       		.uleb128 0x5
 4462 1031 10       		.byte	0x10
 4463 1032 17       		.byte	0x17
 4464 1033 33       		.byte	0x33
 4465 1034 69100000 		.4byte	0x1069
 4466 1038 07       		.uleb128 0x7
 4467 1039 1C170000 		.4byte	.LASF315
 4468 103d 17       		.byte	0x17
 4469 103e 34       		.byte	0x34
 4470 103f 69100000 		.4byte	0x1069
 4471 1043 00       		.byte	0
 4472 1044 07       		.uleb128 0x7
 4473 1045 9E120000 		.4byte	.LASF316
 4474 1049 17       		.byte	0x17
ARM GAS  C:\Users\haske\AppData\Local\Temp\cc11ZRIl.s 			page 112


 4475 104a 35       		.byte	0x35
 4476 104b 74100000 		.4byte	0x1074
 4477 104f 04       		.byte	0x4
 4478 1050 06       		.uleb128 0x6
 4479 1051 62756600 		.ascii	"buf\000"
 4480 1055 17       		.byte	0x17
 4481 1056 36       		.byte	0x36
 4482 1057 E9020000 		.4byte	0x2e9
 4483 105b 08       		.byte	0x8
 4484 105c 07       		.uleb128 0x7
 4485 105d 28200000 		.4byte	.LASF317
 4486 1061 17       		.byte	0x17
 4487 1062 37       		.byte	0x37
 4488 1063 AA020000 		.4byte	0x2aa
 4489 1067 0C       		.byte	0xc
 4490 1068 00       		.byte	0
 4491 1069 0B       		.uleb128 0xb
 4492 106a 04       		.byte	0x4
 4493 106b 6F100000 		.4byte	0x106f
 4494 106f 0C       		.uleb128 0xc
 4495 1070 69010000 		.4byte	0x169
 4496 1074 0B       		.uleb128 0xb
 4497 1075 04       		.byte	0x4
 4498 1076 69010000 		.4byte	0x169
 4499 107a 0A       		.uleb128 0xa
 4500 107b A4170000 		.4byte	.LASF318
 4501 107f 28       		.byte	0x28
 4502 1080 17       		.byte	0x17
 4503 1081 2D       		.byte	0x2d
 4504 1082 CF100000 		.4byte	0x10cf
 4505 1086 07       		.uleb128 0x7
 4506 1087 7E170000 		.4byte	.LASF319
 4507 108b 17       		.byte	0x17
 4508 108c 2E       		.byte	0x2e
 4509 108d 69010000 		.4byte	0x169
 4510 1091 00       		.byte	0
 4511 1092 07       		.uleb128 0x7
 4512 1093 3B090000 		.4byte	.LASF320
 4513 1097 17       		.byte	0x17
 4514 1098 2F       		.byte	0x2f
 4515 1099 69010000 		.4byte	0x169
 4516 109d 08       		.byte	0x8
 4517 109e 07       		.uleb128 0x7
 4518 109f D6170000 		.4byte	.LASF321
 4519 10a3 17       		.byte	0x17
 4520 10a4 30       		.byte	0x30
 4521 10a5 01010000 		.4byte	0x101
 4522 10a9 10       		.byte	0x10
 4523 10aa 07       		.uleb128 0x7
 4524 10ab E51A0000 		.4byte	.LASF322
 4525 10af 17       		.byte	0x17
 4526 10b0 31       		.byte	0x31
 4527 10b1 01010000 		.4byte	0x101
 4528 10b5 12       		.byte	0x12
 4529 10b6 06       		.uleb128 0x6
 4530 10b7 62756600 		.ascii	"buf\000"
 4531 10bb 17       		.byte	0x17
ARM GAS  C:\Users\haske\AppData\Local\Temp\cc11ZRIl.s 			page 113


 4532 10bc 32       		.byte	0x32
 4533 10bd E9020000 		.4byte	0x2e9
 4534 10c1 14       		.byte	0x14
 4535 10c2 07       		.uleb128 0x7
 4536 10c3 A0090000 		.4byte	.LASF323
 4537 10c7 17       		.byte	0x17
 4538 10c8 38       		.byte	0x38
 4539 10c9 30100000 		.4byte	0x1030
 4540 10cd 18       		.byte	0x18
 4541 10ce 00       		.byte	0
 4542 10cf 02       		.uleb128 0x2
 4543 10d0 671D0000 		.4byte	.LASF324
 4544 10d4 17       		.byte	0x17
 4545 10d5 39       		.byte	0x39
 4546 10d6 7A100000 		.4byte	0x107a
 4547 10da 0A       		.uleb128 0xa
 4548 10db DD020000 		.4byte	.LASF325
 4549 10df 54       		.byte	0x54
 4550 10e0 17       		.byte	0x17
 4551 10e1 3B       		.byte	0x3b
 4552 10e2 E3110000 		.4byte	0x11e3
 4553 10e6 06       		.uleb128 0x6
 4554 10e7 62756600 		.ascii	"buf\000"
 4555 10eb 17       		.byte	0x17
 4556 10ec 3F       		.byte	0x3f
 4557 10ed E9020000 		.4byte	0x2e9
 4558 10f1 00       		.byte	0
 4559 10f2 07       		.uleb128 0x7
 4560 10f3 9E120000 		.4byte	.LASF316
 4561 10f7 17       		.byte	0x17
 4562 10f8 44       		.byte	0x44
 4563 10f9 74100000 		.4byte	0x1074
 4564 10fd 04       		.byte	0x4
 4565 10fe 07       		.uleb128 0x7
 4566 10ff 1C170000 		.4byte	.LASF315
 4567 1103 17       		.byte	0x17
 4568 1104 49       		.byte	0x49
 4569 1105 69100000 		.4byte	0x1069
 4570 1109 08       		.byte	0x8
 4571 110a 07       		.uleb128 0x7
 4572 110b A0020000 		.4byte	.LASF326
 4573 110f 17       		.byte	0x17
 4574 1110 4B       		.byte	0x4b
 4575 1111 F4110000 		.4byte	0x11f4
 4576 1115 0C       		.byte	0xc
 4577 1116 07       		.uleb128 0x7
 4578 1117 7A020000 		.4byte	.LASF327
 4579 111b 17       		.byte	0x17
 4580 111c 4D       		.byte	0x4d
 4581 111d 1A120000 		.4byte	0x121a
 4582 1121 10       		.byte	0x10
 4583 1122 07       		.uleb128 0x7
 4584 1123 0C120000 		.4byte	.LASF328
 4585 1127 17       		.byte	0x17
 4586 1128 4F       		.byte	0x4f
 4587 1129 5A120000 		.4byte	0x125a
 4588 112d 14       		.byte	0x14
ARM GAS  C:\Users\haske\AppData\Local\Temp\cc11ZRIl.s 			page 114


 4589 112e 07       		.uleb128 0x7
 4590 112f 52130000 		.4byte	.LASF329
 4591 1133 17       		.byte	0x17
 4592 1134 52       		.byte	0x52
 4593 1135 8A120000 		.4byte	0x128a
 4594 1139 18       		.byte	0x18
 4595 113a 07       		.uleb128 0x7
 4596 113b 28220000 		.4byte	.LASF330
 4597 113f 17       		.byte	0x17
 4598 1140 55       		.byte	0x55
 4599 1141 AE120000 		.4byte	0x12ae
 4600 1145 1C       		.byte	0x1c
 4601 1146 07       		.uleb128 0x7
 4602 1147 DC1B0000 		.4byte	.LASF331
 4603 114b 17       		.byte	0x17
 4604 114c 58       		.byte	0x58
 4605 114d D9120000 		.4byte	0x12d9
 4606 1151 20       		.byte	0x20
 4607 1152 07       		.uleb128 0x7
 4608 1153 2B070000 		.4byte	.LASF332
 4609 1157 17       		.byte	0x17
 4610 1158 5C       		.byte	0x5c
 4611 1159 04130000 		.4byte	0x1304
 4612 115d 24       		.byte	0x24
 4613 115e 07       		.uleb128 0x7
 4614 115f 6F220000 		.4byte	.LASF333
 4615 1163 17       		.byte	0x17
 4616 1164 60       		.byte	0x60
 4617 1165 24130000 		.4byte	0x1324
 4618 1169 28       		.byte	0x28
 4619 116a 07       		.uleb128 0x7
 4620 116b 1A0B0000 		.4byte	.LASF334
 4621 116f 17       		.byte	0x17
 4622 1170 71       		.byte	0x71
 4623 1171 62130000 		.4byte	0x1362
 4624 1175 2C       		.byte	0x2c
 4625 1176 07       		.uleb128 0x7
 4626 1177 C4000000 		.4byte	.LASF335
 4627 117b 17       		.byte	0x17
 4628 117c 78       		.byte	0x78
 4629 117d 1A120000 		.4byte	0x121a
 4630 1181 30       		.byte	0x30
 4631 1182 07       		.uleb128 0x7
 4632 1183 071A0000 		.4byte	.LASF336
 4633 1187 17       		.byte	0x17
 4634 1188 7D       		.byte	0x7d
 4635 1189 F4110000 		.4byte	0x11f4
 4636 118d 34       		.byte	0x34
 4637 118e 07       		.uleb128 0x7
 4638 118f B9060000 		.4byte	.LASF337
 4639 1193 17       		.byte	0x17
 4640 1194 8D       		.byte	0x8d
 4641 1195 91130000 		.4byte	0x1391
 4642 1199 38       		.byte	0x38
 4643 119a 07       		.uleb128 0x7
 4644 119b C20D0000 		.4byte	.LASF338
 4645 119f 17       		.byte	0x17
ARM GAS  C:\Users\haske\AppData\Local\Temp\cc11ZRIl.s 			page 115


 4646 11a0 99       		.byte	0x99
 4647 11a1 B6130000 		.4byte	0x13b6
 4648 11a5 3C       		.byte	0x3c
 4649 11a6 07       		.uleb128 0x7
 4650 11a7 141D0000 		.4byte	.LASF339
 4651 11ab 17       		.byte	0x17
 4652 11ac A3       		.byte	0xa3
 4653 11ad D1130000 		.4byte	0x13d1
 4654 11b1 40       		.byte	0x40
 4655 11b2 07       		.uleb128 0x7
 4656 11b3 B51D0000 		.4byte	.LASF340
 4657 11b7 17       		.byte	0x17
 4658 11b8 AC       		.byte	0xac
 4659 11b9 EC130000 		.4byte	0x13ec
 4660 11bd 44       		.byte	0x44
 4661 11be 07       		.uleb128 0x7
 4662 11bf 80110000 		.4byte	.LASF341
 4663 11c3 17       		.byte	0x17
 4664 11c4 B5       		.byte	0xb5
 4665 11c5 08140000 		.4byte	0x1408
 4666 11c9 48       		.byte	0x48
 4667 11ca 07       		.uleb128 0x7
 4668 11cb FD0A0000 		.4byte	.LASF342
 4669 11cf 17       		.byte	0x17
 4670 11d0 BA       		.byte	0xba
 4671 11d1 EF000000 		.4byte	0xef
 4672 11d5 4C       		.byte	0x4c
 4673 11d6 07       		.uleb128 0x7
 4674 11d7 F6230000 		.4byte	.LASF42
 4675 11db 17       		.byte	0x17
 4676 11dc BD       		.byte	0xbd
 4677 11dd E9020000 		.4byte	0x2e9
 4678 11e1 50       		.byte	0x50
 4679 11e2 00       		.byte	0
 4680 11e3 16       		.uleb128 0x16
 4681 11e4 EE110000 		.4byte	0x11ee
 4682 11e8 0E       		.uleb128 0xe
 4683 11e9 EE110000 		.4byte	0x11ee
 4684 11ed 00       		.byte	0
 4685 11ee 0B       		.uleb128 0xb
 4686 11ef 04       		.byte	0x4
 4687 11f0 DA100000 		.4byte	0x10da
 4688 11f4 0B       		.uleb128 0xb
 4689 11f5 04       		.byte	0x4
 4690 11f6 E3110000 		.4byte	0x11e3
 4691 11fa 16       		.uleb128 0x16
 4692 11fb 0F120000 		.4byte	0x120f
 4693 11ff 0E       		.uleb128 0xe
 4694 1200 EE110000 		.4byte	0x11ee
 4695 1204 0E       		.uleb128 0xe
 4696 1205 0F120000 		.4byte	0x120f
 4697 1209 0E       		.uleb128 0xe
 4698 120a 69100000 		.4byte	0x1069
 4699 120e 00       		.byte	0
 4700 120f 0B       		.uleb128 0xb
 4701 1210 04       		.byte	0x4
 4702 1211 15120000 		.4byte	0x1215
ARM GAS  C:\Users\haske\AppData\Local\Temp\cc11ZRIl.s 			page 116


 4703 1215 0C       		.uleb128 0xc
 4704 1216 330C0000 		.4byte	0xc33
 4705 121a 0B       		.uleb128 0xb
 4706 121b 04       		.byte	0x4
 4707 121c FA110000 		.4byte	0x11fa
 4708 1220 16       		.uleb128 0x16
 4709 1221 44120000 		.4byte	0x1244
 4710 1225 0E       		.uleb128 0xe
 4711 1226 EE110000 		.4byte	0x11ee
 4712 122a 0E       		.uleb128 0xe
 4713 122b 44120000 		.4byte	0x1244
 4714 122f 0E       		.uleb128 0xe
 4715 1230 4F120000 		.4byte	0x124f
 4716 1234 0E       		.uleb128 0xe
 4717 1235 CE000000 		.4byte	0xce
 4718 1239 0E       		.uleb128 0xe
 4719 123a CE000000 		.4byte	0xce
 4720 123e 0E       		.uleb128 0xe
 4721 123f CE000000 		.4byte	0xce
 4722 1243 00       		.byte	0
 4723 1244 0B       		.uleb128 0xb
 4724 1245 04       		.byte	0x4
 4725 1246 4A120000 		.4byte	0x124a
 4726 124a 0C       		.uleb128 0xc
 4727 124b A40E0000 		.4byte	0xea4
 4728 124f 0B       		.uleb128 0xb
 4729 1250 04       		.byte	0x4
 4730 1251 55120000 		.4byte	0x1255
 4731 1255 0C       		.uleb128 0xc
 4732 1256 29010000 		.4byte	0x129
 4733 125a 0B       		.uleb128 0xb
 4734 125b 04       		.byte	0x4
 4735 125c 20120000 		.4byte	0x1220
 4736 1260 16       		.uleb128 0x16
 4737 1261 7F120000 		.4byte	0x127f
 4738 1265 0E       		.uleb128 0xe
 4739 1266 EE110000 		.4byte	0x11ee
 4740 126a 0E       		.uleb128 0xe
 4741 126b 7F120000 		.4byte	0x127f
 4742 126f 0E       		.uleb128 0xe
 4743 1270 69100000 		.4byte	0x1069
 4744 1274 0E       		.uleb128 0xe
 4745 1275 D1020000 		.4byte	0x2d1
 4746 1279 0E       		.uleb128 0xe
 4747 127a 0E0A0000 		.4byte	0xa0e
 4748 127e 00       		.byte	0
 4749 127f 0B       		.uleb128 0xb
 4750 1280 04       		.byte	0x4
 4751 1281 85120000 		.4byte	0x1285
 4752 1285 0C       		.uleb128 0xc
 4753 1286 9E0D0000 		.4byte	0xd9e
 4754 128a 0B       		.uleb128 0xb
 4755 128b 04       		.byte	0x4
 4756 128c 60120000 		.4byte	0x1260
 4757 1290 0D       		.uleb128 0xd
 4758 1291 0F030000 		.4byte	0x30f
 4759 1295 AE120000 		.4byte	0x12ae
ARM GAS  C:\Users\haske\AppData\Local\Temp\cc11ZRIl.s 			page 117


 4760 1299 0E       		.uleb128 0xe
 4761 129a EE110000 		.4byte	0x11ee
 4762 129e 0E       		.uleb128 0xe
 4763 129f 7F120000 		.4byte	0x127f
 4764 12a3 0E       		.uleb128 0xe
 4765 12a4 69100000 		.4byte	0x1069
 4766 12a8 0E       		.uleb128 0xe
 4767 12a9 E2020000 		.4byte	0x2e2
 4768 12ad 00       		.byte	0
 4769 12ae 0B       		.uleb128 0xb
 4770 12af 04       		.byte	0x4
 4771 12b0 90120000 		.4byte	0x1290
 4772 12b4 16       		.uleb128 0x16
 4773 12b5 CE120000 		.4byte	0x12ce
 4774 12b9 0E       		.uleb128 0xe
 4775 12ba EE110000 		.4byte	0x11ee
 4776 12be 0E       		.uleb128 0xe
 4777 12bf CE120000 		.4byte	0x12ce
 4778 12c3 0E       		.uleb128 0xe
 4779 12c4 4F120000 		.4byte	0x124f
 4780 12c8 0E       		.uleb128 0xe
 4781 12c9 E4000000 		.4byte	0xe4
 4782 12cd 00       		.byte	0
 4783 12ce 0B       		.uleb128 0xb
 4784 12cf 04       		.byte	0x4
 4785 12d0 D4120000 		.4byte	0x12d4
 4786 12d4 0C       		.uleb128 0xc
 4787 12d5 180D0000 		.4byte	0xd18
 4788 12d9 0B       		.uleb128 0xb
 4789 12da 04       		.byte	0x4
 4790 12db B4120000 		.4byte	0x12b4
 4791 12df 16       		.uleb128 0x16
 4792 12e0 F9120000 		.4byte	0x12f9
 4793 12e4 0E       		.uleb128 0xe
 4794 12e5 EE110000 		.4byte	0x11ee
 4795 12e9 0E       		.uleb128 0xe
 4796 12ea F9120000 		.4byte	0x12f9
 4797 12ee 0E       		.uleb128 0xe
 4798 12ef 4F120000 		.4byte	0x124f
 4799 12f3 0E       		.uleb128 0xe
 4800 12f4 4F120000 		.4byte	0x124f
 4801 12f8 00       		.byte	0
 4802 12f9 0B       		.uleb128 0xb
 4803 12fa 04       		.byte	0x4
 4804 12fb FF120000 		.4byte	0x12ff
 4805 12ff 0C       		.uleb128 0xc
 4806 1300 2A0E0000 		.4byte	0xe2a
 4807 1304 0B       		.uleb128 0xb
 4808 1305 04       		.byte	0x4
 4809 1306 DF120000 		.4byte	0x12df
 4810 130a 16       		.uleb128 0x16
 4811 130b 24130000 		.4byte	0x1324
 4812 130f 0E       		.uleb128 0xe
 4813 1310 EE110000 		.4byte	0x11ee
 4814 1314 0E       		.uleb128 0xe
 4815 1315 0F120000 		.4byte	0x120f
 4816 1319 0E       		.uleb128 0xe
ARM GAS  C:\Users\haske\AppData\Local\Temp\cc11ZRIl.s 			page 118


 4817 131a 4F120000 		.4byte	0x124f
 4818 131e 0E       		.uleb128 0xe
 4819 131f CE000000 		.4byte	0xce
 4820 1323 00       		.byte	0
 4821 1324 0B       		.uleb128 0xb
 4822 1325 04       		.byte	0x4
 4823 1326 0A130000 		.4byte	0x130a
 4824 132a 16       		.uleb128 0x16
 4825 132b 62130000 		.4byte	0x1362
 4826 132f 0E       		.uleb128 0xe
 4827 1330 EE110000 		.4byte	0x11ee
 4828 1334 0E       		.uleb128 0xe
 4829 1335 69100000 		.4byte	0x1069
 4830 1339 0E       		.uleb128 0xe
 4831 133a E2020000 		.4byte	0x2e2
 4832 133e 0E       		.uleb128 0xe
 4833 133f 01010000 		.4byte	0x101
 4834 1343 0E       		.uleb128 0xe
 4835 1344 01010000 		.4byte	0x101
 4836 1348 0E       		.uleb128 0xe
 4837 1349 01010000 		.4byte	0x101
 4838 134d 0E       		.uleb128 0xe
 4839 134e 7F120000 		.4byte	0x127f
 4840 1352 0E       		.uleb128 0xe
 4841 1353 0E0A0000 		.4byte	0xa0e
 4842 1357 0E       		.uleb128 0xe
 4843 1358 E60A0000 		.4byte	0xae6
 4844 135c 0E       		.uleb128 0xe
 4845 135d F90E0000 		.4byte	0xef9
 4846 1361 00       		.byte	0
 4847 1362 0B       		.uleb128 0xb
 4848 1363 04       		.byte	0x4
 4849 1364 2A130000 		.4byte	0x132a
 4850 1368 16       		.uleb128 0x16
 4851 1369 91130000 		.4byte	0x1391
 4852 136d 0E       		.uleb128 0xe
 4853 136e EE110000 		.4byte	0x11ee
 4854 1372 0E       		.uleb128 0xe
 4855 1373 E9020000 		.4byte	0x2e9
 4856 1377 0E       		.uleb128 0xe
 4857 1378 01010000 		.4byte	0x101
 4858 137c 0E       		.uleb128 0xe
 4859 137d 69100000 		.4byte	0x1069
 4860 1381 0E       		.uleb128 0xe
 4861 1382 E9020000 		.4byte	0x2e9
 4862 1386 0E       		.uleb128 0xe
 4863 1387 01010000 		.4byte	0x101
 4864 138b 0E       		.uleb128 0xe
 4865 138c 69100000 		.4byte	0x1069
 4866 1390 00       		.byte	0
 4867 1391 0B       		.uleb128 0xb
 4868 1392 04       		.byte	0x4
 4869 1393 68130000 		.4byte	0x1368
 4870 1397 0D       		.uleb128 0xd
 4871 1398 B0130000 		.4byte	0x13b0
 4872 139c B0130000 		.4byte	0x13b0
 4873 13a0 0E       		.uleb128 0xe
ARM GAS  C:\Users\haske\AppData\Local\Temp\cc11ZRIl.s 			page 119


 4874 13a1 EE110000 		.4byte	0x11ee
 4875 13a5 0E       		.uleb128 0xe
 4876 13a6 B0130000 		.4byte	0x13b0
 4877 13aa 0E       		.uleb128 0xe
 4878 13ab 25100000 		.4byte	0x1025
 4879 13af 00       		.byte	0
 4880 13b0 0B       		.uleb128 0xb
 4881 13b1 04       		.byte	0x4
 4882 13b2 7A100000 		.4byte	0x107a
 4883 13b6 0B       		.uleb128 0xb
 4884 13b7 04       		.byte	0x4
 4885 13b8 97130000 		.4byte	0x1397
 4886 13bc 16       		.uleb128 0x16
 4887 13bd D1130000 		.4byte	0x13d1
 4888 13c1 0E       		.uleb128 0xe
 4889 13c2 EE110000 		.4byte	0x11ee
 4890 13c6 0E       		.uleb128 0xe
 4891 13c7 B0130000 		.4byte	0x13b0
 4892 13cb 0E       		.uleb128 0xe
 4893 13cc 25100000 		.4byte	0x1025
 4894 13d0 00       		.byte	0
 4895 13d1 0B       		.uleb128 0xb
 4896 13d2 04       		.byte	0x4
 4897 13d3 BC130000 		.4byte	0x13bc
 4898 13d7 16       		.uleb128 0x16
 4899 13d8 EC130000 		.4byte	0x13ec
 4900 13dc 0E       		.uleb128 0xe
 4901 13dd EE110000 		.4byte	0x11ee
 4902 13e1 0E       		.uleb128 0xe
 4903 13e2 B0130000 		.4byte	0x13b0
 4904 13e6 0E       		.uleb128 0xe
 4905 13e7 7F120000 		.4byte	0x127f
 4906 13eb 00       		.byte	0
 4907 13ec 0B       		.uleb128 0xb
 4908 13ed 04       		.byte	0x4
 4909 13ee D7130000 		.4byte	0x13d7
 4910 13f2 16       		.uleb128 0x16
 4911 13f3 02140000 		.4byte	0x1402
 4912 13f7 0E       		.uleb128 0xe
 4913 13f8 EE110000 		.4byte	0x11ee
 4914 13fc 0E       		.uleb128 0xe
 4915 13fd 02140000 		.4byte	0x1402
 4916 1401 00       		.byte	0
 4917 1402 0B       		.uleb128 0xb
 4918 1403 04       		.byte	0x4
 4919 1404 CF100000 		.4byte	0x10cf
 4920 1408 0B       		.uleb128 0xb
 4921 1409 04       		.byte	0x4
 4922 140a F2130000 		.4byte	0x13f2
 4923 140e 02       		.uleb128 0x2
 4924 140f E80B0000 		.4byte	.LASF343
 4925 1413 17       		.byte	0x17
 4926 1414 C0       		.byte	0xc0
 4927 1415 DA100000 		.4byte	0x10da
 4928 1419 02       		.uleb128 0x2
 4929 141a 1D000000 		.4byte	.LASF344
 4930 141e 18       		.byte	0x18
ARM GAS  C:\Users\haske\AppData\Local\Temp\cc11ZRIl.s 			page 120


 4931 141f 1D       		.byte	0x1d
 4932 1420 B8000000 		.4byte	0xb8
 4933 1424 05       		.uleb128 0x5
 4934 1425 0C       		.byte	0xc
 4935 1426 18       		.byte	0x18
 4936 1427 20       		.byte	0x20
 4937 1428 51140000 		.4byte	0x1451
 4938 142c 07       		.uleb128 0x7
 4939 142d E5250000 		.4byte	.LASF345
 4940 1431 18       		.byte	0x18
 4941 1432 21       		.byte	0x21
 4942 1433 E4000000 		.4byte	0xe4
 4943 1437 00       		.byte	0
 4944 1438 07       		.uleb128 0x7
 4945 1439 76060000 		.4byte	.LASF346
 4946 143d 18       		.byte	0x18
 4947 143e 22       		.byte	0x22
 4948 143f 51140000 		.4byte	0x1451
 4949 1443 04       		.byte	0x4
 4950 1444 07       		.uleb128 0x7
 4951 1445 8C000000 		.4byte	.LASF347
 4952 1449 18       		.byte	0x18
 4953 144a 23       		.byte	0x23
 4954 144b 51140000 		.4byte	0x1451
 4955 144f 08       		.byte	0x8
 4956 1450 00       		.byte	0
 4957 1451 0B       		.uleb128 0xb
 4958 1452 04       		.byte	0x4
 4959 1453 19140000 		.4byte	0x1419
 4960 1457 02       		.uleb128 0x2
 4961 1458 681F0000 		.4byte	.LASF348
 4962 145c 18       		.byte	0x18
 4963 145d 24       		.byte	0x24
 4964 145e 24140000 		.4byte	0x1424
 4965 1462 0B       		.uleb128 0xb
 4966 1463 04       		.byte	0x4
 4967 1464 0E140000 		.4byte	0x140e
 4968 1468 0B       		.uleb128 0xb
 4969 1469 04       		.byte	0x4
 4970 146a 190A0000 		.4byte	0xa19
 4971 146e 0A       		.uleb128 0xa
 4972 146f EC250000 		.4byte	.LASF349
 4973 1473 20       		.byte	0x20
 4974 1474 19       		.byte	0x19
 4975 1475 3B       		.byte	0x3b
 4976 1476 F3140000 		.4byte	0x14f3
 4977 147a 07       		.uleb128 0x7
 4978 147b 05120000 		.4byte	.LASF350
 4979 147f 19       		.byte	0x19
 4980 1480 3C       		.byte	0x3c
 4981 1481 57140000 		.4byte	0x1457
 4982 1485 00       		.byte	0
 4983 1486 07       		.uleb128 0x7
 4984 1487 49260000 		.4byte	.LASF351
 4985 148b 19       		.byte	0x19
 4986 148c 3D       		.byte	0x3d
 4987 148d 68140000 		.4byte	0x1468
ARM GAS  C:\Users\haske\AppData\Local\Temp\cc11ZRIl.s 			page 121


 4988 1491 0C       		.byte	0xc
 4989 1492 07       		.uleb128 0x7
 4990 1493 49190000 		.4byte	.LASF352
 4991 1497 19       		.byte	0x19
 4992 1498 3F       		.byte	0x3f
 4993 1499 661A0000 		.4byte	0x1a66
 4994 149d 10       		.byte	0x10
 4995 149e 07       		.uleb128 0x7
 4996 149f 4C060000 		.4byte	.LASF353
 4997 14a3 19       		.byte	0x19
 4998 14a4 40       		.byte	0x40
 4999 14a5 821A0000 		.4byte	0x1a82
 5000 14a9 14       		.byte	0x14
 5001 14aa 07       		.uleb128 0x7
 5002 14ab F6230000 		.4byte	.LASF42
 5003 14af 19       		.byte	0x19
 5004 14b0 45       		.byte	0x45
 5005 14b1 E9020000 		.4byte	0x2e9
 5006 14b5 18       		.byte	0x18
 5007 14b6 09       		.uleb128 0x9
 5008 14b7 B2060000 		.4byte	.LASF354
 5009 14bb 19       		.byte	0x19
 5010 14bc 48       		.byte	0x48
 5011 14bd B8000000 		.4byte	0xb8
 5012 14c1 01       		.byte	0x1
 5013 14c2 01       		.byte	0x1
 5014 14c3 07       		.byte	0x7
 5015 14c4 1C       		.byte	0x1c
 5016 14c5 09       		.uleb128 0x9
 5017 14c6 CD1A0000 		.4byte	.LASF355
 5018 14ca 19       		.byte	0x19
 5019 14cb 49       		.byte	0x49
 5020 14cc B8000000 		.4byte	0xb8
 5021 14d0 01       		.byte	0x1
 5022 14d1 01       		.byte	0x1
 5023 14d2 06       		.byte	0x6
 5024 14d3 1C       		.byte	0x1c
 5025 14d4 09       		.uleb128 0x9
 5026 14d5 90240000 		.4byte	.LASF356
 5027 14d9 19       		.byte	0x19
 5028 14da 4A       		.byte	0x4a
 5029 14db B8000000 		.4byte	0xb8
 5030 14df 01       		.byte	0x1
 5031 14e0 01       		.byte	0x1
 5032 14e1 05       		.byte	0x5
 5033 14e2 1C       		.byte	0x1c
 5034 14e3 09       		.uleb128 0x9
 5035 14e4 B91B0000 		.4byte	.LASF357
 5036 14e8 19       		.byte	0x19
 5037 14e9 4C       		.byte	0x4c
 5038 14ea B8000000 		.4byte	0xb8
 5039 14ee 01       		.byte	0x1
 5040 14ef 01       		.byte	0x1
 5041 14f0 04       		.byte	0x4
 5042 14f1 1C       		.byte	0x1c
 5043 14f2 00       		.byte	0
 5044 14f3 0B       		.uleb128 0xb
ARM GAS  C:\Users\haske\AppData\Local\Temp\cc11ZRIl.s 			page 122


 5045 14f4 04       		.byte	0x4
 5046 14f5 6E140000 		.4byte	0x146e
 5047 14f9 02       		.uleb128 0x2
 5048 14fa B0050000 		.4byte	.LASF358
 5049 14fe 0F       		.byte	0xf
 5050 14ff 3C       		.byte	0x3c
 5051 1500 CE000000 		.4byte	0xce
 5052 1504 11       		.uleb128 0x11
 5053 1505 04       		.byte	0x4
 5054 1506 A6000000 		.4byte	0xa6
 5055 150a 0F       		.byte	0xf
 5056 150b 44       		.byte	0x44
 5057 150c 68150000 		.4byte	0x1568
 5058 1510 12       		.uleb128 0x12
 5059 1511 221A0000 		.4byte	.LASF359
 5060 1515 00       		.byte	0
 5061 1516 20       		.uleb128 0x20
 5062 1517 35160000 		.4byte	.LASF360
 5063 151b 00000100 		.4byte	0x10000
 5064 151f 20       		.uleb128 0x20
 5065 1520 15160000 		.4byte	.LASF361
 5066 1524 00000200 		.4byte	0x20000
 5067 1528 20       		.uleb128 0x20
 5068 1529 45130000 		.4byte	.LASF362
 5069 152d 00000300 		.4byte	0x30000
 5070 1531 20       		.uleb128 0x20
 5071 1532 B4030000 		.4byte	.LASF363
 5072 1536 00000400 		.4byte	0x40000
 5073 153a 20       		.uleb128 0x20
 5074 153b 911A0000 		.4byte	.LASF364
 5075 153f 00000500 		.4byte	0x50000
 5076 1543 20       		.uleb128 0x20
 5077 1544 48240000 		.4byte	.LASF365
 5078 1548 00000600 		.4byte	0x60000
 5079 154c 20       		.uleb128 0x20
 5080 154d CD220000 		.4byte	.LASF366
 5081 1551 00000700 		.4byte	0x70000
 5082 1555 20       		.uleb128 0x20
 5083 1556 A7200000 		.4byte	.LASF367
 5084 155a 00000800 		.4byte	0x80000
 5085 155e 20       		.uleb128 0x20
 5086 155f 820C0000 		.4byte	.LASF368
 5087 1563 00000F00 		.4byte	0xf0000
 5088 1567 00       		.byte	0
 5089 1568 11       		.uleb128 0x11
 5090 1569 04       		.byte	0x4
 5091 156a A6000000 		.4byte	0xa6
 5092 156e 0F       		.byte	0xf
 5093 156f 59       		.byte	0x59
 5094 1570 50160000 		.4byte	0x1650
 5095 1574 12       		.uleb128 0x12
 5096 1575 29120000 		.4byte	.LASF369
 5097 1579 01       		.byte	0x1
 5098 157a 12       		.uleb128 0x12
 5099 157b D9150000 		.4byte	.LASF370
 5100 157f 02       		.byte	0x2
 5101 1580 12       		.uleb128 0x12
ARM GAS  C:\Users\haske\AppData\Local\Temp\cc11ZRIl.s 			page 123


 5102 1581 A21E0000 		.4byte	.LASF371
 5103 1585 04       		.byte	0x4
 5104 1586 12       		.uleb128 0x12
 5105 1587 D9110000 		.4byte	.LASF372
 5106 158b 08       		.byte	0x8
 5107 158c 12       		.uleb128 0x12
 5108 158d E4040000 		.4byte	.LASF373
 5109 1591 10       		.byte	0x10
 5110 1592 12       		.uleb128 0x12
 5111 1593 5E150000 		.4byte	.LASF374
 5112 1597 20       		.byte	0x20
 5113 1598 12       		.uleb128 0x12
 5114 1599 15110000 		.4byte	.LASF375
 5115 159d 40       		.byte	0x40
 5116 159e 12       		.uleb128 0x12
 5117 159f 8D250000 		.4byte	.LASF376
 5118 15a3 80       		.byte	0x80
 5119 15a4 19       		.uleb128 0x19
 5120 15a5 8E1C0000 		.4byte	.LASF377
 5121 15a9 0001     		.2byte	0x100
 5122 15ab 19       		.uleb128 0x19
 5123 15ac F90F0000 		.4byte	.LASF378
 5124 15b0 0002     		.2byte	0x200
 5125 15b2 19       		.uleb128 0x19
 5126 15b3 CB070000 		.4byte	.LASF379
 5127 15b7 0003     		.2byte	0x300
 5128 15b9 19       		.uleb128 0x19
 5129 15ba E9170000 		.4byte	.LASF380
 5130 15be 0004     		.2byte	0x400
 5131 15c0 19       		.uleb128 0x19
 5132 15c1 12060000 		.4byte	.LASF381
 5133 15c5 0008     		.2byte	0x800
 5134 15c7 19       		.uleb128 0x19
 5135 15c8 7C130000 		.4byte	.LASF382
 5136 15cc 0010     		.2byte	0x1000
 5137 15ce 19       		.uleb128 0x19
 5138 15cf 861F0000 		.4byte	.LASF383
 5139 15d3 0020     		.2byte	0x2000
 5140 15d5 19       		.uleb128 0x19
 5141 15d6 B2110000 		.4byte	.LASF384
 5142 15da 0040     		.2byte	0x4000
 5143 15dc 19       		.uleb128 0x19
 5144 15dd B3140000 		.4byte	.LASF385
 5145 15e1 0080     		.2byte	0x8000
 5146 15e3 20       		.uleb128 0x20
 5147 15e4 BB050000 		.4byte	.LASF386
 5148 15e8 00000100 		.4byte	0x10000
 5149 15ec 20       		.uleb128 0x20
 5150 15ed BD180000 		.4byte	.LASF387
 5151 15f1 00000200 		.4byte	0x20000
 5152 15f5 20       		.uleb128 0x20
 5153 15f6 E40F0000 		.4byte	.LASF388
 5154 15fa 00000400 		.4byte	0x40000
 5155 15fe 20       		.uleb128 0x20
 5156 15ff 6D100000 		.4byte	.LASF389
 5157 1603 00000800 		.4byte	0x80000
 5158 1607 20       		.uleb128 0x20
ARM GAS  C:\Users\haske\AppData\Local\Temp\cc11ZRIl.s 			page 124


 5159 1608 56070000 		.4byte	.LASF390
 5160 160c 00008000 		.4byte	0x800000
 5161 1610 20       		.uleb128 0x20
 5162 1611 6B070000 		.4byte	.LASF391
 5163 1615 00000001 		.4byte	0x1000000
 5164 1619 20       		.uleb128 0x20
 5165 161a 5E010000 		.4byte	.LASF392
 5166 161e 00000002 		.4byte	0x2000000
 5167 1622 20       		.uleb128 0x20
 5168 1623 0B080000 		.4byte	.LASF393
 5169 1627 00000004 		.4byte	0x4000000
 5170 162b 20       		.uleb128 0x20
 5171 162c FB0D0000 		.4byte	.LASF394
 5172 1630 00000008 		.4byte	0x8000000
 5173 1634 20       		.uleb128 0x20
 5174 1635 0E0E0000 		.4byte	.LASF395
 5175 1639 00000010 		.4byte	0x10000000
 5176 163d 20       		.uleb128 0x20
 5177 163e 210E0000 		.4byte	.LASF396
 5178 1642 00000020 		.4byte	0x20000000
 5179 1646 20       		.uleb128 0x20
 5180 1647 340E0000 		.4byte	.LASF397
 5181 164b 00000040 		.4byte	0x40000000
 5182 164f 00       		.byte	0
 5183 1650 02       		.uleb128 0x2
 5184 1651 E1220000 		.4byte	.LASF398
 5185 1655 0F       		.byte	0xf
 5186 1656 7D       		.byte	0x7d
 5187 1657 E4000000 		.4byte	0xe4
 5188 165b 02       		.uleb128 0x2
 5189 165c F6000000 		.4byte	.LASF399
 5190 1660 1A       		.byte	0x1a
 5191 1661 26       		.byte	0x26
 5192 1662 B8000000 		.4byte	0xb8
 5193 1666 02       		.uleb128 0x2
 5194 1667 C7190000 		.4byte	.LASF400
 5195 166b 1A       		.byte	0x1a
 5196 166c 30       		.byte	0x30
 5197 166d B8000000 		.4byte	0xb8
 5198 1671 05       		.uleb128 0x5
 5199 1672 08       		.byte	0x8
 5200 1673 1B       		.byte	0x1b
 5201 1674 27       		.byte	0x27
 5202 1675 B3160000 		.4byte	0x16b3
 5203 1679 07       		.uleb128 0x7
 5204 167a B0190000 		.4byte	.LASF401
 5205 167e 1B       		.byte	0x1b
 5206 167f 28       		.byte	0x28
 5207 1680 B3160000 		.4byte	0x16b3
 5208 1684 00       		.byte	0
 5209 1685 09       		.uleb128 0x9
 5210 1686 6E240000 		.4byte	.LASF402
 5211 168a 1B       		.byte	0x1b
 5212 168b 29       		.byte	0x29
 5213 168c E4000000 		.4byte	0xe4
 5214 1690 04       		.byte	0x4
 5215 1691 18       		.byte	0x18
ARM GAS  C:\Users\haske\AppData\Local\Temp\cc11ZRIl.s 			page 125


 5216 1692 08       		.byte	0x8
 5217 1693 04       		.byte	0x4
 5218 1694 09       		.uleb128 0x9
 5219 1695 71020000 		.4byte	.LASF403
 5220 1699 1B       		.byte	0x1b
 5221 169a 2A       		.byte	0x2a
 5222 169b E4000000 		.4byte	0xe4
 5223 169f 04       		.byte	0x4
 5224 16a0 01       		.byte	0x1
 5225 16a1 07       		.byte	0x7
 5226 16a2 04       		.byte	0x4
 5227 16a3 09       		.uleb128 0x9
 5228 16a4 270F0000 		.4byte	.LASF404
 5229 16a8 1B       		.byte	0x1b
 5230 16a9 2B       		.byte	0x2b
 5231 16aa E4000000 		.4byte	0xe4
 5232 16ae 04       		.byte	0x4
 5233 16af 01       		.byte	0x1
 5234 16b0 06       		.byte	0x6
 5235 16b1 04       		.byte	0x4
 5236 16b2 00       		.byte	0
 5237 16b3 0B       		.uleb128 0xb
 5238 16b4 04       		.byte	0x4
 5239 16b5 020A0000 		.4byte	0xa02
 5240 16b9 02       		.uleb128 0x2
 5241 16ba B00C0000 		.4byte	.LASF405
 5242 16be 1B       		.byte	0x1b
 5243 16bf 2C       		.byte	0x2c
 5244 16c0 71160000 		.4byte	0x1671
 5245 16c4 05       		.uleb128 0x5
 5246 16c5 48       		.byte	0x48
 5247 16c6 1C       		.byte	0x1c
 5248 16c7 2A       		.byte	0x2a
 5249 16c8 A2170000 		.4byte	0x17a2
 5250 16cc 07       		.uleb128 0x7
 5251 16cd 1F220000 		.4byte	.LASF406
 5252 16d1 1C       		.byte	0x1c
 5253 16d2 2B       		.byte	0x2b
 5254 16d3 62140000 		.4byte	0x1462
 5255 16d7 00       		.byte	0
 5256 16d8 07       		.uleb128 0x7
 5257 16d9 7D160000 		.4byte	.LASF224
 5258 16dd 1C       		.byte	0x1c
 5259 16de 2C       		.byte	0x2c
 5260 16df 30180000 		.4byte	0x1830
 5261 16e3 04       		.byte	0x4
 5262 16e4 07       		.uleb128 0x7
 5263 16e5 EC020000 		.4byte	.LASF299
 5264 16e9 1C       		.byte	0x1c
 5265 16ea 2D       		.byte	0x2d
 5266 16eb E4000000 		.4byte	0xe4
 5267 16ef 08       		.byte	0x8
 5268 16f0 07       		.uleb128 0x7
 5269 16f1 F8050000 		.4byte	.LASF407
 5270 16f5 1C       		.byte	0x1c
 5271 16f6 2E       		.byte	0x2e
 5272 16f7 74100000 		.4byte	0x1074
ARM GAS  C:\Users\haske\AppData\Local\Temp\cc11ZRIl.s 			page 126


 5273 16fb 0C       		.byte	0xc
 5274 16fc 07       		.uleb128 0x7
 5275 16fd F20D0000 		.4byte	.LASF408
 5276 1701 1C       		.byte	0x1c
 5277 1702 30       		.byte	0x30
 5278 1703 3B180000 		.4byte	0x183b
 5279 1707 10       		.byte	0x10
 5280 1708 07       		.uleb128 0x7
 5281 1709 A8110000 		.4byte	.LASF409
 5282 170d 1C       		.byte	0x1c
 5283 170e 32       		.byte	0x32
 5284 170f 41180000 		.4byte	0x1841
 5285 1713 14       		.byte	0x14
 5286 1714 07       		.uleb128 0x7
 5287 1715 051F0000 		.4byte	.LASF410
 5288 1719 1C       		.byte	0x1c
 5289 171a 34       		.byte	0x34
 5290 171b 47180000 		.4byte	0x1847
 5291 171f 18       		.byte	0x18
 5292 1720 07       		.uleb128 0x7
 5293 1721 750F0000 		.4byte	.LASF411
 5294 1725 1C       		.byte	0x1c
 5295 1726 36       		.byte	0x36
 5296 1727 4D180000 		.4byte	0x184d
 5297 172b 1C       		.byte	0x1c
 5298 172c 07       		.uleb128 0x7
 5299 172d 26180000 		.4byte	.LASF412
 5300 1731 1C       		.byte	0x1c
 5301 1732 38       		.byte	0x38
 5302 1733 53180000 		.4byte	0x1853
 5303 1737 20       		.byte	0x20
 5304 1738 06       		.uleb128 0x6
 5305 1739 703100   		.ascii	"p1\000"
 5306 173c 1C       		.byte	0x1c
 5307 173d 3A       		.byte	0x3a
 5308 173e 4F120000 		.4byte	0x124f
 5309 1742 24       		.byte	0x24
 5310 1743 06       		.uleb128 0x6
 5311 1744 703200   		.ascii	"p2\000"
 5312 1747 1C       		.byte	0x1c
 5313 1748 3B       		.byte	0x3b
 5314 1749 4F120000 		.4byte	0x124f
 5315 174d 28       		.byte	0x28
 5316 174e 07       		.uleb128 0x7
 5317 174f 0D0D0000 		.4byte	.LASF413
 5318 1753 1C       		.byte	0x1c
 5319 1754 3C       		.byte	0x3c
 5320 1755 21030000 		.4byte	0x321
 5321 1759 2C       		.byte	0x2c
 5322 175a 07       		.uleb128 0x7
 5323 175b 05020000 		.4byte	.LASF414
 5324 175f 1C       		.byte	0x1c
 5325 1760 3D       		.byte	0x3d
 5326 1761 E4000000 		.4byte	0xe4
 5327 1765 30       		.byte	0x30
 5328 1766 07       		.uleb128 0x7
 5329 1767 8E230000 		.4byte	.LASF415
ARM GAS  C:\Users\haske\AppData\Local\Temp\cc11ZRIl.s 			page 127


 5330 176b 1C       		.byte	0x1c
 5331 176c 3E       		.byte	0x3e
 5332 176d E4000000 		.4byte	0xe4
 5333 1771 34       		.byte	0x34
 5334 1772 06       		.uleb128 0x6
 5335 1773 696400   		.ascii	"id\000"
 5336 1776 1C       		.byte	0x1c
 5337 1777 3F       		.byte	0x3f
 5338 1778 E4000000 		.4byte	0xe4
 5339 177c 38       		.byte	0x38
 5340 177d 07       		.uleb128 0x7
 5341 177e 4E010000 		.4byte	.LASF237
 5342 1782 1C       		.byte	0x1c
 5343 1783 40       		.byte	0x40
 5344 1784 01010000 		.4byte	0x101
 5345 1788 3C       		.byte	0x3c
 5346 1789 07       		.uleb128 0x7
 5347 178a 750A0000 		.4byte	.LASF213
 5348 178e 1C       		.byte	0x1c
 5349 178f 41       		.byte	0x41
 5350 1790 D9000000 		.4byte	0xd9
 5351 1794 40       		.byte	0x40
 5352 1795 07       		.uleb128 0x7
 5353 1796 7D0D0000 		.4byte	.LASF416
 5354 179a 1C       		.byte	0x1c
 5355 179b 42       		.byte	0x42
 5356 179c E2020000 		.4byte	0x2e2
 5357 17a0 44       		.byte	0x44
 5358 17a1 00       		.byte	0
 5359 17a2 0A       		.uleb128 0xa
 5360 17a3 631B0000 		.4byte	.LASF417
 5361 17a7 1C       		.byte	0x1c
 5362 17a8 1D       		.byte	0x1d
 5363 17a9 31       		.byte	0x31
 5364 17aa 30180000 		.4byte	0x1830
 5365 17ae 07       		.uleb128 0x7
 5366 17af 04190000 		.4byte	.LASF418
 5367 17b3 1D       		.byte	0x1d
 5368 17b4 32       		.byte	0x32
 5369 17b5 30180000 		.4byte	0x1830
 5370 17b9 00       		.byte	0
 5371 17ba 07       		.uleb128 0x7
 5372 17bb A9020000 		.4byte	.LASF419
 5373 17bf 1D       		.byte	0x1d
 5374 17c0 33       		.byte	0x33
 5375 17c1 FC180000 		.4byte	0x18fc
 5376 17c5 04       		.byte	0x4
 5377 17c6 07       		.uleb128 0x7
 5378 17c7 131E0000 		.4byte	.LASF420
 5379 17cb 1D       		.byte	0x1d
 5380 17cc 34       		.byte	0x34
 5381 17cd FC180000 		.4byte	0x18fc
 5382 17d1 08       		.byte	0x8
 5383 17d2 07       		.uleb128 0x7
 5384 17d3 F6230000 		.4byte	.LASF42
 5385 17d7 1D       		.byte	0x1d
 5386 17d8 36       		.byte	0x36
ARM GAS  C:\Users\haske\AppData\Local\Temp\cc11ZRIl.s 			page 128


 5387 17d9 E9020000 		.4byte	0x2e9
 5388 17dd 0C       		.byte	0xc
 5389 17de 07       		.uleb128 0x7
 5390 17df FD130000 		.4byte	.LASF421
 5391 17e3 1D       		.byte	0x1d
 5392 17e4 38       		.byte	0x38
 5393 17e5 12190000 		.4byte	0x1912
 5394 17e9 10       		.byte	0x10
 5395 17ea 07       		.uleb128 0x7
 5396 17eb DA0F0000 		.4byte	.LASF422
 5397 17ef 1D       		.byte	0x1d
 5398 17f0 3A       		.byte	0x3a
 5399 17f1 01010000 		.4byte	0x101
 5400 17f5 14       		.byte	0x14
 5401 17f6 07       		.uleb128 0x7
 5402 17f7 FB240000 		.4byte	.LASF423
 5403 17fb 1D       		.byte	0x1d
 5404 17fc 3B       		.byte	0x3b
 5405 17fd 01010000 		.4byte	0x101
 5406 1801 16       		.byte	0x16
 5407 1802 09       		.uleb128 0x9
 5408 1803 9F110000 		.4byte	.LASF424
 5409 1807 1D       		.byte	0x1d
 5410 1808 3C       		.byte	0x3c
 5411 1809 E4000000 		.4byte	0xe4
 5412 180d 04       		.byte	0x4
 5413 180e 02       		.byte	0x2
 5414 180f 1E       		.byte	0x1e
 5415 1810 18       		.byte	0x18
 5416 1811 09       		.uleb128 0x9
 5417 1812 5C050000 		.4byte	.LASF425
 5418 1816 1D       		.byte	0x1d
 5419 1817 3D       		.byte	0x3d
 5420 1818 E4000000 		.4byte	0xe4
 5421 181c 04       		.byte	0x4
 5422 181d 02       		.byte	0x2
 5423 181e 1C       		.byte	0x1c
 5424 181f 18       		.byte	0x18
 5425 1820 09       		.uleb128 0x9
 5426 1821 D0120000 		.4byte	.LASF426
 5427 1825 1D       		.byte	0x1d
 5428 1826 3E       		.byte	0x3e
 5429 1827 E4000000 		.4byte	0xe4
 5430 182b 04       		.byte	0x4
 5431 182c 10       		.byte	0x10
 5432 182d 0C       		.byte	0xc
 5433 182e 18       		.byte	0x18
 5434 182f 00       		.byte	0
 5435 1830 0B       		.uleb128 0xb
 5436 1831 04       		.byte	0x4
 5437 1832 36180000 		.4byte	0x1836
 5438 1836 0C       		.uleb128 0xc
 5439 1837 A2170000 		.4byte	0x17a2
 5440 183b 0B       		.uleb128 0xb
 5441 183c 04       		.byte	0x4
 5442 183d 330C0000 		.4byte	0xc33
 5443 1841 0B       		.uleb128 0xb
ARM GAS  C:\Users\haske\AppData\Local\Temp\cc11ZRIl.s 			page 129


 5444 1842 04       		.byte	0x4
 5445 1843 180D0000 		.4byte	0xd18
 5446 1847 0B       		.uleb128 0xb
 5447 1848 04       		.byte	0x4
 5448 1849 2A0E0000 		.4byte	0xe2a
 5449 184d 0B       		.uleb128 0xb
 5450 184e 04       		.byte	0x4
 5451 184f 9E0D0000 		.4byte	0xd9e
 5452 1853 0B       		.uleb128 0xb
 5453 1854 04       		.byte	0x4
 5454 1855 A40E0000 		.4byte	0xea4
 5455 1859 02       		.uleb128 0x2
 5456 185a 92130000 		.4byte	.LASF427
 5457 185e 1C       		.byte	0x1c
 5458 185f 43       		.byte	0x43
 5459 1860 C4160000 		.4byte	0x16c4
 5460 1864 0B       		.uleb128 0xb
 5461 1865 04       		.byte	0x4
 5462 1866 6A180000 		.4byte	0x186a
 5463 186a 0A       		.uleb128 0xa
 5464 186b 26140000 		.4byte	.LASF428
 5465 186f 1C       		.byte	0x1c
 5466 1870 1E       		.byte	0x1e
 5467 1871 5E       		.byte	0x5e
 5468 1872 EC180000 		.4byte	0x18ec
 5469 1876 07       		.uleb128 0x7
 5470 1877 79110000 		.4byte	.LASF429
 5471 187b 1E       		.byte	0x1e
 5472 187c 5F       		.byte	0x5f
 5473 187d 190A0000 		.4byte	0xa19
 5474 1881 00       		.byte	0
 5475 1882 07       		.uleb128 0x7
 5476 1883 F1020000 		.4byte	.LASF430
 5477 1887 1E       		.byte	0x1e
 5478 1888 60       		.byte	0x60
 5479 1889 190A0000 		.4byte	0xa19
 5480 188d 04       		.byte	0x4
 5481 188e 07       		.uleb128 0x7
 5482 188f EF190000 		.4byte	.LASF431
 5483 1893 1E       		.byte	0x1e
 5484 1894 61       		.byte	0x61
 5485 1895 4A1A0000 		.4byte	0x1a4a
 5486 1899 08       		.byte	0x8
 5487 189a 07       		.uleb128 0x7
 5488 189b F6230000 		.4byte	.LASF42
 5489 189f 1E       		.byte	0x1e
 5490 18a0 62       		.byte	0x62
 5491 18a1 E9020000 		.4byte	0x2e9
 5492 18a5 0C       		.byte	0xc
 5493 18a6 07       		.uleb128 0x7
 5494 18a7 73110000 		.4byte	.LASF432
 5495 18ab 1E       		.byte	0x1e
 5496 18ac 63       		.byte	0x63
 5497 18ad E9020000 		.4byte	0x2e9
 5498 18b1 10       		.byte	0x10
 5499 18b2 07       		.uleb128 0x7
 5500 18b3 CF250000 		.4byte	.LASF433
ARM GAS  C:\Users\haske\AppData\Local\Temp\cc11ZRIl.s 			page 130


 5501 18b7 1E       		.byte	0x1e
 5502 18b8 64       		.byte	0x64
 5503 18b9 64180000 		.4byte	0x1864
 5504 18bd 14       		.byte	0x14
 5505 18be 09       		.uleb128 0x9
 5506 18bf 4D140000 		.4byte	.LASF434
 5507 18c3 1E       		.byte	0x1e
 5508 18c4 65       		.byte	0x65
 5509 18c5 B8000000 		.4byte	0xb8
 5510 18c9 01       		.byte	0x1
 5511 18ca 01       		.byte	0x1
 5512 18cb 07       		.byte	0x7
 5513 18cc 18       		.byte	0x18
 5514 18cd 09       		.uleb128 0x9
 5515 18ce 650A0000 		.4byte	.LASF435
 5516 18d2 1E       		.byte	0x1e
 5517 18d3 66       		.byte	0x66
 5518 18d4 B8000000 		.4byte	0xb8
 5519 18d8 01       		.byte	0x1
 5520 18d9 01       		.byte	0x1
 5521 18da 06       		.byte	0x6
 5522 18db 18       		.byte	0x18
 5523 18dc 09       		.uleb128 0x9
 5524 18dd 79180000 		.4byte	.LASF436
 5525 18e1 1E       		.byte	0x1e
 5526 18e2 67       		.byte	0x67
 5527 18e3 B8000000 		.4byte	0xb8
 5528 18e7 01       		.byte	0x1
 5529 18e8 01       		.byte	0x1
 5530 18e9 05       		.byte	0x5
 5531 18ea 18       		.byte	0x18
 5532 18eb 00       		.byte	0
 5533 18ec 16       		.uleb128 0x16
 5534 18ed FC180000 		.4byte	0x18fc
 5535 18f1 0E       		.uleb128 0xe
 5536 18f2 30180000 		.4byte	0x1830
 5537 18f6 0E       		.uleb128 0xe
 5538 18f7 190A0000 		.4byte	0xa19
 5539 18fb 00       		.byte	0
 5540 18fc 0B       		.uleb128 0xb
 5541 18fd 04       		.byte	0x4
 5542 18fe EC180000 		.4byte	0x18ec
 5543 1902 16       		.uleb128 0x16
 5544 1903 12190000 		.4byte	0x1912
 5545 1907 0E       		.uleb128 0xe
 5546 1908 30180000 		.4byte	0x1830
 5547 190c 0E       		.uleb128 0xe
 5548 190d 64180000 		.4byte	0x1864
 5549 1911 00       		.byte	0
 5550 1912 0B       		.uleb128 0xb
 5551 1913 04       		.byte	0x4
 5552 1914 02190000 		.4byte	0x1902
 5553 1918 02       		.uleb128 0x2
 5554 1919 9A0E0000 		.4byte	.LASF437
 5555 191d 1D       		.byte	0x1d
 5556 191e 3F       		.byte	0x3f
 5557 191f A2170000 		.4byte	0x17a2
ARM GAS  C:\Users\haske\AppData\Local\Temp\cc11ZRIl.s 			page 131


 5558 1923 11       		.uleb128 0x11
 5559 1924 01       		.byte	0x1
 5560 1925 42000000 		.4byte	0x42
 5561 1929 1E       		.byte	0x1e
 5562 192a 20       		.byte	0x20
 5563 192b 4A1A0000 		.4byte	0x1a4a
 5564 192f 12       		.uleb128 0x12
 5565 1930 1E050000 		.4byte	.LASF438
 5566 1934 00       		.byte	0
 5567 1935 12       		.uleb128 0x12
 5568 1936 631A0000 		.4byte	.LASF439
 5569 193a 01       		.byte	0x1
 5570 193b 12       		.uleb128 0x12
 5571 193c AB180000 		.4byte	.LASF440
 5572 1940 02       		.byte	0x2
 5573 1941 12       		.uleb128 0x12
 5574 1942 00240000 		.4byte	.LASF441
 5575 1946 03       		.byte	0x3
 5576 1947 12       		.uleb128 0x12
 5577 1948 C5030000 		.4byte	.LASF442
 5578 194c 04       		.byte	0x4
 5579 194d 12       		.uleb128 0x12
 5580 194e 11030000 		.4byte	.LASF443
 5581 1952 05       		.byte	0x5
 5582 1953 12       		.uleb128 0x12
 5583 1954 2C190000 		.4byte	.LASF444
 5584 1958 06       		.byte	0x6
 5585 1959 12       		.uleb128 0x12
 5586 195a 5E0E0000 		.4byte	.LASF445
 5587 195e 07       		.byte	0x7
 5588 195f 12       		.uleb128 0x12
 5589 1960 09260000 		.4byte	.LASF446
 5590 1964 08       		.byte	0x8
 5591 1965 12       		.uleb128 0x12
 5592 1966 C9230000 		.4byte	.LASF447
 5593 196a 09       		.byte	0x9
 5594 196b 12       		.uleb128 0x12
 5595 196c 3A010000 		.4byte	.LASF448
 5596 1970 0A       		.byte	0xa
 5597 1971 12       		.uleb128 0x12
 5598 1972 65140000 		.4byte	.LASF449
 5599 1976 0B       		.byte	0xb
 5600 1977 12       		.uleb128 0x12
 5601 1978 00030000 		.4byte	.LASF450
 5602 197c 0C       		.byte	0xc
 5603 197d 12       		.uleb128 0x12
 5604 197e 93230000 		.4byte	.LASF451
 5605 1982 0D       		.byte	0xd
 5606 1983 12       		.uleb128 0x12
 5607 1984 C5170000 		.4byte	.LASF452
 5608 1988 0E       		.byte	0xe
 5609 1989 12       		.uleb128 0x12
 5610 198a AC210000 		.4byte	.LASF453
 5611 198e 0F       		.byte	0xf
 5612 198f 12       		.uleb128 0x12
 5613 1990 CA100000 		.4byte	.LASF454
 5614 1994 10       		.byte	0x10
ARM GAS  C:\Users\haske\AppData\Local\Temp\cc11ZRIl.s 			page 132


 5615 1995 12       		.uleb128 0x12
 5616 1996 980B0000 		.4byte	.LASF455
 5617 199a 11       		.byte	0x11
 5618 199b 12       		.uleb128 0x12
 5619 199c 2E0B0000 		.4byte	.LASF456
 5620 19a0 12       		.byte	0x12
 5621 19a1 12       		.uleb128 0x12
 5622 19a2 CE0A0000 		.4byte	.LASF457
 5623 19a6 13       		.byte	0x13
 5624 19a7 12       		.uleb128 0x12
 5625 19a8 46000000 		.4byte	.LASF458
 5626 19ac 14       		.byte	0x14
 5627 19ad 12       		.uleb128 0x12
 5628 19ae A1080000 		.4byte	.LASF459
 5629 19b2 15       		.byte	0x15
 5630 19b3 12       		.uleb128 0x12
 5631 19b4 BF0E0000 		.4byte	.LASF460
 5632 19b8 16       		.byte	0x16
 5633 19b9 12       		.uleb128 0x12
 5634 19ba E81B0000 		.4byte	.LASF461
 5635 19be 17       		.byte	0x17
 5636 19bf 12       		.uleb128 0x12
 5637 19c0 B1220000 		.4byte	.LASF462
 5638 19c4 18       		.byte	0x18
 5639 19c5 12       		.uleb128 0x12
 5640 19c6 A21F0000 		.4byte	.LASF463
 5641 19ca 19       		.byte	0x19
 5642 19cb 12       		.uleb128 0x12
 5643 19cc B91F0000 		.4byte	.LASF464
 5644 19d0 1A       		.byte	0x1a
 5645 19d1 12       		.uleb128 0x12
 5646 19d2 8F060000 		.4byte	.LASF465
 5647 19d6 1B       		.byte	0x1b
 5648 19d7 12       		.uleb128 0x12
 5649 19d8 8D170000 		.4byte	.LASF466
 5650 19dc 1C       		.byte	0x1c
 5651 19dd 12       		.uleb128 0x12
 5652 19de 1F010000 		.4byte	.LASF467
 5653 19e2 1D       		.byte	0x1d
 5654 19e3 12       		.uleb128 0x12
 5655 19e4 BF120000 		.4byte	.LASF468
 5656 19e8 1E       		.byte	0x1e
 5657 19e9 12       		.uleb128 0x12
 5658 19ea 36200000 		.4byte	.LASF469
 5659 19ee 1F       		.byte	0x1f
 5660 19ef 12       		.uleb128 0x12
 5661 19f0 741A0000 		.4byte	.LASF470
 5662 19f4 20       		.byte	0x20
 5663 19f5 12       		.uleb128 0x12
 5664 19f6 6D160000 		.4byte	.LASF471
 5665 19fa 21       		.byte	0x21
 5666 19fb 12       		.uleb128 0x12
 5667 19fc 2C020000 		.4byte	.LASF472
 5668 1a00 22       		.byte	0x22
 5669 1a01 12       		.uleb128 0x12
 5670 1a02 6C030000 		.4byte	.LASF473
 5671 1a06 23       		.byte	0x23
ARM GAS  C:\Users\haske\AppData\Local\Temp\cc11ZRIl.s 			page 133


 5672 1a07 12       		.uleb128 0x12
 5673 1a08 1D130000 		.4byte	.LASF474
 5674 1a0c 24       		.byte	0x24
 5675 1a0d 12       		.uleb128 0x12
 5676 1a0e 0F250000 		.4byte	.LASF475
 5677 1a12 25       		.byte	0x25
 5678 1a13 12       		.uleb128 0x12
 5679 1a14 5E180000 		.4byte	.LASF476
 5680 1a18 26       		.byte	0x26
 5681 1a19 12       		.uleb128 0x12
 5682 1a1a 660C0000 		.4byte	.LASF477
 5683 1a1e 27       		.byte	0x27
 5684 1a1f 12       		.uleb128 0x12
 5685 1a20 121B0000 		.4byte	.LASF478
 5686 1a24 28       		.byte	0x28
 5687 1a25 12       		.uleb128 0x12
 5688 1a26 F4220000 		.4byte	.LASF479
 5689 1a2a 29       		.byte	0x29
 5690 1a2b 12       		.uleb128 0x12
 5691 1a2c 7C220000 		.4byte	.LASF480
 5692 1a30 2A       		.byte	0x2a
 5693 1a31 12       		.uleb128 0x12
 5694 1a32 44230000 		.4byte	.LASF481
 5695 1a36 2B       		.byte	0x2b
 5696 1a37 12       		.uleb128 0x12
 5697 1a38 5A080000 		.4byte	.LASF482
 5698 1a3c 2C       		.byte	0x2c
 5699 1a3d 12       		.uleb128 0x12
 5700 1a3e BE1A0000 		.4byte	.LASF483
 5701 1a42 2D       		.byte	0x2d
 5702 1a43 12       		.uleb128 0x12
 5703 1a44 F5100000 		.4byte	.LASF484
 5704 1a48 80       		.byte	0x80
 5705 1a49 00       		.byte	0
 5706 1a4a 02       		.uleb128 0x2
 5707 1a4b 06140000 		.4byte	.LASF485
 5708 1a4f 1E       		.byte	0x1e
 5709 1a50 5C       		.byte	0x5c
 5710 1a51 23190000 		.4byte	0x1923
 5711 1a55 02       		.uleb128 0x2
 5712 1a56 11020000 		.4byte	.LASF486
 5713 1a5a 1E       		.byte	0x1e
 5714 1a5b 68       		.byte	0x68
 5715 1a5c 6A180000 		.4byte	0x186a
 5716 1a60 0B       		.uleb128 0xb
 5717 1a61 04       		.byte	0x4
 5718 1a62 551A0000 		.4byte	0x1a55
 5719 1a66 02       		.uleb128 0x2
 5720 1a67 4F1B0000 		.4byte	.LASF487
 5721 1a6b 19       		.byte	0x19
 5722 1a6c 34       		.byte	0x34
 5723 1a6d 711A0000 		.4byte	0x1a71
 5724 1a71 0B       		.uleb128 0xb
 5725 1a72 04       		.byte	0x4
 5726 1a73 771A0000 		.4byte	0x1a77
 5727 1a77 16       		.uleb128 0x16
 5728 1a78 821A0000 		.4byte	0x1a82
ARM GAS  C:\Users\haske\AppData\Local\Temp\cc11ZRIl.s 			page 134


 5729 1a7c 0E       		.uleb128 0xe
 5730 1a7d F3140000 		.4byte	0x14f3
 5731 1a81 00       		.byte	0
 5732 1a82 02       		.uleb128 0x2
 5733 1a83 A1030000 		.4byte	.LASF488
 5734 1a87 19       		.byte	0x19
 5735 1a88 35       		.byte	0x35
 5736 1a89 8D1A0000 		.4byte	0x1a8d
 5737 1a8d 0B       		.uleb128 0xb
 5738 1a8e 04       		.byte	0x4
 5739 1a8f 931A0000 		.4byte	0x1a93
 5740 1a93 16       		.uleb128 0x16
 5741 1a94 A31A0000 		.4byte	0x1aa3
 5742 1a98 0E       		.uleb128 0xe
 5743 1a99 F3140000 		.4byte	0x14f3
 5744 1a9d 0E       		.uleb128 0xe
 5745 1a9e AA020000 		.4byte	0x2aa
 5746 1aa2 00       		.byte	0
 5747 1aa3 02       		.uleb128 0x2
 5748 1aa4 07090000 		.4byte	.LASF489
 5749 1aa8 19       		.byte	0x19
 5750 1aa9 4E       		.byte	0x4e
 5751 1aaa 6E140000 		.4byte	0x146e
 5752 1aae 05       		.uleb128 0x5
 5753 1aaf 1C       		.byte	0x1c
 5754 1ab0 0F       		.byte	0xf
 5755 1ab1 9B       		.byte	0x9b
 5756 1ab2 651B0000 		.4byte	0x1b65
 5757 1ab6 07       		.uleb128 0x7
 5758 1ab7 D5140000 		.4byte	.LASF490
 5759 1abb 0F       		.byte	0xf
 5760 1abc 9C       		.byte	0x9c
 5761 1abd 68140000 		.4byte	0x1468
 5762 1ac1 00       		.byte	0
 5763 1ac2 07       		.uleb128 0x7
 5764 1ac3 B4080000 		.4byte	.LASF491
 5765 1ac7 0F       		.byte	0xf
 5766 1ac8 9D       		.byte	0x9d
 5767 1ac9 E4000000 		.4byte	0xe4
 5768 1acd 04       		.byte	0x4
 5769 1ace 07       		.uleb128 0x7
 5770 1acf 380D0000 		.4byte	.LASF492
 5771 1ad3 0F       		.byte	0xf
 5772 1ad4 9E       		.byte	0x9e
 5773 1ad5 651B0000 		.4byte	0x1b65
 5774 1ad9 08       		.byte	0x8
 5775 1ada 07       		.uleb128 0x7
 5776 1adb CC0C0000 		.4byte	.LASF493
 5777 1adf 0F       		.byte	0xf
 5778 1ae0 A0       		.byte	0xa0
 5779 1ae1 701B0000 		.4byte	0x1b70
 5780 1ae5 0C       		.byte	0xc
 5781 1ae6 07       		.uleb128 0x7
 5782 1ae7 5C0D0000 		.4byte	.LASF494
 5783 1aeb 0F       		.byte	0xf
 5784 1aec A1       		.byte	0xa1
 5785 1aed 29010000 		.4byte	0x129
ARM GAS  C:\Users\haske\AppData\Local\Temp\cc11ZRIl.s 			page 135


 5786 1af1 10       		.byte	0x10
 5787 1af2 07       		.uleb128 0x7
 5788 1af3 4C200000 		.4byte	.LASF495
 5789 1af7 0F       		.byte	0xf
 5790 1af8 A3       		.byte	0xa3
 5791 1af9 01010000 		.4byte	0x101
 5792 1afd 14       		.byte	0x14
 5793 1afe 07       		.uleb128 0x7
 5794 1aff E40D0000 		.4byte	.LASF496
 5795 1b03 0F       		.byte	0xf
 5796 1b04 A4       		.byte	0xa4
 5797 1b05 01010000 		.4byte	0x101
 5798 1b09 16       		.byte	0x16
 5799 1b0a 09       		.uleb128 0x9
 5800 1b0b 91090000 		.4byte	.LASF497
 5801 1b0f 0F       		.byte	0xf
 5802 1b10 A6       		.byte	0xa6
 5803 1b11 5B160000 		.4byte	0x165b
 5804 1b15 01       		.byte	0x1
 5805 1b16 02       		.byte	0x2
 5806 1b17 06       		.byte	0x6
 5807 1b18 18       		.byte	0x18
 5808 1b19 09       		.uleb128 0x9
 5809 1b1a CC010000 		.4byte	.LASF498
 5810 1b1e 0F       		.byte	0xf
 5811 1b1f A7       		.byte	0xa7
 5812 1b20 66160000 		.4byte	0x1666
 5813 1b24 01       		.byte	0x1
 5814 1b25 02       		.byte	0x2
 5815 1b26 04       		.byte	0x4
 5816 1b27 18       		.byte	0x18
 5817 1b28 09       		.uleb128 0x9
 5818 1b29 DA010000 		.4byte	.LASF499
 5819 1b2d 0F       		.byte	0xf
 5820 1b2e A8       		.byte	0xa8
 5821 1b2f 66160000 		.4byte	0x1666
 5822 1b33 01       		.byte	0x1
 5823 1b34 02       		.byte	0x2
 5824 1b35 02       		.byte	0x2
 5825 1b36 18       		.byte	0x18
 5826 1b37 09       		.uleb128 0x9
 5827 1b38 51050000 		.4byte	.LASF500
 5828 1b3c 0F       		.byte	0xf
 5829 1b3d A9       		.byte	0xa9
 5830 1b3e 74010000 		.4byte	0x174
 5831 1b42 01       		.byte	0x1
 5832 1b43 04       		.byte	0x4
 5833 1b44 04       		.byte	0x4
 5834 1b45 19       		.byte	0x19
 5835 1b46 09       		.uleb128 0x9
 5836 1b47 6E260000 		.4byte	.LASF501
 5837 1b4b 0F       		.byte	0xf
 5838 1b4c AA       		.byte	0xaa
 5839 1b4d B8000000 		.4byte	0xb8
 5840 1b51 01       		.byte	0x1
 5841 1b52 06       		.byte	0x6
 5842 1b53 02       		.byte	0x2
ARM GAS  C:\Users\haske\AppData\Local\Temp\cc11ZRIl.s 			page 136


 5843 1b54 1A       		.byte	0x1a
 5844 1b55 09       		.uleb128 0x9
 5845 1b56 0A010000 		.4byte	.LASF502
 5846 1b5a 0F       		.byte	0xf
 5847 1b5b AB       		.byte	0xab
 5848 1b5c B8000000 		.4byte	0xb8
 5849 1b60 01       		.byte	0x1
 5850 1b61 02       		.byte	0x2
 5851 1b62 00       		.byte	0
 5852 1b63 1A       		.byte	0x1a
 5853 1b64 00       		.byte	0
 5854 1b65 0B       		.uleb128 0xb
 5855 1b66 04       		.byte	0x4
 5856 1b67 A31A0000 		.4byte	0x1aa3
 5857 1b6b 21       		.uleb128 0x21
 5858 1b6c 21240000 		.4byte	.LASF634
 5859 1b70 0B       		.uleb128 0xb
 5860 1b71 04       		.byte	0x4
 5861 1b72 6B1B0000 		.4byte	0x1b6b
 5862 1b76 02       		.uleb128 0x2
 5863 1b77 12090000 		.4byte	.LASF503
 5864 1b7b 0F       		.byte	0xf
 5865 1b7c AC       		.byte	0xac
 5866 1b7d AE1A0000 		.4byte	0x1aae
 5867 1b81 0B       		.uleb128 0xb
 5868 1b82 04       		.byte	0x4
 5869 1b83 871B0000 		.4byte	0x1b87
 5870 1b87 0C       		.uleb128 0xc
 5871 1b88 18190000 		.4byte	0x1918
 5872 1b8c 0B       		.uleb128 0xb
 5873 1b8d 04       		.byte	0x4
 5874 1b8e 761B0000 		.4byte	0x1b76
 5875 1b92 0B       		.uleb128 0xb
 5876 1b93 04       		.byte	0x4
 5877 1b94 B9160000 		.4byte	0x16b9
 5878 1b98 02       		.uleb128 0x2
 5879 1b99 01220000 		.4byte	.LASF504
 5880 1b9d 0F       		.byte	0xf
 5881 1b9e BF       		.byte	0xbf
 5882 1b9f 1F0A0000 		.4byte	0xa1f
 5883 1ba3 11       		.uleb128 0x11
 5884 1ba4 01       		.byte	0x1
 5885 1ba5 42000000 		.4byte	0x42
 5886 1ba9 1F       		.byte	0x1f
 5887 1baa 21       		.byte	0x21
 5888 1bab C21B0000 		.4byte	0x1bc2
 5889 1baf 12       		.uleb128 0x12
 5890 1bb0 13180000 		.4byte	.LASF505
 5891 1bb4 00       		.byte	0
 5892 1bb5 12       		.uleb128 0x12
 5893 1bb6 5A250000 		.4byte	.LASF506
 5894 1bba 01       		.byte	0x1
 5895 1bbb 12       		.uleb128 0x12
 5896 1bbc 5E1C0000 		.4byte	.LASF507
 5897 1bc0 02       		.byte	0x2
 5898 1bc1 00       		.byte	0
 5899 1bc2 02       		.uleb128 0x2
ARM GAS  C:\Users\haske\AppData\Local\Temp\cc11ZRIl.s 			page 137


 5900 1bc3 110F0000 		.4byte	.LASF508
 5901 1bc7 1F       		.byte	0x1f
 5902 1bc8 26       		.byte	0x26
 5903 1bc9 B8000000 		.4byte	0xb8
 5904 1bcd 05       		.uleb128 0x5
 5905 1bce 10       		.byte	0x10
 5906 1bcf 1F       		.byte	0x1f
 5907 1bd0 28       		.byte	0x28
 5908 1bd1 061C0000 		.4byte	0x1c06
 5909 1bd5 06       		.uleb128 0x6
 5910 1bd6 62617200 		.ascii	"bar\000"
 5911 1bda 1F       		.byte	0x1f
 5912 1bdb 29       		.byte	0x29
 5913 1bdc 061C0000 		.4byte	0x1c06
 5914 1be0 00       		.byte	0
 5915 1be1 07       		.uleb128 0x7
 5916 1be2 27230000 		.4byte	.LASF509
 5917 1be6 1F       		.byte	0x1f
 5918 1be7 2A       		.byte	0x2a
 5919 1be8 D9000000 		.4byte	0xd9
 5920 1bec 04       		.byte	0x4
 5921 1bed 07       		.uleb128 0x7
 5922 1bee A0040000 		.4byte	.LASF510
 5923 1bf2 1F       		.byte	0x1f
 5924 1bf3 2B       		.byte	0x2b
 5925 1bf4 D9000000 		.4byte	0xd9
 5926 1bf8 08       		.byte	0x8
 5927 1bf9 07       		.uleb128 0x7
 5928 1bfa AB230000 		.4byte	.LASF511
 5929 1bfe 1F       		.byte	0x1f
 5930 1bff 2C       		.byte	0x2c
 5931 1c00 D9000000 		.4byte	0xd9
 5932 1c04 0C       		.byte	0xc
 5933 1c05 00       		.byte	0
 5934 1c06 0B       		.uleb128 0xb
 5935 1c07 04       		.byte	0x4
 5936 1c08 981B0000 		.4byte	0x1b98
 5937 1c0c 02       		.uleb128 0x2
 5938 1c0d 660F0000 		.4byte	.LASF512
 5939 1c11 1F       		.byte	0x1f
 5940 1c12 2D       		.byte	0x2d
 5941 1c13 CD1B0000 		.4byte	0x1bcd
 5942 1c17 05       		.uleb128 0x5
 5943 1c18 60       		.byte	0x60
 5944 1c19 1F       		.byte	0x1f
 5945 1c1a 2F       		.byte	0x2f
 5946 1c1b 8F1C0000 		.4byte	0x1c8f
 5947 1c1f 06       		.uleb128 0x6
 5948 1c20 6F626A00 		.ascii	"obj\000"
 5949 1c24 1F       		.byte	0x1f
 5950 1c25 30       		.byte	0x30
 5951 1c26 981B0000 		.4byte	0x1b98
 5952 1c2a 00       		.byte	0
 5953 1c2b 07       		.uleb128 0x7
 5954 1c2c 811E0000 		.4byte	.LASF513
 5955 1c30 1F       		.byte	0x1f
 5956 1c31 31       		.byte	0x31
ARM GAS  C:\Users\haske\AppData\Local\Temp\cc11ZRIl.s 			page 138


 5957 1c32 D9000000 		.4byte	0xd9
 5958 1c36 24       		.byte	0x24
 5959 1c37 07       		.uleb128 0x7
 5960 1c38 091E0000 		.4byte	.LASF514
 5961 1c3c 1F       		.byte	0x1f
 5962 1c3d 32       		.byte	0x32
 5963 1c3e D9000000 		.4byte	0xd9
 5964 1c42 28       		.byte	0x28
 5965 1c43 07       		.uleb128 0x7
 5966 1c44 6E210000 		.4byte	.LASF515
 5967 1c48 1F       		.byte	0x1f
 5968 1c49 33       		.byte	0x33
 5969 1c4a D9000000 		.4byte	0xd9
 5970 1c4e 2C       		.byte	0x2c
 5971 1c4f 07       		.uleb128 0x7
 5972 1c50 20080000 		.4byte	.LASF82
 5973 1c54 1F       		.byte	0x1f
 5974 1c55 34       		.byte	0x34
 5975 1c56 D9000000 		.4byte	0xd9
 5976 1c5a 30       		.byte	0x30
 5977 1c5b 07       		.uleb128 0x7
 5978 1c5c AA010000 		.4byte	.LASF516
 5979 1c60 1F       		.byte	0x1f
 5980 1c61 35       		.byte	0x35
 5981 1c62 69010000 		.4byte	0x169
 5982 1c66 34       		.byte	0x34
 5983 1c67 07       		.uleb128 0x7
 5984 1c68 79150000 		.4byte	.LASF517
 5985 1c6c 1F       		.byte	0x1f
 5986 1c6d 36       		.byte	0x36
 5987 1c6e 0C1C0000 		.4byte	0x1c0c
 5988 1c72 3C       		.byte	0x3c
 5989 1c73 07       		.uleb128 0x7
 5990 1c74 49080000 		.4byte	.LASF518
 5991 1c78 1F       		.byte	0x1f
 5992 1c79 37       		.byte	0x37
 5993 1c7a 0C1C0000 		.4byte	0x1c0c
 5994 1c7e 4C       		.byte	0x4c
 5995 1c7f 09       		.uleb128 0x9
 5996 1c80 9D1F0000 		.4byte	.LASF519
 5997 1c84 1F       		.byte	0x1f
 5998 1c85 38       		.byte	0x38
 5999 1c86 C21B0000 		.4byte	0x1bc2
 6000 1c8a 01       		.byte	0x1
 6001 1c8b 02       		.byte	0x2
 6002 1c8c 06       		.byte	0x6
 6003 1c8d 5C       		.byte	0x5c
 6004 1c8e 00       		.byte	0
 6005 1c8f 02       		.uleb128 0x2
 6006 1c90 470E0000 		.4byte	.LASF520
 6007 1c94 1F       		.byte	0x1f
 6008 1c95 39       		.byte	0x39
 6009 1c96 171C0000 		.4byte	0x1c17
 6010 1c9a 11       		.uleb128 0x11
 6011 1c9b 01       		.byte	0x1
 6012 1c9c 42000000 		.4byte	0x42
 6013 1ca0 1F       		.byte	0x1f
ARM GAS  C:\Users\haske\AppData\Local\Temp\cc11ZRIl.s 			page 139


 6014 1ca1 41       		.byte	0x41
 6015 1ca2 AD1C0000 		.4byte	0x1cad
 6016 1ca6 12       		.uleb128 0x12
 6017 1ca7 E4200000 		.4byte	.LASF521
 6018 1cab 00       		.byte	0
 6019 1cac 00       		.byte	0
 6020 1cad 22       		.uleb128 0x22
 6021 1cae 1C1C0000 		.4byte	.LASF522
 6022 1cb2 01       		.byte	0x1
 6023 1cb3 85       		.byte	0x85
 6024 1cb4 01010000 		.4byte	0x101
 6025 1cb8 03       		.byte	0x3
 6026 1cb9 C91C0000 		.4byte	0x1cc9
 6027 1cbd 23       		.uleb128 0x23
 6028 1cbe 6F060000 		.4byte	.LASF524
 6029 1cc2 01       		.byte	0x1
 6030 1cc3 85       		.byte	0x85
 6031 1cc4 69100000 		.4byte	0x1069
 6032 1cc8 00       		.byte	0
 6033 1cc9 22       		.uleb128 0x22
 6034 1cca 1D210000 		.4byte	.LASF523
 6035 1cce 01       		.byte	0x1
 6036 1ccf 7B       		.byte	0x7b
 6037 1cd0 01010000 		.4byte	0x101
 6038 1cd4 03       		.byte	0x3
 6039 1cd5 E51C0000 		.4byte	0x1ce5
 6040 1cd9 23       		.uleb128 0x23
 6041 1cda 6F060000 		.4byte	.LASF524
 6042 1cde 01       		.byte	0x1
 6043 1cdf 7B       		.byte	0x7b
 6044 1ce0 69100000 		.4byte	0x1069
 6045 1ce4 00       		.byte	0
 6046 1ce5 22       		.uleb128 0x22
 6047 1ce6 9F240000 		.4byte	.LASF525
 6048 1cea 03       		.byte	0x3
 6049 1ceb 3D       		.byte	0x3d
 6050 1cec 01010000 		.4byte	0x101
 6051 1cf0 03       		.byte	0x3
 6052 1cf1 151D0000 		.4byte	0x1d15
 6053 1cf5 24       		.uleb128 0x24
 6054 1cf6 6F626A00 		.ascii	"obj\000"
 6055 1cfa 03       		.byte	0x3
 6056 1cfb 3D       		.byte	0x3d
 6057 1cfc 151D0000 		.4byte	0x1d15
 6058 1d00 23       		.uleb128 0x23
 6059 1d01 8E230000 		.4byte	.LASF415
 6060 1d05 03       		.byte	0x3
 6061 1d06 3D       		.byte	0x3d
 6062 1d07 E4000000 		.4byte	0xe4
 6063 1d0b 25       		.uleb128 0x25
 6064 1d0c 7600     		.ascii	"v\000"
 6065 1d0e 03       		.byte	0x3
 6066 1d0f 3F       		.byte	0x3f
 6067 1d10 19070000 		.4byte	0x719
 6068 1d14 00       		.byte	0
 6069 1d15 0B       		.uleb128 0xb
 6070 1d16 04       		.byte	0x4
ARM GAS  C:\Users\haske\AppData\Local\Temp\cc11ZRIl.s 			page 140


 6071 1d17 1B1D0000 		.4byte	0x1d1b
 6072 1d1b 0C       		.uleb128 0xc
 6073 1d1c 1F0A0000 		.4byte	0xa1f
 6074 1d20 22       		.uleb128 0x22
 6075 1d21 C3040000 		.4byte	.LASF526
 6076 1d25 03       		.byte	0x3
 6077 1d26 37       		.byte	0x37
 6078 1d27 01010000 		.4byte	0x101
 6079 1d2b 03       		.byte	0x3
 6080 1d2c 501D0000 		.4byte	0x1d50
 6081 1d30 24       		.uleb128 0x24
 6082 1d31 6F626A00 		.ascii	"obj\000"
 6083 1d35 03       		.byte	0x3
 6084 1d36 37       		.byte	0x37
 6085 1d37 151D0000 		.4byte	0x1d15
 6086 1d3b 23       		.uleb128 0x23
 6087 1d3c 8E230000 		.4byte	.LASF415
 6088 1d40 03       		.byte	0x3
 6089 1d41 37       		.byte	0x37
 6090 1d42 E4000000 		.4byte	0xe4
 6091 1d46 25       		.uleb128 0x25
 6092 1d47 7600     		.ascii	"v\000"
 6093 1d49 03       		.byte	0x3
 6094 1d4a 39       		.byte	0x39
 6095 1d4b 19070000 		.4byte	0x719
 6096 1d4f 00       		.byte	0
 6097 1d50 26       		.uleb128 0x26
 6098 1d51 AE0A0000 		.4byte	.LASF534
 6099 1d55 01       		.byte	0x1
 6100 1d56 6E       		.byte	0x6e
 6101 1d57 03       		.byte	0x3
 6102 1d58 731D0000 		.4byte	0x1d73
 6103 1d5c 23       		.uleb128 0x23
 6104 1d5d 5D1D0000 		.4byte	.LASF527
 6105 1d61 01       		.byte	0x1
 6106 1d62 6E       		.byte	0x6e
 6107 1d63 74100000 		.4byte	0x1074
 6108 1d67 24       		.uleb128 0x24
 6109 1d68 73726300 		.ascii	"src\000"
 6110 1d6c 01       		.byte	0x1
 6111 1d6d 6E       		.byte	0x6e
 6112 1d6e 69100000 		.4byte	0x1069
 6113 1d72 00       		.byte	0
 6114 1d73 22       		.uleb128 0x22
 6115 1d74 97140000 		.4byte	.LASF528
 6116 1d78 03       		.byte	0x3
 6117 1d79 6D       		.byte	0x6d
 6118 1d7a 01010000 		.4byte	0x101
 6119 1d7e 03       		.byte	0x3
 6120 1d7f A31D0000 		.4byte	0x1da3
 6121 1d83 24       		.uleb128 0x24
 6122 1d84 6F626A00 		.ascii	"obj\000"
 6123 1d88 03       		.byte	0x3
 6124 1d89 6D       		.byte	0x6d
 6125 1d8a 151D0000 		.4byte	0x1d15
 6126 1d8e 23       		.uleb128 0x23
 6127 1d8f 8E230000 		.4byte	.LASF415
ARM GAS  C:\Users\haske\AppData\Local\Temp\cc11ZRIl.s 			page 141


 6128 1d93 03       		.byte	0x3
 6129 1d94 6D       		.byte	0x6d
 6130 1d95 E4000000 		.4byte	0xe4
 6131 1d99 25       		.uleb128 0x25
 6132 1d9a 7600     		.ascii	"v\000"
 6133 1d9c 03       		.byte	0x3
 6134 1d9d 6F       		.byte	0x6f
 6135 1d9e 19070000 		.4byte	0x719
 6136 1da2 00       		.byte	0
 6137 1da3 22       		.uleb128 0x22
 6138 1da4 C5060000 		.4byte	.LASF529
 6139 1da8 03       		.byte	0x3
 6140 1da9 67       		.byte	0x67
 6141 1daa 01010000 		.4byte	0x101
 6142 1dae 03       		.byte	0x3
 6143 1daf D31D0000 		.4byte	0x1dd3
 6144 1db3 24       		.uleb128 0x24
 6145 1db4 6F626A00 		.ascii	"obj\000"
 6146 1db8 03       		.byte	0x3
 6147 1db9 67       		.byte	0x67
 6148 1dba 151D0000 		.4byte	0x1d15
 6149 1dbe 23       		.uleb128 0x23
 6150 1dbf 8E230000 		.4byte	.LASF415
 6151 1dc3 03       		.byte	0x3
 6152 1dc4 67       		.byte	0x67
 6153 1dc5 E4000000 		.4byte	0xe4
 6154 1dc9 25       		.uleb128 0x25
 6155 1dca 7600     		.ascii	"v\000"
 6156 1dcc 03       		.byte	0x3
 6157 1dcd 69       		.byte	0x69
 6158 1dce 19070000 		.4byte	0x719
 6159 1dd2 00       		.byte	0
 6160 1dd3 22       		.uleb128 0x22
 6161 1dd4 EF150000 		.4byte	.LASF530
 6162 1dd8 03       		.byte	0x3
 6163 1dd9 79       		.byte	0x79
 6164 1dda 01010000 		.4byte	0x101
 6165 1dde 03       		.byte	0x3
 6166 1ddf 031E0000 		.4byte	0x1e03
 6167 1de3 24       		.uleb128 0x24
 6168 1de4 6F626A00 		.ascii	"obj\000"
 6169 1de8 03       		.byte	0x3
 6170 1de9 79       		.byte	0x79
 6171 1dea 151D0000 		.4byte	0x1d15
 6172 1dee 23       		.uleb128 0x23
 6173 1def 8E230000 		.4byte	.LASF415
 6174 1df3 03       		.byte	0x3
 6175 1df4 79       		.byte	0x79
 6176 1df5 E4000000 		.4byte	0xe4
 6177 1df9 25       		.uleb128 0x25
 6178 1dfa 7600     		.ascii	"v\000"
 6179 1dfc 03       		.byte	0x3
 6180 1dfd 7B       		.byte	0x7b
 6181 1dfe 19070000 		.4byte	0x719
 6182 1e02 00       		.byte	0
 6183 1e03 22       		.uleb128 0x22
 6184 1e04 9E0D0000 		.4byte	.LASF531
ARM GAS  C:\Users\haske\AppData\Local\Temp\cc11ZRIl.s 			page 142


 6185 1e08 03       		.byte	0x3
 6186 1e09 73       		.byte	0x73
 6187 1e0a 01010000 		.4byte	0x101
 6188 1e0e 03       		.byte	0x3
 6189 1e0f 331E0000 		.4byte	0x1e33
 6190 1e13 24       		.uleb128 0x24
 6191 1e14 6F626A00 		.ascii	"obj\000"
 6192 1e18 03       		.byte	0x3
 6193 1e19 73       		.byte	0x73
 6194 1e1a 151D0000 		.4byte	0x1d15
 6195 1e1e 23       		.uleb128 0x23
 6196 1e1f 8E230000 		.4byte	.LASF415
 6197 1e23 03       		.byte	0x3
 6198 1e24 73       		.byte	0x73
 6199 1e25 E4000000 		.4byte	0xe4
 6200 1e29 25       		.uleb128 0x25
 6201 1e2a 7600     		.ascii	"v\000"
 6202 1e2c 03       		.byte	0x3
 6203 1e2d 75       		.byte	0x75
 6204 1e2e 19070000 		.4byte	0x719
 6205 1e32 00       		.byte	0
 6206 1e33 27       		.uleb128 0x27
 6207 1e34 7F010000 		.4byte	.LASF532
 6208 1e38 03       		.byte	0x3
 6209 1e39 2F02     		.2byte	0x22f
 6210 1e3b 27060000 		.4byte	0x627
 6211 1e3f 03       		.byte	0x3
 6212 1e40 671E0000 		.4byte	0x1e67
 6213 1e44 28       		.uleb128 0x28
 6214 1e45 6F626A00 		.ascii	"obj\000"
 6215 1e49 03       		.byte	0x3
 6216 1e4a 2F02     		.2byte	0x22f
 6217 1e4c 151D0000 		.4byte	0x1d15
 6218 1e50 29       		.uleb128 0x29
 6219 1e51 8E230000 		.4byte	.LASF415
 6220 1e55 03       		.byte	0x3
 6221 1e56 2F02     		.2byte	0x22f
 6222 1e58 E4000000 		.4byte	0xe4
 6223 1e5c 2A       		.uleb128 0x2a
 6224 1e5d 7600     		.ascii	"v\000"
 6225 1e5f 03       		.byte	0x3
 6226 1e60 3102     		.2byte	0x231
 6227 1e62 19070000 		.4byte	0x719
 6228 1e66 00       		.byte	0
 6229 1e67 27       		.uleb128 0x27
 6230 1e68 E0050000 		.4byte	.LASF533
 6231 1e6c 03       		.byte	0x3
 6232 1e6d ED01     		.2byte	0x1ed
 6233 1e6f 01010000 		.4byte	0x101
 6234 1e73 03       		.byte	0x3
 6235 1e74 9B1E0000 		.4byte	0x1e9b
 6236 1e78 28       		.uleb128 0x28
 6237 1e79 6F626A00 		.ascii	"obj\000"
 6238 1e7d 03       		.byte	0x3
 6239 1e7e ED01     		.2byte	0x1ed
 6240 1e80 151D0000 		.4byte	0x1d15
 6241 1e84 29       		.uleb128 0x29
ARM GAS  C:\Users\haske\AppData\Local\Temp\cc11ZRIl.s 			page 143


 6242 1e85 8E230000 		.4byte	.LASF415
 6243 1e89 03       		.byte	0x3
 6244 1e8a ED01     		.2byte	0x1ed
 6245 1e8c E4000000 		.4byte	0xe4
 6246 1e90 2A       		.uleb128 0x2a
 6247 1e91 7600     		.ascii	"v\000"
 6248 1e93 03       		.byte	0x3
 6249 1e94 EF01     		.2byte	0x1ef
 6250 1e96 19070000 		.4byte	0x719
 6251 1e9a 00       		.byte	0
 6252 1e9b 26       		.uleb128 0x26
 6253 1e9c 34130000 		.4byte	.LASF535
 6254 1ea0 04       		.byte	0x4
 6255 1ea1 94       		.byte	0x94
 6256 1ea2 03       		.byte	0x3
 6257 1ea3 BC1E0000 		.4byte	0x1ebc
 6258 1ea7 24       		.uleb128 0x24
 6259 1ea8 6100     		.ascii	"a\000"
 6260 1eaa 04       		.byte	0x4
 6261 1eab 94       		.byte	0x94
 6262 1eac BC1E0000 		.4byte	0x1ebc
 6263 1eb0 23       		.uleb128 0x23
 6264 1eb1 4D070000 		.4byte	.LASF536
 6265 1eb5 04       		.byte	0x4
 6266 1eb6 94       		.byte	0x94
 6267 1eb7 E4000000 		.4byte	0xe4
 6268 1ebb 00       		.byte	0
 6269 1ebc 0B       		.uleb128 0xb
 6270 1ebd 04       		.byte	0x4
 6271 1ebe DB050000 		.4byte	0x5db
 6272 1ec2 27       		.uleb128 0x27
 6273 1ec3 58110000 		.4byte	.LASF537
 6274 1ec7 03       		.byte	0x3
 6275 1ec8 1102     		.2byte	0x211
 6276 1eca E4000000 		.4byte	0xe4
 6277 1ece 03       		.byte	0x3
 6278 1ecf F61E0000 		.4byte	0x1ef6
 6279 1ed3 28       		.uleb128 0x28
 6280 1ed4 6F626A00 		.ascii	"obj\000"
 6281 1ed8 03       		.byte	0x3
 6282 1ed9 1102     		.2byte	0x211
 6283 1edb 151D0000 		.4byte	0x1d15
 6284 1edf 29       		.uleb128 0x29
 6285 1ee0 8E230000 		.4byte	.LASF415
 6286 1ee4 03       		.byte	0x3
 6287 1ee5 1102     		.2byte	0x211
 6288 1ee7 E4000000 		.4byte	0xe4
 6289 1eeb 2A       		.uleb128 0x2a
 6290 1eec 7600     		.ascii	"v\000"
 6291 1eee 03       		.byte	0x3
 6292 1eef 1302     		.2byte	0x213
 6293 1ef1 19070000 		.4byte	0x719
 6294 1ef5 00       		.byte	0
 6295 1ef6 26       		.uleb128 0x26
 6296 1ef7 91000000 		.4byte	.LASF538
 6297 1efb 04       		.byte	0x4
 6298 1efc E3       		.byte	0xe3
ARM GAS  C:\Users\haske\AppData\Local\Temp\cc11ZRIl.s 			page 144


 6299 1efd 03       		.byte	0x3
 6300 1efe 171F0000 		.4byte	0x1f17
 6301 1f02 24       		.uleb128 0x24
 6302 1f03 6100     		.ascii	"a\000"
 6303 1f05 04       		.byte	0x4
 6304 1f06 E3       		.byte	0xe3
 6305 1f07 BC1E0000 		.4byte	0x1ebc
 6306 1f0b 23       		.uleb128 0x23
 6307 1f0c 040D0000 		.4byte	.LASF78
 6308 1f10 04       		.byte	0x4
 6309 1f11 E3       		.byte	0xe3
 6310 1f12 89050000 		.4byte	0x589
 6311 1f16 00       		.byte	0
 6312 1f17 26       		.uleb128 0x26
 6313 1f18 C11D0000 		.4byte	.LASF539
 6314 1f1c 04       		.byte	0x4
 6315 1f1d A9       		.byte	0xa9
 6316 1f1e 03       		.byte	0x3
 6317 1f1f 431F0000 		.4byte	0x1f43
 6318 1f23 24       		.uleb128 0x24
 6319 1f24 6100     		.ascii	"a\000"
 6320 1f26 04       		.byte	0x4
 6321 1f27 A9       		.byte	0xa9
 6322 1f28 BC1E0000 		.4byte	0x1ebc
 6323 1f2c 23       		.uleb128 0x23
 6324 1f2d 40000000 		.4byte	.LASF540
 6325 1f31 04       		.byte	0x4
 6326 1f32 A9       		.byte	0xa9
 6327 1f33 D9000000 		.4byte	0xd9
 6328 1f37 24       		.uleb128 0x24
 6329 1f38 656E6400 		.ascii	"end\000"
 6330 1f3c 04       		.byte	0x4
 6331 1f3d A9       		.byte	0xa9
 6332 1f3e D9000000 		.4byte	0xd9
 6333 1f42 00       		.byte	0
 6334 1f43 26       		.uleb128 0x26
 6335 1f44 BF210000 		.4byte	.LASF541
 6336 1f48 04       		.byte	0x4
 6337 1f49 8A       		.byte	0x8a
 6338 1f4a 03       		.byte	0x3
 6339 1f4b 641F0000 		.4byte	0x1f64
 6340 1f4f 24       		.uleb128 0x24
 6341 1f50 6100     		.ascii	"a\000"
 6342 1f52 04       		.byte	0x4
 6343 1f53 8A       		.byte	0x8a
 6344 1f54 BC1E0000 		.4byte	0x1ebc
 6345 1f58 23       		.uleb128 0x23
 6346 1f59 861C0000 		.4byte	.LASF76
 6347 1f5d 04       		.byte	0x4
 6348 1f5e 8A       		.byte	0x8a
 6349 1f5f 62050000 		.4byte	0x562
 6350 1f63 00       		.byte	0
 6351 1f64 26       		.uleb128 0x26
 6352 1f65 1C020000 		.4byte	.LASF542
 6353 1f69 04       		.byte	0x4
 6354 1f6a 7E       		.byte	0x7e
 6355 1f6b 03       		.byte	0x3
ARM GAS  C:\Users\haske\AppData\Local\Temp\cc11ZRIl.s 			page 145


 6356 1f6c 851F0000 		.4byte	0x1f85
 6357 1f70 24       		.uleb128 0x24
 6358 1f71 6100     		.ascii	"a\000"
 6359 1f73 04       		.byte	0x4
 6360 1f74 7E       		.byte	0x7e
 6361 1f75 BC1E0000 		.4byte	0x1ebc
 6362 1f79 24       		.uleb128 0x24
 6363 1f7a 76617200 		.ascii	"var\000"
 6364 1f7e 04       		.byte	0x4
 6365 1f7f 7E       		.byte	0x7e
 6366 1f80 E9020000 		.4byte	0x2e9
 6367 1f84 00       		.byte	0
 6368 1f85 2B       		.uleb128 0x2b
 6369 1f86 C91C0000 		.4byte	0x1cc9
 6370 1f8a 00000000 		.4byte	.LFB1
 6371 1f8e 10000000 		.4byte	.LFE1-.LFB1
 6372 1f92 01       		.uleb128 0x1
 6373 1f93 9C       		.byte	0x9c
 6374 1f94 A21F0000 		.4byte	0x1fa2
 6375 1f98 2C       		.uleb128 0x2c
 6376 1f99 D91C0000 		.4byte	0x1cd9
 6377 1f9d 00000000 		.4byte	.LLST0
 6378 1fa1 00       		.byte	0
 6379 1fa2 2B       		.uleb128 0x2b
 6380 1fa3 AD1C0000 		.4byte	0x1cad
 6381 1fa7 00000000 		.4byte	.LFB2
 6382 1fab 10000000 		.4byte	.LFE2-.LFB2
 6383 1faf 01       		.uleb128 0x1
 6384 1fb0 9C       		.byte	0x9c
 6385 1fb1 BF1F0000 		.4byte	0x1fbf
 6386 1fb5 2C       		.uleb128 0x2c
 6387 1fb6 BD1C0000 		.4byte	0x1cbd
 6388 1fba 21000000 		.4byte	.LLST1
 6389 1fbe 00       		.byte	0
 6390 1fbf 2D       		.uleb128 0x2d
 6391 1fc0 DC160000 		.4byte	.LASF544
 6392 1fc4 02       		.byte	0x2
 6393 1fc5 5D02     		.2byte	0x25d
 6394 1fc7 00000000 		.4byte	.LFB176
 6395 1fcb 0E000000 		.4byte	.LFE176-.LFB176
 6396 1fcf 01       		.uleb128 0x1
 6397 1fd0 9C       		.byte	0x9c
 6398 1fd1 F21F0000 		.4byte	0x1ff2
 6399 1fd5 2E       		.uleb128 0x2e
 6400 1fd6 6F626A00 		.ascii	"obj\000"
 6401 1fda 02       		.byte	0x2
 6402 1fdb 5D02     		.2byte	0x25d
 6403 1fdd 061C0000 		.4byte	0x1c06
 6404 1fe1 01       		.uleb128 0x1
 6405 1fe2 50       		.byte	0x50
 6406 1fe3 2F       		.uleb128 0x2f
 6407 1fe4 0E050000 		.4byte	.LASF543
 6408 1fe8 02       		.byte	0x2
 6409 1fe9 5D02     		.2byte	0x25d
 6410 1feb F21F0000 		.4byte	0x1ff2
 6411 1fef 01       		.uleb128 0x1
 6412 1ff0 51       		.byte	0x51
ARM GAS  C:\Users\haske\AppData\Local\Temp\cc11ZRIl.s 			page 146


 6413 1ff1 00       		.byte	0
 6414 1ff2 0B       		.uleb128 0xb
 6415 1ff3 04       		.byte	0x4
 6416 1ff4 0C1C0000 		.4byte	0x1c0c
 6417 1ff8 30       		.uleb128 0x30
 6418 1ff9 41060000 		.4byte	.LASF545
 6419 1ffd 02       		.byte	0x2
 6420 1ffe F3       		.byte	0xf3
 6421 1fff 00000000 		.4byte	.LFB171
 6422 2003 B2050000 		.4byte	.LFE171-.LFB171
 6423 2007 01       		.uleb128 0x1
 6424 2008 9C       		.byte	0x9c
 6425 2009 B4290000 		.4byte	0x29b4
 6426 200d 31       		.uleb128 0x31
 6427 200e 6500     		.ascii	"e\000"
 6428 2010 02       		.byte	0x2
 6429 2011 F3       		.byte	0xf3
 6430 2012 601A0000 		.4byte	0x1a60
 6431 2016 42000000 		.4byte	.LLST2
 6432 201a 32       		.uleb128 0x32
 6433 201b 6F626A00 		.ascii	"obj\000"
 6434 201f 02       		.byte	0x2
 6435 2020 F5       		.byte	0xf5
 6436 2021 061C0000 		.4byte	0x1c06
 6437 2025 6E000000 		.4byte	.LLST3
 6438 2029 32       		.uleb128 0x32
 6439 202a 62617200 		.ascii	"bar\000"
 6440 202e 02       		.byte	0x2
 6441 202f F6       		.byte	0xf6
 6442 2030 B4290000 		.4byte	0x29b4
 6443 2034 6E000000 		.4byte	.LLST3
 6444 2038 33       		.uleb128 0x33
 6445 2039 1F220000 		.4byte	.LASF406
 6446 203d 02       		.byte	0x2
 6447 203e F8       		.byte	0xf8
 6448 203f 62140000 		.4byte	0x1462
 6449 2043 8C000000 		.4byte	.LLST5
 6450 2047 34       		.uleb128 0x34
 6451 2048 F91C0000 		.4byte	.LASF546
 6452 204c 02       		.byte	0x2
 6453 204d FA       		.byte	0xfa
 6454 204e 69010000 		.4byte	0x169
 6455 2052 02       		.uleb128 0x2
 6456 2053 91       		.byte	0x91
 6457 2054 50       		.sleb128 -48
 6458 2055 35       		.uleb128 0x35
 6459 2056 8C050000 		.4byte	.LASF547
 6460 205a 02       		.byte	0x2
 6461 205b FD       		.byte	0xfd
 6462 205c 01010000 		.4byte	0x101
 6463 2060 35       		.uleb128 0x35
 6464 2061 48050000 		.4byte	.LASF548
 6465 2065 02       		.byte	0x2
 6466 2066 FE       		.byte	0xfe
 6467 2067 01010000 		.4byte	0x101
 6468 206b 36       		.uleb128 0x36
 6469 206c EF220000 		.4byte	.LASF549
ARM GAS  C:\Users\haske\AppData\Local\Temp\cc11ZRIl.s 			page 147


 6470 2070 02       		.byte	0x2
 6471 2071 0301     		.2byte	0x103
 6472 2073 01010000 		.4byte	0x101
 6473 2077 36       		.uleb128 0x36
 6474 2078 DC220000 		.4byte	.LASF550
 6475 207c 02       		.byte	0x2
 6476 207d 0401     		.2byte	0x104
 6477 207f 01010000 		.4byte	0x101
 6478 2083 37       		.uleb128 0x37
 6479 2084 A6000000 		.4byte	.LASF551
 6480 2088 02       		.byte	0x2
 6481 2089 0501     		.2byte	0x105
 6482 208b D9000000 		.4byte	0xd9
 6483 208f AC000000 		.4byte	.LLST6
 6484 2093 38       		.uleb128 0x38
 6485 2094 686F7200 		.ascii	"hor\000"
 6486 2098 02       		.byte	0x2
 6487 2099 0601     		.2byte	0x106
 6488 209b AA020000 		.4byte	0x2aa
 6489 209f CC000000 		.4byte	.LLST7
 6490 20a3 38       		.uleb128 0x38
 6491 20a4 73796D00 		.ascii	"sym\000"
 6492 20a8 02       		.byte	0x2
 6493 20a9 0701     		.2byte	0x107
 6494 20ab AA020000 		.4byte	0x2aa
 6495 20af 10010000 		.4byte	.LLST8
 6496 20b3 36       		.uleb128 0x36
 6497 20b4 F3240000 		.4byte	.LASF552
 6498 20b8 02       		.byte	0x2
 6499 20b9 0C01     		.2byte	0x10c
 6500 20bb 01010000 		.4byte	0x101
 6501 20bf 36       		.uleb128 0x36
 6502 20c0 4F110000 		.4byte	.LASF553
 6503 20c4 02       		.byte	0x2
 6504 20c5 0D01     		.2byte	0x10d
 6505 20c7 01010000 		.4byte	0x101
 6506 20cb 36       		.uleb128 0x36
 6507 20cc 17050000 		.4byte	.LASF554
 6508 20d0 02       		.byte	0x2
 6509 20d1 0E01     		.2byte	0x10e
 6510 20d3 01010000 		.4byte	0x101
 6511 20d7 36       		.uleb128 0x36
 6512 20d8 341D0000 		.4byte	.LASF555
 6513 20dc 02       		.byte	0x2
 6514 20dd 0F01     		.2byte	0x10f
 6515 20df 01010000 		.4byte	0x101
 6516 20e3 36       		.uleb128 0x36
 6517 20e4 87230000 		.4byte	.LASF556
 6518 20e8 02       		.byte	0x2
 6519 20e9 2001     		.2byte	0x120
 6520 20eb 01010000 		.4byte	0x101
 6521 20ef 36       		.uleb128 0x36
 6522 20f0 5C230000 		.4byte	.LASF557
 6523 20f4 02       		.byte	0x2
 6524 20f5 2101     		.2byte	0x121
 6525 20f7 01010000 		.4byte	0x101
 6526 20fb 37       		.uleb128 0x37
ARM GAS  C:\Users\haske\AppData\Local\Temp\cc11ZRIl.s 			page 148


 6527 20fc 8C210000 		.4byte	.LASF558
 6528 2100 02       		.byte	0x2
 6529 2101 2401     		.2byte	0x124
 6530 2103 01010000 		.4byte	0x101
 6531 2107 31010000 		.4byte	.LLST9
 6532 210b 37       		.uleb128 0x37
 6533 210c 84020000 		.4byte	.LASF559
 6534 2110 02       		.byte	0x2
 6535 2111 2601     		.2byte	0x126
 6536 2113 01010000 		.4byte	0x101
 6537 2117 46010000 		.4byte	.LLST10
 6538 211b 37       		.uleb128 0x37
 6539 211c D50B0000 		.4byte	.LASF560
 6540 2120 02       		.byte	0x2
 6541 2121 2601     		.2byte	0x126
 6542 2123 01010000 		.4byte	0x101
 6543 2127 7A010000 		.4byte	.LLST11
 6544 212b 37       		.uleb128 0x37
 6545 212c F4030000 		.4byte	.LASF561
 6546 2130 02       		.byte	0x2
 6547 2131 2801     		.2byte	0x128
 6548 2133 BA290000 		.4byte	0x29ba
 6549 2137 A3010000 		.4byte	.LLST12
 6550 213b 37       		.uleb128 0x37
 6551 213c FA030000 		.4byte	.LASF562
 6552 2140 02       		.byte	0x2
 6553 2141 2801     		.2byte	0x128
 6554 2143 BA290000 		.4byte	0x29ba
 6555 2147 D7010000 		.4byte	.LLST13
 6556 214b 37       		.uleb128 0x37
 6557 214c D41D0000 		.4byte	.LASF563
 6558 2150 02       		.byte	0x2
 6559 2151 2901     		.2byte	0x129
 6560 2153 CF290000 		.4byte	0x29cf
 6561 2157 2C020000 		.4byte	.LLST14
 6562 215b 36       		.uleb128 0x36
 6563 215c D01E0000 		.4byte	.LASF564
 6564 2160 02       		.byte	0x2
 6565 2161 5301     		.2byte	0x153
 6566 2163 27060000 		.4byte	0x627
 6567 2167 36       		.uleb128 0x36
 6568 2168 AA010000 		.4byte	.LASF516
 6569 216c 02       		.byte	0x2
 6570 216d 9301     		.2byte	0x193
 6571 216f 69010000 		.4byte	0x169
 6572 2173 39       		.uleb128 0x39
 6573 2174 460F0000 		.4byte	.LASF565
 6574 2178 02       		.byte	0x2
 6575 2179 9601     		.2byte	0x196
 6576 217b 330C0000 		.4byte	0xc33
 6577 217f 03       		.uleb128 0x3
 6578 2180 91       		.byte	0x91
 6579 2181 987F     		.sleb128 -104
 6580 2183 39       		.uleb128 0x39
 6581 2184 EC180000 		.4byte	.LASF566
 6582 2188 02       		.byte	0x2
 6583 2189 9A01     		.2byte	0x19a
ARM GAS  C:\Users\haske\AppData\Local\Temp\cc11ZRIl.s 			page 149


 6584 218b 59180000 		.4byte	0x1859
 6585 218f 03       		.uleb128 0x3
 6586 2190 91       		.byte	0x91
 6587 2191 D07E     		.sleb128 -176
 6588 2193 37       		.uleb128 0x37
 6589 2194 55140000 		.4byte	.LASF567
 6590 2198 02       		.byte	0x2
 6591 2199 A401     		.2byte	0x1a4
 6592 219b 01010000 		.4byte	0x101
 6593 219f 61020000 		.4byte	.LLST15
 6594 21a3 37       		.uleb128 0x37
 6595 21a4 B9000000 		.4byte	.LASF568
 6596 21a8 02       		.byte	0x2
 6597 21a9 A501     		.2byte	0x1a5
 6598 21ab 01010000 		.4byte	0x101
 6599 21af 74020000 		.4byte	.LLST16
 6600 21b3 37       		.uleb128 0x37
 6601 21b4 48030000 		.4byte	.LASF569
 6602 21b8 02       		.byte	0x2
 6603 21b9 A801     		.2byte	0x1a8
 6604 21bb 01010000 		.4byte	0x101
 6605 21bf 92020000 		.4byte	.LLST17
 6606 21c3 39       		.uleb128 0x39
 6607 21c4 500E0000 		.4byte	.LASF570
 6608 21c8 02       		.byte	0x2
 6609 21c9 C001     		.2byte	0x1c0
 6610 21cb FB0F0000 		.4byte	0xffb
 6611 21cf 03       		.uleb128 0x3
 6612 21d0 91       		.byte	0x91
 6613 21d1 B87E     		.sleb128 -200
 6614 21d3 39       		.uleb128 0x39
 6615 21d4 77200000 		.4byte	.LASF571
 6616 21d8 02       		.byte	0x2
 6617 21d9 C101     		.2byte	0x1c1
 6618 21db 69010000 		.4byte	0x169
 6619 21df 03       		.uleb128 0x3
 6620 21e0 91       		.byte	0x91
 6621 21e1 B07E     		.sleb128 -208
 6622 21e3 37       		.uleb128 0x37
 6623 21e4 75140000 		.4byte	.LASF572
 6624 21e8 02       		.byte	0x2
 6625 21e9 C801     		.2byte	0x1c8
 6626 21eb 01010000 		.4byte	0x101
 6627 21ef B0020000 		.4byte	.LLST18
 6628 21f3 37       		.uleb128 0x37
 6629 21f4 F81F0000 		.4byte	.LASF262
 6630 21f8 02       		.byte	0x2
 6631 21f9 CC01     		.2byte	0x1cc
 6632 21fb F3030000 		.4byte	0x3f3
 6633 21ff C5020000 		.4byte	.LLST19
 6634 2203 37       		.uleb128 0x37
 6635 2204 81210000 		.4byte	.LASF250
 6636 2208 02       		.byte	0x2
 6637 2209 CD01     		.2byte	0x1cd
 6638 220b F3030000 		.4byte	0x3f3
 6639 220f D9020000 		.4byte	.LLST20
 6640 2213 39       		.uleb128 0x39
ARM GAS  C:\Users\haske\AppData\Local\Temp\cc11ZRIl.s 			page 150


 6641 2214 09210000 		.4byte	.LASF573
 6642 2218 02       		.byte	0x2
 6643 2219 D201     		.2byte	0x1d2
 6644 221b 69010000 		.4byte	0x169
 6645 221f 03       		.uleb128 0x3
 6646 2220 91       		.byte	0x91
 6647 2221 A87E     		.sleb128 -216
 6648 2223 39       		.uleb128 0x39
 6649 2224 301F0000 		.4byte	.LASF574
 6650 2228 02       		.byte	0x2
 6651 2229 E301     		.2byte	0x1e3
 6652 222b FB0F0000 		.4byte	0xffb
 6653 222f 03       		.uleb128 0x3
 6654 2230 91       		.byte	0x91
 6655 2231 907E     		.sleb128 -240
 6656 2233 37       		.uleb128 0x37
 6657 2234 27160000 		.4byte	.LASF575
 6658 2238 02       		.byte	0x2
 6659 2239 E501     		.2byte	0x1e5
 6660 223b C3000000 		.4byte	0xc3
 6661 223f EC020000 		.4byte	.LLST21
 6662 2243 3A       		.uleb128 0x3a
 6663 2244 201D0000 		.4byte	0x1d20
 6664 2248 28000000 		.4byte	.LBB73
 6665 224c 0C000000 		.4byte	.LBE73-.LBB73
 6666 2250 02       		.byte	0x2
 6667 2251 FD       		.byte	0xfd
 6668 2252 93220000 		.4byte	0x2293
 6669 2256 2C       		.uleb128 0x2c
 6670 2257 3B1D0000 		.4byte	0x1d3b
 6671 225b FF020000 		.4byte	.LLST22
 6672 225f 2C       		.uleb128 0x2c
 6673 2260 301D0000 		.4byte	0x1d30
 6674 2264 13030000 		.4byte	.LLST23
 6675 2268 3B       		.uleb128 0x3b
 6676 2269 28000000 		.4byte	.LBB74
 6677 226d 0C000000 		.4byte	.LBE74-.LBB74
 6678 2271 3C       		.uleb128 0x3c
 6679 2272 461D0000 		.4byte	0x1d46
 6680 2276 3D       		.uleb128 0x3d
 6681 2277 32000000 		.4byte	.LVL14
 6682 227b 17340000 		.4byte	0x3417
 6683 227f 3E       		.uleb128 0x3e
 6684 2280 01       		.uleb128 0x1
 6685 2281 50       		.byte	0x50
 6686 2282 02       		.uleb128 0x2
 6687 2283 74       		.byte	0x74
 6688 2284 00       		.sleb128 0
 6689 2285 3E       		.uleb128 0x3e
 6690 2286 01       		.uleb128 0x1
 6691 2287 51       		.byte	0x51
 6692 2288 01       		.uleb128 0x1
 6693 2289 30       		.byte	0x30
 6694 228a 3E       		.uleb128 0x3e
 6695 228b 01       		.uleb128 0x1
 6696 228c 52       		.byte	0x52
 6697 228d 02       		.uleb128 0x2
ARM GAS  C:\Users\haske\AppData\Local\Temp\cc11ZRIl.s 			page 151


 6698 228e 08       		.byte	0x8
 6699 228f 68       		.byte	0x68
 6700 2290 00       		.byte	0
 6701 2291 00       		.byte	0
 6702 2292 00       		.byte	0
 6703 2293 3A       		.uleb128 0x3a
 6704 2294 E51C0000 		.4byte	0x1ce5
 6705 2298 34000000 		.4byte	.LBB75
 6706 229c 0A000000 		.4byte	.LBE75-.LBB75
 6707 22a0 02       		.byte	0x2
 6708 22a1 FE       		.byte	0xfe
 6709 22a2 E3220000 		.4byte	0x22e3
 6710 22a6 2C       		.uleb128 0x2c
 6711 22a7 001D0000 		.4byte	0x1d00
 6712 22ab 26030000 		.4byte	.LLST24
 6713 22af 2C       		.uleb128 0x2c
 6714 22b0 F51C0000 		.4byte	0x1cf5
 6715 22b4 3A030000 		.4byte	.LLST25
 6716 22b8 3B       		.uleb128 0x3b
 6717 22b9 34000000 		.4byte	.LBB76
 6718 22bd 0A000000 		.4byte	.LBE76-.LBB76
 6719 22c1 3C       		.uleb128 0x3c
 6720 22c2 0B1D0000 		.4byte	0x1d0b
 6721 22c6 3D       		.uleb128 0x3d
 6722 22c7 3E000000 		.4byte	.LVL16
 6723 22cb 17340000 		.4byte	0x3417
 6724 22cf 3E       		.uleb128 0x3e
 6725 22d0 01       		.uleb128 0x1
 6726 22d1 50       		.byte	0x50
 6727 22d2 02       		.uleb128 0x2
 6728 22d3 74       		.byte	0x74
 6729 22d4 00       		.sleb128 0
 6730 22d5 3E       		.uleb128 0x3e
 6731 22d6 01       		.uleb128 0x1
 6732 22d7 51       		.byte	0x51
 6733 22d8 01       		.uleb128 0x1
 6734 22d9 30       		.byte	0x30
 6735 22da 3E       		.uleb128 0x3e
 6736 22db 01       		.uleb128 0x1
 6737 22dc 52       		.byte	0x52
 6738 22dd 02       		.uleb128 0x2
 6739 22de 08       		.byte	0x8
 6740 22df 69       		.byte	0x69
 6741 22e0 00       		.byte	0
 6742 22e1 00       		.byte	0
 6743 22e2 00       		.byte	0
 6744 22e3 3F       		.uleb128 0x3f
 6745 22e4 C91C0000 		.4byte	0x1cc9
 6746 22e8 62000000 		.4byte	.LBB77
 6747 22ec 08000000 		.4byte	.LBE77-.LBB77
 6748 22f0 02       		.byte	0x2
 6749 22f1 0301     		.2byte	0x103
 6750 22f3 01230000 		.4byte	0x2301
 6751 22f7 2C       		.uleb128 0x2c
 6752 22f8 D91C0000 		.4byte	0x1cd9
 6753 22fc 4D030000 		.4byte	.LLST26
 6754 2300 00       		.byte	0
ARM GAS  C:\Users\haske\AppData\Local\Temp\cc11ZRIl.s 			page 152


 6755 2301 3F       		.uleb128 0x3f
 6756 2302 AD1C0000 		.4byte	0x1cad
 6757 2306 6A000000 		.4byte	.LBB79
 6758 230a 08000000 		.4byte	.LBE79-.LBB79
 6759 230e 02       		.byte	0x2
 6760 230f 0401     		.2byte	0x104
 6761 2311 1F230000 		.4byte	0x231f
 6762 2315 2C       		.uleb128 0x2c
 6763 2316 BD1C0000 		.4byte	0x1cbd
 6764 231a 60030000 		.4byte	.LLST27
 6765 231e 00       		.byte	0
 6766 231f 3F       		.uleb128 0x3f
 6767 2320 031E0000 		.4byte	0x1e03
 6768 2324 B0000000 		.4byte	.LBB81
 6769 2328 0C000000 		.4byte	.LBE81-.LBB81
 6770 232c 02       		.byte	0x2
 6771 232d 0C01     		.2byte	0x10c
 6772 232f 6F230000 		.4byte	0x236f
 6773 2333 2C       		.uleb128 0x2c
 6774 2334 1E1E0000 		.4byte	0x1e1e
 6775 2338 73030000 		.4byte	.LLST28
 6776 233c 2C       		.uleb128 0x2c
 6777 233d 131E0000 		.4byte	0x1e13
 6778 2341 87030000 		.4byte	.LLST29
 6779 2345 3B       		.uleb128 0x3b
 6780 2346 B0000000 		.4byte	.LBB82
 6781 234a 0C000000 		.4byte	.LBE82-.LBB82
 6782 234e 3C       		.uleb128 0x3c
 6783 234f 291E0000 		.4byte	0x1e29
 6784 2353 3D       		.uleb128 0x3d
 6785 2354 BA000000 		.4byte	.LVL24
 6786 2358 17340000 		.4byte	0x3417
 6787 235c 3E       		.uleb128 0x3e
 6788 235d 01       		.uleb128 0x1
 6789 235e 50       		.byte	0x50
 6790 235f 02       		.uleb128 0x2
 6791 2360 74       		.byte	0x74
 6792 2361 00       		.sleb128 0
 6793 2362 3E       		.uleb128 0x3e
 6794 2363 01       		.uleb128 0x1
 6795 2364 51       		.byte	0x51
 6796 2365 01       		.uleb128 0x1
 6797 2366 30       		.byte	0x30
 6798 2367 3E       		.uleb128 0x3e
 6799 2368 01       		.uleb128 0x1
 6800 2369 52       		.byte	0x52
 6801 236a 01       		.uleb128 0x1
 6802 236b 42       		.byte	0x42
 6803 236c 00       		.byte	0
 6804 236d 00       		.byte	0
 6805 236e 00       		.byte	0
 6806 236f 3F       		.uleb128 0x3f
 6807 2370 D31D0000 		.4byte	0x1dd3
 6808 2374 BC000000 		.4byte	.LBB83
 6809 2378 0C000000 		.4byte	.LBE83-.LBB83
 6810 237c 02       		.byte	0x2
 6811 237d 0D01     		.2byte	0x10d
ARM GAS  C:\Users\haske\AppData\Local\Temp\cc11ZRIl.s 			page 153


 6812 237f BF230000 		.4byte	0x23bf
 6813 2383 2C       		.uleb128 0x2c
 6814 2384 EE1D0000 		.4byte	0x1dee
 6815 2388 9A030000 		.4byte	.LLST30
 6816 238c 2C       		.uleb128 0x2c
 6817 238d E31D0000 		.4byte	0x1de3
 6818 2391 AE030000 		.4byte	.LLST31
 6819 2395 3B       		.uleb128 0x3b
 6820 2396 BC000000 		.4byte	.LBB84
 6821 239a 0C000000 		.4byte	.LBE84-.LBB84
 6822 239e 3C       		.uleb128 0x3c
 6823 239f F91D0000 		.4byte	0x1df9
 6824 23a3 3D       		.uleb128 0x3d
 6825 23a4 C6000000 		.4byte	.LVL26
 6826 23a8 17340000 		.4byte	0x3417
 6827 23ac 3E       		.uleb128 0x3e
 6828 23ad 01       		.uleb128 0x1
 6829 23ae 50       		.byte	0x50
 6830 23af 02       		.uleb128 0x2
 6831 23b0 74       		.byte	0x74
 6832 23b1 00       		.sleb128 0
 6833 23b2 3E       		.uleb128 0x3e
 6834 23b3 01       		.uleb128 0x1
 6835 23b4 51       		.byte	0x51
 6836 23b5 01       		.uleb128 0x1
 6837 23b6 30       		.byte	0x30
 6838 23b7 3E       		.uleb128 0x3e
 6839 23b8 01       		.uleb128 0x1
 6840 23b9 52       		.byte	0x52
 6841 23ba 01       		.uleb128 0x1
 6842 23bb 43       		.byte	0x43
 6843 23bc 00       		.byte	0
 6844 23bd 00       		.byte	0
 6845 23be 00       		.byte	0
 6846 23bf 3F       		.uleb128 0x3f
 6847 23c0 A31D0000 		.4byte	0x1da3
 6848 23c4 C8000000 		.4byte	.LBB85
 6849 23c8 0C000000 		.4byte	.LBE85-.LBB85
 6850 23cc 02       		.byte	0x2
 6851 23cd 0E01     		.2byte	0x10e
 6852 23cf 0F240000 		.4byte	0x240f
 6853 23d3 2C       		.uleb128 0x2c
 6854 23d4 BE1D0000 		.4byte	0x1dbe
 6855 23d8 C1030000 		.4byte	.LLST32
 6856 23dc 2C       		.uleb128 0x2c
 6857 23dd B31D0000 		.4byte	0x1db3
 6858 23e1 D5030000 		.4byte	.LLST33
 6859 23e5 3B       		.uleb128 0x3b
 6860 23e6 C8000000 		.4byte	.LBB86
 6861 23ea 0C000000 		.4byte	.LBE86-.LBB86
 6862 23ee 3C       		.uleb128 0x3c
 6863 23ef C91D0000 		.4byte	0x1dc9
 6864 23f3 3D       		.uleb128 0x3d
 6865 23f4 D2000000 		.4byte	.LVL28
 6866 23f8 17340000 		.4byte	0x3417
 6867 23fc 3E       		.uleb128 0x3e
 6868 23fd 01       		.uleb128 0x1
ARM GAS  C:\Users\haske\AppData\Local\Temp\cc11ZRIl.s 			page 154


 6869 23fe 50       		.byte	0x50
 6870 23ff 02       		.uleb128 0x2
 6871 2400 74       		.byte	0x74
 6872 2401 00       		.sleb128 0
 6873 2402 3E       		.uleb128 0x3e
 6874 2403 01       		.uleb128 0x1
 6875 2404 51       		.byte	0x51
 6876 2405 01       		.uleb128 0x1
 6877 2406 30       		.byte	0x30
 6878 2407 3E       		.uleb128 0x3e
 6879 2408 01       		.uleb128 0x1
 6880 2409 52       		.byte	0x52
 6881 240a 01       		.uleb128 0x1
 6882 240b 40       		.byte	0x40
 6883 240c 00       		.byte	0
 6884 240d 00       		.byte	0
 6885 240e 00       		.byte	0
 6886 240f 3F       		.uleb128 0x3f
 6887 2410 731D0000 		.4byte	0x1d73
 6888 2414 D4000000 		.4byte	.LBB87
 6889 2418 0A000000 		.4byte	.LBE87-.LBB87
 6890 241c 02       		.byte	0x2
 6891 241d 0F01     		.2byte	0x10f
 6892 241f 5F240000 		.4byte	0x245f
 6893 2423 2C       		.uleb128 0x2c
 6894 2424 8E1D0000 		.4byte	0x1d8e
 6895 2428 E8030000 		.4byte	.LLST34
 6896 242c 2C       		.uleb128 0x2c
 6897 242d 831D0000 		.4byte	0x1d83
 6898 2431 FC030000 		.4byte	.LLST35
 6899 2435 3B       		.uleb128 0x3b
 6900 2436 D4000000 		.4byte	.LBB88
 6901 243a 0A000000 		.4byte	.LBE88-.LBB88
 6902 243e 3C       		.uleb128 0x3c
 6903 243f 991D0000 		.4byte	0x1d99
 6904 2443 3D       		.uleb128 0x3d
 6905 2444 DE000000 		.4byte	.LVL30
 6906 2448 17340000 		.4byte	0x3417
 6907 244c 3E       		.uleb128 0x3e
 6908 244d 01       		.uleb128 0x1
 6909 244e 50       		.byte	0x50
 6910 244f 02       		.uleb128 0x2
 6911 2450 74       		.byte	0x74
 6912 2451 00       		.sleb128 0
 6913 2452 3E       		.uleb128 0x3e
 6914 2453 01       		.uleb128 0x1
 6915 2454 51       		.byte	0x51
 6916 2455 01       		.uleb128 0x1
 6917 2456 30       		.byte	0x30
 6918 2457 3E       		.uleb128 0x3e
 6919 2458 01       		.uleb128 0x1
 6920 2459 52       		.byte	0x52
 6921 245a 01       		.uleb128 0x1
 6922 245b 41       		.byte	0x41
 6923 245c 00       		.byte	0
 6924 245d 00       		.byte	0
 6925 245e 00       		.byte	0
ARM GAS  C:\Users\haske\AppData\Local\Temp\cc11ZRIl.s 			page 155


 6926 245f 3F       		.uleb128 0x3f
 6927 2460 501D0000 		.4byte	0x1d50
 6928 2464 DE000000 		.4byte	.LBB89
 6929 2468 18000000 		.4byte	.LBE89-.LBB89
 6930 246c 02       		.byte	0x2
 6931 246d 1101     		.2byte	0x111
 6932 246f 86240000 		.4byte	0x2486
 6933 2473 2C       		.uleb128 0x2c
 6934 2474 671D0000 		.4byte	0x1d67
 6935 2478 0F040000 		.4byte	.LLST36
 6936 247c 2C       		.uleb128 0x2c
 6937 247d 5C1D0000 		.4byte	0x1d5c
 6938 2481 2D040000 		.4byte	.LLST37
 6939 2485 00       		.byte	0
 6940 2486 3F       		.uleb128 0x3f
 6941 2487 AD1C0000 		.4byte	0x1cad
 6942 248b 28010000 		.4byte	.LBB91
 6943 248f 06000000 		.4byte	.LBE91-.LBB91
 6944 2493 02       		.byte	0x2
 6945 2494 1701     		.2byte	0x117
 6946 2496 A4240000 		.4byte	0x24a4
 6947 249a 2C       		.uleb128 0x2c
 6948 249b BD1C0000 		.4byte	0x1cbd
 6949 249f 42040000 		.4byte	.LLST38
 6950 24a3 00       		.byte	0
 6951 24a4 3F       		.uleb128 0x3f
 6952 24a5 C91C0000 		.4byte	0x1cc9
 6953 24a9 50010000 		.4byte	.LBB93
 6954 24ad 06000000 		.4byte	.LBE93-.LBB93
 6955 24b1 02       		.byte	0x2
 6956 24b2 1B01     		.2byte	0x11b
 6957 24b4 C2240000 		.4byte	0x24c2
 6958 24b8 2C       		.uleb128 0x2c
 6959 24b9 D91C0000 		.4byte	0x1cd9
 6960 24bd 57040000 		.4byte	.LLST39
 6961 24c1 00       		.byte	0
 6962 24c2 3F       		.uleb128 0x3f
 6963 24c3 C91C0000 		.4byte	0x1cc9
 6964 24c7 72010000 		.4byte	.LBB95
 6965 24cb 12000000 		.4byte	.LBE95-.LBB95
 6966 24cf 02       		.byte	0x2
 6967 24d0 2001     		.2byte	0x120
 6968 24d2 E0240000 		.4byte	0x24e0
 6969 24d6 2C       		.uleb128 0x2c
 6970 24d7 D91C0000 		.4byte	0x1cd9
 6971 24db 6C040000 		.4byte	.LLST40
 6972 24df 00       		.byte	0
 6973 24e0 3F       		.uleb128 0x3f
 6974 24e1 AD1C0000 		.4byte	0x1cad
 6975 24e5 84010000 		.4byte	.LBB97
 6976 24e9 10000000 		.4byte	.LBE97-.LBB97
 6977 24ed 02       		.byte	0x2
 6978 24ee 2101     		.2byte	0x121
 6979 24f0 FE240000 		.4byte	0x24fe
 6980 24f4 2C       		.uleb128 0x2c
 6981 24f5 BD1C0000 		.4byte	0x1cbd
 6982 24f9 81040000 		.4byte	.LLST41
ARM GAS  C:\Users\haske\AppData\Local\Temp\cc11ZRIl.s 			page 156


 6983 24fd 00       		.byte	0
 6984 24fe 40       		.uleb128 0x40
 6985 24ff C8010000 		.4byte	.LBB99
 6986 2503 46000000 		.4byte	.LBE99-.LBB99
 6987 2507 2C250000 		.4byte	0x252c
 6988 250b 37       		.uleb128 0x37
 6989 250c E0210000 		.4byte	.LASF576
 6990 2510 02       		.byte	0x2
 6991 2511 3701     		.2byte	0x137
 6992 2513 01010000 		.4byte	0x101
 6993 2517 96040000 		.4byte	.LLST42
 6994 251b 37       		.uleb128 0x37
 6995 251c 8B1E0000 		.4byte	.LASF577
 6996 2520 02       		.byte	0x2
 6997 2521 3901     		.2byte	0x139
 6998 2523 01010000 		.4byte	0x101
 6999 2527 A9040000 		.4byte	.LLST43
 7000 252b 00       		.byte	0
 7001 252c 40       		.uleb128 0x40
 7002 252d 2A020000 		.4byte	.LBB100
 7003 2531 40000000 		.4byte	.LBE100-.LBB100
 7004 2535 5A250000 		.4byte	0x255a
 7005 2539 37       		.uleb128 0x37
 7006 253a 55030000 		.4byte	.LASF578
 7007 253e 02       		.byte	0x2
 7008 253f 4601     		.2byte	0x146
 7009 2541 01010000 		.4byte	0x101
 7010 2545 BC040000 		.4byte	.LLST44
 7011 2549 37       		.uleb128 0x37
 7012 254a E31F0000 		.4byte	.LASF579
 7013 254e 02       		.byte	0x2
 7014 254f 4801     		.2byte	0x148
 7015 2551 01010000 		.4byte	0x101
 7016 2555 D1040000 		.4byte	.LLST45
 7017 2559 00       		.byte	0
 7018 255a 3F       		.uleb128 0x3f
 7019 255b 331E0000 		.4byte	0x1e33
 7020 255f 7E020000 		.4byte	.LBB101
 7021 2563 0C000000 		.4byte	.LBE101-.LBB101
 7022 2567 02       		.byte	0x2
 7023 2568 5301     		.2byte	0x153
 7024 256a AA250000 		.4byte	0x25aa
 7025 256e 2C       		.uleb128 0x2c
 7026 256f 501E0000 		.4byte	0x1e50
 7027 2573 E4040000 		.4byte	.LLST46
 7028 2577 2C       		.uleb128 0x2c
 7029 2578 441E0000 		.4byte	0x1e44
 7030 257c F8040000 		.4byte	.LLST47
 7031 2580 3B       		.uleb128 0x3b
 7032 2581 7E020000 		.4byte	.LBB102
 7033 2585 0C000000 		.4byte	.LBE102-.LBB102
 7034 2589 3C       		.uleb128 0x3c
 7035 258a 5C1E0000 		.4byte	0x1e5c
 7036 258e 3D       		.uleb128 0x3d
 7037 258f 88020000 		.4byte	.LVL68
 7038 2593 17340000 		.4byte	0x3417
 7039 2597 3E       		.uleb128 0x3e
ARM GAS  C:\Users\haske\AppData\Local\Temp\cc11ZRIl.s 			page 157


 7040 2598 01       		.uleb128 0x1
 7041 2599 50       		.byte	0x50
 7042 259a 02       		.uleb128 0x2
 7043 259b 74       		.byte	0x74
 7044 259c 00       		.sleb128 0
 7045 259d 3E       		.uleb128 0x3e
 7046 259e 01       		.uleb128 0x1
 7047 259f 51       		.byte	0x51
 7048 25a0 01       		.uleb128 0x1
 7049 25a1 30       		.byte	0x30
 7050 25a2 3E       		.uleb128 0x3e
 7051 25a3 01       		.uleb128 0x1
 7052 25a4 52       		.byte	0x52
 7053 25a5 01       		.uleb128 0x1
 7054 25a6 46       		.byte	0x46
 7055 25a7 00       		.byte	0
 7056 25a8 00       		.byte	0
 7057 25a9 00       		.byte	0
 7058 25aa 40       		.uleb128 0x40
 7059 25ab 92020000 		.4byte	.LBB103
 7060 25af 12000000 		.4byte	.LBE103-.LBB103
 7061 25b3 C8250000 		.4byte	0x25c8
 7062 25b7 38       		.uleb128 0x38
 7063 25b8 746D7000 		.ascii	"tmp\000"
 7064 25bc 02       		.byte	0x2
 7065 25bd 5601     		.2byte	0x156
 7066 25bf BA290000 		.4byte	0x29ba
 7067 25c3 0B050000 		.4byte	.LLST48
 7068 25c7 00       		.byte	0
 7069 25c8 40       		.uleb128 0x40
 7070 25c9 D8020000 		.4byte	.LBB104
 7071 25cd 64000000 		.4byte	.LBE104-.LBB104
 7072 25d1 F6250000 		.4byte	0x25f6
 7073 25d5 37       		.uleb128 0x37
 7074 25d6 0E180000 		.4byte	.LASF580
 7075 25da 02       		.byte	0x2
 7076 25db 6801     		.2byte	0x168
 7077 25dd 01010000 		.4byte	0x101
 7078 25e1 29050000 		.4byte	.LLST49
 7079 25e5 37       		.uleb128 0x37
 7080 25e6 8E110000 		.4byte	.LASF581
 7081 25ea 02       		.byte	0x2
 7082 25eb 6801     		.2byte	0x168
 7083 25ed 01010000 		.4byte	0x101
 7084 25f1 52050000 		.4byte	.LLST50
 7085 25f5 00       		.byte	0
 7086 25f6 40       		.uleb128 0x40
 7087 25f7 50030000 		.4byte	.LBB105
 7088 25fb 2E000000 		.4byte	.LBE105-.LBB105
 7089 25ff 6D260000 		.4byte	0x266d
 7090 2603 39       		.uleb128 0x39
 7091 2604 EC180000 		.4byte	.LASF566
 7092 2608 02       		.byte	0x2
 7093 2609 8701     		.2byte	0x187
 7094 260b 59180000 		.4byte	0x1859
 7095 260f 03       		.uleb128 0x3
 7096 2610 91       		.byte	0x91
ARM GAS  C:\Users\haske\AppData\Local\Temp\cc11ZRIl.s 			page 158


 7097 2611 C87D     		.sleb128 -312
 7098 2613 41       		.uleb128 0x41
 7099 2614 58030000 		.4byte	.LVL90
 7100 2618 22340000 		.4byte	0x3422
 7101 261c 30260000 		.4byte	0x2630
 7102 2620 3E       		.uleb128 0x3e
 7103 2621 01       		.uleb128 0x1
 7104 2622 50       		.byte	0x50
 7105 2623 03       		.uleb128 0x3
 7106 2624 91       		.byte	0x91
 7107 2625 C87D     		.sleb128 -312
 7108 2627 3E       		.uleb128 0x3e
 7109 2628 01       		.uleb128 0x1
 7110 2629 51       		.byte	0x51
 7111 262a 04       		.uleb128 0x4
 7112 262b 91       		.byte	0x91
 7113 262c 9C7D     		.sleb128 -356
 7114 262e 06       		.byte	0x6
 7115 262f 00       		.byte	0
 7116 2630 41       		.uleb128 0x41
 7117 2631 72030000 		.4byte	.LVL91
 7118 2635 2D340000 		.4byte	0x342d
 7119 2639 50260000 		.4byte	0x2650
 7120 263d 3E       		.uleb128 0x3e
 7121 263e 01       		.uleb128 0x1
 7122 263f 50       		.byte	0x50
 7123 2640 02       		.uleb128 0x2
 7124 2641 74       		.byte	0x74
 7125 2642 00       		.sleb128 0
 7126 2643 3E       		.uleb128 0x3e
 7127 2644 01       		.uleb128 0x1
 7128 2645 51       		.byte	0x51
 7129 2646 01       		.uleb128 0x1
 7130 2647 4A       		.byte	0x4a
 7131 2648 3E       		.uleb128 0x3e
 7132 2649 01       		.uleb128 0x1
 7133 264a 52       		.byte	0x52
 7134 264b 03       		.uleb128 0x3
 7135 264c 91       		.byte	0x91
 7136 264d C87D     		.sleb128 -312
 7137 264f 00       		.byte	0
 7138 2650 3D       		.uleb128 0x3d
 7139 2651 7C030000 		.4byte	.LVL92
 7140 2655 2D340000 		.4byte	0x342d
 7141 2659 3E       		.uleb128 0x3e
 7142 265a 01       		.uleb128 0x1
 7143 265b 50       		.byte	0x50
 7144 265c 02       		.uleb128 0x2
 7145 265d 74       		.byte	0x74
 7146 265e 00       		.sleb128 0
 7147 265f 3E       		.uleb128 0x3e
 7148 2660 01       		.uleb128 0x1
 7149 2661 51       		.byte	0x51
 7150 2662 01       		.uleb128 0x1
 7151 2663 4B       		.byte	0x4b
 7152 2664 3E       		.uleb128 0x3e
 7153 2665 01       		.uleb128 0x1
ARM GAS  C:\Users\haske\AppData\Local\Temp\cc11ZRIl.s 			page 159


 7154 2666 52       		.byte	0x52
 7155 2667 03       		.uleb128 0x3
 7156 2668 91       		.byte	0x91
 7157 2669 C87D     		.sleb128 -312
 7158 266b 00       		.byte	0
 7159 266c 00       		.byte	0
 7160 266d 3F       		.uleb128 0x3f
 7161 266e 671E0000 		.4byte	0x1e67
 7162 2672 BE030000 		.4byte	.LBB106
 7163 2676 0C000000 		.4byte	.LBE106-.LBB106
 7164 267a 02       		.byte	0x2
 7165 267b A401     		.2byte	0x1a4
 7166 267d BD260000 		.4byte	0x26bd
 7167 2681 2C       		.uleb128 0x2c
 7168 2682 841E0000 		.4byte	0x1e84
 7169 2686 70050000 		.4byte	.LLST51
 7170 268a 2C       		.uleb128 0x2c
 7171 268b 781E0000 		.4byte	0x1e78
 7172 268f 84050000 		.4byte	.LLST52
 7173 2693 3B       		.uleb128 0x3b
 7174 2694 BE030000 		.4byte	.LBB107
 7175 2698 0C000000 		.4byte	.LBE107-.LBB107
 7176 269c 3C       		.uleb128 0x3c
 7177 269d 901E0000 		.4byte	0x1e90
 7178 26a1 3D       		.uleb128 0x3d
 7179 26a2 C8030000 		.4byte	.LVL99
 7180 26a6 17340000 		.4byte	0x3417
 7181 26aa 3E       		.uleb128 0x3e
 7182 26ab 01       		.uleb128 0x1
 7183 26ac 50       		.byte	0x50
 7184 26ad 02       		.uleb128 0x2
 7185 26ae 74       		.byte	0x74
 7186 26af 00       		.sleb128 0
 7187 26b0 3E       		.uleb128 0x3e
 7188 26b1 01       		.uleb128 0x1
 7189 26b2 51       		.byte	0x51
 7190 26b3 01       		.uleb128 0x1
 7191 26b4 30       		.byte	0x30
 7192 26b5 3E       		.uleb128 0x3e
 7193 26b6 01       		.uleb128 0x1
 7194 26b7 52       		.byte	0x52
 7195 26b8 01       		.uleb128 0x1
 7196 26b9 3B       		.byte	0x3b
 7197 26ba 00       		.byte	0
 7198 26bb 00       		.byte	0
 7199 26bc 00       		.byte	0
 7200 26bd 3F       		.uleb128 0x3f
 7201 26be C91C0000 		.4byte	0x1cc9
 7202 26c2 FE030000 		.4byte	.LBB108
 7203 26c6 0E000000 		.4byte	.LBE108-.LBB108
 7204 26ca 02       		.byte	0x2
 7205 26cb AF01     		.2byte	0x1af
 7206 26cd DB260000 		.4byte	0x26db
 7207 26d1 2C       		.uleb128 0x2c
 7208 26d2 D91C0000 		.4byte	0x1cd9
 7209 26d6 97050000 		.4byte	.LLST53
 7210 26da 00       		.byte	0
ARM GAS  C:\Users\haske\AppData\Local\Temp\cc11ZRIl.s 			page 160


 7211 26db 3F       		.uleb128 0x3f
 7212 26dc AD1C0000 		.4byte	0x1cad
 7213 26e0 16040000 		.4byte	.LBB110
 7214 26e4 0E000000 		.4byte	.LBE110-.LBB110
 7215 26e8 02       		.byte	0x2
 7216 26e9 B001     		.2byte	0x1b0
 7217 26eb F9260000 		.4byte	0x26f9
 7218 26ef 2C       		.uleb128 0x2c
 7219 26f0 BD1C0000 		.4byte	0x1cbd
 7220 26f4 AC050000 		.4byte	.LLST54
 7221 26f8 00       		.byte	0
 7222 26f9 40       		.uleb128 0x40
 7223 26fa 2A040000 		.4byte	.LBB112
 7224 26fe 30000000 		.4byte	.LBE112-.LBB112
 7225 2702 57270000 		.4byte	0x2757
 7226 2706 37       		.uleb128 0x37
 7227 2707 95050000 		.4byte	.LASF239
 7228 270b 02       		.byte	0x2
 7229 270c B101     		.2byte	0x1b1
 7230 270e F3030000 		.4byte	0x3f3
 7231 2712 C1050000 		.4byte	.LLST55
 7232 2716 37       		.uleb128 0x37
 7233 2717 E4070000 		.4byte	.LASF245
 7234 271b 02       		.byte	0x2
 7235 271c B201     		.2byte	0x1b2
 7236 271e F3030000 		.4byte	0x3f3
 7237 2722 D4050000 		.4byte	.LLST56
 7238 2726 37       		.uleb128 0x37
 7239 2727 81210000 		.4byte	.LASF250
 7240 272b 02       		.byte	0x2
 7241 272c B301     		.2byte	0x1b3
 7242 272e F3030000 		.4byte	0x3f3
 7243 2732 E9050000 		.4byte	.LLST57
 7244 2736 3D       		.uleb128 0x3d
 7245 2737 4C040000 		.4byte	.LVL118
 7246 273b 38340000 		.4byte	0x3438
 7247 273f 3E       		.uleb128 0x3e
 7248 2740 01       		.uleb128 0x1
 7249 2741 50       		.byte	0x50
 7250 2742 04       		.uleb128 0x4
 7251 2743 91       		.byte	0x91
 7252 2744 9C7D     		.sleb128 -356
 7253 2746 06       		.byte	0x6
 7254 2747 3E       		.uleb128 0x3e
 7255 2748 01       		.uleb128 0x1
 7256 2749 51       		.byte	0x51
 7257 274a 02       		.uleb128 0x2
 7258 274b 76       		.byte	0x76
 7259 274c 00       		.sleb128 0
 7260 274d 3E       		.uleb128 0x3e
 7261 274e 01       		.uleb128 0x1
 7262 274f 52       		.byte	0x52
 7263 2750 04       		.uleb128 0x4
 7264 2751 91       		.byte	0x91
 7265 2752 947D     		.sleb128 -364
 7266 2754 06       		.byte	0x6
 7267 2755 00       		.byte	0
ARM GAS  C:\Users\haske\AppData\Local\Temp\cc11ZRIl.s 			page 161


 7268 2756 00       		.byte	0
 7269 2757 3F       		.uleb128 0x3f
 7270 2758 501D0000 		.4byte	0x1d50
 7271 275c AC040000 		.4byte	.LBB113
 7272 2760 14000000 		.4byte	.LBE113-.LBB113
 7273 2764 02       		.byte	0x2
 7274 2765 D301     		.2byte	0x1d3
 7275 2767 7E270000 		.4byte	0x277e
 7276 276b 2C       		.uleb128 0x2c
 7277 276c 671D0000 		.4byte	0x1d67
 7278 2770 FC050000 		.4byte	.LLST58
 7279 2774 2C       		.uleb128 0x2c
 7280 2775 5C1D0000 		.4byte	0x1d5c
 7281 2779 1C060000 		.4byte	.LLST59
 7282 277d 00       		.byte	0
 7283 277e 3F       		.uleb128 0x3f
 7284 277f AD1C0000 		.4byte	0x1cad
 7285 2783 E8040000 		.4byte	.LBB115
 7286 2787 06000000 		.4byte	.LBE115-.LBB115
 7287 278b 02       		.byte	0x2
 7288 278c D801     		.2byte	0x1d8
 7289 278e 9C270000 		.4byte	0x279c
 7290 2792 2C       		.uleb128 0x2c
 7291 2793 BD1C0000 		.4byte	0x1cbd
 7292 2797 3D060000 		.4byte	.LLST60
 7293 279b 00       		.byte	0
 7294 279c 3F       		.uleb128 0x3f
 7295 279d C91C0000 		.4byte	0x1cc9
 7296 27a1 20050000 		.4byte	.LBB117
 7297 27a5 06000000 		.4byte	.LBE117-.LBB117
 7298 27a9 02       		.byte	0x2
 7299 27aa DC01     		.2byte	0x1dc
 7300 27ac BA270000 		.4byte	0x27ba
 7301 27b0 2C       		.uleb128 0x2c
 7302 27b1 D91C0000 		.4byte	0x1cd9
 7303 27b5 50060000 		.4byte	.LLST61
 7304 27b9 00       		.byte	0
 7305 27ba 41       		.uleb128 0x41
 7306 27bb 14000000 		.4byte	.LVL6
 7307 27bf 43340000 		.4byte	0x3443
 7308 27c3 CE270000 		.4byte	0x27ce
 7309 27c7 3E       		.uleb128 0x3e
 7310 27c8 01       		.uleb128 0x1
 7311 27c9 50       		.byte	0x50
 7312 27ca 02       		.uleb128 0x2
 7313 27cb 75       		.byte	0x75
 7314 27cc 00       		.sleb128 0
 7315 27cd 00       		.byte	0
 7316 27ce 41       		.uleb128 0x41
 7317 27cf 1C000000 		.4byte	.LVL9
 7318 27d3 4E340000 		.4byte	0x344e
 7319 27d7 E2270000 		.4byte	0x27e2
 7320 27db 3E       		.uleb128 0x3e
 7321 27dc 01       		.uleb128 0x1
 7322 27dd 50       		.byte	0x50
 7323 27de 02       		.uleb128 0x2
 7324 27df 75       		.byte	0x75
ARM GAS  C:\Users\haske\AppData\Local\Temp\cc11ZRIl.s 			page 162


 7325 27e0 00       		.sleb128 0
 7326 27e1 00       		.byte	0
 7327 27e2 41       		.uleb128 0x41
 7328 27e3 28000000 		.4byte	.LVL13
 7329 27e7 5A340000 		.4byte	0x345a
 7330 27eb FC270000 		.4byte	0x27fc
 7331 27ef 3E       		.uleb128 0x3e
 7332 27f0 01       		.uleb128 0x1
 7333 27f1 50       		.byte	0x50
 7334 27f2 02       		.uleb128 0x2
 7335 27f3 74       		.byte	0x74
 7336 27f4 00       		.sleb128 0
 7337 27f5 3E       		.uleb128 0x3e
 7338 27f6 01       		.uleb128 0x1
 7339 27f7 51       		.byte	0x51
 7340 27f8 02       		.uleb128 0x2
 7341 27f9 75       		.byte	0x75
 7342 27fa 00       		.sleb128 0
 7343 27fb 00       		.byte	0
 7344 27fc 42       		.uleb128 0x42
 7345 27fd 4C030000 		.4byte	.LVL89
 7346 2801 04       		.uleb128 0x4
 7347 2802 91       		.byte	0x91
 7348 2803 C07D     		.sleb128 -320
 7349 2805 06       		.byte	0x6
 7350 2806 11280000 		.4byte	0x2811
 7351 280a 3E       		.uleb128 0x3e
 7352 280b 01       		.uleb128 0x1
 7353 280c 50       		.byte	0x50
 7354 280d 02       		.uleb128 0x2
 7355 280e 75       		.byte	0x75
 7356 280f 00       		.sleb128 0
 7357 2810 00       		.byte	0
 7358 2811 41       		.uleb128 0x41
 7359 2812 86030000 		.4byte	.LVL93
 7360 2816 65340000 		.4byte	0x3465
 7361 281a 25280000 		.4byte	0x2825
 7362 281e 3E       		.uleb128 0x3e
 7363 281f 01       		.uleb128 0x1
 7364 2820 50       		.byte	0x50
 7365 2821 02       		.uleb128 0x2
 7366 2822 75       		.byte	0x75
 7367 2823 00       		.sleb128 0
 7368 2824 00       		.byte	0
 7369 2825 41       		.uleb128 0x41
 7370 2826 94030000 		.4byte	.LVL95
 7371 282a 70340000 		.4byte	0x3470
 7372 282e 45280000 		.4byte	0x2845
 7373 2832 3E       		.uleb128 0x3e
 7374 2833 01       		.uleb128 0x1
 7375 2834 50       		.byte	0x50
 7376 2835 02       		.uleb128 0x2
 7377 2836 74       		.byte	0x74
 7378 2837 00       		.sleb128 0
 7379 2838 3E       		.uleb128 0x3e
 7380 2839 01       		.uleb128 0x1
 7381 283a 51       		.byte	0x51
ARM GAS  C:\Users\haske\AppData\Local\Temp\cc11ZRIl.s 			page 163


 7382 283b 02       		.uleb128 0x2
 7383 283c 76       		.byte	0x76
 7384 283d 00       		.sleb128 0
 7385 283e 3E       		.uleb128 0x3e
 7386 283f 01       		.uleb128 0x1
 7387 2840 52       		.byte	0x52
 7388 2841 02       		.uleb128 0x2
 7389 2842 75       		.byte	0x75
 7390 2843 00       		.sleb128 0
 7391 2844 00       		.byte	0
 7392 2845 41       		.uleb128 0x41
 7393 2846 9C030000 		.4byte	.LVL96
 7394 284a 22340000 		.4byte	0x3422
 7395 284e 62280000 		.4byte	0x2862
 7396 2852 3E       		.uleb128 0x3e
 7397 2853 01       		.uleb128 0x1
 7398 2854 50       		.byte	0x50
 7399 2855 03       		.uleb128 0x3
 7400 2856 91       		.byte	0x91
 7401 2857 D07E     		.sleb128 -176
 7402 2859 3E       		.uleb128 0x3e
 7403 285a 01       		.uleb128 0x1
 7404 285b 51       		.byte	0x51
 7405 285c 04       		.uleb128 0x4
 7406 285d 91       		.byte	0x91
 7407 285e 9C7D     		.sleb128 -356
 7408 2860 06       		.byte	0x6
 7409 2861 00       		.byte	0
 7410 2862 41       		.uleb128 0x41
 7411 2863 BE030000 		.4byte	.LVL98
 7412 2867 2D340000 		.4byte	0x342d
 7413 286b 82280000 		.4byte	0x2882
 7414 286f 3E       		.uleb128 0x3e
 7415 2870 01       		.uleb128 0x1
 7416 2871 50       		.byte	0x50
 7417 2872 02       		.uleb128 0x2
 7418 2873 74       		.byte	0x74
 7419 2874 00       		.sleb128 0
 7420 2875 3E       		.uleb128 0x3e
 7421 2876 01       		.uleb128 0x1
 7422 2877 51       		.byte	0x51
 7423 2878 01       		.uleb128 0x1
 7424 2879 4A       		.byte	0x4a
 7425 287a 3E       		.uleb128 0x3e
 7426 287b 01       		.uleb128 0x1
 7427 287c 52       		.byte	0x52
 7428 287d 03       		.uleb128 0x3
 7429 287e 91       		.byte	0x91
 7430 287f D07E     		.sleb128 -176
 7431 2881 00       		.byte	0
 7432 2882 41       		.uleb128 0x41
 7433 2883 92040000 		.4byte	.LVL120
 7434 2887 7B340000 		.4byte	0x347b
 7435 288b A9280000 		.4byte	0x28a9
 7436 288f 3E       		.uleb128 0x3e
 7437 2890 01       		.uleb128 0x1
 7438 2891 50       		.byte	0x50
ARM GAS  C:\Users\haske\AppData\Local\Temp\cc11ZRIl.s 			page 164


 7439 2892 03       		.uleb128 0x3
 7440 2893 91       		.byte	0x91
 7441 2894 B87E     		.sleb128 -200
 7442 2896 3E       		.uleb128 0x3e
 7443 2897 01       		.uleb128 0x1
 7444 2898 51       		.byte	0x51
 7445 2899 03       		.uleb128 0x3
 7446 289a 91       		.byte	0x91
 7447 289b B07E     		.sleb128 -208
 7448 289d 3E       		.uleb128 0x3e
 7449 289e 01       		.uleb128 0x1
 7450 289f 52       		.byte	0x52
 7451 28a0 02       		.uleb128 0x2
 7452 28a1 75       		.byte	0x75
 7453 28a2 00       		.sleb128 0
 7454 28a3 3E       		.uleb128 0x3e
 7455 28a4 01       		.uleb128 0x1
 7456 28a5 53       		.byte	0x53
 7457 28a6 01       		.uleb128 0x1
 7458 28a7 30       		.byte	0x30
 7459 28a8 00       		.byte	0
 7460 28a9 41       		.uleb128 0x41
 7461 28aa 9C040000 		.4byte	.LVL121
 7462 28ae 87340000 		.4byte	0x3487
 7463 28b2 C3280000 		.4byte	0x28c3
 7464 28b6 3E       		.uleb128 0x3e
 7465 28b7 01       		.uleb128 0x1
 7466 28b8 50       		.byte	0x50
 7467 28b9 03       		.uleb128 0x3
 7468 28ba 91       		.byte	0x91
 7469 28bb B87E     		.sleb128 -200
 7470 28bd 3E       		.uleb128 0x3e
 7471 28be 01       		.uleb128 0x1
 7472 28bf 51       		.byte	0x51
 7473 28c0 01       		.uleb128 0x1
 7474 28c1 30       		.byte	0x30
 7475 28c2 00       		.byte	0
 7476 28c3 41       		.uleb128 0x41
 7477 28c4 56050000 		.4byte	.LVL135
 7478 28c8 7B340000 		.4byte	0x347b
 7479 28cc E3280000 		.4byte	0x28e3
 7480 28d0 3E       		.uleb128 0x3e
 7481 28d1 01       		.uleb128 0x1
 7482 28d2 50       		.byte	0x50
 7483 28d3 03       		.uleb128 0x3
 7484 28d4 91       		.byte	0x91
 7485 28d5 907E     		.sleb128 -240
 7486 28d7 3E       		.uleb128 0x3e
 7487 28d8 01       		.uleb128 0x1
 7488 28d9 51       		.byte	0x51
 7489 28da 02       		.uleb128 0x2
 7490 28db 78       		.byte	0x78
 7491 28dc 00       		.sleb128 0
 7492 28dd 3E       		.uleb128 0x3e
 7493 28de 01       		.uleb128 0x1
 7494 28df 53       		.byte	0x53
 7495 28e0 01       		.uleb128 0x1
ARM GAS  C:\Users\haske\AppData\Local\Temp\cc11ZRIl.s 			page 165


 7496 28e1 30       		.byte	0x30
 7497 28e2 00       		.byte	0
 7498 28e3 41       		.uleb128 0x41
 7499 28e4 5E050000 		.4byte	.LVL136
 7500 28e8 87340000 		.4byte	0x3487
 7501 28ec FD280000 		.4byte	0x28fd
 7502 28f0 3E       		.uleb128 0x3e
 7503 28f1 01       		.uleb128 0x1
 7504 28f2 50       		.byte	0x50
 7505 28f3 03       		.uleb128 0x3
 7506 28f4 91       		.byte	0x91
 7507 28f5 907E     		.sleb128 -240
 7508 28f7 3E       		.uleb128 0x3e
 7509 28f8 01       		.uleb128 0x1
 7510 28f9 51       		.byte	0x51
 7511 28fa 01       		.uleb128 0x1
 7512 28fb 30       		.byte	0x30
 7513 28fc 00       		.byte	0
 7514 28fd 41       		.uleb128 0x41
 7515 28fe 6A050000 		.4byte	.LVL138
 7516 2902 38340000 		.4byte	0x3438
 7517 2906 20290000 		.4byte	0x2920
 7518 290a 3E       		.uleb128 0x3e
 7519 290b 01       		.uleb128 0x1
 7520 290c 50       		.byte	0x50
 7521 290d 04       		.uleb128 0x4
 7522 290e 91       		.byte	0x91
 7523 290f 9C7D     		.sleb128 -356
 7524 2911 06       		.byte	0x6
 7525 2912 3E       		.uleb128 0x3e
 7526 2913 01       		.uleb128 0x1
 7527 2914 51       		.byte	0x51
 7528 2915 02       		.uleb128 0x2
 7529 2916 75       		.byte	0x75
 7530 2917 00       		.sleb128 0
 7531 2918 3E       		.uleb128 0x3e
 7532 2919 01       		.uleb128 0x1
 7533 291a 52       		.byte	0x52
 7534 291b 03       		.uleb128 0x3
 7535 291c 91       		.byte	0x91
 7536 291d A87E     		.sleb128 -216
 7537 291f 00       		.byte	0
 7538 2920 41       		.uleb128 0x41
 7539 2921 82050000 		.4byte	.LVL139
 7540 2925 38340000 		.4byte	0x3438
 7541 2929 42290000 		.4byte	0x2942
 7542 292d 3E       		.uleb128 0x3e
 7543 292e 01       		.uleb128 0x1
 7544 292f 50       		.byte	0x50
 7545 2930 04       		.uleb128 0x4
 7546 2931 91       		.byte	0x91
 7547 2932 9C7D     		.sleb128 -356
 7548 2934 06       		.byte	0x6
 7549 2935 3E       		.uleb128 0x3e
 7550 2936 01       		.uleb128 0x1
 7551 2937 51       		.byte	0x51
 7552 2938 02       		.uleb128 0x2
ARM GAS  C:\Users\haske\AppData\Local\Temp\cc11ZRIl.s 			page 166


 7553 2939 75       		.byte	0x75
 7554 293a 00       		.sleb128 0
 7555 293b 3E       		.uleb128 0x3e
 7556 293c 01       		.uleb128 0x1
 7557 293d 52       		.byte	0x52
 7558 293e 02       		.uleb128 0x2
 7559 293f 78       		.byte	0x78
 7560 2940 00       		.sleb128 0
 7561 2941 00       		.byte	0
 7562 2942 41       		.uleb128 0x41
 7563 2943 88050000 		.4byte	.LVL140
 7564 2947 92340000 		.4byte	0x3492
 7565 294b 57290000 		.4byte	0x2957
 7566 294f 3E       		.uleb128 0x3e
 7567 2950 01       		.uleb128 0x1
 7568 2951 50       		.byte	0x50
 7569 2952 03       		.uleb128 0x3
 7570 2953 91       		.byte	0x91
 7571 2954 907E     		.sleb128 -240
 7572 2956 00       		.byte	0
 7573 2957 41       		.uleb128 0x41
 7574 2958 8E050000 		.4byte	.LVL141
 7575 295c 92340000 		.4byte	0x3492
 7576 2960 6C290000 		.4byte	0x296c
 7577 2964 3E       		.uleb128 0x3e
 7578 2965 01       		.uleb128 0x1
 7579 2966 50       		.byte	0x50
 7580 2967 03       		.uleb128 0x3
 7581 2968 91       		.byte	0x91
 7582 2969 B87E     		.sleb128 -200
 7583 296b 00       		.byte	0
 7584 296c 41       		.uleb128 0x41
 7585 296d 94050000 		.4byte	.LVL142
 7586 2971 9E340000 		.4byte	0x349e
 7587 2975 80290000 		.4byte	0x2980
 7588 2979 3E       		.uleb128 0x3e
 7589 297a 01       		.uleb128 0x1
 7590 297b 50       		.byte	0x50
 7591 297c 02       		.uleb128 0x2
 7592 297d 77       		.byte	0x77
 7593 297e 00       		.sleb128 0
 7594 297f 00       		.byte	0
 7595 2980 41       		.uleb128 0x41
 7596 2981 9A050000 		.4byte	.LVL143
 7597 2985 9E340000 		.4byte	0x349e
 7598 2989 97290000 		.4byte	0x2997
 7599 298d 3E       		.uleb128 0x3e
 7600 298e 01       		.uleb128 0x1
 7601 298f 50       		.byte	0x50
 7602 2990 05       		.uleb128 0x5
 7603 2991 91       		.byte	0x91
 7604 2992 987D     		.sleb128 -360
 7605 2994 94       		.byte	0x94
 7606 2995 02       		.byte	0x2
 7607 2996 00       		.byte	0
 7608 2997 3D       		.uleb128 0x3d
 7609 2998 A4050000 		.4byte	.LVL144
ARM GAS  C:\Users\haske\AppData\Local\Temp\cc11ZRIl.s 			page 167


 7610 299c 2D340000 		.4byte	0x342d
 7611 29a0 3E       		.uleb128 0x3e
 7612 29a1 01       		.uleb128 0x1
 7613 29a2 50       		.byte	0x50
 7614 29a3 02       		.uleb128 0x2
 7615 29a4 74       		.byte	0x74
 7616 29a5 00       		.sleb128 0
 7617 29a6 3E       		.uleb128 0x3e
 7618 29a7 01       		.uleb128 0x1
 7619 29a8 51       		.byte	0x51
 7620 29a9 01       		.uleb128 0x1
 7621 29aa 4B       		.byte	0x4b
 7622 29ab 3E       		.uleb128 0x3e
 7623 29ac 01       		.uleb128 0x1
 7624 29ad 52       		.byte	0x52
 7625 29ae 03       		.uleb128 0x3
 7626 29af 91       		.byte	0x91
 7627 29b0 D07E     		.sleb128 -176
 7628 29b2 00       		.byte	0
 7629 29b3 00       		.byte	0
 7630 29b4 0B       		.uleb128 0xb
 7631 29b5 04       		.byte	0x4
 7632 29b6 8F1C0000 		.4byte	0x1c8f
 7633 29ba 0B       		.uleb128 0xb
 7634 29bb 04       		.byte	0x4
 7635 29bc 01010000 		.4byte	0x101
 7636 29c0 0D       		.uleb128 0xd
 7637 29c1 01010000 		.4byte	0x101
 7638 29c5 CF290000 		.4byte	0x29cf
 7639 29c9 0E       		.uleb128 0xe
 7640 29ca 69100000 		.4byte	0x1069
 7641 29ce 00       		.byte	0
 7642 29cf 0B       		.uleb128 0xb
 7643 29d0 04       		.byte	0x4
 7644 29d1 C0290000 		.4byte	0x29c0
 7645 29d5 2D       		.uleb128 0x2d
 7646 29d6 AC000000 		.4byte	.LASF582
 7647 29da 02       		.byte	0x2
 7648 29db FC01     		.2byte	0x1fc
 7649 29dd 00000000 		.4byte	.LFB172
 7650 29e1 D4000000 		.4byte	.LFE172-.LFB172
 7651 29e5 01       		.uleb128 0x1
 7652 29e6 9C       		.byte	0x9c
 7653 29e7 9A2C0000 		.4byte	0x2c9a
 7654 29eb 43       		.uleb128 0x43
 7655 29ec 7D160000 		.4byte	.LASF224
 7656 29f0 02       		.byte	0x2
 7657 29f1 FC01     		.2byte	0x1fc
 7658 29f3 811B0000 		.4byte	0x1b81
 7659 29f7 63060000 		.4byte	.LLST62
 7660 29fb 44       		.uleb128 0x44
 7661 29fc 6500     		.ascii	"e\000"
 7662 29fe 02       		.byte	0x2
 7663 29ff FC01     		.2byte	0x1fc
 7664 2a01 601A0000 		.4byte	0x1a60
 7665 2a05 84060000 		.4byte	.LLST63
 7666 2a09 38       		.uleb128 0x38
ARM GAS  C:\Users\haske\AppData\Local\Temp\cc11ZRIl.s 			page 168


 7667 2a0a 72657300 		.ascii	"res\000"
 7668 2a0e 02       		.byte	0x2
 7669 2a0f 0002     		.2byte	0x200
 7670 2a11 0F030000 		.4byte	0x30f
 7671 2a15 C9060000 		.4byte	.LLST64
 7672 2a19 37       		.uleb128 0x37
 7673 2a1a EF190000 		.4byte	.LASF431
 7674 2a1e 02       		.byte	0x2
 7675 2a1f 0602     		.2byte	0x206
 7676 2a21 4A1A0000 		.4byte	0x1a4a
 7677 2a25 DC060000 		.4byte	.LLST65
 7678 2a29 38       		.uleb128 0x38
 7679 2a2a 6F626A00 		.ascii	"obj\000"
 7680 2a2e 02       		.byte	0x2
 7681 2a2f 0702     		.2byte	0x207
 7682 2a31 061C0000 		.4byte	0x1c06
 7683 2a35 05070000 		.4byte	.LLST66
 7684 2a39 40       		.uleb128 0x40
 7685 2a3a 26000000 		.4byte	.LBB119
 7686 2a3e 84000000 		.4byte	.LBE119-.LBB119
 7687 2a42 102C0000 		.4byte	0x2c10
 7688 2a46 37       		.uleb128 0x37
 7689 2a47 81000000 		.4byte	.LASF583
 7690 2a4b 02       		.byte	0x2
 7691 2a4c 0A02     		.2byte	0x20a
 7692 2a4e 01010000 		.4byte	0x101
 7693 2a52 4F070000 		.4byte	.LLST67
 7694 2a56 38       		.uleb128 0x38
 7695 2a57 7300     		.ascii	"s\000"
 7696 2a59 02       		.byte	0x2
 7697 2a5a 0E02     		.2byte	0x20e
 7698 2a5c BA290000 		.4byte	0x29ba
 7699 2a60 62070000 		.4byte	.LLST68
 7700 2a64 36       		.uleb128 0x36
 7701 2a65 F3240000 		.4byte	.LASF552
 7702 2a69 02       		.byte	0x2
 7703 2a6a 1202     		.2byte	0x212
 7704 2a6c 01010000 		.4byte	0x101
 7705 2a70 36       		.uleb128 0x36
 7706 2a71 4F110000 		.4byte	.LASF553
 7707 2a75 02       		.byte	0x2
 7708 2a76 1302     		.2byte	0x213
 7709 2a78 01010000 		.4byte	0x101
 7710 2a7c 36       		.uleb128 0x36
 7711 2a7d 17050000 		.4byte	.LASF554
 7712 2a81 02       		.byte	0x2
 7713 2a82 1402     		.2byte	0x214
 7714 2a84 01010000 		.4byte	0x101
 7715 2a88 36       		.uleb128 0x36
 7716 2a89 341D0000 		.4byte	.LASF555
 7717 2a8d 02       		.byte	0x2
 7718 2a8e 1502     		.2byte	0x215
 7719 2a90 01010000 		.4byte	0x101
 7720 2a94 38       		.uleb128 0x38
 7721 2a95 70616400 		.ascii	"pad\000"
 7722 2a99 02       		.byte	0x2
 7723 2a9a 1702     		.2byte	0x217
ARM GAS  C:\Users\haske\AppData\Local\Temp\cc11ZRIl.s 			page 169


 7724 2a9c 01010000 		.4byte	0x101
 7725 2aa0 80070000 		.4byte	.LLST69
 7726 2aa4 3F       		.uleb128 0x3f
 7727 2aa5 031E0000 		.4byte	0x1e03
 7728 2aa9 46000000 		.4byte	.LBB120
 7729 2aad 0C000000 		.4byte	.LBE120-.LBB120
 7730 2ab1 02       		.byte	0x2
 7731 2ab2 1202     		.2byte	0x212
 7732 2ab4 F42A0000 		.4byte	0x2af4
 7733 2ab8 2C       		.uleb128 0x2c
 7734 2ab9 1E1E0000 		.4byte	0x1e1e
 7735 2abd A1070000 		.4byte	.LLST70
 7736 2ac1 2C       		.uleb128 0x2c
 7737 2ac2 131E0000 		.4byte	0x1e13
 7738 2ac6 B5070000 		.4byte	.LLST71
 7739 2aca 3B       		.uleb128 0x3b
 7740 2acb 46000000 		.4byte	.LBB121
 7741 2acf 0C000000 		.4byte	.LBE121-.LBB121
 7742 2ad3 3C       		.uleb128 0x3c
 7743 2ad4 291E0000 		.4byte	0x1e29
 7744 2ad8 3D       		.uleb128 0x3d
 7745 2ad9 50000000 		.4byte	.LVL162
 7746 2add 17340000 		.4byte	0x3417
 7747 2ae1 3E       		.uleb128 0x3e
 7748 2ae2 01       		.uleb128 0x1
 7749 2ae3 50       		.byte	0x50
 7750 2ae4 02       		.uleb128 0x2
 7751 2ae5 76       		.byte	0x76
 7752 2ae6 00       		.sleb128 0
 7753 2ae7 3E       		.uleb128 0x3e
 7754 2ae8 01       		.uleb128 0x1
 7755 2ae9 51       		.byte	0x51
 7756 2aea 01       		.uleb128 0x1
 7757 2aeb 30       		.byte	0x30
 7758 2aec 3E       		.uleb128 0x3e
 7759 2aed 01       		.uleb128 0x1
 7760 2aee 52       		.byte	0x52
 7761 2aef 01       		.uleb128 0x1
 7762 2af0 42       		.byte	0x42
 7763 2af1 00       		.byte	0
 7764 2af2 00       		.byte	0
 7765 2af3 00       		.byte	0
 7766 2af4 3F       		.uleb128 0x3f
 7767 2af5 D31D0000 		.4byte	0x1dd3
 7768 2af9 52000000 		.4byte	.LBB122
 7769 2afd 0C000000 		.4byte	.LBE122-.LBB122
 7770 2b01 02       		.byte	0x2
 7771 2b02 1302     		.2byte	0x213
 7772 2b04 442B0000 		.4byte	0x2b44
 7773 2b08 2C       		.uleb128 0x2c
 7774 2b09 EE1D0000 		.4byte	0x1dee
 7775 2b0d C8070000 		.4byte	.LLST72
 7776 2b11 2C       		.uleb128 0x2c
 7777 2b12 E31D0000 		.4byte	0x1de3
 7778 2b16 DC070000 		.4byte	.LLST73
 7779 2b1a 3B       		.uleb128 0x3b
 7780 2b1b 52000000 		.4byte	.LBB123
ARM GAS  C:\Users\haske\AppData\Local\Temp\cc11ZRIl.s 			page 170


 7781 2b1f 0C000000 		.4byte	.LBE123-.LBB123
 7782 2b23 3C       		.uleb128 0x3c
 7783 2b24 F91D0000 		.4byte	0x1df9
 7784 2b28 3D       		.uleb128 0x3d
 7785 2b29 5C000000 		.4byte	.LVL164
 7786 2b2d 17340000 		.4byte	0x3417
 7787 2b31 3E       		.uleb128 0x3e
 7788 2b32 01       		.uleb128 0x1
 7789 2b33 50       		.byte	0x50
 7790 2b34 02       		.uleb128 0x2
 7791 2b35 76       		.byte	0x76
 7792 2b36 00       		.sleb128 0
 7793 2b37 3E       		.uleb128 0x3e
 7794 2b38 01       		.uleb128 0x1
 7795 2b39 51       		.byte	0x51
 7796 2b3a 01       		.uleb128 0x1
 7797 2b3b 30       		.byte	0x30
 7798 2b3c 3E       		.uleb128 0x3e
 7799 2b3d 01       		.uleb128 0x1
 7800 2b3e 52       		.byte	0x52
 7801 2b3f 01       		.uleb128 0x1
 7802 2b40 43       		.byte	0x43
 7803 2b41 00       		.byte	0
 7804 2b42 00       		.byte	0
 7805 2b43 00       		.byte	0
 7806 2b44 3F       		.uleb128 0x3f
 7807 2b45 A31D0000 		.4byte	0x1da3
 7808 2b49 5E000000 		.4byte	.LBB124
 7809 2b4d 0E000000 		.4byte	.LBE124-.LBB124
 7810 2b51 02       		.byte	0x2
 7811 2b52 1402     		.2byte	0x214
 7812 2b54 942B0000 		.4byte	0x2b94
 7813 2b58 2C       		.uleb128 0x2c
 7814 2b59 BE1D0000 		.4byte	0x1dbe
 7815 2b5d EF070000 		.4byte	.LLST74
 7816 2b61 2C       		.uleb128 0x2c
 7817 2b62 B31D0000 		.4byte	0x1db3
 7818 2b66 03080000 		.4byte	.LLST75
 7819 2b6a 3B       		.uleb128 0x3b
 7820 2b6b 5E000000 		.4byte	.LBB125
 7821 2b6f 0E000000 		.4byte	.LBE125-.LBB125
 7822 2b73 3C       		.uleb128 0x3c
 7823 2b74 C91D0000 		.4byte	0x1dc9
 7824 2b78 3D       		.uleb128 0x3d
 7825 2b79 68000000 		.4byte	.LVL166
 7826 2b7d 17340000 		.4byte	0x3417
 7827 2b81 3E       		.uleb128 0x3e
 7828 2b82 01       		.uleb128 0x1
 7829 2b83 50       		.byte	0x50
 7830 2b84 02       		.uleb128 0x2
 7831 2b85 76       		.byte	0x76
 7832 2b86 00       		.sleb128 0
 7833 2b87 3E       		.uleb128 0x3e
 7834 2b88 01       		.uleb128 0x1
 7835 2b89 51       		.byte	0x51
 7836 2b8a 01       		.uleb128 0x1
 7837 2b8b 30       		.byte	0x30
ARM GAS  C:\Users\haske\AppData\Local\Temp\cc11ZRIl.s 			page 171


 7838 2b8c 3E       		.uleb128 0x3e
 7839 2b8d 01       		.uleb128 0x1
 7840 2b8e 52       		.byte	0x52
 7841 2b8f 01       		.uleb128 0x1
 7842 2b90 40       		.byte	0x40
 7843 2b91 00       		.byte	0
 7844 2b92 00       		.byte	0
 7845 2b93 00       		.byte	0
 7846 2b94 3F       		.uleb128 0x3f
 7847 2b95 731D0000 		.4byte	0x1d73
 7848 2b99 6C000000 		.4byte	.LBB126
 7849 2b9d 0C000000 		.4byte	.LBE126-.LBB126
 7850 2ba1 02       		.byte	0x2
 7851 2ba2 1502     		.2byte	0x215
 7852 2ba4 E42B0000 		.4byte	0x2be4
 7853 2ba8 2C       		.uleb128 0x2c
 7854 2ba9 8E1D0000 		.4byte	0x1d8e
 7855 2bad 16080000 		.4byte	.LLST76
 7856 2bb1 2C       		.uleb128 0x2c
 7857 2bb2 831D0000 		.4byte	0x1d83
 7858 2bb6 2A080000 		.4byte	.LLST77
 7859 2bba 3B       		.uleb128 0x3b
 7860 2bbb 6C000000 		.4byte	.LBB127
 7861 2bbf 0C000000 		.4byte	.LBE127-.LBB127
 7862 2bc3 3C       		.uleb128 0x3c
 7863 2bc4 991D0000 		.4byte	0x1d99
 7864 2bc8 3D       		.uleb128 0x3d
 7865 2bc9 76000000 		.4byte	.LVL168
 7866 2bcd 17340000 		.4byte	0x3417
 7867 2bd1 3E       		.uleb128 0x3e
 7868 2bd2 01       		.uleb128 0x1
 7869 2bd3 50       		.byte	0x50
 7870 2bd4 02       		.uleb128 0x2
 7871 2bd5 76       		.byte	0x76
 7872 2bd6 00       		.sleb128 0
 7873 2bd7 3E       		.uleb128 0x3e
 7874 2bd8 01       		.uleb128 0x1
 7875 2bd9 51       		.byte	0x51
 7876 2bda 01       		.uleb128 0x1
 7877 2bdb 30       		.byte	0x30
 7878 2bdc 3E       		.uleb128 0x3e
 7879 2bdd 01       		.uleb128 0x1
 7880 2bde 52       		.byte	0x52
 7881 2bdf 01       		.uleb128 0x1
 7882 2be0 41       		.byte	0x41
 7883 2be1 00       		.byte	0
 7884 2be2 00       		.byte	0
 7885 2be3 00       		.byte	0
 7886 2be4 41       		.uleb128 0x41
 7887 2be5 2E000000 		.4byte	.LVL156
 7888 2be9 AA340000 		.4byte	0x34aa
 7889 2bed FF2B0000 		.4byte	0x2bff
 7890 2bf1 3E       		.uleb128 0x3e
 7891 2bf2 01       		.uleb128 0x1
 7892 2bf3 50       		.byte	0x50
 7893 2bf4 02       		.uleb128 0x2
 7894 2bf5 76       		.byte	0x76
ARM GAS  C:\Users\haske\AppData\Local\Temp\cc11ZRIl.s 			page 172


 7895 2bf6 00       		.sleb128 0
 7896 2bf7 3E       		.uleb128 0x3e
 7897 2bf8 01       		.uleb128 0x1
 7898 2bf9 51       		.byte	0x51
 7899 2bfa 03       		.uleb128 0x3
 7900 2bfb 40       		.byte	0x40
 7901 2bfc 3D       		.byte	0x3d
 7902 2bfd 24       		.byte	0x24
 7903 2bfe 00       		.byte	0
 7904 2bff 3D       		.uleb128 0x3d
 7905 2c00 36000000 		.4byte	.LVL158
 7906 2c04 B5340000 		.4byte	0x34b5
 7907 2c08 3E       		.uleb128 0x3e
 7908 2c09 01       		.uleb128 0x1
 7909 2c0a 50       		.byte	0x50
 7910 2c0b 02       		.uleb128 0x2
 7911 2c0c 74       		.byte	0x74
 7912 2c0d 00       		.sleb128 0
 7913 2c0e 00       		.byte	0
 7914 2c0f 00       		.byte	0
 7915 2c10 40       		.uleb128 0x40
 7916 2c11 B2000000 		.4byte	.LBB128
 7917 2c15 0A000000 		.4byte	.LBE128-.LBB128
 7918 2c19 442C0000 		.4byte	0x2c44
 7919 2c1d 38       		.uleb128 0x38
 7920 2c1e 62617200 		.ascii	"bar\000"
 7921 2c22 02       		.byte	0x2
 7922 2c23 1D02     		.2byte	0x21d
 7923 2c25 B4290000 		.4byte	0x29b4
 7924 2c29 3D080000 		.4byte	.LLST78
 7925 2c2d 3D       		.uleb128 0x3d
 7926 2c2e BC000000 		.4byte	.LVL175
 7927 2c32 C0340000 		.4byte	0x34c0
 7928 2c36 3E       		.uleb128 0x3e
 7929 2c37 01       		.uleb128 0x1
 7930 2c38 50       		.byte	0x50
 7931 2c39 02       		.uleb128 0x2
 7932 2c3a 76       		.byte	0x76
 7933 2c3b 00       		.sleb128 0
 7934 2c3c 3E       		.uleb128 0x3e
 7935 2c3d 01       		.uleb128 0x1
 7936 2c3e 51       		.byte	0x51
 7937 2c3f 02       		.uleb128 0x2
 7938 2c40 76       		.byte	0x76
 7939 2c41 34       		.sleb128 52
 7940 2c42 00       		.byte	0
 7941 2c43 00       		.byte	0
 7942 2c44 41       		.uleb128 0x41
 7943 2c45 0E000000 		.4byte	.LVL149
 7944 2c49 CC340000 		.4byte	0x34cc
 7945 2c4d 612C0000 		.4byte	0x2c61
 7946 2c51 3E       		.uleb128 0x3e
 7947 2c52 01       		.uleb128 0x1
 7948 2c53 50       		.byte	0x50
 7949 2c54 05       		.uleb128 0x5
 7950 2c55 03       		.byte	0x3
 7951 2c56 00000000 		.4byte	.LANCHOR0
ARM GAS  C:\Users\haske\AppData\Local\Temp\cc11ZRIl.s 			page 173


 7952 2c5a 3E       		.uleb128 0x3e
 7953 2c5b 01       		.uleb128 0x1
 7954 2c5c 51       		.byte	0x51
 7955 2c5d 02       		.uleb128 0x2
 7956 2c5e 74       		.byte	0x74
 7957 2c5f 00       		.sleb128 0
 7958 2c60 00       		.byte	0
 7959 2c61 41       		.uleb128 0x41
 7960 2c62 18000000 		.4byte	.LVL151
 7961 2c66 D7340000 		.4byte	0x34d7
 7962 2c6a 752C0000 		.4byte	0x2c75
 7963 2c6e 3E       		.uleb128 0x3e
 7964 2c6f 01       		.uleb128 0x1
 7965 2c70 50       		.byte	0x50
 7966 2c71 02       		.uleb128 0x2
 7967 2c72 74       		.byte	0x74
 7968 2c73 00       		.sleb128 0
 7969 2c74 00       		.byte	0
 7970 2c75 41       		.uleb128 0x41
 7971 2c76 20000000 		.4byte	.LVL154
 7972 2c7a 43340000 		.4byte	0x3443
 7973 2c7e 892C0000 		.4byte	0x2c89
 7974 2c82 3E       		.uleb128 0x3e
 7975 2c83 01       		.uleb128 0x1
 7976 2c84 50       		.byte	0x50
 7977 2c85 02       		.uleb128 0x2
 7978 2c86 74       		.byte	0x74
 7979 2c87 00       		.sleb128 0
 7980 2c88 00       		.byte	0
 7981 2c89 3D       		.uleb128 0x3d
 7982 2c8a C8000000 		.4byte	.LVL178
 7983 2c8e F81F0000 		.4byte	0x1ff8
 7984 2c92 3E       		.uleb128 0x3e
 7985 2c93 01       		.uleb128 0x1
 7986 2c94 50       		.byte	0x50
 7987 2c95 02       		.uleb128 0x2
 7988 2c96 74       		.byte	0x74
 7989 2c97 00       		.sleb128 0
 7990 2c98 00       		.byte	0
 7991 2c99 00       		.byte	0
 7992 2c9a 45       		.uleb128 0x45
 7993 2c9b 540F0000 		.4byte	.LASF584
 7994 2c9f 02       		.byte	0x2
 7995 2ca0 EA       		.byte	0xea
 7996 2ca1 00000000 		.4byte	.LFB170
 7997 2ca5 1A000000 		.4byte	.LFE170-.LFB170
 7998 2ca9 01       		.uleb128 0x1
 7999 2caa 9C       		.byte	0x9c
 8000 2cab 0C2D0000 		.4byte	0x2d0c
 8001 2caf 46       		.uleb128 0x46
 8002 2cb0 7D160000 		.4byte	.LASF224
 8003 2cb4 02       		.byte	0x2
 8004 2cb5 EA       		.byte	0xea
 8005 2cb6 811B0000 		.4byte	0x1b81
 8006 2cba 5B080000 		.4byte	.LLST79
 8007 2cbe 31       		.uleb128 0x31
 8008 2cbf 6F626A00 		.ascii	"obj\000"
ARM GAS  C:\Users\haske\AppData\Local\Temp\cc11ZRIl.s 			page 174


 8009 2cc3 02       		.byte	0x2
 8010 2cc4 EA       		.byte	0xea
 8011 2cc5 061C0000 		.4byte	0x1c06
 8012 2cc9 7C080000 		.4byte	.LLST80
 8013 2ccd 32       		.uleb128 0x32
 8014 2cce 62617200 		.ascii	"bar\000"
 8015 2cd2 02       		.byte	0x2
 8016 2cd3 ED       		.byte	0xed
 8017 2cd4 B4290000 		.4byte	0x29b4
 8018 2cd8 A8080000 		.4byte	.LLST81
 8019 2cdc 41       		.uleb128 0x41
 8020 2cdd 0E000000 		.4byte	.LVL183
 8021 2ce1 E2340000 		.4byte	0x34e2
 8022 2ce5 F52C0000 		.4byte	0x2cf5
 8023 2ce9 3E       		.uleb128 0x3e
 8024 2cea 01       		.uleb128 0x1
 8025 2ceb 50       		.byte	0x50
 8026 2cec 02       		.uleb128 0x2
 8027 2ced 74       		.byte	0x74
 8028 2cee 3C       		.sleb128 60
 8029 2cef 3E       		.uleb128 0x3e
 8030 2cf0 01       		.uleb128 0x1
 8031 2cf1 51       		.byte	0x51
 8032 2cf2 01       		.uleb128 0x1
 8033 2cf3 30       		.byte	0x30
 8034 2cf4 00       		.byte	0
 8035 2cf5 3D       		.uleb128 0x3d
 8036 2cf6 18000000 		.4byte	.LVL184
 8037 2cfa E2340000 		.4byte	0x34e2
 8038 2cfe 3E       		.uleb128 0x3e
 8039 2cff 01       		.uleb128 0x1
 8040 2d00 50       		.byte	0x50
 8041 2d01 03       		.uleb128 0x3
 8042 2d02 74       		.byte	0x74
 8043 2d03 CC00     		.sleb128 76
 8044 2d05 3E       		.uleb128 0x3e
 8045 2d06 01       		.uleb128 0x1
 8046 2d07 51       		.byte	0x51
 8047 2d08 01       		.uleb128 0x1
 8048 2d09 30       		.byte	0x30
 8049 2d0a 00       		.byte	0
 8050 2d0b 00       		.byte	0
 8051 2d0c 2D       		.uleb128 0x2d
 8052 2d0d 2C250000 		.4byte	.LASF585
 8053 2d11 02       		.byte	0x2
 8054 2d12 2C02     		.2byte	0x22c
 8055 2d14 00000000 		.4byte	.LFB174
 8056 2d18 2E000000 		.4byte	.LFE174-.LFB174
 8057 2d1c 01       		.uleb128 0x1
 8058 2d1d 9C       		.byte	0x9c
 8059 2d1e 6A2D0000 		.4byte	0x2d6a
 8060 2d22 44       		.uleb128 0x44
 8061 2d23 6100     		.ascii	"a\000"
 8062 2d25 02       		.byte	0x2
 8063 2d26 2C02     		.2byte	0x22c
 8064 2d28 BC1E0000 		.4byte	0x1ebc
 8065 2d2c D4080000 		.4byte	.LLST82
ARM GAS  C:\Users\haske\AppData\Local\Temp\cc11ZRIl.s 			page 175


 8066 2d30 38       		.uleb128 0x38
 8067 2d31 76617200 		.ascii	"var\000"
 8068 2d35 02       		.byte	0x2
 8069 2d36 2E02     		.2byte	0x22e
 8070 2d38 F21F0000 		.4byte	0x1ff2
 8071 2d3c F5080000 		.4byte	.LLST83
 8072 2d40 38       		.uleb128 0x38
 8073 2d41 6F626A00 		.ascii	"obj\000"
 8074 2d45 02       		.byte	0x2
 8075 2d46 2F02     		.2byte	0x22f
 8076 2d48 061C0000 		.4byte	0x1c06
 8077 2d4c 08090000 		.4byte	.LLST84
 8078 2d50 38       		.uleb128 0x38
 8079 2d51 62617200 		.ascii	"bar\000"
 8080 2d55 02       		.byte	0x2
 8081 2d56 3002     		.2byte	0x230
 8082 2d58 B4290000 		.4byte	0x29b4
 8083 2d5c 08090000 		.4byte	.LLST84
 8084 2d60 47       		.uleb128 0x47
 8085 2d61 2C000000 		.4byte	.LVL190
 8086 2d65 EE340000 		.4byte	0x34ee
 8087 2d69 00       		.byte	0
 8088 2d6a 2D       		.uleb128 0x2d
 8089 2d6b 011C0000 		.4byte	.LASF586
 8090 2d6f 02       		.byte	0x2
 8091 2d70 2502     		.2byte	0x225
 8092 2d72 00000000 		.4byte	.LFB173
 8093 2d76 0C000000 		.4byte	.LFE173-.LFB173
 8094 2d7a 01       		.uleb128 0x1
 8095 2d7b 9C       		.byte	0x9c
 8096 2d7c BA2D0000 		.4byte	0x2dba
 8097 2d80 44       		.uleb128 0x44
 8098 2d81 76617200 		.ascii	"var\000"
 8099 2d85 02       		.byte	0x2
 8100 2d86 2502     		.2byte	0x225
 8101 2d88 E9020000 		.4byte	0x2e9
 8102 2d8c 1B090000 		.4byte	.LLST86
 8103 2d90 43       		.uleb128 0x43
 8104 2d91 750A0000 		.4byte	.LASF213
 8105 2d95 02       		.byte	0x2
 8106 2d96 2502     		.2byte	0x225
 8107 2d98 D9000000 		.4byte	0xd9
 8108 2d9c 3C090000 		.4byte	.LLST87
 8109 2da0 37       		.uleb128 0x37
 8110 2da1 0E050000 		.4byte	.LASF543
 8111 2da5 02       		.byte	0x2
 8112 2da6 2702     		.2byte	0x227
 8113 2da8 F21F0000 		.4byte	0x1ff2
 8114 2dac 5D090000 		.4byte	.LLST88
 8115 2db0 47       		.uleb128 0x47
 8116 2db1 0A000000 		.4byte	.LVL194
 8117 2db5 EE340000 		.4byte	0x34ee
 8118 2db9 00       		.byte	0
 8119 2dba 2D       		.uleb128 0x2d
 8120 2dbb 420C0000 		.4byte	.LASF587
 8121 2dbf 02       		.byte	0x2
 8122 2dc0 3A02     		.2byte	0x23a
ARM GAS  C:\Users\haske\AppData\Local\Temp\cc11ZRIl.s 			page 176


 8123 2dc2 00000000 		.4byte	.LFB175
 8124 2dc6 84000000 		.4byte	.LFE175-.LFB175
 8125 2dca 01       		.uleb128 0x1
 8126 2dcb 9C       		.byte	0x9c
 8127 2dcc C12F0000 		.4byte	0x2fc1
 8128 2dd0 44       		.uleb128 0x44
 8129 2dd1 6F626A00 		.ascii	"obj\000"
 8130 2dd5 02       		.byte	0x2
 8131 2dd6 3A02     		.2byte	0x23a
 8132 2dd8 061C0000 		.4byte	0x1c06
 8133 2ddc 7E090000 		.4byte	.LLST89
 8134 2de0 43       		.uleb128 0x43
 8135 2de1 FF1D0000 		.4byte	.LASF588
 8136 2de5 02       		.byte	0x2
 8137 2de6 3A02     		.2byte	0x23a
 8138 2de8 D9000000 		.4byte	0xd9
 8139 2dec C0090000 		.4byte	.LLST90
 8140 2df0 43       		.uleb128 0x43
 8141 2df1 82050000 		.4byte	.LASF589
 8142 2df5 02       		.byte	0x2
 8143 2df6 3A02     		.2byte	0x23a
 8144 2df8 C12F0000 		.4byte	0x2fc1
 8145 2dfc 020A0000 		.4byte	.LLST91
 8146 2e00 43       		.uleb128 0x43
 8147 2e01 97030000 		.4byte	.LASF590
 8148 2e05 02       		.byte	0x2
 8149 2e06 3B02     		.2byte	0x23b
 8150 2e08 F21F0000 		.4byte	0x1ff2
 8151 2e0c 440A0000 		.4byte	.LLST92
 8152 2e10 44       		.uleb128 0x44
 8153 2e11 656E00   		.ascii	"en\000"
 8154 2e14 02       		.byte	0x2
 8155 2e15 3B02     		.2byte	0x23b
 8156 2e17 17040000 		.4byte	0x417
 8157 2e1b 700A0000 		.4byte	.LLST93
 8158 2e1f 40       		.uleb128 0x40
 8159 2e20 2C000000 		.4byte	.LBB129
 8160 2e24 4C000000 		.4byte	.LBE129-.LBB129
 8161 2e28 972F0000 		.4byte	0x2f97
 8162 2e2c 48       		.uleb128 0x48
 8163 2e2d 6100     		.ascii	"a\000"
 8164 2e2f 02       		.byte	0x2
 8165 2e30 5202     		.2byte	0x252
 8166 2e32 DB050000 		.4byte	0x5db
 8167 2e36 03       		.uleb128 0x3
 8168 2e37 91       		.byte	0x91
 8169 2e38 A47F     		.sleb128 -92
 8170 2e3a 3F       		.uleb128 0x3f
 8171 2e3b 641F0000 		.4byte	0x1f64
 8172 2e3f 50000000 		.4byte	.LBB130
 8173 2e43 02000000 		.4byte	.LBE130-.LBB130
 8174 2e47 02       		.byte	0x2
 8175 2e48 5402     		.2byte	0x254
 8176 2e4a 612E0000 		.4byte	0x2e61
 8177 2e4e 2C       		.uleb128 0x2c
 8178 2e4f 791F0000 		.4byte	0x1f79
 8179 2e53 9C0A0000 		.4byte	.LLST94
ARM GAS  C:\Users\haske\AppData\Local\Temp\cc11ZRIl.s 			page 177


 8180 2e57 2C       		.uleb128 0x2c
 8181 2e58 701F0000 		.4byte	0x1f70
 8182 2e5c AF0A0000 		.4byte	.LLST95
 8183 2e60 00       		.byte	0
 8184 2e61 3F       		.uleb128 0x3f
 8185 2e62 431F0000 		.4byte	0x1f43
 8186 2e66 52000000 		.4byte	.LBB132
 8187 2e6a 04000000 		.4byte	.LBE132-.LBB132
 8188 2e6e 02       		.byte	0x2
 8189 2e6f 5502     		.2byte	0x255
 8190 2e71 882E0000 		.4byte	0x2e88
 8191 2e75 2C       		.uleb128 0x2c
 8192 2e76 581F0000 		.4byte	0x1f58
 8193 2e7a C50A0000 		.4byte	.LLST96
 8194 2e7e 2C       		.uleb128 0x2c
 8195 2e7f 4F1F0000 		.4byte	0x1f4f
 8196 2e83 DD0A0000 		.4byte	.LLST97
 8197 2e87 00       		.byte	0
 8198 2e88 3F       		.uleb128 0x3f
 8199 2e89 171F0000 		.4byte	0x1f17
 8200 2e8d 56000000 		.4byte	.LBB134
 8201 2e91 0C000000 		.4byte	.LBE134-.LBB134
 8202 2e95 02       		.byte	0x2
 8203 2e96 5602     		.2byte	0x256
 8204 2e98 B82E0000 		.4byte	0x2eb8
 8205 2e9c 2C       		.uleb128 0x2c
 8206 2e9d 371F0000 		.4byte	0x1f37
 8207 2ea1 F30A0000 		.4byte	.LLST98
 8208 2ea5 2C       		.uleb128 0x2c
 8209 2ea6 2C1F0000 		.4byte	0x1f2c
 8210 2eaa 090B0000 		.4byte	.LLST99
 8211 2eae 2C       		.uleb128 0x2c
 8212 2eaf 231F0000 		.4byte	0x1f23
 8213 2eb3 1D0B0000 		.4byte	.LLST100
 8214 2eb7 00       		.byte	0
 8215 2eb8 3F       		.uleb128 0x3f
 8216 2eb9 F61E0000 		.4byte	0x1ef6
 8217 2ebd 62000000 		.4byte	.LBB136
 8218 2ec1 04000000 		.4byte	.LBE136-.LBB136
 8219 2ec5 02       		.byte	0x2
 8220 2ec6 5702     		.2byte	0x257
 8221 2ec8 DF2E0000 		.4byte	0x2edf
 8222 2ecc 2C       		.uleb128 0x2c
 8223 2ecd 0B1F0000 		.4byte	0x1f0b
 8224 2ed1 330B0000 		.4byte	.LLST101
 8225 2ed5 2C       		.uleb128 0x2c
 8226 2ed6 021F0000 		.4byte	0x1f02
 8227 2eda 4B0B0000 		.4byte	.LLST102
 8228 2ede 00       		.byte	0
 8229 2edf 3F       		.uleb128 0x3f
 8230 2ee0 C21E0000 		.4byte	0x1ec2
 8231 2ee4 66000000 		.4byte	.LBB138
 8232 2ee8 0A000000 		.4byte	.LBE138-.LBB138
 8233 2eec 02       		.byte	0x2
 8234 2eed 5802     		.2byte	0x258
 8235 2eef 342F0000 		.4byte	0x2f34
 8236 2ef3 2C       		.uleb128 0x2c
ARM GAS  C:\Users\haske\AppData\Local\Temp\cc11ZRIl.s 			page 178


 8237 2ef4 DF1E0000 		.4byte	0x1edf
 8238 2ef8 610B0000 		.4byte	.LLST103
 8239 2efc 2C       		.uleb128 0x2c
 8240 2efd D31E0000 		.4byte	0x1ed3
 8241 2f01 750B0000 		.4byte	.LLST104
 8242 2f05 3B       		.uleb128 0x3b
 8243 2f06 66000000 		.4byte	.LBB139
 8244 2f0a 0A000000 		.4byte	.LBE139-.LBB139
 8245 2f0e 49       		.uleb128 0x49
 8246 2f0f EB1E0000 		.4byte	0x1eeb
 8247 2f13 880B0000 		.4byte	.LLST105
 8248 2f17 3D       		.uleb128 0x3d
 8249 2f18 70000000 		.4byte	.LVL211
 8250 2f1c 17340000 		.4byte	0x3417
 8251 2f20 3E       		.uleb128 0x3e
 8252 2f21 01       		.uleb128 0x1
 8253 2f22 50       		.byte	0x50
 8254 2f23 02       		.uleb128 0x2
 8255 2f24 76       		.byte	0x76
 8256 2f25 00       		.sleb128 0
 8257 2f26 3E       		.uleb128 0x3e
 8258 2f27 01       		.uleb128 0x1
 8259 2f28 51       		.byte	0x51
 8260 2f29 01       		.uleb128 0x1
 8261 2f2a 30       		.byte	0x30
 8262 2f2b 3E       		.uleb128 0x3e
 8263 2f2c 01       		.uleb128 0x1
 8264 2f2d 52       		.byte	0x52
 8265 2f2e 02       		.uleb128 0x2
 8266 2f2f 08       		.byte	0x8
 8267 2f30 64       		.byte	0x64
 8268 2f31 00       		.byte	0
 8269 2f32 00       		.byte	0
 8270 2f33 00       		.byte	0
 8271 2f34 3F       		.uleb128 0x3f
 8272 2f35 9B1E0000 		.4byte	0x1e9b
 8273 2f39 70000000 		.4byte	.LBB140
 8274 2f3d 02000000 		.4byte	.LBE140-.LBB140
 8275 2f41 02       		.byte	0x2
 8276 2f42 5802     		.2byte	0x258
 8277 2f44 572F0000 		.4byte	0x2f57
 8278 2f48 4A       		.uleb128 0x4a
 8279 2f49 B01E0000 		.4byte	0x1eb0
 8280 2f4d 2C       		.uleb128 0x2c
 8281 2f4e A71E0000 		.4byte	0x1ea7
 8282 2f52 9B0B0000 		.4byte	.LLST106
 8283 2f56 00       		.byte	0
 8284 2f57 41       		.uleb128 0x41
 8285 2f58 4A000000 		.4byte	.LVL205
 8286 2f5c E2340000 		.4byte	0x34e2
 8287 2f60 702F0000 		.4byte	0x2f70
 8288 2f64 3E       		.uleb128 0x3e
 8289 2f65 01       		.uleb128 0x1
 8290 2f66 50       		.byte	0x50
 8291 2f67 02       		.uleb128 0x2
 8292 2f68 74       		.byte	0x74
 8293 2f69 00       		.sleb128 0
ARM GAS  C:\Users\haske\AppData\Local\Temp\cc11ZRIl.s 			page 179


 8294 2f6a 3E       		.uleb128 0x3e
 8295 2f6b 01       		.uleb128 0x1
 8296 2f6c 51       		.byte	0x51
 8297 2f6d 01       		.uleb128 0x1
 8298 2f6e 30       		.byte	0x30
 8299 2f6f 00       		.byte	0
 8300 2f70 41       		.uleb128 0x41
 8301 2f71 50000000 		.4byte	.LVL206
 8302 2f75 FA340000 		.4byte	0x34fa
 8303 2f79 852F0000 		.4byte	0x2f85
 8304 2f7d 3E       		.uleb128 0x3e
 8305 2f7e 01       		.uleb128 0x1
 8306 2f7f 50       		.byte	0x50
 8307 2f80 03       		.uleb128 0x3
 8308 2f81 91       		.byte	0x91
 8309 2f82 A47F     		.sleb128 -92
 8310 2f84 00       		.byte	0
 8311 2f85 3D       		.uleb128 0x3d
 8312 2f86 78000000 		.4byte	.LVL214
 8313 2f8a 05350000 		.4byte	0x3505
 8314 2f8e 3E       		.uleb128 0x3e
 8315 2f8f 01       		.uleb128 0x1
 8316 2f90 50       		.byte	0x50
 8317 2f91 03       		.uleb128 0x3
 8318 2f92 91       		.byte	0x91
 8319 2f93 A47F     		.sleb128 -92
 8320 2f95 00       		.byte	0
 8321 2f96 00       		.byte	0
 8322 2f97 41       		.uleb128 0x41
 8323 2f98 1C000000 		.4byte	.LVL200
 8324 2f9c E2340000 		.4byte	0x34e2
 8325 2fa0 B02F0000 		.4byte	0x2fb0
 8326 2fa4 3E       		.uleb128 0x3e
 8327 2fa5 01       		.uleb128 0x1
 8328 2fa6 50       		.byte	0x50
 8329 2fa7 02       		.uleb128 0x2
 8330 2fa8 74       		.byte	0x74
 8331 2fa9 00       		.sleb128 0
 8332 2faa 3E       		.uleb128 0x3e
 8333 2fab 01       		.uleb128 0x1
 8334 2fac 51       		.byte	0x51
 8335 2fad 01       		.uleb128 0x1
 8336 2fae 30       		.byte	0x30
 8337 2faf 00       		.byte	0
 8338 2fb0 3D       		.uleb128 0x3d
 8339 2fb1 2A000000 		.4byte	.LVL201
 8340 2fb5 EE340000 		.4byte	0x34ee
 8341 2fb9 3E       		.uleb128 0x3e
 8342 2fba 01       		.uleb128 0x1
 8343 2fbb 50       		.byte	0x50
 8344 2fbc 02       		.uleb128 0x2
 8345 2fbd 76       		.byte	0x76
 8346 2fbe 00       		.sleb128 0
 8347 2fbf 00       		.byte	0
 8348 2fc0 00       		.byte	0
 8349 2fc1 0B       		.uleb128 0xb
 8350 2fc2 04       		.byte	0x4
ARM GAS  C:\Users\haske\AppData\Local\Temp\cc11ZRIl.s 			page 180


 8351 2fc3 D9000000 		.4byte	0xd9
 8352 2fc7 4B       		.uleb128 0x4b
 8353 2fc8 93080000 		.4byte	.LASF596
 8354 2fcc 02       		.byte	0x2
 8355 2fcd 4E       		.byte	0x4e
 8356 2fce 061C0000 		.4byte	0x1c06
 8357 2fd2 00000000 		.4byte	.LFB159
 8358 2fd6 18000000 		.4byte	.LFE159-.LFB159
 8359 2fda 01       		.uleb128 0x1
 8360 2fdb 9C       		.byte	0x9c
 8361 2fdc 2D300000 		.4byte	0x302d
 8362 2fe0 46       		.uleb128 0x46
 8363 2fe1 ED0E0000 		.4byte	.LASF225
 8364 2fe5 02       		.byte	0x2
 8365 2fe6 4E       		.byte	0x4e
 8366 2fe7 061C0000 		.4byte	0x1c06
 8367 2feb B10B0000 		.4byte	.LLST107
 8368 2fef 32       		.uleb128 0x32
 8369 2ff0 6F626A00 		.ascii	"obj\000"
 8370 2ff4 02       		.byte	0x2
 8371 2ff5 51       		.byte	0x51
 8372 2ff6 061C0000 		.4byte	0x1c06
 8373 2ffa DD0B0000 		.4byte	.LLST108
 8374 2ffe 41       		.uleb128 0x41
 8375 2fff 0A000000 		.4byte	.LVL221
 8376 3003 11350000 		.4byte	0x3511
 8377 3007 1C300000 		.4byte	0x301c
 8378 300b 3E       		.uleb128 0x3e
 8379 300c 01       		.uleb128 0x1
 8380 300d 50       		.byte	0x50
 8381 300e 05       		.uleb128 0x5
 8382 300f 03       		.byte	0x3
 8383 3010 00000000 		.4byte	.LANCHOR0
 8384 3014 3E       		.uleb128 0x3e
 8385 3015 01       		.uleb128 0x1
 8386 3016 51       		.byte	0x51
 8387 3017 03       		.uleb128 0x3
 8388 3018 F3       		.byte	0xf3
 8389 3019 01       		.uleb128 0x1
 8390 301a 50       		.byte	0x50
 8391 301b 00       		.byte	0
 8392 301c 3D       		.uleb128 0x3d
 8393 301d 10000000 		.4byte	.LVL223
 8394 3021 1C350000 		.4byte	0x351c
 8395 3025 3E       		.uleb128 0x3e
 8396 3026 01       		.uleb128 0x1
 8397 3027 50       		.byte	0x50
 8398 3028 02       		.uleb128 0x2
 8399 3029 74       		.byte	0x74
 8400 302a 00       		.sleb128 0
 8401 302b 00       		.byte	0
 8402 302c 00       		.byte	0
 8403 302d 4C       		.uleb128 0x4c
 8404 302e D21F0000 		.4byte	.LASF593
 8405 3032 02       		.byte	0x2
 8406 3033 5A       		.byte	0x5a
 8407 3034 00000000 		.4byte	.LFB160
ARM GAS  C:\Users\haske\AppData\Local\Temp\cc11ZRIl.s 			page 181


 8408 3038 3A000000 		.4byte	.LFE160-.LFB160
 8409 303c 01       		.uleb128 0x1
 8410 303d 9C       		.byte	0x9c
 8411 303e 9B300000 		.4byte	0x309b
 8412 3042 31       		.uleb128 0x31
 8413 3043 6F626A00 		.ascii	"obj\000"
 8414 3047 02       		.byte	0x2
 8415 3048 5A       		.byte	0x5a
 8416 3049 061C0000 		.4byte	0x1c06
 8417 304d 060C0000 		.4byte	.LLST109
 8418 3051 46       		.uleb128 0x46
 8419 3052 750A0000 		.4byte	.LASF213
 8420 3056 02       		.byte	0x2
 8421 3057 5A       		.byte	0x5a
 8422 3058 D9000000 		.4byte	0xd9
 8423 305c 340C0000 		.4byte	.LLST110
 8424 3060 46       		.uleb128 0x46
 8425 3061 290B0000 		.4byte	.LASF591
 8426 3065 02       		.byte	0x2
 8427 3066 5A       		.byte	0x5a
 8428 3067 17040000 		.4byte	0x417
 8429 306b 600C0000 		.4byte	.LLST111
 8430 306f 32       		.uleb128 0x32
 8431 3070 62617200 		.ascii	"bar\000"
 8432 3074 02       		.byte	0x2
 8433 3075 5D       		.byte	0x5d
 8434 3076 B4290000 		.4byte	0x29b4
 8435 307a 810C0000 		.4byte	.LLST112
 8436 307e 3D       		.uleb128 0x3d
 8437 307f 36000000 		.4byte	.LVL231
 8438 3083 BA2D0000 		.4byte	0x2dba
 8439 3087 3E       		.uleb128 0x3e
 8440 3088 01       		.uleb128 0x1
 8441 3089 50       		.byte	0x50
 8442 308a 02       		.uleb128 0x2
 8443 308b 74       		.byte	0x74
 8444 308c 5C       		.sleb128 -36
 8445 308d 3E       		.uleb128 0x3e
 8446 308e 01       		.uleb128 0x1
 8447 308f 52       		.byte	0x52
 8448 3090 02       		.uleb128 0x2
 8449 3091 74       		.byte	0x74
 8450 3092 00       		.sleb128 0
 8451 3093 3E       		.uleb128 0x3e
 8452 3094 01       		.uleb128 0x1
 8453 3095 53       		.byte	0x53
 8454 3096 02       		.uleb128 0x2
 8455 3097 74       		.byte	0x74
 8456 3098 18       		.sleb128 24
 8457 3099 00       		.byte	0
 8458 309a 00       		.byte	0
 8459 309b 45       		.uleb128 0x45
 8460 309c B6230000 		.4byte	.LASF592
 8461 30a0 02       		.byte	0x2
 8462 30a1 D0       		.byte	0xd0
 8463 30a2 00000000 		.4byte	.LFB169
 8464 30a6 52000000 		.4byte	.LFE169-.LFB169
ARM GAS  C:\Users\haske\AppData\Local\Temp\cc11ZRIl.s 			page 182


 8465 30aa 01       		.uleb128 0x1
 8466 30ab 9C       		.byte	0x9c
 8467 30ac 5F310000 		.4byte	0x315f
 8468 30b0 46       		.uleb128 0x46
 8469 30b1 7D160000 		.4byte	.LASF224
 8470 30b5 02       		.byte	0x2
 8471 30b6 D0       		.byte	0xd0
 8472 30b7 811B0000 		.4byte	0x1b81
 8473 30bb AF0C0000 		.4byte	.LLST113
 8474 30bf 31       		.uleb128 0x31
 8475 30c0 6F626A00 		.ascii	"obj\000"
 8476 30c4 02       		.byte	0x2
 8477 30c5 D0       		.byte	0xd0
 8478 30c6 061C0000 		.4byte	0x1c06
 8479 30ca D00C0000 		.4byte	.LLST114
 8480 30ce 32       		.uleb128 0x32
 8481 30cf 62617200 		.ascii	"bar\000"
 8482 30d3 02       		.byte	0x2
 8483 30d4 D5       		.byte	0xd5
 8484 30d5 B4290000 		.4byte	0x29b4
 8485 30d9 FC0C0000 		.4byte	.LLST115
 8486 30dd 41       		.uleb128 0x41
 8487 30de 2C000000 		.4byte	.LVL236
 8488 30e2 BF1F0000 		.4byte	0x1fbf
 8489 30e6 F7300000 		.4byte	0x30f7
 8490 30ea 3E       		.uleb128 0x3e
 8491 30eb 01       		.uleb128 0x1
 8492 30ec 50       		.byte	0x50
 8493 30ed 02       		.uleb128 0x2
 8494 30ee 74       		.byte	0x74
 8495 30ef 00       		.sleb128 0
 8496 30f0 3E       		.uleb128 0x3e
 8497 30f1 01       		.uleb128 0x1
 8498 30f2 51       		.byte	0x51
 8499 30f3 02       		.uleb128 0x2
 8500 30f4 74       		.byte	0x74
 8501 30f5 3C       		.sleb128 60
 8502 30f6 00       		.byte	0
 8503 30f7 41       		.uleb128 0x41
 8504 30f8 36000000 		.4byte	.LVL237
 8505 30fc BF1F0000 		.4byte	0x1fbf
 8506 3100 12310000 		.4byte	0x3112
 8507 3104 3E       		.uleb128 0x3e
 8508 3105 01       		.uleb128 0x1
 8509 3106 50       		.byte	0x50
 8510 3107 02       		.uleb128 0x2
 8511 3108 74       		.byte	0x74
 8512 3109 00       		.sleb128 0
 8513 310a 3E       		.uleb128 0x3e
 8514 310b 01       		.uleb128 0x1
 8515 310c 51       		.byte	0x51
 8516 310d 03       		.uleb128 0x3
 8517 310e 74       		.byte	0x74
 8518 310f CC00     		.sleb128 76
 8519 3111 00       		.byte	0
 8520 3112 41       		.uleb128 0x41
 8521 3113 3E000000 		.4byte	.LVL238
ARM GAS  C:\Users\haske\AppData\Local\Temp\cc11ZRIl.s 			page 183


 8522 3117 27350000 		.4byte	0x3527
 8523 311b 2B310000 		.4byte	0x312b
 8524 311f 3E       		.uleb128 0x3e
 8525 3120 01       		.uleb128 0x1
 8526 3121 50       		.byte	0x50
 8527 3122 02       		.uleb128 0x2
 8528 3123 74       		.byte	0x74
 8529 3124 00       		.sleb128 0
 8530 3125 3E       		.uleb128 0x3e
 8531 3126 01       		.uleb128 0x1
 8532 3127 51       		.byte	0x51
 8533 3128 01       		.uleb128 0x1
 8534 3129 38       		.byte	0x38
 8535 312a 00       		.byte	0
 8536 312b 41       		.uleb128 0x41
 8537 312c 46000000 		.4byte	.LVL239
 8538 3130 27350000 		.4byte	0x3527
 8539 3134 44310000 		.4byte	0x3144
 8540 3138 3E       		.uleb128 0x3e
 8541 3139 01       		.uleb128 0x1
 8542 313a 50       		.byte	0x50
 8543 313b 02       		.uleb128 0x2
 8544 313c 74       		.byte	0x74
 8545 313d 00       		.sleb128 0
 8546 313e 3E       		.uleb128 0x3e
 8547 313f 01       		.uleb128 0x1
 8548 3140 51       		.byte	0x51
 8549 3141 01       		.uleb128 0x1
 8550 3142 40       		.byte	0x40
 8551 3143 00       		.byte	0
 8552 3144 3D       		.uleb128 0x3d
 8553 3145 50000000 		.4byte	.LVL240
 8554 3149 2D300000 		.4byte	0x302d
 8555 314d 3E       		.uleb128 0x3e
 8556 314e 01       		.uleb128 0x1
 8557 314f 50       		.byte	0x50
 8558 3150 02       		.uleb128 0x2
 8559 3151 74       		.byte	0x74
 8560 3152 00       		.sleb128 0
 8561 3153 3E       		.uleb128 0x3e
 8562 3154 01       		.uleb128 0x1
 8563 3155 51       		.byte	0x51
 8564 3156 01       		.uleb128 0x1
 8565 3157 30       		.byte	0x30
 8566 3158 3E       		.uleb128 0x3e
 8567 3159 01       		.uleb128 0x1
 8568 315a 52       		.byte	0x52
 8569 315b 01       		.uleb128 0x1
 8570 315c 30       		.byte	0x30
 8571 315d 00       		.byte	0
 8572 315e 00       		.byte	0
 8573 315f 4C       		.uleb128 0x4c
 8574 3160 D60E0000 		.4byte	.LASF594
 8575 3164 02       		.byte	0x2
 8576 3165 68       		.byte	0x68
 8577 3166 00000000 		.4byte	.LFB161
 8578 316a 44000000 		.4byte	.LFE161-.LFB161
ARM GAS  C:\Users\haske\AppData\Local\Temp\cc11ZRIl.s 			page 184


 8579 316e 01       		.uleb128 0x1
 8580 316f 9C       		.byte	0x9c
 8581 3170 CD310000 		.4byte	0x31cd
 8582 3174 31       		.uleb128 0x31
 8583 3175 6F626A00 		.ascii	"obj\000"
 8584 3179 02       		.byte	0x2
 8585 317a 68       		.byte	0x68
 8586 317b 061C0000 		.4byte	0x1c06
 8587 317f 280D0000 		.4byte	.LLST116
 8588 3183 46       		.uleb128 0x46
 8589 3184 750A0000 		.4byte	.LASF213
 8590 3188 02       		.byte	0x2
 8591 3189 68       		.byte	0x68
 8592 318a D9000000 		.4byte	0xd9
 8593 318e 560D0000 		.4byte	.LLST117
 8594 3192 46       		.uleb128 0x46
 8595 3193 290B0000 		.4byte	.LASF591
 8596 3197 02       		.byte	0x2
 8597 3198 68       		.byte	0x68
 8598 3199 17040000 		.4byte	0x417
 8599 319d 820D0000 		.4byte	.LLST118
 8600 31a1 32       		.uleb128 0x32
 8601 31a2 62617200 		.ascii	"bar\000"
 8602 31a6 02       		.byte	0x2
 8603 31a7 6C       		.byte	0x6c
 8604 31a8 B4290000 		.4byte	0x29b4
 8605 31ac A30D0000 		.4byte	.LLST119
 8606 31b0 3D       		.uleb128 0x3d
 8607 31b1 40000000 		.4byte	.LVL248
 8608 31b5 BA2D0000 		.4byte	0x2dba
 8609 31b9 3E       		.uleb128 0x3e
 8610 31ba 01       		.uleb128 0x1
 8611 31bb 50       		.byte	0x50
 8612 31bc 02       		.uleb128 0x2
 8613 31bd 74       		.byte	0x74
 8614 31be 50       		.sleb128 -48
 8615 31bf 3E       		.uleb128 0x3e
 8616 31c0 01       		.uleb128 0x1
 8617 31c1 52       		.byte	0x52
 8618 31c2 02       		.uleb128 0x2
 8619 31c3 74       		.byte	0x74
 8620 31c4 00       		.sleb128 0
 8621 31c5 3E       		.uleb128 0x3e
 8622 31c6 01       		.uleb128 0x1
 8623 31c7 53       		.byte	0x53
 8624 31c8 02       		.uleb128 0x2
 8625 31c9 74       		.byte	0x74
 8626 31ca 1C       		.sleb128 28
 8627 31cb 00       		.byte	0
 8628 31cc 00       		.byte	0
 8629 31cd 4C       		.uleb128 0x4c
 8630 31ce 371E0000 		.4byte	.LASF595
 8631 31d2 02       		.byte	0x2
 8632 31d3 92       		.byte	0x92
 8633 31d4 00000000 		.4byte	.LFB163
 8634 31d8 26000000 		.4byte	.LFE163-.LFB163
 8635 31dc 01       		.uleb128 0x1
ARM GAS  C:\Users\haske\AppData\Local\Temp\cc11ZRIl.s 			page 185


 8636 31dd 9C       		.byte	0x9c
 8637 31de 19320000 		.4byte	0x3219
 8638 31e2 31       		.uleb128 0x31
 8639 31e3 6F626A00 		.ascii	"obj\000"
 8640 31e7 02       		.byte	0x2
 8641 31e8 92       		.byte	0x92
 8642 31e9 061C0000 		.4byte	0x1c06
 8643 31ed D10D0000 		.4byte	.LLST120
 8644 31f1 46       		.uleb128 0x46
 8645 31f2 9D1F0000 		.4byte	.LASF519
 8646 31f6 02       		.byte	0x2
 8647 31f7 92       		.byte	0x92
 8648 31f8 C21B0000 		.4byte	0x1bc2
 8649 31fc F20D0000 		.4byte	.LLST121
 8650 3200 32       		.uleb128 0x32
 8651 3201 62617200 		.ascii	"bar\000"
 8652 3205 02       		.byte	0x2
 8653 3206 95       		.byte	0x95
 8654 3207 B4290000 		.4byte	0x29b4
 8655 320b 130E0000 		.4byte	.LLST122
 8656 320f 47       		.uleb128 0x47
 8657 3210 24000000 		.4byte	.LVL252
 8658 3214 EE340000 		.4byte	0x34ee
 8659 3218 00       		.byte	0
 8660 3219 4B       		.uleb128 0x4b
 8661 321a 30060000 		.4byte	.LASF597
 8662 321e 02       		.byte	0x2
 8663 321f A3       		.byte	0xa3
 8664 3220 D9000000 		.4byte	0xd9
 8665 3224 00000000 		.4byte	.LFB164
 8666 3228 0E000000 		.4byte	.LFE164-.LFB164
 8667 322c 01       		.uleb128 0x1
 8668 322d 9C       		.byte	0x9c
 8669 322e 51320000 		.4byte	0x3251
 8670 3232 31       		.uleb128 0x31
 8671 3233 6F626A00 		.ascii	"obj\000"
 8672 3237 02       		.byte	0x2
 8673 3238 A3       		.byte	0xa3
 8674 3239 51320000 		.4byte	0x3251
 8675 323d 340E0000 		.4byte	.LLST123
 8676 3241 32       		.uleb128 0x32
 8677 3242 62617200 		.ascii	"bar\000"
 8678 3246 02       		.byte	0x2
 8679 3247 A6       		.byte	0xa6
 8680 3248 B4290000 		.4byte	0x29b4
 8681 324c 6E0E0000 		.4byte	.LLST124
 8682 3250 00       		.byte	0
 8683 3251 0B       		.uleb128 0xb
 8684 3252 04       		.byte	0x4
 8685 3253 57320000 		.4byte	0x3257
 8686 3257 0C       		.uleb128 0xc
 8687 3258 981B0000 		.4byte	0x1b98
 8688 325c 4B       		.uleb128 0x4b
 8689 325d BD130000 		.4byte	.LASF598
 8690 3261 02       		.byte	0x2
 8691 3262 AB       		.byte	0xab
 8692 3263 D9000000 		.4byte	0xd9
ARM GAS  C:\Users\haske\AppData\Local\Temp\cc11ZRIl.s 			page 186


 8693 3267 00000000 		.4byte	.LFB165
 8694 326b 1E000000 		.4byte	.LFE165-.LFB165
 8695 326f 01       		.uleb128 0x1
 8696 3270 9C       		.byte	0x9c
 8697 3271 94320000 		.4byte	0x3294
 8698 3275 31       		.uleb128 0x31
 8699 3276 6F626A00 		.ascii	"obj\000"
 8700 327a 02       		.byte	0x2
 8701 327b AB       		.byte	0xab
 8702 327c 51320000 		.4byte	0x3251
 8703 3280 A80E0000 		.4byte	.LLST125
 8704 3284 32       		.uleb128 0x32
 8705 3285 62617200 		.ascii	"bar\000"
 8706 3289 02       		.byte	0x2
 8707 328a AE       		.byte	0xae
 8708 328b B4290000 		.4byte	0x29b4
 8709 328f FB0E0000 		.4byte	.LLST126
 8710 3293 00       		.byte	0
 8711 3294 4B       		.uleb128 0x4b
 8712 3295 5F190000 		.4byte	.LASF599
 8713 3299 02       		.byte	0x2
 8714 329a B5       		.byte	0xb5
 8715 329b D9000000 		.4byte	0xd9
 8716 329f 00000000 		.4byte	.LFB166
 8717 32a3 04000000 		.4byte	.LFE166-.LFB166
 8718 32a7 01       		.uleb128 0x1
 8719 32a8 9C       		.byte	0x9c
 8720 32a9 CC320000 		.4byte	0x32cc
 8721 32ad 31       		.uleb128 0x31
 8722 32ae 6F626A00 		.ascii	"obj\000"
 8723 32b2 02       		.byte	0x2
 8724 32b3 B5       		.byte	0xb5
 8725 32b4 51320000 		.4byte	0x3251
 8726 32b8 4E0F0000 		.4byte	.LLST127
 8727 32bc 32       		.uleb128 0x32
 8728 32bd 62617200 		.ascii	"bar\000"
 8729 32c1 02       		.byte	0x2
 8730 32c2 B8       		.byte	0xb8
 8731 32c3 B4290000 		.4byte	0x29b4
 8732 32c7 6F0F0000 		.4byte	.LLST128
 8733 32cb 00       		.byte	0
 8734 32cc 4B       		.uleb128 0x4b
 8735 32cd A0160000 		.4byte	.LASF600
 8736 32d1 02       		.byte	0x2
 8737 32d2 BC       		.byte	0xbc
 8738 32d3 D9000000 		.4byte	0xd9
 8739 32d7 00000000 		.4byte	.LFB167
 8740 32db 04000000 		.4byte	.LFE167-.LFB167
 8741 32df 01       		.uleb128 0x1
 8742 32e0 9C       		.byte	0x9c
 8743 32e1 04330000 		.4byte	0x3304
 8744 32e5 31       		.uleb128 0x31
 8745 32e6 6F626A00 		.ascii	"obj\000"
 8746 32ea 02       		.byte	0x2
 8747 32eb BC       		.byte	0xbc
 8748 32ec 51320000 		.4byte	0x3251
 8749 32f0 900F0000 		.4byte	.LLST129
ARM GAS  C:\Users\haske\AppData\Local\Temp\cc11ZRIl.s 			page 187


 8750 32f4 32       		.uleb128 0x32
 8751 32f5 62617200 		.ascii	"bar\000"
 8752 32f9 02       		.byte	0x2
 8753 32fa BF       		.byte	0xbf
 8754 32fb B4290000 		.4byte	0x29b4
 8755 32ff B10F0000 		.4byte	.LLST130
 8756 3303 00       		.byte	0
 8757 3304 4B       		.uleb128 0x4b
 8758 3305 D51A0000 		.4byte	.LASF601
 8759 3309 02       		.byte	0x2
 8760 330a C4       		.byte	0xc4
 8761 330b C21B0000 		.4byte	0x1bc2
 8762 330f 00000000 		.4byte	.LFB168
 8763 3313 0A000000 		.4byte	.LFE168-.LFB168
 8764 3317 01       		.uleb128 0x1
 8765 3318 9C       		.byte	0x9c
 8766 3319 3C330000 		.4byte	0x333c
 8767 331d 31       		.uleb128 0x31
 8768 331e 6F626A00 		.ascii	"obj\000"
 8769 3322 02       		.byte	0x2
 8770 3323 C4       		.byte	0xc4
 8771 3324 061C0000 		.4byte	0x1c06
 8772 3328 D20F0000 		.4byte	.LLST131
 8773 332c 32       		.uleb128 0x32
 8774 332d 62617200 		.ascii	"bar\000"
 8775 3331 02       		.byte	0x2
 8776 3332 C7       		.byte	0xc7
 8777 3333 B4290000 		.4byte	0x29b4
 8778 3337 F30F0000 		.4byte	.LLST132
 8779 333b 00       		.byte	0
 8780 333c 4C       		.uleb128 0x4c
 8781 333d 7D0F0000 		.4byte	.LASF602
 8782 3341 02       		.byte	0x2
 8783 3342 79       		.byte	0x79
 8784 3343 00000000 		.4byte	.LFB162
 8785 3347 50000000 		.4byte	.LFE162-.LFB162
 8786 334b 01       		.uleb128 0x1
 8787 334c 9C       		.byte	0x9c
 8788 334d F0330000 		.4byte	0x33f0
 8789 3351 31       		.uleb128 0x31
 8790 3352 6F626A00 		.ascii	"obj\000"
 8791 3356 02       		.byte	0x2
 8792 3357 79       		.byte	0x79
 8793 3358 061C0000 		.4byte	0x1c06
 8794 335c 14100000 		.4byte	.LLST133
 8795 3360 31       		.uleb128 0x31
 8796 3361 6D696E00 		.ascii	"min\000"
 8797 3365 02       		.byte	0x2
 8798 3366 79       		.byte	0x79
 8799 3367 D9000000 		.4byte	0xd9
 8800 336b 40100000 		.4byte	.LLST134
 8801 336f 31       		.uleb128 0x31
 8802 3370 6D617800 		.ascii	"max\000"
 8803 3374 02       		.byte	0x2
 8804 3375 79       		.byte	0x79
 8805 3376 D9000000 		.4byte	0xd9
 8806 337a 6C100000 		.4byte	.LLST135
ARM GAS  C:\Users\haske\AppData\Local\Temp\cc11ZRIl.s 			page 188


 8807 337e 32       		.uleb128 0x32
 8808 337f 62617200 		.ascii	"bar\000"
 8809 3383 02       		.byte	0x2
 8810 3384 7D       		.byte	0x7d
 8811 3385 B4290000 		.4byte	0x29b4
 8812 3389 98100000 		.4byte	.LLST136
 8813 338d 41       		.uleb128 0x41
 8814 338e 1E000000 		.4byte	.LVL272
 8815 3392 04330000 		.4byte	0x3304
 8816 3396 A1330000 		.4byte	0x33a1
 8817 339a 3E       		.uleb128 0x3e
 8818 339b 01       		.uleb128 0x1
 8819 339c 50       		.byte	0x50
 8820 339d 02       		.uleb128 0x2
 8821 339e 74       		.byte	0x74
 8822 339f 00       		.sleb128 0
 8823 33a0 00       		.byte	0
 8824 33a1 41       		.uleb128 0x41
 8825 33a2 36000000 		.4byte	.LVL273
 8826 33a6 2D300000 		.4byte	0x302d
 8827 33aa C0330000 		.4byte	0x33c0
 8828 33ae 3E       		.uleb128 0x3e
 8829 33af 01       		.uleb128 0x1
 8830 33b0 50       		.byte	0x50
 8831 33b1 02       		.uleb128 0x2
 8832 33b2 74       		.byte	0x74
 8833 33b3 00       		.sleb128 0
 8834 33b4 3E       		.uleb128 0x3e
 8835 33b5 01       		.uleb128 0x1
 8836 33b6 51       		.byte	0x51
 8837 33b7 02       		.uleb128 0x2
 8838 33b8 76       		.byte	0x76
 8839 33b9 00       		.sleb128 0
 8840 33ba 3E       		.uleb128 0x3e
 8841 33bb 01       		.uleb128 0x1
 8842 33bc 52       		.byte	0x52
 8843 33bd 01       		.uleb128 0x1
 8844 33be 30       		.byte	0x30
 8845 33bf 00       		.byte	0
 8846 33c0 41       		.uleb128 0x41
 8847 33c1 48000000 		.4byte	.LVL274
 8848 33c5 2D300000 		.4byte	0x302d
 8849 33c9 DF330000 		.4byte	0x33df
 8850 33cd 3E       		.uleb128 0x3e
 8851 33ce 01       		.uleb128 0x1
 8852 33cf 50       		.byte	0x50
 8853 33d0 02       		.uleb128 0x2
 8854 33d1 74       		.byte	0x74
 8855 33d2 00       		.sleb128 0
 8856 33d3 3E       		.uleb128 0x3e
 8857 33d4 01       		.uleb128 0x1
 8858 33d5 51       		.byte	0x51
 8859 33d6 02       		.uleb128 0x2
 8860 33d7 75       		.byte	0x75
 8861 33d8 00       		.sleb128 0
 8862 33d9 3E       		.uleb128 0x3e
 8863 33da 01       		.uleb128 0x1
ARM GAS  C:\Users\haske\AppData\Local\Temp\cc11ZRIl.s 			page 189


 8864 33db 52       		.byte	0x52
 8865 33dc 01       		.uleb128 0x1
 8866 33dd 30       		.byte	0x30
 8867 33de 00       		.byte	0
 8868 33df 3D       		.uleb128 0x3d
 8869 33e0 4E000000 		.4byte	.LVL275
 8870 33e4 EE340000 		.4byte	0x34ee
 8871 33e8 3E       		.uleb128 0x3e
 8872 33e9 01       		.uleb128 0x1
 8873 33ea 50       		.byte	0x50
 8874 33eb 02       		.uleb128 0x2
 8875 33ec 74       		.byte	0x74
 8876 33ed 00       		.sleb128 0
 8877 33ee 00       		.byte	0
 8878 33ef 00       		.byte	0
 8879 33f0 4D       		.uleb128 0x4d
 8880 33f1 701F0000 		.4byte	.LASF603
 8881 33f5 08       		.byte	0x8
 8882 33f6 94       		.byte	0x94
 8883 33f7 130D0000 		.4byte	0xd13
 8884 33fb 4D       		.uleb128 0x4d
 8885 33fc 3E1D0000 		.4byte	.LASF604
 8886 3400 0F       		.byte	0xf
 8887 3401 95       		.byte	0x95
 8888 3402 871B0000 		.4byte	0x1b87
 8889 3406 4E       		.uleb128 0x4e
 8890 3407 97190000 		.4byte	.LASF605
 8891 340b 02       		.byte	0x2
 8892 340c 3C       		.byte	0x3c
 8893 340d 871B0000 		.4byte	0x1b87
 8894 3411 05       		.uleb128 0x5
 8895 3412 03       		.byte	0x3
 8896 3413 00000000 		.4byte	lv_bar_class
 8897 3417 4F       		.uleb128 0x4f
 8898 3418 991B0000 		.4byte	.LASF606
 8899 341c 991B0000 		.4byte	.LASF606
 8900 3420 1B       		.byte	0x1b
 8901 3421 83       		.byte	0x83
 8902 3422 4F       		.uleb128 0x4f
 8903 3423 07170000 		.4byte	.LASF607
 8904 3427 07170000 		.4byte	.LASF607
 8905 342b 1C       		.byte	0x1c
 8906 342c 88       		.byte	0x88
 8907 342d 4F       		.uleb128 0x4f
 8908 342e 92040000 		.4byte	.LASF608
 8909 3432 92040000 		.4byte	.LASF608
 8910 3436 1E       		.byte	0x1e
 8911 3437 92       		.byte	0x92
 8912 3438 4F       		.uleb128 0x4f
 8913 3439 841A0000 		.4byte	.LASF609
 8914 343d 841A0000 		.4byte	.LASF609
 8915 3441 10       		.byte	0x10
 8916 3442 56       		.byte	0x56
 8917 3443 4F       		.uleb128 0x4f
 8918 3444 43100000 		.4byte	.LASF610
 8919 3448 43100000 		.4byte	.LASF610
 8920 344c 1E       		.byte	0x1e
ARM GAS  C:\Users\haske\AppData\Local\Temp\cc11ZRIl.s 			page 190


 8921 344d A1       		.byte	0xa1
 8922 344e 50       		.uleb128 0x50
 8923 344f EF110000 		.4byte	.LASF611
 8924 3453 EF110000 		.4byte	.LASF611
 8925 3457 1E       		.byte	0x1e
 8926 3458 2701     		.2byte	0x127
 8927 345a 4F       		.uleb128 0x4f
 8928 345b 32230000 		.4byte	.LASF612
 8929 345f 32230000 		.4byte	.LASF612
 8930 3463 20       		.byte	0x20
 8931 3464 D2       		.byte	0xd2
 8932 3465 4F       		.uleb128 0x4f
 8933 3466 300F0000 		.4byte	.LASF613
 8934 346a 300F0000 		.4byte	.LASF613
 8935 346e 10       		.byte	0x10
 8936 346f 4D       		.byte	0x4d
 8937 3470 4F       		.uleb128 0x4f
 8938 3471 ED160000 		.4byte	.LASF614
 8939 3475 ED160000 		.4byte	.LASF614
 8940 3479 1C       		.byte	0x1c
 8941 347a 53       		.byte	0x53
 8942 347b 50       		.uleb128 0x50
 8943 347c E61D0000 		.4byte	.LASF615
 8944 3480 E61D0000 		.4byte	.LASF615
 8945 3484 15       		.byte	0x15
 8946 3485 6701     		.2byte	0x167
 8947 3487 4F       		.uleb128 0x4f
 8948 3488 F7140000 		.4byte	.LASF616
 8949 348c F7140000 		.4byte	.LASF616
 8950 3490 15       		.byte	0x15
 8951 3491 E5       		.byte	0xe5
 8952 3492 50       		.uleb128 0x50
 8953 3493 C1240000 		.4byte	.LASF617
 8954 3497 C1240000 		.4byte	.LASF617
 8955 349b 15       		.byte	0x15
 8956 349c 2001     		.2byte	0x120
 8957 349e 50       		.uleb128 0x50
 8958 349f 80140000 		.4byte	.LASF618
 8959 34a3 80140000 		.4byte	.LASF618
 8960 34a7 15       		.byte	0x15
 8961 34a8 0F01     		.2byte	0x10f
 8962 34aa 4F       		.uleb128 0x4f
 8963 34ab AA0B0000 		.4byte	.LASF619
 8964 34af AA0B0000 		.4byte	.LASF619
 8965 34b3 1C       		.byte	0x1c
 8966 34b4 81       		.byte	0x81
 8967 34b5 4F       		.uleb128 0x4f
 8968 34b6 D4130000 		.4byte	.LASF620
 8969 34ba D4130000 		.4byte	.LASF620
 8970 34be 1E       		.byte	0x1e
 8971 34bf B7       		.byte	0xb7
 8972 34c0 50       		.uleb128 0x50
 8973 34c1 D8190000 		.4byte	.LASF621
 8974 34c5 D8190000 		.4byte	.LASF621
 8975 34c9 20       		.byte	0x20
 8976 34ca 7701     		.2byte	0x177
 8977 34cc 4F       		.uleb128 0x4f
ARM GAS  C:\Users\haske\AppData\Local\Temp\cc11ZRIl.s 			page 191


 8978 34cd 95200000 		.4byte	.LASF622
 8979 34d1 95200000 		.4byte	.LASF622
 8980 34d5 1E       		.byte	0x1e
 8981 34d6 9A       		.byte	0x9a
 8982 34d7 4F       		.uleb128 0x4f
 8983 34d8 5B160000 		.4byte	.LASF623
 8984 34dc 5B160000 		.4byte	.LASF623
 8985 34e0 1E       		.byte	0x1e
 8986 34e1 B0       		.byte	0xb0
 8987 34e2 50       		.uleb128 0x50
 8988 34e3 35070000 		.4byte	.LASF624
 8989 34e7 35070000 		.4byte	.LASF624
 8990 34eb 04       		.byte	0x4
 8991 34ec 5C01     		.2byte	0x15c
 8992 34ee 50       		.uleb128 0x50
 8993 34ef 48250000 		.4byte	.LASF625
 8994 34f3 48250000 		.4byte	.LASF625
 8995 34f7 20       		.byte	0x20
 8996 34f8 7D01     		.2byte	0x17d
 8997 34fa 4F       		.uleb128 0x4f
 8998 34fb D3210000 		.4byte	.LASF626
 8999 34ff D3210000 		.4byte	.LASF626
 9000 3503 04       		.byte	0x4
 9001 3504 77       		.byte	0x77
 9002 3505 50       		.uleb128 0x50
 9003 3506 961D0000 		.4byte	.LASF627
 9004 350a 961D0000 		.4byte	.LASF627
 9005 350e 04       		.byte	0x4
 9006 350f 3601     		.2byte	0x136
 9007 3511 4F       		.uleb128 0x4f
 9008 3512 37170000 		.4byte	.LASF628
 9009 3516 37170000 		.4byte	.LASF628
 9010 351a 1D       		.byte	0x1d
 9011 351b 4B       		.byte	0x4b
 9012 351c 4F       		.uleb128 0x4f
 9013 351d 9A0C0000 		.4byte	.LASF629
 9014 3521 9A0C0000 		.4byte	.LASF629
 9015 3525 1D       		.byte	0x1d
 9016 3526 4D       		.byte	0x4d
 9017 3527 4F       		.uleb128 0x4f
 9018 3528 4F170000 		.4byte	.LASF630
 9019 352c 4F170000 		.4byte	.LASF630
 9020 3530 0F       		.byte	0xf
 9021 3531 F3       		.byte	0xf3
 9022 3532 00       		.byte	0
 9023              		.section	.debug_abbrev,"",%progbits
 9024              	.Ldebug_abbrev0:
 9025 0000 01       		.uleb128 0x1
 9026 0001 11       		.uleb128 0x11
 9027 0002 01       		.byte	0x1
 9028 0003 25       		.uleb128 0x25
 9029 0004 0E       		.uleb128 0xe
 9030 0005 13       		.uleb128 0x13
 9031 0006 0B       		.uleb128 0xb
 9032 0007 03       		.uleb128 0x3
 9033 0008 0E       		.uleb128 0xe
 9034 0009 1B       		.uleb128 0x1b
ARM GAS  C:\Users\haske\AppData\Local\Temp\cc11ZRIl.s 			page 192


 9035 000a 0E       		.uleb128 0xe
 9036 000b 55       		.uleb128 0x55
 9037 000c 17       		.uleb128 0x17
 9038 000d 11       		.uleb128 0x11
 9039 000e 01       		.uleb128 0x1
 9040 000f 10       		.uleb128 0x10
 9041 0010 17       		.uleb128 0x17
 9042 0011 00       		.byte	0
 9043 0012 00       		.byte	0
 9044 0013 02       		.uleb128 0x2
 9045 0014 16       		.uleb128 0x16
 9046 0015 00       		.byte	0
 9047 0016 03       		.uleb128 0x3
 9048 0017 0E       		.uleb128 0xe
 9049 0018 3A       		.uleb128 0x3a
 9050 0019 0B       		.uleb128 0xb
 9051 001a 3B       		.uleb128 0x3b
 9052 001b 0B       		.uleb128 0xb
 9053 001c 49       		.uleb128 0x49
 9054 001d 13       		.uleb128 0x13
 9055 001e 00       		.byte	0
 9056 001f 00       		.byte	0
 9057 0020 03       		.uleb128 0x3
 9058 0021 24       		.uleb128 0x24
 9059 0022 00       		.byte	0
 9060 0023 0B       		.uleb128 0xb
 9061 0024 0B       		.uleb128 0xb
 9062 0025 3E       		.uleb128 0x3e
 9063 0026 0B       		.uleb128 0xb
 9064 0027 03       		.uleb128 0x3
 9065 0028 0E       		.uleb128 0xe
 9066 0029 00       		.byte	0
 9067 002a 00       		.byte	0
 9068 002b 04       		.uleb128 0x4
 9069 002c 24       		.uleb128 0x24
 9070 002d 00       		.byte	0
 9071 002e 0B       		.uleb128 0xb
 9072 002f 0B       		.uleb128 0xb
 9073 0030 3E       		.uleb128 0x3e
 9074 0031 0B       		.uleb128 0xb
 9075 0032 03       		.uleb128 0x3
 9076 0033 08       		.uleb128 0x8
 9077 0034 00       		.byte	0
 9078 0035 00       		.byte	0
 9079 0036 05       		.uleb128 0x5
 9080 0037 13       		.uleb128 0x13
 9081 0038 01       		.byte	0x1
 9082 0039 0B       		.uleb128 0xb
 9083 003a 0B       		.uleb128 0xb
 9084 003b 3A       		.uleb128 0x3a
 9085 003c 0B       		.uleb128 0xb
 9086 003d 3B       		.uleb128 0x3b
 9087 003e 0B       		.uleb128 0xb
 9088 003f 01       		.uleb128 0x1
 9089 0040 13       		.uleb128 0x13
 9090 0041 00       		.byte	0
 9091 0042 00       		.byte	0
ARM GAS  C:\Users\haske\AppData\Local\Temp\cc11ZRIl.s 			page 193


 9092 0043 06       		.uleb128 0x6
 9093 0044 0D       		.uleb128 0xd
 9094 0045 00       		.byte	0
 9095 0046 03       		.uleb128 0x3
 9096 0047 08       		.uleb128 0x8
 9097 0048 3A       		.uleb128 0x3a
 9098 0049 0B       		.uleb128 0xb
 9099 004a 3B       		.uleb128 0x3b
 9100 004b 0B       		.uleb128 0xb
 9101 004c 49       		.uleb128 0x49
 9102 004d 13       		.uleb128 0x13
 9103 004e 38       		.uleb128 0x38
 9104 004f 0B       		.uleb128 0xb
 9105 0050 00       		.byte	0
 9106 0051 00       		.byte	0
 9107 0052 07       		.uleb128 0x7
 9108 0053 0D       		.uleb128 0xd
 9109 0054 00       		.byte	0
 9110 0055 03       		.uleb128 0x3
 9111 0056 0E       		.uleb128 0xe
 9112 0057 3A       		.uleb128 0x3a
 9113 0058 0B       		.uleb128 0xb
 9114 0059 3B       		.uleb128 0x3b
 9115 005a 0B       		.uleb128 0xb
 9116 005b 49       		.uleb128 0x49
 9117 005c 13       		.uleb128 0x13
 9118 005d 38       		.uleb128 0x38
 9119 005e 0B       		.uleb128 0xb
 9120 005f 00       		.byte	0
 9121 0060 00       		.byte	0
 9122 0061 08       		.uleb128 0x8
 9123 0062 0D       		.uleb128 0xd
 9124 0063 00       		.byte	0
 9125 0064 03       		.uleb128 0x3
 9126 0065 08       		.uleb128 0x8
 9127 0066 3A       		.uleb128 0x3a
 9128 0067 0B       		.uleb128 0xb
 9129 0068 3B       		.uleb128 0x3b
 9130 0069 0B       		.uleb128 0xb
 9131 006a 49       		.uleb128 0x49
 9132 006b 13       		.uleb128 0x13
 9133 006c 0B       		.uleb128 0xb
 9134 006d 0B       		.uleb128 0xb
 9135 006e 0D       		.uleb128 0xd
 9136 006f 0B       		.uleb128 0xb
 9137 0070 0C       		.uleb128 0xc
 9138 0071 0B       		.uleb128 0xb
 9139 0072 38       		.uleb128 0x38
 9140 0073 0B       		.uleb128 0xb
 9141 0074 00       		.byte	0
 9142 0075 00       		.byte	0
 9143 0076 09       		.uleb128 0x9
 9144 0077 0D       		.uleb128 0xd
 9145 0078 00       		.byte	0
 9146 0079 03       		.uleb128 0x3
 9147 007a 0E       		.uleb128 0xe
 9148 007b 3A       		.uleb128 0x3a
ARM GAS  C:\Users\haske\AppData\Local\Temp\cc11ZRIl.s 			page 194


 9149 007c 0B       		.uleb128 0xb
 9150 007d 3B       		.uleb128 0x3b
 9151 007e 0B       		.uleb128 0xb
 9152 007f 49       		.uleb128 0x49
 9153 0080 13       		.uleb128 0x13
 9154 0081 0B       		.uleb128 0xb
 9155 0082 0B       		.uleb128 0xb
 9156 0083 0D       		.uleb128 0xd
 9157 0084 0B       		.uleb128 0xb
 9158 0085 0C       		.uleb128 0xc
 9159 0086 0B       		.uleb128 0xb
 9160 0087 38       		.uleb128 0x38
 9161 0088 0B       		.uleb128 0xb
 9162 0089 00       		.byte	0
 9163 008a 00       		.byte	0
 9164 008b 0A       		.uleb128 0xa
 9165 008c 13       		.uleb128 0x13
 9166 008d 01       		.byte	0x1
 9167 008e 03       		.uleb128 0x3
 9168 008f 0E       		.uleb128 0xe
 9169 0090 0B       		.uleb128 0xb
 9170 0091 0B       		.uleb128 0xb
 9171 0092 3A       		.uleb128 0x3a
 9172 0093 0B       		.uleb128 0xb
 9173 0094 3B       		.uleb128 0x3b
 9174 0095 0B       		.uleb128 0xb
 9175 0096 01       		.uleb128 0x1
 9176 0097 13       		.uleb128 0x13
 9177 0098 00       		.byte	0
 9178 0099 00       		.byte	0
 9179 009a 0B       		.uleb128 0xb
 9180 009b 0F       		.uleb128 0xf
 9181 009c 00       		.byte	0
 9182 009d 0B       		.uleb128 0xb
 9183 009e 0B       		.uleb128 0xb
 9184 009f 49       		.uleb128 0x49
 9185 00a0 13       		.uleb128 0x13
 9186 00a1 00       		.byte	0
 9187 00a2 00       		.byte	0
 9188 00a3 0C       		.uleb128 0xc
 9189 00a4 26       		.uleb128 0x26
 9190 00a5 00       		.byte	0
 9191 00a6 49       		.uleb128 0x49
 9192 00a7 13       		.uleb128 0x13
 9193 00a8 00       		.byte	0
 9194 00a9 00       		.byte	0
 9195 00aa 0D       		.uleb128 0xd
 9196 00ab 15       		.uleb128 0x15
 9197 00ac 01       		.byte	0x1
 9198 00ad 27       		.uleb128 0x27
 9199 00ae 19       		.uleb128 0x19
 9200 00af 49       		.uleb128 0x49
 9201 00b0 13       		.uleb128 0x13
 9202 00b1 01       		.uleb128 0x1
 9203 00b2 13       		.uleb128 0x13
 9204 00b3 00       		.byte	0
 9205 00b4 00       		.byte	0
ARM GAS  C:\Users\haske\AppData\Local\Temp\cc11ZRIl.s 			page 195


 9206 00b5 0E       		.uleb128 0xe
 9207 00b6 05       		.uleb128 0x5
 9208 00b7 00       		.byte	0
 9209 00b8 49       		.uleb128 0x49
 9210 00b9 13       		.uleb128 0x13
 9211 00ba 00       		.byte	0
 9212 00bb 00       		.byte	0
 9213 00bc 0F       		.uleb128 0xf
 9214 00bd 26       		.uleb128 0x26
 9215 00be 00       		.byte	0
 9216 00bf 00       		.byte	0
 9217 00c0 00       		.byte	0
 9218 00c1 10       		.uleb128 0x10
 9219 00c2 0F       		.uleb128 0xf
 9220 00c3 00       		.byte	0
 9221 00c4 0B       		.uleb128 0xb
 9222 00c5 0B       		.uleb128 0xb
 9223 00c6 00       		.byte	0
 9224 00c7 00       		.byte	0
 9225 00c8 11       		.uleb128 0x11
 9226 00c9 04       		.uleb128 0x4
 9227 00ca 01       		.byte	0x1
 9228 00cb 0B       		.uleb128 0xb
 9229 00cc 0B       		.uleb128 0xb
 9230 00cd 49       		.uleb128 0x49
 9231 00ce 13       		.uleb128 0x13
 9232 00cf 3A       		.uleb128 0x3a
 9233 00d0 0B       		.uleb128 0xb
 9234 00d1 3B       		.uleb128 0x3b
 9235 00d2 0B       		.uleb128 0xb
 9236 00d3 01       		.uleb128 0x1
 9237 00d4 13       		.uleb128 0x13
 9238 00d5 00       		.byte	0
 9239 00d6 00       		.byte	0
 9240 00d7 12       		.uleb128 0x12
 9241 00d8 28       		.uleb128 0x28
 9242 00d9 00       		.byte	0
 9243 00da 03       		.uleb128 0x3
 9244 00db 0E       		.uleb128 0xe
 9245 00dc 1C       		.uleb128 0x1c
 9246 00dd 0B       		.uleb128 0xb
 9247 00de 00       		.byte	0
 9248 00df 00       		.byte	0
 9249 00e0 13       		.uleb128 0x13
 9250 00e1 17       		.uleb128 0x17
 9251 00e2 01       		.byte	0x1
 9252 00e3 0B       		.uleb128 0xb
 9253 00e4 0B       		.uleb128 0xb
 9254 00e5 3A       		.uleb128 0x3a
 9255 00e6 0B       		.uleb128 0xb
 9256 00e7 3B       		.uleb128 0x3b
 9257 00e8 0B       		.uleb128 0xb
 9258 00e9 01       		.uleb128 0x1
 9259 00ea 13       		.uleb128 0x13
 9260 00eb 00       		.byte	0
 9261 00ec 00       		.byte	0
 9262 00ed 14       		.uleb128 0x14
ARM GAS  C:\Users\haske\AppData\Local\Temp\cc11ZRIl.s 			page 196


 9263 00ee 0D       		.uleb128 0xd
 9264 00ef 00       		.byte	0
 9265 00f0 03       		.uleb128 0x3
 9266 00f1 08       		.uleb128 0x8
 9267 00f2 3A       		.uleb128 0x3a
 9268 00f3 0B       		.uleb128 0xb
 9269 00f4 3B       		.uleb128 0x3b
 9270 00f5 0B       		.uleb128 0xb
 9271 00f6 49       		.uleb128 0x49
 9272 00f7 13       		.uleb128 0x13
 9273 00f8 00       		.byte	0
 9274 00f9 00       		.byte	0
 9275 00fa 15       		.uleb128 0x15
 9276 00fb 0D       		.uleb128 0xd
 9277 00fc 00       		.byte	0
 9278 00fd 03       		.uleb128 0x3
 9279 00fe 0E       		.uleb128 0xe
 9280 00ff 3A       		.uleb128 0x3a
 9281 0100 0B       		.uleb128 0xb
 9282 0101 3B       		.uleb128 0x3b
 9283 0102 0B       		.uleb128 0xb
 9284 0103 49       		.uleb128 0x49
 9285 0104 13       		.uleb128 0x13
 9286 0105 00       		.byte	0
 9287 0106 00       		.byte	0
 9288 0107 16       		.uleb128 0x16
 9289 0108 15       		.uleb128 0x15
 9290 0109 01       		.byte	0x1
 9291 010a 27       		.uleb128 0x27
 9292 010b 19       		.uleb128 0x19
 9293 010c 01       		.uleb128 0x1
 9294 010d 13       		.uleb128 0x13
 9295 010e 00       		.byte	0
 9296 010f 00       		.byte	0
 9297 0110 17       		.uleb128 0x17
 9298 0111 01       		.uleb128 0x1
 9299 0112 01       		.byte	0x1
 9300 0113 49       		.uleb128 0x49
 9301 0114 13       		.uleb128 0x13
 9302 0115 01       		.uleb128 0x1
 9303 0116 13       		.uleb128 0x13
 9304 0117 00       		.byte	0
 9305 0118 00       		.byte	0
 9306 0119 18       		.uleb128 0x18
 9307 011a 21       		.uleb128 0x21
 9308 011b 00       		.byte	0
 9309 011c 49       		.uleb128 0x49
 9310 011d 13       		.uleb128 0x13
 9311 011e 2F       		.uleb128 0x2f
 9312 011f 0B       		.uleb128 0xb
 9313 0120 00       		.byte	0
 9314 0121 00       		.byte	0
 9315 0122 19       		.uleb128 0x19
 9316 0123 28       		.uleb128 0x28
 9317 0124 00       		.byte	0
 9318 0125 03       		.uleb128 0x3
 9319 0126 0E       		.uleb128 0xe
ARM GAS  C:\Users\haske\AppData\Local\Temp\cc11ZRIl.s 			page 197


 9320 0127 1C       		.uleb128 0x1c
 9321 0128 05       		.uleb128 0x5
 9322 0129 00       		.byte	0
 9323 012a 00       		.byte	0
 9324 012b 1A       		.uleb128 0x1a
 9325 012c 16       		.uleb128 0x16
 9326 012d 00       		.byte	0
 9327 012e 03       		.uleb128 0x3
 9328 012f 0E       		.uleb128 0xe
 9329 0130 3A       		.uleb128 0x3a
 9330 0131 0B       		.uleb128 0xb
 9331 0132 3B       		.uleb128 0x3b
 9332 0133 05       		.uleb128 0x5
 9333 0134 49       		.uleb128 0x49
 9334 0135 13       		.uleb128 0x13
 9335 0136 00       		.byte	0
 9336 0137 00       		.byte	0
 9337 0138 1B       		.uleb128 0x1b
 9338 0139 13       		.uleb128 0x13
 9339 013a 01       		.byte	0x1
 9340 013b 0B       		.uleb128 0xb
 9341 013c 0B       		.uleb128 0xb
 9342 013d 3A       		.uleb128 0x3a
 9343 013e 0B       		.uleb128 0xb
 9344 013f 3B       		.uleb128 0x3b
 9345 0140 05       		.uleb128 0x5
 9346 0141 01       		.uleb128 0x1
 9347 0142 13       		.uleb128 0x13
 9348 0143 00       		.byte	0
 9349 0144 00       		.byte	0
 9350 0145 1C       		.uleb128 0x1c
 9351 0146 0D       		.uleb128 0xd
 9352 0147 00       		.byte	0
 9353 0148 03       		.uleb128 0x3
 9354 0149 0E       		.uleb128 0xe
 9355 014a 3A       		.uleb128 0x3a
 9356 014b 0B       		.uleb128 0xb
 9357 014c 3B       		.uleb128 0x3b
 9358 014d 05       		.uleb128 0x5
 9359 014e 49       		.uleb128 0x49
 9360 014f 13       		.uleb128 0x13
 9361 0150 38       		.uleb128 0x38
 9362 0151 0B       		.uleb128 0xb
 9363 0152 00       		.byte	0
 9364 0153 00       		.byte	0
 9365 0154 1D       		.uleb128 0x1d
 9366 0155 17       		.uleb128 0x17
 9367 0156 01       		.byte	0x1
 9368 0157 0B       		.uleb128 0xb
 9369 0158 0B       		.uleb128 0xb
 9370 0159 3A       		.uleb128 0x3a
 9371 015a 0B       		.uleb128 0xb
 9372 015b 3B       		.uleb128 0x3b
 9373 015c 05       		.uleb128 0x5
 9374 015d 01       		.uleb128 0x1
 9375 015e 13       		.uleb128 0x13
 9376 015f 00       		.byte	0
ARM GAS  C:\Users\haske\AppData\Local\Temp\cc11ZRIl.s 			page 198


 9377 0160 00       		.byte	0
 9378 0161 1E       		.uleb128 0x1e
 9379 0162 0D       		.uleb128 0xd
 9380 0163 00       		.byte	0
 9381 0164 03       		.uleb128 0x3
 9382 0165 0E       		.uleb128 0xe
 9383 0166 3A       		.uleb128 0x3a
 9384 0167 0B       		.uleb128 0xb
 9385 0168 3B       		.uleb128 0x3b
 9386 0169 05       		.uleb128 0x5
 9387 016a 49       		.uleb128 0x49
 9388 016b 13       		.uleb128 0x13
 9389 016c 00       		.byte	0
 9390 016d 00       		.byte	0
 9391 016e 1F       		.uleb128 0x1f
 9392 016f 0D       		.uleb128 0xd
 9393 0170 00       		.byte	0
 9394 0171 03       		.uleb128 0x3
 9395 0172 08       		.uleb128 0x8
 9396 0173 3A       		.uleb128 0x3a
 9397 0174 0B       		.uleb128 0xb
 9398 0175 3B       		.uleb128 0x3b
 9399 0176 05       		.uleb128 0x5
 9400 0177 49       		.uleb128 0x49
 9401 0178 13       		.uleb128 0x13
 9402 0179 38       		.uleb128 0x38
 9403 017a 0B       		.uleb128 0xb
 9404 017b 00       		.byte	0
 9405 017c 00       		.byte	0
 9406 017d 20       		.uleb128 0x20
 9407 017e 28       		.uleb128 0x28
 9408 017f 00       		.byte	0
 9409 0180 03       		.uleb128 0x3
 9410 0181 0E       		.uleb128 0xe
 9411 0182 1C       		.uleb128 0x1c
 9412 0183 06       		.uleb128 0x6
 9413 0184 00       		.byte	0
 9414 0185 00       		.byte	0
 9415 0186 21       		.uleb128 0x21
 9416 0187 13       		.uleb128 0x13
 9417 0188 00       		.byte	0
 9418 0189 03       		.uleb128 0x3
 9419 018a 0E       		.uleb128 0xe
 9420 018b 3C       		.uleb128 0x3c
 9421 018c 19       		.uleb128 0x19
 9422 018d 00       		.byte	0
 9423 018e 00       		.byte	0
 9424 018f 22       		.uleb128 0x22
 9425 0190 2E       		.uleb128 0x2e
 9426 0191 01       		.byte	0x1
 9427 0192 03       		.uleb128 0x3
 9428 0193 0E       		.uleb128 0xe
 9429 0194 3A       		.uleb128 0x3a
 9430 0195 0B       		.uleb128 0xb
 9431 0196 3B       		.uleb128 0x3b
 9432 0197 0B       		.uleb128 0xb
 9433 0198 27       		.uleb128 0x27
ARM GAS  C:\Users\haske\AppData\Local\Temp\cc11ZRIl.s 			page 199


 9434 0199 19       		.uleb128 0x19
 9435 019a 49       		.uleb128 0x49
 9436 019b 13       		.uleb128 0x13
 9437 019c 20       		.uleb128 0x20
 9438 019d 0B       		.uleb128 0xb
 9439 019e 01       		.uleb128 0x1
 9440 019f 13       		.uleb128 0x13
 9441 01a0 00       		.byte	0
 9442 01a1 00       		.byte	0
 9443 01a2 23       		.uleb128 0x23
 9444 01a3 05       		.uleb128 0x5
 9445 01a4 00       		.byte	0
 9446 01a5 03       		.uleb128 0x3
 9447 01a6 0E       		.uleb128 0xe
 9448 01a7 3A       		.uleb128 0x3a
 9449 01a8 0B       		.uleb128 0xb
 9450 01a9 3B       		.uleb128 0x3b
 9451 01aa 0B       		.uleb128 0xb
 9452 01ab 49       		.uleb128 0x49
 9453 01ac 13       		.uleb128 0x13
 9454 01ad 00       		.byte	0
 9455 01ae 00       		.byte	0
 9456 01af 24       		.uleb128 0x24
 9457 01b0 05       		.uleb128 0x5
 9458 01b1 00       		.byte	0
 9459 01b2 03       		.uleb128 0x3
 9460 01b3 08       		.uleb128 0x8
 9461 01b4 3A       		.uleb128 0x3a
 9462 01b5 0B       		.uleb128 0xb
 9463 01b6 3B       		.uleb128 0x3b
 9464 01b7 0B       		.uleb128 0xb
 9465 01b8 49       		.uleb128 0x49
 9466 01b9 13       		.uleb128 0x13
 9467 01ba 00       		.byte	0
 9468 01bb 00       		.byte	0
 9469 01bc 25       		.uleb128 0x25
 9470 01bd 34       		.uleb128 0x34
 9471 01be 00       		.byte	0
 9472 01bf 03       		.uleb128 0x3
 9473 01c0 08       		.uleb128 0x8
 9474 01c1 3A       		.uleb128 0x3a
 9475 01c2 0B       		.uleb128 0xb
 9476 01c3 3B       		.uleb128 0x3b
 9477 01c4 0B       		.uleb128 0xb
 9478 01c5 49       		.uleb128 0x49
 9479 01c6 13       		.uleb128 0x13
 9480 01c7 00       		.byte	0
 9481 01c8 00       		.byte	0
 9482 01c9 26       		.uleb128 0x26
 9483 01ca 2E       		.uleb128 0x2e
 9484 01cb 01       		.byte	0x1
 9485 01cc 03       		.uleb128 0x3
 9486 01cd 0E       		.uleb128 0xe
 9487 01ce 3A       		.uleb128 0x3a
 9488 01cf 0B       		.uleb128 0xb
 9489 01d0 3B       		.uleb128 0x3b
 9490 01d1 0B       		.uleb128 0xb
ARM GAS  C:\Users\haske\AppData\Local\Temp\cc11ZRIl.s 			page 200


 9491 01d2 27       		.uleb128 0x27
 9492 01d3 19       		.uleb128 0x19
 9493 01d4 20       		.uleb128 0x20
 9494 01d5 0B       		.uleb128 0xb
 9495 01d6 01       		.uleb128 0x1
 9496 01d7 13       		.uleb128 0x13
 9497 01d8 00       		.byte	0
 9498 01d9 00       		.byte	0
 9499 01da 27       		.uleb128 0x27
 9500 01db 2E       		.uleb128 0x2e
 9501 01dc 01       		.byte	0x1
 9502 01dd 03       		.uleb128 0x3
 9503 01de 0E       		.uleb128 0xe
 9504 01df 3A       		.uleb128 0x3a
 9505 01e0 0B       		.uleb128 0xb
 9506 01e1 3B       		.uleb128 0x3b
 9507 01e2 05       		.uleb128 0x5
 9508 01e3 27       		.uleb128 0x27
 9509 01e4 19       		.uleb128 0x19
 9510 01e5 49       		.uleb128 0x49
 9511 01e6 13       		.uleb128 0x13
 9512 01e7 20       		.uleb128 0x20
 9513 01e8 0B       		.uleb128 0xb
 9514 01e9 01       		.uleb128 0x1
 9515 01ea 13       		.uleb128 0x13
 9516 01eb 00       		.byte	0
 9517 01ec 00       		.byte	0
 9518 01ed 28       		.uleb128 0x28
 9519 01ee 05       		.uleb128 0x5
 9520 01ef 00       		.byte	0
 9521 01f0 03       		.uleb128 0x3
 9522 01f1 08       		.uleb128 0x8
 9523 01f2 3A       		.uleb128 0x3a
 9524 01f3 0B       		.uleb128 0xb
 9525 01f4 3B       		.uleb128 0x3b
 9526 01f5 05       		.uleb128 0x5
 9527 01f6 49       		.uleb128 0x49
 9528 01f7 13       		.uleb128 0x13
 9529 01f8 00       		.byte	0
 9530 01f9 00       		.byte	0
 9531 01fa 29       		.uleb128 0x29
 9532 01fb 05       		.uleb128 0x5
 9533 01fc 00       		.byte	0
 9534 01fd 03       		.uleb128 0x3
 9535 01fe 0E       		.uleb128 0xe
 9536 01ff 3A       		.uleb128 0x3a
 9537 0200 0B       		.uleb128 0xb
 9538 0201 3B       		.uleb128 0x3b
 9539 0202 05       		.uleb128 0x5
 9540 0203 49       		.uleb128 0x49
 9541 0204 13       		.uleb128 0x13
 9542 0205 00       		.byte	0
 9543 0206 00       		.byte	0
 9544 0207 2A       		.uleb128 0x2a
 9545 0208 34       		.uleb128 0x34
 9546 0209 00       		.byte	0
 9547 020a 03       		.uleb128 0x3
ARM GAS  C:\Users\haske\AppData\Local\Temp\cc11ZRIl.s 			page 201


 9548 020b 08       		.uleb128 0x8
 9549 020c 3A       		.uleb128 0x3a
 9550 020d 0B       		.uleb128 0xb
 9551 020e 3B       		.uleb128 0x3b
 9552 020f 05       		.uleb128 0x5
 9553 0210 49       		.uleb128 0x49
 9554 0211 13       		.uleb128 0x13
 9555 0212 00       		.byte	0
 9556 0213 00       		.byte	0
 9557 0214 2B       		.uleb128 0x2b
 9558 0215 2E       		.uleb128 0x2e
 9559 0216 01       		.byte	0x1
 9560 0217 31       		.uleb128 0x31
 9561 0218 13       		.uleb128 0x13
 9562 0219 11       		.uleb128 0x11
 9563 021a 01       		.uleb128 0x1
 9564 021b 12       		.uleb128 0x12
 9565 021c 06       		.uleb128 0x6
 9566 021d 40       		.uleb128 0x40
 9567 021e 18       		.uleb128 0x18
 9568 021f 9742     		.uleb128 0x2117
 9569 0221 19       		.uleb128 0x19
 9570 0222 01       		.uleb128 0x1
 9571 0223 13       		.uleb128 0x13
 9572 0224 00       		.byte	0
 9573 0225 00       		.byte	0
 9574 0226 2C       		.uleb128 0x2c
 9575 0227 05       		.uleb128 0x5
 9576 0228 00       		.byte	0
 9577 0229 31       		.uleb128 0x31
 9578 022a 13       		.uleb128 0x13
 9579 022b 02       		.uleb128 0x2
 9580 022c 17       		.uleb128 0x17
 9581 022d 00       		.byte	0
 9582 022e 00       		.byte	0
 9583 022f 2D       		.uleb128 0x2d
 9584 0230 2E       		.uleb128 0x2e
 9585 0231 01       		.byte	0x1
 9586 0232 03       		.uleb128 0x3
 9587 0233 0E       		.uleb128 0xe
 9588 0234 3A       		.uleb128 0x3a
 9589 0235 0B       		.uleb128 0xb
 9590 0236 3B       		.uleb128 0x3b
 9591 0237 05       		.uleb128 0x5
 9592 0238 27       		.uleb128 0x27
 9593 0239 19       		.uleb128 0x19
 9594 023a 11       		.uleb128 0x11
 9595 023b 01       		.uleb128 0x1
 9596 023c 12       		.uleb128 0x12
 9597 023d 06       		.uleb128 0x6
 9598 023e 40       		.uleb128 0x40
 9599 023f 18       		.uleb128 0x18
 9600 0240 9742     		.uleb128 0x2117
 9601 0242 19       		.uleb128 0x19
 9602 0243 01       		.uleb128 0x1
 9603 0244 13       		.uleb128 0x13
 9604 0245 00       		.byte	0
ARM GAS  C:\Users\haske\AppData\Local\Temp\cc11ZRIl.s 			page 202


 9605 0246 00       		.byte	0
 9606 0247 2E       		.uleb128 0x2e
 9607 0248 05       		.uleb128 0x5
 9608 0249 00       		.byte	0
 9609 024a 03       		.uleb128 0x3
 9610 024b 08       		.uleb128 0x8
 9611 024c 3A       		.uleb128 0x3a
 9612 024d 0B       		.uleb128 0xb
 9613 024e 3B       		.uleb128 0x3b
 9614 024f 05       		.uleb128 0x5
 9615 0250 49       		.uleb128 0x49
 9616 0251 13       		.uleb128 0x13
 9617 0252 02       		.uleb128 0x2
 9618 0253 18       		.uleb128 0x18
 9619 0254 00       		.byte	0
 9620 0255 00       		.byte	0
 9621 0256 2F       		.uleb128 0x2f
 9622 0257 05       		.uleb128 0x5
 9623 0258 00       		.byte	0
 9624 0259 03       		.uleb128 0x3
 9625 025a 0E       		.uleb128 0xe
 9626 025b 3A       		.uleb128 0x3a
 9627 025c 0B       		.uleb128 0xb
 9628 025d 3B       		.uleb128 0x3b
 9629 025e 05       		.uleb128 0x5
 9630 025f 49       		.uleb128 0x49
 9631 0260 13       		.uleb128 0x13
 9632 0261 02       		.uleb128 0x2
 9633 0262 18       		.uleb128 0x18
 9634 0263 00       		.byte	0
 9635 0264 00       		.byte	0
 9636 0265 30       		.uleb128 0x30
 9637 0266 2E       		.uleb128 0x2e
 9638 0267 01       		.byte	0x1
 9639 0268 03       		.uleb128 0x3
 9640 0269 0E       		.uleb128 0xe
 9641 026a 3A       		.uleb128 0x3a
 9642 026b 0B       		.uleb128 0xb
 9643 026c 3B       		.uleb128 0x3b
 9644 026d 0B       		.uleb128 0xb
 9645 026e 27       		.uleb128 0x27
 9646 026f 19       		.uleb128 0x19
 9647 0270 11       		.uleb128 0x11
 9648 0271 01       		.uleb128 0x1
 9649 0272 12       		.uleb128 0x12
 9650 0273 06       		.uleb128 0x6
 9651 0274 40       		.uleb128 0x40
 9652 0275 18       		.uleb128 0x18
 9653 0276 9642     		.uleb128 0x2116
 9654 0278 19       		.uleb128 0x19
 9655 0279 01       		.uleb128 0x1
 9656 027a 13       		.uleb128 0x13
 9657 027b 00       		.byte	0
 9658 027c 00       		.byte	0
 9659 027d 31       		.uleb128 0x31
 9660 027e 05       		.uleb128 0x5
 9661 027f 00       		.byte	0
ARM GAS  C:\Users\haske\AppData\Local\Temp\cc11ZRIl.s 			page 203


 9662 0280 03       		.uleb128 0x3
 9663 0281 08       		.uleb128 0x8
 9664 0282 3A       		.uleb128 0x3a
 9665 0283 0B       		.uleb128 0xb
 9666 0284 3B       		.uleb128 0x3b
 9667 0285 0B       		.uleb128 0xb
 9668 0286 49       		.uleb128 0x49
 9669 0287 13       		.uleb128 0x13
 9670 0288 02       		.uleb128 0x2
 9671 0289 17       		.uleb128 0x17
 9672 028a 00       		.byte	0
 9673 028b 00       		.byte	0
 9674 028c 32       		.uleb128 0x32
 9675 028d 34       		.uleb128 0x34
 9676 028e 00       		.byte	0
 9677 028f 03       		.uleb128 0x3
 9678 0290 08       		.uleb128 0x8
 9679 0291 3A       		.uleb128 0x3a
 9680 0292 0B       		.uleb128 0xb
 9681 0293 3B       		.uleb128 0x3b
 9682 0294 0B       		.uleb128 0xb
 9683 0295 49       		.uleb128 0x49
 9684 0296 13       		.uleb128 0x13
 9685 0297 02       		.uleb128 0x2
 9686 0298 17       		.uleb128 0x17
 9687 0299 00       		.byte	0
 9688 029a 00       		.byte	0
 9689 029b 33       		.uleb128 0x33
 9690 029c 34       		.uleb128 0x34
 9691 029d 00       		.byte	0
 9692 029e 03       		.uleb128 0x3
 9693 029f 0E       		.uleb128 0xe
 9694 02a0 3A       		.uleb128 0x3a
 9695 02a1 0B       		.uleb128 0xb
 9696 02a2 3B       		.uleb128 0x3b
 9697 02a3 0B       		.uleb128 0xb
 9698 02a4 49       		.uleb128 0x49
 9699 02a5 13       		.uleb128 0x13
 9700 02a6 02       		.uleb128 0x2
 9701 02a7 17       		.uleb128 0x17
 9702 02a8 00       		.byte	0
 9703 02a9 00       		.byte	0
 9704 02aa 34       		.uleb128 0x34
 9705 02ab 34       		.uleb128 0x34
 9706 02ac 00       		.byte	0
 9707 02ad 03       		.uleb128 0x3
 9708 02ae 0E       		.uleb128 0xe
 9709 02af 3A       		.uleb128 0x3a
 9710 02b0 0B       		.uleb128 0xb
 9711 02b1 3B       		.uleb128 0x3b
 9712 02b2 0B       		.uleb128 0xb
 9713 02b3 49       		.uleb128 0x49
 9714 02b4 13       		.uleb128 0x13
 9715 02b5 02       		.uleb128 0x2
 9716 02b6 18       		.uleb128 0x18
 9717 02b7 00       		.byte	0
 9718 02b8 00       		.byte	0
ARM GAS  C:\Users\haske\AppData\Local\Temp\cc11ZRIl.s 			page 204


 9719 02b9 35       		.uleb128 0x35
 9720 02ba 34       		.uleb128 0x34
 9721 02bb 00       		.byte	0
 9722 02bc 03       		.uleb128 0x3
 9723 02bd 0E       		.uleb128 0xe
 9724 02be 3A       		.uleb128 0x3a
 9725 02bf 0B       		.uleb128 0xb
 9726 02c0 3B       		.uleb128 0x3b
 9727 02c1 0B       		.uleb128 0xb
 9728 02c2 49       		.uleb128 0x49
 9729 02c3 13       		.uleb128 0x13
 9730 02c4 00       		.byte	0
 9731 02c5 00       		.byte	0
 9732 02c6 36       		.uleb128 0x36
 9733 02c7 34       		.uleb128 0x34
 9734 02c8 00       		.byte	0
 9735 02c9 03       		.uleb128 0x3
 9736 02ca 0E       		.uleb128 0xe
 9737 02cb 3A       		.uleb128 0x3a
 9738 02cc 0B       		.uleb128 0xb
 9739 02cd 3B       		.uleb128 0x3b
 9740 02ce 05       		.uleb128 0x5
 9741 02cf 49       		.uleb128 0x49
 9742 02d0 13       		.uleb128 0x13
 9743 02d1 00       		.byte	0
 9744 02d2 00       		.byte	0
 9745 02d3 37       		.uleb128 0x37
 9746 02d4 34       		.uleb128 0x34
 9747 02d5 00       		.byte	0
 9748 02d6 03       		.uleb128 0x3
 9749 02d7 0E       		.uleb128 0xe
 9750 02d8 3A       		.uleb128 0x3a
 9751 02d9 0B       		.uleb128 0xb
 9752 02da 3B       		.uleb128 0x3b
 9753 02db 05       		.uleb128 0x5
 9754 02dc 49       		.uleb128 0x49
 9755 02dd 13       		.uleb128 0x13
 9756 02de 02       		.uleb128 0x2
 9757 02df 17       		.uleb128 0x17
 9758 02e0 00       		.byte	0
 9759 02e1 00       		.byte	0
 9760 02e2 38       		.uleb128 0x38
 9761 02e3 34       		.uleb128 0x34
 9762 02e4 00       		.byte	0
 9763 02e5 03       		.uleb128 0x3
 9764 02e6 08       		.uleb128 0x8
 9765 02e7 3A       		.uleb128 0x3a
 9766 02e8 0B       		.uleb128 0xb
 9767 02e9 3B       		.uleb128 0x3b
 9768 02ea 05       		.uleb128 0x5
 9769 02eb 49       		.uleb128 0x49
 9770 02ec 13       		.uleb128 0x13
 9771 02ed 02       		.uleb128 0x2
 9772 02ee 17       		.uleb128 0x17
 9773 02ef 00       		.byte	0
 9774 02f0 00       		.byte	0
 9775 02f1 39       		.uleb128 0x39
ARM GAS  C:\Users\haske\AppData\Local\Temp\cc11ZRIl.s 			page 205


 9776 02f2 34       		.uleb128 0x34
 9777 02f3 00       		.byte	0
 9778 02f4 03       		.uleb128 0x3
 9779 02f5 0E       		.uleb128 0xe
 9780 02f6 3A       		.uleb128 0x3a
 9781 02f7 0B       		.uleb128 0xb
 9782 02f8 3B       		.uleb128 0x3b
 9783 02f9 05       		.uleb128 0x5
 9784 02fa 49       		.uleb128 0x49
 9785 02fb 13       		.uleb128 0x13
 9786 02fc 02       		.uleb128 0x2
 9787 02fd 18       		.uleb128 0x18
 9788 02fe 00       		.byte	0
 9789 02ff 00       		.byte	0
 9790 0300 3A       		.uleb128 0x3a
 9791 0301 1D       		.uleb128 0x1d
 9792 0302 01       		.byte	0x1
 9793 0303 31       		.uleb128 0x31
 9794 0304 13       		.uleb128 0x13
 9795 0305 11       		.uleb128 0x11
 9796 0306 01       		.uleb128 0x1
 9797 0307 12       		.uleb128 0x12
 9798 0308 06       		.uleb128 0x6
 9799 0309 58       		.uleb128 0x58
 9800 030a 0B       		.uleb128 0xb
 9801 030b 59       		.uleb128 0x59
 9802 030c 0B       		.uleb128 0xb
 9803 030d 01       		.uleb128 0x1
 9804 030e 13       		.uleb128 0x13
 9805 030f 00       		.byte	0
 9806 0310 00       		.byte	0
 9807 0311 3B       		.uleb128 0x3b
 9808 0312 0B       		.uleb128 0xb
 9809 0313 01       		.byte	0x1
 9810 0314 11       		.uleb128 0x11
 9811 0315 01       		.uleb128 0x1
 9812 0316 12       		.uleb128 0x12
 9813 0317 06       		.uleb128 0x6
 9814 0318 00       		.byte	0
 9815 0319 00       		.byte	0
 9816 031a 3C       		.uleb128 0x3c
 9817 031b 34       		.uleb128 0x34
 9818 031c 00       		.byte	0
 9819 031d 31       		.uleb128 0x31
 9820 031e 13       		.uleb128 0x13
 9821 031f 00       		.byte	0
 9822 0320 00       		.byte	0
 9823 0321 3D       		.uleb128 0x3d
 9824 0322 898201   		.uleb128 0x4109
 9825 0325 01       		.byte	0x1
 9826 0326 11       		.uleb128 0x11
 9827 0327 01       		.uleb128 0x1
 9828 0328 31       		.uleb128 0x31
 9829 0329 13       		.uleb128 0x13
 9830 032a 00       		.byte	0
 9831 032b 00       		.byte	0
 9832 032c 3E       		.uleb128 0x3e
ARM GAS  C:\Users\haske\AppData\Local\Temp\cc11ZRIl.s 			page 206


 9833 032d 8A8201   		.uleb128 0x410a
 9834 0330 00       		.byte	0
 9835 0331 02       		.uleb128 0x2
 9836 0332 18       		.uleb128 0x18
 9837 0333 9142     		.uleb128 0x2111
 9838 0335 18       		.uleb128 0x18
 9839 0336 00       		.byte	0
 9840 0337 00       		.byte	0
 9841 0338 3F       		.uleb128 0x3f
 9842 0339 1D       		.uleb128 0x1d
 9843 033a 01       		.byte	0x1
 9844 033b 31       		.uleb128 0x31
 9845 033c 13       		.uleb128 0x13
 9846 033d 11       		.uleb128 0x11
 9847 033e 01       		.uleb128 0x1
 9848 033f 12       		.uleb128 0x12
 9849 0340 06       		.uleb128 0x6
 9850 0341 58       		.uleb128 0x58
 9851 0342 0B       		.uleb128 0xb
 9852 0343 59       		.uleb128 0x59
 9853 0344 05       		.uleb128 0x5
 9854 0345 01       		.uleb128 0x1
 9855 0346 13       		.uleb128 0x13
 9856 0347 00       		.byte	0
 9857 0348 00       		.byte	0
 9858 0349 40       		.uleb128 0x40
 9859 034a 0B       		.uleb128 0xb
 9860 034b 01       		.byte	0x1
 9861 034c 11       		.uleb128 0x11
 9862 034d 01       		.uleb128 0x1
 9863 034e 12       		.uleb128 0x12
 9864 034f 06       		.uleb128 0x6
 9865 0350 01       		.uleb128 0x1
 9866 0351 13       		.uleb128 0x13
 9867 0352 00       		.byte	0
 9868 0353 00       		.byte	0
 9869 0354 41       		.uleb128 0x41
 9870 0355 898201   		.uleb128 0x4109
 9871 0358 01       		.byte	0x1
 9872 0359 11       		.uleb128 0x11
 9873 035a 01       		.uleb128 0x1
 9874 035b 31       		.uleb128 0x31
 9875 035c 13       		.uleb128 0x13
 9876 035d 01       		.uleb128 0x1
 9877 035e 13       		.uleb128 0x13
 9878 035f 00       		.byte	0
 9879 0360 00       		.byte	0
 9880 0361 42       		.uleb128 0x42
 9881 0362 898201   		.uleb128 0x4109
 9882 0365 01       		.byte	0x1
 9883 0366 11       		.uleb128 0x11
 9884 0367 01       		.uleb128 0x1
 9885 0368 9342     		.uleb128 0x2113
 9886 036a 18       		.uleb128 0x18
 9887 036b 01       		.uleb128 0x1
 9888 036c 13       		.uleb128 0x13
 9889 036d 00       		.byte	0
ARM GAS  C:\Users\haske\AppData\Local\Temp\cc11ZRIl.s 			page 207


 9890 036e 00       		.byte	0
 9891 036f 43       		.uleb128 0x43
 9892 0370 05       		.uleb128 0x5
 9893 0371 00       		.byte	0
 9894 0372 03       		.uleb128 0x3
 9895 0373 0E       		.uleb128 0xe
 9896 0374 3A       		.uleb128 0x3a
 9897 0375 0B       		.uleb128 0xb
 9898 0376 3B       		.uleb128 0x3b
 9899 0377 05       		.uleb128 0x5
 9900 0378 49       		.uleb128 0x49
 9901 0379 13       		.uleb128 0x13
 9902 037a 02       		.uleb128 0x2
 9903 037b 17       		.uleb128 0x17
 9904 037c 00       		.byte	0
 9905 037d 00       		.byte	0
 9906 037e 44       		.uleb128 0x44
 9907 037f 05       		.uleb128 0x5
 9908 0380 00       		.byte	0
 9909 0381 03       		.uleb128 0x3
 9910 0382 08       		.uleb128 0x8
 9911 0383 3A       		.uleb128 0x3a
 9912 0384 0B       		.uleb128 0xb
 9913 0385 3B       		.uleb128 0x3b
 9914 0386 05       		.uleb128 0x5
 9915 0387 49       		.uleb128 0x49
 9916 0388 13       		.uleb128 0x13
 9917 0389 02       		.uleb128 0x2
 9918 038a 17       		.uleb128 0x17
 9919 038b 00       		.byte	0
 9920 038c 00       		.byte	0
 9921 038d 45       		.uleb128 0x45
 9922 038e 2E       		.uleb128 0x2e
 9923 038f 01       		.byte	0x1
 9924 0390 03       		.uleb128 0x3
 9925 0391 0E       		.uleb128 0xe
 9926 0392 3A       		.uleb128 0x3a
 9927 0393 0B       		.uleb128 0xb
 9928 0394 3B       		.uleb128 0x3b
 9929 0395 0B       		.uleb128 0xb
 9930 0396 27       		.uleb128 0x27
 9931 0397 19       		.uleb128 0x19
 9932 0398 11       		.uleb128 0x11
 9933 0399 01       		.uleb128 0x1
 9934 039a 12       		.uleb128 0x12
 9935 039b 06       		.uleb128 0x6
 9936 039c 40       		.uleb128 0x40
 9937 039d 18       		.uleb128 0x18
 9938 039e 9742     		.uleb128 0x2117
 9939 03a0 19       		.uleb128 0x19
 9940 03a1 01       		.uleb128 0x1
 9941 03a2 13       		.uleb128 0x13
 9942 03a3 00       		.byte	0
 9943 03a4 00       		.byte	0
 9944 03a5 46       		.uleb128 0x46
 9945 03a6 05       		.uleb128 0x5
 9946 03a7 00       		.byte	0
ARM GAS  C:\Users\haske\AppData\Local\Temp\cc11ZRIl.s 			page 208


 9947 03a8 03       		.uleb128 0x3
 9948 03a9 0E       		.uleb128 0xe
 9949 03aa 3A       		.uleb128 0x3a
 9950 03ab 0B       		.uleb128 0xb
 9951 03ac 3B       		.uleb128 0x3b
 9952 03ad 0B       		.uleb128 0xb
 9953 03ae 49       		.uleb128 0x49
 9954 03af 13       		.uleb128 0x13
 9955 03b0 02       		.uleb128 0x2
 9956 03b1 17       		.uleb128 0x17
 9957 03b2 00       		.byte	0
 9958 03b3 00       		.byte	0
 9959 03b4 47       		.uleb128 0x47
 9960 03b5 898201   		.uleb128 0x4109
 9961 03b8 00       		.byte	0
 9962 03b9 11       		.uleb128 0x11
 9963 03ba 01       		.uleb128 0x1
 9964 03bb 31       		.uleb128 0x31
 9965 03bc 13       		.uleb128 0x13
 9966 03bd 00       		.byte	0
 9967 03be 00       		.byte	0
 9968 03bf 48       		.uleb128 0x48
 9969 03c0 34       		.uleb128 0x34
 9970 03c1 00       		.byte	0
 9971 03c2 03       		.uleb128 0x3
 9972 03c3 08       		.uleb128 0x8
 9973 03c4 3A       		.uleb128 0x3a
 9974 03c5 0B       		.uleb128 0xb
 9975 03c6 3B       		.uleb128 0x3b
 9976 03c7 05       		.uleb128 0x5
 9977 03c8 49       		.uleb128 0x49
 9978 03c9 13       		.uleb128 0x13
 9979 03ca 02       		.uleb128 0x2
 9980 03cb 18       		.uleb128 0x18
 9981 03cc 00       		.byte	0
 9982 03cd 00       		.byte	0
 9983 03ce 49       		.uleb128 0x49
 9984 03cf 34       		.uleb128 0x34
 9985 03d0 00       		.byte	0
 9986 03d1 31       		.uleb128 0x31
 9987 03d2 13       		.uleb128 0x13
 9988 03d3 02       		.uleb128 0x2
 9989 03d4 17       		.uleb128 0x17
 9990 03d5 00       		.byte	0
 9991 03d6 00       		.byte	0
 9992 03d7 4A       		.uleb128 0x4a
 9993 03d8 05       		.uleb128 0x5
 9994 03d9 00       		.byte	0
 9995 03da 31       		.uleb128 0x31
 9996 03db 13       		.uleb128 0x13
 9997 03dc 00       		.byte	0
 9998 03dd 00       		.byte	0
 9999 03de 4B       		.uleb128 0x4b
 10000 03df 2E       		.uleb128 0x2e
 10001 03e0 01       		.byte	0x1
 10002 03e1 3F       		.uleb128 0x3f
 10003 03e2 19       		.uleb128 0x19
ARM GAS  C:\Users\haske\AppData\Local\Temp\cc11ZRIl.s 			page 209


 10004 03e3 03       		.uleb128 0x3
 10005 03e4 0E       		.uleb128 0xe
 10006 03e5 3A       		.uleb128 0x3a
 10007 03e6 0B       		.uleb128 0xb
 10008 03e7 3B       		.uleb128 0x3b
 10009 03e8 0B       		.uleb128 0xb
 10010 03e9 27       		.uleb128 0x27
 10011 03ea 19       		.uleb128 0x19
 10012 03eb 49       		.uleb128 0x49
 10013 03ec 13       		.uleb128 0x13
 10014 03ed 11       		.uleb128 0x11
 10015 03ee 01       		.uleb128 0x1
 10016 03ef 12       		.uleb128 0x12
 10017 03f0 06       		.uleb128 0x6
 10018 03f1 40       		.uleb128 0x40
 10019 03f2 18       		.uleb128 0x18
 10020 03f3 9742     		.uleb128 0x2117
 10021 03f5 19       		.uleb128 0x19
 10022 03f6 01       		.uleb128 0x1
 10023 03f7 13       		.uleb128 0x13
 10024 03f8 00       		.byte	0
 10025 03f9 00       		.byte	0
 10026 03fa 4C       		.uleb128 0x4c
 10027 03fb 2E       		.uleb128 0x2e
 10028 03fc 01       		.byte	0x1
 10029 03fd 3F       		.uleb128 0x3f
 10030 03fe 19       		.uleb128 0x19
 10031 03ff 03       		.uleb128 0x3
 10032 0400 0E       		.uleb128 0xe
 10033 0401 3A       		.uleb128 0x3a
 10034 0402 0B       		.uleb128 0xb
 10035 0403 3B       		.uleb128 0x3b
 10036 0404 0B       		.uleb128 0xb
 10037 0405 27       		.uleb128 0x27
 10038 0406 19       		.uleb128 0x19
 10039 0407 11       		.uleb128 0x11
 10040 0408 01       		.uleb128 0x1
 10041 0409 12       		.uleb128 0x12
 10042 040a 06       		.uleb128 0x6
 10043 040b 40       		.uleb128 0x40
 10044 040c 18       		.uleb128 0x18
 10045 040d 9742     		.uleb128 0x2117
 10046 040f 19       		.uleb128 0x19
 10047 0410 01       		.uleb128 0x1
 10048 0411 13       		.uleb128 0x13
 10049 0412 00       		.byte	0
 10050 0413 00       		.byte	0
 10051 0414 4D       		.uleb128 0x4d
 10052 0415 34       		.uleb128 0x34
 10053 0416 00       		.byte	0
 10054 0417 03       		.uleb128 0x3
 10055 0418 0E       		.uleb128 0xe
 10056 0419 3A       		.uleb128 0x3a
 10057 041a 0B       		.uleb128 0xb
 10058 041b 3B       		.uleb128 0x3b
 10059 041c 0B       		.uleb128 0xb
 10060 041d 49       		.uleb128 0x49
ARM GAS  C:\Users\haske\AppData\Local\Temp\cc11ZRIl.s 			page 210


 10061 041e 13       		.uleb128 0x13
 10062 041f 3F       		.uleb128 0x3f
 10063 0420 19       		.uleb128 0x19
 10064 0421 3C       		.uleb128 0x3c
 10065 0422 19       		.uleb128 0x19
 10066 0423 00       		.byte	0
 10067 0424 00       		.byte	0
 10068 0425 4E       		.uleb128 0x4e
 10069 0426 34       		.uleb128 0x34
 10070 0427 00       		.byte	0
 10071 0428 03       		.uleb128 0x3
 10072 0429 0E       		.uleb128 0xe
 10073 042a 3A       		.uleb128 0x3a
 10074 042b 0B       		.uleb128 0xb
 10075 042c 3B       		.uleb128 0x3b
 10076 042d 0B       		.uleb128 0xb
 10077 042e 49       		.uleb128 0x49
 10078 042f 13       		.uleb128 0x13
 10079 0430 3F       		.uleb128 0x3f
 10080 0431 19       		.uleb128 0x19
 10081 0432 02       		.uleb128 0x2
 10082 0433 18       		.uleb128 0x18
 10083 0434 00       		.byte	0
 10084 0435 00       		.byte	0
 10085 0436 4F       		.uleb128 0x4f
 10086 0437 2E       		.uleb128 0x2e
 10087 0438 00       		.byte	0
 10088 0439 3F       		.uleb128 0x3f
 10089 043a 19       		.uleb128 0x19
 10090 043b 3C       		.uleb128 0x3c
 10091 043c 19       		.uleb128 0x19
 10092 043d 6E       		.uleb128 0x6e
 10093 043e 0E       		.uleb128 0xe
 10094 043f 03       		.uleb128 0x3
 10095 0440 0E       		.uleb128 0xe
 10096 0441 3A       		.uleb128 0x3a
 10097 0442 0B       		.uleb128 0xb
 10098 0443 3B       		.uleb128 0x3b
 10099 0444 0B       		.uleb128 0xb
 10100 0445 00       		.byte	0
 10101 0446 00       		.byte	0
 10102 0447 50       		.uleb128 0x50
 10103 0448 2E       		.uleb128 0x2e
 10104 0449 00       		.byte	0
 10105 044a 3F       		.uleb128 0x3f
 10106 044b 19       		.uleb128 0x19
 10107 044c 3C       		.uleb128 0x3c
 10108 044d 19       		.uleb128 0x19
 10109 044e 6E       		.uleb128 0x6e
 10110 044f 0E       		.uleb128 0xe
 10111 0450 03       		.uleb128 0x3
 10112 0451 0E       		.uleb128 0xe
 10113 0452 3A       		.uleb128 0x3a
 10114 0453 0B       		.uleb128 0xb
 10115 0454 3B       		.uleb128 0x3b
 10116 0455 05       		.uleb128 0x5
 10117 0456 00       		.byte	0
ARM GAS  C:\Users\haske\AppData\Local\Temp\cc11ZRIl.s 			page 211


 10118 0457 00       		.byte	0
 10119 0458 00       		.byte	0
 10120              		.section	.debug_loc,"",%progbits
 10121              	.Ldebug_loc0:
 10122              	.LLST0:
 10123 0000 00000000 		.4byte	.LVL0
 10124 0004 08000000 		.4byte	.LVL1
 10125 0008 0100     		.2byte	0x1
 10126 000a 50       		.byte	0x50
 10127 000b 08000000 		.4byte	.LVL1
 10128 000f 10000000 		.4byte	.LFE1
 10129 0013 0400     		.2byte	0x4
 10130 0015 F3       		.byte	0xf3
 10131 0016 01       		.uleb128 0x1
 10132 0017 50       		.byte	0x50
 10133 0018 9F       		.byte	0x9f
 10134 0019 00000000 		.4byte	0
 10135 001d 00000000 		.4byte	0
 10136              	.LLST1:
 10137 0021 00000000 		.4byte	.LVL2
 10138 0025 08000000 		.4byte	.LVL3
 10139 0029 0100     		.2byte	0x1
 10140 002b 50       		.byte	0x50
 10141 002c 08000000 		.4byte	.LVL3
 10142 0030 10000000 		.4byte	.LFE2
 10143 0034 0400     		.2byte	0x4
 10144 0036 F3       		.byte	0xf3
 10145 0037 01       		.uleb128 0x1
 10146 0038 50       		.byte	0x50
 10147 0039 9F       		.byte	0x9f
 10148 003a 00000000 		.4byte	0
 10149 003e 00000000 		.4byte	0
 10150              	.LLST2:
 10151 0042 00000000 		.4byte	.LVL5
 10152 0046 13000000 		.4byte	.LVL6-1
 10153 004a 0100     		.2byte	0x1
 10154 004c 50       		.byte	0x50
 10155 004d 13000000 		.4byte	.LVL6-1
 10156 0051 20000000 		.4byte	.LVL11
 10157 0055 0100     		.2byte	0x1
 10158 0057 55       		.byte	0x55
 10159 0058 20000000 		.4byte	.LVL11
 10160 005c B2050000 		.4byte	.LFE171
 10161 0060 0400     		.2byte	0x4
 10162 0062 F3       		.byte	0xf3
 10163 0063 01       		.uleb128 0x1
 10164 0064 50       		.byte	0x50
 10165 0065 9F       		.byte	0x9f
 10166 0066 00000000 		.4byte	0
 10167 006a 00000000 		.4byte	0
 10168              	.LLST3:
 10169 006e 16000000 		.4byte	.LVL7
 10170 0072 18000000 		.4byte	.LVL8
 10171 0076 0100     		.2byte	0x1
 10172 0078 50       		.byte	0x50
 10173 0079 18000000 		.4byte	.LVL8
 10174 007d A6050000 		.4byte	.LVL145
ARM GAS  C:\Users\haske\AppData\Local\Temp\cc11ZRIl.s 			page 212


 10175 0081 0100     		.2byte	0x1
 10176 0083 54       		.byte	0x54
 10177 0084 00000000 		.4byte	0
 10178 0088 00000000 		.4byte	0
 10179              	.LLST5:
 10180 008c 1E000000 		.4byte	.LVL10
 10181 0090 24000000 		.4byte	.LVL12
 10182 0094 0100     		.2byte	0x1
 10183 0096 50       		.byte	0x50
 10184 0097 24000000 		.4byte	.LVL12
 10185 009b B2050000 		.4byte	.LFE171
 10186 009f 0300     		.2byte	0x3
 10187 00a1 91       		.byte	0x91
 10188 00a2 9C7D     		.sleb128 -356
 10189 00a4 00000000 		.4byte	0
 10190 00a8 00000000 		.4byte	0
 10191              	.LLST6:
 10192 00ac 7A000000 		.4byte	.LVL21
 10193 00b0 7C000000 		.4byte	.LVL22
 10194 00b4 0100     		.2byte	0x1
 10195 00b6 53       		.byte	0x53
 10196 00b7 7C000000 		.4byte	.LVL22
 10197 00bb 34040000 		.4byte	.LVL116
 10198 00bf 0300     		.2byte	0x3
 10199 00c1 91       		.byte	0x91
 10200 00c2 987D     		.sleb128 -360
 10201 00c4 00000000 		.4byte	0
 10202 00c8 00000000 		.4byte	0
 10203              	.LLST7:
 10204 00cc 7A000000 		.4byte	.LVL21
 10205 00d0 D0030000 		.4byte	.LVL101
 10206 00d4 0A00     		.2byte	0xa
 10207 00d6 79       		.byte	0x79
 10208 00d7 00       		.sleb128 0
 10209 00d8 40       		.byte	0x40
 10210 00d9 24       		.byte	0x24
 10211 00da 7A       		.byte	0x7a
 10212 00db 00       		.sleb128 0
 10213 00dc 40       		.byte	0x40
 10214 00dd 24       		.byte	0x24
 10215 00de 2C       		.byte	0x2c
 10216 00df 9F       		.byte	0x9f
 10217 00e0 D0030000 		.4byte	.LVL101
 10218 00e4 D2030000 		.4byte	.LVL102
 10219 00e8 0A00     		.2byte	0xa
 10220 00ea 75       		.byte	0x75
 10221 00eb 00       		.sleb128 0
 10222 00ec 40       		.byte	0x40
 10223 00ed 24       		.byte	0x24
 10224 00ee 7A       		.byte	0x7a
 10225 00ef 00       		.sleb128 0
 10226 00f0 40       		.byte	0x40
 10227 00f1 24       		.byte	0x24
 10228 00f2 2C       		.byte	0x2c
 10229 00f3 9F       		.byte	0x9f
 10230 00f4 D2030000 		.4byte	.LVL102
 10231 00f8 A6050000 		.4byte	.LVL146
ARM GAS  C:\Users\haske\AppData\Local\Temp\cc11ZRIl.s 			page 213


 10232 00fc 0A00     		.2byte	0xa
 10233 00fe 79       		.byte	0x79
 10234 00ff 00       		.sleb128 0
 10235 0100 40       		.byte	0x40
 10236 0101 24       		.byte	0x24
 10237 0102 7A       		.byte	0x7a
 10238 0103 00       		.sleb128 0
 10239 0104 40       		.byte	0x40
 10240 0105 24       		.byte	0x24
 10241 0106 2C       		.byte	0x2c
 10242 0107 9F       		.byte	0x9f
 10243 0108 00000000 		.4byte	0
 10244 010c 00000000 		.4byte	0
 10245              	.LLST8:
 10246 0110 7A000000 		.4byte	.LVL21
 10247 0114 B0000000 		.4byte	.LVL23
 10248 0118 0200     		.2byte	0x2
 10249 011a 30       		.byte	0x30
 10250 011b 9F       		.byte	0x9f
 10251 011c B0000000 		.4byte	.LVL23
 10252 0120 B2050000 		.4byte	.LFE171
 10253 0124 0300     		.2byte	0x3
 10254 0126 91       		.byte	0x91
 10255 0127 A07D     		.sleb128 -352
 10256 0129 00000000 		.4byte	0
 10257 012d 00000000 		.4byte	0
 10258              	.LLST9:
 10259 0131 A0010000 		.4byte	.LVL41
 10260 0135 B2030000 		.4byte	.LVL97
 10261 0139 0300     		.2byte	0x3
 10262 013b 91       		.byte	0x91
 10263 013c 947D     		.sleb128 -364
 10264 013e 00000000 		.4byte	0
 10265 0142 00000000 		.4byte	0
 10266              	.LLST10:
 10267 0146 6A020000 		.4byte	.LVL64
 10268 014a 6C020000 		.4byte	.LVL65
 10269 014e 0100     		.2byte	0x1
 10270 0150 55       		.byte	0x55
 10271 0151 7E020000 		.4byte	.LVL67
 10272 0155 94020000 		.4byte	.LVL71
 10273 0159 0100     		.2byte	0x1
 10274 015b 55       		.byte	0x55
 10275 015c 96020000 		.4byte	.LVL72
 10276 0160 AE020000 		.4byte	.LVL76
 10277 0164 0100     		.2byte	0x1
 10278 0166 55       		.byte	0x55
 10279 0167 BA020000 		.4byte	.LVL77
 10280 016b C2020000 		.4byte	.LVL78
 10281 016f 0100     		.2byte	0x1
 10282 0171 55       		.byte	0x55
 10283 0172 00000000 		.4byte	0
 10284 0176 00000000 		.4byte	0
 10285              	.LLST11:
 10286 017a 04020000 		.4byte	.LVL53
 10287 017e 0A020000 		.4byte	.LVL54
 10288 0182 0100     		.2byte	0x1
ARM GAS  C:\Users\haske\AppData\Local\Temp\cc11ZRIl.s 			page 214


 10289 0184 57       		.byte	0x57
 10290 0185 0E020000 		.4byte	.LVL55
 10291 0189 10020000 		.4byte	.LVL56
 10292 018d 0100     		.2byte	0x1
 10293 018f 58       		.byte	0x58
 10294 0190 24020000 		.4byte	.LVL58
 10295 0194 3A040000 		.4byte	.LVL117
 10296 0198 0100     		.2byte	0x1
 10297 019a 58       		.byte	0x58
 10298 019b 00000000 		.4byte	0
 10299 019f 00000000 		.4byte	0
 10300              	.LLST12:
 10301 01a3 A8010000 		.4byte	.LVL42
 10302 01a7 B4010000 		.4byte	.LVL44
 10303 01ab 0100     		.2byte	0x1
 10304 01ad 56       		.byte	0x56
 10305 01ae B8010000 		.4byte	.LVL45
 10306 01b2 92020000 		.4byte	.LVL70
 10307 01b6 0100     		.2byte	0x1
 10308 01b8 56       		.byte	0x56
 10309 01b9 92020000 		.4byte	.LVL70
 10310 01bd A4020000 		.4byte	.LVL75
 10311 01c1 0100     		.2byte	0x1
 10312 01c3 5B       		.byte	0x5b
 10313 01c4 A4020000 		.4byte	.LVL75
 10314 01c8 88030000 		.4byte	.LVL94
 10315 01cc 0100     		.2byte	0x1
 10316 01ce 56       		.byte	0x56
 10317 01cf 00000000 		.4byte	0
 10318 01d3 00000000 		.4byte	0
 10319              	.LLST13:
 10320 01d7 AE010000 		.4byte	.LVL43
 10321 01db B4010000 		.4byte	.LVL44
 10322 01df 0100     		.2byte	0x1
 10323 01e1 5B       		.byte	0x5b
 10324 01e2 BE010000 		.4byte	.LVL46
 10325 01e6 92020000 		.4byte	.LVL70
 10326 01ea 0100     		.2byte	0x1
 10327 01ec 5B       		.byte	0x5b
 10328 01ed 92020000 		.4byte	.LVL70
 10329 01f1 A2020000 		.4byte	.LVL74
 10330 01f5 0100     		.2byte	0x1
 10331 01f7 56       		.byte	0x56
 10332 01f8 A2020000 		.4byte	.LVL74
 10333 01fc A4020000 		.4byte	.LVL75
 10334 0200 0100     		.2byte	0x1
 10335 0202 53       		.byte	0x53
 10336 0203 A4020000 		.4byte	.LVL75
 10337 0207 D2020000 		.4byte	.LVL79
 10338 020b 0100     		.2byte	0x1
 10339 020d 5B       		.byte	0x5b
 10340 020e D2020000 		.4byte	.LVL79
 10341 0212 D4020000 		.4byte	.LVL80
 10342 0216 0100     		.2byte	0x1
 10343 0218 53       		.byte	0x53
 10344 0219 D4020000 		.4byte	.LVL80
 10345 021d 30040000 		.4byte	.LVL115
ARM GAS  C:\Users\haske\AppData\Local\Temp\cc11ZRIl.s 			page 215


 10346 0221 0100     		.2byte	0x1
 10347 0223 5B       		.byte	0x5b
 10348 0224 00000000 		.4byte	0
 10349 0228 00000000 		.4byte	0
 10350              	.LLST14:
 10351 022c AE010000 		.4byte	.LVL43
 10352 0230 B4010000 		.4byte	.LVL44
 10353 0234 0600     		.2byte	0x6
 10354 0236 03       		.byte	0x3
 10355 0237 00000000 		.4byte	lv_area_get_width
 10356 023b 9F       		.byte	0x9f
 10357 023c BE010000 		.4byte	.LVL46
 10358 0240 C2010000 		.4byte	.LVL47
 10359 0244 0600     		.2byte	0x6
 10360 0246 03       		.byte	0x3
 10361 0247 00000000 		.4byte	lv_area_get_height
 10362 024b 9F       		.byte	0x9f
 10363 024c C2010000 		.4byte	.LVL47
 10364 0250 B2050000 		.4byte	.LFE171
 10365 0254 0300     		.2byte	0x3
 10366 0256 91       		.byte	0x91
 10367 0257 C07D     		.sleb128 -320
 10368 0259 00000000 		.4byte	0
 10369 025d 00000000 		.4byte	0
 10370              	.LLST15:
 10371 0261 DC030000 		.4byte	.LVL105
 10372 0265 B8040000 		.4byte	.LVL129
 10373 0269 0100     		.2byte	0x1
 10374 026b 55       		.byte	0x55
 10375 026c 00000000 		.4byte	0
 10376 0270 00000000 		.4byte	0
 10377              	.LLST16:
 10378 0274 D4030000 		.4byte	.LVL103
 10379 0278 D6030000 		.4byte	.LVL104
 10380 027c 0100     		.2byte	0x1
 10381 027e 55       		.byte	0x55
 10382 027f F2030000 		.4byte	.LVL107
 10383 0283 F4030000 		.4byte	.LVL108
 10384 0287 0100     		.2byte	0x1
 10385 0289 53       		.byte	0x53
 10386 028a 00000000 		.4byte	0
 10387 028e 00000000 		.4byte	0
 10388              	.LLST17:
 10389 0292 E2030000 		.4byte	.LVL106
 10390 0296 FA030000 		.4byte	.LVL109
 10391 029a 0100     		.2byte	0x1
 10392 029c 52       		.byte	0x52
 10393 029d FA030000 		.4byte	.LVL109
 10394 02a1 26040000 		.4byte	.LVL114
 10395 02a5 0100     		.2byte	0x1
 10396 02a7 53       		.byte	0x53
 10397 02a8 00000000 		.4byte	0
 10398 02ac 00000000 		.4byte	0
 10399              	.LLST18:
 10400 02b0 9E040000 		.4byte	.LVL122
 10401 02b4 A4050000 		.4byte	.LVL144
 10402 02b8 0300     		.2byte	0x3
ARM GAS  C:\Users\haske\AppData\Local\Temp\cc11ZRIl.s 			page 216


 10403 02ba 91       		.byte	0x91
 10404 02bb 987D     		.sleb128 -360
 10405 02bd 00000000 		.4byte	0
 10406 02c1 00000000 		.4byte	0
 10407              	.LLST19:
 10408 02c5 A0040000 		.4byte	.LVL123
 10409 02c9 A8040000 		.4byte	.LVL125
 10410 02cd 0200     		.2byte	0x2
 10411 02cf 73       		.byte	0x73
 10412 02d0 36       		.sleb128 54
 10413 02d1 00000000 		.4byte	0
 10414 02d5 00000000 		.4byte	0
 10415              	.LLST20:
 10416 02d9 A4040000 		.4byte	.LVL124
 10417 02dd A4050000 		.4byte	.LVL144
 10418 02e1 0100     		.2byte	0x1
 10419 02e3 56       		.byte	0x56
 10420 02e4 00000000 		.4byte	0
 10421 02e8 00000000 		.4byte	0
 10422              	.LLST21:
 10423 02ec 60050000 		.4byte	.LVL137
 10424 02f0 A4050000 		.4byte	.LVL144
 10425 02f4 0100     		.2byte	0x1
 10426 02f6 57       		.byte	0x57
 10427 02f7 00000000 		.4byte	0
 10428 02fb 00000000 		.4byte	0
 10429              	.LLST22:
 10430 02ff 28000000 		.4byte	.LVL13
 10431 0303 34000000 		.4byte	.LVL15
 10432 0307 0200     		.2byte	0x2
 10433 0309 30       		.byte	0x30
 10434 030a 9F       		.byte	0x9f
 10435 030b 00000000 		.4byte	0
 10436 030f 00000000 		.4byte	0
 10437              	.LLST23:
 10438 0313 28000000 		.4byte	.LVL13
 10439 0317 34000000 		.4byte	.LVL15
 10440 031b 0100     		.2byte	0x1
 10441 031d 54       		.byte	0x54
 10442 031e 00000000 		.4byte	0
 10443 0322 00000000 		.4byte	0
 10444              	.LLST24:
 10445 0326 34000000 		.4byte	.LVL15
 10446 032a 3E000000 		.4byte	.LVL16
 10447 032e 0200     		.2byte	0x2
 10448 0330 30       		.byte	0x30
 10449 0331 9F       		.byte	0x9f
 10450 0332 00000000 		.4byte	0
 10451 0336 00000000 		.4byte	0
 10452              	.LLST25:
 10453 033a 34000000 		.4byte	.LVL15
 10454 033e 3E000000 		.4byte	.LVL16
 10455 0342 0100     		.2byte	0x1
 10456 0344 54       		.byte	0x54
 10457 0345 00000000 		.4byte	0
 10458 0349 00000000 		.4byte	0
 10459              	.LLST26:
ARM GAS  C:\Users\haske\AppData\Local\Temp\cc11ZRIl.s 			page 217


 10460 034d 62000000 		.4byte	.LVL18
 10461 0351 6A000000 		.4byte	.LVL19
 10462 0355 0100     		.2byte	0x1
 10463 0357 55       		.byte	0x55
 10464 0358 00000000 		.4byte	0
 10465 035c 00000000 		.4byte	0
 10466              	.LLST27:
 10467 0360 6A000000 		.4byte	.LVL19
 10468 0364 72000000 		.4byte	.LVL20
 10469 0368 0100     		.2byte	0x1
 10470 036a 55       		.byte	0x55
 10471 036b 00000000 		.4byte	0
 10472 036f 00000000 		.4byte	0
 10473              	.LLST28:
 10474 0373 B0000000 		.4byte	.LVL23
 10475 0377 BC000000 		.4byte	.LVL25
 10476 037b 0200     		.2byte	0x2
 10477 037d 30       		.byte	0x30
 10478 037e 9F       		.byte	0x9f
 10479 037f 00000000 		.4byte	0
 10480 0383 00000000 		.4byte	0
 10481              	.LLST29:
 10482 0387 B0000000 		.4byte	.LVL23
 10483 038b BC000000 		.4byte	.LVL25
 10484 038f 0100     		.2byte	0x1
 10485 0391 54       		.byte	0x54
 10486 0392 00000000 		.4byte	0
 10487 0396 00000000 		.4byte	0
 10488              	.LLST30:
 10489 039a BC000000 		.4byte	.LVL25
 10490 039e C8000000 		.4byte	.LVL27
 10491 03a2 0200     		.2byte	0x2
 10492 03a4 30       		.byte	0x30
 10493 03a5 9F       		.byte	0x9f
 10494 03a6 00000000 		.4byte	0
 10495 03aa 00000000 		.4byte	0
 10496              	.LLST31:
 10497 03ae BC000000 		.4byte	.LVL25
 10498 03b2 C8000000 		.4byte	.LVL27
 10499 03b6 0100     		.2byte	0x1
 10500 03b8 54       		.byte	0x54
 10501 03b9 00000000 		.4byte	0
 10502 03bd 00000000 		.4byte	0
 10503              	.LLST32:
 10504 03c1 C8000000 		.4byte	.LVL27
 10505 03c5 D4000000 		.4byte	.LVL29
 10506 03c9 0200     		.2byte	0x2
 10507 03cb 30       		.byte	0x30
 10508 03cc 9F       		.byte	0x9f
 10509 03cd 00000000 		.4byte	0
 10510 03d1 00000000 		.4byte	0
 10511              	.LLST33:
 10512 03d5 C8000000 		.4byte	.LVL27
 10513 03d9 D4000000 		.4byte	.LVL29
 10514 03dd 0100     		.2byte	0x1
 10515 03df 54       		.byte	0x54
 10516 03e0 00000000 		.4byte	0
ARM GAS  C:\Users\haske\AppData\Local\Temp\cc11ZRIl.s 			page 218


 10517 03e4 00000000 		.4byte	0
 10518              	.LLST34:
 10519 03e8 D4000000 		.4byte	.LVL29
 10520 03ec DE000000 		.4byte	.LVL30
 10521 03f0 0200     		.2byte	0x2
 10522 03f2 30       		.byte	0x30
 10523 03f3 9F       		.byte	0x9f
 10524 03f4 00000000 		.4byte	0
 10525 03f8 00000000 		.4byte	0
 10526              	.LLST35:
 10527 03fc D4000000 		.4byte	.LVL29
 10528 0400 DE000000 		.4byte	.LVL30
 10529 0404 0100     		.2byte	0x1
 10530 0406 54       		.byte	0x54
 10531 0407 00000000 		.4byte	0
 10532 040b 00000000 		.4byte	0
 10533              	.LLST36:
 10534 040f DE000000 		.4byte	.LVL30
 10535 0413 E4000000 		.4byte	.LVL31
 10536 0417 0100     		.2byte	0x1
 10537 0419 55       		.byte	0x55
 10538 041a E4000000 		.4byte	.LVL31
 10539 041e F6000000 		.4byte	.LVL32
 10540 0422 0100     		.2byte	0x1
 10541 0424 51       		.byte	0x51
 10542 0425 00000000 		.4byte	0
 10543 0429 00000000 		.4byte	0
 10544              	.LLST37:
 10545 042d DE000000 		.4byte	.LVL30
 10546 0431 F6000000 		.4byte	.LVL32
 10547 0435 0300     		.2byte	0x3
 10548 0437 74       		.byte	0x74
 10549 0438 34       		.sleb128 52
 10550 0439 9F       		.byte	0x9f
 10551 043a 00000000 		.4byte	0
 10552 043e 00000000 		.4byte	0
 10553              	.LLST38:
 10554 0442 28010000 		.4byte	.LVL34
 10555 0446 2E010000 		.4byte	.LVL35
 10556 044a 0300     		.2byte	0x3
 10557 044c 74       		.byte	0x74
 10558 044d 34       		.sleb128 52
 10559 044e 9F       		.byte	0x9f
 10560 044f 00000000 		.4byte	0
 10561 0453 00000000 		.4byte	0
 10562              	.LLST39:
 10563 0457 50010000 		.4byte	.LVL36
 10564 045b 56010000 		.4byte	.LVL37
 10565 045f 0300     		.2byte	0x3
 10566 0461 74       		.byte	0x74
 10567 0462 34       		.sleb128 52
 10568 0463 9F       		.byte	0x9f
 10569 0464 00000000 		.4byte	0
 10570 0468 00000000 		.4byte	0
 10571              	.LLST40:
 10572 046c 72010000 		.4byte	.LVL38
 10573 0470 84010000 		.4byte	.LVL39
ARM GAS  C:\Users\haske\AppData\Local\Temp\cc11ZRIl.s 			page 219


 10574 0474 0300     		.2byte	0x3
 10575 0476 74       		.byte	0x74
 10576 0477 34       		.sleb128 52
 10577 0478 9F       		.byte	0x9f
 10578 0479 00000000 		.4byte	0
 10579 047d 00000000 		.4byte	0
 10580              	.LLST41:
 10581 0481 84010000 		.4byte	.LVL39
 10582 0485 94010000 		.4byte	.LVL40
 10583 0489 0300     		.2byte	0x3
 10584 048b 74       		.byte	0x74
 10585 048c 34       		.sleb128 52
 10586 048d 9F       		.byte	0x9f
 10587 048e 00000000 		.4byte	0
 10588 0492 00000000 		.4byte	0
 10589              	.LLST42:
 10590 0496 E4010000 		.4byte	.LVL49
 10591 049a 10020000 		.4byte	.LVL56
 10592 049e 0100     		.2byte	0x1
 10593 04a0 55       		.byte	0x55
 10594 04a1 00000000 		.4byte	0
 10595 04a5 00000000 		.4byte	0
 10596              	.LLST43:
 10597 04a9 F6010000 		.4byte	.LVL51
 10598 04ad F8010000 		.4byte	.LVL52
 10599 04b1 0100     		.2byte	0x1
 10600 04b3 50       		.byte	0x50
 10601 04b4 00000000 		.4byte	0
 10602 04b8 00000000 		.4byte	0
 10603              	.LLST44:
 10604 04bc 44020000 		.4byte	.LVL60
 10605 04c0 6C020000 		.4byte	.LVL65
 10606 04c4 0300     		.2byte	0x3
 10607 04c6 91       		.byte	0x91
 10608 04c7 C47D     		.sleb128 -316
 10609 04c9 00000000 		.4byte	0
 10610 04cd 00000000 		.4byte	0
 10611              	.LLST45:
 10612 04d1 54020000 		.4byte	.LVL62
 10613 04d5 58020000 		.4byte	.LVL63
 10614 04d9 0100     		.2byte	0x1
 10615 04db 50       		.byte	0x50
 10616 04dc 00000000 		.4byte	0
 10617 04e0 00000000 		.4byte	0
 10618              	.LLST46:
 10619 04e4 7E020000 		.4byte	.LVL67
 10620 04e8 8A020000 		.4byte	.LVL69
 10621 04ec 0200     		.2byte	0x2
 10622 04ee 30       		.byte	0x30
 10623 04ef 9F       		.byte	0x9f
 10624 04f0 00000000 		.4byte	0
 10625 04f4 00000000 		.4byte	0
 10626              	.LLST47:
 10627 04f8 7E020000 		.4byte	.LVL67
 10628 04fc 8A020000 		.4byte	.LVL69
 10629 0500 0100     		.2byte	0x1
 10630 0502 54       		.byte	0x54
ARM GAS  C:\Users\haske\AppData\Local\Temp\cc11ZRIl.s 			page 220


 10631 0503 00000000 		.4byte	0
 10632 0507 00000000 		.4byte	0
 10633              	.LLST48:
 10634 050b 92020000 		.4byte	.LVL70
 10635 050f A2020000 		.4byte	.LVL74
 10636 0513 0100     		.2byte	0x1
 10637 0515 56       		.byte	0x56
 10638 0516 A2020000 		.4byte	.LVL74
 10639 051a A4020000 		.4byte	.LVL75
 10640 051e 0100     		.2byte	0x1
 10641 0520 53       		.byte	0x53
 10642 0521 00000000 		.4byte	0
 10643 0525 00000000 		.4byte	0
 10644              	.LLST49:
 10645 0529 F2020000 		.4byte	.LVL83
 10646 052d 08030000 		.4byte	.LVL84
 10647 0531 0100     		.2byte	0x1
 10648 0533 50       		.byte	0x50
 10649 0534 14030000 		.4byte	.LVL86
 10650 0538 36030000 		.4byte	.LVL87
 10651 053c 0100     		.2byte	0x1
 10652 053e 50       		.byte	0x50
 10653 053f 36030000 		.4byte	.LVL87
 10654 0543 3C030000 		.4byte	.LVL88
 10655 0547 0100     		.2byte	0x1
 10656 0549 53       		.byte	0x53
 10657 054a 00000000 		.4byte	0
 10658 054e 00000000 		.4byte	0
 10659              	.LLST50:
 10660 0552 E6020000 		.4byte	.LVL81
 10661 0556 F0020000 		.4byte	.LVL82
 10662 055a 0100     		.2byte	0x1
 10663 055c 50       		.byte	0x50
 10664 055d 08030000 		.4byte	.LVL84
 10665 0561 10030000 		.4byte	.LVL85
 10666 0565 0100     		.2byte	0x1
 10667 0567 50       		.byte	0x50
 10668 0568 00000000 		.4byte	0
 10669 056c 00000000 		.4byte	0
 10670              	.LLST51:
 10671 0570 BE030000 		.4byte	.LVL98
 10672 0574 CA030000 		.4byte	.LVL100
 10673 0578 0200     		.2byte	0x2
 10674 057a 30       		.byte	0x30
 10675 057b 9F       		.byte	0x9f
 10676 057c 00000000 		.4byte	0
 10677 0580 00000000 		.4byte	0
 10678              	.LLST52:
 10679 0584 BE030000 		.4byte	.LVL98
 10680 0588 CA030000 		.4byte	.LVL100
 10681 058c 0100     		.2byte	0x1
 10682 058e 54       		.byte	0x54
 10683 058f 00000000 		.4byte	0
 10684 0593 00000000 		.4byte	0
 10685              	.LLST53:
 10686 0597 FE030000 		.4byte	.LVL110
 10687 059b 0C040000 		.4byte	.LVL111
ARM GAS  C:\Users\haske\AppData\Local\Temp\cc11ZRIl.s 			page 221


 10688 059f 0300     		.2byte	0x3
 10689 05a1 74       		.byte	0x74
 10690 05a2 34       		.sleb128 52
 10691 05a3 9F       		.byte	0x9f
 10692 05a4 00000000 		.4byte	0
 10693 05a8 00000000 		.4byte	0
 10694              	.LLST54:
 10695 05ac 16040000 		.4byte	.LVL112
 10696 05b0 24040000 		.4byte	.LVL113
 10697 05b4 0300     		.2byte	0x3
 10698 05b6 74       		.byte	0x74
 10699 05b7 34       		.sleb128 52
 10700 05b8 9F       		.byte	0x9f
 10701 05b9 00000000 		.4byte	0
 10702 05bd 00000000 		.4byte	0
 10703              	.LLST55:
 10704 05c1 30040000 		.4byte	.LVL115
 10705 05c5 5A040000 		.4byte	.LVL119
 10706 05c9 0100     		.2byte	0x1
 10707 05cb 5B       		.byte	0x5b
 10708 05cc 00000000 		.4byte	0
 10709 05d0 00000000 		.4byte	0
 10710              	.LLST56:
 10711 05d4 34040000 		.4byte	.LVL116
 10712 05d8 5A040000 		.4byte	.LVL119
 10713 05dc 0300     		.2byte	0x3
 10714 05de 91       		.byte	0x91
 10715 05df 987D     		.sleb128 -360
 10716 05e1 00000000 		.4byte	0
 10717 05e5 00000000 		.4byte	0
 10718              	.LLST57:
 10719 05e9 3A040000 		.4byte	.LVL117
 10720 05ed 5A040000 		.4byte	.LVL119
 10721 05f1 0100     		.2byte	0x1
 10722 05f3 58       		.byte	0x58
 10723 05f4 00000000 		.4byte	0
 10724 05f8 00000000 		.4byte	0
 10725              	.LLST58:
 10726 05fc AC040000 		.4byte	.LVL126
 10727 0600 AE040000 		.4byte	.LVL127
 10728 0604 0300     		.2byte	0x3
 10729 0606 91       		.byte	0x91
 10730 0607 50       		.sleb128 -48
 10731 0608 9F       		.byte	0x9f
 10732 0609 AE040000 		.4byte	.LVL127
 10733 060d C0040000 		.4byte	.LVL130
 10734 0611 0100     		.2byte	0x1
 10735 0613 51       		.byte	0x51
 10736 0614 00000000 		.4byte	0
 10737 0618 00000000 		.4byte	0
 10738              	.LLST59:
 10739 061c AC040000 		.4byte	.LVL126
 10740 0620 B4040000 		.4byte	.LVL128
 10741 0624 0400     		.2byte	0x4
 10742 0626 91       		.byte	0x91
 10743 0627 A87E     		.sleb128 -216
 10744 0629 9F       		.byte	0x9f
ARM GAS  C:\Users\haske\AppData\Local\Temp\cc11ZRIl.s 			page 222


 10745 062a B4040000 		.4byte	.LVL128
 10746 062e C0040000 		.4byte	.LVL130
 10747 0632 0100     		.2byte	0x1
 10748 0634 52       		.byte	0x52
 10749 0635 00000000 		.4byte	0
 10750 0639 00000000 		.4byte	0
 10751              	.LLST60:
 10752 063d E8040000 		.4byte	.LVL131
 10753 0641 EE040000 		.4byte	.LVL132
 10754 0645 0100     		.2byte	0x1
 10755 0647 52       		.byte	0x52
 10756 0648 00000000 		.4byte	0
 10757 064c 00000000 		.4byte	0
 10758              	.LLST61:
 10759 0650 20050000 		.4byte	.LVL133
 10760 0654 26050000 		.4byte	.LVL134
 10761 0658 0100     		.2byte	0x1
 10762 065a 52       		.byte	0x52
 10763 065b 00000000 		.4byte	0
 10764 065f 00000000 		.4byte	0
 10765              	.LLST62:
 10766 0663 00000000 		.4byte	.LVL147
 10767 0667 0A000000 		.4byte	.LVL148
 10768 066b 0100     		.2byte	0x1
 10769 066d 50       		.byte	0x50
 10770 066e 0A000000 		.4byte	.LVL148
 10771 0672 D4000000 		.4byte	.LFE172
 10772 0676 0400     		.2byte	0x4
 10773 0678 F3       		.byte	0xf3
 10774 0679 01       		.uleb128 0x1
 10775 067a 50       		.byte	0x50
 10776 067b 9F       		.byte	0x9f
 10777 067c 00000000 		.4byte	0
 10778 0680 00000000 		.4byte	0
 10779              	.LLST63:
 10780 0684 00000000 		.4byte	.LVL147
 10781 0688 0D000000 		.4byte	.LVL149-1
 10782 068c 0100     		.2byte	0x1
 10783 068e 51       		.byte	0x51
 10784 068f 0D000000 		.4byte	.LVL149-1
 10785 0693 5E000000 		.4byte	.LVL165
 10786 0697 0100     		.2byte	0x1
 10787 0699 54       		.byte	0x54
 10788 069a 5E000000 		.4byte	.LVL165
 10789 069e AA000000 		.4byte	.LVL172
 10790 06a2 0400     		.2byte	0x4
 10791 06a4 F3       		.byte	0xf3
 10792 06a5 01       		.uleb128 0x1
 10793 06a6 51       		.byte	0x51
 10794 06a7 9F       		.byte	0x9f
 10795 06a8 AA000000 		.4byte	.LVL172
 10796 06ac C8000000 		.4byte	.LVL178
 10797 06b0 0100     		.2byte	0x1
 10798 06b2 54       		.byte	0x54
 10799 06b3 C8000000 		.4byte	.LVL178
 10800 06b7 D4000000 		.4byte	.LFE172
 10801 06bb 0400     		.2byte	0x4
ARM GAS  C:\Users\haske\AppData\Local\Temp\cc11ZRIl.s 			page 223


 10802 06bd F3       		.byte	0xf3
 10803 06be 01       		.uleb128 0x1
 10804 06bf 51       		.byte	0x51
 10805 06c0 9F       		.byte	0x9f
 10806 06c1 00000000 		.4byte	0
 10807 06c5 00000000 		.4byte	0
 10808              	.LLST64:
 10809 06c9 0E000000 		.4byte	.LVL149
 10810 06cd 14000000 		.4byte	.LVL150
 10811 06d1 0100     		.2byte	0x1
 10812 06d3 50       		.byte	0x50
 10813 06d4 00000000 		.4byte	0
 10814 06d8 00000000 		.4byte	0
 10815              	.LLST65:
 10816 06dc 1A000000 		.4byte	.LVL152
 10817 06e0 1C000000 		.4byte	.LVL153
 10818 06e4 0100     		.2byte	0x1
 10819 06e6 50       		.byte	0x50
 10820 06e7 1C000000 		.4byte	.LVL153
 10821 06eb 38000000 		.4byte	.LVL159
 10822 06ef 0100     		.2byte	0x1
 10823 06f1 55       		.byte	0x55
 10824 06f2 AA000000 		.4byte	.LVL172
 10825 06f6 C8000000 		.4byte	.LVL178
 10826 06fa 0100     		.2byte	0x1
 10827 06fc 55       		.byte	0x55
 10828 06fd 00000000 		.4byte	0
 10829 0701 00000000 		.4byte	0
 10830              	.LLST66:
 10831 0705 22000000 		.4byte	.LVL155
 10832 0709 2D000000 		.4byte	.LVL156-1
 10833 070d 0100     		.2byte	0x1
 10834 070f 50       		.byte	0x50
 10835 0710 2D000000 		.4byte	.LVL156-1
 10836 0714 AA000000 		.4byte	.LVL172
 10837 0718 0100     		.2byte	0x1
 10838 071a 56       		.byte	0x56
 10839 071b AA000000 		.4byte	.LVL172
 10840 071f B8000000 		.4byte	.LVL174
 10841 0723 0100     		.2byte	0x1
 10842 0725 50       		.byte	0x50
 10843 0726 B8000000 		.4byte	.LVL174
 10844 072a BE000000 		.4byte	.LVL176
 10845 072e 0100     		.2byte	0x1
 10846 0730 56       		.byte	0x56
 10847 0731 BE000000 		.4byte	.LVL176
 10848 0735 C4000000 		.4byte	.LVL177
 10849 0739 0100     		.2byte	0x1
 10850 073b 50       		.byte	0x50
 10851 073c C4000000 		.4byte	.LVL177
 10852 0740 C8000000 		.4byte	.LVL178
 10853 0744 0100     		.2byte	0x1
 10854 0746 56       		.byte	0x56
 10855 0747 00000000 		.4byte	0
 10856 074b 00000000 		.4byte	0
 10857              	.LLST67:
 10858 074f 30000000 		.4byte	.LVL157
ARM GAS  C:\Users\haske\AppData\Local\Temp\cc11ZRIl.s 			page 224


 10859 0753 52000000 		.4byte	.LVL163
 10860 0757 0100     		.2byte	0x1
 10861 0759 57       		.byte	0x57
 10862 075a 00000000 		.4byte	0
 10863 075e 00000000 		.4byte	0
 10864              	.LLST68:
 10865 0762 38000000 		.4byte	.LVL159
 10866 0766 4C000000 		.4byte	.LVL161
 10867 076a 0100     		.2byte	0x1
 10868 076c 50       		.byte	0x50
 10869 076d 4C000000 		.4byte	.LVL161
 10870 0771 AA000000 		.4byte	.LVL172
 10871 0775 0100     		.2byte	0x1
 10872 0777 55       		.byte	0x55
 10873 0778 00000000 		.4byte	0
 10874 077c 00000000 		.4byte	0
 10875              	.LLST69:
 10876 0780 96000000 		.4byte	.LVL170
 10877 0784 9C000000 		.4byte	.LVL171
 10878 0788 0100     		.2byte	0x1
 10879 078a 52       		.byte	0x52
 10880 078b 9C000000 		.4byte	.LVL171
 10881 078f AA000000 		.4byte	.LVL172
 10882 0793 0400     		.2byte	0x4
 10883 0795 72       		.byte	0x72
 10884 0796 00       		.sleb128 0
 10885 0797 1F       		.byte	0x1f
 10886 0798 9F       		.byte	0x9f
 10887 0799 00000000 		.4byte	0
 10888 079d 00000000 		.4byte	0
 10889              	.LLST70:
 10890 07a1 46000000 		.4byte	.LVL160
 10891 07a5 52000000 		.4byte	.LVL163
 10892 07a9 0200     		.2byte	0x2
 10893 07ab 30       		.byte	0x30
 10894 07ac 9F       		.byte	0x9f
 10895 07ad 00000000 		.4byte	0
 10896 07b1 00000000 		.4byte	0
 10897              	.LLST71:
 10898 07b5 46000000 		.4byte	.LVL160
 10899 07b9 52000000 		.4byte	.LVL163
 10900 07bd 0100     		.2byte	0x1
 10901 07bf 56       		.byte	0x56
 10902 07c0 00000000 		.4byte	0
 10903 07c4 00000000 		.4byte	0
 10904              	.LLST72:
 10905 07c8 52000000 		.4byte	.LVL163
 10906 07cc 5E000000 		.4byte	.LVL165
 10907 07d0 0200     		.2byte	0x2
 10908 07d2 30       		.byte	0x30
 10909 07d3 9F       		.byte	0x9f
 10910 07d4 00000000 		.4byte	0
 10911 07d8 00000000 		.4byte	0
 10912              	.LLST73:
 10913 07dc 52000000 		.4byte	.LVL163
 10914 07e0 5E000000 		.4byte	.LVL165
 10915 07e4 0100     		.2byte	0x1
ARM GAS  C:\Users\haske\AppData\Local\Temp\cc11ZRIl.s 			page 225


 10916 07e6 56       		.byte	0x56
 10917 07e7 00000000 		.4byte	0
 10918 07eb 00000000 		.4byte	0
 10919              	.LLST74:
 10920 07ef 5E000000 		.4byte	.LVL165
 10921 07f3 6C000000 		.4byte	.LVL167
 10922 07f7 0200     		.2byte	0x2
 10923 07f9 30       		.byte	0x30
 10924 07fa 9F       		.byte	0x9f
 10925 07fb 00000000 		.4byte	0
 10926 07ff 00000000 		.4byte	0
 10927              	.LLST75:
 10928 0803 5E000000 		.4byte	.LVL165
 10929 0807 6C000000 		.4byte	.LVL167
 10930 080b 0100     		.2byte	0x1
 10931 080d 56       		.byte	0x56
 10932 080e 00000000 		.4byte	0
 10933 0812 00000000 		.4byte	0
 10934              	.LLST76:
 10935 0816 6C000000 		.4byte	.LVL167
 10936 081a 78000000 		.4byte	.LVL169
 10937 081e 0200     		.2byte	0x2
 10938 0820 30       		.byte	0x30
 10939 0821 9F       		.byte	0x9f
 10940 0822 00000000 		.4byte	0
 10941 0826 00000000 		.4byte	0
 10942              	.LLST77:
 10943 082a 6C000000 		.4byte	.LVL167
 10944 082e 78000000 		.4byte	.LVL169
 10945 0832 0100     		.2byte	0x1
 10946 0834 56       		.byte	0x56
 10947 0835 00000000 		.4byte	0
 10948 0839 00000000 		.4byte	0
 10949              	.LLST78:
 10950 083d B2000000 		.4byte	.LVL173
 10951 0841 BB000000 		.4byte	.LVL175-1
 10952 0845 0100     		.2byte	0x1
 10953 0847 50       		.byte	0x50
 10954 0848 BB000000 		.4byte	.LVL175-1
 10955 084c BE000000 		.4byte	.LVL176
 10956 0850 0100     		.2byte	0x1
 10957 0852 56       		.byte	0x56
 10958 0853 00000000 		.4byte	0
 10959 0857 00000000 		.4byte	0
 10960              	.LLST79:
 10961 085b 00000000 		.4byte	.LVL179
 10962 085f 06000000 		.4byte	.LVL181
 10963 0863 0100     		.2byte	0x1
 10964 0865 50       		.byte	0x50
 10965 0866 06000000 		.4byte	.LVL181
 10966 086a 1A000000 		.4byte	.LFE170
 10967 086e 0400     		.2byte	0x4
 10968 0870 F3       		.byte	0xf3
 10969 0871 01       		.uleb128 0x1
 10970 0872 50       		.byte	0x50
 10971 0873 9F       		.byte	0x9f
 10972 0874 00000000 		.4byte	0
ARM GAS  C:\Users\haske\AppData\Local\Temp\cc11ZRIl.s 			page 226


 10973 0878 00000000 		.4byte	0
 10974              	.LLST80:
 10975 087c 00000000 		.4byte	.LVL179
 10976 0880 0A000000 		.4byte	.LVL182
 10977 0884 0100     		.2byte	0x1
 10978 0886 51       		.byte	0x51
 10979 0887 0A000000 		.4byte	.LVL182
 10980 088b 18000000 		.4byte	.LVL185
 10981 088f 0100     		.2byte	0x1
 10982 0891 54       		.byte	0x54
 10983 0892 18000000 		.4byte	.LVL185
 10984 0896 1A000000 		.4byte	.LFE170
 10985 089a 0400     		.2byte	0x4
 10986 089c F3       		.byte	0xf3
 10987 089d 01       		.uleb128 0x1
 10988 089e 51       		.byte	0x51
 10989 089f 9F       		.byte	0x9f
 10990 08a0 00000000 		.4byte	0
 10991 08a4 00000000 		.4byte	0
 10992              	.LLST81:
 10993 08a8 04000000 		.4byte	.LVL180
 10994 08ac 0A000000 		.4byte	.LVL182
 10995 08b0 0100     		.2byte	0x1
 10996 08b2 51       		.byte	0x51
 10997 08b3 0A000000 		.4byte	.LVL182
 10998 08b7 18000000 		.4byte	.LVL185
 10999 08bb 0100     		.2byte	0x1
 11000 08bd 54       		.byte	0x54
 11001 08be 18000000 		.4byte	.LVL185
 11002 08c2 1A000000 		.4byte	.LFE170
 11003 08c6 0400     		.2byte	0x4
 11004 08c8 F3       		.byte	0xf3
 11005 08c9 01       		.uleb128 0x1
 11006 08ca 51       		.byte	0x51
 11007 08cb 9F       		.byte	0x9f
 11008 08cc 00000000 		.4byte	0
 11009 08d0 00000000 		.4byte	0
 11010              	.LLST82:
 11011 08d4 00000000 		.4byte	.LVL186
 11012 08d8 28000000 		.4byte	.LVL189
 11013 08dc 0100     		.2byte	0x1
 11014 08de 50       		.byte	0x50
 11015 08df 28000000 		.4byte	.LVL189
 11016 08e3 2E000000 		.4byte	.LFE174
 11017 08e7 0400     		.2byte	0x4
 11018 08e9 F3       		.byte	0xf3
 11019 08ea 01       		.uleb128 0x1
 11020 08eb 50       		.byte	0x50
 11021 08ec 9F       		.byte	0x9f
 11022 08ed 00000000 		.4byte	0
 11023 08f1 00000000 		.4byte	0
 11024              	.LLST83:
 11025 08f5 04000000 		.4byte	.LVL187
 11026 08f9 2B000000 		.4byte	.LVL190-1
 11027 08fd 0100     		.2byte	0x1
 11028 08ff 53       		.byte	0x53
 11029 0900 00000000 		.4byte	0
ARM GAS  C:\Users\haske\AppData\Local\Temp\cc11ZRIl.s 			page 227


 11030 0904 00000000 		.4byte	0
 11031              	.LLST84:
 11032 0908 06000000 		.4byte	.LVL188
 11033 090c 2B000000 		.4byte	.LVL190-1
 11034 0910 0100     		.2byte	0x1
 11035 0912 52       		.byte	0x52
 11036 0913 00000000 		.4byte	0
 11037 0917 00000000 		.4byte	0
 11038              	.LLST86:
 11039 091b 00000000 		.4byte	.LVL191
 11040 091f 06000000 		.4byte	.LVL193
 11041 0923 0100     		.2byte	0x1
 11042 0925 50       		.byte	0x50
 11043 0926 06000000 		.4byte	.LVL193
 11044 092a 0C000000 		.4byte	.LFE173
 11045 092e 0400     		.2byte	0x4
 11046 0930 F3       		.byte	0xf3
 11047 0931 01       		.uleb128 0x1
 11048 0932 50       		.byte	0x50
 11049 0933 9F       		.byte	0x9f
 11050 0934 00000000 		.4byte	0
 11051 0938 00000000 		.4byte	0
 11052              	.LLST87:
 11053 093c 00000000 		.4byte	.LVL191
 11054 0940 09000000 		.4byte	.LVL194-1
 11055 0944 0100     		.2byte	0x1
 11056 0946 51       		.byte	0x51
 11057 0947 09000000 		.4byte	.LVL194-1
 11058 094b 0C000000 		.4byte	.LFE173
 11059 094f 0400     		.2byte	0x4
 11060 0951 F3       		.byte	0xf3
 11061 0952 01       		.uleb128 0x1
 11062 0953 51       		.byte	0x51
 11063 0954 9F       		.byte	0x9f
 11064 0955 00000000 		.4byte	0
 11065 0959 00000000 		.4byte	0
 11066              	.LLST88:
 11067 095d 02000000 		.4byte	.LVL192
 11068 0961 06000000 		.4byte	.LVL193
 11069 0965 0100     		.2byte	0x1
 11070 0967 50       		.byte	0x50
 11071 0968 06000000 		.4byte	.LVL193
 11072 096c 0C000000 		.4byte	.LFE173
 11073 0970 0400     		.2byte	0x4
 11074 0972 F3       		.byte	0xf3
 11075 0973 01       		.uleb128 0x1
 11076 0974 50       		.byte	0x50
 11077 0975 9F       		.byte	0x9f
 11078 0976 00000000 		.4byte	0
 11079 097a 00000000 		.4byte	0
 11080              	.LLST89:
 11081 097e 00000000 		.4byte	.LVL195
 11082 0982 18000000 		.4byte	.LVL199
 11083 0986 0100     		.2byte	0x1
 11084 0988 50       		.byte	0x50
 11085 0989 18000000 		.4byte	.LVL199
 11086 098d 2C000000 		.4byte	.LVL202
ARM GAS  C:\Users\haske\AppData\Local\Temp\cc11ZRIl.s 			page 228


 11087 0991 0100     		.2byte	0x1
 11088 0993 56       		.byte	0x56
 11089 0994 2C000000 		.4byte	.LVL202
 11090 0998 46000000 		.4byte	.LVL204
 11091 099c 0100     		.2byte	0x1
 11092 099e 50       		.byte	0x50
 11093 099f 46000000 		.4byte	.LVL204
 11094 09a3 7A000000 		.4byte	.LVL217
 11095 09a7 0100     		.2byte	0x1
 11096 09a9 56       		.byte	0x56
 11097 09aa 7A000000 		.4byte	.LVL217
 11098 09ae 84000000 		.4byte	.LFE175
 11099 09b2 0400     		.2byte	0x4
 11100 09b4 F3       		.byte	0xf3
 11101 09b5 01       		.uleb128 0x1
 11102 09b6 50       		.byte	0x50
 11103 09b7 9F       		.byte	0x9f
 11104 09b8 00000000 		.4byte	0
 11105 09bc 00000000 		.4byte	0
 11106              	.LLST90:
 11107 09c0 00000000 		.4byte	.LVL195
 11108 09c4 16000000 		.4byte	.LVL198
 11109 09c8 0100     		.2byte	0x1
 11110 09ca 51       		.byte	0x51
 11111 09cb 16000000 		.4byte	.LVL198
 11112 09cf 2C000000 		.4byte	.LVL202
 11113 09d3 0100     		.2byte	0x1
 11114 09d5 55       		.byte	0x55
 11115 09d6 2C000000 		.4byte	.LVL202
 11116 09da 44000000 		.4byte	.LVL203
 11117 09de 0100     		.2byte	0x1
 11118 09e0 51       		.byte	0x51
 11119 09e1 44000000 		.4byte	.LVL203
 11120 09e5 7A000000 		.4byte	.LVL216
 11121 09e9 0100     		.2byte	0x1
 11122 09eb 55       		.byte	0x55
 11123 09ec 7A000000 		.4byte	.LVL216
 11124 09f0 84000000 		.4byte	.LFE175
 11125 09f4 0400     		.2byte	0x4
 11126 09f6 F3       		.byte	0xf3
 11127 09f7 01       		.uleb128 0x1
 11128 09f8 51       		.byte	0x51
 11129 09f9 9F       		.byte	0x9f
 11130 09fa 00000000 		.4byte	0
 11131 09fe 00000000 		.4byte	0
 11132              	.LLST91:
 11133 0a02 00000000 		.4byte	.LVL195
 11134 0a06 1B000000 		.4byte	.LVL200-1
 11135 0a0a 0100     		.2byte	0x1
 11136 0a0c 52       		.byte	0x52
 11137 0a0d 1B000000 		.4byte	.LVL200-1
 11138 0a11 2C000000 		.4byte	.LVL202
 11139 0a15 0100     		.2byte	0x1
 11140 0a17 57       		.byte	0x57
 11141 0a18 2C000000 		.4byte	.LVL202
 11142 0a1c 49000000 		.4byte	.LVL205-1
 11143 0a20 0100     		.2byte	0x1
ARM GAS  C:\Users\haske\AppData\Local\Temp\cc11ZRIl.s 			page 229


 11144 0a22 52       		.byte	0x52
 11145 0a23 49000000 		.4byte	.LVL205-1
 11146 0a27 7A000000 		.4byte	.LVL218
 11147 0a2b 0100     		.2byte	0x1
 11148 0a2d 57       		.byte	0x57
 11149 0a2e 7A000000 		.4byte	.LVL218
 11150 0a32 84000000 		.4byte	.LFE175
 11151 0a36 0400     		.2byte	0x4
 11152 0a38 F3       		.byte	0xf3
 11153 0a39 01       		.uleb128 0x1
 11154 0a3a 52       		.byte	0x52
 11155 0a3b 9F       		.byte	0x9f
 11156 0a3c 00000000 		.4byte	0
 11157 0a40 00000000 		.4byte	0
 11158              	.LLST92:
 11159 0a44 00000000 		.4byte	.LVL195
 11160 0a48 0E000000 		.4byte	.LVL196
 11161 0a4c 0100     		.2byte	0x1
 11162 0a4e 53       		.byte	0x53
 11163 0a4f 0E000000 		.4byte	.LVL196
 11164 0a53 7A000000 		.4byte	.LVL215
 11165 0a57 0100     		.2byte	0x1
 11166 0a59 54       		.byte	0x54
 11167 0a5a 7A000000 		.4byte	.LVL215
 11168 0a5e 84000000 		.4byte	.LFE175
 11169 0a62 0400     		.2byte	0x4
 11170 0a64 F3       		.byte	0xf3
 11171 0a65 01       		.uleb128 0x1
 11172 0a66 53       		.byte	0x53
 11173 0a67 9F       		.byte	0x9f
 11174 0a68 00000000 		.4byte	0
 11175 0a6c 00000000 		.4byte	0
 11176              	.LLST93:
 11177 0a70 00000000 		.4byte	.LVL195
 11178 0a74 0E000000 		.4byte	.LVL196
 11179 0a78 0200     		.2byte	0x2
 11180 0a7a 91       		.byte	0x91
 11181 0a7b 00       		.sleb128 0
 11182 0a7c 0E000000 		.4byte	.LVL196
 11183 0a80 10000000 		.4byte	.LVL197
 11184 0a84 0200     		.2byte	0x2
 11185 0a86 73       		.byte	0x73
 11186 0a87 00       		.sleb128 0
 11187 0a88 10000000 		.4byte	.LVL197
 11188 0a8c 84000000 		.4byte	.LFE175
 11189 0a90 0200     		.2byte	0x2
 11190 0a92 91       		.byte	0x91
 11191 0a93 00       		.sleb128 0
 11192 0a94 00000000 		.4byte	0
 11193 0a98 00000000 		.4byte	0
 11194              	.LLST94:
 11195 0a9c 50000000 		.4byte	.LVL206
 11196 0aa0 52000000 		.4byte	.LVL207
 11197 0aa4 0100     		.2byte	0x1
 11198 0aa6 54       		.byte	0x54
 11199 0aa7 00000000 		.4byte	0
 11200 0aab 00000000 		.4byte	0
ARM GAS  C:\Users\haske\AppData\Local\Temp\cc11ZRIl.s 			page 230


 11201              	.LLST95:
 11202 0aaf 50000000 		.4byte	.LVL206
 11203 0ab3 52000000 		.4byte	.LVL207
 11204 0ab7 0400     		.2byte	0x4
 11205 0ab9 91       		.byte	0x91
 11206 0aba A47F     		.sleb128 -92
 11207 0abc 9F       		.byte	0x9f
 11208 0abd 00000000 		.4byte	0
 11209 0ac1 00000000 		.4byte	0
 11210              	.LLST96:
 11211 0ac5 52000000 		.4byte	.LVL207
 11212 0ac9 56000000 		.4byte	.LVL208
 11213 0acd 0600     		.2byte	0x6
 11214 0acf 03       		.byte	0x3
 11215 0ad0 00000000 		.4byte	lv_bar_anim
 11216 0ad4 9F       		.byte	0x9f
 11217 0ad5 00000000 		.4byte	0
 11218 0ad9 00000000 		.4byte	0
 11219              	.LLST97:
 11220 0add 52000000 		.4byte	.LVL207
 11221 0ae1 56000000 		.4byte	.LVL208
 11222 0ae5 0400     		.2byte	0x4
 11223 0ae7 91       		.byte	0x91
 11224 0ae8 A47F     		.sleb128 -92
 11225 0aea 9F       		.byte	0x9f
 11226 0aeb 00000000 		.4byte	0
 11227 0aef 00000000 		.4byte	0
 11228              	.LLST98:
 11229 0af3 56000000 		.4byte	.LVL208
 11230 0af7 62000000 		.4byte	.LVL209
 11231 0afb 0400     		.2byte	0x4
 11232 0afd 0A       		.byte	0xa
 11233 0afe 0001     		.2byte	0x100
 11234 0b00 9F       		.byte	0x9f
 11235 0b01 00000000 		.4byte	0
 11236 0b05 00000000 		.4byte	0
 11237              	.LLST99:
 11238 0b09 56000000 		.4byte	.LVL208
 11239 0b0d 62000000 		.4byte	.LVL209
 11240 0b11 0200     		.2byte	0x2
 11241 0b13 30       		.byte	0x30
 11242 0b14 9F       		.byte	0x9f
 11243 0b15 00000000 		.4byte	0
 11244 0b19 00000000 		.4byte	0
 11245              	.LLST100:
 11246 0b1d 56000000 		.4byte	.LVL208
 11247 0b21 62000000 		.4byte	.LVL209
 11248 0b25 0400     		.2byte	0x4
 11249 0b27 91       		.byte	0x91
 11250 0b28 A47F     		.sleb128 -92
 11251 0b2a 9F       		.byte	0x9f
 11252 0b2b 00000000 		.4byte	0
 11253 0b2f 00000000 		.4byte	0
 11254              	.LLST101:
 11255 0b33 62000000 		.4byte	.LVL209
 11256 0b37 66000000 		.4byte	.LVL210
 11257 0b3b 0600     		.2byte	0x6
ARM GAS  C:\Users\haske\AppData\Local\Temp\cc11ZRIl.s 			page 231


 11258 0b3d 03       		.byte	0x3
 11259 0b3e 00000000 		.4byte	lv_bar_anim_ready
 11260 0b42 9F       		.byte	0x9f
 11261 0b43 00000000 		.4byte	0
 11262 0b47 00000000 		.4byte	0
 11263              	.LLST102:
 11264 0b4b 62000000 		.4byte	.LVL209
 11265 0b4f 66000000 		.4byte	.LVL210
 11266 0b53 0400     		.2byte	0x4
 11267 0b55 91       		.byte	0x91
 11268 0b56 A47F     		.sleb128 -92
 11269 0b58 9F       		.byte	0x9f
 11270 0b59 00000000 		.4byte	0
 11271 0b5d 00000000 		.4byte	0
 11272              	.LLST103:
 11273 0b61 66000000 		.4byte	.LVL210
 11274 0b65 70000000 		.4byte	.LVL211
 11275 0b69 0200     		.2byte	0x2
 11276 0b6b 30       		.byte	0x30
 11277 0b6c 9F       		.byte	0x9f
 11278 0b6d 00000000 		.4byte	0
 11279 0b71 00000000 		.4byte	0
 11280              	.LLST104:
 11281 0b75 66000000 		.4byte	.LVL210
 11282 0b79 70000000 		.4byte	.LVL211
 11283 0b7d 0100     		.2byte	0x1
 11284 0b7f 56       		.byte	0x56
 11285 0b80 00000000 		.4byte	0
 11286 0b84 00000000 		.4byte	0
 11287              	.LLST105:
 11288 0b88 70000000 		.4byte	.LVL211
 11289 0b8c 74000000 		.4byte	.LVL213
 11290 0b90 0100     		.2byte	0x1
 11291 0b92 50       		.byte	0x50
 11292 0b93 00000000 		.4byte	0
 11293 0b97 00000000 		.4byte	0
 11294              	.LLST106:
 11295 0b9b 70000000 		.4byte	.LVL211
 11296 0b9f 72000000 		.4byte	.LVL212
 11297 0ba3 0400     		.2byte	0x4
 11298 0ba5 91       		.byte	0x91
 11299 0ba6 A47F     		.sleb128 -92
 11300 0ba8 9F       		.byte	0x9f
 11301 0ba9 00000000 		.4byte	0
 11302 0bad 00000000 		.4byte	0
 11303              	.LLST107:
 11304 0bb1 00000000 		.4byte	.LVL219
 11305 0bb5 06000000 		.4byte	.LVL220
 11306 0bb9 0100     		.2byte	0x1
 11307 0bbb 50       		.byte	0x50
 11308 0bbc 06000000 		.4byte	.LVL220
 11309 0bc0 09000000 		.4byte	.LVL221-1
 11310 0bc4 0100     		.2byte	0x1
 11311 0bc6 51       		.byte	0x51
 11312 0bc7 09000000 		.4byte	.LVL221-1
 11313 0bcb 18000000 		.4byte	.LFE159
 11314 0bcf 0400     		.2byte	0x4
ARM GAS  C:\Users\haske\AppData\Local\Temp\cc11ZRIl.s 			page 232


 11315 0bd1 F3       		.byte	0xf3
 11316 0bd2 01       		.uleb128 0x1
 11317 0bd3 50       		.byte	0x50
 11318 0bd4 9F       		.byte	0x9f
 11319 0bd5 00000000 		.4byte	0
 11320 0bd9 00000000 		.4byte	0
 11321              	.LLST108:
 11322 0bdd 0C000000 		.4byte	.LVL222
 11323 0be1 0F000000 		.4byte	.LVL223-1
 11324 0be5 0100     		.2byte	0x1
 11325 0be7 50       		.byte	0x50
 11326 0be8 0F000000 		.4byte	.LVL223-1
 11327 0bec 12000000 		.4byte	.LVL224
 11328 0bf0 0100     		.2byte	0x1
 11329 0bf2 54       		.byte	0x54
 11330 0bf3 12000000 		.4byte	.LVL224
 11331 0bf7 18000000 		.4byte	.LFE159
 11332 0bfb 0100     		.2byte	0x1
 11333 0bfd 50       		.byte	0x50
 11334 0bfe 00000000 		.4byte	0
 11335 0c02 00000000 		.4byte	0
 11336              	.LLST109:
 11337 0c06 00000000 		.4byte	.LVL225
 11338 0c0a 35000000 		.4byte	.LVL231-1
 11339 0c0e 0100     		.2byte	0x1
 11340 0c10 50       		.byte	0x50
 11341 0c11 35000000 		.4byte	.LVL231-1
 11342 0c15 36000000 		.4byte	.LVL231
 11343 0c19 0300     		.2byte	0x3
 11344 0c1b 74       		.byte	0x74
 11345 0c1c 5C       		.sleb128 -36
 11346 0c1d 9F       		.byte	0x9f
 11347 0c1e 36000000 		.4byte	.LVL231
 11348 0c22 3A000000 		.4byte	.LFE160
 11349 0c26 0400     		.2byte	0x4
 11350 0c28 F3       		.byte	0xf3
 11351 0c29 01       		.uleb128 0x1
 11352 0c2a 50       		.byte	0x50
 11353 0c2b 9F       		.byte	0x9f
 11354 0c2c 00000000 		.4byte	0
 11355 0c30 00000000 		.4byte	0
 11356              	.LLST110:
 11357 0c34 00000000 		.4byte	.LVL225
 11358 0c38 12000000 		.4byte	.LVL227
 11359 0c3c 0100     		.2byte	0x1
 11360 0c3e 51       		.byte	0x51
 11361 0c3f 12000000 		.4byte	.LVL227
 11362 0c43 1A000000 		.4byte	.LVL228
 11363 0c47 0400     		.2byte	0x4
 11364 0c49 F3       		.byte	0xf3
 11365 0c4a 01       		.uleb128 0x1
 11366 0c4b 51       		.byte	0x51
 11367 0c4c 9F       		.byte	0x9f
 11368 0c4d 1A000000 		.4byte	.LVL228
 11369 0c51 35000000 		.4byte	.LVL231-1
 11370 0c55 0100     		.2byte	0x1
 11371 0c57 51       		.byte	0x51
ARM GAS  C:\Users\haske\AppData\Local\Temp\cc11ZRIl.s 			page 233


 11372 0c58 00000000 		.4byte	0
 11373 0c5c 00000000 		.4byte	0
 11374              	.LLST111:
 11375 0c60 00000000 		.4byte	.LVL225
 11376 0c64 32000000 		.4byte	.LVL230
 11377 0c68 0100     		.2byte	0x1
 11378 0c6a 52       		.byte	0x52
 11379 0c6b 32000000 		.4byte	.LVL230
 11380 0c6f 3A000000 		.4byte	.LFE160
 11381 0c73 0400     		.2byte	0x4
 11382 0c75 F3       		.byte	0xf3
 11383 0c76 01       		.uleb128 0x1
 11384 0c77 52       		.byte	0x52
 11385 0c78 9F       		.byte	0x9f
 11386 0c79 00000000 		.4byte	0
 11387 0c7d 00000000 		.4byte	0
 11388              	.LLST112:
 11389 0c81 04000000 		.4byte	.LVL226
 11390 0c85 35000000 		.4byte	.LVL231-1
 11391 0c89 0100     		.2byte	0x1
 11392 0c8b 50       		.byte	0x50
 11393 0c8c 35000000 		.4byte	.LVL231-1
 11394 0c90 36000000 		.4byte	.LVL231
 11395 0c94 0300     		.2byte	0x3
 11396 0c96 74       		.byte	0x74
 11397 0c97 5C       		.sleb128 -36
 11398 0c98 9F       		.byte	0x9f
 11399 0c99 36000000 		.4byte	.LVL231
 11400 0c9d 3A000000 		.4byte	.LFE160
 11401 0ca1 0400     		.2byte	0x4
 11402 0ca3 F3       		.byte	0xf3
 11403 0ca4 01       		.uleb128 0x1
 11404 0ca5 50       		.byte	0x50
 11405 0ca6 9F       		.byte	0x9f
 11406 0ca7 00000000 		.4byte	0
 11407 0cab 00000000 		.4byte	0
 11408              	.LLST113:
 11409 0caf 00000000 		.4byte	.LVL232
 11410 0cb3 28000000 		.4byte	.LVL235
 11411 0cb7 0100     		.2byte	0x1
 11412 0cb9 50       		.byte	0x50
 11413 0cba 28000000 		.4byte	.LVL235
 11414 0cbe 52000000 		.4byte	.LFE169
 11415 0cc2 0400     		.2byte	0x4
 11416 0cc4 F3       		.byte	0xf3
 11417 0cc5 01       		.uleb128 0x1
 11418 0cc6 50       		.byte	0x50
 11419 0cc7 9F       		.byte	0x9f
 11420 0cc8 00000000 		.4byte	0
 11421 0ccc 00000000 		.4byte	0
 11422              	.LLST114:
 11423 0cd0 00000000 		.4byte	.LVL232
 11424 0cd4 1E000000 		.4byte	.LVL234
 11425 0cd8 0100     		.2byte	0x1
 11426 0cda 51       		.byte	0x51
 11427 0cdb 1E000000 		.4byte	.LVL234
 11428 0cdf 50000000 		.4byte	.LVL241
ARM GAS  C:\Users\haske\AppData\Local\Temp\cc11ZRIl.s 			page 234


 11429 0ce3 0100     		.2byte	0x1
 11430 0ce5 54       		.byte	0x54
 11431 0ce6 50000000 		.4byte	.LVL241
 11432 0cea 52000000 		.4byte	.LFE169
 11433 0cee 0400     		.2byte	0x4
 11434 0cf0 F3       		.byte	0xf3
 11435 0cf1 01       		.uleb128 0x1
 11436 0cf2 51       		.byte	0x51
 11437 0cf3 9F       		.byte	0x9f
 11438 0cf4 00000000 		.4byte	0
 11439 0cf8 00000000 		.4byte	0
 11440              	.LLST115:
 11441 0cfc 04000000 		.4byte	.LVL233
 11442 0d00 1E000000 		.4byte	.LVL234
 11443 0d04 0100     		.2byte	0x1
 11444 0d06 51       		.byte	0x51
 11445 0d07 1E000000 		.4byte	.LVL234
 11446 0d0b 50000000 		.4byte	.LVL241
 11447 0d0f 0100     		.2byte	0x1
 11448 0d11 54       		.byte	0x54
 11449 0d12 50000000 		.4byte	.LVL241
 11450 0d16 52000000 		.4byte	.LFE169
 11451 0d1a 0400     		.2byte	0x4
 11452 0d1c F3       		.byte	0xf3
 11453 0d1d 01       		.uleb128 0x1
 11454 0d1e 51       		.byte	0x51
 11455 0d1f 9F       		.byte	0x9f
 11456 0d20 00000000 		.4byte	0
 11457 0d24 00000000 		.4byte	0
 11458              	.LLST116:
 11459 0d28 00000000 		.4byte	.LVL242
 11460 0d2c 3F000000 		.4byte	.LVL248-1
 11461 0d30 0100     		.2byte	0x1
 11462 0d32 50       		.byte	0x50
 11463 0d33 3F000000 		.4byte	.LVL248-1
 11464 0d37 40000000 		.4byte	.LVL248
 11465 0d3b 0300     		.2byte	0x3
 11466 0d3d 74       		.byte	0x74
 11467 0d3e 50       		.sleb128 -48
 11468 0d3f 9F       		.byte	0x9f
 11469 0d40 40000000 		.4byte	.LVL248
 11470 0d44 44000000 		.4byte	.LFE161
 11471 0d48 0400     		.2byte	0x4
 11472 0d4a F3       		.byte	0xf3
 11473 0d4b 01       		.uleb128 0x1
 11474 0d4c 50       		.byte	0x50
 11475 0d4d 9F       		.byte	0x9f
 11476 0d4e 00000000 		.4byte	0
 11477 0d52 00000000 		.4byte	0
 11478              	.LLST117:
 11479 0d56 00000000 		.4byte	.LVL242
 11480 0d5a 1C000000 		.4byte	.LVL244
 11481 0d5e 0100     		.2byte	0x1
 11482 0d60 51       		.byte	0x51
 11483 0d61 1C000000 		.4byte	.LVL244
 11484 0d65 22000000 		.4byte	.LVL245
 11485 0d69 0400     		.2byte	0x4
ARM GAS  C:\Users\haske\AppData\Local\Temp\cc11ZRIl.s 			page 235


 11486 0d6b F3       		.byte	0xf3
 11487 0d6c 01       		.uleb128 0x1
 11488 0d6d 51       		.byte	0x51
 11489 0d6e 9F       		.byte	0x9f
 11490 0d6f 22000000 		.4byte	.LVL245
 11491 0d73 3F000000 		.4byte	.LVL248-1
 11492 0d77 0100     		.2byte	0x1
 11493 0d79 51       		.byte	0x51
 11494 0d7a 00000000 		.4byte	0
 11495 0d7e 00000000 		.4byte	0
 11496              	.LLST118:
 11497 0d82 00000000 		.4byte	.LVL242
 11498 0d86 3C000000 		.4byte	.LVL247
 11499 0d8a 0100     		.2byte	0x1
 11500 0d8c 52       		.byte	0x52
 11501 0d8d 3C000000 		.4byte	.LVL247
 11502 0d91 44000000 		.4byte	.LFE161
 11503 0d95 0400     		.2byte	0x4
 11504 0d97 F3       		.byte	0xf3
 11505 0d98 01       		.uleb128 0x1
 11506 0d99 52       		.byte	0x52
 11507 0d9a 9F       		.byte	0x9f
 11508 0d9b 00000000 		.4byte	0
 11509 0d9f 00000000 		.4byte	0
 11510              	.LLST119:
 11511 0da3 04000000 		.4byte	.LVL243
 11512 0da7 3F000000 		.4byte	.LVL248-1
 11513 0dab 0100     		.2byte	0x1
 11514 0dad 50       		.byte	0x50
 11515 0dae 3F000000 		.4byte	.LVL248-1
 11516 0db2 40000000 		.4byte	.LVL248
 11517 0db6 0300     		.2byte	0x3
 11518 0db8 74       		.byte	0x74
 11519 0db9 50       		.sleb128 -48
 11520 0dba 9F       		.byte	0x9f
 11521 0dbb 40000000 		.4byte	.LVL248
 11522 0dbf 44000000 		.4byte	.LFE161
 11523 0dc3 0400     		.2byte	0x4
 11524 0dc5 F3       		.byte	0xf3
 11525 0dc6 01       		.uleb128 0x1
 11526 0dc7 50       		.byte	0x50
 11527 0dc8 9F       		.byte	0x9f
 11528 0dc9 00000000 		.4byte	0
 11529 0dcd 00000000 		.4byte	0
 11530              	.LLST120:
 11531 0dd1 00000000 		.4byte	.LVL249
 11532 0dd5 23000000 		.4byte	.LVL252-1
 11533 0dd9 0100     		.2byte	0x1
 11534 0ddb 50       		.byte	0x50
 11535 0ddc 23000000 		.4byte	.LVL252-1
 11536 0de0 26000000 		.4byte	.LFE163
 11537 0de4 0400     		.2byte	0x4
 11538 0de6 F3       		.byte	0xf3
 11539 0de7 01       		.uleb128 0x1
 11540 0de8 50       		.byte	0x50
 11541 0de9 9F       		.byte	0x9f
 11542 0dea 00000000 		.4byte	0
ARM GAS  C:\Users\haske\AppData\Local\Temp\cc11ZRIl.s 			page 236


 11543 0dee 00000000 		.4byte	0
 11544              	.LLST121:
 11545 0df2 00000000 		.4byte	.LVL249
 11546 0df6 0E000000 		.4byte	.LVL251
 11547 0dfa 0100     		.2byte	0x1
 11548 0dfc 51       		.byte	0x51
 11549 0dfd 0E000000 		.4byte	.LVL251
 11550 0e01 26000000 		.4byte	.LFE163
 11551 0e05 0400     		.2byte	0x4
 11552 0e07 F3       		.byte	0xf3
 11553 0e08 01       		.uleb128 0x1
 11554 0e09 51       		.byte	0x51
 11555 0e0a 9F       		.byte	0x9f
 11556 0e0b 00000000 		.4byte	0
 11557 0e0f 00000000 		.4byte	0
 11558              	.LLST122:
 11559 0e13 02000000 		.4byte	.LVL250
 11560 0e17 23000000 		.4byte	.LVL252-1
 11561 0e1b 0100     		.2byte	0x1
 11562 0e1d 50       		.byte	0x50
 11563 0e1e 23000000 		.4byte	.LVL252-1
 11564 0e22 26000000 		.4byte	.LFE163
 11565 0e26 0400     		.2byte	0x4
 11566 0e28 F3       		.byte	0xf3
 11567 0e29 01       		.uleb128 0x1
 11568 0e2a 50       		.byte	0x50
 11569 0e2b 9F       		.byte	0x9f
 11570 0e2c 00000000 		.4byte	0
 11571 0e30 00000000 		.4byte	0
 11572              	.LLST123:
 11573 0e34 00000000 		.4byte	.LVL253
 11574 0e38 08000000 		.4byte	.LVL254
 11575 0e3c 0100     		.2byte	0x1
 11576 0e3e 50       		.byte	0x50
 11577 0e3f 08000000 		.4byte	.LVL254
 11578 0e43 0A000000 		.4byte	.LVL255
 11579 0e47 0400     		.2byte	0x4
 11580 0e49 F3       		.byte	0xf3
 11581 0e4a 01       		.uleb128 0x1
 11582 0e4b 50       		.byte	0x50
 11583 0e4c 9F       		.byte	0x9f
 11584 0e4d 0A000000 		.4byte	.LVL255
 11585 0e51 0C000000 		.4byte	.LVL256
 11586 0e55 0100     		.2byte	0x1
 11587 0e57 50       		.byte	0x50
 11588 0e58 0C000000 		.4byte	.LVL256
 11589 0e5c 0E000000 		.4byte	.LFE164
 11590 0e60 0400     		.2byte	0x4
 11591 0e62 F3       		.byte	0xf3
 11592 0e63 01       		.uleb128 0x1
 11593 0e64 50       		.byte	0x50
 11594 0e65 9F       		.byte	0x9f
 11595 0e66 00000000 		.4byte	0
 11596 0e6a 00000000 		.4byte	0
 11597              	.LLST124:
 11598 0e6e 00000000 		.4byte	.LVL253
 11599 0e72 08000000 		.4byte	.LVL254
ARM GAS  C:\Users\haske\AppData\Local\Temp\cc11ZRIl.s 			page 237


 11600 0e76 0100     		.2byte	0x1
 11601 0e78 50       		.byte	0x50
 11602 0e79 08000000 		.4byte	.LVL254
 11603 0e7d 0A000000 		.4byte	.LVL255
 11604 0e81 0400     		.2byte	0x4
 11605 0e83 F3       		.byte	0xf3
 11606 0e84 01       		.uleb128 0x1
 11607 0e85 50       		.byte	0x50
 11608 0e86 9F       		.byte	0x9f
 11609 0e87 0A000000 		.4byte	.LVL255
 11610 0e8b 0C000000 		.4byte	.LVL256
 11611 0e8f 0100     		.2byte	0x1
 11612 0e91 50       		.byte	0x50
 11613 0e92 0C000000 		.4byte	.LVL256
 11614 0e96 0E000000 		.4byte	.LFE164
 11615 0e9a 0400     		.2byte	0x4
 11616 0e9c F3       		.byte	0xf3
 11617 0e9d 01       		.uleb128 0x1
 11618 0e9e 50       		.byte	0x50
 11619 0e9f 9F       		.byte	0x9f
 11620 0ea0 00000000 		.4byte	0
 11621 0ea4 00000000 		.4byte	0
 11622              	.LLST125:
 11623 0ea8 00000000 		.4byte	.LVL257
 11624 0eac 0E000000 		.4byte	.LVL258
 11625 0eb0 0100     		.2byte	0x1
 11626 0eb2 50       		.byte	0x50
 11627 0eb3 0E000000 		.4byte	.LVL258
 11628 0eb7 10000000 		.4byte	.LVL259
 11629 0ebb 0400     		.2byte	0x4
 11630 0ebd F3       		.byte	0xf3
 11631 0ebe 01       		.uleb128 0x1
 11632 0ebf 50       		.byte	0x50
 11633 0ec0 9F       		.byte	0x9f
 11634 0ec1 10000000 		.4byte	.LVL259
 11635 0ec5 18000000 		.4byte	.LVL260
 11636 0ec9 0100     		.2byte	0x1
 11637 0ecb 50       		.byte	0x50
 11638 0ecc 18000000 		.4byte	.LVL260
 11639 0ed0 1A000000 		.4byte	.LVL261
 11640 0ed4 0400     		.2byte	0x4
 11641 0ed6 F3       		.byte	0xf3
 11642 0ed7 01       		.uleb128 0x1
 11643 0ed8 50       		.byte	0x50
 11644 0ed9 9F       		.byte	0x9f
 11645 0eda 1A000000 		.4byte	.LVL261
 11646 0ede 1C000000 		.4byte	.LVL262
 11647 0ee2 0100     		.2byte	0x1
 11648 0ee4 50       		.byte	0x50
 11649 0ee5 1C000000 		.4byte	.LVL262
 11650 0ee9 1E000000 		.4byte	.LFE165
 11651 0eed 0400     		.2byte	0x4
 11652 0eef F3       		.byte	0xf3
 11653 0ef0 01       		.uleb128 0x1
 11654 0ef1 50       		.byte	0x50
 11655 0ef2 9F       		.byte	0x9f
 11656 0ef3 00000000 		.4byte	0
ARM GAS  C:\Users\haske\AppData\Local\Temp\cc11ZRIl.s 			page 238


 11657 0ef7 00000000 		.4byte	0
 11658              	.LLST126:
 11659 0efb 00000000 		.4byte	.LVL257
 11660 0eff 0E000000 		.4byte	.LVL258
 11661 0f03 0100     		.2byte	0x1
 11662 0f05 50       		.byte	0x50
 11663 0f06 0E000000 		.4byte	.LVL258
 11664 0f0a 10000000 		.4byte	.LVL259
 11665 0f0e 0400     		.2byte	0x4
 11666 0f10 F3       		.byte	0xf3
 11667 0f11 01       		.uleb128 0x1
 11668 0f12 50       		.byte	0x50
 11669 0f13 9F       		.byte	0x9f
 11670 0f14 10000000 		.4byte	.LVL259
 11671 0f18 18000000 		.4byte	.LVL260
 11672 0f1c 0100     		.2byte	0x1
 11673 0f1e 50       		.byte	0x50
 11674 0f1f 18000000 		.4byte	.LVL260
 11675 0f23 1A000000 		.4byte	.LVL261
 11676 0f27 0400     		.2byte	0x4
 11677 0f29 F3       		.byte	0xf3
 11678 0f2a 01       		.uleb128 0x1
 11679 0f2b 50       		.byte	0x50
 11680 0f2c 9F       		.byte	0x9f
 11681 0f2d 1A000000 		.4byte	.LVL261
 11682 0f31 1C000000 		.4byte	.LVL262
 11683 0f35 0100     		.2byte	0x1
 11684 0f37 50       		.byte	0x50
 11685 0f38 1C000000 		.4byte	.LVL262
 11686 0f3c 1E000000 		.4byte	.LFE165
 11687 0f40 0400     		.2byte	0x4
 11688 0f42 F3       		.byte	0xf3
 11689 0f43 01       		.uleb128 0x1
 11690 0f44 50       		.byte	0x50
 11691 0f45 9F       		.byte	0x9f
 11692 0f46 00000000 		.4byte	0
 11693 0f4a 00000000 		.4byte	0
 11694              	.LLST127:
 11695 0f4e 00000000 		.4byte	.LVL263
 11696 0f52 02000000 		.4byte	.LVL264
 11697 0f56 0100     		.2byte	0x1
 11698 0f58 50       		.byte	0x50
 11699 0f59 02000000 		.4byte	.LVL264
 11700 0f5d 04000000 		.4byte	.LFE166
 11701 0f61 0400     		.2byte	0x4
 11702 0f63 F3       		.byte	0xf3
 11703 0f64 01       		.uleb128 0x1
 11704 0f65 50       		.byte	0x50
 11705 0f66 9F       		.byte	0x9f
 11706 0f67 00000000 		.4byte	0
 11707 0f6b 00000000 		.4byte	0
 11708              	.LLST128:
 11709 0f6f 00000000 		.4byte	.LVL263
 11710 0f73 02000000 		.4byte	.LVL264
 11711 0f77 0100     		.2byte	0x1
 11712 0f79 50       		.byte	0x50
 11713 0f7a 02000000 		.4byte	.LVL264
ARM GAS  C:\Users\haske\AppData\Local\Temp\cc11ZRIl.s 			page 239


 11714 0f7e 04000000 		.4byte	.LFE166
 11715 0f82 0400     		.2byte	0x4
 11716 0f84 F3       		.byte	0xf3
 11717 0f85 01       		.uleb128 0x1
 11718 0f86 50       		.byte	0x50
 11719 0f87 9F       		.byte	0x9f
 11720 0f88 00000000 		.4byte	0
 11721 0f8c 00000000 		.4byte	0
 11722              	.LLST129:
 11723 0f90 00000000 		.4byte	.LVL265
 11724 0f94 02000000 		.4byte	.LVL266
 11725 0f98 0100     		.2byte	0x1
 11726 0f9a 50       		.byte	0x50
 11727 0f9b 02000000 		.4byte	.LVL266
 11728 0f9f 04000000 		.4byte	.LFE167
 11729 0fa3 0400     		.2byte	0x4
 11730 0fa5 F3       		.byte	0xf3
 11731 0fa6 01       		.uleb128 0x1
 11732 0fa7 50       		.byte	0x50
 11733 0fa8 9F       		.byte	0x9f
 11734 0fa9 00000000 		.4byte	0
 11735 0fad 00000000 		.4byte	0
 11736              	.LLST130:
 11737 0fb1 00000000 		.4byte	.LVL265
 11738 0fb5 02000000 		.4byte	.LVL266
 11739 0fb9 0100     		.2byte	0x1
 11740 0fbb 50       		.byte	0x50
 11741 0fbc 02000000 		.4byte	.LVL266
 11742 0fc0 04000000 		.4byte	.LFE167
 11743 0fc4 0400     		.2byte	0x4
 11744 0fc6 F3       		.byte	0xf3
 11745 0fc7 01       		.uleb128 0x1
 11746 0fc8 50       		.byte	0x50
 11747 0fc9 9F       		.byte	0x9f
 11748 0fca 00000000 		.4byte	0
 11749 0fce 00000000 		.4byte	0
 11750              	.LLST131:
 11751 0fd2 00000000 		.4byte	.LVL267
 11752 0fd6 04000000 		.4byte	.LVL268
 11753 0fda 0100     		.2byte	0x1
 11754 0fdc 50       		.byte	0x50
 11755 0fdd 04000000 		.4byte	.LVL268
 11756 0fe1 0A000000 		.4byte	.LFE168
 11757 0fe5 0400     		.2byte	0x4
 11758 0fe7 F3       		.byte	0xf3
 11759 0fe8 01       		.uleb128 0x1
 11760 0fe9 50       		.byte	0x50
 11761 0fea 9F       		.byte	0x9f
 11762 0feb 00000000 		.4byte	0
 11763 0fef 00000000 		.4byte	0
 11764              	.LLST132:
 11765 0ff3 00000000 		.4byte	.LVL267
 11766 0ff7 04000000 		.4byte	.LVL268
 11767 0ffb 0100     		.2byte	0x1
 11768 0ffd 50       		.byte	0x50
 11769 0ffe 04000000 		.4byte	.LVL268
 11770 1002 0A000000 		.4byte	.LFE168
ARM GAS  C:\Users\haske\AppData\Local\Temp\cc11ZRIl.s 			page 240


 11771 1006 0400     		.2byte	0x4
 11772 1008 F3       		.byte	0xf3
 11773 1009 01       		.uleb128 0x1
 11774 100a 50       		.byte	0x50
 11775 100b 9F       		.byte	0x9f
 11776 100c 00000000 		.4byte	0
 11777 1010 00000000 		.4byte	0
 11778              	.LLST133:
 11779 1014 00000000 		.4byte	.LVL269
 11780 1018 1A000000 		.4byte	.LVL271
 11781 101c 0100     		.2byte	0x1
 11782 101e 50       		.byte	0x50
 11783 101f 1A000000 		.4byte	.LVL271
 11784 1023 4E000000 		.4byte	.LVL276
 11785 1027 0100     		.2byte	0x1
 11786 1029 54       		.byte	0x54
 11787 102a 4E000000 		.4byte	.LVL276
 11788 102e 50000000 		.4byte	.LFE162
 11789 1032 0400     		.2byte	0x4
 11790 1034 F3       		.byte	0xf3
 11791 1035 01       		.uleb128 0x1
 11792 1036 50       		.byte	0x50
 11793 1037 9F       		.byte	0x9f
 11794 1038 00000000 		.4byte	0
 11795 103c 00000000 		.4byte	0
 11796              	.LLST134:
 11797 1040 00000000 		.4byte	.LVL269
 11798 1044 1D000000 		.4byte	.LVL272-1
 11799 1048 0100     		.2byte	0x1
 11800 104a 51       		.byte	0x51
 11801 104b 1D000000 		.4byte	.LVL272-1
 11802 104f 4E000000 		.4byte	.LVL277
 11803 1053 0100     		.2byte	0x1
 11804 1055 55       		.byte	0x55
 11805 1056 4E000000 		.4byte	.LVL277
 11806 105a 50000000 		.4byte	.LFE162
 11807 105e 0400     		.2byte	0x4
 11808 1060 F3       		.byte	0xf3
 11809 1061 01       		.uleb128 0x1
 11810 1062 51       		.byte	0x51
 11811 1063 9F       		.byte	0x9f
 11812 1064 00000000 		.4byte	0
 11813 1068 00000000 		.4byte	0
 11814              	.LLST135:
 11815 106c 00000000 		.4byte	.LVL269
 11816 1070 1D000000 		.4byte	.LVL272-1
 11817 1074 0100     		.2byte	0x1
 11818 1076 52       		.byte	0x52
 11819 1077 1D000000 		.4byte	.LVL272-1
 11820 107b 4E000000 		.4byte	.LVL278
 11821 107f 0100     		.2byte	0x1
 11822 1081 56       		.byte	0x56
 11823 1082 4E000000 		.4byte	.LVL278
 11824 1086 50000000 		.4byte	.LFE162
 11825 108a 0400     		.2byte	0x4
 11826 108c F3       		.byte	0xf3
 11827 108d 01       		.uleb128 0x1
ARM GAS  C:\Users\haske\AppData\Local\Temp\cc11ZRIl.s 			page 241


 11828 108e 52       		.byte	0x52
 11829 108f 9F       		.byte	0x9f
 11830 1090 00000000 		.4byte	0
 11831 1094 00000000 		.4byte	0
 11832              	.LLST136:
 11833 1098 08000000 		.4byte	.LVL270
 11834 109c 1A000000 		.4byte	.LVL271
 11835 10a0 0100     		.2byte	0x1
 11836 10a2 50       		.byte	0x50
 11837 10a3 1A000000 		.4byte	.LVL271
 11838 10a7 4E000000 		.4byte	.LVL276
 11839 10ab 0100     		.2byte	0x1
 11840 10ad 54       		.byte	0x54
 11841 10ae 4E000000 		.4byte	.LVL276
 11842 10b2 50000000 		.4byte	.LFE162
 11843 10b6 0400     		.2byte	0x4
 11844 10b8 F3       		.byte	0xf3
 11845 10b9 01       		.uleb128 0x1
 11846 10ba 50       		.byte	0x50
 11847 10bb 9F       		.byte	0x9f
 11848 10bc 00000000 		.4byte	0
 11849 10c0 00000000 		.4byte	0
 11850              		.section	.debug_aranges,"",%progbits
 11851 0000 B4000000 		.4byte	0xb4
 11852 0004 0200     		.2byte	0x2
 11853 0006 00000000 		.4byte	.Ldebug_info0
 11854 000a 04       		.byte	0x4
 11855 000b 00       		.byte	0
 11856 000c 0000     		.2byte	0
 11857 000e 0000     		.2byte	0
 11858 0010 00000000 		.4byte	.LFB1
 11859 0014 10000000 		.4byte	.LFE1-.LFB1
 11860 0018 00000000 		.4byte	.LFB2
 11861 001c 10000000 		.4byte	.LFE2-.LFB2
 11862 0020 00000000 		.4byte	.LFB176
 11863 0024 0E000000 		.4byte	.LFE176-.LFB176
 11864 0028 00000000 		.4byte	.LFB171
 11865 002c B2050000 		.4byte	.LFE171-.LFB171
 11866 0030 00000000 		.4byte	.LFB172
 11867 0034 D4000000 		.4byte	.LFE172-.LFB172
 11868 0038 00000000 		.4byte	.LFB170
 11869 003c 1A000000 		.4byte	.LFE170-.LFB170
 11870 0040 00000000 		.4byte	.LFB174
 11871 0044 2E000000 		.4byte	.LFE174-.LFB174
 11872 0048 00000000 		.4byte	.LFB173
 11873 004c 0C000000 		.4byte	.LFE173-.LFB173
 11874 0050 00000000 		.4byte	.LFB175
 11875 0054 84000000 		.4byte	.LFE175-.LFB175
 11876 0058 00000000 		.4byte	.LFB159
 11877 005c 18000000 		.4byte	.LFE159-.LFB159
 11878 0060 00000000 		.4byte	.LFB160
 11879 0064 3A000000 		.4byte	.LFE160-.LFB160
 11880 0068 00000000 		.4byte	.LFB169
 11881 006c 52000000 		.4byte	.LFE169-.LFB169
 11882 0070 00000000 		.4byte	.LFB161
 11883 0074 44000000 		.4byte	.LFE161-.LFB161
 11884 0078 00000000 		.4byte	.LFB163
ARM GAS  C:\Users\haske\AppData\Local\Temp\cc11ZRIl.s 			page 242


 11885 007c 26000000 		.4byte	.LFE163-.LFB163
 11886 0080 00000000 		.4byte	.LFB164
 11887 0084 0E000000 		.4byte	.LFE164-.LFB164
 11888 0088 00000000 		.4byte	.LFB165
 11889 008c 1E000000 		.4byte	.LFE165-.LFB165
 11890 0090 00000000 		.4byte	.LFB166
 11891 0094 04000000 		.4byte	.LFE166-.LFB166
 11892 0098 00000000 		.4byte	.LFB167
 11893 009c 04000000 		.4byte	.LFE167-.LFB167
 11894 00a0 00000000 		.4byte	.LFB168
 11895 00a4 0A000000 		.4byte	.LFE168-.LFB168
 11896 00a8 00000000 		.4byte	.LFB162
 11897 00ac 50000000 		.4byte	.LFE162-.LFB162
 11898 00b0 00000000 		.4byte	0
 11899 00b4 00000000 		.4byte	0
 11900              		.section	.debug_ranges,"",%progbits
 11901              	.Ldebug_ranges0:
 11902 0000 00000000 		.4byte	.LFB1
 11903 0004 10000000 		.4byte	.LFE1
 11904 0008 00000000 		.4byte	.LFB2
 11905 000c 10000000 		.4byte	.LFE2
 11906 0010 00000000 		.4byte	.LFB176
 11907 0014 0E000000 		.4byte	.LFE176
 11908 0018 00000000 		.4byte	.LFB171
 11909 001c B2050000 		.4byte	.LFE171
 11910 0020 00000000 		.4byte	.LFB172
 11911 0024 D4000000 		.4byte	.LFE172
 11912 0028 00000000 		.4byte	.LFB170
 11913 002c 1A000000 		.4byte	.LFE170
 11914 0030 00000000 		.4byte	.LFB174
 11915 0034 2E000000 		.4byte	.LFE174
 11916 0038 00000000 		.4byte	.LFB173
 11917 003c 0C000000 		.4byte	.LFE173
 11918 0040 00000000 		.4byte	.LFB175
 11919 0044 84000000 		.4byte	.LFE175
 11920 0048 00000000 		.4byte	.LFB159
 11921 004c 18000000 		.4byte	.LFE159
 11922 0050 00000000 		.4byte	.LFB160
 11923 0054 3A000000 		.4byte	.LFE160
 11924 0058 00000000 		.4byte	.LFB169
 11925 005c 52000000 		.4byte	.LFE169
 11926 0060 00000000 		.4byte	.LFB161
 11927 0064 44000000 		.4byte	.LFE161
 11928 0068 00000000 		.4byte	.LFB163
 11929 006c 26000000 		.4byte	.LFE163
 11930 0070 00000000 		.4byte	.LFB164
 11931 0074 0E000000 		.4byte	.LFE164
 11932 0078 00000000 		.4byte	.LFB165
 11933 007c 1E000000 		.4byte	.LFE165
 11934 0080 00000000 		.4byte	.LFB166
 11935 0084 04000000 		.4byte	.LFE166
 11936 0088 00000000 		.4byte	.LFB167
 11937 008c 04000000 		.4byte	.LFE167
 11938 0090 00000000 		.4byte	.LFB168
 11939 0094 0A000000 		.4byte	.LFE168
 11940 0098 00000000 		.4byte	.LFB162
 11941 009c 50000000 		.4byte	.LFE162
ARM GAS  C:\Users\haske\AppData\Local\Temp\cc11ZRIl.s 			page 243


 11942 00a0 00000000 		.4byte	0
 11943 00a4 00000000 		.4byte	0
 11944              		.section	.debug_line,"",%progbits
 11945              	.Ldebug_line0:
 11946 0000 B9080000 		.section	.debug_str,"MS",%progbits,1
 11946      0200FA04 
 11946      00000201 
 11946      FB0E0D00 
 11946      01010101 
 11947              	.LASF220:
 11948 0000 70726F70 		.ascii	"prop_cnt\000"
 11948      5F636E74 
 11948      00
 11949              	.LASF15:
 11950 0009 696E7438 		.ascii	"int8_t\000"
 11950      5F7400
 11951              	.LASF191:
 11952 0010 4C565F53 		.ascii	"LV_STYLE_OPA\000"
 11952      54594C45 
 11952      5F4F5041 
 11952      00
 11953              	.LASF344:
 11954 001d 6C765F6C 		.ascii	"lv_ll_node_t\000"
 11954      6C5F6E6F 
 11954      64655F74 
 11954      00
 11955              	.LASF21:
 11956 002a 73697A65 		.ascii	"size_t\000"
 11956      5F7400
 11957              	.LASF28:
 11958 0031 6164765F 		.ascii	"adv_w\000"
 11958      7700
 11959              	.LASF49:
 11960 0037 73697A65 		.ascii	"sizetype\000"
 11960      74797065 
 11960      00
 11961              	.LASF540:
 11962 0040 73746172 		.ascii	"start\000"
 11962      7400
 11963              	.LASF458:
 11964 0046 4C565F45 		.ascii	"LV_EVENT_DRAW_MAIN_BEGIN\000"
 11964      56454E54 
 11964      5F445241 
 11964      575F4D41 
 11964      494E5F42 
 11965              	.LASF175:
 11966 005f 4C565F53 		.ascii	"LV_STYLE_LINE_DASH_GAP\000"
 11966      54594C45 
 11966      5F4C494E 
 11966      455F4441 
 11966      53485F47 
 11967              	.LASF71:
 11968 0076 4C565F41 		.ascii	"LV_ANIM_ON\000"
 11968      4E494D5F 
 11968      4F4E00
 11969              	.LASF583:
 11970 0081 696E6469 		.ascii	"indic_size\000"
ARM GAS  C:\Users\haske\AppData\Local\Temp\cc11ZRIl.s 			page 244


 11970      635F7369 
 11970      7A6500
 11971              	.LASF347:
 11972 008c 7461696C 		.ascii	"tail\000"
 11972      00
 11973              	.LASF538:
 11974 0091 6C765F61 		.ascii	"lv_anim_set_ready_cb\000"
 11974      6E696D5F 
 11974      7365745F 
 11974      72656164 
 11974      795F6362 
 11975              	.LASF551:
 11976 00a6 72616E67 		.ascii	"range\000"
 11976      6500
 11977              	.LASF582:
 11978 00ac 6C765F62 		.ascii	"lv_bar_event\000"
 11978      61725F65 
 11978      76656E74 
 11978      00
 11979              	.LASF568:
 11980 00b9 73686F72 		.ascii	"short_side\000"
 11980      745F7369 
 11980      646500
 11981              	.LASF335:
 11982 00c4 64726177 		.ascii	"draw_bg\000"
 11982      5F626700 
 11983              	.LASF69:
 11984 00cc 6C765F6F 		.ascii	"lv_opa_t\000"
 11984      70615F74 
 11984      00
 11985              	.LASF182:
 11986 00d5 4C565F53 		.ascii	"LV_STYLE_ARC_OPA\000"
 11986      54594C45 
 11986      5F415243 
 11986      5F4F5041 
 11986      00
 11987              	.LASF289:
 11988 00e6 7261775F 		.ascii	"raw_end\000"
 11988      656E6400 
 11989              	.LASF19:
 11990 00ee 696E7433 		.ascii	"int32_t\000"
 11990      325F7400 
 11991              	.LASF399:
 11992 00f6 6C765F73 		.ascii	"lv_scrollbar_mode_t\000"
 11992      63726F6C 
 11992      6C626172 
 11992      5F6D6F64 
 11992      655F7400 
 11993              	.LASF502:
 11994 010a 6C617965 		.ascii	"layer_type\000"
 11994      725F7479 
 11994      706500
 11995              	.LASF219:
 11996 0115 6861735F 		.ascii	"has_group\000"
 11996      67726F75 
 11996      7000
 11997              	.LASF467:
ARM GAS  C:\Users\haske\AppData\Local\Temp\cc11ZRIl.s 			page 245


 11998 011f 4C565F45 		.ascii	"LV_EVENT_INSERT\000"
 11998      56454E54 
 11998      5F494E53 
 11998      45525400 
 11999              	.LASF24:
 12000 012f 6C765F70 		.ascii	"lv_point_t\000"
 12000      6F696E74 
 12000      5F7400
 12001              	.LASF448:
 12002 013a 4C565F45 		.ascii	"LV_EVENT_SCROLL_END\000"
 12002      56454E54 
 12002      5F534352 
 12002      4F4C4C5F 
 12002      454E4400 
 12003              	.LASF237:
 12004 014e 72616469 		.ascii	"radius\000"
 12004      757300
 12005              	.LASF240:
 12006 0155 62675F63 		.ascii	"bg_color\000"
 12006      6F6C6F72 
 12006      00
 12007              	.LASF392:
 12008 015e 4C565F4F 		.ascii	"LV_OBJ_FLAG_WIDGET_1\000"
 12008      424A5F46 
 12008      4C41475F 
 12008      57494447 
 12008      45545F31 
 12009              	.LASF36:
 12010 0173 6C696E65 		.ascii	"line_height\000"
 12010      5F686569 
 12010      67687400 
 12011              	.LASF532:
 12012 017f 6C765F6F 		.ascii	"lv_obj_get_style_base_dir\000"
 12012      626A5F67 
 12012      65745F73 
 12012      74796C65 
 12012      5F626173 
 12013              	.LASF81:
 12014 0199 70617468 		.ascii	"path_cb\000"
 12014      5F636200 
 12015              	.LASF271:
 12016 01a1 62696469 		.ascii	"bidi_dir\000"
 12016      5F646972 
 12016      00
 12017              	.LASF516:
 12018 01aa 696E6469 		.ascii	"indic_area\000"
 12018      635F6172 
 12018      656100
 12019              	.LASF98:
 12020 01b5 6C765F61 		.ascii	"lv_anim_get_value_cb_t\000"
 12020      6E696D5F 
 12020      6765745F 
 12020      76616C75 
 12020      655F6362 
 12021              	.LASF498:
 12022 01cc 7363726F 		.ascii	"scroll_snap_x\000"
 12022      6C6C5F73 
ARM GAS  C:\Users\haske\AppData\Local\Temp\cc11ZRIl.s 			page 246


 12022      6E61705F 
 12022      7800
 12023              	.LASF499:
 12024 01da 7363726F 		.ascii	"scroll_snap_y\000"
 12024      6C6C5F73 
 12024      6E61705F 
 12024      7900
 12025              	.LASF312:
 12026 01e8 4C565F44 		.ascii	"LV_DRAW_LAYER_FLAG_HAS_ALPHA\000"
 12026      5241575F 
 12026      4C415945 
 12026      525F464C 
 12026      41475F48 
 12027              	.LASF414:
 12028 0205 74657874 		.ascii	"text_length\000"
 12028      5F6C656E 
 12028      67746800 
 12029              	.LASF486:
 12030 0211 6C765F65 		.ascii	"lv_event_t\000"
 12030      76656E74 
 12030      5F7400
 12031              	.LASF542:
 12032 021c 6C765F61 		.ascii	"lv_anim_set_var\000"
 12032      6E696D5F 
 12032      7365745F 
 12032      76617200 
 12033              	.LASF472:
 12034 022c 4C565F45 		.ascii	"LV_EVENT_CHILD_CHANGED\000"
 12034      56454E54 
 12034      5F434849 
 12034      4C445F43 
 12034      48414E47 
 12035              	.LASF230:
 12036 0243 73746174 		.ascii	"state\000"
 12036      6500
 12037              	.LASF126:
 12038 0249 4C565F53 		.ascii	"LV_STYLE_HEIGHT\000"
 12038      54594C45 
 12038      5F484549 
 12038      47485400 
 12039              	.LASF277:
 12040 0259 7A6F6F6D 		.ascii	"zoom\000"
 12040      00
 12041              	.LASF296:
 12042 025e 6C765F64 		.ascii	"lv_draw_mask_res_t\000"
 12042      7261775F 
 12042      6D61736B 
 12042      5F726573 
 12042      5F7400
 12043              	.LASF403:
 12044 0271 69735F6C 		.ascii	"is_local\000"
 12044      6F63616C 
 12044      00
 12045              	.LASF327:
 12046 027a 64726177 		.ascii	"draw_rect\000"
 12046      5F726563 
 12046      7400
ARM GAS  C:\Users\haske\AppData\Local\Temp\cc11ZRIl.s 			page 247


 12047              	.LASF559:
 12048 0284 616E696D 		.ascii	"anim_cur_value_x\000"
 12048      5F637572 
 12048      5F76616C 
 12048      75655F78 
 12048      00
 12049              	.LASF46:
 12050 0295 4C565F52 		.ascii	"LV_RES_INV\000"
 12050      45535F49 
 12050      4E5600
 12051              	.LASF326:
 12052 02a0 696E6974 		.ascii	"init_buf\000"
 12052      5F627566 
 12052      00
 12053              	.LASF419:
 12054 02a9 636F6E73 		.ascii	"constructor_cb\000"
 12054      74727563 
 12054      746F725F 
 12054      636200
 12055              	.LASF294:
 12056 02b8 726F756E 		.ascii	"rounded\000"
 12056      64656400 
 12057              	.LASF207:
 12058 02c0 5F4C565F 		.ascii	"_LV_STYLE_LAST_BUILT_IN_PROP\000"
 12058      5354594C 
 12058      455F4C41 
 12058      53545F42 
 12058      55494C54 
 12059              	.LASF325:
 12060 02dd 5F6C765F 		.ascii	"_lv_draw_ctx_t\000"
 12060      64726177 
 12060      5F637478 
 12060      5F7400
 12061              	.LASF299:
 12062 02ec 74797065 		.ascii	"type\000"
 12062      00
 12063              	.LASF430:
 12064 02f1 63757272 		.ascii	"current_target\000"
 12064      656E745F 
 12064      74617267 
 12064      657400
 12065              	.LASF450:
 12066 0300 4C565F45 		.ascii	"LV_EVENT_GESTURE\000"
 12066      56454E54 
 12066      5F474553 
 12066      54555245 
 12066      00
 12067              	.LASF443:
 12068 0311 4C565F45 		.ascii	"LV_EVENT_LONG_PRESSED\000"
 12068      56454E54 
 12068      5F4C4F4E 
 12068      475F5052 
 12068      45535345 
 12069              	.LASF242:
 12070 0327 62675F69 		.ascii	"bg_img_src\000"
 12070      6D675F73 
 12070      726300
ARM GAS  C:\Users\haske\AppData\Local\Temp\cc11ZRIl.s 			page 248


 12071              	.LASF157:
 12072 0332 4C565F53 		.ascii	"LV_STYLE_BORDER_WIDTH\000"
 12072      54594C45 
 12072      5F424F52 
 12072      4445525F 
 12072      57494454 
 12073              	.LASF569:
 12074 0348 696E6469 		.ascii	"indic_radius\000"
 12074      635F7261 
 12074      64697573 
 12074      00
 12075              	.LASF578:
 12076 0355 616E696D 		.ascii	"anim_cur_value_start_x\000"
 12076      5F637572 
 12076      5F76616C 
 12076      75655F73 
 12076      74617274 
 12077              	.LASF473:
 12078 036c 4C565F45 		.ascii	"LV_EVENT_CHILD_CREATED\000"
 12078      56454E54 
 12078      5F434849 
 12078      4C445F43 
 12078      52454154 
 12079              	.LASF139:
 12080 0383 4C565F53 		.ascii	"LV_STYLE_PAD_COLUMN\000"
 12080      54594C45 
 12080      5F504144 
 12080      5F434F4C 
 12080      554D4E00 
 12081              	.LASF590:
 12082 0397 616E696D 		.ascii	"anim_info\000"
 12082      5F696E66 
 12082      6F00
 12083              	.LASF488:
 12084 03a1 6C765F67 		.ascii	"lv_group_edge_cb_t\000"
 12084      726F7570 
 12084      5F656467 
 12084      655F6362 
 12084      5F7400
 12085              	.LASF363:
 12086 03b4 4C565F50 		.ascii	"LV_PART_SELECTED\000"
 12086      4152545F 
 12086      53454C45 
 12086      43544544 
 12086      00
 12087              	.LASF442:
 12088 03c5 4C565F45 		.ascii	"LV_EVENT_SHORT_CLICKED\000"
 12088      56454E54 
 12088      5F53484F 
 12088      52545F43 
 12088      4C49434B 
 12089              	.LASF149:
 12090 03dc 4C565F53 		.ascii	"LV_STYLE_BG_DITHER_MODE\000"
 12090      54594C45 
 12090      5F42475F 
 12090      44495448 
 12090      45525F4D 
ARM GAS  C:\Users\haske\AppData\Local\Temp\cc11ZRIl.s 			page 249


 12091              	.LASF561:
 12092 03f4 61786973 		.ascii	"axis1\000"
 12092      3100
 12093              	.LASF562:
 12094 03fa 61786973 		.ascii	"axis2\000"
 12094      3200
 12095              	.LASF252:
 12096 0400 626F7264 		.ascii	"border_side\000"
 12096      65725F73 
 12096      69646500 
 12097              	.LASF1:
 12098 040c 5F5F7569 		.ascii	"__uint8_t\000"
 12098      6E74385F 
 12098      7400
 12099              	.LASF236:
 12100 0416 775F6C61 		.ascii	"w_layout\000"
 12100      796F7574 
 12100      00
 12101              	.LASF238:
 12102 041f 626C656E 		.ascii	"blend_mode\000"
 12102      645F6D6F 
 12102      646500
 12103              	.LASF133:
 12104 042a 4C565F53 		.ascii	"LV_STYLE_RADIUS\000"
 12104      54594C45 
 12104      5F524144 
 12104      49555300 
 12105              	.LASF232:
 12106 043a 7363725F 		.ascii	"scr_layout_inv\000"
 12106      6C61796F 
 12106      75745F69 
 12106      6E7600
 12107              	.LASF125:
 12108 0449 4C565F53 		.ascii	"LV_STYLE_MAX_WIDTH\000"
 12108      54594C45 
 12108      5F4D4158 
 12108      5F574944 
 12108      544800
 12109              	.LASF93:
 12110 045c 72756E5F 		.ascii	"run_round\000"
 12110      726F756E 
 12110      6400
 12111              	.LASF152:
 12112 0466 4C565F53 		.ascii	"LV_STYLE_BG_IMG_RECOLOR\000"
 12112      54594C45 
 12112      5F42475F 
 12112      494D475F 
 12112      5245434F 
 12113              	.LASF169:
 12114 047e 4C565F53 		.ascii	"LV_STYLE_SHADOW_OPA\000"
 12114      54594C45 
 12114      5F534841 
 12114      444F575F 
 12114      4F504100 
 12115              	.LASF608:
 12116 0492 6C765F65 		.ascii	"lv_event_send\000"
 12116      76656E74 
ARM GAS  C:\Users\haske\AppData\Local\Temp\cc11ZRIl.s 			page 250


 12116      5F73656E 
 12116      6400
 12117              	.LASF510:
 12118 04a0 616E696D 		.ascii	"anim_end\000"
 12118      5F656E64 
 12118      00
 12119              	.LASF200:
 12120 04a9 4C565F53 		.ascii	"LV_STYLE_TRANSFORM_HEIGHT\000"
 12120      54594C45 
 12120      5F545241 
 12120      4E53464F 
 12120      524D5F48 
 12121              	.LASF526:
 12122 04c3 6C765F6F 		.ascii	"lv_obj_get_style_transform_width\000"
 12122      626A5F67 
 12122      65745F73 
 12122      74796C65 
 12122      5F747261 
 12123              	.LASF373:
 12124 04e4 4C565F4F 		.ascii	"LV_OBJ_FLAG_SCROLLABLE\000"
 12124      424A5F46 
 12124      4C41475F 
 12124      5343524F 
 12124      4C4C4142 
 12125              	.LASF137:
 12126 04fb 4C565F53 		.ascii	"LV_STYLE_PAD_RIGHT\000"
 12126      54594C45 
 12126      5F504144 
 12126      5F524947 
 12126      485400
 12127              	.LASF543:
 12128 050e 6261725F 		.ascii	"bar_anim\000"
 12128      616E696D 
 12128      00
 12129              	.LASF554:
 12130 0517 62675F74 		.ascii	"bg_top\000"
 12130      6F7000
 12131              	.LASF438:
 12132 051e 4C565F45 		.ascii	"LV_EVENT_ALL\000"
 12132      56454E54 
 12132      5F414C4C 
 12132      00
 12133              	.LASF9:
 12134 052b 6C6F6E67 		.ascii	"long int\000"
 12134      20696E74 
 12134      00
 12135              	.LASF197:
 12136 0534 4C565F53 		.ascii	"LV_STYLE_TRANSITION\000"
 12136      54594C45 
 12136      5F545241 
 12136      4E534954 
 12136      494F4E00 
 12137              	.LASF548:
 12138 0548 7472616E 		.ascii	"transf_h\000"
 12138      73665F68 
 12138      00
 12139              	.LASF500:
ARM GAS  C:\Users\haske\AppData\Local\Temp\cc11ZRIl.s 			page 251


 12140 0551 7363726F 		.ascii	"scroll_dir\000"
 12140      6C6C5F64 
 12140      697200
 12141              	.LASF425:
 12142 055c 67726F75 		.ascii	"group_def\000"
 12142      705F6465 
 12142      6600
 12143              	.LASF153:
 12144 0566 4C565F53 		.ascii	"LV_STYLE_BG_IMG_RECOLOR_OPA\000"
 12144      54594C45 
 12144      5F42475F 
 12144      494D475F 
 12144      5245434F 
 12145              	.LASF589:
 12146 0582 76616C75 		.ascii	"value_ptr\000"
 12146      655F7074 
 12146      7200
 12147              	.LASF547:
 12148 058c 7472616E 		.ascii	"transf_w\000"
 12148      73665F77 
 12148      00
 12149              	.LASF239:
 12150 0595 62675F6F 		.ascii	"bg_opa\000"
 12150      706100
 12151              	.LASF275:
 12152 059c 6C765F64 		.ascii	"lv_draw_label_dsc_t\000"
 12152      7261775F 
 12152      6C616265 
 12152      6C5F6473 
 12152      635F7400 
 12153              	.LASF358:
 12154 05b0 6C765F73 		.ascii	"lv_state_t\000"
 12154      74617465 
 12154      5F7400
 12155              	.LASF386:
 12156 05bb 4C565F4F 		.ascii	"LV_OBJ_FLAG_ADV_HITTEST\000"
 12156      424A5F46 
 12156      4C41475F 
 12156      4144565F 
 12156      48495454 
 12157              	.LASF268:
 12158 05d3 73656C5F 		.ascii	"sel_bg_color\000"
 12158      62675F63 
 12158      6F6C6F72 
 12158      00
 12159              	.LASF533:
 12160 05e0 6C765F6F 		.ascii	"lv_obj_get_style_radius\000"
 12160      626A5F67 
 12160      65745F73 
 12160      74796C65 
 12160      5F726164 
 12161              	.LASF407:
 12162 05f8 64726177 		.ascii	"draw_area\000"
 12162      5F617265 
 12162      6100
 12163              	.LASF104:
 12164 0602 4C565F42 		.ascii	"LV_BASE_DIR_RTL\000"
ARM GAS  C:\Users\haske\AppData\Local\Temp\cc11ZRIl.s 			page 252


 12164      4153455F 
 12164      4449525F 
 12164      52544C00 
 12165              	.LASF381:
 12166 0612 4C565F4F 		.ascii	"LV_OBJ_FLAG_SCROLL_WITH_ARROW\000"
 12166      424A5F46 
 12166      4C41475F 
 12166      5343524F 
 12166      4C4C5F57 
 12167              	.LASF597:
 12168 0630 6C765F62 		.ascii	"lv_bar_get_value\000"
 12168      61725F67 
 12168      65745F76 
 12168      616C7565 
 12168      00
 12169              	.LASF545:
 12170 0641 64726177 		.ascii	"draw_indic\000"
 12170      5F696E64 
 12170      696300
 12171              	.LASF353:
 12172 064c 65646765 		.ascii	"edge_cb\000"
 12172      5F636200 
 12173              	.LASF154:
 12174 0654 4C565F53 		.ascii	"LV_STYLE_BG_IMG_TILED\000"
 12174      54594C45 
 12174      5F42475F 
 12174      494D475F 
 12174      54494C45 
 12175              	.LASF304:
 12176 066a 6C696665 		.ascii	"life\000"
 12176      00
 12177              	.LASF524:
 12178 066f 61726561 		.ascii	"area_p\000"
 12178      5F7000
 12179              	.LASF346:
 12180 0676 68656164 		.ascii	"head\000"
 12180      00
 12181              	.LASF156:
 12182 067b 4C565F53 		.ascii	"LV_STYLE_BORDER_OPA\000"
 12182      54594C45 
 12182      5F424F52 
 12182      4445525F 
 12182      4F504100 
 12183              	.LASF465:
 12184 068f 4C565F45 		.ascii	"LV_EVENT_DRAW_PART_END\000"
 12184      56454E54 
 12184      5F445241 
 12184      575F5041 
 12184      52545F45 
 12185              	.LASF91:
 12186 06a6 6561726C 		.ascii	"early_apply\000"
 12186      795F6170 
 12186      706C7900 
 12187              	.LASF354:
 12188 06b2 66726F7A 		.ascii	"frozen\000"
 12188      656E00
 12189              	.LASF337:
ARM GAS  C:\Users\haske\AppData\Local\Temp\cc11ZRIl.s 			page 253


 12190 06b9 62756666 		.ascii	"buffer_copy\000"
 12190      65725F63 
 12190      6F707900 
 12191              	.LASF529:
 12192 06c5 6C765F6F 		.ascii	"lv_obj_get_style_pad_top\000"
 12192      626A5F67 
 12192      65745F73 
 12192      74796C65 
 12192      5F706164 
 12193              	.LASF253:
 12194 06de 6F75746C 		.ascii	"outline_color\000"
 12194      696E655F 
 12194      636F6C6F 
 12194      7200
 12195              	.LASF168:
 12196 06ec 4C565F53 		.ascii	"LV_STYLE_SHADOW_COLOR\000"
 12196      54594C45 
 12196      5F534841 
 12196      444F575F 
 12196      434F4C4F 
 12197              	.LASF234:
 12198 0702 7374796C 		.ascii	"style_cnt\000"
 12198      655F636E 
 12198      7400
 12199              	.LASF231:
 12200 070c 6C61796F 		.ascii	"layout_inv\000"
 12200      75745F69 
 12200      6E7600
 12201              	.LASF2:
 12202 0717 7369676E 		.ascii	"signed char\000"
 12202      65642063 
 12202      68617200 
 12203              	.LASF16:
 12204 0723 75696E74 		.ascii	"uint8_t\000"
 12204      385F7400 
 12205              	.LASF332:
 12206 072b 64726177 		.ascii	"draw_line\000"
 12206      5F6C696E 
 12206      6500
 12207              	.LASF624:
 12208 0735 6C765F61 		.ascii	"lv_anim_del\000"
 12208      6E696D5F 
 12208      64656C00 
 12209              	.LASF70:
 12210 0741 4C565F41 		.ascii	"LV_ANIM_OFF\000"
 12210      4E494D5F 
 12210      4F464600 
 12211              	.LASF536:
 12212 074d 64757261 		.ascii	"duration\000"
 12212      74696F6E 
 12212      00
 12213              	.LASF390:
 12214 0756 4C565F4F 		.ascii	"LV_OBJ_FLAG_LAYOUT_1\000"
 12214      424A5F46 
 12214      4C41475F 
 12214      4C41594F 
 12214      55545F31 
ARM GAS  C:\Users\haske\AppData\Local\Temp\cc11ZRIl.s 			page 254


 12215              	.LASF391:
 12216 076b 4C565F4F 		.ascii	"LV_OBJ_FLAG_LAYOUT_2\000"
 12216      424A5F46 
 12216      4C41475F 
 12216      4C41594F 
 12216      55545F32 
 12217              	.LASF247:
 12218 0780 62675F69 		.ascii	"bg_img_tiled\000"
 12218      6D675F74 
 12218      696C6564 
 12218      00
 12219              	.LASF145:
 12220 078d 4C565F53 		.ascii	"LV_STYLE_BG_GRAD_DIR\000"
 12220      54594C45 
 12220      5F42475F 
 12220      47524144 
 12220      5F444952 
 12221              	.LASF35:
 12222 07a2 6765745F 		.ascii	"get_glyph_bitmap\000"
 12222      676C7970 
 12222      685F6269 
 12222      746D6170 
 12222      00
 12223              	.LASF77:
 12224 07b3 73746172 		.ascii	"start_cb\000"
 12224      745F6362 
 12224      00
 12225              	.LASF292:
 12226 07bc 656E645F 		.ascii	"end_angle\000"
 12226      616E676C 
 12226      6500
 12227              	.LASF64:
 12228 07c6 626C7565 		.ascii	"blue\000"
 12228      00
 12229              	.LASF379:
 12230 07cb 4C565F4F 		.ascii	"LV_OBJ_FLAG_SCROLL_CHAIN\000"
 12230      424A5F46 
 12230      4C41475F 
 12230      5343524F 
 12230      4C4C5F43 
 12231              	.LASF245:
 12232 07e4 62675F69 		.ascii	"bg_img_opa\000"
 12232      6D675F6F 
 12232      706100
 12233              	.LASF310:
 12234 07ef 6C765F64 		.ascii	"lv_draw_mask_radius_param_t\000"
 12234      7261775F 
 12234      6D61736B 
 12234      5F726164 
 12234      6975735F 
 12235              	.LASF393:
 12236 080b 4C565F4F 		.ascii	"LV_OBJ_FLAG_WIDGET_2\000"
 12236      424A5F46 
 12236      4C41475F 
 12236      57494447 
 12236      45545F32 
 12237              	.LASF82:
ARM GAS  C:\Users\haske\AppData\Local\Temp\cc11ZRIl.s 			page 255


 12238 0820 73746172 		.ascii	"start_value\000"
 12238      745F7661 
 12238      6C756500 
 12239              	.LASF131:
 12240 082c 4C565F53 		.ascii	"LV_STYLE_ALIGN\000"
 12240      54594C45 
 12240      5F414C49 
 12240      474E00
 12241              	.LASF3:
 12242 083b 756E7369 		.ascii	"unsigned char\000"
 12242      676E6564 
 12242      20636861 
 12242      7200
 12243              	.LASF518:
 12244 0849 73746172 		.ascii	"start_value_anim\000"
 12244      745F7661 
 12244      6C75655F 
 12244      616E696D 
 12244      00
 12245              	.LASF482:
 12246 085a 4C565F45 		.ascii	"LV_EVENT_GET_SELF_SIZE\000"
 12246      56454E54 
 12246      5F474554 
 12246      5F53454C 
 12246      465F5349 
 12247              	.LASF306:
 12248 0871 5F6C765F 		.ascii	"_lv_draw_mask_radius_circle_dsc_t\000"
 12248      64726177 
 12248      5F6D6173 
 12248      6B5F7261 
 12248      64697573 
 12249              	.LASF596:
 12250 0893 6C765F62 		.ascii	"lv_bar_create\000"
 12250      61725F63 
 12250      72656174 
 12250      6500
 12251              	.LASF459:
 12252 08a1 4C565F45 		.ascii	"LV_EVENT_DRAW_MAIN\000"
 12252      56454E54 
 12252      5F445241 
 12252      575F4D41 
 12252      494E00
 12253              	.LASF491:
 12254 08b4 6368696C 		.ascii	"child_cnt\000"
 12254      645F636E 
 12254      7400
 12255              	.LASF290:
 12256 08be 6C765F64 		.ascii	"lv_draw_line_dsc_t\000"
 12256      7261775F 
 12256      6C696E65 
 12256      5F647363 
 12256      5F7400
 12257              	.LASF205:
 12258 08d1 4C565F53 		.ascii	"LV_STYLE_TRANSFORM_PIVOT_X\000"
 12258      54594C45 
 12258      5F545241 
 12258      4E53464F 
ARM GAS  C:\Users\haske\AppData\Local\Temp\cc11ZRIl.s 			page 256


 12258      524D5F50 
 12259              	.LASF206:
 12260 08ec 4C565F53 		.ascii	"LV_STYLE_TRANSFORM_PIVOT_Y\000"
 12260      54594C45 
 12260      5F545241 
 12260      4E53464F 
 12260      524D5F50 
 12261              	.LASF489:
 12262 0907 6C765F67 		.ascii	"lv_group_t\000"
 12262      726F7570 
 12262      5F7400
 12263              	.LASF503:
 12264 0912 5F6C765F 		.ascii	"_lv_obj_spec_attr_t\000"
 12264      6F626A5F 
 12264      73706563 
 12264      5F617474 
 12264      725F7400 
 12265              	.LASF171:
 12266 0926 4C565F53 		.ascii	"LV_STYLE_IMG_RECOLOR\000"
 12266      54594C45 
 12266      5F494D47 
 12266      5F524543 
 12266      4F4C4F52 
 12267              	.LASF320:
 12268 093b 61726561 		.ascii	"area_act\000"
 12268      5F616374 
 12268      00
 12269              	.LASF107:
 12270 0944 4C565F42 		.ascii	"LV_BASE_DIR_WEAK\000"
 12270      4153455F 
 12270      4449525F 
 12270      5745414B 
 12270      00
 12271              	.LASF179:
 12272 0955 4C565F53 		.ascii	"LV_STYLE_ARC_WIDTH\000"
 12272      54594C45 
 12272      5F415243 
 12272      5F574944 
 12272      544800
 12273              	.LASF31:
 12274 0968 6F66735F 		.ascii	"ofs_x\000"
 12274      7800
 12275              	.LASF32:
 12276 096e 6F66735F 		.ascii	"ofs_y\000"
 12276      7900
 12277              	.LASF108:
 12278 0974 6C765F62 		.ascii	"lv_base_dir_t\000"
 12278      6173655F 
 12278      6469725F 
 12278      7400
 12279              	.LASF235:
 12280 0982 685F6C61 		.ascii	"h_layout\000"
 12280      796F7574 
 12280      00
 12281              	.LASF44:
 12282 098b 5F426F6F 		.ascii	"_Bool\000"
 12282      6C00
ARM GAS  C:\Users\haske\AppData\Local\Temp\cc11ZRIl.s 			page 257


 12283              	.LASF497:
 12284 0991 7363726F 		.ascii	"scrollbar_mode\000"
 12284      6C6C6261 
 12284      725F6D6F 
 12284      646500
 12285              	.LASF323:
 12286 09a0 6F726967 		.ascii	"original\000"
 12286      696E616C 
 12286      00
 12287              	.LASF201:
 12288 09a9 4C565F53 		.ascii	"LV_STYLE_TRANSLATE_X\000"
 12288      54594C45 
 12288      5F545241 
 12288      4E534C41 
 12288      54455F58 
 12289              	.LASF202:
 12290 09be 4C565F53 		.ascii	"LV_STYLE_TRANSLATE_Y\000"
 12290      54594C45 
 12290      5F545241 
 12290      4E534C41 
 12290      54455F59 
 12291              	.LASF631:
 12292 09d3 474E5520 		.ascii	"GNU C11 5.4.1 20160609 (release) [ARM/embedded-5-br"
 12292      43313120 
 12292      352E342E 
 12292      31203230 
 12292      31363036 
 12293 0a06 616E6368 		.ascii	"anch revision 237715] -mcpu=cortex-m0plus -mthumb -"
 12293      20726576 
 12293      6973696F 
 12293      6E203233 
 12293      37373135 
 12294 0a39 67202D4F 		.ascii	"g -Og -ffunction-sections -ffat-lto-objects\000"
 12294      67202D66 
 12294      66756E63 
 12294      74696F6E 
 12294      2D736563 
 12295              	.LASF435:
 12296 0a65 73746F70 		.ascii	"stop_processing\000"
 12296      5F70726F 
 12296      63657373 
 12296      696E6700 
 12297              	.LASF213:
 12298 0a75 76616C75 		.ascii	"value\000"
 12298      6500
 12299              	.LASF229:
 12300 0a7b 666C6167 		.ascii	"flags\000"
 12300      7300
 12301              	.LASF314:
 12302 0a81 6C765F64 		.ascii	"lv_draw_layer_flags_t\000"
 12302      7261775F 
 12302      6C617965 
 12302      725F666C 
 12302      6167735F 
 12303              	.LASF50:
 12304 0a97 63686172 		.ascii	"char\000"
 12304      00
ARM GAS  C:\Users\haske\AppData\Local\Temp\cc11ZRIl.s 			page 258


 12305              	.LASF283:
 12306 0a9c 6C765F64 		.ascii	"lv_draw_img_dsc_t\000"
 12306      7261775F 
 12306      696D675F 
 12306      6473635F 
 12306      7400
 12307              	.LASF534:
 12308 0aae 6C765F61 		.ascii	"lv_area_copy\000"
 12308      7265615F 
 12308      636F7079 
 12308      00
 12309              	.LASF95:
 12310 0abb 6C765F61 		.ascii	"lv_anim_exec_xcb_t\000"
 12310      6E696D5F 
 12310      65786563 
 12310      5F786362 
 12310      5F7400
 12311              	.LASF457:
 12312 0ace 4C565F45 		.ascii	"LV_EVENT_REFR_EXT_DRAW_SIZE\000"
 12312      56454E54 
 12312      5F524546 
 12312      525F4558 
 12312      545F4452 
 12313              	.LASF39:
 12314 0aea 756E6465 		.ascii	"underline_position\000"
 12314      726C696E 
 12314      655F706F 
 12314      73697469 
 12314      6F6E00
 12315              	.LASF342:
 12316 0afd 6C617965 		.ascii	"layer_instance_size\000"
 12316      725F696E 
 12316      7374616E 
 12316      63655F73 
 12316      697A6500 
 12317              	.LASF286:
 12318 0b11 64617368 		.ascii	"dash_gap\000"
 12318      5F676170 
 12318      00
 12319              	.LASF334:
 12320 0b1a 64726177 		.ascii	"draw_transform\000"
 12320      5F747261 
 12320      6E73666F 
 12320      726D00
 12321              	.LASF591:
 12322 0b29 616E696D 		.ascii	"anim\000"
 12322      00
 12323              	.LASF456:
 12324 0b2e 4C565F45 		.ascii	"LV_EVENT_COVER_CHECK\000"
 12324      56454E54 
 12324      5F434F56 
 12324      45525F43 
 12324      4845434B 
 12325              	.LASF140:
 12326 0b43 4C565F53 		.ascii	"LV_STYLE_BASE_DIR\000"
 12326      54594C45 
 12326      5F424153 
ARM GAS  C:\Users\haske\AppData\Local\Temp\cc11ZRIl.s 			page 259


 12326      455F4449 
 12326      5200
 12327              	.LASF226:
 12328 0b55 73706563 		.ascii	"spec_attr\000"
 12328      5F617474 
 12328      7200
 12329              	.LASF162:
 12330 0b5f 4C565F53 		.ascii	"LV_STYLE_OUTLINE_OPA\000"
 12330      54594C45 
 12330      5F4F5554 
 12330      4C494E45 
 12330      5F4F5041 
 12331              	.LASF118:
 12332 0b74 73746F70 		.ascii	"stops_count\000"
 12332      735F636F 
 12332      756E7400 
 12333              	.LASF302:
 12334 0b80 785F7374 		.ascii	"x_start_on_y\000"
 12334      6172745F 
 12334      6F6E5F79 
 12334      00
 12335              	.LASF6:
 12336 0b8d 5F5F7569 		.ascii	"__uint16_t\000"
 12336      6E743136 
 12336      5F7400
 12337              	.LASF455:
 12338 0b98 4C565F45 		.ascii	"LV_EVENT_HIT_TEST\000"
 12338      56454E54 
 12338      5F484954 
 12338      5F544553 
 12338      5400
 12339              	.LASF619:
 12340 0baa 6C765F6F 		.ascii	"lv_obj_calculate_ext_draw_size\000"
 12340      626A5F63 
 12340      616C6375 
 12340      6C617465 
 12340      5F657874 
 12341              	.LASF255:
 12342 0bc9 6F75746C 		.ascii	"outline_pad\000"
 12342      696E655F 
 12342      70616400 
 12343              	.LASF560:
 12344 0bd5 616E696D 		.ascii	"anim_start_value_x\000"
 12344      5F737461 
 12344      72745F76 
 12344      616C7565 
 12344      5F7800
 12345              	.LASF343:
 12346 0be8 6C765F64 		.ascii	"lv_draw_ctx_t\000"
 12346      7261775F 
 12346      6374785F 
 12346      7400
 12347              	.LASF142:
 12348 0bf6 4C565F53 		.ascii	"LV_STYLE_BG_COLOR\000"
 12348      54594C45 
 12348      5F42475F 
 12348      434F4C4F 
ARM GAS  C:\Users\haske\AppData\Local\Temp\cc11ZRIl.s 			page 260


 12348      5200
 12349              	.LASF172:
 12350 0c08 4C565F53 		.ascii	"LV_STYLE_IMG_RECOLOR_OPA\000"
 12350      54594C45 
 12350      5F494D47 
 12350      5F524543 
 12350      4F4C4F52 
 12351              	.LASF248:
 12352 0c21 626F7264 		.ascii	"border_color\000"
 12352      65725F63 
 12352      6F6C6F72 
 12352      00
 12353              	.LASF198:
 12354 0c2e 4C565F53 		.ascii	"LV_STYLE_BLEND_MODE\000"
 12354      54594C45 
 12354      5F424C45 
 12354      4E445F4D 
 12354      4F444500 
 12355              	.LASF587:
 12356 0c42 6C765F62 		.ascii	"lv_bar_set_value_with_anim\000"
 12356      61725F73 
 12356      65745F76 
 12356      616C7565 
 12356      5F776974 
 12357              	.LASF26:
 12358 0c5d 6C765F64 		.ascii	"lv_dir_t\000"
 12358      69725F74 
 12358      00
 12359              	.LASF477:
 12360 0c66 4C565F45 		.ascii	"LV_EVENT_SCREEN_LOADED\000"
 12360      56454E54 
 12360      5F534352 
 12360      45454E5F 
 12360      4C4F4144 
 12361              	.LASF212:
 12362 0c7d 70726F70 		.ascii	"prop\000"
 12362      00
 12363              	.LASF368:
 12364 0c82 4C565F50 		.ascii	"LV_PART_ANY\000"
 12364      4152545F 
 12364      414E5900 
 12365              	.LASF217:
 12366 0c8e 636F6E73 		.ascii	"const_props\000"
 12366      745F7072 
 12366      6F707300 
 12367              	.LASF629:
 12368 0c9a 6C765F6F 		.ascii	"lv_obj_class_init_obj\000"
 12368      626A5F63 
 12368      6C617373 
 12368      5F696E69 
 12368      745F6F62 
 12369              	.LASF405:
 12370 0cb0 5F6C765F 		.ascii	"_lv_obj_style_t\000"
 12370      6F626A5F 
 12370      7374796C 
 12370      655F7400 
 12371              	.LASF251:
ARM GAS  C:\Users\haske\AppData\Local\Temp\cc11ZRIl.s 			page 261


 12372 0cc0 626F7264 		.ascii	"border_post\000"
 12372      65725F70 
 12372      6F737400 
 12373              	.LASF493:
 12374 0ccc 6576656E 		.ascii	"event_dsc\000"
 12374      745F6473 
 12374      6300
 12375              	.LASF158:
 12376 0cd6 4C565F53 		.ascii	"LV_STYLE_BORDER_SIDE\000"
 12376      54594C45 
 12376      5F424F52 
 12376      4445525F 
 12376      53494445 
 12377              	.LASF174:
 12378 0ceb 4C565F53 		.ascii	"LV_STYLE_LINE_DASH_WIDTH\000"
 12378      54594C45 
 12378      5F4C494E 
 12378      455F4441 
 12378      53485F57 
 12379              	.LASF78:
 12380 0d04 72656164 		.ascii	"ready_cb\000"
 12380      795F6362 
 12380      00
 12381              	.LASF413:
 12382 0d0d 74657874 		.ascii	"text\000"
 12382      00
 12383              	.LASF259:
 12384 0d12 73686164 		.ascii	"shadow_ofs_x\000"
 12384      6F775F6F 
 12384      66735F78 
 12384      00
 12385              	.LASF199:
 12386 0d1f 4C565F53 		.ascii	"LV_STYLE_TRANSFORM_WIDTH\000"
 12386      54594C45 
 12386      5F545241 
 12386      4E53464F 
 12386      524D5F57 
 12387              	.LASF492:
 12388 0d38 67726F75 		.ascii	"group_p\000"
 12388      705F7000 
 12389              	.LASF211:
 12390 0d40 6C765F73 		.ascii	"lv_style_prop_t\000"
 12390      74796C65 
 12390      5F70726F 
 12390      705F7400 
 12391              	.LASF287:
 12392 0d50 726F756E 		.ascii	"round_start\000"
 12392      645F7374 
 12392      61727400 
 12393              	.LASF494:
 12394 0d5c 7363726F 		.ascii	"scroll\000"
 12394      6C6C00
 12395              	.LASF41:
 12396 0d63 66616C6C 		.ascii	"fallback\000"
 12396      6261636B 
 12396      00
 12397              	.LASF216:
ARM GAS  C:\Users\haske\AppData\Local\Temp\cc11ZRIl.s 			page 262


 12398 0d6c 76616C75 		.ascii	"values_and_props\000"
 12398      65735F61 
 12398      6E645F70 
 12398      726F7073 
 12398      00
 12399              	.LASF416:
 12400 0d7d 7375625F 		.ascii	"sub_part_ptr\000"
 12400      70617274 
 12400      5F707472 
 12400      00
 12401              	.LASF196:
 12402 0d8a 4C565F53 		.ascii	"LV_STYLE_ANIM_SPEED\000"
 12402      54594C45 
 12402      5F414E49 
 12402      4D5F5350 
 12402      45454400 
 12403              	.LASF531:
 12404 0d9e 6C765F6F 		.ascii	"lv_obj_get_style_pad_left\000"
 12404      626A5F67 
 12404      65745F73 
 12404      74796C65 
 12404      5F706164 
 12405              	.LASF25:
 12406 0db8 6C765F61 		.ascii	"lv_area_t\000"
 12406      7265615F 
 12406      7400
 12407              	.LASF338:
 12408 0dc2 6C617965 		.ascii	"layer_init\000"
 12408      725F696E 
 12408      697400
 12409              	.LASF160:
 12410 0dcd 4C565F53 		.ascii	"LV_STYLE_OUTLINE_WIDTH\000"
 12410      54594C45 
 12410      5F4F5554 
 12410      4C494E45 
 12410      5F574944 
 12411              	.LASF496:
 12412 0de4 6578745F 		.ascii	"ext_draw_size\000"
 12412      64726177 
 12412      5F73697A 
 12412      6500
 12413              	.LASF408:
 12414 0df2 72656374 		.ascii	"rect_dsc\000"
 12414      5F647363 
 12414      00
 12415              	.LASF394:
 12416 0dfb 4C565F4F 		.ascii	"LV_OBJ_FLAG_USER_1\000"
 12416      424A5F46 
 12416      4C41475F 
 12416      55534552 
 12416      5F3100
 12417              	.LASF395:
 12418 0e0e 4C565F4F 		.ascii	"LV_OBJ_FLAG_USER_2\000"
 12418      424A5F46 
 12418      4C41475F 
 12418      55534552 
 12418      5F3200
ARM GAS  C:\Users\haske\AppData\Local\Temp\cc11ZRIl.s 			page 263


 12419              	.LASF396:
 12420 0e21 4C565F4F 		.ascii	"LV_OBJ_FLAG_USER_3\000"
 12420      424A5F46 
 12420      4C41475F 
 12420      55534552 
 12420      5F3300
 12421              	.LASF397:
 12422 0e34 4C565F4F 		.ascii	"LV_OBJ_FLAG_USER_4\000"
 12422      424A5F46 
 12422      4C41475F 
 12422      55534552 
 12422      5F3400
 12423              	.LASF520:
 12424 0e47 6C765F62 		.ascii	"lv_bar_t\000"
 12424      61725F74 
 12424      00
 12425              	.LASF570:
 12426 0e50 6D61736B 		.ascii	"mask_bg_param\000"
 12426      5F62675F 
 12426      70617261 
 12426      6D00
 12427              	.LASF445:
 12428 0e5e 4C565F45 		.ascii	"LV_EVENT_CLICKED\000"
 12428      56454E54 
 12428      5F434C49 
 12428      434B4544 
 12428      00
 12429              	.LASF122:
 12430 0e6f 4C565F53 		.ascii	"LV_STYLE_PROP_INV\000"
 12430      54594C45 
 12430      5F50524F 
 12430      505F494E 
 12430      5600
 12431              	.LASF188:
 12432 0e81 4C565F53 		.ascii	"LV_STYLE_TEXT_LINE_SPACE\000"
 12432      54594C45 
 12432      5F544558 
 12432      545F4C49 
 12432      4E455F53 
 12433              	.LASF437:
 12434 0e9a 6C765F6F 		.ascii	"lv_obj_class_t\000"
 12434      626A5F63 
 12434      6C617373 
 12434      5F7400
 12435              	.LASF214:
 12436 0ea9 6C765F73 		.ascii	"lv_style_const_prop_t\000"
 12436      74796C65 
 12436      5F636F6E 
 12436      73745F70 
 12436      726F705F 
 12437              	.LASF460:
 12438 0ebf 4C565F45 		.ascii	"LV_EVENT_DRAW_MAIN_END\000"
 12438      56454E54 
 12438      5F445241 
 12438      575F4D41 
 12438      494E5F45 
 12439              	.LASF594:
ARM GAS  C:\Users\haske\AppData\Local\Temp\cc11ZRIl.s 			page 264


 12440 0ed6 6C765F62 		.ascii	"lv_bar_set_start_value\000"
 12440      61725F73 
 12440      65745F73 
 12440      74617274 
 12440      5F76616C 
 12441              	.LASF225:
 12442 0eed 70617265 		.ascii	"parent\000"
 12442      6E7400
 12443              	.LASF288:
 12444 0ef4 726F756E 		.ascii	"round_end\000"
 12444      645F656E 
 12444      6400
 12445              	.LASF96:
 12446 0efe 6C765F61 		.ascii	"lv_anim_ready_cb_t\000"
 12446      6E696D5F 
 12446      72656164 
 12446      795F6362 
 12446      5F7400
 12447              	.LASF508:
 12448 0f11 6C765F62 		.ascii	"lv_bar_mode_t\000"
 12448      61725F6D 
 12448      6F64655F 
 12448      7400
 12449              	.LASF293:
 12450 0f1f 696D675F 		.ascii	"img_src\000"
 12450      73726300 
 12451              	.LASF404:
 12452 0f27 69735F74 		.ascii	"is_trans\000"
 12452      72616E73 
 12452      00
 12453              	.LASF613:
 12454 0f30 6C765F64 		.ascii	"lv_draw_rect_dsc_init\000"
 12454      7261775F 
 12454      72656374 
 12454      5F647363 
 12454      5F696E69 
 12455              	.LASF565:
 12456 0f46 64726177 		.ascii	"draw_rect_dsc\000"
 12456      5F726563 
 12456      745F6473 
 12456      6300
 12457              	.LASF584:
 12458 0f54 6C765F62 		.ascii	"lv_bar_destructor\000"
 12458      61725F64 
 12458      65737472 
 12458      7563746F 
 12458      7200
 12459              	.LASF512:
 12460 0f66 5F6C765F 		.ascii	"_lv_bar_anim_t\000"
 12460      6261725F 
 12460      616E696D 
 12460      5F7400
 12461              	.LASF411:
 12462 0f75 696D675F 		.ascii	"img_dsc\000"
 12462      64736300 
 12463              	.LASF602:
 12464 0f7d 6C765F62 		.ascii	"lv_bar_set_range\000"
ARM GAS  C:\Users\haske\AppData\Local\Temp\cc11ZRIl.s 			page 265


 12464      61725F73 
 12464      65745F72 
 12464      616E6765 
 12464      00
 12465              	.LASF261:
 12466 0f8e 73686164 		.ascii	"shadow_spread\000"
 12466      6F775F73 
 12466      70726561 
 12466      6400
 12467              	.LASF195:
 12468 0f9c 4C565F53 		.ascii	"LV_STYLE_ANIM_TIME\000"
 12468      54594C45 
 12468      5F414E49 
 12468      4D5F5449 
 12468      4D4500
 12469              	.LASF87:
 12470 0faf 706C6179 		.ascii	"playback_delay\000"
 12470      6261636B 
 12470      5F64656C 
 12470      617900
 12471              	.LASF301:
 12472 0fbe 6369725F 		.ascii	"cir_opa\000"
 12472      6F706100 
 12473              	.LASF135:
 12474 0fc6 4C565F53 		.ascii	"LV_STYLE_PAD_BOTTOM\000"
 12474      54594C45 
 12474      5F504144 
 12474      5F424F54 
 12474      544F4D00 
 12475              	.LASF422:
 12476 0fda 77696474 		.ascii	"width_def\000"
 12476      685F6465 
 12476      6600
 12477              	.LASF388:
 12478 0fe4 4C565F4F 		.ascii	"LV_OBJ_FLAG_FLOATING\000"
 12478      424A5F46 
 12478      4C41475F 
 12478      464C4F41 
 12478      54494E47 
 12479              	.LASF378:
 12480 0ff9 4C565F4F 		.ascii	"LV_OBJ_FLAG_SCROLL_CHAIN_VER\000"
 12480      424A5F46 
 12480      4C41475F 
 12480      5343524F 
 12480      4C4C5F43 
 12481              	.LASF143:
 12482 1016 4C565F53 		.ascii	"LV_STYLE_BG_OPA\000"
 12482      54594C45 
 12482      5F42475F 
 12482      4F504100 
 12483              	.LASF178:
 12484 1026 4C565F53 		.ascii	"LV_STYLE_LINE_OPA\000"
 12484      54594C45 
 12484      5F4C494E 
 12484      455F4F50 
 12484      4100
 12485              	.LASF221:
ARM GAS  C:\Users\haske\AppData\Local\Temp\cc11ZRIl.s 			page 266


 12486 1038 6C765F73 		.ascii	"lv_style_t\000"
 12486      74796C65 
 12486      5F7400
 12487              	.LASF610:
 12488 1043 6C765F65 		.ascii	"lv_event_get_target\000"
 12488      76656E74 
 12488      5F676574 
 12488      5F746172 
 12488      67657400 
 12489              	.LASF146:
 12490 1057 4C565F53 		.ascii	"LV_STYLE_BG_MAIN_STOP\000"
 12490      54594C45 
 12490      5F42475F 
 12490      4D41494E 
 12490      5F53544F 
 12491              	.LASF389:
 12492 106d 4C565F4F 		.ascii	"LV_OBJ_FLAG_OVERFLOW_VISIBLE\000"
 12492      424A5F46 
 12492      4C41475F 
 12492      4F564552 
 12492      464C4F57 
 12493              	.LASF227:
 12494 108a 7374796C 		.ascii	"styles\000"
 12494      657300
 12495              	.LASF109:
 12496 1091 6C765F62 		.ascii	"lv_blend_mode_t\000"
 12496      6C656E64 
 12496      5F6D6F64 
 12496      655F7400 
 12497              	.LASF170:
 12498 10a1 4C565F53 		.ascii	"LV_STYLE_IMG_OPA\000"
 12498      54594C45 
 12498      5F494D47 
 12498      5F4F5041 
 12498      00
 12499              	.LASF203:
 12500 10b2 4C565F53 		.ascii	"LV_STYLE_TRANSFORM_ZOOM\000"
 12500      54594C45 
 12500      5F545241 
 12500      4E53464F 
 12500      524D5F5A 
 12501              	.LASF454:
 12502 10ca 4C565F45 		.ascii	"LV_EVENT_LEAVE\000"
 12502      56454E54 
 12502      5F4C4541 
 12502      564500
 12503              	.LASF100:
 12504 10d9 6C765F61 		.ascii	"lv_anim_t\000"
 12504      6E696D5F 
 12504      7400
 12505              	.LASF11:
 12506 10e3 6C6F6E67 		.ascii	"long unsigned int\000"
 12506      20756E73 
 12506      69676E65 
 12506      6420696E 
 12506      7400
 12507              	.LASF484:
ARM GAS  C:\Users\haske\AppData\Local\Temp\cc11ZRIl.s 			page 267


 12508 10f5 4C565F45 		.ascii	"LV_EVENT_PREPROCESS\000"
 12508      56454E54 
 12508      5F505245 
 12508      50524F43 
 12508      45535300 
 12509              	.LASF222:
 12510 1109 6C765F69 		.ascii	"lv_img_cf_t\000"
 12510      6D675F63 
 12510      665F7400 
 12511              	.LASF375:
 12512 1115 4C565F4F 		.ascii	"LV_OBJ_FLAG_SCROLL_MOMENTUM\000"
 12512      424A5F46 
 12512      4C41475F 
 12512      5343524F 
 12512      4C4C5F4D 
 12513              	.LASF185:
 12514 1131 4C565F53 		.ascii	"LV_STYLE_TEXT_OPA\000"
 12514      54594C45 
 12514      5F544558 
 12514      545F4F50 
 12514      4100
 12515              	.LASF291:
 12516 1143 73746172 		.ascii	"start_angle\000"
 12516      745F616E 
 12516      676C6500 
 12517              	.LASF553:
 12518 114f 62675F72 		.ascii	"bg_right\000"
 12518      69676874 
 12518      00
 12519              	.LASF537:
 12520 1158 6C765F6F 		.ascii	"lv_obj_get_style_anim_time\000"
 12520      626A5F67 
 12520      65745F73 
 12520      74796C65 
 12520      5F616E69 
 12521              	.LASF432:
 12522 1173 70617261 		.ascii	"param\000"
 12522      6D00
 12523              	.LASF429:
 12524 1179 74617267 		.ascii	"target\000"
 12524      657400
 12525              	.LASF341:
 12526 1180 6C617965 		.ascii	"layer_destroy\000"
 12526      725F6465 
 12526      7374726F 
 12526      7900
 12527              	.LASF581:
 12528 118e 73686966 		.ascii	"shift\000"
 12528      7400
 12529              	.LASF285:
 12530 1194 64617368 		.ascii	"dash_width\000"
 12530      5F776964 
 12530      746800
 12531              	.LASF424:
 12532 119f 65646974 		.ascii	"editable\000"
 12532      61626C65 
 12532      00
ARM GAS  C:\Users\haske\AppData\Local\Temp\cc11ZRIl.s 			page 268


 12533              	.LASF409:
 12534 11a8 6C616265 		.ascii	"label_dsc\000"
 12534      6C5F6473 
 12534      6300
 12535              	.LASF384:
 12536 11b2 4C565F4F 		.ascii	"LV_OBJ_FLAG_EVENT_BUBBLE\000"
 12536      424A5F46 
 12536      4C41475F 
 12536      4556454E 
 12536      545F4255 
 12537              	.LASF27:
 12538 11cb 7265736F 		.ascii	"resolved_font\000"
 12538      6C766564 
 12538      5F666F6E 
 12538      7400
 12539              	.LASF372:
 12540 11d9 4C565F4F 		.ascii	"LV_OBJ_FLAG_CHECKABLE\000"
 12540      424A5F46 
 12540      4C41475F 
 12540      43484543 
 12540      4B41424C 
 12541              	.LASF611:
 12542 11ef 6C765F65 		.ascii	"lv_event_get_draw_ctx\000"
 12542      76656E74 
 12542      5F676574 
 12542      5F647261 
 12542      775F6374 
 12543              	.LASF350:
 12544 1205 6F626A5F 		.ascii	"obj_ll\000"
 12544      6C6C00
 12545              	.LASF328:
 12546 120c 64726177 		.ascii	"draw_arc\000"
 12546      5F617263 
 12546      00
 12547              	.LASF177:
 12548 1215 4C565F53 		.ascii	"LV_STYLE_LINE_COLOR\000"
 12548      54594C45 
 12548      5F4C494E 
 12548      455F434F 
 12548      4C4F5200 
 12549              	.LASF369:
 12550 1229 4C565F4F 		.ascii	"LV_OBJ_FLAG_HIDDEN\000"
 12550      424A5F46 
 12550      4C41475F 
 12550      48494444 
 12550      454E00
 12551              	.LASF52:
 12552 123c 4C565F4F 		.ascii	"LV_OPA_0\000"
 12552      50415F30 
 12552      00
 12553              	.LASF138:
 12554 1245 4C565F53 		.ascii	"LV_STYLE_PAD_ROW\000"
 12554      54594C45 
 12554      5F504144 
 12554      5F524F57 
 12554      00
 12555              	.LASF632:
ARM GAS  C:\Users\haske\AppData\Local\Temp\cc11ZRIl.s 			page 269


 12556 1256 2E2E5C2E 		.ascii	"..\\..\\..\\arduinoLCD\\test\\Pain Drain\\libraries"
 12556      2E5C2E2E 
 12556      5C617264 
 12556      75696E6F 
 12556      4C43445C 
 12557 1283 5C6C7667 		.ascii	"\\lvgl\\src\\widgets\\lv_bar.c\000"
 12557      6C5C7372 
 12557      635C7769 
 12557      64676574 
 12557      735C6C76 
 12558              	.LASF316:
 12559 129e 6275665F 		.ascii	"buf_area\000"
 12559      61726561 
 12559      00
 12560              	.LASF94:
 12561 12a7 73746172 		.ascii	"start_cb_called\000"
 12561      745F6362 
 12561      5F63616C 
 12561      6C656400 
 12562              	.LASF279:
 12563 12b7 7265636F 		.ascii	"recolor\000"
 12563      6C6F7200 
 12564              	.LASF468:
 12565 12bf 4C565F45 		.ascii	"LV_EVENT_REFRESH\000"
 12565      56454E54 
 12565      5F524546 
 12565      52455348 
 12565      00
 12566              	.LASF426:
 12567 12d0 696E7374 		.ascii	"instance_size\000"
 12567      616E6365 
 12567      5F73697A 
 12567      6500
 12568              	.LASF72:
 12569 12de 6C765F61 		.ascii	"lv_anim_enable_t\000"
 12569      6E696D5F 
 12569      656E6162 
 12569      6C655F74 
 12569      00
 12570              	.LASF276:
 12571 12ef 616E676C 		.ascii	"angle\000"
 12571      6500
 12572              	.LASF136:
 12573 12f5 4C565F53 		.ascii	"LV_STYLE_PAD_LEFT\000"
 12573      54594C45 
 12573      5F504144 
 12573      5F4C4546 
 12573      5400
 12574              	.LASF166:
 12575 1307 4C565F53 		.ascii	"LV_STYLE_SHADOW_OFS_Y\000"
 12575      54594C45 
 12575      5F534841 
 12575      444F575F 
 12575      4F46535F 
 12576              	.LASF474:
 12577 131d 4C565F45 		.ascii	"LV_EVENT_CHILD_DELETED\000"
 12577      56454E54 
ARM GAS  C:\Users\haske\AppData\Local\Temp\cc11ZRIl.s 			page 270


 12577      5F434849 
 12577      4C445F44 
 12577      454C4554 
 12578              	.LASF535:
 12579 1334 6C765F61 		.ascii	"lv_anim_set_time\000"
 12579      6E696D5F 
 12579      7365745F 
 12579      74696D65 
 12579      00
 12580              	.LASF362:
 12581 1345 4C565F50 		.ascii	"LV_PART_KNOB\000"
 12581      4152545F 
 12581      4B4E4F42 
 12581      00
 12582              	.LASF329:
 12583 1352 64726177 		.ascii	"draw_img_decoded\000"
 12583      5F696D67 
 12583      5F646563 
 12583      6F646564 
 12583      00
 12584              	.LASF194:
 12585 1363 4C565F53 		.ascii	"LV_STYLE_ANIM\000"
 12585      54594C45 
 12585      5F414E49 
 12585      4D00
 12586              	.LASF129:
 12587 1371 4C565F53 		.ascii	"LV_STYLE_X\000"
 12587      54594C45 
 12587      5F5800
 12588              	.LASF382:
 12589 137c 4C565F4F 		.ascii	"LV_OBJ_FLAG_SNAPPABLE\000"
 12589      424A5F46 
 12589      4C41475F 
 12589      534E4150 
 12589      5041424C 
 12590              	.LASF427:
 12591 1392 6C765F6F 		.ascii	"lv_obj_draw_part_dsc_t\000"
 12591      626A5F64 
 12591      7261775F 
 12591      70617274 
 12591      5F647363 
 12592              	.LASF190:
 12593 13a9 4C565F53 		.ascii	"LV_STYLE_TEXT_ALIGN\000"
 12593      54594C45 
 12593      5F544558 
 12593      545F414C 
 12593      49474E00 
 12594              	.LASF598:
 12595 13bd 6C765F62 		.ascii	"lv_bar_get_start_value\000"
 12595      61725F67 
 12595      65745F73 
 12595      74617274 
 12595      5F76616C 
 12596              	.LASF620:
 12597 13d4 6C765F65 		.ascii	"lv_event_get_param\000"
 12597      76656E74 
 12597      5F676574 
ARM GAS  C:\Users\haske\AppData\Local\Temp\cc11ZRIl.s 			page 271


 12597      5F706172 
 12597      616D00
 12598              	.LASF74:
 12599 13e7 5F6C765F 		.ascii	"_lv_font_t\000"
 12599      666F6E74 
 12599      5F7400
 12600              	.LASF10:
 12601 13f2 5F5F7569 		.ascii	"__uint32_t\000"
 12601      6E743332 
 12601      5F7400
 12602              	.LASF421:
 12603 13fd 6576656E 		.ascii	"event_cb\000"
 12603      745F6362 
 12603      00
 12604              	.LASF485:
 12605 1406 6C765F65 		.ascii	"lv_event_code_t\000"
 12605      76656E74 
 12605      5F636F64 
 12605      655F7400 
 12606              	.LASF110:
 12607 1416 6C765F74 		.ascii	"lv_text_decor_t\000"
 12607      6578745F 
 12607      6465636F 
 12607      725F7400 
 12608              	.LASF428:
 12609 1426 5F6C765F 		.ascii	"_lv_event_t\000"
 12609      6576656E 
 12609      745F7400 
 12610              	.LASF12:
 12611 1432 6C6F6E67 		.ascii	"long long int\000"
 12611      206C6F6E 
 12611      6720696E 
 12611      7400
 12612              	.LASF257:
 12613 1440 73686164 		.ascii	"shadow_color\000"
 12613      6F775F63 
 12613      6F6C6F72 
 12613      00
 12614              	.LASF434:
 12615 144d 64656C65 		.ascii	"deleted\000"
 12615      74656400 
 12616              	.LASF567:
 12617 1455 62675F72 		.ascii	"bg_radius\000"
 12617      61646975 
 12617      7300
 12618              	.LASF284:
 12619 145f 77696474 		.ascii	"width\000"
 12619      6800
 12620              	.LASF449:
 12621 1465 4C565F45 		.ascii	"LV_EVENT_SCROLL\000"
 12621      56454E54 
 12621      5F534352 
 12621      4F4C4C00 
 12622              	.LASF572:
 12623 1475 6D61736B 		.ascii	"mask_bg_id\000"
 12623      5F62675F 
 12623      696400
ARM GAS  C:\Users\haske\AppData\Local\Temp\cc11ZRIl.s 			page 272


 12624              	.LASF618:
 12625 1480 6C765F64 		.ascii	"lv_draw_mask_remove_id\000"
 12625      7261775F 
 12625      6D61736B 
 12625      5F72656D 
 12625      6F76655F 
 12626              	.LASF528:
 12627 1497 6C765F6F 		.ascii	"lv_obj_get_style_pad_bottom\000"
 12627      626A5F67 
 12627      65745F73 
 12627      74796C65 
 12627      5F706164 
 12628              	.LASF385:
 12629 14b3 4C565F4F 		.ascii	"LV_OBJ_FLAG_GESTURE_BUBBLE\000"
 12629      424A5F46 
 12629      4C41475F 
 12629      47455354 
 12629      5552455F 
 12630              	.LASF309:
 12631 14ce 63697263 		.ascii	"circle\000"
 12631      6C6500
 12632              	.LASF490:
 12633 14d5 6368696C 		.ascii	"children\000"
 12633      6472656E 
 12633      00
 12634              	.LASF204:
 12635 14de 4C565F53 		.ascii	"LV_STYLE_TRANSFORM_ANGLE\000"
 12635      54594C45 
 12635      5F545241 
 12635      4E53464F 
 12635      524D5F41 
 12636              	.LASF616:
 12637 14f7 6C765F64 		.ascii	"lv_draw_mask_add\000"
 12637      7261775F 
 12637      6D61736B 
 12637      5F616464 
 12637      00
 12638              	.LASF311:
 12639 1508 4C565F44 		.ascii	"LV_DRAW_LAYER_FLAG_NONE\000"
 12639      5241575F 
 12639      4C415945 
 12639      525F464C 
 12639      41475F4E 
 12640              	.LASF192:
 12641 1520 4C565F53 		.ascii	"LV_STYLE_COLOR_FILTER_DSC\000"
 12641      54594C45 
 12641      5F434F4C 
 12641      4F525F46 
 12641      494C5445 
 12642              	.LASF102:
 12643 153a 6C765F74 		.ascii	"lv_text_align_t\000"
 12643      6578745F 
 12643      616C6967 
 12643      6E5F7400 
 12644              	.LASF106:
 12645 154a 4C565F42 		.ascii	"LV_BASE_DIR_NEUTRAL\000"
 12645      4153455F 
ARM GAS  C:\Users\haske\AppData\Local\Temp\cc11ZRIl.s 			page 273


 12645      4449525F 
 12645      4E455554 
 12645      52414C00 
 12646              	.LASF374:
 12647 155e 4C565F4F 		.ascii	"LV_OBJ_FLAG_SCROLL_ELASTIC\000"
 12647      424A5F46 
 12647      4C41475F 
 12647      5343524F 
 12647      4C4C5F45 
 12648              	.LASF517:
 12649 1579 6375725F 		.ascii	"cur_value_anim\000"
 12649      76616C75 
 12649      655F616E 
 12649      696D00
 12650              	.LASF40:
 12651 1588 756E6465 		.ascii	"underline_thickness\000"
 12651      726C696E 
 12651      655F7468 
 12651      69636B6E 
 12651      65737300 
 12652              	.LASF189:
 12653 159c 4C565F53 		.ascii	"LV_STYLE_TEXT_DECOR\000"
 12653      54594C45 
 12653      5F544558 
 12653      545F4445 
 12653      434F5200 
 12654              	.LASF272:
 12655 15b0 616C6967 		.ascii	"align\000"
 12655      6E00
 12656              	.LASF51:
 12657 15b6 4C565F4F 		.ascii	"LV_OPA_TRANSP\000"
 12657      50415F54 
 12657      52414E53 
 12657      5000
 12658              	.LASF180:
 12659 15c4 4C565F53 		.ascii	"LV_STYLE_ARC_ROUNDED\000"
 12659      54594C45 
 12659      5F415243 
 12659      5F524F55 
 12659      4E444544 
 12660              	.LASF370:
 12661 15d9 4C565F4F 		.ascii	"LV_OBJ_FLAG_CLICKABLE\000"
 12661      424A5F46 
 12661      4C41475F 
 12661      434C4943 
 12661      4B41424C 
 12662              	.LASF530:
 12663 15ef 6C765F6F 		.ascii	"lv_obj_get_style_pad_right\000"
 12663      626A5F67 
 12663      65745F73 
 12663      74796C65 
 12663      5F706164 
 12664              	.LASF233:
 12665 160a 736B6970 		.ascii	"skip_trans\000"
 12665      5F747261 
 12665      6E7300
 12666              	.LASF361:
ARM GAS  C:\Users\haske\AppData\Local\Temp\cc11ZRIl.s 			page 274


 12667 1615 4C565F50 		.ascii	"LV_PART_INDICATOR\000"
 12667      4152545F 
 12667      494E4449 
 12667      4341544F 
 12667      5200
 12668              	.LASF575:
 12669 1627 6D61736B 		.ascii	"mask_indic_id\000"
 12669      5F696E64 
 12669      69635F69 
 12669      6400
 12670              	.LASF360:
 12671 1635 4C565F50 		.ascii	"LV_PART_SCROLLBAR\000"
 12671      4152545F 
 12671      5343524F 
 12671      4C4C4241 
 12671      5200
 12672              	.LASF184:
 12673 1647 4C565F53 		.ascii	"LV_STYLE_TEXT_COLOR\000"
 12673      54594C45 
 12673      5F544558 
 12673      545F434F 
 12673      4C4F5200 
 12674              	.LASF623:
 12675 165b 6C765F65 		.ascii	"lv_event_get_code\000"
 12675      76656E74 
 12675      5F676574 
 12675      5F636F64 
 12675      6500
 12676              	.LASF471:
 12677 166d 4C565F45 		.ascii	"LV_EVENT_DELETE\000"
 12677      56454E54 
 12677      5F44454C 
 12677      45544500 
 12678              	.LASF224:
 12679 167d 636C6173 		.ascii	"class_p\000"
 12679      735F7000 
 12680              	.LASF83:
 12681 1685 63757272 		.ascii	"current_value\000"
 12681      656E745F 
 12681      76616C75 
 12681      6500
 12682              	.LASF14:
 12683 1693 756E7369 		.ascii	"unsigned int\000"
 12683      676E6564 
 12683      20696E74 
 12683      00
 12684              	.LASF600:
 12685 16a0 6C765F62 		.ascii	"lv_bar_get_max_value\000"
 12685      61725F67 
 12685      65745F6D 
 12685      61785F76 
 12685      616C7565 
 12686              	.LASF73:
 12687 16b5 6C765F61 		.ascii	"lv_anim_path_cb_t\000"
 12687      6E696D5F 
 12687      70617468 
 12687      5F63625F 
ARM GAS  C:\Users\haske\AppData\Local\Temp\cc11ZRIl.s 			page 275


 12687      7400
 12688              	.LASF99:
 12689 16c7 6C765F61 		.ascii	"lv_anim_deleted_cb_t\000"
 12689      6E696D5F 
 12689      64656C65 
 12689      7465645F 
 12689      63625F74 
 12690              	.LASF544:
 12691 16dc 6C765F62 		.ascii	"lv_bar_init_anim\000"
 12691      61725F69 
 12691      6E69745F 
 12691      616E696D 
 12691      00
 12692              	.LASF614:
 12693 16ed 6C765F6F 		.ascii	"lv_obj_init_draw_rect_dsc\000"
 12693      626A5F69 
 12693      6E69745F 
 12693      64726177 
 12693      5F726563 
 12694              	.LASF607:
 12695 1707 6C765F6F 		.ascii	"lv_obj_draw_dsc_init\000"
 12695      626A5F64 
 12695      7261775F 
 12695      6473635F 
 12695      696E6974 
 12696              	.LASF315:
 12697 171c 636C6970 		.ascii	"clip_area\000"
 12697      5F617265 
 12697      6100
 12698              	.LASF121:
 12699 1726 6C765F73 		.ascii	"lv_style_value_t\000"
 12699      74796C65 
 12699      5F76616C 
 12699      75655F74 
 12699      00
 12700              	.LASF628:
 12701 1737 6C765F6F 		.ascii	"lv_obj_class_create_obj\000"
 12701      626A5F63 
 12701      6C617373 
 12701      5F637265 
 12701      6174655F 
 12702              	.LASF630:
 12703 174f 6C765F6F 		.ascii	"lv_obj_clear_flag\000"
 12703      626A5F63 
 12703      6C656172 
 12703      5F666C61 
 12703      6700
 12704              	.LASF266:
 12705 1761 73656C5F 		.ascii	"sel_end\000"
 12705      656E6400 
 12706              	.LASF210:
 12707 1769 5F4C565F 		.ascii	"_LV_STYLE_PROP_CONST\000"
 12707      5354594C 
 12707      455F5052 
 12707      4F505F43 
 12707      4F4E5354 
 12708              	.LASF319:
ARM GAS  C:\Users\haske\AppData\Local\Temp\cc11ZRIl.s 			page 276


 12709 177e 61726561 		.ascii	"area_full\000"
 12709      5F66756C 
 12709      6C00
 12710              	.LASF273:
 12711 1788 666C6167 		.ascii	"flag\000"
 12711      00
 12712              	.LASF466:
 12713 178d 4C565F45 		.ascii	"LV_EVENT_VALUE_CHANGED\000"
 12713      56454E54 
 12713      5F56414C 
 12713      55455F43 
 12713      48414E47 
 12714              	.LASF318:
 12715 17a4 5F6C765F 		.ascii	"_lv_draw_layer_ctx_t\000"
 12715      64726177 
 12715      5F6C6179 
 12715      65725F63 
 12715      74785F74 
 12716              	.LASF256:
 12717 17b9 6F75746C 		.ascii	"outline_opa\000"
 12717      696E655F 
 12717      6F706100 
 12718              	.LASF452:
 12719 17c5 4C565F45 		.ascii	"LV_EVENT_FOCUSED\000"
 12719      56454E54 
 12719      5F464F43 
 12719      55534544 
 12719      00
 12720              	.LASF321:
 12721 17d6 6D61785F 		.ascii	"max_row_with_alpha\000"
 12721      726F775F 
 12721      77697468 
 12721      5F616C70 
 12721      686100
 12722              	.LASF380:
 12723 17e9 4C565F4F 		.ascii	"LV_OBJ_FLAG_SCROLL_ON_FOCUS\000"
 12723      424A5F46 
 12723      4C41475F 
 12723      5343524F 
 12723      4C4C5F4F 
 12724              	.LASF281:
 12725 1805 6672616D 		.ascii	"frame_id\000"
 12725      655F6964 
 12725      00
 12726              	.LASF580:
 12727 180e 7A65726F 		.ascii	"zero\000"
 12727      00
 12728              	.LASF505:
 12729 1813 4C565F42 		.ascii	"LV_BAR_MODE_NORMAL\000"
 12729      41525F4D 
 12729      4F44455F 
 12729      4E4F524D 
 12729      414C00
 12730              	.LASF412:
 12731 1826 6172635F 		.ascii	"arc_dsc\000"
 12731      64736300 
 12732              	.LASF280:
ARM GAS  C:\Users\haske\AppData\Local\Temp\cc11ZRIl.s 			page 277


 12733 182e 7265636F 		.ascii	"recolor_opa\000"
 12733      6C6F725F 
 12733      6F706100 
 12734              	.LASF132:
 12735 183a 4C565F53 		.ascii	"LV_STYLE_LAYOUT\000"
 12735      54594C45 
 12735      5F4C4159 
 12735      4F555400 
 12736              	.LASF43:
 12737 184a 6C765F66 		.ascii	"lv_font_glyph_dsc_t\000"
 12737      6F6E745F 
 12737      676C7970 
 12737      685F6473 
 12737      635F7400 
 12738              	.LASF476:
 12739 185e 4C565F45 		.ascii	"LV_EVENT_SCREEN_LOAD_START\000"
 12739      56454E54 
 12739      5F534352 
 12739      45454E5F 
 12739      4C4F4144 
 12740              	.LASF436:
 12741 1879 73746F70 		.ascii	"stop_bubbling\000"
 12741      5F627562 
 12741      626C696E 
 12741      6700
 12742              	.LASF254:
 12743 1887 6F75746C 		.ascii	"outline_width\000"
 12743      696E655F 
 12743      77696474 
 12743      6800
 12744              	.LASF164:
 12745 1895 4C565F53 		.ascii	"LV_STYLE_SHADOW_WIDTH\000"
 12745      54594C45 
 12745      5F534841 
 12745      444F575F 
 12745      57494454 
 12746              	.LASF440:
 12747 18ab 4C565F45 		.ascii	"LV_EVENT_PRESSING\000"
 12747      56454E54 
 12747      5F505245 
 12747      5353494E 
 12747      4700
 12748              	.LASF387:
 12749 18bd 4C565F4F 		.ascii	"LV_OBJ_FLAG_IGNORE_LAYOUT\000"
 12749      424A5F46 
 12749      4C41475F 
 12749      49474E4F 
 12749      52455F4C 
 12750              	.LASF141:
 12751 18d7 4C565F53 		.ascii	"LV_STYLE_CLIP_CORNER\000"
 12751      54594C45 
 12751      5F434C49 
 12751      505F434F 
 12751      524E4552 
 12752              	.LASF566:
 12753 18ec 70617274 		.ascii	"part_draw_dsc\000"
 12753      5F647261 
ARM GAS  C:\Users\haske\AppData\Local\Temp\cc11ZRIl.s 			page 278


 12753      775F6473 
 12753      6300
 12754              	.LASF282:
 12755 18fa 616E7469 		.ascii	"antialias\000"
 12755      616C6961 
 12755      7300
 12756              	.LASF418:
 12757 1904 62617365 		.ascii	"base_class\000"
 12757      5F636C61 
 12757      737300
 12758              	.LASF62:
 12759 190f 4C565F4F 		.ascii	"LV_OPA_100\000"
 12759      50415F31 
 12759      303000
 12760              	.LASF307:
 12761 191a 72656374 		.ascii	"rect\000"
 12761      00
 12762              	.LASF89:
 12763 191f 72657065 		.ascii	"repeat_delay\000"
 12763      61745F64 
 12763      656C6179 
 12763      00
 12764              	.LASF444:
 12765 192c 4C565F45 		.ascii	"LV_EVENT_LONG_PRESSED_REPEAT\000"
 12765      56454E54 
 12765      5F4C4F4E 
 12765      475F5052 
 12765      45535345 
 12766              	.LASF352:
 12767 1949 666F6375 		.ascii	"focus_cb\000"
 12767      735F6362 
 12767      00
 12768              	.LASF80:
 12769 1952 6765745F 		.ascii	"get_value_cb\000"
 12769      76616C75 
 12769      655F6362 
 12769      00
 12770              	.LASF599:
 12771 195f 6C765F62 		.ascii	"lv_bar_get_min_value\000"
 12771      61725F67 
 12771      65745F6D 
 12771      696E5F76 
 12771      616C7565 
 12772              	.LASF48:
 12773 1974 6C765F72 		.ascii	"lv_res_t\000"
 12773      65735F74 
 12773      00
 12774              	.LASF193:
 12775 197d 4C565F53 		.ascii	"LV_STYLE_COLOR_FILTER_OPA\000"
 12775      54594C45 
 12775      5F434F4C 
 12775      4F525F46 
 12775      494C5445 
 12776              	.LASF605:
 12777 1997 6C765F62 		.ascii	"lv_bar_class\000"
 12777      61725F63 
 12777      6C617373 
ARM GAS  C:\Users\haske\AppData\Local\Temp\cc11ZRIl.s 			page 279


 12777      00
 12778              	.LASF22:
 12779 19a4 6C6F6E67 		.ascii	"long double\000"
 12779      20646F75 
 12779      626C6500 
 12780              	.LASF401:
 12781 19b0 7374796C 		.ascii	"style\000"
 12781      6500
 12782              	.LASF113:
 12783 19b6 6C765F64 		.ascii	"lv_dither_mode_t\000"
 12783      69746865 
 12783      725F6D6F 
 12783      64655F74 
 12783      00
 12784              	.LASF400:
 12785 19c7 6C765F73 		.ascii	"lv_scroll_snap_t\000"
 12785      63726F6C 
 12785      6C5F736E 
 12785      61705F74 
 12785      00
 12786              	.LASF621:
 12787 19d8 6C765F6F 		.ascii	"lv_obj_invalidate_area\000"
 12787      626A5F69 
 12787      6E76616C 
 12787      69646174 
 12787      655F6172 
 12788              	.LASF431:
 12789 19ef 636F6465 		.ascii	"code\000"
 12789      00
 12790              	.LASF38:
 12791 19f4 73756270 		.ascii	"subpx\000"
 12791      7800
 12792              	.LASF63:
 12793 19fa 4C565F4F 		.ascii	"LV_OPA_COVER\000"
 12793      50415F43 
 12793      4F564552 
 12793      00
 12794              	.LASF336:
 12795 1a07 77616974 		.ascii	"wait_for_finish\000"
 12795      5F666F72 
 12795      5F66696E 
 12795      69736800 
 12796              	.LASF90:
 12797 1a17 72657065 		.ascii	"repeat_cnt\000"
 12797      61745F63 
 12797      6E7400
 12798              	.LASF359:
 12799 1a22 4C565F50 		.ascii	"LV_PART_MAIN\000"
 12799      4152545F 
 12799      4D41494E 
 12799      00
 12800              	.LASF246:
 12801 1a2f 62675F69 		.ascii	"bg_img_recolor_opa\000"
 12801      6D675F72 
 12801      65636F6C 
 12801      6F725F6F 
 12801      706100
ARM GAS  C:\Users\haske\AppData\Local\Temp\cc11ZRIl.s 			page 280


 12802              	.LASF313:
 12803 1a42 4C565F44 		.ascii	"LV_DRAW_LAYER_FLAG_CAN_SUBDIVIDE\000"
 12803      5241575F 
 12803      4C415945 
 12803      525F464C 
 12803      41475F43 
 12804              	.LASF439:
 12805 1a63 4C565F45 		.ascii	"LV_EVENT_PRESSED\000"
 12805      56454E54 
 12805      5F505245 
 12805      53534544 
 12805      00
 12806              	.LASF470:
 12807 1a74 4C565F45 		.ascii	"LV_EVENT_CANCEL\000"
 12807      56454E54 
 12807      5F43414E 
 12807      43454C00 
 12808              	.LASF609:
 12809 1a84 6C765F64 		.ascii	"lv_draw_rect\000"
 12809      7261775F 
 12809      72656374 
 12809      00
 12810              	.LASF364:
 12811 1a91 4C565F50 		.ascii	"LV_PART_ITEMS\000"
 12811      4152545F 
 12811      4954454D 
 12811      5300
 12812              	.LASF155:
 12813 1a9f 4C565F53 		.ascii	"LV_STYLE_BORDER_COLOR\000"
 12813      54594C45 
 12813      5F424F52 
 12813      4445525F 
 12813      434F4C4F 
 12814              	.LASF0:
 12815 1ab5 5F5F696E 		.ascii	"__int8_t\000"
 12815      74385F74 
 12815      00
 12816              	.LASF483:
 12817 1abe 5F4C565F 		.ascii	"_LV_EVENT_LAST\000"
 12817      4556454E 
 12817      545F4C41 
 12817      535400
 12818              	.LASF355:
 12819 1acd 65646974 		.ascii	"editing\000"
 12819      696E6700 
 12820              	.LASF601:
 12821 1ad5 6C765F62 		.ascii	"lv_bar_get_mode\000"
 12821      61725F67 
 12821      65745F6D 
 12821      6F646500 
 12822              	.LASF322:
 12823 1ae5 6D61785F 		.ascii	"max_row_with_no_alpha\000"
 12823      726F775F 
 12823      77697468 
 12823      5F6E6F5F 
 12823      616C7068 
 12824              	.LASF13:
ARM GAS  C:\Users\haske\AppData\Local\Temp\cc11ZRIl.s 			page 281


 12825 1afb 6C6F6E67 		.ascii	"long long unsigned int\000"
 12825      206C6F6E 
 12825      6720756E 
 12825      7369676E 
 12825      65642069 
 12826              	.LASF478:
 12827 1b12 4C565F45 		.ascii	"LV_EVENT_SCREEN_UNLOADED\000"
 12827      56454E54 
 12827      5F534352 
 12827      45454E5F 
 12827      554E4C4F 
 12828              	.LASF147:
 12829 1b2b 4C565F53 		.ascii	"LV_STYLE_BG_GRAD_STOP\000"
 12829      54594C45 
 12829      5F42475F 
 12829      47524144 
 12829      5F53544F 
 12830              	.LASF120:
 12831 1b41 6C765F67 		.ascii	"lv_grad_dsc_t\000"
 12831      7261645F 
 12831      6473635F 
 12831      7400
 12832              	.LASF487:
 12833 1b4f 6C765F67 		.ascii	"lv_group_focus_cb_t\000"
 12833      726F7570 
 12833      5F666F63 
 12833      75735F63 
 12833      625F7400 
 12834              	.LASF417:
 12835 1b63 5F6C765F 		.ascii	"_lv_obj_class_t\000"
 12835      6F626A5F 
 12835      636C6173 
 12835      735F7400 
 12836              	.LASF263:
 12837 1b73 6C765F64 		.ascii	"lv_draw_rect_dsc_t\000"
 12837      7261775F 
 12837      72656374 
 12837      5F647363 
 12837      5F7400
 12838              	.LASF18:
 12839 1b86 75696E74 		.ascii	"uint16_t\000"
 12839      31365F74 
 12839      00
 12840              	.LASF47:
 12841 1b8f 4C565F52 		.ascii	"LV_RES_OK\000"
 12841      45535F4F 
 12841      4B00
 12842              	.LASF606:
 12843 1b99 6C765F6F 		.ascii	"lv_obj_get_style_prop\000"
 12843      626A5F67 
 12843      65745F73 
 12843      74796C65 
 12843      5F70726F 
 12844              	.LASF84:
 12845 1baf 656E645F 		.ascii	"end_value\000"
 12845      76616C75 
 12845      6500
ARM GAS  C:\Users\haske\AppData\Local\Temp\cc11ZRIl.s 			page 282


 12846              	.LASF357:
 12847 1bb9 77726170 		.ascii	"wrap\000"
 12847      00
 12848              	.LASF68:
 12849 1bbe 6C765F63 		.ascii	"lv_color_t\000"
 12849      6F6C6F72 
 12849      5F7400
 12850              	.LASF298:
 12851 1bc9 6C765F64 		.ascii	"lv_draw_mask_xcb_t\000"
 12851      7261775F 
 12851      6D61736B 
 12851      5F786362 
 12851      5F7400
 12852              	.LASF331:
 12853 1bdc 64726177 		.ascii	"draw_letter\000"
 12853      5F6C6574 
 12853      74657200 
 12854              	.LASF461:
 12855 1be8 4C565F45 		.ascii	"LV_EVENT_DRAW_POST_BEGIN\000"
 12855      56454E54 
 12855      5F445241 
 12855      575F504F 
 12855      53545F42 
 12856              	.LASF586:
 12857 1c01 6C765F62 		.ascii	"lv_bar_anim\000"
 12857      61725F61 
 12857      6E696D00 
 12858              	.LASF123:
 12859 1c0d 4C565F53 		.ascii	"LV_STYLE_WIDTH\000"
 12859      54594C45 
 12859      5F574944 
 12859      544800
 12860              	.LASF522:
 12861 1c1c 6C765F61 		.ascii	"lv_area_get_height\000"
 12861      7265615F 
 12861      6765745F 
 12861      68656967 
 12861      687400
 12862              	.LASF249:
 12863 1c2f 626F7264 		.ascii	"border_width\000"
 12863      65725F77 
 12863      69647468 
 12863      00
 12864              	.LASF124:
 12865 1c3c 4C565F53 		.ascii	"LV_STYLE_MIN_WIDTH\000"
 12865      54594C45 
 12865      5F4D494E 
 12865      5F574944 
 12865      544800
 12866              	.LASF101:
 12867 1c4f 6C765F74 		.ascii	"lv_text_flag_t\000"
 12867      6578745F 
 12867      666C6167 
 12867      5F7400
 12868              	.LASF507:
 12869 1c5e 4C565F42 		.ascii	"LV_BAR_MODE_RANGE\000"
 12869      41525F4D 
ARM GAS  C:\Users\haske\AppData\Local\Temp\cc11ZRIl.s 			page 283


 12869      4F44455F 
 12869      52414E47 
 12869      4500
 12870              	.LASF165:
 12871 1c70 4C565F53 		.ascii	"LV_STYLE_SHADOW_OFS_X\000"
 12871      54594C45 
 12871      5F534841 
 12871      444F575F 
 12871      4F46535F 
 12872              	.LASF76:
 12873 1c86 65786563 		.ascii	"exec_cb\000"
 12873      5F636200 
 12874              	.LASF377:
 12875 1c8e 4C565F4F 		.ascii	"LV_OBJ_FLAG_SCROLL_CHAIN_HOR\000"
 12875      424A5F46 
 12875      4C41475F 
 12875      5343524F 
 12875      4C4C5F43 
 12876              	.LASF53:
 12877 1cab 4C565F4F 		.ascii	"LV_OPA_10\000"
 12877      50415F31 
 12877      3000
 12878              	.LASF150:
 12879 1cb5 4C565F53 		.ascii	"LV_STYLE_BG_IMG_SRC\000"
 12879      54594C45 
 12879      5F42475F 
 12879      494D475F 
 12879      53524300 
 12880              	.LASF88:
 12881 1cc9 706C6179 		.ascii	"playback_time\000"
 12881      6261636B 
 12881      5F74696D 
 12881      6500
 12882              	.LASF278:
 12883 1cd7 7069766F 		.ascii	"pivot\000"
 12883      7400
 12884              	.LASF183:
 12885 1cdd 4C565F53 		.ascii	"LV_STYLE_ARC_IMG_SRC\000"
 12885      54594C45 
 12885      5F415243 
 12885      5F494D47 
 12885      5F535243 
 12886              	.LASF215:
 12887 1cf2 76616C75 		.ascii	"value1\000"
 12887      653100
 12888              	.LASF546:
 12889 1cf9 6261725F 		.ascii	"bar_coords\000"
 12889      636F6F72 
 12889      647300
 12890              	.LASF274:
 12891 1d04 6465636F 		.ascii	"decor\000"
 12891      7200
 12892              	.LASF4:
 12893 1d0a 5F5F696E 		.ascii	"__int16_t\000"
 12893      7431365F 
 12893      7400
 12894              	.LASF339:
ARM GAS  C:\Users\haske\AppData\Local\Temp\cc11ZRIl.s 			page 284


 12895 1d14 6C617965 		.ascii	"layer_adjust\000"
 12895      725F6164 
 12895      6A757374 
 12895      00
 12896              	.LASF186:
 12897 1d21 4C565F53 		.ascii	"LV_STYLE_TEXT_FONT\000"
 12897      54594C45 
 12897      5F544558 
 12897      545F464F 
 12897      4E5400
 12898              	.LASF555:
 12899 1d34 62675F62 		.ascii	"bg_bottom\000"
 12899      6F74746F 
 12899      6D00
 12900              	.LASF604:
 12901 1d3e 6C765F6F 		.ascii	"lv_obj_class\000"
 12901      626A5F63 
 12901      6C617373 
 12901      00
 12902              	.LASF209:
 12903 1d4b 4C565F53 		.ascii	"LV_STYLE_PROP_ANY\000"
 12903      54594C45 
 12903      5F50524F 
 12903      505F414E 
 12903      5900
 12904              	.LASF527:
 12905 1d5d 64657374 		.ascii	"dest\000"
 12905      00
 12906              	.LASF66:
 12907 1d62 66756C6C 		.ascii	"full\000"
 12907      00
 12908              	.LASF324:
 12909 1d67 6C765F64 		.ascii	"lv_draw_layer_ctx_t\000"
 12909      7261775F 
 12909      6C617965 
 12909      725F6374 
 12909      785F7400 
 12910              	.LASF54:
 12911 1d7b 4C565F4F 		.ascii	"LV_OPA_20\000"
 12911      50415F32 
 12911      3000
 12912              	.LASF114:
 12913 1d85 636F6C6F 		.ascii	"color\000"
 12913      7200
 12914              	.LASF85:
 12915 1d8b 74696D65 		.ascii	"time\000"
 12915      00
 12916              	.LASF308:
 12917 1d90 6F757465 		.ascii	"outer\000"
 12917      7200
 12918              	.LASF627:
 12919 1d96 6C765F61 		.ascii	"lv_anim_start\000"
 12919      6E696D5F 
 12919      73746172 
 12919      7400
 12920              	.LASF117:
 12921 1da4 73746F70 		.ascii	"stops\000"
ARM GAS  C:\Users\haske\AppData\Local\Temp\cc11ZRIl.s 			page 285


 12921      7300
 12922              	.LASF269:
 12923 1daa 6C696E65 		.ascii	"line_space\000"
 12923      5F737061 
 12923      636500
 12924              	.LASF340:
 12925 1db5 6C617965 		.ascii	"layer_blend\000"
 12925      725F626C 
 12925      656E6400 
 12926              	.LASF539:
 12927 1dc1 6C765F61 		.ascii	"lv_anim_set_values\000"
 12927      6E696D5F 
 12927      7365745F 
 12927      76616C75 
 12927      657300
 12928              	.LASF563:
 12929 1dd4 696E6469 		.ascii	"indic_length_calc\000"
 12929      635F6C65 
 12929      6E677468 
 12929      5F63616C 
 12929      6300
 12930              	.LASF615:
 12931 1de6 6C765F64 		.ascii	"lv_draw_mask_radius_init\000"
 12931      7261775F 
 12931      6D61736B 
 12931      5F726164 
 12931      6975735F 
 12932              	.LASF588:
 12933 1dff 6E65775F 		.ascii	"new_value\000"
 12933      76616C75 
 12933      6500
 12934              	.LASF514:
 12935 1e09 6D696E5F 		.ascii	"min_value\000"
 12935      76616C75 
 12935      6500
 12936              	.LASF420:
 12937 1e13 64657374 		.ascii	"destructor_cb\000"
 12937      72756374 
 12937      6F725F63 
 12937      6200
 12938              	.LASF111:
 12939 1e21 6C765F62 		.ascii	"lv_border_side_t\000"
 12939      6F726465 
 12939      725F7369 
 12939      64655F74 
 12939      00
 12940              	.LASF115:
 12941 1e32 66726163 		.ascii	"frac\000"
 12941      00
 12942              	.LASF595:
 12943 1e37 6C765F62 		.ascii	"lv_bar_set_mode\000"
 12943      61725F73 
 12943      65745F6D 
 12943      6F646500 
 12944              	.LASF223:
 12945 1e47 5F6C765F 		.ascii	"_lv_obj_t\000"
 12945      6F626A5F 
ARM GAS  C:\Users\haske\AppData\Local\Temp\cc11ZRIl.s 			page 286


 12945      7400
 12946              	.LASF264:
 12947 1e51 666F6E74 		.ascii	"font\000"
 12947      00
 12948              	.LASF270:
 12949 1e56 6C657474 		.ascii	"letter_space\000"
 12949      65725F73 
 12949      70616365 
 12949      00
 12950              	.LASF128:
 12951 1e63 4C565F53 		.ascii	"LV_STYLE_MAX_HEIGHT\000"
 12951      54594C45 
 12951      5F4D4158 
 12951      5F484549 
 12951      47485400 
 12952              	.LASF55:
 12953 1e77 4C565F4F 		.ascii	"LV_OPA_30\000"
 12953      50415F33 
 12953      3000
 12954              	.LASF513:
 12955 1e81 6375725F 		.ascii	"cur_value\000"
 12955      76616C75 
 12955      6500
 12956              	.LASF577:
 12957 1e8b 616E696D 		.ascii	"anim_start_value_end_x\000"
 12957      5F737461 
 12957      72745F76 
 12957      616C7565 
 12957      5F656E64 
 12958              	.LASF371:
 12959 1ea2 4C565F4F 		.ascii	"LV_OBJ_FLAG_CLICK_FOCUSABLE\000"
 12959      424A5F46 
 12959      4C41475F 
 12959      434C4943 
 12959      4B5F464F 
 12960              	.LASF295:
 12961 1ebe 6C765F64 		.ascii	"lv_draw_arc_dsc_t\000"
 12961      7261775F 
 12961      6172635F 
 12961      6473635F 
 12961      7400
 12962              	.LASF564:
 12963 1ed0 62617365 		.ascii	"base_dir\000"
 12963      5F646972 
 12963      00
 12964              	.LASF303:
 12965 1ed9 6F70615F 		.ascii	"opa_start_on_y\000"
 12965      73746172 
 12965      745F6F6E 
 12965      5F7900
 12966              	.LASF144:
 12967 1ee8 4C565F53 		.ascii	"LV_STYLE_BG_GRAD_COLOR\000"
 12967      54594C45 
 12967      5F42475F 
 12967      47524144 
 12967      5F434F4C 
 12968              	.LASF30:
ARM GAS  C:\Users\haske\AppData\Local\Temp\cc11ZRIl.s 			page 287


 12969 1eff 626F785F 		.ascii	"box_h\000"
 12969      6800
 12970              	.LASF410:
 12971 1f05 6C696E65 		.ascii	"line_dsc\000"
 12971      5F647363 
 12971      00
 12972              	.LASF97:
 12973 1f0e 6C765F61 		.ascii	"lv_anim_start_cb_t\000"
 12973      6E696D5F 
 12973      73746172 
 12973      745F6362 
 12973      5F7400
 12974              	.LASF244:
 12975 1f21 62675F69 		.ascii	"bg_img_recolor\000"
 12975      6D675F72 
 12975      65636F6C 
 12975      6F7200
 12976              	.LASF574:
 12977 1f30 6D61736B 		.ascii	"mask_indic_param\000"
 12977      5F696E64 
 12977      69635F70 
 12977      6172616D 
 12977      00
 12978              	.LASF67:
 12979 1f41 6C765F63 		.ascii	"lv_color16_t\000"
 12979      6F6C6F72 
 12979      31365F74 
 12979      00
 12980              	.LASF29:
 12981 1f4e 626F785F 		.ascii	"box_w\000"
 12981      7700
 12982              	.LASF5:
 12983 1f54 73686F72 		.ascii	"short int\000"
 12983      7420696E 
 12983      7400
 12984              	.LASF37:
 12985 1f5e 62617365 		.ascii	"base_line\000"
 12985      5F6C696E 
 12985      6500
 12986              	.LASF348:
 12987 1f68 6C765F6C 		.ascii	"lv_ll_t\000"
 12987      6C5F7400 
 12988              	.LASF603:
 12989 1f70 6C765F66 		.ascii	"lv_font_montserrat_14\000"
 12989      6F6E745F 
 12989      6D6F6E74 
 12989      73657272 
 12989      61745F31 
 12990              	.LASF383:
 12991 1f86 4C565F4F 		.ascii	"LV_OBJ_FLAG_PRESS_LOCK\000"
 12991      424A5F46 
 12991      4C41475F 
 12991      50524553 
 12991      535F4C4F 
 12992              	.LASF519:
 12993 1f9d 6D6F6465 		.ascii	"mode\000"
 12993      00
ARM GAS  C:\Users\haske\AppData\Local\Temp\cc11ZRIl.s 			page 288


 12994              	.LASF463:
 12995 1fa2 4C565F45 		.ascii	"LV_EVENT_DRAW_POST_END\000"
 12995      56454E54 
 12995      5F445241 
 12995      575F504F 
 12995      53545F45 
 12996              	.LASF464:
 12997 1fb9 4C565F45 		.ascii	"LV_EVENT_DRAW_PART_BEGIN\000"
 12997      56454E54 
 12997      5F445241 
 12997      575F5041 
 12997      52545F42 
 12998              	.LASF593:
 12999 1fd2 6C765F62 		.ascii	"lv_bar_set_value\000"
 12999      61725F73 
 12999      65745F76 
 12999      616C7565 
 12999      00
 13000              	.LASF579:
 13001 1fe3 616E696D 		.ascii	"anim_cur_value_end_x\000"
 13001      5F637572 
 13001      5F76616C 
 13001      75655F65 
 13001      6E645F78 
 13002              	.LASF262:
 13003 1ff8 73686164 		.ascii	"shadow_opa\000"
 13003      6F775F6F 
 13003      706100
 13004              	.LASF181:
 13005 2003 4C565F53 		.ascii	"LV_STYLE_ARC_COLOR\000"
 13005      54594C45 
 13005      5F415243 
 13005      5F434F4C 
 13005      4F5200
 13006              	.LASF56:
 13007 2016 4C565F4F 		.ascii	"LV_OPA_40\000"
 13007      50415F34 
 13007      3000
 13008              	.LASF17:
 13009 2020 696E7431 		.ascii	"int16_t\000"
 13009      365F7400 
 13010              	.LASF317:
 13011 2028 73637265 		.ascii	"screen_transp\000"
 13011      656E5F74 
 13011      72616E73 
 13011      7000
 13012              	.LASF469:
 13013 2036 4C565F45 		.ascii	"LV_EVENT_READY\000"
 13013      56454E54 
 13013      5F524541 
 13013      445900
 13014              	.LASF228:
 13015 2045 636F6F72 		.ascii	"coords\000"
 13015      647300
 13016              	.LASF495:
 13017 204c 6578745F 		.ascii	"ext_click_pad\000"
 13017      636C6963 
ARM GAS  C:\Users\haske\AppData\Local\Temp\cc11ZRIl.s 			page 289


 13017      6B5F7061 
 13017      6400
 13018              	.LASF208:
 13019 205a 5F4C565F 		.ascii	"_LV_STYLE_NUM_BUILT_IN_PROPS\000"
 13019      5354594C 
 13019      455F4E55 
 13019      4D5F4255 
 13019      494C545F 
 13020              	.LASF571:
 13021 2077 62675F6D 		.ascii	"bg_mask_area\000"
 13021      61736B5F 
 13021      61726561 
 13021      00
 13022              	.LASF134:
 13023 2084 4C565F53 		.ascii	"LV_STYLE_PAD_TOP\000"
 13023      54594C45 
 13023      5F504144 
 13023      5F544F50 
 13023      00
 13024              	.LASF622:
 13025 2095 6C765F6F 		.ascii	"lv_obj_event_base\000"
 13025      626A5F65 
 13025      76656E74 
 13025      5F626173 
 13025      6500
 13026              	.LASF367:
 13027 20a7 4C565F50 		.ascii	"LV_PART_CUSTOM_FIRST\000"
 13027      4152545F 
 13027      43555354 
 13027      4F4D5F46 
 13027      49525354 
 13028              	.LASF151:
 13029 20bc 4C565F53 		.ascii	"LV_STYLE_BG_IMG_OPA\000"
 13029      54594C45 
 13029      5F42475F 
 13029      494D475F 
 13029      4F504100 
 13030              	.LASF173:
 13031 20d0 4C565F53 		.ascii	"LV_STYLE_LINE_WIDTH\000"
 13031      54594C45 
 13031      5F4C494E 
 13031      455F5749 
 13031      44544800 
 13032              	.LASF521:
 13033 20e4 4C565F42 		.ascii	"LV_BAR_DRAW_PART_INDICATOR\000"
 13033      41525F44 
 13033      5241575F 
 13033      50415254 
 13033      5F494E44 
 13034              	.LASF57:
 13035 20ff 4C565F4F 		.ascii	"LV_OPA_50\000"
 13035      50415F35 
 13035      3000
 13036              	.LASF573:
 13037 2109 6D61736B 		.ascii	"mask_indic_max_area\000"
 13037      5F696E64 
 13037      69635F6D 
ARM GAS  C:\Users\haske\AppData\Local\Temp\cc11ZRIl.s 			page 290


 13037      61785F61 
 13037      72656100 
 13038              	.LASF523:
 13039 211d 6C765F61 		.ascii	"lv_area_get_width\000"
 13039      7265615F 
 13039      6765745F 
 13039      77696474 
 13039      6800
 13040              	.LASF633:
 13041 212f 433A5C50 		.ascii	"C:\\Projects\\PainDrain\\firmware\\PainDrain\\PainD"
 13041      726F6A65 
 13041      6374735C 
 13041      5061696E 
 13041      44726169 
 13042 215d 7261696E 		.ascii	"rain.cydsn\000"
 13042      2E637964 
 13042      736E00
 13043              	.LASF218:
 13044 2168 70726F70 		.ascii	"prop1\000"
 13044      3100
 13045              	.LASF515:
 13046 216e 6D61785F 		.ascii	"max_value\000"
 13046      76616C75 
 13046      6500
 13047              	.LASF86:
 13048 2178 6163745F 		.ascii	"act_time\000"
 13048      74696D65 
 13048      00
 13049              	.LASF250:
 13050 2181 626F7264 		.ascii	"border_opa\000"
 13050      65725F6F 
 13050      706100
 13051              	.LASF558:
 13052 218c 616E696D 		.ascii	"anim_length\000"
 13052      5F6C656E 
 13052      67746800 
 13053              	.LASF127:
 13054 2198 4C565F53 		.ascii	"LV_STYLE_MIN_HEIGHT\000"
 13054      54594C45 
 13054      5F4D494E 
 13054      5F484549 
 13054      47485400 
 13055              	.LASF453:
 13056 21ac 4C565F45 		.ascii	"LV_EVENT_DEFOCUSED\000"
 13056      56454E54 
 13056      5F444546 
 13056      4F435553 
 13056      454400
 13057              	.LASF541:
 13058 21bf 6C765F61 		.ascii	"lv_anim_set_exec_cb\000"
 13058      6E696D5F 
 13058      7365745F 
 13058      65786563 
 13058      5F636200 
 13059              	.LASF626:
 13060 21d3 6C765F61 		.ascii	"lv_anim_init\000"
 13060      6E696D5F 
ARM GAS  C:\Users\haske\AppData\Local\Temp\cc11ZRIl.s 			page 291


 13060      696E6974 
 13060      00
 13061              	.LASF576:
 13062 21e0 616E696D 		.ascii	"anim_start_value_start_x\000"
 13062      5F737461 
 13062      72745F76 
 13062      616C7565 
 13062      5F737461 
 13063              	.LASF241:
 13064 21f9 62675F67 		.ascii	"bg_grad\000"
 13064      72616400 
 13065              	.LASF504:
 13066 2201 6C765F6F 		.ascii	"lv_obj_t\000"
 13066      626A5F74 
 13066      00
 13067              	.LASF159:
 13068 220a 4C565F53 		.ascii	"LV_STYLE_BORDER_POST\000"
 13068      54594C45 
 13068      5F424F52 
 13068      4445525F 
 13068      504F5354 
 13069              	.LASF406:
 13070 221f 64726177 		.ascii	"draw_ctx\000"
 13070      5F637478 
 13070      00
 13071              	.LASF330:
 13072 2228 64726177 		.ascii	"draw_img\000"
 13072      5F696D67 
 13072      00
 13073              	.LASF116:
 13074 2231 6C765F67 		.ascii	"lv_gradient_stop_t\000"
 13074      72616469 
 13074      656E745F 
 13074      73746F70 
 13074      5F7400
 13075              	.LASF130:
 13076 2244 4C565F53 		.ascii	"LV_STYLE_Y\000"
 13076      54594C45 
 13076      5F5900
 13077              	.LASF176:
 13078 224f 4C565F53 		.ascii	"LV_STYLE_LINE_ROUNDED\000"
 13078      54594C45 
 13078      5F4C494E 
 13078      455F524F 
 13078      554E4445 
 13079              	.LASF58:
 13080 2265 4C565F4F 		.ascii	"LV_OPA_60\000"
 13080      50415F36 
 13080      3000
 13081              	.LASF333:
 13082 226f 64726177 		.ascii	"draw_polygon\000"
 13082      5F706F6C 
 13082      79676F6E 
 13082      00
 13083              	.LASF480:
 13084 227c 4C565F45 		.ascii	"LV_EVENT_STYLE_CHANGED\000"
 13084      56454E54 
ARM GAS  C:\Users\haske\AppData\Local\Temp\cc11ZRIl.s 			page 292


 13084      5F535459 
 13084      4C455F43 
 13084      48414E47 
 13085              	.LASF297:
 13086 2293 6C765F64 		.ascii	"lv_draw_mask_type_t\000"
 13086      7261775F 
 13086      6D61736B 
 13086      5F747970 
 13086      655F7400 
 13087              	.LASF265:
 13088 22a7 73656C5F 		.ascii	"sel_start\000"
 13088      73746172 
 13088      7400
 13089              	.LASF462:
 13090 22b1 4C565F45 		.ascii	"LV_EVENT_DRAW_POST\000"
 13090      56454E54 
 13090      5F445241 
 13090      575F504F 
 13090      535400
 13091              	.LASF20:
 13092 22c4 75696E74 		.ascii	"uint32_t\000"
 13092      33325F74 
 13092      00
 13093              	.LASF366:
 13094 22cd 4C565F50 		.ascii	"LV_PART_CURSOR\000"
 13094      4152545F 
 13094      43555253 
 13094      4F5200
 13095              	.LASF550:
 13096 22dc 62617268 		.ascii	"barh\000"
 13096      00
 13097              	.LASF398:
 13098 22e1 6C765F6F 		.ascii	"lv_obj_flag_t\000"
 13098      626A5F66 
 13098      6C61675F 
 13098      7400
 13099              	.LASF549:
 13100 22ef 62617277 		.ascii	"barw\000"
 13100      00
 13101              	.LASF479:
 13102 22f4 4C565F45 		.ascii	"LV_EVENT_SIZE_CHANGED\000"
 13102      56454E54 
 13102      5F53495A 
 13102      455F4348 
 13102      414E4745 
 13103              	.LASF258:
 13104 230a 73686164 		.ascii	"shadow_width\000"
 13104      6F775F77 
 13104      69647468 
 13104      00
 13105              	.LASF65:
 13106 2317 67726565 		.ascii	"green\000"
 13106      6E00
 13107              	.LASF45:
 13108 231d 6C765F66 		.ascii	"lv_font_t\000"
 13108      6F6E745F 
 13108      7400
ARM GAS  C:\Users\haske\AppData\Local\Temp\cc11ZRIl.s 			page 293


 13109              	.LASF509:
 13110 2327 616E696D 		.ascii	"anim_start\000"
 13110      5F737461 
 13110      727400
 13111              	.LASF612:
 13112 2332 6C765F6F 		.ascii	"lv_obj_get_coords\000"
 13112      626A5F67 
 13112      65745F63 
 13112      6F6F7264 
 13112      7300
 13113              	.LASF481:
 13114 2344 4C565F45 		.ascii	"LV_EVENT_LAYOUT_CHANGED\000"
 13114      56454E54 
 13114      5F4C4159 
 13114      4F55545F 
 13114      4348414E 
 13115              	.LASF557:
 13116 235c 696E6469 		.ascii	"indich\000"
 13116      636800
 13117              	.LASF119:
 13118 2363 64697468 		.ascii	"dither\000"
 13118      657200
 13119              	.LASF59:
 13120 236a 4C565F4F 		.ascii	"LV_OPA_70\000"
 13120      50415F37 
 13120      3000
 13121              	.LASF7:
 13122 2374 73686F72 		.ascii	"short unsigned int\000"
 13122      7420756E 
 13122      7369676E 
 13122      65642069 
 13122      6E7400
 13123              	.LASF556:
 13124 2387 696E6469 		.ascii	"indicw\000"
 13124      637700
 13125              	.LASF415:
 13126 238e 70617274 		.ascii	"part\000"
 13126      00
 13127              	.LASF451:
 13128 2393 4C565F45 		.ascii	"LV_EVENT_KEY\000"
 13128      56454E54 
 13128      5F4B4559 
 13128      00
 13129              	.LASF23:
 13130 23a0 6C765F63 		.ascii	"lv_coord_t\000"
 13130      6F6F7264 
 13130      5F7400
 13131              	.LASF511:
 13132 23ab 616E696D 		.ascii	"anim_state\000"
 13132      5F737461 
 13132      746500
 13133              	.LASF592:
 13134 23b6 6C765F62 		.ascii	"lv_bar_constructor\000"
 13134      61725F63 
 13134      6F6E7374 
 13134      72756374 
 13134      6F7200
ARM GAS  C:\Users\haske\AppData\Local\Temp\cc11ZRIl.s 			page 294


 13135              	.LASF447:
 13136 23c9 4C565F45 		.ascii	"LV_EVENT_SCROLL_BEGIN\000"
 13136      56454E54 
 13136      5F534352 
 13136      4F4C4C5F 
 13136      42454749 
 13137              	.LASF161:
 13138 23df 4C565F53 		.ascii	"LV_STYLE_OUTLINE_COLOR\000"
 13138      54594C45 
 13138      5F4F5554 
 13138      4C494E45 
 13138      5F434F4C 
 13139              	.LASF42:
 13140 23f6 75736572 		.ascii	"user_data\000"
 13140      5F646174 
 13140      6100
 13141              	.LASF441:
 13142 2400 4C565F45 		.ascii	"LV_EVENT_PRESS_LOST\000"
 13142      56454E54 
 13142      5F505245 
 13142      53535F4C 
 13142      4F535400 
 13143              	.LASF92:
 13144 2414 706C6179 		.ascii	"playback_now\000"
 13144      6261636B 
 13144      5F6E6F77 
 13144      00
 13145              	.LASF634:
 13146 2421 5F6C765F 		.ascii	"_lv_event_dsc_t\000"
 13146      6576656E 
 13146      745F6473 
 13146      635F7400 
 13147              	.LASF167:
 13148 2431 4C565F53 		.ascii	"LV_STYLE_SHADOW_SPREAD\000"
 13148      54594C45 
 13148      5F534841 
 13148      444F575F 
 13148      53505245 
 13149              	.LASF365:
 13150 2448 4C565F50 		.ascii	"LV_PART_TICKS\000"
 13150      4152545F 
 13150      5449434B 
 13150      5300
 13151              	.LASF34:
 13152 2456 6765745F 		.ascii	"get_glyph_dsc\000"
 13152      676C7970 
 13152      685F6473 
 13152      6300
 13153              	.LASF8:
 13154 2464 5F5F696E 		.ascii	"__int32_t\000"
 13154      7433325F 
 13154      7400
 13155              	.LASF402:
 13156 246e 73656C65 		.ascii	"selector\000"
 13156      63746F72 
 13156      00
 13157              	.LASF79:
ARM GAS  C:\Users\haske\AppData\Local\Temp\cc11ZRIl.s 			page 295


 13158 2477 64656C65 		.ascii	"deleted_cb\000"
 13158      7465645F 
 13158      636200
 13159              	.LASF112:
 13160 2482 6C765F67 		.ascii	"lv_grad_dir_t\000"
 13160      7261645F 
 13160      6469725F 
 13160      7400
 13161              	.LASF356:
 13162 2490 7265666F 		.ascii	"refocus_policy\000"
 13162      6375735F 
 13162      706F6C69 
 13162      637900
 13163              	.LASF525:
 13164 249f 6C765F6F 		.ascii	"lv_obj_get_style_transform_height\000"
 13164      626A5F67 
 13164      65745F73 
 13164      74796C65 
 13164      5F747261 
 13165              	.LASF617:
 13166 24c1 6C765F64 		.ascii	"lv_draw_mask_free_param\000"
 13166      7261775F 
 13166      6D61736B 
 13166      5F667265 
 13166      655F7061 
 13167              	.LASF103:
 13168 24d9 4C565F42 		.ascii	"LV_BASE_DIR_LTR\000"
 13168      4153455F 
 13168      4449525F 
 13168      4C545200 
 13169              	.LASF60:
 13170 24e9 4C565F4F 		.ascii	"LV_OPA_80\000"
 13170      50415F38 
 13170      3000
 13171              	.LASF552:
 13172 24f3 62675F6C 		.ascii	"bg_left\000"
 13172      65667400 
 13173              	.LASF423:
 13174 24fb 68656967 		.ascii	"height_def\000"
 13174      68745F64 
 13174      656600
 13175              	.LASF305:
 13176 2506 75736564 		.ascii	"used_cnt\000"
 13176      5F636E74 
 13176      00
 13177              	.LASF475:
 13178 250f 4C565F45 		.ascii	"LV_EVENT_SCREEN_UNLOAD_START\000"
 13178      56454E54 
 13178      5F534352 
 13178      45454E5F 
 13178      554E4C4F 
 13179              	.LASF585:
 13180 252c 6C765F62 		.ascii	"lv_bar_anim_ready\000"
 13180      61725F61 
 13180      6E696D5F 
 13180      72656164 
 13180      7900
ARM GAS  C:\Users\haske\AppData\Local\Temp\cc11ZRIl.s 			page 296


 13181              	.LASF267:
 13182 253e 73656C5F 		.ascii	"sel_color\000"
 13182      636F6C6F 
 13182      7200
 13183              	.LASF625:
 13184 2548 6C765F6F 		.ascii	"lv_obj_invalidate\000"
 13184      626A5F69 
 13184      6E76616C 
 13184      69646174 
 13184      6500
 13185              	.LASF506:
 13186 255a 4C565F42 		.ascii	"LV_BAR_MODE_SYMMETRICAL\000"
 13186      41525F4D 
 13186      4F44455F 
 13186      53594D4D 
 13186      45545249 
 13187              	.LASF300:
 13188 2572 5F6C765F 		.ascii	"_lv_draw_mask_common_dsc_t\000"
 13188      64726177 
 13188      5F6D6173 
 13188      6B5F636F 
 13188      6D6D6F6E 
 13189              	.LASF376:
 13190 258d 4C565F4F 		.ascii	"LV_OBJ_FLAG_SCROLL_ONE\000"
 13190      424A5F46 
 13190      4C41475F 
 13190      5343524F 
 13190      4C4C5F4F 
 13191              	.LASF243:
 13192 25a4 62675F69 		.ascii	"bg_img_symbol_font\000"
 13192      6D675F73 
 13192      796D626F 
 13192      6C5F666F 
 13192      6E7400
 13193              	.LASF260:
 13194 25b7 73686164 		.ascii	"shadow_ofs_y\000"
 13194      6F775F6F 
 13194      66735F79 
 13194      00
 13195              	.LASF75:
 13196 25c4 5F6C765F 		.ascii	"_lv_anim_t\000"
 13196      616E696D 
 13196      5F7400
 13197              	.LASF433:
 13198 25cf 70726576 		.ascii	"prev\000"
 13198      00
 13199              	.LASF105:
 13200 25d4 4C565F42 		.ascii	"LV_BASE_DIR_AUTO\000"
 13200      4153455F 
 13200      4449525F 
 13200      4155544F 
 13200      00
 13201              	.LASF345:
 13202 25e5 6E5F7369 		.ascii	"n_size\000"
 13202      7A6500
 13203              	.LASF349:
 13204 25ec 5F6C765F 		.ascii	"_lv_group_t\000"
ARM GAS  C:\Users\haske\AppData\Local\Temp\cc11ZRIl.s 			page 297


 13204      67726F75 
 13204      705F7400 
 13205              	.LASF148:
 13206 25f8 4C565F53 		.ascii	"LV_STYLE_BG_GRAD\000"
 13206      54594C45 
 13206      5F42475F 
 13206      47524144 
 13206      00
 13207              	.LASF446:
 13208 2609 4C565F45 		.ascii	"LV_EVENT_RELEASED\000"
 13208      56454E54 
 13208      5F52454C 
 13208      45415345 
 13208      4400
 13209              	.LASF33:
 13210 261b 69735F70 		.ascii	"is_placeholder\000"
 13210      6C616365 
 13210      686F6C64 
 13210      657200
 13211              	.LASF163:
 13212 262a 4C565F53 		.ascii	"LV_STYLE_OUTLINE_PAD\000"
 13212      54594C45 
 13212      5F4F5554 
 13212      4C494E45 
 13212      5F504144 
 13213              	.LASF61:
 13214 263f 4C565F4F 		.ascii	"LV_OPA_90\000"
 13214      50415F39 
 13214      3000
 13215              	.LASF351:
 13216 2649 6F626A5F 		.ascii	"obj_focus\000"
 13216      666F6375 
 13216      7300
 13217              	.LASF187:
 13218 2653 4C565F53 		.ascii	"LV_STYLE_TEXT_LETTER_SPACE\000"
 13218      54594C45 
 13218      5F544558 
 13218      545F4C45 
 13218      54544552 
 13219              	.LASF501:
 13220 266e 6576656E 		.ascii	"event_dsc_cnt\000"
 13220      745F6473 
 13220      635F636E 
 13220      7400
 13221              		.ident	"GCC: (GNU Tools for ARM Embedded Processors) 5.4.1 20160609 (release) [ARM/embedded-5-bran
