ARM GAS  C:\Users\haske\AppData\Local\Temp\ccPNMSRx.s 			page 1


   1              		.syntax unified
   2              		.cpu cortex-m0plus
   3              		.fpu softvfp
   4              		.eabi_attribute 20, 1
   5              		.eabi_attribute 21, 1
   6              		.eabi_attribute 23, 3
   7              		.eabi_attribute 24, 1
   8              		.eabi_attribute 25, 1
   9              		.eabi_attribute 26, 1
  10              		.eabi_attribute 30, 1
  11              		.eabi_attribute 34, 0
  12              		.eabi_attribute 18, 4
  13              		.thumb
  14              		.syntax unified
  15              		.file	"lv_btn.c"
  16              		.text
  17              	.Ltext0:
  18              		.cfi_sections	.debug_frame
  19              		.section	.text.lv_btn_constructor,"ax",%progbits
  20              		.align	2
  21              		.code	16
  22              		.thumb_func
  23              		.type	lv_btn_constructor, %function
  24              	lv_btn_constructor:
  25              	.LFB165:
  26              		.file 1 "..\\..\\..\\arduinoLCD\\test\\Pain Drain\\libraries\\lvgl\\src\\widgets\\lv_btn.c"
   1:..\..\..\arduinoLCD\test\Pain Drain\libraries\lvgl\src\widgets/lv_btn.c **** /**
   2:..\..\..\arduinoLCD\test\Pain Drain\libraries\lvgl\src\widgets/lv_btn.c ****  * @file lv_btn.c
   3:..\..\..\arduinoLCD\test\Pain Drain\libraries\lvgl\src\widgets/lv_btn.c ****  *
   4:..\..\..\arduinoLCD\test\Pain Drain\libraries\lvgl\src\widgets/lv_btn.c ****  */
   5:..\..\..\arduinoLCD\test\Pain Drain\libraries\lvgl\src\widgets/lv_btn.c **** 
   6:..\..\..\arduinoLCD\test\Pain Drain\libraries\lvgl\src\widgets/lv_btn.c **** /*********************
   7:..\..\..\arduinoLCD\test\Pain Drain\libraries\lvgl\src\widgets/lv_btn.c ****  *      INCLUDES
   8:..\..\..\arduinoLCD\test\Pain Drain\libraries\lvgl\src\widgets/lv_btn.c ****  *********************/
   9:..\..\..\arduinoLCD\test\Pain Drain\libraries\lvgl\src\widgets/lv_btn.c **** 
  10:..\..\..\arduinoLCD\test\Pain Drain\libraries\lvgl\src\widgets/lv_btn.c **** #include "lv_btn.h"
  11:..\..\..\arduinoLCD\test\Pain Drain\libraries\lvgl\src\widgets/lv_btn.c **** #if LV_USE_BTN != 0
  12:..\..\..\arduinoLCD\test\Pain Drain\libraries\lvgl\src\widgets/lv_btn.c **** 
  13:..\..\..\arduinoLCD\test\Pain Drain\libraries\lvgl\src\widgets/lv_btn.c **** #include "../extra/layouts/flex/lv_flex.h"
  14:..\..\..\arduinoLCD\test\Pain Drain\libraries\lvgl\src\widgets/lv_btn.c **** 
  15:..\..\..\arduinoLCD\test\Pain Drain\libraries\lvgl\src\widgets/lv_btn.c **** /*********************
  16:..\..\..\arduinoLCD\test\Pain Drain\libraries\lvgl\src\widgets/lv_btn.c ****  *      DEFINES
  17:..\..\..\arduinoLCD\test\Pain Drain\libraries\lvgl\src\widgets/lv_btn.c ****  *********************/
  18:..\..\..\arduinoLCD\test\Pain Drain\libraries\lvgl\src\widgets/lv_btn.c **** #define MY_CLASS &lv_btn_class
  19:..\..\..\arduinoLCD\test\Pain Drain\libraries\lvgl\src\widgets/lv_btn.c **** 
  20:..\..\..\arduinoLCD\test\Pain Drain\libraries\lvgl\src\widgets/lv_btn.c **** /**********************
  21:..\..\..\arduinoLCD\test\Pain Drain\libraries\lvgl\src\widgets/lv_btn.c ****  *      TYPEDEFS
  22:..\..\..\arduinoLCD\test\Pain Drain\libraries\lvgl\src\widgets/lv_btn.c ****  **********************/
  23:..\..\..\arduinoLCD\test\Pain Drain\libraries\lvgl\src\widgets/lv_btn.c **** 
  24:..\..\..\arduinoLCD\test\Pain Drain\libraries\lvgl\src\widgets/lv_btn.c **** /**********************
  25:..\..\..\arduinoLCD\test\Pain Drain\libraries\lvgl\src\widgets/lv_btn.c ****  *  STATIC PROTOTYPES
  26:..\..\..\arduinoLCD\test\Pain Drain\libraries\lvgl\src\widgets/lv_btn.c ****  **********************/
  27:..\..\..\arduinoLCD\test\Pain Drain\libraries\lvgl\src\widgets/lv_btn.c **** static void lv_btn_constructor(const lv_obj_class_t * class_p, lv_obj_t * obj);
  28:..\..\..\arduinoLCD\test\Pain Drain\libraries\lvgl\src\widgets/lv_btn.c **** 
  29:..\..\..\arduinoLCD\test\Pain Drain\libraries\lvgl\src\widgets/lv_btn.c **** /**********************
  30:..\..\..\arduinoLCD\test\Pain Drain\libraries\lvgl\src\widgets/lv_btn.c ****  *  STATIC VARIABLES
  31:..\..\..\arduinoLCD\test\Pain Drain\libraries\lvgl\src\widgets/lv_btn.c ****  **********************/
ARM GAS  C:\Users\haske\AppData\Local\Temp\ccPNMSRx.s 			page 2


  32:..\..\..\arduinoLCD\test\Pain Drain\libraries\lvgl\src\widgets/lv_btn.c **** const lv_obj_class_t lv_btn_class  = {
  33:..\..\..\arduinoLCD\test\Pain Drain\libraries\lvgl\src\widgets/lv_btn.c ****     .constructor_cb = lv_btn_constructor,
  34:..\..\..\arduinoLCD\test\Pain Drain\libraries\lvgl\src\widgets/lv_btn.c ****     .width_def = LV_SIZE_CONTENT,
  35:..\..\..\arduinoLCD\test\Pain Drain\libraries\lvgl\src\widgets/lv_btn.c ****     .height_def = LV_SIZE_CONTENT,
  36:..\..\..\arduinoLCD\test\Pain Drain\libraries\lvgl\src\widgets/lv_btn.c ****     .group_def = LV_OBJ_CLASS_GROUP_DEF_TRUE,
  37:..\..\..\arduinoLCD\test\Pain Drain\libraries\lvgl\src\widgets/lv_btn.c ****     .instance_size = sizeof(lv_btn_t),
  38:..\..\..\arduinoLCD\test\Pain Drain\libraries\lvgl\src\widgets/lv_btn.c ****     .base_class = &lv_obj_class
  39:..\..\..\arduinoLCD\test\Pain Drain\libraries\lvgl\src\widgets/lv_btn.c **** };
  40:..\..\..\arduinoLCD\test\Pain Drain\libraries\lvgl\src\widgets/lv_btn.c **** 
  41:..\..\..\arduinoLCD\test\Pain Drain\libraries\lvgl\src\widgets/lv_btn.c **** /**********************
  42:..\..\..\arduinoLCD\test\Pain Drain\libraries\lvgl\src\widgets/lv_btn.c ****  *      MACROS
  43:..\..\..\arduinoLCD\test\Pain Drain\libraries\lvgl\src\widgets/lv_btn.c ****  **********************/
  44:..\..\..\arduinoLCD\test\Pain Drain\libraries\lvgl\src\widgets/lv_btn.c **** 
  45:..\..\..\arduinoLCD\test\Pain Drain\libraries\lvgl\src\widgets/lv_btn.c **** /**********************
  46:..\..\..\arduinoLCD\test\Pain Drain\libraries\lvgl\src\widgets/lv_btn.c ****  *   GLOBAL FUNCTIONS
  47:..\..\..\arduinoLCD\test\Pain Drain\libraries\lvgl\src\widgets/lv_btn.c ****  **********************/
  48:..\..\..\arduinoLCD\test\Pain Drain\libraries\lvgl\src\widgets/lv_btn.c **** 
  49:..\..\..\arduinoLCD\test\Pain Drain\libraries\lvgl\src\widgets/lv_btn.c **** lv_obj_t * lv_btn_create(lv_obj_t * parent)
  50:..\..\..\arduinoLCD\test\Pain Drain\libraries\lvgl\src\widgets/lv_btn.c **** {
  51:..\..\..\arduinoLCD\test\Pain Drain\libraries\lvgl\src\widgets/lv_btn.c ****     LV_LOG_INFO("begin");
  52:..\..\..\arduinoLCD\test\Pain Drain\libraries\lvgl\src\widgets/lv_btn.c ****     lv_obj_t * obj = lv_obj_class_create_obj(MY_CLASS, parent);
  53:..\..\..\arduinoLCD\test\Pain Drain\libraries\lvgl\src\widgets/lv_btn.c ****     lv_obj_class_init_obj(obj);
  54:..\..\..\arduinoLCD\test\Pain Drain\libraries\lvgl\src\widgets/lv_btn.c ****     return obj;
  55:..\..\..\arduinoLCD\test\Pain Drain\libraries\lvgl\src\widgets/lv_btn.c **** }
  56:..\..\..\arduinoLCD\test\Pain Drain\libraries\lvgl\src\widgets/lv_btn.c **** 
  57:..\..\..\arduinoLCD\test\Pain Drain\libraries\lvgl\src\widgets/lv_btn.c **** /**********************
  58:..\..\..\arduinoLCD\test\Pain Drain\libraries\lvgl\src\widgets/lv_btn.c ****  *   STATIC FUNCTIONS
  59:..\..\..\arduinoLCD\test\Pain Drain\libraries\lvgl\src\widgets/lv_btn.c ****  **********************/
  60:..\..\..\arduinoLCD\test\Pain Drain\libraries\lvgl\src\widgets/lv_btn.c **** 
  61:..\..\..\arduinoLCD\test\Pain Drain\libraries\lvgl\src\widgets/lv_btn.c **** static void lv_btn_constructor(const lv_obj_class_t * class_p, lv_obj_t * obj)
  62:..\..\..\arduinoLCD\test\Pain Drain\libraries\lvgl\src\widgets/lv_btn.c **** {
  27              		.loc 1 62 0
  28              		.cfi_startproc
  29              		@ args = 0, pretend = 0, frame = 0
  30              		@ frame_needed = 0, uses_anonymous_args = 0
  31              	.LVL0:
  32 0000 10B5     		push	{r4, lr}
  33              		.cfi_def_cfa_offset 8
  34              		.cfi_offset 4, -8
  35              		.cfi_offset 14, -4
  36 0002 0C00     		movs	r4, r1
  63:..\..\..\arduinoLCD\test\Pain Drain\libraries\lvgl\src\widgets/lv_btn.c ****     LV_UNUSED(class_p);
  64:..\..\..\arduinoLCD\test\Pain Drain\libraries\lvgl\src\widgets/lv_btn.c ****     LV_TRACE_OBJ_CREATE("begin");
  65:..\..\..\arduinoLCD\test\Pain Drain\libraries\lvgl\src\widgets/lv_btn.c **** 
  66:..\..\..\arduinoLCD\test\Pain Drain\libraries\lvgl\src\widgets/lv_btn.c ****     lv_obj_clear_flag(obj, LV_OBJ_FLAG_SCROLLABLE);
  37              		.loc 1 66 0
  38 0004 1021     		movs	r1, #16
  39              	.LVL1:
  40 0006 2000     		movs	r0, r4
  41              	.LVL2:
  42 0008 FFF7FEFF 		bl	lv_obj_clear_flag
  43              	.LVL3:
  67:..\..\..\arduinoLCD\test\Pain Drain\libraries\lvgl\src\widgets/lv_btn.c ****     lv_obj_add_flag(obj, LV_OBJ_FLAG_SCROLL_ON_FOCUS);
  44              		.loc 1 67 0
  45 000c 8021     		movs	r1, #128
  46 000e C900     		lsls	r1, r1, #3
  47 0010 2000     		movs	r0, r4
ARM GAS  C:\Users\haske\AppData\Local\Temp\ccPNMSRx.s 			page 3


  48 0012 FFF7FEFF 		bl	lv_obj_add_flag
  49              	.LVL4:
  68:..\..\..\arduinoLCD\test\Pain Drain\libraries\lvgl\src\widgets/lv_btn.c **** 
  69:..\..\..\arduinoLCD\test\Pain Drain\libraries\lvgl\src\widgets/lv_btn.c ****     LV_TRACE_OBJ_CREATE("finished");
  70:..\..\..\arduinoLCD\test\Pain Drain\libraries\lvgl\src\widgets/lv_btn.c **** }
  50              		.loc 1 70 0
  51              		@ sp needed
  52              	.LVL5:
  53 0016 10BD     		pop	{r4, pc}
  54              		.cfi_endproc
  55              	.LFE165:
  56              		.size	lv_btn_constructor, .-lv_btn_constructor
  57              		.section	.text.lv_btn_create,"ax",%progbits
  58              		.align	2
  59              		.global	lv_btn_create
  60              		.code	16
  61              		.thumb_func
  62              		.type	lv_btn_create, %function
  63              	lv_btn_create:
  64              	.LFB164:
  50:..\..\..\arduinoLCD\test\Pain Drain\libraries\lvgl\src\widgets/lv_btn.c ****     LV_LOG_INFO("begin");
  65              		.loc 1 50 0
  66              		.cfi_startproc
  67              		@ args = 0, pretend = 0, frame = 0
  68              		@ frame_needed = 0, uses_anonymous_args = 0
  69              	.LVL6:
  70 0000 10B5     		push	{r4, lr}
  71              		.cfi_def_cfa_offset 8
  72              		.cfi_offset 4, -8
  73              		.cfi_offset 14, -4
  74 0002 0100     		movs	r1, r0
  52:..\..\..\arduinoLCD\test\Pain Drain\libraries\lvgl\src\widgets/lv_btn.c ****     lv_obj_class_init_obj(obj);
  75              		.loc 1 52 0
  76 0004 0348     		ldr	r0, .L3
  77              	.LVL7:
  78 0006 FFF7FEFF 		bl	lv_obj_class_create_obj
  79              	.LVL8:
  80 000a 0400     		movs	r4, r0
  81              	.LVL9:
  53:..\..\..\arduinoLCD\test\Pain Drain\libraries\lvgl\src\widgets/lv_btn.c ****     return obj;
  82              		.loc 1 53 0
  83 000c FFF7FEFF 		bl	lv_obj_class_init_obj
  84              	.LVL10:
  55:..\..\..\arduinoLCD\test\Pain Drain\libraries\lvgl\src\widgets/lv_btn.c **** 
  85              		.loc 1 55 0
  86 0010 2000     		movs	r0, r4
  87              		@ sp needed
  88              	.LVL11:
  89 0012 10BD     		pop	{r4, pc}
  90              	.L4:
  91              		.align	2
  92              	.L3:
  93 0014 00000000 		.word	.LANCHOR0
  94              		.cfi_endproc
  95              	.LFE164:
  96              		.size	lv_btn_create, .-lv_btn_create
  97              		.global	lv_btn_class
ARM GAS  C:\Users\haske\AppData\Local\Temp\ccPNMSRx.s 			page 4


  98              		.section	.rodata
  99              		.align	2
 100              		.set	.LANCHOR0,. + 0
 101              		.type	lv_btn_class, %object
 102              		.size	lv_btn_class, 28
 103              	lv_btn_class:
 104 0000 00000000 		.word	lv_obj_class
 105 0004 00000000 		.word	lv_btn_constructor
 106 0008 00000000 		.space	12
 106      00000000 
 106      00000000 
 107 0014 D127     		.short	10193
 108 0016 D127     		.short	10193
 109 0018 44       		.byte	68
 110 0019 02       		.byte	2
 111 001a 00       		.byte	0
 112 001b 00       		.space	1
 113              		.text
 114              	.Letext0:
 115              		.file 2 "c:\\program files (x86)\\cypress\\psoc creator\\4.4\\psoc creator\\import\\gnu\\arm\\5.4.
 116              		.file 3 "c:\\program files (x86)\\cypress\\psoc creator\\4.4\\psoc creator\\import\\gnu\\arm\\5.4.
 117              		.file 4 "c:\\projects\\paindrain\\arduinolcd\\test\\pain drain\\libraries\\lvgl\\src\\misc\\lv_are
 118              		.file 5 "c:\\projects\\paindrain\\arduinolcd\\test\\pain drain\\libraries\\lvgl\\src\\font\\lv_fon
 119              		.file 6 "c:\\projects\\paindrain\\arduinolcd\\test\\pain drain\\libraries\\lvgl\\src\\misc\\lv_col
 120              		.file 7 "c:\\projects\\paindrain\\arduinolcd\\test\\pain drain\\libraries\\lvgl\\src\\misc\\lv_sty
 121              		.file 8 "..\\..\\..\\arduinoLCD\\test\\Pain Drain\\libraries\\lvgl\\src\\widgets\\../core/lv_obj.h
 122              		.file 9 "c:\\projects\\paindrain\\arduinolcd\\test\\pain drain\\libraries\\lvgl\\src\\misc\\lv_ll.
 123              		.file 10 "..\\..\\..\\arduinoLCD\\test\\Pain Drain\\libraries\\lvgl\\src\\widgets\\../core/lv_grou
 124              		.file 11 "..\\..\\..\\arduinoLCD\\test\\Pain Drain\\libraries\\lvgl\\src\\widgets\\../core/lv_obj_
 125              		.file 12 "..\\..\\..\\arduinoLCD\\test\\Pain Drain\\libraries\\lvgl\\src\\widgets\\../core/lv_obj_
 126              		.file 13 "..\\..\\..\\arduinoLCD\\test\\Pain Drain\\libraries\\lvgl\\src\\widgets\\../core/lv_obj_
 127              		.file 14 "..\\..\\..\\arduinoLCD\\test\\Pain Drain\\libraries\\lvgl\\src\\widgets\\../core/lv_even
 128              		.file 15 "..\\..\\..\\arduinoLCD\\test\\Pain Drain\\libraries\\lvgl\\src\\widgets\\../extra/layout