ARM GAS  C:\Users\haske\AppData\Local\Temp\cc11ZRIl.s 			page 1


   1              		.syntax unified
   2              		.cpu cortex-m0plus
   3              		.fpu softvfp
   4              		.eabi_attribute 20, 1
   5              		.eabi_attribute 21, 1
   6              		.eabi_attribute 23, 3
   7              		.eabi_attribute 24, 1
   8              		.eabi_attribute 25, 1
   9              		.eabi_attribute 26, 1
  10              		.eabi_attribute 30, 1
  11              		.eabi_attribute 34, 0
  12              		.eabi_attribute 18, 4
  13              		.thumb
  14              		.syntax unified
  15              		.file	"lv_bar.c"
  16              		.text
  17              	.Ltext0:
  18              		.cfi_sections	.debug_frame
  19              		.section	.text.lv_area_get_width,"ax",%progbits
  20              		.align	2
  21              		.code	16
  22              		.thumb_func
  23              		.type	lv_area_get_width, %function
  24              	lv_area_get_width:
  25              	.LFB1:
  26              		.file 1 "c:\\projects\\paindrain\\arduinolcd\\test\\pain drain\\libraries\\lvgl\\src\\misc\\lv_are
   1:c:\projects\paindrain\arduinolcd\test\pain drain\libraries\lvgl\src\misc\lv_area.h **** /**
   2:c:\projects\paindrain\arduinolcd\test\pain drain\libraries\lvgl\src\misc\lv_area.h ****  * @file lv_area.h
   3:c:\projects\paindrain\arduinolcd\test\pain drain\libraries\lvgl\src\misc\lv_area.h ****  *
   4:c:\projects\paindrain\arduinolcd\test\pain drain\libraries\lvgl\src\misc\lv_area.h ****  */
   5:c:\projects\paindrain\arduinolcd\test\pain drain\libraries\lvgl\src\misc\lv_area.h **** 
   6:c:\projects\paindrain\arduinolcd\test\pain drain\libraries\lvgl\src\misc\lv_area.h **** #ifndef LV_AREA_H
   7:c:\projects\paindrain\arduinolcd\test\pain drain\libraries\lvgl\src\misc\lv_area.h **** #define LV_AREA_H
   8:c:\projects\paindrain\arduinolcd\test\pain drain\libraries\lvgl\src\misc\lv_area.h **** 
   9:c:\projects\paindrain\arduinolcd\test\pain drain\libraries\lvgl\src\misc\lv_area.h **** #ifdef __cplusplus
  10:c:\projects\paindrain\arduinolcd\test\pain drain\libraries\lvgl\src\misc\lv_area.h **** extern "C" {
  11:c:\projects\paindrain\arduinolcd\test\pain drain\libraries\lvgl\src\misc\lv_area.h **** #endif
  12:c:\projects\paindrain\arduinolcd\test\pain drain\libraries\lvgl\src\misc\lv_area.h **** 
  13:c:\projects\paindrain\arduinolcd\test\pain drain\libraries\lvgl\src\misc\lv_area.h **** /*********************
  14:c:\projects\paindrain\arduinolcd\test\pain drain\libraries\lvgl\src\misc\lv_area.h ****  *      INCLUDES
  15:c:\projects\paindrain\arduinolcd\test\pain drain\libraries\lvgl\src\misc\lv_area.h ****  *********************/
  16:c:\projects\paindrain\arduinolcd\test\pain drain\libraries\lvgl\src\misc\lv_area.h **** #include "../lv_conf_internal.h"
  17:c:\projects\paindrain\arduinolcd\test\pain drain\libraries\lvgl\src\misc\lv_area.h **** #include <stdbool.h>
  18:c:\projects\paindrain\arduinolcd\test\pain drain\libraries\lvgl\src\misc\lv_area.h **** #include <stdint.h>
  19:c:\projects\paindrain\arduinolcd\test\pain drain\libraries\lvgl\src\misc\lv_area.h **** 
  20:c:\projects\paindrain\arduinolcd\test\pain drain\libraries\lvgl\src\misc\lv_area.h **** /*********************
  21:c:\projects\paindrain\arduinolcd\test\pain drain\libraries\lvgl\src\misc\lv_area.h ****  *      DEFINES
  22:c:\projects\paindrain\arduinolcd\test\pain drain\libraries\lvgl\src\misc\lv_area.h ****  *********************/
  23:c:\projects\paindrain\arduinolcd\test\pain drain\libraries\lvgl\src\misc\lv_area.h **** 
  24:c:\projects\paindrain\arduinolcd\test\pain drain\libraries\lvgl\src\misc\lv_area.h **** #if LV_USE_LARGE_COORD
  25:c:\projects\paindrain\arduinolcd\test\pain drain\libraries\lvgl\src\misc\lv_area.h **** typedef int32_t lv_coord_t;
  26:c:\projects\paindrain\arduinolcd\test\pain drain\libraries\lvgl\src\misc\lv_area.h **** #else
  27:c:\projects\paindrain\arduinolcd\test\pain drain\libraries\lvgl\src\misc\lv_area.h **** typedef int16_t lv_coord_t;
  28:c:\projects\paindrain\arduinolcd\test\pain drain\libraries\lvgl\src\misc\lv_area.h **** #endif
  29:c:\projects\paindrain\arduinolcd\test\pain drain\libraries\lvgl\src\misc\lv_area.h **** 
  30:c:\projects\paindrain\arduinolcd\test\pain drain\libraries\lvgl\src\misc\lv_area.h **** /**********************
  31:c:\projects\paindrain\arduinolcd\test\pain drain\libraries\lvgl\src\misc\lv_area.h ****  *      TYPEDEFS
ARM GAS  C:\Users\haske\AppData\Local\Temp\cc11ZRIl.s 			page 2


  32:c:\projects\paindrain\arduinolcd\test\pain drain\libraries\lvgl\src\misc\lv_area.h ****  **********************/
  33:c:\projects\paindrain\arduinolcd\test\pain drain\libraries\lvgl\src\misc\lv_area.h **** 
  34:c:\projects\paindrain\arduinolcd\test\pain drain\libraries\lvgl\src\misc\lv_area.h **** /**
  35:c:\projects\paindrain\arduinolcd\test\pain drain\libraries\lvgl\src\misc\lv_area.h ****  * Represents a point on the screen.
  36:c:\projects\paindrain\arduinolcd\test\pain drain\libraries\lvgl\src\misc\lv_area.h ****  */
  37:c:\projects\paindrain\arduinolcd\test\pain drain\libraries\lvgl\src\misc\lv_area.h **** typedef struct {
  38:c:\projects\paindrain\arduinolcd\test\pain drain\libraries\lvgl\src\misc\lv_area.h ****     lv_coord_t x;
  39:c:\projects\paindrain\arduinolcd\test\pain drain\libraries\lvgl\src\misc\lv_area.h ****     lv_coord_t y;
  40:c:\projects\paindrain\arduinolcd\test\pain drain\libraries\lvgl\src\misc\lv_area.h **** } lv_point_t;
  41:c:\projects\paindrain\arduinolcd\test\pain drain\libraries\lvgl\src\misc\lv_area.h **** 
  42:c:\projects\paindrain\arduinolcd\test\pain drain\libraries\lvgl\src\misc\lv_area.h **** /** Represents an area of the screen.*/
  43:c:\projects\paindrain\arduinolcd\test\pain drain\libraries\lvgl\src\misc\lv_area.h **** typedef struct {
  44:c:\projects\paindrain\arduinolcd\test\pain drain\libraries\lvgl\src\misc\lv_area.h ****     lv_coord_t x1;
  45:c:\projects\paindrain\arduinolcd\test\pain drain\libraries\lvgl\src\misc\lv_area.h ****     lv_coord_t y1;
  46:c:\projects\paindrain\arduinolcd\test\pain drain\libraries\lvgl\src\misc\lv_area.h ****     lv_coord_t x2;
  47:c:\projects\paindrain\arduinolcd\test\pain drain\libraries\lvgl\src\misc\lv_area.h ****     lv_coord_t y2;
  48:c:\projects\paindrain\arduinolcd\test\pain drain\libraries\lvgl\src\misc\lv_area.h **** } lv_area_t;
  49:c:\projects\paindrain\arduinolcd\test\pain drain\libraries\lvgl\src\misc\lv_area.h **** 
  50:c:\projects\paindrain\arduinolcd\test\pain drain\libraries\lvgl\src\misc\lv_area.h **** /** Alignments*/
  51:c:\projects\paindrain\arduinolcd\test\pain drain\libraries\lvgl\src\misc\lv_area.h **** enum {
  52:c:\projects\paindrain\arduinolcd\test\pain drain\libraries\lvgl\src\misc\lv_area.h ****     LV_ALIGN_DEFAULT = 0,
  53:c:\projects\paindrain\arduinolcd\test\pain drain\libraries\lvgl\src\misc\lv_area.h ****     LV_ALIGN_TOP_LEFT,
  54:c:\projects\paindrain\arduinolcd\test\pain drain\libraries\lvgl\src\misc\lv_area.h ****     LV_ALIGN_TOP_MID,
  55:c:\projects\paindrain\arduinolcd\test\pain drain\libraries\lvgl\src\misc\lv_area.h ****     LV_ALIGN_TOP_RIGHT,
  56:c:\projects\paindrain\arduinolcd\test\pain drain\libraries\lvgl\src\misc\lv_area.h ****     LV_ALIGN_BOTTOM_LEFT,
  57:c:\projects\paindrain\arduinolcd\test\pain drain\libraries\lvgl\src\misc\lv_area.h ****     LV_ALIGN_BOTTOM_MID,
  58:c:\projects\paindrain\arduinolcd\test\pain drain\libraries\lvgl\src\misc\lv_area.h ****     LV_ALIGN_BOTTOM_RIGHT,
  59:c:\projects\paindrain\arduinolcd\test\pain drain\libraries\lvgl\src\misc\lv_area.h ****     LV_ALIGN_LEFT_MID,
  60:c:\projects\paindrain\arduinolcd\test\pain drain\libraries\lvgl\src\misc\lv_area.h ****     LV_ALIGN_RIGHT_MID,
  61:c:\projects\paindrain\arduinolcd\test\pain drain\libraries\lvgl\src\misc\lv_area.h ****     LV_ALIGN_CENTER,
  62:c:\projects\paindrain\arduinolcd\test\pain drain\libraries\lvgl\src\misc\lv_area.h **** 
  63:c:\projects\paindrain\arduinolcd\test\pain drain\libraries\lvgl\src\misc\lv_area.h ****     LV_ALIGN_OUT_TOP_LEFT,
  64:c:\projects\paindrain\arduinolcd\test\pain drain\libraries\lvgl\src\misc\lv_area.h ****     LV_ALIGN_OUT_TOP_MID,
  65:c:\projects\paindrain\arduinolcd\test\pain drain\libraries\lvgl\src\misc\lv_area.h ****     LV_ALIGN_OUT_TOP_RIGHT,
  66:c:\projects\paindrain\arduinolcd\test\pain drain\libraries\lvgl\src\misc\lv_area.h ****     LV_ALIGN_OUT_BOTTOM_LEFT,
  67:c:\projects\paindrain\arduinolcd\test\pain drain\libraries\lvgl\src\misc\lv_area.h ****     LV_ALIGN_OUT_BOTTOM_MID,
  68:c:\projects\paindrain\arduinolcd\test\pain drain\libraries\lvgl\src\misc\lv_area.h ****     LV_ALIGN_OUT_BOTTOM_RIGHT,
  69:c:\projects\paindrain\arduinolcd\test\pain drain\libraries\lvgl\src\misc\lv_area.h ****     LV_ALIGN_OUT_LEFT_TOP,
  70:c:\projects\paindrain\arduinolcd\test\pain drain\libraries\lvgl\src\misc\lv_area.h ****     LV_ALIGN_OUT_LEFT_MID,
  71:c:\projects\paindrain\arduinolcd\test\pain drain\libraries\lvgl\src\misc\lv_area.h ****     LV_ALIGN_OUT_LEFT_BOTTOM,
  72:c:\projects\paindrain\arduinolcd\test\pain drain\libraries\lvgl\src\misc\lv_area.h ****     LV_ALIGN_OUT_RIGHT_TOP,
  73:c:\projects\paindrain\arduinolcd\test\pain drain\libraries\lvgl\src\misc\lv_area.h ****     LV_ALIGN_OUT_RIGHT_MID,
  74:c:\projects\paindrain\arduinolcd\test\pain drain\libraries\lvgl\src\misc\lv_area.h ****     LV_ALIGN_OUT_RIGHT_BOTTOM,
  75:c:\projects\paindrain\arduinolcd\test\pain drain\libraries\lvgl\src\misc\lv_area.h **** };
  76:c:\projects\paindrain\arduinolcd\test\pain drain\libraries\lvgl\src\misc\lv_area.h **** typedef uint8_t lv_align_t;
  77:c:\projects\paindrain\arduinolcd\test\pain drain\libraries\lvgl\src\misc\lv_area.h **** 
  78:c:\projects\paindrain\arduinolcd\test\pain drain\libraries\lvgl\src\misc\lv_area.h **** enum {
  79:c:\projects\paindrain\arduinolcd\test\pain drain\libraries\lvgl\src\misc\lv_area.h ****     LV_DIR_NONE     = 0x00,
  80:c:\projects\paindrain\arduinolcd\test\pain drain\libraries\lvgl\src\misc\lv_area.h ****     LV_DIR_LEFT     = (1 << 0),
  81:c:\projects\paindrain\arduinolcd\test\pain drain\libraries\lvgl\src\misc\lv_area.h ****     LV_DIR_RIGHT    = (1 << 1),
  82:c:\projects\paindrain\arduinolcd\test\pain drain\libraries\lvgl\src\misc\lv_area.h ****     LV_DIR_TOP      = (1 << 2),
  83:c:\projects\paindrain\arduinolcd\test\pain drain\libraries\lvgl\src\misc\lv_area.h ****     LV_DIR_BOTTOM   = (1 << 3),
  84:c:\projects\paindrain\arduinolcd\test\pain drain\libraries\lvgl\src\misc\lv_area.h ****     LV_DIR_HOR      = LV_DIR_LEFT | LV_DIR_RIGHT,
  85:c:\projects\paindrain\arduinolcd\test\pain drain\libraries\lvgl\src\misc\lv_area.h ****     LV_DIR_VER      = LV_DIR_TOP | LV_DIR_BOTTOM,
  86:c:\projects\paindrain\arduinolcd\test\pain drain\libraries\lvgl\src\misc\lv_area.h ****     LV_DIR_ALL      = LV_DIR_HOR | LV_DIR_VER,
  87:c:\projects\paindrain\arduinolcd\test\pain drain\libraries\lvgl\src\misc\lv_area.h **** };
  88:c:\projects\paindrain\arduinolcd\test\pain drain\libraries\lvgl\src\misc\lv_area.h **** 
ARM GAS  C:\Users\haske\AppData\Local\Temp\cc11ZRIl.s 			page 3


  89:c:\projects\paindrain\arduinolcd\test\pain drain\libraries\lvgl\src\misc\lv_area.h **** typedef uint8_t lv_dir_t;
  90:c:\projects\paindrain\arduinolcd\test\pain drain\libraries\lvgl\src\misc\lv_area.h **** 
  91:c:\projects\paindrain\arduinolcd\test\pain drain\libraries\lvgl\src\misc\lv_area.h **** /**********************
  92:c:\projects\paindrain\arduinolcd\test\pain drain\libraries\lvgl\src\misc\lv_area.h ****  * GLOBAL PROTOTYPES
  93:c:\projects\paindrain\arduinolcd\test\pain drain\libraries\lvgl\src\misc\lv_area.h ****  **********************/
  94:c:\projects\paindrain\arduinolcd\test\pain drain\libraries\lvgl\src\misc\lv_area.h **** 
  95:c:\projects\paindrain\arduinolcd\test\pain drain\libraries\lvgl\src\misc\lv_area.h **** /**
  96:c:\projects\paindrain\arduinolcd\test\pain drain\libraries\lvgl\src\misc\lv_area.h ****  * Initialize an area
  97:c:\projects\paindrain\arduinolcd\test\pain drain\libraries\lvgl\src\misc\lv_area.h ****  * @param area_p pointer to an area
  98:c:\projects\paindrain\arduinolcd\test\pain drain\libraries\lvgl\src\misc\lv_area.h ****  * @param x1 left coordinate of the area
  99:c:\projects\paindrain\arduinolcd\test\pain drain\libraries\lvgl\src\misc\lv_area.h ****  * @param y1 top coordinate of the area
 100:c:\projects\paindrain\arduinolcd\test\pain drain\libraries\lvgl\src\misc\lv_area.h ****  * @param x2 right coordinate of the area
 101:c:\projects\paindrain\arduinolcd\test\pain drain\libraries\lvgl\src\misc\lv_area.h ****  * @param y2 bottom coordinate of the area
 102:c:\projects\paindrain\arduinolcd\test\pain drain\libraries\lvgl\src\misc\lv_area.h ****  */
 103:c:\projects\paindrain\arduinolcd\test\pain drain\libraries\lvgl\src\misc\lv_area.h **** void lv_area_set(lv_area_t * area_p, lv_coord_t x1, lv_coord_t y1, lv_coord_t x2, lv_coord_t y2);
 104:c:\projects\paindrain\arduinolcd\test\pain drain\libraries\lvgl\src\misc\lv_area.h **** 
 105:c:\projects\paindrain\arduinolcd\test\pain drain\libraries\lvgl\src\misc\lv_area.h **** /**
 106:c:\projects\paindrain\arduinolcd\test\pain drain\libraries\lvgl\src\misc\lv_area.h ****  * Copy an area
 107:c:\projects\paindrain\arduinolcd\test\pain drain\libraries\lvgl\src\misc\lv_area.h ****  * @param dest pointer to the destination area
 108:c:\projects\paindrain\arduinolcd\test\pain drain\libraries\lvgl\src\misc\lv_area.h ****  * @param src pointer to the source area
 109:c:\projects\paindrain\arduinolcd\test\pain drain\libraries\lvgl\src\misc\lv_area.h ****  */
 110:c:\projects\paindrain\arduinolcd\test\pain drain\libraries\lvgl\src\misc\lv_area.h **** inline static void lv_area_copy(lv_area_t * dest, const lv_area_t * src)
 111:c:\projects\paindrain\arduinolcd\test\pain drain\libraries\lvgl\src\misc\lv_area.h **** {
 112:c:\projects\paindrain\arduinolcd\test\pain drain\libraries\lvgl\src\misc\lv_area.h ****     dest->x1 = src->x1;
 113:c:\projects\paindrain\arduinolcd\test\pain drain\libraries\lvgl\src\misc\lv_area.h ****     dest->y1 = src->y1;
 114:c:\projects\paindrain\arduinolcd\test\pain drain\libraries\lvgl\src\misc\lv_area.h ****     dest->x2 = src->x2;
 115:c:\projects\paindrain\arduinolcd\test\pain drain\libraries\lvgl\src\misc\lv_area.h ****     dest->y2 = src->y2;
 116:c:\projects\paindrain\arduinolcd\test\pain drain\libraries\lvgl\src\misc\lv_area.h **** }
 117:c:\projects\paindrain\arduinolcd\test\pain drain\libraries\lvgl\src\misc\lv_area.h **** 
 118:c:\projects\paindrain\arduinolcd\test\pain drain\libraries\lvgl\src\misc\lv_area.h **** /**
 119:c:\projects\paindrain\arduinolcd\test\pain drain\libraries\lvgl\src\misc\lv_area.h ****  * Get the width of an area
 120:c:\projects\paindrain\arduinolcd\test\pain drain\libraries\lvgl\src\misc\lv_area.h ****  * @param area_p pointer to an area
 121:c:\projects\paindrain\arduinolcd\test\pain drain\libraries\lvgl\src\misc\lv_area.h ****  * @return the width of the area (if x1 == x2 -> width = 1)
 122:c:\projects\paindrain\arduinolcd\test\pain drain\libraries\lvgl\src\misc\lv_area.h ****  */
 123:c:\projects\paindrain\arduinolcd\test\pain drain\libraries\lvgl\src\misc\lv_area.h **** static inline lv_coord_t lv_area_get_width(const lv_area_t * area_p)
 124:c:\projects\paindrain\arduinolcd\test\pain drain\libraries\lvgl\src\misc\lv_area.h **** {
  27              		.loc 1 124 0
  28              		.cfi_startproc
  29              		@ args = 0, pretend = 0, frame = 0
  30              		@ frame_needed = 0, uses_anonymous_args = 0
  31              		@ link register save eliminated.
  32              	.LVL0:
 125:c:\projects\paindrain\arduinolcd\test\pain drain\libraries\lvgl\src\misc\lv_area.h ****     return (lv_coord_t)(area_p->x2 - area_p->x1 + 1);
  33              		.loc 1 125 0
  34 0000 0422     		movs	r2, #4
  35 0002 835E     		ldrsh	r3, [r0, r2]
  36 0004 0022     		movs	r2, #0
  37 0006 805E     		ldrsh	r0, [r0, r2]
  38              	.LVL1:
  39 0008 181A     		subs	r0, r3, r0
  40 000a 0130     		adds	r0, r0, #1
  41 000c 00B2     		sxth	r0, r0
 126:c:\projects\paindrain\arduinolcd\test\pain drain\libraries\lvgl\src\misc\lv_area.h **** }
  42              		.loc 1 126 0
  43              		@ sp needed
  44 000e 7047     		bx	lr
  45              		.cfi_endproc
ARM GAS  C:\Users\haske\AppData\Local\Temp\cc11ZRIl.s 			page 4


  46              	.LFE1:
  47              		.size	lv_area_get_width, .-lv_area_get_width
  48              		.section	.text.lv_area_get_height,"ax",%progbits
  49              		.align	2
  50              		.code	16
  51              		.thumb_func
  52              		.type	lv_area_get_height, %function
  53              	lv_area_get_height:
  54              	.LFB2:
 127:c:\projects\paindrain\arduinolcd\test\pain drain\libraries\lvgl\src\misc\lv_area.h **** 
 128:c:\projects\paindrain\arduinolcd\test\pain drain\libraries\lvgl\src\misc\lv_area.h **** /**
 129:c:\projects\paindrain\arduinolcd\test\pain drain\libraries\lvgl\src\misc\lv_area.h ****  * Get the height of an area
 130:c:\projects\paindrain\arduinolcd\test\pain drain\libraries\lvgl\src\misc\lv_area.h ****  * @param area_p pointer to an area
 131:c:\projects\paindrain\arduinolcd\test\pain drain\libraries\lvgl\src\misc\lv_area.h ****  * @return the height of the area (if y1 == y2 -> height = 1)
 132:c:\projects\paindrain\arduinolcd\test\pain drain\libraries\lvgl\src\misc\lv_area.h ****  */
 133:c:\projects\paindrain\arduinolcd\test\pain drain\libraries\lvgl\src\misc\lv_area.h **** static inline lv_coord_t lv_area_get_height(const lv_area_t * area_p)
 134:c:\projects\paindrain\arduinolcd\test\pain drain\libraries\lvgl\src\misc\lv_area.h **** {
  55              		.loc 1 134 0
  56              		.cfi_startproc
  57              		@ args = 0, pretend = 0, frame = 0
  58              		@ frame_needed = 0, uses_anonymous_args = 0
  59              		@ link register save eliminated.
  60              	.LVL2:
 135:c:\projects\paindrain\arduinolcd\test\pain drain\libraries\lvgl\src\misc\lv_area.h ****     return (lv_coord_t)(area_p->y2 - area_p->y1 + 1);
  61              		.loc 1 135 0
  62 0000 0622     		movs	r2, #6
  63 0002 835E     		ldrsh	r3, [r0, r2]
  64 0004 0222     		movs	r2, #2
  65 0006 805E     		ldrsh	r0, [r0, r2]
  66              	.LVL3:
  67 0008 181A     		subs	r0, r3, r0
  68 000a 0130     		adds	r0, r0, #1
  69 000c 00B2     		sxth	r0, r0
 136:c:\projects\paindrain\arduinolcd\test\pain drain\libraries\lvgl\src\misc\lv_area.h **** }
  70              		.loc 1 136 0
  71              		@ sp needed
  72 000e 7047     		bx	lr
  73              		.cfi_endproc
  74              	.LFE2:
  75              		.size	lv_area_get_height, .-lv_area_get_height
  76              		.section	.text.lv_bar_init_anim,"ax",%progbits
  77              		.align	2
  78              		.code	16
  79              		.thumb_func
  80              		.type	lv_bar_init_anim, %function
  81              	lv_bar_init_anim:
  82              	.LFB176:
  83              		.file 2 "..\\..\\..\\arduinoLCD\\test\\Pain Drain\\libraries\\lvgl\\src\\widgets\\lv_bar.c"
   1:..\..\..\arduinoLCD\test\Pain Drain\libraries\lvgl\src\widgets/lv_bar.c **** /**
   2:..\..\..\arduinoLCD\test\Pain Drain\libraries\lvgl\src\widgets/lv_bar.c ****  * @file lv_bar.c
   3:..\..\..\arduinoLCD\test\Pain Drain\libraries\lvgl\src\widgets/lv_bar.c ****  *
   4:..\..\..\arduinoLCD\test\Pain Drain\libraries\lvgl\src\widgets/lv_bar.c ****  */
   5:..\..\..\arduinoLCD\test\Pain Drain\libraries\lvgl\src\widgets/lv_bar.c **** 
   6:..\..\..\arduinoLCD\test\Pain Drain\libraries\lvgl\src\widgets/lv_bar.c **** /*********************
   7:..\..\..\arduinoLCD\test\Pain Drain\libraries\lvgl\src\widgets/lv_bar.c ****  *      INCLUDES
   8:..\..\..\arduinoLCD\test\Pain Drain\libraries\lvgl\src\widgets/lv_bar.c ****  *********************/
   9:..\..\..\arduinoLCD\test\Pain Drain\libraries\lvgl\src\widgets/lv_bar.c **** #include "lv_bar.h"
ARM GAS  C:\Users\haske\AppData\Local\Temp\cc11ZRIl.s 			page 5


  10:..\..\..\arduinoLCD\test\Pain Drain\libraries\lvgl\src\widgets/lv_bar.c **** #if LV_USE_BAR != 0
  11:..\..\..\arduinoLCD\test\Pain Drain\libraries\lvgl\src\widgets/lv_bar.c **** 
  12:..\..\..\arduinoLCD\test\Pain Drain\libraries\lvgl\src\widgets/lv_bar.c **** #include "../misc/lv_assert.h"
  13:..\..\..\arduinoLCD\test\Pain Drain\libraries\lvgl\src\widgets/lv_bar.c **** #include "../draw/lv_draw.h"
  14:..\..\..\arduinoLCD\test\Pain Drain\libraries\lvgl\src\widgets/lv_bar.c **** #include "../misc/lv_anim.h"
  15:..\..\..\arduinoLCD\test\Pain Drain\libraries\lvgl\src\widgets/lv_bar.c **** #include "../misc/lv_math.h"
  16:..\..\..\arduinoLCD\test\Pain Drain\libraries\lvgl\src\widgets/lv_bar.c **** 
  17:..\..\..\arduinoLCD\test\Pain Drain\libraries\lvgl\src\widgets/lv_bar.c **** /*********************
  18:..\..\..\arduinoLCD\test\Pain Drain\libraries\lvgl\src\widgets/lv_bar.c ****  *      DEFINES
  19:..\..\..\arduinoLCD\test\Pain Drain\libraries\lvgl\src\widgets/lv_bar.c ****  *********************/
  20:..\..\..\arduinoLCD\test\Pain Drain\libraries\lvgl\src\widgets/lv_bar.c **** #define MY_CLASS &lv_bar_class
  21:..\..\..\arduinoLCD\test\Pain Drain\libraries\lvgl\src\widgets/lv_bar.c **** 
  22:..\..\..\arduinoLCD\test\Pain Drain\libraries\lvgl\src\widgets/lv_bar.c **** /** hor. pad and ver. pad cannot make the indicator smaller than this [px]*/
  23:..\..\..\arduinoLCD\test\Pain Drain\libraries\lvgl\src\widgets/lv_bar.c **** #define LV_BAR_SIZE_MIN  4
  24:..\..\..\arduinoLCD\test\Pain Drain\libraries\lvgl\src\widgets/lv_bar.c **** 
  25:..\..\..\arduinoLCD\test\Pain Drain\libraries\lvgl\src\widgets/lv_bar.c **** #define LV_BAR_IS_ANIMATING(anim_struct) (((anim_struct).anim_state) != LV_BAR_ANIM_STATE_INV)
  26:..\..\..\arduinoLCD\test\Pain Drain\libraries\lvgl\src\widgets/lv_bar.c **** #define LV_BAR_GET_ANIM_VALUE(orig_value, anim_struct) (LV_BAR_IS_ANIMATING(anim_struct) ? ((anim_s
  27:..\..\..\arduinoLCD\test\Pain Drain\libraries\lvgl\src\widgets/lv_bar.c **** 
  28:..\..\..\arduinoLCD\test\Pain Drain\libraries\lvgl\src\widgets/lv_bar.c **** /** Bar animation start value. (Not the real value of the Bar just indicates process animation)*/
  29:..\..\..\arduinoLCD\test\Pain Drain\libraries\lvgl\src\widgets/lv_bar.c **** #define LV_BAR_ANIM_STATE_START 0
  30:..\..\..\arduinoLCD\test\Pain Drain\libraries\lvgl\src\widgets/lv_bar.c **** 
  31:..\..\..\arduinoLCD\test\Pain Drain\libraries\lvgl\src\widgets/lv_bar.c **** /** Bar animation end value.  (Not the real value of the Bar just indicates process animation)*/
  32:..\..\..\arduinoLCD\test\Pain Drain\libraries\lvgl\src\widgets/lv_bar.c **** #define LV_BAR_ANIM_STATE_END   256
  33:..\..\..\arduinoLCD\test\Pain Drain\libraries\lvgl\src\widgets/lv_bar.c **** 
  34:..\..\..\arduinoLCD\test\Pain Drain\libraries\lvgl\src\widgets/lv_bar.c **** /** Mark no animation is in progress*/
  35:..\..\..\arduinoLCD\test\Pain Drain\libraries\lvgl\src\widgets/lv_bar.c **** #define LV_BAR_ANIM_STATE_INV   -1
  36:..\..\..\arduinoLCD\test\Pain Drain\libraries\lvgl\src\widgets/lv_bar.c **** 
  37:..\..\..\arduinoLCD\test\Pain Drain\libraries\lvgl\src\widgets/lv_bar.c **** /** log2(LV_BAR_ANIM_STATE_END) used to normalize data*/
  38:..\..\..\arduinoLCD\test\Pain Drain\libraries\lvgl\src\widgets/lv_bar.c **** #define LV_BAR_ANIM_STATE_NORM  8
  39:..\..\..\arduinoLCD\test\Pain Drain\libraries\lvgl\src\widgets/lv_bar.c **** 
  40:..\..\..\arduinoLCD\test\Pain Drain\libraries\lvgl\src\widgets/lv_bar.c **** /**********************
  41:..\..\..\arduinoLCD\test\Pain Drain\libraries\lvgl\src\widgets/lv_bar.c ****  *      TYPEDEFS
  42:..\..\..\arduinoLCD\test\Pain Drain\libraries\lvgl\src\widgets/lv_bar.c ****  **********************/
  43:..\..\..\arduinoLCD\test\Pain Drain\libraries\lvgl\src\widgets/lv_bar.c **** 
  44:..\..\..\arduinoLCD\test\Pain Drain\libraries\lvgl\src\widgets/lv_bar.c **** /**********************
  45:..\..\..\arduinoLCD\test\Pain Drain\libraries\lvgl\src\widgets/lv_bar.c ****  *  STATIC PROTOTYPES
  46:..\..\..\arduinoLCD\test\Pain Drain\libraries\lvgl\src\widgets/lv_bar.c ****  **********************/
  47:..\..\..\arduinoLCD\test\Pain Drain\libraries\lvgl\src\widgets/lv_bar.c **** static void lv_bar_constructor(const lv_obj_class_t * class_p, lv_obj_t * obj);
  48:..\..\..\arduinoLCD\test\Pain Drain\libraries\lvgl\src\widgets/lv_bar.c **** static void lv_bar_destructor(const lv_obj_class_t * class_p, lv_obj_t * obj);
  49:..\..\..\arduinoLCD\test\Pain Drain\libraries\lvgl\src\widgets/lv_bar.c **** static void lv_bar_event(const lv_obj_class_t * class_p, lv_event_t * e);
  50:..\..\..\arduinoLCD\test\Pain Drain\libraries\lvgl\src\widgets/lv_bar.c **** static void draw_indic(lv_event_t * e);
  51:..\..\..\arduinoLCD\test\Pain Drain\libraries\lvgl\src\widgets/lv_bar.c **** static void lv_bar_set_value_with_anim(lv_obj_t * obj, int32_t new_value, int32_t * value_ptr,
  52:..\..\..\arduinoLCD\test\Pain Drain\libraries\lvgl\src\widgets/lv_bar.c ****                                        _lv_bar_anim_t * anim_info, lv_anim_enable_t en);
  53:..\..\..\arduinoLCD\test\Pain Drain\libraries\lvgl\src\widgets/lv_bar.c **** static void lv_bar_init_anim(lv_obj_t * bar, _lv_bar_anim_t * bar_anim);
  54:..\..\..\arduinoLCD\test\Pain Drain\libraries\lvgl\src\widgets/lv_bar.c **** static void lv_bar_anim(void * bar, int32_t value);
  55:..\..\..\arduinoLCD\test\Pain Drain\libraries\lvgl\src\widgets/lv_bar.c **** static void lv_bar_anim_ready(lv_anim_t * a);
  56:..\..\..\arduinoLCD\test\Pain Drain\libraries\lvgl\src\widgets/lv_bar.c **** 
  57:..\..\..\arduinoLCD\test\Pain Drain\libraries\lvgl\src\widgets/lv_bar.c **** /**********************
  58:..\..\..\arduinoLCD\test\Pain Drain\libraries\lvgl\src\widgets/lv_bar.c ****  *  STATIC VARIABLES
  59:..\..\..\arduinoLCD\test\Pain Drain\libraries\lvgl\src\widgets/lv_bar.c ****  **********************/
  60:..\..\..\arduinoLCD\test\Pain Drain\libraries\lvgl\src\widgets/lv_bar.c **** const lv_obj_class_t lv_bar_class = {
  61:..\..\..\arduinoLCD\test\Pain Drain\libraries\lvgl\src\widgets/lv_bar.c ****     .constructor_cb = lv_bar_constructor,
  62:..\..\..\arduinoLCD\test\Pain Drain\libraries\lvgl\src\widgets/lv_bar.c ****     .destructor_cb = lv_bar_destructor,
  63:..\..\..\arduinoLCD\test\Pain Drain\libraries\lvgl\src\widgets/lv_bar.c ****     .event_cb = lv_bar_event,
  64:..\..\..\arduinoLCD\test\Pain Drain\libraries\lvgl\src\widgets/lv_bar.c ****     .width_def = LV_DPI_DEF * 2,
  65:..\..\..\arduinoLCD\test\Pain Drain\libraries\lvgl\src\widgets/lv_bar.c ****     .height_def = LV_DPI_DEF / 10,
  66:..\..\..\arduinoLCD\test\Pain Drain\libraries\lvgl\src\widgets/lv_bar.c ****     .instance_size = sizeof(lv_bar_t),
ARM GAS  C:\Users\haske\AppData\Local\Temp\cc11ZRIl.s 			page 6


  67:..\..\..\arduinoLCD\test\Pain Drain\libraries\lvgl\src\widgets/lv_bar.c ****     .base_class = &lv_obj_class
  68:..\..\..\arduinoLCD\test\Pain Drain\libraries\lvgl\src\widgets/lv_bar.c **** };
  69:..\..\..\arduinoLCD\test\Pain Drain\libraries\lvgl\src\widgets/lv_bar.c **** 
  70:..\..\..\arduinoLCD\test\Pain Drain\libraries\lvgl\src\widgets/lv_bar.c **** /**********************
  71:..\..\..\arduinoLCD\test\Pain Drain\libraries\lvgl\src\widgets/lv_bar.c ****  *      MACROS
  72:..\..\..\arduinoLCD\test\Pain Drain\libraries\lvgl\src\widgets/lv_bar.c ****  **********************/
  73:..\..\..\arduinoLCD\test\Pain Drain\libraries\lvgl\src\widgets/lv_bar.c **** 
  74:..\..\..\arduinoLCD\test\Pain Drain\libraries\lvgl\src\widgets/lv_bar.c **** /**********************
  75:..\..\..\arduinoLCD\test\Pain Drain\libraries\lvgl\src\widgets/lv_bar.c ****  *   GLOBAL FUNCTIONS
  76:..\..\..\arduinoLCD\test\Pain Drain\libraries\lvgl\src\widgets/lv_bar.c ****  **********************/
  77:..\..\..\arduinoLCD\test\Pain Drain\libraries\lvgl\src\widgets/lv_bar.c **** 
  78:..\..\..\arduinoLCD\test\Pain Drain\libraries\lvgl\src\widgets/lv_bar.c **** lv_obj_t * lv_bar_create(lv_obj_t * parent)
  79:..\..\..\arduinoLCD\test\Pain Drain\libraries\lvgl\src\widgets/lv_bar.c **** {
  80:..\..\..\arduinoLCD\test\Pain Drain\libraries\lvgl\src\widgets/lv_bar.c ****     LV_LOG_INFO("begin");
  81:..\..\..\arduinoLCD\test\Pain Drain\libraries\lvgl\src\widgets/lv_bar.c ****     lv_obj_t * obj = lv_obj_class_create_obj(MY_CLASS, parent);
  82:..\..\..\arduinoLCD\test\Pain Drain\libraries\lvgl\src\widgets/lv_bar.c ****     lv_obj_class_init_obj(obj);
  83:..\..\..\arduinoLCD\test\Pain Drain\libraries\lvgl\src\widgets/lv_bar.c ****     return obj;
  84:..\..\..\arduinoLCD\test\Pain Drain\libraries\lvgl\src\widgets/lv_bar.c **** }
  85:..\..\..\arduinoLCD\test\Pain Drain\libraries\lvgl\src\widgets/lv_bar.c **** 
  86:..\..\..\arduinoLCD\test\Pain Drain\libraries\lvgl\src\widgets/lv_bar.c **** /*=====================
  87:..\..\..\arduinoLCD\test\Pain Drain\libraries\lvgl\src\widgets/lv_bar.c ****  * Setter functions
  88:..\..\..\arduinoLCD\test\Pain Drain\libraries\lvgl\src\widgets/lv_bar.c ****  *====================*/
  89:..\..\..\arduinoLCD\test\Pain Drain\libraries\lvgl\src\widgets/lv_bar.c **** 
  90:..\..\..\arduinoLCD\test\Pain Drain\libraries\lvgl\src\widgets/lv_bar.c **** void lv_bar_set_value(lv_obj_t * obj, int32_t value, lv_anim_enable_t anim)
  91:..\..\..\arduinoLCD\test\Pain Drain\libraries\lvgl\src\widgets/lv_bar.c **** {
  92:..\..\..\arduinoLCD\test\Pain Drain\libraries\lvgl\src\widgets/lv_bar.c ****     LV_ASSERT_OBJ(obj, MY_CLASS);
  93:..\..\..\arduinoLCD\test\Pain Drain\libraries\lvgl\src\widgets/lv_bar.c ****     lv_bar_t * bar = (lv_bar_t *)obj;
  94:..\..\..\arduinoLCD\test\Pain Drain\libraries\lvgl\src\widgets/lv_bar.c **** 
  95:..\..\..\arduinoLCD\test\Pain Drain\libraries\lvgl\src\widgets/lv_bar.c ****     if(bar->cur_value == value) return;
  96:..\..\..\arduinoLCD\test\Pain Drain\libraries\lvgl\src\widgets/lv_bar.c **** 
  97:..\..\..\arduinoLCD\test\Pain Drain\libraries\lvgl\src\widgets/lv_bar.c ****     value = LV_CLAMP(bar->min_value, value, bar->max_value);
  98:..\..\..\arduinoLCD\test\Pain Drain\libraries\lvgl\src\widgets/lv_bar.c ****     value = value < bar->start_value ? bar->start_value : value; /*Can't be smaller than the left v
  99:..\..\..\arduinoLCD\test\Pain Drain\libraries\lvgl\src\widgets/lv_bar.c **** 
 100:..\..\..\arduinoLCD\test\Pain Drain\libraries\lvgl\src\widgets/lv_bar.c ****     if(bar->cur_value == value) return;
 101:..\..\..\arduinoLCD\test\Pain Drain\libraries\lvgl\src\widgets/lv_bar.c ****     lv_bar_set_value_with_anim(obj, value, &bar->cur_value, &bar->cur_value_anim, anim);
 102:..\..\..\arduinoLCD\test\Pain Drain\libraries\lvgl\src\widgets/lv_bar.c **** }
 103:..\..\..\arduinoLCD\test\Pain Drain\libraries\lvgl\src\widgets/lv_bar.c **** 
 104:..\..\..\arduinoLCD\test\Pain Drain\libraries\lvgl\src\widgets/lv_bar.c **** void lv_bar_set_start_value(lv_obj_t * obj, int32_t value, lv_anim_enable_t anim)
 105:..\..\..\arduinoLCD\test\Pain Drain\libraries\lvgl\src\widgets/lv_bar.c **** {
 106:..\..\..\arduinoLCD\test\Pain Drain\libraries\lvgl\src\widgets/lv_bar.c ****     LV_ASSERT_OBJ(obj, MY_CLASS);
 107:..\..\..\arduinoLCD\test\Pain Drain\libraries\lvgl\src\widgets/lv_bar.c **** 
 108:..\..\..\arduinoLCD\test\Pain Drain\libraries\lvgl\src\widgets/lv_bar.c ****     lv_bar_t * bar = (lv_bar_t *)obj;
 109:..\..\..\arduinoLCD\test\Pain Drain\libraries\lvgl\src\widgets/lv_bar.c **** 
 110:..\..\..\arduinoLCD\test\Pain Drain\libraries\lvgl\src\widgets/lv_bar.c ****     if(bar->mode != LV_BAR_MODE_RANGE) {
 111:..\..\..\arduinoLCD\test\Pain Drain\libraries\lvgl\src\widgets/lv_bar.c ****         return;
 112:..\..\..\arduinoLCD\test\Pain Drain\libraries\lvgl\src\widgets/lv_bar.c ****     }
 113:..\..\..\arduinoLCD\test\Pain Drain\libraries\lvgl\src\widgets/lv_bar.c **** 
 114:..\..\..\arduinoLCD\test\Pain Drain\libraries\lvgl\src\widgets/lv_bar.c ****     value = LV_CLAMP(bar->min_value, value, bar->max_value);
 115:..\..\..\arduinoLCD\test\Pain Drain\libraries\lvgl\src\widgets/lv_bar.c ****     value = value > bar->cur_value ? bar->cur_value : value; /*Can't be greater than the right valu
 116:..\..\..\arduinoLCD\test\Pain Drain\libraries\lvgl\src\widgets/lv_bar.c **** 
 117:..\..\..\arduinoLCD\test\Pain Drain\libraries\lvgl\src\widgets/lv_bar.c ****     if(bar->start_value == value) return;
 118:..\..\..\arduinoLCD\test\Pain Drain\libraries\lvgl\src\widgets/lv_bar.c ****     lv_bar_set_value_with_anim(obj, value, &bar->start_value, &bar->start_value_anim, anim);
 119:..\..\..\arduinoLCD\test\Pain Drain\libraries\lvgl\src\widgets/lv_bar.c **** }
 120:..\..\..\arduinoLCD\test\Pain Drain\libraries\lvgl\src\widgets/lv_bar.c **** 
 121:..\..\..\arduinoLCD\test\Pain Drain\libraries\lvgl\src\widgets/lv_bar.c **** void lv_bar_set_range(lv_obj_t * obj, int32_t min, int32_t max)
 122:..\..\..\arduinoLCD\test\Pain Drain\libraries\lvgl\src\widgets/lv_bar.c **** {
 123:..\..\..\arduinoLCD\test\Pain Drain\libraries\lvgl\src\widgets/lv_bar.c ****     LV_ASSERT_OBJ(obj, MY_CLASS);
ARM GAS  C:\Users\haske\AppData\Local\Temp\cc11ZRIl.s 			page 7


 124:..\..\..\arduinoLCD\test\Pain Drain\libraries\lvgl\src\widgets/lv_bar.c **** 
 125:..\..\..\arduinoLCD\test\Pain Drain\libraries\lvgl\src\widgets/lv_bar.c ****     lv_bar_t * bar = (lv_bar_t *)obj;
 126:..\..\..\arduinoLCD\test\Pain Drain\libraries\lvgl\src\widgets/lv_bar.c **** 
 127:..\..\..\arduinoLCD\test\Pain Drain\libraries\lvgl\src\widgets/lv_bar.c ****     if(bar->min_value == min && bar->max_value == max) return;
 128:..\..\..\arduinoLCD\test\Pain Drain\libraries\lvgl\src\widgets/lv_bar.c **** 
 129:..\..\..\arduinoLCD\test\Pain Drain\libraries\lvgl\src\widgets/lv_bar.c ****     bar->max_value = max;
 130:..\..\..\arduinoLCD\test\Pain Drain\libraries\lvgl\src\widgets/lv_bar.c ****     bar->min_value = min;
 131:..\..\..\arduinoLCD\test\Pain Drain\libraries\lvgl\src\widgets/lv_bar.c **** 
 132:..\..\..\arduinoLCD\test\Pain Drain\libraries\lvgl\src\widgets/lv_bar.c ****     if(lv_bar_get_mode(obj) != LV_BAR_MODE_RANGE)
 133:..\..\..\arduinoLCD\test\Pain Drain\libraries\lvgl\src\widgets/lv_bar.c ****         bar->start_value = min;
 134:..\..\..\arduinoLCD\test\Pain Drain\libraries\lvgl\src\widgets/lv_bar.c **** 
 135:..\..\..\arduinoLCD\test\Pain Drain\libraries\lvgl\src\widgets/lv_bar.c ****     if(bar->cur_value > max) {
 136:..\..\..\arduinoLCD\test\Pain Drain\libraries\lvgl\src\widgets/lv_bar.c ****         bar->cur_value = max;
 137:..\..\..\arduinoLCD\test\Pain Drain\libraries\lvgl\src\widgets/lv_bar.c ****         lv_bar_set_value(obj, bar->cur_value, LV_ANIM_OFF);
 138:..\..\..\arduinoLCD\test\Pain Drain\libraries\lvgl\src\widgets/lv_bar.c ****     }
 139:..\..\..\arduinoLCD\test\Pain Drain\libraries\lvgl\src\widgets/lv_bar.c ****     if(bar->cur_value < min) {
 140:..\..\..\arduinoLCD\test\Pain Drain\libraries\lvgl\src\widgets/lv_bar.c ****         bar->cur_value = min;
 141:..\..\..\arduinoLCD\test\Pain Drain\libraries\lvgl\src\widgets/lv_bar.c ****         lv_bar_set_value(obj, bar->cur_value, LV_ANIM_OFF);
 142:..\..\..\arduinoLCD\test\Pain Drain\libraries\lvgl\src\widgets/lv_bar.c ****     }
 143:..\..\..\arduinoLCD\test\Pain Drain\libraries\lvgl\src\widgets/lv_bar.c ****     lv_obj_invalidate(obj);
 144:..\..\..\arduinoLCD\test\Pain Drain\libraries\lvgl\src\widgets/lv_bar.c **** }
 145:..\..\..\arduinoLCD\test\Pain Drain\libraries\lvgl\src\widgets/lv_bar.c **** 
 146:..\..\..\arduinoLCD\test\Pain Drain\libraries\lvgl\src\widgets/lv_bar.c **** void lv_bar_set_mode(lv_obj_t * obj, lv_bar_mode_t mode)
 147:..\..\..\arduinoLCD\test\Pain Drain\libraries\lvgl\src\widgets/lv_bar.c **** {
 148:..\..\..\arduinoLCD\test\Pain Drain\libraries\lvgl\src\widgets/lv_bar.c ****     LV_ASSERT_OBJ(obj, MY_CLASS);
 149:..\..\..\arduinoLCD\test\Pain Drain\libraries\lvgl\src\widgets/lv_bar.c ****     lv_bar_t * bar = (lv_bar_t *)obj;
 150:..\..\..\arduinoLCD\test\Pain Drain\libraries\lvgl\src\widgets/lv_bar.c **** 
 151:..\..\..\arduinoLCD\test\Pain Drain\libraries\lvgl\src\widgets/lv_bar.c ****     bar->mode = mode;
 152:..\..\..\arduinoLCD\test\Pain Drain\libraries\lvgl\src\widgets/lv_bar.c ****     if(bar->mode != LV_BAR_MODE_RANGE) {
 153:..\..\..\arduinoLCD\test\Pain Drain\libraries\lvgl\src\widgets/lv_bar.c ****         bar->start_value = bar->min_value;
 154:..\..\..\arduinoLCD\test\Pain Drain\libraries\lvgl\src\widgets/lv_bar.c ****     }
 155:..\..\..\arduinoLCD\test\Pain Drain\libraries\lvgl\src\widgets/lv_bar.c **** 
 156:..\..\..\arduinoLCD\test\Pain Drain\libraries\lvgl\src\widgets/lv_bar.c ****     lv_obj_invalidate(obj);
 157:..\..\..\arduinoLCD\test\Pain Drain\libraries\lvgl\src\widgets/lv_bar.c **** }
 158:..\..\..\arduinoLCD\test\Pain Drain\libraries\lvgl\src\widgets/lv_bar.c **** 
 159:..\..\..\arduinoLCD\test\Pain Drain\libraries\lvgl\src\widgets/lv_bar.c **** /*=====================
 160:..\..\..\arduinoLCD\test\Pain Drain\libraries\lvgl\src\widgets/lv_bar.c ****  * Getter functions
 161:..\..\..\arduinoLCD\test\Pain Drain\libraries\lvgl\src\widgets/lv_bar.c ****  *====================*/
 162:..\..\..\arduinoLCD\test\Pain Drain\libraries\lvgl\src\widgets/lv_bar.c **** 
 163:..\..\..\arduinoLCD\test\Pain Drain\libraries\lvgl\src\widgets/lv_bar.c **** int32_t lv_bar_get_value(const lv_obj_t * obj)
 164:..\..\..\arduinoLCD\test\Pain Drain\libraries\lvgl\src\widgets/lv_bar.c **** {
 165:..\..\..\arduinoLCD\test\Pain Drain\libraries\lvgl\src\widgets/lv_bar.c ****     LV_ASSERT_OBJ(obj, MY_CLASS);
 166:..\..\..\arduinoLCD\test\Pain Drain\libraries\lvgl\src\widgets/lv_bar.c ****     lv_bar_t * bar = (lv_bar_t *)obj;
 167:..\..\..\arduinoLCD\test\Pain Drain\libraries\lvgl\src\widgets/lv_bar.c **** 
 168:..\..\..\arduinoLCD\test\Pain Drain\libraries\lvgl\src\widgets/lv_bar.c ****     return LV_BAR_GET_ANIM_VALUE(bar->cur_value, bar->cur_value_anim);
 169:..\..\..\arduinoLCD\test\Pain Drain\libraries\lvgl\src\widgets/lv_bar.c **** }
 170:..\..\..\arduinoLCD\test\Pain Drain\libraries\lvgl\src\widgets/lv_bar.c **** 
 171:..\..\..\arduinoLCD\test\Pain Drain\libraries\lvgl\src\widgets/lv_bar.c **** int32_t lv_bar_get_start_value(const lv_obj_t * obj)
 172:..\..\..\arduinoLCD\test\Pain Drain\libraries\lvgl\src\widgets/lv_bar.c **** {
 173:..\..\..\arduinoLCD\test\Pain Drain\libraries\lvgl\src\widgets/lv_bar.c ****     LV_ASSERT_OBJ(obj, MY_CLASS);
 174:..\..\..\arduinoLCD\test\Pain Drain\libraries\lvgl\src\widgets/lv_bar.c ****     lv_bar_t * bar = (lv_bar_t *)obj;
 175:..\..\..\arduinoLCD\test\Pain Drain\libraries\lvgl\src\widgets/lv_bar.c **** 
 176:..\..\..\arduinoLCD\test\Pain Drain\libraries\lvgl\src\widgets/lv_bar.c ****     if(bar->mode != LV_BAR_MODE_RANGE) return bar->min_value;
 177:..\..\..\arduinoLCD\test\Pain Drain\libraries\lvgl\src\widgets/lv_bar.c **** 
 178:..\..\..\arduinoLCD\test\Pain Drain\libraries\lvgl\src\widgets/lv_bar.c ****     return LV_BAR_GET_ANIM_VALUE(bar->start_value, bar->start_value_anim);
 179:..\..\..\arduinoLCD\test\Pain Drain\libraries\lvgl\src\widgets/lv_bar.c **** }
 180:..\..\..\arduinoLCD\test\Pain Drain\libraries\lvgl\src\widgets/lv_bar.c **** 
ARM GAS  C:\Users\haske\AppData\Local\Temp\cc11ZRIl.s 			page 8


 181:..\..\..\arduinoLCD\test\Pain Drain\libraries\lvgl\src\widgets/lv_bar.c **** int32_t lv_bar_get_min_value(const lv_obj_t * obj)
 182:..\..\..\arduinoLCD\test\Pain Drain\libraries\lvgl\src\widgets/lv_bar.c **** {
 183:..\..\..\arduinoLCD\test\Pain Drain\libraries\lvgl\src\widgets/lv_bar.c ****     LV_ASSERT_OBJ(obj, MY_CLASS);
 184:..\..\..\arduinoLCD\test\Pain Drain\libraries\lvgl\src\widgets/lv_bar.c ****     lv_bar_t * bar = (lv_bar_t *)obj;
 185:..\..\..\arduinoLCD\test\Pain Drain\libraries\lvgl\src\widgets/lv_bar.c ****     return bar->min_value;
 186:..\..\..\arduinoLCD\test\Pain Drain\libraries\lvgl\src\widgets/lv_bar.c **** }
 187:..\..\..\arduinoLCD\test\Pain Drain\libraries\lvgl\src\widgets/lv_bar.c **** 
 188:..\..\..\arduinoLCD\test\Pain Drain\libraries\lvgl\src\widgets/lv_bar.c **** int32_t lv_bar_get_max_value(const lv_obj_t * obj)
 189:..\..\..\arduinoLCD\test\Pain Drain\libraries\lvgl\src\widgets/lv_bar.c **** {
 190:..\..\..\arduinoLCD\test\Pain Drain\libraries\lvgl\src\widgets/lv_bar.c ****     LV_ASSERT_OBJ(obj, MY_CLASS);
 191:..\..\..\arduinoLCD\test\Pain Drain\libraries\lvgl\src\widgets/lv_bar.c ****     lv_bar_t * bar = (lv_bar_t *)obj;
 192:..\..\..\arduinoLCD\test\Pain Drain\libraries\lvgl\src\widgets/lv_bar.c **** 
 193:..\..\..\arduinoLCD\test\Pain Drain\libraries\lvgl\src\widgets/lv_bar.c ****     return bar->max_value;
 194:..\..\..\arduinoLCD\test\Pain Drain\libraries\lvgl\src\widgets/lv_bar.c **** }
 195:..\..\..\arduinoLCD\test\Pain Drain\libraries\lvgl\src\widgets/lv_bar.c **** 
 196:..\..\..\arduinoLCD\test\Pain Drain\libraries\lvgl\src\widgets/lv_bar.c **** lv_bar_mode_t lv_bar_get_mode(lv_obj_t * obj)
 197:..\..\..\arduinoLCD\test\Pain Drain\libraries\lvgl\src\widgets/lv_bar.c **** {
 198:..\..\..\arduinoLCD\test\Pain Drain\libraries\lvgl\src\widgets/lv_bar.c ****     LV_ASSERT_OBJ(obj, MY_CLASS);
 199:..\..\..\arduinoLCD\test\Pain Drain\libraries\lvgl\src\widgets/lv_bar.c ****     lv_bar_t * bar = (lv_bar_t *)obj;
 200:..\..\..\arduinoLCD\test\Pain Drain\libraries\lvgl\src\widgets/lv_bar.c **** 
 201:..\..\..\arduinoLCD\test\Pain Drain\libraries\lvgl\src\widgets/lv_bar.c ****     return bar->mode;
 202:..\..\..\arduinoLCD\test\Pain Drain\libraries\lvgl\src\widgets/lv_bar.c **** }
 203:..\..\..\arduinoLCD\test\Pain Drain\libraries\lvgl\src\widgets/lv_bar.c **** 
 204:..\..\..\arduinoLCD\test\Pain Drain\libraries\lvgl\src\widgets/lv_bar.c **** /**********************
 205:..\..\..\arduinoLCD\test\Pain Drain\libraries\lvgl\src\widgets/lv_bar.c ****  *   STATIC FUNCTIONS
 206:..\..\..\arduinoLCD\test\Pain Drain\libraries\lvgl\src\widgets/lv_bar.c ****  **********************/
 207:..\..\..\arduinoLCD\test\Pain Drain\libraries\lvgl\src\widgets/lv_bar.c **** 
 208:..\..\..\arduinoLCD\test\Pain Drain\libraries\lvgl\src\widgets/lv_bar.c **** static void lv_bar_constructor(const lv_obj_class_t * class_p, lv_obj_t * obj)
 209:..\..\..\arduinoLCD\test\Pain Drain\libraries\lvgl\src\widgets/lv_bar.c **** {
 210:..\..\..\arduinoLCD\test\Pain Drain\libraries\lvgl\src\widgets/lv_bar.c ****     LV_UNUSED(class_p);
 211:..\..\..\arduinoLCD\test\Pain Drain\libraries\lvgl\src\widgets/lv_bar.c ****     LV_TRACE_OBJ_CREATE("begin");
 212:..\..\..\arduinoLCD\test\Pain Drain\libraries\lvgl\src\widgets/lv_bar.c **** 
 213:..\..\..\arduinoLCD\test\Pain Drain\libraries\lvgl\src\widgets/lv_bar.c ****     lv_bar_t * bar = (lv_bar_t *)obj;
 214:..\..\..\arduinoLCD\test\Pain Drain\libraries\lvgl\src\widgets/lv_bar.c ****     bar->min_value = 0;
 215:..\..\..\arduinoLCD\test\Pain Drain\libraries\lvgl\src\widgets/lv_bar.c ****     bar->max_value = 100;
 216:..\..\..\arduinoLCD\test\Pain Drain\libraries\lvgl\src\widgets/lv_bar.c ****     bar->start_value = 0;
 217:..\..\..\arduinoLCD\test\Pain Drain\libraries\lvgl\src\widgets/lv_bar.c ****     bar->cur_value = 0;
 218:..\..\..\arduinoLCD\test\Pain Drain\libraries\lvgl\src\widgets/lv_bar.c ****     bar->indic_area.x1 = 0;
 219:..\..\..\arduinoLCD\test\Pain Drain\libraries\lvgl\src\widgets/lv_bar.c ****     bar->indic_area.x2 = 0;
 220:..\..\..\arduinoLCD\test\Pain Drain\libraries\lvgl\src\widgets/lv_bar.c ****     bar->indic_area.y1 = 0;
 221:..\..\..\arduinoLCD\test\Pain Drain\libraries\lvgl\src\widgets/lv_bar.c ****     bar->indic_area.y2 = 0;
 222:..\..\..\arduinoLCD\test\Pain Drain\libraries\lvgl\src\widgets/lv_bar.c ****     bar->mode = LV_BAR_MODE_NORMAL;
 223:..\..\..\arduinoLCD\test\Pain Drain\libraries\lvgl\src\widgets/lv_bar.c **** 
 224:..\..\..\arduinoLCD\test\Pain Drain\libraries\lvgl\src\widgets/lv_bar.c ****     lv_bar_init_anim(obj, &bar->cur_value_anim);
 225:..\..\..\arduinoLCD\test\Pain Drain\libraries\lvgl\src\widgets/lv_bar.c ****     lv_bar_init_anim(obj, &bar->start_value_anim);
 226:..\..\..\arduinoLCD\test\Pain Drain\libraries\lvgl\src\widgets/lv_bar.c **** 
 227:..\..\..\arduinoLCD\test\Pain Drain\libraries\lvgl\src\widgets/lv_bar.c ****     lv_obj_clear_flag(obj, LV_OBJ_FLAG_CHECKABLE);
 228:..\..\..\arduinoLCD\test\Pain Drain\libraries\lvgl\src\widgets/lv_bar.c ****     lv_obj_clear_flag(obj, LV_OBJ_FLAG_SCROLLABLE);
 229:..\..\..\arduinoLCD\test\Pain Drain\libraries\lvgl\src\widgets/lv_bar.c ****     lv_bar_set_value(obj, 0, LV_ANIM_OFF);
 230:..\..\..\arduinoLCD\test\Pain Drain\libraries\lvgl\src\widgets/lv_bar.c **** 
 231:..\..\..\arduinoLCD\test\Pain Drain\libraries\lvgl\src\widgets/lv_bar.c ****     LV_TRACE_OBJ_CREATE("finished");
 232:..\..\..\arduinoLCD\test\Pain Drain\libraries\lvgl\src\widgets/lv_bar.c **** }
 233:..\..\..\arduinoLCD\test\Pain Drain\libraries\lvgl\src\widgets/lv_bar.c **** 
 234:..\..\..\arduinoLCD\test\Pain Drain\libraries\lvgl\src\widgets/lv_bar.c **** static void lv_bar_destructor(const lv_obj_class_t * class_p, lv_obj_t * obj)
 235:..\..\..\arduinoLCD\test\Pain Drain\libraries\lvgl\src\widgets/lv_bar.c **** {
 236:..\..\..\arduinoLCD\test\Pain Drain\libraries\lvgl\src\widgets/lv_bar.c ****     LV_UNUSED(class_p);
 237:..\..\..\arduinoLCD\test\Pain Drain\libraries\lvgl\src\widgets/lv_bar.c ****     lv_bar_t * bar = (lv_bar_t *)obj;
ARM GAS  C:\Users\haske\AppData\Local\Temp\cc11ZRIl.s 			page 9


 238:..\..\..\arduinoLCD\test\Pain Drain\libraries\lvgl\src\widgets/lv_bar.c **** 
 239:..\..\..\arduinoLCD\test\Pain Drain\libraries\lvgl\src\widgets/lv_bar.c ****     lv_anim_del(&bar->cur_value_anim, NULL);
 240:..\..\..\arduinoLCD\test\Pain Drain\libraries\lvgl\src\widgets/lv_bar.c ****     lv_anim_del(&bar->start_value_anim, NULL);
 241:..\..\..\arduinoLCD\test\Pain Drain\libraries\lvgl\src\widgets/lv_bar.c **** }
 242:..\..\..\arduinoLCD\test\Pain Drain\libraries\lvgl\src\widgets/lv_bar.c **** 
 243:..\..\..\arduinoLCD\test\Pain Drain\libraries\lvgl\src\widgets/lv_bar.c **** static void draw_indic(lv_event_t * e)
 244:..\..\..\arduinoLCD\test\Pain Drain\libraries\lvgl\src\widgets/lv_bar.c **** {
 245:..\..\..\arduinoLCD\test\Pain Drain\libraries\lvgl\src\widgets/lv_bar.c ****     lv_obj_t * obj = lv_event_get_target(e);
 246:..\..\..\arduinoLCD\test\Pain Drain\libraries\lvgl\src\widgets/lv_bar.c ****     lv_bar_t * bar = (lv_bar_t *)obj;
 247:..\..\..\arduinoLCD\test\Pain Drain\libraries\lvgl\src\widgets/lv_bar.c **** 
 248:..\..\..\arduinoLCD\test\Pain Drain\libraries\lvgl\src\widgets/lv_bar.c ****     lv_draw_ctx_t * draw_ctx = lv_event_get_draw_ctx(e);
 249:..\..\..\arduinoLCD\test\Pain Drain\libraries\lvgl\src\widgets/lv_bar.c **** 
 250:..\..\..\arduinoLCD\test\Pain Drain\libraries\lvgl\src\widgets/lv_bar.c ****     lv_area_t bar_coords;
 251:..\..\..\arduinoLCD\test\Pain Drain\libraries\lvgl\src\widgets/lv_bar.c ****     lv_obj_get_coords(obj, &bar_coords);
 252:..\..\..\arduinoLCD\test\Pain Drain\libraries\lvgl\src\widgets/lv_bar.c **** 
 253:..\..\..\arduinoLCD\test\Pain Drain\libraries\lvgl\src\widgets/lv_bar.c ****     lv_coord_t transf_w = lv_obj_get_style_transform_width(obj, LV_PART_MAIN);
 254:..\..\..\arduinoLCD\test\Pain Drain\libraries\lvgl\src\widgets/lv_bar.c ****     lv_coord_t transf_h = lv_obj_get_style_transform_height(obj, LV_PART_MAIN);
 255:..\..\..\arduinoLCD\test\Pain Drain\libraries\lvgl\src\widgets/lv_bar.c ****     bar_coords.x1 -= transf_w;
 256:..\..\..\arduinoLCD\test\Pain Drain\libraries\lvgl\src\widgets/lv_bar.c ****     bar_coords.x2 += transf_w;
 257:..\..\..\arduinoLCD\test\Pain Drain\libraries\lvgl\src\widgets/lv_bar.c ****     bar_coords.y1 -= transf_h;
 258:..\..\..\arduinoLCD\test\Pain Drain\libraries\lvgl\src\widgets/lv_bar.c ****     bar_coords.y2 += transf_h;
 259:..\..\..\arduinoLCD\test\Pain Drain\libraries\lvgl\src\widgets/lv_bar.c ****     lv_coord_t barw = lv_area_get_width(&bar_coords);
 260:..\..\..\arduinoLCD\test\Pain Drain\libraries\lvgl\src\widgets/lv_bar.c ****     lv_coord_t barh = lv_area_get_height(&bar_coords);
 261:..\..\..\arduinoLCD\test\Pain Drain\libraries\lvgl\src\widgets/lv_bar.c ****     int32_t range = bar->max_value - bar->min_value;
 262:..\..\..\arduinoLCD\test\Pain Drain\libraries\lvgl\src\widgets/lv_bar.c ****     bool hor = barw >= barh ? true : false;
 263:..\..\..\arduinoLCD\test\Pain Drain\libraries\lvgl\src\widgets/lv_bar.c ****     bool sym = false;
 264:..\..\..\arduinoLCD\test\Pain Drain\libraries\lvgl\src\widgets/lv_bar.c ****     if(bar->mode == LV_BAR_MODE_SYMMETRICAL && bar->min_value < 0 && bar->max_value > 0 &&
 265:..\..\..\arduinoLCD\test\Pain Drain\libraries\lvgl\src\widgets/lv_bar.c ****        bar->start_value == bar->min_value) sym = true;
 266:..\..\..\arduinoLCD\test\Pain Drain\libraries\lvgl\src\widgets/lv_bar.c **** 
 267:..\..\..\arduinoLCD\test\Pain Drain\libraries\lvgl\src\widgets/lv_bar.c ****     /*Calculate the indicator area*/
 268:..\..\..\arduinoLCD\test\Pain Drain\libraries\lvgl\src\widgets/lv_bar.c ****     lv_coord_t bg_left = lv_obj_get_style_pad_left(obj,     LV_PART_MAIN);
 269:..\..\..\arduinoLCD\test\Pain Drain\libraries\lvgl\src\widgets/lv_bar.c ****     lv_coord_t bg_right = lv_obj_get_style_pad_right(obj,   LV_PART_MAIN);
 270:..\..\..\arduinoLCD\test\Pain Drain\libraries\lvgl\src\widgets/lv_bar.c ****     lv_coord_t bg_top = lv_obj_get_style_pad_top(obj,       LV_PART_MAIN);
 271:..\..\..\arduinoLCD\test\Pain Drain\libraries\lvgl\src\widgets/lv_bar.c ****     lv_coord_t bg_bottom = lv_obj_get_style_pad_bottom(obj, LV_PART_MAIN);
 272:..\..\..\arduinoLCD\test\Pain Drain\libraries\lvgl\src\widgets/lv_bar.c ****     /*Respect padding and minimum width/height too*/
 273:..\..\..\arduinoLCD\test\Pain Drain\libraries\lvgl\src\widgets/lv_bar.c ****     lv_area_copy(&bar->indic_area, &bar_coords);
 274:..\..\..\arduinoLCD\test\Pain Drain\libraries\lvgl\src\widgets/lv_bar.c ****     bar->indic_area.x1 += bg_left;
 275:..\..\..\arduinoLCD\test\Pain Drain\libraries\lvgl\src\widgets/lv_bar.c ****     bar->indic_area.x2 -= bg_right;
 276:..\..\..\arduinoLCD\test\Pain Drain\libraries\lvgl\src\widgets/lv_bar.c ****     bar->indic_area.y1 += bg_top;
 277:..\..\..\arduinoLCD\test\Pain Drain\libraries\lvgl\src\widgets/lv_bar.c ****     bar->indic_area.y2 -= bg_bottom;
 278:..\..\..\arduinoLCD\test\Pain Drain\libraries\lvgl\src\widgets/lv_bar.c **** 
 279:..\..\..\arduinoLCD\test\Pain Drain\libraries\lvgl\src\widgets/lv_bar.c ****     if(hor && lv_area_get_height(&bar->indic_area) < LV_BAR_SIZE_MIN) {
 280:..\..\..\arduinoLCD\test\Pain Drain\libraries\lvgl\src\widgets/lv_bar.c ****         bar->indic_area.y1 = obj->coords.y1 + (barh / 2) - (LV_BAR_SIZE_MIN / 2);
 281:..\..\..\arduinoLCD\test\Pain Drain\libraries\lvgl\src\widgets/lv_bar.c ****         bar->indic_area.y2 = bar->indic_area.y1 + LV_BAR_SIZE_MIN;
 282:..\..\..\arduinoLCD\test\Pain Drain\libraries\lvgl\src\widgets/lv_bar.c ****     }
 283:..\..\..\arduinoLCD\test\Pain Drain\libraries\lvgl\src\widgets/lv_bar.c ****     else if(!hor && lv_area_get_width(&bar->indic_area) < LV_BAR_SIZE_MIN) {
 284:..\..\..\arduinoLCD\test\Pain Drain\libraries\lvgl\src\widgets/lv_bar.c ****         bar->indic_area.x1 = obj->coords.x1 + (barw / 2) - (LV_BAR_SIZE_MIN / 2);
 285:..\..\..\arduinoLCD\test\Pain Drain\libraries\lvgl\src\widgets/lv_bar.c ****         bar->indic_area.x2 = bar->indic_area.x1 + LV_BAR_SIZE_MIN;
 286:..\..\..\arduinoLCD\test\Pain Drain\libraries\lvgl\src\widgets/lv_bar.c ****     }
 287:..\..\..\arduinoLCD\test\Pain Drain\libraries\lvgl\src\widgets/lv_bar.c **** 
 288:..\..\..\arduinoLCD\test\Pain Drain\libraries\lvgl\src\widgets/lv_bar.c ****     lv_coord_t indicw = lv_area_get_width(&bar->indic_area);
 289:..\..\..\arduinoLCD\test\Pain Drain\libraries\lvgl\src\widgets/lv_bar.c ****     lv_coord_t indich = lv_area_get_height(&bar->indic_area);
 290:..\..\..\arduinoLCD\test\Pain Drain\libraries\lvgl\src\widgets/lv_bar.c **** 
 291:..\..\..\arduinoLCD\test\Pain Drain\libraries\lvgl\src\widgets/lv_bar.c ****     /*Calculate the indicator length*/
 292:..\..\..\arduinoLCD\test\Pain Drain\libraries\lvgl\src\widgets/lv_bar.c ****     lv_coord_t anim_length = hor ? indicw : indich;
 293:..\..\..\arduinoLCD\test\Pain Drain\libraries\lvgl\src\widgets/lv_bar.c **** 
 294:..\..\..\arduinoLCD\test\Pain Drain\libraries\lvgl\src\widgets/lv_bar.c ****     lv_coord_t anim_cur_value_x, anim_start_value_x;
ARM GAS  C:\Users\haske\AppData\Local\Temp\cc11ZRIl.s 			page 10


 295:..\..\..\arduinoLCD\test\Pain Drain\libraries\lvgl\src\widgets/lv_bar.c **** 
 296:..\..\..\arduinoLCD\test\Pain Drain\libraries\lvgl\src\widgets/lv_bar.c ****     lv_coord_t * axis1, * axis2;
 297:..\..\..\arduinoLCD\test\Pain Drain\libraries\lvgl\src\widgets/lv_bar.c ****     lv_coord_t (*indic_length_calc)(const lv_area_t * area);
 298:..\..\..\arduinoLCD\test\Pain Drain\libraries\lvgl\src\widgets/lv_bar.c **** 
 299:..\..\..\arduinoLCD\test\Pain Drain\libraries\lvgl\src\widgets/lv_bar.c ****     if(hor) {
 300:..\..\..\arduinoLCD\test\Pain Drain\libraries\lvgl\src\widgets/lv_bar.c ****         axis1 = &bar->indic_area.x1;
 301:..\..\..\arduinoLCD\test\Pain Drain\libraries\lvgl\src\widgets/lv_bar.c ****         axis2 = &bar->indic_area.x2;
 302:..\..\..\arduinoLCD\test\Pain Drain\libraries\lvgl\src\widgets/lv_bar.c ****         indic_length_calc = lv_area_get_width;
 303:..\..\..\arduinoLCD\test\Pain Drain\libraries\lvgl\src\widgets/lv_bar.c ****     }
 304:..\..\..\arduinoLCD\test\Pain Drain\libraries\lvgl\src\widgets/lv_bar.c ****     else {
 305:..\..\..\arduinoLCD\test\Pain Drain\libraries\lvgl\src\widgets/lv_bar.c ****         axis1 = &bar->indic_area.y1;
 306:..\..\..\arduinoLCD\test\Pain Drain\libraries\lvgl\src\widgets/lv_bar.c ****         axis2 = &bar->indic_area.y2;
 307:..\..\..\arduinoLCD\test\Pain Drain\libraries\lvgl\src\widgets/lv_bar.c ****         indic_length_calc = lv_area_get_height;
 308:..\..\..\arduinoLCD\test\Pain Drain\libraries\lvgl\src\widgets/lv_bar.c ****     }
 309:..\..\..\arduinoLCD\test\Pain Drain\libraries\lvgl\src\widgets/lv_bar.c **** 
 310:..\..\..\arduinoLCD\test\Pain Drain\libraries\lvgl\src\widgets/lv_bar.c ****     if(LV_BAR_IS_ANIMATING(bar->start_value_anim)) {
 311:..\..\..\arduinoLCD\test\Pain Drain\libraries\lvgl\src\widgets/lv_bar.c ****         lv_coord_t anim_start_value_start_x =
 312:..\..\..\arduinoLCD\test\Pain Drain\libraries\lvgl\src\widgets/lv_bar.c ****             (int32_t)((int32_t)anim_length * (bar->start_value_anim.anim_start - bar->min_value)) /
 313:..\..\..\arduinoLCD\test\Pain Drain\libraries\lvgl\src\widgets/lv_bar.c ****         lv_coord_t anim_start_value_end_x =
 314:..\..\..\arduinoLCD\test\Pain Drain\libraries\lvgl\src\widgets/lv_bar.c ****             (int32_t)((int32_t)anim_length * (bar->start_value_anim.anim_end - bar->min_value)) / r
 315:..\..\..\arduinoLCD\test\Pain Drain\libraries\lvgl\src\widgets/lv_bar.c **** 
 316:..\..\..\arduinoLCD\test\Pain Drain\libraries\lvgl\src\widgets/lv_bar.c ****         anim_start_value_x = (((anim_start_value_end_x - anim_start_value_start_x) * bar->start_val
 317:..\..\..\arduinoLCD\test\Pain Drain\libraries\lvgl\src\widgets/lv_bar.c ****                               LV_BAR_ANIM_STATE_END);
 318:..\..\..\arduinoLCD\test\Pain Drain\libraries\lvgl\src\widgets/lv_bar.c **** 
 319:..\..\..\arduinoLCD\test\Pain Drain\libraries\lvgl\src\widgets/lv_bar.c ****         anim_start_value_x += anim_start_value_start_x;
 320:..\..\..\arduinoLCD\test\Pain Drain\libraries\lvgl\src\widgets/lv_bar.c ****     }
 321:..\..\..\arduinoLCD\test\Pain Drain\libraries\lvgl\src\widgets/lv_bar.c ****     else {
 322:..\..\..\arduinoLCD\test\Pain Drain\libraries\lvgl\src\widgets/lv_bar.c ****         anim_start_value_x = (int32_t)((int32_t)anim_length * (bar->start_value - bar->min_value)) 
 323:..\..\..\arduinoLCD\test\Pain Drain\libraries\lvgl\src\widgets/lv_bar.c ****     }
 324:..\..\..\arduinoLCD\test\Pain Drain\libraries\lvgl\src\widgets/lv_bar.c **** 
 325:..\..\..\arduinoLCD\test\Pain Drain\libraries\lvgl\src\widgets/lv_bar.c ****     if(LV_BAR_IS_ANIMATING(bar->cur_value_anim)) {
 326:..\..\..\arduinoLCD\test\Pain Drain\libraries\lvgl\src\widgets/lv_bar.c ****         lv_coord_t anim_cur_value_start_x =
 327:..\..\..\arduinoLCD\test\Pain Drain\libraries\lvgl\src\widgets/lv_bar.c ****             (int32_t)((int32_t)anim_length * (bar->cur_value_anim.anim_start - bar->min_value)) / r
 328:..\..\..\arduinoLCD\test\Pain Drain\libraries\lvgl\src\widgets/lv_bar.c ****         lv_coord_t anim_cur_value_end_x =
 329:..\..\..\arduinoLCD\test\Pain Drain\libraries\lvgl\src\widgets/lv_bar.c ****             (int32_t)((int32_t)anim_length * (bar->cur_value_anim.anim_end - bar->min_value)) / ran
 330:..\..\..\arduinoLCD\test\Pain Drain\libraries\lvgl\src\widgets/lv_bar.c **** 
 331:..\..\..\arduinoLCD\test\Pain Drain\libraries\lvgl\src\widgets/lv_bar.c ****         anim_cur_value_x = anim_cur_value_start_x + (((anim_cur_value_end_x - anim_cur_value_start_
 332:..\..\..\arduinoLCD\test\Pain Drain\libraries\lvgl\src\widgets/lv_bar.c ****                                                       bar->cur_value_anim.anim_state) /
 333:..\..\..\arduinoLCD\test\Pain Drain\libraries\lvgl\src\widgets/lv_bar.c ****                                                      LV_BAR_ANIM_STATE_END);
 334:..\..\..\arduinoLCD\test\Pain Drain\libraries\lvgl\src\widgets/lv_bar.c ****     }
 335:..\..\..\arduinoLCD\test\Pain Drain\libraries\lvgl\src\widgets/lv_bar.c ****     else {
 336:..\..\..\arduinoLCD\test\Pain Drain\libraries\lvgl\src\widgets/lv_bar.c ****         anim_cur_value_x = (int32_t)((int32_t)anim_length * (bar->cur_value - bar->min_value)) / ra
 337:..\..\..\arduinoLCD\test\Pain Drain\libraries\lvgl\src\widgets/lv_bar.c ****     }
 338:..\..\..\arduinoLCD\test\Pain Drain\libraries\lvgl\src\widgets/lv_bar.c **** 
 339:..\..\..\arduinoLCD\test\Pain Drain\libraries\lvgl\src\widgets/lv_bar.c ****     lv_base_dir_t base_dir = lv_obj_get_style_base_dir(obj, LV_PART_MAIN);
 340:..\..\..\arduinoLCD\test\Pain Drain\libraries\lvgl\src\widgets/lv_bar.c ****     if(hor && base_dir == LV_BASE_DIR_RTL) {
 341:..\..\..\arduinoLCD\test\Pain Drain\libraries\lvgl\src\widgets/lv_bar.c ****         /*Swap axes*/
 342:..\..\..\arduinoLCD\test\Pain Drain\libraries\lvgl\src\widgets/lv_bar.c ****         lv_coord_t * tmp;
 343:..\..\..\arduinoLCD\test\Pain Drain\libraries\lvgl\src\widgets/lv_bar.c ****         tmp = axis1;
 344:..\..\..\arduinoLCD\test\Pain Drain\libraries\lvgl\src\widgets/lv_bar.c ****         axis1 = axis2;
 345:..\..\..\arduinoLCD\test\Pain Drain\libraries\lvgl\src\widgets/lv_bar.c ****         axis2 = tmp;
 346:..\..\..\arduinoLCD\test\Pain Drain\libraries\lvgl\src\widgets/lv_bar.c ****         anim_cur_value_x = -anim_cur_value_x;
 347:..\..\..\arduinoLCD\test\Pain Drain\libraries\lvgl\src\widgets/lv_bar.c ****         anim_start_value_x = -anim_start_value_x;
 348:..\..\..\arduinoLCD\test\Pain Drain\libraries\lvgl\src\widgets/lv_bar.c ****     }
 349:..\..\..\arduinoLCD\test\Pain Drain\libraries\lvgl\src\widgets/lv_bar.c **** 
 350:..\..\..\arduinoLCD\test\Pain Drain\libraries\lvgl\src\widgets/lv_bar.c ****     /*Set the indicator length*/
 351:..\..\..\arduinoLCD\test\Pain Drain\libraries\lvgl\src\widgets/lv_bar.c ****     if(hor) {
ARM GAS  C:\Users\haske\AppData\Local\Temp\cc11ZRIl.s 			page 11


 352:..\..\..\arduinoLCD\test\Pain Drain\libraries\lvgl\src\widgets/lv_bar.c ****         *axis2 = *axis1 + anim_cur_value_x;
 353:..\..\..\arduinoLCD\test\Pain Drain\libraries\lvgl\src\widgets/lv_bar.c ****         *axis1 += anim_start_value_x;
 354:..\..\..\arduinoLCD\test\Pain Drain\libraries\lvgl\src\widgets/lv_bar.c ****     }
 355:..\..\..\arduinoLCD\test\Pain Drain\libraries\lvgl\src\widgets/lv_bar.c ****     else {
 356:..\..\..\arduinoLCD\test\Pain Drain\libraries\lvgl\src\widgets/lv_bar.c ****         *axis1 = *axis2 - anim_cur_value_x + 1;
 357:..\..\..\arduinoLCD\test\Pain Drain\libraries\lvgl\src\widgets/lv_bar.c ****         *axis2 -= anim_start_value_x;
 358:..\..\..\arduinoLCD\test\Pain Drain\libraries\lvgl\src\widgets/lv_bar.c ****     }
 359:..\..\..\arduinoLCD\test\Pain Drain\libraries\lvgl\src\widgets/lv_bar.c ****     if(sym) {
 360:..\..\..\arduinoLCD\test\Pain Drain\libraries\lvgl\src\widgets/lv_bar.c ****         lv_coord_t zero, shift;
 361:..\..\..\arduinoLCD\test\Pain Drain\libraries\lvgl\src\widgets/lv_bar.c ****         shift = (-bar->min_value * anim_length) / range;
 362:..\..\..\arduinoLCD\test\Pain Drain\libraries\lvgl\src\widgets/lv_bar.c ****         if(hor) {
 363:..\..\..\arduinoLCD\test\Pain Drain\libraries\lvgl\src\widgets/lv_bar.c ****             zero = *axis1 + shift;
 364:..\..\..\arduinoLCD\test\Pain Drain\libraries\lvgl\src\widgets/lv_bar.c ****             if(*axis2 > zero)
 365:..\..\..\arduinoLCD\test\Pain Drain\libraries\lvgl\src\widgets/lv_bar.c ****                 *axis1 = zero;
 366:..\..\..\arduinoLCD\test\Pain Drain\libraries\lvgl\src\widgets/lv_bar.c ****             else {
 367:..\..\..\arduinoLCD\test\Pain Drain\libraries\lvgl\src\widgets/lv_bar.c ****                 *axis1 = *axis2;
 368:..\..\..\arduinoLCD\test\Pain Drain\libraries\lvgl\src\widgets/lv_bar.c ****                 *axis2 = zero;
 369:..\..\..\arduinoLCD\test\Pain Drain\libraries\lvgl\src\widgets/lv_bar.c ****             }
 370:..\..\..\arduinoLCD\test\Pain Drain\libraries\lvgl\src\widgets/lv_bar.c ****         }
 371:..\..\..\arduinoLCD\test\Pain Drain\libraries\lvgl\src\widgets/lv_bar.c ****         else {
 372:..\..\..\arduinoLCD\test\Pain Drain\libraries\lvgl\src\widgets/lv_bar.c ****             zero = *axis2 - shift + 1;
 373:..\..\..\arduinoLCD\test\Pain Drain\libraries\lvgl\src\widgets/lv_bar.c ****             if(*axis1 > zero)
 374:..\..\..\arduinoLCD\test\Pain Drain\libraries\lvgl\src\widgets/lv_bar.c ****                 *axis2 = zero;
 375:..\..\..\arduinoLCD\test\Pain Drain\libraries\lvgl\src\widgets/lv_bar.c ****             else {
 376:..\..\..\arduinoLCD\test\Pain Drain\libraries\lvgl\src\widgets/lv_bar.c ****                 *axis2 = *axis1;
 377:..\..\..\arduinoLCD\test\Pain Drain\libraries\lvgl\src\widgets/lv_bar.c ****                 *axis1 = zero;
 378:..\..\..\arduinoLCD\test\Pain Drain\libraries\lvgl\src\widgets/lv_bar.c ****             }
 379:..\..\..\arduinoLCD\test\Pain Drain\libraries\lvgl\src\widgets/lv_bar.c ****             if(*axis2 < *axis1) {
 380:..\..\..\arduinoLCD\test\Pain Drain\libraries\lvgl\src\widgets/lv_bar.c ****                 /*swap*/
 381:..\..\..\arduinoLCD\test\Pain Drain\libraries\lvgl\src\widgets/lv_bar.c ****                 zero = *axis1;
 382:..\..\..\arduinoLCD\test\Pain Drain\libraries\lvgl\src\widgets/lv_bar.c ****                 *axis1 = *axis2;
 383:..\..\..\arduinoLCD\test\Pain Drain\libraries\lvgl\src\widgets/lv_bar.c ****                 *axis2 = zero;
 384:..\..\..\arduinoLCD\test\Pain Drain\libraries\lvgl\src\widgets/lv_bar.c ****             }
 385:..\..\..\arduinoLCD\test\Pain Drain\libraries\lvgl\src\widgets/lv_bar.c ****         }
 386:..\..\..\arduinoLCD\test\Pain Drain\libraries\lvgl\src\widgets/lv_bar.c ****     }
 387:..\..\..\arduinoLCD\test\Pain Drain\libraries\lvgl\src\widgets/lv_bar.c **** 
 388:..\..\..\arduinoLCD\test\Pain Drain\libraries\lvgl\src\widgets/lv_bar.c ****     /*Do not draw a zero length indicator but at least call the draw part events*/
 389:..\..\..\arduinoLCD\test\Pain Drain\libraries\lvgl\src\widgets/lv_bar.c ****     if(!sym && indic_length_calc(&bar->indic_area) <= 1) {
 390:..\..\..\arduinoLCD\test\Pain Drain\libraries\lvgl\src\widgets/lv_bar.c **** 
 391:..\..\..\arduinoLCD\test\Pain Drain\libraries\lvgl\src\widgets/lv_bar.c ****         lv_obj_draw_part_dsc_t part_draw_dsc;
 392:..\..\..\arduinoLCD\test\Pain Drain\libraries\lvgl\src\widgets/lv_bar.c ****         lv_obj_draw_dsc_init(&part_draw_dsc, draw_ctx);
 393:..\..\..\arduinoLCD\test\Pain Drain\libraries\lvgl\src\widgets/lv_bar.c ****         part_draw_dsc.part = LV_PART_INDICATOR;
 394:..\..\..\arduinoLCD\test\Pain Drain\libraries\lvgl\src\widgets/lv_bar.c ****         part_draw_dsc.class_p = MY_CLASS;
 395:..\..\..\arduinoLCD\test\Pain Drain\libraries\lvgl\src\widgets/lv_bar.c ****         part_draw_dsc.type = LV_BAR_DRAW_PART_INDICATOR;
 396:..\..\..\arduinoLCD\test\Pain Drain\libraries\lvgl\src\widgets/lv_bar.c ****         part_draw_dsc.draw_area = &bar->indic_area;
 397:..\..\..\arduinoLCD\test\Pain Drain\libraries\lvgl\src\widgets/lv_bar.c **** 
 398:..\..\..\arduinoLCD\test\Pain Drain\libraries\lvgl\src\widgets/lv_bar.c ****         lv_event_send(obj, LV_EVENT_DRAW_PART_BEGIN, &part_draw_dsc);
 399:..\..\..\arduinoLCD\test\Pain Drain\libraries\lvgl\src\widgets/lv_bar.c ****         lv_event_send(obj, LV_EVENT_DRAW_PART_END, &part_draw_dsc);
 400:..\..\..\arduinoLCD\test\Pain Drain\libraries\lvgl\src\widgets/lv_bar.c ****         return;
 401:..\..\..\arduinoLCD\test\Pain Drain\libraries\lvgl\src\widgets/lv_bar.c ****     }
 402:..\..\..\arduinoLCD\test\Pain Drain\libraries\lvgl\src\widgets/lv_bar.c **** 
 403:..\..\..\arduinoLCD\test\Pain Drain\libraries\lvgl\src\widgets/lv_bar.c ****     lv_area_t indic_area;
 404:..\..\..\arduinoLCD\test\Pain Drain\libraries\lvgl\src\widgets/lv_bar.c ****     lv_area_copy(&indic_area, &bar->indic_area);
 405:..\..\..\arduinoLCD\test\Pain Drain\libraries\lvgl\src\widgets/lv_bar.c **** 
 406:..\..\..\arduinoLCD\test\Pain Drain\libraries\lvgl\src\widgets/lv_bar.c ****     lv_draw_rect_dsc_t draw_rect_dsc;
 407:..\..\..\arduinoLCD\test\Pain Drain\libraries\lvgl\src\widgets/lv_bar.c ****     lv_draw_rect_dsc_init(&draw_rect_dsc);
 408:..\..\..\arduinoLCD\test\Pain Drain\libraries\lvgl\src\widgets/lv_bar.c ****     lv_obj_init_draw_rect_dsc(obj, LV_PART_INDICATOR, &draw_rect_dsc);
ARM GAS  C:\Users\haske\AppData\Local\Temp\cc11ZRIl.s 			page 12


 409:..\..\..\arduinoLCD\test\Pain Drain\libraries\lvgl\src\widgets/lv_bar.c **** 
 410:..\..\..\arduinoLCD\test\Pain Drain\libraries\lvgl\src\widgets/lv_bar.c ****     lv_obj_draw_part_dsc_t part_draw_dsc;
 411:..\..\..\arduinoLCD\test\Pain Drain\libraries\lvgl\src\widgets/lv_bar.c ****     lv_obj_draw_dsc_init(&part_draw_dsc, draw_ctx);
 412:..\..\..\arduinoLCD\test\Pain Drain\libraries\lvgl\src\widgets/lv_bar.c ****     part_draw_dsc.part = LV_PART_INDICATOR;
 413:..\..\..\arduinoLCD\test\Pain Drain\libraries\lvgl\src\widgets/lv_bar.c ****     part_draw_dsc.class_p = MY_CLASS;
 414:..\..\..\arduinoLCD\test\Pain Drain\libraries\lvgl\src\widgets/lv_bar.c ****     part_draw_dsc.type = LV_BAR_DRAW_PART_INDICATOR;
 415:..\..\..\arduinoLCD\test\Pain Drain\libraries\lvgl\src\widgets/lv_bar.c ****     part_draw_dsc.rect_dsc = &draw_rect_dsc;
 416:..\..\..\arduinoLCD\test\Pain Drain\libraries\lvgl\src\widgets/lv_bar.c ****     part_draw_dsc.draw_area = &bar->indic_area;
 417:..\..\..\arduinoLCD\test\Pain Drain\libraries\lvgl\src\widgets/lv_bar.c **** 
 418:..\..\..\arduinoLCD\test\Pain Drain\libraries\lvgl\src\widgets/lv_bar.c ****     lv_event_send(obj, LV_EVENT_DRAW_PART_BEGIN, &part_draw_dsc);
 419:..\..\..\arduinoLCD\test\Pain Drain\libraries\lvgl\src\widgets/lv_bar.c **** 
 420:..\..\..\arduinoLCD\test\Pain Drain\libraries\lvgl\src\widgets/lv_bar.c ****     lv_coord_t bg_radius = lv_obj_get_style_radius(obj, LV_PART_MAIN);
 421:..\..\..\arduinoLCD\test\Pain Drain\libraries\lvgl\src\widgets/lv_bar.c ****     lv_coord_t short_side = LV_MIN(barw, barh);
 422:..\..\..\arduinoLCD\test\Pain Drain\libraries\lvgl\src\widgets/lv_bar.c ****     if(bg_radius > short_side >> 1) bg_radius = short_side >> 1;
 423:..\..\..\arduinoLCD\test\Pain Drain\libraries\lvgl\src\widgets/lv_bar.c **** 
 424:..\..\..\arduinoLCD\test\Pain Drain\libraries\lvgl\src\widgets/lv_bar.c ****     lv_coord_t indic_radius = draw_rect_dsc.radius;
 425:..\..\..\arduinoLCD\test\Pain Drain\libraries\lvgl\src\widgets/lv_bar.c ****     short_side = LV_MIN(indicw, indich);
 426:..\..\..\arduinoLCD\test\Pain Drain\libraries\lvgl\src\widgets/lv_bar.c ****     if(indic_radius > short_side >> 1) indic_radius = short_side >> 1;
 427:..\..\..\arduinoLCD\test\Pain Drain\libraries\lvgl\src\widgets/lv_bar.c **** 
 428:..\..\..\arduinoLCD\test\Pain Drain\libraries\lvgl\src\widgets/lv_bar.c ****     /*Draw only the shadow and outline only if the indicator is long enough.
 429:..\..\..\arduinoLCD\test\Pain Drain\libraries\lvgl\src\widgets/lv_bar.c ****      *The radius of the bg and the indicator can make a strange shape where
 430:..\..\..\arduinoLCD\test\Pain Drain\libraries\lvgl\src\widgets/lv_bar.c ****      *it'd be very difficult to draw shadow.*/
 431:..\..\..\arduinoLCD\test\Pain Drain\libraries\lvgl\src\widgets/lv_bar.c ****     if((hor && lv_area_get_width(&bar->indic_area) > indic_radius * 2) ||
 432:..\..\..\arduinoLCD\test\Pain Drain\libraries\lvgl\src\widgets/lv_bar.c ****        (!hor && lv_area_get_height(&bar->indic_area) > indic_radius * 2)) {
 433:..\..\..\arduinoLCD\test\Pain Drain\libraries\lvgl\src\widgets/lv_bar.c ****         lv_opa_t bg_opa = draw_rect_dsc.bg_opa;
 434:..\..\..\arduinoLCD\test\Pain Drain\libraries\lvgl\src\widgets/lv_bar.c ****         lv_opa_t bg_img_opa = draw_rect_dsc.bg_img_opa;
 435:..\..\..\arduinoLCD\test\Pain Drain\libraries\lvgl\src\widgets/lv_bar.c ****         lv_opa_t border_opa = draw_rect_dsc.border_opa;
 436:..\..\..\arduinoLCD\test\Pain Drain\libraries\lvgl\src\widgets/lv_bar.c ****         draw_rect_dsc.bg_opa = LV_OPA_TRANSP;
 437:..\..\..\arduinoLCD\test\Pain Drain\libraries\lvgl\src\widgets/lv_bar.c ****         draw_rect_dsc.bg_img_opa = LV_OPA_TRANSP;
 438:..\..\..\arduinoLCD\test\Pain Drain\libraries\lvgl\src\widgets/lv_bar.c ****         draw_rect_dsc.border_opa = LV_OPA_TRANSP;
 439:..\..\..\arduinoLCD\test\Pain Drain\libraries\lvgl\src\widgets/lv_bar.c **** 
 440:..\..\..\arduinoLCD\test\Pain Drain\libraries\lvgl\src\widgets/lv_bar.c ****         lv_draw_rect(draw_ctx, &draw_rect_dsc, &bar->indic_area);
 441:..\..\..\arduinoLCD\test\Pain Drain\libraries\lvgl\src\widgets/lv_bar.c **** 
 442:..\..\..\arduinoLCD\test\Pain Drain\libraries\lvgl\src\widgets/lv_bar.c ****         draw_rect_dsc.bg_opa = bg_opa;
 443:..\..\..\arduinoLCD\test\Pain Drain\libraries\lvgl\src\widgets/lv_bar.c ****         draw_rect_dsc.bg_img_opa = bg_img_opa;
 444:..\..\..\arduinoLCD\test\Pain Drain\libraries\lvgl\src\widgets/lv_bar.c ****         draw_rect_dsc.border_opa = border_opa;
 445:..\..\..\arduinoLCD\test\Pain Drain\libraries\lvgl\src\widgets/lv_bar.c ****     }
 446:..\..\..\arduinoLCD\test\Pain Drain\libraries\lvgl\src\widgets/lv_bar.c **** 
 447:..\..\..\arduinoLCD\test\Pain Drain\libraries\lvgl\src\widgets/lv_bar.c **** #if LV_DRAW_COMPLEX
 448:..\..\..\arduinoLCD\test\Pain Drain\libraries\lvgl\src\widgets/lv_bar.c ****     lv_draw_mask_radius_param_t mask_bg_param;
 449:..\..\..\arduinoLCD\test\Pain Drain\libraries\lvgl\src\widgets/lv_bar.c ****     lv_area_t bg_mask_area;
 450:..\..\..\arduinoLCD\test\Pain Drain\libraries\lvgl\src\widgets/lv_bar.c ****     bg_mask_area.x1 = obj->coords.x1 + bg_left;
 451:..\..\..\arduinoLCD\test\Pain Drain\libraries\lvgl\src\widgets/lv_bar.c ****     bg_mask_area.x2 = obj->coords.x2 - bg_right;
 452:..\..\..\arduinoLCD\test\Pain Drain\libraries\lvgl\src\widgets/lv_bar.c ****     bg_mask_area.y1 = obj->coords.y1 + bg_top;
 453:..\..\..\arduinoLCD\test\Pain Drain\libraries\lvgl\src\widgets/lv_bar.c ****     bg_mask_area.y2 = obj->coords.y2 - bg_bottom;
 454:..\..\..\arduinoLCD\test\Pain Drain\libraries\lvgl\src\widgets/lv_bar.c **** 
 455:..\..\..\arduinoLCD\test\Pain Drain\libraries\lvgl\src\widgets/lv_bar.c ****     lv_draw_mask_radius_init(&mask_bg_param, &bg_mask_area, bg_radius, false);
 456:..\..\..\arduinoLCD\test\Pain Drain\libraries\lvgl\src\widgets/lv_bar.c ****     lv_coord_t mask_bg_id = lv_draw_mask_add(&mask_bg_param, NULL);
 457:..\..\..\arduinoLCD\test\Pain Drain\libraries\lvgl\src\widgets/lv_bar.c **** #endif
 458:..\..\..\arduinoLCD\test\Pain Drain\libraries\lvgl\src\widgets/lv_bar.c **** 
 459:..\..\..\arduinoLCD\test\Pain Drain\libraries\lvgl\src\widgets/lv_bar.c ****     /*Draw_only the background and background image*/
 460:..\..\..\arduinoLCD\test\Pain Drain\libraries\lvgl\src\widgets/lv_bar.c ****     lv_opa_t shadow_opa = draw_rect_dsc.shadow_opa;
 461:..\..\..\arduinoLCD\test\Pain Drain\libraries\lvgl\src\widgets/lv_bar.c ****     lv_opa_t border_opa = draw_rect_dsc.border_opa;
 462:..\..\..\arduinoLCD\test\Pain Drain\libraries\lvgl\src\widgets/lv_bar.c ****     draw_rect_dsc.border_opa = LV_OPA_TRANSP;
 463:..\..\..\arduinoLCD\test\Pain Drain\libraries\lvgl\src\widgets/lv_bar.c ****     draw_rect_dsc.shadow_opa = LV_OPA_TRANSP;
 464:..\..\..\arduinoLCD\test\Pain Drain\libraries\lvgl\src\widgets/lv_bar.c **** 
 465:..\..\..\arduinoLCD\test\Pain Drain\libraries\lvgl\src\widgets/lv_bar.c ****     /*Get the max possible indicator area. The gradient should be applied on this*/
ARM GAS  C:\Users\haske\AppData\Local\Temp\cc11ZRIl.s 			page 13


 466:..\..\..\arduinoLCD\test\Pain Drain\libraries\lvgl\src\widgets/lv_bar.c ****     lv_area_t mask_indic_max_area;
 467:..\..\..\arduinoLCD\test\Pain Drain\libraries\lvgl\src\widgets/lv_bar.c ****     lv_area_copy(&mask_indic_max_area, &bar_coords);
 468:..\..\..\arduinoLCD\test\Pain Drain\libraries\lvgl\src\widgets/lv_bar.c ****     mask_indic_max_area.x1 += bg_left;
 469:..\..\..\arduinoLCD\test\Pain Drain\libraries\lvgl\src\widgets/lv_bar.c ****     mask_indic_max_area.y1 += bg_top;
 470:..\..\..\arduinoLCD\test\Pain Drain\libraries\lvgl\src\widgets/lv_bar.c ****     mask_indic_max_area.x2 -= bg_right;
 471:..\..\..\arduinoLCD\test\Pain Drain\libraries\lvgl\src\widgets/lv_bar.c ****     mask_indic_max_area.y2 -= bg_bottom;
 472:..\..\..\arduinoLCD\test\Pain Drain\libraries\lvgl\src\widgets/lv_bar.c ****     if(hor && lv_area_get_height(&mask_indic_max_area) < LV_BAR_SIZE_MIN) {
 473:..\..\..\arduinoLCD\test\Pain Drain\libraries\lvgl\src\widgets/lv_bar.c ****         mask_indic_max_area.y1 = obj->coords.y1 + (barh / 2) - (LV_BAR_SIZE_MIN / 2);
 474:..\..\..\arduinoLCD\test\Pain Drain\libraries\lvgl\src\widgets/lv_bar.c ****         mask_indic_max_area.y2 = mask_indic_max_area.y1 + LV_BAR_SIZE_MIN;
 475:..\..\..\arduinoLCD\test\Pain Drain\libraries\lvgl\src\widgets/lv_bar.c ****     }
 476:..\..\..\arduinoLCD\test\Pain Drain\libraries\lvgl\src\widgets/lv_bar.c ****     else if(!hor && lv_area_get_width(&mask_indic_max_area) < LV_BAR_SIZE_MIN) {
 477:..\..\..\arduinoLCD\test\Pain Drain\libraries\lvgl\src\widgets/lv_bar.c ****         mask_indic_max_area.x1 = obj->coords.x1 + (barw / 2) - (LV_BAR_SIZE_MIN / 2);
 478:..\..\..\arduinoLCD\test\Pain Drain\libraries\lvgl\src\widgets/lv_bar.c ****         mask_indic_max_area.x2 = mask_indic_max_area.x1 + LV_BAR_SIZE_MIN;
 479:..\..\..\arduinoLCD\test\Pain Drain\libraries\lvgl\src\widgets/lv_bar.c ****     }
 480:..\..\..\arduinoLCD\test\Pain Drain\libraries\lvgl\src\widgets/lv_bar.c **** 
 481:..\..\..\arduinoLCD\test\Pain Drain\libraries\lvgl\src\widgets/lv_bar.c **** #if LV_DRAW_COMPLEX
 482:..\..\..\arduinoLCD\test\Pain Drain\libraries\lvgl\src\widgets/lv_bar.c ****     /*Create a mask to the current indicator area to see only this part from the whole gradient.*/
 483:..\..\..\arduinoLCD\test\Pain Drain\libraries\lvgl\src\widgets/lv_bar.c ****     lv_draw_mask_radius_param_t mask_indic_param;
 484:..\..\..\arduinoLCD\test\Pain Drain\libraries\lvgl\src\widgets/lv_bar.c ****     lv_draw_mask_radius_init(&mask_indic_param, &bar->indic_area, draw_rect_dsc.radius, false);
 485:..\..\..\arduinoLCD\test\Pain Drain\libraries\lvgl\src\widgets/lv_bar.c ****     int16_t mask_indic_id = lv_draw_mask_add(&mask_indic_param, NULL);
 486:..\..\..\arduinoLCD\test\Pain Drain\libraries\lvgl\src\widgets/lv_bar.c **** #endif
 487:..\..\..\arduinoLCD\test\Pain Drain\libraries\lvgl\src\widgets/lv_bar.c **** 
 488:..\..\..\arduinoLCD\test\Pain Drain\libraries\lvgl\src\widgets/lv_bar.c ****     lv_draw_rect(draw_ctx, &draw_rect_dsc, &mask_indic_max_area);
 489:..\..\..\arduinoLCD\test\Pain Drain\libraries\lvgl\src\widgets/lv_bar.c ****     draw_rect_dsc.border_opa = border_opa;
 490:..\..\..\arduinoLCD\test\Pain Drain\libraries\lvgl\src\widgets/lv_bar.c ****     draw_rect_dsc.shadow_opa = shadow_opa;
 491:..\..\..\arduinoLCD\test\Pain Drain\libraries\lvgl\src\widgets/lv_bar.c **** 
 492:..\..\..\arduinoLCD\test\Pain Drain\libraries\lvgl\src\widgets/lv_bar.c ****     /*Draw the border*/
 493:..\..\..\arduinoLCD\test\Pain Drain\libraries\lvgl\src\widgets/lv_bar.c ****     draw_rect_dsc.bg_opa = LV_OPA_TRANSP;
 494:..\..\..\arduinoLCD\test\Pain Drain\libraries\lvgl\src\widgets/lv_bar.c ****     draw_rect_dsc.bg_img_opa = LV_OPA_TRANSP;
 495:..\..\..\arduinoLCD\test\Pain Drain\libraries\lvgl\src\widgets/lv_bar.c ****     draw_rect_dsc.shadow_opa = LV_OPA_TRANSP;
 496:..\..\..\arduinoLCD\test\Pain Drain\libraries\lvgl\src\widgets/lv_bar.c ****     lv_draw_rect(draw_ctx, &draw_rect_dsc, &bar->indic_area);
 497:..\..\..\arduinoLCD\test\Pain Drain\libraries\lvgl\src\widgets/lv_bar.c **** 
 498:..\..\..\arduinoLCD\test\Pain Drain\libraries\lvgl\src\widgets/lv_bar.c **** #if LV_DRAW_COMPLEX
 499:..\..\..\arduinoLCD\test\Pain Drain\libraries\lvgl\src\widgets/lv_bar.c ****     lv_draw_mask_free_param(&mask_indic_param);
 500:..\..\..\arduinoLCD\test\Pain Drain\libraries\lvgl\src\widgets/lv_bar.c ****     lv_draw_mask_free_param(&mask_bg_param);
 501:..\..\..\arduinoLCD\test\Pain Drain\libraries\lvgl\src\widgets/lv_bar.c ****     lv_draw_mask_remove_id(mask_indic_id);
 502:..\..\..\arduinoLCD\test\Pain Drain\libraries\lvgl\src\widgets/lv_bar.c ****     lv_draw_mask_remove_id(mask_bg_id);
 503:..\..\..\arduinoLCD\test\Pain Drain\libraries\lvgl\src\widgets/lv_bar.c **** #endif
 504:..\..\..\arduinoLCD\test\Pain Drain\libraries\lvgl\src\widgets/lv_bar.c **** 
 505:..\..\..\arduinoLCD\test\Pain Drain\libraries\lvgl\src\widgets/lv_bar.c ****     lv_event_send(obj, LV_EVENT_DRAW_PART_END, &part_draw_dsc);
 506:..\..\..\arduinoLCD\test\Pain Drain\libraries\lvgl\src\widgets/lv_bar.c **** }
 507:..\..\..\arduinoLCD\test\Pain Drain\libraries\lvgl\src\widgets/lv_bar.c **** 
 508:..\..\..\arduinoLCD\test\Pain Drain\libraries\lvgl\src\widgets/lv_bar.c **** static void lv_bar_event(const lv_obj_class_t * class_p, lv_event_t * e)
 509:..\..\..\arduinoLCD\test\Pain Drain\libraries\lvgl\src\widgets/lv_bar.c **** {
 510:..\..\..\arduinoLCD\test\Pain Drain\libraries\lvgl\src\widgets/lv_bar.c ****     LV_UNUSED(class_p);
 511:..\..\..\arduinoLCD\test\Pain Drain\libraries\lvgl\src\widgets/lv_bar.c **** 
 512:..\..\..\arduinoLCD\test\Pain Drain\libraries\lvgl\src\widgets/lv_bar.c ****     lv_res_t res;
 513:..\..\..\arduinoLCD\test\Pain Drain\libraries\lvgl\src\widgets/lv_bar.c **** 
 514:..\..\..\arduinoLCD\test\Pain Drain\libraries\lvgl\src\widgets/lv_bar.c ****     /*Call the ancestor's event handler*/
 515:..\..\..\arduinoLCD\test\Pain Drain\libraries\lvgl\src\widgets/lv_bar.c ****     res = lv_obj_event_base(MY_CLASS, e);
 516:..\..\..\arduinoLCD\test\Pain Drain\libraries\lvgl\src\widgets/lv_bar.c ****     if(res != LV_RES_OK) return;
 517:..\..\..\arduinoLCD\test\Pain Drain\libraries\lvgl\src\widgets/lv_bar.c **** 
 518:..\..\..\arduinoLCD\test\Pain Drain\libraries\lvgl\src\widgets/lv_bar.c ****     lv_event_code_t code = lv_event_get_code(e);
 519:..\..\..\arduinoLCD\test\Pain Drain\libraries\lvgl\src\widgets/lv_bar.c ****     lv_obj_t * obj = lv_event_get_target(e);
 520:..\..\..\arduinoLCD\test\Pain Drain\libraries\lvgl\src\widgets/lv_bar.c **** 
 521:..\..\..\arduinoLCD\test\Pain Drain\libraries\lvgl\src\widgets/lv_bar.c ****     if(code == LV_EVENT_REFR_EXT_DRAW_SIZE) {
 522:..\..\..\arduinoLCD\test\Pain Drain\libraries\lvgl\src\widgets/lv_bar.c ****         lv_coord_t indic_size;
ARM GAS  C:\Users\haske\AppData\Local\Temp\cc11ZRIl.s 			page 14


 523:..\..\..\arduinoLCD\test\Pain Drain\libraries\lvgl\src\widgets/lv_bar.c ****         indic_size = lv_obj_calculate_ext_draw_size(obj, LV_PART_INDICATOR);
 524:..\..\..\arduinoLCD\test\Pain Drain\libraries\lvgl\src\widgets/lv_bar.c **** 
 525:..\..\..\arduinoLCD\test\Pain Drain\libraries\lvgl\src\widgets/lv_bar.c ****         /*Bg size is handled by lv_obj*/
 526:..\..\..\arduinoLCD\test\Pain Drain\libraries\lvgl\src\widgets/lv_bar.c ****         lv_coord_t * s = lv_event_get_param(e);
 527:..\..\..\arduinoLCD\test\Pain Drain\libraries\lvgl\src\widgets/lv_bar.c ****         *s = LV_MAX(*s, indic_size);
 528:..\..\..\arduinoLCD\test\Pain Drain\libraries\lvgl\src\widgets/lv_bar.c **** 
 529:..\..\..\arduinoLCD\test\Pain Drain\libraries\lvgl\src\widgets/lv_bar.c ****         /*Calculate the indicator area*/
 530:..\..\..\arduinoLCD\test\Pain Drain\libraries\lvgl\src\widgets/lv_bar.c ****         lv_coord_t bg_left = lv_obj_get_style_pad_left(obj, LV_PART_MAIN);
 531:..\..\..\arduinoLCD\test\Pain Drain\libraries\lvgl\src\widgets/lv_bar.c ****         lv_coord_t bg_right = lv_obj_get_style_pad_right(obj, LV_PART_MAIN);
 532:..\..\..\arduinoLCD\test\Pain Drain\libraries\lvgl\src\widgets/lv_bar.c ****         lv_coord_t bg_top = lv_obj_get_style_pad_top(obj, LV_PART_MAIN);
 533:..\..\..\arduinoLCD\test\Pain Drain\libraries\lvgl\src\widgets/lv_bar.c ****         lv_coord_t bg_bottom = lv_obj_get_style_pad_bottom(obj, LV_PART_MAIN);
 534:..\..\..\arduinoLCD\test\Pain Drain\libraries\lvgl\src\widgets/lv_bar.c **** 
 535:..\..\..\arduinoLCD\test\Pain Drain\libraries\lvgl\src\widgets/lv_bar.c ****         lv_coord_t pad = LV_MIN4(bg_left, bg_right, bg_top, bg_bottom);
 536:..\..\..\arduinoLCD\test\Pain Drain\libraries\lvgl\src\widgets/lv_bar.c ****         if(pad < 0) {
 537:..\..\..\arduinoLCD\test\Pain Drain\libraries\lvgl\src\widgets/lv_bar.c ****             *s = LV_MAX(*s, -pad);
 538:..\..\..\arduinoLCD\test\Pain Drain\libraries\lvgl\src\widgets/lv_bar.c ****         }
 539:..\..\..\arduinoLCD\test\Pain Drain\libraries\lvgl\src\widgets/lv_bar.c ****     }
 540:..\..\..\arduinoLCD\test\Pain Drain\libraries\lvgl\src\widgets/lv_bar.c ****     else if(code == LV_EVENT_PRESSED || code == LV_EVENT_RELEASED) {
 541:..\..\..\arduinoLCD\test\Pain Drain\libraries\lvgl\src\widgets/lv_bar.c ****         lv_bar_t * bar = (lv_bar_t *)obj;
 542:..\..\..\arduinoLCD\test\Pain Drain\libraries\lvgl\src\widgets/lv_bar.c ****         lv_obj_invalidate_area(obj, &bar->indic_area);
 543:..\..\..\arduinoLCD\test\Pain Drain\libraries\lvgl\src\widgets/lv_bar.c ****     }
 544:..\..\..\arduinoLCD\test\Pain Drain\libraries\lvgl\src\widgets/lv_bar.c ****     else if(code == LV_EVENT_DRAW_MAIN) {
 545:..\..\..\arduinoLCD\test\Pain Drain\libraries\lvgl\src\widgets/lv_bar.c ****         draw_indic(e);
 546:..\..\..\arduinoLCD\test\Pain Drain\libraries\lvgl\src\widgets/lv_bar.c ****     }
 547:..\..\..\arduinoLCD\test\Pain Drain\libraries\lvgl\src\widgets/lv_bar.c **** }
 548:..\..\..\arduinoLCD\test\Pain Drain\libraries\lvgl\src\widgets/lv_bar.c **** 
 549:..\..\..\arduinoLCD\test\Pain Drain\libraries\lvgl\src\widgets/lv_bar.c **** static void lv_bar_anim(void * var, int32_t value)
 550:..\..\..\arduinoLCD\test\Pain Drain\libraries\lvgl\src\widgets/lv_bar.c **** {
 551:..\..\..\arduinoLCD\test\Pain Drain\libraries\lvgl\src\widgets/lv_bar.c ****     _lv_bar_anim_t * bar_anim = var;
 552:..\..\..\arduinoLCD\test\Pain Drain\libraries\lvgl\src\widgets/lv_bar.c ****     bar_anim->anim_state    = value;
 553:..\..\..\arduinoLCD\test\Pain Drain\libraries\lvgl\src\widgets/lv_bar.c ****     lv_obj_invalidate(bar_anim->bar);
 554:..\..\..\arduinoLCD\test\Pain Drain\libraries\lvgl\src\widgets/lv_bar.c **** }
 555:..\..\..\arduinoLCD\test\Pain Drain\libraries\lvgl\src\widgets/lv_bar.c **** 
 556:..\..\..\arduinoLCD\test\Pain Drain\libraries\lvgl\src\widgets/lv_bar.c **** static void lv_bar_anim_ready(lv_anim_t * a)
 557:..\..\..\arduinoLCD\test\Pain Drain\libraries\lvgl\src\widgets/lv_bar.c **** {
 558:..\..\..\arduinoLCD\test\Pain Drain\libraries\lvgl\src\widgets/lv_bar.c ****     _lv_bar_anim_t * var = a->var;
 559:..\..\..\arduinoLCD\test\Pain Drain\libraries\lvgl\src\widgets/lv_bar.c ****     lv_obj_t * obj = (lv_obj_t *)var->bar;
 560:..\..\..\arduinoLCD\test\Pain Drain\libraries\lvgl\src\widgets/lv_bar.c ****     lv_bar_t * bar = (lv_bar_t *)obj;
 561:..\..\..\arduinoLCD\test\Pain Drain\libraries\lvgl\src\widgets/lv_bar.c **** 
 562:..\..\..\arduinoLCD\test\Pain Drain\libraries\lvgl\src\widgets/lv_bar.c ****     var->anim_state = LV_BAR_ANIM_STATE_INV;
 563:..\..\..\arduinoLCD\test\Pain Drain\libraries\lvgl\src\widgets/lv_bar.c ****     if(var == &bar->cur_value_anim)
 564:..\..\..\arduinoLCD\test\Pain Drain\libraries\lvgl\src\widgets/lv_bar.c ****         bar->cur_value = var->anim_end;
 565:..\..\..\arduinoLCD\test\Pain Drain\libraries\lvgl\src\widgets/lv_bar.c ****     else if(var == &bar->start_value_anim)
 566:..\..\..\arduinoLCD\test\Pain Drain\libraries\lvgl\src\widgets/lv_bar.c ****         bar->start_value = var->anim_end;
 567:..\..\..\arduinoLCD\test\Pain Drain\libraries\lvgl\src\widgets/lv_bar.c ****     lv_obj_invalidate(var->bar);
 568:..\..\..\arduinoLCD\test\Pain Drain\libraries\lvgl\src\widgets/lv_bar.c **** }
 569:..\..\..\arduinoLCD\test\Pain Drain\libraries\lvgl\src\widgets/lv_bar.c **** 
 570:..\..\..\arduinoLCD\test\Pain Drain\libraries\lvgl\src\widgets/lv_bar.c **** static void lv_bar_set_value_with_anim(lv_obj_t * obj, int32_t new_value, int32_t * value_ptr,
 571:..\..\..\arduinoLCD\test\Pain Drain\libraries\lvgl\src\widgets/lv_bar.c ****                                        _lv_bar_anim_t * anim_info, lv_anim_enable_t en)
 572:..\..\..\arduinoLCD\test\Pain Drain\libraries\lvgl\src\widgets/lv_bar.c **** {
 573:..\..\..\arduinoLCD\test\Pain Drain\libraries\lvgl\src\widgets/lv_bar.c ****     if(en == LV_ANIM_OFF) {
 574:..\..\..\arduinoLCD\test\Pain Drain\libraries\lvgl\src\widgets/lv_bar.c ****         lv_anim_del(anim_info, NULL);
 575:..\..\..\arduinoLCD\test\Pain Drain\libraries\lvgl\src\widgets/lv_bar.c ****         anim_info->anim_state = LV_BAR_ANIM_STATE_INV;
 576:..\..\..\arduinoLCD\test\Pain Drain\libraries\lvgl\src\widgets/lv_bar.c ****         *value_ptr = new_value;
 577:..\..\..\arduinoLCD\test\Pain Drain\libraries\lvgl\src\widgets/lv_bar.c ****         lv_obj_invalidate((lv_obj_t *)obj);
 578:..\..\..\arduinoLCD\test\Pain Drain\libraries\lvgl\src\widgets/lv_bar.c ****     }
 579:..\..\..\arduinoLCD\test\Pain Drain\libraries\lvgl\src\widgets/lv_bar.c ****     else {
ARM GAS  C:\Users\haske\AppData\Local\Temp\cc11ZRIl.s 			page 15


 580:..\..\..\arduinoLCD\test\Pain Drain\libraries\lvgl\src\widgets/lv_bar.c ****         /*No animation in progress -> simply set the values*/
 581:..\..\..\arduinoLCD\test\Pain Drain\libraries\lvgl\src\widgets/lv_bar.c ****         if(anim_info->anim_state == LV_BAR_ANIM_STATE_INV) {
 582:..\..\..\arduinoLCD\test\Pain Drain\libraries\lvgl\src\widgets/lv_bar.c ****             anim_info->anim_start = *value_ptr;
 583:..\..\..\arduinoLCD\test\Pain Drain\libraries\lvgl\src\widgets/lv_bar.c ****             anim_info->anim_end   = new_value;
 584:..\..\..\arduinoLCD\test\Pain Drain\libraries\lvgl\src\widgets/lv_bar.c ****         }
 585:..\..\..\arduinoLCD\test\Pain Drain\libraries\lvgl\src\widgets/lv_bar.c ****         /*Animation in progress. Start from the animation end value*/
 586:..\..\..\arduinoLCD\test\Pain Drain\libraries\lvgl\src\widgets/lv_bar.c ****         else {
 587:..\..\..\arduinoLCD\test\Pain Drain\libraries\lvgl\src\widgets/lv_bar.c ****             anim_info->anim_start = anim_info->anim_end;
 588:..\..\..\arduinoLCD\test\Pain Drain\libraries\lvgl\src\widgets/lv_bar.c ****             anim_info->anim_end   = new_value;
 589:..\..\..\arduinoLCD\test\Pain Drain\libraries\lvgl\src\widgets/lv_bar.c ****         }
 590:..\..\..\arduinoLCD\test\Pain Drain\libraries\lvgl\src\widgets/lv_bar.c ****         *value_ptr = new_value;
 591:..\..\..\arduinoLCD\test\Pain Drain\libraries\lvgl\src\widgets/lv_bar.c ****         /*Stop the previous animation if it exists*/
 592:..\..\..\arduinoLCD\test\Pain Drain\libraries\lvgl\src\widgets/lv_bar.c ****         lv_anim_del(anim_info, NULL);
 593:..\..\..\arduinoLCD\test\Pain Drain\libraries\lvgl\src\widgets/lv_bar.c **** 
 594:..\..\..\arduinoLCD\test\Pain Drain\libraries\lvgl\src\widgets/lv_bar.c ****         lv_anim_t a;
 595:..\..\..\arduinoLCD\test\Pain Drain\libraries\lvgl\src\widgets/lv_bar.c ****         lv_anim_init(&a);
 596:..\..\..\arduinoLCD\test\Pain Drain\libraries\lvgl\src\widgets/lv_bar.c ****         lv_anim_set_var(&a, anim_info);
 597:..\..\..\arduinoLCD\test\Pain Drain\libraries\lvgl\src\widgets/lv_bar.c ****         lv_anim_set_exec_cb(&a, lv_bar_anim);
 598:..\..\..\arduinoLCD\test\Pain Drain\libraries\lvgl\src\widgets/lv_bar.c ****         lv_anim_set_values(&a, LV_BAR_ANIM_STATE_START, LV_BAR_ANIM_STATE_END);
 599:..\..\..\arduinoLCD\test\Pain Drain\libraries\lvgl\src\widgets/lv_bar.c ****         lv_anim_set_ready_cb(&a, lv_bar_anim_ready);
 600:..\..\..\arduinoLCD\test\Pain Drain\libraries\lvgl\src\widgets/lv_bar.c ****         lv_anim_set_time(&a, lv_obj_get_style_anim_time(obj, LV_PART_MAIN));
 601:..\..\..\arduinoLCD\test\Pain Drain\libraries\lvgl\src\widgets/lv_bar.c ****         lv_anim_start(&a);
 602:..\..\..\arduinoLCD\test\Pain Drain\libraries\lvgl\src\widgets/lv_bar.c ****     }
 603:..\..\..\arduinoLCD\test\Pain Drain\libraries\lvgl\src\widgets/lv_bar.c **** }
 604:..\..\..\arduinoLCD\test\Pain Drain\libraries\lvgl\src\widgets/lv_bar.c **** 
 605:..\..\..\arduinoLCD\test\Pain Drain\libraries\lvgl\src\widgets/lv_bar.c **** static void lv_bar_init_anim(lv_obj_t * obj, _lv_bar_anim_t * bar_anim)
 606:..\..\..\arduinoLCD\test\Pain Drain\libraries\lvgl\src\widgets/lv_bar.c **** {
  84              		.loc 2 606 0
  85              		.cfi_startproc
  86              		@ args = 0, pretend = 0, frame = 0
  87              		@ frame_needed = 0, uses_anonymous_args = 0
  88              		@ link register save eliminated.
  89              	.LVL4:
 607:..\..\..\arduinoLCD\test\Pain Drain\libraries\lvgl\src\widgets/lv_bar.c ****     bar_anim->bar = obj;
  90              		.loc 2 607 0
  91 0000 0860     		str	r0, [r1]
 608:..\..\..\arduinoLCD\test\Pain Drain\libraries\lvgl\src\widgets/lv_bar.c ****     bar_anim->anim_start = 0;
  92              		.loc 2 608 0
  93 0002 0023     		movs	r3, #0
  94 0004 4B60     		str	r3, [r1, #4]
 609:..\..\..\arduinoLCD\test\Pain Drain\libraries\lvgl\src\widgets/lv_bar.c ****     bar_anim->anim_end = 0;
  95              		.loc 2 609 0
  96 0006 8B60     		str	r3, [r1, #8]
 610:..\..\..\arduinoLCD\test\Pain Drain\libraries\lvgl\src\widgets/lv_bar.c ****     bar_anim->anim_state = LV_BAR_ANIM_STATE_INV;
  97              		.loc 2 610 0
  98 0008 013B     		subs	r3, r3, #1
  99 000a CB60     		str	r3, [r1, #12]
 611:..\..\..\arduinoLCD\test\Pain Drain\libraries\lvgl\src\widgets/lv_bar.c **** }
 100              		.loc 2 611 0
 101              		@ sp needed
 102 000c 7047     		bx	lr
 103              		.cfi_endproc
 104              	.LFE176:
 105              		.size	lv_bar_init_anim, .-lv_bar_init_anim
 106              		.global	__aeabi_idiv
 107 000e C046     		.section	.text.draw_indic,"ax",%progbits
 108              		.align	2
ARM GAS  C:\Users\haske\AppData\Local\Temp\cc11ZRIl.s 			page 16


 109              		.code	16
 110              		.thumb_func
 111              		.type	draw_indic, %function
 112              	draw_indic:
 113              	.LFB171:
 244:..\..\..\arduinoLCD\test\Pain Drain\libraries\lvgl\src\widgets/lv_bar.c ****     lv_obj_t * obj = lv_event_get_target(e);
 114              		.loc 2 244 0
 115              		.cfi_startproc
 116              		@ args = 0, pretend = 0, frame = 328
 117              		@ frame_needed = 0, uses_anonymous_args = 0
 118              	.LVL5:
 119 0000 F0B5     		push	{r4, r5, r6, r7, lr}
 120              		.cfi_def_cfa_offset 20
 121              		.cfi_offset 4, -20
 122              		.cfi_offset 5, -16
 123              		.cfi_offset 6, -12
 124              		.cfi_offset 7, -8
 125              		.cfi_offset 14, -4
 126 0002 5F46     		mov	r7, fp
 127 0004 5646     		mov	r6, r10
 128 0006 4D46     		mov	r5, r9
 129 0008 4446     		mov	r4, r8
 130 000a F0B4     		push	{r4, r5, r6, r7}
 131              		.cfi_def_cfa_offset 36
 132              		.cfi_offset 8, -36
 133              		.cfi_offset 9, -32
 134              		.cfi_offset 10, -28
 135              		.cfi_offset 11, -24
 136 000c D3B0     		sub	sp, sp, #332
 137              		.cfi_def_cfa_offset 368
 138 000e 0500     		movs	r5, r0
 245:..\..\..\arduinoLCD\test\Pain Drain\libraries\lvgl\src\widgets/lv_bar.c ****     lv_bar_t * bar = (lv_bar_t *)obj;
 139              		.loc 2 245 0
 140 0010 FFF7FEFF 		bl	lv_event_get_target
 141              	.LVL6:
 142 0014 0400     		movs	r4, r0
 143              	.LVL7:
 248:..\..\..\arduinoLCD\test\Pain Drain\libraries\lvgl\src\widgets/lv_bar.c **** 
 144              		.loc 2 248 0
 145 0016 2800     		movs	r0, r5
 146              	.LVL8:
 147 0018 FFF7FEFF 		bl	lv_event_get_draw_ctx
 148              	.LVL9:
 149 001c 0390     		str	r0, [sp, #12]
 150              	.LVL10:
 251:..\..\..\arduinoLCD\test\Pain Drain\libraries\lvgl\src\widgets/lv_bar.c **** 
 151              		.loc 2 251 0
 152 001e 50AD     		add	r5, sp, #320
 153              	.LVL11:
 154 0020 2900     		movs	r1, r5
 155 0022 2000     		movs	r0, r4
 156              	.LVL12:
 157 0024 FFF7FEFF 		bl	lv_obj_get_coords
 158              	.LVL13:
 159              	.LBB73:
 160              	.LBB74:
 161              		.file 3 "..\\..\\..\\arduinoLCD\\test\\Pain Drain\\libraries\\lvgl\\src\\widgets\\../core/lv_obj_s
ARM GAS  C:\Users\haske\AppData\Local\Temp\cc11ZRIl.s 			page 17


   1:..\..\..\arduinoLCD\test\Pain Drain\libraries\lvgl\src\widgets\../core/lv_obj_style_gen.h **** static inline lv_coord_t lv_obj_get_style_width(const struct _lv_obj_t * obj, uint32_t part)
   2:..\..\..\arduinoLCD\test\Pain Drain\libraries\lvgl\src\widgets\../core/lv_obj_style_gen.h **** {
   3:..\..\..\arduinoLCD\test\Pain Drain\libraries\lvgl\src\widgets\../core/lv_obj_style_gen.h ****     lv_style_value_t v = lv_obj_get_style_prop(obj, part, LV_STYLE_WIDTH);
   4:..\..\..\arduinoLCD\test\Pain Drain\libraries\lvgl\src\widgets\../core/lv_obj_style_gen.h ****     return (lv_coord_t)v.num;
   5:..\..\..\arduinoLCD\test\Pain Drain\libraries\lvgl\src\widgets\../core/lv_obj_style_gen.h **** }
   6:..\..\..\arduinoLCD\test\Pain Drain\libraries\lvgl\src\widgets\../core/lv_obj_style_gen.h **** 
   7:..\..\..\arduinoLCD\test\Pain Drain\libraries\lvgl\src\widgets\../core/lv_obj_style_gen.h **** static inline lv_coord_t lv_obj_get_style_min_width(const struct _lv_obj_t * obj, uint32_t part)
   8:..\..\..\arduinoLCD\test\Pain Drain\libraries\lvgl\src\widgets\../core/lv_obj_style_gen.h **** {
   9:..\..\..\arduinoLCD\test\Pain Drain\libraries\lvgl\src\widgets\../core/lv_obj_style_gen.h ****     lv_style_value_t v = lv_obj_get_style_prop(obj, part, LV_STYLE_MIN_WIDTH);
  10:..\..\..\arduinoLCD\test\Pain Drain\libraries\lvgl\src\widgets\../core/lv_obj_style_gen.h ****     return (lv_coord_t)v.num;
  11:..\..\..\arduinoLCD\test\Pain Drain\libraries\lvgl\src\widgets\../core/lv_obj_style_gen.h **** }
  12:..\..\..\arduinoLCD\test\Pain Drain\libraries\lvgl\src\widgets\../core/lv_obj_style_gen.h **** 
  13:..\..\..\arduinoLCD\test\Pain Drain\libraries\lvgl\src\widgets\../core/lv_obj_style_gen.h **** static inline lv_coord_t lv_obj_get_style_max_width(const struct _lv_obj_t * obj, uint32_t part)
  14:..\..\..\arduinoLCD\test\Pain Drain\libraries\lvgl\src\widgets\../core/lv_obj_style_gen.h **** {
  15:..\..\..\arduinoLCD\test\Pain Drain\libraries\lvgl\src\widgets\../core/lv_obj_style_gen.h ****     lv_style_value_t v = lv_obj_get_style_prop(obj, part, LV_STYLE_MAX_WIDTH);
  16:..\..\..\arduinoLCD\test\Pain Drain\libraries\lvgl\src\widgets\../core/lv_obj_style_gen.h ****     return (lv_coord_t)v.num;
  17:..\..\..\arduinoLCD\test\Pain Drain\libraries\lvgl\src\widgets\../core/lv_obj_style_gen.h **** }
  18:..\..\..\arduinoLCD\test\Pain Drain\libraries\lvgl\src\widgets\../core/lv_obj_style_gen.h **** 
  19:..\..\..\arduinoLCD\test\Pain Drain\libraries\lvgl\src\widgets\../core/lv_obj_style_gen.h **** static inline lv_coord_t lv_obj_get_style_height(const struct _lv_obj_t * obj, uint32_t part)
  20:..\..\..\arduinoLCD\test\Pain Drain\libraries\lvgl\src\widgets\../core/lv_obj_style_gen.h **** {
  21:..\..\..\arduinoLCD\test\Pain Drain\libraries\lvgl\src\widgets\../core/lv_obj_style_gen.h ****     lv_style_value_t v = lv_obj_get_style_prop(obj, part, LV_STYLE_HEIGHT);
  22:..\..\..\arduinoLCD\test\Pain Drain\libraries\lvgl\src\widgets\../core/lv_obj_style_gen.h ****     return (lv_coord_t)v.num;
  23:..\..\..\arduinoLCD\test\Pain Drain\libraries\lvgl\src\widgets\../core/lv_obj_style_gen.h **** }
  24:..\..\..\arduinoLCD\test\Pain Drain\libraries\lvgl\src\widgets\../core/lv_obj_style_gen.h **** 
  25:..\..\..\arduinoLCD\test\Pain Drain\libraries\lvgl\src\widgets\../core/lv_obj_style_gen.h **** static inline lv_coord_t lv_obj_get_style_min_height(const struct _lv_obj_t * obj, uint32_t part)
  26:..\..\..\arduinoLCD\test\Pain Drain\libraries\lvgl\src\widgets\../core/lv_obj_style_gen.h **** {
  27:..\..\..\arduinoLCD\test\Pain Drain\libraries\lvgl\src\widgets\../core/lv_obj_style_gen.h ****     lv_style_value_t v = lv_obj_get_style_prop(obj, part, LV_STYLE_MIN_HEIGHT);
  28:..\..\..\arduinoLCD\test\Pain Drain\libraries\lvgl\src\widgets\../core/lv_obj_style_gen.h ****     return (lv_coord_t)v.num;
  29:..\..\..\arduinoLCD\test\Pain Drain\libraries\lvgl\src\widgets\../core/lv_obj_style_gen.h **** }
  30:..\..\..\arduinoLCD\test\Pain Drain\libraries\lvgl\src\widgets\../core/lv_obj_style_gen.h **** 
  31:..\..\..\arduinoLCD\test\Pain Drain\libraries\lvgl\src\widgets\../core/lv_obj_style_gen.h **** static inline lv_coord_t lv_obj_get_style_max_height(const struct _lv_obj_t * obj, uint32_t part)
  32:..\..\..\arduinoLCD\test\Pain Drain\libraries\lvgl\src\widgets\../core/lv_obj_style_gen.h **** {
  33:..\..\..\arduinoLCD\test\Pain Drain\libraries\lvgl\src\widgets\../core/lv_obj_style_gen.h ****     lv_style_value_t v = lv_obj_get_style_prop(obj, part, LV_STYLE_MAX_HEIGHT);
  34:..\..\..\arduinoLCD\test\Pain Drain\libraries\lvgl\src\widgets\../core/lv_obj_style_gen.h ****     return (lv_coord_t)v.num;
  35:..\..\..\arduinoLCD\test\Pain Drain\libraries\lvgl\src\widgets\../core/lv_obj_style_gen.h **** }
  36:..\..\..\arduinoLCD\test\Pain Drain\libraries\lvgl\src\widgets\../core/lv_obj_style_gen.h **** 
  37:..\..\..\arduinoLCD\test\Pain Drain\libraries\lvgl\src\widgets\../core/lv_obj_style_gen.h **** static inline lv_coord_t lv_obj_get_style_x(const struct _lv_obj_t * obj, uint32_t part)
  38:..\..\..\arduinoLCD\test\Pain Drain\libraries\lvgl\src\widgets\../core/lv_obj_style_gen.h **** {
  39:..\..\..\arduinoLCD\test\Pain Drain\libraries\lvgl\src\widgets\../core/lv_obj_style_gen.h ****     lv_style_value_t v = lv_obj_get_style_prop(obj, part, LV_STYLE_X);
  40:..\..\..\arduinoLCD\test\Pain Drain\libraries\lvgl\src\widgets\../core/lv_obj_style_gen.h ****     return (lv_coord_t)v.num;
  41:..\..\..\arduinoLCD\test\Pain Drain\libraries\lvgl\src\widgets\../core/lv_obj_style_gen.h **** }
  42:..\..\..\arduinoLCD\test\Pain Drain\libraries\lvgl\src\widgets\../core/lv_obj_style_gen.h **** 
  43:..\..\..\arduinoLCD\test\Pain Drain\libraries\lvgl\src\widgets\../core/lv_obj_style_gen.h **** static inline lv_coord_t lv_obj_get_style_y(const struct _lv_obj_t * obj, uint32_t part)
  44:..\..\..\arduinoLCD\test\Pain Drain\libraries\lvgl\src\widgets\../core/lv_obj_style_gen.h **** {
  45:..\..\..\arduinoLCD\test\Pain Drain\libraries\lvgl\src\widgets\../core/lv_obj_style_gen.h ****     lv_style_value_t v = lv_obj_get_style_prop(obj, part, LV_STYLE_Y);
  46:..\..\..\arduinoLCD\test\Pain Drain\libraries\lvgl\src\widgets\../core/lv_obj_style_gen.h ****     return (lv_coord_t)v.num;
  47:..\..\..\arduinoLCD\test\Pain Drain\libraries\lvgl\src\widgets\../core/lv_obj_style_gen.h **** }
  48:..\..\..\arduinoLCD\test\Pain Drain\libraries\lvgl\src\widgets\../core/lv_obj_style_gen.h **** 
  49:..\..\..\arduinoLCD\test\Pain Drain\libraries\lvgl\src\widgets\../core/lv_obj_style_gen.h **** static inline lv_align_t lv_obj_get_style_align(const struct _lv_obj_t * obj, uint32_t part)
  50:..\..\..\arduinoLCD\test\Pain Drain\libraries\lvgl\src\widgets\../core/lv_obj_style_gen.h **** {
  51:..\..\..\arduinoLCD\test\Pain Drain\libraries\lvgl\src\widgets\../core/lv_obj_style_gen.h ****     lv_style_value_t v = lv_obj_get_style_prop(obj, part, LV_STYLE_ALIGN);
  52:..\..\..\arduinoLCD\test\Pain Drain\libraries\lvgl\src\widgets\../core/lv_obj_style_gen.h ****     return (lv_align_t)v.num;
  53:..\..\..\arduinoLCD\test\Pain Drain\libraries\lvgl\src\widgets\../core/lv_obj_style_gen.h **** }
  54:..\..\..\arduinoLCD\test\Pain Drain\libraries\lvgl\src\widgets\../core/lv_obj_style_gen.h **** 
  55:..\..\..\arduinoLCD\test\Pain Drain\libraries\lvgl\src\widgets\../core/lv_obj_style_gen.h **** static inline lv_coord_t lv_obj_get_style_transform_width(const struct _lv_obj_t * obj, uint32_t pa
  56:..\..\..\arduinoLCD\test\Pain Drain\libraries\lvgl\src\widgets\../core/lv_obj_style_gen.h **** {
  57:..\..\..\arduinoLCD\test\Pain Drain\libraries\lvgl\src\widgets\../core/lv_obj_style_gen.h ****     lv_style_value_t v = lv_obj_get_style_prop(obj, part, LV_STYLE_TRANSFORM_WIDTH);
ARM GAS  C:\Users\haske\AppData\Local\Temp\cc11ZRIl.s 			page 18


 162              		.loc 3 57 0
 163 0028 6822     		movs	r2, #104
 164 002a 0021     		movs	r1, #0
 165 002c 2000     		movs	r0, r4
 166 002e FFF7FEFF 		bl	lv_obj_get_style_prop
 167              	.LVL14:
 168 0032 0600     		movs	r6, r0
 169              	.LVL15:
 170              	.LBE74:
 171              	.LBE73:
 172              	.LBB75:
 173              	.LBB76:
  58:..\..\..\arduinoLCD\test\Pain Drain\libraries\lvgl\src\widgets\../core/lv_obj_style_gen.h ****     return (lv_coord_t)v.num;
  59:..\..\..\arduinoLCD\test\Pain Drain\libraries\lvgl\src\widgets\../core/lv_obj_style_gen.h **** }
  60:..\..\..\arduinoLCD\test\Pain Drain\libraries\lvgl\src\widgets\../core/lv_obj_style_gen.h **** 
  61:..\..\..\arduinoLCD\test\Pain Drain\libraries\lvgl\src\widgets\../core/lv_obj_style_gen.h **** static inline lv_coord_t lv_obj_get_style_transform_height(const struct _lv_obj_t * obj, uint32_t p
  62:..\..\..\arduinoLCD\test\Pain Drain\libraries\lvgl\src\widgets\../core/lv_obj_style_gen.h **** {
  63:..\..\..\arduinoLCD\test\Pain Drain\libraries\lvgl\src\widgets\../core/lv_obj_style_gen.h ****     lv_style_value_t v = lv_obj_get_style_prop(obj, part, LV_STYLE_TRANSFORM_HEIGHT);
 174              		.loc 3 63 0
 175 0034 6922     		movs	r2, #105
 176 0036 0021     		movs	r1, #0
 177 0038 2000     		movs	r0, r4
 178 003a FFF7FEFF 		bl	lv_obj_get_style_prop
 179              	.LVL16:
 180              	.LBE76:
 181              	.LBE75:
 255:..\..\..\arduinoLCD\test\Pain Drain\libraries\lvgl\src\widgets/lv_bar.c ****     bar_coords.x2 += transf_w;
 182              		.loc 2 255 0
 183 003e B2B2     		uxth	r2, r6
 184 0040 2F88     		ldrh	r7, [r5]
 185 0042 BF1A     		subs	r7, r7, r2
 186 0044 BFB2     		uxth	r7, r7
 187 0046 2F80     		strh	r7, [r5]
 256:..\..\..\arduinoLCD\test\Pain Drain\libraries\lvgl\src\widgets/lv_bar.c ****     bar_coords.y1 -= transf_h;
 188              		.loc 2 256 0
 189 0048 A988     		ldrh	r1, [r5, #4]
 190 004a 5118     		adds	r1, r2, r1
 191 004c 8AB2     		uxth	r2, r1
 192 004e AA80     		strh	r2, [r5, #4]
 193              	.LVL17:
 257:..\..\..\arduinoLCD\test\Pain Drain\libraries\lvgl\src\widgets/lv_bar.c ****     bar_coords.y2 += transf_h;
 194              		.loc 2 257 0
 195 0050 80B2     		uxth	r0, r0
 196 0052 6988     		ldrh	r1, [r5, #2]
 197 0054 091A     		subs	r1, r1, r0
 198 0056 89B2     		uxth	r1, r1
 199 0058 6980     		strh	r1, [r5, #2]
 258:..\..\..\arduinoLCD\test\Pain Drain\libraries\lvgl\src\widgets/lv_bar.c ****     lv_coord_t barw = lv_area_get_width(&bar_coords);
 200              		.loc 2 258 0
 201 005a EB88     		ldrh	r3, [r5, #6]
 202 005c C318     		adds	r3, r0, r3
 203 005e 98B2     		uxth	r0, r3
 204 0060 E880     		strh	r0, [r5, #6]
 205              	.LVL18:
 206              	.LBB77:
 207              	.LBB78:
 125:c:\projects\paindrain\arduinolcd\test\pain drain\libraries\lvgl\src\misc\lv_area.h **** }
ARM GAS  C:\Users\haske\AppData\Local\Temp\cc11ZRIl.s 			page 19


 208              		.loc 1 125 0
 209 0062 D21B     		subs	r2, r2, r7
 210 0064 0132     		adds	r2, r2, #1
 211 0066 13B2     		sxth	r3, r2
 212 0068 9A46     		mov	r10, r3
 213              	.LVL19:
 214              	.LBE78:
 215              	.LBE77:
 216              	.LBB79:
 217              	.LBB80:
 135:c:\projects\paindrain\arduinolcd\test\pain drain\libraries\lvgl\src\misc\lv_area.h **** }
 218              		.loc 1 135 0
 219 006a 401A     		subs	r0, r0, r1
 220 006c 0130     		adds	r0, r0, #1
 221 006e 03B2     		sxth	r3, r0
 222 0070 9946     		mov	r9, r3
 223              	.LVL20:
 224              	.LBE80:
 225              	.LBE79:
 261:..\..\..\arduinoLCD\test\Pain Drain\libraries\lvgl\src\widgets/lv_bar.c ****     bool hor = barw >= barh ? true : false;
 226              		.loc 2 261 0
 227 0072 E16A     		ldr	r1, [r4, #44]
 228 0074 A26A     		ldr	r2, [r4, #40]
 229 0076 8B1A     		subs	r3, r1, r2
 230 0078 0293     		str	r3, [sp, #8]
 231              	.LVL21:
 264:..\..\..\arduinoLCD\test\Pain Drain\libraries\lvgl\src\widgets/lv_bar.c ****        bar->start_value == bar->min_value) sym = true;
 232              		.loc 2 264 0
 233 007a 5C23     		movs	r3, #92
 234              	.LVL22:
 235 007c E35C     		ldrb	r3, [r4, r3]
 236 007e 0320     		movs	r0, #3
 237 0080 0340     		ands	r3, r0
 238 0082 012B     		cmp	r3, #1
 239 0084 09D1     		bne	.L34
 264:..\..\..\arduinoLCD\test\Pain Drain\libraries\lvgl\src\widgets/lv_bar.c ****        bar->start_value == bar->min_value) sym = true;
 240              		.loc 2 264 0 is_stmt 0 discriminator 1
 241 0086 002A     		cmp	r2, #0
 242 0088 0ADA     		bge	.L35
 264:..\..\..\arduinoLCD\test\Pain Drain\libraries\lvgl\src\widgets/lv_bar.c ****        bar->start_value == bar->min_value) sym = true;
 243              		.loc 2 264 0 discriminator 2
 244 008a 0029     		cmp	r1, #0
 245 008c 0BDD     		ble	.L36
 264:..\..\..\arduinoLCD\test\Pain Drain\libraries\lvgl\src\widgets/lv_bar.c ****        bar->start_value == bar->min_value) sym = true;
 246              		.loc 2 264 0 discriminator 3
 247 008e 236B     		ldr	r3, [r4, #48]
 248 0090 9A42     		cmp	r2, r3
 249 0092 0BD0     		beq	.L37
 263:..\..\..\arduinoLCD\test\Pain Drain\libraries\lvgl\src\widgets/lv_bar.c ****     if(bar->mode == LV_BAR_MODE_SYMMETRICAL && bar->min_value < 0 && bar->max_value > 0 &&
 250              		.loc 2 263 0 is_stmt 1
 251 0094 0023     		movs	r3, #0
 252 0096 0493     		str	r3, [sp, #16]
 253 0098 0AE0     		b	.L5
 254              	.L34:
 255 009a 0023     		movs	r3, #0
 256 009c 0493     		str	r3, [sp, #16]
 257 009e 07E0     		b	.L5
ARM GAS  C:\Users\haske\AppData\Local\Temp\cc11ZRIl.s 			page 20


 258              	.L35:
 259 00a0 0023     		movs	r3, #0
 260 00a2 0493     		str	r3, [sp, #16]
 261 00a4 04E0     		b	.L5
 262              	.L36:
 263 00a6 0023     		movs	r3, #0
 264 00a8 0493     		str	r3, [sp, #16]
 265 00aa 01E0     		b	.L5
 266              	.L37:
 265:..\..\..\arduinoLCD\test\Pain Drain\libraries\lvgl\src\widgets/lv_bar.c **** 
 267              		.loc 2 265 0
 268 00ac 0123     		movs	r3, #1
 269 00ae 0493     		str	r3, [sp, #16]
 270              	.L5:
 271              	.LVL23:
 272              	.LBB81:
 273              	.LBB82:
  64:..\..\..\arduinoLCD\test\Pain Drain\libraries\lvgl\src\widgets\../core/lv_obj_style_gen.h ****     return (lv_coord_t)v.num;
  65:..\..\..\arduinoLCD\test\Pain Drain\libraries\lvgl\src\widgets\../core/lv_obj_style_gen.h **** }
  66:..\..\..\arduinoLCD\test\Pain Drain\libraries\lvgl\src\widgets\../core/lv_obj_style_gen.h **** 
  67:..\..\..\arduinoLCD\test\Pain Drain\libraries\lvgl\src\widgets\../core/lv_obj_style_gen.h **** static inline lv_coord_t lv_obj_get_style_translate_x(const struct _lv_obj_t * obj, uint32_t part)
  68:..\..\..\arduinoLCD\test\Pain Drain\libraries\lvgl\src\widgets\../core/lv_obj_style_gen.h **** {
  69:..\..\..\arduinoLCD\test\Pain Drain\libraries\lvgl\src\widgets\../core/lv_obj_style_gen.h ****     lv_style_value_t v = lv_obj_get_style_prop(obj, part, LV_STYLE_TRANSLATE_X);
  70:..\..\..\arduinoLCD\test\Pain Drain\libraries\lvgl\src\widgets\../core/lv_obj_style_gen.h ****     return (lv_coord_t)v.num;
  71:..\..\..\arduinoLCD\test\Pain Drain\libraries\lvgl\src\widgets\../core/lv_obj_style_gen.h **** }
  72:..\..\..\arduinoLCD\test\Pain Drain\libraries\lvgl\src\widgets\../core/lv_obj_style_gen.h **** 
  73:..\..\..\arduinoLCD\test\Pain Drain\libraries\lvgl\src\widgets\../core/lv_obj_style_gen.h **** static inline lv_coord_t lv_obj_get_style_translate_y(const struct _lv_obj_t * obj, uint32_t part)
  74:..\..\..\arduinoLCD\test\Pain Drain\libraries\lvgl\src\widgets\../core/lv_obj_style_gen.h **** {
  75:..\..\..\arduinoLCD\test\Pain Drain\libraries\lvgl\src\widgets\../core/lv_obj_style_gen.h ****     lv_style_value_t v = lv_obj_get_style_prop(obj, part, LV_STYLE_TRANSLATE_Y);
  76:..\..\..\arduinoLCD\test\Pain Drain\libraries\lvgl\src\widgets\../core/lv_obj_style_gen.h ****     return (lv_coord_t)v.num;
  77:..\..\..\arduinoLCD\test\Pain Drain\libraries\lvgl\src\widgets\../core/lv_obj_style_gen.h **** }
  78:..\..\..\arduinoLCD\test\Pain Drain\libraries\lvgl\src\widgets\../core/lv_obj_style_gen.h **** 
  79:..\..\..\arduinoLCD\test\Pain Drain\libraries\lvgl\src\widgets\../core/lv_obj_style_gen.h **** static inline lv_coord_t lv_obj_get_style_transform_zoom(const struct _lv_obj_t * obj, uint32_t par
  80:..\..\..\arduinoLCD\test\Pain Drain\libraries\lvgl\src\widgets\../core/lv_obj_style_gen.h **** {
  81:..\..\..\arduinoLCD\test\Pain Drain\libraries\lvgl\src\widgets\../core/lv_obj_style_gen.h ****     lv_style_value_t v = lv_obj_get_style_prop(obj, part, LV_STYLE_TRANSFORM_ZOOM);
  82:..\..\..\arduinoLCD\test\Pain Drain\libraries\lvgl\src\widgets\../core/lv_obj_style_gen.h ****     return (lv_coord_t)v.num;
  83:..\..\..\arduinoLCD\test\Pain Drain\libraries\lvgl\src\widgets\../core/lv_obj_style_gen.h **** }
  84:..\..\..\arduinoLCD\test\Pain Drain\libraries\lvgl\src\widgets\../core/lv_obj_style_gen.h **** 
  85:..\..\..\arduinoLCD\test\Pain Drain\libraries\lvgl\src\widgets\../core/lv_obj_style_gen.h **** static inline lv_coord_t lv_obj_get_style_transform_angle(const struct _lv_obj_t * obj, uint32_t pa
  86:..\..\..\arduinoLCD\test\Pain Drain\libraries\lvgl\src\widgets\../core/lv_obj_style_gen.h **** {
  87:..\..\..\arduinoLCD\test\Pain Drain\libraries\lvgl\src\widgets\../core/lv_obj_style_gen.h ****     lv_style_value_t v = lv_obj_get_style_prop(obj, part, LV_STYLE_TRANSFORM_ANGLE);
  88:..\..\..\arduinoLCD\test\Pain Drain\libraries\lvgl\src\widgets\../core/lv_obj_style_gen.h ****     return (lv_coord_t)v.num;
  89:..\..\..\arduinoLCD\test\Pain Drain\libraries\lvgl\src\widgets\../core/lv_obj_style_gen.h **** }
  90:..\..\..\arduinoLCD\test\Pain Drain\libraries\lvgl\src\widgets\../core/lv_obj_style_gen.h **** 
  91:..\..\..\arduinoLCD\test\Pain Drain\libraries\lvgl\src\widgets\../core/lv_obj_style_gen.h **** static inline lv_coord_t lv_obj_get_style_transform_pivot_x(const struct _lv_obj_t * obj, uint32_t 
  92:..\..\..\arduinoLCD\test\Pain Drain\libraries\lvgl\src\widgets\../core/lv_obj_style_gen.h **** {
  93:..\..\..\arduinoLCD\test\Pain Drain\libraries\lvgl\src\widgets\../core/lv_obj_style_gen.h ****     lv_style_value_t v = lv_obj_get_style_prop(obj, part, LV_STYLE_TRANSFORM_PIVOT_X);
  94:..\..\..\arduinoLCD\test\Pain Drain\libraries\lvgl\src\widgets\../core/lv_obj_style_gen.h ****     return (lv_coord_t)v.num;
  95:..\..\..\arduinoLCD\test\Pain Drain\libraries\lvgl\src\widgets\../core/lv_obj_style_gen.h **** }
  96:..\..\..\arduinoLCD\test\Pain Drain\libraries\lvgl\src\widgets\../core/lv_obj_style_gen.h **** 
  97:..\..\..\arduinoLCD\test\Pain Drain\libraries\lvgl\src\widgets\../core/lv_obj_style_gen.h **** static inline lv_coord_t lv_obj_get_style_transform_pivot_y(const struct _lv_obj_t * obj, uint32_t 
  98:..\..\..\arduinoLCD\test\Pain Drain\libraries\lvgl\src\widgets\../core/lv_obj_style_gen.h **** {
  99:..\..\..\arduinoLCD\test\Pain Drain\libraries\lvgl\src\widgets\../core/lv_obj_style_gen.h ****     lv_style_value_t v = lv_obj_get_style_prop(obj, part, LV_STYLE_TRANSFORM_PIVOT_Y);
 100:..\..\..\arduinoLCD\test\Pain Drain\libraries\lvgl\src\widgets\../core/lv_obj_style_gen.h ****     return (lv_coord_t)v.num;
 101:..\..\..\arduinoLCD\test\Pain Drain\libraries\lvgl\src\widgets\../core/lv_obj_style_gen.h **** }
 102:..\..\..\arduinoLCD\test\Pain Drain\libraries\lvgl\src\widgets\../core/lv_obj_style_gen.h **** 
 103:..\..\..\arduinoLCD\test\Pain Drain\libraries\lvgl\src\widgets\../core/lv_obj_style_gen.h **** static inline lv_coord_t lv_obj_get_style_pad_top(const struct _lv_obj_t * obj, uint32_t part)
ARM GAS  C:\Users\haske\AppData\Local\Temp\cc11ZRIl.s 			page 21


 104:..\..\..\arduinoLCD\test\Pain Drain\libraries\lvgl\src\widgets\../core/lv_obj_style_gen.h **** {
 105:..\..\..\arduinoLCD\test\Pain Drain\libraries\lvgl\src\widgets\../core/lv_obj_style_gen.h ****     lv_style_value_t v = lv_obj_get_style_prop(obj, part, LV_STYLE_PAD_TOP);
 106:..\..\..\arduinoLCD\test\Pain Drain\libraries\lvgl\src\widgets\../core/lv_obj_style_gen.h ****     return (lv_coord_t)v.num;
 107:..\..\..\arduinoLCD\test\Pain Drain\libraries\lvgl\src\widgets\../core/lv_obj_style_gen.h **** }
 108:..\..\..\arduinoLCD\test\Pain Drain\libraries\lvgl\src\widgets\../core/lv_obj_style_gen.h **** 
 109:..\..\..\arduinoLCD\test\Pain Drain\libraries\lvgl\src\widgets\../core/lv_obj_style_gen.h **** static inline lv_coord_t lv_obj_get_style_pad_bottom(const struct _lv_obj_t * obj, uint32_t part)
 110:..\..\..\arduinoLCD\test\Pain Drain\libraries\lvgl\src\widgets\../core/lv_obj_style_gen.h **** {
 111:..\..\..\arduinoLCD\test\Pain Drain\libraries\lvgl\src\widgets\../core/lv_obj_style_gen.h ****     lv_style_value_t v = lv_obj_get_style_prop(obj, part, LV_STYLE_PAD_BOTTOM);
 112:..\..\..\arduinoLCD\test\Pain Drain\libraries\lvgl\src\widgets\../core/lv_obj_style_gen.h ****     return (lv_coord_t)v.num;
 113:..\..\..\arduinoLCD\test\Pain Drain\libraries\lvgl\src\widgets\../core/lv_obj_style_gen.h **** }
 114:..\..\..\arduinoLCD\test\Pain Drain\libraries\lvgl\src\widgets\../core/lv_obj_style_gen.h **** 
 115:..\..\..\arduinoLCD\test\Pain Drain\libraries\lvgl\src\widgets\../core/lv_obj_style_gen.h **** static inline lv_coord_t lv_obj_get_style_pad_left(const struct _lv_obj_t * obj, uint32_t part)
 116:..\..\..\arduinoLCD\test\Pain Drain\libraries\lvgl\src\widgets\../core/lv_obj_style_gen.h **** {
 117:..\..\..\arduinoLCD\test\Pain Drain\libraries\lvgl\src\widgets\../core/lv_obj_style_gen.h ****     lv_style_value_t v = lv_obj_get_style_prop(obj, part, LV_STYLE_PAD_LEFT);
 274              		.loc 3 117 0
 275 00b0 1222     		movs	r2, #18
 276 00b2 0021     		movs	r1, #0
 277 00b4 2000     		movs	r0, r4
 278 00b6 FFF7FEFF 		bl	lv_obj_get_style_prop
 279              	.LVL24:
 280 00ba 0700     		movs	r7, r0
 281              	.LVL25:
 282              	.LBE82:
 283              	.LBE81:
 284              	.LBB83:
 285              	.LBB84:
 118:..\..\..\arduinoLCD\test\Pain Drain\libraries\lvgl\src\widgets\../core/lv_obj_style_gen.h ****     return (lv_coord_t)v.num;
 119:..\..\..\arduinoLCD\test\Pain Drain\libraries\lvgl\src\widgets\../core/lv_obj_style_gen.h **** }
 120:..\..\..\arduinoLCD\test\Pain Drain\libraries\lvgl\src\widgets\../core/lv_obj_style_gen.h **** 
 121:..\..\..\arduinoLCD\test\Pain Drain\libraries\lvgl\src\widgets\../core/lv_obj_style_gen.h **** static inline lv_coord_t lv_obj_get_style_pad_right(const struct _lv_obj_t * obj, uint32_t part)
 122:..\..\..\arduinoLCD\test\Pain Drain\libraries\lvgl\src\widgets\../core/lv_obj_style_gen.h **** {
 123:..\..\..\arduinoLCD\test\Pain Drain\libraries\lvgl\src\widgets\../core/lv_obj_style_gen.h ****     lv_style_value_t v = lv_obj_get_style_prop(obj, part, LV_STYLE_PAD_RIGHT);
 286              		.loc 3 123 0
 287 00bc 1322     		movs	r2, #19
 288 00be 0021     		movs	r1, #0
 289 00c0 2000     		movs	r0, r4
 290 00c2 FFF7FEFF 		bl	lv_obj_get_style_prop
 291              	.LVL26:
 292 00c6 0190     		str	r0, [sp, #4]
 293              	.LVL27:
 294              	.LBE84:
 295              	.LBE83:
 296              	.LBB85:
 297              	.LBB86:
 105:..\..\..\arduinoLCD\test\Pain Drain\libraries\lvgl\src\widgets\../core/lv_obj_style_gen.h ****     return (lv_coord_t)v.num;
 298              		.loc 3 105 0
 299 00c8 1022     		movs	r2, #16
 300 00ca 0021     		movs	r1, #0
 301 00cc 2000     		movs	r0, r4
 302 00ce FFF7FEFF 		bl	lv_obj_get_style_prop
 303              	.LVL28:
 304 00d2 0790     		str	r0, [sp, #28]
 305              	.LVL29:
 306              	.LBE86:
 307              	.LBE85:
 308              	.LBB87:
 309              	.LBB88:
ARM GAS  C:\Users\haske\AppData\Local\Temp\cc11ZRIl.s 			page 22


 111:..\..\..\arduinoLCD\test\Pain Drain\libraries\lvgl\src\widgets\../core/lv_obj_style_gen.h ****     return (lv_coord_t)v.num;
 310              		.loc 3 111 0
 311 00d4 1122     		movs	r2, #17
 312 00d6 0021     		movs	r1, #0
 313 00d8 2000     		movs	r0, r4
 314 00da FFF7FEFF 		bl	lv_obj_get_style_prop
 315              	.LVL30:
 316              	.LBE88:
 317              	.LBE87:
 318              	.LBB89:
 319              	.LBB90:
 112:c:\projects\paindrain\arduinolcd\test\pain drain\libraries\lvgl\src\misc\lv_area.h ****     dest->y1 = src->y1;
 320              		.loc 1 112 0
 321 00de 50A9     		add	r1, sp, #320
 322 00e0 0023     		movs	r3, #0
 323 00e2 CD5E     		ldrsh	r5, [r1, r3]
 324              	.LVL31:
 325 00e4 A586     		strh	r5, [r4, #52]
 113:c:\projects\paindrain\arduinolcd\test\pain drain\libraries\lvgl\src\misc\lv_area.h ****     dest->x2 = src->x2;
 326              		.loc 1 113 0
 327 00e6 0223     		movs	r3, #2
 328 00e8 CA5E     		ldrsh	r2, [r1, r3]
 329 00ea E286     		strh	r2, [r4, #54]
 114:c:\projects\paindrain\arduinolcd\test\pain drain\libraries\lvgl\src\misc\lv_area.h ****     dest->y2 = src->y2;
 330              		.loc 1 114 0
 331 00ec 0426     		movs	r6, #4
 332 00ee 8B5F     		ldrsh	r3, [r1, r6]
 333 00f0 2387     		strh	r3, [r4, #56]
 115:c:\projects\paindrain\arduinolcd\test\pain drain\libraries\lvgl\src\misc\lv_area.h **** }
 334              		.loc 1 115 0
 335 00f2 0626     		movs	r6, #6
 336 00f4 895F     		ldrsh	r1, [r1, r6]
 337              	.LVL32:
 338              	.LBE90:
 339              	.LBE89:
 274:..\..\..\arduinoLCD\test\Pain Drain\libraries\lvgl\src\widgets/lv_bar.c ****     bar->indic_area.x2 -= bg_right;
 340              		.loc 2 274 0
 341 00f6 BFB2     		uxth	r7, r7
 342 00f8 0597     		str	r7, [sp, #20]
 343 00fa 7F19     		adds	r7, r7, r5
 344 00fc BFB2     		uxth	r7, r7
 345 00fe A786     		strh	r7, [r4, #52]
 275:..\..\..\arduinoLCD\test\Pain Drain\libraries\lvgl\src\widgets/lv_bar.c ****     bar->indic_area.y1 += bg_top;
 346              		.loc 2 275 0
 347 0100 6D46     		mov	r5, sp
 348 0102 AD88     		ldrh	r5, [r5, #4]
 349 0104 0695     		str	r5, [sp, #24]
 350 0106 5B1B     		subs	r3, r3, r5
 351 0108 9BB2     		uxth	r3, r3
 352 010a 2387     		strh	r3, [r4, #56]
 276:..\..\..\arduinoLCD\test\Pain Drain\libraries\lvgl\src\widgets/lv_bar.c ****     bar->indic_area.y2 -= bg_bottom;
 353              		.loc 2 276 0
 354 010c 6D46     		mov	r5, sp
 355 010e AD8B     		ldrh	r5, [r5, #28]
 356 0110 0795     		str	r5, [sp, #28]
 357 0112 AC46     		mov	ip, r5
 358 0114 6244     		add	r2, r2, ip
ARM GAS  C:\Users\haske\AppData\Local\Temp\cc11ZRIl.s 			page 23


 359 0116 92B2     		uxth	r2, r2
 360 0118 E286     		strh	r2, [r4, #54]
 361              	.LVL33:
 277:..\..\..\arduinoLCD\test\Pain Drain\libraries\lvgl\src\widgets/lv_bar.c **** 
 362              		.loc 2 277 0
 363 011a 80B2     		uxth	r0, r0
 364 011c 0890     		str	r0, [sp, #32]
 365 011e 091A     		subs	r1, r1, r0
 366 0120 89B2     		uxth	r1, r1
 367 0122 6187     		strh	r1, [r4, #58]
 279:..\..\..\arduinoLCD\test\Pain Drain\libraries\lvgl\src\widgets/lv_bar.c ****         bar->indic_area.y1 = obj->coords.y1 + (barh / 2) - (LV_BAR_SIZE_MIN / 2);
 368              		.loc 2 279 0
 369 0124 D145     		cmp	r9, r10
 370 0126 11DC     		bgt	.L6
 371              	.LVL34:
 372              	.LBB91:
 373              	.LBB92:
 135:c:\projects\paindrain\arduinolcd\test\pain drain\libraries\lvgl\src\misc\lv_area.h **** }
 374              		.loc 1 135 0 discriminator 1
 375 0128 8A1A     		subs	r2, r1, r2
 376 012a 0132     		adds	r2, r2, #1
 377 012c 12B2     		sxth	r2, r2
 378              	.LVL35:
 379              	.LBE92:
 380              	.LBE91:
 279:..\..\..\arduinoLCD\test\Pain Drain\libraries\lvgl\src\widgets/lv_bar.c ****         bar->indic_area.y1 = obj->coords.y1 + (barh / 2) - (LV_BAR_SIZE_MIN / 2);
 381              		.loc 2 279 0 discriminator 1
 382 012e 032A     		cmp	r2, #3
 383 0130 0CDC     		bgt	.L6
 280:..\..\..\arduinoLCD\test\Pain Drain\libraries\lvgl\src\widgets/lv_bar.c ****         bar->indic_area.y2 = bar->indic_area.y1 + LV_BAR_SIZE_MIN;
 384              		.loc 2 280 0
 385 0132 1623     		movs	r3, #22
 386 0134 E25E     		ldrsh	r2, [r4, r3]
 387 0136 4B46     		mov	r3, r9
 388 0138 DB0F     		lsrs	r3, r3, #31
 389 013a 4B44     		add	r3, r3, r9
 390 013c 5B10     		asrs	r3, r3, #1
 391 013e 9B18     		adds	r3, r3, r2
 392 0140 023B     		subs	r3, r3, #2
 393 0142 9BB2     		uxth	r3, r3
 394 0144 E386     		strh	r3, [r4, #54]
 281:..\..\..\arduinoLCD\test\Pain Drain\libraries\lvgl\src\widgets/lv_bar.c ****     }
 395              		.loc 2 281 0
 396 0146 0433     		adds	r3, r3, #4
 397 0148 6387     		strh	r3, [r4, #58]
 398 014a 12E0     		b	.L7
 399              	.L6:
 283:..\..\..\arduinoLCD\test\Pain Drain\libraries\lvgl\src\widgets/lv_bar.c ****         bar->indic_area.x1 = obj->coords.x1 + (barw / 2) - (LV_BAR_SIZE_MIN / 2);
 400              		.loc 2 283 0
 401 014c D145     		cmp	r9, r10
 402 014e 10DD     		ble	.L7
 403              	.LVL36:
 404              	.LBB93:
 405              	.LBB94:
 125:c:\projects\paindrain\arduinolcd\test\pain drain\libraries\lvgl\src\misc\lv_area.h **** }
 406              		.loc 1 125 0 discriminator 1
 407 0150 DF1B     		subs	r7, r3, r7
ARM GAS  C:\Users\haske\AppData\Local\Temp\cc11ZRIl.s 			page 24


 408 0152 0137     		adds	r7, r7, #1
 409 0154 3FB2     		sxth	r7, r7
 410              	.LVL37:
 411              	.LBE94:
 412              	.LBE93:
 283:..\..\..\arduinoLCD\test\Pain Drain\libraries\lvgl\src\widgets/lv_bar.c ****         bar->indic_area.x1 = obj->coords.x1 + (barw / 2) - (LV_BAR_SIZE_MIN / 2);
 413              		.loc 2 283 0 discriminator 1
 414 0156 032F     		cmp	r7, #3
 415 0158 0BDC     		bgt	.L7
 284:..\..\..\arduinoLCD\test\Pain Drain\libraries\lvgl\src\widgets/lv_bar.c ****         bar->indic_area.x2 = bar->indic_area.x1 + LV_BAR_SIZE_MIN;
 416              		.loc 2 284 0
 417 015a 1423     		movs	r3, #20
 418 015c E25E     		ldrsh	r2, [r4, r3]
 419 015e 5346     		mov	r3, r10
 420 0160 DB0F     		lsrs	r3, r3, #31
 421 0162 5344     		add	r3, r3, r10
 422 0164 5B10     		asrs	r3, r3, #1
 423 0166 9B18     		adds	r3, r3, r2
 424 0168 023B     		subs	r3, r3, #2
 425 016a 9BB2     		uxth	r3, r3
 426 016c A386     		strh	r3, [r4, #52]
 285:..\..\..\arduinoLCD\test\Pain Drain\libraries\lvgl\src\widgets/lv_bar.c ****     }
 427              		.loc 2 285 0
 428 016e 0433     		adds	r3, r3, #4
 429 0170 2387     		strh	r3, [r4, #56]
 430              	.L7:
 431              	.LVL38:
 432              	.LBB95:
 433              	.LBB96:
 125:c:\projects\paindrain\arduinolcd\test\pain drain\libraries\lvgl\src\misc\lv_area.h **** }
 434              		.loc 1 125 0
 435 0172 3822     		movs	r2, #56
 436 0174 A35E     		ldrsh	r3, [r4, r2]
 437 0176 3421     		movs	r1, #52
 438 0178 625E     		ldrsh	r2, [r4, r1]
 439 017a 9B1A     		subs	r3, r3, r2
 440 017c 0133     		adds	r3, r3, #1
 441 017e 1BB2     		sxth	r3, r3
 442 0180 1900     		movs	r1, r3
 443 0182 0B93     		str	r3, [sp, #44]
 444              	.LVL39:
 445              	.LBE96:
 446              	.LBE95:
 447              	.LBB97:
 448              	.LBB98:
 135:c:\projects\paindrain\arduinolcd\test\pain drain\libraries\lvgl\src\misc\lv_area.h **** }
 449              		.loc 1 135 0
 450 0184 3A22     		movs	r2, #58
 451 0186 A35E     		ldrsh	r3, [r4, r2]
 452 0188 3620     		movs	r0, #54
 453 018a 225E     		ldrsh	r2, [r4, r0]
 454 018c 9B1A     		subs	r3, r3, r2
 455 018e 0133     		adds	r3, r3, #1
 456 0190 1BB2     		sxth	r3, r3
 457 0192 0993     		str	r3, [sp, #36]
 458              	.LVL40:
 459              	.LBE98:
ARM GAS  C:\Users\haske\AppData\Local\Temp\cc11ZRIl.s 			page 25


 460              	.LBE97:
 292:..\..\..\arduinoLCD\test\Pain Drain\libraries\lvgl\src\widgets/lv_bar.c **** 
 461              		.loc 2 292 0
 462 0194 D145     		cmp	r9, r10
 463 0196 01DC     		bgt	.L38
 464 0198 0191     		str	r1, [sp, #4]
 465 019a 01E0     		b	.L8
 466              	.L38:
 467 019c 099B     		ldr	r3, [sp, #36]
 468 019e 0193     		str	r3, [sp, #4]
 469              	.L8:
 470              	.LVL41:
 299:..\..\..\arduinoLCD\test\Pain Drain\libraries\lvgl\src\widgets/lv_bar.c ****         axis1 = &bar->indic_area.x1;
 471              		.loc 2 299 0 discriminator 4
 472 01a0 D145     		cmp	r9, r10
 473 01a2 07DC     		bgt	.L9
 300:..\..\..\arduinoLCD\test\Pain Drain\libraries\lvgl\src\widgets/lv_bar.c ****         axis2 = &bar->indic_area.x2;
 474              		.loc 2 300 0
 475 01a4 2600     		movs	r6, r4
 476 01a6 3436     		adds	r6, r6, #52
 477              	.LVL42:
 301:..\..\..\arduinoLCD\test\Pain Drain\libraries\lvgl\src\widgets/lv_bar.c ****         indic_length_calc = lv_area_get_width;
 478              		.loc 2 301 0
 479 01a8 3823     		movs	r3, #56
 480 01aa 9B46     		mov	fp, r3
 481 01ac A344     		add	fp, fp, r4
 482              	.LVL43:
 302:..\..\..\arduinoLCD\test\Pain Drain\libraries\lvgl\src\widgets/lv_bar.c ****     }
 483              		.loc 2 302 0
 484 01ae D84B     		ldr	r3, .L39
 485 01b0 0C93     		str	r3, [sp, #48]
 486 01b2 06E0     		b	.L10
 487              	.LVL44:
 488              	.L9:
 305:..\..\..\arduinoLCD\test\Pain Drain\libraries\lvgl\src\widgets/lv_bar.c ****         axis2 = &bar->indic_area.y2;
 489              		.loc 2 305 0
 490 01b4 2600     		movs	r6, r4
 491 01b6 3636     		adds	r6, r6, #54
 492              	.LVL45:
 306:..\..\..\arduinoLCD\test\Pain Drain\libraries\lvgl\src\widgets/lv_bar.c ****         indic_length_calc = lv_area_get_height;
 493              		.loc 2 306 0
 494 01b8 3A23     		movs	r3, #58
 495 01ba 9B46     		mov	fp, r3
 496 01bc A344     		add	fp, fp, r4
 497              	.LVL46:
 307:..\..\..\arduinoLCD\test\Pain Drain\libraries\lvgl\src\widgets/lv_bar.c ****     }
 498              		.loc 2 307 0
 499 01be D54B     		ldr	r3, .L39+4
 500 01c0 0C93     		str	r3, [sp, #48]
 501              	.LVL47:
 502              	.L10:
 310:..\..\..\arduinoLCD\test\Pain Drain\libraries\lvgl\src\widgets/lv_bar.c ****         lv_coord_t anim_start_value_start_x =
 503              		.loc 2 310 0
 504 01c2 A76D     		ldr	r7, [r4, #88]
 505 01c4 7B1C     		adds	r3, r7, #1
 506 01c6 23D0     		beq	.L11
 507              	.LBB99:
ARM GAS  C:\Users\haske\AppData\Local\Temp\cc11ZRIl.s 			page 26


 312:..\..\..\arduinoLCD\test\Pain Drain\libraries\lvgl\src\widgets/lv_bar.c ****         lv_coord_t anim_start_value_end_x =
 508              		.loc 2 312 0
 509 01c8 A36A     		ldr	r3, [r4, #40]
 510 01ca 9846     		mov	r8, r3
 511 01cc 236D     		ldr	r3, [r4, #80]
 512 01ce 4246     		mov	r2, r8
 513 01d0 981A     		subs	r0, r3, r2
 514 01d2 019B     		ldr	r3, [sp, #4]
 515 01d4 5843     		muls	r0, r3
 516 01d6 0299     		ldr	r1, [sp, #8]
 517 01d8 FFF7FEFF 		bl	__aeabi_idiv
 518              	.LVL48:
 311:..\..\..\arduinoLCD\test\Pain Drain\libraries\lvgl\src\widgets/lv_bar.c ****             (int32_t)((int32_t)anim_length * (bar->start_value_anim.anim_start - bar->min_value)) /
 519              		.loc 2 311 0
 520 01dc 0A90     		str	r0, [sp, #40]
 521 01de 6B46     		mov	r3, sp
 522 01e0 2822     		movs	r2, #40
 523 01e2 9D5E     		ldrsh	r5, [r3, r2]
 524              	.LVL49:
 314:..\..\..\arduinoLCD\test\Pain Drain\libraries\lvgl\src\widgets/lv_bar.c **** 
 525              		.loc 2 314 0
 526 01e4 626D     		ldr	r2, [r4, #84]
 527 01e6 4146     		mov	r1, r8
 528 01e8 501A     		subs	r0, r2, r1
 529 01ea 019B     		ldr	r3, [sp, #4]
 530 01ec 5843     		muls	r0, r3
 531 01ee 0299     		ldr	r1, [sp, #8]
 532 01f0 FFF7FEFF 		bl	__aeabi_idiv
 533              	.LVL50:
 313:..\..\..\arduinoLCD\test\Pain Drain\libraries\lvgl\src\widgets/lv_bar.c ****             (int32_t)((int32_t)anim_length * (bar->start_value_anim.anim_end - bar->min_value)) / r
 534              		.loc 2 313 0
 535 01f4 00B2     		sxth	r0, r0
 536              	.LVL51:
 316:..\..\..\arduinoLCD\test\Pain Drain\libraries\lvgl\src\widgets/lv_bar.c ****                               LV_BAR_ANIM_STATE_END);
 537              		.loc 2 316 0
 538 01f6 401B     		subs	r0, r0, r5
 539              	.LVL52:
 540 01f8 4743     		muls	r7, r0
 541 01fa FB17     		asrs	r3, r7, #31
 542 01fc FF20     		movs	r0, #255
 543 01fe 1840     		ands	r0, r3
 544 0200 C719     		adds	r7, r0, r7
 545 0202 3F12     		asrs	r7, r7, #8
 546              	.LVL53:
 319:..\..\..\arduinoLCD\test\Pain Drain\libraries\lvgl\src\widgets/lv_bar.c ****     }
 547              		.loc 2 319 0
 548 0204 0A9B     		ldr	r3, [sp, #40]
 549 0206 9C46     		mov	ip, r3
 550 0208 6744     		add	r7, r7, ip
 551              	.LVL54:
 552 020a 3BB2     		sxth	r3, r7
 553 020c 9846     		mov	r8, r3
 554              	.LVL55:
 555              	.LBE99:
 556 020e 09E0     		b	.L12
 557              	.LVL56:
 558              	.L11:
ARM GAS  C:\Users\haske\AppData\Local\Temp\cc11ZRIl.s 			page 27


 322:..\..\..\arduinoLCD\test\Pain Drain\libraries\lvgl\src\widgets/lv_bar.c ****     }
 559              		.loc 2 322 0
 560 0210 236B     		ldr	r3, [r4, #48]
 561 0212 A26A     		ldr	r2, [r4, #40]
 562 0214 981A     		subs	r0, r3, r2
 563 0216 019B     		ldr	r3, [sp, #4]
 564 0218 5843     		muls	r0, r3
 565 021a 0299     		ldr	r1, [sp, #8]
 566 021c FFF7FEFF 		bl	__aeabi_idiv
 567              	.LVL57:
 568 0220 03B2     		sxth	r3, r0
 569 0222 9846     		mov	r8, r3
 570              	.LVL58:
 571              	.L12:
 325:..\..\..\arduinoLCD\test\Pain Drain\libraries\lvgl\src\widgets/lv_bar.c ****         lv_coord_t anim_cur_value_start_x =
 572              		.loc 2 325 0
 573 0224 A76C     		ldr	r7, [r4, #72]
 574 0226 7B1C     		adds	r3, r7, #1
 575 0228 20D0     		beq	.L13
 576              	.LBB100:
 327:..\..\..\arduinoLCD\test\Pain Drain\libraries\lvgl\src\widgets/lv_bar.c ****         lv_coord_t anim_cur_value_end_x =
 577              		.loc 2 327 0
 578 022a A56A     		ldr	r5, [r4, #40]
 579 022c 236C     		ldr	r3, [r4, #64]
 580 022e 581B     		subs	r0, r3, r5
 581 0230 019B     		ldr	r3, [sp, #4]
 582 0232 5843     		muls	r0, r3
 583 0234 0299     		ldr	r1, [sp, #8]
 584 0236 FFF7FEFF 		bl	__aeabi_idiv
 585              	.LVL59:
 326:..\..\..\arduinoLCD\test\Pain Drain\libraries\lvgl\src\widgets/lv_bar.c ****             (int32_t)((int32_t)anim_length * (bar->cur_value_anim.anim_start - bar->min_value)) / r
 586              		.loc 2 326 0
 587 023a 0A90     		str	r0, [sp, #40]
 588 023c 6B46     		mov	r3, sp
 589 023e 2821     		movs	r1, #40
 590 0240 5A5E     		ldrsh	r2, [r3, r1]
 591 0242 0D92     		str	r2, [sp, #52]
 592              	.LVL60:
 329:..\..\..\arduinoLCD\test\Pain Drain\libraries\lvgl\src\widgets/lv_bar.c **** 
 593              		.loc 2 329 0
 594 0244 616C     		ldr	r1, [r4, #68]
 595 0246 481B     		subs	r0, r1, r5
 596 0248 019B     		ldr	r3, [sp, #4]
 597 024a 5843     		muls	r0, r3
 598 024c 0299     		ldr	r1, [sp, #8]
 599 024e FFF7FEFF 		bl	__aeabi_idiv
 600              	.LVL61:
 328:..\..\..\arduinoLCD\test\Pain Drain\libraries\lvgl\src\widgets/lv_bar.c ****             (int32_t)((int32_t)anim_length * (bar->cur_value_anim.anim_end - bar->min_value)) / ran
 601              		.loc 2 328 0
 602 0252 00B2     		sxth	r0, r0
 603              	.LVL62:
 331:..\..\..\arduinoLCD\test\Pain Drain\libraries\lvgl\src\widgets/lv_bar.c ****                                                       bar->cur_value_anim.anim_state) /
 604              		.loc 2 331 0
 605 0254 0D9A     		ldr	r2, [sp, #52]
 606 0256 801A     		subs	r0, r0, r2
 607              	.LVL63:
 608 0258 4743     		muls	r7, r0
ARM GAS  C:\Users\haske\AppData\Local\Temp\cc11ZRIl.s 			page 28


 332:..\..\..\arduinoLCD\test\Pain Drain\libraries\lvgl\src\widgets/lv_bar.c ****                                                      LV_BAR_ANIM_STATE_END);
 609              		.loc 2 332 0
 610 025a FB17     		asrs	r3, r7, #31
 611 025c FF20     		movs	r0, #255
 612 025e 1840     		ands	r0, r3
 613 0260 C719     		adds	r7, r0, r7
 614 0262 3F12     		asrs	r7, r7, #8
 331:..\..\..\arduinoLCD\test\Pain Drain\libraries\lvgl\src\widgets/lv_bar.c ****                                                       bar->cur_value_anim.anim_state) /
 615              		.loc 2 331 0
 616 0264 0A9B     		ldr	r3, [sp, #40]
 617 0266 FD18     		adds	r5, r7, r3
 618 0268 2DB2     		sxth	r5, r5
 619              	.LVL64:
 620              	.LBE100:
 621 026a 08E0     		b	.L14
 622              	.LVL65:
 623              	.L13:
 336:..\..\..\arduinoLCD\test\Pain Drain\libraries\lvgl\src\widgets/lv_bar.c ****     }
 624              		.loc 2 336 0
 625 026c 636A     		ldr	r3, [r4, #36]
 626 026e A26A     		ldr	r2, [r4, #40]
 627 0270 981A     		subs	r0, r3, r2
 628 0272 019B     		ldr	r3, [sp, #4]
 629 0274 5843     		muls	r0, r3
 630 0276 0299     		ldr	r1, [sp, #8]
 631 0278 FFF7FEFF 		bl	__aeabi_idiv
 632              	.LVL66:
 633 027c 05B2     		sxth	r5, r0
 634              	.LVL67:
 635              	.L14:
 636              	.LBB101:
 637              	.LBB102:
 124:..\..\..\arduinoLCD\test\Pain Drain\libraries\lvgl\src\widgets\../core/lv_obj_style_gen.h ****     return (lv_coord_t)v.num;
 125:..\..\..\arduinoLCD\test\Pain Drain\libraries\lvgl\src\widgets\../core/lv_obj_style_gen.h **** }
 126:..\..\..\arduinoLCD\test\Pain Drain\libraries\lvgl\src\widgets\../core/lv_obj_style_gen.h **** 
 127:..\..\..\arduinoLCD\test\Pain Drain\libraries\lvgl\src\widgets\../core/lv_obj_style_gen.h **** static inline lv_coord_t lv_obj_get_style_pad_row(const struct _lv_obj_t * obj, uint32_t part)
 128:..\..\..\arduinoLCD\test\Pain Drain\libraries\lvgl\src\widgets\../core/lv_obj_style_gen.h **** {
 129:..\..\..\arduinoLCD\test\Pain Drain\libraries\lvgl\src\widgets\../core/lv_obj_style_gen.h ****     lv_style_value_t v = lv_obj_get_style_prop(obj, part, LV_STYLE_PAD_ROW);
 130:..\..\..\arduinoLCD\test\Pain Drain\libraries\lvgl\src\widgets\../core/lv_obj_style_gen.h ****     return (lv_coord_t)v.num;
 131:..\..\..\arduinoLCD\test\Pain Drain\libraries\lvgl\src\widgets\../core/lv_obj_style_gen.h **** }
 132:..\..\..\arduinoLCD\test\Pain Drain\libraries\lvgl\src\widgets\../core/lv_obj_style_gen.h **** 
 133:..\..\..\arduinoLCD\test\Pain Drain\libraries\lvgl\src\widgets\../core/lv_obj_style_gen.h **** static inline lv_coord_t lv_obj_get_style_pad_column(const struct _lv_obj_t * obj, uint32_t part)
 134:..\..\..\arduinoLCD\test\Pain Drain\libraries\lvgl\src\widgets\../core/lv_obj_style_gen.h **** {
 135:..\..\..\arduinoLCD\test\Pain Drain\libraries\lvgl\src\widgets\../core/lv_obj_style_gen.h ****     lv_style_value_t v = lv_obj_get_style_prop(obj, part, LV_STYLE_PAD_COLUMN);
 136:..\..\..\arduinoLCD\test\Pain Drain\libraries\lvgl\src\widgets\../core/lv_obj_style_gen.h ****     return (lv_coord_t)v.num;
 137:..\..\..\arduinoLCD\test\Pain Drain\libraries\lvgl\src\widgets\../core/lv_obj_style_gen.h **** }
 138:..\..\..\arduinoLCD\test\Pain Drain\libraries\lvgl\src\widgets\../core/lv_obj_style_gen.h **** 
 139:..\..\..\arduinoLCD\test\Pain Drain\libraries\lvgl\src\widgets\../core/lv_obj_style_gen.h **** static inline lv_color_t lv_obj_get_style_bg_color(const struct _lv_obj_t * obj, uint32_t part)
 140:..\..\..\arduinoLCD\test\Pain Drain\libraries\lvgl\src\widgets\../core/lv_obj_style_gen.h **** {
 141:..\..\..\arduinoLCD\test\Pain Drain\libraries\lvgl\src\widgets\../core/lv_obj_style_gen.h ****     lv_style_value_t v = lv_obj_get_style_prop(obj, part, LV_STYLE_BG_COLOR);
 142:..\..\..\arduinoLCD\test\Pain Drain\libraries\lvgl\src\widgets\../core/lv_obj_style_gen.h ****     return v.color;
 143:..\..\..\arduinoLCD\test\Pain Drain\libraries\lvgl\src\widgets\../core/lv_obj_style_gen.h **** }
 144:..\..\..\arduinoLCD\test\Pain Drain\libraries\lvgl\src\widgets\../core/lv_obj_style_gen.h **** 
 145:..\..\..\arduinoLCD\test\Pain Drain\libraries\lvgl\src\widgets\../core/lv_obj_style_gen.h **** static inline lv_color_t lv_obj_get_style_bg_color_filtered(const struct _lv_obj_t * obj, uint32_t 
 146:..\..\..\arduinoLCD\test\Pain Drain\libraries\lvgl\src\widgets\../core/lv_obj_style_gen.h **** {
 147:..\..\..\arduinoLCD\test\Pain Drain\libraries\lvgl\src\widgets\../core/lv_obj_style_gen.h ****     lv_style_value_t v = _lv_obj_style_apply_color_filter(obj, part, lv_obj_get_style_prop(obj, par
 148:..\..\..\arduinoLCD\test\Pain Drain\libraries\lvgl\src\widgets\../core/lv_obj_style_gen.h ****     return v.color;
ARM GAS  C:\Users\haske\AppData\Local\Temp\cc11ZRIl.s 			page 29


 149:..\..\..\arduinoLCD\test\Pain Drain\libraries\lvgl\src\widgets\../core/lv_obj_style_gen.h **** }
 150:..\..\..\arduinoLCD\test\Pain Drain\libraries\lvgl\src\widgets\../core/lv_obj_style_gen.h **** 
 151:..\..\..\arduinoLCD\test\Pain Drain\libraries\lvgl\src\widgets\../core/lv_obj_style_gen.h **** static inline lv_opa_t lv_obj_get_style_bg_opa(const struct _lv_obj_t * obj, uint32_t part)
 152:..\..\..\arduinoLCD\test\Pain Drain\libraries\lvgl\src\widgets\../core/lv_obj_style_gen.h **** {
 153:..\..\..\arduinoLCD\test\Pain Drain\libraries\lvgl\src\widgets\../core/lv_obj_style_gen.h ****     lv_style_value_t v = lv_obj_get_style_prop(obj, part, LV_STYLE_BG_OPA);
 154:..\..\..\arduinoLCD\test\Pain Drain\libraries\lvgl\src\widgets\../core/lv_obj_style_gen.h ****     return (lv_opa_t)v.num;
 155:..\..\..\arduinoLCD\test\Pain Drain\libraries\lvgl\src\widgets\../core/lv_obj_style_gen.h **** }
 156:..\..\..\arduinoLCD\test\Pain Drain\libraries\lvgl\src\widgets\../core/lv_obj_style_gen.h **** 
 157:..\..\..\arduinoLCD\test\Pain Drain\libraries\lvgl\src\widgets\../core/lv_obj_style_gen.h **** static inline lv_color_t lv_obj_get_style_bg_grad_color(const struct _lv_obj_t * obj, uint32_t part
 158:..\..\..\arduinoLCD\test\Pain Drain\libraries\lvgl\src\widgets\../core/lv_obj_style_gen.h **** {
 159:..\..\..\arduinoLCD\test\Pain Drain\libraries\lvgl\src\widgets\../core/lv_obj_style_gen.h ****     lv_style_value_t v = lv_obj_get_style_prop(obj, part, LV_STYLE_BG_GRAD_COLOR);
 160:..\..\..\arduinoLCD\test\Pain Drain\libraries\lvgl\src\widgets\../core/lv_obj_style_gen.h ****     return v.color;
 161:..\..\..\arduinoLCD\test\Pain Drain\libraries\lvgl\src\widgets\../core/lv_obj_style_gen.h **** }
 162:..\..\..\arduinoLCD\test\Pain Drain\libraries\lvgl\src\widgets\../core/lv_obj_style_gen.h **** 
 163:..\..\..\arduinoLCD\test\Pain Drain\libraries\lvgl\src\widgets\../core/lv_obj_style_gen.h **** static inline lv_color_t lv_obj_get_style_bg_grad_color_filtered(const struct _lv_obj_t * obj, uint
 164:..\..\..\arduinoLCD\test\Pain Drain\libraries\lvgl\src\widgets\../core/lv_obj_style_gen.h **** {
 165:..\..\..\arduinoLCD\test\Pain Drain\libraries\lvgl\src\widgets\../core/lv_obj_style_gen.h ****     lv_style_value_t v = _lv_obj_style_apply_color_filter(obj, part, lv_obj_get_style_prop(obj, par
 166:..\..\..\arduinoLCD\test\Pain Drain\libraries\lvgl\src\widgets\../core/lv_obj_style_gen.h ****     return v.color;
 167:..\..\..\arduinoLCD\test\Pain Drain\libraries\lvgl\src\widgets\../core/lv_obj_style_gen.h **** }
 168:..\..\..\arduinoLCD\test\Pain Drain\libraries\lvgl\src\widgets\../core/lv_obj_style_gen.h **** 
 169:..\..\..\arduinoLCD\test\Pain Drain\libraries\lvgl\src\widgets\../core/lv_obj_style_gen.h **** static inline lv_grad_dir_t lv_obj_get_style_bg_grad_dir(const struct _lv_obj_t * obj, uint32_t par
 170:..\..\..\arduinoLCD\test\Pain Drain\libraries\lvgl\src\widgets\../core/lv_obj_style_gen.h **** {
 171:..\..\..\arduinoLCD\test\Pain Drain\libraries\lvgl\src\widgets\../core/lv_obj_style_gen.h ****     lv_style_value_t v = lv_obj_get_style_prop(obj, part, LV_STYLE_BG_GRAD_DIR);
 172:..\..\..\arduinoLCD\test\Pain Drain\libraries\lvgl\src\widgets\../core/lv_obj_style_gen.h ****     return (lv_grad_dir_t)v.num;
 173:..\..\..\arduinoLCD\test\Pain Drain\libraries\lvgl\src\widgets\../core/lv_obj_style_gen.h **** }
 174:..\..\..\arduinoLCD\test\Pain Drain\libraries\lvgl\src\widgets\../core/lv_obj_style_gen.h **** 
 175:..\..\..\arduinoLCD\test\Pain Drain\libraries\lvgl\src\widgets\../core/lv_obj_style_gen.h **** static inline lv_coord_t lv_obj_get_style_bg_main_stop(const struct _lv_obj_t * obj, uint32_t part)
 176:..\..\..\arduinoLCD\test\Pain Drain\libraries\lvgl\src\widgets\../core/lv_obj_style_gen.h **** {
 177:..\..\..\arduinoLCD\test\Pain Drain\libraries\lvgl\src\widgets\../core/lv_obj_style_gen.h ****     lv_style_value_t v = lv_obj_get_style_prop(obj, part, LV_STYLE_BG_MAIN_STOP);
 178:..\..\..\arduinoLCD\test\Pain Drain\libraries\lvgl\src\widgets\../core/lv_obj_style_gen.h ****     return (lv_coord_t)v.num;
 179:..\..\..\arduinoLCD\test\Pain Drain\libraries\lvgl\src\widgets\../core/lv_obj_style_gen.h **** }
 180:..\..\..\arduinoLCD\test\Pain Drain\libraries\lvgl\src\widgets\../core/lv_obj_style_gen.h **** 
 181:..\..\..\arduinoLCD\test\Pain Drain\libraries\lvgl\src\widgets\../core/lv_obj_style_gen.h **** static inline lv_coord_t lv_obj_get_style_bg_grad_stop(const struct _lv_obj_t * obj, uint32_t part)
 182:..\..\..\arduinoLCD\test\Pain Drain\libraries\lvgl\src\widgets\../core/lv_obj_style_gen.h **** {
 183:..\..\..\arduinoLCD\test\Pain Drain\libraries\lvgl\src\widgets\../core/lv_obj_style_gen.h ****     lv_style_value_t v = lv_obj_get_style_prop(obj, part, LV_STYLE_BG_GRAD_STOP);
 184:..\..\..\arduinoLCD\test\Pain Drain\libraries\lvgl\src\widgets\../core/lv_obj_style_gen.h ****     return (lv_coord_t)v.num;
 185:..\..\..\arduinoLCD\test\Pain Drain\libraries\lvgl\src\widgets\../core/lv_obj_style_gen.h **** }
 186:..\..\..\arduinoLCD\test\Pain Drain\libraries\lvgl\src\widgets\../core/lv_obj_style_gen.h **** 
 187:..\..\..\arduinoLCD\test\Pain Drain\libraries\lvgl\src\widgets\../core/lv_obj_style_gen.h **** static inline const lv_grad_dsc_t * lv_obj_get_style_bg_grad(const struct _lv_obj_t * obj, uint32_t
 188:..\..\..\arduinoLCD\test\Pain Drain\libraries\lvgl\src\widgets\../core/lv_obj_style_gen.h **** {
 189:..\..\..\arduinoLCD\test\Pain Drain\libraries\lvgl\src\widgets\../core/lv_obj_style_gen.h ****     lv_style_value_t v = lv_obj_get_style_prop(obj, part, LV_STYLE_BG_GRAD);
 190:..\..\..\arduinoLCD\test\Pain Drain\libraries\lvgl\src\widgets\../core/lv_obj_style_gen.h ****     return (const lv_grad_dsc_t *)v.ptr;
 191:..\..\..\arduinoLCD\test\Pain Drain\libraries\lvgl\src\widgets\../core/lv_obj_style_gen.h **** }
 192:..\..\..\arduinoLCD\test\Pain Drain\libraries\lvgl\src\widgets\../core/lv_obj_style_gen.h **** 
 193:..\..\..\arduinoLCD\test\Pain Drain\libraries\lvgl\src\widgets\../core/lv_obj_style_gen.h **** static inline lv_dither_mode_t lv_obj_get_style_bg_dither_mode(const struct _lv_obj_t * obj, uint32
 194:..\..\..\arduinoLCD\test\Pain Drain\libraries\lvgl\src\widgets\../core/lv_obj_style_gen.h **** {
 195:..\..\..\arduinoLCD\test\Pain Drain\libraries\lvgl\src\widgets\../core/lv_obj_style_gen.h ****     lv_style_value_t v = lv_obj_get_style_prop(obj, part, LV_STYLE_BG_DITHER_MODE);
 196:..\..\..\arduinoLCD\test\Pain Drain\libraries\lvgl\src\widgets\../core/lv_obj_style_gen.h ****     return (lv_dither_mode_t)v.num;
 197:..\..\..\arduinoLCD\test\Pain Drain\libraries\lvgl\src\widgets\../core/lv_obj_style_gen.h **** }
 198:..\..\..\arduinoLCD\test\Pain Drain\libraries\lvgl\src\widgets\../core/lv_obj_style_gen.h **** 
 199:..\..\..\arduinoLCD\test\Pain Drain\libraries\lvgl\src\widgets\../core/lv_obj_style_gen.h **** static inline const void * lv_obj_get_style_bg_img_src(const struct _lv_obj_t * obj, uint32_t part)
 200:..\..\..\arduinoLCD\test\Pain Drain\libraries\lvgl\src\widgets\../core/lv_obj_style_gen.h **** {
 201:..\..\..\arduinoLCD\test\Pain Drain\libraries\lvgl\src\widgets\../core/lv_obj_style_gen.h ****     lv_style_value_t v = lv_obj_get_style_prop(obj, part, LV_STYLE_BG_IMG_SRC);
 202:..\..\..\arduinoLCD\test\Pain Drain\libraries\lvgl\src\widgets\../core/lv_obj_style_gen.h ****     return (const void *)v.ptr;
 203:..\..\..\arduinoLCD\test\Pain Drain\libraries\lvgl\src\widgets\../core/lv_obj_style_gen.h **** }
 204:..\..\..\arduinoLCD\test\Pain Drain\libraries\lvgl\src\widgets\../core/lv_obj_style_gen.h **** 
 205:..\..\..\arduinoLCD\test\Pain Drain\libraries\lvgl\src\widgets\../core/lv_obj_style_gen.h **** static inline lv_opa_t lv_obj_get_style_bg_img_opa(const struct _lv_obj_t * obj, uint32_t part)
ARM GAS  C:\Users\haske\AppData\Local\Temp\cc11ZRIl.s 			page 30


 206:..\..\..\arduinoLCD\test\Pain Drain\libraries\lvgl\src\widgets\../core/lv_obj_style_gen.h **** {
 207:..\..\..\arduinoLCD\test\Pain Drain\libraries\lvgl\src\widgets\../core/lv_obj_style_gen.h ****     lv_style_value_t v = lv_obj_get_style_prop(obj, part, LV_STYLE_BG_IMG_OPA);
 208:..\..\..\arduinoLCD\test\Pain Drain\libraries\lvgl\src\widgets\../core/lv_obj_style_gen.h ****     return (lv_opa_t)v.num;
 209:..\..\..\arduinoLCD\test\Pain Drain\libraries\lvgl\src\widgets\../core/lv_obj_style_gen.h **** }
 210:..\..\..\arduinoLCD\test\Pain Drain\libraries\lvgl\src\widgets\../core/lv_obj_style_gen.h **** 
 211:..\..\..\arduinoLCD\test\Pain Drain\libraries\lvgl\src\widgets\../core/lv_obj_style_gen.h **** static inline lv_color_t lv_obj_get_style_bg_img_recolor(const struct _lv_obj_t * obj, uint32_t par
 212:..\..\..\arduinoLCD\test\Pain Drain\libraries\lvgl\src\widgets\../core/lv_obj_style_gen.h **** {
 213:..\..\..\arduinoLCD\test\Pain Drain\libraries\lvgl\src\widgets\../core/lv_obj_style_gen.h ****     lv_style_value_t v = lv_obj_get_style_prop(obj, part, LV_STYLE_BG_IMG_RECOLOR);
 214:..\..\..\arduinoLCD\test\Pain Drain\libraries\lvgl\src\widgets\../core/lv_obj_style_gen.h ****     return v.color;
 215:..\..\..\arduinoLCD\test\Pain Drain\libraries\lvgl\src\widgets\../core/lv_obj_style_gen.h **** }
 216:..\..\..\arduinoLCD\test\Pain Drain\libraries\lvgl\src\widgets\../core/lv_obj_style_gen.h **** 
 217:..\..\..\arduinoLCD\test\Pain Drain\libraries\lvgl\src\widgets\../core/lv_obj_style_gen.h **** static inline lv_color_t lv_obj_get_style_bg_img_recolor_filtered(const struct _lv_obj_t * obj, uin
 218:..\..\..\arduinoLCD\test\Pain Drain\libraries\lvgl\src\widgets\../core/lv_obj_style_gen.h **** {
 219:..\..\..\arduinoLCD\test\Pain Drain\libraries\lvgl\src\widgets\../core/lv_obj_style_gen.h ****     lv_style_value_t v = _lv_obj_style_apply_color_filter(obj, part, lv_obj_get_style_prop(obj, par
 220:..\..\..\arduinoLCD\test\Pain Drain\libraries\lvgl\src\widgets\../core/lv_obj_style_gen.h ****     return v.color;
 221:..\..\..\arduinoLCD\test\Pain Drain\libraries\lvgl\src\widgets\../core/lv_obj_style_gen.h **** }
 222:..\..\..\arduinoLCD\test\Pain Drain\libraries\lvgl\src\widgets\../core/lv_obj_style_gen.h **** 
 223:..\..\..\arduinoLCD\test\Pain Drain\libraries\lvgl\src\widgets\../core/lv_obj_style_gen.h **** static inline lv_opa_t lv_obj_get_style_bg_img_recolor_opa(const struct _lv_obj_t * obj, uint32_t p
 224:..\..\..\arduinoLCD\test\Pain Drain\libraries\lvgl\src\widgets\../core/lv_obj_style_gen.h **** {
 225:..\..\..\arduinoLCD\test\Pain Drain\libraries\lvgl\src\widgets\../core/lv_obj_style_gen.h ****     lv_style_value_t v = lv_obj_get_style_prop(obj, part, LV_STYLE_BG_IMG_RECOLOR_OPA);
 226:..\..\..\arduinoLCD\test\Pain Drain\libraries\lvgl\src\widgets\../core/lv_obj_style_gen.h ****     return (lv_opa_t)v.num;
 227:..\..\..\arduinoLCD\test\Pain Drain\libraries\lvgl\src\widgets\../core/lv_obj_style_gen.h **** }
 228:..\..\..\arduinoLCD\test\Pain Drain\libraries\lvgl\src\widgets\../core/lv_obj_style_gen.h **** 
 229:..\..\..\arduinoLCD\test\Pain Drain\libraries\lvgl\src\widgets\../core/lv_obj_style_gen.h **** static inline bool lv_obj_get_style_bg_img_tiled(const struct _lv_obj_t * obj, uint32_t part)
 230:..\..\..\arduinoLCD\test\Pain Drain\libraries\lvgl\src\widgets\../core/lv_obj_style_gen.h **** {
 231:..\..\..\arduinoLCD\test\Pain Drain\libraries\lvgl\src\widgets\../core/lv_obj_style_gen.h ****     lv_style_value_t v = lv_obj_get_style_prop(obj, part, LV_STYLE_BG_IMG_TILED);
 232:..\..\..\arduinoLCD\test\Pain Drain\libraries\lvgl\src\widgets\../core/lv_obj_style_gen.h ****     return (bool)v.num;
 233:..\..\..\arduinoLCD\test\Pain Drain\libraries\lvgl\src\widgets\../core/lv_obj_style_gen.h **** }
 234:..\..\..\arduinoLCD\test\Pain Drain\libraries\lvgl\src\widgets\../core/lv_obj_style_gen.h **** 
 235:..\..\..\arduinoLCD\test\Pain Drain\libraries\lvgl\src\widgets\../core/lv_obj_style_gen.h **** static inline lv_color_t lv_obj_get_style_border_color(const struct _lv_obj_t * obj, uint32_t part)
 236:..\..\..\arduinoLCD\test\Pain Drain\libraries\lvgl\src\widgets\../core/lv_obj_style_gen.h **** {
 237:..\..\..\arduinoLCD\test\Pain Drain\libraries\lvgl\src\widgets\../core/lv_obj_style_gen.h ****     lv_style_value_t v = lv_obj_get_style_prop(obj, part, LV_STYLE_BORDER_COLOR);
 238:..\..\..\arduinoLCD\test\Pain Drain\libraries\lvgl\src\widgets\../core/lv_obj_style_gen.h ****     return v.color;
 239:..\..\..\arduinoLCD\test\Pain Drain\libraries\lvgl\src\widgets\../core/lv_obj_style_gen.h **** }
 240:..\..\..\arduinoLCD\test\Pain Drain\libraries\lvgl\src\widgets\../core/lv_obj_style_gen.h **** 
 241:..\..\..\arduinoLCD\test\Pain Drain\libraries\lvgl\src\widgets\../core/lv_obj_style_gen.h **** static inline lv_color_t lv_obj_get_style_border_color_filtered(const struct _lv_obj_t * obj, uint3
 242:..\..\..\arduinoLCD\test\Pain Drain\libraries\lvgl\src\widgets\../core/lv_obj_style_gen.h **** {
 243:..\..\..\arduinoLCD\test\Pain Drain\libraries\lvgl\src\widgets\../core/lv_obj_style_gen.h ****     lv_style_value_t v = _lv_obj_style_apply_color_filter(obj, part, lv_obj_get_style_prop(obj, par
 244:..\..\..\arduinoLCD\test\Pain Drain\libraries\lvgl\src\widgets\../core/lv_obj_style_gen.h ****     return v.color;
 245:..\..\..\arduinoLCD\test\Pain Drain\libraries\lvgl\src\widgets\../core/lv_obj_style_gen.h **** }
 246:..\..\..\arduinoLCD\test\Pain Drain\libraries\lvgl\src\widgets\../core/lv_obj_style_gen.h **** 
 247:..\..\..\arduinoLCD\test\Pain Drain\libraries\lvgl\src\widgets\../core/lv_obj_style_gen.h **** static inline lv_opa_t lv_obj_get_style_border_opa(const struct _lv_obj_t * obj, uint32_t part)
 248:..\..\..\arduinoLCD\test\Pain Drain\libraries\lvgl\src\widgets\../core/lv_obj_style_gen.h **** {
 249:..\..\..\arduinoLCD\test\Pain Drain\libraries\lvgl\src\widgets\../core/lv_obj_style_gen.h ****     lv_style_value_t v = lv_obj_get_style_prop(obj, part, LV_STYLE_BORDER_OPA);
 250:..\..\..\arduinoLCD\test\Pain Drain\libraries\lvgl\src\widgets\../core/lv_obj_style_gen.h ****     return (lv_opa_t)v.num;
 251:..\..\..\arduinoLCD\test\Pain Drain\libraries\lvgl\src\widgets\../core/lv_obj_style_gen.h **** }
 252:..\..\..\arduinoLCD\test\Pain Drain\libraries\lvgl\src\widgets\../core/lv_obj_style_gen.h **** 
 253:..\..\..\arduinoLCD\test\Pain Drain\libraries\lvgl\src\widgets\../core/lv_obj_style_gen.h **** static inline lv_coord_t lv_obj_get_style_border_width(const struct _lv_obj_t * obj, uint32_t part)
 254:..\..\..\arduinoLCD\test\Pain Drain\libraries\lvgl\src\widgets\../core/lv_obj_style_gen.h **** {
 255:..\..\..\arduinoLCD\test\Pain Drain\libraries\lvgl\src\widgets\../core/lv_obj_style_gen.h ****     lv_style_value_t v = lv_obj_get_style_prop(obj, part, LV_STYLE_BORDER_WIDTH);
 256:..\..\..\arduinoLCD\test\Pain Drain\libraries\lvgl\src\widgets\../core/lv_obj_style_gen.h ****     return (lv_coord_t)v.num;
 257:..\..\..\arduinoLCD\test\Pain Drain\libraries\lvgl\src\widgets\../core/lv_obj_style_gen.h **** }
 258:..\..\..\arduinoLCD\test\Pain Drain\libraries\lvgl\src\widgets\../core/lv_obj_style_gen.h **** 
 259:..\..\..\arduinoLCD\test\Pain Drain\libraries\lvgl\src\widgets\../core/lv_obj_style_gen.h **** static inline lv_border_side_t lv_obj_get_style_border_side(const struct _lv_obj_t * obj, uint32_t 
 260:..\..\..\arduinoLCD\test\Pain Drain\libraries\lvgl\src\widgets\../core/lv_obj_style_gen.h **** {
 261:..\..\..\arduinoLCD\test\Pain Drain\libraries\lvgl\src\widgets\../core/lv_obj_style_gen.h ****     lv_style_value_t v = lv_obj_get_style_prop(obj, part, LV_STYLE_BORDER_SIDE);
 262:..\..\..\arduinoLCD\test\Pain Drain\libraries\lvgl\src\widgets\../core/lv_obj_style_gen.h ****     return (lv_border_side_t)v.num;
ARM GAS  C:\Users\haske\AppData\Local\Temp\cc11ZRIl.s 			page 31


 263:..\..\..\arduinoLCD\test\Pain Drain\libraries\lvgl\src\widgets\../core/lv_obj_style_gen.h **** }
 264:..\..\..\arduinoLCD\test\Pain Drain\libraries\lvgl\src\widgets\../core/lv_obj_style_gen.h **** 
 265:..\..\..\arduinoLCD\test\Pain Drain\libraries\lvgl\src\widgets\../core/lv_obj_style_gen.h **** static inline bool lv_obj_get_style_border_post(const struct _lv_obj_t * obj, uint32_t part)
 266:..\..\..\arduinoLCD\test\Pain Drain\libraries\lvgl\src\widgets\../core/lv_obj_style_gen.h **** {
 267:..\..\..\arduinoLCD\test\Pain Drain\libraries\lvgl\src\widgets\../core/lv_obj_style_gen.h ****     lv_style_value_t v = lv_obj_get_style_prop(obj, part, LV_STYLE_BORDER_POST);
 268:..\..\..\arduinoLCD\test\Pain Drain\libraries\lvgl\src\widgets\../core/lv_obj_style_gen.h ****     return (bool)v.num;
 269:..\..\..\arduinoLCD\test\Pain Drain\libraries\lvgl\src\widgets\../core/lv_obj_style_gen.h **** }
 270:..\..\..\arduinoLCD\test\Pain Drain\libraries\lvgl\src\widgets\../core/lv_obj_style_gen.h **** 
 271:..\..\..\arduinoLCD\test\Pain Drain\libraries\lvgl\src\widgets\../core/lv_obj_style_gen.h **** static inline lv_coord_t lv_obj_get_style_outline_width(const struct _lv_obj_t * obj, uint32_t part
 272:..\..\..\arduinoLCD\test\Pain Drain\libraries\lvgl\src\widgets\../core/lv_obj_style_gen.h **** {
 273:..\..\..\arduinoLCD\test\Pain Drain\libraries\lvgl\src\widgets\../core/lv_obj_style_gen.h ****     lv_style_value_t v = lv_obj_get_style_prop(obj, part, LV_STYLE_OUTLINE_WIDTH);
 274:..\..\..\arduinoLCD\test\Pain Drain\libraries\lvgl\src\widgets\../core/lv_obj_style_gen.h ****     return (lv_coord_t)v.num;
 275:..\..\..\arduinoLCD\test\Pain Drain\libraries\lvgl\src\widgets\../core/lv_obj_style_gen.h **** }
 276:..\..\..\arduinoLCD\test\Pain Drain\libraries\lvgl\src\widgets\../core/lv_obj_style_gen.h **** 
 277:..\..\..\arduinoLCD\test\Pain Drain\libraries\lvgl\src\widgets\../core/lv_obj_style_gen.h **** static inline lv_color_t lv_obj_get_style_outline_color(const struct _lv_obj_t * obj, uint32_t part
 278:..\..\..\arduinoLCD\test\Pain Drain\libraries\lvgl\src\widgets\../core/lv_obj_style_gen.h **** {
 279:..\..\..\arduinoLCD\test\Pain Drain\libraries\lvgl\src\widgets\../core/lv_obj_style_gen.h ****     lv_style_value_t v = lv_obj_get_style_prop(obj, part, LV_STYLE_OUTLINE_COLOR);
 280:..\..\..\arduinoLCD\test\Pain Drain\libraries\lvgl\src\widgets\../core/lv_obj_style_gen.h ****     return v.color;
 281:..\..\..\arduinoLCD\test\Pain Drain\libraries\lvgl\src\widgets\../core/lv_obj_style_gen.h **** }
 282:..\..\..\arduinoLCD\test\Pain Drain\libraries\lvgl\src\widgets\../core/lv_obj_style_gen.h **** 
 283:..\..\..\arduinoLCD\test\Pain Drain\libraries\lvgl\src\widgets\../core/lv_obj_style_gen.h **** static inline lv_color_t lv_obj_get_style_outline_color_filtered(const struct _lv_obj_t * obj, uint
 284:..\..\..\arduinoLCD\test\Pain Drain\libraries\lvgl\src\widgets\../core/lv_obj_style_gen.h **** {
 285:..\..\..\arduinoLCD\test\Pain Drain\libraries\lvgl\src\widgets\../core/lv_obj_style_gen.h ****     lv_style_value_t v = _lv_obj_style_apply_color_filter(obj, part, lv_obj_get_style_prop(obj, par
 286:..\..\..\arduinoLCD\test\Pain Drain\libraries\lvgl\src\widgets\../core/lv_obj_style_gen.h ****     return v.color;
 287:..\..\..\arduinoLCD\test\Pain Drain\libraries\lvgl\src\widgets\../core/lv_obj_style_gen.h **** }
 288:..\..\..\arduinoLCD\test\Pain Drain\libraries\lvgl\src\widgets\../core/lv_obj_style_gen.h **** 
 289:..\..\..\arduinoLCD\test\Pain Drain\libraries\lvgl\src\widgets\../core/lv_obj_style_gen.h **** static inline lv_opa_t lv_obj_get_style_outline_opa(const struct _lv_obj_t * obj, uint32_t part)
 290:..\..\..\arduinoLCD\test\Pain Drain\libraries\lvgl\src\widgets\../core/lv_obj_style_gen.h **** {
 291:..\..\..\arduinoLCD\test\Pain Drain\libraries\lvgl\src\widgets\../core/lv_obj_style_gen.h ****     lv_style_value_t v = lv_obj_get_style_prop(obj, part, LV_STYLE_OUTLINE_OPA);
 292:..\..\..\arduinoLCD\test\Pain Drain\libraries\lvgl\src\widgets\../core/lv_obj_style_gen.h ****     return (lv_opa_t)v.num;
 293:..\..\..\arduinoLCD\test\Pain Drain\libraries\lvgl\src\widgets\../core/lv_obj_style_gen.h **** }
 294:..\..\..\arduinoLCD\test\Pain Drain\libraries\lvgl\src\widgets\../core/lv_obj_style_gen.h **** 
 295:..\..\..\arduinoLCD\test\Pain Drain\libraries\lvgl\src\widgets\../core/lv_obj_style_gen.h **** static inline lv_coord_t lv_obj_get_style_outline_pad(const struct _lv_obj_t * obj, uint32_t part)
 296:..\..\..\arduinoLCD\test\Pain Drain\libraries\lvgl\src\widgets\../core/lv_obj_style_gen.h **** {
 297:..\..\..\arduinoLCD\test\Pain Drain\libraries\lvgl\src\widgets\../core/lv_obj_style_gen.h ****     lv_style_value_t v = lv_obj_get_style_prop(obj, part, LV_STYLE_OUTLINE_PAD);
 298:..\..\..\arduinoLCD\test\Pain Drain\libraries\lvgl\src\widgets\../core/lv_obj_style_gen.h ****     return (lv_coord_t)v.num;
 299:..\..\..\arduinoLCD\test\Pain Drain\libraries\lvgl\src\widgets\../core/lv_obj_style_gen.h **** }
 300:..\..\..\arduinoLCD\test\Pain Drain\libraries\lvgl\src\widgets\../core/lv_obj_style_gen.h **** 
 301:..\..\..\arduinoLCD\test\Pain Drain\libraries\lvgl\src\widgets\../core/lv_obj_style_gen.h **** static inline lv_coord_t lv_obj_get_style_shadow_width(const struct _lv_obj_t * obj, uint32_t part)
 302:..\..\..\arduinoLCD\test\Pain Drain\libraries\lvgl\src\widgets\../core/lv_obj_style_gen.h **** {
 303:..\..\..\arduinoLCD\test\Pain Drain\libraries\lvgl\src\widgets\../core/lv_obj_style_gen.h ****     lv_style_value_t v = lv_obj_get_style_prop(obj, part, LV_STYLE_SHADOW_WIDTH);
 304:..\..\..\arduinoLCD\test\Pain Drain\libraries\lvgl\src\widgets\../core/lv_obj_style_gen.h ****     return (lv_coord_t)v.num;
 305:..\..\..\arduinoLCD\test\Pain Drain\libraries\lvgl\src\widgets\../core/lv_obj_style_gen.h **** }
 306:..\..\..\arduinoLCD\test\Pain Drain\libraries\lvgl\src\widgets\../core/lv_obj_style_gen.h **** 
 307:..\..\..\arduinoLCD\test\Pain Drain\libraries\lvgl\src\widgets\../core/lv_obj_style_gen.h **** static inline lv_coord_t lv_obj_get_style_shadow_ofs_x(const struct _lv_obj_t * obj, uint32_t part)
 308:..\..\..\arduinoLCD\test\Pain Drain\libraries\lvgl\src\widgets\../core/lv_obj_style_gen.h **** {
 309:..\..\..\arduinoLCD\test\Pain Drain\libraries\lvgl\src\widgets\../core/lv_obj_style_gen.h ****     lv_style_value_t v = lv_obj_get_style_prop(obj, part, LV_STYLE_SHADOW_OFS_X);
 310:..\..\..\arduinoLCD\test\Pain Drain\libraries\lvgl\src\widgets\../core/lv_obj_style_gen.h ****     return (lv_coord_t)v.num;
 311:..\..\..\arduinoLCD\test\Pain Drain\libraries\lvgl\src\widgets\../core/lv_obj_style_gen.h **** }
 312:..\..\..\arduinoLCD\test\Pain Drain\libraries\lvgl\src\widgets\../core/lv_obj_style_gen.h **** 
 313:..\..\..\arduinoLCD\test\Pain Drain\libraries\lvgl\src\widgets\../core/lv_obj_style_gen.h **** static inline lv_coord_t lv_obj_get_style_shadow_ofs_y(const struct _lv_obj_t * obj, uint32_t part)
 314:..\..\..\arduinoLCD\test\Pain Drain\libraries\lvgl\src\widgets\../core/lv_obj_style_gen.h **** {
 315:..\..\..\arduinoLCD\test\Pain Drain\libraries\lvgl\src\widgets\../core/lv_obj_style_gen.h ****     lv_style_value_t v = lv_obj_get_style_prop(obj, part, LV_STYLE_SHADOW_OFS_Y);
 316:..\..\..\arduinoLCD\test\Pain Drain\libraries\lvgl\src\widgets\../core/lv_obj_style_gen.h ****     return (lv_coord_t)v.num;
 317:..\..\..\arduinoLCD\test\Pain Drain\libraries\lvgl\src\widgets\../core/lv_obj_style_gen.h **** }
 318:..\..\..\arduinoLCD\test\Pain Drain\libraries\lvgl\src\widgets\../core/lv_obj_style_gen.h **** 
 319:..\..\..\arduinoLCD\test\Pain Drain\libraries\lvgl\src\widgets\../core/lv_obj_style_gen.h **** static inline lv_coord_t lv_obj_get_style_shadow_spread(const struct _lv_obj_t * obj, uint32_t part
ARM GAS  C:\Users\haske\AppData\Local\Temp\cc11ZRIl.s 			page 32


 320:..\..\..\arduinoLCD\test\Pain Drain\libraries\lvgl\src\widgets\../core/lv_obj_style_gen.h **** {
 321:..\..\..\arduinoLCD\test\Pain Drain\libraries\lvgl\src\widgets\../core/lv_obj_style_gen.h ****     lv_style_value_t v = lv_obj_get_style_prop(obj, part, LV_STYLE_SHADOW_SPREAD);
 322:..\..\..\arduinoLCD\test\Pain Drain\libraries\lvgl\src\widgets\../core/lv_obj_style_gen.h ****     return (lv_coord_t)v.num;
 323:..\..\..\arduinoLCD\test\Pain Drain\libraries\lvgl\src\widgets\../core/lv_obj_style_gen.h **** }
 324:..\..\..\arduinoLCD\test\Pain Drain\libraries\lvgl\src\widgets\../core/lv_obj_style_gen.h **** 
 325:..\..\..\arduinoLCD\test\Pain Drain\libraries\lvgl\src\widgets\../core/lv_obj_style_gen.h **** static inline lv_color_t lv_obj_get_style_shadow_color(const struct _lv_obj_t * obj, uint32_t part)
 326:..\..\..\arduinoLCD\test\Pain Drain\libraries\lvgl\src\widgets\../core/lv_obj_style_gen.h **** {
 327:..\..\..\arduinoLCD\test\Pain Drain\libraries\lvgl\src\widgets\../core/lv_obj_style_gen.h ****     lv_style_value_t v = lv_obj_get_style_prop(obj, part, LV_STYLE_SHADOW_COLOR);
 328:..\..\..\arduinoLCD\test\Pain Drain\libraries\lvgl\src\widgets\../core/lv_obj_style_gen.h ****     return v.color;
 329:..\..\..\arduinoLCD\test\Pain Drain\libraries\lvgl\src\widgets\../core/lv_obj_style_gen.h **** }
 330:..\..\..\arduinoLCD\test\Pain Drain\libraries\lvgl\src\widgets\../core/lv_obj_style_gen.h **** 
 331:..\..\..\arduinoLCD\test\Pain Drain\libraries\lvgl\src\widgets\../core/lv_obj_style_gen.h **** static inline lv_color_t lv_obj_get_style_shadow_color_filtered(const struct _lv_obj_t * obj, uint3
 332:..\..\..\arduinoLCD\test\Pain Drain\libraries\lvgl\src\widgets\../core/lv_obj_style_gen.h **** {
 333:..\..\..\arduinoLCD\test\Pain Drain\libraries\lvgl\src\widgets\../core/lv_obj_style_gen.h ****     lv_style_value_t v = _lv_obj_style_apply_color_filter(obj, part, lv_obj_get_style_prop(obj, par
 334:..\..\..\arduinoLCD\test\Pain Drain\libraries\lvgl\src\widgets\../core/lv_obj_style_gen.h ****     return v.color;
 335:..\..\..\arduinoLCD\test\Pain Drain\libraries\lvgl\src\widgets\../core/lv_obj_style_gen.h **** }
 336:..\..\..\arduinoLCD\test\Pain Drain\libraries\lvgl\src\widgets\../core/lv_obj_style_gen.h **** 
 337:..\..\..\arduinoLCD\test\Pain Drain\libraries\lvgl\src\widgets\../core/lv_obj_style_gen.h **** static inline lv_opa_t lv_obj_get_style_shadow_opa(const struct _lv_obj_t * obj, uint32_t part)
 338:..\..\..\arduinoLCD\test\Pain Drain\libraries\lvgl\src\widgets\../core/lv_obj_style_gen.h **** {
 339:..\..\..\arduinoLCD\test\Pain Drain\libraries\lvgl\src\widgets\../core/lv_obj_style_gen.h ****     lv_style_value_t v = lv_obj_get_style_prop(obj, part, LV_STYLE_SHADOW_OPA);
 340:..\..\..\arduinoLCD\test\Pain Drain\libraries\lvgl\src\widgets\../core/lv_obj_style_gen.h ****     return (lv_opa_t)v.num;
 341:..\..\..\arduinoLCD\test\Pain Drain\libraries\lvgl\src\widgets\../core/lv_obj_style_gen.h **** }
 342:..\..\..\arduinoLCD\test\Pain Drain\libraries\lvgl\src\widgets\../core/lv_obj_style_gen.h **** 
 343:..\..\..\arduinoLCD\test\Pain Drain\libraries\lvgl\src\widgets\../core/lv_obj_style_gen.h **** static inline lv_opa_t lv_obj_get_style_img_opa(const struct _lv_obj_t * obj, uint32_t part)
 344:..\..\..\arduinoLCD\test\Pain Drain\libraries\lvgl\src\widgets\../core/lv_obj_style_gen.h **** {
 345:..\..\..\arduinoLCD\test\Pain Drain\libraries\lvgl\src\widgets\../core/lv_obj_style_gen.h ****     lv_style_value_t v = lv_obj_get_style_prop(obj, part, LV_STYLE_IMG_OPA);
 346:..\..\..\arduinoLCD\test\Pain Drain\libraries\lvgl\src\widgets\../core/lv_obj_style_gen.h ****     return (lv_opa_t)v.num;
 347:..\..\..\arduinoLCD\test\Pain Drain\libraries\lvgl\src\widgets\../core/lv_obj_style_gen.h **** }
 348:..\..\..\arduinoLCD\test\Pain Drain\libraries\lvgl\src\widgets\../core/lv_obj_style_gen.h **** 
 349:..\..\..\arduinoLCD\test\Pain Drain\libraries\lvgl\src\widgets\../core/lv_obj_style_gen.h **** static inline lv_color_t lv_obj_get_style_img_recolor(const struct _lv_obj_t * obj, uint32_t part)
 350:..\..\..\arduinoLCD\test\Pain Drain\libraries\lvgl\src\widgets\../core/lv_obj_style_gen.h **** {
 351:..\..\..\arduinoLCD\test\Pain Drain\libraries\lvgl\src\widgets\../core/lv_obj_style_gen.h ****     lv_style_value_t v = lv_obj_get_style_prop(obj, part, LV_STYLE_IMG_RECOLOR);
 352:..\..\..\arduinoLCD\test\Pain Drain\libraries\lvgl\src\widgets\../core/lv_obj_style_gen.h ****     return v.color;
 353:..\..\..\arduinoLCD\test\Pain Drain\libraries\lvgl\src\widgets\../core/lv_obj_style_gen.h **** }
 354:..\..\..\arduinoLCD\test\Pain Drain\libraries\lvgl\src\widgets\../core/lv_obj_style_gen.h **** 
 355:..\..\..\arduinoLCD\test\Pain Drain\libraries\lvgl\src\widgets\../core/lv_obj_style_gen.h **** static inline lv_color_t lv_obj_get_style_img_recolor_filtered(const struct _lv_obj_t * obj, uint32
 356:..\..\..\arduinoLCD\test\Pain Drain\libraries\lvgl\src\widgets\../core/lv_obj_style_gen.h **** {
 357:..\..\..\arduinoLCD\test\Pain Drain\libraries\lvgl\src\widgets\../core/lv_obj_style_gen.h ****     lv_style_value_t v = _lv_obj_style_apply_color_filter(obj, part, lv_obj_get_style_prop(obj, par
 358:..\..\..\arduinoLCD\test\Pain Drain\libraries\lvgl\src\widgets\../core/lv_obj_style_gen.h ****     return v.color;
 359:..\..\..\arduinoLCD\test\Pain Drain\libraries\lvgl\src\widgets\../core/lv_obj_style_gen.h **** }
 360:..\..\..\arduinoLCD\test\Pain Drain\libraries\lvgl\src\widgets\../core/lv_obj_style_gen.h **** 
 361:..\..\..\arduinoLCD\test\Pain Drain\libraries\lvgl\src\widgets\../core/lv_obj_style_gen.h **** static inline lv_opa_t lv_obj_get_style_img_recolor_opa(const struct _lv_obj_t * obj, uint32_t part
 362:..\..\..\arduinoLCD\test\Pain Drain\libraries\lvgl\src\widgets\../core/lv_obj_style_gen.h **** {
 363:..\..\..\arduinoLCD\test\Pain Drain\libraries\lvgl\src\widgets\../core/lv_obj_style_gen.h ****     lv_style_value_t v = lv_obj_get_style_prop(obj, part, LV_STYLE_IMG_RECOLOR_OPA);
 364:..\..\..\arduinoLCD\test\Pain Drain\libraries\lvgl\src\widgets\../core/lv_obj_style_gen.h ****     return (lv_opa_t)v.num;
 365:..\..\..\arduinoLCD\test\Pain Drain\libraries\lvgl\src\widgets\../core/lv_obj_style_gen.h **** }
 366:..\..\..\arduinoLCD\test\Pain Drain\libraries\lvgl\src\widgets\../core/lv_obj_style_gen.h **** 
 367:..\..\..\arduinoLCD\test\Pain Drain\libraries\lvgl\src\widgets\../core/lv_obj_style_gen.h **** static inline lv_coord_t lv_obj_get_style_line_width(const struct _lv_obj_t * obj, uint32_t part)
 368:..\..\..\arduinoLCD\test\Pain Drain\libraries\lvgl\src\widgets\../core/lv_obj_style_gen.h **** {
 369:..\..\..\arduinoLCD\test\Pain Drain\libraries\lvgl\src\widgets\../core/lv_obj_style_gen.h ****     lv_style_value_t v = lv_obj_get_style_prop(obj, part, LV_STYLE_LINE_WIDTH);
 370:..\..\..\arduinoLCD\test\Pain Drain\libraries\lvgl\src\widgets\../core/lv_obj_style_gen.h ****     return (lv_coord_t)v.num;
 371:..\..\..\arduinoLCD\test\Pain Drain\libraries\lvgl\src\widgets\../core/lv_obj_style_gen.h **** }
 372:..\..\..\arduinoLCD\test\Pain Drain\libraries\lvgl\src\widgets\../core/lv_obj_style_gen.h **** 
 373:..\..\..\arduinoLCD\test\Pain Drain\libraries\lvgl\src\widgets\../core/lv_obj_style_gen.h **** static inline lv_coord_t lv_obj_get_style_line_dash_width(const struct _lv_obj_t * obj, uint32_t pa
 374:..\..\..\arduinoLCD\test\Pain Drain\libraries\lvgl\src\widgets\../core/lv_obj_style_gen.h **** {
 375:..\..\..\arduinoLCD\test\Pain Drain\libraries\lvgl\src\widgets\../core/lv_obj_style_gen.h ****     lv_style_value_t v = lv_obj_get_style_prop(obj, part, LV_STYLE_LINE_DASH_WIDTH);
 376:..\..\..\arduinoLCD\test\Pain Drain\libraries\lvgl\src\widgets\../core/lv_obj_style_gen.h ****     return (lv_coord_t)v.num;
ARM GAS  C:\Users\haske\AppData\Local\Temp\cc11ZRIl.s 			page 33


 377:..\..\..\arduinoLCD\test\Pain Drain\libraries\lvgl\src\widgets\../core/lv_obj_style_gen.h **** }
 378:..\..\..\arduinoLCD\test\Pain Drain\libraries\lvgl\src\widgets\../core/lv_obj_style_gen.h **** 
 379:..\..\..\arduinoLCD\test\Pain Drain\libraries\lvgl\src\widgets\../core/lv_obj_style_gen.h **** static inline lv_coord_t lv_obj_get_style_line_dash_gap(const struct _lv_obj_t * obj, uint32_t part
 380:..\..\..\arduinoLCD\test\Pain Drain\libraries\lvgl\src\widgets\../core/lv_obj_style_gen.h **** {
 381:..\..\..\arduinoLCD\test\Pain Drain\libraries\lvgl\src\widgets\../core/lv_obj_style_gen.h ****     lv_style_value_t v = lv_obj_get_style_prop(obj, part, LV_STYLE_LINE_DASH_GAP);
 382:..\..\..\arduinoLCD\test\Pain Drain\libraries\lvgl\src\widgets\../core/lv_obj_style_gen.h ****     return (lv_coord_t)v.num;
 383:..\..\..\arduinoLCD\test\Pain Drain\libraries\lvgl\src\widgets\../core/lv_obj_style_gen.h **** }
 384:..\..\..\arduinoLCD\test\Pain Drain\libraries\lvgl\src\widgets\../core/lv_obj_style_gen.h **** 
 385:..\..\..\arduinoLCD\test\Pain Drain\libraries\lvgl\src\widgets\../core/lv_obj_style_gen.h **** static inline bool lv_obj_get_style_line_rounded(const struct _lv_obj_t * obj, uint32_t part)
 386:..\..\..\arduinoLCD\test\Pain Drain\libraries\lvgl\src\widgets\../core/lv_obj_style_gen.h **** {
 387:..\..\..\arduinoLCD\test\Pain Drain\libraries\lvgl\src\widgets\../core/lv_obj_style_gen.h ****     lv_style_value_t v = lv_obj_get_style_prop(obj, part, LV_STYLE_LINE_ROUNDED);
 388:..\..\..\arduinoLCD\test\Pain Drain\libraries\lvgl\src\widgets\../core/lv_obj_style_gen.h ****     return (bool)v.num;
 389:..\..\..\arduinoLCD\test\Pain Drain\libraries\lvgl\src\widgets\../core/lv_obj_style_gen.h **** }
 390:..\..\..\arduinoLCD\test\Pain Drain\libraries\lvgl\src\widgets\../core/lv_obj_style_gen.h **** 
 391:..\..\..\arduinoLCD\test\Pain Drain\libraries\lvgl\src\widgets\../core/lv_obj_style_gen.h **** static inline lv_color_t lv_obj_get_style_line_color(const struct _lv_obj_t * obj, uint32_t part)
 392:..\..\..\arduinoLCD\test\Pain Drain\libraries\lvgl\src\widgets\../core/lv_obj_style_gen.h **** {
 393:..\..\..\arduinoLCD\test\Pain Drain\libraries\lvgl\src\widgets\../core/lv_obj_style_gen.h ****     lv_style_value_t v = lv_obj_get_style_prop(obj, part, LV_STYLE_LINE_COLOR);
 394:..\..\..\arduinoLCD\test\Pain Drain\libraries\lvgl\src\widgets\../core/lv_obj_style_gen.h ****     return v.color;
 395:..\..\..\arduinoLCD\test\Pain Drain\libraries\lvgl\src\widgets\../core/lv_obj_style_gen.h **** }
 396:..\..\..\arduinoLCD\test\Pain Drain\libraries\lvgl\src\widgets\../core/lv_obj_style_gen.h **** 
 397:..\..\..\arduinoLCD\test\Pain Drain\libraries\lvgl\src\widgets\../core/lv_obj_style_gen.h **** static inline lv_color_t lv_obj_get_style_line_color_filtered(const struct _lv_obj_t * obj, uint32_
 398:..\..\..\arduinoLCD\test\Pain Drain\libraries\lvgl\src\widgets\../core/lv_obj_style_gen.h **** {
 399:..\..\..\arduinoLCD\test\Pain Drain\libraries\lvgl\src\widgets\../core/lv_obj_style_gen.h ****     lv_style_value_t v = _lv_obj_style_apply_color_filter(obj, part, lv_obj_get_style_prop(obj, par
 400:..\..\..\arduinoLCD\test\Pain Drain\libraries\lvgl\src\widgets\../core/lv_obj_style_gen.h ****     return v.color;
 401:..\..\..\arduinoLCD\test\Pain Drain\libraries\lvgl\src\widgets\../core/lv_obj_style_gen.h **** }
 402:..\..\..\arduinoLCD\test\Pain Drain\libraries\lvgl\src\widgets\../core/lv_obj_style_gen.h **** 
 403:..\..\..\arduinoLCD\test\Pain Drain\libraries\lvgl\src\widgets\../core/lv_obj_style_gen.h **** static inline lv_opa_t lv_obj_get_style_line_opa(const struct _lv_obj_t * obj, uint32_t part)
 404:..\..\..\arduinoLCD\test\Pain Drain\libraries\lvgl\src\widgets\../core/lv_obj_style_gen.h **** {
 405:..\..\..\arduinoLCD\test\Pain Drain\libraries\lvgl\src\widgets\../core/lv_obj_style_gen.h ****     lv_style_value_t v = lv_obj_get_style_prop(obj, part, LV_STYLE_LINE_OPA);
 406:..\..\..\arduinoLCD\test\Pain Drain\libraries\lvgl\src\widgets\../core/lv_obj_style_gen.h ****     return (lv_opa_t)v.num;
 407:..\..\..\arduinoLCD\test\Pain Drain\libraries\lvgl\src\widgets\../core/lv_obj_style_gen.h **** }
 408:..\..\..\arduinoLCD\test\Pain Drain\libraries\lvgl\src\widgets\../core/lv_obj_style_gen.h **** 
 409:..\..\..\arduinoLCD\test\Pain Drain\libraries\lvgl\src\widgets\../core/lv_obj_style_gen.h **** static inline lv_coord_t lv_obj_get_style_arc_width(const struct _lv_obj_t * obj, uint32_t part)
 410:..\..\..\arduinoLCD\test\Pain Drain\libraries\lvgl\src\widgets\../core/lv_obj_style_gen.h **** {
 411:..\..\..\arduinoLCD\test\Pain Drain\libraries\lvgl\src\widgets\../core/lv_obj_style_gen.h ****     lv_style_value_t v = lv_obj_get_style_prop(obj, part, LV_STYLE_ARC_WIDTH);
 412:..\..\..\arduinoLCD\test\Pain Drain\libraries\lvgl\src\widgets\../core/lv_obj_style_gen.h ****     return (lv_coord_t)v.num;
 413:..\..\..\arduinoLCD\test\Pain Drain\libraries\lvgl\src\widgets\../core/lv_obj_style_gen.h **** }
 414:..\..\..\arduinoLCD\test\Pain Drain\libraries\lvgl\src\widgets\../core/lv_obj_style_gen.h **** 
 415:..\..\..\arduinoLCD\test\Pain Drain\libraries\lvgl\src\widgets\../core/lv_obj_style_gen.h **** static inline bool lv_obj_get_style_arc_rounded(const struct _lv_obj_t * obj, uint32_t part)
 416:..\..\..\arduinoLCD\test\Pain Drain\libraries\lvgl\src\widgets\../core/lv_obj_style_gen.h **** {
 417:..\..\..\arduinoLCD\test\Pain Drain\libraries\lvgl\src\widgets\../core/lv_obj_style_gen.h ****     lv_style_value_t v = lv_obj_get_style_prop(obj, part, LV_STYLE_ARC_ROUNDED);
 418:..\..\..\arduinoLCD\test\Pain Drain\libraries\lvgl\src\widgets\../core/lv_obj_style_gen.h ****     return (bool)v.num;
 419:..\..\..\arduinoLCD\test\Pain Drain\libraries\lvgl\src\widgets\../core/lv_obj_style_gen.h **** }
 420:..\..\..\arduinoLCD\test\Pain Drain\libraries\lvgl\src\widgets\../core/lv_obj_style_gen.h **** 
 421:..\..\..\arduinoLCD\test\Pain Drain\libraries\lvgl\src\widgets\../core/lv_obj_style_gen.h **** static inline lv_color_t lv_obj_get_style_arc_color(const struct _lv_obj_t * obj, uint32_t part)
 422:..\..\..\arduinoLCD\test\Pain Drain\libraries\lvgl\src\widgets\../core/lv_obj_style_gen.h **** {
 423:..\..\..\arduinoLCD\test\Pain Drain\libraries\lvgl\src\widgets\../core/lv_obj_style_gen.h ****     lv_style_value_t v = lv_obj_get_style_prop(obj, part, LV_STYLE_ARC_COLOR);
 424:..\..\..\arduinoLCD\test\Pain Drain\libraries\lvgl\src\widgets\../core/lv_obj_style_gen.h ****     return v.color;
 425:..\..\..\arduinoLCD\test\Pain Drain\libraries\lvgl\src\widgets\../core/lv_obj_style_gen.h **** }
 426:..\..\..\arduinoLCD\test\Pain Drain\libraries\lvgl\src\widgets\../core/lv_obj_style_gen.h **** 
 427:..\..\..\arduinoLCD\test\Pain Drain\libraries\lvgl\src\widgets\../core/lv_obj_style_gen.h **** static inline lv_color_t lv_obj_get_style_arc_color_filtered(const struct _lv_obj_t * obj, uint32_t
 428:..\..\..\arduinoLCD\test\Pain Drain\libraries\lvgl\src\widgets\../core/lv_obj_style_gen.h **** {
 429:..\..\..\arduinoLCD\test\Pain Drain\libraries\lvgl\src\widgets\../core/lv_obj_style_gen.h ****     lv_style_value_t v = _lv_obj_style_apply_color_filter(obj, part, lv_obj_get_style_prop(obj, par
 430:..\..\..\arduinoLCD\test\Pain Drain\libraries\lvgl\src\widgets\../core/lv_obj_style_gen.h ****     return v.color;
 431:..\..\..\arduinoLCD\test\Pain Drain\libraries\lvgl\src\widgets\../core/lv_obj_style_gen.h **** }
 432:..\..\..\arduinoLCD\test\Pain Drain\libraries\lvgl\src\widgets\../core/lv_obj_style_gen.h **** 
 433:..\..\..\arduinoLCD\test\Pain Drain\libraries\lvgl\src\widgets\../core/lv_obj_style_gen.h **** static inline lv_opa_t lv_obj_get_style_arc_opa(const struct _lv_obj_t * obj, uint32_t part)
ARM GAS  C:\Users\haske\AppData\Local\Temp\cc11ZRIl.s 			page 34


 434:..\..\..\arduinoLCD\test\Pain Drain\libraries\lvgl\src\widgets\../core/lv_obj_style_gen.h **** {
 435:..\..\..\arduinoLCD\test\Pain Drain\libraries\lvgl\src\widgets\../core/lv_obj_style_gen.h ****     lv_style_value_t v = lv_obj_get_style_prop(obj, part, LV_STYLE_ARC_OPA);
 436:..\..\..\arduinoLCD\test\Pain Drain\libraries\lvgl\src\widgets\../core/lv_obj_style_gen.h ****     return (lv_opa_t)v.num;
 437:..\..\..\arduinoLCD\test\Pain Drain\libraries\lvgl\src\widgets\../core/lv_obj_style_gen.h **** }
 438:..\..\..\arduinoLCD\test\Pain Drain\libraries\lvgl\src\widgets\../core/lv_obj_style_gen.h **** 
 439:..\..\..\arduinoLCD\test\Pain Drain\libraries\lvgl\src\widgets\../core/lv_obj_style_gen.h **** static inline const void * lv_obj_get_style_arc_img_src(const struct _lv_obj_t * obj, uint32_t part
 440:..\..\..\arduinoLCD\test\Pain Drain\libraries\lvgl\src\widgets\../core/lv_obj_style_gen.h **** {
 441:..\..\..\arduinoLCD\test\Pain Drain\libraries\lvgl\src\widgets\../core/lv_obj_style_gen.h ****     lv_style_value_t v = lv_obj_get_style_prop(obj, part, LV_STYLE_ARC_IMG_SRC);
 442:..\..\..\arduinoLCD\test\Pain Drain\libraries\lvgl\src\widgets\../core/lv_obj_style_gen.h ****     return (const void *)v.ptr;
 443:..\..\..\arduinoLCD\test\Pain Drain\libraries\lvgl\src\widgets\../core/lv_obj_style_gen.h **** }
 444:..\..\..\arduinoLCD\test\Pain Drain\libraries\lvgl\src\widgets\../core/lv_obj_style_gen.h **** 
 445:..\..\..\arduinoLCD\test\Pain Drain\libraries\lvgl\src\widgets\../core/lv_obj_style_gen.h **** static inline lv_color_t lv_obj_get_style_text_color(const struct _lv_obj_t * obj, uint32_t part)
 446:..\..\..\arduinoLCD\test\Pain Drain\libraries\lvgl\src\widgets\../core/lv_obj_style_gen.h **** {
 447:..\..\..\arduinoLCD\test\Pain Drain\libraries\lvgl\src\widgets\../core/lv_obj_style_gen.h ****     lv_style_value_t v = lv_obj_get_style_prop(obj, part, LV_STYLE_TEXT_COLOR);
 448:..\..\..\arduinoLCD\test\Pain Drain\libraries\lvgl\src\widgets\../core/lv_obj_style_gen.h ****     return v.color;
 449:..\..\..\arduinoLCD\test\Pain Drain\libraries\lvgl\src\widgets\../core/lv_obj_style_gen.h **** }
 450:..\..\..\arduinoLCD\test\Pain Drain\libraries\lvgl\src\widgets\../core/lv_obj_style_gen.h **** 
 451:..\..\..\arduinoLCD\test\Pain Drain\libraries\lvgl\src\widgets\../core/lv_obj_style_gen.h **** static inline lv_color_t lv_obj_get_style_text_color_filtered(const struct _lv_obj_t * obj, uint32_
 452:..\..\..\arduinoLCD\test\Pain Drain\libraries\lvgl\src\widgets\../core/lv_obj_style_gen.h **** {
 453:..\..\..\arduinoLCD\test\Pain Drain\libraries\lvgl\src\widgets\../core/lv_obj_style_gen.h ****     lv_style_value_t v = _lv_obj_style_apply_color_filter(obj, part, lv_obj_get_style_prop(obj, par
 454:..\..\..\arduinoLCD\test\Pain Drain\libraries\lvgl\src\widgets\../core/lv_obj_style_gen.h ****     return v.color;
 455:..\..\..\arduinoLCD\test\Pain Drain\libraries\lvgl\src\widgets\../core/lv_obj_style_gen.h **** }
 456:..\..\..\arduinoLCD\test\Pain Drain\libraries\lvgl\src\widgets\../core/lv_obj_style_gen.h **** 
 457:..\..\..\arduinoLCD\test\Pain Drain\libraries\lvgl\src\widgets\../core/lv_obj_style_gen.h **** static inline lv_opa_t lv_obj_get_style_text_opa(const struct _lv_obj_t * obj, uint32_t part)
 458:..\..\..\arduinoLCD\test\Pain Drain\libraries\lvgl\src\widgets\../core/lv_obj_style_gen.h **** {
 459:..\..\..\arduinoLCD\test\Pain Drain\libraries\lvgl\src\widgets\../core/lv_obj_style_gen.h ****     lv_style_value_t v = lv_obj_get_style_prop(obj, part, LV_STYLE_TEXT_OPA);
 460:..\..\..\arduinoLCD\test\Pain Drain\libraries\lvgl\src\widgets\../core/lv_obj_style_gen.h ****     return (lv_opa_t)v.num;
 461:..\..\..\arduinoLCD\test\Pain Drain\libraries\lvgl\src\widgets\../core/lv_obj_style_gen.h **** }
 462:..\..\..\arduinoLCD\test\Pain Drain\libraries\lvgl\src\widgets\../core/lv_obj_style_gen.h **** 
 463:..\..\..\arduinoLCD\test\Pain Drain\libraries\lvgl\src\widgets\../core/lv_obj_style_gen.h **** static inline const lv_font_t * lv_obj_get_style_text_font(const struct _lv_obj_t * obj, uint32_t p
 464:..\..\..\arduinoLCD\test\Pain Drain\libraries\lvgl\src\widgets\../core/lv_obj_style_gen.h **** {
 465:..\..\..\arduinoLCD\test\Pain Drain\libraries\lvgl\src\widgets\../core/lv_obj_style_gen.h ****     lv_style_value_t v = lv_obj_get_style_prop(obj, part, LV_STYLE_TEXT_FONT);
 466:..\..\..\arduinoLCD\test\Pain Drain\libraries\lvgl\src\widgets\../core/lv_obj_style_gen.h ****     return (const lv_font_t *)v.ptr;
 467:..\..\..\arduinoLCD\test\Pain Drain\libraries\lvgl\src\widgets\../core/lv_obj_style_gen.h **** }
 468:..\..\..\arduinoLCD\test\Pain Drain\libraries\lvgl\src\widgets\../core/lv_obj_style_gen.h **** 
 469:..\..\..\arduinoLCD\test\Pain Drain\libraries\lvgl\src\widgets\../core/lv_obj_style_gen.h **** static inline lv_coord_t lv_obj_get_style_text_letter_space(const struct _lv_obj_t * obj, uint32_t 
 470:..\..\..\arduinoLCD\test\Pain Drain\libraries\lvgl\src\widgets\../core/lv_obj_style_gen.h **** {
 471:..\..\..\arduinoLCD\test\Pain Drain\libraries\lvgl\src\widgets\../core/lv_obj_style_gen.h ****     lv_style_value_t v = lv_obj_get_style_prop(obj, part, LV_STYLE_TEXT_LETTER_SPACE);
 472:..\..\..\arduinoLCD\test\Pain Drain\libraries\lvgl\src\widgets\../core/lv_obj_style_gen.h ****     return (lv_coord_t)v.num;
 473:..\..\..\arduinoLCD\test\Pain Drain\libraries\lvgl\src\widgets\../core/lv_obj_style_gen.h **** }
 474:..\..\..\arduinoLCD\test\Pain Drain\libraries\lvgl\src\widgets\../core/lv_obj_style_gen.h **** 
 475:..\..\..\arduinoLCD\test\Pain Drain\libraries\lvgl\src\widgets\../core/lv_obj_style_gen.h **** static inline lv_coord_t lv_obj_get_style_text_line_space(const struct _lv_obj_t * obj, uint32_t pa
 476:..\..\..\arduinoLCD\test\Pain Drain\libraries\lvgl\src\widgets\../core/lv_obj_style_gen.h **** {
 477:..\..\..\arduinoLCD\test\Pain Drain\libraries\lvgl\src\widgets\../core/lv_obj_style_gen.h ****     lv_style_value_t v = lv_obj_get_style_prop(obj, part, LV_STYLE_TEXT_LINE_SPACE);
 478:..\..\..\arduinoLCD\test\Pain Drain\libraries\lvgl\src\widgets\../core/lv_obj_style_gen.h ****     return (lv_coord_t)v.num;
 479:..\..\..\arduinoLCD\test\Pain Drain\libraries\lvgl\src\widgets\../core/lv_obj_style_gen.h **** }
 480:..\..\..\arduinoLCD\test\Pain Drain\libraries\lvgl\src\widgets\../core/lv_obj_style_gen.h **** 
 481:..\..\..\arduinoLCD\test\Pain Drain\libraries\lvgl\src\widgets\../core/lv_obj_style_gen.h **** static inline lv_text_decor_t lv_obj_get_style_text_decor(const struct _lv_obj_t * obj, uint32_t pa
 482:..\..\..\arduinoLCD\test\Pain Drain\libraries\lvgl\src\widgets\../core/lv_obj_style_gen.h **** {
 483:..\..\..\arduinoLCD\test\Pain Drain\libraries\lvgl\src\widgets\../core/lv_obj_style_gen.h ****     lv_style_value_t v = lv_obj_get_style_prop(obj, part, LV_STYLE_TEXT_DECOR);
 484:..\..\..\arduinoLCD\test\Pain Drain\libraries\lvgl\src\widgets\../core/lv_obj_style_gen.h ****     return (lv_text_decor_t)v.num;
 485:..\..\..\arduinoLCD\test\Pain Drain\libraries\lvgl\src\widgets\../core/lv_obj_style_gen.h **** }
 486:..\..\..\arduinoLCD\test\Pain Drain\libraries\lvgl\src\widgets\../core/lv_obj_style_gen.h **** 
 487:..\..\..\arduinoLCD\test\Pain Drain\libraries\lvgl\src\widgets\../core/lv_obj_style_gen.h **** static inline lv_text_align_t lv_obj_get_style_text_align(const struct _lv_obj_t * obj, uint32_t pa
 488:..\..\..\arduinoLCD\test\Pain Drain\libraries\lvgl\src\widgets\../core/lv_obj_style_gen.h **** {
 489:..\..\..\arduinoLCD\test\Pain Drain\libraries\lvgl\src\widgets\../core/lv_obj_style_gen.h ****     lv_style_value_t v = lv_obj_get_style_prop(obj, part, LV_STYLE_TEXT_ALIGN);
 490:..\..\..\arduinoLCD\test\Pain Drain\libraries\lvgl\src\widgets\../core/lv_obj_style_gen.h ****     return (lv_text_align_t)v.num;
ARM GAS  C:\Users\haske\AppData\Local\Temp\cc11ZRIl.s 			page 35


 491:..\..\..\arduinoLCD\test\Pain Drain\libraries\lvgl\src\widgets\../core/lv_obj_style_gen.h **** }
 492:..\..\..\arduinoLCD\test\Pain Drain\libraries\lvgl\src\widgets\../core/lv_obj_style_gen.h **** 
 493:..\..\..\arduinoLCD\test\Pain Drain\libraries\lvgl\src\widgets\../core/lv_obj_style_gen.h **** static inline lv_coord_t lv_obj_get_style_radius(const struct _lv_obj_t * obj, uint32_t part)
 494:..\..\..\arduinoLCD\test\Pain Drain\libraries\lvgl\src\widgets\../core/lv_obj_style_gen.h **** {
 495:..\..\..\arduinoLCD\test\Pain Drain\libraries\lvgl\src\widgets\../core/lv_obj_style_gen.h ****     lv_style_value_t v = lv_obj_get_style_prop(obj, part, LV_STYLE_RADIUS);
 496:..\..\..\arduinoLCD\test\Pain Drain\libraries\lvgl\src\widgets\../core/lv_obj_style_gen.h ****     return (lv_coord_t)v.num;
 497:..\..\..\arduinoLCD\test\Pain Drain\libraries\lvgl\src\widgets\../core/lv_obj_style_gen.h **** }
 498:..\..\..\arduinoLCD\test\Pain Drain\libraries\lvgl\src\widgets\../core/lv_obj_style_gen.h **** 
 499:..\..\..\arduinoLCD\test\Pain Drain\libraries\lvgl\src\widgets\../core/lv_obj_style_gen.h **** static inline bool lv_obj_get_style_clip_corner(const struct _lv_obj_t * obj, uint32_t part)
 500:..\..\..\arduinoLCD\test\Pain Drain\libraries\lvgl\src\widgets\../core/lv_obj_style_gen.h **** {
 501:..\..\..\arduinoLCD\test\Pain Drain\libraries\lvgl\src\widgets\../core/lv_obj_style_gen.h ****     lv_style_value_t v = lv_obj_get_style_prop(obj, part, LV_STYLE_CLIP_CORNER);
 502:..\..\..\arduinoLCD\test\Pain Drain\libraries\lvgl\src\widgets\../core/lv_obj_style_gen.h ****     return (bool)v.num;
 503:..\..\..\arduinoLCD\test\Pain Drain\libraries\lvgl\src\widgets\../core/lv_obj_style_gen.h **** }
 504:..\..\..\arduinoLCD\test\Pain Drain\libraries\lvgl\src\widgets\../core/lv_obj_style_gen.h **** 
 505:..\..\..\arduinoLCD\test\Pain Drain\libraries\lvgl\src\widgets\../core/lv_obj_style_gen.h **** static inline lv_opa_t lv_obj_get_style_opa(const struct _lv_obj_t * obj, uint32_t part)
 506:..\..\..\arduinoLCD\test\Pain Drain\libraries\lvgl\src\widgets\../core/lv_obj_style_gen.h **** {
 507:..\..\..\arduinoLCD\test\Pain Drain\libraries\lvgl\src\widgets\../core/lv_obj_style_gen.h ****     lv_style_value_t v = lv_obj_get_style_prop(obj, part, LV_STYLE_OPA);
 508:..\..\..\arduinoLCD\test\Pain Drain\libraries\lvgl\src\widgets\../core/lv_obj_style_gen.h ****     return (lv_opa_t)v.num;
 509:..\..\..\arduinoLCD\test\Pain Drain\libraries\lvgl\src\widgets\../core/lv_obj_style_gen.h **** }
 510:..\..\..\arduinoLCD\test\Pain Drain\libraries\lvgl\src\widgets\../core/lv_obj_style_gen.h **** 
 511:..\..\..\arduinoLCD\test\Pain Drain\libraries\lvgl\src\widgets\../core/lv_obj_style_gen.h **** static inline const lv_color_filter_dsc_t * lv_obj_get_style_color_filter_dsc(const struct _lv_obj_
 512:..\..\..\arduinoLCD\test\Pain Drain\libraries\lvgl\src\widgets\../core/lv_obj_style_gen.h **** {
 513:..\..\..\arduinoLCD\test\Pain Drain\libraries\lvgl\src\widgets\../core/lv_obj_style_gen.h ****     lv_style_value_t v = lv_obj_get_style_prop(obj, part, LV_STYLE_COLOR_FILTER_DSC);
 514:..\..\..\arduinoLCD\test\Pain Drain\libraries\lvgl\src\widgets\../core/lv_obj_style_gen.h ****     return (const lv_color_filter_dsc_t *)v.ptr;
 515:..\..\..\arduinoLCD\test\Pain Drain\libraries\lvgl\src\widgets\../core/lv_obj_style_gen.h **** }
 516:..\..\..\arduinoLCD\test\Pain Drain\libraries\lvgl\src\widgets\../core/lv_obj_style_gen.h **** 
 517:..\..\..\arduinoLCD\test\Pain Drain\libraries\lvgl\src\widgets\../core/lv_obj_style_gen.h **** static inline lv_opa_t lv_obj_get_style_color_filter_opa(const struct _lv_obj_t * obj, uint32_t par
 518:..\..\..\arduinoLCD\test\Pain Drain\libraries\lvgl\src\widgets\../core/lv_obj_style_gen.h **** {
 519:..\..\..\arduinoLCD\test\Pain Drain\libraries\lvgl\src\widgets\../core/lv_obj_style_gen.h ****     lv_style_value_t v = lv_obj_get_style_prop(obj, part, LV_STYLE_COLOR_FILTER_OPA);
 520:..\..\..\arduinoLCD\test\Pain Drain\libraries\lvgl\src\widgets\../core/lv_obj_style_gen.h ****     return (lv_opa_t)v.num;
 521:..\..\..\arduinoLCD\test\Pain Drain\libraries\lvgl\src\widgets\../core/lv_obj_style_gen.h **** }
 522:..\..\..\arduinoLCD\test\Pain Drain\libraries\lvgl\src\widgets\../core/lv_obj_style_gen.h **** 
 523:..\..\..\arduinoLCD\test\Pain Drain\libraries\lvgl\src\widgets\../core/lv_obj_style_gen.h **** static inline const lv_anim_t * lv_obj_get_style_anim(const struct _lv_obj_t * obj, uint32_t part)
 524:..\..\..\arduinoLCD\test\Pain Drain\libraries\lvgl\src\widgets\../core/lv_obj_style_gen.h **** {
 525:..\..\..\arduinoLCD\test\Pain Drain\libraries\lvgl\src\widgets\../core/lv_obj_style_gen.h ****     lv_style_value_t v = lv_obj_get_style_prop(obj, part, LV_STYLE_ANIM);
 526:..\..\..\arduinoLCD\test\Pain Drain\libraries\lvgl\src\widgets\../core/lv_obj_style_gen.h ****     return (const lv_anim_t *)v.ptr;
 527:..\..\..\arduinoLCD\test\Pain Drain\libraries\lvgl\src\widgets\../core/lv_obj_style_gen.h **** }
 528:..\..\..\arduinoLCD\test\Pain Drain\libraries\lvgl\src\widgets\../core/lv_obj_style_gen.h **** 
 529:..\..\..\arduinoLCD\test\Pain Drain\libraries\lvgl\src\widgets\../core/lv_obj_style_gen.h **** static inline uint32_t lv_obj_get_style_anim_time(const struct _lv_obj_t * obj, uint32_t part)
 530:..\..\..\arduinoLCD\test\Pain Drain\libraries\lvgl\src\widgets\../core/lv_obj_style_gen.h **** {
 531:..\..\..\arduinoLCD\test\Pain Drain\libraries\lvgl\src\widgets\../core/lv_obj_style_gen.h ****     lv_style_value_t v = lv_obj_get_style_prop(obj, part, LV_STYLE_ANIM_TIME);
 532:..\..\..\arduinoLCD\test\Pain Drain\libraries\lvgl\src\widgets\../core/lv_obj_style_gen.h ****     return (uint32_t)v.num;
 533:..\..\..\arduinoLCD\test\Pain Drain\libraries\lvgl\src\widgets\../core/lv_obj_style_gen.h **** }
 534:..\..\..\arduinoLCD\test\Pain Drain\libraries\lvgl\src\widgets\../core/lv_obj_style_gen.h **** 
 535:..\..\..\arduinoLCD\test\Pain Drain\libraries\lvgl\src\widgets\../core/lv_obj_style_gen.h **** static inline uint32_t lv_obj_get_style_anim_speed(const struct _lv_obj_t * obj, uint32_t part)
 536:..\..\..\arduinoLCD\test\Pain Drain\libraries\lvgl\src\widgets\../core/lv_obj_style_gen.h **** {
 537:..\..\..\arduinoLCD\test\Pain Drain\libraries\lvgl\src\widgets\../core/lv_obj_style_gen.h ****     lv_style_value_t v = lv_obj_get_style_prop(obj, part, LV_STYLE_ANIM_SPEED);
 538:..\..\..\arduinoLCD\test\Pain Drain\libraries\lvgl\src\widgets\../core/lv_obj_style_gen.h ****     return (uint32_t)v.num;
 539:..\..\..\arduinoLCD\test\Pain Drain\libraries\lvgl\src\widgets\../core/lv_obj_style_gen.h **** }
 540:..\..\..\arduinoLCD\test\Pain Drain\libraries\lvgl\src\widgets\../core/lv_obj_style_gen.h **** 
 541:..\..\..\arduinoLCD\test\Pain Drain\libraries\lvgl\src\widgets\../core/lv_obj_style_gen.h **** static inline const lv_style_transition_dsc_t * lv_obj_get_style_transition(const struct _lv_obj_t 
 542:..\..\..\arduinoLCD\test\Pain Drain\libraries\lvgl\src\widgets\../core/lv_obj_style_gen.h **** {
 543:..\..\..\arduinoLCD\test\Pain Drain\libraries\lvgl\src\widgets\../core/lv_obj_style_gen.h ****     lv_style_value_t v = lv_obj_get_style_prop(obj, part, LV_STYLE_TRANSITION);
 544:..\..\..\arduinoLCD\test\Pain Drain\libraries\lvgl\src\widgets\../core/lv_obj_style_gen.h ****     return (const lv_style_transition_dsc_t *)v.ptr;
 545:..\..\..\arduinoLCD\test\Pain Drain\libraries\lvgl\src\widgets\../core/lv_obj_style_gen.h **** }
 546:..\..\..\arduinoLCD\test\Pain Drain\libraries\lvgl\src\widgets\../core/lv_obj_style_gen.h **** 
 547:..\..\..\arduinoLCD\test\Pain Drain\libraries\lvgl\src\widgets\../core/lv_obj_style_gen.h **** static inline lv_blend_mode_t lv_obj_get_style_blend_mode(const struct _lv_obj_t * obj, uint32_t pa
ARM GAS  C:\Users\haske\AppData\Local\Temp\cc11ZRIl.s 			page 36


 548:..\..\..\arduinoLCD\test\Pain Drain\libraries\lvgl\src\widgets\../core/lv_obj_style_gen.h **** {
 549:..\..\..\arduinoLCD\test\Pain Drain\libraries\lvgl\src\widgets\../core/lv_obj_style_gen.h ****     lv_style_value_t v = lv_obj_get_style_prop(obj, part, LV_STYLE_BLEND_MODE);
 550:..\..\..\arduinoLCD\test\Pain Drain\libraries\lvgl\src\widgets\../core/lv_obj_style_gen.h ****     return (lv_blend_mode_t)v.num;
 551:..\..\..\arduinoLCD\test\Pain Drain\libraries\lvgl\src\widgets\../core/lv_obj_style_gen.h **** }
 552:..\..\..\arduinoLCD\test\Pain Drain\libraries\lvgl\src\widgets\../core/lv_obj_style_gen.h **** 
 553:..\..\..\arduinoLCD\test\Pain Drain\libraries\lvgl\src\widgets\../core/lv_obj_style_gen.h **** static inline uint16_t lv_obj_get_style_layout(const struct _lv_obj_t * obj, uint32_t part)
 554:..\..\..\arduinoLCD\test\Pain Drain\libraries\lvgl\src\widgets\../core/lv_obj_style_gen.h **** {
 555:..\..\..\arduinoLCD\test\Pain Drain\libraries\lvgl\src\widgets\../core/lv_obj_style_gen.h ****     lv_style_value_t v = lv_obj_get_style_prop(obj, part, LV_STYLE_LAYOUT);
 556:..\..\..\arduinoLCD\test\Pain Drain\libraries\lvgl\src\widgets\../core/lv_obj_style_gen.h ****     return (uint16_t)v.num;
 557:..\..\..\arduinoLCD\test\Pain Drain\libraries\lvgl\src\widgets\../core/lv_obj_style_gen.h **** }
 558:..\..\..\arduinoLCD\test\Pain Drain\libraries\lvgl\src\widgets\../core/lv_obj_style_gen.h **** 
 559:..\..\..\arduinoLCD\test\Pain Drain\libraries\lvgl\src\widgets\../core/lv_obj_style_gen.h **** static inline lv_base_dir_t lv_obj_get_style_base_dir(const struct _lv_obj_t * obj, uint32_t part)
 560:..\..\..\arduinoLCD\test\Pain Drain\libraries\lvgl\src\widgets\../core/lv_obj_style_gen.h **** {
 561:..\..\..\arduinoLCD\test\Pain Drain\libraries\lvgl\src\widgets\../core/lv_obj_style_gen.h ****     lv_style_value_t v = lv_obj_get_style_prop(obj, part, LV_STYLE_BASE_DIR);
 638              		.loc 3 561 0
 639 027e 1622     		movs	r2, #22
 640 0280 0021     		movs	r1, #0
 641 0282 2000     		movs	r0, r4
 642 0284 FFF7FEFF 		bl	lv_obj_get_style_prop
 643              	.LVL68:
 562:..\..\..\arduinoLCD\test\Pain Drain\libraries\lvgl\src\widgets\../core/lv_obj_style_gen.h ****     return (lv_base_dir_t)v.num;
 644              		.loc 3 562 0
 645 0288 C0B2     		uxtb	r0, r0
 646              	.LVL69:
 647              	.LBE102:
 648              	.LBE101:
 340:..\..\..\arduinoLCD\test\Pain Drain\libraries\lvgl\src\widgets/lv_bar.c ****         /*Swap axes*/
 649              		.loc 2 340 0
 650 028a D145     		cmp	r9, r10
 651 028c 0ADC     		bgt	.L15
 340:..\..\..\arduinoLCD\test\Pain Drain\libraries\lvgl\src\widgets/lv_bar.c ****         /*Swap axes*/
 652              		.loc 2 340 0 is_stmt 0 discriminator 1
 653 028e 0128     		cmp	r0, #1
 654 0290 08D1     		bne	.L15
 655              	.LVL70:
 656              	.LBB103:
 346:..\..\..\arduinoLCD\test\Pain Drain\libraries\lvgl\src\widgets/lv_bar.c ****         anim_start_value_x = -anim_start_value_x;
 657              		.loc 2 346 0 is_stmt 1
 658 0292 6D42     		rsbs	r5, r5, #0
 659              	.LVL71:
 660 0294 2DB2     		sxth	r5, r5
 661              	.LVL72:
 347:..\..\..\arduinoLCD\test\Pain Drain\libraries\lvgl\src\widgets/lv_bar.c ****     }
 662              		.loc 2 347 0
 663 0296 4346     		mov	r3, r8
 664 0298 5842     		rsbs	r0, r3, #0
 665 029a 03B2     		sxth	r3, r0
 666 029c 9846     		mov	r8, r3
 667              	.LVL73:
 668 029e 3300     		movs	r3, r6
 344:..\..\..\arduinoLCD\test\Pain Drain\libraries\lvgl\src\widgets/lv_bar.c ****         axis2 = tmp;
 669              		.loc 2 344 0
 670 02a0 5E46     		mov	r6, fp
 671              	.LVL74:
 345:..\..\..\arduinoLCD\test\Pain Drain\libraries\lvgl\src\widgets/lv_bar.c ****         anim_cur_value_x = -anim_cur_value_x;
 672              		.loc 2 345 0
 673 02a2 9B46     		mov	fp, r3
ARM GAS  C:\Users\haske\AppData\Local\Temp\cc11ZRIl.s 			page 37


 674              	.LVL75:
 675              	.L15:
 676              	.LBE103:
 351:..\..\..\arduinoLCD\test\Pain Drain\libraries\lvgl\src\widgets/lv_bar.c ****         *axis2 = *axis1 + anim_cur_value_x;
 677              		.loc 2 351 0
 678 02a4 D145     		cmp	r9, r10
 679 02a6 08DC     		bgt	.L16
 352:..\..\..\arduinoLCD\test\Pain Drain\libraries\lvgl\src\widgets/lv_bar.c ****         *axis1 += anim_start_value_x;
 680              		.loc 2 352 0
 681 02a8 0023     		movs	r3, #0
 682 02aa F05E     		ldrsh	r0, [r6, r3]
 683 02ac 4519     		adds	r5, r0, r5
 684              	.LVL76:
 685 02ae 5B46     		mov	r3, fp
 686 02b0 1D80     		strh	r5, [r3]
 353:..\..\..\arduinoLCD\test\Pain Drain\libraries\lvgl\src\widgets/lv_bar.c ****     }
 687              		.loc 2 353 0
 688 02b2 3588     		ldrh	r5, [r6]
 689 02b4 4544     		add	r5, r5, r8
 690 02b6 3580     		strh	r5, [r6]
 691 02b8 0BE0     		b	.L17
 692              	.LVL77:
 693              	.L16:
 356:..\..\..\arduinoLCD\test\Pain Drain\libraries\lvgl\src\widgets/lv_bar.c ****         *axis2 -= anim_start_value_x;
 694              		.loc 2 356 0
 695 02ba 5B46     		mov	r3, fp
 696 02bc 0020     		movs	r0, #0
 697 02be 185E     		ldrsh	r0, [r3, r0]
 698 02c0 451B     		subs	r5, r0, r5
 699              	.LVL78:
 700 02c2 0135     		adds	r5, r5, #1
 701 02c4 3580     		strh	r5, [r6]
 357:..\..\..\arduinoLCD\test\Pain Drain\libraries\lvgl\src\widgets/lv_bar.c ****     }
 702              		.loc 2 357 0
 703 02c6 5B46     		mov	r3, fp
 704 02c8 1888     		ldrh	r0, [r3]
 705 02ca 4346     		mov	r3, r8
 706 02cc C01A     		subs	r0, r0, r3
 707 02ce 5B46     		mov	r3, fp
 708 02d0 1880     		strh	r0, [r3]
 709              	.LVL79:
 710              	.L17:
 359:..\..\..\arduinoLCD\test\Pain Drain\libraries\lvgl\src\widgets/lv_bar.c ****         lv_coord_t zero, shift;
 711              		.loc 2 359 0
 712 02d2 049B     		ldr	r3, [sp, #16]
 713              	.LVL80:
 714 02d4 002B     		cmp	r3, #0
 715 02d6 31D0     		beq	.L18
 716              	.LBB104:
 361:..\..\..\arduinoLCD\test\Pain Drain\libraries\lvgl\src\widgets/lv_bar.c ****         if(hor) {
 717              		.loc 2 361 0
 718 02d8 A36A     		ldr	r3, [r4, #40]
 719 02da 5842     		rsbs	r0, r3, #0
 720 02dc 019B     		ldr	r3, [sp, #4]
 721 02de 5843     		muls	r0, r3
 722 02e0 0299     		ldr	r1, [sp, #8]
 723 02e2 FFF7FEFF 		bl	__aeabi_idiv
ARM GAS  C:\Users\haske\AppData\Local\Temp\cc11ZRIl.s 			page 38


 724              	.LVL81:
 362:..\..\..\arduinoLCD\test\Pain Drain\libraries\lvgl\src\widgets/lv_bar.c ****             zero = *axis1 + shift;
 725              		.loc 2 362 0
 726 02e6 D145     		cmp	r9, r10
 727 02e8 0EDC     		bgt	.L19
 363:..\..\..\arduinoLCD\test\Pain Drain\libraries\lvgl\src\widgets/lv_bar.c ****             if(*axis2 > zero)
 728              		.loc 2 363 0
 729 02ea 0022     		movs	r2, #0
 730 02ec B35E     		ldrsh	r3, [r6, r2]
 731 02ee 1818     		adds	r0, r3, r0
 732              	.LVL82:
 733 02f0 00B2     		sxth	r0, r0
 734              	.LVL83:
 364:..\..\..\arduinoLCD\test\Pain Drain\libraries\lvgl\src\widgets/lv_bar.c ****                 *axis1 = zero;
 735              		.loc 2 364 0
 736 02f2 5B46     		mov	r3, fp
 737 02f4 0022     		movs	r2, #0
 738 02f6 9B5E     		ldrsh	r3, [r3, r2]
 739 02f8 9842     		cmp	r0, r3
 740 02fa 01DA     		bge	.L20
 365:..\..\..\arduinoLCD\test\Pain Drain\libraries\lvgl\src\widgets/lv_bar.c ****             else {
 741              		.loc 2 365 0
 742 02fc 3080     		strh	r0, [r6]
 743 02fe 1DE0     		b	.L18
 744              	.L20:
 367:..\..\..\arduinoLCD\test\Pain Drain\libraries\lvgl\src\widgets/lv_bar.c ****                 *axis2 = zero;
 745              		.loc 2 367 0
 746 0300 3380     		strh	r3, [r6]
 368:..\..\..\arduinoLCD\test\Pain Drain\libraries\lvgl\src\widgets/lv_bar.c ****             }
 747              		.loc 2 368 0
 748 0302 5B46     		mov	r3, fp
 749 0304 1880     		strh	r0, [r3]
 750 0306 19E0     		b	.L18
 751              	.LVL84:
 752              	.L19:
 372:..\..\..\arduinoLCD\test\Pain Drain\libraries\lvgl\src\widgets/lv_bar.c ****             if(*axis1 > zero)
 753              		.loc 2 372 0
 754 0308 5B46     		mov	r3, fp
 755 030a 0022     		movs	r2, #0
 756 030c 9B5E     		ldrsh	r3, [r3, r2]
 757 030e 181A     		subs	r0, r3, r0
 758              	.LVL85:
 759 0310 0130     		adds	r0, r0, #1
 760 0312 00B2     		sxth	r0, r0
 761              	.LVL86:
 373:..\..\..\arduinoLCD\test\Pain Drain\libraries\lvgl\src\widgets/lv_bar.c ****                 *axis2 = zero;
 762              		.loc 2 373 0
 763 0314 0022     		movs	r2, #0
 764 0316 B35E     		ldrsh	r3, [r6, r2]
 765 0318 9842     		cmp	r0, r3
 766 031a 02DA     		bge	.L21
 374:..\..\..\arduinoLCD\test\Pain Drain\libraries\lvgl\src\widgets/lv_bar.c ****             else {
 767              		.loc 2 374 0
 768 031c 5B46     		mov	r3, fp
 769 031e 1880     		strh	r0, [r3]
 770 0320 02E0     		b	.L22
 771              	.L21:
ARM GAS  C:\Users\haske\AppData\Local\Temp\cc11ZRIl.s 			page 39


 376:..\..\..\arduinoLCD\test\Pain Drain\libraries\lvgl\src\widgets/lv_bar.c ****                 *axis1 = zero;
 772              		.loc 2 376 0
 773 0322 5A46     		mov	r2, fp
 774 0324 1380     		strh	r3, [r2]
 377:..\..\..\arduinoLCD\test\Pain Drain\libraries\lvgl\src\widgets/lv_bar.c ****             }
 775              		.loc 2 377 0
 776 0326 3080     		strh	r0, [r6]
 777              	.L22:
 379:..\..\..\arduinoLCD\test\Pain Drain\libraries\lvgl\src\widgets/lv_bar.c ****                 /*swap*/
 778              		.loc 2 379 0
 779 0328 5B46     		mov	r3, fp
 780 032a 0022     		movs	r2, #0
 781 032c 9A5E     		ldrsh	r2, [r3, r2]
 782 032e 0021     		movs	r1, #0
 783 0330 735E     		ldrsh	r3, [r6, r1]
 784 0332 9A42     		cmp	r2, r3
 785 0334 02DA     		bge	.L18
 786              	.LVL87:
 382:..\..\..\arduinoLCD\test\Pain Drain\libraries\lvgl\src\widgets/lv_bar.c ****                 *axis2 = zero;
 787              		.loc 2 382 0
 788 0336 3280     		strh	r2, [r6]
 383:..\..\..\arduinoLCD\test\Pain Drain\libraries\lvgl\src\widgets/lv_bar.c ****             }
 789              		.loc 2 383 0
 790 0338 5A46     		mov	r2, fp
 791 033a 1380     		strh	r3, [r2]
 792              	.LVL88:
 793              	.L18:
 794              	.LBE104:
 389:..\..\..\arduinoLCD\test\Pain Drain\libraries\lvgl\src\widgets/lv_bar.c **** 
 795              		.loc 2 389 0
 796 033c 049B     		ldr	r3, [sp, #16]
 797 033e 002B     		cmp	r3, #0
 798 0340 1DD1     		bne	.L23
 389:..\..\..\arduinoLCD\test\Pain Drain\libraries\lvgl\src\widgets/lv_bar.c **** 
 799              		.loc 2 389 0 is_stmt 0 discriminator 1
 800 0342 2500     		movs	r5, r4
 801 0344 3435     		adds	r5, r5, #52
 802 0346 2800     		movs	r0, r5
 803 0348 0C9B     		ldr	r3, [sp, #48]
 804 034a 9847     		blx	r3
 805              	.LVL89:
 806 034c 0128     		cmp	r0, #1
 807 034e 16DC     		bgt	.L23
 808              	.LBB105:
 392:..\..\..\arduinoLCD\test\Pain Drain\libraries\lvgl\src\widgets/lv_bar.c ****         part_draw_dsc.part = LV_PART_INDICATOR;
 809              		.loc 2 392 0 is_stmt 1
 810 0350 0399     		ldr	r1, [sp, #12]
 811 0352 0EA8     		add	r0, sp, #56
 812 0354 FFF7FEFF 		bl	lv_obj_draw_dsc_init
 813              	.LVL90:
 393:..\..\..\arduinoLCD\test\Pain Drain\libraries\lvgl\src\widgets/lv_bar.c ****         part_draw_dsc.class_p = MY_CLASS;
 814              		.loc 2 393 0
 815 0358 8023     		movs	r3, #128
 816 035a 9B02     		lsls	r3, r3, #10
 817 035c 1B93     		str	r3, [sp, #108]
 394:..\..\..\arduinoLCD\test\Pain Drain\libraries\lvgl\src\widgets/lv_bar.c ****         part_draw_dsc.type = LV_BAR_DRAW_PART_INDICATOR;
 818              		.loc 2 394 0
ARM GAS  C:\Users\haske\AppData\Local\Temp\cc11ZRIl.s 			page 40


 819 035e 6E4B     		ldr	r3, .L39+8
 820 0360 0F93     		str	r3, [sp, #60]
 395:..\..\..\arduinoLCD\test\Pain Drain\libraries\lvgl\src\widgets/lv_bar.c ****         part_draw_dsc.draw_area = &bar->indic_area;
 821              		.loc 2 395 0
 822 0362 0023     		movs	r3, #0
 823 0364 1093     		str	r3, [sp, #64]
 396:..\..\..\arduinoLCD\test\Pain Drain\libraries\lvgl\src\widgets/lv_bar.c **** 
 824              		.loc 2 396 0
 825 0366 1195     		str	r5, [sp, #68]
 398:..\..\..\arduinoLCD\test\Pain Drain\libraries\lvgl\src\widgets/lv_bar.c ****         lv_event_send(obj, LV_EVENT_DRAW_PART_END, &part_draw_dsc);
 826              		.loc 2 398 0
 827 0368 0EAA     		add	r2, sp, #56
 828 036a 1A21     		movs	r1, #26
 829 036c 2000     		movs	r0, r4
 830 036e FFF7FEFF 		bl	lv_event_send
 831              	.LVL91:
 399:..\..\..\arduinoLCD\test\Pain Drain\libraries\lvgl\src\widgets/lv_bar.c ****         return;
 832              		.loc 2 399 0
 833 0372 0EAA     		add	r2, sp, #56
 834 0374 1B21     		movs	r1, #27
 835 0376 2000     		movs	r0, r4
 836 0378 FFF7FEFF 		bl	lv_event_send
 837              	.LVL92:
 838 037c 12E1     		b	.L4
 839              	.L23:
 840              	.LBE105:
 407:..\..\..\arduinoLCD\test\Pain Drain\libraries\lvgl\src\widgets/lv_bar.c ****     lv_obj_init_draw_rect_dsc(obj, LV_PART_INDICATOR, &draw_rect_dsc);
 841              		.loc 2 407 0
 842 037e 42AD     		add	r5, sp, #264
 843 0380 2800     		movs	r0, r5
 844 0382 FFF7FEFF 		bl	lv_draw_rect_dsc_init
 845              	.LVL93:
 408:..\..\..\arduinoLCD\test\Pain Drain\libraries\lvgl\src\widgets/lv_bar.c **** 
 846              		.loc 2 408 0
 847 0386 8026     		movs	r6, #128
 848              	.LVL94:
 849 0388 B602     		lsls	r6, r6, #10
 850 038a 2A00     		movs	r2, r5
 851 038c 3100     		movs	r1, r6
 852 038e 2000     		movs	r0, r4
 853 0390 FFF7FEFF 		bl	lv_obj_init_draw_rect_dsc
 854              	.LVL95:
 411:..\..\..\arduinoLCD\test\Pain Drain\libraries\lvgl\src\widgets/lv_bar.c ****     part_draw_dsc.part = LV_PART_INDICATOR;
 855              		.loc 2 411 0
 856 0394 0399     		ldr	r1, [sp, #12]
 857 0396 30A8     		add	r0, sp, #192
 858 0398 FFF7FEFF 		bl	lv_obj_draw_dsc_init
 859              	.LVL96:
 412:..\..\..\arduinoLCD\test\Pain Drain\libraries\lvgl\src\widgets/lv_bar.c ****     part_draw_dsc.class_p = MY_CLASS;
 860              		.loc 2 412 0
 861 039c 3D96     		str	r6, [sp, #244]
 413:..\..\..\arduinoLCD\test\Pain Drain\libraries\lvgl\src\widgets/lv_bar.c ****     part_draw_dsc.type = LV_BAR_DRAW_PART_INDICATOR;
 862              		.loc 2 413 0
 863 039e 5E4B     		ldr	r3, .L39+8
 864 03a0 3193     		str	r3, [sp, #196]
 414:..\..\..\arduinoLCD\test\Pain Drain\libraries\lvgl\src\widgets/lv_bar.c ****     part_draw_dsc.rect_dsc = &draw_rect_dsc;
 865              		.loc 2 414 0
ARM GAS  C:\Users\haske\AppData\Local\Temp\cc11ZRIl.s 			page 41


 866 03a2 0023     		movs	r3, #0
 867 03a4 3293     		str	r3, [sp, #200]
 415:..\..\..\arduinoLCD\test\Pain Drain\libraries\lvgl\src\widgets/lv_bar.c ****     part_draw_dsc.draw_area = &bar->indic_area;
 868              		.loc 2 415 0
 869 03a6 3495     		str	r5, [sp, #208]
 416:..\..\..\arduinoLCD\test\Pain Drain\libraries\lvgl\src\widgets/lv_bar.c **** 
 870              		.loc 2 416 0
 871 03a8 3433     		adds	r3, r3, #52
 872 03aa 9C46     		mov	ip, r3
 873 03ac A444     		add	ip, ip, r4
 874 03ae 6346     		mov	r3, ip
 875 03b0 0193     		str	r3, [sp, #4]
 876              	.LVL97:
 877 03b2 3393     		str	r3, [sp, #204]
 418:..\..\..\arduinoLCD\test\Pain Drain\libraries\lvgl\src\widgets/lv_bar.c **** 
 878              		.loc 2 418 0
 879 03b4 30AA     		add	r2, sp, #192
 880 03b6 1A21     		movs	r1, #26
 881 03b8 2000     		movs	r0, r4
 882 03ba FFF7FEFF 		bl	lv_event_send
 883              	.LVL98:
 884              	.LBB106:
 885              	.LBB107:
 495:..\..\..\arduinoLCD\test\Pain Drain\libraries\lvgl\src\widgets\../core/lv_obj_style_gen.h ****     return (lv_coord_t)v.num;
 886              		.loc 3 495 0
 887 03be 0B22     		movs	r2, #11
 888 03c0 0021     		movs	r1, #0
 889 03c2 2000     		movs	r0, r4
 890 03c4 FFF7FEFF 		bl	lv_obj_get_style_prop
 891              	.LVL99:
 496:..\..\..\arduinoLCD\test\Pain Drain\libraries\lvgl\src\widgets\../core/lv_obj_style_gen.h **** }
 892              		.loc 3 496 0
 893 03c8 00B2     		sxth	r0, r0
 894              	.LVL100:
 895              	.LBE107:
 896              	.LBE106:
 421:..\..\..\arduinoLCD\test\Pain Drain\libraries\lvgl\src\widgets/lv_bar.c ****     if(bg_radius > short_side >> 1) bg_radius = short_side >> 1;
 897              		.loc 2 421 0
 898 03ca 4D46     		mov	r5, r9
 899 03cc D145     		cmp	r9, r10
 900 03ce 00DD     		ble	.L25
 901              	.LVL101:
 902 03d0 5546     		mov	r5, r10
 903              	.LVL102:
 904              	.L25:
 905 03d2 2DB2     		sxth	r5, r5
 906              	.LVL103:
 422:..\..\..\arduinoLCD\test\Pain Drain\libraries\lvgl\src\widgets/lv_bar.c **** 
 907              		.loc 2 422 0
 908 03d4 6D10     		asrs	r5, r5, #1
 909              	.LVL104:
 910 03d6 8542     		cmp	r5, r0
 911 03d8 00DB     		blt	.L26
 420:..\..\..\arduinoLCD\test\Pain Drain\libraries\lvgl\src\widgets/lv_bar.c ****     lv_coord_t short_side = LV_MIN(barw, barh);
 912              		.loc 2 420 0
 913 03da 0500     		movs	r5, r0
 914              	.L26:
ARM GAS  C:\Users\haske\AppData\Local\Temp\cc11ZRIl.s 			page 42


 915              	.LVL105:
 424:..\..\..\arduinoLCD\test\Pain Drain\libraries\lvgl\src\widgets/lv_bar.c ****     short_side = LV_MIN(indicw, indich);
 916              		.loc 2 424 0
 917 03dc 42AB     		add	r3, sp, #264
 918 03de 0022     		movs	r2, #0
 919 03e0 9A5E     		ldrsh	r2, [r3, r2]
 920              	.LVL106:
 425:..\..\..\arduinoLCD\test\Pain Drain\libraries\lvgl\src\widgets/lv_bar.c ****     if(indic_radius > short_side >> 1) indic_radius = short_side >> 1;
 921              		.loc 2 425 0
 922 03e2 0999     		ldr	r1, [sp, #36]
 923 03e4 0B1C     		adds	r3, r1, #0
 924 03e6 0E00     		movs	r6, r1
 925 03e8 0B98     		ldr	r0, [sp, #44]
 926 03ea 8642     		cmp	r6, r0
 927 03ec 00DD     		ble	.L27
 928 03ee 031C     		adds	r3, r0, #0
 929              	.L27:
 930 03f0 1BB2     		sxth	r3, r3
 931              	.LVL107:
 426:..\..\..\arduinoLCD\test\Pain Drain\libraries\lvgl\src\widgets/lv_bar.c **** 
 932              		.loc 2 426 0
 933 03f2 5B10     		asrs	r3, r3, #1
 934              	.LVL108:
 935 03f4 9A42     		cmp	r2, r3
 936 03f6 00DC     		bgt	.L28
 424:..\..\..\arduinoLCD\test\Pain Drain\libraries\lvgl\src\widgets/lv_bar.c ****     short_side = LV_MIN(indicw, indich);
 937              		.loc 2 424 0
 938 03f8 1300     		movs	r3, r2
 939              	.L28:
 940              	.LVL109:
 431:..\..\..\arduinoLCD\test\Pain Drain\libraries\lvgl\src\widgets/lv_bar.c ****        (!hor && lv_area_get_height(&bar->indic_area) > indic_radius * 2)) {
 941              		.loc 2 431 0
 942 03fa D145     		cmp	r9, r10
 943 03fc 09DC     		bgt	.L29
 944              	.LVL110:
 945              	.LBB108:
 946              	.LBB109:
 125:c:\projects\paindrain\arduinolcd\test\pain drain\libraries\lvgl\src\misc\lv_area.h **** }
 947              		.loc 1 125 0 discriminator 1
 948 03fe 3821     		movs	r1, #56
 949 0400 625E     		ldrsh	r2, [r4, r1]
 950 0402 3420     		movs	r0, #52
 951 0404 215E     		ldrsh	r1, [r4, r0]
 952 0406 521A     		subs	r2, r2, r1
 953 0408 0132     		adds	r2, r2, #1
 954 040a 12B2     		sxth	r2, r2
 955              	.LVL111:
 956              	.LBE109:
 957              	.LBE108:
 431:..\..\..\arduinoLCD\test\Pain Drain\libraries\lvgl\src\widgets/lv_bar.c ****        (!hor && lv_area_get_height(&bar->indic_area) > indic_radius * 2)) {
 958              		.loc 2 431 0 discriminator 1
 959 040c 5900     		lsls	r1, r3, #1
 960 040e 8A42     		cmp	r2, r1
 961 0410 0BDC     		bgt	.L30
 962              	.L29:
 431:..\..\..\arduinoLCD\test\Pain Drain\libraries\lvgl\src\widgets/lv_bar.c ****        (!hor && lv_area_get_height(&bar->indic_area) > indic_radius * 2)) {
 963              		.loc 2 431 0 is_stmt 0 discriminator 3
ARM GAS  C:\Users\haske\AppData\Local\Temp\cc11ZRIl.s 			page 43


 964 0412 D145     		cmp	r9, r10
 965 0414 21DD     		ble	.L31
 966              	.LVL112:
 967              	.LBB110:
 968              	.LBB111:
 135:c:\projects\paindrain\arduinolcd\test\pain drain\libraries\lvgl\src\misc\lv_area.h **** }
 969              		.loc 1 135 0 is_stmt 1
 970 0416 3A21     		movs	r1, #58
 971 0418 625E     		ldrsh	r2, [r4, r1]
 972 041a 3620     		movs	r0, #54
 973 041c 215E     		ldrsh	r1, [r4, r0]
 974 041e 521A     		subs	r2, r2, r1
 975 0420 0132     		adds	r2, r2, #1
 976 0422 12B2     		sxth	r2, r2
 977              	.LVL113:
 978              	.LBE111:
 979              	.LBE110:
 432:..\..\..\arduinoLCD\test\Pain Drain\libraries\lvgl\src\widgets/lv_bar.c ****         lv_opa_t bg_opa = draw_rect_dsc.bg_opa;
 980              		.loc 2 432 0
 981 0424 5B00     		lsls	r3, r3, #1
 982              	.LVL114:
 983 0426 9A42     		cmp	r2, r3
 984 0428 17DD     		ble	.L31
 985              	.L30:
 986              	.LBB112:
 433:..\..\..\arduinoLCD\test\Pain Drain\libraries\lvgl\src\widgets/lv_bar.c ****         lv_opa_t bg_img_opa = draw_rect_dsc.bg_img_opa;
 987              		.loc 2 433 0
 988 042a 42AE     		add	r6, sp, #264
 989 042c F378     		ldrb	r3, [r6, #3]
 990 042e 9B46     		mov	fp, r3
 991              	.LVL115:
 434:..\..\..\arduinoLCD\test\Pain Drain\libraries\lvgl\src\widgets/lv_bar.c ****         lv_opa_t border_opa = draw_rect_dsc.border_opa;
 992              		.loc 2 434 0
 993 0430 B37E     		ldrb	r3, [r6, #26]
 994 0432 0293     		str	r3, [sp, #8]
 995              	.LVL116:
 435:..\..\..\arduinoLCD\test\Pain Drain\libraries\lvgl\src\widgets/lv_bar.c ****         draw_rect_dsc.bg_opa = LV_OPA_TRANSP;
 996              		.loc 2 435 0
 997 0434 2227     		movs	r7, #34
 998 0436 F25D     		ldrb	r2, [r6, r7]
 999 0438 9046     		mov	r8, r2
 1000              	.LVL117:
 436:..\..\..\arduinoLCD\test\Pain Drain\libraries\lvgl\src\widgets/lv_bar.c ****         draw_rect_dsc.bg_img_opa = LV_OPA_TRANSP;
 1001              		.loc 2 436 0
 1002 043a 0023     		movs	r3, #0
 1003 043c F370     		strb	r3, [r6, #3]
 437:..\..\..\arduinoLCD\test\Pain Drain\libraries\lvgl\src\widgets/lv_bar.c ****         draw_rect_dsc.border_opa = LV_OPA_TRANSP;
 1004              		.loc 2 437 0
 1005 043e B376     		strb	r3, [r6, #26]
 438:..\..\..\arduinoLCD\test\Pain Drain\libraries\lvgl\src\widgets/lv_bar.c **** 
 1006              		.loc 2 438 0
 1007 0440 F355     		strb	r3, [r6, r7]
 440:..\..\..\arduinoLCD\test\Pain Drain\libraries\lvgl\src\widgets/lv_bar.c **** 
 1008              		.loc 2 440 0
 1009 0442 019A     		ldr	r2, [sp, #4]
 1010 0444 3100     		movs	r1, r6
 1011 0446 0398     		ldr	r0, [sp, #12]
ARM GAS  C:\Users\haske\AppData\Local\Temp\cc11ZRIl.s 			page 44


 1012 0448 FFF7FEFF 		bl	lv_draw_rect
 1013              	.LVL118:
 442:..\..\..\arduinoLCD\test\Pain Drain\libraries\lvgl\src\widgets/lv_bar.c ****         draw_rect_dsc.bg_img_opa = bg_img_opa;
 1014              		.loc 2 442 0
 1015 044c 5A46     		mov	r2, fp
 1016 044e F270     		strb	r2, [r6, #3]
 443:..\..\..\arduinoLCD\test\Pain Drain\libraries\lvgl\src\widgets/lv_bar.c ****         draw_rect_dsc.border_opa = border_opa;
 1017              		.loc 2 443 0
 1018 0450 6B46     		mov	r3, sp
 1019 0452 1B7A     		ldrb	r3, [r3, #8]
 1020 0454 B376     		strb	r3, [r6, #26]
 444:..\..\..\arduinoLCD\test\Pain Drain\libraries\lvgl\src\widgets/lv_bar.c ****     }
 1021              		.loc 2 444 0
 1022 0456 4346     		mov	r3, r8
 1023 0458 F355     		strb	r3, [r6, r7]
 1024              	.LVL119:
 1025              	.L31:
 1026              	.LBE112:
 450:..\..\..\arduinoLCD\test\Pain Drain\libraries\lvgl\src\widgets/lv_bar.c ****     bg_mask_area.x2 = obj->coords.x2 - bg_right;
 1027              		.loc 2 450 0
 1028 045a 1422     		movs	r2, #20
 1029 045c A35E     		ldrsh	r3, [r4, r2]
 1030 045e 28A9     		add	r1, sp, #160
 1031 0460 059A     		ldr	r2, [sp, #20]
 1032 0462 9446     		mov	ip, r2
 1033 0464 6344     		add	r3, r3, ip
 1034 0466 0B80     		strh	r3, [r1]
 451:..\..\..\arduinoLCD\test\Pain Drain\libraries\lvgl\src\widgets/lv_bar.c ****     bg_mask_area.y1 = obj->coords.y1 + bg_top;
 1035              		.loc 2 451 0
 1036 0468 1820     		movs	r0, #24
 1037 046a 235E     		ldrsh	r3, [r4, r0]
 1038 046c 0698     		ldr	r0, [sp, #24]
 1039 046e 1B1A     		subs	r3, r3, r0
 1040 0470 8B80     		strh	r3, [r1, #4]
 452:..\..\..\arduinoLCD\test\Pain Drain\libraries\lvgl\src\widgets/lv_bar.c ****     bg_mask_area.y2 = obj->coords.y2 - bg_bottom;
 1041              		.loc 2 452 0
 1042 0472 1626     		movs	r6, #22
 1043 0474 A35F     		ldrsh	r3, [r4, r6]
 1044 0476 079E     		ldr	r6, [sp, #28]
 1045 0478 B446     		mov	ip, r6
 1046 047a 6344     		add	r3, r3, ip
 1047 047c 4B80     		strh	r3, [r1, #2]
 453:..\..\..\arduinoLCD\test\Pain Drain\libraries\lvgl\src\widgets/lv_bar.c **** 
 1048              		.loc 2 453 0
 1049 047e 1A27     		movs	r7, #26
 1050 0480 E35F     		ldrsh	r3, [r4, r7]
 1051 0482 089F     		ldr	r7, [sp, #32]
 1052 0484 DB1B     		subs	r3, r3, r7
 1053 0486 CB80     		strh	r3, [r1, #6]
 455:..\..\..\arduinoLCD\test\Pain Drain\libraries\lvgl\src\widgets/lv_bar.c ****     lv_coord_t mask_bg_id = lv_draw_mask_add(&mask_bg_param, NULL);
 1054              		.loc 2 455 0
 1055 0488 0023     		movs	r3, #0
 1056 048a 2A00     		movs	r2, r5
 1057 048c 2AA8     		add	r0, sp, #168
 1058 048e FFF7FEFF 		bl	lv_draw_mask_radius_init
 1059              	.LVL120:
 456:..\..\..\arduinoLCD\test\Pain Drain\libraries\lvgl\src\widgets/lv_bar.c **** #endif
ARM GAS  C:\Users\haske\AppData\Local\Temp\cc11ZRIl.s 			page 45


 1060              		.loc 2 456 0
 1061 0492 0021     		movs	r1, #0
 1062 0494 2AAB     		add	r3, sp, #168
 1063 0496 1800     		movs	r0, r3
 1064 0498 FFF7FEFF 		bl	lv_draw_mask_add
 1065              	.LVL121:
 1066 049c 0290     		str	r0, [sp, #8]
 1067              	.LVL122:
 460:..\..\..\arduinoLCD\test\Pain Drain\libraries\lvgl\src\widgets/lv_bar.c ****     lv_opa_t border_opa = draw_rect_dsc.border_opa;
 1068              		.loc 2 460 0
 1069 049e 42AB     		add	r3, sp, #264
 1070              	.LVL123:
 461:..\..\..\arduinoLCD\test\Pain Drain\libraries\lvgl\src\widgets/lv_bar.c ****     draw_rect_dsc.border_opa = LV_OPA_TRANSP;
 1071              		.loc 2 461 0
 1072 04a0 2221     		movs	r1, #34
 1073 04a2 5E5C     		ldrb	r6, [r3, r1]
 1074              	.LVL124:
 462:..\..\..\arduinoLCD\test\Pain Drain\libraries\lvgl\src\widgets/lv_bar.c ****     draw_rect_dsc.shadow_opa = LV_OPA_TRANSP;
 1075              		.loc 2 462 0
 1076 04a4 0022     		movs	r2, #0
 1077 04a6 5A54     		strb	r2, [r3, r1]
 1078              	.LVL125:
 463:..\..\..\arduinoLCD\test\Pain Drain\libraries\lvgl\src\widgets/lv_bar.c **** 
 1079              		.loc 2 463 0
 1080 04a8 1431     		adds	r1, r1, #20
 1081 04aa 5A54     		strb	r2, [r3, r1]
 1082              	.LVL126:
 1083              	.LBB113:
 1084              	.LBB114:
 112:c:\projects\paindrain\arduinolcd\test\pain drain\libraries\lvgl\src\misc\lv_area.h ****     dest->y1 = src->y1;
 1085              		.loc 1 112 0
 1086 04ac 50A9     		add	r1, sp, #320
 1087              	.LVL127:
 1088 04ae 0023     		movs	r3, #0
 1089 04b0 CF5E     		ldrsh	r7, [r1, r3]
 1090 04b2 26AA     		add	r2, sp, #152
 1091              	.LVL128:
 113:c:\projects\paindrain\arduinolcd\test\pain drain\libraries\lvgl\src\misc\lv_area.h ****     dest->x2 = src->x2;
 1092              		.loc 1 113 0
 1093 04b4 0223     		movs	r3, #2
 1094 04b6 CD5E     		ldrsh	r5, [r1, r3]
 1095              	.LVL129:
 114:c:\projects\paindrain\arduinolcd\test\pain drain\libraries\lvgl\src\misc\lv_area.h ****     dest->y2 = src->y2;
 1096              		.loc 1 114 0
 1097 04b8 0420     		movs	r0, #4
 1098 04ba 0B5E     		ldrsh	r3, [r1, r0]
 115:c:\projects\paindrain\arduinolcd\test\pain drain\libraries\lvgl\src\misc\lv_area.h **** }
 1099              		.loc 1 115 0
 1100 04bc 0620     		movs	r0, #6
 1101 04be 085E     		ldrsh	r0, [r1, r0]
 1102              	.LVL130:
 1103              	.LBE114:
 1104              	.LBE113:
 468:..\..\..\arduinoLCD\test\Pain Drain\libraries\lvgl\src\widgets/lv_bar.c ****     mask_indic_max_area.y1 += bg_top;
 1105              		.loc 2 468 0
 1106 04c0 0599     		ldr	r1, [sp, #20]
 1107 04c2 8C46     		mov	ip, r1
ARM GAS  C:\Users\haske\AppData\Local\Temp\cc11ZRIl.s 			page 46


 1108 04c4 6744     		add	r7, r7, ip
 1109 04c6 BFB2     		uxth	r7, r7
 1110 04c8 1780     		strh	r7, [r2]
 469:..\..\..\arduinoLCD\test\Pain Drain\libraries\lvgl\src\widgets/lv_bar.c ****     mask_indic_max_area.x2 -= bg_right;
 1111              		.loc 2 469 0
 1112 04ca 0799     		ldr	r1, [sp, #28]
 1113 04cc 8C46     		mov	ip, r1
 1114 04ce 6544     		add	r5, r5, ip
 1115 04d0 ADB2     		uxth	r5, r5
 1116 04d2 5580     		strh	r5, [r2, #2]
 470:..\..\..\arduinoLCD\test\Pain Drain\libraries\lvgl\src\widgets/lv_bar.c ****     mask_indic_max_area.y2 -= bg_bottom;
 1117              		.loc 2 470 0
 1118 04d4 0699     		ldr	r1, [sp, #24]
 1119 04d6 5B1A     		subs	r3, r3, r1
 1120 04d8 9BB2     		uxth	r3, r3
 1121 04da 9380     		strh	r3, [r2, #4]
 471:..\..\..\arduinoLCD\test\Pain Drain\libraries\lvgl\src\widgets/lv_bar.c ****     if(hor && lv_area_get_height(&mask_indic_max_area) < LV_BAR_SIZE_MIN) {
 1122              		.loc 2 471 0
 1123 04dc 0899     		ldr	r1, [sp, #32]
 1124 04de 401A     		subs	r0, r0, r1
 1125 04e0 80B2     		uxth	r0, r0
 1126 04e2 D080     		strh	r0, [r2, #6]
 472:..\..\..\arduinoLCD\test\Pain Drain\libraries\lvgl\src\widgets/lv_bar.c ****         mask_indic_max_area.y1 = obj->coords.y1 + (barh / 2) - (LV_BAR_SIZE_MIN / 2);
 1127              		.loc 2 472 0
 1128 04e4 D145     		cmp	r9, r10
 1129 04e6 19DC     		bgt	.L32
 1130              	.LVL131:
 1131              	.LBB115:
 1132              	.LBB116:
 135:c:\projects\paindrain\arduinolcd\test\pain drain\libraries\lvgl\src\misc\lv_area.h **** }
 1133              		.loc 1 135 0
 1134 04e8 451B     		subs	r5, r0, r5
 1135 04ea 0135     		adds	r5, r5, #1
 1136 04ec 2DB2     		sxth	r5, r5
 1137              	.LVL132:
 1138              	.LBE116:
 1139              	.LBE115:
 472:..\..\..\arduinoLCD\test\Pain Drain\libraries\lvgl\src\widgets/lv_bar.c ****         mask_indic_max_area.y1 = obj->coords.y1 + (barh / 2) - (LV_BAR_SIZE_MIN / 2);
 1140              		.loc 2 472 0
 1141 04ee 032D     		cmp	r5, #3
 1142 04f0 14DC     		bgt	.L32
 473:..\..\..\arduinoLCD\test\Pain Drain\libraries\lvgl\src\widgets/lv_bar.c ****         mask_indic_max_area.y2 = mask_indic_max_area.y1 + LV_BAR_SIZE_MIN;
 1143              		.loc 2 473 0
 1144 04f2 1623     		movs	r3, #22
 1145 04f4 E25E     		ldrsh	r2, [r4, r3]
 1146 04f6 4B46     		mov	r3, r9
 1147 04f8 DB0F     		lsrs	r3, r3, #31
 1148 04fa 4B44     		add	r3, r3, r9
 1149 04fc 5B10     		asrs	r3, r3, #1
 1150 04fe 9B18     		adds	r3, r3, r2
 1151 0500 023B     		subs	r3, r3, #2
 1152 0502 9BB2     		uxth	r3, r3
 1153 0504 26AA     		add	r2, sp, #152
 1154 0506 5380     		strh	r3, [r2, #2]
 474:..\..\..\arduinoLCD\test\Pain Drain\libraries\lvgl\src\widgets/lv_bar.c ****     }
 1155              		.loc 2 474 0
 1156 0508 0433     		adds	r3, r3, #4
ARM GAS  C:\Users\haske\AppData\Local\Temp\cc11ZRIl.s 			page 47


 1157 050a D380     		strh	r3, [r2, #6]
 1158 050c 1AE0     		b	.L33
 1159              	.L40:
 1160 050e C046     		.align	2
 1161              	.L39:
 1162 0510 00000000 		.word	lv_area_get_width
 1163 0514 00000000 		.word	lv_area_get_height
 1164 0518 00000000 		.word	.LANCHOR0
 1165              	.L32:
 476:..\..\..\arduinoLCD\test\Pain Drain\libraries\lvgl\src\widgets/lv_bar.c ****         mask_indic_max_area.x1 = obj->coords.x1 + (barw / 2) - (LV_BAR_SIZE_MIN / 2);
 1166              		.loc 2 476 0
 1167 051c D145     		cmp	r9, r10
 1168 051e 11DD     		ble	.L33
 1169              	.LVL133:
 1170              	.LBB117:
 1171              	.LBB118:
 125:c:\projects\paindrain\arduinolcd\test\pain drain\libraries\lvgl\src\misc\lv_area.h **** }
 1172              		.loc 1 125 0
 1173 0520 DF1B     		subs	r7, r3, r7
 1174 0522 0137     		adds	r7, r7, #1
 1175 0524 3FB2     		sxth	r7, r7
 1176              	.LVL134:
 1177              	.LBE118:
 1178              	.LBE117:
 476:..\..\..\arduinoLCD\test\Pain Drain\libraries\lvgl\src\widgets/lv_bar.c ****         mask_indic_max_area.x1 = obj->coords.x1 + (barw / 2) - (LV_BAR_SIZE_MIN / 2);
 1179              		.loc 2 476 0
 1180 0526 032F     		cmp	r7, #3
 1181 0528 0CDC     		bgt	.L33
 477:..\..\..\arduinoLCD\test\Pain Drain\libraries\lvgl\src\widgets/lv_bar.c ****         mask_indic_max_area.x2 = mask_indic_max_area.x1 + LV_BAR_SIZE_MIN;
 1182              		.loc 2 477 0
 1183 052a 1423     		movs	r3, #20
 1184 052c E25E     		ldrsh	r2, [r4, r3]
 1185 052e 5346     		mov	r3, r10
 1186 0530 DB0F     		lsrs	r3, r3, #31
 1187 0532 5344     		add	r3, r3, r10
 1188 0534 5B10     		asrs	r3, r3, #1
 1189 0536 9B18     		adds	r3, r3, r2
 1190 0538 023B     		subs	r3, r3, #2
 1191 053a 9BB2     		uxth	r3, r3
 1192 053c 26AA     		add	r2, sp, #152
 1193 053e 1380     		strh	r3, [r2]
 478:..\..\..\arduinoLCD\test\Pain Drain\libraries\lvgl\src\widgets/lv_bar.c ****     }
 1194              		.loc 2 478 0
 1195 0540 0433     		adds	r3, r3, #4
 1196 0542 9380     		strh	r3, [r2, #4]
 1197              	.L33:
 484:..\..\..\arduinoLCD\test\Pain Drain\libraries\lvgl\src\widgets/lv_bar.c ****     int16_t mask_indic_id = lv_draw_mask_add(&mask_indic_param, NULL);
 1198              		.loc 2 484 0
 1199 0544 42AD     		add	r5, sp, #264
 1200 0546 0023     		movs	r3, #0
 1201 0548 EA5E     		ldrsh	r2, [r5, r3]
 1202 054a 0023     		movs	r3, #0
 1203 054c 0199     		ldr	r1, [sp, #4]
 1204 054e 8846     		mov	r8, r1
 1205 0550 20A8     		add	r0, sp, #128
 1206 0552 FFF7FEFF 		bl	lv_draw_mask_radius_init
 1207              	.LVL135:
ARM GAS  C:\Users\haske\AppData\Local\Temp\cc11ZRIl.s 			page 48


 485:..\..\..\arduinoLCD\test\Pain Drain\libraries\lvgl\src\widgets/lv_bar.c **** #endif
 1208              		.loc 2 485 0
 1209 0556 0021     		movs	r1, #0
 1210 0558 20A8     		add	r0, sp, #128
 1211 055a FFF7FEFF 		bl	lv_draw_mask_add
 1212              	.LVL136:
 1213 055e 0700     		movs	r7, r0
 1214              	.LVL137:
 488:..\..\..\arduinoLCD\test\Pain Drain\libraries\lvgl\src\widgets/lv_bar.c ****     draw_rect_dsc.border_opa = border_opa;
 1215              		.loc 2 488 0
 1216 0560 26AA     		add	r2, sp, #152
 1217 0562 2900     		movs	r1, r5
 1218 0564 0398     		ldr	r0, [sp, #12]
 1219 0566 FFF7FEFF 		bl	lv_draw_rect
 1220              	.LVL138:
 489:..\..\..\arduinoLCD\test\Pain Drain\libraries\lvgl\src\widgets/lv_bar.c ****     draw_rect_dsc.shadow_opa = shadow_opa;
 1221              		.loc 2 489 0
 1222 056a 2223     		movs	r3, #34
 1223 056c EE54     		strb	r6, [r5, r3]
 493:..\..\..\arduinoLCD\test\Pain Drain\libraries\lvgl\src\widgets/lv_bar.c ****     draw_rect_dsc.bg_img_opa = LV_OPA_TRANSP;
 1224              		.loc 2 493 0
 1225 056e 0023     		movs	r3, #0
 1226 0570 EB70     		strb	r3, [r5, #3]
 494:..\..\..\arduinoLCD\test\Pain Drain\libraries\lvgl\src\widgets/lv_bar.c ****     draw_rect_dsc.shadow_opa = LV_OPA_TRANSP;
 1227              		.loc 2 494 0
 1228 0572 AB76     		strb	r3, [r5, #26]
 495:..\..\..\arduinoLCD\test\Pain Drain\libraries\lvgl\src\widgets/lv_bar.c ****     lv_draw_rect(draw_ctx, &draw_rect_dsc, &bar->indic_area);
 1229              		.loc 2 495 0
 1230 0574 3622     		movs	r2, #54
 1231 0576 AB54     		strb	r3, [r5, r2]
 496:..\..\..\arduinoLCD\test\Pain Drain\libraries\lvgl\src\widgets/lv_bar.c **** 
 1232              		.loc 2 496 0
 1233 0578 4246     		mov	r2, r8
 1234 057a 2900     		movs	r1, r5
 1235 057c 0398     		ldr	r0, [sp, #12]
 1236 057e FFF7FEFF 		bl	lv_draw_rect
 1237              	.LVL139:
 499:..\..\..\arduinoLCD\test\Pain Drain\libraries\lvgl\src\widgets/lv_bar.c ****     lv_draw_mask_free_param(&mask_bg_param);
 1238              		.loc 2 499 0
 1239 0582 20A8     		add	r0, sp, #128
 1240 0584 FFF7FEFF 		bl	lv_draw_mask_free_param
 1241              	.LVL140:
 500:..\..\..\arduinoLCD\test\Pain Drain\libraries\lvgl\src\widgets/lv_bar.c ****     lv_draw_mask_remove_id(mask_indic_id);
 1242              		.loc 2 500 0
 1243 0588 2AA8     		add	r0, sp, #168
 1244 058a FFF7FEFF 		bl	lv_draw_mask_free_param
 1245              	.LVL141:
 501:..\..\..\arduinoLCD\test\Pain Drain\libraries\lvgl\src\widgets/lv_bar.c ****     lv_draw_mask_remove_id(mask_bg_id);
 1246              		.loc 2 501 0
 1247 058e 3800     		movs	r0, r7
 1248 0590 FFF7FEFF 		bl	lv_draw_mask_remove_id
 1249              	.LVL142:
 502:..\..\..\arduinoLCD\test\Pain Drain\libraries\lvgl\src\widgets/lv_bar.c **** #endif
 1250              		.loc 2 502 0
 1251 0594 0298     		ldr	r0, [sp, #8]
 1252 0596 FFF7FEFF 		bl	lv_draw_mask_remove_id
 1253              	.LVL143:
ARM GAS  C:\Users\haske\AppData\Local\Temp\cc11ZRIl.s 			page 49


 505:..\..\..\arduinoLCD\test\Pain Drain\libraries\lvgl\src\widgets/lv_bar.c **** }
 1254              		.loc 2 505 0
 1255 059a 30AA     		add	r2, sp, #192
 1256 059c 1B21     		movs	r1, #27
 1257 059e 2000     		movs	r0, r4
 1258 05a0 FFF7FEFF 		bl	lv_event_send
 1259              	.LVL144:
 1260              	.L4:
 506:..\..\..\arduinoLCD\test\Pain Drain\libraries\lvgl\src\widgets/lv_bar.c **** 
 1261              		.loc 2 506 0
 1262 05a4 53B0     		add	sp, sp, #332
 1263              		@ sp needed
 1264              	.LVL145:
 1265              	.LVL146:
 1266 05a6 3CBC     		pop	{r2, r3, r4, r5}
 1267 05a8 9046     		mov	r8, r2
 1268 05aa 9946     		mov	r9, r3
 1269 05ac A246     		mov	r10, r4
 1270 05ae AB46     		mov	fp, r5
 1271 05b0 F0BD     		pop	{r4, r5, r6, r7, pc}
 1272              		.cfi_endproc
 1273              	.LFE171:
 1274              		.size	draw_indic, .-draw_indic
 1275 05b2 C046     		.section	.text.lv_bar_event,"ax",%progbits
 1276              		.align	2
 1277              		.code	16
 1278              		.thumb_func
 1279              		.type	lv_bar_event, %function
 1280              	lv_bar_event:
 1281              	.LFB172:
 509:..\..\..\arduinoLCD\test\Pain Drain\libraries\lvgl\src\widgets/lv_bar.c ****     LV_UNUSED(class_p);
 1282              		.loc 2 509 0
 1283              		.cfi_startproc
 1284              		@ args = 0, pretend = 0, frame = 0
 1285              		@ frame_needed = 0, uses_anonymous_args = 0
 1286              	.LVL147:
 1287 0000 F0B5     		push	{r4, r5, r6, r7, lr}
 1288              		.cfi_def_cfa_offset 20
 1289              		.cfi_offset 4, -20
 1290              		.cfi_offset 5, -16
 1291              		.cfi_offset 6, -12
 1292              		.cfi_offset 7, -8
 1293              		.cfi_offset 14, -4
 1294 0002 4746     		mov	r7, r8
 1295 0004 80B4     		push	{r7}
 1296              		.cfi_def_cfa_offset 24
 1297              		.cfi_offset 8, -24
 1298 0006 0C00     		movs	r4, r1
 515:..\..\..\arduinoLCD\test\Pain Drain\libraries\lvgl\src\widgets/lv_bar.c ****     if(res != LV_RES_OK) return;
 1299              		.loc 2 515 0
 1300 0008 3148     		ldr	r0, .L51
 1301              	.LVL148:
 1302 000a FFF7FEFF 		bl	lv_obj_event_base
 1303              	.LVL149:
 516:..\..\..\arduinoLCD\test\Pain Drain\libraries\lvgl\src\widgets/lv_bar.c **** 
 1304              		.loc 2 516 0
 1305 000e 0128     		cmp	r0, #1
ARM GAS  C:\Users\haske\AppData\Local\Temp\cc11ZRIl.s 			page 50


 1306 0010 5AD1     		bne	.L41
 518:..\..\..\arduinoLCD\test\Pain Drain\libraries\lvgl\src\widgets/lv_bar.c ****     lv_obj_t * obj = lv_event_get_target(e);
 1307              		.loc 2 518 0
 1308 0012 2000     		movs	r0, r4
 1309              	.LVL150:
 1310 0014 FFF7FEFF 		bl	lv_event_get_code
 1311              	.LVL151:
 1312 0018 0500     		movs	r5, r0
 1313              	.LVL152:
 519:..\..\..\arduinoLCD\test\Pain Drain\libraries\lvgl\src\widgets/lv_bar.c **** 
 1314              		.loc 2 519 0
 1315 001a 2000     		movs	r0, r4
 1316              	.LVL153:
 1317 001c FFF7FEFF 		bl	lv_event_get_target
 1318              	.LVL154:
 1319 0020 0600     		movs	r6, r0
 1320              	.LVL155:
 521:..\..\..\arduinoLCD\test\Pain Drain\libraries\lvgl\src\widgets/lv_bar.c ****         lv_coord_t indic_size;
 1321              		.loc 2 521 0
 1322 0022 132D     		cmp	r5, #19
 1323 0024 41D1     		bne	.L43
 1324              	.LBB119:
 523:..\..\..\arduinoLCD\test\Pain Drain\libraries\lvgl\src\widgets/lv_bar.c **** 
 1325              		.loc 2 523 0
 1326 0026 8021     		movs	r1, #128
 1327 0028 8902     		lsls	r1, r1, #10
 1328 002a FFF7FEFF 		bl	lv_obj_calculate_ext_draw_size
 1329              	.LVL156:
 1330 002e 0700     		movs	r7, r0
 1331              	.LVL157:
 526:..\..\..\arduinoLCD\test\Pain Drain\libraries\lvgl\src\widgets/lv_bar.c ****         *s = LV_MAX(*s, indic_size);
 1332              		.loc 2 526 0
 1333 0030 2000     		movs	r0, r4
 1334 0032 FFF7FEFF 		bl	lv_event_get_param
 1335              	.LVL158:
 1336 0036 0500     		movs	r5, r0
 1337              	.LVL159:
 527:..\..\..\arduinoLCD\test\Pain Drain\libraries\lvgl\src\widgets/lv_bar.c **** 
 1338              		.loc 2 527 0
 1339 0038 0023     		movs	r3, #0
 1340 003a C25E     		ldrsh	r2, [r0, r3]
 1341 003c 3B1C     		adds	r3, r7, #0
 1342 003e 9742     		cmp	r7, r2
 1343 0040 00DA     		bge	.L44
 1344 0042 131C     		adds	r3, r2, #0
 1345              	.L44:
 1346 0044 2B80     		strh	r3, [r5]
 1347              	.LVL160:
 1348              	.LBB120:
 1349              	.LBB121:
 117:..\..\..\arduinoLCD\test\Pain Drain\libraries\lvgl\src\widgets\../core/lv_obj_style_gen.h ****     return (lv_coord_t)v.num;
 1350              		.loc 3 117 0
 1351 0046 1222     		movs	r2, #18
 1352 0048 0021     		movs	r1, #0
 1353 004a 3000     		movs	r0, r6
 1354              	.LVL161:
 1355 004c FFF7FEFF 		bl	lv_obj_get_style_prop
ARM GAS  C:\Users\haske\AppData\Local\Temp\cc11ZRIl.s 			page 51


 1356              	.LVL162:
 118:..\..\..\arduinoLCD\test\Pain Drain\libraries\lvgl\src\widgets\../core/lv_obj_style_gen.h **** }
 1357              		.loc 3 118 0
 1358 0050 07B2     		sxth	r7, r0
 1359              	.LVL163:
 1360              	.LBE121:
 1361              	.LBE120:
 1362              	.LBB122:
 1363              	.LBB123:
 123:..\..\..\arduinoLCD\test\Pain Drain\libraries\lvgl\src\widgets\../core/lv_obj_style_gen.h ****     return (lv_coord_t)v.num;
 1364              		.loc 3 123 0
 1365 0052 1322     		movs	r2, #19
 1366 0054 0021     		movs	r1, #0
 1367 0056 3000     		movs	r0, r6
 1368 0058 FFF7FEFF 		bl	lv_obj_get_style_prop
 1369              	.LVL164:
 124:..\..\..\arduinoLCD\test\Pain Drain\libraries\lvgl\src\widgets\../core/lv_obj_style_gen.h **** }
 1370              		.loc 3 124 0
 1371 005c 04B2     		sxth	r4, r0
 1372              	.LVL165:
 1373              	.LBE123:
 1374              	.LBE122:
 1375              	.LBB124:
 1376              	.LBB125:
 105:..\..\..\arduinoLCD\test\Pain Drain\libraries\lvgl\src\widgets\../core/lv_obj_style_gen.h ****     return (lv_coord_t)v.num;
 1377              		.loc 3 105 0
 1378 005e 1022     		movs	r2, #16
 1379 0060 0021     		movs	r1, #0
 1380 0062 3000     		movs	r0, r6
 1381 0064 FFF7FEFF 		bl	lv_obj_get_style_prop
 1382              	.LVL166:
 106:..\..\..\arduinoLCD\test\Pain Drain\libraries\lvgl\src\widgets\../core/lv_obj_style_gen.h **** }
 1383              		.loc 3 106 0
 1384 0068 03B2     		sxth	r3, r0
 1385 006a 9846     		mov	r8, r3
 1386              	.LVL167:
 1387              	.LBE125:
 1388              	.LBE124:
 1389              	.LBB126:
 1390              	.LBB127:
 111:..\..\..\arduinoLCD\test\Pain Drain\libraries\lvgl\src\widgets\../core/lv_obj_style_gen.h ****     return (lv_coord_t)v.num;
 1391              		.loc 3 111 0
 1392 006c 1122     		movs	r2, #17
 1393 006e 0021     		movs	r1, #0
 1394 0070 3000     		movs	r0, r6
 1395 0072 FFF7FEFF 		bl	lv_obj_get_style_prop
 1396              	.LVL168:
 112:..\..\..\arduinoLCD\test\Pain Drain\libraries\lvgl\src\widgets\../core/lv_obj_style_gen.h **** }
 1397              		.loc 3 112 0
 1398 0076 00B2     		sxth	r0, r0
 1399              	.LVL169:
 1400              	.LBE127:
 1401              	.LBE126:
 535:..\..\..\arduinoLCD\test\Pain Drain\libraries\lvgl\src\widgets/lv_bar.c ****         if(pad < 0) {
 1402              		.loc 2 535 0
 1403 0078 031C     		adds	r3, r0, #0
 1404 007a 4045     		cmp	r0, r8
ARM GAS  C:\Users\haske\AppData\Local\Temp\cc11ZRIl.s 			page 52


 1405 007c 00DD     		ble	.L45
 1406 007e 4346     		mov	r3, r8
 1407              	.L45:
 1408 0080 1BB2     		sxth	r3, r3
 1409 0082 211C     		adds	r1, r4, #0
 1410 0084 BC42     		cmp	r4, r7
 1411 0086 00DD     		ble	.L46
 1412 0088 391C     		adds	r1, r7, #0
 1413              	.L46:
 1414 008a 1A1C     		adds	r2, r3, #0
 1415 008c 08B2     		sxth	r0, r1
 1416 008e 8342     		cmp	r3, r0
 1417 0090 00DD     		ble	.L47
 1418 0092 0A1C     		adds	r2, r1, #0
 1419              	.L47:
 1420 0094 12B2     		sxth	r2, r2
 1421              	.LVL170:
 536:..\..\..\arduinoLCD\test\Pain Drain\libraries\lvgl\src\widgets/lv_bar.c ****             *s = LV_MAX(*s, -pad);
 1422              		.loc 2 536 0
 1423 0096 002A     		cmp	r2, #0
 1424 0098 16DA     		bge	.L41
 537:..\..\..\arduinoLCD\test\Pain Drain\libraries\lvgl\src\widgets/lv_bar.c ****         }
 1425              		.loc 2 537 0
 1426 009a 5242     		rsbs	r2, r2, #0
 1427              	.LVL171:
 1428 009c 0021     		movs	r1, #0
 1429 009e 6B5E     		ldrsh	r3, [r5, r1]
 1430 00a0 9342     		cmp	r3, r2
 1431 00a2 00DA     		bge	.L48
 1432 00a4 1300     		movs	r3, r2
 1433              	.L48:
 1434 00a6 2B80     		strh	r3, [r5]
 1435 00a8 0EE0     		b	.L41
 1436              	.LVL172:
 1437              	.L43:
 1438              	.LBE119:
 540:..\..\..\arduinoLCD\test\Pain Drain\libraries\lvgl\src\widgets/lv_bar.c ****         lv_bar_t * bar = (lv_bar_t *)obj;
 1439              		.loc 2 540 0
 1440 00aa 012D     		cmp	r5, #1
 1441 00ac 01D0     		beq	.L49
 540:..\..\..\arduinoLCD\test\Pain Drain\libraries\lvgl\src\widgets/lv_bar.c ****         lv_bar_t * bar = (lv_bar_t *)obj;
 1442              		.loc 2 540 0 is_stmt 0 discriminator 1
 1443 00ae 082D     		cmp	r5, #8
 1444 00b0 05D1     		bne	.L50
 1445              	.L49:
 1446              	.LVL173:
 1447              	.LBB128:
 542:..\..\..\arduinoLCD\test\Pain Drain\libraries\lvgl\src\widgets/lv_bar.c ****     }
 1448              		.loc 2 542 0 is_stmt 1
 1449 00b2 3100     		movs	r1, r6
 1450 00b4 3431     		adds	r1, r1, #52
 1451 00b6 3000     		movs	r0, r6
 1452              	.LVL174:
 1453 00b8 FFF7FEFF 		bl	lv_obj_invalidate_area
 1454              	.LVL175:
 1455              	.LBE128:
 540:..\..\..\arduinoLCD\test\Pain Drain\libraries\lvgl\src\widgets/lv_bar.c ****         lv_bar_t * bar = (lv_bar_t *)obj;
ARM GAS  C:\Users\haske\AppData\Local\Temp\cc11ZRIl.s 			page 53


 1456              		.loc 2 540 0
 1457 00bc 04E0     		b	.L41
 1458              	.LVL176:
 1459              	.L50:
 544:..\..\..\arduinoLCD\test\Pain Drain\libraries\lvgl\src\widgets/lv_bar.c ****         draw_indic(e);
 1460              		.loc 2 544 0
 1461 00be 152D     		cmp	r5, #21
 1462 00c0 02D1     		bne	.L41
 545:..\..\..\arduinoLCD\test\Pain Drain\libraries\lvgl\src\widgets/lv_bar.c ****     }
 1463              		.loc 2 545 0
 1464 00c2 2000     		movs	r0, r4
 1465              	.LVL177:
 1466 00c4 FFF7FEFF 		bl	draw_indic
 1467              	.LVL178:
 1468              	.L41:
 547:..\..\..\arduinoLCD\test\Pain Drain\libraries\lvgl\src\widgets/lv_bar.c **** 
 1469              		.loc 2 547 0
 1470              		@ sp needed
 1471 00c8 04BC     		pop	{r2}
 1472 00ca 9046     		mov	r8, r2
 1473 00cc F0BD     		pop	{r4, r5, r6, r7, pc}
 1474              	.L52:
 1475 00ce C046     		.align	2
 1476              	.L51:
 1477 00d0 00000000 		.word	.LANCHOR0
 1478              		.cfi_endproc
 1479              	.LFE172:
 1480              		.size	lv_bar_event, .-lv_bar_event
 1481              		.section	.text.lv_bar_destructor,"ax",%progbits
 1482              		.align	2
 1483              		.code	16
 1484              		.thumb_func
 1485              		.type	lv_bar_destructor, %function
 1486              	lv_bar_destructor:
 1487              	.LFB170:
 235:..\..\..\arduinoLCD\test\Pain Drain\libraries\lvgl\src\widgets/lv_bar.c ****     LV_UNUSED(class_p);
 1488              		.loc 2 235 0
 1489              		.cfi_startproc
 1490              		@ args = 0, pretend = 0, frame = 0
 1491              		@ frame_needed = 0, uses_anonymous_args = 0
 1492              	.LVL179:
 1493 0000 10B5     		push	{r4, lr}
 1494              		.cfi_def_cfa_offset 8
 1495              		.cfi_offset 4, -8
 1496              		.cfi_offset 14, -4
 1497 0002 0C00     		movs	r4, r1
 1498              	.LVL180:
 239:..\..\..\arduinoLCD\test\Pain Drain\libraries\lvgl\src\widgets/lv_bar.c ****     lv_anim_del(&bar->start_value_anim, NULL);
 1499              		.loc 2 239 0
 1500 0004 0800     		movs	r0, r1
 1501              	.LVL181:
 1502 0006 3C30     		adds	r0, r0, #60
 1503 0008 0021     		movs	r1, #0
 1504              	.LVL182:
 1505 000a FFF7FEFF 		bl	lv_anim_del
 1506              	.LVL183:
 240:..\..\..\arduinoLCD\test\Pain Drain\libraries\lvgl\src\widgets/lv_bar.c **** }
ARM GAS  C:\Users\haske\AppData\Local\Temp\cc11ZRIl.s 			page 54


 1507              		.loc 2 240 0
 1508 000e 2000     		movs	r0, r4
 1509 0010 4C30     		adds	r0, r0, #76
 1510 0012 0021     		movs	r1, #0
 1511 0014 FFF7FEFF 		bl	lv_anim_del
 1512              	.LVL184:
 241:..\..\..\arduinoLCD\test\Pain Drain\libraries\lvgl\src\widgets/lv_bar.c **** 
 1513              		.loc 2 241 0
 1514              		@ sp needed
 1515              	.LVL185:
 1516 0018 10BD     		pop	{r4, pc}
 1517              		.cfi_endproc
 1518              	.LFE170:
 1519              		.size	lv_bar_destructor, .-lv_bar_destructor
 1520 001a C046     		.section	.text.lv_bar_anim_ready,"ax",%progbits
 1521              		.align	2
 1522              		.code	16
 1523              		.thumb_func
 1524              		.type	lv_bar_anim_ready, %function
 1525              	lv_bar_anim_ready:
 1526              	.LFB174:
 557:..\..\..\arduinoLCD\test\Pain Drain\libraries\lvgl\src\widgets/lv_bar.c ****     _lv_bar_anim_t * var = a->var;
 1527              		.loc 2 557 0
 1528              		.cfi_startproc
 1529              		@ args = 0, pretend = 0, frame = 0
 1530              		@ frame_needed = 0, uses_anonymous_args = 0
 1531              	.LVL186:
 1532 0000 10B5     		push	{r4, lr}
 1533              		.cfi_def_cfa_offset 8
 1534              		.cfi_offset 4, -8
 1535              		.cfi_offset 14, -4
 558:..\..\..\arduinoLCD\test\Pain Drain\libraries\lvgl\src\widgets/lv_bar.c ****     lv_obj_t * obj = (lv_obj_t *)var->bar;
 1536              		.loc 2 558 0
 1537 0002 0368     		ldr	r3, [r0]
 1538              	.LVL187:
 559:..\..\..\arduinoLCD\test\Pain Drain\libraries\lvgl\src\widgets/lv_bar.c ****     lv_bar_t * bar = (lv_bar_t *)obj;
 1539              		.loc 2 559 0
 1540 0004 1A68     		ldr	r2, [r3]
 1541              	.LVL188:
 562:..\..\..\arduinoLCD\test\Pain Drain\libraries\lvgl\src\widgets/lv_bar.c ****     if(var == &bar->cur_value_anim)
 1542              		.loc 2 562 0
 1543 0006 0121     		movs	r1, #1
 1544 0008 4942     		rsbs	r1, r1, #0
 1545 000a D960     		str	r1, [r3, #12]
 563:..\..\..\arduinoLCD\test\Pain Drain\libraries\lvgl\src\widgets/lv_bar.c ****         bar->cur_value = var->anim_end;
 1546              		.loc 2 563 0
 1547 000c 1100     		movs	r1, r2
 1548 000e 3C31     		adds	r1, r1, #60
 1549 0010 8B42     		cmp	r3, r1
 1550 0012 02D1     		bne	.L55
 564:..\..\..\arduinoLCD\test\Pain Drain\libraries\lvgl\src\widgets/lv_bar.c ****     else if(var == &bar->start_value_anim)
 1551              		.loc 2 564 0
 1552 0014 9968     		ldr	r1, [r3, #8]
 1553 0016 5162     		str	r1, [r2, #36]
 1554 0018 05E0     		b	.L56
 1555              	.L55:
 565:..\..\..\arduinoLCD\test\Pain Drain\libraries\lvgl\src\widgets/lv_bar.c ****         bar->start_value = var->anim_end;
ARM GAS  C:\Users\haske\AppData\Local\Temp\cc11ZRIl.s 			page 55


 1556              		.loc 2 565 0
 1557 001a 1100     		movs	r1, r2
 1558 001c 4C31     		adds	r1, r1, #76
 1559 001e 8B42     		cmp	r3, r1
 1560 0020 01D1     		bne	.L56
 566:..\..\..\arduinoLCD\test\Pain Drain\libraries\lvgl\src\widgets/lv_bar.c ****     lv_obj_invalidate(var->bar);
 1561              		.loc 2 566 0
 1562 0022 9968     		ldr	r1, [r3, #8]
 1563 0024 1163     		str	r1, [r2, #48]
 1564              	.L56:
 567:..\..\..\arduinoLCD\test\Pain Drain\libraries\lvgl\src\widgets/lv_bar.c **** }
 1565              		.loc 2 567 0
 1566 0026 1868     		ldr	r0, [r3]
 1567              	.LVL189:
 1568 0028 FFF7FEFF 		bl	lv_obj_invalidate
 1569              	.LVL190:
 568:..\..\..\arduinoLCD\test\Pain Drain\libraries\lvgl\src\widgets/lv_bar.c **** 
 1570              		.loc 2 568 0
 1571              		@ sp needed
 1572 002c 10BD     		pop	{r4, pc}
 1573              		.cfi_endproc
 1574              	.LFE174:
 1575              		.size	lv_bar_anim_ready, .-lv_bar_anim_ready
 1576 002e C046     		.section	.text.lv_bar_anim,"ax",%progbits
 1577              		.align	2
 1578              		.code	16
 1579              		.thumb_func
 1580              		.type	lv_bar_anim, %function
 1581              	lv_bar_anim:
 1582              	.LFB173:
 550:..\..\..\arduinoLCD\test\Pain Drain\libraries\lvgl\src\widgets/lv_bar.c ****     _lv_bar_anim_t * bar_anim = var;
 1583              		.loc 2 550 0
 1584              		.cfi_startproc
 1585              		@ args = 0, pretend = 0, frame = 0
 1586              		@ frame_needed = 0, uses_anonymous_args = 0
 1587              	.LVL191:
 1588 0000 10B5     		push	{r4, lr}
 1589              		.cfi_def_cfa_offset 8
 1590              		.cfi_offset 4, -8
 1591              		.cfi_offset 14, -4
 1592              	.LVL192:
 552:..\..\..\arduinoLCD\test\Pain Drain\libraries\lvgl\src\widgets/lv_bar.c ****     lv_obj_invalidate(bar_anim->bar);
 1593              		.loc 2 552 0
 1594 0002 C160     		str	r1, [r0, #12]
 553:..\..\..\arduinoLCD\test\Pain Drain\libraries\lvgl\src\widgets/lv_bar.c **** }
 1595              		.loc 2 553 0
 1596 0004 0068     		ldr	r0, [r0]
 1597              	.LVL193:
 1598 0006 FFF7FEFF 		bl	lv_obj_invalidate
 1599              	.LVL194:
 554:..\..\..\arduinoLCD\test\Pain Drain\libraries\lvgl\src\widgets/lv_bar.c **** 
 1600              		.loc 2 554 0
 1601              		@ sp needed
 1602 000a 10BD     		pop	{r4, pc}
 1603              		.cfi_endproc
 1604              	.LFE173:
 1605              		.size	lv_bar_anim, .-lv_bar_anim
ARM GAS  C:\Users\haske\AppData\Local\Temp\cc11ZRIl.s 			page 56


 1606              		.section	.text.lv_bar_set_value_with_anim,"ax",%progbits
 1607              		.align	2
 1608              		.code	16
 1609              		.thumb_func
 1610              		.type	lv_bar_set_value_with_anim, %function
 1611              	lv_bar_set_value_with_anim:
 1612              	.LFB175:
 572:..\..\..\arduinoLCD\test\Pain Drain\libraries\lvgl\src\widgets/lv_bar.c ****     if(en == LV_ANIM_OFF) {
 1613              		.loc 2 572 0
 1614              		.cfi_startproc
 1615              		@ args = 4, pretend = 0, frame = 72
 1616              		@ frame_needed = 0, uses_anonymous_args = 0
 1617              	.LVL195:
 1618 0000 F0B5     		push	{r4, r5, r6, r7, lr}
 1619              		.cfi_def_cfa_offset 20
 1620              		.cfi_offset 4, -20
 1621              		.cfi_offset 5, -16
 1622              		.cfi_offset 6, -12
 1623              		.cfi_offset 7, -8
 1624              		.cfi_offset 14, -4
 1625 0002 93B0     		sub	sp, sp, #76
 1626              		.cfi_def_cfa_offset 96
 1627 0004 0600     		movs	r6, r0
 1628 0006 0D00     		movs	r5, r1
 1629 0008 1700     		movs	r7, r2
 1630 000a 1C00     		movs	r4, r3
 1631 000c 18AB     		add	r3, sp, #96
 1632              	.LVL196:
 1633 000e 1B78     		ldrb	r3, [r3]
 1634              	.LVL197:
 573:..\..\..\arduinoLCD\test\Pain Drain\libraries\lvgl\src\widgets/lv_bar.c ****         lv_anim_del(anim_info, NULL);
 1635              		.loc 2 573 0
 1636 0010 002B     		cmp	r3, #0
 1637 0012 0BD1     		bne	.L59
 574:..\..\..\arduinoLCD\test\Pain Drain\libraries\lvgl\src\widgets/lv_bar.c ****         anim_info->anim_state = LV_BAR_ANIM_STATE_INV;
 1638              		.loc 2 574 0
 1639 0014 0021     		movs	r1, #0
 1640              	.LVL198:
 1641 0016 2000     		movs	r0, r4
 1642              	.LVL199:
 1643 0018 FFF7FEFF 		bl	lv_anim_del
 1644              	.LVL200:
 575:..\..\..\arduinoLCD\test\Pain Drain\libraries\lvgl\src\widgets/lv_bar.c ****         *value_ptr = new_value;
 1645              		.loc 2 575 0
 1646 001c 0123     		movs	r3, #1
 1647 001e 5B42     		rsbs	r3, r3, #0
 1648 0020 E360     		str	r3, [r4, #12]
 576:..\..\..\arduinoLCD\test\Pain Drain\libraries\lvgl\src\widgets/lv_bar.c ****         lv_obj_invalidate((lv_obj_t *)obj);
 1649              		.loc 2 576 0
 1650 0022 3D60     		str	r5, [r7]
 577:..\..\..\arduinoLCD\test\Pain Drain\libraries\lvgl\src\widgets/lv_bar.c ****     }
 1651              		.loc 2 577 0
 1652 0024 3000     		movs	r0, r6
 1653 0026 FFF7FEFF 		bl	lv_obj_invalidate
 1654              	.LVL201:
 1655 002a 25E0     		b	.L58
 1656              	.LVL202:
ARM GAS  C:\Users\haske\AppData\Local\Temp\cc11ZRIl.s 			page 57


