ARM GAS  C:\Users\haske\AppData\Local\Temp\ccIkbvey.s 			page 1


   1              		.syntax unified
   2              		.cpu cortex-m0plus
   3              		.fpu softvfp
   4              		.eabi_attribute 20, 1
   5              		.eabi_attribute 21, 1
   6              		.eabi_attribute 23, 3
   7              		.eabi_attribute 24, 1
   8              		.eabi_attribute 25, 1
   9              		.eabi_attribute 26, 1
  10              		.eabi_attribute 30, 1
  11              		.eabi_attribute 34, 0
  12              		.eabi_attribute 18, 4
  13              		.thumb
  14              		.syntax unified
  15              		.file	"lv_colorwheel.c"
  16              		.text
  17              	.Ltext0:
  18              		.cfi_sections	.debug_frame
  19              		.section	.text.fast_hsv2rgb,"ax",%progbits
  20              		.align	2
  21              		.code	16
  22              		.thumb_func
  23              		.type	fast_hsv2rgb, %function
  24              	fast_hsv2rgb:
  25              	.LFB220:
  26              		.file 1 "..\\..\\..\\arduinoLCD\\test\\Pain Drain\\libraries\\lvgl\\src\\extra\\widgets\\colorwhee
   1:..\..\..\arduinoLCD\test\Pain Drain\libraries\lvgl\src\extra\widgets\colorwheel/lv_colorwheel.c **** /**
   2:..\..\..\arduinoLCD\test\Pain Drain\libraries\lvgl\src\extra\widgets\colorwheel/lv_colorwheel.c ****  * @file lv_colorwheel.c
   3:..\..\..\arduinoLCD\test\Pain Drain\libraries\lvgl\src\extra\widgets\colorwheel/lv_colorwheel.c ****  *
   4:..\..\..\arduinoLCD\test\Pain Drain\libraries\lvgl\src\extra\widgets\colorwheel/lv_colorwheel.c ****  * Based on the work of @AloyseTech and @paulpv.
   5:..\..\..\arduinoLCD\test\Pain Drain\libraries\lvgl\src\extra\widgets\colorwheel/lv_colorwheel.c ****  */
   6:..\..\..\arduinoLCD\test\Pain Drain\libraries\lvgl\src\extra\widgets\colorwheel/lv_colorwheel.c **** 
   7:..\..\..\arduinoLCD\test\Pain Drain\libraries\lvgl\src\extra\widgets\colorwheel/lv_colorwheel.c **** /*********************
   8:..\..\..\arduinoLCD\test\Pain Drain\libraries\lvgl\src\extra\widgets\colorwheel/lv_colorwheel.c ****  *      INCLUDES
   9:..\..\..\arduinoLCD\test\Pain Drain\libraries\lvgl\src\extra\widgets\colorwheel/lv_colorwheel.c ****  *********************/
  10:..\..\..\arduinoLCD\test\Pain Drain\libraries\lvgl\src\extra\widgets\colorwheel/lv_colorwheel.c **** #include "lv_colorwheel.h"
  11:..\..\..\arduinoLCD\test\Pain Drain\libraries\lvgl\src\extra\widgets\colorwheel/lv_colorwheel.c **** #if LV_USE_COLORWHEEL
  12:..\..\..\arduinoLCD\test\Pain Drain\libraries\lvgl\src\extra\widgets\colorwheel/lv_colorwheel.c **** 
  13:..\..\..\arduinoLCD\test\Pain Drain\libraries\lvgl\src\extra\widgets\colorwheel/lv_colorwheel.c **** #include "../../../misc/lv_assert.h"
  14:..\..\..\arduinoLCD\test\Pain Drain\libraries\lvgl\src\extra\widgets\colorwheel/lv_colorwheel.c **** 
  15:..\..\..\arduinoLCD\test\Pain Drain\libraries\lvgl\src\extra\widgets\colorwheel/lv_colorwheel.c **** /*********************
  16:..\..\..\arduinoLCD\test\Pain Drain\libraries\lvgl\src\extra\widgets\colorwheel/lv_colorwheel.c ****  *      DEFINES
  17:..\..\..\arduinoLCD\test\Pain Drain\libraries\lvgl\src\extra\widgets\colorwheel/lv_colorwheel.c ****  *********************/
  18:..\..\..\arduinoLCD\test\Pain Drain\libraries\lvgl\src\extra\widgets\colorwheel/lv_colorwheel.c **** #define MY_CLASS &lv_colorwheel_class
  19:..\..\..\arduinoLCD\test\Pain Drain\libraries\lvgl\src\extra\widgets\colorwheel/lv_colorwheel.c **** 
  20:..\..\..\arduinoLCD\test\Pain Drain\libraries\lvgl\src\extra\widgets\colorwheel/lv_colorwheel.c **** #define LV_CPICKER_DEF_QF 3
  21:..\..\..\arduinoLCD\test\Pain Drain\libraries\lvgl\src\extra\widgets\colorwheel/lv_colorwheel.c **** 
  22:..\..\..\arduinoLCD\test\Pain Drain\libraries\lvgl\src\extra\widgets\colorwheel/lv_colorwheel.c **** /**
  23:..\..\..\arduinoLCD\test\Pain Drain\libraries\lvgl\src\extra\widgets\colorwheel/lv_colorwheel.c ****  * The OUTER_MASK_WIDTH define is required to assist with the placing of a mask over the outer ring
  24:..\..\..\arduinoLCD\test\Pain Drain\libraries\lvgl\src\extra\widgets\colorwheel/lv_colorwheel.c ****  * multicoloured radial lines are calculated for the outer ring of the widget their lengths are jit
  25:..\..\..\arduinoLCD\test\Pain Drain\libraries\lvgl\src\extra\widgets\colorwheel/lv_colorwheel.c ****  * integer based arithmetic. From tests the maximum delta was found to be 2 so the current value is
  26:..\..\..\arduinoLCD\test\Pain Drain\libraries\lvgl\src\extra\widgets\colorwheel/lv_colorwheel.c ****  * appropriate masking.
  27:..\..\..\arduinoLCD\test\Pain Drain\libraries\lvgl\src\extra\widgets\colorwheel/lv_colorwheel.c ****  */
  28:..\..\..\arduinoLCD\test\Pain Drain\libraries\lvgl\src\extra\widgets\colorwheel/lv_colorwheel.c **** #define OUTER_MASK_WIDTH 3
  29:..\..\..\arduinoLCD\test\Pain Drain\libraries\lvgl\src\extra\widgets\colorwheel/lv_colorwheel.c **** 
  30:..\..\..\arduinoLCD\test\Pain Drain\libraries\lvgl\src\extra\widgets\colorwheel/lv_colorwheel.c **** /**********************
  31:..\..\..\arduinoLCD\test\Pain Drain\libraries\lvgl\src\extra\widgets\colorwheel/lv_colorwheel.c ****  *      TYPEDEFS
ARM GAS  C:\Users\haske\AppData\Local\Temp\ccIkbvey.s 			page 2


  32:..\..\..\arduinoLCD\test\Pain Drain\libraries\lvgl\src\extra\widgets\colorwheel/lv_colorwheel.c ****  **********************/
  33:..\..\..\arduinoLCD\test\Pain Drain\libraries\lvgl\src\extra\widgets\colorwheel/lv_colorwheel.c **** 
  34:..\..\..\arduinoLCD\test\Pain Drain\libraries\lvgl\src\extra\widgets\colorwheel/lv_colorwheel.c **** /**********************
  35:..\..\..\arduinoLCD\test\Pain Drain\libraries\lvgl\src\extra\widgets\colorwheel/lv_colorwheel.c ****  *  STATIC PROTOTYPES
  36:..\..\..\arduinoLCD\test\Pain Drain\libraries\lvgl\src\extra\widgets\colorwheel/lv_colorwheel.c ****  **********************/
  37:..\..\..\arduinoLCD\test\Pain Drain\libraries\lvgl\src\extra\widgets\colorwheel/lv_colorwheel.c **** static void lv_colorwheel_constructor(const lv_obj_class_t * class_p, lv_obj_t * obj);
  38:..\..\..\arduinoLCD\test\Pain Drain\libraries\lvgl\src\extra\widgets\colorwheel/lv_colorwheel.c **** static void lv_colorwheel_event(const lv_obj_class_t * class_p, lv_event_t * e);
  39:..\..\..\arduinoLCD\test\Pain Drain\libraries\lvgl\src\extra\widgets\colorwheel/lv_colorwheel.c **** 
  40:..\..\..\arduinoLCD\test\Pain Drain\libraries\lvgl\src\extra\widgets\colorwheel/lv_colorwheel.c **** static void draw_disc_grad(lv_event_t * e);
  41:..\..\..\arduinoLCD\test\Pain Drain\libraries\lvgl\src\extra\widgets\colorwheel/lv_colorwheel.c **** static void draw_knob(lv_event_t * e);
  42:..\..\..\arduinoLCD\test\Pain Drain\libraries\lvgl\src\extra\widgets\colorwheel/lv_colorwheel.c **** static void invalidate_knob(lv_obj_t * obj);
  43:..\..\..\arduinoLCD\test\Pain Drain\libraries\lvgl\src\extra\widgets\colorwheel/lv_colorwheel.c **** static lv_area_t get_knob_area(lv_obj_t * obj);
  44:..\..\..\arduinoLCD\test\Pain Drain\libraries\lvgl\src\extra\widgets\colorwheel/lv_colorwheel.c **** 
  45:..\..\..\arduinoLCD\test\Pain Drain\libraries\lvgl\src\extra\widgets\colorwheel/lv_colorwheel.c **** static void next_color_mode(lv_obj_t * obj);
  46:..\..\..\arduinoLCD\test\Pain Drain\libraries\lvgl\src\extra\widgets\colorwheel/lv_colorwheel.c **** static lv_res_t double_click_reset(lv_obj_t * obj);
  47:..\..\..\arduinoLCD\test\Pain Drain\libraries\lvgl\src\extra\widgets\colorwheel/lv_colorwheel.c **** static void refr_knob_pos(lv_obj_t * obj);
  48:..\..\..\arduinoLCD\test\Pain Drain\libraries\lvgl\src\extra\widgets\colorwheel/lv_colorwheel.c **** static lv_color_t angle_to_mode_color_fast(lv_obj_t * obj, uint16_t angle);
  49:..\..\..\arduinoLCD\test\Pain Drain\libraries\lvgl\src\extra\widgets\colorwheel/lv_colorwheel.c **** static uint16_t get_angle(lv_obj_t * obj);
  50:..\..\..\arduinoLCD\test\Pain Drain\libraries\lvgl\src\extra\widgets\colorwheel/lv_colorwheel.c **** 
  51:..\..\..\arduinoLCD\test\Pain Drain\libraries\lvgl\src\extra\widgets\colorwheel/lv_colorwheel.c **** /**********************
  52:..\..\..\arduinoLCD\test\Pain Drain\libraries\lvgl\src\extra\widgets\colorwheel/lv_colorwheel.c ****  *  STATIC VARIABLES
  53:..\..\..\arduinoLCD\test\Pain Drain\libraries\lvgl\src\extra\widgets\colorwheel/lv_colorwheel.c ****  **********************/
  54:..\..\..\arduinoLCD\test\Pain Drain\libraries\lvgl\src\extra\widgets\colorwheel/lv_colorwheel.c **** const lv_obj_class_t lv_colorwheel_class = {.instance_size = sizeof(lv_colorwheel_t), .base_class =
  55:..\..\..\arduinoLCD\test\Pain Drain\libraries\lvgl\src\extra\widgets\colorwheel/lv_colorwheel.c ****                                             .constructor_cb = lv_colorwheel_constructor,
  56:..\..\..\arduinoLCD\test\Pain Drain\libraries\lvgl\src\extra\widgets\colorwheel/lv_colorwheel.c ****                                             .event_cb = lv_colorwheel_event,
  57:..\..\..\arduinoLCD\test\Pain Drain\libraries\lvgl\src\extra\widgets\colorwheel/lv_colorwheel.c ****                                             .width_def = LV_DPI_DEF * 2,
  58:..\..\..\arduinoLCD\test\Pain Drain\libraries\lvgl\src\extra\widgets\colorwheel/lv_colorwheel.c ****                                             .height_def = LV_DPI_DEF * 2,
  59:..\..\..\arduinoLCD\test\Pain Drain\libraries\lvgl\src\extra\widgets\colorwheel/lv_colorwheel.c ****                                             .editable = LV_OBJ_CLASS_EDITABLE_TRUE,
  60:..\..\..\arduinoLCD\test\Pain Drain\libraries\lvgl\src\extra\widgets\colorwheel/lv_colorwheel.c ****                                            };
  61:..\..\..\arduinoLCD\test\Pain Drain\libraries\lvgl\src\extra\widgets\colorwheel/lv_colorwheel.c **** 
  62:..\..\..\arduinoLCD\test\Pain Drain\libraries\lvgl\src\extra\widgets\colorwheel/lv_colorwheel.c **** static bool create_knob_recolor;
  63:..\..\..\arduinoLCD\test\Pain Drain\libraries\lvgl\src\extra\widgets\colorwheel/lv_colorwheel.c **** 
  64:..\..\..\arduinoLCD\test\Pain Drain\libraries\lvgl\src\extra\widgets\colorwheel/lv_colorwheel.c **** /**********************
  65:..\..\..\arduinoLCD\test\Pain Drain\libraries\lvgl\src\extra\widgets\colorwheel/lv_colorwheel.c ****  *      MACROS
  66:..\..\..\arduinoLCD\test\Pain Drain\libraries\lvgl\src\extra\widgets\colorwheel/lv_colorwheel.c ****  **********************/
  67:..\..\..\arduinoLCD\test\Pain Drain\libraries\lvgl\src\extra\widgets\colorwheel/lv_colorwheel.c **** 
  68:..\..\..\arduinoLCD\test\Pain Drain\libraries\lvgl\src\extra\widgets\colorwheel/lv_colorwheel.c **** /**********************
  69:..\..\..\arduinoLCD\test\Pain Drain\libraries\lvgl\src\extra\widgets\colorwheel/lv_colorwheel.c ****  *   GLOBAL FUNCTIONS
  70:..\..\..\arduinoLCD\test\Pain Drain\libraries\lvgl\src\extra\widgets\colorwheel/lv_colorwheel.c ****  **********************/
  71:..\..\..\arduinoLCD\test\Pain Drain\libraries\lvgl\src\extra\widgets\colorwheel/lv_colorwheel.c **** 
  72:..\..\..\arduinoLCD\test\Pain Drain\libraries\lvgl\src\extra\widgets\colorwheel/lv_colorwheel.c **** /**
  73:..\..\..\arduinoLCD\test\Pain Drain\libraries\lvgl\src\extra\widgets\colorwheel/lv_colorwheel.c ****  * Create a color_picker object
  74:..\..\..\arduinoLCD\test\Pain Drain\libraries\lvgl\src\extra\widgets\colorwheel/lv_colorwheel.c ****  * @param parent pointer to an object, it will be the parent of the new color_picker
  75:..\..\..\arduinoLCD\test\Pain Drain\libraries\lvgl\src\extra\widgets\colorwheel/lv_colorwheel.c ****  * @return pointer to the created color_picker
  76:..\..\..\arduinoLCD\test\Pain Drain\libraries\lvgl\src\extra\widgets\colorwheel/lv_colorwheel.c ****  */
  77:..\..\..\arduinoLCD\test\Pain Drain\libraries\lvgl\src\extra\widgets\colorwheel/lv_colorwheel.c **** lv_obj_t * lv_colorwheel_create(lv_obj_t * parent, bool knob_recolor)
  78:..\..\..\arduinoLCD\test\Pain Drain\libraries\lvgl\src\extra\widgets\colorwheel/lv_colorwheel.c **** {
  79:..\..\..\arduinoLCD\test\Pain Drain\libraries\lvgl\src\extra\widgets\colorwheel/lv_colorwheel.c ****     LV_LOG_INFO("begin");
  80:..\..\..\arduinoLCD\test\Pain Drain\libraries\lvgl\src\extra\widgets\colorwheel/lv_colorwheel.c ****     create_knob_recolor = knob_recolor;
  81:..\..\..\arduinoLCD\test\Pain Drain\libraries\lvgl\src\extra\widgets\colorwheel/lv_colorwheel.c **** 
  82:..\..\..\arduinoLCD\test\Pain Drain\libraries\lvgl\src\extra\widgets\colorwheel/lv_colorwheel.c ****     lv_obj_t * obj = lv_obj_class_create_obj(MY_CLASS, parent);
  83:..\..\..\arduinoLCD\test\Pain Drain\libraries\lvgl\src\extra\widgets\colorwheel/lv_colorwheel.c ****     lv_obj_class_init_obj(obj);
  84:..\..\..\arduinoLCD\test\Pain Drain\libraries\lvgl\src\extra\widgets\colorwheel/lv_colorwheel.c ****     return obj;
  85:..\..\..\arduinoLCD\test\Pain Drain\libraries\lvgl\src\extra\widgets\colorwheel/lv_colorwheel.c **** }
  86:..\..\..\arduinoLCD\test\Pain Drain\libraries\lvgl\src\extra\widgets\colorwheel/lv_colorwheel.c **** 
  87:..\..\..\arduinoLCD\test\Pain Drain\libraries\lvgl\src\extra\widgets\colorwheel/lv_colorwheel.c **** /*=====================
  88:..\..\..\arduinoLCD\test\Pain Drain\libraries\lvgl\src\extra\widgets\colorwheel/lv_colorwheel.c ****  * Setter functions
ARM GAS  C:\Users\haske\AppData\Local\Temp\ccIkbvey.s 			page 3


  89:..\..\..\arduinoLCD\test\Pain Drain\libraries\lvgl\src\extra\widgets\colorwheel/lv_colorwheel.c ****  *====================*/
  90:..\..\..\arduinoLCD\test\Pain Drain\libraries\lvgl\src\extra\widgets\colorwheel/lv_colorwheel.c **** 
  91:..\..\..\arduinoLCD\test\Pain Drain\libraries\lvgl\src\extra\widgets\colorwheel/lv_colorwheel.c **** /**
  92:..\..\..\arduinoLCD\test\Pain Drain\libraries\lvgl\src\extra\widgets\colorwheel/lv_colorwheel.c ****  * Set the current hsv of a color wheel.
  93:..\..\..\arduinoLCD\test\Pain Drain\libraries\lvgl\src\extra\widgets\colorwheel/lv_colorwheel.c ****  * @param colorwheel pointer to color wheel object
  94:..\..\..\arduinoLCD\test\Pain Drain\libraries\lvgl\src\extra\widgets\colorwheel/lv_colorwheel.c ****  * @param color current selected hsv
  95:..\..\..\arduinoLCD\test\Pain Drain\libraries\lvgl\src\extra\widgets\colorwheel/lv_colorwheel.c ****  * @return true if changed, otherwise false
  96:..\..\..\arduinoLCD\test\Pain Drain\libraries\lvgl\src\extra\widgets\colorwheel/lv_colorwheel.c ****  */
  97:..\..\..\arduinoLCD\test\Pain Drain\libraries\lvgl\src\extra\widgets\colorwheel/lv_colorwheel.c **** bool lv_colorwheel_set_hsv(lv_obj_t * obj, lv_color_hsv_t hsv)
  98:..\..\..\arduinoLCD\test\Pain Drain\libraries\lvgl\src\extra\widgets\colorwheel/lv_colorwheel.c **** {
  99:..\..\..\arduinoLCD\test\Pain Drain\libraries\lvgl\src\extra\widgets\colorwheel/lv_colorwheel.c ****     if(hsv.h > 360) hsv.h %= 360;
 100:..\..\..\arduinoLCD\test\Pain Drain\libraries\lvgl\src\extra\widgets\colorwheel/lv_colorwheel.c ****     if(hsv.s > 100) hsv.s = 100;
 101:..\..\..\arduinoLCD\test\Pain Drain\libraries\lvgl\src\extra\widgets\colorwheel/lv_colorwheel.c ****     if(hsv.v > 100) hsv.v = 100;
 102:..\..\..\arduinoLCD\test\Pain Drain\libraries\lvgl\src\extra\widgets\colorwheel/lv_colorwheel.c **** 
 103:..\..\..\arduinoLCD\test\Pain Drain\libraries\lvgl\src\extra\widgets\colorwheel/lv_colorwheel.c ****     LV_ASSERT_OBJ(obj, MY_CLASS);
 104:..\..\..\arduinoLCD\test\Pain Drain\libraries\lvgl\src\extra\widgets\colorwheel/lv_colorwheel.c ****     lv_colorwheel_t * colorwheel = (lv_colorwheel_t *)obj;
 105:..\..\..\arduinoLCD\test\Pain Drain\libraries\lvgl\src\extra\widgets\colorwheel/lv_colorwheel.c **** 
 106:..\..\..\arduinoLCD\test\Pain Drain\libraries\lvgl\src\extra\widgets\colorwheel/lv_colorwheel.c ****     if(colorwheel->hsv.h == hsv.h && colorwheel->hsv.s == hsv.s && colorwheel->hsv.v == hsv.v) retu
 107:..\..\..\arduinoLCD\test\Pain Drain\libraries\lvgl\src\extra\widgets\colorwheel/lv_colorwheel.c **** 
 108:..\..\..\arduinoLCD\test\Pain Drain\libraries\lvgl\src\extra\widgets\colorwheel/lv_colorwheel.c ****     colorwheel->hsv = hsv;
 109:..\..\..\arduinoLCD\test\Pain Drain\libraries\lvgl\src\extra\widgets\colorwheel/lv_colorwheel.c **** 
 110:..\..\..\arduinoLCD\test\Pain Drain\libraries\lvgl\src\extra\widgets\colorwheel/lv_colorwheel.c ****     refr_knob_pos(obj);
 111:..\..\..\arduinoLCD\test\Pain Drain\libraries\lvgl\src\extra\widgets\colorwheel/lv_colorwheel.c **** 
 112:..\..\..\arduinoLCD\test\Pain Drain\libraries\lvgl\src\extra\widgets\colorwheel/lv_colorwheel.c ****     lv_obj_invalidate(obj);
 113:..\..\..\arduinoLCD\test\Pain Drain\libraries\lvgl\src\extra\widgets\colorwheel/lv_colorwheel.c **** 
 114:..\..\..\arduinoLCD\test\Pain Drain\libraries\lvgl\src\extra\widgets\colorwheel/lv_colorwheel.c ****     return true;
 115:..\..\..\arduinoLCD\test\Pain Drain\libraries\lvgl\src\extra\widgets\colorwheel/lv_colorwheel.c **** }
 116:..\..\..\arduinoLCD\test\Pain Drain\libraries\lvgl\src\extra\widgets\colorwheel/lv_colorwheel.c **** 
 117:..\..\..\arduinoLCD\test\Pain Drain\libraries\lvgl\src\extra\widgets\colorwheel/lv_colorwheel.c **** /**
 118:..\..\..\arduinoLCD\test\Pain Drain\libraries\lvgl\src\extra\widgets\colorwheel/lv_colorwheel.c ****  * Set the current color of a color wheel.
 119:..\..\..\arduinoLCD\test\Pain Drain\libraries\lvgl\src\extra\widgets\colorwheel/lv_colorwheel.c ****  * @param colorwheel pointer to color wheel object
 120:..\..\..\arduinoLCD\test\Pain Drain\libraries\lvgl\src\extra\widgets\colorwheel/lv_colorwheel.c ****  * @param color current selected color
 121:..\..\..\arduinoLCD\test\Pain Drain\libraries\lvgl\src\extra\widgets\colorwheel/lv_colorwheel.c ****  * @return true if changed, otherwise false
 122:..\..\..\arduinoLCD\test\Pain Drain\libraries\lvgl\src\extra\widgets\colorwheel/lv_colorwheel.c ****  */
 123:..\..\..\arduinoLCD\test\Pain Drain\libraries\lvgl\src\extra\widgets\colorwheel/lv_colorwheel.c **** bool lv_colorwheel_set_rgb(lv_obj_t * obj, lv_color_t color)
 124:..\..\..\arduinoLCD\test\Pain Drain\libraries\lvgl\src\extra\widgets\colorwheel/lv_colorwheel.c **** {
 125:..\..\..\arduinoLCD\test\Pain Drain\libraries\lvgl\src\extra\widgets\colorwheel/lv_colorwheel.c ****     lv_color32_t c32;
 126:..\..\..\arduinoLCD\test\Pain Drain\libraries\lvgl\src\extra\widgets\colorwheel/lv_colorwheel.c ****     c32.full = lv_color_to32(color);
 127:..\..\..\arduinoLCD\test\Pain Drain\libraries\lvgl\src\extra\widgets\colorwheel/lv_colorwheel.c **** 
 128:..\..\..\arduinoLCD\test\Pain Drain\libraries\lvgl\src\extra\widgets\colorwheel/lv_colorwheel.c ****     return lv_colorwheel_set_hsv(obj,  lv_color_rgb_to_hsv(c32.ch.red, c32.ch.green, c32.ch.blue));
 129:..\..\..\arduinoLCD\test\Pain Drain\libraries\lvgl\src\extra\widgets\colorwheel/lv_colorwheel.c **** }
 130:..\..\..\arduinoLCD\test\Pain Drain\libraries\lvgl\src\extra\widgets\colorwheel/lv_colorwheel.c **** 
 131:..\..\..\arduinoLCD\test\Pain Drain\libraries\lvgl\src\extra\widgets\colorwheel/lv_colorwheel.c **** /**
 132:..\..\..\arduinoLCD\test\Pain Drain\libraries\lvgl\src\extra\widgets\colorwheel/lv_colorwheel.c ****  * Set the current color mode.
 133:..\..\..\arduinoLCD\test\Pain Drain\libraries\lvgl\src\extra\widgets\colorwheel/lv_colorwheel.c ****  * @param colorwheel pointer to color wheel object
 134:..\..\..\arduinoLCD\test\Pain Drain\libraries\lvgl\src\extra\widgets\colorwheel/lv_colorwheel.c ****  * @param mode color mode (hue/sat/val)
 135:..\..\..\arduinoLCD\test\Pain Drain\libraries\lvgl\src\extra\widgets\colorwheel/lv_colorwheel.c ****  */
 136:..\..\..\arduinoLCD\test\Pain Drain\libraries\lvgl\src\extra\widgets\colorwheel/lv_colorwheel.c **** void lv_colorwheel_set_mode(lv_obj_t * obj, lv_colorwheel_mode_t mode)
 137:..\..\..\arduinoLCD\test\Pain Drain\libraries\lvgl\src\extra\widgets\colorwheel/lv_colorwheel.c **** {
 138:..\..\..\arduinoLCD\test\Pain Drain\libraries\lvgl\src\extra\widgets\colorwheel/lv_colorwheel.c ****     LV_ASSERT_OBJ(obj, MY_CLASS);
 139:..\..\..\arduinoLCD\test\Pain Drain\libraries\lvgl\src\extra\widgets\colorwheel/lv_colorwheel.c ****     lv_colorwheel_t * colorwheel = (lv_colorwheel_t *)obj;
 140:..\..\..\arduinoLCD\test\Pain Drain\libraries\lvgl\src\extra\widgets\colorwheel/lv_colorwheel.c **** 
 141:..\..\..\arduinoLCD\test\Pain Drain\libraries\lvgl\src\extra\widgets\colorwheel/lv_colorwheel.c ****     colorwheel->mode = mode;
 142:..\..\..\arduinoLCD\test\Pain Drain\libraries\lvgl\src\extra\widgets\colorwheel/lv_colorwheel.c ****     refr_knob_pos(obj);
 143:..\..\..\arduinoLCD\test\Pain Drain\libraries\lvgl\src\extra\widgets\colorwheel/lv_colorwheel.c ****     lv_obj_invalidate(obj);
 144:..\..\..\arduinoLCD\test\Pain Drain\libraries\lvgl\src\extra\widgets\colorwheel/lv_colorwheel.c **** }
 145:..\..\..\arduinoLCD\test\Pain Drain\libraries\lvgl\src\extra\widgets\colorwheel/lv_colorwheel.c **** 
ARM GAS  C:\Users\haske\AppData\Local\Temp\ccIkbvey.s 			page 4


 146:..\..\..\arduinoLCD\test\Pain Drain\libraries\lvgl\src\extra\widgets\colorwheel/lv_colorwheel.c **** /**
 147:..\..\..\arduinoLCD\test\Pain Drain\libraries\lvgl\src\extra\widgets\colorwheel/lv_colorwheel.c ****  * Set if the color mode is changed on long press on center
 148:..\..\..\arduinoLCD\test\Pain Drain\libraries\lvgl\src\extra\widgets\colorwheel/lv_colorwheel.c ****  * @param colorwheel pointer to color wheel object
 149:..\..\..\arduinoLCD\test\Pain Drain\libraries\lvgl\src\extra\widgets\colorwheel/lv_colorwheel.c ****  * @param fixed color mode cannot be changed on long press
 150:..\..\..\arduinoLCD\test\Pain Drain\libraries\lvgl\src\extra\widgets\colorwheel/lv_colorwheel.c ****  */
 151:..\..\..\arduinoLCD\test\Pain Drain\libraries\lvgl\src\extra\widgets\colorwheel/lv_colorwheel.c **** void lv_colorwheel_set_mode_fixed(lv_obj_t * obj, bool fixed)
 152:..\..\..\arduinoLCD\test\Pain Drain\libraries\lvgl\src\extra\widgets\colorwheel/lv_colorwheel.c **** {
 153:..\..\..\arduinoLCD\test\Pain Drain\libraries\lvgl\src\extra\widgets\colorwheel/lv_colorwheel.c ****     LV_ASSERT_OBJ(obj, MY_CLASS);
 154:..\..\..\arduinoLCD\test\Pain Drain\libraries\lvgl\src\extra\widgets\colorwheel/lv_colorwheel.c ****     lv_colorwheel_t * colorwheel = (lv_colorwheel_t *)obj;
 155:..\..\..\arduinoLCD\test\Pain Drain\libraries\lvgl\src\extra\widgets\colorwheel/lv_colorwheel.c **** 
 156:..\..\..\arduinoLCD\test\Pain Drain\libraries\lvgl\src\extra\widgets\colorwheel/lv_colorwheel.c ****     colorwheel->mode_fixed = fixed;
 157:..\..\..\arduinoLCD\test\Pain Drain\libraries\lvgl\src\extra\widgets\colorwheel/lv_colorwheel.c **** }
 158:..\..\..\arduinoLCD\test\Pain Drain\libraries\lvgl\src\extra\widgets\colorwheel/lv_colorwheel.c **** 
 159:..\..\..\arduinoLCD\test\Pain Drain\libraries\lvgl\src\extra\widgets\colorwheel/lv_colorwheel.c **** /*=====================
 160:..\..\..\arduinoLCD\test\Pain Drain\libraries\lvgl\src\extra\widgets\colorwheel/lv_colorwheel.c ****  * Getter functions
 161:..\..\..\arduinoLCD\test\Pain Drain\libraries\lvgl\src\extra\widgets\colorwheel/lv_colorwheel.c ****  *====================*/
 162:..\..\..\arduinoLCD\test\Pain Drain\libraries\lvgl\src\extra\widgets\colorwheel/lv_colorwheel.c **** 
 163:..\..\..\arduinoLCD\test\Pain Drain\libraries\lvgl\src\extra\widgets\colorwheel/lv_colorwheel.c **** 
 164:..\..\..\arduinoLCD\test\Pain Drain\libraries\lvgl\src\extra\widgets\colorwheel/lv_colorwheel.c **** /**
 165:..\..\..\arduinoLCD\test\Pain Drain\libraries\lvgl\src\extra\widgets\colorwheel/lv_colorwheel.c ****  * Get the current selected hsv of a color wheel.
 166:..\..\..\arduinoLCD\test\Pain Drain\libraries\lvgl\src\extra\widgets\colorwheel/lv_colorwheel.c ****  * @param colorwheel pointer to color wheel object
 167:..\..\..\arduinoLCD\test\Pain Drain\libraries\lvgl\src\extra\widgets\colorwheel/lv_colorwheel.c ****  * @return current selected hsv
 168:..\..\..\arduinoLCD\test\Pain Drain\libraries\lvgl\src\extra\widgets\colorwheel/lv_colorwheel.c ****  */
 169:..\..\..\arduinoLCD\test\Pain Drain\libraries\lvgl\src\extra\widgets\colorwheel/lv_colorwheel.c **** lv_color_hsv_t lv_colorwheel_get_hsv(lv_obj_t * obj)
 170:..\..\..\arduinoLCD\test\Pain Drain\libraries\lvgl\src\extra\widgets\colorwheel/lv_colorwheel.c **** {
 171:..\..\..\arduinoLCD\test\Pain Drain\libraries\lvgl\src\extra\widgets\colorwheel/lv_colorwheel.c ****     LV_ASSERT_OBJ(obj, MY_CLASS);
 172:..\..\..\arduinoLCD\test\Pain Drain\libraries\lvgl\src\extra\widgets\colorwheel/lv_colorwheel.c ****     lv_colorwheel_t * colorwheel = (lv_colorwheel_t *)obj;
 173:..\..\..\arduinoLCD\test\Pain Drain\libraries\lvgl\src\extra\widgets\colorwheel/lv_colorwheel.c **** 
 174:..\..\..\arduinoLCD\test\Pain Drain\libraries\lvgl\src\extra\widgets\colorwheel/lv_colorwheel.c ****     return colorwheel->hsv;
 175:..\..\..\arduinoLCD\test\Pain Drain\libraries\lvgl\src\extra\widgets\colorwheel/lv_colorwheel.c **** }
 176:..\..\..\arduinoLCD\test\Pain Drain\libraries\lvgl\src\extra\widgets\colorwheel/lv_colorwheel.c **** 
 177:..\..\..\arduinoLCD\test\Pain Drain\libraries\lvgl\src\extra\widgets\colorwheel/lv_colorwheel.c **** /**
 178:..\..\..\arduinoLCD\test\Pain Drain\libraries\lvgl\src\extra\widgets\colorwheel/lv_colorwheel.c ****  * Get the current selected color of a color wheel.
 179:..\..\..\arduinoLCD\test\Pain Drain\libraries\lvgl\src\extra\widgets\colorwheel/lv_colorwheel.c ****  * @param colorwheel pointer to color wheel object
 180:..\..\..\arduinoLCD\test\Pain Drain\libraries\lvgl\src\extra\widgets\colorwheel/lv_colorwheel.c ****  * @return color current selected color
 181:..\..\..\arduinoLCD\test\Pain Drain\libraries\lvgl\src\extra\widgets\colorwheel/lv_colorwheel.c ****  */
 182:..\..\..\arduinoLCD\test\Pain Drain\libraries\lvgl\src\extra\widgets\colorwheel/lv_colorwheel.c **** lv_color_t lv_colorwheel_get_rgb(lv_obj_t * obj)
 183:..\..\..\arduinoLCD\test\Pain Drain\libraries\lvgl\src\extra\widgets\colorwheel/lv_colorwheel.c **** {
 184:..\..\..\arduinoLCD\test\Pain Drain\libraries\lvgl\src\extra\widgets\colorwheel/lv_colorwheel.c ****     LV_ASSERT_OBJ(obj, MY_CLASS);
 185:..\..\..\arduinoLCD\test\Pain Drain\libraries\lvgl\src\extra\widgets\colorwheel/lv_colorwheel.c ****     lv_colorwheel_t * colorwheel = (lv_colorwheel_t *)obj;
 186:..\..\..\arduinoLCD\test\Pain Drain\libraries\lvgl\src\extra\widgets\colorwheel/lv_colorwheel.c **** 
 187:..\..\..\arduinoLCD\test\Pain Drain\libraries\lvgl\src\extra\widgets\colorwheel/lv_colorwheel.c ****     return lv_color_hsv_to_rgb(colorwheel->hsv.h, colorwheel->hsv.s, colorwheel->hsv.v);
 188:..\..\..\arduinoLCD\test\Pain Drain\libraries\lvgl\src\extra\widgets\colorwheel/lv_colorwheel.c **** }
 189:..\..\..\arduinoLCD\test\Pain Drain\libraries\lvgl\src\extra\widgets\colorwheel/lv_colorwheel.c **** 
 190:..\..\..\arduinoLCD\test\Pain Drain\libraries\lvgl\src\extra\widgets\colorwheel/lv_colorwheel.c **** /**
 191:..\..\..\arduinoLCD\test\Pain Drain\libraries\lvgl\src\extra\widgets\colorwheel/lv_colorwheel.c ****  * Get the current color mode.
 192:..\..\..\arduinoLCD\test\Pain Drain\libraries\lvgl\src\extra\widgets\colorwheel/lv_colorwheel.c ****  * @param colorwheel pointer to color wheel object
 193:..\..\..\arduinoLCD\test\Pain Drain\libraries\lvgl\src\extra\widgets\colorwheel/lv_colorwheel.c ****  * @return color mode (hue/sat/val)
 194:..\..\..\arduinoLCD\test\Pain Drain\libraries\lvgl\src\extra\widgets\colorwheel/lv_colorwheel.c ****  */
 195:..\..\..\arduinoLCD\test\Pain Drain\libraries\lvgl\src\extra\widgets\colorwheel/lv_colorwheel.c **** lv_colorwheel_mode_t lv_colorwheel_get_color_mode(lv_obj_t * obj)
 196:..\..\..\arduinoLCD\test\Pain Drain\libraries\lvgl\src\extra\widgets\colorwheel/lv_colorwheel.c **** {
 197:..\..\..\arduinoLCD\test\Pain Drain\libraries\lvgl\src\extra\widgets\colorwheel/lv_colorwheel.c ****     LV_ASSERT_OBJ(obj, MY_CLASS);
 198:..\..\..\arduinoLCD\test\Pain Drain\libraries\lvgl\src\extra\widgets\colorwheel/lv_colorwheel.c ****     lv_colorwheel_t * colorwheel = (lv_colorwheel_t *)obj;
 199:..\..\..\arduinoLCD\test\Pain Drain\libraries\lvgl\src\extra\widgets\colorwheel/lv_colorwheel.c **** 
 200:..\..\..\arduinoLCD\test\Pain Drain\libraries\lvgl\src\extra\widgets\colorwheel/lv_colorwheel.c ****     return colorwheel->mode;
 201:..\..\..\arduinoLCD\test\Pain Drain\libraries\lvgl\src\extra\widgets\colorwheel/lv_colorwheel.c **** }
 202:..\..\..\arduinoLCD\test\Pain Drain\libraries\lvgl\src\extra\widgets\colorwheel/lv_colorwheel.c **** 
ARM GAS  C:\Users\haske\AppData\Local\Temp\ccIkbvey.s 			page 5


 203:..\..\..\arduinoLCD\test\Pain Drain\libraries\lvgl\src\extra\widgets\colorwheel/lv_colorwheel.c **** /**
 204:..\..\..\arduinoLCD\test\Pain Drain\libraries\lvgl\src\extra\widgets\colorwheel/lv_colorwheel.c ****  * Get if the color mode is changed on long press on center
 205:..\..\..\arduinoLCD\test\Pain Drain\libraries\lvgl\src\extra\widgets\colorwheel/lv_colorwheel.c ****  * @param colorwheel pointer to color wheel object
 206:..\..\..\arduinoLCD\test\Pain Drain\libraries\lvgl\src\extra\widgets\colorwheel/lv_colorwheel.c ****  * @return mode cannot be changed on long press
 207:..\..\..\arduinoLCD\test\Pain Drain\libraries\lvgl\src\extra\widgets\colorwheel/lv_colorwheel.c ****  */
 208:..\..\..\arduinoLCD\test\Pain Drain\libraries\lvgl\src\extra\widgets\colorwheel/lv_colorwheel.c **** bool lv_colorwheel_get_color_mode_fixed(lv_obj_t * obj)
 209:..\..\..\arduinoLCD\test\Pain Drain\libraries\lvgl\src\extra\widgets\colorwheel/lv_colorwheel.c **** {
 210:..\..\..\arduinoLCD\test\Pain Drain\libraries\lvgl\src\extra\widgets\colorwheel/lv_colorwheel.c ****     LV_ASSERT_OBJ(obj, MY_CLASS);
 211:..\..\..\arduinoLCD\test\Pain Drain\libraries\lvgl\src\extra\widgets\colorwheel/lv_colorwheel.c ****     lv_colorwheel_t * colorwheel = (lv_colorwheel_t *)obj;
 212:..\..\..\arduinoLCD\test\Pain Drain\libraries\lvgl\src\extra\widgets\colorwheel/lv_colorwheel.c **** 
 213:..\..\..\arduinoLCD\test\Pain Drain\libraries\lvgl\src\extra\widgets\colorwheel/lv_colorwheel.c ****     return colorwheel->mode_fixed;
 214:..\..\..\arduinoLCD\test\Pain Drain\libraries\lvgl\src\extra\widgets\colorwheel/lv_colorwheel.c **** }
 215:..\..\..\arduinoLCD\test\Pain Drain\libraries\lvgl\src\extra\widgets\colorwheel/lv_colorwheel.c **** 
 216:..\..\..\arduinoLCD\test\Pain Drain\libraries\lvgl\src\extra\widgets\colorwheel/lv_colorwheel.c **** /*=====================
 217:..\..\..\arduinoLCD\test\Pain Drain\libraries\lvgl\src\extra\widgets\colorwheel/lv_colorwheel.c ****  * Other functions
 218:..\..\..\arduinoLCD\test\Pain Drain\libraries\lvgl\src\extra\widgets\colorwheel/lv_colorwheel.c ****  *====================*/
 219:..\..\..\arduinoLCD\test\Pain Drain\libraries\lvgl\src\extra\widgets\colorwheel/lv_colorwheel.c **** 
 220:..\..\..\arduinoLCD\test\Pain Drain\libraries\lvgl\src\extra\widgets\colorwheel/lv_colorwheel.c **** /**********************
 221:..\..\..\arduinoLCD\test\Pain Drain\libraries\lvgl\src\extra\widgets\colorwheel/lv_colorwheel.c ****  *   STATIC FUNCTIONS
 222:..\..\..\arduinoLCD\test\Pain Drain\libraries\lvgl\src\extra\widgets\colorwheel/lv_colorwheel.c ****  **********************/
 223:..\..\..\arduinoLCD\test\Pain Drain\libraries\lvgl\src\extra\widgets\colorwheel/lv_colorwheel.c **** 
 224:..\..\..\arduinoLCD\test\Pain Drain\libraries\lvgl\src\extra\widgets\colorwheel/lv_colorwheel.c **** static void lv_colorwheel_constructor(const lv_obj_class_t * class_p, lv_obj_t * obj)
 225:..\..\..\arduinoLCD\test\Pain Drain\libraries\lvgl\src\extra\widgets\colorwheel/lv_colorwheel.c **** {
 226:..\..\..\arduinoLCD\test\Pain Drain\libraries\lvgl\src\extra\widgets\colorwheel/lv_colorwheel.c ****     LV_UNUSED(class_p);
 227:..\..\..\arduinoLCD\test\Pain Drain\libraries\lvgl\src\extra\widgets\colorwheel/lv_colorwheel.c ****     lv_colorwheel_t * colorwheel = (lv_colorwheel_t *)obj;
 228:..\..\..\arduinoLCD\test\Pain Drain\libraries\lvgl\src\extra\widgets\colorwheel/lv_colorwheel.c ****     colorwheel->hsv.h = 0;
 229:..\..\..\arduinoLCD\test\Pain Drain\libraries\lvgl\src\extra\widgets\colorwheel/lv_colorwheel.c ****     colorwheel->hsv.s = 100;
 230:..\..\..\arduinoLCD\test\Pain Drain\libraries\lvgl\src\extra\widgets\colorwheel/lv_colorwheel.c ****     colorwheel->hsv.v = 100;
 231:..\..\..\arduinoLCD\test\Pain Drain\libraries\lvgl\src\extra\widgets\colorwheel/lv_colorwheel.c ****     colorwheel->mode = LV_COLORWHEEL_MODE_HUE;
 232:..\..\..\arduinoLCD\test\Pain Drain\libraries\lvgl\src\extra\widgets\colorwheel/lv_colorwheel.c ****     colorwheel->mode_fixed = 0;
 233:..\..\..\arduinoLCD\test\Pain Drain\libraries\lvgl\src\extra\widgets\colorwheel/lv_colorwheel.c ****     colorwheel->last_click_time = 0;
 234:..\..\..\arduinoLCD\test\Pain Drain\libraries\lvgl\src\extra\widgets\colorwheel/lv_colorwheel.c ****     colorwheel->last_change_time = 0;
 235:..\..\..\arduinoLCD\test\Pain Drain\libraries\lvgl\src\extra\widgets\colorwheel/lv_colorwheel.c ****     colorwheel->knob.recolor = create_knob_recolor;
 236:..\..\..\arduinoLCD\test\Pain Drain\libraries\lvgl\src\extra\widgets\colorwheel/lv_colorwheel.c **** 
 237:..\..\..\arduinoLCD\test\Pain Drain\libraries\lvgl\src\extra\widgets\colorwheel/lv_colorwheel.c ****     lv_obj_add_flag(obj, LV_OBJ_FLAG_ADV_HITTEST);
 238:..\..\..\arduinoLCD\test\Pain Drain\libraries\lvgl\src\extra\widgets\colorwheel/lv_colorwheel.c ****     lv_obj_clear_flag(obj, LV_OBJ_FLAG_SCROLL_CHAIN);
 239:..\..\..\arduinoLCD\test\Pain Drain\libraries\lvgl\src\extra\widgets\colorwheel/lv_colorwheel.c ****     refr_knob_pos(obj);
 240:..\..\..\arduinoLCD\test\Pain Drain\libraries\lvgl\src\extra\widgets\colorwheel/lv_colorwheel.c **** }
 241:..\..\..\arduinoLCD\test\Pain Drain\libraries\lvgl\src\extra\widgets\colorwheel/lv_colorwheel.c **** 
 242:..\..\..\arduinoLCD\test\Pain Drain\libraries\lvgl\src\extra\widgets\colorwheel/lv_colorwheel.c **** static void draw_disc_grad(lv_event_t * e)
 243:..\..\..\arduinoLCD\test\Pain Drain\libraries\lvgl\src\extra\widgets\colorwheel/lv_colorwheel.c **** {
 244:..\..\..\arduinoLCD\test\Pain Drain\libraries\lvgl\src\extra\widgets\colorwheel/lv_colorwheel.c ****     lv_obj_t * obj = lv_event_get_target(e);
 245:..\..\..\arduinoLCD\test\Pain Drain\libraries\lvgl\src\extra\widgets\colorwheel/lv_colorwheel.c ****     lv_draw_ctx_t * draw_ctx = lv_event_get_draw_ctx(e);
 246:..\..\..\arduinoLCD\test\Pain Drain\libraries\lvgl\src\extra\widgets\colorwheel/lv_colorwheel.c ****     lv_coord_t w = lv_obj_get_width(obj);
 247:..\..\..\arduinoLCD\test\Pain Drain\libraries\lvgl\src\extra\widgets\colorwheel/lv_colorwheel.c ****     lv_coord_t h = lv_obj_get_height(obj);
 248:..\..\..\arduinoLCD\test\Pain Drain\libraries\lvgl\src\extra\widgets\colorwheel/lv_colorwheel.c ****     lv_coord_t cx = obj->coords.x1 + w / 2;
 249:..\..\..\arduinoLCD\test\Pain Drain\libraries\lvgl\src\extra\widgets\colorwheel/lv_colorwheel.c ****     lv_coord_t cy = obj->coords.y1 + h / 2;
 250:..\..\..\arduinoLCD\test\Pain Drain\libraries\lvgl\src\extra\widgets\colorwheel/lv_colorwheel.c ****     lv_coord_t r = w / 2;
 251:..\..\..\arduinoLCD\test\Pain Drain\libraries\lvgl\src\extra\widgets\colorwheel/lv_colorwheel.c **** 
 252:..\..\..\arduinoLCD\test\Pain Drain\libraries\lvgl\src\extra\widgets\colorwheel/lv_colorwheel.c ****     lv_draw_line_dsc_t line_dsc;
 253:..\..\..\arduinoLCD\test\Pain Drain\libraries\lvgl\src\extra\widgets\colorwheel/lv_colorwheel.c ****     lv_draw_line_dsc_init(&line_dsc);
 254:..\..\..\arduinoLCD\test\Pain Drain\libraries\lvgl\src\extra\widgets\colorwheel/lv_colorwheel.c ****     lv_obj_init_draw_line_dsc(obj, LV_PART_MAIN, &line_dsc);
 255:..\..\..\arduinoLCD\test\Pain Drain\libraries\lvgl\src\extra\widgets\colorwheel/lv_colorwheel.c **** 
 256:..\..\..\arduinoLCD\test\Pain Drain\libraries\lvgl\src\extra\widgets\colorwheel/lv_colorwheel.c ****     line_dsc.width = (r * 628 / (256 / LV_CPICKER_DEF_QF)) / 100;
 257:..\..\..\arduinoLCD\test\Pain Drain\libraries\lvgl\src\extra\widgets\colorwheel/lv_colorwheel.c ****     line_dsc.width += 2;
 258:..\..\..\arduinoLCD\test\Pain Drain\libraries\lvgl\src\extra\widgets\colorwheel/lv_colorwheel.c ****     uint16_t i;
 259:..\..\..\arduinoLCD\test\Pain Drain\libraries\lvgl\src\extra\widgets\colorwheel/lv_colorwheel.c ****     uint32_t a = 0;
ARM GAS  C:\Users\haske\AppData\Local\Temp\ccIkbvey.s 			page 6


 260:..\..\..\arduinoLCD\test\Pain Drain\libraries\lvgl\src\extra\widgets\colorwheel/lv_colorwheel.c ****     lv_coord_t cir_w = lv_obj_get_style_arc_width(obj, LV_PART_MAIN);
 261:..\..\..\arduinoLCD\test\Pain Drain\libraries\lvgl\src\extra\widgets\colorwheel/lv_colorwheel.c **** 
 262:..\..\..\arduinoLCD\test\Pain Drain\libraries\lvgl\src\extra\widgets\colorwheel/lv_colorwheel.c **** #if LV_DRAW_COMPLEX
 263:..\..\..\arduinoLCD\test\Pain Drain\libraries\lvgl\src\extra\widgets\colorwheel/lv_colorwheel.c ****     /*Mask outer and inner ring of widget to tidy up ragged edges of lines while drawing outer ring
 264:..\..\..\arduinoLCD\test\Pain Drain\libraries\lvgl\src\extra\widgets\colorwheel/lv_colorwheel.c ****     lv_draw_mask_radius_param_t mask_out_param;
 265:..\..\..\arduinoLCD\test\Pain Drain\libraries\lvgl\src\extra\widgets\colorwheel/lv_colorwheel.c ****     lv_draw_mask_radius_init(&mask_out_param, &obj->coords, LV_RADIUS_CIRCLE, false);
 266:..\..\..\arduinoLCD\test\Pain Drain\libraries\lvgl\src\extra\widgets\colorwheel/lv_colorwheel.c ****     int16_t mask_out_id = lv_draw_mask_add(&mask_out_param, 0);
 267:..\..\..\arduinoLCD\test\Pain Drain\libraries\lvgl\src\extra\widgets\colorwheel/lv_colorwheel.c **** 
 268:..\..\..\arduinoLCD\test\Pain Drain\libraries\lvgl\src\extra\widgets\colorwheel/lv_colorwheel.c ****     lv_area_t mask_area;
 269:..\..\..\arduinoLCD\test\Pain Drain\libraries\lvgl\src\extra\widgets\colorwheel/lv_colorwheel.c ****     lv_area_copy(&mask_area, &obj->coords);
 270:..\..\..\arduinoLCD\test\Pain Drain\libraries\lvgl\src\extra\widgets\colorwheel/lv_colorwheel.c ****     mask_area.x1 += cir_w;
 271:..\..\..\arduinoLCD\test\Pain Drain\libraries\lvgl\src\extra\widgets\colorwheel/lv_colorwheel.c ****     mask_area.x2 -= cir_w;
 272:..\..\..\arduinoLCD\test\Pain Drain\libraries\lvgl\src\extra\widgets\colorwheel/lv_colorwheel.c ****     mask_area.y1 += cir_w;
 273:..\..\..\arduinoLCD\test\Pain Drain\libraries\lvgl\src\extra\widgets\colorwheel/lv_colorwheel.c ****     mask_area.y2 -= cir_w;
 274:..\..\..\arduinoLCD\test\Pain Drain\libraries\lvgl\src\extra\widgets\colorwheel/lv_colorwheel.c ****     lv_draw_mask_radius_param_t mask_in_param;
 275:..\..\..\arduinoLCD\test\Pain Drain\libraries\lvgl\src\extra\widgets\colorwheel/lv_colorwheel.c ****     lv_draw_mask_radius_init(&mask_in_param, &mask_area, LV_RADIUS_CIRCLE, true);
 276:..\..\..\arduinoLCD\test\Pain Drain\libraries\lvgl\src\extra\widgets\colorwheel/lv_colorwheel.c ****     int16_t mask_in_id = lv_draw_mask_add(&mask_in_param, 0);
 277:..\..\..\arduinoLCD\test\Pain Drain\libraries\lvgl\src\extra\widgets\colorwheel/lv_colorwheel.c **** 
 278:..\..\..\arduinoLCD\test\Pain Drain\libraries\lvgl\src\extra\widgets\colorwheel/lv_colorwheel.c ****     /*The inner and outer line ends will be masked out.
 279:..\..\..\arduinoLCD\test\Pain Drain\libraries\lvgl\src\extra\widgets\colorwheel/lv_colorwheel.c ****      *So make lines a little bit longer because the masking makes a more even result*/
 280:..\..\..\arduinoLCD\test\Pain Drain\libraries\lvgl\src\extra\widgets\colorwheel/lv_colorwheel.c ****     lv_coord_t cir_w_extra = line_dsc.width;
 281:..\..\..\arduinoLCD\test\Pain Drain\libraries\lvgl\src\extra\widgets\colorwheel/lv_colorwheel.c **** #else
 282:..\..\..\arduinoLCD\test\Pain Drain\libraries\lvgl\src\extra\widgets\colorwheel/lv_colorwheel.c ****     lv_coord_t cir_w_extra = 0;
 283:..\..\..\arduinoLCD\test\Pain Drain\libraries\lvgl\src\extra\widgets\colorwheel/lv_colorwheel.c **** #endif
 284:..\..\..\arduinoLCD\test\Pain Drain\libraries\lvgl\src\extra\widgets\colorwheel/lv_colorwheel.c **** 
 285:..\..\..\arduinoLCD\test\Pain Drain\libraries\lvgl\src\extra\widgets\colorwheel/lv_colorwheel.c ****     for(i = 0; i <= 256; i += LV_CPICKER_DEF_QF, a += 360 * LV_CPICKER_DEF_QF) {
 286:..\..\..\arduinoLCD\test\Pain Drain\libraries\lvgl\src\extra\widgets\colorwheel/lv_colorwheel.c ****         line_dsc.color = angle_to_mode_color_fast(obj, i);
 287:..\..\..\arduinoLCD\test\Pain Drain\libraries\lvgl\src\extra\widgets\colorwheel/lv_colorwheel.c ****         uint16_t angle_trigo = (uint16_t)(a >> 8); /*i * 360 / 256 is the scale to apply, but we ca
 288:..\..\..\arduinoLCD\test\Pain Drain\libraries\lvgl\src\extra\widgets\colorwheel/lv_colorwheel.c **** 
 289:..\..\..\arduinoLCD\test\Pain Drain\libraries\lvgl\src\extra\widgets\colorwheel/lv_colorwheel.c ****         lv_point_t p[2];
 290:..\..\..\arduinoLCD\test\Pain Drain\libraries\lvgl\src\extra\widgets\colorwheel/lv_colorwheel.c ****         p[0].x = cx + ((r + cir_w_extra) * lv_trigo_sin(angle_trigo) >> LV_TRIGO_SHIFT);
 291:..\..\..\arduinoLCD\test\Pain Drain\libraries\lvgl\src\extra\widgets\colorwheel/lv_colorwheel.c ****         p[0].y = cy + ((r + cir_w_extra) * lv_trigo_cos(angle_trigo) >> LV_TRIGO_SHIFT);
 292:..\..\..\arduinoLCD\test\Pain Drain\libraries\lvgl\src\extra\widgets\colorwheel/lv_colorwheel.c ****         p[1].x = cx + ((r - cir_w - cir_w_extra) * lv_trigo_sin(angle_trigo) >> LV_TRIGO_SHIFT);
 293:..\..\..\arduinoLCD\test\Pain Drain\libraries\lvgl\src\extra\widgets\colorwheel/lv_colorwheel.c ****         p[1].y = cy + ((r - cir_w - cir_w_extra) * lv_trigo_cos(angle_trigo) >> LV_TRIGO_SHIFT);
 294:..\..\..\arduinoLCD\test\Pain Drain\libraries\lvgl\src\extra\widgets\colorwheel/lv_colorwheel.c **** 
 295:..\..\..\arduinoLCD\test\Pain Drain\libraries\lvgl\src\extra\widgets\colorwheel/lv_colorwheel.c ****         lv_draw_line(draw_ctx, &line_dsc, &p[0], &p[1]);
 296:..\..\..\arduinoLCD\test\Pain Drain\libraries\lvgl\src\extra\widgets\colorwheel/lv_colorwheel.c ****     }
 297:..\..\..\arduinoLCD\test\Pain Drain\libraries\lvgl\src\extra\widgets\colorwheel/lv_colorwheel.c **** 
 298:..\..\..\arduinoLCD\test\Pain Drain\libraries\lvgl\src\extra\widgets\colorwheel/lv_colorwheel.c **** #if LV_DRAW_COMPLEX
 299:..\..\..\arduinoLCD\test\Pain Drain\libraries\lvgl\src\extra\widgets\colorwheel/lv_colorwheel.c ****     lv_draw_mask_free_param(&mask_out_param);
 300:..\..\..\arduinoLCD\test\Pain Drain\libraries\lvgl\src\extra\widgets\colorwheel/lv_colorwheel.c ****     lv_draw_mask_free_param(&mask_in_param);
 301:..\..\..\arduinoLCD\test\Pain Drain\libraries\lvgl\src\extra\widgets\colorwheel/lv_colorwheel.c ****     lv_draw_mask_remove_id(mask_out_id);
 302:..\..\..\arduinoLCD\test\Pain Drain\libraries\lvgl\src\extra\widgets\colorwheel/lv_colorwheel.c ****     lv_draw_mask_remove_id(mask_in_id);
 303:..\..\..\arduinoLCD\test\Pain Drain\libraries\lvgl\src\extra\widgets\colorwheel/lv_colorwheel.c **** #endif
 304:..\..\..\arduinoLCD\test\Pain Drain\libraries\lvgl\src\extra\widgets\colorwheel/lv_colorwheel.c **** }
 305:..\..\..\arduinoLCD\test\Pain Drain\libraries\lvgl\src\extra\widgets\colorwheel/lv_colorwheel.c **** 
 306:..\..\..\arduinoLCD\test\Pain Drain\libraries\lvgl\src\extra\widgets\colorwheel/lv_colorwheel.c **** static void draw_knob(lv_event_t * e)
 307:..\..\..\arduinoLCD\test\Pain Drain\libraries\lvgl\src\extra\widgets\colorwheel/lv_colorwheel.c **** {
 308:..\..\..\arduinoLCD\test\Pain Drain\libraries\lvgl\src\extra\widgets\colorwheel/lv_colorwheel.c ****     lv_obj_t * obj = lv_event_get_target(e);
 309:..\..\..\arduinoLCD\test\Pain Drain\libraries\lvgl\src\extra\widgets\colorwheel/lv_colorwheel.c ****     lv_draw_ctx_t * draw_ctx = lv_event_get_draw_ctx(e);
 310:..\..\..\arduinoLCD\test\Pain Drain\libraries\lvgl\src\extra\widgets\colorwheel/lv_colorwheel.c ****     lv_colorwheel_t * colorwheel = (lv_colorwheel_t *)obj;
 311:..\..\..\arduinoLCD\test\Pain Drain\libraries\lvgl\src\extra\widgets\colorwheel/lv_colorwheel.c **** 
 312:..\..\..\arduinoLCD\test\Pain Drain\libraries\lvgl\src\extra\widgets\colorwheel/lv_colorwheel.c ****     lv_draw_rect_dsc_t cir_dsc;
 313:..\..\..\arduinoLCD\test\Pain Drain\libraries\lvgl\src\extra\widgets\colorwheel/lv_colorwheel.c ****     lv_draw_rect_dsc_init(&cir_dsc);
 314:..\..\..\arduinoLCD\test\Pain Drain\libraries\lvgl\src\extra\widgets\colorwheel/lv_colorwheel.c ****     lv_obj_init_draw_rect_dsc(obj, LV_PART_KNOB, &cir_dsc);
 315:..\..\..\arduinoLCD\test\Pain Drain\libraries\lvgl\src\extra\widgets\colorwheel/lv_colorwheel.c **** 
 316:..\..\..\arduinoLCD\test\Pain Drain\libraries\lvgl\src\extra\widgets\colorwheel/lv_colorwheel.c ****     cir_dsc.radius = LV_RADIUS_CIRCLE;
ARM GAS  C:\Users\haske\AppData\Local\Temp\ccIkbvey.s 			page 7


 317:..\..\..\arduinoLCD\test\Pain Drain\libraries\lvgl\src\extra\widgets\colorwheel/lv_colorwheel.c **** 
 318:..\..\..\arduinoLCD\test\Pain Drain\libraries\lvgl\src\extra\widgets\colorwheel/lv_colorwheel.c ****     if(colorwheel->knob.recolor) {
 319:..\..\..\arduinoLCD\test\Pain Drain\libraries\lvgl\src\extra\widgets\colorwheel/lv_colorwheel.c ****         cir_dsc.bg_color = lv_colorwheel_get_rgb(obj);
 320:..\..\..\arduinoLCD\test\Pain Drain\libraries\lvgl\src\extra\widgets\colorwheel/lv_colorwheel.c ****     }
 321:..\..\..\arduinoLCD\test\Pain Drain\libraries\lvgl\src\extra\widgets\colorwheel/lv_colorwheel.c **** 
 322:..\..\..\arduinoLCD\test\Pain Drain\libraries\lvgl\src\extra\widgets\colorwheel/lv_colorwheel.c ****     lv_area_t knob_area = get_knob_area(obj);
 323:..\..\..\arduinoLCD\test\Pain Drain\libraries\lvgl\src\extra\widgets\colorwheel/lv_colorwheel.c **** 
 324:..\..\..\arduinoLCD\test\Pain Drain\libraries\lvgl\src\extra\widgets\colorwheel/lv_colorwheel.c ****     lv_draw_rect(draw_ctx, &cir_dsc, &knob_area);
 325:..\..\..\arduinoLCD\test\Pain Drain\libraries\lvgl\src\extra\widgets\colorwheel/lv_colorwheel.c **** }
 326:..\..\..\arduinoLCD\test\Pain Drain\libraries\lvgl\src\extra\widgets\colorwheel/lv_colorwheel.c **** 
 327:..\..\..\arduinoLCD\test\Pain Drain\libraries\lvgl\src\extra\widgets\colorwheel/lv_colorwheel.c **** static void invalidate_knob(lv_obj_t * obj)
 328:..\..\..\arduinoLCD\test\Pain Drain\libraries\lvgl\src\extra\widgets\colorwheel/lv_colorwheel.c **** {
 329:..\..\..\arduinoLCD\test\Pain Drain\libraries\lvgl\src\extra\widgets\colorwheel/lv_colorwheel.c ****     lv_area_t knob_area = get_knob_area(obj);
 330:..\..\..\arduinoLCD\test\Pain Drain\libraries\lvgl\src\extra\widgets\colorwheel/lv_colorwheel.c **** 
 331:..\..\..\arduinoLCD\test\Pain Drain\libraries\lvgl\src\extra\widgets\colorwheel/lv_colorwheel.c ****     lv_obj_invalidate_area(obj, &knob_area);
 332:..\..\..\arduinoLCD\test\Pain Drain\libraries\lvgl\src\extra\widgets\colorwheel/lv_colorwheel.c **** }
 333:..\..\..\arduinoLCD\test\Pain Drain\libraries\lvgl\src\extra\widgets\colorwheel/lv_colorwheel.c **** 
 334:..\..\..\arduinoLCD\test\Pain Drain\libraries\lvgl\src\extra\widgets\colorwheel/lv_colorwheel.c **** static lv_area_t get_knob_area(lv_obj_t * obj)
 335:..\..\..\arduinoLCD\test\Pain Drain\libraries\lvgl\src\extra\widgets\colorwheel/lv_colorwheel.c **** {
 336:..\..\..\arduinoLCD\test\Pain Drain\libraries\lvgl\src\extra\widgets\colorwheel/lv_colorwheel.c ****     lv_colorwheel_t * colorwheel = (lv_colorwheel_t *)obj;
 337:..\..\..\arduinoLCD\test\Pain Drain\libraries\lvgl\src\extra\widgets\colorwheel/lv_colorwheel.c **** 
 338:..\..\..\arduinoLCD\test\Pain Drain\libraries\lvgl\src\extra\widgets\colorwheel/lv_colorwheel.c ****     /*Get knob's radius*/
 339:..\..\..\arduinoLCD\test\Pain Drain\libraries\lvgl\src\extra\widgets\colorwheel/lv_colorwheel.c ****     uint16_t r = 0;
 340:..\..\..\arduinoLCD\test\Pain Drain\libraries\lvgl\src\extra\widgets\colorwheel/lv_colorwheel.c ****     r = lv_obj_get_style_arc_width(obj, LV_PART_MAIN) / 2;
 341:..\..\..\arduinoLCD\test\Pain Drain\libraries\lvgl\src\extra\widgets\colorwheel/lv_colorwheel.c **** 
 342:..\..\..\arduinoLCD\test\Pain Drain\libraries\lvgl\src\extra\widgets\colorwheel/lv_colorwheel.c ****     lv_coord_t left = lv_obj_get_style_pad_left(obj, LV_PART_KNOB);
 343:..\..\..\arduinoLCD\test\Pain Drain\libraries\lvgl\src\extra\widgets\colorwheel/lv_colorwheel.c ****     lv_coord_t right = lv_obj_get_style_pad_right(obj, LV_PART_KNOB);
 344:..\..\..\arduinoLCD\test\Pain Drain\libraries\lvgl\src\extra\widgets\colorwheel/lv_colorwheel.c ****     lv_coord_t top = lv_obj_get_style_pad_top(obj, LV_PART_KNOB);
 345:..\..\..\arduinoLCD\test\Pain Drain\libraries\lvgl\src\extra\widgets\colorwheel/lv_colorwheel.c ****     lv_coord_t bottom = lv_obj_get_style_pad_bottom(obj, LV_PART_KNOB);
 346:..\..\..\arduinoLCD\test\Pain Drain\libraries\lvgl\src\extra\widgets\colorwheel/lv_colorwheel.c **** 
 347:..\..\..\arduinoLCD\test\Pain Drain\libraries\lvgl\src\extra\widgets\colorwheel/lv_colorwheel.c ****     lv_area_t knob_area;
 348:..\..\..\arduinoLCD\test\Pain Drain\libraries\lvgl\src\extra\widgets\colorwheel/lv_colorwheel.c ****     knob_area.x1 = obj->coords.x1 + colorwheel->knob.pos.x - r - left;
 349:..\..\..\arduinoLCD\test\Pain Drain\libraries\lvgl\src\extra\widgets\colorwheel/lv_colorwheel.c ****     knob_area.y1 = obj->coords.y1 + colorwheel->knob.pos.y - r - right;
 350:..\..\..\arduinoLCD\test\Pain Drain\libraries\lvgl\src\extra\widgets\colorwheel/lv_colorwheel.c ****     knob_area.x2 = obj->coords.x1 + colorwheel->knob.pos.x + r + top;
 351:..\..\..\arduinoLCD\test\Pain Drain\libraries\lvgl\src\extra\widgets\colorwheel/lv_colorwheel.c ****     knob_area.y2 = obj->coords.y1 + colorwheel->knob.pos.y + r + bottom;
 352:..\..\..\arduinoLCD\test\Pain Drain\libraries\lvgl\src\extra\widgets\colorwheel/lv_colorwheel.c **** 
 353:..\..\..\arduinoLCD\test\Pain Drain\libraries\lvgl\src\extra\widgets\colorwheel/lv_colorwheel.c ****     return knob_area;
 354:..\..\..\arduinoLCD\test\Pain Drain\libraries\lvgl\src\extra\widgets\colorwheel/lv_colorwheel.c **** }
 355:..\..\..\arduinoLCD\test\Pain Drain\libraries\lvgl\src\extra\widgets\colorwheel/lv_colorwheel.c **** 
 356:..\..\..\arduinoLCD\test\Pain Drain\libraries\lvgl\src\extra\widgets\colorwheel/lv_colorwheel.c **** static void lv_colorwheel_event(const lv_obj_class_t * class_p, lv_event_t * e)
 357:..\..\..\arduinoLCD\test\Pain Drain\libraries\lvgl\src\extra\widgets\colorwheel/lv_colorwheel.c **** {
 358:..\..\..\arduinoLCD\test\Pain Drain\libraries\lvgl\src\extra\widgets\colorwheel/lv_colorwheel.c ****     LV_UNUSED(class_p);
 359:..\..\..\arduinoLCD\test\Pain Drain\libraries\lvgl\src\extra\widgets\colorwheel/lv_colorwheel.c **** 
 360:..\..\..\arduinoLCD\test\Pain Drain\libraries\lvgl\src\extra\widgets\colorwheel/lv_colorwheel.c ****     /*Call the ancestor's event handler*/
 361:..\..\..\arduinoLCD\test\Pain Drain\libraries\lvgl\src\extra\widgets\colorwheel/lv_colorwheel.c ****     lv_res_t res = lv_obj_event_base(MY_CLASS, e);
 362:..\..\..\arduinoLCD\test\Pain Drain\libraries\lvgl\src\extra\widgets\colorwheel/lv_colorwheel.c **** 
 363:..\..\..\arduinoLCD\test\Pain Drain\libraries\lvgl\src\extra\widgets\colorwheel/lv_colorwheel.c ****     if(res != LV_RES_OK) return;
 364:..\..\..\arduinoLCD\test\Pain Drain\libraries\lvgl\src\extra\widgets\colorwheel/lv_colorwheel.c **** 
 365:..\..\..\arduinoLCD\test\Pain Drain\libraries\lvgl\src\extra\widgets\colorwheel/lv_colorwheel.c ****     lv_event_code_t code = lv_event_get_code(e);
 366:..\..\..\arduinoLCD\test\Pain Drain\libraries\lvgl\src\extra\widgets\colorwheel/lv_colorwheel.c ****     lv_obj_t * obj = lv_event_get_target(e);
 367:..\..\..\arduinoLCD\test\Pain Drain\libraries\lvgl\src\extra\widgets\colorwheel/lv_colorwheel.c ****     lv_colorwheel_t * colorwheel = (lv_colorwheel_t *)obj;
 368:..\..\..\arduinoLCD\test\Pain Drain\libraries\lvgl\src\extra\widgets\colorwheel/lv_colorwheel.c **** 
 369:..\..\..\arduinoLCD\test\Pain Drain\libraries\lvgl\src\extra\widgets\colorwheel/lv_colorwheel.c ****     if(code == LV_EVENT_REFR_EXT_DRAW_SIZE) {
 370:..\..\..\arduinoLCD\test\Pain Drain\libraries\lvgl\src\extra\widgets\colorwheel/lv_colorwheel.c ****         lv_coord_t left = lv_obj_get_style_pad_left(obj, LV_PART_KNOB);
 371:..\..\..\arduinoLCD\test\Pain Drain\libraries\lvgl\src\extra\widgets\colorwheel/lv_colorwheel.c ****         lv_coord_t right = lv_obj_get_style_pad_right(obj, LV_PART_KNOB);
 372:..\..\..\arduinoLCD\test\Pain Drain\libraries\lvgl\src\extra\widgets\colorwheel/lv_colorwheel.c ****         lv_coord_t top = lv_obj_get_style_pad_top(obj, LV_PART_KNOB);
 373:..\..\..\arduinoLCD\test\Pain Drain\libraries\lvgl\src\extra\widgets\colorwheel/lv_colorwheel.c ****         lv_coord_t bottom = lv_obj_get_style_pad_bottom(obj, LV_PART_KNOB);
ARM GAS  C:\Users\haske\AppData\Local\Temp\ccIkbvey.s 			page 8


 374:..\..\..\arduinoLCD\test\Pain Drain\libraries\lvgl\src\extra\widgets\colorwheel/lv_colorwheel.c **** 
 375:..\..\..\arduinoLCD\test\Pain Drain\libraries\lvgl\src\extra\widgets\colorwheel/lv_colorwheel.c ****         lv_coord_t knob_pad = LV_MAX4(left, right, top, bottom) + 2;
 376:..\..\..\arduinoLCD\test\Pain Drain\libraries\lvgl\src\extra\widgets\colorwheel/lv_colorwheel.c ****         lv_coord_t * s = lv_event_get_param(e);
 377:..\..\..\arduinoLCD\test\Pain Drain\libraries\lvgl\src\extra\widgets\colorwheel/lv_colorwheel.c ****         *s = LV_MAX(*s, knob_pad);
 378:..\..\..\arduinoLCD\test\Pain Drain\libraries\lvgl\src\extra\widgets\colorwheel/lv_colorwheel.c ****     }
 379:..\..\..\arduinoLCD\test\Pain Drain\libraries\lvgl\src\extra\widgets\colorwheel/lv_colorwheel.c ****     else if(code == LV_EVENT_SIZE_CHANGED) {
 380:..\..\..\arduinoLCD\test\Pain Drain\libraries\lvgl\src\extra\widgets\colorwheel/lv_colorwheel.c ****         void * param = lv_event_get_param(e);
 381:..\..\..\arduinoLCD\test\Pain Drain\libraries\lvgl\src\extra\widgets\colorwheel/lv_colorwheel.c ****         /*Refresh extended draw area to make knob visible*/
 382:..\..\..\arduinoLCD\test\Pain Drain\libraries\lvgl\src\extra\widgets\colorwheel/lv_colorwheel.c ****         if(lv_obj_get_width(obj) != lv_area_get_width(param) ||
 383:..\..\..\arduinoLCD\test\Pain Drain\libraries\lvgl\src\extra\widgets\colorwheel/lv_colorwheel.c ****            lv_obj_get_height(obj) != lv_area_get_height(param)) {
 384:..\..\..\arduinoLCD\test\Pain Drain\libraries\lvgl\src\extra\widgets\colorwheel/lv_colorwheel.c ****             refr_knob_pos(obj);
 385:..\..\..\arduinoLCD\test\Pain Drain\libraries\lvgl\src\extra\widgets\colorwheel/lv_colorwheel.c ****         }
 386:..\..\..\arduinoLCD\test\Pain Drain\libraries\lvgl\src\extra\widgets\colorwheel/lv_colorwheel.c ****     }
 387:..\..\..\arduinoLCD\test\Pain Drain\libraries\lvgl\src\extra\widgets\colorwheel/lv_colorwheel.c ****     else if(code == LV_EVENT_STYLE_CHANGED) {
 388:..\..\..\arduinoLCD\test\Pain Drain\libraries\lvgl\src\extra\widgets\colorwheel/lv_colorwheel.c ****         /*Refresh extended draw area to make knob visible*/
 389:..\..\..\arduinoLCD\test\Pain Drain\libraries\lvgl\src\extra\widgets\colorwheel/lv_colorwheel.c ****         refr_knob_pos(obj);
 390:..\..\..\arduinoLCD\test\Pain Drain\libraries\lvgl\src\extra\widgets\colorwheel/lv_colorwheel.c ****     }
 391:..\..\..\arduinoLCD\test\Pain Drain\libraries\lvgl\src\extra\widgets\colorwheel/lv_colorwheel.c ****     else if(code == LV_EVENT_KEY) {
 392:..\..\..\arduinoLCD\test\Pain Drain\libraries\lvgl\src\extra\widgets\colorwheel/lv_colorwheel.c ****         uint32_t c = *((uint32_t *)lv_event_get_param(e)); /*uint32_t because can be UTF-8*/
 393:..\..\..\arduinoLCD\test\Pain Drain\libraries\lvgl\src\extra\widgets\colorwheel/lv_colorwheel.c **** 
 394:..\..\..\arduinoLCD\test\Pain Drain\libraries\lvgl\src\extra\widgets\colorwheel/lv_colorwheel.c ****         if(c == LV_KEY_RIGHT || c == LV_KEY_UP) {
 395:..\..\..\arduinoLCD\test\Pain Drain\libraries\lvgl\src\extra\widgets\colorwheel/lv_colorwheel.c ****             lv_color_hsv_t hsv_cur;
 396:..\..\..\arduinoLCD\test\Pain Drain\libraries\lvgl\src\extra\widgets\colorwheel/lv_colorwheel.c ****             hsv_cur = colorwheel->hsv;
 397:..\..\..\arduinoLCD\test\Pain Drain\libraries\lvgl\src\extra\widgets\colorwheel/lv_colorwheel.c **** 
 398:..\..\..\arduinoLCD\test\Pain Drain\libraries\lvgl\src\extra\widgets\colorwheel/lv_colorwheel.c ****             switch(colorwheel->mode) {
 399:..\..\..\arduinoLCD\test\Pain Drain\libraries\lvgl\src\extra\widgets\colorwheel/lv_colorwheel.c ****                 case LV_COLORWHEEL_MODE_HUE:
 400:..\..\..\arduinoLCD\test\Pain Drain\libraries\lvgl\src\extra\widgets\colorwheel/lv_colorwheel.c ****                     hsv_cur.h = (colorwheel->hsv.h + 1) % 360;
 401:..\..\..\arduinoLCD\test\Pain Drain\libraries\lvgl\src\extra\widgets\colorwheel/lv_colorwheel.c ****                     break;
 402:..\..\..\arduinoLCD\test\Pain Drain\libraries\lvgl\src\extra\widgets\colorwheel/lv_colorwheel.c ****                 case LV_COLORWHEEL_MODE_SATURATION:
 403:..\..\..\arduinoLCD\test\Pain Drain\libraries\lvgl\src\extra\widgets\colorwheel/lv_colorwheel.c ****                     hsv_cur.s = (colorwheel->hsv.s + 1) % 100;
 404:..\..\..\arduinoLCD\test\Pain Drain\libraries\lvgl\src\extra\widgets\colorwheel/lv_colorwheel.c ****                     break;
 405:..\..\..\arduinoLCD\test\Pain Drain\libraries\lvgl\src\extra\widgets\colorwheel/lv_colorwheel.c ****                 case LV_COLORWHEEL_MODE_VALUE:
 406:..\..\..\arduinoLCD\test\Pain Drain\libraries\lvgl\src\extra\widgets\colorwheel/lv_colorwheel.c ****                     hsv_cur.v = (colorwheel->hsv.v + 1) % 100;
 407:..\..\..\arduinoLCD\test\Pain Drain\libraries\lvgl\src\extra\widgets\colorwheel/lv_colorwheel.c ****                     break;
 408:..\..\..\arduinoLCD\test\Pain Drain\libraries\lvgl\src\extra\widgets\colorwheel/lv_colorwheel.c ****             }
 409:..\..\..\arduinoLCD\test\Pain Drain\libraries\lvgl\src\extra\widgets\colorwheel/lv_colorwheel.c **** 
 410:..\..\..\arduinoLCD\test\Pain Drain\libraries\lvgl\src\extra\widgets\colorwheel/lv_colorwheel.c ****             if(lv_colorwheel_set_hsv(obj, hsv_cur)) {
 411:..\..\..\arduinoLCD\test\Pain Drain\libraries\lvgl\src\extra\widgets\colorwheel/lv_colorwheel.c ****                 res = lv_event_send(obj, LV_EVENT_VALUE_CHANGED, NULL);
 412:..\..\..\arduinoLCD\test\Pain Drain\libraries\lvgl\src\extra\widgets\colorwheel/lv_colorwheel.c ****                 if(res != LV_RES_OK) return;
 413:..\..\..\arduinoLCD\test\Pain Drain\libraries\lvgl\src\extra\widgets\colorwheel/lv_colorwheel.c ****             }
 414:..\..\..\arduinoLCD\test\Pain Drain\libraries\lvgl\src\extra\widgets\colorwheel/lv_colorwheel.c ****         }
 415:..\..\..\arduinoLCD\test\Pain Drain\libraries\lvgl\src\extra\widgets\colorwheel/lv_colorwheel.c ****         else if(c == LV_KEY_LEFT || c == LV_KEY_DOWN) {
 416:..\..\..\arduinoLCD\test\Pain Drain\libraries\lvgl\src\extra\widgets\colorwheel/lv_colorwheel.c ****             lv_color_hsv_t hsv_cur;
 417:..\..\..\arduinoLCD\test\Pain Drain\libraries\lvgl\src\extra\widgets\colorwheel/lv_colorwheel.c ****             hsv_cur = colorwheel->hsv;
 418:..\..\..\arduinoLCD\test\Pain Drain\libraries\lvgl\src\extra\widgets\colorwheel/lv_colorwheel.c **** 
 419:..\..\..\arduinoLCD\test\Pain Drain\libraries\lvgl\src\extra\widgets\colorwheel/lv_colorwheel.c ****             switch(colorwheel->mode) {
 420:..\..\..\arduinoLCD\test\Pain Drain\libraries\lvgl\src\extra\widgets\colorwheel/lv_colorwheel.c ****                 case LV_COLORWHEEL_MODE_HUE:
 421:..\..\..\arduinoLCD\test\Pain Drain\libraries\lvgl\src\extra\widgets\colorwheel/lv_colorwheel.c ****                     hsv_cur.h = colorwheel->hsv.h > 0 ? (colorwheel->hsv.h - 1) : 360;
 422:..\..\..\arduinoLCD\test\Pain Drain\libraries\lvgl\src\extra\widgets\colorwheel/lv_colorwheel.c ****                     break;
 423:..\..\..\arduinoLCD\test\Pain Drain\libraries\lvgl\src\extra\widgets\colorwheel/lv_colorwheel.c ****                 case LV_COLORWHEEL_MODE_SATURATION:
 424:..\..\..\arduinoLCD\test\Pain Drain\libraries\lvgl\src\extra\widgets\colorwheel/lv_colorwheel.c ****                     hsv_cur.s = colorwheel->hsv.s > 0 ? (colorwheel->hsv.s - 1) : 100;
 425:..\..\..\arduinoLCD\test\Pain Drain\libraries\lvgl\src\extra\widgets\colorwheel/lv_colorwheel.c ****                     break;
 426:..\..\..\arduinoLCD\test\Pain Drain\libraries\lvgl\src\extra\widgets\colorwheel/lv_colorwheel.c ****                 case LV_COLORWHEEL_MODE_VALUE:
 427:..\..\..\arduinoLCD\test\Pain Drain\libraries\lvgl\src\extra\widgets\colorwheel/lv_colorwheel.c ****                     hsv_cur.v = colorwheel->hsv.v > 0 ? (colorwheel->hsv.v - 1) : 100;
 428:..\..\..\arduinoLCD\test\Pain Drain\libraries\lvgl\src\extra\widgets\colorwheel/lv_colorwheel.c ****                     break;
 429:..\..\..\arduinoLCD\test\Pain Drain\libraries\lvgl\src\extra\widgets\colorwheel/lv_colorwheel.c ****             }
 430:..\..\..\arduinoLCD\test\Pain Drain\libraries\lvgl\src\extra\widgets\colorwheel/lv_colorwheel.c **** 
ARM GAS  C:\Users\haske\AppData\Local\Temp\ccIkbvey.s 			page 9


 431:..\..\..\arduinoLCD\test\Pain Drain\libraries\lvgl\src\extra\widgets\colorwheel/lv_colorwheel.c ****             if(lv_colorwheel_set_hsv(obj, hsv_cur)) {
 432:..\..\..\arduinoLCD\test\Pain Drain\libraries\lvgl\src\extra\widgets\colorwheel/lv_colorwheel.c ****                 res = lv_event_send(obj, LV_EVENT_VALUE_CHANGED, NULL);
 433:..\..\..\arduinoLCD\test\Pain Drain\libraries\lvgl\src\extra\widgets\colorwheel/lv_colorwheel.c ****                 if(res != LV_RES_OK) return;
 434:..\..\..\arduinoLCD\test\Pain Drain\libraries\lvgl\src\extra\widgets\colorwheel/lv_colorwheel.c ****             }
 435:..\..\..\arduinoLCD\test\Pain Drain\libraries\lvgl\src\extra\widgets\colorwheel/lv_colorwheel.c ****         }
 436:..\..\..\arduinoLCD\test\Pain Drain\libraries\lvgl\src\extra\widgets\colorwheel/lv_colorwheel.c ****     }
 437:..\..\..\arduinoLCD\test\Pain Drain\libraries\lvgl\src\extra\widgets\colorwheel/lv_colorwheel.c ****     else if(code == LV_EVENT_PRESSED) {
 438:..\..\..\arduinoLCD\test\Pain Drain\libraries\lvgl\src\extra\widgets\colorwheel/lv_colorwheel.c ****         colorwheel->last_change_time = lv_tick_get();
 439:..\..\..\arduinoLCD\test\Pain Drain\libraries\lvgl\src\extra\widgets\colorwheel/lv_colorwheel.c ****         lv_indev_get_point(lv_indev_get_act(), &colorwheel->last_press_point);
 440:..\..\..\arduinoLCD\test\Pain Drain\libraries\lvgl\src\extra\widgets\colorwheel/lv_colorwheel.c ****         res = double_click_reset(obj);
 441:..\..\..\arduinoLCD\test\Pain Drain\libraries\lvgl\src\extra\widgets\colorwheel/lv_colorwheel.c ****         if(res != LV_RES_OK) return;
 442:..\..\..\arduinoLCD\test\Pain Drain\libraries\lvgl\src\extra\widgets\colorwheel/lv_colorwheel.c ****     }
 443:..\..\..\arduinoLCD\test\Pain Drain\libraries\lvgl\src\extra\widgets\colorwheel/lv_colorwheel.c ****     else if(code == LV_EVENT_PRESSING) {
 444:..\..\..\arduinoLCD\test\Pain Drain\libraries\lvgl\src\extra\widgets\colorwheel/lv_colorwheel.c ****         lv_indev_t * indev = lv_indev_get_act();
 445:..\..\..\arduinoLCD\test\Pain Drain\libraries\lvgl\src\extra\widgets\colorwheel/lv_colorwheel.c ****         if(indev == NULL) return;
 446:..\..\..\arduinoLCD\test\Pain Drain\libraries\lvgl\src\extra\widgets\colorwheel/lv_colorwheel.c **** 
 447:..\..\..\arduinoLCD\test\Pain Drain\libraries\lvgl\src\extra\widgets\colorwheel/lv_colorwheel.c ****         lv_indev_type_t indev_type = lv_indev_get_type(indev);
 448:..\..\..\arduinoLCD\test\Pain Drain\libraries\lvgl\src\extra\widgets\colorwheel/lv_colorwheel.c ****         lv_point_t p;
 449:..\..\..\arduinoLCD\test\Pain Drain\libraries\lvgl\src\extra\widgets\colorwheel/lv_colorwheel.c ****         if(indev_type == LV_INDEV_TYPE_ENCODER || indev_type == LV_INDEV_TYPE_KEYPAD) {
 450:..\..\..\arduinoLCD\test\Pain Drain\libraries\lvgl\src\extra\widgets\colorwheel/lv_colorwheel.c ****             p.x = obj->coords.x1 + lv_obj_get_width(obj) / 2;
 451:..\..\..\arduinoLCD\test\Pain Drain\libraries\lvgl\src\extra\widgets\colorwheel/lv_colorwheel.c ****             p.y = obj->coords.y1 + lv_obj_get_height(obj) / 2;
 452:..\..\..\arduinoLCD\test\Pain Drain\libraries\lvgl\src\extra\widgets\colorwheel/lv_colorwheel.c ****         }
 453:..\..\..\arduinoLCD\test\Pain Drain\libraries\lvgl\src\extra\widgets\colorwheel/lv_colorwheel.c ****         else {
 454:..\..\..\arduinoLCD\test\Pain Drain\libraries\lvgl\src\extra\widgets\colorwheel/lv_colorwheel.c ****             lv_indev_get_point(indev, &p);
 455:..\..\..\arduinoLCD\test\Pain Drain\libraries\lvgl\src\extra\widgets\colorwheel/lv_colorwheel.c ****         }
 456:..\..\..\arduinoLCD\test\Pain Drain\libraries\lvgl\src\extra\widgets\colorwheel/lv_colorwheel.c **** 
 457:..\..\..\arduinoLCD\test\Pain Drain\libraries\lvgl\src\extra\widgets\colorwheel/lv_colorwheel.c ****         lv_coord_t drag_limit = indev->driver->scroll_limit;
 458:..\..\..\arduinoLCD\test\Pain Drain\libraries\lvgl\src\extra\widgets\colorwheel/lv_colorwheel.c ****         if((LV_ABS(p.x - colorwheel->last_press_point.x) > drag_limit) ||
 459:..\..\..\arduinoLCD\test\Pain Drain\libraries\lvgl\src\extra\widgets\colorwheel/lv_colorwheel.c ****            (LV_ABS(p.y - colorwheel->last_press_point.y) > drag_limit)) {
 460:..\..\..\arduinoLCD\test\Pain Drain\libraries\lvgl\src\extra\widgets\colorwheel/lv_colorwheel.c ****             colorwheel->last_change_time = lv_tick_get();
 461:..\..\..\arduinoLCD\test\Pain Drain\libraries\lvgl\src\extra\widgets\colorwheel/lv_colorwheel.c ****             colorwheel->last_press_point.x = p.x;
 462:..\..\..\arduinoLCD\test\Pain Drain\libraries\lvgl\src\extra\widgets\colorwheel/lv_colorwheel.c ****             colorwheel->last_press_point.y = p.y;
 463:..\..\..\arduinoLCD\test\Pain Drain\libraries\lvgl\src\extra\widgets\colorwheel/lv_colorwheel.c ****         }
 464:..\..\..\arduinoLCD\test\Pain Drain\libraries\lvgl\src\extra\widgets\colorwheel/lv_colorwheel.c **** 
 465:..\..\..\arduinoLCD\test\Pain Drain\libraries\lvgl\src\extra\widgets\colorwheel/lv_colorwheel.c ****         p.x -= obj->coords.x1;
 466:..\..\..\arduinoLCD\test\Pain Drain\libraries\lvgl\src\extra\widgets\colorwheel/lv_colorwheel.c ****         p.y -= obj->coords.y1;
 467:..\..\..\arduinoLCD\test\Pain Drain\libraries\lvgl\src\extra\widgets\colorwheel/lv_colorwheel.c **** 
 468:..\..\..\arduinoLCD\test\Pain Drain\libraries\lvgl\src\extra\widgets\colorwheel/lv_colorwheel.c ****         /*Ignore pressing in the inner area*/
 469:..\..\..\arduinoLCD\test\Pain Drain\libraries\lvgl\src\extra\widgets\colorwheel/lv_colorwheel.c ****         uint16_t w = lv_obj_get_width(obj);
 470:..\..\..\arduinoLCD\test\Pain Drain\libraries\lvgl\src\extra\widgets\colorwheel/lv_colorwheel.c **** 
 471:..\..\..\arduinoLCD\test\Pain Drain\libraries\lvgl\src\extra\widgets\colorwheel/lv_colorwheel.c ****         int16_t angle = 0;
 472:..\..\..\arduinoLCD\test\Pain Drain\libraries\lvgl\src\extra\widgets\colorwheel/lv_colorwheel.c ****         lv_coord_t cir_w = lv_obj_get_style_arc_width(obj, LV_PART_MAIN);
 473:..\..\..\arduinoLCD\test\Pain Drain\libraries\lvgl\src\extra\widgets\colorwheel/lv_colorwheel.c **** 
 474:..\..\..\arduinoLCD\test\Pain Drain\libraries\lvgl\src\extra\widgets\colorwheel/lv_colorwheel.c ****         lv_coord_t r_in = w / 2;
 475:..\..\..\arduinoLCD\test\Pain Drain\libraries\lvgl\src\extra\widgets\colorwheel/lv_colorwheel.c ****         p.x -= r_in;
 476:..\..\..\arduinoLCD\test\Pain Drain\libraries\lvgl\src\extra\widgets\colorwheel/lv_colorwheel.c ****         p.y -= r_in;
 477:..\..\..\arduinoLCD\test\Pain Drain\libraries\lvgl\src\extra\widgets\colorwheel/lv_colorwheel.c ****         bool on_ring = true;
 478:..\..\..\arduinoLCD\test\Pain Drain\libraries\lvgl\src\extra\widgets\colorwheel/lv_colorwheel.c ****         r_in -= cir_w;
 479:..\..\..\arduinoLCD\test\Pain Drain\libraries\lvgl\src\extra\widgets\colorwheel/lv_colorwheel.c ****         if(r_in > LV_DPI_DEF / 2) {
 480:..\..\..\arduinoLCD\test\Pain Drain\libraries\lvgl\src\extra\widgets\colorwheel/lv_colorwheel.c ****             lv_coord_t inner = cir_w / 2;
 481:..\..\..\arduinoLCD\test\Pain Drain\libraries\lvgl\src\extra\widgets\colorwheel/lv_colorwheel.c ****             r_in -= inner;
 482:..\..\..\arduinoLCD\test\Pain Drain\libraries\lvgl\src\extra\widgets\colorwheel/lv_colorwheel.c **** 
 483:..\..\..\arduinoLCD\test\Pain Drain\libraries\lvgl\src\extra\widgets\colorwheel/lv_colorwheel.c ****             if(r_in < LV_DPI_DEF / 2) r_in = LV_DPI_DEF / 2;
 484:..\..\..\arduinoLCD\test\Pain Drain\libraries\lvgl\src\extra\widgets\colorwheel/lv_colorwheel.c ****         }
 485:..\..\..\arduinoLCD\test\Pain Drain\libraries\lvgl\src\extra\widgets\colorwheel/lv_colorwheel.c **** 
 486:..\..\..\arduinoLCD\test\Pain Drain\libraries\lvgl\src\extra\widgets\colorwheel/lv_colorwheel.c ****         if(p.x * p.x + p.y * p.y < r_in * r_in) {
 487:..\..\..\arduinoLCD\test\Pain Drain\libraries\lvgl\src\extra\widgets\colorwheel/lv_colorwheel.c ****             on_ring = false;
ARM GAS  C:\Users\haske\AppData\Local\Temp\ccIkbvey.s 			page 10


 488:..\..\..\arduinoLCD\test\Pain Drain\libraries\lvgl\src\extra\widgets\colorwheel/lv_colorwheel.c ****         }
 489:..\..\..\arduinoLCD\test\Pain Drain\libraries\lvgl\src\extra\widgets\colorwheel/lv_colorwheel.c **** 
 490:..\..\..\arduinoLCD\test\Pain Drain\libraries\lvgl\src\extra\widgets\colorwheel/lv_colorwheel.c ****         /*If the inner area is being pressed, go to the next color mode on long press*/
 491:..\..\..\arduinoLCD\test\Pain Drain\libraries\lvgl\src\extra\widgets\colorwheel/lv_colorwheel.c ****         uint32_t diff = lv_tick_elaps(colorwheel->last_change_time);
 492:..\..\..\arduinoLCD\test\Pain Drain\libraries\lvgl\src\extra\widgets\colorwheel/lv_colorwheel.c ****         if(!on_ring && diff > indev->driver->long_press_time && !colorwheel->mode_fixed) {
 493:..\..\..\arduinoLCD\test\Pain Drain\libraries\lvgl\src\extra\widgets\colorwheel/lv_colorwheel.c ****             next_color_mode(obj);
 494:..\..\..\arduinoLCD\test\Pain Drain\libraries\lvgl\src\extra\widgets\colorwheel/lv_colorwheel.c ****             lv_indev_wait_release(lv_indev_get_act());
 495:..\..\..\arduinoLCD\test\Pain Drain\libraries\lvgl\src\extra\widgets\colorwheel/lv_colorwheel.c ****             return;
 496:..\..\..\arduinoLCD\test\Pain Drain\libraries\lvgl\src\extra\widgets\colorwheel/lv_colorwheel.c ****         }
 497:..\..\..\arduinoLCD\test\Pain Drain\libraries\lvgl\src\extra\widgets\colorwheel/lv_colorwheel.c **** 
 498:..\..\..\arduinoLCD\test\Pain Drain\libraries\lvgl\src\extra\widgets\colorwheel/lv_colorwheel.c ****         /*Set the angle only if pressed on the ring*/
 499:..\..\..\arduinoLCD\test\Pain Drain\libraries\lvgl\src\extra\widgets\colorwheel/lv_colorwheel.c ****         if(!on_ring) return;
 500:..\..\..\arduinoLCD\test\Pain Drain\libraries\lvgl\src\extra\widgets\colorwheel/lv_colorwheel.c **** 
 501:..\..\..\arduinoLCD\test\Pain Drain\libraries\lvgl\src\extra\widgets\colorwheel/lv_colorwheel.c ****         angle = lv_atan2(p.x, p.y) % 360;
 502:..\..\..\arduinoLCD\test\Pain Drain\libraries\lvgl\src\extra\widgets\colorwheel/lv_colorwheel.c **** 
 503:..\..\..\arduinoLCD\test\Pain Drain\libraries\lvgl\src\extra\widgets\colorwheel/lv_colorwheel.c ****         lv_color_hsv_t hsv_cur;
 504:..\..\..\arduinoLCD\test\Pain Drain\libraries\lvgl\src\extra\widgets\colorwheel/lv_colorwheel.c ****         hsv_cur = colorwheel->hsv;
 505:..\..\..\arduinoLCD\test\Pain Drain\libraries\lvgl\src\extra\widgets\colorwheel/lv_colorwheel.c **** 
 506:..\..\..\arduinoLCD\test\Pain Drain\libraries\lvgl\src\extra\widgets\colorwheel/lv_colorwheel.c ****         switch(colorwheel->mode) {
 507:..\..\..\arduinoLCD\test\Pain Drain\libraries\lvgl\src\extra\widgets\colorwheel/lv_colorwheel.c ****             case LV_COLORWHEEL_MODE_HUE:
 508:..\..\..\arduinoLCD\test\Pain Drain\libraries\lvgl\src\extra\widgets\colorwheel/lv_colorwheel.c ****                 hsv_cur.h = angle;
 509:..\..\..\arduinoLCD\test\Pain Drain\libraries\lvgl\src\extra\widgets\colorwheel/lv_colorwheel.c ****                 break;
 510:..\..\..\arduinoLCD\test\Pain Drain\libraries\lvgl\src\extra\widgets\colorwheel/lv_colorwheel.c ****             case LV_COLORWHEEL_MODE_SATURATION:
 511:..\..\..\arduinoLCD\test\Pain Drain\libraries\lvgl\src\extra\widgets\colorwheel/lv_colorwheel.c ****                 hsv_cur.s = (angle * 100) / 360;
 512:..\..\..\arduinoLCD\test\Pain Drain\libraries\lvgl\src\extra\widgets\colorwheel/lv_colorwheel.c ****                 break;
 513:..\..\..\arduinoLCD\test\Pain Drain\libraries\lvgl\src\extra\widgets\colorwheel/lv_colorwheel.c ****             case LV_COLORWHEEL_MODE_VALUE:
 514:..\..\..\arduinoLCD\test\Pain Drain\libraries\lvgl\src\extra\widgets\colorwheel/lv_colorwheel.c ****                 hsv_cur.v = (angle * 100) / 360;
 515:..\..\..\arduinoLCD\test\Pain Drain\libraries\lvgl\src\extra\widgets\colorwheel/lv_colorwheel.c ****                 break;
 516:..\..\..\arduinoLCD\test\Pain Drain\libraries\lvgl\src\extra\widgets\colorwheel/lv_colorwheel.c ****         }
 517:..\..\..\arduinoLCD\test\Pain Drain\libraries\lvgl\src\extra\widgets\colorwheel/lv_colorwheel.c **** 
 518:..\..\..\arduinoLCD\test\Pain Drain\libraries\lvgl\src\extra\widgets\colorwheel/lv_colorwheel.c ****         if(lv_colorwheel_set_hsv(obj, hsv_cur)) {
 519:..\..\..\arduinoLCD\test\Pain Drain\libraries\lvgl\src\extra\widgets\colorwheel/lv_colorwheel.c ****             res = lv_event_send(obj, LV_EVENT_VALUE_CHANGED, NULL);
 520:..\..\..\arduinoLCD\test\Pain Drain\libraries\lvgl\src\extra\widgets\colorwheel/lv_colorwheel.c ****             if(res != LV_RES_OK) return;
 521:..\..\..\arduinoLCD\test\Pain Drain\libraries\lvgl\src\extra\widgets\colorwheel/lv_colorwheel.c ****         }
 522:..\..\..\arduinoLCD\test\Pain Drain\libraries\lvgl\src\extra\widgets\colorwheel/lv_colorwheel.c ****     }
 523:..\..\..\arduinoLCD\test\Pain Drain\libraries\lvgl\src\extra\widgets\colorwheel/lv_colorwheel.c ****     else if(code == LV_EVENT_HIT_TEST) {
 524:..\..\..\arduinoLCD\test\Pain Drain\libraries\lvgl\src\extra\widgets\colorwheel/lv_colorwheel.c ****         lv_hit_test_info_t * info = lv_event_get_param(e);;
 525:..\..\..\arduinoLCD\test\Pain Drain\libraries\lvgl\src\extra\widgets\colorwheel/lv_colorwheel.c **** 
 526:..\..\..\arduinoLCD\test\Pain Drain\libraries\lvgl\src\extra\widgets\colorwheel/lv_colorwheel.c ****         /*Valid clicks can be only in the circle*/
 527:..\..\..\arduinoLCD\test\Pain Drain\libraries\lvgl\src\extra\widgets\colorwheel/lv_colorwheel.c ****         info->res = _lv_area_is_point_on(&obj->coords, info->point, LV_RADIUS_CIRCLE);
 528:..\..\..\arduinoLCD\test\Pain Drain\libraries\lvgl\src\extra\widgets\colorwheel/lv_colorwheel.c ****     }
 529:..\..\..\arduinoLCD\test\Pain Drain\libraries\lvgl\src\extra\widgets\colorwheel/lv_colorwheel.c ****     else if(code == LV_EVENT_DRAW_MAIN) {
 530:..\..\..\arduinoLCD\test\Pain Drain\libraries\lvgl\src\extra\widgets\colorwheel/lv_colorwheel.c ****         draw_disc_grad(e);
 531:..\..\..\arduinoLCD\test\Pain Drain\libraries\lvgl\src\extra\widgets\colorwheel/lv_colorwheel.c ****         draw_knob(e);
 532:..\..\..\arduinoLCD\test\Pain Drain\libraries\lvgl\src\extra\widgets\colorwheel/lv_colorwheel.c ****     }
 533:..\..\..\arduinoLCD\test\Pain Drain\libraries\lvgl\src\extra\widgets\colorwheel/lv_colorwheel.c ****     else if(code == LV_EVENT_COVER_CHECK) {
 534:..\..\..\arduinoLCD\test\Pain Drain\libraries\lvgl\src\extra\widgets\colorwheel/lv_colorwheel.c ****         lv_cover_check_info_t * info = lv_event_get_param(e);
 535:..\..\..\arduinoLCD\test\Pain Drain\libraries\lvgl\src\extra\widgets\colorwheel/lv_colorwheel.c ****         if(info->res != LV_COVER_RES_MASKED) info->res = LV_COVER_RES_NOT_COVER;
 536:..\..\..\arduinoLCD\test\Pain Drain\libraries\lvgl\src\extra\widgets\colorwheel/lv_colorwheel.c ****     }
 537:..\..\..\arduinoLCD\test\Pain Drain\libraries\lvgl\src\extra\widgets\colorwheel/lv_colorwheel.c **** }
 538:..\..\..\arduinoLCD\test\Pain Drain\libraries\lvgl\src\extra\widgets\colorwheel/lv_colorwheel.c **** 
 539:..\..\..\arduinoLCD\test\Pain Drain\libraries\lvgl\src\extra\widgets\colorwheel/lv_colorwheel.c **** 
 540:..\..\..\arduinoLCD\test\Pain Drain\libraries\lvgl\src\extra\widgets\colorwheel/lv_colorwheel.c **** 
 541:..\..\..\arduinoLCD\test\Pain Drain\libraries\lvgl\src\extra\widgets\colorwheel/lv_colorwheel.c **** static void next_color_mode(lv_obj_t * obj)
 542:..\..\..\arduinoLCD\test\Pain Drain\libraries\lvgl\src\extra\widgets\colorwheel/lv_colorwheel.c **** {
 543:..\..\..\arduinoLCD\test\Pain Drain\libraries\lvgl\src\extra\widgets\colorwheel/lv_colorwheel.c ****     lv_colorwheel_t * colorwheel = (lv_colorwheel_t *)obj;
 544:..\..\..\arduinoLCD\test\Pain Drain\libraries\lvgl\src\extra\widgets\colorwheel/lv_colorwheel.c ****     colorwheel->mode = (colorwheel->mode + 1) % 3;
ARM GAS  C:\Users\haske\AppData\Local\Temp\ccIkbvey.s 			page 11


 545:..\..\..\arduinoLCD\test\Pain Drain\libraries\lvgl\src\extra\widgets\colorwheel/lv_colorwheel.c ****     refr_knob_pos(obj);
 546:..\..\..\arduinoLCD\test\Pain Drain\libraries\lvgl\src\extra\widgets\colorwheel/lv_colorwheel.c ****     lv_obj_invalidate(obj);
 547:..\..\..\arduinoLCD\test\Pain Drain\libraries\lvgl\src\extra\widgets\colorwheel/lv_colorwheel.c **** }
 548:..\..\..\arduinoLCD\test\Pain Drain\libraries\lvgl\src\extra\widgets\colorwheel/lv_colorwheel.c **** 
 549:..\..\..\arduinoLCD\test\Pain Drain\libraries\lvgl\src\extra\widgets\colorwheel/lv_colorwheel.c **** static void refr_knob_pos(lv_obj_t * obj)
 550:..\..\..\arduinoLCD\test\Pain Drain\libraries\lvgl\src\extra\widgets\colorwheel/lv_colorwheel.c **** {
 551:..\..\..\arduinoLCD\test\Pain Drain\libraries\lvgl\src\extra\widgets\colorwheel/lv_colorwheel.c ****     invalidate_knob(obj);
 552:..\..\..\arduinoLCD\test\Pain Drain\libraries\lvgl\src\extra\widgets\colorwheel/lv_colorwheel.c **** 
 553:..\..\..\arduinoLCD\test\Pain Drain\libraries\lvgl\src\extra\widgets\colorwheel/lv_colorwheel.c ****     lv_colorwheel_t * colorwheel = (lv_colorwheel_t *)obj;
 554:..\..\..\arduinoLCD\test\Pain Drain\libraries\lvgl\src\extra\widgets\colorwheel/lv_colorwheel.c ****     lv_coord_t w = lv_obj_get_width(obj);
 555:..\..\..\arduinoLCD\test\Pain Drain\libraries\lvgl\src\extra\widgets\colorwheel/lv_colorwheel.c **** 
 556:..\..\..\arduinoLCD\test\Pain Drain\libraries\lvgl\src\extra\widgets\colorwheel/lv_colorwheel.c ****     lv_coord_t scale_w = lv_obj_get_style_arc_width(obj, LV_PART_MAIN);
 557:..\..\..\arduinoLCD\test\Pain Drain\libraries\lvgl\src\extra\widgets\colorwheel/lv_colorwheel.c ****     lv_coord_t r = (w - scale_w) / 2;
 558:..\..\..\arduinoLCD\test\Pain Drain\libraries\lvgl\src\extra\widgets\colorwheel/lv_colorwheel.c ****     uint16_t angle = get_angle(obj);
 559:..\..\..\arduinoLCD\test\Pain Drain\libraries\lvgl\src\extra\widgets\colorwheel/lv_colorwheel.c ****     colorwheel->knob.pos.x = (((int32_t)r * lv_trigo_sin(angle)) >> LV_TRIGO_SHIFT);
 560:..\..\..\arduinoLCD\test\Pain Drain\libraries\lvgl\src\extra\widgets\colorwheel/lv_colorwheel.c ****     colorwheel->knob.pos.y = (((int32_t)r * lv_trigo_cos(angle)) >> LV_TRIGO_SHIFT);
 561:..\..\..\arduinoLCD\test\Pain Drain\libraries\lvgl\src\extra\widgets\colorwheel/lv_colorwheel.c ****     colorwheel->knob.pos.x = colorwheel->knob.pos.x + w / 2;
 562:..\..\..\arduinoLCD\test\Pain Drain\libraries\lvgl\src\extra\widgets\colorwheel/lv_colorwheel.c ****     colorwheel->knob.pos.y = colorwheel->knob.pos.y + w / 2;
 563:..\..\..\arduinoLCD\test\Pain Drain\libraries\lvgl\src\extra\widgets\colorwheel/lv_colorwheel.c **** 
 564:..\..\..\arduinoLCD\test\Pain Drain\libraries\lvgl\src\extra\widgets\colorwheel/lv_colorwheel.c ****     invalidate_knob(obj);
 565:..\..\..\arduinoLCD\test\Pain Drain\libraries\lvgl\src\extra\widgets\colorwheel/lv_colorwheel.c **** }
 566:..\..\..\arduinoLCD\test\Pain Drain\libraries\lvgl\src\extra\widgets\colorwheel/lv_colorwheel.c **** 
 567:..\..\..\arduinoLCD\test\Pain Drain\libraries\lvgl\src\extra\widgets\colorwheel/lv_colorwheel.c **** static lv_res_t double_click_reset(lv_obj_t * obj)
 568:..\..\..\arduinoLCD\test\Pain Drain\libraries\lvgl\src\extra\widgets\colorwheel/lv_colorwheel.c **** {
 569:..\..\..\arduinoLCD\test\Pain Drain\libraries\lvgl\src\extra\widgets\colorwheel/lv_colorwheel.c ****     lv_colorwheel_t * colorwheel = (lv_colorwheel_t *)obj;
 570:..\..\..\arduinoLCD\test\Pain Drain\libraries\lvgl\src\extra\widgets\colorwheel/lv_colorwheel.c ****     lv_indev_t * indev = lv_indev_get_act();
 571:..\..\..\arduinoLCD\test\Pain Drain\libraries\lvgl\src\extra\widgets\colorwheel/lv_colorwheel.c ****     /*Double clicked? Use long press time as double click time out*/
 572:..\..\..\arduinoLCD\test\Pain Drain\libraries\lvgl\src\extra\widgets\colorwheel/lv_colorwheel.c ****     if(lv_tick_elaps(colorwheel->last_click_time) < indev->driver->long_press_time) {
 573:..\..\..\arduinoLCD\test\Pain Drain\libraries\lvgl\src\extra\widgets\colorwheel/lv_colorwheel.c ****         lv_color_hsv_t hsv_cur;
 574:..\..\..\arduinoLCD\test\Pain Drain\libraries\lvgl\src\extra\widgets\colorwheel/lv_colorwheel.c ****         hsv_cur = colorwheel->hsv;
 575:..\..\..\arduinoLCD\test\Pain Drain\libraries\lvgl\src\extra\widgets\colorwheel/lv_colorwheel.c **** 
 576:..\..\..\arduinoLCD\test\Pain Drain\libraries\lvgl\src\extra\widgets\colorwheel/lv_colorwheel.c ****         switch(colorwheel->mode) {
 577:..\..\..\arduinoLCD\test\Pain Drain\libraries\lvgl\src\extra\widgets\colorwheel/lv_colorwheel.c ****             case LV_COLORWHEEL_MODE_HUE:
 578:..\..\..\arduinoLCD\test\Pain Drain\libraries\lvgl\src\extra\widgets\colorwheel/lv_colorwheel.c ****                 hsv_cur.h = 0;
 579:..\..\..\arduinoLCD\test\Pain Drain\libraries\lvgl\src\extra\widgets\colorwheel/lv_colorwheel.c ****                 break;
 580:..\..\..\arduinoLCD\test\Pain Drain\libraries\lvgl\src\extra\widgets\colorwheel/lv_colorwheel.c ****             case LV_COLORWHEEL_MODE_SATURATION:
 581:..\..\..\arduinoLCD\test\Pain Drain\libraries\lvgl\src\extra\widgets\colorwheel/lv_colorwheel.c ****                 hsv_cur.s = 100;
 582:..\..\..\arduinoLCD\test\Pain Drain\libraries\lvgl\src\extra\widgets\colorwheel/lv_colorwheel.c ****                 break;
 583:..\..\..\arduinoLCD\test\Pain Drain\libraries\lvgl\src\extra\widgets\colorwheel/lv_colorwheel.c ****             case LV_COLORWHEEL_MODE_VALUE:
 584:..\..\..\arduinoLCD\test\Pain Drain\libraries\lvgl\src\extra\widgets\colorwheel/lv_colorwheel.c ****                 hsv_cur.v = 100;
 585:..\..\..\arduinoLCD\test\Pain Drain\libraries\lvgl\src\extra\widgets\colorwheel/lv_colorwheel.c ****                 break;
 586:..\..\..\arduinoLCD\test\Pain Drain\libraries\lvgl\src\extra\widgets\colorwheel/lv_colorwheel.c ****         }
 587:..\..\..\arduinoLCD\test\Pain Drain\libraries\lvgl\src\extra\widgets\colorwheel/lv_colorwheel.c **** 
 588:..\..\..\arduinoLCD\test\Pain Drain\libraries\lvgl\src\extra\widgets\colorwheel/lv_colorwheel.c ****         lv_indev_wait_release(indev);
 589:..\..\..\arduinoLCD\test\Pain Drain\libraries\lvgl\src\extra\widgets\colorwheel/lv_colorwheel.c **** 
 590:..\..\..\arduinoLCD\test\Pain Drain\libraries\lvgl\src\extra\widgets\colorwheel/lv_colorwheel.c ****         if(lv_colorwheel_set_hsv(obj, hsv_cur)) {
 591:..\..\..\arduinoLCD\test\Pain Drain\libraries\lvgl\src\extra\widgets\colorwheel/lv_colorwheel.c ****             lv_res_t res = lv_event_send(obj, LV_EVENT_VALUE_CHANGED, NULL);
 592:..\..\..\arduinoLCD\test\Pain Drain\libraries\lvgl\src\extra\widgets\colorwheel/lv_colorwheel.c ****             if(res != LV_RES_OK) return res;
 593:..\..\..\arduinoLCD\test\Pain Drain\libraries\lvgl\src\extra\widgets\colorwheel/lv_colorwheel.c ****         }
 594:..\..\..\arduinoLCD\test\Pain Drain\libraries\lvgl\src\extra\widgets\colorwheel/lv_colorwheel.c ****     }
 595:..\..\..\arduinoLCD\test\Pain Drain\libraries\lvgl\src\extra\widgets\colorwheel/lv_colorwheel.c ****     colorwheel->last_click_time = lv_tick_get();
 596:..\..\..\arduinoLCD\test\Pain Drain\libraries\lvgl\src\extra\widgets\colorwheel/lv_colorwheel.c **** 
 597:..\..\..\arduinoLCD\test\Pain Drain\libraries\lvgl\src\extra\widgets\colorwheel/lv_colorwheel.c ****     return LV_RES_OK;
 598:..\..\..\arduinoLCD\test\Pain Drain\libraries\lvgl\src\extra\widgets\colorwheel/lv_colorwheel.c **** }
 599:..\..\..\arduinoLCD\test\Pain Drain\libraries\lvgl\src\extra\widgets\colorwheel/lv_colorwheel.c **** 
 600:..\..\..\arduinoLCD\test\Pain Drain\libraries\lvgl\src\extra\widgets\colorwheel/lv_colorwheel.c **** #define SWAPPTR(A, B) do { uint8_t * t = A; A = B; B = t; } while(0)
 601:..\..\..\arduinoLCD\test\Pain Drain\libraries\lvgl\src\extra\widgets\colorwheel/lv_colorwheel.c **** #define HSV_PTR_SWAP(sextant,r,g,b)     if((sextant) & 2) { SWAPPTR((r), (b)); } if((sextant) & 4) 
ARM GAS  C:\Users\haske\AppData\Local\Temp\ccIkbvey.s 			page 12


 602:..\..\..\arduinoLCD\test\Pain Drain\libraries\lvgl\src\extra\widgets\colorwheel/lv_colorwheel.c ****         if(!((sextant) & 1)) { SWAPPTR((r), (g)); } } else { if((sextant) & 1) { SWAPPTR((r), (g));
 603:..\..\..\arduinoLCD\test\Pain Drain\libraries\lvgl\src\extra\widgets\colorwheel/lv_colorwheel.c **** 
 604:..\..\..\arduinoLCD\test\Pain Drain\libraries\lvgl\src\extra\widgets\colorwheel/lv_colorwheel.c **** /**
 605:..\..\..\arduinoLCD\test\Pain Drain\libraries\lvgl\src\extra\widgets\colorwheel/lv_colorwheel.c ****  * Based on the idea from https://www.vagrearg.org/content/hsvrgb
 606:..\..\..\arduinoLCD\test\Pain Drain\libraries\lvgl\src\extra\widgets\colorwheel/lv_colorwheel.c ****  * Here we want to compute an approximate RGB value from a HSV input color space. We don't want to 
 607:..\..\..\arduinoLCD\test\Pain Drain\libraries\lvgl\src\extra\widgets\colorwheel/lv_colorwheel.c ****  * (for that, there's lv_color_hsv_to_rgb), but we want to be fast.
 608:..\..\..\arduinoLCD\test\Pain Drain\libraries\lvgl\src\extra\widgets\colorwheel/lv_colorwheel.c ****  *
 609:..\..\..\arduinoLCD\test\Pain Drain\libraries\lvgl\src\extra\widgets\colorwheel/lv_colorwheel.c ****  * Few tricks are used here: Hue is in range [0; 6 * 256] (so that the sextant is in the high byte 
 610:..\..\..\arduinoLCD\test\Pain Drain\libraries\lvgl\src\extra\widgets\colorwheel/lv_colorwheel.c ****  * both s and v are in [0; 255] range (very convenient to avoid divisions).
 611:..\..\..\arduinoLCD\test\Pain Drain\libraries\lvgl\src\extra\widgets\colorwheel/lv_colorwheel.c ****  *
 612:..\..\..\arduinoLCD\test\Pain Drain\libraries\lvgl\src\extra\widgets\colorwheel/lv_colorwheel.c ****  * We fold all symmetry by swapping the R, G, B pointers so that the code is the same for all sexta
 613:..\..\..\arduinoLCD\test\Pain Drain\libraries\lvgl\src\extra\widgets\colorwheel/lv_colorwheel.c ****  * We replace division by 255 by a division by 256, a.k.a a shift right by 8 bits.
 614:..\..\..\arduinoLCD\test\Pain Drain\libraries\lvgl\src\extra\widgets\colorwheel/lv_colorwheel.c ****  * This is wrong, but since this is only used to compute the pixels on the screen and not the final
 615:..\..\..\arduinoLCD\test\Pain Drain\libraries\lvgl\src\extra\widgets\colorwheel/lv_colorwheel.c ****  */
 616:..\..\..\arduinoLCD\test\Pain Drain\libraries\lvgl\src\extra\widgets\colorwheel/lv_colorwheel.c **** static void fast_hsv2rgb(uint16_t h, uint8_t s, uint8_t v, uint8_t * r, uint8_t * g, uint8_t * b)
 617:..\..\..\arduinoLCD\test\Pain Drain\libraries\lvgl\src\extra\widgets\colorwheel/lv_colorwheel.c **** {
  27              		.loc 1 617 0
  28              		.cfi_startproc
  29              		@ args = 8, pretend = 0, frame = 0
  30              		@ frame_needed = 0, uses_anonymous_args = 0
  31              	.LVL0:
  32 0000 70B5     		push	{r4, r5, r6, lr}
  33              		.cfi_def_cfa_offset 16
  34              		.cfi_offset 4, -16
  35              		.cfi_offset 5, -12
  36              		.cfi_offset 6, -8
  37              		.cfi_offset 14, -4
 618:..\..\..\arduinoLCD\test\Pain Drain\libraries\lvgl\src\extra\widgets\colorwheel/lv_colorwheel.c ****     if(!s) {
  38              		.loc 1 618 0
  39 0002 0029     		cmp	r1, #0
  40 0004 05D1     		bne	.L2
 619:..\..\..\arduinoLCD\test\Pain Drain\libraries\lvgl\src\extra\widgets\colorwheel/lv_colorwheel.c ****         *r = *g = *b = v;
  41              		.loc 1 619 0
  42 0006 0599     		ldr	r1, [sp, #20]
  43              	.LVL1:
  44 0008 0A70     		strb	r2, [r1]
  45 000a 0499     		ldr	r1, [sp, #16]
  46 000c 0A70     		strb	r2, [r1]
  47 000e 1A70     		strb	r2, [r3]
 620:..\..\..\arduinoLCD\test\Pain Drain\libraries\lvgl\src\extra\widgets\colorwheel/lv_colorwheel.c ****         return;
  48              		.loc 1 620 0
  49 0010 39E0     		b	.L1
  50              	.LVL2:
  51              	.L2:
 621:..\..\..\arduinoLCD\test\Pain Drain\libraries\lvgl\src\extra\widgets\colorwheel/lv_colorwheel.c ****     }
 622:..\..\..\arduinoLCD\test\Pain Drain\libraries\lvgl\src\extra\widgets\colorwheel/lv_colorwheel.c **** 
 623:..\..\..\arduinoLCD\test\Pain Drain\libraries\lvgl\src\extra\widgets\colorwheel/lv_colorwheel.c ****     uint8_t sextant = h >> 8;
  52              		.loc 1 623 0
  53 0012 050A     		lsrs	r5, r0, #8
  54              	.LVL3:
 624:..\..\..\arduinoLCD\test\Pain Drain\libraries\lvgl\src\extra\widgets\colorwheel/lv_colorwheel.c ****     HSV_PTR_SWAP(sextant, r, g, b); /*Swap pointers so the conversion code is the same*/
  55              		.loc 1 624 0
  56 0014 AC07     		lsls	r4, r5, #30
  57 0016 02D5     		bpl	.L4
  58 0018 1C00     		movs	r4, r3
  59              	.LBB52:
  60 001a 059B     		ldr	r3, [sp, #20]
ARM GAS  C:\Users\haske\AppData\Local\Temp\ccIkbvey.s 			page 13


  61              	.LVL4:
  62 001c 0594     		str	r4, [sp, #20]
  63              	.LVL5:
  64              	.L4:
  65              	.LBE52:
  66              		.loc 1 624 0 is_stmt 0 discriminator 3
  67 001e 6C07     		lsls	r4, r5, #29
  68 0020 03D5     		bpl	.L5
  69 0022 049C     		ldr	r4, [sp, #16]
  70              	.LBB53:
  71              		.loc 1 624 0
  72 0024 059E     		ldr	r6, [sp, #20]
  73 0026 0496     		str	r6, [sp, #16]
  74              	.LVL6:
  75 0028 0594     		str	r4, [sp, #20]
  76              	.LVL7:
  77              	.L5:
  78              	.LBE53:
  79              		.loc 1 624 0 discriminator 6
  80 002a 0624     		movs	r4, #6
  81 002c 2C42     		tst	r4, r5
  82 002e 02D1     		bne	.L6
  83              		.loc 1 624 0 discriminator 7
  84 0030 EC07     		lsls	r4, r5, #31
  85 0032 03D5     		bpl	.L13
  86 0034 09E0     		b	.L7
  87              	.L6:
  88              		.loc 1 624 0 discriminator 8
  89 0036 EC07     		lsls	r4, r5, #31
  90 0038 04D4     		bmi	.L14
  91 003a 06E0     		b	.L7
  92              	.L13:
  93 003c 1C00     		movs	r4, r3
  94              	.LBB54:
  95              		.loc 1 624 0
  96 003e 049B     		ldr	r3, [sp, #16]
  97              	.LVL8:
  98 0040 0494     		str	r4, [sp, #16]
  99              	.LVL9:
 100 0042 02E0     		b	.L7
 101              	.LVL10:
 102              	.L14:
 103              	.LBE54:
 104 0044 1C00     		movs	r4, r3
 105              	.LBB55:
 106 0046 049B     		ldr	r3, [sp, #16]
 107              	.LVL11:
 108 0048 0494     		str	r4, [sp, #16]
 109              	.LVL12:
 110              	.L7:
 111              	.LBE55:
 625:..\..\..\arduinoLCD\test\Pain Drain\libraries\lvgl\src\extra\widgets\colorwheel/lv_colorwheel.c **** 
 626:..\..\..\arduinoLCD\test\Pain Drain\libraries\lvgl\src\extra\widgets\colorwheel/lv_colorwheel.c ****     *g = v;
 112              		.loc 1 626 0 is_stmt 1
 113 004a 049C     		ldr	r4, [sp, #16]
 114 004c 2270     		strb	r2, [r4]
 627:..\..\..\arduinoLCD\test\Pain Drain\libraries\lvgl\src\extra\widgets\colorwheel/lv_colorwheel.c **** 
ARM GAS  C:\Users\haske\AppData\Local\Temp\ccIkbvey.s 			page 14


 628:..\..\..\arduinoLCD\test\Pain Drain\libraries\lvgl\src\extra\widgets\colorwheel/lv_colorwheel.c ****     uint8_t bb = ~s;
 115              		.loc 1 628 0
 116 004e CC43     		mvns	r4, r1
 117 0050 E4B2     		uxtb	r4, r4
 118              	.LVL13:
 629:..\..\..\arduinoLCD\test\Pain Drain\libraries\lvgl\src\extra\widgets\colorwheel/lv_colorwheel.c ****     uint16_t ww = v * bb; /*Don't try to be precise, but instead, be fast*/
 119              		.loc 1 629 0
 120 0052 92B2     		uxth	r2, r2
 121              	.LVL14:
 122 0054 5443     		muls	r4, r2
 123              	.LVL15:
 630:..\..\..\arduinoLCD\test\Pain Drain\libraries\lvgl\src\extra\widgets\colorwheel/lv_colorwheel.c ****     *b = ww >> 8;
 124              		.loc 1 630 0
 125 0056 240A     		lsrs	r4, r4, #8
 126              	.LVL16:
 127 0058 059E     		ldr	r6, [sp, #20]
 128 005a 3470     		strb	r4, [r6]
 129              	.LVL17:
 631:..\..\..\arduinoLCD\test\Pain Drain\libraries\lvgl\src\extra\widgets\colorwheel/lv_colorwheel.c **** 
 632:..\..\..\arduinoLCD\test\Pain Drain\libraries\lvgl\src\extra\widgets\colorwheel/lv_colorwheel.c ****     uint8_t h_frac = h & 0xff;
 130              		.loc 1 632 0
 131 005c C4B2     		uxtb	r4, r0
 132              	.LVL18:
 633:..\..\..\arduinoLCD\test\Pain Drain\libraries\lvgl\src\extra\widgets\colorwheel/lv_colorwheel.c **** 
 634:..\..\..\arduinoLCD\test\Pain Drain\libraries\lvgl\src\extra\widgets\colorwheel/lv_colorwheel.c ****     if(!(sextant & 1)) {
 133              		.loc 1 634 0
 134 005e ED07     		lsls	r5, r5, #31
 135 0060 07D4     		bmi	.L8
 136              	.LVL19:
 635:..\..\..\arduinoLCD\test\Pain Drain\libraries\lvgl\src\extra\widgets\colorwheel/lv_colorwheel.c ****         /*Up slope*/
 636:..\..\..\arduinoLCD\test\Pain Drain\libraries\lvgl\src\extra\widgets\colorwheel/lv_colorwheel.c ****         ww = !h_frac ? ((uint16_t)s << 8) : (s * (uint8_t)(-h_frac)); /*Skip multiply if not requir
 137              		.loc 1 636 0
 138 0062 002C     		cmp	r4, #0
 139 0064 01D1     		bne	.L9
 140              		.loc 1 636 0 is_stmt 0 discriminator 1
 141 0066 0902     		lsls	r1, r1, #8
 142              	.LVL20:
 143 0068 06E0     		b	.L10
 144              	.LVL21:
 145              	.L9:
 146              		.loc 1 636 0 discriminator 2
 147 006a 6442     		rsbs	r4, r4, #0
 148              	.LVL22:
 149 006c E0B2     		uxtb	r0, r4
 150              	.LVL23:
 151 006e 4143     		muls	r1, r0
 152              	.LVL24:
 153 0070 02E0     		b	.L10
 154              	.LVL25:
 155              	.L8:
 637:..\..\..\arduinoLCD\test\Pain Drain\libraries\lvgl\src\extra\widgets\colorwheel/lv_colorwheel.c ****     }
 638:..\..\..\arduinoLCD\test\Pain Drain\libraries\lvgl\src\extra\widgets\colorwheel/lv_colorwheel.c ****     else {
 639:..\..\..\arduinoLCD\test\Pain Drain\libraries\lvgl\src\extra\widgets\colorwheel/lv_colorwheel.c ****         /*Down slope*/
 640:..\..\..\arduinoLCD\test\Pain Drain\libraries\lvgl\src\extra\widgets\colorwheel/lv_colorwheel.c ****         ww = s * h_frac;
 156              		.loc 1 640 0 is_stmt 1
 157 0072 FF24     		movs	r4, #255
 158              	.LVL26:
ARM GAS  C:\Users\haske\AppData\Local\Temp\ccIkbvey.s 			page 15


 159 0074 2040     		ands	r0, r4
 160              	.LVL27:
 161 0076 4143     		muls	r1, r0
 162              	.LVL28:
 163              	.L10:
 641:..\..\..\arduinoLCD\test\Pain Drain\libraries\lvgl\src\extra\widgets\colorwheel/lv_colorwheel.c ****     }
 642:..\..\..\arduinoLCD\test\Pain Drain\libraries\lvgl\src\extra\widgets\colorwheel/lv_colorwheel.c ****     bb = ww >> 8;
 164              		.loc 1 642 0
 165 0078 090A     		lsrs	r1, r1, #8
 166              	.LVL29:
 167 007a C9B2     		uxtb	r1, r1
 168              	.LVL30:
 643:..\..\..\arduinoLCD\test\Pain Drain\libraries\lvgl\src\extra\widgets\colorwheel/lv_colorwheel.c ****     bb = ~bb;
 169              		.loc 1 643 0
 170 007c C943     		mvns	r1, r1
 171              	.LVL31:
 172 007e C9B2     		uxtb	r1, r1
 173              	.LVL32:
 644:..\..\..\arduinoLCD\test\Pain Drain\libraries\lvgl\src\extra\widgets\colorwheel/lv_colorwheel.c ****     ww = v * bb;
 174              		.loc 1 644 0
 175 0080 4A43     		muls	r2, r1
 176              	.LVL33:
 645:..\..\..\arduinoLCD\test\Pain Drain\libraries\lvgl\src\extra\widgets\colorwheel/lv_colorwheel.c ****     *r = ww >> 8;
 177              		.loc 1 645 0
 178 0082 120A     		lsrs	r2, r2, #8
 179              	.LVL34:
 180 0084 1A70     		strb	r2, [r3]
 181              	.LVL35:
 182              	.L1:
 646:..\..\..\arduinoLCD\test\Pain Drain\libraries\lvgl\src\extra\widgets\colorwheel/lv_colorwheel.c **** }
 183              		.loc 1 646 0
 184              		@ sp needed
 185 0086 70BD     		pop	{r4, r5, r6, pc}
 186              		.cfi_endproc
 187              	.LFE220:
 188              		.size	fast_hsv2rgb, .-fast_hsv2rgb
 189              		.global	__aeabi_idiv
 190              		.global	__aeabi_uidiv
 191              		.section	.text.angle_to_mode_color_fast,"ax",%progbits
 192              		.align	2
 193              		.code	16
 194              		.thumb_func
 195              		.type	angle_to_mode_color_fast, %function
 196              	angle_to_mode_color_fast:
 197              	.LFB221:
 647:..\..\..\arduinoLCD\test\Pain Drain\libraries\lvgl\src\extra\widgets\colorwheel/lv_colorwheel.c **** 
 648:..\..\..\arduinoLCD\test\Pain Drain\libraries\lvgl\src\extra\widgets\colorwheel/lv_colorwheel.c **** static lv_color_t angle_to_mode_color_fast(lv_obj_t * obj, uint16_t angle)
 649:..\..\..\arduinoLCD\test\Pain Drain\libraries\lvgl\src\extra\widgets\colorwheel/lv_colorwheel.c **** {
 198              		.loc 1 649 0
 199              		.cfi_startproc
 200              		@ args = 0, pretend = 0, frame = 8
 201              		@ frame_needed = 0, uses_anonymous_args = 0
 202              	.LVL36:
 203 0000 F0B5     		push	{r4, r5, r6, r7, lr}
 204              		.cfi_def_cfa_offset 20
 205              		.cfi_offset 4, -20
 206              		.cfi_offset 5, -16
ARM GAS  C:\Users\haske\AppData\Local\Temp\ccIkbvey.s 			page 16


 207              		.cfi_offset 6, -12
 208              		.cfi_offset 7, -8
 209              		.cfi_offset 14, -4
 210 0002 85B0     		sub	sp, sp, #20
 211              		.cfi_def_cfa_offset 40
 212 0004 0600     		movs	r6, r0
 213 0006 0D00     		movs	r5, r1
 214              	.LVL37:
 650:..\..\..\arduinoLCD\test\Pain Drain\libraries\lvgl\src\extra\widgets\colorwheel/lv_colorwheel.c ****     lv_colorwheel_t * ext = (lv_colorwheel_t *)obj;
 651:..\..\..\arduinoLCD\test\Pain Drain\libraries\lvgl\src\extra\widgets\colorwheel/lv_colorwheel.c ****     uint8_t r = 0, g = 0, b = 0;
 215              		.loc 1 651 0
 216 0008 0023     		movs	r3, #0
 217 000a 0F22     		movs	r2, #15
 218 000c 6A44     		add	r2, r2, sp
 219 000e 1370     		strb	r3, [r2]
 220 0010 0E22     		movs	r2, #14
 221 0012 6A44     		add	r2, r2, sp
 222 0014 1370     		strb	r3, [r2]
 223 0016 0D22     		movs	r2, #13
 224 0018 6A44     		add	r2, r2, sp
 225 001a 1370     		strb	r3, [r2]
 652:..\..\..\arduinoLCD\test\Pain Drain\libraries\lvgl\src\extra\widgets\colorwheel/lv_colorwheel.c ****     static uint16_t h = 0;
 653:..\..\..\arduinoLCD\test\Pain Drain\libraries\lvgl\src\extra\widgets\colorwheel/lv_colorwheel.c ****     static uint8_t s = 0, v = 0, m = 255;
 654:..\..\..\arduinoLCD\test\Pain Drain\libraries\lvgl\src\extra\widgets\colorwheel/lv_colorwheel.c ****     static uint16_t angle_saved = 0xffff;
 655:..\..\..\arduinoLCD\test\Pain Drain\libraries\lvgl\src\extra\widgets\colorwheel/lv_colorwheel.c **** 
 656:..\..\..\arduinoLCD\test\Pain Drain\libraries\lvgl\src\extra\widgets\colorwheel/lv_colorwheel.c ****     /*If the angle is different recalculate scaling*/
 657:..\..\..\arduinoLCD\test\Pain Drain\libraries\lvgl\src\extra\widgets\colorwheel/lv_colorwheel.c ****     if(angle_saved != angle) m = 255;
 226              		.loc 1 657 0
 227 001c 504B     		ldr	r3, .L24
 228 001e 1B88     		ldrh	r3, [r3]
 229 0020 8B42     		cmp	r3, r1
 230 0022 02D0     		beq	.L16
 231              		.loc 1 657 0 is_stmt 0 discriminator 1
 232 0024 FF22     		movs	r2, #255
 233 0026 4E4B     		ldr	r3, .L24
 234 0028 9A70     		strb	r2, [r3, #2]
 235              	.L16:
 658:..\..\..\arduinoLCD\test\Pain Drain\libraries\lvgl\src\extra\widgets\colorwheel/lv_colorwheel.c ****     angle_saved = angle;
 236              		.loc 1 658 0 is_stmt 1
 237 002a 4D4B     		ldr	r3, .L24
 238 002c 1D80     		strh	r5, [r3]
 659:..\..\..\arduinoLCD\test\Pain Drain\libraries\lvgl\src\extra\widgets\colorwheel/lv_colorwheel.c **** 
 660:..\..\..\arduinoLCD\test\Pain Drain\libraries\lvgl\src\extra\widgets\colorwheel/lv_colorwheel.c ****     switch(ext->mode) {
 239              		.loc 1 660 0
 240 002e 3C23     		movs	r3, #60
 241 0030 F45C     		ldrb	r4, [r6, r3]
 242 0032 A407     		lsls	r4, r4, #30
 243 0034 A40F     		lsrs	r4, r4, #30
 244 0036 E3B2     		uxtb	r3, r4
 245 0038 012B     		cmp	r3, #1
 246 003a 2ED0     		beq	.L18
 247 003c 022B     		cmp	r3, #2
 248 003e 55D0     		beq	.L19
 661:..\..\..\arduinoLCD\test\Pain Drain\libraries\lvgl\src\extra\widgets\colorwheel/lv_colorwheel.c ****         default:
 662:..\..\..\arduinoLCD\test\Pain Drain\libraries\lvgl\src\extra\widgets\colorwheel/lv_colorwheel.c ****         case LV_COLORWHEEL_MODE_HUE:
 663:..\..\..\arduinoLCD\test\Pain Drain\libraries\lvgl\src\extra\widgets\colorwheel/lv_colorwheel.c ****             /*Don't recompute costly scaling if it does not change*/
 664:..\..\..\arduinoLCD\test\Pain Drain\libraries\lvgl\src\extra\widgets\colorwheel/lv_colorwheel.c ****             if(m != ext->mode) {
ARM GAS  C:\Users\haske\AppData\Local\Temp\ccIkbvey.s 			page 17


 249              		.loc 1 664 0
 250 0040 474A     		ldr	r2, .L24
 251 0042 9278     		ldrb	r2, [r2, #2]
 252 0044 9342     		cmp	r3, r2
 253 0046 16D0     		beq	.L20
 665:..\..\..\arduinoLCD\test\Pain Drain\libraries\lvgl\src\extra\widgets\colorwheel/lv_colorwheel.c ****                 s = (uint8_t)(((uint16_t)ext->hsv.s * 51) / 20);
 254              		.loc 1 665 0
 255 0048 2623     		movs	r3, #38
 256 004a F35C     		ldrb	r3, [r6, r3]
 257 004c 5800     		lsls	r0, r3, #1
 258              	.LVL38:
 259 004e C018     		adds	r0, r0, r3
 260 0050 0301     		lsls	r3, r0, #4
 261 0052 C018     		adds	r0, r0, r3
 262 0054 1421     		movs	r1, #20
 263              	.LVL39:
 264 0056 FFF7FEFF 		bl	__aeabi_idiv
 265              	.LVL40:
 266 005a 424F     		ldr	r7, .L24+4
 267 005c 3870     		strb	r0, [r7]
 666:..\..\..\arduinoLCD\test\Pain Drain\libraries\lvgl\src\extra\widgets\colorwheel/lv_colorwheel.c ****                 v = (uint8_t)(((uint16_t)ext->hsv.v * 51) / 20);
 268              		.loc 1 666 0
 269 005e 2723     		movs	r3, #39
 270 0060 F35C     		ldrb	r3, [r6, r3]
 271 0062 5800     		lsls	r0, r3, #1
 272 0064 C018     		adds	r0, r0, r3
 273 0066 0301     		lsls	r3, r0, #4
 274 0068 C018     		adds	r0, r0, r3
 275 006a 1421     		movs	r1, #20
 276 006c FFF7FEFF 		bl	__aeabi_idiv
 277              	.LVL41:
 278 0070 7870     		strb	r0, [r7, #1]
 667:..\..\..\arduinoLCD\test\Pain Drain\libraries\lvgl\src\extra\widgets\colorwheel/lv_colorwheel.c ****                 m = ext->mode;
 279              		.loc 1 667 0
 280 0072 3B4B     		ldr	r3, .L24
 281 0074 9C70     		strb	r4, [r3, #2]
 282              	.L20:
 668:..\..\..\arduinoLCD\test\Pain Drain\libraries\lvgl\src\extra\widgets\colorwheel/lv_colorwheel.c ****             }
 669:..\..\..\arduinoLCD\test\Pain Drain\libraries\lvgl\src\extra\widgets\colorwheel/lv_colorwheel.c ****             fast_hsv2rgb(angle * 6, s, v, &r, &g,
 283              		.loc 1 669 0
 284 0076 3B4B     		ldr	r3, .L24+4
 285 0078 5A78     		ldrb	r2, [r3, #1]
 286 007a 1978     		ldrb	r1, [r3]
 287 007c 6800     		lsls	r0, r5, #1
 288 007e 2D18     		adds	r5, r5, r0
 289 0080 6D00     		lsls	r5, r5, #1
 290 0082 A8B2     		uxth	r0, r5
 291 0084 0D23     		movs	r3, #13
 292 0086 6B44     		add	r3, r3, sp
 293 0088 0193     		str	r3, [sp, #4]
 294 008a 0E23     		movs	r3, #14
 295 008c 6B44     		add	r3, r3, sp
 296 008e 0093     		str	r3, [sp]
 297 0090 0F23     		movs	r3, #15
 298 0092 6B44     		add	r3, r3, sp
 299 0094 FFF7FEFF 		bl	fast_hsv2rgb
 300              	.LVL42:
ARM GAS  C:\Users\haske\AppData\Local\Temp\ccIkbvey.s 			page 18


 670:..\..\..\arduinoLCD\test\Pain Drain\libraries\lvgl\src\extra\widgets\colorwheel/lv_colorwheel.c ****                          &b); /*A smart compiler will replace x * 6 by (x << 2) + (x << 1) if it's 
 671:..\..\..\arduinoLCD\test\Pain Drain\libraries\lvgl\src\extra\widgets\colorwheel/lv_colorwheel.c ****             break;
 301              		.loc 1 671 0
 302 0098 50E0     		b	.L21
 303              	.LVL43:
 304              	.L18:
 672:..\..\..\arduinoLCD\test\Pain Drain\libraries\lvgl\src\extra\widgets\colorwheel/lv_colorwheel.c ****         case LV_COLORWHEEL_MODE_SATURATION:
 673:..\..\..\arduinoLCD\test\Pain Drain\libraries\lvgl\src\extra\widgets\colorwheel/lv_colorwheel.c ****             /*Don't recompute costly scaling if it does not change*/
 674:..\..\..\arduinoLCD\test\Pain Drain\libraries\lvgl\src\extra\widgets\colorwheel/lv_colorwheel.c ****             if(m != ext->mode) {
 305              		.loc 1 674 0
 306 009a 314A     		ldr	r2, .L24
 307 009c 9278     		ldrb	r2, [r2, #2]
 308 009e 9342     		cmp	r3, r2
 309 00a0 15D0     		beq	.L22
 675:..\..\..\arduinoLCD\test\Pain Drain\libraries\lvgl\src\extra\widgets\colorwheel/lv_colorwheel.c ****                 h = (uint16_t)(((uint32_t)ext->hsv.h * 6 * 256) / 360);
 310              		.loc 1 675 0
 311 00a2 B08C     		ldrh	r0, [r6, #36]
 312              	.LVL44:
 313 00a4 4300     		lsls	r3, r0, #1
 314 00a6 1818     		adds	r0, r3, r0
 315 00a8 4002     		lsls	r0, r0, #9
 316 00aa B421     		movs	r1, #180
 317              	.LVL45:
 318 00ac 4900     		lsls	r1, r1, #1
 319 00ae FFF7FEFF 		bl	__aeabi_uidiv
 320              	.LVL46:
 321 00b2 2C4F     		ldr	r7, .L24+4
 322 00b4 7880     		strh	r0, [r7, #2]
 676:..\..\..\arduinoLCD\test\Pain Drain\libraries\lvgl\src\extra\widgets\colorwheel/lv_colorwheel.c ****                 v = (uint8_t)(((uint16_t)ext->hsv.v * 51) / 20);
 323              		.loc 1 676 0
 324 00b6 2723     		movs	r3, #39
 325 00b8 F35C     		ldrb	r3, [r6, r3]
 326 00ba 5800     		lsls	r0, r3, #1
 327 00bc C018     		adds	r0, r0, r3
 328 00be 0301     		lsls	r3, r0, #4
 329 00c0 C018     		adds	r0, r0, r3
 330 00c2 1421     		movs	r1, #20
 331 00c4 FFF7FEFF 		bl	__aeabi_idiv
 332              	.LVL47:
 333 00c8 7870     		strb	r0, [r7, #1]
 677:..\..\..\arduinoLCD\test\Pain Drain\libraries\lvgl\src\extra\widgets\colorwheel/lv_colorwheel.c ****                 m = ext->mode;
 334              		.loc 1 677 0
 335 00ca 254B     		ldr	r3, .L24
 336 00cc 9C70     		strb	r4, [r3, #2]
 337              	.L22:
 678:..\..\..\arduinoLCD\test\Pain Drain\libraries\lvgl\src\extra\widgets\colorwheel/lv_colorwheel.c ****             }
 679:..\..\..\arduinoLCD\test\Pain Drain\libraries\lvgl\src\extra\widgets\colorwheel/lv_colorwheel.c ****             fast_hsv2rgb(h, angle, v, &r, &g, &b);
 338              		.loc 1 679 0
 339 00ce 254B     		ldr	r3, .L24+4
 340 00d0 5A78     		ldrb	r2, [r3, #1]
 341 00d2 E9B2     		uxtb	r1, r5
 342 00d4 5888     		ldrh	r0, [r3, #2]
 343 00d6 0D23     		movs	r3, #13
 344 00d8 6B44     		add	r3, r3, sp
 345 00da 0193     		str	r3, [sp, #4]
 346 00dc 0E23     		movs	r3, #14
 347 00de 6B44     		add	r3, r3, sp
ARM GAS  C:\Users\haske\AppData\Local\Temp\ccIkbvey.s 			page 19


 348 00e0 0093     		str	r3, [sp]
 349 00e2 0F23     		movs	r3, #15
 350 00e4 6B44     		add	r3, r3, sp
 351 00e6 FFF7FEFF 		bl	fast_hsv2rgb
 352              	.LVL48:
 680:..\..\..\arduinoLCD\test\Pain Drain\libraries\lvgl\src\extra\widgets\colorwheel/lv_colorwheel.c ****             break;
 353              		.loc 1 680 0
 354 00ea 27E0     		b	.L21
 355              	.LVL49:
 356              	.L19:
 681:..\..\..\arduinoLCD\test\Pain Drain\libraries\lvgl\src\extra\widgets\colorwheel/lv_colorwheel.c ****         case LV_COLORWHEEL_MODE_VALUE:
 682:..\..\..\arduinoLCD\test\Pain Drain\libraries\lvgl\src\extra\widgets\colorwheel/lv_colorwheel.c ****             /*Don't recompute costly scaling if it does not change*/
 683:..\..\..\arduinoLCD\test\Pain Drain\libraries\lvgl\src\extra\widgets\colorwheel/lv_colorwheel.c ****             if(m != ext->mode) {
 357              		.loc 1 683 0
 358 00ec 1C4A     		ldr	r2, .L24
 359 00ee 9278     		ldrb	r2, [r2, #2]
 360 00f0 9342     		cmp	r3, r2
 361 00f2 15D0     		beq	.L23
 684:..\..\..\arduinoLCD\test\Pain Drain\libraries\lvgl\src\extra\widgets\colorwheel/lv_colorwheel.c ****                 h = (uint16_t)(((uint32_t)ext->hsv.h * 6 * 256) / 360);
 362              		.loc 1 684 0
 363 00f4 B38C     		ldrh	r3, [r6, #36]
 364 00f6 5800     		lsls	r0, r3, #1
 365              	.LVL50:
 366 00f8 C018     		adds	r0, r0, r3
 367 00fa 4002     		lsls	r0, r0, #9
 368 00fc B421     		movs	r1, #180
 369              	.LVL51:
 370 00fe 4900     		lsls	r1, r1, #1
 371 0100 FFF7FEFF 		bl	__aeabi_uidiv
 372              	.LVL52:
 373 0104 174F     		ldr	r7, .L24+4
 374 0106 7880     		strh	r0, [r7, #2]
 685:..\..\..\arduinoLCD\test\Pain Drain\libraries\lvgl\src\extra\widgets\colorwheel/lv_colorwheel.c ****                 s = (uint8_t)(((uint16_t)ext->hsv.s * 51) / 20);
 375              		.loc 1 685 0
 376 0108 2623     		movs	r3, #38
 377 010a F35C     		ldrb	r3, [r6, r3]
 378 010c 5800     		lsls	r0, r3, #1
 379 010e C018     		adds	r0, r0, r3
 380 0110 0301     		lsls	r3, r0, #4
 381 0112 C018     		adds	r0, r0, r3
 382 0114 1421     		movs	r1, #20
 383 0116 FFF7FEFF 		bl	__aeabi_idiv
 384              	.LVL53:
 385 011a 3870     		strb	r0, [r7]
 686:..\..\..\arduinoLCD\test\Pain Drain\libraries\lvgl\src\extra\widgets\colorwheel/lv_colorwheel.c ****                 m = ext->mode;
 386              		.loc 1 686 0
 387 011c 104B     		ldr	r3, .L24
 388 011e 9C70     		strb	r4, [r3, #2]
 389              	.L23:
 687:..\..\..\arduinoLCD\test\Pain Drain\libraries\lvgl\src\extra\widgets\colorwheel/lv_colorwheel.c ****             }
 688:..\..\..\arduinoLCD\test\Pain Drain\libraries\lvgl\src\extra\widgets\colorwheel/lv_colorwheel.c ****             fast_hsv2rgb(h, s, angle, &r, &g, &b);
 390              		.loc 1 688 0
 391 0120 EAB2     		uxtb	r2, r5
 392 0122 104B     		ldr	r3, .L24+4
 393 0124 1978     		ldrb	r1, [r3]
 394 0126 5888     		ldrh	r0, [r3, #2]
 395 0128 0D23     		movs	r3, #13
ARM GAS  C:\Users\haske\AppData\Local\Temp\ccIkbvey.s 			page 20


 396 012a 6B44     		add	r3, r3, sp
 397 012c 0193     		str	r3, [sp, #4]
 398 012e 0E23     		movs	r3, #14
 399 0130 6B44     		add	r3, r3, sp
 400 0132 0093     		str	r3, [sp]
 401 0134 0F23     		movs	r3, #15
 402 0136 6B44     		add	r3, r3, sp
 403 0138 FFF7FEFF 		bl	fast_hsv2rgb
 404              	.LVL54:
 405              	.L21:
 689:..\..\..\arduinoLCD\test\Pain Drain\libraries\lvgl\src\extra\widgets\colorwheel/lv_colorwheel.c ****             break;
 690:..\..\..\arduinoLCD\test\Pain Drain\libraries\lvgl\src\extra\widgets\colorwheel/lv_colorwheel.c ****     }
 691:..\..\..\arduinoLCD\test\Pain Drain\libraries\lvgl\src\extra\widgets\colorwheel/lv_colorwheel.c ****     return lv_color_make(r, g, b);
 406              		.loc 1 691 0
 407 013c 0F23     		movs	r3, #15
 408 013e 6B44     		add	r3, r3, sp
 409 0140 1B78     		ldrb	r3, [r3]
 410 0142 0E22     		movs	r2, #14
 411 0144 6A44     		add	r2, r2, sp
 412 0146 1278     		ldrb	r2, [r2]
 413 0148 0D21     		movs	r1, #13
 414 014a 6944     		add	r1, r1, sp
 415 014c 0978     		ldrb	r1, [r1]
 416              	.LVL55:
 417              	.LBB56:
 418              	.LBB57:
 419              		.file 2 "c:\\projects\\paindrain\\arduinolcd\\test\\pain drain\\libraries\\lvgl\\src\\misc\\lv_col
   1:c:\projects\paindrain\arduinolcd\test\pain drain\libraries\lvgl\src\misc\lv_color.h **** /**
   2:c:\projects\paindrain\arduinolcd\test\pain drain\libraries\lvgl\src\misc\lv_color.h ****  * @file lv_color.h
   3:c:\projects\paindrain\arduinolcd\test\pain drain\libraries\lvgl\src\misc\lv_color.h ****  *
   4:c:\projects\paindrain\arduinolcd\test\pain drain\libraries\lvgl\src\misc\lv_color.h ****  */
   5:c:\projects\paindrain\arduinolcd\test\pain drain\libraries\lvgl\src\misc\lv_color.h **** 
   6:c:\projects\paindrain\arduinolcd\test\pain drain\libraries\lvgl\src\misc\lv_color.h **** #ifndef LV_COLOR_H
   7:c:\projects\paindrain\arduinolcd\test\pain drain\libraries\lvgl\src\misc\lv_color.h **** #define LV_COLOR_H
   8:c:\projects\paindrain\arduinolcd\test\pain drain\libraries\lvgl\src\misc\lv_color.h **** 
   9:c:\projects\paindrain\arduinolcd\test\pain drain\libraries\lvgl\src\misc\lv_color.h **** #ifdef __cplusplus
  10:c:\projects\paindrain\arduinolcd\test\pain drain\libraries\lvgl\src\misc\lv_color.h **** extern "C" {
  11:c:\projects\paindrain\arduinolcd\test\pain drain\libraries\lvgl\src\misc\lv_color.h **** #endif
  12:c:\projects\paindrain\arduinolcd\test\pain drain\libraries\lvgl\src\misc\lv_color.h **** 
  13:c:\projects\paindrain\arduinolcd\test\pain drain\libraries\lvgl\src\misc\lv_color.h **** /*********************
  14:c:\projects\paindrain\arduinolcd\test\pain drain\libraries\lvgl\src\misc\lv_color.h ****  *      INCLUDES
  15:c:\projects\paindrain\arduinolcd\test\pain drain\libraries\lvgl\src\misc\lv_color.h ****  *********************/
  16:c:\projects\paindrain\arduinolcd\test\pain drain\libraries\lvgl\src\misc\lv_color.h **** #include "../lv_conf_internal.h"
  17:c:\projects\paindrain\arduinolcd\test\pain drain\libraries\lvgl\src\misc\lv_color.h **** #include "lv_assert.h"
  18:c:\projects\paindrain\arduinolcd\test\pain drain\libraries\lvgl\src\misc\lv_color.h **** #include "lv_math.h"
  19:c:\projects\paindrain\arduinolcd\test\pain drain\libraries\lvgl\src\misc\lv_color.h **** #include "lv_types.h"
  20:c:\projects\paindrain\arduinolcd\test\pain drain\libraries\lvgl\src\misc\lv_color.h **** 
  21:c:\projects\paindrain\arduinolcd\test\pain drain\libraries\lvgl\src\misc\lv_color.h **** /*Error checking*/
  22:c:\projects\paindrain\arduinolcd\test\pain drain\libraries\lvgl\src\misc\lv_color.h **** #if LV_COLOR_DEPTH == 24
  23:c:\projects\paindrain\arduinolcd\test\pain drain\libraries\lvgl\src\misc\lv_color.h **** #error "LV_COLOR_DEPTH 24 is deprecated. Use LV_COLOR_DEPTH 32 instead (lv_conf.h)"
  24:c:\projects\paindrain\arduinolcd\test\pain drain\libraries\lvgl\src\misc\lv_color.h **** #endif
  25:c:\projects\paindrain\arduinolcd\test\pain drain\libraries\lvgl\src\misc\lv_color.h **** 
  26:c:\projects\paindrain\arduinolcd\test\pain drain\libraries\lvgl\src\misc\lv_color.h **** #if LV_COLOR_DEPTH != 16 && LV_COLOR_16_SWAP != 0
  27:c:\projects\paindrain\arduinolcd\test\pain drain\libraries\lvgl\src\misc\lv_color.h **** #error "LV_COLOR_16_SWAP requires LV_COLOR_DEPTH == 16. Set it in lv_conf.h"
  28:c:\projects\paindrain\arduinolcd\test\pain drain\libraries\lvgl\src\misc\lv_color.h **** #endif
  29:c:\projects\paindrain\arduinolcd\test\pain drain\libraries\lvgl\src\misc\lv_color.h **** 
  30:c:\projects\paindrain\arduinolcd\test\pain drain\libraries\lvgl\src\misc\lv_color.h **** #include <stdint.h>
ARM GAS  C:\Users\haske\AppData\Local\Temp\ccIkbvey.s 			page 21


  31:c:\projects\paindrain\arduinolcd\test\pain drain\libraries\lvgl\src\misc\lv_color.h **** 
  32:c:\projects\paindrain\arduinolcd\test\pain drain\libraries\lvgl\src\misc\lv_color.h **** /*********************
  33:c:\projects\paindrain\arduinolcd\test\pain drain\libraries\lvgl\src\misc\lv_color.h ****  *      DEFINES
  34:c:\projects\paindrain\arduinolcd\test\pain drain\libraries\lvgl\src\misc\lv_color.h ****  *********************/
  35:c:\projects\paindrain\arduinolcd\test\pain drain\libraries\lvgl\src\misc\lv_color.h **** LV_EXPORT_CONST_INT(LV_COLOR_DEPTH);
  36:c:\projects\paindrain\arduinolcd\test\pain drain\libraries\lvgl\src\misc\lv_color.h **** LV_EXPORT_CONST_INT(LV_COLOR_16_SWAP);
  37:c:\projects\paindrain\arduinolcd\test\pain drain\libraries\lvgl\src\misc\lv_color.h **** 
  38:c:\projects\paindrain\arduinolcd\test\pain drain\libraries\lvgl\src\misc\lv_color.h **** /**
  39:c:\projects\paindrain\arduinolcd\test\pain drain\libraries\lvgl\src\misc\lv_color.h ****  * Opacity percentages.
  40:c:\projects\paindrain\arduinolcd\test\pain drain\libraries\lvgl\src\misc\lv_color.h ****  */
  41:c:\projects\paindrain\arduinolcd\test\pain drain\libraries\lvgl\src\misc\lv_color.h **** enum {
  42:c:\projects\paindrain\arduinolcd\test\pain drain\libraries\lvgl\src\misc\lv_color.h ****     LV_OPA_TRANSP = 0,
  43:c:\projects\paindrain\arduinolcd\test\pain drain\libraries\lvgl\src\misc\lv_color.h ****     LV_OPA_0      = 0,
  44:c:\projects\paindrain\arduinolcd\test\pain drain\libraries\lvgl\src\misc\lv_color.h ****     LV_OPA_10     = 25,
  45:c:\projects\paindrain\arduinolcd\test\pain drain\libraries\lvgl\src\misc\lv_color.h ****     LV_OPA_20     = 51,
  46:c:\projects\paindrain\arduinolcd\test\pain drain\libraries\lvgl\src\misc\lv_color.h ****     LV_OPA_30     = 76,
  47:c:\projects\paindrain\arduinolcd\test\pain drain\libraries\lvgl\src\misc\lv_color.h ****     LV_OPA_40     = 102,
  48:c:\projects\paindrain\arduinolcd\test\pain drain\libraries\lvgl\src\misc\lv_color.h ****     LV_OPA_50     = 127,
  49:c:\projects\paindrain\arduinolcd\test\pain drain\libraries\lvgl\src\misc\lv_color.h ****     LV_OPA_60     = 153,
  50:c:\projects\paindrain\arduinolcd\test\pain drain\libraries\lvgl\src\misc\lv_color.h ****     LV_OPA_70     = 178,
  51:c:\projects\paindrain\arduinolcd\test\pain drain\libraries\lvgl\src\misc\lv_color.h ****     LV_OPA_80     = 204,
  52:c:\projects\paindrain\arduinolcd\test\pain drain\libraries\lvgl\src\misc\lv_color.h ****     LV_OPA_90     = 229,
  53:c:\projects\paindrain\arduinolcd\test\pain drain\libraries\lvgl\src\misc\lv_color.h ****     LV_OPA_100    = 255,
  54:c:\projects\paindrain\arduinolcd\test\pain drain\libraries\lvgl\src\misc\lv_color.h ****     LV_OPA_COVER  = 255,
  55:c:\projects\paindrain\arduinolcd\test\pain drain\libraries\lvgl\src\misc\lv_color.h **** };
  56:c:\projects\paindrain\arduinolcd\test\pain drain\libraries\lvgl\src\misc\lv_color.h **** 
  57:c:\projects\paindrain\arduinolcd\test\pain drain\libraries\lvgl\src\misc\lv_color.h **** #define LV_OPA_MIN 2    /*Opacities below this will be transparent*/
  58:c:\projects\paindrain\arduinolcd\test\pain drain\libraries\lvgl\src\misc\lv_color.h **** #define LV_OPA_MAX 253  /*Opacities above this will fully cover*/
  59:c:\projects\paindrain\arduinolcd\test\pain drain\libraries\lvgl\src\misc\lv_color.h **** 
  60:c:\projects\paindrain\arduinolcd\test\pain drain\libraries\lvgl\src\misc\lv_color.h **** #if LV_COLOR_DEPTH == 1
  61:c:\projects\paindrain\arduinolcd\test\pain drain\libraries\lvgl\src\misc\lv_color.h **** #define LV_COLOR_SIZE 8
  62:c:\projects\paindrain\arduinolcd\test\pain drain\libraries\lvgl\src\misc\lv_color.h **** #elif LV_COLOR_DEPTH == 8
  63:c:\projects\paindrain\arduinolcd\test\pain drain\libraries\lvgl\src\misc\lv_color.h **** #define LV_COLOR_SIZE 8
  64:c:\projects\paindrain\arduinolcd\test\pain drain\libraries\lvgl\src\misc\lv_color.h **** #elif LV_COLOR_DEPTH == 16
  65:c:\projects\paindrain\arduinolcd\test\pain drain\libraries\lvgl\src\misc\lv_color.h **** #define LV_COLOR_SIZE 16
  66:c:\projects\paindrain\arduinolcd\test\pain drain\libraries\lvgl\src\misc\lv_color.h **** #elif LV_COLOR_DEPTH == 32
  67:c:\projects\paindrain\arduinolcd\test\pain drain\libraries\lvgl\src\misc\lv_color.h **** #define LV_COLOR_SIZE 32
  68:c:\projects\paindrain\arduinolcd\test\pain drain\libraries\lvgl\src\misc\lv_color.h **** #else
  69:c:\projects\paindrain\arduinolcd\test\pain drain\libraries\lvgl\src\misc\lv_color.h **** #error "Invalid LV_COLOR_DEPTH in lv_conf.h! Set it to 1, 8, 16 or 32!"
  70:c:\projects\paindrain\arduinolcd\test\pain drain\libraries\lvgl\src\misc\lv_color.h **** #endif
  71:c:\projects\paindrain\arduinolcd\test\pain drain\libraries\lvgl\src\misc\lv_color.h **** 
  72:c:\projects\paindrain\arduinolcd\test\pain drain\libraries\lvgl\src\misc\lv_color.h **** #if defined(__cplusplus) && !defined(_LV_COLOR_HAS_MODERN_CPP)
  73:c:\projects\paindrain\arduinolcd\test\pain drain\libraries\lvgl\src\misc\lv_color.h **** /**
  74:c:\projects\paindrain\arduinolcd\test\pain drain\libraries\lvgl\src\misc\lv_color.h **** * MSVC compiler's definition of the __cplusplus indicating 199711L regardless to C++ standard versi
  75:c:\projects\paindrain\arduinolcd\test\pain drain\libraries\lvgl\src\misc\lv_color.h **** * see https://devblogs.microsoft.com/cppblog/msvc-now-correctly-reports-cplusplus
  76:c:\projects\paindrain\arduinolcd\test\pain drain\libraries\lvgl\src\misc\lv_color.h **** * so we use _MSC_VER macro instead of __cplusplus
  77:c:\projects\paindrain\arduinolcd\test\pain drain\libraries\lvgl\src\misc\lv_color.h **** */
  78:c:\projects\paindrain\arduinolcd\test\pain drain\libraries\lvgl\src\misc\lv_color.h **** #ifdef _MSC_VER
  79:c:\projects\paindrain\arduinolcd\test\pain drain\libraries\lvgl\src\misc\lv_color.h **** #if _MSC_VER >= 1900 /*Visual Studio 2015*/
  80:c:\projects\paindrain\arduinolcd\test\pain drain\libraries\lvgl\src\misc\lv_color.h **** #define _LV_COLOR_HAS_MODERN_CPP 1
  81:c:\projects\paindrain\arduinolcd\test\pain drain\libraries\lvgl\src\misc\lv_color.h **** #endif
  82:c:\projects\paindrain\arduinolcd\test\pain drain\libraries\lvgl\src\misc\lv_color.h **** #else
  83:c:\projects\paindrain\arduinolcd\test\pain drain\libraries\lvgl\src\misc\lv_color.h **** #if __cplusplus >= 201103L
  84:c:\projects\paindrain\arduinolcd\test\pain drain\libraries\lvgl\src\misc\lv_color.h **** #define _LV_COLOR_HAS_MODERN_CPP 1
  85:c:\projects\paindrain\arduinolcd\test\pain drain\libraries\lvgl\src\misc\lv_color.h **** #endif
  86:c:\projects\paindrain\arduinolcd\test\pain drain\libraries\lvgl\src\misc\lv_color.h **** #endif
  87:c:\projects\paindrain\arduinolcd\test\pain drain\libraries\lvgl\src\misc\lv_color.h **** #endif /*__cplusplus*/
ARM GAS  C:\Users\haske\AppData\Local\Temp\ccIkbvey.s 			page 22


  88:c:\projects\paindrain\arduinolcd\test\pain drain\libraries\lvgl\src\misc\lv_color.h **** 
  89:c:\projects\paindrain\arduinolcd\test\pain drain\libraries\lvgl\src\misc\lv_color.h **** #ifndef _LV_COLOR_HAS_MODERN_CPP
  90:c:\projects\paindrain\arduinolcd\test\pain drain\libraries\lvgl\src\misc\lv_color.h **** #define _LV_COLOR_HAS_MODERN_CPP 0
  91:c:\projects\paindrain\arduinolcd\test\pain drain\libraries\lvgl\src\misc\lv_color.h **** #endif
  92:c:\projects\paindrain\arduinolcd\test\pain drain\libraries\lvgl\src\misc\lv_color.h **** 
  93:c:\projects\paindrain\arduinolcd\test\pain drain\libraries\lvgl\src\misc\lv_color.h **** #if _LV_COLOR_HAS_MODERN_CPP
  94:c:\projects\paindrain\arduinolcd\test\pain drain\libraries\lvgl\src\misc\lv_color.h **** /*Fix msvc compiler error C4576 inside C++ code*/
  95:c:\projects\paindrain\arduinolcd\test\pain drain\libraries\lvgl\src\misc\lv_color.h **** #define _LV_COLOR_MAKE_TYPE_HELPER lv_color_t
  96:c:\projects\paindrain\arduinolcd\test\pain drain\libraries\lvgl\src\misc\lv_color.h **** #else
  97:c:\projects\paindrain\arduinolcd\test\pain drain\libraries\lvgl\src\misc\lv_color.h **** #define _LV_COLOR_MAKE_TYPE_HELPER (lv_color_t)
  98:c:\projects\paindrain\arduinolcd\test\pain drain\libraries\lvgl\src\misc\lv_color.h **** #endif
  99:c:\projects\paindrain\arduinolcd\test\pain drain\libraries\lvgl\src\misc\lv_color.h **** 
 100:c:\projects\paindrain\arduinolcd\test\pain drain\libraries\lvgl\src\misc\lv_color.h **** /*---------------------------------------
 101:c:\projects\paindrain\arduinolcd\test\pain drain\libraries\lvgl\src\misc\lv_color.h ****  * Macros for all existing color depths
 102:c:\projects\paindrain\arduinolcd\test\pain drain\libraries\lvgl\src\misc\lv_color.h ****  * to set/get values of the color channels
 103:c:\projects\paindrain\arduinolcd\test\pain drain\libraries\lvgl\src\misc\lv_color.h ****  *------------------------------------------*/
 104:c:\projects\paindrain\arduinolcd\test\pain drain\libraries\lvgl\src\misc\lv_color.h **** # define LV_COLOR_SET_R1(c, v) (c).ch.red = (uint8_t)((v) & 0x1)
 105:c:\projects\paindrain\arduinolcd\test\pain drain\libraries\lvgl\src\misc\lv_color.h **** # define LV_COLOR_SET_G1(c, v) (c).ch.green = (uint8_t)((v) & 0x1)
 106:c:\projects\paindrain\arduinolcd\test\pain drain\libraries\lvgl\src\misc\lv_color.h **** # define LV_COLOR_SET_B1(c, v) (c).ch.blue = (uint8_t)((v) & 0x1)
 107:c:\projects\paindrain\arduinolcd\test\pain drain\libraries\lvgl\src\misc\lv_color.h **** # define LV_COLOR_SET_A1(c, v) do {} while(0)
 108:c:\projects\paindrain\arduinolcd\test\pain drain\libraries\lvgl\src\misc\lv_color.h **** 
 109:c:\projects\paindrain\arduinolcd\test\pain drain\libraries\lvgl\src\misc\lv_color.h **** # define LV_COLOR_GET_R1(c) (c).ch.red
 110:c:\projects\paindrain\arduinolcd\test\pain drain\libraries\lvgl\src\misc\lv_color.h **** # define LV_COLOR_GET_G1(c) (c).ch.green
 111:c:\projects\paindrain\arduinolcd\test\pain drain\libraries\lvgl\src\misc\lv_color.h **** # define LV_COLOR_GET_B1(c) (c).ch.blue
 112:c:\projects\paindrain\arduinolcd\test\pain drain\libraries\lvgl\src\misc\lv_color.h **** # define LV_COLOR_GET_A1(c) 0xFF
 113:c:\projects\paindrain\arduinolcd\test\pain drain\libraries\lvgl\src\misc\lv_color.h **** 
 114:c:\projects\paindrain\arduinolcd\test\pain drain\libraries\lvgl\src\misc\lv_color.h **** # define _LV_COLOR_ZERO_INITIALIZER1 {0x00}
 115:c:\projects\paindrain\arduinolcd\test\pain drain\libraries\lvgl\src\misc\lv_color.h **** # define LV_COLOR_MAKE1(r8, g8, b8)  {(uint8_t)((b8 >> 7) | (g8 >> 7) | (r8 >> 7))}
 116:c:\projects\paindrain\arduinolcd\test\pain drain\libraries\lvgl\src\misc\lv_color.h **** 
 117:c:\projects\paindrain\arduinolcd\test\pain drain\libraries\lvgl\src\misc\lv_color.h **** # define LV_COLOR_SET_R8(c, v) (c).ch.red = (uint8_t)((v) & 0x7U)
 118:c:\projects\paindrain\arduinolcd\test\pain drain\libraries\lvgl\src\misc\lv_color.h **** # define LV_COLOR_SET_G8(c, v) (c).ch.green = (uint8_t)((v) & 0x7U)
 119:c:\projects\paindrain\arduinolcd\test\pain drain\libraries\lvgl\src\misc\lv_color.h **** # define LV_COLOR_SET_B8(c, v) (c).ch.blue = (uint8_t)((v) & 0x3U)
 120:c:\projects\paindrain\arduinolcd\test\pain drain\libraries\lvgl\src\misc\lv_color.h **** # define LV_COLOR_SET_A8(c, v) do {} while(0)
 121:c:\projects\paindrain\arduinolcd\test\pain drain\libraries\lvgl\src\misc\lv_color.h **** 
 122:c:\projects\paindrain\arduinolcd\test\pain drain\libraries\lvgl\src\misc\lv_color.h **** # define LV_COLOR_GET_R8(c) (c).ch.red
 123:c:\projects\paindrain\arduinolcd\test\pain drain\libraries\lvgl\src\misc\lv_color.h **** # define LV_COLOR_GET_G8(c) (c).ch.green
 124:c:\projects\paindrain\arduinolcd\test\pain drain\libraries\lvgl\src\misc\lv_color.h **** # define LV_COLOR_GET_B8(c) (c).ch.blue
 125:c:\projects\paindrain\arduinolcd\test\pain drain\libraries\lvgl\src\misc\lv_color.h **** # define LV_COLOR_GET_A8(c) 0xFF
 126:c:\projects\paindrain\arduinolcd\test\pain drain\libraries\lvgl\src\misc\lv_color.h **** 
 127:c:\projects\paindrain\arduinolcd\test\pain drain\libraries\lvgl\src\misc\lv_color.h **** # define _LV_COLOR_ZERO_INITIALIZER8 {{0x00, 0x00, 0x00}}
 128:c:\projects\paindrain\arduinolcd\test\pain drain\libraries\lvgl\src\misc\lv_color.h **** # define LV_COLOR_MAKE8(r8, g8, b8) {{(uint8_t)((b8 >> 6) & 0x3U), (uint8_t)((g8 >> 5) & 0x7U), (ui
 129:c:\projects\paindrain\arduinolcd\test\pain drain\libraries\lvgl\src\misc\lv_color.h **** 
 130:c:\projects\paindrain\arduinolcd\test\pain drain\libraries\lvgl\src\misc\lv_color.h **** # define LV_COLOR_SET_R16(c, v) (c).ch.red = (uint8_t)((v) & 0x1FU)
 131:c:\projects\paindrain\arduinolcd\test\pain drain\libraries\lvgl\src\misc\lv_color.h **** #if LV_COLOR_16_SWAP == 0
 132:c:\projects\paindrain\arduinolcd\test\pain drain\libraries\lvgl\src\misc\lv_color.h **** # define LV_COLOR_SET_G16(c, v) (c).ch.green = (uint8_t)((v) & 0x3FU)
 133:c:\projects\paindrain\arduinolcd\test\pain drain\libraries\lvgl\src\misc\lv_color.h **** #else
 134:c:\projects\paindrain\arduinolcd\test\pain drain\libraries\lvgl\src\misc\lv_color.h **** # define LV_COLOR_SET_G16(c, v) {(c).ch.green_h = (uint8_t)(((v) >> 3) & 0x7); (c).ch.green_l = (ui
 135:c:\projects\paindrain\arduinolcd\test\pain drain\libraries\lvgl\src\misc\lv_color.h **** #endif
 136:c:\projects\paindrain\arduinolcd\test\pain drain\libraries\lvgl\src\misc\lv_color.h **** # define LV_COLOR_SET_B16(c, v) (c).ch.blue = (uint8_t)((v) & 0x1FU)
 137:c:\projects\paindrain\arduinolcd\test\pain drain\libraries\lvgl\src\misc\lv_color.h **** # define LV_COLOR_SET_A16(c, v) do {} while(0)
 138:c:\projects\paindrain\arduinolcd\test\pain drain\libraries\lvgl\src\misc\lv_color.h **** 
 139:c:\projects\paindrain\arduinolcd\test\pain drain\libraries\lvgl\src\misc\lv_color.h **** # define LV_COLOR_GET_R16(c) (c).ch.red
 140:c:\projects\paindrain\arduinolcd\test\pain drain\libraries\lvgl\src\misc\lv_color.h **** #if LV_COLOR_16_SWAP == 0
 141:c:\projects\paindrain\arduinolcd\test\pain drain\libraries\lvgl\src\misc\lv_color.h **** # define LV_COLOR_GET_G16(c) (c).ch.green
 142:c:\projects\paindrain\arduinolcd\test\pain drain\libraries\lvgl\src\misc\lv_color.h **** #else
 143:c:\projects\paindrain\arduinolcd\test\pain drain\libraries\lvgl\src\misc\lv_color.h **** # define LV_COLOR_GET_G16(c) (((c).ch.green_h << 3) + (c).ch.green_l)
 144:c:\projects\paindrain\arduinolcd\test\pain drain\libraries\lvgl\src\misc\lv_color.h **** #endif
ARM GAS  C:\Users\haske\AppData\Local\Temp\ccIkbvey.s 			page 23


 145:c:\projects\paindrain\arduinolcd\test\pain drain\libraries\lvgl\src\misc\lv_color.h **** # define LV_COLOR_GET_B16(c) (c).ch.blue
 146:c:\projects\paindrain\arduinolcd\test\pain drain\libraries\lvgl\src\misc\lv_color.h **** # define LV_COLOR_GET_A16(c) 0xFF
 147:c:\projects\paindrain\arduinolcd\test\pain drain\libraries\lvgl\src\misc\lv_color.h **** 
 148:c:\projects\paindrain\arduinolcd\test\pain drain\libraries\lvgl\src\misc\lv_color.h **** #if LV_COLOR_16_SWAP == 0
 149:c:\projects\paindrain\arduinolcd\test\pain drain\libraries\lvgl\src\misc\lv_color.h **** # define _LV_COLOR_ZERO_INITIALIZER16  {{0x00, 0x00, 0x00}}
 150:c:\projects\paindrain\arduinolcd\test\pain drain\libraries\lvgl\src\misc\lv_color.h **** # define LV_COLOR_MAKE16(r8, g8, b8) {{(uint8_t)((b8 >> 3) & 0x1FU), (uint8_t)((g8 >> 2) & 0x3FU), 
 151:c:\projects\paindrain\arduinolcd\test\pain drain\libraries\lvgl\src\misc\lv_color.h **** #else
 152:c:\projects\paindrain\arduinolcd\test\pain drain\libraries\lvgl\src\misc\lv_color.h **** # define _LV_COLOR_ZERO_INITIALIZER16 {{0x00, 0x00, 0x00, 0x00}}
 153:c:\projects\paindrain\arduinolcd\test\pain drain\libraries\lvgl\src\misc\lv_color.h **** # define LV_COLOR_MAKE16(r8, g8, b8) {{(uint8_t)((g8 >> 5) & 0x7U), (uint8_t)((r8 >> 3) & 0x1FU), (
 154:c:\projects\paindrain\arduinolcd\test\pain drain\libraries\lvgl\src\misc\lv_color.h **** #endif
 155:c:\projects\paindrain\arduinolcd\test\pain drain\libraries\lvgl\src\misc\lv_color.h **** 
 156:c:\projects\paindrain\arduinolcd\test\pain drain\libraries\lvgl\src\misc\lv_color.h **** # define LV_COLOR_SET_R32(c, v) (c).ch.red = (uint8_t)((v) & 0xFF)
 157:c:\projects\paindrain\arduinolcd\test\pain drain\libraries\lvgl\src\misc\lv_color.h **** # define LV_COLOR_SET_G32(c, v) (c).ch.green = (uint8_t)((v) & 0xFF)
 158:c:\projects\paindrain\arduinolcd\test\pain drain\libraries\lvgl\src\misc\lv_color.h **** # define LV_COLOR_SET_B32(c, v) (c).ch.blue = (uint8_t)((v) & 0xFF)
 159:c:\projects\paindrain\arduinolcd\test\pain drain\libraries\lvgl\src\misc\lv_color.h **** # define LV_COLOR_SET_A32(c, v) (c).ch.alpha = (uint8_t)((v) & 0xFF)
 160:c:\projects\paindrain\arduinolcd\test\pain drain\libraries\lvgl\src\misc\lv_color.h **** 
 161:c:\projects\paindrain\arduinolcd\test\pain drain\libraries\lvgl\src\misc\lv_color.h **** # define LV_COLOR_GET_R32(c) (c).ch.red
 162:c:\projects\paindrain\arduinolcd\test\pain drain\libraries\lvgl\src\misc\lv_color.h **** # define LV_COLOR_GET_G32(c) (c).ch.green
 163:c:\projects\paindrain\arduinolcd\test\pain drain\libraries\lvgl\src\misc\lv_color.h **** # define LV_COLOR_GET_B32(c) (c).ch.blue
 164:c:\projects\paindrain\arduinolcd\test\pain drain\libraries\lvgl\src\misc\lv_color.h **** # define LV_COLOR_GET_A32(c) (c).ch.alpha
 165:c:\projects\paindrain\arduinolcd\test\pain drain\libraries\lvgl\src\misc\lv_color.h **** 
 166:c:\projects\paindrain\arduinolcd\test\pain drain\libraries\lvgl\src\misc\lv_color.h **** # define _LV_COLOR_ZERO_INITIALIZER32  {{0x00, 0x00, 0x00, 0x00}}
 167:c:\projects\paindrain\arduinolcd\test\pain drain\libraries\lvgl\src\misc\lv_color.h **** # define LV_COLOR_MAKE32(r8, g8, b8) {{b8, g8, r8, 0xff}} /*Fix 0xff alpha*/
 168:c:\projects\paindrain\arduinolcd\test\pain drain\libraries\lvgl\src\misc\lv_color.h **** 
 169:c:\projects\paindrain\arduinolcd\test\pain drain\libraries\lvgl\src\misc\lv_color.h **** /*---------------------------------------
 170:c:\projects\paindrain\arduinolcd\test\pain drain\libraries\lvgl\src\misc\lv_color.h ****  * Macros for the current color depth
 171:c:\projects\paindrain\arduinolcd\test\pain drain\libraries\lvgl\src\misc\lv_color.h ****  * to set/get values of the color channels
 172:c:\projects\paindrain\arduinolcd\test\pain drain\libraries\lvgl\src\misc\lv_color.h ****  *------------------------------------------*/
 173:c:\projects\paindrain\arduinolcd\test\pain drain\libraries\lvgl\src\misc\lv_color.h **** #define LV_COLOR_SET_R(c, v) LV_CONCAT(LV_COLOR_SET_R, LV_COLOR_DEPTH)(c, v)
 174:c:\projects\paindrain\arduinolcd\test\pain drain\libraries\lvgl\src\misc\lv_color.h **** #define LV_COLOR_SET_G(c, v) LV_CONCAT(LV_COLOR_SET_G, LV_COLOR_DEPTH)(c, v)
 175:c:\projects\paindrain\arduinolcd\test\pain drain\libraries\lvgl\src\misc\lv_color.h **** #define LV_COLOR_SET_B(c, v) LV_CONCAT(LV_COLOR_SET_B, LV_COLOR_DEPTH)(c, v)
 176:c:\projects\paindrain\arduinolcd\test\pain drain\libraries\lvgl\src\misc\lv_color.h **** #define LV_COLOR_SET_A(c, v) LV_CONCAT(LV_COLOR_SET_A, LV_COLOR_DEPTH)(c, v)
 177:c:\projects\paindrain\arduinolcd\test\pain drain\libraries\lvgl\src\misc\lv_color.h **** 
 178:c:\projects\paindrain\arduinolcd\test\pain drain\libraries\lvgl\src\misc\lv_color.h **** #define LV_COLOR_GET_R(c) LV_CONCAT(LV_COLOR_GET_R, LV_COLOR_DEPTH)(c)
 179:c:\projects\paindrain\arduinolcd\test\pain drain\libraries\lvgl\src\misc\lv_color.h **** #define LV_COLOR_GET_G(c) LV_CONCAT(LV_COLOR_GET_G, LV_COLOR_DEPTH)(c)
 180:c:\projects\paindrain\arduinolcd\test\pain drain\libraries\lvgl\src\misc\lv_color.h **** #define LV_COLOR_GET_B(c) LV_CONCAT(LV_COLOR_GET_B, LV_COLOR_DEPTH)(c)
 181:c:\projects\paindrain\arduinolcd\test\pain drain\libraries\lvgl\src\misc\lv_color.h **** #define LV_COLOR_GET_A(c) LV_CONCAT(LV_COLOR_GET_A, LV_COLOR_DEPTH)(c)
 182:c:\projects\paindrain\arduinolcd\test\pain drain\libraries\lvgl\src\misc\lv_color.h **** 
 183:c:\projects\paindrain\arduinolcd\test\pain drain\libraries\lvgl\src\misc\lv_color.h **** #define _LV_COLOR_ZERO_INITIALIZER LV_CONCAT(_LV_COLOR_ZERO_INITIALIZER, LV_COLOR_DEPTH)
 184:c:\projects\paindrain\arduinolcd\test\pain drain\libraries\lvgl\src\misc\lv_color.h **** #define LV_COLOR_MAKE(r8, g8, b8) LV_CONCAT(LV_COLOR_MAKE, LV_COLOR_DEPTH)(r8, g8, b8)
 185:c:\projects\paindrain\arduinolcd\test\pain drain\libraries\lvgl\src\misc\lv_color.h **** 
 186:c:\projects\paindrain\arduinolcd\test\pain drain\libraries\lvgl\src\misc\lv_color.h **** /**********************
 187:c:\projects\paindrain\arduinolcd\test\pain drain\libraries\lvgl\src\misc\lv_color.h ****  *      TYPEDEFS
 188:c:\projects\paindrain\arduinolcd\test\pain drain\libraries\lvgl\src\misc\lv_color.h ****  **********************/
 189:c:\projects\paindrain\arduinolcd\test\pain drain\libraries\lvgl\src\misc\lv_color.h **** 
 190:c:\projects\paindrain\arduinolcd\test\pain drain\libraries\lvgl\src\misc\lv_color.h **** typedef union {
 191:c:\projects\paindrain\arduinolcd\test\pain drain\libraries\lvgl\src\misc\lv_color.h ****     uint8_t full; /*must be declared first to set all bits of byte via initializer list*/
 192:c:\projects\paindrain\arduinolcd\test\pain drain\libraries\lvgl\src\misc\lv_color.h ****     union {
 193:c:\projects\paindrain\arduinolcd\test\pain drain\libraries\lvgl\src\misc\lv_color.h ****         uint8_t blue : 1;
 194:c:\projects\paindrain\arduinolcd\test\pain drain\libraries\lvgl\src\misc\lv_color.h ****         uint8_t green : 1;
 195:c:\projects\paindrain\arduinolcd\test\pain drain\libraries\lvgl\src\misc\lv_color.h ****         uint8_t red : 1;
 196:c:\projects\paindrain\arduinolcd\test\pain drain\libraries\lvgl\src\misc\lv_color.h ****     } ch;
 197:c:\projects\paindrain\arduinolcd\test\pain drain\libraries\lvgl\src\misc\lv_color.h **** } lv_color1_t;
 198:c:\projects\paindrain\arduinolcd\test\pain drain\libraries\lvgl\src\misc\lv_color.h **** 
 199:c:\projects\paindrain\arduinolcd\test\pain drain\libraries\lvgl\src\misc\lv_color.h **** typedef union {
 200:c:\projects\paindrain\arduinolcd\test\pain drain\libraries\lvgl\src\misc\lv_color.h ****     struct {
 201:c:\projects\paindrain\arduinolcd\test\pain drain\libraries\lvgl\src\misc\lv_color.h ****         uint8_t blue : 2;
ARM GAS  C:\Users\haske\AppData\Local\Temp\ccIkbvey.s 			page 24


 202:c:\projects\paindrain\arduinolcd\test\pain drain\libraries\lvgl\src\misc\lv_color.h ****         uint8_t green : 3;
 203:c:\projects\paindrain\arduinolcd\test\pain drain\libraries\lvgl\src\misc\lv_color.h ****         uint8_t red : 3;
 204:c:\projects\paindrain\arduinolcd\test\pain drain\libraries\lvgl\src\misc\lv_color.h ****     } ch;
 205:c:\projects\paindrain\arduinolcd\test\pain drain\libraries\lvgl\src\misc\lv_color.h ****     uint8_t full;
 206:c:\projects\paindrain\arduinolcd\test\pain drain\libraries\lvgl\src\misc\lv_color.h **** } lv_color8_t;
 207:c:\projects\paindrain\arduinolcd\test\pain drain\libraries\lvgl\src\misc\lv_color.h **** 
 208:c:\projects\paindrain\arduinolcd\test\pain drain\libraries\lvgl\src\misc\lv_color.h **** typedef union {
 209:c:\projects\paindrain\arduinolcd\test\pain drain\libraries\lvgl\src\misc\lv_color.h ****     struct {
 210:c:\projects\paindrain\arduinolcd\test\pain drain\libraries\lvgl\src\misc\lv_color.h **** #if LV_COLOR_16_SWAP == 0
 211:c:\projects\paindrain\arduinolcd\test\pain drain\libraries\lvgl\src\misc\lv_color.h ****         uint16_t blue : 5;
 212:c:\projects\paindrain\arduinolcd\test\pain drain\libraries\lvgl\src\misc\lv_color.h ****         uint16_t green : 6;
 213:c:\projects\paindrain\arduinolcd\test\pain drain\libraries\lvgl\src\misc\lv_color.h ****         uint16_t red : 5;
 214:c:\projects\paindrain\arduinolcd\test\pain drain\libraries\lvgl\src\misc\lv_color.h **** #else
 215:c:\projects\paindrain\arduinolcd\test\pain drain\libraries\lvgl\src\misc\lv_color.h ****         uint16_t green_h : 3;
 216:c:\projects\paindrain\arduinolcd\test\pain drain\libraries\lvgl\src\misc\lv_color.h ****         uint16_t red : 5;
 217:c:\projects\paindrain\arduinolcd\test\pain drain\libraries\lvgl\src\misc\lv_color.h ****         uint16_t blue : 5;
 218:c:\projects\paindrain\arduinolcd\test\pain drain\libraries\lvgl\src\misc\lv_color.h ****         uint16_t green_l : 3;
 219:c:\projects\paindrain\arduinolcd\test\pain drain\libraries\lvgl\src\misc\lv_color.h **** #endif
 220:c:\projects\paindrain\arduinolcd\test\pain drain\libraries\lvgl\src\misc\lv_color.h ****     } ch;
 221:c:\projects\paindrain\arduinolcd\test\pain drain\libraries\lvgl\src\misc\lv_color.h ****     uint16_t full;
 222:c:\projects\paindrain\arduinolcd\test\pain drain\libraries\lvgl\src\misc\lv_color.h **** } lv_color16_t;
 223:c:\projects\paindrain\arduinolcd\test\pain drain\libraries\lvgl\src\misc\lv_color.h **** 
 224:c:\projects\paindrain\arduinolcd\test\pain drain\libraries\lvgl\src\misc\lv_color.h **** typedef union {
 225:c:\projects\paindrain\arduinolcd\test\pain drain\libraries\lvgl\src\misc\lv_color.h ****     struct {
 226:c:\projects\paindrain\arduinolcd\test\pain drain\libraries\lvgl\src\misc\lv_color.h ****         uint8_t blue;
 227:c:\projects\paindrain\arduinolcd\test\pain drain\libraries\lvgl\src\misc\lv_color.h ****         uint8_t green;
 228:c:\projects\paindrain\arduinolcd\test\pain drain\libraries\lvgl\src\misc\lv_color.h ****         uint8_t red;
 229:c:\projects\paindrain\arduinolcd\test\pain drain\libraries\lvgl\src\misc\lv_color.h ****         uint8_t alpha;
 230:c:\projects\paindrain\arduinolcd\test\pain drain\libraries\lvgl\src\misc\lv_color.h ****     } ch;
 231:c:\projects\paindrain\arduinolcd\test\pain drain\libraries\lvgl\src\misc\lv_color.h ****     uint32_t full;
 232:c:\projects\paindrain\arduinolcd\test\pain drain\libraries\lvgl\src\misc\lv_color.h **** } lv_color32_t;
 233:c:\projects\paindrain\arduinolcd\test\pain drain\libraries\lvgl\src\misc\lv_color.h **** 
 234:c:\projects\paindrain\arduinolcd\test\pain drain\libraries\lvgl\src\misc\lv_color.h **** typedef LV_CONCAT3(uint, LV_COLOR_SIZE, _t) lv_color_int_t;
 235:c:\projects\paindrain\arduinolcd\test\pain drain\libraries\lvgl\src\misc\lv_color.h **** typedef LV_CONCAT3(lv_color, LV_COLOR_DEPTH, _t) lv_color_t;
 236:c:\projects\paindrain\arduinolcd\test\pain drain\libraries\lvgl\src\misc\lv_color.h **** 
 237:c:\projects\paindrain\arduinolcd\test\pain drain\libraries\lvgl\src\misc\lv_color.h **** typedef struct {
 238:c:\projects\paindrain\arduinolcd\test\pain drain\libraries\lvgl\src\misc\lv_color.h ****     uint16_t h;
 239:c:\projects\paindrain\arduinolcd\test\pain drain\libraries\lvgl\src\misc\lv_color.h ****     uint8_t s;
 240:c:\projects\paindrain\arduinolcd\test\pain drain\libraries\lvgl\src\misc\lv_color.h ****     uint8_t v;
 241:c:\projects\paindrain\arduinolcd\test\pain drain\libraries\lvgl\src\misc\lv_color.h **** } lv_color_hsv_t;
 242:c:\projects\paindrain\arduinolcd\test\pain drain\libraries\lvgl\src\misc\lv_color.h **** 
 243:c:\projects\paindrain\arduinolcd\test\pain drain\libraries\lvgl\src\misc\lv_color.h **** //! @cond Doxygen_Suppress
 244:c:\projects\paindrain\arduinolcd\test\pain drain\libraries\lvgl\src\misc\lv_color.h **** /*No idea where the guard is required but else throws warnings in the docs*/
 245:c:\projects\paindrain\arduinolcd\test\pain drain\libraries\lvgl\src\misc\lv_color.h **** typedef uint8_t lv_opa_t;
 246:c:\projects\paindrain\arduinolcd\test\pain drain\libraries\lvgl\src\misc\lv_color.h **** //! @endcond
 247:c:\projects\paindrain\arduinolcd\test\pain drain\libraries\lvgl\src\misc\lv_color.h **** 
 248:c:\projects\paindrain\arduinolcd\test\pain drain\libraries\lvgl\src\misc\lv_color.h **** struct _lv_color_filter_dsc_t;
 249:c:\projects\paindrain\arduinolcd\test\pain drain\libraries\lvgl\src\misc\lv_color.h **** 
 250:c:\projects\paindrain\arduinolcd\test\pain drain\libraries\lvgl\src\misc\lv_color.h **** typedef lv_color_t (*lv_color_filter_cb_t)(const struct _lv_color_filter_dsc_t *, lv_color_t, lv_op
 251:c:\projects\paindrain\arduinolcd\test\pain drain\libraries\lvgl\src\misc\lv_color.h **** 
 252:c:\projects\paindrain\arduinolcd\test\pain drain\libraries\lvgl\src\misc\lv_color.h **** typedef struct _lv_color_filter_dsc_t {
 253:c:\projects\paindrain\arduinolcd\test\pain drain\libraries\lvgl\src\misc\lv_color.h ****     lv_color_filter_cb_t filter_cb;
 254:c:\projects\paindrain\arduinolcd\test\pain drain\libraries\lvgl\src\misc\lv_color.h ****     void * user_data;
 255:c:\projects\paindrain\arduinolcd\test\pain drain\libraries\lvgl\src\misc\lv_color.h **** } lv_color_filter_dsc_t;
 256:c:\projects\paindrain\arduinolcd\test\pain drain\libraries\lvgl\src\misc\lv_color.h **** 
 257:c:\projects\paindrain\arduinolcd\test\pain drain\libraries\lvgl\src\misc\lv_color.h **** 
 258:c:\projects\paindrain\arduinolcd\test\pain drain\libraries\lvgl\src\misc\lv_color.h **** typedef enum {
ARM GAS  C:\Users\haske\AppData\Local\Temp\ccIkbvey.s 			page 25


 259:c:\projects\paindrain\arduinolcd\test\pain drain\libraries\lvgl\src\misc\lv_color.h ****     LV_PALETTE_RED,
 260:c:\projects\paindrain\arduinolcd\test\pain drain\libraries\lvgl\src\misc\lv_color.h ****     LV_PALETTE_PINK,
 261:c:\projects\paindrain\arduinolcd\test\pain drain\libraries\lvgl\src\misc\lv_color.h ****     LV_PALETTE_PURPLE,
 262:c:\projects\paindrain\arduinolcd\test\pain drain\libraries\lvgl\src\misc\lv_color.h ****     LV_PALETTE_DEEP_PURPLE,
 263:c:\projects\paindrain\arduinolcd\test\pain drain\libraries\lvgl\src\misc\lv_color.h ****     LV_PALETTE_INDIGO,
 264:c:\projects\paindrain\arduinolcd\test\pain drain\libraries\lvgl\src\misc\lv_color.h ****     LV_PALETTE_BLUE,
 265:c:\projects\paindrain\arduinolcd\test\pain drain\libraries\lvgl\src\misc\lv_color.h ****     LV_PALETTE_LIGHT_BLUE,
 266:c:\projects\paindrain\arduinolcd\test\pain drain\libraries\lvgl\src\misc\lv_color.h ****     LV_PALETTE_CYAN,
 267:c:\projects\paindrain\arduinolcd\test\pain drain\libraries\lvgl\src\misc\lv_color.h ****     LV_PALETTE_TEAL,
 268:c:\projects\paindrain\arduinolcd\test\pain drain\libraries\lvgl\src\misc\lv_color.h ****     LV_PALETTE_GREEN,
 269:c:\projects\paindrain\arduinolcd\test\pain drain\libraries\lvgl\src\misc\lv_color.h ****     LV_PALETTE_LIGHT_GREEN,
 270:c:\projects\paindrain\arduinolcd\test\pain drain\libraries\lvgl\src\misc\lv_color.h ****     LV_PALETTE_LIME,
 271:c:\projects\paindrain\arduinolcd\test\pain drain\libraries\lvgl\src\misc\lv_color.h ****     LV_PALETTE_YELLOW,
 272:c:\projects\paindrain\arduinolcd\test\pain drain\libraries\lvgl\src\misc\lv_color.h ****     LV_PALETTE_AMBER,
 273:c:\projects\paindrain\arduinolcd\test\pain drain\libraries\lvgl\src\misc\lv_color.h ****     LV_PALETTE_ORANGE,
 274:c:\projects\paindrain\arduinolcd\test\pain drain\libraries\lvgl\src\misc\lv_color.h ****     LV_PALETTE_DEEP_ORANGE,
 275:c:\projects\paindrain\arduinolcd\test\pain drain\libraries\lvgl\src\misc\lv_color.h ****     LV_PALETTE_BROWN,
 276:c:\projects\paindrain\arduinolcd\test\pain drain\libraries\lvgl\src\misc\lv_color.h ****     LV_PALETTE_BLUE_GREY,
 277:c:\projects\paindrain\arduinolcd\test\pain drain\libraries\lvgl\src\misc\lv_color.h ****     LV_PALETTE_GREY,
 278:c:\projects\paindrain\arduinolcd\test\pain drain\libraries\lvgl\src\misc\lv_color.h ****     _LV_PALETTE_LAST,
 279:c:\projects\paindrain\arduinolcd\test\pain drain\libraries\lvgl\src\misc\lv_color.h ****     LV_PALETTE_NONE = 0xff,
 280:c:\projects\paindrain\arduinolcd\test\pain drain\libraries\lvgl\src\misc\lv_color.h **** } lv_palette_t;
 281:c:\projects\paindrain\arduinolcd\test\pain drain\libraries\lvgl\src\misc\lv_color.h **** 
 282:c:\projects\paindrain\arduinolcd\test\pain drain\libraries\lvgl\src\misc\lv_color.h **** /**********************
 283:c:\projects\paindrain\arduinolcd\test\pain drain\libraries\lvgl\src\misc\lv_color.h ****  * GLOBAL PROTOTYPES
 284:c:\projects\paindrain\arduinolcd\test\pain drain\libraries\lvgl\src\misc\lv_color.h ****  **********************/
 285:c:\projects\paindrain\arduinolcd\test\pain drain\libraries\lvgl\src\misc\lv_color.h **** 
 286:c:\projects\paindrain\arduinolcd\test\pain drain\libraries\lvgl\src\misc\lv_color.h **** /*In color conversations:
 287:c:\projects\paindrain\arduinolcd\test\pain drain\libraries\lvgl\src\misc\lv_color.h ****  * - When converting to bigger color type the LSB weight of 1 LSB is calculated
 288:c:\projects\paindrain\arduinolcd\test\pain drain\libraries\lvgl\src\misc\lv_color.h ****  *   E.g. 16 bit Red has 5 bits
 289:c:\projects\paindrain\arduinolcd\test\pain drain\libraries\lvgl\src\misc\lv_color.h ****  *         8 bit Red has 3 bits
 290:c:\projects\paindrain\arduinolcd\test\pain drain\libraries\lvgl\src\misc\lv_color.h ****  *        ----------------------
 291:c:\projects\paindrain\arduinolcd\test\pain drain\libraries\lvgl\src\misc\lv_color.h ****  *        8 bit red LSB = (2^5 - 1) / (2^3 - 1) = 31 / 7 = 4
 292:c:\projects\paindrain\arduinolcd\test\pain drain\libraries\lvgl\src\misc\lv_color.h ****  *
 293:c:\projects\paindrain\arduinolcd\test\pain drain\libraries\lvgl\src\misc\lv_color.h ****  * - When calculating to smaller color type simply shift out the LSBs
 294:c:\projects\paindrain\arduinolcd\test\pain drain\libraries\lvgl\src\misc\lv_color.h ****  *   E.g.  8 bit Red has 3 bits
 295:c:\projects\paindrain\arduinolcd\test\pain drain\libraries\lvgl\src\misc\lv_color.h ****  *        16 bit Red has 5 bits
 296:c:\projects\paindrain\arduinolcd\test\pain drain\libraries\lvgl\src\misc\lv_color.h ****  *        ----------------------
 297:c:\projects\paindrain\arduinolcd\test\pain drain\libraries\lvgl\src\misc\lv_color.h ****  *         Shift right with 5 - 3 = 2
 298:c:\projects\paindrain\arduinolcd\test\pain drain\libraries\lvgl\src\misc\lv_color.h ****  */
 299:c:\projects\paindrain\arduinolcd\test\pain drain\libraries\lvgl\src\misc\lv_color.h **** static inline uint8_t lv_color_to1(lv_color_t color)
 300:c:\projects\paindrain\arduinolcd\test\pain drain\libraries\lvgl\src\misc\lv_color.h **** {
 301:c:\projects\paindrain\arduinolcd\test\pain drain\libraries\lvgl\src\misc\lv_color.h **** #if LV_COLOR_DEPTH == 1
 302:c:\projects\paindrain\arduinolcd\test\pain drain\libraries\lvgl\src\misc\lv_color.h ****     return color.full;
 303:c:\projects\paindrain\arduinolcd\test\pain drain\libraries\lvgl\src\misc\lv_color.h **** #elif LV_COLOR_DEPTH == 8
 304:c:\projects\paindrain\arduinolcd\test\pain drain\libraries\lvgl\src\misc\lv_color.h ****     if((LV_COLOR_GET_R(color) & 0x4) || (LV_COLOR_GET_G(color) & 0x4) || (LV_COLOR_GET_B(color) & 0
 305:c:\projects\paindrain\arduinolcd\test\pain drain\libraries\lvgl\src\misc\lv_color.h ****         return 1;
 306:c:\projects\paindrain\arduinolcd\test\pain drain\libraries\lvgl\src\misc\lv_color.h ****     }
 307:c:\projects\paindrain\arduinolcd\test\pain drain\libraries\lvgl\src\misc\lv_color.h ****     else {
 308:c:\projects\paindrain\arduinolcd\test\pain drain\libraries\lvgl\src\misc\lv_color.h ****         return 0;
 309:c:\projects\paindrain\arduinolcd\test\pain drain\libraries\lvgl\src\misc\lv_color.h ****     }
 310:c:\projects\paindrain\arduinolcd\test\pain drain\libraries\lvgl\src\misc\lv_color.h **** #elif LV_COLOR_DEPTH == 16
 311:c:\projects\paindrain\arduinolcd\test\pain drain\libraries\lvgl\src\misc\lv_color.h ****     if((LV_COLOR_GET_R(color) & 0x10) || (LV_COLOR_GET_G(color) & 0x20) || (LV_COLOR_GET_B(color) &
 312:c:\projects\paindrain\arduinolcd\test\pain drain\libraries\lvgl\src\misc\lv_color.h ****         return 1;
 313:c:\projects\paindrain\arduinolcd\test\pain drain\libraries\lvgl\src\misc\lv_color.h ****     }
 314:c:\projects\paindrain\arduinolcd\test\pain drain\libraries\lvgl\src\misc\lv_color.h ****     else {
 315:c:\projects\paindrain\arduinolcd\test\pain drain\libraries\lvgl\src\misc\lv_color.h ****         return 0;
ARM GAS  C:\Users\haske\AppData\Local\Temp\ccIkbvey.s 			page 26


 316:c:\projects\paindrain\arduinolcd\test\pain drain\libraries\lvgl\src\misc\lv_color.h ****     }
 317:c:\projects\paindrain\arduinolcd\test\pain drain\libraries\lvgl\src\misc\lv_color.h **** #elif LV_COLOR_DEPTH == 32
 318:c:\projects\paindrain\arduinolcd\test\pain drain\libraries\lvgl\src\misc\lv_color.h ****     if((LV_COLOR_GET_R(color) & 0x80) || (LV_COLOR_GET_G(color) & 0x80) || (LV_COLOR_GET_B(color) &
 319:c:\projects\paindrain\arduinolcd\test\pain drain\libraries\lvgl\src\misc\lv_color.h ****         return 1;
 320:c:\projects\paindrain\arduinolcd\test\pain drain\libraries\lvgl\src\misc\lv_color.h ****     }
 321:c:\projects\paindrain\arduinolcd\test\pain drain\libraries\lvgl\src\misc\lv_color.h ****     else {
 322:c:\projects\paindrain\arduinolcd\test\pain drain\libraries\lvgl\src\misc\lv_color.h ****         return 0;
 323:c:\projects\paindrain\arduinolcd\test\pain drain\libraries\lvgl\src\misc\lv_color.h ****     }
 324:c:\projects\paindrain\arduinolcd\test\pain drain\libraries\lvgl\src\misc\lv_color.h **** #endif
 325:c:\projects\paindrain\arduinolcd\test\pain drain\libraries\lvgl\src\misc\lv_color.h **** }
 326:c:\projects\paindrain\arduinolcd\test\pain drain\libraries\lvgl\src\misc\lv_color.h **** 
 327:c:\projects\paindrain\arduinolcd\test\pain drain\libraries\lvgl\src\misc\lv_color.h **** static inline uint8_t lv_color_to8(lv_color_t color)
 328:c:\projects\paindrain\arduinolcd\test\pain drain\libraries\lvgl\src\misc\lv_color.h **** {
 329:c:\projects\paindrain\arduinolcd\test\pain drain\libraries\lvgl\src\misc\lv_color.h **** #if LV_COLOR_DEPTH == 1
 330:c:\projects\paindrain\arduinolcd\test\pain drain\libraries\lvgl\src\misc\lv_color.h ****     if(color.full == 0)
 331:c:\projects\paindrain\arduinolcd\test\pain drain\libraries\lvgl\src\misc\lv_color.h ****         return 0;
 332:c:\projects\paindrain\arduinolcd\test\pain drain\libraries\lvgl\src\misc\lv_color.h ****     else
 333:c:\projects\paindrain\arduinolcd\test\pain drain\libraries\lvgl\src\misc\lv_color.h ****         return 0xFF;
 334:c:\projects\paindrain\arduinolcd\test\pain drain\libraries\lvgl\src\misc\lv_color.h **** #elif LV_COLOR_DEPTH == 8
 335:c:\projects\paindrain\arduinolcd\test\pain drain\libraries\lvgl\src\misc\lv_color.h ****     return color.full;
 336:c:\projects\paindrain\arduinolcd\test\pain drain\libraries\lvgl\src\misc\lv_color.h **** #elif LV_COLOR_DEPTH == 16
 337:c:\projects\paindrain\arduinolcd\test\pain drain\libraries\lvgl\src\misc\lv_color.h ****     lv_color8_t ret;
 338:c:\projects\paindrain\arduinolcd\test\pain drain\libraries\lvgl\src\misc\lv_color.h ****     LV_COLOR_SET_R8(ret, LV_COLOR_GET_R(color) >> 2); /*5 - 3  = 2*/
 339:c:\projects\paindrain\arduinolcd\test\pain drain\libraries\lvgl\src\misc\lv_color.h ****     LV_COLOR_SET_G8(ret, LV_COLOR_GET_G(color) >> 3); /*6 - 3  = 3*/
 340:c:\projects\paindrain\arduinolcd\test\pain drain\libraries\lvgl\src\misc\lv_color.h ****     LV_COLOR_SET_B8(ret, LV_COLOR_GET_B(color) >> 3); /*5 - 2  = 3*/
 341:c:\projects\paindrain\arduinolcd\test\pain drain\libraries\lvgl\src\misc\lv_color.h ****     return ret.full;
 342:c:\projects\paindrain\arduinolcd\test\pain drain\libraries\lvgl\src\misc\lv_color.h **** #elif LV_COLOR_DEPTH == 32
 343:c:\projects\paindrain\arduinolcd\test\pain drain\libraries\lvgl\src\misc\lv_color.h ****     lv_color8_t ret;
 344:c:\projects\paindrain\arduinolcd\test\pain drain\libraries\lvgl\src\misc\lv_color.h ****     LV_COLOR_SET_R8(ret, LV_COLOR_GET_R(color) >> 5); /*8 - 3  = 5*/
 345:c:\projects\paindrain\arduinolcd\test\pain drain\libraries\lvgl\src\misc\lv_color.h ****     LV_COLOR_SET_G8(ret, LV_COLOR_GET_G(color) >> 5); /*8 - 3  = 5*/
 346:c:\projects\paindrain\arduinolcd\test\pain drain\libraries\lvgl\src\misc\lv_color.h ****     LV_COLOR_SET_B8(ret, LV_COLOR_GET_B(color) >> 6); /*8 - 2  = 6*/
 347:c:\projects\paindrain\arduinolcd\test\pain drain\libraries\lvgl\src\misc\lv_color.h ****     return ret.full;
 348:c:\projects\paindrain\arduinolcd\test\pain drain\libraries\lvgl\src\misc\lv_color.h **** #endif
 349:c:\projects\paindrain\arduinolcd\test\pain drain\libraries\lvgl\src\misc\lv_color.h **** }
 350:c:\projects\paindrain\arduinolcd\test\pain drain\libraries\lvgl\src\misc\lv_color.h **** 
 351:c:\projects\paindrain\arduinolcd\test\pain drain\libraries\lvgl\src\misc\lv_color.h **** static inline uint16_t lv_color_to16(lv_color_t color)
 352:c:\projects\paindrain\arduinolcd\test\pain drain\libraries\lvgl\src\misc\lv_color.h **** {
 353:c:\projects\paindrain\arduinolcd\test\pain drain\libraries\lvgl\src\misc\lv_color.h **** #if LV_COLOR_DEPTH == 1
 354:c:\projects\paindrain\arduinolcd\test\pain drain\libraries\lvgl\src\misc\lv_color.h ****     if(color.full == 0)
 355:c:\projects\paindrain\arduinolcd\test\pain drain\libraries\lvgl\src\misc\lv_color.h ****         return 0;
 356:c:\projects\paindrain\arduinolcd\test\pain drain\libraries\lvgl\src\misc\lv_color.h ****     else
 357:c:\projects\paindrain\arduinolcd\test\pain drain\libraries\lvgl\src\misc\lv_color.h ****         return 0xFFFF;
 358:c:\projects\paindrain\arduinolcd\test\pain drain\libraries\lvgl\src\misc\lv_color.h **** #elif LV_COLOR_DEPTH == 8
 359:c:\projects\paindrain\arduinolcd\test\pain drain\libraries\lvgl\src\misc\lv_color.h ****     lv_color16_t ret;
 360:c:\projects\paindrain\arduinolcd\test\pain drain\libraries\lvgl\src\misc\lv_color.h ****     LV_COLOR_SET_R16(ret, LV_COLOR_GET_R(color) * 4);  /*(2^5 - 1)/(2^3 - 1) = 31/7 = 4*/
 361:c:\projects\paindrain\arduinolcd\test\pain drain\libraries\lvgl\src\misc\lv_color.h ****     LV_COLOR_SET_G16(ret, LV_COLOR_GET_G(color) * 9);  /*(2^6 - 1)/(2^3 - 1) = 63/7 = 9*/
 362:c:\projects\paindrain\arduinolcd\test\pain drain\libraries\lvgl\src\misc\lv_color.h ****     LV_COLOR_SET_B16(ret, LV_COLOR_GET_B(color) * 10); /*(2^5 - 1)/(2^2 - 1) = 31/3 = 10*/
 363:c:\projects\paindrain\arduinolcd\test\pain drain\libraries\lvgl\src\misc\lv_color.h ****     return ret.full;
 364:c:\projects\paindrain\arduinolcd\test\pain drain\libraries\lvgl\src\misc\lv_color.h **** #elif LV_COLOR_DEPTH == 16
 365:c:\projects\paindrain\arduinolcd\test\pain drain\libraries\lvgl\src\misc\lv_color.h ****     return color.full;
 366:c:\projects\paindrain\arduinolcd\test\pain drain\libraries\lvgl\src\misc\lv_color.h **** #elif LV_COLOR_DEPTH == 32
 367:c:\projects\paindrain\arduinolcd\test\pain drain\libraries\lvgl\src\misc\lv_color.h ****     lv_color16_t ret;
 368:c:\projects\paindrain\arduinolcd\test\pain drain\libraries\lvgl\src\misc\lv_color.h ****     LV_COLOR_SET_R16(ret, LV_COLOR_GET_R(color) >> 3); /*8 - 5  = 3*/
 369:c:\projects\paindrain\arduinolcd\test\pain drain\libraries\lvgl\src\misc\lv_color.h ****     LV_COLOR_SET_G16(ret, LV_COLOR_GET_G(color) >> 2); /*8 - 6  = 2*/
 370:c:\projects\paindrain\arduinolcd\test\pain drain\libraries\lvgl\src\misc\lv_color.h ****     LV_COLOR_SET_B16(ret, LV_COLOR_GET_B(color) >> 3); /*8 - 5  = 3*/
 371:c:\projects\paindrain\arduinolcd\test\pain drain\libraries\lvgl\src\misc\lv_color.h ****     return ret.full;
 372:c:\projects\paindrain\arduinolcd\test\pain drain\libraries\lvgl\src\misc\lv_color.h **** #endif
ARM GAS  C:\Users\haske\AppData\Local\Temp\ccIkbvey.s 			page 27


 373:c:\projects\paindrain\arduinolcd\test\pain drain\libraries\lvgl\src\misc\lv_color.h **** }
 374:c:\projects\paindrain\arduinolcd\test\pain drain\libraries\lvgl\src\misc\lv_color.h **** 
 375:c:\projects\paindrain\arduinolcd\test\pain drain\libraries\lvgl\src\misc\lv_color.h **** static inline uint32_t lv_color_to32(lv_color_t color)
 376:c:\projects\paindrain\arduinolcd\test\pain drain\libraries\lvgl\src\misc\lv_color.h **** {
 377:c:\projects\paindrain\arduinolcd\test\pain drain\libraries\lvgl\src\misc\lv_color.h **** #if LV_COLOR_DEPTH == 1
 378:c:\projects\paindrain\arduinolcd\test\pain drain\libraries\lvgl\src\misc\lv_color.h ****     if(color.full == 0)
 379:c:\projects\paindrain\arduinolcd\test\pain drain\libraries\lvgl\src\misc\lv_color.h ****         return 0xFF000000;
 380:c:\projects\paindrain\arduinolcd\test\pain drain\libraries\lvgl\src\misc\lv_color.h ****     else
 381:c:\projects\paindrain\arduinolcd\test\pain drain\libraries\lvgl\src\misc\lv_color.h ****         return 0xFFFFFFFF;
 382:c:\projects\paindrain\arduinolcd\test\pain drain\libraries\lvgl\src\misc\lv_color.h **** #elif LV_COLOR_DEPTH == 8
 383:c:\projects\paindrain\arduinolcd\test\pain drain\libraries\lvgl\src\misc\lv_color.h ****     lv_color32_t ret;
 384:c:\projects\paindrain\arduinolcd\test\pain drain\libraries\lvgl\src\misc\lv_color.h ****     LV_COLOR_SET_R32(ret, LV_COLOR_GET_R(color) * 36); /*(2^8 - 1)/(2^3 - 1) = 255/7 = 36*/
 385:c:\projects\paindrain\arduinolcd\test\pain drain\libraries\lvgl\src\misc\lv_color.h ****     LV_COLOR_SET_G32(ret, LV_COLOR_GET_G(color) * 36); /*(2^8 - 1)/(2^3 - 1) = 255/7 = 36*/
 386:c:\projects\paindrain\arduinolcd\test\pain drain\libraries\lvgl\src\misc\lv_color.h ****     LV_COLOR_SET_B32(ret, LV_COLOR_GET_B(color) * 85); /*(2^8 - 1)/(2^2 - 1) = 255/3 = 85*/
 387:c:\projects\paindrain\arduinolcd\test\pain drain\libraries\lvgl\src\misc\lv_color.h ****     LV_COLOR_SET_A32(ret, 0xFF);
 388:c:\projects\paindrain\arduinolcd\test\pain drain\libraries\lvgl\src\misc\lv_color.h ****     return ret.full;
 389:c:\projects\paindrain\arduinolcd\test\pain drain\libraries\lvgl\src\misc\lv_color.h **** #elif LV_COLOR_DEPTH == 16
 390:c:\projects\paindrain\arduinolcd\test\pain drain\libraries\lvgl\src\misc\lv_color.h ****     /**
 391:c:\projects\paindrain\arduinolcd\test\pain drain\libraries\lvgl\src\misc\lv_color.h ****      * The floating point math for conversion is:
 392:c:\projects\paindrain\arduinolcd\test\pain drain\libraries\lvgl\src\misc\lv_color.h ****      *  valueto = valuefrom * ( (2^bitsto - 1) / (float)(2^bitsfrom - 1) )
 393:c:\projects\paindrain\arduinolcd\test\pain drain\libraries\lvgl\src\misc\lv_color.h ****      * The faster integer math for conversion is:
 394:c:\projects\paindrain\arduinolcd\test\pain drain\libraries\lvgl\src\misc\lv_color.h ****      *  valueto = ( valuefrom * multiplier + adder ) >> divisor
 395:c:\projects\paindrain\arduinolcd\test\pain drain\libraries\lvgl\src\misc\lv_color.h ****      *   multiplier = FLOOR( ( (2^bitsto - 1) << divisor ) / (float)(2^bitsfrom - 1) )
 396:c:\projects\paindrain\arduinolcd\test\pain drain\libraries\lvgl\src\misc\lv_color.h ****      *
 397:c:\projects\paindrain\arduinolcd\test\pain drain\libraries\lvgl\src\misc\lv_color.h ****      * Find the first divisor where ( adder >> divisor ) <= 0
 398:c:\projects\paindrain\arduinolcd\test\pain drain\libraries\lvgl\src\misc\lv_color.h ****      *
 399:c:\projects\paindrain\arduinolcd\test\pain drain\libraries\lvgl\src\misc\lv_color.h ****      * 5-bit to 8-bit: ( 31 * multiplier + adder ) >> divisor = 255
 400:c:\projects\paindrain\arduinolcd\test\pain drain\libraries\lvgl\src\misc\lv_color.h ****      * divisor  multiplier  adder  min (0)  max (31)
 401:c:\projects\paindrain\arduinolcd\test\pain drain\libraries\lvgl\src\misc\lv_color.h ****      *       0           8      7        7       255
 402:c:\projects\paindrain\arduinolcd\test\pain drain\libraries\lvgl\src\misc\lv_color.h ****      *       1          16     14        7       255
 403:c:\projects\paindrain\arduinolcd\test\pain drain\libraries\lvgl\src\misc\lv_color.h ****      *       2          32     28        7       255
 404:c:\projects\paindrain\arduinolcd\test\pain drain\libraries\lvgl\src\misc\lv_color.h ****      *       3          65     25        3       255
 405:c:\projects\paindrain\arduinolcd\test\pain drain\libraries\lvgl\src\misc\lv_color.h ****      *       4         131     19        1       255
 406:c:\projects\paindrain\arduinolcd\test\pain drain\libraries\lvgl\src\misc\lv_color.h ****      *       5         263      7        0       255
 407:c:\projects\paindrain\arduinolcd\test\pain drain\libraries\lvgl\src\misc\lv_color.h ****      *
 408:c:\projects\paindrain\arduinolcd\test\pain drain\libraries\lvgl\src\misc\lv_color.h ****      * 6-bit to 8-bit: 255 = ( 63 * multiplier + adder ) >> divisor
 409:c:\projects\paindrain\arduinolcd\test\pain drain\libraries\lvgl\src\misc\lv_color.h ****      * divisor  multiplier  adder  min (0)  max (63)
 410:c:\projects\paindrain\arduinolcd\test\pain drain\libraries\lvgl\src\misc\lv_color.h ****      *       0           4      3        3       255
 411:c:\projects\paindrain\arduinolcd\test\pain drain\libraries\lvgl\src\misc\lv_color.h ****      *       1           8      6        3       255
 412:c:\projects\paindrain\arduinolcd\test\pain drain\libraries\lvgl\src\misc\lv_color.h ****      *       2          16     12        3       255
 413:c:\projects\paindrain\arduinolcd\test\pain drain\libraries\lvgl\src\misc\lv_color.h ****      *       3          32     24        3       255
 414:c:\projects\paindrain\arduinolcd\test\pain drain\libraries\lvgl\src\misc\lv_color.h ****      *       4          64     48        3       255
 415:c:\projects\paindrain\arduinolcd\test\pain drain\libraries\lvgl\src\misc\lv_color.h ****      *       5         129     33        1       255
 416:c:\projects\paindrain\arduinolcd\test\pain drain\libraries\lvgl\src\misc\lv_color.h ****      *       6         259      3        0       255
 417:c:\projects\paindrain\arduinolcd\test\pain drain\libraries\lvgl\src\misc\lv_color.h ****      */
 418:c:\projects\paindrain\arduinolcd\test\pain drain\libraries\lvgl\src\misc\lv_color.h **** 
 419:c:\projects\paindrain\arduinolcd\test\pain drain\libraries\lvgl\src\misc\lv_color.h ****     lv_color32_t ret;
 420:c:\projects\paindrain\arduinolcd\test\pain drain\libraries\lvgl\src\misc\lv_color.h ****     LV_COLOR_SET_R32(ret, (LV_COLOR_GET_R(color) * 263 + 7) >> 5);
 421:c:\projects\paindrain\arduinolcd\test\pain drain\libraries\lvgl\src\misc\lv_color.h ****     LV_COLOR_SET_G32(ret, (LV_COLOR_GET_G(color) * 259 + 3) >> 6);
 422:c:\projects\paindrain\arduinolcd\test\pain drain\libraries\lvgl\src\misc\lv_color.h ****     LV_COLOR_SET_B32(ret, (LV_COLOR_GET_B(color) * 263 + 7) >> 5);
 423:c:\projects\paindrain\arduinolcd\test\pain drain\libraries\lvgl\src\misc\lv_color.h ****     LV_COLOR_SET_A32(ret, 0xFF);
 424:c:\projects\paindrain\arduinolcd\test\pain drain\libraries\lvgl\src\misc\lv_color.h ****     return ret.full;
 425:c:\projects\paindrain\arduinolcd\test\pain drain\libraries\lvgl\src\misc\lv_color.h **** #elif LV_COLOR_DEPTH == 32
 426:c:\projects\paindrain\arduinolcd\test\pain drain\libraries\lvgl\src\misc\lv_color.h ****     return color.full;
 427:c:\projects\paindrain\arduinolcd\test\pain drain\libraries\lvgl\src\misc\lv_color.h **** #endif
 428:c:\projects\paindrain\arduinolcd\test\pain drain\libraries\lvgl\src\misc\lv_color.h **** }
 429:c:\projects\paindrain\arduinolcd\test\pain drain\libraries\lvgl\src\misc\lv_color.h **** 
ARM GAS  C:\Users\haske\AppData\Local\Temp\ccIkbvey.s 			page 28


 430:c:\projects\paindrain\arduinolcd\test\pain drain\libraries\lvgl\src\misc\lv_color.h **** //! @cond Doxygen_Suppress
 431:c:\projects\paindrain\arduinolcd\test\pain drain\libraries\lvgl\src\misc\lv_color.h **** 
 432:c:\projects\paindrain\arduinolcd\test\pain drain\libraries\lvgl\src\misc\lv_color.h **** /**
 433:c:\projects\paindrain\arduinolcd\test\pain drain\libraries\lvgl\src\misc\lv_color.h ****  * Mix two colors with a given ratio.
 434:c:\projects\paindrain\arduinolcd\test\pain drain\libraries\lvgl\src\misc\lv_color.h ****  * @param c1 the first color to mix (usually the foreground)
 435:c:\projects\paindrain\arduinolcd\test\pain drain\libraries\lvgl\src\misc\lv_color.h ****  * @param c2 the second color to mix (usually the background)
 436:c:\projects\paindrain\arduinolcd\test\pain drain\libraries\lvgl\src\misc\lv_color.h ****  * @param mix The ratio of the colors. 0: full `c2`, 255: full `c1`, 127: half `c1` and half`c2`
 437:c:\projects\paindrain\arduinolcd\test\pain drain\libraries\lvgl\src\misc\lv_color.h ****  * @return the mixed color
 438:c:\projects\paindrain\arduinolcd\test\pain drain\libraries\lvgl\src\misc\lv_color.h ****  */
 439:c:\projects\paindrain\arduinolcd\test\pain drain\libraries\lvgl\src\misc\lv_color.h **** LV_ATTRIBUTE_FAST_MEM static inline lv_color_t lv_color_mix(lv_color_t c1, lv_color_t c2, uint8_t m
 440:c:\projects\paindrain\arduinolcd\test\pain drain\libraries\lvgl\src\misc\lv_color.h **** {
 441:c:\projects\paindrain\arduinolcd\test\pain drain\libraries\lvgl\src\misc\lv_color.h ****     lv_color_t ret;
 442:c:\projects\paindrain\arduinolcd\test\pain drain\libraries\lvgl\src\misc\lv_color.h **** 
 443:c:\projects\paindrain\arduinolcd\test\pain drain\libraries\lvgl\src\misc\lv_color.h **** #if LV_COLOR_DEPTH == 16 && LV_COLOR_16_SWAP == 0 && LV_COLOR_MIX_ROUND_OFS == 0
 444:c:\projects\paindrain\arduinolcd\test\pain drain\libraries\lvgl\src\misc\lv_color.h ****     /*Source: https://stackoverflow.com/a/50012418/1999969*/
 445:c:\projects\paindrain\arduinolcd\test\pain drain\libraries\lvgl\src\misc\lv_color.h ****     mix = (uint32_t)((uint32_t)mix + 4) >> 3;
 446:c:\projects\paindrain\arduinolcd\test\pain drain\libraries\lvgl\src\misc\lv_color.h ****     uint32_t bg = (uint32_t)((uint32_t)c2.full | ((uint32_t)c2.full << 16)) &
 447:c:\projects\paindrain\arduinolcd\test\pain drain\libraries\lvgl\src\misc\lv_color.h ****                   0x7E0F81F; /*0b00000111111000001111100000011111*/
 448:c:\projects\paindrain\arduinolcd\test\pain drain\libraries\lvgl\src\misc\lv_color.h ****     uint32_t fg = (uint32_t)((uint32_t)c1.full | ((uint32_t)c1.full << 16)) & 0x7E0F81F;
 449:c:\projects\paindrain\arduinolcd\test\pain drain\libraries\lvgl\src\misc\lv_color.h ****     uint32_t result = ((((fg - bg) * mix) >> 5) + bg) & 0x7E0F81F;
 450:c:\projects\paindrain\arduinolcd\test\pain drain\libraries\lvgl\src\misc\lv_color.h ****     ret.full = (uint16_t)((result >> 16) | result);
 451:c:\projects\paindrain\arduinolcd\test\pain drain\libraries\lvgl\src\misc\lv_color.h **** #elif LV_COLOR_DEPTH != 1
 452:c:\projects\paindrain\arduinolcd\test\pain drain\libraries\lvgl\src\misc\lv_color.h ****     /*LV_COLOR_DEPTH == 8, 16 or 32*/
 453:c:\projects\paindrain\arduinolcd\test\pain drain\libraries\lvgl\src\misc\lv_color.h ****     LV_COLOR_SET_R(ret, LV_UDIV255((uint16_t)LV_COLOR_GET_R(c1) * mix + LV_COLOR_GET_R(c2) *
 454:c:\projects\paindrain\arduinolcd\test\pain drain\libraries\lvgl\src\misc\lv_color.h ****                                    (255 - mix) + LV_COLOR_MIX_ROUND_OFS));
 455:c:\projects\paindrain\arduinolcd\test\pain drain\libraries\lvgl\src\misc\lv_color.h ****     LV_COLOR_SET_G(ret, LV_UDIV255((uint16_t)LV_COLOR_GET_G(c1) * mix + LV_COLOR_GET_G(c2) *
 456:c:\projects\paindrain\arduinolcd\test\pain drain\libraries\lvgl\src\misc\lv_color.h ****                                    (255 - mix) + LV_COLOR_MIX_ROUND_OFS));
 457:c:\projects\paindrain\arduinolcd\test\pain drain\libraries\lvgl\src\misc\lv_color.h ****     LV_COLOR_SET_B(ret, LV_UDIV255((uint16_t)LV_COLOR_GET_B(c1) * mix + LV_COLOR_GET_B(c2) *
 458:c:\projects\paindrain\arduinolcd\test\pain drain\libraries\lvgl\src\misc\lv_color.h ****                                    (255 - mix) + LV_COLOR_MIX_ROUND_OFS));
 459:c:\projects\paindrain\arduinolcd\test\pain drain\libraries\lvgl\src\misc\lv_color.h ****     LV_COLOR_SET_A(ret, 0xFF);
 460:c:\projects\paindrain\arduinolcd\test\pain drain\libraries\lvgl\src\misc\lv_color.h **** #else
 461:c:\projects\paindrain\arduinolcd\test\pain drain\libraries\lvgl\src\misc\lv_color.h ****     /*LV_COLOR_DEPTH == 1*/
 462:c:\projects\paindrain\arduinolcd\test\pain drain\libraries\lvgl\src\misc\lv_color.h ****     ret.full = mix > LV_OPA_50 ? c1.full : c2.full;
 463:c:\projects\paindrain\arduinolcd\test\pain drain\libraries\lvgl\src\misc\lv_color.h **** #endif
 464:c:\projects\paindrain\arduinolcd\test\pain drain\libraries\lvgl\src\misc\lv_color.h **** 
 465:c:\projects\paindrain\arduinolcd\test\pain drain\libraries\lvgl\src\misc\lv_color.h ****     return ret;
 466:c:\projects\paindrain\arduinolcd\test\pain drain\libraries\lvgl\src\misc\lv_color.h **** }
 467:c:\projects\paindrain\arduinolcd\test\pain drain\libraries\lvgl\src\misc\lv_color.h **** 
 468:c:\projects\paindrain\arduinolcd\test\pain drain\libraries\lvgl\src\misc\lv_color.h **** LV_ATTRIBUTE_FAST_MEM static inline void lv_color_premult(lv_color_t c, uint8_t mix, uint16_t * out
 469:c:\projects\paindrain\arduinolcd\test\pain drain\libraries\lvgl\src\misc\lv_color.h **** {
 470:c:\projects\paindrain\arduinolcd\test\pain drain\libraries\lvgl\src\misc\lv_color.h **** #if LV_COLOR_DEPTH != 1
 471:c:\projects\paindrain\arduinolcd\test\pain drain\libraries\lvgl\src\misc\lv_color.h ****     out[0] = (uint16_t)LV_COLOR_GET_R(c) * mix;
 472:c:\projects\paindrain\arduinolcd\test\pain drain\libraries\lvgl\src\misc\lv_color.h ****     out[1] = (uint16_t)LV_COLOR_GET_G(c) * mix;
 473:c:\projects\paindrain\arduinolcd\test\pain drain\libraries\lvgl\src\misc\lv_color.h ****     out[2] = (uint16_t)LV_COLOR_GET_B(c) * mix;
 474:c:\projects\paindrain\arduinolcd\test\pain drain\libraries\lvgl\src\misc\lv_color.h **** #else
 475:c:\projects\paindrain\arduinolcd\test\pain drain\libraries\lvgl\src\misc\lv_color.h ****     (void) mix;
 476:c:\projects\paindrain\arduinolcd\test\pain drain\libraries\lvgl\src\misc\lv_color.h ****     /*Pre-multiplication can't be used with 1 bpp*/
 477:c:\projects\paindrain\arduinolcd\test\pain drain\libraries\lvgl\src\misc\lv_color.h ****     out[0] = LV_COLOR_GET_R(c);
 478:c:\projects\paindrain\arduinolcd\test\pain drain\libraries\lvgl\src\misc\lv_color.h ****     out[1] = LV_COLOR_GET_G(c);
 479:c:\projects\paindrain\arduinolcd\test\pain drain\libraries\lvgl\src\misc\lv_color.h ****     out[2] = LV_COLOR_GET_B(c);
 480:c:\projects\paindrain\arduinolcd\test\pain drain\libraries\lvgl\src\misc\lv_color.h **** #endif
 481:c:\projects\paindrain\arduinolcd\test\pain drain\libraries\lvgl\src\misc\lv_color.h **** 
 482:c:\projects\paindrain\arduinolcd\test\pain drain\libraries\lvgl\src\misc\lv_color.h **** }
 483:c:\projects\paindrain\arduinolcd\test\pain drain\libraries\lvgl\src\misc\lv_color.h **** 
 484:c:\projects\paindrain\arduinolcd\test\pain drain\libraries\lvgl\src\misc\lv_color.h **** /**
 485:c:\projects\paindrain\arduinolcd\test\pain drain\libraries\lvgl\src\misc\lv_color.h ****  * Mix two colors with a given ratio. It runs faster then `lv_color_mix` but requires some pre comp
 486:c:\projects\paindrain\arduinolcd\test\pain drain\libraries\lvgl\src\misc\lv_color.h ****  * @param premult_c1 The first color. Should be preprocessed with `lv_color_premult(c1)`
ARM GAS  C:\Users\haske\AppData\Local\Temp\ccIkbvey.s 			page 29


 487:c:\projects\paindrain\arduinolcd\test\pain drain\libraries\lvgl\src\misc\lv_color.h ****  * @param c2 The second color. As it is no pre computation required on it
 488:c:\projects\paindrain\arduinolcd\test\pain drain\libraries\lvgl\src\misc\lv_color.h ****  * @param mix The ratio of the colors. 0: full `c1`, 255: full `c2`, 127: half `c1` and half `c2`.
 489:c:\projects\paindrain\arduinolcd\test\pain drain\libraries\lvgl\src\misc\lv_color.h ****  *            Should be modified like mix = `255 - mix`
 490:c:\projects\paindrain\arduinolcd\test\pain drain\libraries\lvgl\src\misc\lv_color.h ****  * @return the mixed color
 491:c:\projects\paindrain\arduinolcd\test\pain drain\libraries\lvgl\src\misc\lv_color.h ****  * @note 255 won't give clearly `c1`.
 492:c:\projects\paindrain\arduinolcd\test\pain drain\libraries\lvgl\src\misc\lv_color.h ****  */
 493:c:\projects\paindrain\arduinolcd\test\pain drain\libraries\lvgl\src\misc\lv_color.h **** LV_ATTRIBUTE_FAST_MEM static inline lv_color_t lv_color_mix_premult(uint16_t * premult_c1, lv_color
 494:c:\projects\paindrain\arduinolcd\test\pain drain\libraries\lvgl\src\misc\lv_color.h **** {
 495:c:\projects\paindrain\arduinolcd\test\pain drain\libraries\lvgl\src\misc\lv_color.h ****     lv_color_t ret;
 496:c:\projects\paindrain\arduinolcd\test\pain drain\libraries\lvgl\src\misc\lv_color.h **** #if LV_COLOR_DEPTH != 1
 497:c:\projects\paindrain\arduinolcd\test\pain drain\libraries\lvgl\src\misc\lv_color.h ****     /*LV_COLOR_DEPTH == 8 or 32*/
 498:c:\projects\paindrain\arduinolcd\test\pain drain\libraries\lvgl\src\misc\lv_color.h ****     LV_COLOR_SET_R(ret, LV_UDIV255(premult_c1[0] + LV_COLOR_GET_R(c2) * mix + LV_COLOR_MIX_ROUND_OF
 499:c:\projects\paindrain\arduinolcd\test\pain drain\libraries\lvgl\src\misc\lv_color.h ****     LV_COLOR_SET_G(ret, LV_UDIV255(premult_c1[1] + LV_COLOR_GET_G(c2) * mix + LV_COLOR_MIX_ROUND_OF
 500:c:\projects\paindrain\arduinolcd\test\pain drain\libraries\lvgl\src\misc\lv_color.h ****     LV_COLOR_SET_B(ret, LV_UDIV255(premult_c1[2] + LV_COLOR_GET_B(c2) * mix + LV_COLOR_MIX_ROUND_OF
 501:c:\projects\paindrain\arduinolcd\test\pain drain\libraries\lvgl\src\misc\lv_color.h ****     LV_COLOR_SET_A(ret, 0xFF);
 502:c:\projects\paindrain\arduinolcd\test\pain drain\libraries\lvgl\src\misc\lv_color.h **** #else
 503:c:\projects\paindrain\arduinolcd\test\pain drain\libraries\lvgl\src\misc\lv_color.h ****     /*LV_COLOR_DEPTH == 1*/
 504:c:\projects\paindrain\arduinolcd\test\pain drain\libraries\lvgl\src\misc\lv_color.h ****     /*Restore color1*/
 505:c:\projects\paindrain\arduinolcd\test\pain drain\libraries\lvgl\src\misc\lv_color.h ****     lv_color_t c1;
 506:c:\projects\paindrain\arduinolcd\test\pain drain\libraries\lvgl\src\misc\lv_color.h ****     LV_COLOR_SET_R(c1, premult_c1[0]);
 507:c:\projects\paindrain\arduinolcd\test\pain drain\libraries\lvgl\src\misc\lv_color.h ****     LV_COLOR_SET_G(c1, premult_c1[1]);
 508:c:\projects\paindrain\arduinolcd\test\pain drain\libraries\lvgl\src\misc\lv_color.h ****     LV_COLOR_SET_B(c1, premult_c1[2]);
 509:c:\projects\paindrain\arduinolcd\test\pain drain\libraries\lvgl\src\misc\lv_color.h ****     ret.full = mix > LV_OPA_50 ? c2.full : c1.full;
 510:c:\projects\paindrain\arduinolcd\test\pain drain\libraries\lvgl\src\misc\lv_color.h **** #endif
 511:c:\projects\paindrain\arduinolcd\test\pain drain\libraries\lvgl\src\misc\lv_color.h **** 
 512:c:\projects\paindrain\arduinolcd\test\pain drain\libraries\lvgl\src\misc\lv_color.h ****     return ret;
 513:c:\projects\paindrain\arduinolcd\test\pain drain\libraries\lvgl\src\misc\lv_color.h **** }
 514:c:\projects\paindrain\arduinolcd\test\pain drain\libraries\lvgl\src\misc\lv_color.h **** 
 515:c:\projects\paindrain\arduinolcd\test\pain drain\libraries\lvgl\src\misc\lv_color.h **** /**
 516:c:\projects\paindrain\arduinolcd\test\pain drain\libraries\lvgl\src\misc\lv_color.h ****  * Mix two colors. Both color can have alpha value.
 517:c:\projects\paindrain\arduinolcd\test\pain drain\libraries\lvgl\src\misc\lv_color.h ****  * @param bg_color background color
 518:c:\projects\paindrain\arduinolcd\test\pain drain\libraries\lvgl\src\misc\lv_color.h ****  * @param bg_opa alpha of the background color
 519:c:\projects\paindrain\arduinolcd\test\pain drain\libraries\lvgl\src\misc\lv_color.h ****  * @param fg_color foreground color
 520:c:\projects\paindrain\arduinolcd\test\pain drain\libraries\lvgl\src\misc\lv_color.h ****  * @param fg_opa alpha of the foreground color
 521:c:\projects\paindrain\arduinolcd\test\pain drain\libraries\lvgl\src\misc\lv_color.h ****  * @param res_color the result color
 522:c:\projects\paindrain\arduinolcd\test\pain drain\libraries\lvgl\src\misc\lv_color.h ****  * @param res_opa the result opacity
 523:c:\projects\paindrain\arduinolcd\test\pain drain\libraries\lvgl\src\misc\lv_color.h ****  */
 524:c:\projects\paindrain\arduinolcd\test\pain drain\libraries\lvgl\src\misc\lv_color.h **** LV_ATTRIBUTE_FAST_MEM static inline void lv_color_mix_with_alpha(lv_color_t bg_color, lv_opa_t bg_o
 525:c:\projects\paindrain\arduinolcd\test\pain drain\libraries\lvgl\src\misc\lv_color.h ****                                                                  lv_color_t fg_color, lv_opa_t fg_o
 526:c:\projects\paindrain\arduinolcd\test\pain drain\libraries\lvgl\src\misc\lv_color.h ****                                                                  lv_color_t * res_color, lv_opa_t *
 527:c:\projects\paindrain\arduinolcd\test\pain drain\libraries\lvgl\src\misc\lv_color.h **** {
 528:c:\projects\paindrain\arduinolcd\test\pain drain\libraries\lvgl\src\misc\lv_color.h ****     /*Pick the foreground if it's fully opaque or the Background is fully transparent*/
 529:c:\projects\paindrain\arduinolcd\test\pain drain\libraries\lvgl\src\misc\lv_color.h ****     if(fg_opa >= LV_OPA_MAX || bg_opa <= LV_OPA_MIN) {
 530:c:\projects\paindrain\arduinolcd\test\pain drain\libraries\lvgl\src\misc\lv_color.h ****         res_color->full = fg_color.full;
 531:c:\projects\paindrain\arduinolcd\test\pain drain\libraries\lvgl\src\misc\lv_color.h ****         *res_opa = fg_opa;
 532:c:\projects\paindrain\arduinolcd\test\pain drain\libraries\lvgl\src\misc\lv_color.h ****     }
 533:c:\projects\paindrain\arduinolcd\test\pain drain\libraries\lvgl\src\misc\lv_color.h ****     /*Transparent foreground: use the Background*/
 534:c:\projects\paindrain\arduinolcd\test\pain drain\libraries\lvgl\src\misc\lv_color.h ****     else if(fg_opa <= LV_OPA_MIN) {
 535:c:\projects\paindrain\arduinolcd\test\pain drain\libraries\lvgl\src\misc\lv_color.h ****         res_color->full = bg_color.full;
 536:c:\projects\paindrain\arduinolcd\test\pain drain\libraries\lvgl\src\misc\lv_color.h ****         *res_opa = bg_opa;
 537:c:\projects\paindrain\arduinolcd\test\pain drain\libraries\lvgl\src\misc\lv_color.h ****     }
 538:c:\projects\paindrain\arduinolcd\test\pain drain\libraries\lvgl\src\misc\lv_color.h ****     /*Opaque background: use simple mix*/
 539:c:\projects\paindrain\arduinolcd\test\pain drain\libraries\lvgl\src\misc\lv_color.h ****     else if(bg_opa >= LV_OPA_MAX) {
 540:c:\projects\paindrain\arduinolcd\test\pain drain\libraries\lvgl\src\misc\lv_color.h ****         *res_color = lv_color_mix(fg_color, bg_color, fg_opa);
 541:c:\projects\paindrain\arduinolcd\test\pain drain\libraries\lvgl\src\misc\lv_color.h ****         *res_opa = LV_OPA_COVER;
 542:c:\projects\paindrain\arduinolcd\test\pain drain\libraries\lvgl\src\misc\lv_color.h ****     }
 543:c:\projects\paindrain\arduinolcd\test\pain drain\libraries\lvgl\src\misc\lv_color.h ****     /*Both colors have alpha. Expensive calculation need to be applied*/
ARM GAS  C:\Users\haske\AppData\Local\Temp\ccIkbvey.s 			page 30


 544:c:\projects\paindrain\arduinolcd\test\pain drain\libraries\lvgl\src\misc\lv_color.h ****     else {
 545:c:\projects\paindrain\arduinolcd\test\pain drain\libraries\lvgl\src\misc\lv_color.h ****         /*Save the parameters and the result. If they will be asked again don't compute again*/
 546:c:\projects\paindrain\arduinolcd\test\pain drain\libraries\lvgl\src\misc\lv_color.h ****         static lv_opa_t fg_opa_save     = 0;
 547:c:\projects\paindrain\arduinolcd\test\pain drain\libraries\lvgl\src\misc\lv_color.h ****         static lv_opa_t bg_opa_save     = 0;
 548:c:\projects\paindrain\arduinolcd\test\pain drain\libraries\lvgl\src\misc\lv_color.h ****         static lv_color_t fg_color_save = _LV_COLOR_ZERO_INITIALIZER;
 549:c:\projects\paindrain\arduinolcd\test\pain drain\libraries\lvgl\src\misc\lv_color.h ****         static lv_color_t bg_color_save = _LV_COLOR_ZERO_INITIALIZER;
 550:c:\projects\paindrain\arduinolcd\test\pain drain\libraries\lvgl\src\misc\lv_color.h ****         static lv_color_t res_color_saved = _LV_COLOR_ZERO_INITIALIZER;
 551:c:\projects\paindrain\arduinolcd\test\pain drain\libraries\lvgl\src\misc\lv_color.h ****         static lv_opa_t res_opa_saved = 0;
 552:c:\projects\paindrain\arduinolcd\test\pain drain\libraries\lvgl\src\misc\lv_color.h **** 
 553:c:\projects\paindrain\arduinolcd\test\pain drain\libraries\lvgl\src\misc\lv_color.h ****         if(fg_opa != fg_opa_save || bg_opa != bg_opa_save || fg_color.full != fg_color_save.full ||
 554:c:\projects\paindrain\arduinolcd\test\pain drain\libraries\lvgl\src\misc\lv_color.h ****            bg_color.full != bg_color_save.full) {
 555:c:\projects\paindrain\arduinolcd\test\pain drain\libraries\lvgl\src\misc\lv_color.h ****             fg_opa_save        = fg_opa;
 556:c:\projects\paindrain\arduinolcd\test\pain drain\libraries\lvgl\src\misc\lv_color.h ****             bg_opa_save        = bg_opa;
 557:c:\projects\paindrain\arduinolcd\test\pain drain\libraries\lvgl\src\misc\lv_color.h ****             fg_color_save.full = fg_color.full;
 558:c:\projects\paindrain\arduinolcd\test\pain drain\libraries\lvgl\src\misc\lv_color.h ****             bg_color_save.full = bg_color.full;
 559:c:\projects\paindrain\arduinolcd\test\pain drain\libraries\lvgl\src\misc\lv_color.h ****             /*Info:
 560:c:\projects\paindrain\arduinolcd\test\pain drain\libraries\lvgl\src\misc\lv_color.h ****              * https://en.wikipedia.org/wiki/Alpha_compositing#Analytical_derivation_of_the_over_op
 561:c:\projects\paindrain\arduinolcd\test\pain drain\libraries\lvgl\src\misc\lv_color.h ****             res_opa_saved = 255 - ((uint16_t)((uint16_t)(255 - fg_opa) * (255 - bg_opa)) >> 8);
 562:c:\projects\paindrain\arduinolcd\test\pain drain\libraries\lvgl\src\misc\lv_color.h ****             LV_ASSERT(res_opa_saved != 0);
 563:c:\projects\paindrain\arduinolcd\test\pain drain\libraries\lvgl\src\misc\lv_color.h ****             lv_opa_t ratio = (uint16_t)((uint16_t)fg_opa * 255) / res_opa_saved;
 564:c:\projects\paindrain\arduinolcd\test\pain drain\libraries\lvgl\src\misc\lv_color.h ****             res_color_saved = lv_color_mix(fg_color, bg_color, ratio);
 565:c:\projects\paindrain\arduinolcd\test\pain drain\libraries\lvgl\src\misc\lv_color.h **** 
 566:c:\projects\paindrain\arduinolcd\test\pain drain\libraries\lvgl\src\misc\lv_color.h ****         }
 567:c:\projects\paindrain\arduinolcd\test\pain drain\libraries\lvgl\src\misc\lv_color.h **** 
 568:c:\projects\paindrain\arduinolcd\test\pain drain\libraries\lvgl\src\misc\lv_color.h ****         res_color->full = res_color_saved.full;
 569:c:\projects\paindrain\arduinolcd\test\pain drain\libraries\lvgl\src\misc\lv_color.h ****         *res_opa = res_opa_saved;
 570:c:\projects\paindrain\arduinolcd\test\pain drain\libraries\lvgl\src\misc\lv_color.h ****     }
 571:c:\projects\paindrain\arduinolcd\test\pain drain\libraries\lvgl\src\misc\lv_color.h **** }
 572:c:\projects\paindrain\arduinolcd\test\pain drain\libraries\lvgl\src\misc\lv_color.h **** 
 573:c:\projects\paindrain\arduinolcd\test\pain drain\libraries\lvgl\src\misc\lv_color.h **** //! @endcond
 574:c:\projects\paindrain\arduinolcd\test\pain drain\libraries\lvgl\src\misc\lv_color.h **** 
 575:c:\projects\paindrain\arduinolcd\test\pain drain\libraries\lvgl\src\misc\lv_color.h **** /**
 576:c:\projects\paindrain\arduinolcd\test\pain drain\libraries\lvgl\src\misc\lv_color.h ****  * Get the brightness of a color
 577:c:\projects\paindrain\arduinolcd\test\pain drain\libraries\lvgl\src\misc\lv_color.h ****  * @param color a color
 578:c:\projects\paindrain\arduinolcd\test\pain drain\libraries\lvgl\src\misc\lv_color.h ****  * @return the brightness [0..255]
 579:c:\projects\paindrain\arduinolcd\test\pain drain\libraries\lvgl\src\misc\lv_color.h ****  */
 580:c:\projects\paindrain\arduinolcd\test\pain drain\libraries\lvgl\src\misc\lv_color.h **** static inline uint8_t lv_color_brightness(lv_color_t color)
 581:c:\projects\paindrain\arduinolcd\test\pain drain\libraries\lvgl\src\misc\lv_color.h **** {
 582:c:\projects\paindrain\arduinolcd\test\pain drain\libraries\lvgl\src\misc\lv_color.h ****     lv_color32_t c32;
 583:c:\projects\paindrain\arduinolcd\test\pain drain\libraries\lvgl\src\misc\lv_color.h ****     c32.full        = lv_color_to32(color);
 584:c:\projects\paindrain\arduinolcd\test\pain drain\libraries\lvgl\src\misc\lv_color.h ****     uint16_t bright = (uint16_t)(3u * LV_COLOR_GET_R32(c32) + LV_COLOR_GET_B32(c32) + 4u * LV_COLOR
 585:c:\projects\paindrain\arduinolcd\test\pain drain\libraries\lvgl\src\misc\lv_color.h ****     return (uint8_t)(bright >> 3);
 586:c:\projects\paindrain\arduinolcd\test\pain drain\libraries\lvgl\src\misc\lv_color.h **** }
 587:c:\projects\paindrain\arduinolcd\test\pain drain\libraries\lvgl\src\misc\lv_color.h **** 
 588:c:\projects\paindrain\arduinolcd\test\pain drain\libraries\lvgl\src\misc\lv_color.h **** static inline lv_color_t lv_color_make(uint8_t r, uint8_t g, uint8_t b)
 589:c:\projects\paindrain\arduinolcd\test\pain drain\libraries\lvgl\src\misc\lv_color.h **** {
 590:c:\projects\paindrain\arduinolcd\test\pain drain\libraries\lvgl\src\misc\lv_color.h ****     return _LV_COLOR_MAKE_TYPE_HELPER LV_COLOR_MAKE(r, g, b);
 420              		.loc 2 590 0
 421 014e DB08     		lsrs	r3, r3, #3
 422              	.LVL56:
 423 0150 9008     		lsrs	r0, r2, #2
 424 0152 4201     		lsls	r2, r0, #5
 425              	.LVL57:
 426 0154 C808     		lsrs	r0, r1, #3
 427 0156 DB02     		lsls	r3, r3, #11
 428 0158 1043     		orrs	r0, r2
 429 015a 1843     		orrs	r0, r3
ARM GAS  C:\Users\haske\AppData\Local\Temp\ccIkbvey.s 			page 31


 430              	.LVL58:
 431              	.LBE57:
 432              	.LBE56:
 692:..\..\..\arduinoLCD\test\Pain Drain\libraries\lvgl\src\extra\widgets\colorwheel/lv_colorwheel.c **** }
 433              		.loc 1 692 0
 434 015c 05B0     		add	sp, sp, #20
 435              		@ sp needed
 436              	.LVL59:
 437 015e F0BD     		pop	{r4, r5, r6, r7, pc}
 438              	.L25:
 439              		.align	2
 440              	.L24:
 441 0160 00000000 		.word	.LANCHOR0
 442 0164 00000000 		.word	.LANCHOR1
 443              		.cfi_endproc
 444              	.LFE221:
 445              		.size	angle_to_mode_color_fast, .-angle_to_mode_color_fast
 446              		.section	.text.get_angle,"ax",%progbits
 447              		.align	2
 448              		.code	16
 449              		.thumb_func
 450              		.type	get_angle, %function
 451              	get_angle:
 452              	.LFB222:
 693:..\..\..\arduinoLCD\test\Pain Drain\libraries\lvgl\src\extra\widgets\colorwheel/lv_colorwheel.c **** 
 694:..\..\..\arduinoLCD\test\Pain Drain\libraries\lvgl\src\extra\widgets\colorwheel/lv_colorwheel.c **** static uint16_t get_angle(lv_obj_t * obj)
 695:..\..\..\arduinoLCD\test\Pain Drain\libraries\lvgl\src\extra\widgets\colorwheel/lv_colorwheel.c **** {
 453              		.loc 1 695 0
 454              		.cfi_startproc
 455              		@ args = 0, pretend = 0, frame = 0
 456              		@ frame_needed = 0, uses_anonymous_args = 0
 457              	.LVL60:
 458 0000 10B5     		push	{r4, lr}
 459              		.cfi_def_cfa_offset 8
 460              		.cfi_offset 4, -8
 461              		.cfi_offset 14, -4
 462              	.LVL61:
 696:..\..\..\arduinoLCD\test\Pain Drain\libraries\lvgl\src\extra\widgets\colorwheel/lv_colorwheel.c ****     lv_colorwheel_t * colorwheel = (lv_colorwheel_t *)obj;
 697:..\..\..\arduinoLCD\test\Pain Drain\libraries\lvgl\src\extra\widgets\colorwheel/lv_colorwheel.c ****     uint16_t angle;
 698:..\..\..\arduinoLCD\test\Pain Drain\libraries\lvgl\src\extra\widgets\colorwheel/lv_colorwheel.c ****     switch(colorwheel->mode) {
 463              		.loc 1 698 0
 464 0002 3C23     		movs	r3, #60
 465 0004 C35C     		ldrb	r3, [r0, r3]
 466 0006 9B07     		lsls	r3, r3, #30
 467 0008 9B0F     		lsrs	r3, r3, #30
 468 000a 012B     		cmp	r3, #1
 469 000c 03D0     		beq	.L28
 470 000e 022B     		cmp	r3, #2
 471 0010 0BD0     		beq	.L29
 699:..\..\..\arduinoLCD\test\Pain Drain\libraries\lvgl\src\extra\widgets\colorwheel/lv_colorwheel.c ****         default:
 700:..\..\..\arduinoLCD\test\Pain Drain\libraries\lvgl\src\extra\widgets\colorwheel/lv_colorwheel.c ****         case LV_COLORWHEEL_MODE_HUE:
 701:..\..\..\arduinoLCD\test\Pain Drain\libraries\lvgl\src\extra\widgets\colorwheel/lv_colorwheel.c ****             angle = colorwheel->hsv.h;
 472              		.loc 1 701 0
 473 0012 808C     		ldrh	r0, [r0, #36]
 474              	.LVL62:
 702:..\..\..\arduinoLCD\test\Pain Drain\libraries\lvgl\src\extra\widgets\colorwheel/lv_colorwheel.c ****             break;
 475              		.loc 1 702 0
ARM GAS  C:\Users\haske\AppData\Local\Temp\ccIkbvey.s 			page 32


 476 0014 12E0     		b	.L30
 477              	.LVL63:
 478              	.L28:
 703:..\..\..\arduinoLCD\test\Pain Drain\libraries\lvgl\src\extra\widgets\colorwheel/lv_colorwheel.c ****         case LV_COLORWHEEL_MODE_SATURATION:
 704:..\..\..\arduinoLCD\test\Pain Drain\libraries\lvgl\src\extra\widgets\colorwheel/lv_colorwheel.c ****             angle = (colorwheel->hsv.s * 360) / 100;
 479              		.loc 1 704 0
 480 0016 2623     		movs	r3, #38
 481 0018 C05C     		ldrb	r0, [r0, r3]
 482              	.LVL64:
 483 001a 4333     		adds	r3, r3, #67
 484 001c FF33     		adds	r3, r3, #255
 485 001e 5843     		muls	r0, r3
 486 0020 6421     		movs	r1, #100
 487 0022 FFF7FEFF 		bl	__aeabi_idiv
 488              	.LVL65:
 489 0026 80B2     		uxth	r0, r0
 490              	.LVL66:
 705:..\..\..\arduinoLCD\test\Pain Drain\libraries\lvgl\src\extra\widgets\colorwheel/lv_colorwheel.c ****             break;
 491              		.loc 1 705 0
 492 0028 08E0     		b	.L30
 493              	.LVL67:
 494              	.L29:
 706:..\..\..\arduinoLCD\test\Pain Drain\libraries\lvgl\src\extra\widgets\colorwheel/lv_colorwheel.c ****         case LV_COLORWHEEL_MODE_VALUE:
 707:..\..\..\arduinoLCD\test\Pain Drain\libraries\lvgl\src\extra\widgets\colorwheel/lv_colorwheel.c ****             angle = (colorwheel->hsv.v * 360) / 100 ;
 495              		.loc 1 707 0
 496 002a 2723     		movs	r3, #39
 497 002c C05C     		ldrb	r0, [r0, r3]
 498              	.LVL68:
 499 002e 4233     		adds	r3, r3, #66
 500 0030 FF33     		adds	r3, r3, #255
 501 0032 5843     		muls	r0, r3
 502 0034 6421     		movs	r1, #100
 503 0036 FFF7FEFF 		bl	__aeabi_idiv
 504              	.LVL69:
 505 003a 80B2     		uxth	r0, r0
 506              	.LVL70:
 507              	.L30:
 708:..\..\..\arduinoLCD\test\Pain Drain\libraries\lvgl\src\extra\widgets\colorwheel/lv_colorwheel.c ****             break;
 709:..\..\..\arduinoLCD\test\Pain Drain\libraries\lvgl\src\extra\widgets\colorwheel/lv_colorwheel.c ****     }
 710:..\..\..\arduinoLCD\test\Pain Drain\libraries\lvgl\src\extra\widgets\colorwheel/lv_colorwheel.c ****     return angle;
 711:..\..\..\arduinoLCD\test\Pain Drain\libraries\lvgl\src\extra\widgets\colorwheel/lv_colorwheel.c **** }
 508              		.loc 1 711 0
 509              		@ sp needed
 510 003c 10BD     		pop	{r4, pc}
 511              		.cfi_endproc
 512              	.LFE222:
 513              		.size	get_angle, .-get_angle
 514 003e C046     		.section	.text.get_knob_area,"ax",%progbits
 515              		.align	2
 516              		.code	16
 517              		.thumb_func
 518              		.type	get_knob_area, %function
 519              	get_knob_area:
 520              	.LFB215:
 335:..\..\..\arduinoLCD\test\Pain Drain\libraries\lvgl\src\extra\widgets\colorwheel/lv_colorwheel.c ****     lv_colorwheel_t * colorwheel = (lv_colorwheel_t *)obj;
 521              		.loc 1 335 0
 522              		.cfi_startproc
ARM GAS  C:\Users\haske\AppData\Local\Temp\ccIkbvey.s 			page 33


 523              		@ args = 0, pretend = 0, frame = 0
 524              		@ frame_needed = 0, uses_anonymous_args = 0
 525              	.LVL71:
 526 0000 F0B5     		push	{r4, r5, r6, r7, lr}
 527              		.cfi_def_cfa_offset 20
 528              		.cfi_offset 4, -20
 529              		.cfi_offset 5, -16
 530              		.cfi_offset 6, -12
 531              		.cfi_offset 7, -8
 532              		.cfi_offset 14, -4
 533 0002 5746     		mov	r7, r10
 534 0004 4E46     		mov	r6, r9
 535 0006 4546     		mov	r5, r8
 536 0008 E0B4     		push	{r5, r6, r7}
 537              		.cfi_def_cfa_offset 32
 538              		.cfi_offset 8, -32
 539              		.cfi_offset 9, -28
 540              		.cfi_offset 10, -24
 541 000a 0600     		movs	r6, r0
 542 000c 0D00     		movs	r5, r1
 543              	.LVL72:
 544              	.LBB58:
 545              	.LBB59:
 546              		.file 3 "c:\\projects\\paindrain\\arduinolcd\\test\\pain drain\\libraries\\lvgl\\src/core/lv_obj_s
   1:c:\projects\paindrain\arduinolcd\test\pain drain\libraries\lvgl\src/core\lv_obj_style_gen.h **** static inline lv_coord_t lv_obj_get_style_width(const struct _lv_obj_t * obj, uint32_t part)
   2:c:\projects\paindrain\arduinolcd\test\pain drain\libraries\lvgl\src/core\lv_obj_style_gen.h **** {
   3:c:\projects\paindrain\arduinolcd\test\pain drain\libraries\lvgl\src/core\lv_obj_style_gen.h ****     lv_style_value_t v = lv_obj_get_style_prop(obj, part, LV_STYLE_WIDTH);
   4:c:\projects\paindrain\arduinolcd\test\pain drain\libraries\lvgl\src/core\lv_obj_style_gen.h ****     return (lv_coord_t)v.num;
   5:c:\projects\paindrain\arduinolcd\test\pain drain\libraries\lvgl\src/core\lv_obj_style_gen.h **** }
   6:c:\projects\paindrain\arduinolcd\test\pain drain\libraries\lvgl\src/core\lv_obj_style_gen.h **** 
   7:c:\projects\paindrain\arduinolcd\test\pain drain\libraries\lvgl\src/core\lv_obj_style_gen.h **** static inline lv_coord_t lv_obj_get_style_min_width(const struct _lv_obj_t * obj, uint32_t part)
   8:c:\projects\paindrain\arduinolcd\test\pain drain\libraries\lvgl\src/core\lv_obj_style_gen.h **** {
   9:c:\projects\paindrain\arduinolcd\test\pain drain\libraries\lvgl\src/core\lv_obj_style_gen.h ****     lv_style_value_t v = lv_obj_get_style_prop(obj, part, LV_STYLE_MIN_WIDTH);
  10:c:\projects\paindrain\arduinolcd\test\pain drain\libraries\lvgl\src/core\lv_obj_style_gen.h ****     return (lv_coord_t)v.num;
  11:c:\projects\paindrain\arduinolcd\test\pain drain\libraries\lvgl\src/core\lv_obj_style_gen.h **** }
  12:c:\projects\paindrain\arduinolcd\test\pain drain\libraries\lvgl\src/core\lv_obj_style_gen.h **** 
  13:c:\projects\paindrain\arduinolcd\test\pain drain\libraries\lvgl\src/core\lv_obj_style_gen.h **** static inline lv_coord_t lv_obj_get_style_max_width(const struct _lv_obj_t * obj, uint32_t part)
  14:c:\projects\paindrain\arduinolcd\test\pain drain\libraries\lvgl\src/core\lv_obj_style_gen.h **** {
  15:c:\projects\paindrain\arduinolcd\test\pain drain\libraries\lvgl\src/core\lv_obj_style_gen.h ****     lv_style_value_t v = lv_obj_get_style_prop(obj, part, LV_STYLE_MAX_WIDTH);
  16:c:\projects\paindrain\arduinolcd\test\pain drain\libraries\lvgl\src/core\lv_obj_style_gen.h ****     return (lv_coord_t)v.num;
  17:c:\projects\paindrain\arduinolcd\test\pain drain\libraries\lvgl\src/core\lv_obj_style_gen.h **** }
  18:c:\projects\paindrain\arduinolcd\test\pain drain\libraries\lvgl\src/core\lv_obj_style_gen.h **** 
  19:c:\projects\paindrain\arduinolcd\test\pain drain\libraries\lvgl\src/core\lv_obj_style_gen.h **** static inline lv_coord_t lv_obj_get_style_height(const struct _lv_obj_t * obj, uint32_t part)
  20:c:\projects\paindrain\arduinolcd\test\pain drain\libraries\lvgl\src/core\lv_obj_style_gen.h **** {
  21:c:\projects\paindrain\arduinolcd\test\pain drain\libraries\lvgl\src/core\lv_obj_style_gen.h ****     lv_style_value_t v = lv_obj_get_style_prop(obj, part, LV_STYLE_HEIGHT);
  22:c:\projects\paindrain\arduinolcd\test\pain drain\libraries\lvgl\src/core\lv_obj_style_gen.h ****     return (lv_coord_t)v.num;
  23:c:\projects\paindrain\arduinolcd\test\pain drain\libraries\lvgl\src/core\lv_obj_style_gen.h **** }
  24:c:\projects\paindrain\arduinolcd\test\pain drain\libraries\lvgl\src/core\lv_obj_style_gen.h **** 
  25:c:\projects\paindrain\arduinolcd\test\pain drain\libraries\lvgl\src/core\lv_obj_style_gen.h **** static inline lv_coord_t lv_obj_get_style_min_height(const struct _lv_obj_t * obj, uint32_t part)
  26:c:\projects\paindrain\arduinolcd\test\pain drain\libraries\lvgl\src/core\lv_obj_style_gen.h **** {
  27:c:\projects\paindrain\arduinolcd\test\pain drain\libraries\lvgl\src/core\lv_obj_style_gen.h ****     lv_style_value_t v = lv_obj_get_style_prop(obj, part, LV_STYLE_MIN_HEIGHT);
  28:c:\projects\paindrain\arduinolcd\test\pain drain\libraries\lvgl\src/core\lv_obj_style_gen.h ****     return (lv_coord_t)v.num;
  29:c:\projects\paindrain\arduinolcd\test\pain drain\libraries\lvgl\src/core\lv_obj_style_gen.h **** }
  30:c:\projects\paindrain\arduinolcd\test\pain drain\libraries\lvgl\src/core\lv_obj_style_gen.h **** 
  31:c:\projects\paindrain\arduinolcd\test\pain drain\libraries\lvgl\src/core\lv_obj_style_gen.h **** static inline lv_coord_t lv_obj_get_style_max_height(const struct _lv_obj_t * obj, uint32_t part)
  32:c:\projects\paindrain\arduinolcd\test\pain drain\libraries\lvgl\src/core\lv_obj_style_gen.h **** {
  33:c:\projects\paindrain\arduinolcd\test\pain drain\libraries\lvgl\src/core\lv_obj_style_gen.h ****     lv_style_value_t v = lv_obj_get_style_prop(obj, part, LV_STYLE_MAX_HEIGHT);
ARM GAS  C:\Users\haske\AppData\Local\Temp\ccIkbvey.s 			page 34


  34:c:\projects\paindrain\arduinolcd\test\pain drain\libraries\lvgl\src/core\lv_obj_style_gen.h ****     return (lv_coord_t)v.num;
  35:c:\projects\paindrain\arduinolcd\test\pain drain\libraries\lvgl\src/core\lv_obj_style_gen.h **** }
  36:c:\projects\paindrain\arduinolcd\test\pain drain\libraries\lvgl\src/core\lv_obj_style_gen.h **** 
  37:c:\projects\paindrain\arduinolcd\test\pain drain\libraries\lvgl\src/core\lv_obj_style_gen.h **** static inline lv_coord_t lv_obj_get_style_x(const struct _lv_obj_t * obj, uint32_t part)
  38:c:\projects\paindrain\arduinolcd\test\pain drain\libraries\lvgl\src/core\lv_obj_style_gen.h **** {
  39:c:\projects\paindrain\arduinolcd\test\pain drain\libraries\lvgl\src/core\lv_obj_style_gen.h ****     lv_style_value_t v = lv_obj_get_style_prop(obj, part, LV_STYLE_X);
  40:c:\projects\paindrain\arduinolcd\test\pain drain\libraries\lvgl\src/core\lv_obj_style_gen.h ****     return (lv_coord_t)v.num;
  41:c:\projects\paindrain\arduinolcd\test\pain drain\libraries\lvgl\src/core\lv_obj_style_gen.h **** }
  42:c:\projects\paindrain\arduinolcd\test\pain drain\libraries\lvgl\src/core\lv_obj_style_gen.h **** 
  43:c:\projects\paindrain\arduinolcd\test\pain drain\libraries\lvgl\src/core\lv_obj_style_gen.h **** static inline lv_coord_t lv_obj_get_style_y(const struct _lv_obj_t * obj, uint32_t part)
  44:c:\projects\paindrain\arduinolcd\test\pain drain\libraries\lvgl\src/core\lv_obj_style_gen.h **** {
  45:c:\projects\paindrain\arduinolcd\test\pain drain\libraries\lvgl\src/core\lv_obj_style_gen.h ****     lv_style_value_t v = lv_obj_get_style_prop(obj, part, LV_STYLE_Y);
  46:c:\projects\paindrain\arduinolcd\test\pain drain\libraries\lvgl\src/core\lv_obj_style_gen.h ****     return (lv_coord_t)v.num;
  47:c:\projects\paindrain\arduinolcd\test\pain drain\libraries\lvgl\src/core\lv_obj_style_gen.h **** }
  48:c:\projects\paindrain\arduinolcd\test\pain drain\libraries\lvgl\src/core\lv_obj_style_gen.h **** 
  49:c:\projects\paindrain\arduinolcd\test\pain drain\libraries\lvgl\src/core\lv_obj_style_gen.h **** static inline lv_align_t lv_obj_get_style_align(const struct _lv_obj_t * obj, uint32_t part)
  50:c:\projects\paindrain\arduinolcd\test\pain drain\libraries\lvgl\src/core\lv_obj_style_gen.h **** {
  51:c:\projects\paindrain\arduinolcd\test\pain drain\libraries\lvgl\src/core\lv_obj_style_gen.h ****     lv_style_value_t v = lv_obj_get_style_prop(obj, part, LV_STYLE_ALIGN);
  52:c:\projects\paindrain\arduinolcd\test\pain drain\libraries\lvgl\src/core\lv_obj_style_gen.h ****     return (lv_align_t)v.num;
  53:c:\projects\paindrain\arduinolcd\test\pain drain\libraries\lvgl\src/core\lv_obj_style_gen.h **** }
  54:c:\projects\paindrain\arduinolcd\test\pain drain\libraries\lvgl\src/core\lv_obj_style_gen.h **** 
  55:c:\projects\paindrain\arduinolcd\test\pain drain\libraries\lvgl\src/core\lv_obj_style_gen.h **** static inline lv_coord_t lv_obj_get_style_transform_width(const struct _lv_obj_t * obj, uint32_t pa
  56:c:\projects\paindrain\arduinolcd\test\pain drain\libraries\lvgl\src/core\lv_obj_style_gen.h **** {
  57:c:\projects\paindrain\arduinolcd\test\pain drain\libraries\lvgl\src/core\lv_obj_style_gen.h ****     lv_style_value_t v = lv_obj_get_style_prop(obj, part, LV_STYLE_TRANSFORM_WIDTH);
  58:c:\projects\paindrain\arduinolcd\test\pain drain\libraries\lvgl\src/core\lv_obj_style_gen.h ****     return (lv_coord_t)v.num;
  59:c:\projects\paindrain\arduinolcd\test\pain drain\libraries\lvgl\src/core\lv_obj_style_gen.h **** }
  60:c:\projects\paindrain\arduinolcd\test\pain drain\libraries\lvgl\src/core\lv_obj_style_gen.h **** 
  61:c:\projects\paindrain\arduinolcd\test\pain drain\libraries\lvgl\src/core\lv_obj_style_gen.h **** static inline lv_coord_t lv_obj_get_style_transform_height(const struct _lv_obj_t * obj, uint32_t p
  62:c:\projects\paindrain\arduinolcd\test\pain drain\libraries\lvgl\src/core\lv_obj_style_gen.h **** {
  63:c:\projects\paindrain\arduinolcd\test\pain drain\libraries\lvgl\src/core\lv_obj_style_gen.h ****     lv_style_value_t v = lv_obj_get_style_prop(obj, part, LV_STYLE_TRANSFORM_HEIGHT);
  64:c:\projects\paindrain\arduinolcd\test\pain drain\libraries\lvgl\src/core\lv_obj_style_gen.h ****     return (lv_coord_t)v.num;
  65:c:\projects\paindrain\arduinolcd\test\pain drain\libraries\lvgl\src/core\lv_obj_style_gen.h **** }
  66:c:\projects\paindrain\arduinolcd\test\pain drain\libraries\lvgl\src/core\lv_obj_style_gen.h **** 
  67:c:\projects\paindrain\arduinolcd\test\pain drain\libraries\lvgl\src/core\lv_obj_style_gen.h **** static inline lv_coord_t lv_obj_get_style_translate_x(const struct _lv_obj_t * obj, uint32_t part)
  68:c:\projects\paindrain\arduinolcd\test\pain drain\libraries\lvgl\src/core\lv_obj_style_gen.h **** {
  69:c:\projects\paindrain\arduinolcd\test\pain drain\libraries\lvgl\src/core\lv_obj_style_gen.h ****     lv_style_value_t v = lv_obj_get_style_prop(obj, part, LV_STYLE_TRANSLATE_X);
  70:c:\projects\paindrain\arduinolcd\test\pain drain\libraries\lvgl\src/core\lv_obj_style_gen.h ****     return (lv_coord_t)v.num;
  71:c:\projects\paindrain\arduinolcd\test\pain drain\libraries\lvgl\src/core\lv_obj_style_gen.h **** }
  72:c:\projects\paindrain\arduinolcd\test\pain drain\libraries\lvgl\src/core\lv_obj_style_gen.h **** 
  73:c:\projects\paindrain\arduinolcd\test\pain drain\libraries\lvgl\src/core\lv_obj_style_gen.h **** static inline lv_coord_t lv_obj_get_style_translate_y(const struct _lv_obj_t * obj, uint32_t part)
  74:c:\projects\paindrain\arduinolcd\test\pain drain\libraries\lvgl\src/core\lv_obj_style_gen.h **** {
  75:c:\projects\paindrain\arduinolcd\test\pain drain\libraries\lvgl\src/core\lv_obj_style_gen.h ****     lv_style_value_t v = lv_obj_get_style_prop(obj, part, LV_STYLE_TRANSLATE_Y);
  76:c:\projects\paindrain\arduinolcd\test\pain drain\libraries\lvgl\src/core\lv_obj_style_gen.h ****     return (lv_coord_t)v.num;
  77:c:\projects\paindrain\arduinolcd\test\pain drain\libraries\lvgl\src/core\lv_obj_style_gen.h **** }
  78:c:\projects\paindrain\arduinolcd\test\pain drain\libraries\lvgl\src/core\lv_obj_style_gen.h **** 
  79:c:\projects\paindrain\arduinolcd\test\pain drain\libraries\lvgl\src/core\lv_obj_style_gen.h **** static inline lv_coord_t lv_obj_get_style_transform_zoom(const struct _lv_obj_t * obj, uint32_t par
  80:c:\projects\paindrain\arduinolcd\test\pain drain\libraries\lvgl\src/core\lv_obj_style_gen.h **** {
  81:c:\projects\paindrain\arduinolcd\test\pain drain\libraries\lvgl\src/core\lv_obj_style_gen.h ****     lv_style_value_t v = lv_obj_get_style_prop(obj, part, LV_STYLE_TRANSFORM_ZOOM);
  82:c:\projects\paindrain\arduinolcd\test\pain drain\libraries\lvgl\src/core\lv_obj_style_gen.h ****     return (lv_coord_t)v.num;
  83:c:\projects\paindrain\arduinolcd\test\pain drain\libraries\lvgl\src/core\lv_obj_style_gen.h **** }
  84:c:\projects\paindrain\arduinolcd\test\pain drain\libraries\lvgl\src/core\lv_obj_style_gen.h **** 
  85:c:\projects\paindrain\arduinolcd\test\pain drain\libraries\lvgl\src/core\lv_obj_style_gen.h **** static inline lv_coord_t lv_obj_get_style_transform_angle(const struct _lv_obj_t * obj, uint32_t pa
  86:c:\projects\paindrain\arduinolcd\test\pain drain\libraries\lvgl\src/core\lv_obj_style_gen.h **** {
  87:c:\projects\paindrain\arduinolcd\test\pain drain\libraries\lvgl\src/core\lv_obj_style_gen.h ****     lv_style_value_t v = lv_obj_get_style_prop(obj, part, LV_STYLE_TRANSFORM_ANGLE);
  88:c:\projects\paindrain\arduinolcd\test\pain drain\libraries\lvgl\src/core\lv_obj_style_gen.h ****     return (lv_coord_t)v.num;
  89:c:\projects\paindrain\arduinolcd\test\pain drain\libraries\lvgl\src/core\lv_obj_style_gen.h **** }
  90:c:\projects\paindrain\arduinolcd\test\pain drain\libraries\lvgl\src/core\lv_obj_style_gen.h **** 
ARM GAS  C:\Users\haske\AppData\Local\Temp\ccIkbvey.s 			page 35


  91:c:\projects\paindrain\arduinolcd\test\pain drain\libraries\lvgl\src/core\lv_obj_style_gen.h **** static inline lv_coord_t lv_obj_get_style_transform_pivot_x(const struct _lv_obj_t * obj, uint32_t 
  92:c:\projects\paindrain\arduinolcd\test\pain drain\libraries\lvgl\src/core\lv_obj_style_gen.h **** {
  93:c:\projects\paindrain\arduinolcd\test\pain drain\libraries\lvgl\src/core\lv_obj_style_gen.h ****     lv_style_value_t v = lv_obj_get_style_prop(obj, part, LV_STYLE_TRANSFORM_PIVOT_X);
  94:c:\projects\paindrain\arduinolcd\test\pain drain\libraries\lvgl\src/core\lv_obj_style_gen.h ****     return (lv_coord_t)v.num;
  95:c:\projects\paindrain\arduinolcd\test\pain drain\libraries\lvgl\src/core\lv_obj_style_gen.h **** }
  96:c:\projects\paindrain\arduinolcd\test\pain drain\libraries\lvgl\src/core\lv_obj_style_gen.h **** 
  97:c:\projects\paindrain\arduinolcd\test\pain drain\libraries\lvgl\src/core\lv_obj_style_gen.h **** static inline lv_coord_t lv_obj_get_style_transform_pivot_y(const struct _lv_obj_t * obj, uint32_t 
  98:c:\projects\paindrain\arduinolcd\test\pain drain\libraries\lvgl\src/core\lv_obj_style_gen.h **** {
  99:c:\projects\paindrain\arduinolcd\test\pain drain\libraries\lvgl\src/core\lv_obj_style_gen.h ****     lv_style_value_t v = lv_obj_get_style_prop(obj, part, LV_STYLE_TRANSFORM_PIVOT_Y);
 100:c:\projects\paindrain\arduinolcd\test\pain drain\libraries\lvgl\src/core\lv_obj_style_gen.h ****     return (lv_coord_t)v.num;
 101:c:\projects\paindrain\arduinolcd\test\pain drain\libraries\lvgl\src/core\lv_obj_style_gen.h **** }
 102:c:\projects\paindrain\arduinolcd\test\pain drain\libraries\lvgl\src/core\lv_obj_style_gen.h **** 
 103:c:\projects\paindrain\arduinolcd\test\pain drain\libraries\lvgl\src/core\lv_obj_style_gen.h **** static inline lv_coord_t lv_obj_get_style_pad_top(const struct _lv_obj_t * obj, uint32_t part)
 104:c:\projects\paindrain\arduinolcd\test\pain drain\libraries\lvgl\src/core\lv_obj_style_gen.h **** {
 105:c:\projects\paindrain\arduinolcd\test\pain drain\libraries\lvgl\src/core\lv_obj_style_gen.h ****     lv_style_value_t v = lv_obj_get_style_prop(obj, part, LV_STYLE_PAD_TOP);
 106:c:\projects\paindrain\arduinolcd\test\pain drain\libraries\lvgl\src/core\lv_obj_style_gen.h ****     return (lv_coord_t)v.num;
 107:c:\projects\paindrain\arduinolcd\test\pain drain\libraries\lvgl\src/core\lv_obj_style_gen.h **** }
 108:c:\projects\paindrain\arduinolcd\test\pain drain\libraries\lvgl\src/core\lv_obj_style_gen.h **** 
 109:c:\projects\paindrain\arduinolcd\test\pain drain\libraries\lvgl\src/core\lv_obj_style_gen.h **** static inline lv_coord_t lv_obj_get_style_pad_bottom(const struct _lv_obj_t * obj, uint32_t part)
 110:c:\projects\paindrain\arduinolcd\test\pain drain\libraries\lvgl\src/core\lv_obj_style_gen.h **** {
 111:c:\projects\paindrain\arduinolcd\test\pain drain\libraries\lvgl\src/core\lv_obj_style_gen.h ****     lv_style_value_t v = lv_obj_get_style_prop(obj, part, LV_STYLE_PAD_BOTTOM);
 112:c:\projects\paindrain\arduinolcd\test\pain drain\libraries\lvgl\src/core\lv_obj_style_gen.h ****     return (lv_coord_t)v.num;
 113:c:\projects\paindrain\arduinolcd\test\pain drain\libraries\lvgl\src/core\lv_obj_style_gen.h **** }
 114:c:\projects\paindrain\arduinolcd\test\pain drain\libraries\lvgl\src/core\lv_obj_style_gen.h **** 
 115:c:\projects\paindrain\arduinolcd\test\pain drain\libraries\lvgl\src/core\lv_obj_style_gen.h **** static inline lv_coord_t lv_obj_get_style_pad_left(const struct _lv_obj_t * obj, uint32_t part)
 116:c:\projects\paindrain\arduinolcd\test\pain drain\libraries\lvgl\src/core\lv_obj_style_gen.h **** {
 117:c:\projects\paindrain\arduinolcd\test\pain drain\libraries\lvgl\src/core\lv_obj_style_gen.h ****     lv_style_value_t v = lv_obj_get_style_prop(obj, part, LV_STYLE_PAD_LEFT);
 118:c:\projects\paindrain\arduinolcd\test\pain drain\libraries\lvgl\src/core\lv_obj_style_gen.h ****     return (lv_coord_t)v.num;
 119:c:\projects\paindrain\arduinolcd\test\pain drain\libraries\lvgl\src/core\lv_obj_style_gen.h **** }
 120:c:\projects\paindrain\arduinolcd\test\pain drain\libraries\lvgl\src/core\lv_obj_style_gen.h **** 
 121:c:\projects\paindrain\arduinolcd\test\pain drain\libraries\lvgl\src/core\lv_obj_style_gen.h **** static inline lv_coord_t lv_obj_get_style_pad_right(const struct _lv_obj_t * obj, uint32_t part)
 122:c:\projects\paindrain\arduinolcd\test\pain drain\libraries\lvgl\src/core\lv_obj_style_gen.h **** {
 123:c:\projects\paindrain\arduinolcd\test\pain drain\libraries\lvgl\src/core\lv_obj_style_gen.h ****     lv_style_value_t v = lv_obj_get_style_prop(obj, part, LV_STYLE_PAD_RIGHT);
 124:c:\projects\paindrain\arduinolcd\test\pain drain\libraries\lvgl\src/core\lv_obj_style_gen.h ****     return (lv_coord_t)v.num;
 125:c:\projects\paindrain\arduinolcd\test\pain drain\libraries\lvgl\src/core\lv_obj_style_gen.h **** }
 126:c:\projects\paindrain\arduinolcd\test\pain drain\libraries\lvgl\src/core\lv_obj_style_gen.h **** 
 127:c:\projects\paindrain\arduinolcd\test\pain drain\libraries\lvgl\src/core\lv_obj_style_gen.h **** static inline lv_coord_t lv_obj_get_style_pad_row(const struct _lv_obj_t * obj, uint32_t part)
 128:c:\projects\paindrain\arduinolcd\test\pain drain\libraries\lvgl\src/core\lv_obj_style_gen.h **** {
 129:c:\projects\paindrain\arduinolcd\test\pain drain\libraries\lvgl\src/core\lv_obj_style_gen.h ****     lv_style_value_t v = lv_obj_get_style_prop(obj, part, LV_STYLE_PAD_ROW);
 130:c:\projects\paindrain\arduinolcd\test\pain drain\libraries\lvgl\src/core\lv_obj_style_gen.h ****     return (lv_coord_t)v.num;
 131:c:\projects\paindrain\arduinolcd\test\pain drain\libraries\lvgl\src/core\lv_obj_style_gen.h **** }
 132:c:\projects\paindrain\arduinolcd\test\pain drain\libraries\lvgl\src/core\lv_obj_style_gen.h **** 
 133:c:\projects\paindrain\arduinolcd\test\pain drain\libraries\lvgl\src/core\lv_obj_style_gen.h **** static inline lv_coord_t lv_obj_get_style_pad_column(const struct _lv_obj_t * obj, uint32_t part)
 134:c:\projects\paindrain\arduinolcd\test\pain drain\libraries\lvgl\src/core\lv_obj_style_gen.h **** {
 135:c:\projects\paindrain\arduinolcd\test\pain drain\libraries\lvgl\src/core\lv_obj_style_gen.h ****     lv_style_value_t v = lv_obj_get_style_prop(obj, part, LV_STYLE_PAD_COLUMN);
 136:c:\projects\paindrain\arduinolcd\test\pain drain\libraries\lvgl\src/core\lv_obj_style_gen.h ****     return (lv_coord_t)v.num;
 137:c:\projects\paindrain\arduinolcd\test\pain drain\libraries\lvgl\src/core\lv_obj_style_gen.h **** }
 138:c:\projects\paindrain\arduinolcd\test\pain drain\libraries\lvgl\src/core\lv_obj_style_gen.h **** 
 139:c:\projects\paindrain\arduinolcd\test\pain drain\libraries\lvgl\src/core\lv_obj_style_gen.h **** static inline lv_color_t lv_obj_get_style_bg_color(const struct _lv_obj_t * obj, uint32_t part)
 140:c:\projects\paindrain\arduinolcd\test\pain drain\libraries\lvgl\src/core\lv_obj_style_gen.h **** {
 141:c:\projects\paindrain\arduinolcd\test\pain drain\libraries\lvgl\src/core\lv_obj_style_gen.h ****     lv_style_value_t v = lv_obj_get_style_prop(obj, part, LV_STYLE_BG_COLOR);
 142:c:\projects\paindrain\arduinolcd\test\pain drain\libraries\lvgl\src/core\lv_obj_style_gen.h ****     return v.color;
 143:c:\projects\paindrain\arduinolcd\test\pain drain\libraries\lvgl\src/core\lv_obj_style_gen.h **** }
 144:c:\projects\paindrain\arduinolcd\test\pain drain\libraries\lvgl\src/core\lv_obj_style_gen.h **** 
 145:c:\projects\paindrain\arduinolcd\test\pain drain\libraries\lvgl\src/core\lv_obj_style_gen.h **** static inline lv_color_t lv_obj_get_style_bg_color_filtered(const struct _lv_obj_t * obj, uint32_t 
 146:c:\projects\paindrain\arduinolcd\test\pain drain\libraries\lvgl\src/core\lv_obj_style_gen.h **** {
 147:c:\projects\paindrain\arduinolcd\test\pain drain\libraries\lvgl\src/core\lv_obj_style_gen.h ****     lv_style_value_t v = _lv_obj_style_apply_color_filter(obj, part, lv_obj_get_style_prop(obj, par
ARM GAS  C:\Users\haske\AppData\Local\Temp\ccIkbvey.s 			page 36


 148:c:\projects\paindrain\arduinolcd\test\pain drain\libraries\lvgl\src/core\lv_obj_style_gen.h ****     return v.color;
 149:c:\projects\paindrain\arduinolcd\test\pain drain\libraries\lvgl\src/core\lv_obj_style_gen.h **** }
 150:c:\projects\paindrain\arduinolcd\test\pain drain\libraries\lvgl\src/core\lv_obj_style_gen.h **** 
 151:c:\projects\paindrain\arduinolcd\test\pain drain\libraries\lvgl\src/core\lv_obj_style_gen.h **** static inline lv_opa_t lv_obj_get_style_bg_opa(const struct _lv_obj_t * obj, uint32_t part)
 152:c:\projects\paindrain\arduinolcd\test\pain drain\libraries\lvgl\src/core\lv_obj_style_gen.h **** {
 153:c:\projects\paindrain\arduinolcd\test\pain drain\libraries\lvgl\src/core\lv_obj_style_gen.h ****     lv_style_value_t v = lv_obj_get_style_prop(obj, part, LV_STYLE_BG_OPA);
 154:c:\projects\paindrain\arduinolcd\test\pain drain\libraries\lvgl\src/core\lv_obj_style_gen.h ****     return (lv_opa_t)v.num;
 155:c:\projects\paindrain\arduinolcd\test\pain drain\libraries\lvgl\src/core\lv_obj_style_gen.h **** }
 156:c:\projects\paindrain\arduinolcd\test\pain drain\libraries\lvgl\src/core\lv_obj_style_gen.h **** 
 157:c:\projects\paindrain\arduinolcd\test\pain drain\libraries\lvgl\src/core\lv_obj_style_gen.h **** static inline lv_color_t lv_obj_get_style_bg_grad_color(const struct _lv_obj_t * obj, uint32_t part
 158:c:\projects\paindrain\arduinolcd\test\pain drain\libraries\lvgl\src/core\lv_obj_style_gen.h **** {
 159:c:\projects\paindrain\arduinolcd\test\pain drain\libraries\lvgl\src/core\lv_obj_style_gen.h ****     lv_style_value_t v = lv_obj_get_style_prop(obj, part, LV_STYLE_BG_GRAD_COLOR);
 160:c:\projects\paindrain\arduinolcd\test\pain drain\libraries\lvgl\src/core\lv_obj_style_gen.h ****     return v.color;
 161:c:\projects\paindrain\arduinolcd\test\pain drain\libraries\lvgl\src/core\lv_obj_style_gen.h **** }
 162:c:\projects\paindrain\arduinolcd\test\pain drain\libraries\lvgl\src/core\lv_obj_style_gen.h **** 
 163:c:\projects\paindrain\arduinolcd\test\pain drain\libraries\lvgl\src/core\lv_obj_style_gen.h **** static inline lv_color_t lv_obj_get_style_bg_grad_color_filtered(const struct _lv_obj_t * obj, uint
 164:c:\projects\paindrain\arduinolcd\test\pain drain\libraries\lvgl\src/core\lv_obj_style_gen.h **** {
 165:c:\projects\paindrain\arduinolcd\test\pain drain\libraries\lvgl\src/core\lv_obj_style_gen.h ****     lv_style_value_t v = _lv_obj_style_apply_color_filter(obj, part, lv_obj_get_style_prop(obj, par
 166:c:\projects\paindrain\arduinolcd\test\pain drain\libraries\lvgl\src/core\lv_obj_style_gen.h ****     return v.color;
 167:c:\projects\paindrain\arduinolcd\test\pain drain\libraries\lvgl\src/core\lv_obj_style_gen.h **** }
 168:c:\projects\paindrain\arduinolcd\test\pain drain\libraries\lvgl\src/core\lv_obj_style_gen.h **** 
 169:c:\projects\paindrain\arduinolcd\test\pain drain\libraries\lvgl\src/core\lv_obj_style_gen.h **** static inline lv_grad_dir_t lv_obj_get_style_bg_grad_dir(const struct _lv_obj_t * obj, uint32_t par
 170:c:\projects\paindrain\arduinolcd\test\pain drain\libraries\lvgl\src/core\lv_obj_style_gen.h **** {
 171:c:\projects\paindrain\arduinolcd\test\pain drain\libraries\lvgl\src/core\lv_obj_style_gen.h ****     lv_style_value_t v = lv_obj_get_style_prop(obj, part, LV_STYLE_BG_GRAD_DIR);
 172:c:\projects\paindrain\arduinolcd\test\pain drain\libraries\lvgl\src/core\lv_obj_style_gen.h ****     return (lv_grad_dir_t)v.num;
 173:c:\projects\paindrain\arduinolcd\test\pain drain\libraries\lvgl\src/core\lv_obj_style_gen.h **** }
 174:c:\projects\paindrain\arduinolcd\test\pain drain\libraries\lvgl\src/core\lv_obj_style_gen.h **** 
 175:c:\projects\paindrain\arduinolcd\test\pain drain\libraries\lvgl\src/core\lv_obj_style_gen.h **** static inline lv_coord_t lv_obj_get_style_bg_main_stop(const struct _lv_obj_t * obj, uint32_t part)
 176:c:\projects\paindrain\arduinolcd\test\pain drain\libraries\lvgl\src/core\lv_obj_style_gen.h **** {
 177:c:\projects\paindrain\arduinolcd\test\pain drain\libraries\lvgl\src/core\lv_obj_style_gen.h ****     lv_style_value_t v = lv_obj_get_style_prop(obj, part, LV_STYLE_BG_MAIN_STOP);
 178:c:\projects\paindrain\arduinolcd\test\pain drain\libraries\lvgl\src/core\lv_obj_style_gen.h ****     return (lv_coord_t)v.num;
 179:c:\projects\paindrain\arduinolcd\test\pain drain\libraries\lvgl\src/core\lv_obj_style_gen.h **** }
 180:c:\projects\paindrain\arduinolcd\test\pain drain\libraries\lvgl\src/core\lv_obj_style_gen.h **** 
 181:c:\projects\paindrain\arduinolcd\test\pain drain\libraries\lvgl\src/core\lv_obj_style_gen.h **** static inline lv_coord_t lv_obj_get_style_bg_grad_stop(const struct _lv_obj_t * obj, uint32_t part)
 182:c:\projects\paindrain\arduinolcd\test\pain drain\libraries\lvgl\src/core\lv_obj_style_gen.h **** {
 183:c:\projects\paindrain\arduinolcd\test\pain drain\libraries\lvgl\src/core\lv_obj_style_gen.h ****     lv_style_value_t v = lv_obj_get_style_prop(obj, part, LV_STYLE_BG_GRAD_STOP);
 184:c:\projects\paindrain\arduinolcd\test\pain drain\libraries\lvgl\src/core\lv_obj_style_gen.h ****     return (lv_coord_t)v.num;
 185:c:\projects\paindrain\arduinolcd\test\pain drain\libraries\lvgl\src/core\lv_obj_style_gen.h **** }
 186:c:\projects\paindrain\arduinolcd\test\pain drain\libraries\lvgl\src/core\lv_obj_style_gen.h **** 
 187:c:\projects\paindrain\arduinolcd\test\pain drain\libraries\lvgl\src/core\lv_obj_style_gen.h **** static inline const lv_grad_dsc_t * lv_obj_get_style_bg_grad(const struct _lv_obj_t * obj, uint32_t
 188:c:\projects\paindrain\arduinolcd\test\pain drain\libraries\lvgl\src/core\lv_obj_style_gen.h **** {
 189:c:\projects\paindrain\arduinolcd\test\pain drain\libraries\lvgl\src/core\lv_obj_style_gen.h ****     lv_style_value_t v = lv_obj_get_style_prop(obj, part, LV_STYLE_BG_GRAD);
 190:c:\projects\paindrain\arduinolcd\test\pain drain\libraries\lvgl\src/core\lv_obj_style_gen.h ****     return (const lv_grad_dsc_t *)v.ptr;
 191:c:\projects\paindrain\arduinolcd\test\pain drain\libraries\lvgl\src/core\lv_obj_style_gen.h **** }
 192:c:\projects\paindrain\arduinolcd\test\pain drain\libraries\lvgl\src/core\lv_obj_style_gen.h **** 
 193:c:\projects\paindrain\arduinolcd\test\pain drain\libraries\lvgl\src/core\lv_obj_style_gen.h **** static inline lv_dither_mode_t lv_obj_get_style_bg_dither_mode(const struct _lv_obj_t * obj, uint32
 194:c:\projects\paindrain\arduinolcd\test\pain drain\libraries\lvgl\src/core\lv_obj_style_gen.h **** {
 195:c:\projects\paindrain\arduinolcd\test\pain drain\libraries\lvgl\src/core\lv_obj_style_gen.h ****     lv_style_value_t v = lv_obj_get_style_prop(obj, part, LV_STYLE_BG_DITHER_MODE);
 196:c:\projects\paindrain\arduinolcd\test\pain drain\libraries\lvgl\src/core\lv_obj_style_gen.h ****     return (lv_dither_mode_t)v.num;
 197:c:\projects\paindrain\arduinolcd\test\pain drain\libraries\lvgl\src/core\lv_obj_style_gen.h **** }
 198:c:\projects\paindrain\arduinolcd\test\pain drain\libraries\lvgl\src/core\lv_obj_style_gen.h **** 
 199:c:\projects\paindrain\arduinolcd\test\pain drain\libraries\lvgl\src/core\lv_obj_style_gen.h **** static inline const void * lv_obj_get_style_bg_img_src(const struct _lv_obj_t * obj, uint32_t part)
 200:c:\projects\paindrain\arduinolcd\test\pain drain\libraries\lvgl\src/core\lv_obj_style_gen.h **** {
 201:c:\projects\paindrain\arduinolcd\test\pain drain\libraries\lvgl\src/core\lv_obj_style_gen.h ****     lv_style_value_t v = lv_obj_get_style_prop(obj, part, LV_STYLE_BG_IMG_SRC);
 202:c:\projects\paindrain\arduinolcd\test\pain drain\libraries\lvgl\src/core\lv_obj_style_gen.h ****     return (const void *)v.ptr;
 203:c:\projects\paindrain\arduinolcd\test\pain drain\libraries\lvgl\src/core\lv_obj_style_gen.h **** }
 204:c:\projects\paindrain\arduinolcd\test\pain drain\libraries\lvgl\src/core\lv_obj_style_gen.h **** 
ARM GAS  C:\Users\haske\AppData\Local\Temp\ccIkbvey.s 			page 37


 205:c:\projects\paindrain\arduinolcd\test\pain drain\libraries\lvgl\src/core\lv_obj_style_gen.h **** static inline lv_opa_t lv_obj_get_style_bg_img_opa(const struct _lv_obj_t * obj, uint32_t part)
 206:c:\projects\paindrain\arduinolcd\test\pain drain\libraries\lvgl\src/core\lv_obj_style_gen.h **** {
 207:c:\projects\paindrain\arduinolcd\test\pain drain\libraries\lvgl\src/core\lv_obj_style_gen.h ****     lv_style_value_t v = lv_obj_get_style_prop(obj, part, LV_STYLE_BG_IMG_OPA);
 208:c:\projects\paindrain\arduinolcd\test\pain drain\libraries\lvgl\src/core\lv_obj_style_gen.h ****     return (lv_opa_t)v.num;
 209:c:\projects\paindrain\arduinolcd\test\pain drain\libraries\lvgl\src/core\lv_obj_style_gen.h **** }
 210:c:\projects\paindrain\arduinolcd\test\pain drain\libraries\lvgl\src/core\lv_obj_style_gen.h **** 
 211:c:\projects\paindrain\arduinolcd\test\pain drain\libraries\lvgl\src/core\lv_obj_style_gen.h **** static inline lv_color_t lv_obj_get_style_bg_img_recolor(const struct _lv_obj_t * obj, uint32_t par
 212:c:\projects\paindrain\arduinolcd\test\pain drain\libraries\lvgl\src/core\lv_obj_style_gen.h **** {
 213:c:\projects\paindrain\arduinolcd\test\pain drain\libraries\lvgl\src/core\lv_obj_style_gen.h ****     lv_style_value_t v = lv_obj_get_style_prop(obj, part, LV_STYLE_BG_IMG_RECOLOR);
 214:c:\projects\paindrain\arduinolcd\test\pain drain\libraries\lvgl\src/core\lv_obj_style_gen.h ****     return v.color;
 215:c:\projects\paindrain\arduinolcd\test\pain drain\libraries\lvgl\src/core\lv_obj_style_gen.h **** }
 216:c:\projects\paindrain\arduinolcd\test\pain drain\libraries\lvgl\src/core\lv_obj_style_gen.h **** 
 217:c:\projects\paindrain\arduinolcd\test\pain drain\libraries\lvgl\src/core\lv_obj_style_gen.h **** static inline lv_color_t lv_obj_get_style_bg_img_recolor_filtered(const struct _lv_obj_t * obj, uin
 218:c:\projects\paindrain\arduinolcd\test\pain drain\libraries\lvgl\src/core\lv_obj_style_gen.h **** {
 219:c:\projects\paindrain\arduinolcd\test\pain drain\libraries\lvgl\src/core\lv_obj_style_gen.h ****     lv_style_value_t v = _lv_obj_style_apply_color_filter(obj, part, lv_obj_get_style_prop(obj, par
 220:c:\projects\paindrain\arduinolcd\test\pain drain\libraries\lvgl\src/core\lv_obj_style_gen.h ****     return v.color;
 221:c:\projects\paindrain\arduinolcd\test\pain drain\libraries\lvgl\src/core\lv_obj_style_gen.h **** }
 222:c:\projects\paindrain\arduinolcd\test\pain drain\libraries\lvgl\src/core\lv_obj_style_gen.h **** 
 223:c:\projects\paindrain\arduinolcd\test\pain drain\libraries\lvgl\src/core\lv_obj_style_gen.h **** static inline lv_opa_t lv_obj_get_style_bg_img_recolor_opa(const struct _lv_obj_t * obj, uint32_t p
 224:c:\projects\paindrain\arduinolcd\test\pain drain\libraries\lvgl\src/core\lv_obj_style_gen.h **** {
 225:c:\projects\paindrain\arduinolcd\test\pain drain\libraries\lvgl\src/core\lv_obj_style_gen.h ****     lv_style_value_t v = lv_obj_get_style_prop(obj, part, LV_STYLE_BG_IMG_RECOLOR_OPA);
 226:c:\projects\paindrain\arduinolcd\test\pain drain\libraries\lvgl\src/core\lv_obj_style_gen.h ****     return (lv_opa_t)v.num;
 227:c:\projects\paindrain\arduinolcd\test\pain drain\libraries\lvgl\src/core\lv_obj_style_gen.h **** }
 228:c:\projects\paindrain\arduinolcd\test\pain drain\libraries\lvgl\src/core\lv_obj_style_gen.h **** 
 229:c:\projects\paindrain\arduinolcd\test\pain drain\libraries\lvgl\src/core\lv_obj_style_gen.h **** static inline bool lv_obj_get_style_bg_img_tiled(const struct _lv_obj_t * obj, uint32_t part)
 230:c:\projects\paindrain\arduinolcd\test\pain drain\libraries\lvgl\src/core\lv_obj_style_gen.h **** {
 231:c:\projects\paindrain\arduinolcd\test\pain drain\libraries\lvgl\src/core\lv_obj_style_gen.h ****     lv_style_value_t v = lv_obj_get_style_prop(obj, part, LV_STYLE_BG_IMG_TILED);
 232:c:\projects\paindrain\arduinolcd\test\pain drain\libraries\lvgl\src/core\lv_obj_style_gen.h ****     return (bool)v.num;
 233:c:\projects\paindrain\arduinolcd\test\pain drain\libraries\lvgl\src/core\lv_obj_style_gen.h **** }
 234:c:\projects\paindrain\arduinolcd\test\pain drain\libraries\lvgl\src/core\lv_obj_style_gen.h **** 
 235:c:\projects\paindrain\arduinolcd\test\pain drain\libraries\lvgl\src/core\lv_obj_style_gen.h **** static inline lv_color_t lv_obj_get_style_border_color(const struct _lv_obj_t * obj, uint32_t part)
 236:c:\projects\paindrain\arduinolcd\test\pain drain\libraries\lvgl\src/core\lv_obj_style_gen.h **** {
 237:c:\projects\paindrain\arduinolcd\test\pain drain\libraries\lvgl\src/core\lv_obj_style_gen.h ****     lv_style_value_t v = lv_obj_get_style_prop(obj, part, LV_STYLE_BORDER_COLOR);
 238:c:\projects\paindrain\arduinolcd\test\pain drain\libraries\lvgl\src/core\lv_obj_style_gen.h ****     return v.color;
 239:c:\projects\paindrain\arduinolcd\test\pain drain\libraries\lvgl\src/core\lv_obj_style_gen.h **** }
 240:c:\projects\paindrain\arduinolcd\test\pain drain\libraries\lvgl\src/core\lv_obj_style_gen.h **** 
 241:c:\projects\paindrain\arduinolcd\test\pain drain\libraries\lvgl\src/core\lv_obj_style_gen.h **** static inline lv_color_t lv_obj_get_style_border_color_filtered(const struct _lv_obj_t * obj, uint3
 242:c:\projects\paindrain\arduinolcd\test\pain drain\libraries\lvgl\src/core\lv_obj_style_gen.h **** {
 243:c:\projects\paindrain\arduinolcd\test\pain drain\libraries\lvgl\src/core\lv_obj_style_gen.h ****     lv_style_value_t v = _lv_obj_style_apply_color_filter(obj, part, lv_obj_get_style_prop(obj, par
 244:c:\projects\paindrain\arduinolcd\test\pain drain\libraries\lvgl\src/core\lv_obj_style_gen.h ****     return v.color;
 245:c:\projects\paindrain\arduinolcd\test\pain drain\libraries\lvgl\src/core\lv_obj_style_gen.h **** }
 246:c:\projects\paindrain\arduinolcd\test\pain drain\libraries\lvgl\src/core\lv_obj_style_gen.h **** 
 247:c:\projects\paindrain\arduinolcd\test\pain drain\libraries\lvgl\src/core\lv_obj_style_gen.h **** static inline lv_opa_t lv_obj_get_style_border_opa(const struct _lv_obj_t * obj, uint32_t part)
 248:c:\projects\paindrain\arduinolcd\test\pain drain\libraries\lvgl\src/core\lv_obj_style_gen.h **** {
 249:c:\projects\paindrain\arduinolcd\test\pain drain\libraries\lvgl\src/core\lv_obj_style_gen.h ****     lv_style_value_t v = lv_obj_get_style_prop(obj, part, LV_STYLE_BORDER_OPA);
 250:c:\projects\paindrain\arduinolcd\test\pain drain\libraries\lvgl\src/core\lv_obj_style_gen.h ****     return (lv_opa_t)v.num;
 251:c:\projects\paindrain\arduinolcd\test\pain drain\libraries\lvgl\src/core\lv_obj_style_gen.h **** }
 252:c:\projects\paindrain\arduinolcd\test\pain drain\libraries\lvgl\src/core\lv_obj_style_gen.h **** 
 253:c:\projects\paindrain\arduinolcd\test\pain drain\libraries\lvgl\src/core\lv_obj_style_gen.h **** static inline lv_coord_t lv_obj_get_style_border_width(const struct _lv_obj_t * obj, uint32_t part)
 254:c:\projects\paindrain\arduinolcd\test\pain drain\libraries\lvgl\src/core\lv_obj_style_gen.h **** {
 255:c:\projects\paindrain\arduinolcd\test\pain drain\libraries\lvgl\src/core\lv_obj_style_gen.h ****     lv_style_value_t v = lv_obj_get_style_prop(obj, part, LV_STYLE_BORDER_WIDTH);
 256:c:\projects\paindrain\arduinolcd\test\pain drain\libraries\lvgl\src/core\lv_obj_style_gen.h ****     return (lv_coord_t)v.num;
 257:c:\projects\paindrain\arduinolcd\test\pain drain\libraries\lvgl\src/core\lv_obj_style_gen.h **** }
 258:c:\projects\paindrain\arduinolcd\test\pain drain\libraries\lvgl\src/core\lv_obj_style_gen.h **** 
 259:c:\projects\paindrain\arduinolcd\test\pain drain\libraries\lvgl\src/core\lv_obj_style_gen.h **** static inline lv_border_side_t lv_obj_get_style_border_side(const struct _lv_obj_t * obj, uint32_t 
 260:c:\projects\paindrain\arduinolcd\test\pain drain\libraries\lvgl\src/core\lv_obj_style_gen.h **** {
 261:c:\projects\paindrain\arduinolcd\test\pain drain\libraries\lvgl\src/core\lv_obj_style_gen.h ****     lv_style_value_t v = lv_obj_get_style_prop(obj, part, LV_STYLE_BORDER_SIDE);
ARM GAS  C:\Users\haske\AppData\Local\Temp\ccIkbvey.s 			page 38


 262:c:\projects\paindrain\arduinolcd\test\pain drain\libraries\lvgl\src/core\lv_obj_style_gen.h ****     return (lv_border_side_t)v.num;
 263:c:\projects\paindrain\arduinolcd\test\pain drain\libraries\lvgl\src/core\lv_obj_style_gen.h **** }
 264:c:\projects\paindrain\arduinolcd\test\pain drain\libraries\lvgl\src/core\lv_obj_style_gen.h **** 
 265:c:\projects\paindrain\arduinolcd\test\pain drain\libraries\lvgl\src/core\lv_obj_style_gen.h **** static inline bool lv_obj_get_style_border_post(const struct _lv_obj_t * obj, uint32_t part)
 266:c:\projects\paindrain\arduinolcd\test\pain drain\libraries\lvgl\src/core\lv_obj_style_gen.h **** {
 267:c:\projects\paindrain\arduinolcd\test\pain drain\libraries\lvgl\src/core\lv_obj_style_gen.h ****     lv_style_value_t v = lv_obj_get_style_prop(obj, part, LV_STYLE_BORDER_POST);
 268:c:\projects\paindrain\arduinolcd\test\pain drain\libraries\lvgl\src/core\lv_obj_style_gen.h ****     return (bool)v.num;
 269:c:\projects\paindrain\arduinolcd\test\pain drain\libraries\lvgl\src/core\lv_obj_style_gen.h **** }
 270:c:\projects\paindrain\arduinolcd\test\pain drain\libraries\lvgl\src/core\lv_obj_style_gen.h **** 
 271:c:\projects\paindrain\arduinolcd\test\pain drain\libraries\lvgl\src/core\lv_obj_style_gen.h **** static inline lv_coord_t lv_obj_get_style_outline_width(const struct _lv_obj_t * obj, uint32_t part
 272:c:\projects\paindrain\arduinolcd\test\pain drain\libraries\lvgl\src/core\lv_obj_style_gen.h **** {
 273:c:\projects\paindrain\arduinolcd\test\pain drain\libraries\lvgl\src/core\lv_obj_style_gen.h ****     lv_style_value_t v = lv_obj_get_style_prop(obj, part, LV_STYLE_OUTLINE_WIDTH);
 274:c:\projects\paindrain\arduinolcd\test\pain drain\libraries\lvgl\src/core\lv_obj_style_gen.h ****     return (lv_coord_t)v.num;
 275:c:\projects\paindrain\arduinolcd\test\pain drain\libraries\lvgl\src/core\lv_obj_style_gen.h **** }
 276:c:\projects\paindrain\arduinolcd\test\pain drain\libraries\lvgl\src/core\lv_obj_style_gen.h **** 
 277:c:\projects\paindrain\arduinolcd\test\pain drain\libraries\lvgl\src/core\lv_obj_style_gen.h **** static inline lv_color_t lv_obj_get_style_outline_color(const struct _lv_obj_t * obj, uint32_t part
 278:c:\projects\paindrain\arduinolcd\test\pain drain\libraries\lvgl\src/core\lv_obj_style_gen.h **** {
 279:c:\projects\paindrain\arduinolcd\test\pain drain\libraries\lvgl\src/core\lv_obj_style_gen.h ****     lv_style_value_t v = lv_obj_get_style_prop(obj, part, LV_STYLE_OUTLINE_COLOR);
 280:c:\projects\paindrain\arduinolcd\test\pain drain\libraries\lvgl\src/core\lv_obj_style_gen.h ****     return v.color;
 281:c:\projects\paindrain\arduinolcd\test\pain drain\libraries\lvgl\src/core\lv_obj_style_gen.h **** }
 282:c:\projects\paindrain\arduinolcd\test\pain drain\libraries\lvgl\src/core\lv_obj_style_gen.h **** 
 283:c:\projects\paindrain\arduinolcd\test\pain drain\libraries\lvgl\src/core\lv_obj_style_gen.h **** static inline lv_color_t lv_obj_get_style_outline_color_filtered(const struct _lv_obj_t * obj, uint
 284:c:\projects\paindrain\arduinolcd\test\pain drain\libraries\lvgl\src/core\lv_obj_style_gen.h **** {
 285:c:\projects\paindrain\arduinolcd\test\pain drain\libraries\lvgl\src/core\lv_obj_style_gen.h ****     lv_style_value_t v = _lv_obj_style_apply_color_filter(obj, part, lv_obj_get_style_prop(obj, par
 286:c:\projects\paindrain\arduinolcd\test\pain drain\libraries\lvgl\src/core\lv_obj_style_gen.h ****     return v.color;
 287:c:\projects\paindrain\arduinolcd\test\pain drain\libraries\lvgl\src/core\lv_obj_style_gen.h **** }
 288:c:\projects\paindrain\arduinolcd\test\pain drain\libraries\lvgl\src/core\lv_obj_style_gen.h **** 
 289:c:\projects\paindrain\arduinolcd\test\pain drain\libraries\lvgl\src/core\lv_obj_style_gen.h **** static inline lv_opa_t lv_obj_get_style_outline_opa(const struct _lv_obj_t * obj, uint32_t part)
 290:c:\projects\paindrain\arduinolcd\test\pain drain\libraries\lvgl\src/core\lv_obj_style_gen.h **** {
 291:c:\projects\paindrain\arduinolcd\test\pain drain\libraries\lvgl\src/core\lv_obj_style_gen.h ****     lv_style_value_t v = lv_obj_get_style_prop(obj, part, LV_STYLE_OUTLINE_OPA);
 292:c:\projects\paindrain\arduinolcd\test\pain drain\libraries\lvgl\src/core\lv_obj_style_gen.h ****     return (lv_opa_t)v.num;
 293:c:\projects\paindrain\arduinolcd\test\pain drain\libraries\lvgl\src/core\lv_obj_style_gen.h **** }
 294:c:\projects\paindrain\arduinolcd\test\pain drain\libraries\lvgl\src/core\lv_obj_style_gen.h **** 
 295:c:\projects\paindrain\arduinolcd\test\pain drain\libraries\lvgl\src/core\lv_obj_style_gen.h **** static inline lv_coord_t lv_obj_get_style_outline_pad(const struct _lv_obj_t * obj, uint32_t part)
 296:c:\projects\paindrain\arduinolcd\test\pain drain\libraries\lvgl\src/core\lv_obj_style_gen.h **** {
 297:c:\projects\paindrain\arduinolcd\test\pain drain\libraries\lvgl\src/core\lv_obj_style_gen.h ****     lv_style_value_t v = lv_obj_get_style_prop(obj, part, LV_STYLE_OUTLINE_PAD);
 298:c:\projects\paindrain\arduinolcd\test\pain drain\libraries\lvgl\src/core\lv_obj_style_gen.h ****     return (lv_coord_t)v.num;
 299:c:\projects\paindrain\arduinolcd\test\pain drain\libraries\lvgl\src/core\lv_obj_style_gen.h **** }
 300:c:\projects\paindrain\arduinolcd\test\pain drain\libraries\lvgl\src/core\lv_obj_style_gen.h **** 
 301:c:\projects\paindrain\arduinolcd\test\pain drain\libraries\lvgl\src/core\lv_obj_style_gen.h **** static inline lv_coord_t lv_obj_get_style_shadow_width(const struct _lv_obj_t * obj, uint32_t part)
 302:c:\projects\paindrain\arduinolcd\test\pain drain\libraries\lvgl\src/core\lv_obj_style_gen.h **** {
 303:c:\projects\paindrain\arduinolcd\test\pain drain\libraries\lvgl\src/core\lv_obj_style_gen.h ****     lv_style_value_t v = lv_obj_get_style_prop(obj, part, LV_STYLE_SHADOW_WIDTH);
 304:c:\projects\paindrain\arduinolcd\test\pain drain\libraries\lvgl\src/core\lv_obj_style_gen.h ****     return (lv_coord_t)v.num;
 305:c:\projects\paindrain\arduinolcd\test\pain drain\libraries\lvgl\src/core\lv_obj_style_gen.h **** }
 306:c:\projects\paindrain\arduinolcd\test\pain drain\libraries\lvgl\src/core\lv_obj_style_gen.h **** 
 307:c:\projects\paindrain\arduinolcd\test\pain drain\libraries\lvgl\src/core\lv_obj_style_gen.h **** static inline lv_coord_t lv_obj_get_style_shadow_ofs_x(const struct _lv_obj_t * obj, uint32_t part)
 308:c:\projects\paindrain\arduinolcd\test\pain drain\libraries\lvgl\src/core\lv_obj_style_gen.h **** {
 309:c:\projects\paindrain\arduinolcd\test\pain drain\libraries\lvgl\src/core\lv_obj_style_gen.h ****     lv_style_value_t v = lv_obj_get_style_prop(obj, part, LV_STYLE_SHADOW_OFS_X);
 310:c:\projects\paindrain\arduinolcd\test\pain drain\libraries\lvgl\src/core\lv_obj_style_gen.h ****     return (lv_coord_t)v.num;
 311:c:\projects\paindrain\arduinolcd\test\pain drain\libraries\lvgl\src/core\lv_obj_style_gen.h **** }
 312:c:\projects\paindrain\arduinolcd\test\pain drain\libraries\lvgl\src/core\lv_obj_style_gen.h **** 
 313:c:\projects\paindrain\arduinolcd\test\pain drain\libraries\lvgl\src/core\lv_obj_style_gen.h **** static inline lv_coord_t lv_obj_get_style_shadow_ofs_y(const struct _lv_obj_t * obj, uint32_t part)
 314:c:\projects\paindrain\arduinolcd\test\pain drain\libraries\lvgl\src/core\lv_obj_style_gen.h **** {
 315:c:\projects\paindrain\arduinolcd\test\pain drain\libraries\lvgl\src/core\lv_obj_style_gen.h ****     lv_style_value_t v = lv_obj_get_style_prop(obj, part, LV_STYLE_SHADOW_OFS_Y);
 316:c:\projects\paindrain\arduinolcd\test\pain drain\libraries\lvgl\src/core\lv_obj_style_gen.h ****     return (lv_coord_t)v.num;
 317:c:\projects\paindrain\arduinolcd\test\pain drain\libraries\lvgl\src/core\lv_obj_style_gen.h **** }
 318:c:\projects\paindrain\arduinolcd\test\pain drain\libraries\lvgl\src/core\lv_obj_style_gen.h **** 
ARM GAS  C:\Users\haske\AppData\Local\Temp\ccIkbvey.s 			page 39


 319:c:\projects\paindrain\arduinolcd\test\pain drain\libraries\lvgl\src/core\lv_obj_style_gen.h **** static inline lv_coord_t lv_obj_get_style_shadow_spread(const struct _lv_obj_t * obj, uint32_t part
 320:c:\projects\paindrain\arduinolcd\test\pain drain\libraries\lvgl\src/core\lv_obj_style_gen.h **** {
 321:c:\projects\paindrain\arduinolcd\test\pain drain\libraries\lvgl\src/core\lv_obj_style_gen.h ****     lv_style_value_t v = lv_obj_get_style_prop(obj, part, LV_STYLE_SHADOW_SPREAD);
 322:c:\projects\paindrain\arduinolcd\test\pain drain\libraries\lvgl\src/core\lv_obj_style_gen.h ****     return (lv_coord_t)v.num;
 323:c:\projects\paindrain\arduinolcd\test\pain drain\libraries\lvgl\src/core\lv_obj_style_gen.h **** }
 324:c:\projects\paindrain\arduinolcd\test\pain drain\libraries\lvgl\src/core\lv_obj_style_gen.h **** 
 325:c:\projects\paindrain\arduinolcd\test\pain drain\libraries\lvgl\src/core\lv_obj_style_gen.h **** static inline lv_color_t lv_obj_get_style_shadow_color(const struct _lv_obj_t * obj, uint32_t part)
 326:c:\projects\paindrain\arduinolcd\test\pain drain\libraries\lvgl\src/core\lv_obj_style_gen.h **** {
 327:c:\projects\paindrain\arduinolcd\test\pain drain\libraries\lvgl\src/core\lv_obj_style_gen.h ****     lv_style_value_t v = lv_obj_get_style_prop(obj, part, LV_STYLE_SHADOW_COLOR);
 328:c:\projects\paindrain\arduinolcd\test\pain drain\libraries\lvgl\src/core\lv_obj_style_gen.h ****     return v.color;
 329:c:\projects\paindrain\arduinolcd\test\pain drain\libraries\lvgl\src/core\lv_obj_style_gen.h **** }
 330:c:\projects\paindrain\arduinolcd\test\pain drain\libraries\lvgl\src/core\lv_obj_style_gen.h **** 
 331:c:\projects\paindrain\arduinolcd\test\pain drain\libraries\lvgl\src/core\lv_obj_style_gen.h **** static inline lv_color_t lv_obj_get_style_shadow_color_filtered(const struct _lv_obj_t * obj, uint3
 332:c:\projects\paindrain\arduinolcd\test\pain drain\libraries\lvgl\src/core\lv_obj_style_gen.h **** {
 333:c:\projects\paindrain\arduinolcd\test\pain drain\libraries\lvgl\src/core\lv_obj_style_gen.h ****     lv_style_value_t v = _lv_obj_style_apply_color_filter(obj, part, lv_obj_get_style_prop(obj, par
 334:c:\projects\paindrain\arduinolcd\test\pain drain\libraries\lvgl\src/core\lv_obj_style_gen.h ****     return v.color;
 335:c:\projects\paindrain\arduinolcd\test\pain drain\libraries\lvgl\src/core\lv_obj_style_gen.h **** }
 336:c:\projects\paindrain\arduinolcd\test\pain drain\libraries\lvgl\src/core\lv_obj_style_gen.h **** 
 337:c:\projects\paindrain\arduinolcd\test\pain drain\libraries\lvgl\src/core\lv_obj_style_gen.h **** static inline lv_opa_t lv_obj_get_style_shadow_opa(const struct _lv_obj_t * obj, uint32_t part)
 338:c:\projects\paindrain\arduinolcd\test\pain drain\libraries\lvgl\src/core\lv_obj_style_gen.h **** {
 339:c:\projects\paindrain\arduinolcd\test\pain drain\libraries\lvgl\src/core\lv_obj_style_gen.h ****     lv_style_value_t v = lv_obj_get_style_prop(obj, part, LV_STYLE_SHADOW_OPA);
 340:c:\projects\paindrain\arduinolcd\test\pain drain\libraries\lvgl\src/core\lv_obj_style_gen.h ****     return (lv_opa_t)v.num;
 341:c:\projects\paindrain\arduinolcd\test\pain drain\libraries\lvgl\src/core\lv_obj_style_gen.h **** }
 342:c:\projects\paindrain\arduinolcd\test\pain drain\libraries\lvgl\src/core\lv_obj_style_gen.h **** 
 343:c:\projects\paindrain\arduinolcd\test\pain drain\libraries\lvgl\src/core\lv_obj_style_gen.h **** static inline lv_opa_t lv_obj_get_style_img_opa(const struct _lv_obj_t * obj, uint32_t part)
 344:c:\projects\paindrain\arduinolcd\test\pain drain\libraries\lvgl\src/core\lv_obj_style_gen.h **** {
 345:c:\projects\paindrain\arduinolcd\test\pain drain\libraries\lvgl\src/core\lv_obj_style_gen.h ****     lv_style_value_t v = lv_obj_get_style_prop(obj, part, LV_STYLE_IMG_OPA);
 346:c:\projects\paindrain\arduinolcd\test\pain drain\libraries\lvgl\src/core\lv_obj_style_gen.h ****     return (lv_opa_t)v.num;
 347:c:\projects\paindrain\arduinolcd\test\pain drain\libraries\lvgl\src/core\lv_obj_style_gen.h **** }
 348:c:\projects\paindrain\arduinolcd\test\pain drain\libraries\lvgl\src/core\lv_obj_style_gen.h **** 
 349:c:\projects\paindrain\arduinolcd\test\pain drain\libraries\lvgl\src/core\lv_obj_style_gen.h **** static inline lv_color_t lv_obj_get_style_img_recolor(const struct _lv_obj_t * obj, uint32_t part)
 350:c:\projects\paindrain\arduinolcd\test\pain drain\libraries\lvgl\src/core\lv_obj_style_gen.h **** {
 351:c:\projects\paindrain\arduinolcd\test\pain drain\libraries\lvgl\src/core\lv_obj_style_gen.h ****     lv_style_value_t v = lv_obj_get_style_prop(obj, part, LV_STYLE_IMG_RECOLOR);
 352:c:\projects\paindrain\arduinolcd\test\pain drain\libraries\lvgl\src/core\lv_obj_style_gen.h ****     return v.color;
 353:c:\projects\paindrain\arduinolcd\test\pain drain\libraries\lvgl\src/core\lv_obj_style_gen.h **** }
 354:c:\projects\paindrain\arduinolcd\test\pain drain\libraries\lvgl\src/core\lv_obj_style_gen.h **** 
 355:c:\projects\paindrain\arduinolcd\test\pain drain\libraries\lvgl\src/core\lv_obj_style_gen.h **** static inline lv_color_t lv_obj_get_style_img_recolor_filtered(const struct _lv_obj_t * obj, uint32
 356:c:\projects\paindrain\arduinolcd\test\pain drain\libraries\lvgl\src/core\lv_obj_style_gen.h **** {
 357:c:\projects\paindrain\arduinolcd\test\pain drain\libraries\lvgl\src/core\lv_obj_style_gen.h ****     lv_style_value_t v = _lv_obj_style_apply_color_filter(obj, part, lv_obj_get_style_prop(obj, par
 358:c:\projects\paindrain\arduinolcd\test\pain drain\libraries\lvgl\src/core\lv_obj_style_gen.h ****     return v.color;
 359:c:\projects\paindrain\arduinolcd\test\pain drain\libraries\lvgl\src/core\lv_obj_style_gen.h **** }
 360:c:\projects\paindrain\arduinolcd\test\pain drain\libraries\lvgl\src/core\lv_obj_style_gen.h **** 
 361:c:\projects\paindrain\arduinolcd\test\pain drain\libraries\lvgl\src/core\lv_obj_style_gen.h **** static inline lv_opa_t lv_obj_get_style_img_recolor_opa(const struct _lv_obj_t * obj, uint32_t part
 362:c:\projects\paindrain\arduinolcd\test\pain drain\libraries\lvgl\src/core\lv_obj_style_gen.h **** {
 363:c:\projects\paindrain\arduinolcd\test\pain drain\libraries\lvgl\src/core\lv_obj_style_gen.h ****     lv_style_value_t v = lv_obj_get_style_prop(obj, part, LV_STYLE_IMG_RECOLOR_OPA);
 364:c:\projects\paindrain\arduinolcd\test\pain drain\libraries\lvgl\src/core\lv_obj_style_gen.h ****     return (lv_opa_t)v.num;
 365:c:\projects\paindrain\arduinolcd\test\pain drain\libraries\lvgl\src/core\lv_obj_style_gen.h **** }
 366:c:\projects\paindrain\arduinolcd\test\pain drain\libraries\lvgl\src/core\lv_obj_style_gen.h **** 
 367:c:\projects\paindrain\arduinolcd\test\pain drain\libraries\lvgl\src/core\lv_obj_style_gen.h **** static inline lv_coord_t lv_obj_get_style_line_width(const struct _lv_obj_t * obj, uint32_t part)
 368:c:\projects\paindrain\arduinolcd\test\pain drain\libraries\lvgl\src/core\lv_obj_style_gen.h **** {
 369:c:\projects\paindrain\arduinolcd\test\pain drain\libraries\lvgl\src/core\lv_obj_style_gen.h ****     lv_style_value_t v = lv_obj_get_style_prop(obj, part, LV_STYLE_LINE_WIDTH);
 370:c:\projects\paindrain\arduinolcd\test\pain drain\libraries\lvgl\src/core\lv_obj_style_gen.h ****     return (lv_coord_t)v.num;
 371:c:\projects\paindrain\arduinolcd\test\pain drain\libraries\lvgl\src/core\lv_obj_style_gen.h **** }
 372:c:\projects\paindrain\arduinolcd\test\pain drain\libraries\lvgl\src/core\lv_obj_style_gen.h **** 
 373:c:\projects\paindrain\arduinolcd\test\pain drain\libraries\lvgl\src/core\lv_obj_style_gen.h **** static inline lv_coord_t lv_obj_get_style_line_dash_width(const struct _lv_obj_t * obj, uint32_t pa
 374:c:\projects\paindrain\arduinolcd\test\pain drain\libraries\lvgl\src/core\lv_obj_style_gen.h **** {
 375:c:\projects\paindrain\arduinolcd\test\pain drain\libraries\lvgl\src/core\lv_obj_style_gen.h ****     lv_style_value_t v = lv_obj_get_style_prop(obj, part, LV_STYLE_LINE_DASH_WIDTH);
ARM GAS  C:\Users\haske\AppData\Local\Temp\ccIkbvey.s 			page 40


 376:c:\projects\paindrain\arduinolcd\test\pain drain\libraries\lvgl\src/core\lv_obj_style_gen.h ****     return (lv_coord_t)v.num;
 377:c:\projects\paindrain\arduinolcd\test\pain drain\libraries\lvgl\src/core\lv_obj_style_gen.h **** }
 378:c:\projects\paindrain\arduinolcd\test\pain drain\libraries\lvgl\src/core\lv_obj_style_gen.h **** 
 379:c:\projects\paindrain\arduinolcd\test\pain drain\libraries\lvgl\src/core\lv_obj_style_gen.h **** static inline lv_coord_t lv_obj_get_style_line_dash_gap(const struct _lv_obj_t * obj, uint32_t part
 380:c:\projects\paindrain\arduinolcd\test\pain drain\libraries\lvgl\src/core\lv_obj_style_gen.h **** {
 381:c:\projects\paindrain\arduinolcd\test\pain drain\libraries\lvgl\src/core\lv_obj_style_gen.h ****     lv_style_value_t v = lv_obj_get_style_prop(obj, part, LV_STYLE_LINE_DASH_GAP);
 382:c:\projects\paindrain\arduinolcd\test\pain drain\libraries\lvgl\src/core\lv_obj_style_gen.h ****     return (lv_coord_t)v.num;
 383:c:\projects\paindrain\arduinolcd\test\pain drain\libraries\lvgl\src/core\lv_obj_style_gen.h **** }
 384:c:\projects\paindrain\arduinolcd\test\pain drain\libraries\lvgl\src/core\lv_obj_style_gen.h **** 
 385:c:\projects\paindrain\arduinolcd\test\pain drain\libraries\lvgl\src/core\lv_obj_style_gen.h **** static inline bool lv_obj_get_style_line_rounded(const struct _lv_obj_t * obj, uint32_t part)
 386:c:\projects\paindrain\arduinolcd\test\pain drain\libraries\lvgl\src/core\lv_obj_style_gen.h **** {
 387:c:\projects\paindrain\arduinolcd\test\pain drain\libraries\lvgl\src/core\lv_obj_style_gen.h ****     lv_style_value_t v = lv_obj_get_style_prop(obj, part, LV_STYLE_LINE_ROUNDED);
 388:c:\projects\paindrain\arduinolcd\test\pain drain\libraries\lvgl\src/core\lv_obj_style_gen.h ****     return (bool)v.num;
 389:c:\projects\paindrain\arduinolcd\test\pain drain\libraries\lvgl\src/core\lv_obj_style_gen.h **** }
 390:c:\projects\paindrain\arduinolcd\test\pain drain\libraries\lvgl\src/core\lv_obj_style_gen.h **** 
 391:c:\projects\paindrain\arduinolcd\test\pain drain\libraries\lvgl\src/core\lv_obj_style_gen.h **** static inline lv_color_t lv_obj_get_style_line_color(const struct _lv_obj_t * obj, uint32_t part)
 392:c:\projects\paindrain\arduinolcd\test\pain drain\libraries\lvgl\src/core\lv_obj_style_gen.h **** {
 393:c:\projects\paindrain\arduinolcd\test\pain drain\libraries\lvgl\src/core\lv_obj_style_gen.h ****     lv_style_value_t v = lv_obj_get_style_prop(obj, part, LV_STYLE_LINE_COLOR);
 394:c:\projects\paindrain\arduinolcd\test\pain drain\libraries\lvgl\src/core\lv_obj_style_gen.h ****     return v.color;
 395:c:\projects\paindrain\arduinolcd\test\pain drain\libraries\lvgl\src/core\lv_obj_style_gen.h **** }
 396:c:\projects\paindrain\arduinolcd\test\pain drain\libraries\lvgl\src/core\lv_obj_style_gen.h **** 
 397:c:\projects\paindrain\arduinolcd\test\pain drain\libraries\lvgl\src/core\lv_obj_style_gen.h **** static inline lv_color_t lv_obj_get_style_line_color_filtered(const struct _lv_obj_t * obj, uint32_
 398:c:\projects\paindrain\arduinolcd\test\pain drain\libraries\lvgl\src/core\lv_obj_style_gen.h **** {
 399:c:\projects\paindrain\arduinolcd\test\pain drain\libraries\lvgl\src/core\lv_obj_style_gen.h ****     lv_style_value_t v = _lv_obj_style_apply_color_filter(obj, part, lv_obj_get_style_prop(obj, par
 400:c:\projects\paindrain\arduinolcd\test\pain drain\libraries\lvgl\src/core\lv_obj_style_gen.h ****     return v.color;
 401:c:\projects\paindrain\arduinolcd\test\pain drain\libraries\lvgl\src/core\lv_obj_style_gen.h **** }
 402:c:\projects\paindrain\arduinolcd\test\pain drain\libraries\lvgl\src/core\lv_obj_style_gen.h **** 
 403:c:\projects\paindrain\arduinolcd\test\pain drain\libraries\lvgl\src/core\lv_obj_style_gen.h **** static inline lv_opa_t lv_obj_get_style_line_opa(const struct _lv_obj_t * obj, uint32_t part)
 404:c:\projects\paindrain\arduinolcd\test\pain drain\libraries\lvgl\src/core\lv_obj_style_gen.h **** {
 405:c:\projects\paindrain\arduinolcd\test\pain drain\libraries\lvgl\src/core\lv_obj_style_gen.h ****     lv_style_value_t v = lv_obj_get_style_prop(obj, part, LV_STYLE_LINE_OPA);
 406:c:\projects\paindrain\arduinolcd\test\pain drain\libraries\lvgl\src/core\lv_obj_style_gen.h ****     return (lv_opa_t)v.num;
 407:c:\projects\paindrain\arduinolcd\test\pain drain\libraries\lvgl\src/core\lv_obj_style_gen.h **** }
 408:c:\projects\paindrain\arduinolcd\test\pain drain\libraries\lvgl\src/core\lv_obj_style_gen.h **** 
 409:c:\projects\paindrain\arduinolcd\test\pain drain\libraries\lvgl\src/core\lv_obj_style_gen.h **** static inline lv_coord_t lv_obj_get_style_arc_width(const struct _lv_obj_t * obj, uint32_t part)
 410:c:\projects\paindrain\arduinolcd\test\pain drain\libraries\lvgl\src/core\lv_obj_style_gen.h **** {
 411:c:\projects\paindrain\arduinolcd\test\pain drain\libraries\lvgl\src/core\lv_obj_style_gen.h ****     lv_style_value_t v = lv_obj_get_style_prop(obj, part, LV_STYLE_ARC_WIDTH);
 547              		.loc 3 411 0
 548 000e 5022     		movs	r2, #80
 549 0010 0021     		movs	r1, #0
 550              	.LVL73:
 551 0012 2800     		movs	r0, r5
 552              	.LVL74:
 553 0014 FFF7FEFF 		bl	lv_obj_get_style_prop
 554              	.LVL75:
 412:c:\projects\paindrain\arduinolcd\test\pain drain\libraries\lvgl\src/core\lv_obj_style_gen.h ****     return (lv_coord_t)v.num;
 555              		.loc 3 412 0
 556 0018 00B2     		sxth	r0, r0
 557              	.LVL76:
 558              	.LBE59:
 559              	.LBE58:
 340:..\..\..\arduinoLCD\test\Pain Drain\libraries\lvgl\src\extra\widgets\colorwheel/lv_colorwheel.c **** 
 560              		.loc 1 340 0
 561 001a C40F     		lsrs	r4, r0, #31
 562 001c 2018     		adds	r0, r4, r0
 563 001e 4010     		asrs	r0, r0, #1
 564 0020 84B2     		uxth	r4, r0
 565              	.LVL77:
ARM GAS  C:\Users\haske\AppData\Local\Temp\ccIkbvey.s 			page 41


 566              	.LBB60:
 567              	.LBB61:
 117:c:\projects\paindrain\arduinolcd\test\pain drain\libraries\lvgl\src/core\lv_obj_style_gen.h ****     return (lv_coord_t)v.num;
 568              		.loc 3 117 0
 569 0022 C027     		movs	r7, #192
 570 0024 BF02     		lsls	r7, r7, #10
 571 0026 1222     		movs	r2, #18
 572 0028 3900     		movs	r1, r7
 573 002a 2800     		movs	r0, r5
 574 002c FFF7FEFF 		bl	lv_obj_get_style_prop
 575              	.LVL78:
 576 0030 8246     		mov	r10, r0
 577              	.LVL79:
 578              	.LBE61:
 579              	.LBE60:
 580              	.LBB62:
 581              	.LBB63:
 123:c:\projects\paindrain\arduinolcd\test\pain drain\libraries\lvgl\src/core\lv_obj_style_gen.h ****     return (lv_coord_t)v.num;
 582              		.loc 3 123 0
 583 0032 1322     		movs	r2, #19
 584 0034 3900     		movs	r1, r7
 585 0036 2800     		movs	r0, r5
 586 0038 FFF7FEFF 		bl	lv_obj_get_style_prop
 587              	.LVL80:
 588 003c 8146     		mov	r9, r0
 589              	.LVL81:
 590              	.LBE63:
 591              	.LBE62:
 592              	.LBB64:
 593              	.LBB65:
 105:c:\projects\paindrain\arduinolcd\test\pain drain\libraries\lvgl\src/core\lv_obj_style_gen.h ****     return (lv_coord_t)v.num;
 594              		.loc 3 105 0
 595 003e 1022     		movs	r2, #16
 596 0040 3900     		movs	r1, r7
 597 0042 2800     		movs	r0, r5
 598 0044 FFF7FEFF 		bl	lv_obj_get_style_prop
 599              	.LVL82:
 600 0048 8046     		mov	r8, r0
 601              	.LVL83:
 602              	.LBE65:
 603              	.LBE64:
 604              	.LBB66:
 605              	.LBB67:
 111:c:\projects\paindrain\arduinolcd\test\pain drain\libraries\lvgl\src/core\lv_obj_style_gen.h ****     return (lv_coord_t)v.num;
 606              		.loc 3 111 0
 607 004a 1122     		movs	r2, #17
 608 004c 3900     		movs	r1, r7
 609 004e 2800     		movs	r0, r5
 610 0050 FFF7FEFF 		bl	lv_obj_get_style_prop
 611              	.LVL84:
 612              	.LBE67:
 613              	.LBE66:
 348:..\..\..\arduinoLCD\test\Pain Drain\libraries\lvgl\src\extra\widgets\colorwheel/lv_colorwheel.c ****     knob_area.y1 = obj->coords.y1 + colorwheel->knob.pos.y - r - right;
 614              		.loc 1 348 0
 615 0054 1423     		movs	r3, #20
 616 0056 E95E     		ldrsh	r1, [r5, r3]
 617 0058 2822     		movs	r2, #40
ARM GAS  C:\Users\haske\AppData\Local\Temp\ccIkbvey.s 			page 42


 618 005a AB5E     		ldrsh	r3, [r5, r2]
 619 005c C918     		adds	r1, r1, r3
 620 005e 89B2     		uxth	r1, r1
 621 0060 0B1B     		subs	r3, r1, r4
 622              	.LVL85:
 623 0062 5246     		mov	r2, r10
 624 0064 9B1A     		subs	r3, r3, r2
 625 0066 3380     		strh	r3, [r6]
 349:..\..\..\arduinoLCD\test\Pain Drain\libraries\lvgl\src\extra\widgets\colorwheel/lv_colorwheel.c ****     knob_area.x2 = obj->coords.x1 + colorwheel->knob.pos.x + r + top;
 626              		.loc 1 349 0
 627 0068 1622     		movs	r2, #22
 628 006a AB5E     		ldrsh	r3, [r5, r2]
 629 006c 2A22     		movs	r2, #42
 630 006e AA5E     		ldrsh	r2, [r5, r2]
 631              	.LVL86:
 632 0070 9A18     		adds	r2, r3, r2
 633 0072 93B2     		uxth	r3, r2
 634 0074 1A1B     		subs	r2, r3, r4
 635              	.LVL87:
 636 0076 4D46     		mov	r5, r9
 637 0078 521B     		subs	r2, r2, r5
 638 007a 7280     		strh	r2, [r6, #2]
 350:..\..\..\arduinoLCD\test\Pain Drain\libraries\lvgl\src\extra\widgets\colorwheel/lv_colorwheel.c ****     knob_area.y2 = obj->coords.y1 + colorwheel->knob.pos.y + r + bottom;
 639              		.loc 1 350 0
 640 007c 6118     		adds	r1, r4, r1
 641              	.LVL88:
 642 007e 4144     		add	r1, r1, r8
 643 0080 B180     		strh	r1, [r6, #4]
 351:..\..\..\arduinoLCD\test\Pain Drain\libraries\lvgl\src\extra\widgets\colorwheel/lv_colorwheel.c **** 
 644              		.loc 1 351 0
 645 0082 E418     		adds	r4, r4, r3
 646              	.LVL89:
 647 0084 2418     		adds	r4, r4, r0
 648 0086 F480     		strh	r4, [r6, #6]
 354:..\..\..\arduinoLCD\test\Pain Drain\libraries\lvgl\src\extra\widgets\colorwheel/lv_colorwheel.c **** 
 649              		.loc 1 354 0
 650 0088 3000     		movs	r0, r6
 651              	.LVL90:
 652              		@ sp needed
 653              	.LVL91:
 654              	.LVL92:
 655              	.LVL93:
 656              	.LVL94:
 657 008a 1CBC     		pop	{r2, r3, r4}
 658 008c 9046     		mov	r8, r2
 659 008e 9946     		mov	r9, r3
 660 0090 A246     		mov	r10, r4
 661 0092 F0BD     		pop	{r4, r5, r6, r7, pc}
 662              		.cfi_endproc
 663              	.LFE215:
 664              		.size	get_knob_area, .-get_knob_area
 665              		.section	.text.invalidate_knob,"ax",%progbits
 666              		.align	2
 667              		.code	16
 668              		.thumb_func
 669              		.type	invalidate_knob, %function
 670              	invalidate_knob:
ARM GAS  C:\Users\haske\AppData\Local\Temp\ccIkbvey.s 			page 43


 671              	.LFB214:
 328:..\..\..\arduinoLCD\test\Pain Drain\libraries\lvgl\src\extra\widgets\colorwheel/lv_colorwheel.c ****     lv_area_t knob_area = get_knob_area(obj);
 672              		.loc 1 328 0
 673              		.cfi_startproc
 674              		@ args = 0, pretend = 0, frame = 8
 675              		@ frame_needed = 0, uses_anonymous_args = 0
 676              	.LVL95:
 677 0000 10B5     		push	{r4, lr}
 678              		.cfi_def_cfa_offset 8
 679              		.cfi_offset 4, -8
 680              		.cfi_offset 14, -4
 681 0002 82B0     		sub	sp, sp, #8
 682              		.cfi_def_cfa_offset 16
 683 0004 0400     		movs	r4, r0
 329:..\..\..\arduinoLCD\test\Pain Drain\libraries\lvgl\src\extra\widgets\colorwheel/lv_colorwheel.c **** 
 684              		.loc 1 329 0
 685 0006 0100     		movs	r1, r0
 686 0008 6846     		mov	r0, sp
 687              	.LVL96:
 688 000a FFF7FEFF 		bl	get_knob_area
 689              	.LVL97:
 331:..\..\..\arduinoLCD\test\Pain Drain\libraries\lvgl\src\extra\widgets\colorwheel/lv_colorwheel.c **** }
 690              		.loc 1 331 0
 691 000e 6946     		mov	r1, sp
 692 0010 2000     		movs	r0, r4
 693 0012 FFF7FEFF 		bl	lv_obj_invalidate_area
 694              	.LVL98:
 332:..\..\..\arduinoLCD\test\Pain Drain\libraries\lvgl\src\extra\widgets\colorwheel/lv_colorwheel.c **** 
 695              		.loc 1 332 0
 696 0016 02B0     		add	sp, sp, #8
 697              		@ sp needed
 698              	.LVL99:
 699 0018 10BD     		pop	{r4, pc}
 700              		.cfi_endproc
 701              	.LFE214:
 702              		.size	invalidate_knob, .-invalidate_knob
 703 001a C046     		.section	.text.refr_knob_pos,"ax",%progbits
 704              		.align	2
 705              		.code	16
 706              		.thumb_func
 707              		.type	refr_knob_pos, %function
 708              	refr_knob_pos:
 709              	.LFB218:
 550:..\..\..\arduinoLCD\test\Pain Drain\libraries\lvgl\src\extra\widgets\colorwheel/lv_colorwheel.c ****     invalidate_knob(obj);
 710              		.loc 1 550 0
 711              		.cfi_startproc
 712              		@ args = 0, pretend = 0, frame = 0
 713              		@ frame_needed = 0, uses_anonymous_args = 0
 714              	.LVL100:
 715 0000 F8B5     		push	{r3, r4, r5, r6, r7, lr}
 716              		.cfi_def_cfa_offset 24
 717              		.cfi_offset 3, -24
 718              		.cfi_offset 4, -20
 719              		.cfi_offset 5, -16
 720              		.cfi_offset 6, -12
 721              		.cfi_offset 7, -8
 722              		.cfi_offset 14, -4
ARM GAS  C:\Users\haske\AppData\Local\Temp\ccIkbvey.s 			page 44


 723 0002 0500     		movs	r5, r0
 551:..\..\..\arduinoLCD\test\Pain Drain\libraries\lvgl\src\extra\widgets\colorwheel/lv_colorwheel.c **** 
 724              		.loc 1 551 0
 725 0004 FFF7FEFF 		bl	invalidate_knob
 726              	.LVL101:
 554:..\..\..\arduinoLCD\test\Pain Drain\libraries\lvgl\src\extra\widgets\colorwheel/lv_colorwheel.c **** 
 727              		.loc 1 554 0
 728 0008 2800     		movs	r0, r5
 729 000a FFF7FEFF 		bl	lv_obj_get_width
 730              	.LVL102:
 731 000e 0600     		movs	r6, r0
 732              	.LVL103:
 733              	.LBB68:
 734              	.LBB69:
 411:c:\projects\paindrain\arduinolcd\test\pain drain\libraries\lvgl\src/core\lv_obj_style_gen.h ****     return (lv_coord_t)v.num;
 735              		.loc 3 411 0
 736 0010 5022     		movs	r2, #80
 737 0012 0021     		movs	r1, #0
 738 0014 2800     		movs	r0, r5
 739 0016 FFF7FEFF 		bl	lv_obj_get_style_prop
 740              	.LVL104:
 741              		.loc 3 412 0
 742 001a 00B2     		sxth	r0, r0
 743              	.LVL105:
 744              	.LBE69:
 745              	.LBE68:
 557:..\..\..\arduinoLCD\test\Pain Drain\libraries\lvgl\src\extra\widgets\colorwheel/lv_colorwheel.c ****     uint16_t angle = get_angle(obj);
 746              		.loc 1 557 0
 747 001c 301A     		subs	r0, r6, r0
 748 001e C40F     		lsrs	r4, r0, #31
 749 0020 2018     		adds	r0, r4, r0
 750 0022 4010     		asrs	r0, r0, #1
 751 0024 04B2     		sxth	r4, r0
 752              	.LVL106:
 558:..\..\..\arduinoLCD\test\Pain Drain\libraries\lvgl\src\extra\widgets\colorwheel/lv_colorwheel.c ****     colorwheel->knob.pos.x = (((int32_t)r * lv_trigo_sin(angle)) >> LV_TRIGO_SHIFT);
 753              		.loc 1 558 0
 754 0026 2800     		movs	r0, r5
 755 0028 FFF7FEFF 		bl	get_angle
 756              	.LVL107:
 757 002c 0700     		movs	r7, r0
 758              	.LVL108:
 559:..\..\..\arduinoLCD\test\Pain Drain\libraries\lvgl\src\extra\widgets\colorwheel/lv_colorwheel.c ****     colorwheel->knob.pos.y = (((int32_t)r * lv_trigo_cos(angle)) >> LV_TRIGO_SHIFT);
 759              		.loc 1 559 0
 760 002e 00B2     		sxth	r0, r0
 761 0030 FFF7FEFF 		bl	lv_trigo_sin
 762              	.LVL109:
 763 0034 6043     		muls	r0, r4
 764 0036 C013     		asrs	r0, r0, #15
 765 0038 2885     		strh	r0, [r5, #40]
 766              	.LVL110:
 767              	.LBB70:
 768              	.LBB71:
 769              		.file 4 "c:\\projects\\paindrain\\arduinolcd\\test\\pain drain\\libraries\\lvgl\\src/misc/lv_math.
   1:c:\projects\paindrain\arduinolcd\test\pain drain\libraries\lvgl\src\misc\lv_math.h **** /**
   2:c:\projects\paindrain\arduinolcd\test\pain drain\libraries\lvgl\src\misc\lv_math.h ****  * @file lv_math.h
   3:c:\projects\paindrain\arduinolcd\test\pain drain\libraries\lvgl\src\misc\lv_math.h ****  *
   4:c:\projects\paindrain\arduinolcd\test\pain drain\libraries\lvgl\src\misc\lv_math.h ****  */
ARM GAS  C:\Users\haske\AppData\Local\Temp\ccIkbvey.s 			page 45


   5:c:\projects\paindrain\arduinolcd\test\pain drain\libraries\lvgl\src\misc\lv_math.h **** 
   6:c:\projects\paindrain\arduinolcd\test\pain drain\libraries\lvgl\src\misc\lv_math.h **** #ifndef LV_MATH_H
   7:c:\projects\paindrain\arduinolcd\test\pain drain\libraries\lvgl\src\misc\lv_math.h **** #define LV_MATH_H
   8:c:\projects\paindrain\arduinolcd\test\pain drain\libraries\lvgl\src\misc\lv_math.h **** 
   9:c:\projects\paindrain\arduinolcd\test\pain drain\libraries\lvgl\src\misc\lv_math.h **** #ifdef __cplusplus
  10:c:\projects\paindrain\arduinolcd\test\pain drain\libraries\lvgl\src\misc\lv_math.h **** extern "C" {
  11:c:\projects\paindrain\arduinolcd\test\pain drain\libraries\lvgl\src\misc\lv_math.h **** #endif
  12:c:\projects\paindrain\arduinolcd\test\pain drain\libraries\lvgl\src\misc\lv_math.h **** 
  13:c:\projects\paindrain\arduinolcd\test\pain drain\libraries\lvgl\src\misc\lv_math.h **** /*********************
  14:c:\projects\paindrain\arduinolcd\test\pain drain\libraries\lvgl\src\misc\lv_math.h ****  *      INCLUDES
  15:c:\projects\paindrain\arduinolcd\test\pain drain\libraries\lvgl\src\misc\lv_math.h ****  *********************/
  16:c:\projects\paindrain\arduinolcd\test\pain drain\libraries\lvgl\src\misc\lv_math.h **** #include "../lv_conf_internal.h"
  17:c:\projects\paindrain\arduinolcd\test\pain drain\libraries\lvgl\src\misc\lv_math.h **** #include <stdint.h>
  18:c:\projects\paindrain\arduinolcd\test\pain drain\libraries\lvgl\src\misc\lv_math.h **** 
  19:c:\projects\paindrain\arduinolcd\test\pain drain\libraries\lvgl\src\misc\lv_math.h **** /*********************
  20:c:\projects\paindrain\arduinolcd\test\pain drain\libraries\lvgl\src\misc\lv_math.h ****  *      DEFINES
  21:c:\projects\paindrain\arduinolcd\test\pain drain\libraries\lvgl\src\misc\lv_math.h ****  *********************/
  22:c:\projects\paindrain\arduinolcd\test\pain drain\libraries\lvgl\src\misc\lv_math.h **** #define LV_TRIGO_SIN_MAX 32767
  23:c:\projects\paindrain\arduinolcd\test\pain drain\libraries\lvgl\src\misc\lv_math.h **** #define LV_TRIGO_SHIFT 15 /**<  >> LV_TRIGO_SHIFT to normalize*/
  24:c:\projects\paindrain\arduinolcd\test\pain drain\libraries\lvgl\src\misc\lv_math.h **** 
  25:c:\projects\paindrain\arduinolcd\test\pain drain\libraries\lvgl\src\misc\lv_math.h **** #define LV_BEZIER_VAL_MAX 1024 /**< Max time in Bezier functions (not [0..1] to use integers)*/
  26:c:\projects\paindrain\arduinolcd\test\pain drain\libraries\lvgl\src\misc\lv_math.h **** #define LV_BEZIER_VAL_SHIFT 10 /**< log2(LV_BEZIER_VAL_MAX): used to normalize up scaled values*/
  27:c:\projects\paindrain\arduinolcd\test\pain drain\libraries\lvgl\src\misc\lv_math.h **** 
  28:c:\projects\paindrain\arduinolcd\test\pain drain\libraries\lvgl\src\misc\lv_math.h **** /**********************
  29:c:\projects\paindrain\arduinolcd\test\pain drain\libraries\lvgl\src\misc\lv_math.h ****  *      TYPEDEFS
  30:c:\projects\paindrain\arduinolcd\test\pain drain\libraries\lvgl\src\misc\lv_math.h ****  **********************/
  31:c:\projects\paindrain\arduinolcd\test\pain drain\libraries\lvgl\src\misc\lv_math.h **** 
  32:c:\projects\paindrain\arduinolcd\test\pain drain\libraries\lvgl\src\misc\lv_math.h **** typedef struct {
  33:c:\projects\paindrain\arduinolcd\test\pain drain\libraries\lvgl\src\misc\lv_math.h ****     uint16_t i;
  34:c:\projects\paindrain\arduinolcd\test\pain drain\libraries\lvgl\src\misc\lv_math.h ****     uint16_t f;
  35:c:\projects\paindrain\arduinolcd\test\pain drain\libraries\lvgl\src\misc\lv_math.h **** } lv_sqrt_res_t;
  36:c:\projects\paindrain\arduinolcd\test\pain drain\libraries\lvgl\src\misc\lv_math.h **** 
  37:c:\projects\paindrain\arduinolcd\test\pain drain\libraries\lvgl\src\misc\lv_math.h **** /**********************
  38:c:\projects\paindrain\arduinolcd\test\pain drain\libraries\lvgl\src\misc\lv_math.h ****  * GLOBAL PROTOTYPES
  39:c:\projects\paindrain\arduinolcd\test\pain drain\libraries\lvgl\src\misc\lv_math.h ****  **********************/
  40:c:\projects\paindrain\arduinolcd\test\pain drain\libraries\lvgl\src\misc\lv_math.h **** 
  41:c:\projects\paindrain\arduinolcd\test\pain drain\libraries\lvgl\src\misc\lv_math.h **** //! @cond Doxygen_Suppress
  42:c:\projects\paindrain\arduinolcd\test\pain drain\libraries\lvgl\src\misc\lv_math.h **** /**
  43:c:\projects\paindrain\arduinolcd\test\pain drain\libraries\lvgl\src\misc\lv_math.h ****  * Return with sinus of an angle
  44:c:\projects\paindrain\arduinolcd\test\pain drain\libraries\lvgl\src\misc\lv_math.h ****  * @param angle
  45:c:\projects\paindrain\arduinolcd\test\pain drain\libraries\lvgl\src\misc\lv_math.h ****  * @return sinus of 'angle'. sin(-90) = -32767, sin(90) = 32767
  46:c:\projects\paindrain\arduinolcd\test\pain drain\libraries\lvgl\src\misc\lv_math.h ****  */
  47:c:\projects\paindrain\arduinolcd\test\pain drain\libraries\lvgl\src\misc\lv_math.h **** LV_ATTRIBUTE_FAST_MEM int16_t lv_trigo_sin(int16_t angle);
  48:c:\projects\paindrain\arduinolcd\test\pain drain\libraries\lvgl\src\misc\lv_math.h **** 
  49:c:\projects\paindrain\arduinolcd\test\pain drain\libraries\lvgl\src\misc\lv_math.h **** static inline LV_ATTRIBUTE_FAST_MEM int16_t lv_trigo_cos(int16_t angle)
  50:c:\projects\paindrain\arduinolcd\test\pain drain\libraries\lvgl\src\misc\lv_math.h **** {
  51:c:\projects\paindrain\arduinolcd\test\pain drain\libraries\lvgl\src\misc\lv_math.h ****     return lv_trigo_sin(angle + 90);
 770              		.loc 4 51 0
 771 003a 5A37     		adds	r7, r7, #90
 772              	.LVL111:
 773 003c 38B2     		sxth	r0, r7
 774 003e FFF7FEFF 		bl	lv_trigo_sin
 775              	.LVL112:
 776              	.LBE71:
 777              	.LBE70:
 560:..\..\..\arduinoLCD\test\Pain Drain\libraries\lvgl\src\extra\widgets\colorwheel/lv_colorwheel.c ****     colorwheel->knob.pos.x = colorwheel->knob.pos.x + w / 2;
 778              		.loc 1 560 0
ARM GAS  C:\Users\haske\AppData\Local\Temp\ccIkbvey.s 			page 46


 779 0042 4443     		muls	r4, r0
 780              	.LVL113:
 781 0044 E413     		asrs	r4, r4, #15
 782 0046 23B2     		sxth	r3, r4
 561:..\..\..\arduinoLCD\test\Pain Drain\libraries\lvgl\src\extra\widgets\colorwheel/lv_colorwheel.c ****     colorwheel->knob.pos.y = colorwheel->knob.pos.y + w / 2;
 783              		.loc 1 561 0
 784 0048 2821     		movs	r1, #40
 785 004a 6A5E     		ldrsh	r2, [r5, r1]
 786 004c F40F     		lsrs	r4, r6, #31
 787 004e A419     		adds	r4, r4, r6
 788 0050 6410     		asrs	r4, r4, #1
 789 0052 A4B2     		uxth	r4, r4
 790 0054 A218     		adds	r2, r4, r2
 791 0056 2A85     		strh	r2, [r5, #40]
 562:..\..\..\arduinoLCD\test\Pain Drain\libraries\lvgl\src\extra\widgets\colorwheel/lv_colorwheel.c **** 
 792              		.loc 1 562 0
 793 0058 E418     		adds	r4, r4, r3
 794 005a 6C85     		strh	r4, [r5, #42]
 564:..\..\..\arduinoLCD\test\Pain Drain\libraries\lvgl\src\extra\widgets\colorwheel/lv_colorwheel.c **** }
 795              		.loc 1 564 0
 796 005c 2800     		movs	r0, r5
 797 005e FFF7FEFF 		bl	invalidate_knob
 798              	.LVL114:
 565:..\..\..\arduinoLCD\test\Pain Drain\libraries\lvgl\src\extra\widgets\colorwheel/lv_colorwheel.c **** 
 799              		.loc 1 565 0
 800              		@ sp needed
 801              	.LVL115:
 802              	.LVL116:
 803 0062 F8BD     		pop	{r3, r4, r5, r6, r7, pc}
 804              		.cfi_endproc
 805              	.LFE218:
 806              		.size	refr_knob_pos, .-refr_knob_pos
 807              		.global	__aeabi_idivmod
 808              		.section	.text.next_color_mode,"ax",%progbits
 809              		.align	2
 810              		.code	16
 811              		.thumb_func
 812              		.type	next_color_mode, %function
 813              	next_color_mode:
 814              	.LFB217:
 542:..\..\..\arduinoLCD\test\Pain Drain\libraries\lvgl\src\extra\widgets\colorwheel/lv_colorwheel.c ****     lv_colorwheel_t * colorwheel = (lv_colorwheel_t *)obj;
 815              		.loc 1 542 0
 816              		.cfi_startproc
 817              		@ args = 0, pretend = 0, frame = 0
 818              		@ frame_needed = 0, uses_anonymous_args = 0
 819              	.LVL117:
 820 0000 70B5     		push	{r4, r5, r6, lr}
 821              		.cfi_def_cfa_offset 16
 822              		.cfi_offset 4, -16
 823              		.cfi_offset 5, -12
 824              		.cfi_offset 6, -8
 825              		.cfi_offset 14, -4
 826 0002 0400     		movs	r4, r0
 827              	.LVL118:
 544:..\..\..\arduinoLCD\test\Pain Drain\libraries\lvgl\src\extra\widgets\colorwheel/lv_colorwheel.c ****     refr_knob_pos(obj);
 828              		.loc 1 544 0
 829 0004 3C25     		movs	r5, #60
ARM GAS  C:\Users\haske\AppData\Local\Temp\ccIkbvey.s 			page 47


 830 0006 465D     		ldrb	r6, [r0, r5]
 831 0008 B007     		lsls	r0, r6, #30
 832              	.LVL119:
 833 000a 800F     		lsrs	r0, r0, #30
 834 000c 0130     		adds	r0, r0, #1
 835 000e 0321     		movs	r1, #3
 836 0010 FFF7FEFF 		bl	__aeabi_idivmod
 837              	.LVL120:
 838 0014 0323     		movs	r3, #3
 839 0016 1940     		ands	r1, r3
 840 0018 9E43     		bics	r6, r3
 841 001a 3143     		orrs	r1, r6
 842 001c 6155     		strb	r1, [r4, r5]
 545:..\..\..\arduinoLCD\test\Pain Drain\libraries\lvgl\src\extra\widgets\colorwheel/lv_colorwheel.c ****     lv_obj_invalidate(obj);
 843              		.loc 1 545 0
 844 001e 2000     		movs	r0, r4
 845 0020 FFF7FEFF 		bl	refr_knob_pos
 846              	.LVL121:
 546:..\..\..\arduinoLCD\test\Pain Drain\libraries\lvgl\src\extra\widgets\colorwheel/lv_colorwheel.c **** }
 847              		.loc 1 546 0
 848 0024 2000     		movs	r0, r4
 849 0026 FFF7FEFF 		bl	lv_obj_invalidate
 850              	.LVL122:
 547:..\..\..\arduinoLCD\test\Pain Drain\libraries\lvgl\src\extra\widgets\colorwheel/lv_colorwheel.c **** 
 851              		.loc 1 547 0
 852              		@ sp needed
 853              	.LVL123:
 854 002a 70BD     		pop	{r4, r5, r6, pc}
 855              		.cfi_endproc
 856              	.LFE217:
 857              		.size	next_color_mode, .-next_color_mode
 858              		.section	.text.draw_disc_grad,"ax",%progbits
 859              		.align	2
 860              		.code	16
 861              		.thumb_func
 862              		.type	draw_disc_grad, %function
 863              	draw_disc_grad:
 864              	.LFB212:
 243:..\..\..\arduinoLCD\test\Pain Drain\libraries\lvgl\src\extra\widgets\colorwheel/lv_colorwheel.c ****     lv_obj_t * obj = lv_event_get_target(e);
 865              		.loc 1 243 0
 866              		.cfi_startproc
 867              		@ args = 0, pretend = 0, frame = 112
 868              		@ frame_needed = 0, uses_anonymous_args = 0
 869              	.LVL124:
 870 0000 F0B5     		push	{r4, r5, r6, r7, lr}
 871              		.cfi_def_cfa_offset 20
 872              		.cfi_offset 4, -20
 873              		.cfi_offset 5, -16
 874              		.cfi_offset 6, -12
 875              		.cfi_offset 7, -8
 876              		.cfi_offset 14, -4
 877 0002 5F46     		mov	r7, fp
 878 0004 5646     		mov	r6, r10
 879 0006 4D46     		mov	r5, r9
 880 0008 4446     		mov	r4, r8
 881 000a F0B4     		push	{r4, r5, r6, r7}
 882              		.cfi_def_cfa_offset 36
ARM GAS  C:\Users\haske\AppData\Local\Temp\ccIkbvey.s 			page 48


 883              		.cfi_offset 8, -36
 884              		.cfi_offset 9, -32
 885              		.cfi_offset 10, -28
 886              		.cfi_offset 11, -24
 887 000c 9DB0     		sub	sp, sp, #116
 888              		.cfi_def_cfa_offset 152
 889 000e 0400     		movs	r4, r0
 244:..\..\..\arduinoLCD\test\Pain Drain\libraries\lvgl\src\extra\widgets\colorwheel/lv_colorwheel.c ****     lv_draw_ctx_t * draw_ctx = lv_event_get_draw_ctx(e);
 890              		.loc 1 244 0
 891 0010 FFF7FEFF 		bl	lv_event_get_target
 892              	.LVL125:
 893 0014 0600     		movs	r6, r0
 894 0016 0390     		str	r0, [sp, #12]
 895              	.LVL126:
 245:..\..\..\arduinoLCD\test\Pain Drain\libraries\lvgl\src\extra\widgets\colorwheel/lv_colorwheel.c ****     lv_coord_t w = lv_obj_get_width(obj);
 896              		.loc 1 245 0
 897 0018 2000     		movs	r0, r4
 898              	.LVL127:
 899 001a FFF7FEFF 		bl	lv_event_get_draw_ctx
 900              	.LVL128:
 901 001e 0490     		str	r0, [sp, #16]
 902              	.LVL129:
 246:..\..\..\arduinoLCD\test\Pain Drain\libraries\lvgl\src\extra\widgets\colorwheel/lv_colorwheel.c ****     lv_coord_t h = lv_obj_get_height(obj);
 903              		.loc 1 246 0
 904 0020 3000     		movs	r0, r6
 905              	.LVL130:
 906 0022 FFF7FEFF 		bl	lv_obj_get_width
 907              	.LVL131:
 908 0026 0400     		movs	r4, r0
 909              	.LVL132:
 247:..\..\..\arduinoLCD\test\Pain Drain\libraries\lvgl\src\extra\widgets\colorwheel/lv_colorwheel.c ****     lv_coord_t cx = obj->coords.x1 + w / 2;
 910              		.loc 1 247 0
 911 0028 3000     		movs	r0, r6
 912 002a FFF7FEFF 		bl	lv_obj_get_height
 913              	.LVL133:
 248:..\..\..\arduinoLCD\test\Pain Drain\libraries\lvgl\src\extra\widgets\colorwheel/lv_colorwheel.c ****     lv_coord_t cy = obj->coords.y1 + h / 2;
 914              		.loc 1 248 0
 915 002e 1422     		movs	r2, #20
 916 0030 B35E     		ldrsh	r3, [r6, r2]
 917 0032 E50F     		lsrs	r5, r4, #31
 918 0034 2C19     		adds	r4, r5, r4
 919              	.LVL134:
 920 0036 6410     		asrs	r4, r4, #1
 921 0038 25B2     		sxth	r5, r4
 922 003a 5B19     		adds	r3, r3, r5
 923 003c 9BB2     		uxth	r3, r3
 924 003e 9846     		mov	r8, r3
 925              	.LVL135:
 249:..\..\..\arduinoLCD\test\Pain Drain\libraries\lvgl\src\extra\widgets\colorwheel/lv_colorwheel.c ****     lv_coord_t r = w / 2;
 926              		.loc 1 249 0
 927 0040 1622     		movs	r2, #22
 928 0042 B35E     		ldrsh	r3, [r6, r2]
 929 0044 C20F     		lsrs	r2, r0, #31
 930 0046 1018     		adds	r0, r2, r0
 931              	.LVL136:
 932 0048 4010     		asrs	r0, r0, #1
 933 004a C018     		adds	r0, r0, r3
ARM GAS  C:\Users\haske\AppData\Local\Temp\ccIkbvey.s 			page 49


 934 004c 83B2     		uxth	r3, r0
 935 004e 9A46     		mov	r10, r3
 936              	.LVL137:
 253:..\..\..\arduinoLCD\test\Pain Drain\libraries\lvgl\src\extra\widgets\colorwheel/lv_colorwheel.c ****     lv_obj_init_draw_line_dsc(obj, LV_PART_MAIN, &line_dsc);
 937              		.loc 1 253 0
 938 0050 19AC     		add	r4, sp, #100
 939 0052 2000     		movs	r0, r4
 940 0054 FFF7FEFF 		bl	lv_draw_line_dsc_init
 941              	.LVL138:
 254:..\..\..\arduinoLCD\test\Pain Drain\libraries\lvgl\src\extra\widgets\colorwheel/lv_colorwheel.c **** 
 942              		.loc 1 254 0
 943 0058 2200     		movs	r2, r4
 944 005a 0021     		movs	r1, #0
 945 005c 3000     		movs	r0, r6
 946 005e FFF7FEFF 		bl	lv_obj_init_draw_line_dsc
 947              	.LVL139:
 256:..\..\..\arduinoLCD\test\Pain Drain\libraries\lvgl\src\extra\widgets\colorwheel/lv_colorwheel.c ****     line_dsc.width += 2;
 948              		.loc 1 256 0
 949 0062 0195     		str	r5, [sp, #4]
 950 0064 9D20     		movs	r0, #157
 951 0066 8000     		lsls	r0, r0, #2
 952 0068 6843     		muls	r0, r5
 953 006a 4B49     		ldr	r1, .L38
 954 006c FFF7FEFF 		bl	__aeabi_idiv
 955              	.LVL140:
 956 0070 00B2     		sxth	r0, r0
 257:..\..\..\arduinoLCD\test\Pain Drain\libraries\lvgl\src\extra\widgets\colorwheel/lv_colorwheel.c ****     uint16_t i;
 957              		.loc 1 257 0
 958 0072 0230     		adds	r0, r0, #2
 959 0074 6080     		strh	r0, [r4, #2]
 960              	.LVL141:
 961              	.LBB72:
 962              	.LBB73:
 411:c:\projects\paindrain\arduinolcd\test\pain drain\libraries\lvgl\src/core\lv_obj_style_gen.h ****     return (lv_coord_t)v.num;
 963              		.loc 3 411 0
 964 0076 5022     		movs	r2, #80
 965 0078 0021     		movs	r1, #0
 966 007a 3000     		movs	r0, r6
 967 007c FFF7FEFF 		bl	lv_obj_get_style_prop
 968              	.LVL142:
 969 0080 0500     		movs	r5, r0
 970              	.LVL143:
 971              		.loc 3 412 0
 972 0082 03B2     		sxth	r3, r0
 973 0084 0593     		str	r3, [sp, #20]
 974              	.LVL144:
 975              	.LBE73:
 976              	.LBE72:
 265:..\..\..\arduinoLCD\test\Pain Drain\libraries\lvgl\src\extra\widgets\colorwheel/lv_colorwheel.c ****     int16_t mask_out_id = lv_draw_mask_add(&mask_out_param, 0);
 977              		.loc 1 265 0
 978 0086 3100     		movs	r1, r6
 979 0088 1431     		adds	r1, r1, #20
 980 008a 0023     		movs	r3, #0
 981 008c 434A     		ldr	r2, .L38+4
 982 008e 13A8     		add	r0, sp, #76
 983 0090 FFF7FEFF 		bl	lv_draw_mask_radius_init
 984              	.LVL145:
ARM GAS  C:\Users\haske\AppData\Local\Temp\ccIkbvey.s 			page 50


 266:..\..\..\arduinoLCD\test\Pain Drain\libraries\lvgl\src\extra\widgets\colorwheel/lv_colorwheel.c **** 
 985              		.loc 1 266 0
 986 0094 0021     		movs	r1, #0
 987 0096 13A8     		add	r0, sp, #76
 988 0098 FFF7FEFF 		bl	lv_draw_mask_add
 989              	.LVL146:
 990 009c 0690     		str	r0, [sp, #24]
 991              	.LVL147:
 992              	.LBB74:
 993              	.LBB75:
 994              		.file 5 "c:\\projects\\paindrain\\arduinolcd\\test\\pain drain\\libraries\\lvgl\\src\\misc\\lv_are
   1:c:\projects\paindrain\arduinolcd\test\pain drain\libraries\lvgl\src\misc\lv_area.h **** /**
   2:c:\projects\paindrain\arduinolcd\test\pain drain\libraries\lvgl\src\misc\lv_area.h ****  * @file lv_area.h
   3:c:\projects\paindrain\arduinolcd\test\pain drain\libraries\lvgl\src\misc\lv_area.h ****  *
   4:c:\projects\paindrain\arduinolcd\test\pain drain\libraries\lvgl\src\misc\lv_area.h ****  */
   5:c:\projects\paindrain\arduinolcd\test\pain drain\libraries\lvgl\src\misc\lv_area.h **** 
   6:c:\projects\paindrain\arduinolcd\test\pain drain\libraries\lvgl\src\misc\lv_area.h **** #ifndef LV_AREA_H
   7:c:\projects\paindrain\arduinolcd\test\pain drain\libraries\lvgl\src\misc\lv_area.h **** #define LV_AREA_H
   8:c:\projects\paindrain\arduinolcd\test\pain drain\libraries\lvgl\src\misc\lv_area.h **** 
   9:c:\projects\paindrain\arduinolcd\test\pain drain\libraries\lvgl\src\misc\lv_area.h **** #ifdef __cplusplus
  10:c:\projects\paindrain\arduinolcd\test\pain drain\libraries\lvgl\src\misc\lv_area.h **** extern "C" {
  11:c:\projects\paindrain\arduinolcd\test\pain drain\libraries\lvgl\src\misc\lv_area.h **** #endif
  12:c:\projects\paindrain\arduinolcd\test\pain drain\libraries\lvgl\src\misc\lv_area.h **** 
  13:c:\projects\paindrain\arduinolcd\test\pain drain\libraries\lvgl\src\misc\lv_area.h **** /*********************
  14:c:\projects\paindrain\arduinolcd\test\pain drain\libraries\lvgl\src\misc\lv_area.h ****  *      INCLUDES
  15:c:\projects\paindrain\arduinolcd\test\pain drain\libraries\lvgl\src\misc\lv_area.h ****  *********************/
  16:c:\projects\paindrain\arduinolcd\test\pain drain\libraries\lvgl\src\misc\lv_area.h **** #include "../lv_conf_internal.h"
  17:c:\projects\paindrain\arduinolcd\test\pain drain\libraries\lvgl\src\misc\lv_area.h **** #include <stdbool.h>
  18:c:\projects\paindrain\arduinolcd\test\pain drain\libraries\lvgl\src\misc\lv_area.h **** #include <stdint.h>
  19:c:\projects\paindrain\arduinolcd\test\pain drain\libraries\lvgl\src\misc\lv_area.h **** 
  20:c:\projects\paindrain\arduinolcd\test\pain drain\libraries\lvgl\src\misc\lv_area.h **** /*********************
  21:c:\projects\paindrain\arduinolcd\test\pain drain\libraries\lvgl\src\misc\lv_area.h ****  *      DEFINES
  22:c:\projects\paindrain\arduinolcd\test\pain drain\libraries\lvgl\src\misc\lv_area.h ****  *********************/
  23:c:\projects\paindrain\arduinolcd\test\pain drain\libraries\lvgl\src\misc\lv_area.h **** 
  24:c:\projects\paindrain\arduinolcd\test\pain drain\libraries\lvgl\src\misc\lv_area.h **** #if LV_USE_LARGE_COORD
  25:c:\projects\paindrain\arduinolcd\test\pain drain\libraries\lvgl\src\misc\lv_area.h **** typedef int32_t lv_coord_t;
  26:c:\projects\paindrain\arduinolcd\test\pain drain\libraries\lvgl\src\misc\lv_area.h **** #else
  27:c:\projects\paindrain\arduinolcd\test\pain drain\libraries\lvgl\src\misc\lv_area.h **** typedef int16_t lv_coord_t;
  28:c:\projects\paindrain\arduinolcd\test\pain drain\libraries\lvgl\src\misc\lv_area.h **** #endif
  29:c:\projects\paindrain\arduinolcd\test\pain drain\libraries\lvgl\src\misc\lv_area.h **** 
  30:c:\projects\paindrain\arduinolcd\test\pain drain\libraries\lvgl\src\misc\lv_area.h **** /**********************
  31:c:\projects\paindrain\arduinolcd\test\pain drain\libraries\lvgl\src\misc\lv_area.h ****  *      TYPEDEFS
  32:c:\projects\paindrain\arduinolcd\test\pain drain\libraries\lvgl\src\misc\lv_area.h ****  **********************/
  33:c:\projects\paindrain\arduinolcd\test\pain drain\libraries\lvgl\src\misc\lv_area.h **** 
  34:c:\projects\paindrain\arduinolcd\test\pain drain\libraries\lvgl\src\misc\lv_area.h **** /**
  35:c:\projects\paindrain\arduinolcd\test\pain drain\libraries\lvgl\src\misc\lv_area.h ****  * Represents a point on the screen.
  36:c:\projects\paindrain\arduinolcd\test\pain drain\libraries\lvgl\src\misc\lv_area.h ****  */
  37:c:\projects\paindrain\arduinolcd\test\pain drain\libraries\lvgl\src\misc\lv_area.h **** typedef struct {
  38:c:\projects\paindrain\arduinolcd\test\pain drain\libraries\lvgl\src\misc\lv_area.h ****     lv_coord_t x;
  39:c:\projects\paindrain\arduinolcd\test\pain drain\libraries\lvgl\src\misc\lv_area.h ****     lv_coord_t y;
  40:c:\projects\paindrain\arduinolcd\test\pain drain\libraries\lvgl\src\misc\lv_area.h **** } lv_point_t;
  41:c:\projects\paindrain\arduinolcd\test\pain drain\libraries\lvgl\src\misc\lv_area.h **** 
  42:c:\projects\paindrain\arduinolcd\test\pain drain\libraries\lvgl\src\misc\lv_area.h **** /** Represents an area of the screen.*/
  43:c:\projects\paindrain\arduinolcd\test\pain drain\libraries\lvgl\src\misc\lv_area.h **** typedef struct {
  44:c:\projects\paindrain\arduinolcd\test\pain drain\libraries\lvgl\src\misc\lv_area.h ****     lv_coord_t x1;
  45:c:\projects\paindrain\arduinolcd\test\pain drain\libraries\lvgl\src\misc\lv_area.h ****     lv_coord_t y1;
  46:c:\projects\paindrain\arduinolcd\test\pain drain\libraries\lvgl\src\misc\lv_area.h ****     lv_coord_t x2;
ARM GAS  C:\Users\haske\AppData\Local\Temp\ccIkbvey.s 			page 51


  47:c:\projects\paindrain\arduinolcd\test\pain drain\libraries\lvgl\src\misc\lv_area.h ****     lv_coord_t y2;
  48:c:\projects\paindrain\arduinolcd\test\pain drain\libraries\lvgl\src\misc\lv_area.h **** } lv_area_t;
  49:c:\projects\paindrain\arduinolcd\test\pain drain\libraries\lvgl\src\misc\lv_area.h **** 
  50:c:\projects\paindrain\arduinolcd\test\pain drain\libraries\lvgl\src\misc\lv_area.h **** /** Alignments*/
  51:c:\projects\paindrain\arduinolcd\test\pain drain\libraries\lvgl\src\misc\lv_area.h **** enum {
  52:c:\projects\paindrain\arduinolcd\test\pain drain\libraries\lvgl\src\misc\lv_area.h ****     LV_ALIGN_DEFAULT = 0,
  53:c:\projects\paindrain\arduinolcd\test\pain drain\libraries\lvgl\src\misc\lv_area.h ****     LV_ALIGN_TOP_LEFT,
  54:c:\projects\paindrain\arduinolcd\test\pain drain\libraries\lvgl\src\misc\lv_area.h ****     LV_ALIGN_TOP_MID,
  55:c:\projects\paindrain\arduinolcd\test\pain drain\libraries\lvgl\src\misc\lv_area.h ****     LV_ALIGN_TOP_RIGHT,
  56:c:\projects\paindrain\arduinolcd\test\pain drain\libraries\lvgl\src\misc\lv_area.h ****     LV_ALIGN_BOTTOM_LEFT,
  57:c:\projects\paindrain\arduinolcd\test\pain drain\libraries\lvgl\src\misc\lv_area.h ****     LV_ALIGN_BOTTOM_MID,
  58:c:\projects\paindrain\arduinolcd\test\pain drain\libraries\lvgl\src\misc\lv_area.h ****     LV_ALIGN_BOTTOM_RIGHT,
  59:c:\projects\paindrain\arduinolcd\test\pain drain\libraries\lvgl\src\misc\lv_area.h ****     LV_ALIGN_LEFT_MID,
  60:c:\projects\paindrain\arduinolcd\test\pain drain\libraries\lvgl\src\misc\lv_area.h ****     LV_ALIGN_RIGHT_MID,
  61:c:\projects\paindrain\arduinolcd\test\pain drain\libraries\lvgl\src\misc\lv_area.h ****     LV_ALIGN_CENTER,
  62:c:\projects\paindrain\arduinolcd\test\pain drain\libraries\lvgl\src\misc\lv_area.h **** 
  63:c:\projects\paindrain\arduinolcd\test\pain drain\libraries\lvgl\src\misc\lv_area.h ****     LV_ALIGN_OUT_TOP_LEFT,
  64:c:\projects\paindrain\arduinolcd\test\pain drain\libraries\lvgl\src\misc\lv_area.h ****     LV_ALIGN_OUT_TOP_MID,
  65:c:\projects\paindrain\arduinolcd\test\pain drain\libraries\lvgl\src\misc\lv_area.h ****     LV_ALIGN_OUT_TOP_RIGHT,
  66:c:\projects\paindrain\arduinolcd\test\pain drain\libraries\lvgl\src\misc\lv_area.h ****     LV_ALIGN_OUT_BOTTOM_LEFT,
  67:c:\projects\paindrain\arduinolcd\test\pain drain\libraries\lvgl\src\misc\lv_area.h ****     LV_ALIGN_OUT_BOTTOM_MID,
  68:c:\projects\paindrain\arduinolcd\test\pain drain\libraries\lvgl\src\misc\lv_area.h ****     LV_ALIGN_OUT_BOTTOM_RIGHT,
  69:c:\projects\paindrain\arduinolcd\test\pain drain\libraries\lvgl\src\misc\lv_area.h ****     LV_ALIGN_OUT_LEFT_TOP,
  70:c:\projects\paindrain\arduinolcd\test\pain drain\libraries\lvgl\src\misc\lv_area.h ****     LV_ALIGN_OUT_LEFT_MID,
  71:c:\projects\paindrain\arduinolcd\test\pain drain\libraries\lvgl\src\misc\lv_area.h ****     LV_ALIGN_OUT_LEFT_BOTTOM,
  72:c:\projects\paindrain\arduinolcd\test\pain drain\libraries\lvgl\src\misc\lv_area.h ****     LV_ALIGN_OUT_RIGHT_TOP,
  73:c:\projects\paindrain\arduinolcd\test\pain drain\libraries\lvgl\src\misc\lv_area.h ****     LV_ALIGN_OUT_RIGHT_MID,
  74:c:\projects\paindrain\arduinolcd\test\pain drain\libraries\lvgl\src\misc\lv_area.h ****     LV_ALIGN_OUT_RIGHT_BOTTOM,
  75:c:\projects\paindrain\arduinolcd\test\pain drain\libraries\lvgl\src\misc\lv_area.h **** };
  76:c:\projects\paindrain\arduinolcd\test\pain drain\libraries\lvgl\src\misc\lv_area.h **** typedef uint8_t lv_align_t;
  77:c:\projects\paindrain\arduinolcd\test\pain drain\libraries\lvgl\src\misc\lv_area.h **** 
  78:c:\projects\paindrain\arduinolcd\test\pain drain\libraries\lvgl\src\misc\lv_area.h **** enum {
  79:c:\projects\paindrain\arduinolcd\test\pain drain\libraries\lvgl\src\misc\lv_area.h ****     LV_DIR_NONE     = 0x00,
  80:c:\projects\paindrain\arduinolcd\test\pain drain\libraries\lvgl\src\misc\lv_area.h ****     LV_DIR_LEFT     = (1 << 0),
  81:c:\projects\paindrain\arduinolcd\test\pain drain\libraries\lvgl\src\misc\lv_area.h ****     LV_DIR_RIGHT    = (1 << 1),
  82:c:\projects\paindrain\arduinolcd\test\pain drain\libraries\lvgl\src\misc\lv_area.h ****     LV_DIR_TOP      = (1 << 2),
  83:c:\projects\paindrain\arduinolcd\test\pain drain\libraries\lvgl\src\misc\lv_area.h ****     LV_DIR_BOTTOM   = (1 << 3),
  84:c:\projects\paindrain\arduinolcd\test\pain drain\libraries\lvgl\src\misc\lv_area.h ****     LV_DIR_HOR      = LV_DIR_LEFT | LV_DIR_RIGHT,
  85:c:\projects\paindrain\arduinolcd\test\pain drain\libraries\lvgl\src\misc\lv_area.h ****     LV_DIR_VER      = LV_DIR_TOP | LV_DIR_BOTTOM,
  86:c:\projects\paindrain\arduinolcd\test\pain drain\libraries\lvgl\src\misc\lv_area.h ****     LV_DIR_ALL      = LV_DIR_HOR | LV_DIR_VER,
  87:c:\projects\paindrain\arduinolcd\test\pain drain\libraries\lvgl\src\misc\lv_area.h **** };
  88:c:\projects\paindrain\arduinolcd\test\pain drain\libraries\lvgl\src\misc\lv_area.h **** 
  89:c:\projects\paindrain\arduinolcd\test\pain drain\libraries\lvgl\src\misc\lv_area.h **** typedef uint8_t lv_dir_t;
  90:c:\projects\paindrain\arduinolcd\test\pain drain\libraries\lvgl\src\misc\lv_area.h **** 
  91:c:\projects\paindrain\arduinolcd\test\pain drain\libraries\lvgl\src\misc\lv_area.h **** /**********************
  92:c:\projects\paindrain\arduinolcd\test\pain drain\libraries\lvgl\src\misc\lv_area.h ****  * GLOBAL PROTOTYPES
  93:c:\projects\paindrain\arduinolcd\test\pain drain\libraries\lvgl\src\misc\lv_area.h ****  **********************/
  94:c:\projects\paindrain\arduinolcd\test\pain drain\libraries\lvgl\src\misc\lv_area.h **** 
  95:c:\projects\paindrain\arduinolcd\test\pain drain\libraries\lvgl\src\misc\lv_area.h **** /**
  96:c:\projects\paindrain\arduinolcd\test\pain drain\libraries\lvgl\src\misc\lv_area.h ****  * Initialize an area
  97:c:\projects\paindrain\arduinolcd\test\pain drain\libraries\lvgl\src\misc\lv_area.h ****  * @param area_p pointer to an area
  98:c:\projects\paindrain\arduinolcd\test\pain drain\libraries\lvgl\src\misc\lv_area.h ****  * @param x1 left coordinate of the area
  99:c:\projects\paindrain\arduinolcd\test\pain drain\libraries\lvgl\src\misc\lv_area.h ****  * @param y1 top coordinate of the area
 100:c:\projects\paindrain\arduinolcd\test\pain drain\libraries\lvgl\src\misc\lv_area.h ****  * @param x2 right coordinate of the area
 101:c:\projects\paindrain\arduinolcd\test\pain drain\libraries\lvgl\src\misc\lv_area.h ****  * @param y2 bottom coordinate of the area
 102:c:\projects\paindrain\arduinolcd\test\pain drain\libraries\lvgl\src\misc\lv_area.h ****  */
 103:c:\projects\paindrain\arduinolcd\test\pain drain\libraries\lvgl\src\misc\lv_area.h **** void lv_area_set(lv_area_t * area_p, lv_coord_t x1, lv_coord_t y1, lv_coord_t x2, lv_coord_t y2);
ARM GAS  C:\Users\haske\AppData\Local\Temp\ccIkbvey.s 			page 52


 104:c:\projects\paindrain\arduinolcd\test\pain drain\libraries\lvgl\src\misc\lv_area.h **** 
 105:c:\projects\paindrain\arduinolcd\test\pain drain\libraries\lvgl\src\misc\lv_area.h **** /**
 106:c:\projects\paindrain\arduinolcd\test\pain drain\libraries\lvgl\src\misc\lv_area.h ****  * Copy an area
 107:c:\projects\paindrain\arduinolcd\test\pain drain\libraries\lvgl\src\misc\lv_area.h ****  * @param dest pointer to the destination area
 108:c:\projects\paindrain\arduinolcd\test\pain drain\libraries\lvgl\src\misc\lv_area.h ****  * @param src pointer to the source area
 109:c:\projects\paindrain\arduinolcd\test\pain drain\libraries\lvgl\src\misc\lv_area.h ****  */
 110:c:\projects\paindrain\arduinolcd\test\pain drain\libraries\lvgl\src\misc\lv_area.h **** inline static void lv_area_copy(lv_area_t * dest, const lv_area_t * src)
 111:c:\projects\paindrain\arduinolcd\test\pain drain\libraries\lvgl\src\misc\lv_area.h **** {
 112:c:\projects\paindrain\arduinolcd\test\pain drain\libraries\lvgl\src\misc\lv_area.h ****     dest->x1 = src->x1;
 995              		.loc 5 112 0
 996 009e 1423     		movs	r3, #20
 997 00a0 F05E     		ldrsh	r0, [r6, r3]
 998 00a2 11A9     		add	r1, sp, #68
 999              	.LVL148:
 1000 00a4 0880     		strh	r0, [r1]
 113:c:\projects\paindrain\arduinolcd\test\pain drain\libraries\lvgl\src\misc\lv_area.h ****     dest->y1 = src->y1;
 1001              		.loc 5 113 0
 1002 00a6 1622     		movs	r2, #22
 1003 00a8 B35E     		ldrsh	r3, [r6, r2]
 1004 00aa 4B80     		strh	r3, [r1, #2]
 114:c:\projects\paindrain\arduinolcd\test\pain drain\libraries\lvgl\src\misc\lv_area.h ****     dest->x2 = src->x2;
 1005              		.loc 5 114 0
 1006 00ac 1827     		movs	r7, #24
 1007 00ae F25F     		ldrsh	r2, [r6, r7]
 1008 00b0 8A80     		strh	r2, [r1, #4]
 115:c:\projects\paindrain\arduinolcd\test\pain drain\libraries\lvgl\src\misc\lv_area.h ****     dest->y2 = src->y2;
 1009              		.loc 5 115 0
 1010 00b2 1A27     		movs	r7, #26
 1011 00b4 F65F     		ldrsh	r6, [r6, r7]
 1012              	.LVL149:
 1013              	.LBE75:
 1014              	.LBE74:
 270:..\..\..\arduinoLCD\test\Pain Drain\libraries\lvgl\src\extra\widgets\colorwheel/lv_colorwheel.c ****     mask_area.x2 -= cir_w;
 1015              		.loc 1 270 0
 1016 00b6 ADB2     		uxth	r5, r5
 1017 00b8 2818     		adds	r0, r5, r0
 1018 00ba 0880     		strh	r0, [r1]
 271:..\..\..\arduinoLCD\test\Pain Drain\libraries\lvgl\src\extra\widgets\colorwheel/lv_colorwheel.c ****     mask_area.y1 += cir_w;
 1019              		.loc 1 271 0
 1020 00bc 521B     		subs	r2, r2, r5
 1021 00be 8A80     		strh	r2, [r1, #4]
 272:..\..\..\arduinoLCD\test\Pain Drain\libraries\lvgl\src\extra\widgets\colorwheel/lv_colorwheel.c ****     mask_area.y2 -= cir_w;
 1022              		.loc 1 272 0
 1023 00c0 EB18     		adds	r3, r5, r3
 1024 00c2 4B80     		strh	r3, [r1, #2]
 273:..\..\..\arduinoLCD\test\Pain Drain\libraries\lvgl\src\extra\widgets\colorwheel/lv_colorwheel.c ****     lv_draw_mask_radius_param_t mask_in_param;
 1025              		.loc 1 273 0
 1026 00c4 751B     		subs	r5, r6, r5
 1027 00c6 CD80     		strh	r5, [r1, #6]
 275:..\..\..\arduinoLCD\test\Pain Drain\libraries\lvgl\src\extra\widgets\colorwheel/lv_colorwheel.c ****     int16_t mask_in_id = lv_draw_mask_add(&mask_in_param, 0);
 1028              		.loc 1 275 0
 1029 00c8 0123     		movs	r3, #1
 1030 00ca 344A     		ldr	r2, .L38+4
 1031 00cc 0BA8     		add	r0, sp, #44
 1032 00ce FFF7FEFF 		bl	lv_draw_mask_radius_init
 1033              	.LVL150:
 276:..\..\..\arduinoLCD\test\Pain Drain\libraries\lvgl\src\extra\widgets\colorwheel/lv_colorwheel.c **** 
ARM GAS  C:\Users\haske\AppData\Local\Temp\ccIkbvey.s 			page 53


 1034              		.loc 1 276 0
 1035 00d2 0021     		movs	r1, #0
 1036 00d4 0BA8     		add	r0, sp, #44
 1037 00d6 FFF7FEFF 		bl	lv_draw_mask_add
 1038              	.LVL151:
 1039 00da 0790     		str	r0, [sp, #28]
 1040              	.LVL152:
 280:..\..\..\arduinoLCD\test\Pain Drain\libraries\lvgl\src\extra\widgets\colorwheel/lv_colorwheel.c **** #else
 1041              		.loc 1 280 0
 1042 00dc 0222     		movs	r2, #2
 1043 00de A35E     		ldrsh	r3, [r4, r2]
 1044 00e0 9B46     		mov	fp, r3
 1045              	.LVL153:
 259:..\..\..\arduinoLCD\test\Pain Drain\libraries\lvgl\src\extra\widgets\colorwheel/lv_colorwheel.c ****     lv_coord_t cir_w = lv_obj_get_style_arc_width(obj, LV_PART_MAIN);
 1046              		.loc 1 259 0
 1047 00e2 0023     		movs	r3, #0
 1048 00e4 9946     		mov	r9, r3
 285:..\..\..\arduinoLCD\test\Pain Drain\libraries\lvgl\src\extra\widgets\colorwheel/lv_colorwheel.c ****         line_dsc.color = angle_to_mode_color_fast(obj, i);
 1049              		.loc 1 285 0
 1050 00e6 0026     		movs	r6, #0
 1051 00e8 3700     		movs	r7, r6
 1052 00ea 3EE0     		b	.L36
 1053              	.LVL154:
 1054              	.L37:
 1055              	.LBB76:
 286:..\..\..\arduinoLCD\test\Pain Drain\libraries\lvgl\src\extra\widgets\colorwheel/lv_colorwheel.c ****         uint16_t angle_trigo = (uint16_t)(a >> 8); /*i * 360 / 256 is the scale to apply, but we ca
 1056              		.loc 1 286 0 discriminator 3
 1057 00ec 3900     		movs	r1, r7
 1058 00ee 0398     		ldr	r0, [sp, #12]
 1059 00f0 FFF7FEFF 		bl	angle_to_mode_color_fast
 1060              	.LVL155:
 1061 00f4 08AB     		add	r3, sp, #32
 1062 00f6 4422     		movs	r2, #68
 1063 00f8 9B18     		adds	r3, r3, r2
 1064 00fa 1880     		strh	r0, [r3]
 287:..\..\..\arduinoLCD\test\Pain Drain\libraries\lvgl\src\extra\widgets\colorwheel/lv_colorwheel.c **** 
 1065              		.loc 1 287 0 discriminator 3
 1066 00fc 4B46     		mov	r3, r9
 1067 00fe 1D0A     		lsrs	r5, r3, #8
 1068              	.LVL156:
 290:..\..\..\arduinoLCD\test\Pain Drain\libraries\lvgl\src\extra\widgets\colorwheel/lv_colorwheel.c ****         p[0].y = cy + ((r + cir_w_extra) * lv_trigo_cos(angle_trigo) >> LV_TRIGO_SHIFT);
 1069              		.loc 1 290 0 discriminator 3
 1070 0100 019B     		ldr	r3, [sp, #4]
 1071 0102 1C00     		movs	r4, r3
 1072 0104 5C44     		add	r4, r4, fp
 1073 0106 2AB2     		sxth	r2, r5
 1074 0108 0292     		str	r2, [sp, #8]
 1075 010a 1000     		movs	r0, r2
 1076 010c FFF7FEFF 		bl	lv_trigo_sin
 1077              	.LVL157:
 1078 0110 6043     		muls	r0, r4
 1079 0112 C013     		asrs	r0, r0, #15
 1080 0114 09AE     		add	r6, sp, #36
 1081 0116 4044     		add	r0, r0, r8
 1082 0118 3080     		strh	r0, [r6]
 1083              	.LVL158:
 1084              	.LBB77:
ARM GAS  C:\Users\haske\AppData\Local\Temp\ccIkbvey.s 			page 54


 1085              	.LBB78:
 1086              		.loc 4 51 0 discriminator 3
 1087 011a 5A35     		adds	r5, r5, #90
 1088              	.LVL159:
 1089 011c 2DB2     		sxth	r5, r5
 1090 011e 2800     		movs	r0, r5
 1091 0120 FFF7FEFF 		bl	lv_trigo_sin
 1092              	.LVL160:
 1093              	.LBE78:
 1094              	.LBE77:
 291:..\..\..\arduinoLCD\test\Pain Drain\libraries\lvgl\src\extra\widgets\colorwheel/lv_colorwheel.c ****         p[1].x = cx + ((r - cir_w - cir_w_extra) * lv_trigo_sin(angle_trigo) >> LV_TRIGO_SHIFT);
 1095              		.loc 1 291 0 discriminator 3
 1096 0124 4443     		muls	r4, r0
 1097 0126 E413     		asrs	r4, r4, #15
 1098 0128 5444     		add	r4, r4, r10
 1099 012a 7480     		strh	r4, [r6, #2]
 292:..\..\..\arduinoLCD\test\Pain Drain\libraries\lvgl\src\extra\widgets\colorwheel/lv_colorwheel.c ****         p[1].y = cy + ((r - cir_w - cir_w_extra) * lv_trigo_cos(angle_trigo) >> LV_TRIGO_SHIFT);
 1100              		.loc 1 292 0 discriminator 3
 1101 012c 019B     		ldr	r3, [sp, #4]
 1102 012e 0599     		ldr	r1, [sp, #20]
 1103 0130 5C1A     		subs	r4, r3, r1
 1104 0132 5B46     		mov	r3, fp
 1105 0134 E41A     		subs	r4, r4, r3
 1106 0136 0298     		ldr	r0, [sp, #8]
 1107 0138 FFF7FEFF 		bl	lv_trigo_sin
 1108              	.LVL161:
 1109 013c 6043     		muls	r0, r4
 1110 013e C013     		asrs	r0, r0, #15
 1111 0140 4044     		add	r0, r0, r8
 1112 0142 B080     		strh	r0, [r6, #4]
 1113              	.LVL162:
 1114              	.LBB79:
 1115              	.LBB80:
 1116              		.loc 4 51 0 discriminator 3
 1117 0144 2800     		movs	r0, r5
 1118 0146 FFF7FEFF 		bl	lv_trigo_sin
 1119              	.LVL163:
 1120              	.LBE80:
 1121              	.LBE79:
 293:..\..\..\arduinoLCD\test\Pain Drain\libraries\lvgl\src\extra\widgets\colorwheel/lv_colorwheel.c **** 
 1122              		.loc 1 293 0 discriminator 3
 1123 014a 4443     		muls	r4, r0
 1124 014c E413     		asrs	r4, r4, #15
 1125 014e 5444     		add	r4, r4, r10
 1126 0150 F480     		strh	r4, [r6, #6]
 295:..\..\..\arduinoLCD\test\Pain Drain\libraries\lvgl\src\extra\widgets\colorwheel/lv_colorwheel.c ****     }
 1127              		.loc 1 295 0 discriminator 3
 1128 0152 0AAB     		add	r3, sp, #40
 1129 0154 3200     		movs	r2, r6
 1130 0156 19A9     		add	r1, sp, #100
 1131 0158 0498     		ldr	r0, [sp, #16]
 1132 015a FFF7FEFF 		bl	lv_draw_line
 1133              	.LVL164:
 1134              	.LBE76:
 285:..\..\..\arduinoLCD\test\Pain Drain\libraries\lvgl\src\extra\widgets\colorwheel/lv_colorwheel.c ****         line_dsc.color = angle_to_mode_color_fast(obj, i);
 1135              		.loc 1 285 0 discriminator 3
 1136 015e FB1C     		adds	r3, r7, #3
ARM GAS  C:\Users\haske\AppData\Local\Temp\ccIkbvey.s 			page 55


 1137 0160 9FB2     		uxth	r7, r3
 1138              	.LVL165:
 1139 0162 8723     		movs	r3, #135
 1140 0164 DB00     		lsls	r3, r3, #3
 1141 0166 9C46     		mov	ip, r3
 1142 0168 E144     		add	r9, r9, ip
 1143              	.LVL166:
 1144              	.L36:
 285:..\..\..\arduinoLCD\test\Pain Drain\libraries\lvgl\src\extra\widgets\colorwheel/lv_colorwheel.c ****         line_dsc.color = angle_to_mode_color_fast(obj, i);
 1145              		.loc 1 285 0 is_stmt 0 discriminator 1
 1146 016a 8023     		movs	r3, #128
 1147 016c 5B00     		lsls	r3, r3, #1
 1148 016e 9F42     		cmp	r7, r3
 1149 0170 BCD9     		bls	.L37
 299:..\..\..\arduinoLCD\test\Pain Drain\libraries\lvgl\src\extra\widgets\colorwheel/lv_colorwheel.c ****     lv_draw_mask_free_param(&mask_in_param);
 1150              		.loc 1 299 0 is_stmt 1
 1151 0172 13A8     		add	r0, sp, #76
 1152 0174 FFF7FEFF 		bl	lv_draw_mask_free_param
 1153              	.LVL167:
 300:..\..\..\arduinoLCD\test\Pain Drain\libraries\lvgl\src\extra\widgets\colorwheel/lv_colorwheel.c ****     lv_draw_mask_remove_id(mask_out_id);
 1154              		.loc 1 300 0
 1155 0178 0BA8     		add	r0, sp, #44
 1156 017a FFF7FEFF 		bl	lv_draw_mask_free_param
 1157              	.LVL168:
 301:..\..\..\arduinoLCD\test\Pain Drain\libraries\lvgl\src\extra\widgets\colorwheel/lv_colorwheel.c ****     lv_draw_mask_remove_id(mask_in_id);
 1158              		.loc 1 301 0
 1159 017e 0698     		ldr	r0, [sp, #24]
 1160 0180 FFF7FEFF 		bl	lv_draw_mask_remove_id
 1161              	.LVL169:
 302:..\..\..\arduinoLCD\test\Pain Drain\libraries\lvgl\src\extra\widgets\colorwheel/lv_colorwheel.c **** #endif
 1162              		.loc 1 302 0
 1163 0184 0798     		ldr	r0, [sp, #28]
 1164 0186 FFF7FEFF 		bl	lv_draw_mask_remove_id
 1165              	.LVL170:
 304:..\..\..\arduinoLCD\test\Pain Drain\libraries\lvgl\src\extra\widgets\colorwheel/lv_colorwheel.c **** 
 1166              		.loc 1 304 0
 1167 018a 1DB0     		add	sp, sp, #116
 1168              		@ sp needed
 1169              	.LVL171:
 1170              	.LVL172:
 1171              	.LVL173:
 1172              	.LVL174:
 1173              	.LVL175:
 1174 018c 3CBC     		pop	{r2, r3, r4, r5}
 1175 018e 9046     		mov	r8, r2
 1176 0190 9946     		mov	r9, r3
 1177 0192 A246     		mov	r10, r4
 1178 0194 AB46     		mov	fp, r5
 1179 0196 F0BD     		pop	{r4, r5, r6, r7, pc}
 1180              	.L39:
 1181              		.align	2
 1182              	.L38:
 1183 0198 34210000 		.word	8500
 1184 019c FF7F0000 		.word	32767
 1185              		.cfi_endproc
 1186              	.LFE212:
 1187              		.size	draw_disc_grad, .-draw_disc_grad
ARM GAS  C:\Users\haske\AppData\Local\Temp\ccIkbvey.s 			page 56


 1188              		.section	.text.lv_colorwheel_constructor,"ax",%progbits
 1189              		.align	2
 1190              		.code	16
 1191              		.thumb_func
 1192              		.type	lv_colorwheel_constructor, %function
 1193              	lv_colorwheel_constructor:
 1194              	.LFB211:
 225:..\..\..\arduinoLCD\test\Pain Drain\libraries\lvgl\src\extra\widgets\colorwheel/lv_colorwheel.c ****     LV_UNUSED(class_p);
 1195              		.loc 1 225 0
 1196              		.cfi_startproc
 1197              		@ args = 0, pretend = 0, frame = 0
 1198              		@ frame_needed = 0, uses_anonymous_args = 0
 1199              	.LVL176:
 1200 0000 10B5     		push	{r4, lr}
 1201              		.cfi_def_cfa_offset 8
 1202              		.cfi_offset 4, -8
 1203              		.cfi_offset 14, -4
 1204 0002 0C00     		movs	r4, r1
 1205              	.LVL177:
 228:..\..\..\arduinoLCD\test\Pain Drain\libraries\lvgl\src\extra\widgets\colorwheel/lv_colorwheel.c ****     colorwheel->hsv.s = 100;
 1206              		.loc 1 228 0
 1207 0004 0022     		movs	r2, #0
 1208 0006 8A84     		strh	r2, [r1, #36]
 229:..\..\..\arduinoLCD\test\Pain Drain\libraries\lvgl\src\extra\widgets\colorwheel/lv_colorwheel.c ****     colorwheel->hsv.v = 100;
 1209              		.loc 1 229 0
 1210 0008 6423     		movs	r3, #100
 1211 000a 2621     		movs	r1, #38
 1212              	.LVL178:
 1213 000c 6354     		strb	r3, [r4, r1]
 230:..\..\..\arduinoLCD\test\Pain Drain\libraries\lvgl\src\extra\widgets\colorwheel/lv_colorwheel.c ****     colorwheel->mode = LV_COLORWHEEL_MODE_HUE;
 1214              		.loc 1 230 0
 1215 000e 0131     		adds	r1, r1, #1
 1216 0010 6354     		strb	r3, [r4, r1]
 231:..\..\..\arduinoLCD\test\Pain Drain\libraries\lvgl\src\extra\widgets\colorwheel/lv_colorwheel.c ****     colorwheel->mode_fixed = 0;
 1217              		.loc 1 231 0
 1218 0012 1531     		adds	r1, r1, #21
 1219 0014 635C     		ldrb	r3, [r4, r1]
 232:..\..\..\arduinoLCD\test\Pain Drain\libraries\lvgl\src\extra\widgets\colorwheel/lv_colorwheel.c ****     colorwheel->last_click_time = 0;
 1220              		.loc 1 232 0
 1221 0016 0320     		movs	r0, #3
 1222              	.LVL179:
 1223 0018 8343     		bics	r3, r0
 1224 001a 0130     		adds	r0, r0, #1
 1225 001c 8343     		bics	r3, r0
 1226 001e 6354     		strb	r3, [r4, r1]
 233:..\..\..\arduinoLCD\test\Pain Drain\libraries\lvgl\src\extra\widgets\colorwheel/lv_colorwheel.c ****     colorwheel->last_change_time = 0;
 1227              		.loc 1 233 0
 1228 0020 2263     		str	r2, [r4, #48]
 234:..\..\..\arduinoLCD\test\Pain Drain\libraries\lvgl\src\extra\widgets\colorwheel/lv_colorwheel.c ****     colorwheel->knob.recolor = create_knob_recolor;
 1229              		.loc 1 234 0
 1230 0022 6263     		str	r2, [r4, #52]
 235:..\..\..\arduinoLCD\test\Pain Drain\libraries\lvgl\src\extra\widgets\colorwheel/lv_colorwheel.c **** 
 1231              		.loc 1 235 0
 1232 0024 1039     		subs	r1, r1, #16
 1233 0026 0B4B     		ldr	r3, .L41
 1234 0028 1B79     		ldrb	r3, [r3, #4]
 1235 002a 0132     		adds	r2, r2, #1
ARM GAS  C:\Users\haske\AppData\Local\Temp\ccIkbvey.s 			page 57


 1236 002c 1A40     		ands	r2, r3
 1237 002e 635C     		ldrb	r3, [r4, r1]
 1238 0030 0338     		subs	r0, r0, #3
 1239 0032 8343     		bics	r3, r0
 1240 0034 1343     		orrs	r3, r2
 1241 0036 6354     		strb	r3, [r4, r1]
 237:..\..\..\arduinoLCD\test\Pain Drain\libraries\lvgl\src\extra\widgets\colorwheel/lv_colorwheel.c ****     lv_obj_clear_flag(obj, LV_OBJ_FLAG_SCROLL_CHAIN);
 1242              		.loc 1 237 0
 1243 0038 8021     		movs	r1, #128
 1244 003a 4902     		lsls	r1, r1, #9
 1245 003c 2000     		movs	r0, r4
 1246 003e FFF7FEFF 		bl	lv_obj_add_flag
 1247              	.LVL180:
 238:..\..\..\arduinoLCD\test\Pain Drain\libraries\lvgl\src\extra\widgets\colorwheel/lv_colorwheel.c ****     refr_knob_pos(obj);
 1248              		.loc 1 238 0
 1249 0042 C021     		movs	r1, #192
 1250 0044 8900     		lsls	r1, r1, #2
 1251 0046 2000     		movs	r0, r4
 1252 0048 FFF7FEFF 		bl	lv_obj_clear_flag
 1253              	.LVL181:
 239:..\..\..\arduinoLCD\test\Pain Drain\libraries\lvgl\src\extra\widgets\colorwheel/lv_colorwheel.c **** }
 1254              		.loc 1 239 0
 1255 004c 2000     		movs	r0, r4
 1256 004e FFF7FEFF 		bl	refr_knob_pos
 1257              	.LVL182:
 240:..\..\..\arduinoLCD\test\Pain Drain\libraries\lvgl\src\extra\widgets\colorwheel/lv_colorwheel.c **** 
 1258              		.loc 1 240 0
 1259              		@ sp needed
 1260              	.LVL183:
 1261 0052 10BD     		pop	{r4, pc}
 1262              	.L42:
 1263              		.align	2
 1264              	.L41:
 1265 0054 00000000 		.word	.LANCHOR1
 1266              		.cfi_endproc
 1267              	.LFE211:
 1268              		.size	lv_colorwheel_constructor, .-lv_colorwheel_constructor
 1269              		.section	.text.lv_colorwheel_create,"ax",%progbits
 1270              		.align	2
 1271              		.global	lv_colorwheel_create
 1272              		.code	16
 1273              		.thumb_func
 1274              		.type	lv_colorwheel_create, %function
 1275              	lv_colorwheel_create:
 1276              	.LFB202:
  78:..\..\..\arduinoLCD\test\Pain Drain\libraries\lvgl\src\extra\widgets\colorwheel/lv_colorwheel.c ****     LV_LOG_INFO("begin");
 1277              		.loc 1 78 0
 1278              		.cfi_startproc
 1279              		@ args = 0, pretend = 0, frame = 0
 1280              		@ frame_needed = 0, uses_anonymous_args = 0
 1281              	.LVL184:
 1282 0000 10B5     		push	{r4, lr}
 1283              		.cfi_def_cfa_offset 8
 1284              		.cfi_offset 4, -8
 1285              		.cfi_offset 14, -4
  80:..\..\..\arduinoLCD\test\Pain Drain\libraries\lvgl\src\extra\widgets\colorwheel/lv_colorwheel.c **** 
 1286              		.loc 1 80 0
ARM GAS  C:\Users\haske\AppData\Local\Temp\ccIkbvey.s 			page 58


 1287 0002 054B     		ldr	r3, .L44
 1288 0004 1971     		strb	r1, [r3, #4]
  82:..\..\..\arduinoLCD\test\Pain Drain\libraries\lvgl\src\extra\widgets\colorwheel/lv_colorwheel.c ****     lv_obj_class_init_obj(obj);
 1289              		.loc 1 82 0
 1290 0006 0100     		movs	r1, r0
 1291              	.LVL185:
 1292 0008 0448     		ldr	r0, .L44+4
 1293              	.LVL186:
 1294 000a FFF7FEFF 		bl	lv_obj_class_create_obj
 1295              	.LVL187:
 1296 000e 0400     		movs	r4, r0
 1297              	.LVL188:
  83:..\..\..\arduinoLCD\test\Pain Drain\libraries\lvgl\src\extra\widgets\colorwheel/lv_colorwheel.c ****     return obj;
 1298              		.loc 1 83 0
 1299 0010 FFF7FEFF 		bl	lv_obj_class_init_obj
 1300              	.LVL189:
  85:..\..\..\arduinoLCD\test\Pain Drain\libraries\lvgl\src\extra\widgets\colorwheel/lv_colorwheel.c **** 
 1301              		.loc 1 85 0
 1302 0014 2000     		movs	r0, r4
 1303              		@ sp needed
 1304              	.LVL190:
 1305 0016 10BD     		pop	{r4, pc}
 1306              	.L45:
 1307              		.align	2
 1308              	.L44:
 1309 0018 00000000 		.word	.LANCHOR1
 1310 001c 00000000 		.word	.LANCHOR2
 1311              		.cfi_endproc
 1312              	.LFE202:
 1313              		.size	lv_colorwheel_create, .-lv_colorwheel_create
 1314              		.global	__aeabi_uidivmod
 1315              		.section	.text.lv_colorwheel_set_hsv,"ax",%progbits
 1316              		.align	2
 1317              		.global	lv_colorwheel_set_hsv
 1318              		.code	16
 1319              		.thumb_func
 1320              		.type	lv_colorwheel_set_hsv, %function
 1321              	lv_colorwheel_set_hsv:
 1322              	.LFB203:
  98:..\..\..\arduinoLCD\test\Pain Drain\libraries\lvgl\src\extra\widgets\colorwheel/lv_colorwheel.c ****     if(hsv.h > 360) hsv.h %= 360;
 1323              		.loc 1 98 0
 1324              		.cfi_startproc
 1325              		@ args = 0, pretend = 0, frame = 8
 1326              		@ frame_needed = 0, uses_anonymous_args = 0
 1327              	.LVL191:
 1328 0000 10B5     		push	{r4, lr}
 1329              		.cfi_def_cfa_offset 8
 1330              		.cfi_offset 4, -8
 1331              		.cfi_offset 14, -4
 1332 0002 82B0     		sub	sp, sp, #8
 1333              		.cfi_def_cfa_offset 16
 1334 0004 0400     		movs	r4, r0
 1335 0006 0191     		str	r1, [sp, #4]
  99:..\..\..\arduinoLCD\test\Pain Drain\libraries\lvgl\src\extra\widgets\colorwheel/lv_colorwheel.c ****     if(hsv.s > 100) hsv.s = 100;
 1336              		.loc 1 99 0
 1337 0008 88B2     		uxth	r0, r1
 1338              	.LVL192:
ARM GAS  C:\Users\haske\AppData\Local\Temp\ccIkbvey.s 			page 59


 1339 000a B423     		movs	r3, #180
 1340 000c 5B00     		lsls	r3, r3, #1
 1341 000e 9842     		cmp	r0, r3
 1342 0010 04D9     		bls	.L47
  99:..\..\..\arduinoLCD\test\Pain Drain\libraries\lvgl\src\extra\widgets\colorwheel/lv_colorwheel.c ****     if(hsv.s > 100) hsv.s = 100;
 1343              		.loc 1 99 0 is_stmt 0 discriminator 1
 1344 0012 1900     		movs	r1, r3
 1345 0014 FFF7FEFF 		bl	__aeabi_uidivmod
 1346              	.LVL193:
 1347 0018 01AB     		add	r3, sp, #4
 1348 001a 1980     		strh	r1, [r3]
 1349              	.L47:
 100:..\..\..\arduinoLCD\test\Pain Drain\libraries\lvgl\src\extra\widgets\colorwheel/lv_colorwheel.c ****     if(hsv.v > 100) hsv.v = 100;
 1350              		.loc 1 100 0 is_stmt 1
 1351 001c 01AB     		add	r3, sp, #4
 1352 001e 9B78     		ldrb	r3, [r3, #2]
 1353 0020 642B     		cmp	r3, #100
 1354 0022 02D9     		bls	.L48
 100:..\..\..\arduinoLCD\test\Pain Drain\libraries\lvgl\src\extra\widgets\colorwheel/lv_colorwheel.c ****     if(hsv.v > 100) hsv.v = 100;
 1355              		.loc 1 100 0 is_stmt 0 discriminator 1
 1356 0024 6422     		movs	r2, #100
 1357 0026 01AB     		add	r3, sp, #4
 1358 0028 9A70     		strb	r2, [r3, #2]
 1359              	.L48:
 101:..\..\..\arduinoLCD\test\Pain Drain\libraries\lvgl\src\extra\widgets\colorwheel/lv_colorwheel.c **** 
 1360              		.loc 1 101 0 is_stmt 1
 1361 002a 01AB     		add	r3, sp, #4
 1362 002c DB78     		ldrb	r3, [r3, #3]
 1363 002e 642B     		cmp	r3, #100
 1364 0030 02D9     		bls	.L49
 101:..\..\..\arduinoLCD\test\Pain Drain\libraries\lvgl\src\extra\widgets\colorwheel/lv_colorwheel.c **** 
 1365              		.loc 1 101 0 is_stmt 0 discriminator 1
 1366 0032 6422     		movs	r2, #100
 1367 0034 01AB     		add	r3, sp, #4
 1368 0036 DA70     		strb	r2, [r3, #3]
 1369              	.L49:
 1370              	.LVL194:
 106:..\..\..\arduinoLCD\test\Pain Drain\libraries\lvgl\src\extra\widgets\colorwheel/lv_colorwheel.c **** 
 1371              		.loc 1 106 0 is_stmt 1
 1372 0038 A28C     		ldrh	r2, [r4, #36]
 1373 003a 01AB     		add	r3, sp, #4
 1374 003c 1B88     		ldrh	r3, [r3]
 1375 003e 9A42     		cmp	r2, r3
 1376 0040 04D1     		bne	.L50
 106:..\..\..\arduinoLCD\test\Pain Drain\libraries\lvgl\src\extra\widgets\colorwheel/lv_colorwheel.c **** 
 1377              		.loc 1 106 0 is_stmt 0 discriminator 1
 1378 0042 E28C     		ldrh	r2, [r4, #38]
 1379 0044 01AB     		add	r3, sp, #4
 1380 0046 5B88     		ldrh	r3, [r3, #2]
 1381 0048 9A42     		cmp	r2, r3
 1382 004a 09D0     		beq	.L52
 1383              	.L50:
 108:..\..\..\arduinoLCD\test\Pain Drain\libraries\lvgl\src\extra\widgets\colorwheel/lv_colorwheel.c **** 
 1384              		.loc 1 108 0 is_stmt 1
 1385 004c 019B     		ldr	r3, [sp, #4]
 1386 004e 6362     		str	r3, [r4, #36]
 110:..\..\..\arduinoLCD\test\Pain Drain\libraries\lvgl\src\extra\widgets\colorwheel/lv_colorwheel.c **** 
ARM GAS  C:\Users\haske\AppData\Local\Temp\ccIkbvey.s 			page 60


 1387              		.loc 1 110 0
 1388 0050 2000     		movs	r0, r4
 1389 0052 FFF7FEFF 		bl	refr_knob_pos
 1390              	.LVL195:
 112:..\..\..\arduinoLCD\test\Pain Drain\libraries\lvgl\src\extra\widgets\colorwheel/lv_colorwheel.c **** 
 1391              		.loc 1 112 0
 1392 0056 2000     		movs	r0, r4
 1393 0058 FFF7FEFF 		bl	lv_obj_invalidate
 1394              	.LVL196:
 114:..\..\..\arduinoLCD\test\Pain Drain\libraries\lvgl\src\extra\widgets\colorwheel/lv_colorwheel.c **** }
 1395              		.loc 1 114 0
 1396 005c 0120     		movs	r0, #1
 1397 005e 00E0     		b	.L51
 1398              	.L52:
 106:..\..\..\arduinoLCD\test\Pain Drain\libraries\lvgl\src\extra\widgets\colorwheel/lv_colorwheel.c **** 
 1399              		.loc 1 106 0
 1400 0060 0020     		movs	r0, #0
 1401              	.L51:
 115:..\..\..\arduinoLCD\test\Pain Drain\libraries\lvgl\src\extra\widgets\colorwheel/lv_colorwheel.c **** 
 1402              		.loc 1 115 0
 1403 0062 02B0     		add	sp, sp, #8
 1404              		@ sp needed
 1405              	.LVL197:
 1406 0064 10BD     		pop	{r4, pc}
 1407              		.cfi_endproc
 1408              	.LFE203:
 1409              		.size	lv_colorwheel_set_hsv, .-lv_colorwheel_set_hsv
 1410 0066 C046     		.section	.text.double_click_reset,"ax",%progbits
 1411              		.align	2
 1412              		.code	16
 1413              		.thumb_func
 1414              		.type	double_click_reset, %function
 1415              	double_click_reset:
 1416              	.LFB219:
 568:..\..\..\arduinoLCD\test\Pain Drain\libraries\lvgl\src\extra\widgets\colorwheel/lv_colorwheel.c ****     lv_colorwheel_t * colorwheel = (lv_colorwheel_t *)obj;
 1417              		.loc 1 568 0
 1418              		.cfi_startproc
 1419              		@ args = 0, pretend = 0, frame = 8
 1420              		@ frame_needed = 0, uses_anonymous_args = 0
 1421              	.LVL198:
 1422 0000 30B5     		push	{r4, r5, lr}
 1423              		.cfi_def_cfa_offset 12
 1424              		.cfi_offset 4, -12
 1425              		.cfi_offset 5, -8
 1426              		.cfi_offset 14, -4
 1427 0002 83B0     		sub	sp, sp, #12
 1428              		.cfi_def_cfa_offset 24
 1429 0004 0400     		movs	r4, r0
 1430              	.LVL199:
 570:..\..\..\arduinoLCD\test\Pain Drain\libraries\lvgl\src\extra\widgets\colorwheel/lv_colorwheel.c ****     /*Double clicked? Use long press time as double click time out*/
 1431              		.loc 1 570 0
 1432 0006 FFF7FEFF 		bl	lv_indev_get_act
 1433              	.LVL200:
 1434 000a 0500     		movs	r5, r0
 1435              	.LVL201:
 572:..\..\..\arduinoLCD\test\Pain Drain\libraries\lvgl\src\extra\widgets\colorwheel/lv_colorwheel.c ****         lv_color_hsv_t hsv_cur;
 1436              		.loc 1 572 0
ARM GAS  C:\Users\haske\AppData\Local\Temp\ccIkbvey.s 			page 61


 1437 000c 206B     		ldr	r0, [r4, #48]
 1438              	.LVL202:
 1439 000e FFF7FEFF 		bl	lv_tick_elaps
 1440              	.LVL203:
 1441 0012 2B68     		ldr	r3, [r5]
 1442 0014 9B8B     		ldrh	r3, [r3, #28]
 1443 0016 9842     		cmp	r0, r3
 1444 0018 27D2     		bcs	.L54
 1445              	.LBB81:
 574:..\..\..\arduinoLCD\test\Pain Drain\libraries\lvgl\src\extra\widgets\colorwheel/lv_colorwheel.c **** 
 1446              		.loc 1 574 0
 1447 001a 636A     		ldr	r3, [r4, #36]
 1448 001c 0193     		str	r3, [sp, #4]
 576:..\..\..\arduinoLCD\test\Pain Drain\libraries\lvgl\src\extra\widgets\colorwheel/lv_colorwheel.c ****             case LV_COLORWHEEL_MODE_HUE:
 1449              		.loc 1 576 0
 1450 001e 3C23     		movs	r3, #60
 1451 0020 E35C     		ldrb	r3, [r4, r3]
 1452 0022 9B07     		lsls	r3, r3, #30
 1453 0024 9B0F     		lsrs	r3, r3, #30
 1454 0026 012B     		cmp	r3, #1
 1455 0028 08D0     		beq	.L56
 1456 002a 002B     		cmp	r3, #0
 1457 002c 02D0     		beq	.L57
 1458 002e 022B     		cmp	r3, #2
 1459 0030 08D0     		beq	.L58
 1460 0032 0AE0     		b	.L55
 1461              	.L57:
 578:..\..\..\arduinoLCD\test\Pain Drain\libraries\lvgl\src\extra\widgets\colorwheel/lv_colorwheel.c ****                 break;
 1462              		.loc 1 578 0
 1463 0034 0022     		movs	r2, #0
 1464 0036 01AB     		add	r3, sp, #4
 1465 0038 1A80     		strh	r2, [r3]
 579:..\..\..\arduinoLCD\test\Pain Drain\libraries\lvgl\src\extra\widgets\colorwheel/lv_colorwheel.c ****             case LV_COLORWHEEL_MODE_SATURATION:
 1466              		.loc 1 579 0
 1467 003a 06E0     		b	.L55
 1468              	.L56:
 581:..\..\..\arduinoLCD\test\Pain Drain\libraries\lvgl\src\extra\widgets\colorwheel/lv_colorwheel.c ****                 break;
 1469              		.loc 1 581 0
 1470 003c 6422     		movs	r2, #100
 1471 003e 01AB     		add	r3, sp, #4
 1472 0040 9A70     		strb	r2, [r3, #2]
 582:..\..\..\arduinoLCD\test\Pain Drain\libraries\lvgl\src\extra\widgets\colorwheel/lv_colorwheel.c ****             case LV_COLORWHEEL_MODE_VALUE:
 1473              		.loc 1 582 0
 1474 0042 02E0     		b	.L55
 1475              	.L58:
 584:..\..\..\arduinoLCD\test\Pain Drain\libraries\lvgl\src\extra\widgets\colorwheel/lv_colorwheel.c ****                 break;
 1476              		.loc 1 584 0
 1477 0044 6422     		movs	r2, #100
 1478 0046 01AB     		add	r3, sp, #4
 1479 0048 DA70     		strb	r2, [r3, #3]
 1480              	.L55:
 588:..\..\..\arduinoLCD\test\Pain Drain\libraries\lvgl\src\extra\widgets\colorwheel/lv_colorwheel.c **** 
 1481              		.loc 1 588 0
 1482 004a 2800     		movs	r0, r5
 1483 004c FFF7FEFF 		bl	lv_indev_wait_release
 1484              	.LVL204:
 590:..\..\..\arduinoLCD\test\Pain Drain\libraries\lvgl\src\extra\widgets\colorwheel/lv_colorwheel.c ****             lv_res_t res = lv_event_send(obj, LV_EVENT_VALUE_CHANGED, NULL);
ARM GAS  C:\Users\haske\AppData\Local\Temp\ccIkbvey.s 			page 62


 1485              		.loc 1 590 0
 1486 0050 0199     		ldr	r1, [sp, #4]
 1487 0052 2000     		movs	r0, r4
 1488 0054 FFF7FEFF 		bl	lv_colorwheel_set_hsv
 1489              	.LVL205:
 1490 0058 0028     		cmp	r0, #0
 1491 005a 06D0     		beq	.L54
 1492              	.LBB82:
 591:..\..\..\arduinoLCD\test\Pain Drain\libraries\lvgl\src\extra\widgets\colorwheel/lv_colorwheel.c ****             if(res != LV_RES_OK) return res;
 1493              		.loc 1 591 0
 1494 005c 0022     		movs	r2, #0
 1495 005e 1C21     		movs	r1, #28
 1496 0060 2000     		movs	r0, r4
 1497 0062 FFF7FEFF 		bl	lv_event_send
 1498              	.LVL206:
 592:..\..\..\arduinoLCD\test\Pain Drain\libraries\lvgl\src\extra\widgets\colorwheel/lv_colorwheel.c ****         }
 1499              		.loc 1 592 0
 1500 0066 0128     		cmp	r0, #1
 1501 0068 03D1     		bne	.L60
 1502              	.LVL207:
 1503              	.L54:
 1504              	.LBE82:
 1505              	.LBE81:
 595:..\..\..\arduinoLCD\test\Pain Drain\libraries\lvgl\src\extra\widgets\colorwheel/lv_colorwheel.c **** 
 1506              		.loc 1 595 0
 1507 006a FFF7FEFF 		bl	lv_tick_get
 1508              	.LVL208:
 1509 006e 2063     		str	r0, [r4, #48]
 597:..\..\..\arduinoLCD\test\Pain Drain\libraries\lvgl\src\extra\widgets\colorwheel/lv_colorwheel.c **** }
 1510              		.loc 1 597 0
 1511 0070 0120     		movs	r0, #1
 1512              	.L60:
 598:..\..\..\arduinoLCD\test\Pain Drain\libraries\lvgl\src\extra\widgets\colorwheel/lv_colorwheel.c **** 
 1513              		.loc 1 598 0
 1514 0072 03B0     		add	sp, sp, #12
 1515              		@ sp needed
 1516              	.LVL209:
 1517              	.LVL210:
 1518 0074 30BD     		pop	{r4, r5, pc}
 1519              		.cfi_endproc
 1520              	.LFE219:
 1521              		.size	double_click_reset, .-double_click_reset
 1522 0076 C046     		.section	.text.lv_colorwheel_set_rgb,"ax",%progbits
 1523              		.align	2
 1524              		.global	lv_colorwheel_set_rgb
 1525              		.code	16
 1526              		.thumb_func
 1527              		.type	lv_colorwheel_set_rgb, %function
 1528              	lv_colorwheel_set_rgb:
 1529              	.LFB204:
 124:..\..\..\arduinoLCD\test\Pain Drain\libraries\lvgl\src\extra\widgets\colorwheel/lv_colorwheel.c ****     lv_color32_t c32;
 1530              		.loc 1 124 0
 1531              		.cfi_startproc
 1532              		@ args = 0, pretend = 0, frame = 8
 1533              		@ frame_needed = 0, uses_anonymous_args = 0
 1534              	.LVL211:
 1535 0000 30B5     		push	{r4, r5, lr}
ARM GAS  C:\Users\haske\AppData\Local\Temp\ccIkbvey.s 			page 63


 1536              		.cfi_def_cfa_offset 12
 1537              		.cfi_offset 4, -12
 1538              		.cfi_offset 5, -8
 1539              		.cfi_offset 14, -4
 1540 0002 83B0     		sub	sp, sp, #12
 1541              		.cfi_def_cfa_offset 24
 1542 0004 0400     		movs	r4, r0
 1543              	.LBB83:
 1544              	.LBB84:
 420:c:\projects\paindrain\arduinolcd\test\pain drain\libraries\lvgl\src\misc\lv_color.h ****     LV_COLOR_SET_G32(ret, (LV_COLOR_GET_G(color) * 259 + 3) >> 6);
 1545              		.loc 2 420 0
 1546 0006 0A04     		lsls	r2, r1, #16
 1547 0008 D30E     		lsrs	r3, r2, #27
 1548 000a 5A01     		lsls	r2, r3, #5
 1549 000c D218     		adds	r2, r2, r3
 1550 000e D200     		lsls	r2, r2, #3
 1551 0010 D21A     		subs	r2, r2, r3
 1552 0012 0732     		adds	r2, r2, #7
 1553 0014 5211     		asrs	r2, r2, #5
 1554 0016 D2B2     		uxtb	r2, r2
 421:c:\projects\paindrain\arduinolcd\test\pain drain\libraries\lvgl\src\misc\lv_color.h ****     LV_COLOR_SET_B32(ret, (LV_COLOR_GET_B(color) * 263 + 7) >> 5);
 1555              		.loc 2 421 0
 1556 0018 4D05     		lsls	r5, r1, #21
 1557 001a AD0E     		lsrs	r5, r5, #26
 1558 001c E801     		lsls	r0, r5, #7
 1559              	.LVL212:
 1560 001e 4019     		adds	r0, r0, r5
 1561 0020 4000     		lsls	r0, r0, #1
 1562 0022 4019     		adds	r0, r0, r5
 1563 0024 0330     		adds	r0, r0, #3
 1564 0026 8011     		asrs	r0, r0, #6
 1565 0028 C0B2     		uxtb	r0, r0
 1566 002a 0002     		lsls	r0, r0, #8
 1567 002c 1204     		lsls	r2, r2, #16
 422:c:\projects\paindrain\arduinolcd\test\pain drain\libraries\lvgl\src\misc\lv_color.h ****     LV_COLOR_SET_A32(ret, 0xFF);
 1568              		.loc 2 422 0
 1569 002e C906     		lsls	r1, r1, #27
 1570              	.LVL213:
 1571 0030 C90E     		lsrs	r1, r1, #27
 1572 0032 4B01     		lsls	r3, r1, #5
 1573 0034 5B18     		adds	r3, r3, r1
 1574 0036 DB00     		lsls	r3, r3, #3
 1575 0038 5B1A     		subs	r3, r3, r1
 1576 003a 0733     		adds	r3, r3, #7
 1577 003c 5B11     		asrs	r3, r3, #5
 1578 003e DBB2     		uxtb	r3, r3
 1579 0040 1043     		orrs	r0, r2
 1580 0042 1843     		orrs	r0, r3
 1581              	.LVL214:
 423:c:\projects\paindrain\arduinolcd\test\pain drain\libraries\lvgl\src\misc\lv_color.h ****     return ret.full;
 1582              		.loc 2 423 0
 1583 0044 FF23     		movs	r3, #255
 1584 0046 1B06     		lsls	r3, r3, #24
 1585              	.LVL215:
 1586 0048 1843     		orrs	r0, r3
 1587              	.LVL216:
 1588              	.LBE84:
ARM GAS  C:\Users\haske\AppData\Local\Temp\ccIkbvey.s 			page 64


 1589              	.LBE83:
 128:..\..\..\arduinoLCD\test\Pain Drain\libraries\lvgl\src\extra\widgets\colorwheel/lv_colorwheel.c **** }
 1590              		.loc 1 128 0
 1591 004a C2B2     		uxtb	r2, r0
 1592              	.LVL217:
 1593 004c 0104     		lsls	r1, r0, #16
 1594 004e 090E     		lsrs	r1, r1, #24
 1595 0050 0002     		lsls	r0, r0, #8
 1596 0052 000E     		lsrs	r0, r0, #24
 1597 0054 FFF7FEFF 		bl	lv_color_rgb_to_hsv
 1598              	.LVL218:
 1599 0058 0100     		movs	r1, r0
 1600 005a 2000     		movs	r0, r4
 1601 005c FFF7FEFF 		bl	lv_colorwheel_set_hsv
 1602              	.LVL219:
 129:..\..\..\arduinoLCD\test\Pain Drain\libraries\lvgl\src\extra\widgets\colorwheel/lv_colorwheel.c **** 
 1603              		.loc 1 129 0
 1604 0060 03B0     		add	sp, sp, #12
 1605              		@ sp needed
 1606              	.LVL220:
 1607 0062 30BD     		pop	{r4, r5, pc}
 1608              		.cfi_endproc
 1609              	.LFE204:
 1610              		.size	lv_colorwheel_set_rgb, .-lv_colorwheel_set_rgb
 1611              		.section	.text.lv_colorwheel_set_mode,"ax",%progbits
 1612              		.align	2
 1613              		.global	lv_colorwheel_set_mode
 1614              		.code	16
 1615              		.thumb_func
 1616              		.type	lv_colorwheel_set_mode, %function
 1617              	lv_colorwheel_set_mode:
 1618              	.LFB205:
 137:..\..\..\arduinoLCD\test\Pain Drain\libraries\lvgl\src\extra\widgets\colorwheel/lv_colorwheel.c ****     LV_ASSERT_OBJ(obj, MY_CLASS);
 1619              		.loc 1 137 0
 1620              		.cfi_startproc
 1621              		@ args = 0, pretend = 0, frame = 0
 1622              		@ frame_needed = 0, uses_anonymous_args = 0
 1623              	.LVL221:
 1624 0000 10B5     		push	{r4, lr}
 1625              		.cfi_def_cfa_offset 8
 1626              		.cfi_offset 4, -8
 1627              		.cfi_offset 14, -4
 1628 0002 0400     		movs	r4, r0
 1629              	.LVL222:
 141:..\..\..\arduinoLCD\test\Pain Drain\libraries\lvgl\src\extra\widgets\colorwheel/lv_colorwheel.c ****     refr_knob_pos(obj);
 1630              		.loc 1 141 0
 1631 0004 3C22     		movs	r2, #60
 1632 0006 0323     		movs	r3, #3
 1633 0008 1940     		ands	r1, r3
 1634              	.LVL223:
 1635 000a 835C     		ldrb	r3, [r0, r2]
 1636 000c 0320     		movs	r0, #3
 1637              	.LVL224:
 1638 000e 8343     		bics	r3, r0
 1639 0010 1943     		orrs	r1, r3
 1640 0012 A154     		strb	r1, [r4, r2]
 142:..\..\..\arduinoLCD\test\Pain Drain\libraries\lvgl\src\extra\widgets\colorwheel/lv_colorwheel.c ****     lv_obj_invalidate(obj);
ARM GAS  C:\Users\haske\AppData\Local\Temp\ccIkbvey.s 			page 65


 1641              		.loc 1 142 0
 1642 0014 2000     		movs	r0, r4
 1643 0016 FFF7FEFF 		bl	refr_knob_pos
 1644              	.LVL225:
 143:..\..\..\arduinoLCD\test\Pain Drain\libraries\lvgl\src\extra\widgets\colorwheel/lv_colorwheel.c **** }
 1645              		.loc 1 143 0
 1646 001a 2000     		movs	r0, r4
 1647 001c FFF7FEFF 		bl	lv_obj_invalidate
 1648              	.LVL226:
 144:..\..\..\arduinoLCD\test\Pain Drain\libraries\lvgl\src\extra\widgets\colorwheel/lv_colorwheel.c **** 
 1649              		.loc 1 144 0
 1650              		@ sp needed
 1651              	.LVL227:
 1652 0020 10BD     		pop	{r4, pc}
 1653              		.cfi_endproc
 1654              	.LFE205:
 1655              		.size	lv_colorwheel_set_mode, .-lv_colorwheel_set_mode
 1656 0022 C046     		.section	.text.lv_colorwheel_set_mode_fixed,"ax",%progbits
 1657              		.align	2
 1658              		.global	lv_colorwheel_set_mode_fixed
 1659              		.code	16
 1660              		.thumb_func
 1661              		.type	lv_colorwheel_set_mode_fixed, %function
 1662              	lv_colorwheel_set_mode_fixed:
 1663              	.LFB206:
 152:..\..\..\arduinoLCD\test\Pain Drain\libraries\lvgl\src\extra\widgets\colorwheel/lv_colorwheel.c ****     LV_ASSERT_OBJ(obj, MY_CLASS);
 1664              		.loc 1 152 0
 1665              		.cfi_startproc
 1666              		@ args = 0, pretend = 0, frame = 0
 1667              		@ frame_needed = 0, uses_anonymous_args = 0
 1668              	.LVL228:
 1669 0000 10B5     		push	{r4, lr}
 1670              		.cfi_def_cfa_offset 8
 1671              		.cfi_offset 4, -8
 1672              		.cfi_offset 14, -4
 1673              	.LVL229:
 156:..\..\..\arduinoLCD\test\Pain Drain\libraries\lvgl\src\extra\widgets\colorwheel/lv_colorwheel.c **** }
 1674              		.loc 1 156 0
 1675 0002 3C22     		movs	r2, #60
 1676 0004 0123     		movs	r3, #1
 1677 0006 1940     		ands	r1, r3
 1678              	.LVL230:
 1679 0008 8B00     		lsls	r3, r1, #2
 1680 000a 815C     		ldrb	r1, [r0, r2]
 1681 000c 0424     		movs	r4, #4
 1682 000e A143     		bics	r1, r4
 1683 0010 1943     		orrs	r1, r3
 1684 0012 8154     		strb	r1, [r0, r2]
 157:..\..\..\arduinoLCD\test\Pain Drain\libraries\lvgl\src\extra\widgets\colorwheel/lv_colorwheel.c **** 
 1685              		.loc 1 157 0
 1686              		@ sp needed
 1687 0014 10BD     		pop	{r4, pc}
 1688              		.cfi_endproc
 1689              	.LFE206:
 1690              		.size	lv_colorwheel_set_mode_fixed, .-lv_colorwheel_set_mode_fixed
 1691 0016 C046     		.section	.text.lv_colorwheel_get_hsv,"ax",%progbits
 1692              		.align	2
ARM GAS  C:\Users\haske\AppData\Local\Temp\ccIkbvey.s 			page 66


 1693              		.global	lv_colorwheel_get_hsv
 1694              		.code	16
 1695              		.thumb_func
 1696              		.type	lv_colorwheel_get_hsv, %function
 1697              	lv_colorwheel_get_hsv:
 1698              	.LFB207:
 170:..\..\..\arduinoLCD\test\Pain Drain\libraries\lvgl\src\extra\widgets\colorwheel/lv_colorwheel.c ****     LV_ASSERT_OBJ(obj, MY_CLASS);
 1699              		.loc 1 170 0
 1700              		.cfi_startproc
 1701              		@ args = 0, pretend = 0, frame = 8
 1702              		@ frame_needed = 0, uses_anonymous_args = 0
 1703              		@ link register save eliminated.
 1704              	.LVL231:
 1705 0000 82B0     		sub	sp, sp, #8
 1706              		.cfi_def_cfa_offset 8
 1707              	.LVL232:
 174:..\..\..\arduinoLCD\test\Pain Drain\libraries\lvgl\src\extra\widgets\colorwheel/lv_colorwheel.c **** }
 1708              		.loc 1 174 0
 1709 0002 436A     		ldr	r3, [r0, #36]
 1710 0004 180C     		lsrs	r0, r3, #16
 1711              	.LVL233:
 1712 0006 0004     		lsls	r0, r0, #16
 1713 0008 1B04     		lsls	r3, r3, #16
 1714 000a 1B0C     		lsrs	r3, r3, #16
 1715 000c 1843     		orrs	r0, r3
 175:..\..\..\arduinoLCD\test\Pain Drain\libraries\lvgl\src\extra\widgets\colorwheel/lv_colorwheel.c **** 
 1716              		.loc 1 175 0
 1717 000e 02B0     		add	sp, sp, #8
 1718              		@ sp needed
 1719 0010 7047     		bx	lr
 1720              		.cfi_endproc
 1721              	.LFE207:
 1722              		.size	lv_colorwheel_get_hsv, .-lv_colorwheel_get_hsv
 1723 0012 C046     		.section	.text.lv_colorwheel_get_rgb,"ax",%progbits
 1724              		.align	2
 1725              		.global	lv_colorwheel_get_rgb
 1726              		.code	16
 1727              		.thumb_func
 1728              		.type	lv_colorwheel_get_rgb, %function
 1729              	lv_colorwheel_get_rgb:
 1730              	.LFB208:
 183:..\..\..\arduinoLCD\test\Pain Drain\libraries\lvgl\src\extra\widgets\colorwheel/lv_colorwheel.c ****     LV_ASSERT_OBJ(obj, MY_CLASS);
 1731              		.loc 1 183 0
 1732              		.cfi_startproc
 1733              		@ args = 0, pretend = 0, frame = 0
 1734              		@ frame_needed = 0, uses_anonymous_args = 0
 1735              	.LVL234:
 1736 0000 10B5     		push	{r4, lr}
 1737              		.cfi_def_cfa_offset 8
 1738              		.cfi_offset 4, -8
 1739              		.cfi_offset 14, -4
 1740              	.LVL235:
 187:..\..\..\arduinoLCD\test\Pain Drain\libraries\lvgl\src\extra\widgets\colorwheel/lv_colorwheel.c **** }
 1741              		.loc 1 187 0
 1742 0002 2723     		movs	r3, #39
 1743 0004 C25C     		ldrb	r2, [r0, r3]
 1744 0006 013B     		subs	r3, r3, #1
ARM GAS  C:\Users\haske\AppData\Local\Temp\ccIkbvey.s 			page 67


 1745 0008 C15C     		ldrb	r1, [r0, r3]
 1746 000a 808C     		ldrh	r0, [r0, #36]
 1747              	.LVL236:
 1748 000c FFF7FEFF 		bl	lv_color_hsv_to_rgb
 1749              	.LVL237:
 188:..\..\..\arduinoLCD\test\Pain Drain\libraries\lvgl\src\extra\widgets\colorwheel/lv_colorwheel.c **** 
 1750              		.loc 1 188 0
 1751              		@ sp needed
 1752 0010 10BD     		pop	{r4, pc}
 1753              		.cfi_endproc
 1754              	.LFE208:
 1755              		.size	lv_colorwheel_get_rgb, .-lv_colorwheel_get_rgb
 1756 0012 C046     		.section	.text.draw_knob,"ax",%progbits
 1757              		.align	2
 1758              		.code	16
 1759              		.thumb_func
 1760              		.type	draw_knob, %function
 1761              	draw_knob:
 1762              	.LFB213:
 307:..\..\..\arduinoLCD\test\Pain Drain\libraries\lvgl\src\extra\widgets\colorwheel/lv_colorwheel.c ****     lv_obj_t * obj = lv_event_get_target(e);
 1763              		.loc 1 307 0
 1764              		.cfi_startproc
 1765              		@ args = 0, pretend = 0, frame = 64
 1766              		@ frame_needed = 0, uses_anonymous_args = 0
 1767              	.LVL238:
 1768 0000 70B5     		push	{r4, r5, r6, lr}
 1769              		.cfi_def_cfa_offset 16
 1770              		.cfi_offset 4, -16
 1771              		.cfi_offset 5, -12
 1772              		.cfi_offset 6, -8
 1773              		.cfi_offset 14, -4
 1774 0002 90B0     		sub	sp, sp, #64
 1775              		.cfi_def_cfa_offset 80
 1776 0004 0500     		movs	r5, r0
 308:..\..\..\arduinoLCD\test\Pain Drain\libraries\lvgl\src\extra\widgets\colorwheel/lv_colorwheel.c ****     lv_draw_ctx_t * draw_ctx = lv_event_get_draw_ctx(e);
 1777              		.loc 1 308 0
 1778 0006 FFF7FEFF 		bl	lv_event_get_target
 1779              	.LVL239:
 1780 000a 0400     		movs	r4, r0
 1781              	.LVL240:
 309:..\..\..\arduinoLCD\test\Pain Drain\libraries\lvgl\src\extra\widgets\colorwheel/lv_colorwheel.c ****     lv_colorwheel_t * colorwheel = (lv_colorwheel_t *)obj;
 1782              		.loc 1 309 0
 1783 000c 2800     		movs	r0, r5
 1784              	.LVL241:
 1785 000e FFF7FEFF 		bl	lv_event_get_draw_ctx
 1786              	.LVL242:
 1787 0012 0600     		movs	r6, r0
 1788              	.LVL243:
 313:..\..\..\arduinoLCD\test\Pain Drain\libraries\lvgl\src\extra\widgets\colorwheel/lv_colorwheel.c ****     lv_obj_init_draw_rect_dsc(obj, LV_PART_KNOB, &cir_dsc);
 1789              		.loc 1 313 0
 1790 0014 02AD     		add	r5, sp, #8
 1791              	.LVL244:
 1792 0016 2800     		movs	r0, r5
 1793              	.LVL245:
 1794 0018 FFF7FEFF 		bl	lv_draw_rect_dsc_init
 1795              	.LVL246:
 314:..\..\..\arduinoLCD\test\Pain Drain\libraries\lvgl\src\extra\widgets\colorwheel/lv_colorwheel.c **** 
ARM GAS  C:\Users\haske\AppData\Local\Temp\ccIkbvey.s 			page 68


 1796              		.loc 1 314 0
 1797 001c 2A00     		movs	r2, r5
 1798 001e C021     		movs	r1, #192
 1799 0020 8902     		lsls	r1, r1, #10
 1800 0022 2000     		movs	r0, r4
 1801 0024 FFF7FEFF 		bl	lv_obj_init_draw_rect_dsc
 1802              	.LVL247:
 316:..\..\..\arduinoLCD\test\Pain Drain\libraries\lvgl\src\extra\widgets\colorwheel/lv_colorwheel.c **** 
 1803              		.loc 1 316 0
 1804 0028 0A4B     		ldr	r3, .L68
 1805 002a 2B80     		strh	r3, [r5]
 318:..\..\..\arduinoLCD\test\Pain Drain\libraries\lvgl\src\extra\widgets\colorwheel/lv_colorwheel.c ****         cir_dsc.bg_color = lv_colorwheel_get_rgb(obj);
 1806              		.loc 1 318 0
 1807 002c 2C23     		movs	r3, #44
 1808 002e E35C     		ldrb	r3, [r4, r3]
 1809 0030 DB07     		lsls	r3, r3, #31
 1810 0032 04D5     		bpl	.L67
 319:..\..\..\arduinoLCD\test\Pain Drain\libraries\lvgl\src\extra\widgets\colorwheel/lv_colorwheel.c ****     }
 1811              		.loc 1 319 0
 1812 0034 2000     		movs	r0, r4
 1813 0036 FFF7FEFF 		bl	lv_colorwheel_get_rgb
 1814              	.LVL248:
 1815 003a 02AB     		add	r3, sp, #8
 1816 003c 9880     		strh	r0, [r3, #4]
 1817              	.L67:
 322:..\..\..\arduinoLCD\test\Pain Drain\libraries\lvgl\src\extra\widgets\colorwheel/lv_colorwheel.c **** 
 1818              		.loc 1 322 0
 1819 003e 2100     		movs	r1, r4
 1820 0040 6846     		mov	r0, sp
 1821 0042 FFF7FEFF 		bl	get_knob_area
 1822              	.LVL249:
 324:..\..\..\arduinoLCD\test\Pain Drain\libraries\lvgl\src\extra\widgets\colorwheel/lv_colorwheel.c **** }
 1823              		.loc 1 324 0
 1824 0046 6A46     		mov	r2, sp
 1825 0048 02A9     		add	r1, sp, #8
 1826 004a 3000     		movs	r0, r6
 1827 004c FFF7FEFF 		bl	lv_draw_rect
 1828              	.LVL250:
 325:..\..\..\arduinoLCD\test\Pain Drain\libraries\lvgl\src\extra\widgets\colorwheel/lv_colorwheel.c **** 
 1829              		.loc 1 325 0
 1830 0050 10B0     		add	sp, sp, #64
 1831              		@ sp needed
 1832              	.LVL251:
 1833              	.LVL252:
 1834 0052 70BD     		pop	{r4, r5, r6, pc}
 1835              	.L69:
 1836              		.align	2
 1837              	.L68:
 1838 0054 FF7F0000 		.word	32767
 1839              		.cfi_endproc
 1840              	.LFE213:
 1841              		.size	draw_knob, .-draw_knob
 1842              		.section	.text.lv_colorwheel_event,"ax",%progbits
 1843              		.align	2
 1844              		.code	16
 1845              		.thumb_func
 1846              		.type	lv_colorwheel_event, %function
ARM GAS  C:\Users\haske\AppData\Local\Temp\ccIkbvey.s 			page 69


 1847              	lv_colorwheel_event:
 1848              	.LFB216:
 357:..\..\..\arduinoLCD\test\Pain Drain\libraries\lvgl\src\extra\widgets\colorwheel/lv_colorwheel.c ****     LV_UNUSED(class_p);
 1849              		.loc 1 357 0
 1850              		.cfi_startproc
 1851              		@ args = 0, pretend = 0, frame = 8
 1852              		@ frame_needed = 0, uses_anonymous_args = 0
 1853              	.LVL253:
 1854 0000 F0B5     		push	{r4, r5, r6, r7, lr}
 1855              		.cfi_def_cfa_offset 20
 1856              		.cfi_offset 4, -20
 1857              		.cfi_offset 5, -16
 1858              		.cfi_offset 6, -12
 1859              		.cfi_offset 7, -8
 1860              		.cfi_offset 14, -4
 1861 0002 4F46     		mov	r7, r9
 1862 0004 80B4     		push	{r7}
 1863              		.cfi_def_cfa_offset 24
 1864              		.cfi_offset 9, -24
 1865 0006 82B0     		sub	sp, sp, #8
 1866              		.cfi_def_cfa_offset 32
 1867 0008 0C00     		movs	r4, r1
 361:..\..\..\arduinoLCD\test\Pain Drain\libraries\lvgl\src\extra\widgets\colorwheel/lv_colorwheel.c **** 
 1868              		.loc 1 361 0
 1869 000a CB48     		ldr	r0, .L122
 1870              	.LVL254:
 1871 000c FFF7FEFF 		bl	lv_obj_event_base
 1872              	.LVL255:
 363:..\..\..\arduinoLCD\test\Pain Drain\libraries\lvgl\src\extra\widgets\colorwheel/lv_colorwheel.c **** 
 1873              		.loc 1 363 0
 1874 0010 0128     		cmp	r0, #1
 1875 0012 00D0     		beq	.LCB1874
 1876 0014 F0E1     		b	.L70	@long jump
 1877              	.LCB1874:
 365:..\..\..\arduinoLCD\test\Pain Drain\libraries\lvgl\src\extra\widgets\colorwheel/lv_colorwheel.c ****     lv_obj_t * obj = lv_event_get_target(e);
 1878              		.loc 1 365 0
 1879 0016 2000     		movs	r0, r4
 1880              	.LVL256:
 1881 0018 FFF7FEFF 		bl	lv_event_get_code
 1882              	.LVL257:
 1883 001c 0500     		movs	r5, r0
 1884              	.LVL258:
 366:..\..\..\arduinoLCD\test\Pain Drain\libraries\lvgl\src\extra\widgets\colorwheel/lv_colorwheel.c ****     lv_colorwheel_t * colorwheel = (lv_colorwheel_t *)obj;
 1885              		.loc 1 366 0
 1886 001e 2000     		movs	r0, r4
 1887              	.LVL259:
 1888 0020 FFF7FEFF 		bl	lv_event_get_target
 1889              	.LVL260:
 1890 0024 0600     		movs	r6, r0
 1891              	.LVL261:
 369:..\..\..\arduinoLCD\test\Pain Drain\libraries\lvgl\src\extra\widgets\colorwheel/lv_colorwheel.c ****         lv_coord_t left = lv_obj_get_style_pad_left(obj, LV_PART_KNOB);
 1892              		.loc 1 369 0
 1893 0026 132D     		cmp	r5, #19
 1894 0028 36D1     		bne	.L72
 1895              	.LVL262:
 1896              	.LBB85:
 1897              	.LBB86:
ARM GAS  C:\Users\haske\AppData\Local\Temp\ccIkbvey.s 			page 70


 1898              	.LBB87:
 117:c:\projects\paindrain\arduinolcd\test\pain drain\libraries\lvgl\src/core\lv_obj_style_gen.h ****     return (lv_coord_t)v.num;
 1899              		.loc 3 117 0
 1900 002a 1222     		movs	r2, #18
 1901 002c C021     		movs	r1, #192
 1902 002e 8902     		lsls	r1, r1, #10
 1903 0030 FFF7FEFF 		bl	lv_obj_get_style_prop
 1904              	.LVL263:
 118:c:\projects\paindrain\arduinolcd\test\pain drain\libraries\lvgl\src/core\lv_obj_style_gen.h **** }
 1905              		.loc 3 118 0
 1906 0034 07B2     		sxth	r7, r0
 1907              	.LVL264:
 1908              	.LBE87:
 1909              	.LBE86:
 1910              	.LBB88:
 1911              	.LBB89:
 123:c:\projects\paindrain\arduinolcd\test\pain drain\libraries\lvgl\src/core\lv_obj_style_gen.h ****     return (lv_coord_t)v.num;
 1912              		.loc 3 123 0
 1913 0036 1322     		movs	r2, #19
 1914 0038 C021     		movs	r1, #192
 1915 003a 8902     		lsls	r1, r1, #10
 1916 003c 3000     		movs	r0, r6
 1917 003e FFF7FEFF 		bl	lv_obj_get_style_prop
 1918              	.LVL265:
 124:c:\projects\paindrain\arduinolcd\test\pain drain\libraries\lvgl\src/core\lv_obj_style_gen.h **** }
 1919              		.loc 3 124 0
 1920 0042 05B2     		sxth	r5, r0
 1921              	.LVL266:
 1922              	.LBE89:
 1923              	.LBE88:
 1924              	.LBB90:
 1925              	.LBB91:
 105:c:\projects\paindrain\arduinolcd\test\pain drain\libraries\lvgl\src/core\lv_obj_style_gen.h ****     return (lv_coord_t)v.num;
 1926              		.loc 3 105 0
 1927 0044 1022     		movs	r2, #16
 1928 0046 C021     		movs	r1, #192
 1929 0048 8902     		lsls	r1, r1, #10
 1930 004a 3000     		movs	r0, r6
 1931 004c FFF7FEFF 		bl	lv_obj_get_style_prop
 1932              	.LVL267:
 106:c:\projects\paindrain\arduinolcd\test\pain drain\libraries\lvgl\src/core\lv_obj_style_gen.h **** }
 1933              		.loc 3 106 0
 1934 0050 03B2     		sxth	r3, r0
 1935 0052 9946     		mov	r9, r3
 1936              	.LVL268:
 1937              	.LBE91:
 1938              	.LBE90:
 1939              	.LBB92:
 1940              	.LBB93:
 111:c:\projects\paindrain\arduinolcd\test\pain drain\libraries\lvgl\src/core\lv_obj_style_gen.h ****     return (lv_coord_t)v.num;
 1941              		.loc 3 111 0
 1942 0054 1122     		movs	r2, #17
 1943 0056 C021     		movs	r1, #192
 1944 0058 8902     		lsls	r1, r1, #10
 1945 005a 3000     		movs	r0, r6
 1946 005c FFF7FEFF 		bl	lv_obj_get_style_prop
 1947              	.LVL269:
ARM GAS  C:\Users\haske\AppData\Local\Temp\ccIkbvey.s 			page 71


 112:c:\projects\paindrain\arduinolcd\test\pain drain\libraries\lvgl\src/core\lv_obj_style_gen.h **** }
 1948              		.loc 3 112 0
 1949 0060 00B2     		sxth	r0, r0
 1950              	.LVL270:
 1951              	.LBE93:
 1952              	.LBE92:
 375:..\..\..\arduinoLCD\test\Pain Drain\libraries\lvgl\src\extra\widgets\colorwheel/lv_colorwheel.c ****         lv_coord_t * s = lv_event_get_param(e);
 1953              		.loc 1 375 0
 1954 0062 031C     		adds	r3, r0, #0
 1955 0064 4845     		cmp	r0, r9
 1956 0066 00DA     		bge	.L73
 1957 0068 4B46     		mov	r3, r9
 1958              	.L73:
 1959 006a 1BB2     		sxth	r3, r3
 1960 006c 2A1C     		adds	r2, r5, #0
 1961 006e BD42     		cmp	r5, r7
 1962 0070 00DA     		bge	.L74
 1963 0072 3A1C     		adds	r2, r7, #0
 1964              	.L74:
 1965 0074 1D1C     		adds	r5, r3, #0
 1966 0076 11B2     		sxth	r1, r2
 1967 0078 8B42     		cmp	r3, r1
 1968 007a 00DA     		bge	.L75
 1969 007c 151C     		adds	r5, r2, #0
 1970              	.L75:
 1971 007e 0235     		adds	r5, r5, #2
 1972 0080 2DB2     		sxth	r5, r5
 1973              	.LVL271:
 376:..\..\..\arduinoLCD\test\Pain Drain\libraries\lvgl\src\extra\widgets\colorwheel/lv_colorwheel.c ****         *s = LV_MAX(*s, knob_pad);
 1974              		.loc 1 376 0
 1975 0082 2000     		movs	r0, r4
 1976 0084 FFF7FEFF 		bl	lv_event_get_param
 1977              	.LVL272:
 377:..\..\..\arduinoLCD\test\Pain Drain\libraries\lvgl\src\extra\widgets\colorwheel/lv_colorwheel.c ****     }
 1978              		.loc 1 377 0
 1979 0088 0023     		movs	r3, #0
 1980 008a C25E     		ldrsh	r2, [r0, r3]
 1981 008c 2B1C     		adds	r3, r5, #0
 1982 008e 9542     		cmp	r5, r2
 1983 0090 00DA     		bge	.L76
 1984 0092 131C     		adds	r3, r2, #0
 1985              	.L76:
 1986 0094 0380     		strh	r3, [r0]
 1987              	.LBE85:
 1988 0096 AFE1     		b	.L70
 1989              	.LVL273:
 1990              	.L72:
 379:..\..\..\arduinoLCD\test\Pain Drain\libraries\lvgl\src\extra\widgets\colorwheel/lv_colorwheel.c ****         void * param = lv_event_get_param(e);
 1991              		.loc 1 379 0
 1992 0098 292D     		cmp	r5, #41
 1993 009a 20D1     		bne	.L77
 1994              	.LBB94:
 380:..\..\..\arduinoLCD\test\Pain Drain\libraries\lvgl\src\extra\widgets\colorwheel/lv_colorwheel.c ****         /*Refresh extended draw area to make knob visible*/
 1995              		.loc 1 380 0
 1996 009c 2000     		movs	r0, r4
 1997              	.LVL274:
 1998 009e FFF7FEFF 		bl	lv_event_get_param
ARM GAS  C:\Users\haske\AppData\Local\Temp\ccIkbvey.s 			page 72


 1999              	.LVL275:
 2000 00a2 0400     		movs	r4, r0
 2001              	.LVL276:
 382:..\..\..\arduinoLCD\test\Pain Drain\libraries\lvgl\src\extra\widgets\colorwheel/lv_colorwheel.c ****            lv_obj_get_height(obj) != lv_area_get_height(param)) {
 2002              		.loc 1 382 0
 2003 00a4 3000     		movs	r0, r6
 2004              	.LVL277:
 2005 00a6 FFF7FEFF 		bl	lv_obj_get_width
 2006              	.LVL278:
 2007              	.LBB95:
 2008              	.LBB96:
 116:c:\projects\paindrain\arduinolcd\test\pain drain\libraries\lvgl\src\misc\lv_area.h **** }
 117:c:\projects\paindrain\arduinolcd\test\pain drain\libraries\lvgl\src\misc\lv_area.h **** 
 118:c:\projects\paindrain\arduinolcd\test\pain drain\libraries\lvgl\src\misc\lv_area.h **** /**
 119:c:\projects\paindrain\arduinolcd\test\pain drain\libraries\lvgl\src\misc\lv_area.h ****  * Get the width of an area
 120:c:\projects\paindrain\arduinolcd\test\pain drain\libraries\lvgl\src\misc\lv_area.h ****  * @param area_p pointer to an area
 121:c:\projects\paindrain\arduinolcd\test\pain drain\libraries\lvgl\src\misc\lv_area.h ****  * @return the width of the area (if x1 == x2 -> width = 1)
 122:c:\projects\paindrain\arduinolcd\test\pain drain\libraries\lvgl\src\misc\lv_area.h ****  */
 123:c:\projects\paindrain\arduinolcd\test\pain drain\libraries\lvgl\src\misc\lv_area.h **** static inline lv_coord_t lv_area_get_width(const lv_area_t * area_p)
 124:c:\projects\paindrain\arduinolcd\test\pain drain\libraries\lvgl\src\misc\lv_area.h **** {
 125:c:\projects\paindrain\arduinolcd\test\pain drain\libraries\lvgl\src\misc\lv_area.h ****     return (lv_coord_t)(area_p->x2 - area_p->x1 + 1);
 2009              		.loc 5 125 0
 2010 00aa 0422     		movs	r2, #4
 2011 00ac A35E     		ldrsh	r3, [r4, r2]
 2012 00ae 0021     		movs	r1, #0
 2013 00b0 625E     		ldrsh	r2, [r4, r1]
 2014 00b2 9B1A     		subs	r3, r3, r2
 2015 00b4 0133     		adds	r3, r3, #1
 2016 00b6 1BB2     		sxth	r3, r3
 2017              	.LVL279:
 2018              	.LBE96:
 2019              	.LBE95:
 382:..\..\..\arduinoLCD\test\Pain Drain\libraries\lvgl\src\extra\widgets\colorwheel/lv_colorwheel.c ****            lv_obj_get_height(obj) != lv_area_get_height(param)) {
 2020              		.loc 1 382 0
 2021 00b8 9842     		cmp	r0, r3
 2022 00ba 0CD1     		bne	.L78
 383:..\..\..\arduinoLCD\test\Pain Drain\libraries\lvgl\src\extra\widgets\colorwheel/lv_colorwheel.c ****             refr_knob_pos(obj);
 2023              		.loc 1 383 0 discriminator 1
 2024 00bc 3000     		movs	r0, r6
 2025 00be FFF7FEFF 		bl	lv_obj_get_height
 2026              	.LVL280:
 2027              	.LBB97:
 2028              	.LBB98:
 126:c:\projects\paindrain\arduinolcd\test\pain drain\libraries\lvgl\src\misc\lv_area.h **** }
 127:c:\projects\paindrain\arduinolcd\test\pain drain\libraries\lvgl\src\misc\lv_area.h **** 
 128:c:\projects\paindrain\arduinolcd\test\pain drain\libraries\lvgl\src\misc\lv_area.h **** /**
 129:c:\projects\paindrain\arduinolcd\test\pain drain\libraries\lvgl\src\misc\lv_area.h ****  * Get the height of an area
 130:c:\projects\paindrain\arduinolcd\test\pain drain\libraries\lvgl\src\misc\lv_area.h ****  * @param area_p pointer to an area
 131:c:\projects\paindrain\arduinolcd\test\pain drain\libraries\lvgl\src\misc\lv_area.h ****  * @return the height of the area (if y1 == y2 -> height = 1)
 132:c:\projects\paindrain\arduinolcd\test\pain drain\libraries\lvgl\src\misc\lv_area.h ****  */
 133:c:\projects\paindrain\arduinolcd\test\pain drain\libraries\lvgl\src\misc\lv_area.h **** static inline lv_coord_t lv_area_get_height(const lv_area_t * area_p)
 134:c:\projects\paindrain\arduinolcd\test\pain drain\libraries\lvgl\src\misc\lv_area.h **** {
 135:c:\projects\paindrain\arduinolcd\test\pain drain\libraries\lvgl\src\misc\lv_area.h ****     return (lv_coord_t)(area_p->y2 - area_p->y1 + 1);
 2029              		.loc 5 135 0 discriminator 1
 2030 00c2 0622     		movs	r2, #6
 2031 00c4 A35E     		ldrsh	r3, [r4, r2]
 2032 00c6 0221     		movs	r1, #2
ARM GAS  C:\Users\haske\AppData\Local\Temp\ccIkbvey.s 			page 73


 2033 00c8 625E     		ldrsh	r2, [r4, r1]
 2034 00ca 9B1A     		subs	r3, r3, r2
 2035 00cc 0133     		adds	r3, r3, #1
 2036 00ce 1BB2     		sxth	r3, r3
 2037              	.LVL281:
 2038              	.LBE98:
 2039              	.LBE97:
 382:..\..\..\arduinoLCD\test\Pain Drain\libraries\lvgl\src\extra\widgets\colorwheel/lv_colorwheel.c ****            lv_obj_get_height(obj) != lv_area_get_height(param)) {
 2040              		.loc 1 382 0 discriminator 1
 2041 00d0 9842     		cmp	r0, r3
 2042 00d2 00D1     		bne	.LCB2060
 2043 00d4 90E1     		b	.L70	@long jump
 2044              	.LCB2060:
 2045              	.L78:
 384:..\..\..\arduinoLCD\test\Pain Drain\libraries\lvgl\src\extra\widgets\colorwheel/lv_colorwheel.c ****         }
 2046              		.loc 1 384 0
 2047 00d6 3000     		movs	r0, r6
 2048 00d8 FFF7FEFF 		bl	refr_knob_pos
 2049              	.LVL282:
 2050 00dc 8CE1     		b	.L70
 2051              	.LVL283:
 2052              	.L77:
 2053              	.LBE94:
 387:..\..\..\arduinoLCD\test\Pain Drain\libraries\lvgl\src\extra\widgets\colorwheel/lv_colorwheel.c ****         /*Refresh extended draw area to make knob visible*/
 2054              		.loc 1 387 0
 2055 00de 2A2D     		cmp	r5, #42
 2056 00e0 02D1     		bne	.L79
 389:..\..\..\arduinoLCD\test\Pain Drain\libraries\lvgl\src\extra\widgets\colorwheel/lv_colorwheel.c ****     }
 2057              		.loc 1 389 0
 2058 00e2 FFF7FEFF 		bl	refr_knob_pos
 2059              	.LVL284:
 2060 00e6 87E1     		b	.L70
 2061              	.LVL285:
 2062              	.L79:
 391:..\..\..\arduinoLCD\test\Pain Drain\libraries\lvgl\src\extra\widgets\colorwheel/lv_colorwheel.c ****         uint32_t c = *((uint32_t *)lv_event_get_param(e)); /*uint32_t because can be UTF-8*/
 2063              		.loc 1 391 0
 2064 00e8 0D2D     		cmp	r5, #13
 2065 00ea 7AD1     		bne	.L80
 2066              	.LBB99:
 392:..\..\..\arduinoLCD\test\Pain Drain\libraries\lvgl\src\extra\widgets\colorwheel/lv_colorwheel.c **** 
 2067              		.loc 1 392 0
 2068 00ec 2000     		movs	r0, r4
 2069              	.LVL286:
 2070 00ee FFF7FEFF 		bl	lv_event_get_param
 2071              	.LVL287:
 2072 00f2 0368     		ldr	r3, [r0]
 2073              	.LVL288:
 394:..\..\..\arduinoLCD\test\Pain Drain\libraries\lvgl\src\extra\widgets\colorwheel/lv_colorwheel.c ****             lv_color_hsv_t hsv_cur;
 2074              		.loc 1 394 0
 2075 00f4 132B     		cmp	r3, #19
 2076 00f6 01D0     		beq	.L81
 394:..\..\..\arduinoLCD\test\Pain Drain\libraries\lvgl\src\extra\widgets\colorwheel/lv_colorwheel.c ****             lv_color_hsv_t hsv_cur;
 2077              		.loc 1 394 0 is_stmt 0 discriminator 1
 2078 00f8 112B     		cmp	r3, #17
 2079 00fa 33D1     		bne	.L82
 2080              	.L81:
 2081              	.LBB100:
ARM GAS  C:\Users\haske\AppData\Local\Temp\ccIkbvey.s 			page 74


 396:..\..\..\arduinoLCD\test\Pain Drain\libraries\lvgl\src\extra\widgets\colorwheel/lv_colorwheel.c **** 
 2082              		.loc 1 396 0 is_stmt 1
 2083 00fc 736A     		ldr	r3, [r6, #36]
 2084              	.LVL289:
 2085 00fe 0193     		str	r3, [sp, #4]
 2086              	.LVL290:
 398:..\..\..\arduinoLCD\test\Pain Drain\libraries\lvgl\src\extra\widgets\colorwheel/lv_colorwheel.c ****                 case LV_COLORWHEEL_MODE_HUE:
 2087              		.loc 1 398 0
 2088 0100 3C23     		movs	r3, #60
 2089 0102 F35C     		ldrb	r3, [r6, r3]
 2090 0104 9B07     		lsls	r3, r3, #30
 2091 0106 9B0F     		lsrs	r3, r3, #30
 2092 0108 012B     		cmp	r3, #1
 2093 010a 0DD0     		beq	.L84
 2094 010c 002B     		cmp	r3, #0
 2095 010e 02D0     		beq	.L85
 2096 0110 022B     		cmp	r3, #2
 2097 0112 12D0     		beq	.L86
 2098 0114 19E0     		b	.L83
 2099              	.L85:
 400:..\..\..\arduinoLCD\test\Pain Drain\libraries\lvgl\src\extra\widgets\colorwheel/lv_colorwheel.c ****                     break;
 2100              		.loc 1 400 0
 2101 0116 B08C     		ldrh	r0, [r6, #36]
 2102 0118 0130     		adds	r0, r0, #1
 2103 011a B421     		movs	r1, #180
 2104 011c 4900     		lsls	r1, r1, #1
 2105 011e FFF7FEFF 		bl	__aeabi_idivmod
 2106              	.LVL291:
 2107 0122 01AB     		add	r3, sp, #4
 2108 0124 1980     		strh	r1, [r3]
 401:..\..\..\arduinoLCD\test\Pain Drain\libraries\lvgl\src\extra\widgets\colorwheel/lv_colorwheel.c ****                 case LV_COLORWHEEL_MODE_SATURATION:
 2109              		.loc 1 401 0
 2110 0126 10E0     		b	.L83
 2111              	.L84:
 403:..\..\..\arduinoLCD\test\Pain Drain\libraries\lvgl\src\extra\widgets\colorwheel/lv_colorwheel.c ****                     break;
 2112              		.loc 1 403 0
 2113 0128 2623     		movs	r3, #38
 2114 012a F05C     		ldrb	r0, [r6, r3]
 2115 012c 0130     		adds	r0, r0, #1
 2116 012e 6421     		movs	r1, #100
 2117 0130 FFF7FEFF 		bl	__aeabi_idivmod
 2118              	.LVL292:
 2119 0134 01AB     		add	r3, sp, #4
 2120 0136 9970     		strb	r1, [r3, #2]
 404:..\..\..\arduinoLCD\test\Pain Drain\libraries\lvgl\src\extra\widgets\colorwheel/lv_colorwheel.c ****                 case LV_COLORWHEEL_MODE_VALUE:
 2121              		.loc 1 404 0
 2122 0138 07E0     		b	.L83
 2123              	.L86:
 406:..\..\..\arduinoLCD\test\Pain Drain\libraries\lvgl\src\extra\widgets\colorwheel/lv_colorwheel.c ****                     break;
 2124              		.loc 1 406 0
 2125 013a 2723     		movs	r3, #39
 2126 013c F05C     		ldrb	r0, [r6, r3]
 2127 013e 0130     		adds	r0, r0, #1
 2128 0140 6421     		movs	r1, #100
 2129 0142 FFF7FEFF 		bl	__aeabi_idivmod
 2130              	.LVL293:
 2131 0146 01AB     		add	r3, sp, #4
ARM GAS  C:\Users\haske\AppData\Local\Temp\ccIkbvey.s 			page 75


 2132 0148 D970     		strb	r1, [r3, #3]
 2133              	.L83:
 410:..\..\..\arduinoLCD\test\Pain Drain\libraries\lvgl\src\extra\widgets\colorwheel/lv_colorwheel.c ****                 res = lv_event_send(obj, LV_EVENT_VALUE_CHANGED, NULL);
 2134              		.loc 1 410 0
 2135 014a 0199     		ldr	r1, [sp, #4]
 2136 014c 3000     		movs	r0, r6
 2137 014e FFF7FEFF 		bl	lv_colorwheel_set_hsv
 2138              	.LVL294:
 2139 0152 0028     		cmp	r0, #0
 2140 0154 00D1     		bne	.LCB2167
 2141 0156 4FE1     		b	.L70	@long jump
 2142              	.LCB2167:
 411:..\..\..\arduinoLCD\test\Pain Drain\libraries\lvgl\src\extra\widgets\colorwheel/lv_colorwheel.c ****                 if(res != LV_RES_OK) return;
 2143              		.loc 1 411 0
 2144 0158 0022     		movs	r2, #0
 2145 015a 1C21     		movs	r1, #28
 2146 015c 3000     		movs	r0, r6
 2147 015e FFF7FEFF 		bl	lv_event_send
 2148              	.LVL295:
 2149 0162 49E1     		b	.L70
 2150              	.LVL296:
 2151              	.L82:
 2152              	.LBE100:
 415:..\..\..\arduinoLCD\test\Pain Drain\libraries\lvgl\src\extra\widgets\colorwheel/lv_colorwheel.c ****             lv_color_hsv_t hsv_cur;
 2153              		.loc 1 415 0
 2154 0164 142B     		cmp	r3, #20
 2155 0166 02D0     		beq	.L89
 415:..\..\..\arduinoLCD\test\Pain Drain\libraries\lvgl\src\extra\widgets\colorwheel/lv_colorwheel.c ****             lv_color_hsv_t hsv_cur;
 2156              		.loc 1 415 0 is_stmt 0 discriminator 1
 2157 0168 122B     		cmp	r3, #18
 2158 016a 00D0     		beq	.LCB2186
 2159 016c 44E1     		b	.L70	@long jump
 2160              	.LCB2186:
 2161              	.L89:
 2162              	.LBB101:
 417:..\..\..\arduinoLCD\test\Pain Drain\libraries\lvgl\src\extra\widgets\colorwheel/lv_colorwheel.c **** 
 2163              		.loc 1 417 0 is_stmt 1
 2164 016e 736A     		ldr	r3, [r6, #36]
 2165              	.LVL297:
 2166 0170 0193     		str	r3, [sp, #4]
 2167              	.LVL298:
 419:..\..\..\arduinoLCD\test\Pain Drain\libraries\lvgl\src\extra\widgets\colorwheel/lv_colorwheel.c ****                 case LV_COLORWHEEL_MODE_HUE:
 2168              		.loc 1 419 0
 2169 0172 3C23     		movs	r3, #60
 2170 0174 F35C     		ldrb	r3, [r6, r3]
 2171 0176 9B07     		lsls	r3, r3, #30
 2172 0178 9B0F     		lsrs	r3, r3, #30
 2173 017a 012B     		cmp	r3, #1
 2174 017c 0FD0     		beq	.L91
 2175 017e 002B     		cmp	r3, #0
 2176 0180 02D0     		beq	.L92
 2177 0182 022B     		cmp	r3, #2
 2178 0184 16D0     		beq	.L93
 2179 0186 1FE0     		b	.L90
 2180              	.L92:
 421:..\..\..\arduinoLCD\test\Pain Drain\libraries\lvgl\src\extra\widgets\colorwheel/lv_colorwheel.c ****                     break;
 2181              		.loc 1 421 0
ARM GAS  C:\Users\haske\AppData\Local\Temp\ccIkbvey.s 			page 76


 2182 0188 B38C     		ldrh	r3, [r6, #36]
 2183 018a 002B     		cmp	r3, #0
 2184 018c 02D0     		beq	.L117
 421:..\..\..\arduinoLCD\test\Pain Drain\libraries\lvgl\src\extra\widgets\colorwheel/lv_colorwheel.c ****                     break;
 2185              		.loc 1 421 0 is_stmt 0 discriminator 1
 2186 018e 013B     		subs	r3, r3, #1
 2187 0190 9BB2     		uxth	r3, r3
 2188 0192 01E0     		b	.L94
 2189              	.L117:
 421:..\..\..\arduinoLCD\test\Pain Drain\libraries\lvgl\src\extra\widgets\colorwheel/lv_colorwheel.c ****                     break;
 2190              		.loc 1 421 0
 2191 0194 B423     		movs	r3, #180
 2192 0196 5B00     		lsls	r3, r3, #1
 2193              	.L94:
 421:..\..\..\arduinoLCD\test\Pain Drain\libraries\lvgl\src\extra\widgets\colorwheel/lv_colorwheel.c ****                     break;
 2194              		.loc 1 421 0 discriminator 4
 2195 0198 01AA     		add	r2, sp, #4
 2196 019a 1380     		strh	r3, [r2]
 422:..\..\..\arduinoLCD\test\Pain Drain\libraries\lvgl\src\extra\widgets\colorwheel/lv_colorwheel.c ****                 case LV_COLORWHEEL_MODE_SATURATION:
 2197              		.loc 1 422 0 is_stmt 1 discriminator 4
 2198 019c 14E0     		b	.L90
 2199              	.L91:
 424:..\..\..\arduinoLCD\test\Pain Drain\libraries\lvgl\src\extra\widgets\colorwheel/lv_colorwheel.c ****                     break;
 2200              		.loc 1 424 0
 2201 019e 2623     		movs	r3, #38
 2202 01a0 F35C     		ldrb	r3, [r6, r3]
 2203 01a2 002B     		cmp	r3, #0
 2204 01a4 02D0     		beq	.L118
 424:..\..\..\arduinoLCD\test\Pain Drain\libraries\lvgl\src\extra\widgets\colorwheel/lv_colorwheel.c ****                     break;
 2205              		.loc 1 424 0 is_stmt 0 discriminator 1
 2206 01a6 013B     		subs	r3, r3, #1
 2207 01a8 DBB2     		uxtb	r3, r3
 2208 01aa 00E0     		b	.L95
 2209              	.L118:
 424:..\..\..\arduinoLCD\test\Pain Drain\libraries\lvgl\src\extra\widgets\colorwheel/lv_colorwheel.c ****                     break;
 2210              		.loc 1 424 0
 2211 01ac 6423     		movs	r3, #100
 2212              	.L95:
 424:..\..\..\arduinoLCD\test\Pain Drain\libraries\lvgl\src\extra\widgets\colorwheel/lv_colorwheel.c ****                     break;
 2213              		.loc 1 424 0 discriminator 4
 2214 01ae 01AA     		add	r2, sp, #4
 2215 01b0 9370     		strb	r3, [r2, #2]
 425:..\..\..\arduinoLCD\test\Pain Drain\libraries\lvgl\src\extra\widgets\colorwheel/lv_colorwheel.c ****                 case LV_COLORWHEEL_MODE_VALUE:
 2216              		.loc 1 425 0 is_stmt 1 discriminator 4
 2217 01b2 09E0     		b	.L90
 2218              	.L93:
 427:..\..\..\arduinoLCD\test\Pain Drain\libraries\lvgl\src\extra\widgets\colorwheel/lv_colorwheel.c ****                     break;
 2219              		.loc 1 427 0
 2220 01b4 2723     		movs	r3, #39
 2221 01b6 F35C     		ldrb	r3, [r6, r3]
 2222 01b8 002B     		cmp	r3, #0
 2223 01ba 02D0     		beq	.L119
 427:..\..\..\arduinoLCD\test\Pain Drain\libraries\lvgl\src\extra\widgets\colorwheel/lv_colorwheel.c ****                     break;
 2224              		.loc 1 427 0 is_stmt 0 discriminator 1
 2225 01bc 013B     		subs	r3, r3, #1
 2226 01be DBB2     		uxtb	r3, r3
 2227 01c0 00E0     		b	.L96
ARM GAS  C:\Users\haske\AppData\Local\Temp\ccIkbvey.s 			page 77


 2228              	.L119:
 427:..\..\..\arduinoLCD\test\Pain Drain\libraries\lvgl\src\extra\widgets\colorwheel/lv_colorwheel.c ****                     break;
 2229              		.loc 1 427 0
 2230 01c2 6423     		movs	r3, #100
 2231              	.L96:
 427:..\..\..\arduinoLCD\test\Pain Drain\libraries\lvgl\src\extra\widgets\colorwheel/lv_colorwheel.c ****                     break;
 2232              		.loc 1 427 0 discriminator 4
 2233 01c4 01AA     		add	r2, sp, #4
 2234 01c6 D370     		strb	r3, [r2, #3]
 2235              	.L90:
 431:..\..\..\arduinoLCD\test\Pain Drain\libraries\lvgl\src\extra\widgets\colorwheel/lv_colorwheel.c ****                 res = lv_event_send(obj, LV_EVENT_VALUE_CHANGED, NULL);
 2236              		.loc 1 431 0 is_stmt 1
 2237 01c8 0199     		ldr	r1, [sp, #4]
 2238 01ca 3000     		movs	r0, r6
 2239 01cc FFF7FEFF 		bl	lv_colorwheel_set_hsv
 2240              	.LVL299:
 2241 01d0 0028     		cmp	r0, #0
 2242 01d2 00D1     		bne	.LCB2275
 2243 01d4 10E1     		b	.L70	@long jump
 2244              	.LCB2275:
 432:..\..\..\arduinoLCD\test\Pain Drain\libraries\lvgl\src\extra\widgets\colorwheel/lv_colorwheel.c ****                 if(res != LV_RES_OK) return;
 2245              		.loc 1 432 0
 2246 01d6 0022     		movs	r2, #0
 2247 01d8 1C21     		movs	r1, #28
 2248 01da 3000     		movs	r0, r6
 2249 01dc FFF7FEFF 		bl	lv_event_send
 2250              	.LVL300:
 2251 01e0 0AE1     		b	.L70
 2252              	.LVL301:
 2253              	.L80:
 2254              	.LBE101:
 2255              	.LBE99:
 437:..\..\..\arduinoLCD\test\Pain Drain\libraries\lvgl\src\extra\widgets\colorwheel/lv_colorwheel.c ****         colorwheel->last_change_time = lv_tick_get();
 2256              		.loc 1 437 0
 2257 01e2 012D     		cmp	r5, #1
 2258 01e4 0CD1     		bne	.L99
 438:..\..\..\arduinoLCD\test\Pain Drain\libraries\lvgl\src\extra\widgets\colorwheel/lv_colorwheel.c ****         lv_indev_get_point(lv_indev_get_act(), &colorwheel->last_press_point);
 2259              		.loc 1 438 0
 2260 01e6 FFF7FEFF 		bl	lv_tick_get
 2261              	.LVL302:
 2262 01ea 7063     		str	r0, [r6, #52]
 439:..\..\..\arduinoLCD\test\Pain Drain\libraries\lvgl\src\extra\widgets\colorwheel/lv_colorwheel.c ****         res = double_click_reset(obj);
 2263              		.loc 1 439 0
 2264 01ec FFF7FEFF 		bl	lv_indev_get_act
 2265              	.LVL303:
 2266 01f0 3100     		movs	r1, r6
 2267 01f2 3831     		adds	r1, r1, #56
 2268 01f4 FFF7FEFF 		bl	lv_indev_get_point
 2269              	.LVL304:
 440:..\..\..\arduinoLCD\test\Pain Drain\libraries\lvgl\src\extra\widgets\colorwheel/lv_colorwheel.c ****         if(res != LV_RES_OK) return;
 2270              		.loc 1 440 0
 2271 01f8 3000     		movs	r0, r6
 2272 01fa FFF7FEFF 		bl	double_click_reset
 2273              	.LVL305:
 2274 01fe FBE0     		b	.L70
 2275              	.LVL306:
 2276              	.L99:
ARM GAS  C:\Users\haske\AppData\Local\Temp\ccIkbvey.s 			page 78


 443:..\..\..\arduinoLCD\test\Pain Drain\libraries\lvgl\src\extra\widgets\colorwheel/lv_colorwheel.c ****         lv_indev_t * indev = lv_indev_get_act();
 2277              		.loc 1 443 0
 2278 0200 022D     		cmp	r5, #2
 2279 0202 00D0     		beq	.LCB2318
 2280 0204 D7E0     		b	.L100	@long jump
 2281              	.LCB2318:
 2282              	.LBB102:
 444:..\..\..\arduinoLCD\test\Pain Drain\libraries\lvgl\src\extra\widgets\colorwheel/lv_colorwheel.c ****         if(indev == NULL) return;
 2283              		.loc 1 444 0
 2284 0206 FFF7FEFF 		bl	lv_indev_get_act
 2285              	.LVL307:
 2286 020a 051E     		subs	r5, r0, #0
 2287              	.LVL308:
 445:..\..\..\arduinoLCD\test\Pain Drain\libraries\lvgl\src\extra\widgets\colorwheel/lv_colorwheel.c **** 
 2288              		.loc 1 445 0
 2289 020c 00D1     		bne	.LCB2328
 2290 020e F3E0     		b	.L70	@long jump
 2291              	.LCB2328:
 447:..\..\..\arduinoLCD\test\Pain Drain\libraries\lvgl\src\extra\widgets\colorwheel/lv_colorwheel.c ****         lv_point_t p;
 2292              		.loc 1 447 0
 2293 0210 FFF7FEFF 		bl	lv_indev_get_type
 2294              	.LVL309:
 449:..\..\..\arduinoLCD\test\Pain Drain\libraries\lvgl\src\extra\widgets\colorwheel/lv_colorwheel.c ****             p.x = obj->coords.x1 + lv_obj_get_width(obj) / 2;
 2295              		.loc 1 449 0
 2296 0214 0428     		cmp	r0, #4
 2297 0216 01D0     		beq	.L102
 449:..\..\..\arduinoLCD\test\Pain Drain\libraries\lvgl\src\extra\widgets\colorwheel/lv_colorwheel.c ****             p.x = obj->coords.x1 + lv_obj_get_width(obj) / 2;
 2298              		.loc 1 449 0 is_stmt 0 discriminator 1
 2299 0218 0228     		cmp	r0, #2
 2300 021a 16D1     		bne	.L103
 2301              	.L102:
 450:..\..\..\arduinoLCD\test\Pain Drain\libraries\lvgl\src\extra\widgets\colorwheel/lv_colorwheel.c ****             p.y = obj->coords.y1 + lv_obj_get_height(obj) / 2;
 2302              		.loc 1 450 0 is_stmt 1
 2303 021c 1423     		movs	r3, #20
 2304 021e F45E     		ldrsh	r4, [r6, r3]
 2305              	.LVL310:
 2306 0220 3000     		movs	r0, r6
 2307              	.LVL311:
 2308 0222 FFF7FEFF 		bl	lv_obj_get_width
 2309              	.LVL312:
 2310 0226 C30F     		lsrs	r3, r0, #31
 2311 0228 1818     		adds	r0, r3, r0
 2312 022a 4010     		asrs	r0, r0, #1
 2313 022c 0019     		adds	r0, r0, r4
 2314 022e 6B46     		mov	r3, sp
 2315 0230 1880     		strh	r0, [r3]
 451:..\..\..\arduinoLCD\test\Pain Drain\libraries\lvgl\src\extra\widgets\colorwheel/lv_colorwheel.c ****         }
 2316              		.loc 1 451 0
 2317 0232 1623     		movs	r3, #22
 2318 0234 F45E     		ldrsh	r4, [r6, r3]
 2319 0236 3000     		movs	r0, r6
 2320 0238 FFF7FEFF 		bl	lv_obj_get_height
 2321              	.LVL313:
 2322 023c C30F     		lsrs	r3, r0, #31
 2323 023e 1818     		adds	r0, r3, r0
 2324 0240 4010     		asrs	r0, r0, #1
 2325 0242 0019     		adds	r0, r0, r4
ARM GAS  C:\Users\haske\AppData\Local\Temp\ccIkbvey.s 			page 79


 2326 0244 6B46     		mov	r3, sp
 2327 0246 5880     		strh	r0, [r3, #2]
 2328 0248 03E0     		b	.L104
 2329              	.LVL314:
 2330              	.L103:
 454:..\..\..\arduinoLCD\test\Pain Drain\libraries\lvgl\src\extra\widgets\colorwheel/lv_colorwheel.c ****         }
 2331              		.loc 1 454 0
 2332 024a 6946     		mov	r1, sp
 2333 024c 2800     		movs	r0, r5
 2334              	.LVL315:
 2335 024e FFF7FEFF 		bl	lv_indev_get_point
 2336              	.LVL316:
 2337              	.L104:
 458:..\..\..\arduinoLCD\test\Pain Drain\libraries\lvgl\src\extra\widgets\colorwheel/lv_colorwheel.c ****            (LV_ABS(p.y - colorwheel->last_press_point.y) > drag_limit)) {
 2338              		.loc 1 458 0
 2339 0252 6B46     		mov	r3, sp
 2340 0254 0022     		movs	r2, #0
 2341 0256 9B5E     		ldrsh	r3, [r3, r2]
 2342 0258 3821     		movs	r1, #56
 2343 025a 725E     		ldrsh	r2, [r6, r1]
 2344 025c 9B1A     		subs	r3, r3, r2
 2345 025e DA17     		asrs	r2, r3, #31
 2346 0260 9B18     		adds	r3, r3, r2
 2347 0262 5340     		eors	r3, r2
 2348 0264 2A68     		ldr	r2, [r5]
 2349 0266 127E     		ldrb	r2, [r2, #24]
 2350 0268 9342     		cmp	r3, r2
 2351 026a 0ADC     		bgt	.L105
 459:..\..\..\arduinoLCD\test\Pain Drain\libraries\lvgl\src\extra\widgets\colorwheel/lv_colorwheel.c ****             colorwheel->last_change_time = lv_tick_get();
 2352              		.loc 1 459 0 discriminator 1
 2353 026c 6B46     		mov	r3, sp
 2354 026e 0221     		movs	r1, #2
 2355 0270 5B5E     		ldrsh	r3, [r3, r1]
 2356 0272 3A20     		movs	r0, #58
 2357 0274 315E     		ldrsh	r1, [r6, r0]
 2358 0276 5B1A     		subs	r3, r3, r1
 2359 0278 D917     		asrs	r1, r3, #31
 2360 027a 5B18     		adds	r3, r3, r1
 2361 027c 4B40     		eors	r3, r1
 458:..\..\..\arduinoLCD\test\Pain Drain\libraries\lvgl\src\extra\widgets\colorwheel/lv_colorwheel.c ****            (LV_ABS(p.y - colorwheel->last_press_point.y) > drag_limit)) {
 2362              		.loc 1 458 0 discriminator 1
 2363 027e 9A42     		cmp	r2, r3
 2364 0280 0ADA     		bge	.L106
 2365              	.L105:
 460:..\..\..\arduinoLCD\test\Pain Drain\libraries\lvgl\src\extra\widgets\colorwheel/lv_colorwheel.c ****             colorwheel->last_press_point.x = p.x;
 2366              		.loc 1 460 0
 2367 0282 FFF7FEFF 		bl	lv_tick_get
 2368              	.LVL317:
 2369 0286 7063     		str	r0, [r6, #52]
 461:..\..\..\arduinoLCD\test\Pain Drain\libraries\lvgl\src\extra\widgets\colorwheel/lv_colorwheel.c ****             colorwheel->last_press_point.y = p.y;
 2370              		.loc 1 461 0
 2371 0288 6B46     		mov	r3, sp
 2372 028a 0022     		movs	r2, #0
 2373 028c 9B5E     		ldrsh	r3, [r3, r2]
 2374 028e 3387     		strh	r3, [r6, #56]
 462:..\..\..\arduinoLCD\test\Pain Drain\libraries\lvgl\src\extra\widgets\colorwheel/lv_colorwheel.c ****         }
 2375              		.loc 1 462 0
ARM GAS  C:\Users\haske\AppData\Local\Temp\ccIkbvey.s 			page 80


 2376 0290 6B46     		mov	r3, sp
 2377 0292 0222     		movs	r2, #2
 2378 0294 9B5E     		ldrsh	r3, [r3, r2]
 2379 0296 7387     		strh	r3, [r6, #58]
 2380              	.L106:
 465:..\..\..\arduinoLCD\test\Pain Drain\libraries\lvgl\src\extra\widgets\colorwheel/lv_colorwheel.c ****         p.y -= obj->coords.y1;
 2381              		.loc 1 465 0
 2382 0298 1423     		movs	r3, #20
 2383 029a F25E     		ldrsh	r2, [r6, r3]
 2384 029c 6B46     		mov	r3, sp
 2385 029e 1B88     		ldrh	r3, [r3]
 2386 02a0 9B1A     		subs	r3, r3, r2
 2387 02a2 6A46     		mov	r2, sp
 2388 02a4 1380     		strh	r3, [r2]
 466:..\..\..\arduinoLCD\test\Pain Drain\libraries\lvgl\src\extra\widgets\colorwheel/lv_colorwheel.c **** 
 2389              		.loc 1 466 0
 2390 02a6 1623     		movs	r3, #22
 2391 02a8 F25E     		ldrsh	r2, [r6, r3]
 2392 02aa 6B46     		mov	r3, sp
 2393 02ac 5B88     		ldrh	r3, [r3, #2]
 2394 02ae 9B1A     		subs	r3, r3, r2
 2395 02b0 6A46     		mov	r2, sp
 2396 02b2 5380     		strh	r3, [r2, #2]
 469:..\..\..\arduinoLCD\test\Pain Drain\libraries\lvgl\src\extra\widgets\colorwheel/lv_colorwheel.c **** 
 2397              		.loc 1 469 0
 2398 02b4 3000     		movs	r0, r6
 2399 02b6 FFF7FEFF 		bl	lv_obj_get_width
 2400              	.LVL318:
 2401 02ba 84B2     		uxth	r4, r0
 2402              	.LVL319:
 2403              	.LBB103:
 2404              	.LBB104:
 411:c:\projects\paindrain\arduinolcd\test\pain drain\libraries\lvgl\src/core\lv_obj_style_gen.h ****     return (lv_coord_t)v.num;
 2405              		.loc 3 411 0
 2406 02bc 5022     		movs	r2, #80
 2407 02be 0021     		movs	r1, #0
 2408 02c0 3000     		movs	r0, r6
 2409 02c2 FFF7FEFF 		bl	lv_obj_get_style_prop
 2410              	.LVL320:
 2411              		.loc 3 412 0
 2412 02c6 07B2     		sxth	r7, r0
 2413              	.LVL321:
 2414              	.LBE104:
 2415              	.LBE103:
 474:..\..\..\arduinoLCD\test\Pain Drain\libraries\lvgl\src\extra\widgets\colorwheel/lv_colorwheel.c ****         p.x -= r_in;
 2416              		.loc 1 474 0
 2417 02c8 6308     		lsrs	r3, r4, #1
 2418              	.LVL322:
 475:..\..\..\arduinoLCD\test\Pain Drain\libraries\lvgl\src\extra\widgets\colorwheel/lv_colorwheel.c ****         p.y -= r_in;
 2419              		.loc 1 475 0
 2420 02ca 6A46     		mov	r2, sp
 2421 02cc 1188     		ldrh	r1, [r2]
 2422 02ce C91A     		subs	r1, r1, r3
 2423 02d0 09B2     		sxth	r1, r1
 2424 02d2 1180     		strh	r1, [r2]
 476:..\..\..\arduinoLCD\test\Pain Drain\libraries\lvgl\src\extra\widgets\colorwheel/lv_colorwheel.c ****         bool on_ring = true;
 2425              		.loc 1 476 0
ARM GAS  C:\Users\haske\AppData\Local\Temp\ccIkbvey.s 			page 81


 2426 02d4 5288     		ldrh	r2, [r2, #2]
 2427 02d6 D21A     		subs	r2, r2, r3
 2428 02d8 12B2     		sxth	r2, r2
 2429 02da 6C46     		mov	r4, sp
 2430              	.LVL323:
 2431 02dc 6280     		strh	r2, [r4, #2]
 2432              	.LVL324:
 478:..\..\..\arduinoLCD\test\Pain Drain\libraries\lvgl\src\extra\widgets\colorwheel/lv_colorwheel.c ****         if(r_in > LV_DPI_DEF / 2) {
 2433              		.loc 1 478 0
 2434 02de 1B1A     		subs	r3, r3, r0
 2435              	.LVL325:
 2436 02e0 9BB2     		uxth	r3, r3
 2437 02e2 18B2     		sxth	r0, r3
 2438              	.LVL326:
 479:..\..\..\arduinoLCD\test\Pain Drain\libraries\lvgl\src\extra\widgets\colorwheel/lv_colorwheel.c ****             lv_coord_t inner = cir_w / 2;
 2439              		.loc 1 479 0
 2440 02e4 4128     		cmp	r0, #65
 2441 02e6 07DD     		ble	.L107
 2442              	.LBB105:
 480:..\..\..\arduinoLCD\test\Pain Drain\libraries\lvgl\src\extra\widgets\colorwheel/lv_colorwheel.c ****             r_in -= inner;
 2443              		.loc 1 480 0
 2444 02e8 F80F     		lsrs	r0, r7, #31
 2445              	.LVL327:
 2446 02ea C719     		adds	r7, r0, r7
 2447 02ec 7F10     		asrs	r7, r7, #1
 2448              	.LVL328:
 481:..\..\..\arduinoLCD\test\Pain Drain\libraries\lvgl\src\extra\widgets\colorwheel/lv_colorwheel.c **** 
 2449              		.loc 1 481 0
 2450 02ee DB1B     		subs	r3, r3, r7
 2451              	.LVL329:
 2452 02f0 18B2     		sxth	r0, r3
 2453              	.LVL330:
 483:..\..\..\arduinoLCD\test\Pain Drain\libraries\lvgl\src\extra\widgets\colorwheel/lv_colorwheel.c ****         }
 2454              		.loc 1 483 0
 2455 02f2 4028     		cmp	r0, #64
 2456 02f4 00DC     		bgt	.L107
 2457 02f6 4120     		movs	r0, #65
 2458              	.LVL331:
 2459              	.L107:
 2460              	.LBE105:
 486:..\..\..\arduinoLCD\test\Pain Drain\libraries\lvgl\src\extra\widgets\colorwheel/lv_colorwheel.c ****             on_ring = false;
 2461              		.loc 1 486 0
 2462 02f8 4943     		muls	r1, r1
 2463 02fa 5243     		muls	r2, r2
 2464 02fc 8A18     		adds	r2, r1, r2
 2465 02fe 0300     		movs	r3, r0
 2466 0300 4343     		muls	r3, r0
 2467 0302 9A42     		cmp	r2, r3
 2468 0304 01DB     		blt	.L121
 477:..\..\..\arduinoLCD\test\Pain Drain\libraries\lvgl\src\extra\widgets\colorwheel/lv_colorwheel.c ****         r_in -= cir_w;
 2469              		.loc 1 477 0
 2470 0306 0124     		movs	r4, #1
 2471 0308 00E0     		b	.L108
 2472              	.L121:
 487:..\..\..\arduinoLCD\test\Pain Drain\libraries\lvgl\src\extra\widgets\colorwheel/lv_colorwheel.c ****         }
 2473              		.loc 1 487 0
 2474 030a 0024     		movs	r4, #0
ARM GAS  C:\Users\haske\AppData\Local\Temp\ccIkbvey.s 			page 82


 2475              	.L108:
 2476              	.LVL332:
 491:..\..\..\arduinoLCD\test\Pain Drain\libraries\lvgl\src\extra\widgets\colorwheel/lv_colorwheel.c ****         if(!on_ring && diff > indev->driver->long_press_time && !colorwheel->mode_fixed) {
 2477              		.loc 1 491 0
 2478 030c 706B     		ldr	r0, [r6, #52]
 2479              	.LVL333:
 2480 030e FFF7FEFF 		bl	lv_tick_elaps
 2481              	.LVL334:
 492:..\..\..\arduinoLCD\test\Pain Drain\libraries\lvgl\src\extra\widgets\colorwheel/lv_colorwheel.c ****             next_color_mode(obj);
 2482              		.loc 1 492 0
 2483 0312 002C     		cmp	r4, #0
 2484 0314 12D1     		bne	.L109
 492:..\..\..\arduinoLCD\test\Pain Drain\libraries\lvgl\src\extra\widgets\colorwheel/lv_colorwheel.c ****             next_color_mode(obj);
 2485              		.loc 1 492 0 is_stmt 0 discriminator 1
 2486 0316 2B68     		ldr	r3, [r5]
 2487 0318 9B8B     		ldrh	r3, [r3, #28]
 2488 031a 9842     		cmp	r0, r3
 2489 031c 0ED9     		bls	.L109
 492:..\..\..\arduinoLCD\test\Pain Drain\libraries\lvgl\src\extra\widgets\colorwheel/lv_colorwheel.c ****             next_color_mode(obj);
 2490              		.loc 1 492 0 discriminator 2
 2491 031e 3C23     		movs	r3, #60
 2492 0320 F35C     		ldrb	r3, [r6, r3]
 2493 0322 5B07     		lsls	r3, r3, #29
 2494 0324 0AD4     		bmi	.L109
 493:..\..\..\arduinoLCD\test\Pain Drain\libraries\lvgl\src\extra\widgets\colorwheel/lv_colorwheel.c ****             lv_indev_wait_release(lv_indev_get_act());
 2495              		.loc 1 493 0 is_stmt 1
 2496 0326 3000     		movs	r0, r6
 2497              	.LVL335:
 2498 0328 FFF7FEFF 		bl	next_color_mode
 2499              	.LVL336:
 494:..\..\..\arduinoLCD\test\Pain Drain\libraries\lvgl\src\extra\widgets\colorwheel/lv_colorwheel.c ****             return;
 2500              		.loc 1 494 0
 2501 032c FFF7FEFF 		bl	lv_indev_get_act
 2502              	.LVL337:
 2503 0330 FFF7FEFF 		bl	lv_indev_wait_release
 2504              	.LVL338:
 495:..\..\..\arduinoLCD\test\Pain Drain\libraries\lvgl\src\extra\widgets\colorwheel/lv_colorwheel.c ****         }
 2505              		.loc 1 495 0
 2506 0334 60E0     		b	.L70
 2507              	.L123:
 2508 0336 C046     		.align	2
 2509              	.L122:
 2510 0338 00000000 		.word	.LANCHOR2
 2511              	.LVL339:
 2512              	.L109:
 499:..\..\..\arduinoLCD\test\Pain Drain\libraries\lvgl\src\extra\widgets\colorwheel/lv_colorwheel.c **** 
 2513              		.loc 1 499 0
 2514 033c 002C     		cmp	r4, #0
 2515 033e 5BD0     		beq	.L70
 501:..\..\..\arduinoLCD\test\Pain Drain\libraries\lvgl\src\extra\widgets\colorwheel/lv_colorwheel.c **** 
 2516              		.loc 1 501 0
 2517 0340 6B46     		mov	r3, sp
 2518 0342 0020     		movs	r0, #0
 2519 0344 185E     		ldrsh	r0, [r3, r0]
 2520              	.LVL340:
 2521 0346 6B46     		mov	r3, sp
 2522 0348 0221     		movs	r1, #2
ARM GAS  C:\Users\haske\AppData\Local\Temp\ccIkbvey.s 			page 83


 2523 034a 595E     		ldrsh	r1, [r3, r1]
 2524 034c FFF7FEFF 		bl	lv_atan2
 2525              	.LVL341:
 2526 0350 B421     		movs	r1, #180
 2527 0352 4900     		lsls	r1, r1, #1
 2528 0354 FFF7FEFF 		bl	__aeabi_uidivmod
 2529              	.LVL342:
 2530 0358 89B2     		uxth	r1, r1
 2531 035a 0AB2     		sxth	r2, r1
 2532              	.LVL343:
 504:..\..\..\arduinoLCD\test\Pain Drain\libraries\lvgl\src\extra\widgets\colorwheel/lv_colorwheel.c **** 
 2533              		.loc 1 504 0
 2534 035c 736A     		ldr	r3, [r6, #36]
 2535 035e 0193     		str	r3, [sp, #4]
 506:..\..\..\arduinoLCD\test\Pain Drain\libraries\lvgl\src\extra\widgets\colorwheel/lv_colorwheel.c ****             case LV_COLORWHEEL_MODE_HUE:
 2536              		.loc 1 506 0
 2537 0360 3C23     		movs	r3, #60
 2538 0362 F35C     		ldrb	r3, [r6, r3]
 2539 0364 9B07     		lsls	r3, r3, #30
 2540 0366 9B0F     		lsrs	r3, r3, #30
 2541 0368 012B     		cmp	r3, #1
 2542 036a 07D0     		beq	.L111
 2543 036c 002B     		cmp	r3, #0
 2544 036e 02D0     		beq	.L112
 2545 0370 022B     		cmp	r3, #2
 2546 0372 0CD0     		beq	.L113
 2547 0374 13E0     		b	.L110
 2548              	.L112:
 508:..\..\..\arduinoLCD\test\Pain Drain\libraries\lvgl\src\extra\widgets\colorwheel/lv_colorwheel.c ****                 break;
 2549              		.loc 1 508 0
 2550 0376 01AB     		add	r3, sp, #4
 2551 0378 1980     		strh	r1, [r3]
 509:..\..\..\arduinoLCD\test\Pain Drain\libraries\lvgl\src\extra\widgets\colorwheel/lv_colorwheel.c ****             case LV_COLORWHEEL_MODE_SATURATION:
 2552              		.loc 1 509 0
 2553 037a 10E0     		b	.L110
 2554              	.L111:
 511:..\..\..\arduinoLCD\test\Pain Drain\libraries\lvgl\src\extra\widgets\colorwheel/lv_colorwheel.c ****                 break;
 2555              		.loc 1 511 0
 2556 037c 6420     		movs	r0, #100
 2557 037e 5043     		muls	r0, r2
 2558 0380 B421     		movs	r1, #180
 2559 0382 4900     		lsls	r1, r1, #1
 2560 0384 FFF7FEFF 		bl	__aeabi_idiv
 2561              	.LVL344:
 2562 0388 01AB     		add	r3, sp, #4
 2563 038a 9870     		strb	r0, [r3, #2]
 512:..\..\..\arduinoLCD\test\Pain Drain\libraries\lvgl\src\extra\widgets\colorwheel/lv_colorwheel.c ****             case LV_COLORWHEEL_MODE_VALUE:
 2564              		.loc 1 512 0
 2565 038c 07E0     		b	.L110
 2566              	.LVL345:
 2567              	.L113:
 514:..\..\..\arduinoLCD\test\Pain Drain\libraries\lvgl\src\extra\widgets\colorwheel/lv_colorwheel.c ****                 break;
 2568              		.loc 1 514 0
 2569 038e 6420     		movs	r0, #100
 2570 0390 5043     		muls	r0, r2
 2571 0392 B421     		movs	r1, #180
 2572 0394 4900     		lsls	r1, r1, #1
ARM GAS  C:\Users\haske\AppData\Local\Temp\ccIkbvey.s 			page 84


 2573 0396 FFF7FEFF 		bl	__aeabi_idiv
 2574              	.LVL346:
 2575 039a 01AB     		add	r3, sp, #4
 2576 039c D870     		strb	r0, [r3, #3]
 2577              	.L110:
 518:..\..\..\arduinoLCD\test\Pain Drain\libraries\lvgl\src\extra\widgets\colorwheel/lv_colorwheel.c ****             res = lv_event_send(obj, LV_EVENT_VALUE_CHANGED, NULL);
 2578              		.loc 1 518 0
 2579 039e 0199     		ldr	r1, [sp, #4]
 2580 03a0 3000     		movs	r0, r6
 2581 03a2 FFF7FEFF 		bl	lv_colorwheel_set_hsv
 2582              	.LVL347:
 2583 03a6 0028     		cmp	r0, #0
 2584 03a8 26D0     		beq	.L70
 519:..\..\..\arduinoLCD\test\Pain Drain\libraries\lvgl\src\extra\widgets\colorwheel/lv_colorwheel.c ****             if(res != LV_RES_OK) return;
 2585              		.loc 1 519 0
 2586 03aa 0022     		movs	r2, #0
 2587 03ac 1C21     		movs	r1, #28
 2588 03ae 3000     		movs	r0, r6
 2589 03b0 FFF7FEFF 		bl	lv_event_send
 2590              	.LVL348:
 2591 03b4 20E0     		b	.L70
 2592              	.LVL349:
 2593              	.L100:
 2594              	.LBE102:
 523:..\..\..\arduinoLCD\test\Pain Drain\libraries\lvgl\src\extra\widgets\colorwheel/lv_colorwheel.c ****         lv_hit_test_info_t * info = lv_event_get_param(e);;
 2595              		.loc 1 523 0
 2596 03b6 112D     		cmp	r5, #17
 2597 03b8 0BD1     		bne	.L115
 2598              	.LBB106:
 524:..\..\..\arduinoLCD\test\Pain Drain\libraries\lvgl\src\extra\widgets\colorwheel/lv_colorwheel.c **** 
 2599              		.loc 1 524 0
 2600 03ba 2000     		movs	r0, r4
 2601              	.LVL350:
 2602 03bc FFF7FEFF 		bl	lv_event_get_param
 2603              	.LVL351:
 2604 03c0 0400     		movs	r4, r0
 2605              	.LVL352:
 527:..\..\..\arduinoLCD\test\Pain Drain\libraries\lvgl\src\extra\widgets\colorwheel/lv_colorwheel.c ****     }
 2606              		.loc 1 527 0
 2607 03c2 3000     		movs	r0, r6
 2608              	.LVL353:
 2609 03c4 1430     		adds	r0, r0, #20
 2610 03c6 0E4A     		ldr	r2, .L124
 2611 03c8 2168     		ldr	r1, [r4]
 2612 03ca FFF7FEFF 		bl	_lv_area_is_point_on
 2613              	.LVL354:
 2614 03ce 2071     		strb	r0, [r4, #4]
 2615              	.LBE106:
 2616 03d0 12E0     		b	.L70
 2617              	.LVL355:
 2618              	.L115:
 529:..\..\..\arduinoLCD\test\Pain Drain\libraries\lvgl\src\extra\widgets\colorwheel/lv_colorwheel.c ****         draw_disc_grad(e);
 2619              		.loc 1 529 0
 2620 03d2 152D     		cmp	r5, #21
 2621 03d4 06D1     		bne	.L116
 530:..\..\..\arduinoLCD\test\Pain Drain\libraries\lvgl\src\extra\widgets\colorwheel/lv_colorwheel.c ****         draw_knob(e);
 2622              		.loc 1 530 0
ARM GAS  C:\Users\haske\AppData\Local\Temp\ccIkbvey.s 			page 85


 2623 03d6 2000     		movs	r0, r4
 2624              	.LVL356:
 2625 03d8 FFF7FEFF 		bl	draw_disc_grad
 2626              	.LVL357:
 531:..\..\..\arduinoLCD\test\Pain Drain\libraries\lvgl\src\extra\widgets\colorwheel/lv_colorwheel.c ****     }
 2627              		.loc 1 531 0
 2628 03dc 2000     		movs	r0, r4
 2629 03de FFF7FEFF 		bl	draw_knob
 2630              	.LVL358:
 2631 03e2 09E0     		b	.L70
 2632              	.LVL359:
 2633              	.L116:
 533:..\..\..\arduinoLCD\test\Pain Drain\libraries\lvgl\src\extra\widgets\colorwheel/lv_colorwheel.c ****         lv_cover_check_info_t * info = lv_event_get_param(e);
 2634              		.loc 1 533 0
 2635 03e4 122D     		cmp	r5, #18
 2636 03e6 07D1     		bne	.L70
 2637              	.LBB107:
 534:..\..\..\arduinoLCD\test\Pain Drain\libraries\lvgl\src\extra\widgets\colorwheel/lv_colorwheel.c ****         if(info->res != LV_COVER_RES_MASKED) info->res = LV_COVER_RES_NOT_COVER;
 2638              		.loc 1 534 0
 2639 03e8 2000     		movs	r0, r4
 2640              	.LVL360:
 2641 03ea FFF7FEFF 		bl	lv_event_get_param
 2642              	.LVL361:
 535:..\..\..\arduinoLCD\test\Pain Drain\libraries\lvgl\src\extra\widgets\colorwheel/lv_colorwheel.c ****     }
 2643              		.loc 1 535 0
 2644 03ee 0378     		ldrb	r3, [r0]
 2645 03f0 022B     		cmp	r3, #2
 2646 03f2 01D0     		beq	.L70
 535:..\..\..\arduinoLCD\test\Pain Drain\libraries\lvgl\src\extra\widgets\colorwheel/lv_colorwheel.c ****     }
 2647              		.loc 1 535 0 is_stmt 0 discriminator 1
 2648 03f4 0123     		movs	r3, #1
 2649 03f6 0370     		strb	r3, [r0]
 2650              	.LVL362:
 2651              	.L70:
 2652              	.LBE107:
 537:..\..\..\arduinoLCD\test\Pain Drain\libraries\lvgl\src\extra\widgets\colorwheel/lv_colorwheel.c **** 
 2653              		.loc 1 537 0 is_stmt 1
 2654 03f8 02B0     		add	sp, sp, #8
 2655              		@ sp needed
 2656 03fa 04BC     		pop	{r2}
 2657 03fc 9146     		mov	r9, r2
 2658 03fe F0BD     		pop	{r4, r5, r6, r7, pc}
 2659              	.L125:
 2660              		.align	2
 2661              	.L124:
 2662 0400 FF7F0000 		.word	32767
 2663              		.cfi_endproc
 2664              	.LFE216:
 2665              		.size	lv_colorwheel_event, .-lv_colorwheel_event
 2666              		.section	.text.lv_colorwheel_get_color_mode,"ax",%progbits
 2667              		.align	2
 2668              		.global	lv_colorwheel_get_color_mode
 2669              		.code	16
 2670              		.thumb_func
 2671              		.type	lv_colorwheel_get_color_mode, %function
 2672              	lv_colorwheel_get_color_mode:
 2673              	.LFB209:
ARM GAS  C:\Users\haske\AppData\Local\Temp\ccIkbvey.s 			page 86


 196:..\..\..\arduinoLCD\test\Pain Drain\libraries\lvgl\src\extra\widgets\colorwheel/lv_colorwheel.c ****     LV_ASSERT_OBJ(obj, MY_CLASS);
 2674              		.loc 1 196 0
 2675              		.cfi_startproc
 2676              		@ args = 0, pretend = 0, frame = 0
 2677              		@ frame_needed = 0, uses_anonymous_args = 0
 2678              		@ link register save eliminated.
 2679              	.LVL363:
 200:..\..\..\arduinoLCD\test\Pain Drain\libraries\lvgl\src\extra\widgets\colorwheel/lv_colorwheel.c **** }
 2680              		.loc 1 200 0
 2681 0000 3C23     		movs	r3, #60
 2682 0002 C05C     		ldrb	r0, [r0, r3]
 2683              	.LVL364:
 2684 0004 8007     		lsls	r0, r0, #30
 2685 0006 800F     		lsrs	r0, r0, #30
 201:..\..\..\arduinoLCD\test\Pain Drain\libraries\lvgl\src\extra\widgets\colorwheel/lv_colorwheel.c **** 
 2686              		.loc 1 201 0
 2687              		@ sp needed
 2688 0008 7047     		bx	lr
 2689              		.cfi_endproc
 2690              	.LFE209:
 2691              		.size	lv_colorwheel_get_color_mode, .-lv_colorwheel_get_color_mode
 2692 000a C046     		.section	.text.lv_colorwheel_get_color_mode_fixed,"ax",%progbits
 2693              		.align	2
 2694              		.global	lv_colorwheel_get_color_mode_fixed
 2695              		.code	16
 2696              		.thumb_func
 2697              		.type	lv_colorwheel_get_color_mode_fixed, %function
 2698              	lv_colorwheel_get_color_mode_fixed:
 2699              	.LFB210:
 209:..\..\..\arduinoLCD\test\Pain Drain\libraries\lvgl\src\extra\widgets\colorwheel/lv_colorwheel.c ****     LV_ASSERT_OBJ(obj, MY_CLASS);
 2700              		.loc 1 209 0
 2701              		.cfi_startproc
 2702              		@ args = 0, pretend = 0, frame = 0
 2703              		@ frame_needed = 0, uses_anonymous_args = 0
 2704              		@ link register save eliminated.
 2705              	.LVL365:
 213:..\..\..\arduinoLCD\test\Pain Drain\libraries\lvgl\src\extra\widgets\colorwheel/lv_colorwheel.c **** }
 2706              		.loc 1 213 0
 2707 0000 3C23     		movs	r3, #60
 2708 0002 C05C     		ldrb	r0, [r0, r3]
 2709              	.LVL366:
 2710 0004 4007     		lsls	r0, r0, #29
 2711 0006 C00F     		lsrs	r0, r0, #31
 214:..\..\..\arduinoLCD\test\Pain Drain\libraries\lvgl\src\extra\widgets\colorwheel/lv_colorwheel.c **** 
 2712              		.loc 1 214 0
 2713              		@ sp needed
 2714 0008 7047     		bx	lr
 2715              		.cfi_endproc
 2716              	.LFE210:
 2717              		.size	lv_colorwheel_get_color_mode_fixed, .-lv_colorwheel_get_color_mode_fixed
 2718              		.global	lv_colorwheel_class
 2719 000a C046     		.section	.rodata
 2720              		.align	2
 2721              		.set	.LANCHOR2,. + 0
 2722              		.type	lv_colorwheel_class, %object
 2723              		.size	lv_colorwheel_class, 28
 2724              	lv_colorwheel_class:
ARM GAS  C:\Users\haske\AppData\Local\Temp\ccIkbvey.s 			page 87


 2725 0000 00000000 		.word	lv_obj_class
 2726 0004 00000000 		.word	lv_colorwheel_constructor
 2727 0008 00000000 		.space	8
 2727      00000000 
 2728 0010 00000000 		.word	lv_colorwheel_event
 2729 0014 0401     		.short	260
 2730 0016 0401     		.short	260
 2731 0018 01       		.byte	1
 2732 0019 04       		.byte	4
 2733 001a 00       		.byte	0
 2734 001b 00       		.space	1
 2735              		.data
 2736              		.align	1
 2737              		.set	.LANCHOR0,. + 0
 2738              		.type	angle_saved.11406, %object
 2739              		.size	angle_saved.11406, 2
 2740              	angle_saved.11406:
 2741 0000 FFFF     		.short	-1
 2742              		.type	m.11405, %object
 2743              		.size	m.11405, 1
 2744              	m.11405:
 2745 0002 FF       		.byte	-1
 2746              		.bss
 2747              		.align	1
 2748              		.set	.LANCHOR1,. + 0
 2749              		.type	s.11403, %object
 2750              		.size	s.11403, 1
 2751              	s.11403:
 2752 0000 00       		.space	1
 2753              		.type	v.11404, %object
 2754              		.size	v.11404, 1
 2755              	v.11404:
 2756 0001 00       		.space	1
 2757              		.type	h.11402, %object
 2758              		.size	h.11402, 2
 2759              	h.11402:
 2760 0002 0000     		.space	2
 2761              		.type	create_knob_recolor, %object
 2762              		.size	create_knob_recolor, 1
 2763              	create_knob_recolor:
 2764 0004 00       		.space	1
 2765              		.text
 2766              	.Letext0:
 2767              		.file 6 "c:\\program files (x86)\\cypress\\psoc creator\\4.4\\psoc creator\\import\\gnu\\arm\\5.4.
 2768              		.file 7 "c:\\program files (x86)\\cypress\\psoc creator\\4.4\\psoc creator\\import\\gnu\\arm\\5.4.
 2769              		.file 8 "c:\\projects\\paindrain\\arduinolcd\\test\\pain drain\\libraries\\lvgl\\src/misc/lv_types
 2770              		.file 9 "c:\\projects\\paindrain\\arduinolcd\\test\\pain drain\\libraries\\lvgl\\src/misc/lv_timer
 2771              		.file 10 "c:\\program files (x86)\\cypress\\psoc creator\\4.4\\psoc creator\\import\\gnu\\arm\\5.4
 2772              		.file 11 "c:\\projects\\paindrain\\arduinolcd\\test\\pain drain\\libraries\\lvgl\\src\\font\\lv_fo
 2773              		.file 12 "c:\\projects\\paindrain\\arduinolcd\\test\\pain drain\\libraries\\lvgl\\src\\misc\\lv_tx
 2774              		.file 13 "c:\\projects\\paindrain\\arduinolcd\\test\\pain drain\\libraries\\lvgl\\src\\misc\\lv_bi
 2775              		.file 14 "c:\\projects\\paindrain\\arduinolcd\\test\\pain drain\\libraries\\lvgl\\src\\misc\\lv_st
 2776              		.file 15 "c:\\projects\\paindrain\\arduinolcd\\test\\pain drain\\libraries\\lvgl\\src\\draw\\lv_im
 2777              		.file 16 "c:\\projects\\paindrain\\arduinolcd\\test\\pain drain\\libraries\\lvgl\\src/core/lv_obj.
 2778              		.file 17 "c:\\projects\\paindrain\\arduinolcd\\test\\pain drain\\libraries\\lvgl\\src\\draw\\lv_dr
 2779              		.file 18 "c:\\projects\\paindrain\\arduinolcd\\test\\pain drain\\libraries\\lvgl\\src\\draw\\lv_dr
 2780              		.file 19 "c:\\projects\\paindrain\\arduinolcd\\test\\pain drain\\libraries\\lvgl\\src\\draw\\lv_dr
ARM GAS  C:\Users\haske\AppData\Local\Temp\ccIkbvey.s 			page 88


 2781              		.file 20 "c:\\projects\\paindrain\\arduinolcd\\test\\pain drain\\libraries\\lvgl\\src\\draw\\lv_dr
 2782              		.file 21 "c:\\projects\\paindrain\\arduinolcd\\test\\pain drain\\libraries\\lvgl\\src\\draw\\lv_dr
 2783              		.file 22 "c:\\projects\\paindrain\\arduinolcd\\test\\pain drain\\libraries\\lvgl\\src\\draw\\lv_dr
 2784              		.file 23 "c:\\projects\\paindrain\\arduinolcd\\test\\pain drain\\libraries\\lvgl\\src\\draw\\lv_dr
 2785              		.file 24 "c:\\projects\\paindrain\\arduinolcd\\test\\pain drain\\libraries\\lvgl\\src\\draw\\lv_dr
 2786              		.file 25 "c:\\projects\\paindrain\\arduinolcd\\test\\pain drain\\libraries\\lvgl\\src\\misc\\lv_ll
 2787              		.file 26 "c:\\projects\\paindrain\\arduinolcd\\test\\pain drain\\libraries\\lvgl\\src/hal/lv_hal_d
 2788              		.file 27 "c:\\projects\\paindrain\\arduinolcd\\test\\pain drain\\libraries\\lvgl\\src/core/lv_them
 2789              		.file 28 "c:\\projects\\paindrain\\arduinolcd\\test\\pain drain\\libraries\\lvgl\\src/hal/lv_hal_i
 2790              		.file 29 "c:\\projects\\paindrain\\arduinolcd\\test\\pain drain\\libraries\\lvgl\\src/core/lv_grou
 2791              		.file 30 "c:\\projects\\paindrain\\arduinolcd\\test\\pain drain\\libraries\\lvgl\\src/core/lv_obj_
 2792              		.file 31 "c:\\projects\\paindrain\\arduinolcd\\test\\pain drain\\libraries\\lvgl\\src/core/lv_obj_
 2793              		.file 32 "c:\\projects\\paindrain\\arduinolcd\\test\\pain drain\\libraries\\lvgl\\src/core/lv_obj_
 2794              		.file 33 "c:\\projects\\paindrain\\arduinolcd\\test\\pain drain\\libraries\\lvgl\\src/core/lv_obj_
 2795              		.file 34 "c:\\projects\\paindrain\\arduinolcd\\test\\pain drain\\libraries\\lvgl\\src/core/lv_even
 2796              		.file 35 "c:\\projects\\paindrain\\arduinolcd\\test\\pain drain\\libraries\\lvgl\\src/widgets/lv_b
 2797              		.file 36 "c:\\projects\\paindrain\\arduinolcd\\test\\pain drain\\libraries\\lvgl\\src/extra/widget
 2798              		.file 37 "..\\..\\..\\arduinoLCD\\test\\Pain Drain\\libraries\\lvgl\\src\\extra\\widgets\\colorwhe
 2799              		.file 38 "c:\\projects\\paindrain\\arduinolcd\\test\\pain drain\\libraries\\lvgl\\src/extra/layout
 2800              		.file 39 "c:\\projects\\paindrain\\arduinolcd\\test\\pain drain\\libraries\\lvgl\\src/extra/layout
 2801              		.file 40 "c:\\projects\\paindrain\\arduinolcd\\test\\pain drain\\libraries\\lvgl\\src\\core\\lv_ob
 2802              		.file 41 "c:\\projects\\paindrain\\arduinolcd\\test\\pain drain\\libraries\\lvgl\\src/core/lv_inde
 2803              		.file 42 "c:\\projects\\paindrain\\arduinolcd\\test\\pain drain\\libraries\\lvgl\\src\\hal\\lv_hal
 2804              		.section	.debug_info,"",%progbits
 2805              	.Ldebug_info0:
 2806 0000 043F0000 		.4byte	0x3f04
 2807 0004 0400     		.2byte	0x4
 2808 0006 00000000 		.4byte	.Ldebug_abbrev0
 2809 000a 04       		.byte	0x4
 2810 000b 01       		.uleb128 0x1
 2811 000c 37240000 		.4byte	.LASF743
 2812 0010 0C       		.byte	0xc
 2813 0011 1A1F0000 		.4byte	.LASF744
 2814 0015 CE170000 		.4byte	.LASF745
 2815 0019 00000000 		.4byte	.Ldebug_ranges0+0
 2816 001d 00000000 		.4byte	0
 2817 0021 00000000 		.4byte	.Ldebug_line0
 2818 0025 02       		.uleb128 0x2
 2819 0026 5F2B0000 		.4byte	.LASF0
 2820 002a 06       		.byte	0x6
 2821 002b 1B       		.byte	0x1b
 2822 002c 30000000 		.4byte	0x30
 2823 0030 03       		.uleb128 0x3
 2824 0031 01       		.byte	0x1
 2825 0032 06       		.byte	0x6
 2826 0033 61170000 		.4byte	.LASF2
 2827 0037 02       		.uleb128 0x2
 2828 0038 09010000 		.4byte	.LASF1
 2829 003c 06       		.byte	0x6
 2830 003d 1D       		.byte	0x1d
 2831 003e 42000000 		.4byte	0x42
 2832 0042 03       		.uleb128 0x3
 2833 0043 01       		.byte	0x1
 2834 0044 08       		.byte	0x8
 2835 0045 030A0000 		.4byte	.LASF3
 2836 0049 02       		.uleb128 0x2
 2837 004a D3080000 		.4byte	.LASF4
ARM GAS  C:\Users\haske\AppData\Local\Temp\ccIkbvey.s 			page 89


 2838 004e 06       		.byte	0x6
 2839 004f 29       		.byte	0x29
 2840 0050 54000000 		.4byte	0x54
 2841 0054 03       		.uleb128 0x3
 2842 0055 02       		.byte	0x2
 2843 0056 05       		.byte	0x5
 2844 0057 622C0000 		.4byte	.LASF5
 2845 005b 02       		.uleb128 0x2
 2846 005c DD080000 		.4byte	.LASF6
 2847 0060 06       		.byte	0x6
 2848 0061 2B       		.byte	0x2b
 2849 0062 66000000 		.4byte	0x66
 2850 0066 03       		.uleb128 0x3
 2851 0067 02       		.byte	0x2
 2852 0068 07       		.byte	0x7
 2853 0069 44170000 		.4byte	.LASF7
 2854 006d 02       		.uleb128 0x2
 2855 006e EA230000 		.4byte	.LASF8
 2856 0072 06       		.byte	0x6
 2857 0073 3F       		.byte	0x3f
 2858 0074 78000000 		.4byte	0x78
 2859 0078 03       		.uleb128 0x3
 2860 0079 04       		.byte	0x4
 2861 007a 05       		.byte	0x5
 2862 007b 221B0000 		.4byte	.LASF9
 2863 007f 02       		.uleb128 0x2
 2864 0080 F4230000 		.4byte	.LASF10
 2865 0084 06       		.byte	0x6
 2866 0085 41       		.byte	0x41
 2867 0086 8A000000 		.4byte	0x8a
 2868 008a 03       		.uleb128 0x3
 2869 008b 04       		.byte	0x4
 2870 008c 07       		.byte	0x7
 2871 008d A81D0000 		.4byte	.LASF11
 2872 0091 03       		.uleb128 0x3
 2873 0092 08       		.byte	0x8
 2874 0093 05       		.byte	0x5
 2875 0094 F0280000 		.4byte	.LASF12
 2876 0098 03       		.uleb128 0x3
 2877 0099 08       		.byte	0x8
 2878 009a 07       		.byte	0x7
 2879 009b 52260000 		.4byte	.LASF13
 2880 009f 04       		.uleb128 0x4
 2881 00a0 04       		.byte	0x4
 2882 00a1 05       		.byte	0x5
 2883 00a2 696E7400 		.ascii	"int\000"
 2884 00a6 03       		.uleb128 0x3
 2885 00a7 04       		.byte	0x4
 2886 00a8 07       		.byte	0x7
 2887 00a9 D12B0000 		.4byte	.LASF14
 2888 00ad 02       		.uleb128 0x2
 2889 00ae B6150000 		.4byte	.LASF15
 2890 00b2 07       		.byte	0x7
 2891 00b3 14       		.byte	0x14
 2892 00b4 25000000 		.4byte	0x25
 2893 00b8 02       		.uleb128 0x2
 2894 00b9 DF0E0000 		.4byte	.LASF16
ARM GAS  C:\Users\haske\AppData\Local\Temp\ccIkbvey.s 			page 90


 2895 00bd 07       		.byte	0x7
 2896 00be 18       		.byte	0x18
 2897 00bf 37000000 		.4byte	0x37
 2898 00c3 02       		.uleb128 0x2
 2899 00c4 11170000 		.4byte	.LASF17
 2900 00c8 07       		.byte	0x7
 2901 00c9 20       		.byte	0x20
 2902 00ca 49000000 		.4byte	0x49
 2903 00ce 02       		.uleb128 0x2
 2904 00cf 7D020000 		.4byte	.LASF18
 2905 00d3 07       		.byte	0x7
 2906 00d4 24       		.byte	0x24
 2907 00d5 5B000000 		.4byte	0x5b
 2908 00d9 02       		.uleb128 0x2
 2909 00da 8D040000 		.4byte	.LASF19
 2910 00de 07       		.byte	0x7
 2911 00df 2C       		.byte	0x2c
 2912 00e0 6D000000 		.4byte	0x6d
 2913 00e4 02       		.uleb128 0x2
 2914 00e5 DF1C0000 		.4byte	.LASF20
 2915 00e9 07       		.byte	0x7
 2916 00ea 30       		.byte	0x30
 2917 00eb 7F000000 		.4byte	0x7f
 2918 00ef 05       		.uleb128 0x5
 2919 00f0 01       		.byte	0x1
 2920 00f1 42000000 		.4byte	0x42
 2921 00f5 08       		.byte	0x8
 2922 00f6 2A       		.byte	0x2a
 2923 00f7 08010000 		.4byte	0x108
 2924 00fb 06       		.uleb128 0x6
 2925 00fc 37250000 		.4byte	.LASF21
 2926 0100 00       		.byte	0
 2927 0101 06       		.uleb128 0x6
 2928 0102 C9240000 		.4byte	.LASF22
 2929 0106 01       		.byte	0x1
 2930 0107 00       		.byte	0
 2931 0108 02       		.uleb128 0x2
 2932 0109 A4000000 		.4byte	.LASF23
 2933 010d 08       		.byte	0x8
 2934 010e 2F       		.byte	0x2f
 2935 010f B8000000 		.4byte	0xb8
 2936 0113 02       		.uleb128 0x2
 2937 0114 890E0000 		.4byte	.LASF24
 2938 0118 09       		.byte	0x9
 2939 0119 27       		.byte	0x27
 2940 011a 1E010000 		.4byte	0x11e
 2941 011e 07       		.uleb128 0x7
 2942 011f 04       		.byte	0x4
 2943 0120 24010000 		.4byte	0x124
 2944 0124 08       		.uleb128 0x8
 2945 0125 2F010000 		.4byte	0x12f
 2946 0129 09       		.uleb128 0x9
 2947 012a 2F010000 		.4byte	0x12f
 2948 012e 00       		.byte	0
 2949 012f 07       		.uleb128 0x7
 2950 0130 04       		.byte	0x4
 2951 0131 35010000 		.4byte	0x135
ARM GAS  C:\Users\haske\AppData\Local\Temp\ccIkbvey.s 			page 91


 2952 0135 0A       		.uleb128 0xa
 2953 0136 2A290000 		.4byte	.LASF47
 2954 013a 18       		.byte	0x18
 2955 013b 09       		.byte	0x9
 2956 013c 2C       		.byte	0x2c
 2957 013d 8D010000 		.4byte	0x18d
 2958 0141 0B       		.uleb128 0xb
 2959 0142 2D150000 		.4byte	.LASF25
 2960 0146 09       		.byte	0x9
 2961 0147 2D       		.byte	0x2d
 2962 0148 E4000000 		.4byte	0xe4
 2963 014c 00       		.byte	0
 2964 014d 0B       		.uleb128 0xb
 2965 014e 5A120000 		.4byte	.LASF26
 2966 0152 09       		.byte	0x9
 2967 0153 2E       		.byte	0x2e
 2968 0154 E4000000 		.4byte	0xe4
 2969 0158 04       		.byte	0x4
 2970 0159 0B       		.uleb128 0xb
 2971 015a 420C0000 		.4byte	.LASF27
 2972 015e 09       		.byte	0x9
 2973 015f 2F       		.byte	0x2f
 2974 0160 13010000 		.4byte	0x113
 2975 0164 08       		.byte	0x8
 2976 0165 0B       		.uleb128 0xb
 2977 0166 C31C0000 		.4byte	.LASF28
 2978 016a 09       		.byte	0x9
 2979 016b 30       		.byte	0x30
 2980 016c 8D010000 		.4byte	0x18d
 2981 0170 0C       		.byte	0xc
 2982 0171 0B       		.uleb128 0xb
 2983 0172 9A170000 		.4byte	.LASF29
 2984 0176 09       		.byte	0x9
 2985 0177 31       		.byte	0x31
 2986 0178 D9000000 		.4byte	0xd9
 2987 017c 10       		.byte	0x10
 2988 017d 0C       		.uleb128 0xc
 2989 017e 02150000 		.4byte	.LASF45
 2990 0182 09       		.byte	0x9
 2991 0183 32       		.byte	0x32
 2992 0184 E4000000 		.4byte	0xe4
 2993 0188 04       		.byte	0x4
 2994 0189 01       		.byte	0x1
 2995 018a 1F       		.byte	0x1f
 2996 018b 14       		.byte	0x14
 2997 018c 00       		.byte	0
 2998 018d 0D       		.uleb128 0xd
 2999 018e 04       		.byte	0x4
 3000 018f 02       		.uleb128 0x2
 3001 0190 84010000 		.4byte	.LASF30
 3002 0194 09       		.byte	0x9
 3003 0195 33       		.byte	0x33
 3004 0196 35010000 		.4byte	0x135
 3005 019a 02       		.uleb128 0x2
 3006 019b CB0E0000 		.4byte	.LASF31
 3007 019f 0A       		.byte	0xa
 3008 01a0 D8       		.byte	0xd8
ARM GAS  C:\Users\haske\AppData\Local\Temp\ccIkbvey.s 			page 92


 3009 01a1 A6000000 		.4byte	0xa6
 3010 01a5 03       		.uleb128 0x3
 3011 01a6 08       		.byte	0x8
 3012 01a7 04       		.byte	0x4
 3013 01a8 3D1D0000 		.4byte	.LASF32
 3014 01ac 03       		.uleb128 0x3
 3015 01ad 04       		.byte	0x4
 3016 01ae 07       		.byte	0x7
 3017 01af D4160000 		.4byte	.LASF33
 3018 01b3 03       		.uleb128 0x3
 3019 01b4 01       		.byte	0x1
 3020 01b5 08       		.byte	0x8
 3021 01b6 A31E0000 		.4byte	.LASF34
 3022 01ba 02       		.uleb128 0x2
 3023 01bb 5D0D0000 		.4byte	.LASF35
 3024 01bf 05       		.byte	0x5
 3025 01c0 1B       		.byte	0x1b
 3026 01c1 C3000000 		.4byte	0xc3
 3027 01c5 0E       		.uleb128 0xe
 3028 01c6 04       		.byte	0x4
 3029 01c7 05       		.byte	0x5
 3030 01c8 25       		.byte	0x25
 3031 01c9 E2010000 		.4byte	0x1e2
 3032 01cd 0F       		.uleb128 0xf
 3033 01ce 7800     		.ascii	"x\000"
 3034 01d0 05       		.byte	0x5
 3035 01d1 26       		.byte	0x26
 3036 01d2 BA010000 		.4byte	0x1ba
 3037 01d6 00       		.byte	0
 3038 01d7 0F       		.uleb128 0xf
 3039 01d8 7900     		.ascii	"y\000"
 3040 01da 05       		.byte	0x5
 3041 01db 27       		.byte	0x27
 3042 01dc BA010000 		.4byte	0x1ba
 3043 01e0 02       		.byte	0x2
 3044 01e1 00       		.byte	0
 3045 01e2 02       		.uleb128 0x2
 3046 01e3 D60A0000 		.4byte	.LASF36
 3047 01e7 05       		.byte	0x5
 3048 01e8 28       		.byte	0x28
 3049 01e9 C5010000 		.4byte	0x1c5
 3050 01ed 0E       		.uleb128 0xe
 3051 01ee 08       		.byte	0x8
 3052 01ef 05       		.byte	0x5
 3053 01f0 2B       		.byte	0x2b
 3054 01f1 22020000 		.4byte	0x222
 3055 01f5 0F       		.uleb128 0xf
 3056 01f6 783100   		.ascii	"x1\000"
 3057 01f9 05       		.byte	0x5
 3058 01fa 2C       		.byte	0x2c
 3059 01fb BA010000 		.4byte	0x1ba
 3060 01ff 00       		.byte	0
 3061 0200 0F       		.uleb128 0xf
 3062 0201 793100   		.ascii	"y1\000"
 3063 0204 05       		.byte	0x5
 3064 0205 2D       		.byte	0x2d
 3065 0206 BA010000 		.4byte	0x1ba
ARM GAS  C:\Users\haske\AppData\Local\Temp\ccIkbvey.s 			page 93


 3066 020a 02       		.byte	0x2
 3067 020b 0F       		.uleb128 0xf
 3068 020c 783200   		.ascii	"x2\000"
 3069 020f 05       		.byte	0x5
 3070 0210 2E       		.byte	0x2e
 3071 0211 BA010000 		.4byte	0x1ba
 3072 0215 04       		.byte	0x4
 3073 0216 0F       		.uleb128 0xf
 3074 0217 793200   		.ascii	"y2\000"
 3075 021a 05       		.byte	0x5
 3076 021b 2F       		.byte	0x2f
 3077 021c BA010000 		.4byte	0x1ba
 3078 0220 06       		.byte	0x6
 3079 0221 00       		.byte	0
 3080 0222 02       		.uleb128 0x2
 3081 0223 93180000 		.4byte	.LASF37
 3082 0227 05       		.byte	0x5
 3083 0228 30       		.byte	0x30
 3084 0229 ED010000 		.4byte	0x1ed
 3085 022d 02       		.uleb128 0x2
 3086 022e F6000000 		.4byte	.LASF38
 3087 0232 05       		.byte	0x5
 3088 0233 59       		.byte	0x59
 3089 0234 B8000000 		.4byte	0xb8
 3090 0238 0E       		.uleb128 0xe
 3091 0239 10       		.byte	0x10
 3092 023a 0B       		.byte	0xb
 3093 023b 29       		.byte	0x29
 3094 023c A7020000 		.4byte	0x2a7
 3095 0240 0B       		.uleb128 0xb
 3096 0241 EB040000 		.4byte	.LASF39
 3097 0245 0B       		.byte	0xb
 3098 0246 2B       		.byte	0x2b
 3099 0247 2F030000 		.4byte	0x32f
 3100 024b 00       		.byte	0
 3101 024c 0B       		.uleb128 0xb
 3102 024d 34140000 		.4byte	.LASF40
 3103 0251 0B       		.byte	0xb
 3104 0252 2C       		.byte	0x2c
 3105 0253 CE000000 		.4byte	0xce
 3106 0257 04       		.byte	0x4
 3107 0258 0B       		.uleb128 0xb
 3108 0259 040C0000 		.4byte	.LASF41
 3109 025d 0B       		.byte	0xb
 3110 025e 2D       		.byte	0x2d
 3111 025f CE000000 		.4byte	0xce
 3112 0263 06       		.byte	0x6
 3113 0264 0B       		.uleb128 0xb
 3114 0265 C10B0000 		.4byte	.LASF42
 3115 0269 0B       		.byte	0xb
 3116 026a 2E       		.byte	0x2e
 3117 026b CE000000 		.4byte	0xce
 3118 026f 08       		.byte	0x8
 3119 0270 0B       		.uleb128 0xb
 3120 0271 05170000 		.4byte	.LASF43
 3121 0275 0B       		.byte	0xb
 3122 0276 2F       		.byte	0x2f
ARM GAS  C:\Users\haske\AppData\Local\Temp\ccIkbvey.s 			page 94


 3123 0277 C3000000 		.4byte	0xc3
 3124 027b 0A       		.byte	0xa
 3125 027c 0B       		.uleb128 0xb
 3126 027d 0B170000 		.4byte	.LASF44
 3127 0281 0B       		.byte	0xb
 3128 0282 30       		.byte	0x30
 3129 0283 C3000000 		.4byte	0xc3
 3130 0287 0C       		.byte	0xc
 3131 0288 10       		.uleb128 0x10
 3132 0289 62707000 		.ascii	"bpp\000"
 3133 028d 0B       		.byte	0xb
 3134 028e 31       		.byte	0x31
 3135 028f B8000000 		.4byte	0xb8
 3136 0293 01       		.byte	0x1
 3137 0294 04       		.byte	0x4
 3138 0295 04       		.byte	0x4
 3139 0296 0E       		.byte	0xe
 3140 0297 0C       		.uleb128 0xc
 3141 0298 6F1C0000 		.4byte	.LASF46
 3142 029c 0B       		.byte	0xb
 3143 029d 32       		.byte	0x32
 3144 029e B8000000 		.4byte	0xb8
 3145 02a2 01       		.byte	0x1
 3146 02a3 01       		.byte	0x1
 3147 02a4 03       		.byte	0x3
 3148 02a5 0E       		.byte	0xe
 3149 02a6 00       		.byte	0
 3150 02a7 0A       		.uleb128 0xa
 3151 02a8 E0240000 		.4byte	.LASF48
 3152 02ac 1C       		.byte	0x1c
 3153 02ad 0B       		.byte	0xb
 3154 02ae 40       		.byte	0x40
 3155 02af 2F030000 		.4byte	0x32f
 3156 02b3 0B       		.uleb128 0xb
 3157 02b4 B4220000 		.4byte	.LASF49
 3158 02b8 0B       		.byte	0xb
 3159 02b9 42       		.byte	0x42
 3160 02ba 70030000 		.4byte	0x370
 3161 02be 00       		.byte	0
 3162 02bf 0B       		.uleb128 0xb
 3163 02c0 411C0000 		.4byte	.LASF50
 3164 02c4 0B       		.byte	0xb
 3165 02c5 45       		.byte	0x45
 3166 02c6 95030000 		.4byte	0x395
 3167 02ca 04       		.byte	0x4
 3168 02cb 0B       		.uleb128 0xb
 3169 02cc E7190000 		.4byte	.LASF51
 3170 02d0 0B       		.byte	0xb
 3171 02d1 48       		.byte	0x48
 3172 02d2 BA010000 		.4byte	0x1ba
 3173 02d6 08       		.byte	0x8
 3174 02d7 0B       		.uleb128 0xb
 3175 02d8 E11F0000 		.4byte	.LASF52
 3176 02dc 0B       		.byte	0xb
 3177 02dd 49       		.byte	0x49
 3178 02de BA010000 		.4byte	0x1ba
 3179 02e2 0A       		.byte	0xa
ARM GAS  C:\Users\haske\AppData\Local\Temp\ccIkbvey.s 			page 95


 3180 02e3 0C       		.uleb128 0xc
 3181 02e4 A4030000 		.4byte	.LASF53
 3182 02e8 0B       		.byte	0xb
 3183 02e9 4A       		.byte	0x4a
 3184 02ea B8000000 		.4byte	0xb8
 3185 02ee 01       		.byte	0x1
 3186 02ef 02       		.byte	0x2
 3187 02f0 06       		.byte	0x6
 3188 02f1 0C       		.byte	0xc
 3189 02f2 0B       		.uleb128 0xb
 3190 02f3 220A0000 		.4byte	.LASF54
 3191 02f7 0B       		.byte	0xb
 3192 02f8 4C       		.byte	0x4c
 3193 02f9 AD000000 		.4byte	0xad
 3194 02fd 0D       		.byte	0xd
 3195 02fe 0B       		.uleb128 0xb
 3196 02ff B5010000 		.4byte	.LASF55
 3197 0303 0B       		.byte	0xb
 3198 0304 4D       		.byte	0x4d
 3199 0305 AD000000 		.4byte	0xad
 3200 0309 0E       		.byte	0xe
 3201 030a 0F       		.uleb128 0xf
 3202 030b 64736300 		.ascii	"dsc\000"
 3203 030f 0B       		.byte	0xb
 3204 0310 4F       		.byte	0x4f
 3205 0311 9B030000 		.4byte	0x39b
 3206 0315 10       		.byte	0x10
 3207 0316 0B       		.uleb128 0xb
 3208 0317 8F030000 		.4byte	.LASF56
 3209 031b 0B       		.byte	0xb
 3210 031c 50       		.byte	0x50
 3211 031d 2F030000 		.4byte	0x32f
 3212 0321 14       		.byte	0x14
 3213 0322 0B       		.uleb128 0xb
 3214 0323 C31C0000 		.4byte	.LASF28
 3215 0327 0B       		.byte	0xb
 3216 0328 52       		.byte	0x52
 3217 0329 8D010000 		.4byte	0x18d
 3218 032d 18       		.byte	0x18
 3219 032e 00       		.byte	0
 3220 032f 07       		.uleb128 0x7
 3221 0330 04       		.byte	0x4
 3222 0331 35030000 		.4byte	0x335
 3223 0335 11       		.uleb128 0x11
 3224 0336 A7020000 		.4byte	0x2a7
 3225 033a 02       		.uleb128 0x2
 3226 033b 3E020000 		.4byte	.LASF57
 3227 033f 0B       		.byte	0xb
 3228 0340 33       		.byte	0x33
 3229 0341 38020000 		.4byte	0x238
 3230 0345 12       		.uleb128 0x12
 3231 0346 63030000 		.4byte	0x363
 3232 034a 63030000 		.4byte	0x363
 3233 034e 09       		.uleb128 0x9
 3234 034f 2F030000 		.4byte	0x32f
 3235 0353 09       		.uleb128 0x9
 3236 0354 6A030000 		.4byte	0x36a
ARM GAS  C:\Users\haske\AppData\Local\Temp\ccIkbvey.s 			page 96


 3237 0358 09       		.uleb128 0x9
 3238 0359 E4000000 		.4byte	0xe4
 3239 035d 09       		.uleb128 0x9
 3240 035e E4000000 		.4byte	0xe4
 3241 0362 00       		.byte	0
 3242 0363 03       		.uleb128 0x3
 3243 0364 01       		.byte	0x1
 3244 0365 02       		.byte	0x2
 3245 0366 2B010000 		.4byte	.LASF58
 3246 036a 07       		.uleb128 0x7
 3247 036b 04       		.byte	0x4
 3248 036c 3A030000 		.4byte	0x33a
 3249 0370 07       		.uleb128 0x7
 3250 0371 04       		.byte	0x4
 3251 0372 45030000 		.4byte	0x345
 3252 0376 12       		.uleb128 0x12
 3253 0377 8A030000 		.4byte	0x38a
 3254 037b 8A030000 		.4byte	0x38a
 3255 037f 09       		.uleb128 0x9
 3256 0380 2F030000 		.4byte	0x32f
 3257 0384 09       		.uleb128 0x9
 3258 0385 E4000000 		.4byte	0xe4
 3259 0389 00       		.byte	0
 3260 038a 07       		.uleb128 0x7
 3261 038b 04       		.byte	0x4
 3262 038c 90030000 		.4byte	0x390
 3263 0390 11       		.uleb128 0x11
 3264 0391 B8000000 		.4byte	0xb8
 3265 0395 07       		.uleb128 0x7
 3266 0396 04       		.byte	0x4
 3267 0397 76030000 		.4byte	0x376
 3268 039b 07       		.uleb128 0x7
 3269 039c 04       		.byte	0x4
 3270 039d A1030000 		.4byte	0x3a1
 3271 03a1 13       		.uleb128 0x13
 3272 03a2 02       		.uleb128 0x2
 3273 03a3 941A0000 		.4byte	.LASF59
 3274 03a7 0B       		.byte	0xb
 3275 03a8 54       		.byte	0x54
 3276 03a9 A7020000 		.4byte	0x2a7
 3277 03ad 0E       		.uleb128 0xe
 3278 03ae 02       		.byte	0x2
 3279 03af 02       		.byte	0x2
 3280 03b0 D1       		.byte	0xd1
 3281 03b1 E3030000 		.4byte	0x3e3
 3282 03b5 0C       		.uleb128 0xc
 3283 03b6 77290000 		.4byte	.LASF60
 3284 03ba 02       		.byte	0x2
 3285 03bb D3       		.byte	0xd3
 3286 03bc CE000000 		.4byte	0xce
 3287 03c0 02       		.byte	0x2
 3288 03c1 05       		.byte	0x5
 3289 03c2 0B       		.byte	0xb
 3290 03c3 00       		.byte	0
 3291 03c4 0C       		.uleb128 0xc
 3292 03c5 8D180000 		.4byte	.LASF61
 3293 03c9 02       		.byte	0x2
ARM GAS  C:\Users\haske\AppData\Local\Temp\ccIkbvey.s 			page 97


 3294 03ca D4       		.byte	0xd4
 3295 03cb CE000000 		.4byte	0xce
 3296 03cf 02       		.byte	0x2
 3297 03d0 06       		.byte	0x6
 3298 03d1 05       		.byte	0x5
 3299 03d2 00       		.byte	0
 3300 03d3 10       		.uleb128 0x10
 3301 03d4 72656400 		.ascii	"red\000"
 3302 03d8 02       		.byte	0x2
 3303 03d9 D5       		.byte	0xd5
 3304 03da CE000000 		.4byte	0xce
 3305 03de 02       		.byte	0x2
 3306 03df 05       		.byte	0x5
 3307 03e0 00       		.byte	0
 3308 03e1 00       		.byte	0
 3309 03e2 00       		.byte	0
 3310 03e3 14       		.uleb128 0x14
 3311 03e4 02       		.byte	0x2
 3312 03e5 02       		.byte	0x2
 3313 03e6 D0       		.byte	0xd0
 3314 03e7 01040000 		.4byte	0x401
 3315 03eb 15       		.uleb128 0x15
 3316 03ec 636800   		.ascii	"ch\000"
 3317 03ef 02       		.byte	0x2
 3318 03f0 DC       		.byte	0xdc
 3319 03f1 AD030000 		.4byte	0x3ad
 3320 03f5 16       		.uleb128 0x16
 3321 03f6 00190000 		.4byte	.LASF62
 3322 03fa 02       		.byte	0x2
 3323 03fb DD       		.byte	0xdd
 3324 03fc CE000000 		.4byte	0xce
 3325 0400 00       		.byte	0
 3326 0401 02       		.uleb128 0x2
 3327 0402 350C0000 		.4byte	.LASF63
 3328 0406 02       		.byte	0x2
 3329 0407 DE       		.byte	0xde
 3330 0408 E3030000 		.4byte	0x3e3
 3331 040c 0E       		.uleb128 0xe
 3332 040d 04       		.byte	0x4
 3333 040e 02       		.byte	0x2
 3334 040f E1       		.byte	0xe1
 3335 0410 45040000 		.4byte	0x445
 3336 0414 0B       		.uleb128 0xb
 3337 0415 77290000 		.4byte	.LASF60
 3338 0419 02       		.byte	0x2
 3339 041a E2       		.byte	0xe2
 3340 041b B8000000 		.4byte	0xb8
 3341 041f 00       		.byte	0
 3342 0420 0B       		.uleb128 0xb
 3343 0421 8D180000 		.4byte	.LASF61
 3344 0425 02       		.byte	0x2
 3345 0426 E3       		.byte	0xe3
 3346 0427 B8000000 		.4byte	0xb8
 3347 042b 01       		.byte	0x1
 3348 042c 0F       		.uleb128 0xf
 3349 042d 72656400 		.ascii	"red\000"
 3350 0431 02       		.byte	0x2
ARM GAS  C:\Users\haske\AppData\Local\Temp\ccIkbvey.s 			page 98


 3351 0432 E4       		.byte	0xe4
 3352 0433 B8000000 		.4byte	0xb8
 3353 0437 02       		.byte	0x2
 3354 0438 0B       		.uleb128 0xb
 3355 0439 77280000 		.4byte	.LASF64
 3356 043d 02       		.byte	0x2
 3357 043e E5       		.byte	0xe5
 3358 043f B8000000 		.4byte	0xb8
 3359 0443 03       		.byte	0x3
 3360 0444 00       		.byte	0
 3361 0445 14       		.uleb128 0x14
 3362 0446 04       		.byte	0x4
 3363 0447 02       		.byte	0x2
 3364 0448 E0       		.byte	0xe0
 3365 0449 63040000 		.4byte	0x463
 3366 044d 15       		.uleb128 0x15
 3367 044e 636800   		.ascii	"ch\000"
 3368 0451 02       		.byte	0x2
 3369 0452 E6       		.byte	0xe6
 3370 0453 0C040000 		.4byte	0x40c
 3371 0457 16       		.uleb128 0x16
 3372 0458 00190000 		.4byte	.LASF62
 3373 045c 02       		.byte	0x2
 3374 045d E7       		.byte	0xe7
 3375 045e E4000000 		.4byte	0xe4
 3376 0462 00       		.byte	0
 3377 0463 02       		.uleb128 0x2
 3378 0464 65270000 		.4byte	.LASF65
 3379 0468 02       		.byte	0x2
 3380 0469 E8       		.byte	0xe8
 3381 046a 45040000 		.4byte	0x445
 3382 046e 02       		.uleb128 0x2
 3383 046f B60B0000 		.4byte	.LASF66
 3384 0473 02       		.byte	0x2
 3385 0474 EB       		.byte	0xeb
 3386 0475 01040000 		.4byte	0x401
 3387 0479 0E       		.uleb128 0xe
 3388 047a 04       		.byte	0x4
 3389 047b 02       		.byte	0x2
 3390 047c ED       		.byte	0xed
 3391 047d A0040000 		.4byte	0x4a0
 3392 0481 0F       		.uleb128 0xf
 3393 0482 6800     		.ascii	"h\000"
 3394 0484 02       		.byte	0x2
 3395 0485 EE       		.byte	0xee
 3396 0486 CE000000 		.4byte	0xce
 3397 048a 00       		.byte	0
 3398 048b 0F       		.uleb128 0xf
 3399 048c 7300     		.ascii	"s\000"
 3400 048e 02       		.byte	0x2
 3401 048f EF       		.byte	0xef
 3402 0490 B8000000 		.4byte	0xb8
 3403 0494 02       		.byte	0x2
 3404 0495 0F       		.uleb128 0xf
 3405 0496 7600     		.ascii	"v\000"
 3406 0498 02       		.byte	0x2
 3407 0499 F0       		.byte	0xf0
ARM GAS  C:\Users\haske\AppData\Local\Temp\ccIkbvey.s 			page 99


 3408 049a B8000000 		.4byte	0xb8
 3409 049e 03       		.byte	0x3
 3410 049f 00       		.byte	0
 3411 04a0 02       		.uleb128 0x2
 3412 04a1 C22B0000 		.4byte	.LASF67
 3413 04a5 02       		.byte	0x2
 3414 04a6 F1       		.byte	0xf1
 3415 04a7 79040000 		.4byte	0x479
 3416 04ab 02       		.uleb128 0x2
 3417 04ac CD1C0000 		.4byte	.LASF68
 3418 04b0 02       		.byte	0x2
 3419 04b1 F5       		.byte	0xf5
 3420 04b2 B8000000 		.4byte	0xb8
 3421 04b6 02       		.uleb128 0x2
 3422 04b7 0A0C0000 		.4byte	.LASF69
 3423 04bb 0C       		.byte	0xc
 3424 04bc 30       		.byte	0x30
 3425 04bd B8000000 		.4byte	0xb8
 3426 04c1 02       		.uleb128 0x2
 3427 04c2 D6000000 		.4byte	.LASF70
 3428 04c6 0C       		.byte	0xc
 3429 04c7 42       		.byte	0x42
 3430 04c8 B8000000 		.4byte	0xb8
 3431 04cc 02       		.uleb128 0x2
 3432 04cd 91210000 		.4byte	.LASF71
 3433 04d1 0D       		.byte	0xd
 3434 04d2 2A       		.byte	0x2a
 3435 04d3 B8000000 		.4byte	0xb8
 3436 04d7 02       		.uleb128 0x2
 3437 04d8 BE280000 		.4byte	.LASF72
 3438 04dc 0E       		.byte	0xe
 3439 04dd 5E       		.byte	0x5e
 3440 04de B8000000 		.4byte	0xb8
 3441 04e2 02       		.uleb128 0x2
 3442 04e3 8F0A0000 		.4byte	.LASF73
 3443 04e7 0E       		.byte	0xe
 3444 04e8 6A       		.byte	0x6a
 3445 04e9 B8000000 		.4byte	0xb8
 3446 04ed 02       		.uleb128 0x2
 3447 04ee 110A0000 		.4byte	.LASF74
 3448 04f2 0E       		.byte	0xe
 3449 04f3 79       		.byte	0x79
 3450 04f4 B8000000 		.4byte	0xb8
 3451 04f8 02       		.uleb128 0x2
 3452 04f9 51080000 		.4byte	.LASF75
 3453 04fd 0E       		.byte	0xe
 3454 04fe 84       		.byte	0x84
 3455 04ff B8000000 		.4byte	0xb8
 3456 0503 02       		.uleb128 0x2
 3457 0504 9F210000 		.4byte	.LASF76
 3458 0508 0E       		.byte	0xe
 3459 0509 90       		.byte	0x90
 3460 050a B8000000 		.4byte	0xb8
 3461 050e 0E       		.uleb128 0xe
 3462 050f 04       		.byte	0x4
 3463 0510 0E       		.byte	0xe
 3464 0511 95       		.byte	0x95
ARM GAS  C:\Users\haske\AppData\Local\Temp\ccIkbvey.s 			page 100


 3465 0512 2F050000 		.4byte	0x52f
 3466 0516 0B       		.uleb128 0xb
 3467 0517 A81F0000 		.4byte	.LASF77
 3468 051b 0E       		.byte	0xe
 3469 051c 96       		.byte	0x96
 3470 051d 6E040000 		.4byte	0x46e
 3471 0521 00       		.byte	0
 3472 0522 0B       		.uleb128 0xb
 3473 0523 98030000 		.4byte	.LASF78
 3474 0527 0E       		.byte	0xe
 3475 0528 97       		.byte	0x97
 3476 0529 B8000000 		.4byte	0xb8
 3477 052d 02       		.byte	0x2
 3478 052e 00       		.byte	0
 3479 052f 02       		.uleb128 0x2
 3480 0530 BB170000 		.4byte	.LASF79
 3481 0534 0E       		.byte	0xe
 3482 0535 98       		.byte	0x98
 3483 0536 0E050000 		.4byte	0x50e
 3484 053a 0E       		.uleb128 0xe
 3485 053b 0A       		.byte	0xa
 3486 053c 0E       		.byte	0xe
 3487 053d 9B       		.byte	0x9b
 3488 053e 79050000 		.4byte	0x579
 3489 0542 0B       		.uleb128 0xb
 3490 0543 3C270000 		.4byte	.LASF80
 3491 0547 0E       		.byte	0xe
 3492 0548 9C       		.byte	0x9c
 3493 0549 79050000 		.4byte	0x579
 3494 054d 00       		.byte	0
 3495 054e 0B       		.uleb128 0xb
 3496 054f E1120000 		.4byte	.LASF81
 3497 0553 0E       		.byte	0xe
 3498 0554 9D       		.byte	0x9d
 3499 0555 B8000000 		.4byte	0xb8
 3500 0559 08       		.byte	0x8
 3501 055a 10       		.uleb128 0x10
 3502 055b 64697200 		.ascii	"dir\000"
 3503 055f 0E       		.byte	0xe
 3504 0560 9E       		.byte	0x9e
 3505 0561 F8040000 		.4byte	0x4f8
 3506 0565 01       		.byte	0x1
 3507 0566 03       		.byte	0x3
 3508 0567 05       		.byte	0x5
 3509 0568 09       		.byte	0x9
 3510 0569 0C       		.uleb128 0xc
 3511 056a DF270000 		.4byte	.LASF82
 3512 056e 0E       		.byte	0xe
 3513 056f A0       		.byte	0xa0
 3514 0570 03050000 		.4byte	0x503
 3515 0574 01       		.byte	0x1
 3516 0575 03       		.byte	0x3
 3517 0576 02       		.byte	0x2
 3518 0577 09       		.byte	0x9
 3519 0578 00       		.byte	0
 3520 0579 17       		.uleb128 0x17
 3521 057a 2F050000 		.4byte	0x52f
ARM GAS  C:\Users\haske\AppData\Local\Temp\ccIkbvey.s 			page 101


 3522 057e 89050000 		.4byte	0x589
 3523 0582 18       		.uleb128 0x18
 3524 0583 AC010000 		.4byte	0x1ac
 3525 0587 01       		.byte	0x1
 3526 0588 00       		.byte	0
 3527 0589 02       		.uleb128 0x2
 3528 058a 15190000 		.4byte	.LASF83
 3529 058e 0E       		.byte	0xe
 3530 058f A2       		.byte	0xa2
 3531 0590 3A050000 		.4byte	0x53a
 3532 0594 14       		.uleb128 0x14
 3533 0595 04       		.byte	0x4
 3534 0596 0E       		.byte	0xe
 3535 0597 A7       		.byte	0xa7
 3536 0598 BE050000 		.4byte	0x5be
 3537 059c 15       		.uleb128 0x15
 3538 059d 6E756D00 		.ascii	"num\000"
 3539 05a1 0E       		.byte	0xe
 3540 05a2 A8       		.byte	0xa8
 3541 05a3 D9000000 		.4byte	0xd9
 3542 05a7 15       		.uleb128 0x15
 3543 05a8 70747200 		.ascii	"ptr\000"
 3544 05ac 0E       		.byte	0xe
 3545 05ad A9       		.byte	0xa9
 3546 05ae 9B030000 		.4byte	0x39b
 3547 05b2 16       		.uleb128 0x16
 3548 05b3 A81F0000 		.4byte	.LASF77
 3549 05b7 0E       		.byte	0xe
 3550 05b8 AA       		.byte	0xaa
 3551 05b9 6E040000 		.4byte	0x46e
 3552 05bd 00       		.byte	0
 3553 05be 02       		.uleb128 0x2
 3554 05bf D2290000 		.4byte	.LASF84
 3555 05c3 0E       		.byte	0xe
 3556 05c4 AB       		.byte	0xab
 3557 05c5 94050000 		.4byte	0x594
 3558 05c9 05       		.uleb128 0x5
 3559 05ca 02       		.byte	0x2
 3560 05cb 66000000 		.4byte	0x66
 3561 05cf 0E       		.byte	0xe
 3562 05d0 B2       		.byte	0xb2
 3563 05d1 EE070000 		.4byte	0x7ee
 3564 05d5 06       		.uleb128 0x6
 3565 05d6 D42A0000 		.4byte	.LASF85
 3566 05da 00       		.byte	0
 3567 05db 06       		.uleb128 0x6
 3568 05dc 0B1F0000 		.4byte	.LASF86
 3569 05e0 01       		.byte	0x1
 3570 05e1 06       		.uleb128 0x6
 3571 05e2 0D060000 		.4byte	.LASF87
 3572 05e6 02       		.byte	0x2
 3573 05e7 06       		.uleb128 0x6
 3574 05e8 FD030000 		.4byte	.LASF88
 3575 05ec 03       		.byte	0x3
 3576 05ed 06       		.uleb128 0x6
 3577 05ee 39070000 		.4byte	.LASF89
 3578 05f2 04       		.byte	0x4
ARM GAS  C:\Users\haske\AppData\Local\Temp\ccIkbvey.s 			page 102


 3579 05f3 06       		.uleb128 0x6
 3580 05f4 BE2C0000 		.4byte	.LASF90
 3581 05f8 05       		.byte	0x5
 3582 05f9 06       		.uleb128 0x6
 3583 05fa CD1B0000 		.4byte	.LASF91
 3584 05fe 06       		.byte	0x6
 3585 05ff 06       		.uleb128 0x6
 3586 0600 AF060000 		.4byte	.LASF92
 3587 0604 07       		.byte	0x7
 3588 0605 06       		.uleb128 0x6
 3589 0606 BA060000 		.4byte	.LASF93
 3590 060a 08       		.byte	0x8
 3591 060b 06       		.uleb128 0x6
 3592 060c 9A160000 		.4byte	.LASF94
 3593 0610 09       		.byte	0x9
 3594 0611 06       		.uleb128 0x6
 3595 0612 8A000000 		.4byte	.LASF95
 3596 0616 0A       		.byte	0xa
 3597 0617 06       		.uleb128 0x6
 3598 0618 15230000 		.4byte	.LASF96
 3599 061c 0B       		.byte	0xb
 3600 061d 06       		.uleb128 0x6
 3601 061e 9E200000 		.4byte	.LASF97
 3602 0622 10       		.byte	0x10
 3603 0623 06       		.uleb128 0x6
 3604 0624 11270000 		.4byte	.LASF98
 3605 0628 11       		.byte	0x11
 3606 0629 06       		.uleb128 0x6
 3607 062a 25220000 		.4byte	.LASF99
 3608 062e 12       		.byte	0x12
 3609 062f 06       		.uleb128 0x6
 3610 0630 A3150000 		.4byte	.LASF100
 3611 0634 13       		.byte	0x13
 3612 0635 06       		.uleb128 0x6
 3613 0636 C3160000 		.4byte	.LASF101
 3614 063a 14       		.byte	0x14
 3615 063b 06       		.uleb128 0x6
 3616 063c 2A020000 		.4byte	.LASF102
 3617 0640 15       		.byte	0x15
 3618 0641 06       		.uleb128 0x6
 3619 0642 91150000 		.4byte	.LASF103
 3620 0646 16       		.byte	0x16
 3621 0647 06       		.uleb128 0x6
 3622 0648 1A250000 		.4byte	.LASF104
 3623 064c 17       		.byte	0x17
 3624 064d 06       		.uleb128 0x6
 3625 064e FC270000 		.4byte	.LASF105
 3626 0652 20       		.byte	0x20
 3627 0653 06       		.uleb128 0x6
 3628 0654 DD160000 		.4byte	.LASF106
 3629 0658 21       		.byte	0x21
 3630 0659 06       		.uleb128 0x6
 3631 065a D5060000 		.4byte	.LASF107
 3632 065e 22       		.byte	0x22
 3633 065f 06       		.uleb128 0x6
 3634 0660 A5070000 		.4byte	.LASF108
 3635 0664 23       		.byte	0x23
ARM GAS  C:\Users\haske\AppData\Local\Temp\ccIkbvey.s 			page 103


 3636 0665 06       		.uleb128 0x6
 3637 0666 DC010000 		.4byte	.LASF109
 3638 066a 24       		.byte	0x24
 3639 066b 06       		.uleb128 0x6
 3640 066c 58110000 		.4byte	.LASF110
 3641 0670 25       		.byte	0x25
 3642 0671 06       		.uleb128 0x6
 3643 0672 7B170000 		.4byte	.LASF111
 3644 0676 26       		.byte	0x26
 3645 0677 06       		.uleb128 0x6
 3646 0678 2C0F0000 		.4byte	.LASF112
 3647 067c 27       		.byte	0x27
 3648 067d 06       		.uleb128 0x6
 3649 067e 19150000 		.4byte	.LASF113
 3650 0682 28       		.byte	0x28
 3651 0683 06       		.uleb128 0x6
 3652 0684 E0020000 		.4byte	.LASF114
 3653 0688 29       		.byte	0x29
 3654 0689 06       		.uleb128 0x6
 3655 068a 770A0000 		.4byte	.LASF115
 3656 068e 2A       		.byte	0x2a
 3657 068f 06       		.uleb128 0x6
 3658 0690 29280000 		.4byte	.LASF116
 3659 0694 2B       		.byte	0x2b
 3660 0695 06       		.uleb128 0x6
 3661 0696 D5140000 		.4byte	.LASF117
 3662 069a 2C       		.byte	0x2c
 3663 069b 06       		.uleb128 0x6
 3664 069c E6270000 		.4byte	.LASF118
 3665 06a0 30       		.byte	0x30
 3666 06a1 06       		.uleb128 0x6
 3667 06a2 A7170000 		.4byte	.LASF119
 3668 06a6 31       		.byte	0x31
 3669 06a7 06       		.uleb128 0x6
 3670 06a8 5A180000 		.4byte	.LASF120
 3671 06ac 32       		.byte	0x32
 3672 06ad 06       		.uleb128 0x6
 3673 06ae 160E0000 		.4byte	.LASF121
 3674 06b2 33       		.byte	0x33
 3675 06b3 06       		.uleb128 0x6
 3676 06b4 35200000 		.4byte	.LASF122
 3677 06b8 34       		.byte	0x34
 3678 06b9 06       		.uleb128 0x6
 3679 06ba 40130000 		.4byte	.LASF123
 3680 06be 35       		.byte	0x35
 3681 06bf 06       		.uleb128 0x6
 3682 06c0 AC230000 		.4byte	.LASF124
 3683 06c4 36       		.byte	0x36
 3684 06c5 06       		.uleb128 0x6
 3685 06c6 282C0000 		.4byte	.LASF125
 3686 06ca 37       		.byte	0x37
 3687 06cb 06       		.uleb128 0x6
 3688 06cc D7250000 		.4byte	.LASF126
 3689 06d0 38       		.byte	0x38
 3690 06d1 06       		.uleb128 0x6
 3691 06d2 D22C0000 		.4byte	.LASF127
 3692 06d6 40       		.byte	0x40
ARM GAS  C:\Users\haske\AppData\Local\Temp\ccIkbvey.s 			page 104


 3693 06d7 06       		.uleb128 0x6
 3694 06d8 211E0000 		.4byte	.LASF128
 3695 06dc 41       		.byte	0x41
 3696 06dd 06       		.uleb128 0x6
 3697 06de 371E0000 		.4byte	.LASF129
 3698 06e2 42       		.byte	0x42
 3699 06e3 06       		.uleb128 0x6
 3700 06e4 811F0000 		.4byte	.LASF130
 3701 06e8 43       		.byte	0x43
 3702 06e9 06       		.uleb128 0x6
 3703 06ea 470D0000 		.4byte	.LASF131
 3704 06ee 44       		.byte	0x44
 3705 06ef 06       		.uleb128 0x6
 3706 06f0 2D1C0000 		.4byte	.LASF132
 3707 06f4 45       		.byte	0x45
 3708 06f5 06       		.uleb128 0x6
 3709 06f6 14260000 		.4byte	.LASF133
 3710 06fa 46       		.byte	0x46
 3711 06fb 06       		.uleb128 0x6
 3712 06fc EE090000 		.4byte	.LASF134
 3713 0700 47       		.byte	0x47
 3714 0701 06       		.uleb128 0x6
 3715 0702 BE260000 		.4byte	.LASF135
 3716 0706 48       		.byte	0x48
 3717 0707 06       		.uleb128 0x6
 3718 0708 DA030000 		.4byte	.LASF136
 3719 070c 49       		.byte	0x49
 3720 070d 06       		.uleb128 0x6
 3721 070e 130F0000 		.4byte	.LASF137
 3722 0712 4A       		.byte	0x4a
 3723 0713 06       		.uleb128 0x6
 3724 0714 44220000 		.4byte	.LASF138
 3725 0718 4B       		.byte	0x4b
 3726 0719 06       		.uleb128 0x6
 3727 071a 24040000 		.4byte	.LASF139
 3728 071e 4C       		.byte	0x4c
 3729 071f 06       		.uleb128 0x6
 3730 0720 B8110000 		.4byte	.LASF140
 3731 0724 4D       		.byte	0x4d
 3732 0725 06       		.uleb128 0x6
 3733 0726 771E0000 		.4byte	.LASF141
 3734 072a 4E       		.byte	0x4e
 3735 072b 06       		.uleb128 0x6
 3736 072c 082C0000 		.4byte	.LASF142
 3737 0730 50       		.byte	0x50
 3738 0731 06       		.uleb128 0x6
 3739 0732 0C1E0000 		.4byte	.LASF143
 3740 0736 51       		.byte	0x51
 3741 0737 06       		.uleb128 0x6
 3742 0738 6B0C0000 		.4byte	.LASF144
 3743 073c 52       		.byte	0x52
 3744 073d 06       		.uleb128 0x6
 3745 073e DD090000 		.4byte	.LASF145
 3746 0742 53       		.byte	0x53
 3747 0743 06       		.uleb128 0x6
 3748 0744 A1250000 		.4byte	.LASF146
 3749 0748 54       		.byte	0x54
ARM GAS  C:\Users\haske\AppData\Local\Temp\ccIkbvey.s 			page 105


 3750 0749 06       		.uleb128 0x6
 3751 074a 0C200000 		.4byte	.LASF147
 3752 074e 55       		.byte	0x55
 3753 074f 06       		.uleb128 0x6
 3754 0750 E10C0000 		.4byte	.LASF148
 3755 0754 56       		.byte	0x56
 3756 0755 06       		.uleb128 0x6
 3757 0756 5E030000 		.4byte	.LASF149
 3758 075a 57       		.byte	0x57
 3759 075b 06       		.uleb128 0x6
 3760 075c 94100000 		.4byte	.LASF150
 3761 0760 58       		.byte	0x58
 3762 0761 06       		.uleb128 0x6
 3763 0762 632A0000 		.4byte	.LASF151
 3764 0766 59       		.byte	0x59
 3765 0767 06       		.uleb128 0x6
 3766 0768 2B0E0000 		.4byte	.LASF152
 3767 076c 5A       		.byte	0x5a
 3768 076d 06       		.uleb128 0x6
 3769 076e F6080000 		.4byte	.LASF153
 3770 0772 5B       		.byte	0x5b
 3771 0773 06       		.uleb128 0x6
 3772 0774 D0040000 		.4byte	.LASF154
 3773 0778 60       		.byte	0x60
 3774 0779 06       		.uleb128 0x6
 3775 077a 682B0000 		.4byte	.LASF155
 3776 077e 61       		.byte	0x61
 3777 077f 06       		.uleb128 0x6
 3778 0780 DE2B0000 		.4byte	.LASF156
 3779 0784 62       		.byte	0x62
 3780 0785 06       		.uleb128 0x6
 3781 0786 66220000 		.4byte	.LASF157
 3782 078a 63       		.byte	0x63
 3783 078b 06       		.uleb128 0x6
 3784 078c 45110000 		.4byte	.LASF158
 3785 0790 64       		.byte	0x64
 3786 0791 06       		.uleb128 0x6
 3787 0792 8B050000 		.4byte	.LASF159
 3788 0796 65       		.byte	0x65
 3789 0797 06       		.uleb128 0x6
 3790 0798 7D150000 		.4byte	.LASF160
 3791 079c 66       		.byte	0x66
 3792 079d 06       		.uleb128 0x6
 3793 079e 20060000 		.4byte	.LASF161
 3794 07a2 67       		.byte	0x67
 3795 07a3 06       		.uleb128 0x6
 3796 07a4 BC030000 		.4byte	.LASF162
 3797 07a8 68       		.byte	0x68
 3798 07a9 06       		.uleb128 0x6
 3799 07aa 52020000 		.4byte	.LASF163
 3800 07ae 69       		.byte	0x69
 3801 07af 06       		.uleb128 0x6
 3802 07b0 49100000 		.4byte	.LASF164
 3803 07b4 6A       		.byte	0x6a
 3804 07b5 06       		.uleb128 0x6
 3805 07b6 5E100000 		.4byte	.LASF165
 3806 07ba 6B       		.byte	0x6b
ARM GAS  C:\Users\haske\AppData\Local\Temp\ccIkbvey.s 			page 106


 3807 07bb 06       		.uleb128 0x6
 3808 07bc 86200000 		.4byte	.LASF166
 3809 07c0 6C       		.byte	0x6c
 3810 07c1 06       		.uleb128 0x6
 3811 07c2 2A230000 		.4byte	.LASF167
 3812 07c6 6D       		.byte	0x6d
 3813 07c7 06       		.uleb128 0x6
 3814 07c8 2C210000 		.4byte	.LASF168
 3815 07cc 6E       		.byte	0x6e
 3816 07cd 06       		.uleb128 0x6
 3817 07ce 47210000 		.4byte	.LASF169
 3818 07d2 6F       		.byte	0x6f
 3819 07d3 06       		.uleb128 0x6
 3820 07d4 9F0A0000 		.4byte	.LASF170
 3821 07d8 6F       		.byte	0x6f
 3822 07d9 06       		.uleb128 0x6
 3823 07da 28110000 		.4byte	.LASF171
 3824 07de 70       		.byte	0x70
 3825 07df 19       		.uleb128 0x19
 3826 07e0 03070000 		.4byte	.LASF172
 3827 07e4 FFFF     		.2byte	0xffff
 3828 07e6 19       		.uleb128 0x19
 3829 07e7 A6040000 		.4byte	.LASF173
 3830 07eb FFFF     		.2byte	0xffff
 3831 07ed 00       		.byte	0
 3832 07ee 1A       		.uleb128 0x1a
 3833 07ef 3A1B0000 		.4byte	.LASF174
 3834 07f3 0E       		.byte	0xe
 3835 07f4 1C01     		.2byte	0x11c
 3836 07f6 C9050000 		.4byte	0x5c9
 3837 07fa 1B       		.uleb128 0x1b
 3838 07fb 08       		.byte	0x8
 3839 07fc 0E       		.byte	0xe
 3840 07fd 3601     		.2byte	0x136
 3841 07ff 1E080000 		.4byte	0x81e
 3842 0803 1C       		.uleb128 0x1c
 3843 0804 C2050000 		.4byte	.LASF175
 3844 0808 0E       		.byte	0xe
 3845 0809 3701     		.2byte	0x137
 3846 080b EE070000 		.4byte	0x7ee
 3847 080f 00       		.byte	0
 3848 0810 1C       		.uleb128 0x1c
 3849 0811 11120000 		.4byte	.LASF176
 3850 0815 0E       		.byte	0xe
 3851 0816 3801     		.2byte	0x138
 3852 0818 BE050000 		.4byte	0x5be
 3853 081c 04       		.byte	0x4
 3854 081d 00       		.byte	0
 3855 081e 1A       		.uleb128 0x1a
 3856 081f 2E160000 		.4byte	.LASF177
 3857 0823 0E       		.byte	0xe
 3858 0824 3901     		.2byte	0x139
 3859 0826 FA070000 		.4byte	0x7fa
 3860 082a 1D       		.uleb128 0x1d
 3861 082b 04       		.byte	0x4
 3862 082c 0E       		.byte	0xe
 3863 082d 4601     		.2byte	0x146
ARM GAS  C:\Users\haske\AppData\Local\Temp\ccIkbvey.s 			page 107


 3864 082f 58080000 		.4byte	0x858
 3865 0833 1E       		.uleb128 0x1e
 3866 0834 9F040000 		.4byte	.LASF178
 3867 0838 0E       		.byte	0xe
 3868 0839 4701     		.2byte	0x147
 3869 083b BE050000 		.4byte	0x5be
 3870 083f 1E       		.uleb128 0x1e
 3871 0840 EF180000 		.4byte	.LASF179
 3872 0844 0E       		.byte	0xe
 3873 0845 4801     		.2byte	0x148
 3874 0847 58080000 		.4byte	0x858
 3875 084b 1E       		.uleb128 0x1e
 3876 084c 6C2C0000 		.4byte	.LASF180
 3877 0850 0E       		.byte	0xe
 3878 0851 4901     		.2byte	0x149
 3879 0853 5E080000 		.4byte	0x85e
 3880 0857 00       		.byte	0
 3881 0858 07       		.uleb128 0x7
 3882 0859 04       		.byte	0x4
 3883 085a B8000000 		.4byte	0xb8
 3884 085e 07       		.uleb128 0x7
 3885 085f 04       		.byte	0x4
 3886 0860 64080000 		.4byte	0x864
 3887 0864 11       		.uleb128 0x11
 3888 0865 1E080000 		.4byte	0x81e
 3889 0869 1B       		.uleb128 0x1b
 3890 086a 08       		.byte	0x8
 3891 086b 0E       		.byte	0xe
 3892 086c 3E01     		.2byte	0x13e
 3893 086e A7080000 		.4byte	0x8a7
 3894 0872 1F       		.uleb128 0x1f
 3895 0873 765F7000 		.ascii	"v_p\000"
 3896 0877 0E       		.byte	0xe
 3897 0878 4A01     		.2byte	0x14a
 3898 087a 2A080000 		.4byte	0x82a
 3899 087e 00       		.byte	0
 3900 087f 1C       		.uleb128 0x1c
 3901 0880 ED150000 		.4byte	.LASF181
 3902 0884 0E       		.byte	0xe
 3903 0885 4C01     		.2byte	0x14c
 3904 0887 CE000000 		.4byte	0xce
 3905 088b 04       		.byte	0x4
 3906 088c 1C       		.uleb128 0x1c
 3907 088d FF000000 		.4byte	.LASF182
 3908 0891 0E       		.byte	0xe
 3909 0892 4D01     		.2byte	0x14d
 3910 0894 B8000000 		.4byte	0xb8
 3911 0898 06       		.byte	0x6
 3912 0899 1C       		.uleb128 0x1c
 3913 089a FE0F0000 		.4byte	.LASF183
 3914 089e 0E       		.byte	0xe
 3915 089f 4E01     		.2byte	0x14e
 3916 08a1 B8000000 		.4byte	0xb8
 3917 08a5 07       		.byte	0x7
 3918 08a6 00       		.byte	0
 3919 08a7 1A       		.uleb128 0x1a
 3920 08a8 AE1F0000 		.4byte	.LASF184
ARM GAS  C:\Users\haske\AppData\Local\Temp\ccIkbvey.s 			page 108


 3921 08ac 0E       		.byte	0xe
 3922 08ad 4F01     		.2byte	0x14f
 3923 08af 69080000 		.4byte	0x869
 3924 08b3 02       		.uleb128 0x2
 3925 08b4 112B0000 		.4byte	.LASF185
 3926 08b8 0F       		.byte	0xf
 3927 08b9 69       		.byte	0x69
 3928 08ba B8000000 		.4byte	0xb8
 3929 08be 07       		.uleb128 0x7
 3930 08bf 04       		.byte	0x4
 3931 08c0 C4080000 		.4byte	0x8c4
 3932 08c4 0A       		.uleb128 0xa
 3933 08c5 57170000 		.4byte	.LASF186
 3934 08c9 24       		.byte	0x24
 3935 08ca 10       		.byte	0x10
 3936 08cb AE       		.byte	0xae
 3937 08cc 8B090000 		.4byte	0x98b
 3938 08d0 0B       		.uleb128 0xb
 3939 08d1 671C0000 		.4byte	.LASF187
 3940 08d5 10       		.byte	0x10
 3941 08d6 AF       		.byte	0xaf
 3942 08d7 33220000 		.4byte	0x2233
 3943 08db 00       		.byte	0
 3944 08dc 0B       		.uleb128 0xb
 3945 08dd 69260000 		.4byte	.LASF188
 3946 08e1 10       		.byte	0x10
 3947 08e2 B0       		.byte	0xb0
 3948 08e3 BE080000 		.4byte	0x8be
 3949 08e7 04       		.byte	0x4
 3950 08e8 0B       		.uleb128 0xb
 3951 08e9 062D0000 		.4byte	.LASF189
 3952 08ed 10       		.byte	0x10
 3953 08ee B1       		.byte	0xb1
 3954 08ef 3E220000 		.4byte	0x223e
 3955 08f3 08       		.byte	0x8
 3956 08f4 0B       		.uleb128 0xb
 3957 08f5 9D030000 		.4byte	.LASF190
 3958 08f9 10       		.byte	0x10
 3959 08fa B2       		.byte	0xb2
 3960 08fb 44220000 		.4byte	0x2244
 3961 08ff 0C       		.byte	0xc
 3962 0900 0B       		.uleb128 0xb
 3963 0901 C31C0000 		.4byte	.LASF28
 3964 0905 10       		.byte	0x10
 3965 0906 B4       		.byte	0xb4
 3966 0907 8D010000 		.4byte	0x18d
 3967 090b 10       		.byte	0x10
 3968 090c 0B       		.uleb128 0xb
 3969 090d 400D0000 		.4byte	.LASF191
 3970 0911 10       		.byte	0x10
 3971 0912 B6       		.byte	0xb6
 3972 0913 22020000 		.4byte	0x222
 3973 0917 14       		.byte	0x14
 3974 0918 0B       		.uleb128 0xb
 3975 0919 482D0000 		.4byte	.LASF192
 3976 091d 10       		.byte	0x10
 3977 091e B7       		.byte	0xb7
ARM GAS  C:\Users\haske\AppData\Local\Temp\ccIkbvey.s 			page 109


 3978 091f 131D0000 		.4byte	0x1d13
 3979 0923 1C       		.byte	0x1c
 3980 0924 0B       		.uleb128 0xb
 3981 0925 A6190000 		.4byte	.LASF193
 3982 0929 10       		.byte	0x10
 3983 092a B8       		.byte	0xb8
 3984 092b BC1B0000 		.4byte	0x1bbc
 3985 092f 20       		.byte	0x20
 3986 0930 0C       		.uleb128 0xc
 3987 0931 86020000 		.4byte	.LASF194
 3988 0935 10       		.byte	0x10
 3989 0936 B9       		.byte	0xb9
 3990 0937 CE000000 		.4byte	0xce
 3991 093b 02       		.byte	0x2
 3992 093c 01       		.byte	0x1
 3993 093d 0F       		.byte	0xf
 3994 093e 22       		.byte	0x22
 3995 093f 0C       		.uleb128 0xc
 3996 0940 9E0D0000 		.4byte	.LASF195
 3997 0944 10       		.byte	0x10
 3998 0945 BA       		.byte	0xba
 3999 0946 CE000000 		.4byte	0xce
 4000 094a 02       		.byte	0x2
 4001 094b 01       		.byte	0x1
 4002 094c 0E       		.byte	0xe
 4003 094d 22       		.byte	0x22
 4004 094e 0C       		.uleb128 0xc
 4005 094f 572C0000 		.4byte	.LASF196
 4006 0953 10       		.byte	0x10
 4007 0954 BB       		.byte	0xbb
 4008 0955 CE000000 		.4byte	0xce
 4009 0959 02       		.byte	0x2
 4010 095a 01       		.byte	0x1
 4011 095b 0D       		.byte	0xd
 4012 095c 22       		.byte	0x22
 4013 095d 0C       		.uleb128 0xc
 4014 095e 57190000 		.4byte	.LASF197
 4015 0962 10       		.byte	0x10
 4016 0963 BC       		.byte	0xbc
 4017 0964 CE000000 		.4byte	0xce
 4018 0968 02       		.byte	0x2
 4019 0969 06       		.byte	0x6
 4020 096a 07       		.byte	0x7
 4021 096b 22       		.byte	0x22
 4022 096c 0C       		.uleb128 0xc
 4023 096d 37000000 		.4byte	.LASF198
 4024 0971 10       		.byte	0x10
 4025 0972 BD       		.byte	0xbd
 4026 0973 CE000000 		.4byte	0xce
 4027 0977 02       		.byte	0x2
 4028 0978 01       		.byte	0x1
 4029 0979 06       		.byte	0x6
 4030 097a 22       		.byte	0x22
 4031 097b 0C       		.uleb128 0xc
 4032 097c A3230000 		.4byte	.LASF199
 4033 0980 10       		.byte	0x10
 4034 0981 BE       		.byte	0xbe
ARM GAS  C:\Users\haske\AppData\Local\Temp\ccIkbvey.s 			page 110


 4035 0982 CE000000 		.4byte	0xce
 4036 0986 02       		.byte	0x2
 4037 0987 01       		.byte	0x1
 4038 0988 05       		.byte	0x5
 4039 0989 22       		.byte	0x22
 4040 098a 00       		.byte	0
 4041 098b 07       		.uleb128 0x7
 4042 098c 04       		.byte	0x4
 4043 098d 6E040000 		.4byte	0x46e
 4044 0991 0E       		.uleb128 0xe
 4045 0992 38       		.byte	0x38
 4046 0993 11       		.byte	0x11
 4047 0994 20       		.byte	0x20
 4048 0995 D80A0000 		.4byte	0xad8
 4049 0999 0B       		.uleb128 0xb
 4050 099a 4E2D0000 		.4byte	.LASF200
 4051 099e 11       		.byte	0x11
 4052 099f 21       		.byte	0x21
 4053 09a0 BA010000 		.4byte	0x1ba
 4054 09a4 00       		.byte	0
 4055 09a5 0B       		.uleb128 0xb
 4056 09a6 89100000 		.4byte	.LASF201
 4057 09aa 11       		.byte	0x11
 4058 09ab 22       		.byte	0x22
 4059 09ac D7040000 		.4byte	0x4d7
 4060 09b0 02       		.byte	0x2
 4061 09b1 0B       		.uleb128 0xb
 4062 09b2 0E000000 		.4byte	.LASF202
 4063 09b6 11       		.byte	0x11
 4064 09b7 25       		.byte	0x25
 4065 09b8 AB040000 		.4byte	0x4ab
 4066 09bc 03       		.byte	0x3
 4067 09bd 0B       		.uleb128 0xb
 4068 09be 342D0000 		.4byte	.LASF203
 4069 09c2 11       		.byte	0x11
 4070 09c3 26       		.byte	0x26
 4071 09c4 6E040000 		.4byte	0x46e
 4072 09c8 04       		.byte	0x4
 4073 09c9 0B       		.uleb128 0xb
 4074 09ca 9F050000 		.4byte	.LASF204
 4075 09ce 11       		.byte	0x11
 4076 09cf 27       		.byte	0x27
 4077 09d0 89050000 		.4byte	0x589
 4078 09d4 06       		.byte	0x6
 4079 09d5 0B       		.uleb128 0xb
 4080 09d6 C80C0000 		.4byte	.LASF205
 4081 09da 11       		.byte	0x11
 4082 09db 2A       		.byte	0x2a
 4083 09dc 9B030000 		.4byte	0x39b
 4084 09e0 10       		.byte	0x10
 4085 09e1 0B       		.uleb128 0xb
 4086 09e2 C8190000 		.4byte	.LASF206
 4087 09e6 11       		.byte	0x11
 4088 09e7 2B       		.byte	0x2b
 4089 09e8 9B030000 		.4byte	0x39b
 4090 09ec 14       		.byte	0x14
 4091 09ed 0B       		.uleb128 0xb
ARM GAS  C:\Users\haske\AppData\Local\Temp\ccIkbvey.s 			page 111


 4092 09ee 52060000 		.4byte	.LASF207
 4093 09f2 11       		.byte	0x11
 4094 09f3 2C       		.byte	0x2c
 4095 09f4 6E040000 		.4byte	0x46e
 4096 09f8 18       		.byte	0x18
 4097 09f9 0B       		.uleb128 0xb
 4098 09fa 1E280000 		.4byte	.LASF208
 4099 09fe 11       		.byte	0x11
 4100 09ff 2D       		.byte	0x2d
 4101 0a00 AB040000 		.4byte	0x4ab
 4102 0a04 1A       		.byte	0x1a
 4103 0a05 0B       		.uleb128 0xb
 4104 0a06 CF130000 		.4byte	.LASF209
 4105 0a0a 11       		.byte	0x11
 4106 0a0b 2E       		.byte	0x2e
 4107 0a0c AB040000 		.4byte	0x4ab
 4108 0a10 1B       		.byte	0x1b
 4109 0a11 0B       		.uleb128 0xb
 4110 0a12 52160000 		.4byte	.LASF210
 4111 0a16 11       		.byte	0x11
 4112 0a17 2F       		.byte	0x2f
 4113 0a18 B8000000 		.4byte	0xb8
 4114 0a1c 1C       		.byte	0x1c
 4115 0a1d 0B       		.uleb128 0xb
 4116 0a1e D3240000 		.4byte	.LASF211
 4117 0a22 11       		.byte	0x11
 4118 0a23 32       		.byte	0x32
 4119 0a24 6E040000 		.4byte	0x46e
 4120 0a28 1E       		.byte	0x1e
 4121 0a29 0B       		.uleb128 0xb
 4122 0a2a E2130000 		.4byte	.LASF212
 4123 0a2e 11       		.byte	0x11
 4124 0a2f 33       		.byte	0x33
 4125 0a30 BA010000 		.4byte	0x1ba
 4126 0a34 20       		.byte	0x20
 4127 0a35 0B       		.uleb128 0xb
 4128 0a36 24100000 		.4byte	.LASF213
 4129 0a3a 11       		.byte	0x11
 4130 0a3b 34       		.byte	0x34
 4131 0a3c AB040000 		.4byte	0x4ab
 4132 0a40 22       		.byte	0x22
 4133 0a41 0C       		.uleb128 0xc
 4134 0a42 75250000 		.4byte	.LASF214
 4135 0a46 11       		.byte	0x11
 4136 0a47 35       		.byte	0x35
 4137 0a48 B8000000 		.4byte	0xb8
 4138 0a4c 01       		.byte	0x1
 4139 0a4d 01       		.byte	0x1
 4140 0a4e 07       		.byte	0x7
 4141 0a4f 23       		.byte	0x23
 4142 0a50 0C       		.uleb128 0xc
 4143 0a51 25120000 		.4byte	.LASF215
 4144 0a55 11       		.byte	0x11
 4145 0a56 36       		.byte	0x36
 4146 0a57 ED040000 		.4byte	0x4ed
 4147 0a5b 01       		.byte	0x1
 4148 0a5c 05       		.byte	0x5
ARM GAS  C:\Users\haske\AppData\Local\Temp\ccIkbvey.s 			page 112


 4149 0a5d 02       		.byte	0x2
 4150 0a5e 23       		.byte	0x23
 4151 0a5f 0B       		.uleb128 0xb
 4152 0a60 B51C0000 		.4byte	.LASF216
 4153 0a64 11       		.byte	0x11
 4154 0a65 39       		.byte	0x39
 4155 0a66 6E040000 		.4byte	0x46e
 4156 0a6a 24       		.byte	0x24
 4157 0a6b 0B       		.uleb128 0xb
 4158 0a6c 680D0000 		.4byte	.LASF217
 4159 0a70 11       		.byte	0x11
 4160 0a71 3A       		.byte	0x3a
 4161 0a72 BA010000 		.4byte	0x1ba
 4162 0a76 26       		.byte	0x26
 4163 0a77 0B       		.uleb128 0xb
 4164 0a78 A9160000 		.4byte	.LASF218
 4165 0a7c 11       		.byte	0x11
 4166 0a7d 3B       		.byte	0x3b
 4167 0a7e BA010000 		.4byte	0x1ba
 4168 0a82 28       		.byte	0x28
 4169 0a83 0B       		.uleb128 0xb
 4170 0a84 4D1E0000 		.4byte	.LASF219
 4171 0a88 11       		.byte	0x11
 4172 0a89 3C       		.byte	0x3c
 4173 0a8a AB040000 		.4byte	0x4ab
 4174 0a8e 2A       		.byte	0x2a
 4175 0a8f 0B       		.uleb128 0xb
 4176 0a90 FF230000 		.4byte	.LASF220
 4177 0a94 11       		.byte	0x11
 4178 0a95 3F       		.byte	0x3f
 4179 0a96 6E040000 		.4byte	0x46e
 4180 0a9a 2C       		.byte	0x2c
 4181 0a9b 0B       		.uleb128 0xb
 4182 0a9c A7130000 		.4byte	.LASF221
 4183 0aa0 11       		.byte	0x11
 4184 0aa1 40       		.byte	0x40
 4185 0aa2 BA010000 		.4byte	0x1ba
 4186 0aa6 2E       		.byte	0x2e
 4187 0aa7 0B       		.uleb128 0xb
 4188 0aa8 9A1B0000 		.4byte	.LASF222
 4189 0aac 11       		.byte	0x11
 4190 0aad 41       		.byte	0x41
 4191 0aae BA010000 		.4byte	0x1ba
 4192 0ab2 30       		.byte	0x30
 4193 0ab3 0B       		.uleb128 0xb
 4194 0ab4 A71B0000 		.4byte	.LASF223
 4195 0ab8 11       		.byte	0x11
 4196 0ab9 42       		.byte	0x42
 4197 0aba BA010000 		.4byte	0x1ba
 4198 0abe 32       		.byte	0x32
 4199 0abf 0B       		.uleb128 0xb
 4200 0ac0 5B0E0000 		.4byte	.LASF224
 4201 0ac4 11       		.byte	0x11
 4202 0ac5 43       		.byte	0x43
 4203 0ac6 BA010000 		.4byte	0x1ba
 4204 0aca 34       		.byte	0x34
 4205 0acb 0B       		.uleb128 0xb
ARM GAS  C:\Users\haske\AppData\Local\Temp\ccIkbvey.s 			page 113


 4206 0acc 29140000 		.4byte	.LASF225
 4207 0ad0 11       		.byte	0x11
 4208 0ad1 44       		.byte	0x44
 4209 0ad2 AB040000 		.4byte	0x4ab
 4210 0ad6 36       		.byte	0x36
 4211 0ad7 00       		.byte	0
 4212 0ad8 02       		.uleb128 0x2
 4213 0ad9 810B0000 		.4byte	.LASF226
 4214 0add 11       		.byte	0x11
 4215 0ade 45       		.byte	0x45
 4216 0adf 91090000 		.4byte	0x991
 4217 0ae3 0E       		.uleb128 0xe
 4218 0ae4 20       		.byte	0x20
 4219 0ae5 12       		.byte	0x12
 4220 0ae6 1E       		.byte	0x1e
 4221 0ae7 B20B0000 		.4byte	0xbb2
 4222 0aeb 0B       		.uleb128 0xb
 4223 0aec C1000000 		.4byte	.LASF227
 4224 0af0 12       		.byte	0x12
 4225 0af1 1F       		.byte	0x1f
 4226 0af2 B20B0000 		.4byte	0xbb2
 4227 0af6 00       		.byte	0
 4228 0af7 0B       		.uleb128 0xb
 4229 0af8 0A090000 		.4byte	.LASF228
 4230 0afc 12       		.byte	0x12
 4231 0afd 20       		.byte	0x20
 4232 0afe E4000000 		.4byte	0xe4
 4233 0b02 04       		.byte	0x4
 4234 0b03 0B       		.uleb128 0xb
 4235 0b04 2F100000 		.4byte	.LASF229
 4236 0b08 12       		.byte	0x12
 4237 0b09 21       		.byte	0x21
 4238 0b0a E4000000 		.4byte	0xe4
 4239 0b0e 08       		.byte	0x8
 4240 0b0f 0B       		.uleb128 0xb
 4241 0b10 A81F0000 		.4byte	.LASF77
 4242 0b14 12       		.byte	0x12
 4243 0b15 22       		.byte	0x22
 4244 0b16 6E040000 		.4byte	0x46e
 4245 0b1a 0C       		.byte	0xc
 4246 0b1b 0B       		.uleb128 0xb
 4247 0b1c 2B190000 		.4byte	.LASF230
 4248 0b20 12       		.byte	0x12
 4249 0b21 23       		.byte	0x23
 4250 0b22 6E040000 		.4byte	0x46e
 4251 0b26 0E       		.byte	0xe
 4252 0b27 0B       		.uleb128 0xb
 4253 0b28 822C0000 		.4byte	.LASF231
 4254 0b2c 12       		.byte	0x12
 4255 0b2d 24       		.byte	0x24
 4256 0b2e 6E040000 		.4byte	0x46e
 4257 0b32 10       		.byte	0x10
 4258 0b33 0B       		.uleb128 0xb
 4259 0b34 C6000000 		.4byte	.LASF232
 4260 0b38 12       		.byte	0x12
 4261 0b39 25       		.byte	0x25
 4262 0b3a BA010000 		.4byte	0x1ba
ARM GAS  C:\Users\haske\AppData\Local\Temp\ccIkbvey.s 			page 114


 4263 0b3e 12       		.byte	0x12
 4264 0b3f 0B       		.uleb128 0xb
 4265 0b40 61190000 		.4byte	.LASF233
 4266 0b44 12       		.byte	0x12
 4267 0b45 26       		.byte	0x26
 4268 0b46 BA010000 		.4byte	0x1ba
 4269 0b4a 14       		.byte	0x14
 4270 0b4b 0B       		.uleb128 0xb
 4271 0b4c 05170000 		.4byte	.LASF43
 4272 0b50 12       		.byte	0x12
 4273 0b51 27       		.byte	0x27
 4274 0b52 BA010000 		.4byte	0x1ba
 4275 0b56 16       		.byte	0x16
 4276 0b57 0B       		.uleb128 0xb
 4277 0b58 0B170000 		.4byte	.LASF44
 4278 0b5c 12       		.byte	0x12
 4279 0b5d 28       		.byte	0x28
 4280 0b5e BA010000 		.4byte	0x1ba
 4281 0b62 18       		.byte	0x18
 4282 0b63 0F       		.uleb128 0xf
 4283 0b64 6F706100 		.ascii	"opa\000"
 4284 0b68 12       		.byte	0x12
 4285 0b69 29       		.byte	0x29
 4286 0b6a AB040000 		.4byte	0x4ab
 4287 0b6e 1A       		.byte	0x1a
 4288 0b6f 0B       		.uleb128 0xb
 4289 0b70 E3200000 		.4byte	.LASF234
 4290 0b74 12       		.byte	0x12
 4291 0b75 2A       		.byte	0x2a
 4292 0b76 CC040000 		.4byte	0x4cc
 4293 0b7a 1B       		.byte	0x1b
 4294 0b7b 0B       		.uleb128 0xb
 4295 0b7c 83080000 		.4byte	.LASF235
 4296 0b80 12       		.byte	0x12
 4297 0b81 2B       		.byte	0x2b
 4298 0b82 C1040000 		.4byte	0x4c1
 4299 0b86 1C       		.byte	0x1c
 4300 0b87 0B       		.uleb128 0xb
 4301 0b88 12160000 		.4byte	.LASF236
 4302 0b8c 12       		.byte	0x12
 4303 0b8d 2C       		.byte	0x2c
 4304 0b8e B6040000 		.4byte	0x4b6
 4305 0b92 1D       		.byte	0x1d
 4306 0b93 0C       		.uleb128 0xc
 4307 0b94 8B0D0000 		.4byte	.LASF237
 4308 0b98 12       		.byte	0x12
 4309 0b99 2D       		.byte	0x2d
 4310 0b9a E2040000 		.4byte	0x4e2
 4311 0b9e 01       		.byte	0x1
 4312 0b9f 03       		.byte	0x3
 4313 0ba0 05       		.byte	0x5
 4314 0ba1 1E       		.byte	0x1e
 4315 0ba2 0C       		.uleb128 0xc
 4316 0ba3 89100000 		.4byte	.LASF201
 4317 0ba7 12       		.byte	0x12
 4318 0ba8 2E       		.byte	0x2e
 4319 0ba9 D7040000 		.4byte	0x4d7
ARM GAS  C:\Users\haske\AppData\Local\Temp\ccIkbvey.s 			page 115


 4320 0bad 01       		.byte	0x1
 4321 0bae 03       		.byte	0x3
 4322 0baf 02       		.byte	0x2
 4323 0bb0 1E       		.byte	0x1e
 4324 0bb1 00       		.byte	0
 4325 0bb2 07       		.uleb128 0x7
 4326 0bb3 04       		.byte	0x4
 4327 0bb4 B80B0000 		.4byte	0xbb8
 4328 0bb8 11       		.uleb128 0x11
 4329 0bb9 A2030000 		.4byte	0x3a2
 4330 0bbd 02       		.uleb128 0x2
 4331 0bbe F3150000 		.4byte	.LASF238
 4332 0bc2 12       		.byte	0x12
 4333 0bc3 2F       		.byte	0x2f
 4334 0bc4 E30A0000 		.4byte	0xae3
 4335 0bc8 0E       		.uleb128 0xe
 4336 0bc9 18       		.byte	0x18
 4337 0bca 13       		.byte	0x13
 4338 0bcb 20       		.byte	0x20
 4339 0bcc 430C0000 		.4byte	0xc43
 4340 0bd0 0B       		.uleb128 0xb
 4341 0bd1 24020000 		.4byte	.LASF239
 4342 0bd5 13       		.byte	0x13
 4343 0bd6 22       		.byte	0x22
 4344 0bd7 C3000000 		.4byte	0xc3
 4345 0bdb 00       		.byte	0
 4346 0bdc 0B       		.uleb128 0xb
 4347 0bdd 1A180000 		.4byte	.LASF240
 4348 0be1 13       		.byte	0x13
 4349 0be2 23       		.byte	0x23
 4350 0be3 CE000000 		.4byte	0xce
 4351 0be7 02       		.byte	0x2
 4352 0be8 0B       		.uleb128 0xb
 4353 0be9 B0260000 		.4byte	.LASF241
 4354 0bed 13       		.byte	0x13
 4355 0bee 24       		.byte	0x24
 4356 0bef E2010000 		.4byte	0x1e2
 4357 0bf3 04       		.byte	0x4
 4358 0bf4 0B       		.uleb128 0xb
 4359 0bf5 7A230000 		.4byte	.LASF242
 4360 0bf9 13       		.byte	0x13
 4361 0bfa 26       		.byte	0x26
 4362 0bfb 6E040000 		.4byte	0x46e
 4363 0bff 08       		.byte	0x8
 4364 0c00 0B       		.uleb128 0xb
 4365 0c01 1B1A0000 		.4byte	.LASF243
 4366 0c05 13       		.byte	0x13
 4367 0c06 27       		.byte	0x27
 4368 0c07 AB040000 		.4byte	0x4ab
 4369 0c0b 0A       		.byte	0xa
 4370 0c0c 0F       		.uleb128 0xf
 4371 0c0d 6F706100 		.ascii	"opa\000"
 4372 0c11 13       		.byte	0x13
 4373 0c12 29       		.byte	0x29
 4374 0c13 AB040000 		.4byte	0x4ab
 4375 0c17 0B       		.byte	0xb
 4376 0c18 0C       		.uleb128 0xc
ARM GAS  C:\Users\haske\AppData\Local\Temp\ccIkbvey.s 			page 116


 4377 0c19 89100000 		.4byte	.LASF201
 4378 0c1d 13       		.byte	0x13
 4379 0c1e 2A       		.byte	0x2a
 4380 0c1f D7040000 		.4byte	0x4d7
 4381 0c23 01       		.byte	0x1
 4382 0c24 04       		.byte	0x4
 4383 0c25 04       		.byte	0x4
 4384 0c26 0C       		.byte	0xc
 4385 0c27 0B       		.uleb128 0xb
 4386 0c28 1F090000 		.4byte	.LASF244
 4387 0c2c 13       		.byte	0x13
 4388 0c2d 2C       		.byte	0x2c
 4389 0c2e D9000000 		.4byte	0xd9
 4390 0c32 10       		.byte	0x10
 4391 0c33 0C       		.uleb128 0xc
 4392 0c34 C2270000 		.4byte	.LASF245
 4393 0c38 13       		.byte	0x13
 4394 0c39 2D       		.byte	0x2d
 4395 0c3a B8000000 		.4byte	0xb8
 4396 0c3e 01       		.byte	0x1
 4397 0c3f 01       		.byte	0x1
 4398 0c40 07       		.byte	0x7
 4399 0c41 14       		.byte	0x14
 4400 0c42 00       		.byte	0
 4401 0c43 02       		.uleb128 0x2
 4402 0c44 42250000 		.4byte	.LASF246
 4403 0c48 13       		.byte	0x13
 4404 0c49 2E       		.byte	0x2e
 4405 0c4a C80B0000 		.4byte	0xbc8
 4406 0c4e 0E       		.uleb128 0xe
 4407 0c4f 0A       		.byte	0xa
 4408 0c50 14       		.byte	0x14
 4409 0c51 1C       		.byte	0x1c
 4410 0c52 CF0C0000 		.4byte	0xccf
 4411 0c56 0B       		.uleb128 0xb
 4412 0c57 A81F0000 		.4byte	.LASF77
 4413 0c5b 14       		.byte	0x14
 4414 0c5c 1D       		.byte	0x1d
 4415 0c5d 6E040000 		.4byte	0x46e
 4416 0c61 00       		.byte	0
 4417 0c62 0B       		.uleb128 0xb
 4418 0c63 54250000 		.4byte	.LASF247
 4419 0c67 14       		.byte	0x14
 4420 0c68 1E       		.byte	0x1e
 4421 0c69 BA010000 		.4byte	0x1ba
 4422 0c6d 02       		.byte	0x2
 4423 0c6e 0B       		.uleb128 0xb
 4424 0c6f 9C010000 		.4byte	.LASF248
 4425 0c73 14       		.byte	0x14
 4426 0c74 1F       		.byte	0x1f
 4427 0c75 BA010000 		.4byte	0x1ba
 4428 0c79 04       		.byte	0x4
 4429 0c7a 0B       		.uleb128 0xb
 4430 0c7b FA1D0000 		.4byte	.LASF249
 4431 0c7f 14       		.byte	0x14
 4432 0c80 20       		.byte	0x20
 4433 0c81 BA010000 		.4byte	0x1ba
ARM GAS  C:\Users\haske\AppData\Local\Temp\ccIkbvey.s 			page 117


 4434 0c85 06       		.byte	0x6
 4435 0c86 0F       		.uleb128 0xf
 4436 0c87 6F706100 		.ascii	"opa\000"
 4437 0c8b 14       		.byte	0x14
 4438 0c8c 21       		.byte	0x21
 4439 0c8d AB040000 		.4byte	0x4ab
 4440 0c91 08       		.byte	0x8
 4441 0c92 0C       		.uleb128 0xc
 4442 0c93 89100000 		.4byte	.LASF201
 4443 0c97 14       		.byte	0x14
 4444 0c98 22       		.byte	0x22
 4445 0c99 D7040000 		.4byte	0x4d7
 4446 0c9d 01       		.byte	0x1
 4447 0c9e 02       		.byte	0x2
 4448 0c9f 06       		.byte	0x6
 4449 0ca0 09       		.byte	0x9
 4450 0ca1 0C       		.uleb128 0xc
 4451 0ca2 632D0000 		.4byte	.LASF250
 4452 0ca6 14       		.byte	0x14
 4453 0ca7 23       		.byte	0x23
 4454 0ca8 B8000000 		.4byte	0xb8
 4455 0cac 01       		.byte	0x1
 4456 0cad 01       		.byte	0x1
 4457 0cae 05       		.byte	0x5
 4458 0caf 09       		.byte	0x9
 4459 0cb0 0C       		.uleb128 0xc
 4460 0cb1 FF120000 		.4byte	.LASF251
 4461 0cb5 14       		.byte	0x14
 4462 0cb6 24       		.byte	0x24
 4463 0cb7 B8000000 		.4byte	0xb8
 4464 0cbb 01       		.byte	0x1
 4465 0cbc 01       		.byte	0x1
 4466 0cbd 04       		.byte	0x4
 4467 0cbe 09       		.byte	0x9
 4468 0cbf 0C       		.uleb128 0xc
 4469 0cc0 0F1C0000 		.4byte	.LASF252
 4470 0cc4 14       		.byte	0x14
 4471 0cc5 25       		.byte	0x25
 4472 0cc6 B8000000 		.4byte	0xb8
 4473 0cca 01       		.byte	0x1
 4474 0ccb 01       		.byte	0x1
 4475 0ccc 03       		.byte	0x3
 4476 0ccd 09       		.byte	0x9
 4477 0cce 00       		.byte	0
 4478 0ccf 02       		.uleb128 0x2
 4479 0cd0 F81E0000 		.4byte	.LASF253
 4480 0cd4 14       		.byte	0x14
 4481 0cd5 26       		.byte	0x26
 4482 0cd6 4E0C0000 		.4byte	0xc4e
 4483 0cda 0E       		.uleb128 0xe
 4484 0cdb 10       		.byte	0x10
 4485 0cdc 15       		.byte	0x15
 4486 0cdd 1C       		.byte	0x1c
 4487 0cde 490D0000 		.4byte	0xd49
 4488 0ce2 0B       		.uleb128 0xb
 4489 0ce3 A81F0000 		.4byte	.LASF77
 4490 0ce7 15       		.byte	0x15
ARM GAS  C:\Users\haske\AppData\Local\Temp\ccIkbvey.s 			page 118


 4491 0ce8 1D       		.byte	0x1d
 4492 0ce9 6E040000 		.4byte	0x46e
 4493 0ced 00       		.byte	0
 4494 0cee 0B       		.uleb128 0xb
 4495 0cef 54250000 		.4byte	.LASF247
 4496 0cf3 15       		.byte	0x15
 4497 0cf4 1E       		.byte	0x1e
 4498 0cf5 BA010000 		.4byte	0x1ba
 4499 0cf9 02       		.byte	0x2
 4500 0cfa 0B       		.uleb128 0xb
 4501 0cfb 15070000 		.4byte	.LASF254
 4502 0cff 15       		.byte	0x15
 4503 0d00 1F       		.byte	0x1f
 4504 0d01 CE000000 		.4byte	0xce
 4505 0d05 04       		.byte	0x4
 4506 0d06 0B       		.uleb128 0xb
 4507 0d07 B6250000 		.4byte	.LASF255
 4508 0d0b 15       		.byte	0x15
 4509 0d0c 20       		.byte	0x20
 4510 0d0d CE000000 		.4byte	0xce
 4511 0d11 06       		.byte	0x6
 4512 0d12 0B       		.uleb128 0xb
 4513 0d13 9B270000 		.4byte	.LASF256
 4514 0d17 15       		.byte	0x15
 4515 0d18 21       		.byte	0x21
 4516 0d19 9B030000 		.4byte	0x39b
 4517 0d1d 08       		.byte	0x8
 4518 0d1e 0F       		.uleb128 0xf
 4519 0d1f 6F706100 		.ascii	"opa\000"
 4520 0d23 15       		.byte	0x15
 4521 0d24 22       		.byte	0x22
 4522 0d25 AB040000 		.4byte	0x4ab
 4523 0d29 0C       		.byte	0xc
 4524 0d2a 0C       		.uleb128 0xc
 4525 0d2b 89100000 		.4byte	.LASF201
 4526 0d2f 15       		.byte	0x15
 4527 0d30 23       		.byte	0x23
 4528 0d31 D7040000 		.4byte	0x4d7
 4529 0d35 01       		.byte	0x1
 4530 0d36 02       		.byte	0x2
 4531 0d37 06       		.byte	0x6
 4532 0d38 0D       		.byte	0xd
 4533 0d39 0C       		.uleb128 0xc
 4534 0d3a 61060000 		.4byte	.LASF257
 4535 0d3e 15       		.byte	0x15
 4536 0d3f 24       		.byte	0x24
 4537 0d40 B8000000 		.4byte	0xb8
 4538 0d44 01       		.byte	0x1
 4539 0d45 01       		.byte	0x1
 4540 0d46 05       		.byte	0x5
 4541 0d47 0D       		.byte	0xd
 4542 0d48 00       		.byte	0
 4543 0d49 02       		.uleb128 0x2
 4544 0d4a B7140000 		.4byte	.LASF258
 4545 0d4e 15       		.byte	0x15
 4546 0d4f 25       		.byte	0x25
 4547 0d50 DA0C0000 		.4byte	0xcda
ARM GAS  C:\Users\haske\AppData\Local\Temp\ccIkbvey.s 			page 119


 4548 0d54 02       		.uleb128 0x2
 4549 0d55 F2260000 		.4byte	.LASF259
 4550 0d59 16       		.byte	0x16
 4551 0d5a 2B       		.byte	0x2b
 4552 0d5b B8000000 		.4byte	0xb8
 4553 0d5f 02       		.uleb128 0x2
 4554 0d60 B2120000 		.4byte	.LASF260
 4555 0d64 16       		.byte	0x16
 4556 0d65 4F       		.byte	0x4f
 4557 0d66 B8000000 		.4byte	0xb8
 4558 0d6a 02       		.uleb128 0x2
 4559 0d6b 28050000 		.4byte	.LASF261
 4560 0d6f 16       		.byte	0x16
 4561 0d70 5C       		.byte	0x5c
 4562 0d71 750D0000 		.4byte	0xd75
 4563 0d75 07       		.uleb128 0x7
 4564 0d76 04       		.byte	0x4
 4565 0d77 7B0D0000 		.4byte	0xd7b
 4566 0d7b 12       		.uleb128 0x12
 4567 0d7c 540D0000 		.4byte	0xd54
 4568 0d80 9E0D0000 		.4byte	0xd9e
 4569 0d84 09       		.uleb128 0x9
 4570 0d85 9E0D0000 		.4byte	0xd9e
 4571 0d89 09       		.uleb128 0x9
 4572 0d8a BA010000 		.4byte	0x1ba
 4573 0d8e 09       		.uleb128 0x9
 4574 0d8f BA010000 		.4byte	0x1ba
 4575 0d93 09       		.uleb128 0x9
 4576 0d94 BA010000 		.4byte	0x1ba
 4577 0d98 09       		.uleb128 0x9
 4578 0d99 8D010000 		.4byte	0x18d
 4579 0d9d 00       		.byte	0
 4580 0d9e 07       		.uleb128 0x7
 4581 0d9f 04       		.byte	0x4
 4582 0da0 AB040000 		.4byte	0x4ab
 4583 0da4 0E       		.uleb128 0xe
 4584 0da5 08       		.byte	0x8
 4585 0da6 16       		.byte	0x16
 4586 0da7 62       		.byte	0x62
 4587 0da8 C40D0000 		.4byte	0xdc4
 4588 0dac 0F       		.uleb128 0xf
 4589 0dad 636200   		.ascii	"cb\000"
 4590 0db0 16       		.byte	0x16
 4591 0db1 63       		.byte	0x63
 4592 0db2 6A0D0000 		.4byte	0xd6a
 4593 0db6 00       		.byte	0
 4594 0db7 0B       		.uleb128 0xb
 4595 0db8 6E160000 		.4byte	.LASF262
 4596 0dbc 16       		.byte	0x16
 4597 0dbd 64       		.byte	0x64
 4598 0dbe 5F0D0000 		.4byte	0xd5f
 4599 0dc2 04       		.byte	0x4
 4600 0dc3 00       		.byte	0
 4601 0dc4 02       		.uleb128 0x2
 4602 0dc5 E70E0000 		.4byte	.LASF263
 4603 0dc9 16       		.byte	0x16
 4604 0dca 65       		.byte	0x65
ARM GAS  C:\Users\haske\AppData\Local\Temp\ccIkbvey.s 			page 120


 4605 0dcb A40D0000 		.4byte	0xda4
 4606 0dcf 0E       		.uleb128 0xe
 4607 0dd0 1C       		.byte	0x1c
 4608 0dd1 16       		.byte	0x16
 4609 0dd2 9C       		.byte	0x9c
 4610 0dd3 2C0E0000 		.4byte	0xe2c
 4611 0dd7 0F       		.uleb128 0xf
 4612 0dd8 62756600 		.ascii	"buf\000"
 4613 0ddc 16       		.byte	0x16
 4614 0ddd 9D       		.byte	0x9d
 4615 0dde 58080000 		.4byte	0x858
 4616 0de2 00       		.byte	0
 4617 0de3 0B       		.uleb128 0xb
 4618 0de4 2F250000 		.4byte	.LASF264
 4619 0de8 16       		.byte	0x16
 4620 0de9 9E       		.byte	0x9e
 4621 0dea 9E0D0000 		.4byte	0xd9e
 4622 0dee 04       		.byte	0x4
 4623 0def 0B       		.uleb128 0xb
 4624 0df0 F8160000 		.4byte	.LASF265
 4625 0df4 16       		.byte	0x16
 4626 0df5 9F       		.byte	0x9f
 4627 0df6 2C0E0000 		.4byte	0xe2c
 4628 0dfa 08       		.byte	0x8
 4629 0dfb 0B       		.uleb128 0xb
 4630 0dfc 5F160000 		.4byte	.LASF266
 4631 0e00 16       		.byte	0x16
 4632 0e01 A0       		.byte	0xa0
 4633 0e02 2C0E0000 		.4byte	0xe2c
 4634 0e06 0C       		.byte	0xc
 4635 0e07 0B       		.uleb128 0xb
 4636 0e08 5F080000 		.4byte	.LASF267
 4637 0e0c 16       		.byte	0x16
 4638 0e0d A1       		.byte	0xa1
 4639 0e0e D9000000 		.4byte	0xd9
 4640 0e12 10       		.byte	0x10
 4641 0e13 0B       		.uleb128 0xb
 4642 0e14 E1230000 		.4byte	.LASF268
 4643 0e18 16       		.byte	0x16
 4644 0e19 A2       		.byte	0xa2
 4645 0e1a E4000000 		.4byte	0xe4
 4646 0e1e 14       		.byte	0x14
 4647 0e1f 0B       		.uleb128 0xb
 4648 0e20 4E2D0000 		.4byte	.LASF200
 4649 0e24 16       		.byte	0x16
 4650 0e25 A3       		.byte	0xa3
 4651 0e26 BA010000 		.4byte	0x1ba
 4652 0e2a 18       		.byte	0x18
 4653 0e2b 00       		.byte	0
 4654 0e2c 07       		.uleb128 0x7
 4655 0e2d 04       		.byte	0x4
 4656 0e2e CE000000 		.4byte	0xce
 4657 0e32 02       		.uleb128 0x2
 4658 0e33 35190000 		.4byte	.LASF269
 4659 0e37 16       		.byte	0x16
 4660 0e38 A4       		.byte	0xa4
 4661 0e39 CF0D0000 		.4byte	0xdcf
ARM GAS  C:\Users\haske\AppData\Local\Temp\ccIkbvey.s 			page 121


 4662 0e3d 0E       		.uleb128 0xe
 4663 0e3e 0C       		.byte	0xc
 4664 0e3f 16       		.byte	0x16
 4665 0e40 AC       		.byte	0xac
 4666 0e41 6D0E0000 		.4byte	0xe6d
 4667 0e45 0B       		.uleb128 0xb
 4668 0e46 D5030000 		.4byte	.LASF270
 4669 0e4a 16       		.byte	0x16
 4670 0e4b AD       		.byte	0xad
 4671 0e4c 22020000 		.4byte	0x222
 4672 0e50 00       		.byte	0
 4673 0e51 0B       		.uleb128 0xb
 4674 0e52 4E2D0000 		.4byte	.LASF200
 4675 0e56 16       		.byte	0x16
 4676 0e57 AE       		.byte	0xae
 4677 0e58 BA010000 		.4byte	0x1ba
 4678 0e5c 08       		.byte	0x8
 4679 0e5d 0C       		.uleb128 0xc
 4680 0e5e AB2B0000 		.4byte	.LASF271
 4681 0e62 16       		.byte	0x16
 4682 0e63 B0       		.byte	0xb0
 4683 0e64 B8000000 		.4byte	0xb8
 4684 0e68 01       		.byte	0x1
 4685 0e69 01       		.byte	0x1
 4686 0e6a 07       		.byte	0x7
 4687 0e6b 0A       		.byte	0xa
 4688 0e6c 00       		.byte	0
 4689 0e6d 0E       		.uleb128 0xe
 4690 0e6e 18       		.byte	0x18
 4691 0e6f 16       		.byte	0x16
 4692 0e70 A8       		.byte	0xa8
 4693 0e71 9A0E0000 		.4byte	0xe9a
 4694 0e75 0F       		.uleb128 0xf
 4695 0e76 64736300 		.ascii	"dsc\000"
 4696 0e7a 16       		.byte	0x16
 4697 0e7b AA       		.byte	0xaa
 4698 0e7c C40D0000 		.4byte	0xdc4
 4699 0e80 00       		.byte	0
 4700 0e81 0F       		.uleb128 0xf
 4701 0e82 63666700 		.ascii	"cfg\000"
 4702 0e86 16       		.byte	0x16
 4703 0e87 B1       		.byte	0xb1
 4704 0e88 3D0E0000 		.4byte	0xe3d
 4705 0e8c 08       		.byte	0x8
 4706 0e8d 0B       		.uleb128 0xb
 4707 0e8e 70180000 		.4byte	.LASF272
 4708 0e92 16       		.byte	0x16
 4709 0e93 B3       		.byte	0xb3
 4710 0e94 9A0E0000 		.4byte	0xe9a
 4711 0e98 14       		.byte	0x14
 4712 0e99 00       		.byte	0
 4713 0e9a 07       		.uleb128 0x7
 4714 0e9b 04       		.byte	0x4
 4715 0e9c 320E0000 		.4byte	0xe32
 4716 0ea0 02       		.uleb128 0x2
 4717 0ea1 5B280000 		.4byte	.LASF273
 4718 0ea5 16       		.byte	0x16
ARM GAS  C:\Users\haske\AppData\Local\Temp\ccIkbvey.s 			page 122


 4719 0ea6 B4       		.byte	0xb4
 4720 0ea7 6D0E0000 		.4byte	0xe6d
 4721 0eab 05       		.uleb128 0x5
 4722 0eac 01       		.byte	0x1
 4723 0ead 42000000 		.4byte	0x42
 4724 0eb1 17       		.byte	0x17
 4725 0eb2 1C       		.byte	0x1c
 4726 0eb3 CA0E0000 		.4byte	0xeca
 4727 0eb7 06       		.uleb128 0x6
 4728 0eb8 57140000 		.4byte	.LASF274
 4729 0ebc 00       		.byte	0
 4730 0ebd 06       		.uleb128 0x6
 4731 0ebe 5A050000 		.4byte	.LASF275
 4732 0ec2 01       		.byte	0x1
 4733 0ec3 06       		.uleb128 0x6
 4734 0ec4 69000000 		.4byte	.LASF276
 4735 0ec8 02       		.byte	0x2
 4736 0ec9 00       		.byte	0
 4737 0eca 02       		.uleb128 0x2
 4738 0ecb 7E1C0000 		.4byte	.LASF277
 4739 0ecf 17       		.byte	0x17
 4740 0ed0 20       		.byte	0x20
 4741 0ed1 AB0E0000 		.4byte	0xeab
 4742 0ed5 0E       		.uleb128 0xe
 4743 0ed6 10       		.byte	0x10
 4744 0ed7 18       		.byte	0x18
 4745 0ed8 33       		.byte	0x33
 4746 0ed9 0E0F0000 		.4byte	0xf0e
 4747 0edd 0B       		.uleb128 0xb
 4748 0ede EC250000 		.4byte	.LASF278
 4749 0ee2 18       		.byte	0x18
 4750 0ee3 34       		.byte	0x34
 4751 0ee4 0E0F0000 		.4byte	0xf0e
 4752 0ee8 00       		.byte	0
 4753 0ee9 0B       		.uleb128 0xb
 4754 0eea 591A0000 		.4byte	.LASF279
 4755 0eee 18       		.byte	0x18
 4756 0eef 35       		.byte	0x35
 4757 0ef0 190F0000 		.4byte	0xf19
 4758 0ef4 04       		.byte	0x4
 4759 0ef5 0F       		.uleb128 0xf
 4760 0ef6 62756600 		.ascii	"buf\000"
 4761 0efa 18       		.byte	0x18
 4762 0efb 36       		.byte	0x36
 4763 0efc 8D010000 		.4byte	0x18d
 4764 0f00 08       		.byte	0x8
 4765 0f01 0B       		.uleb128 0xb
 4766 0f02 DD040000 		.4byte	.LASF280
 4767 0f06 18       		.byte	0x18
 4768 0f07 37       		.byte	0x37
 4769 0f08 63030000 		.4byte	0x363
 4770 0f0c 0C       		.byte	0xc
 4771 0f0d 00       		.byte	0
 4772 0f0e 07       		.uleb128 0x7
 4773 0f0f 04       		.byte	0x4
 4774 0f10 140F0000 		.4byte	0xf14
 4775 0f14 11       		.uleb128 0x11
ARM GAS  C:\Users\haske\AppData\Local\Temp\ccIkbvey.s 			page 123


 4776 0f15 22020000 		.4byte	0x222
 4777 0f19 07       		.uleb128 0x7
 4778 0f1a 04       		.byte	0x4
 4779 0f1b 22020000 		.4byte	0x222
 4780 0f1f 0A       		.uleb128 0xa
 4781 0f20 DA0F0000 		.4byte	.LASF281
 4782 0f24 28       		.byte	0x28
 4783 0f25 18       		.byte	0x18
 4784 0f26 2D       		.byte	0x2d
 4785 0f27 740F0000 		.4byte	0xf74
 4786 0f2b 0B       		.uleb128 0xb
 4787 0f2c 37100000 		.4byte	.LASF282
 4788 0f30 18       		.byte	0x18
 4789 0f31 2E       		.byte	0x2e
 4790 0f32 22020000 		.4byte	0x222
 4791 0f36 00       		.byte	0
 4792 0f37 0B       		.uleb128 0xb
 4793 0f38 9B2A0000 		.4byte	.LASF283
 4794 0f3c 18       		.byte	0x18
 4795 0f3d 2F       		.byte	0x2f
 4796 0f3e 22020000 		.4byte	0x222
 4797 0f42 08       		.byte	0x8
 4798 0f43 0B       		.uleb128 0xb
 4799 0f44 CC270000 		.4byte	.LASF284
 4800 0f48 18       		.byte	0x18
 4801 0f49 30       		.byte	0x30
 4802 0f4a BA010000 		.4byte	0x1ba
 4803 0f4e 10       		.byte	0x10
 4804 0f4f 0B       		.uleb128 0xb
 4805 0f50 E5100000 		.4byte	.LASF285
 4806 0f54 18       		.byte	0x18
 4807 0f55 31       		.byte	0x31
 4808 0f56 BA010000 		.4byte	0x1ba
 4809 0f5a 12       		.byte	0x12
 4810 0f5b 0F       		.uleb128 0xf
 4811 0f5c 62756600 		.ascii	"buf\000"
 4812 0f60 18       		.byte	0x18
 4813 0f61 32       		.byte	0x32
 4814 0f62 8D010000 		.4byte	0x18d
 4815 0f66 14       		.byte	0x14
 4816 0f67 0B       		.uleb128 0xb
 4817 0f68 57130000 		.4byte	.LASF286
 4818 0f6c 18       		.byte	0x18
 4819 0f6d 38       		.byte	0x38
 4820 0f6e D50E0000 		.4byte	0xed5
 4821 0f72 18       		.byte	0x18
 4822 0f73 00       		.byte	0
 4823 0f74 02       		.uleb128 0x2
 4824 0f75 A3140000 		.4byte	.LASF287
 4825 0f79 18       		.byte	0x18
 4826 0f7a 39       		.byte	0x39
 4827 0f7b 1F0F0000 		.4byte	0xf1f
 4828 0f7f 0A       		.uleb128 0xa
 4829 0f80 EE030000 		.4byte	.LASF288
 4830 0f84 54       		.byte	0x54
 4831 0f85 18       		.byte	0x18
 4832 0f86 3B       		.byte	0x3b
ARM GAS  C:\Users\haske\AppData\Local\Temp\ccIkbvey.s 			page 124


 4833 0f87 88100000 		.4byte	0x1088
 4834 0f8b 0F       		.uleb128 0xf
 4835 0f8c 62756600 		.ascii	"buf\000"
 4836 0f90 18       		.byte	0x18
 4837 0f91 3F       		.byte	0x3f
 4838 0f92 8D010000 		.4byte	0x18d
 4839 0f96 00       		.byte	0
 4840 0f97 0B       		.uleb128 0xb
 4841 0f98 591A0000 		.4byte	.LASF279
 4842 0f9c 18       		.byte	0x18
 4843 0f9d 44       		.byte	0x44
 4844 0f9e 190F0000 		.4byte	0xf19
 4845 0fa2 04       		.byte	0x4
 4846 0fa3 0B       		.uleb128 0xb
 4847 0fa4 EC250000 		.4byte	.LASF278
 4848 0fa8 18       		.byte	0x18
 4849 0fa9 49       		.byte	0x49
 4850 0faa 0E0F0000 		.4byte	0xf0e
 4851 0fae 08       		.byte	0x8
 4852 0faf 0B       		.uleb128 0xb
 4853 0fb0 6E110000 		.4byte	.LASF289
 4854 0fb4 18       		.byte	0x18
 4855 0fb5 4B       		.byte	0x4b
 4856 0fb6 99100000 		.4byte	0x1099
 4857 0fba 0C       		.byte	0xc
 4858 0fbb 0B       		.uleb128 0xb
 4859 0fbc 072B0000 		.4byte	.LASF290
 4860 0fc0 18       		.byte	0x18
 4861 0fc1 4D       		.byte	0x4d
 4862 0fc2 BF100000 		.4byte	0x10bf
 4863 0fc6 10       		.byte	0x10
 4864 0fc7 0B       		.uleb128 0xb
 4865 0fc8 9A220000 		.4byte	.LASF291
 4866 0fcc 18       		.byte	0x18
 4867 0fcd 4F       		.byte	0x4f
 4868 0fce FF100000 		.4byte	0x10ff
 4869 0fd2 14       		.byte	0x14
 4870 0fd3 0B       		.uleb128 0xb
 4871 0fd4 660F0000 		.4byte	.LASF292
 4872 0fd8 18       		.byte	0x18
 4873 0fd9 52       		.byte	0x52
 4874 0fda 2F110000 		.4byte	0x112f
 4875 0fde 18       		.byte	0x18
 4876 0fdf 0B       		.uleb128 0xb
 4877 0fe0 ED120000 		.4byte	.LASF293
 4878 0fe4 18       		.byte	0x18
 4879 0fe5 55       		.byte	0x55
 4880 0fe6 53110000 		.4byte	0x1153
 4881 0fea 1C       		.byte	0x1c
 4882 0feb 0B       		.uleb128 0xb
 4883 0fec 09130000 		.4byte	.LASF294
 4884 0ff0 18       		.byte	0x18
 4885 0ff1 58       		.byte	0x58
 4886 0ff2 7E110000 		.4byte	0x117e
 4887 0ff6 20       		.byte	0x20
 4888 0ff7 0B       		.uleb128 0xb
 4889 0ff8 721B0000 		.4byte	.LASF295
ARM GAS  C:\Users\haske\AppData\Local\Temp\ccIkbvey.s 			page 125


 4890 0ffc 18       		.byte	0x18
 4891 0ffd 5C       		.byte	0x5c
 4892 0ffe A9110000 		.4byte	0x11a9
 4893 1002 24       		.byte	0x24
 4894 1003 0B       		.uleb128 0xb
 4895 1004 E81C0000 		.4byte	.LASF296
 4896 1008 18       		.byte	0x18
 4897 1009 60       		.byte	0x60
 4898 100a C9110000 		.4byte	0x11c9
 4899 100e 28       		.byte	0x28
 4900 100f 0B       		.uleb128 0xb
 4901 1010 F6240000 		.4byte	.LASF297
 4902 1014 18       		.byte	0x18
 4903 1015 71       		.byte	0x71
 4904 1016 07120000 		.4byte	0x1207
 4905 101a 2C       		.byte	0x2c
 4906 101b 0B       		.uleb128 0xb
 4907 101c 6F1E0000 		.4byte	.LASF298
 4908 1020 18       		.byte	0x18
 4909 1021 78       		.byte	0x78
 4910 1022 BF100000 		.4byte	0x10bf
 4911 1026 30       		.byte	0x30
 4912 1027 0B       		.uleb128 0xb
 4913 1028 C2290000 		.4byte	.LASF299
 4914 102c 18       		.byte	0x18
 4915 102d 7D       		.byte	0x7d
 4916 102e 99100000 		.4byte	0x1099
 4917 1032 34       		.byte	0x34
 4918 1033 0B       		.uleb128 0xb
 4919 1034 371A0000 		.4byte	.LASF300
 4920 1038 18       		.byte	0x18
 4921 1039 8D       		.byte	0x8d
 4922 103a 36120000 		.4byte	0x1236
 4923 103e 38       		.byte	0x38
 4924 103f 0B       		.uleb128 0xb
 4925 1040 5B220000 		.4byte	.LASF301
 4926 1044 18       		.byte	0x18
 4927 1045 99       		.byte	0x99
 4928 1046 5B120000 		.4byte	0x125b
 4929 104a 3C       		.byte	0x3c
 4930 104b 0B       		.uleb128 0xb
 4931 104c 04020000 		.4byte	.LASF302
 4932 1050 18       		.byte	0x18
 4933 1051 A3       		.byte	0xa3
 4934 1052 76120000 		.4byte	0x1276
 4935 1056 40       		.byte	0x40
 4936 1057 0B       		.uleb128 0xb
 4937 1058 760D0000 		.4byte	.LASF303
 4938 105c 18       		.byte	0x18
 4939 105d AC       		.byte	0xac
 4940 105e 91120000 		.4byte	0x1291
 4941 1062 44       		.byte	0x44
 4942 1063 0B       		.uleb128 0xb
 4943 1064 D30C0000 		.4byte	.LASF304
 4944 1068 18       		.byte	0x18
 4945 1069 B5       		.byte	0xb5
 4946 106a AD120000 		.4byte	0x12ad
ARM GAS  C:\Users\haske\AppData\Local\Temp\ccIkbvey.s 			page 126


 4947 106e 48       		.byte	0x48
 4948 106f 0B       		.uleb128 0xb
 4949 1070 28090000 		.4byte	.LASF305
 4950 1074 18       		.byte	0x18
 4951 1075 BA       		.byte	0xba
 4952 1076 9A010000 		.4byte	0x19a
 4953 107a 4C       		.byte	0x4c
 4954 107b 0B       		.uleb128 0xb
 4955 107c C31C0000 		.4byte	.LASF28
 4956 1080 18       		.byte	0x18
 4957 1081 BD       		.byte	0xbd
 4958 1082 8D010000 		.4byte	0x18d
 4959 1086 50       		.byte	0x50
 4960 1087 00       		.byte	0
 4961 1088 08       		.uleb128 0x8
 4962 1089 93100000 		.4byte	0x1093
 4963 108d 09       		.uleb128 0x9
 4964 108e 93100000 		.4byte	0x1093
 4965 1092 00       		.byte	0
 4966 1093 07       		.uleb128 0x7
 4967 1094 04       		.byte	0x4
 4968 1095 7F0F0000 		.4byte	0xf7f
 4969 1099 07       		.uleb128 0x7
 4970 109a 04       		.byte	0x4
 4971 109b 88100000 		.4byte	0x1088
 4972 109f 08       		.uleb128 0x8
 4973 10a0 B4100000 		.4byte	0x10b4
 4974 10a4 09       		.uleb128 0x9
 4975 10a5 93100000 		.4byte	0x1093
 4976 10a9 09       		.uleb128 0x9
 4977 10aa B4100000 		.4byte	0x10b4
 4978 10ae 09       		.uleb128 0x9
 4979 10af 0E0F0000 		.4byte	0xf0e
 4980 10b3 00       		.byte	0
 4981 10b4 07       		.uleb128 0x7
 4982 10b5 04       		.byte	0x4
 4983 10b6 BA100000 		.4byte	0x10ba
 4984 10ba 11       		.uleb128 0x11
 4985 10bb D80A0000 		.4byte	0xad8
 4986 10bf 07       		.uleb128 0x7
 4987 10c0 04       		.byte	0x4
 4988 10c1 9F100000 		.4byte	0x109f
 4989 10c5 08       		.uleb128 0x8
 4990 10c6 E9100000 		.4byte	0x10e9
 4991 10ca 09       		.uleb128 0x9
 4992 10cb 93100000 		.4byte	0x1093
 4993 10cf 09       		.uleb128 0x9
 4994 10d0 E9100000 		.4byte	0x10e9
 4995 10d4 09       		.uleb128 0x9
 4996 10d5 F4100000 		.4byte	0x10f4
 4997 10d9 09       		.uleb128 0x9
 4998 10da CE000000 		.4byte	0xce
 4999 10de 09       		.uleb128 0x9
 5000 10df CE000000 		.4byte	0xce
 5001 10e3 09       		.uleb128 0x9
 5002 10e4 CE000000 		.4byte	0xce
 5003 10e8 00       		.byte	0
ARM GAS  C:\Users\haske\AppData\Local\Temp\ccIkbvey.s 			page 127


 5004 10e9 07       		.uleb128 0x7
 5005 10ea 04       		.byte	0x4
 5006 10eb EF100000 		.4byte	0x10ef
 5007 10ef 11       		.uleb128 0x11
 5008 10f0 490D0000 		.4byte	0xd49
 5009 10f4 07       		.uleb128 0x7
 5010 10f5 04       		.byte	0x4
 5011 10f6 FA100000 		.4byte	0x10fa
 5012 10fa 11       		.uleb128 0x11
 5013 10fb E2010000 		.4byte	0x1e2
 5014 10ff 07       		.uleb128 0x7
 5015 1100 04       		.byte	0x4
 5016 1101 C5100000 		.4byte	0x10c5
 5017 1105 08       		.uleb128 0x8
 5018 1106 24110000 		.4byte	0x1124
 5019 110a 09       		.uleb128 0x9
 5020 110b 93100000 		.4byte	0x1093
 5021 110f 09       		.uleb128 0x9
 5022 1110 24110000 		.4byte	0x1124
 5023 1114 09       		.uleb128 0x9
 5024 1115 0E0F0000 		.4byte	0xf0e
 5025 1119 09       		.uleb128 0x9
 5026 111a 8A030000 		.4byte	0x38a
 5027 111e 09       		.uleb128 0x9
 5028 111f B3080000 		.4byte	0x8b3
 5029 1123 00       		.byte	0
 5030 1124 07       		.uleb128 0x7
 5031 1125 04       		.byte	0x4
 5032 1126 2A110000 		.4byte	0x112a
 5033 112a 11       		.uleb128 0x11
 5034 112b 430C0000 		.4byte	0xc43
 5035 112f 07       		.uleb128 0x7
 5036 1130 04       		.byte	0x4
 5037 1131 05110000 		.4byte	0x1105
 5038 1135 12       		.uleb128 0x12
 5039 1136 08010000 		.4byte	0x108
 5040 113a 53110000 		.4byte	0x1153
 5041 113e 09       		.uleb128 0x9
 5042 113f 93100000 		.4byte	0x1093
 5043 1143 09       		.uleb128 0x9
 5044 1144 24110000 		.4byte	0x1124
 5045 1148 09       		.uleb128 0x9
 5046 1149 0E0F0000 		.4byte	0xf0e
 5047 114d 09       		.uleb128 0x9
 5048 114e 9B030000 		.4byte	0x39b
 5049 1152 00       		.byte	0
 5050 1153 07       		.uleb128 0x7
 5051 1154 04       		.byte	0x4
 5052 1155 35110000 		.4byte	0x1135
 5053 1159 08       		.uleb128 0x8
 5054 115a 73110000 		.4byte	0x1173
 5055 115e 09       		.uleb128 0x9
 5056 115f 93100000 		.4byte	0x1093
 5057 1163 09       		.uleb128 0x9
 5058 1164 73110000 		.4byte	0x1173
 5059 1168 09       		.uleb128 0x9
 5060 1169 F4100000 		.4byte	0x10f4
ARM GAS  C:\Users\haske\AppData\Local\Temp\ccIkbvey.s 			page 128


 5061 116d 09       		.uleb128 0x9
 5062 116e E4000000 		.4byte	0xe4
 5063 1172 00       		.byte	0
 5064 1173 07       		.uleb128 0x7
 5065 1174 04       		.byte	0x4
 5066 1175 79110000 		.4byte	0x1179
 5067 1179 11       		.uleb128 0x11
 5068 117a BD0B0000 		.4byte	0xbbd
 5069 117e 07       		.uleb128 0x7
 5070 117f 04       		.byte	0x4
 5071 1180 59110000 		.4byte	0x1159
 5072 1184 08       		.uleb128 0x8
 5073 1185 9E110000 		.4byte	0x119e
 5074 1189 09       		.uleb128 0x9
 5075 118a 93100000 		.4byte	0x1093
 5076 118e 09       		.uleb128 0x9
 5077 118f 9E110000 		.4byte	0x119e
 5078 1193 09       		.uleb128 0x9
 5079 1194 F4100000 		.4byte	0x10f4
 5080 1198 09       		.uleb128 0x9
 5081 1199 F4100000 		.4byte	0x10f4
 5082 119d 00       		.byte	0
 5083 119e 07       		.uleb128 0x7
 5084 119f 04       		.byte	0x4
 5085 11a0 A4110000 		.4byte	0x11a4
 5086 11a4 11       		.uleb128 0x11
 5087 11a5 CF0C0000 		.4byte	0xccf
 5088 11a9 07       		.uleb128 0x7
 5089 11aa 04       		.byte	0x4
 5090 11ab 84110000 		.4byte	0x1184
 5091 11af 08       		.uleb128 0x8
 5092 11b0 C9110000 		.4byte	0x11c9
 5093 11b4 09       		.uleb128 0x9
 5094 11b5 93100000 		.4byte	0x1093
 5095 11b9 09       		.uleb128 0x9
 5096 11ba B4100000 		.4byte	0x10b4
 5097 11be 09       		.uleb128 0x9
 5098 11bf F4100000 		.4byte	0x10f4
 5099 11c3 09       		.uleb128 0x9
 5100 11c4 CE000000 		.4byte	0xce
 5101 11c8 00       		.byte	0
 5102 11c9 07       		.uleb128 0x7
 5103 11ca 04       		.byte	0x4
 5104 11cb AF110000 		.4byte	0x11af
 5105 11cf 08       		.uleb128 0x8
 5106 11d0 07120000 		.4byte	0x1207
 5107 11d4 09       		.uleb128 0x9
 5108 11d5 93100000 		.4byte	0x1093
 5109 11d9 09       		.uleb128 0x9
 5110 11da 0E0F0000 		.4byte	0xf0e
 5111 11de 09       		.uleb128 0x9
 5112 11df 9B030000 		.4byte	0x39b
 5113 11e3 09       		.uleb128 0x9
 5114 11e4 BA010000 		.4byte	0x1ba
 5115 11e8 09       		.uleb128 0x9
 5116 11e9 BA010000 		.4byte	0x1ba
 5117 11ed 09       		.uleb128 0x9
ARM GAS  C:\Users\haske\AppData\Local\Temp\ccIkbvey.s 			page 129


 5118 11ee BA010000 		.4byte	0x1ba
 5119 11f2 09       		.uleb128 0x9
 5120 11f3 24110000 		.4byte	0x1124
 5121 11f7 09       		.uleb128 0x9
 5122 11f8 B3080000 		.4byte	0x8b3
 5123 11fc 09       		.uleb128 0x9
 5124 11fd 8B090000 		.4byte	0x98b
 5125 1201 09       		.uleb128 0x9
 5126 1202 9E0D0000 		.4byte	0xd9e
 5127 1206 00       		.byte	0
 5128 1207 07       		.uleb128 0x7
 5129 1208 04       		.byte	0x4
 5130 1209 CF110000 		.4byte	0x11cf
 5131 120d 08       		.uleb128 0x8
 5132 120e 36120000 		.4byte	0x1236
 5133 1212 09       		.uleb128 0x9
 5134 1213 93100000 		.4byte	0x1093
 5135 1217 09       		.uleb128 0x9
 5136 1218 8D010000 		.4byte	0x18d
 5137 121c 09       		.uleb128 0x9
 5138 121d BA010000 		.4byte	0x1ba
 5139 1221 09       		.uleb128 0x9
 5140 1222 0E0F0000 		.4byte	0xf0e
 5141 1226 09       		.uleb128 0x9
 5142 1227 8D010000 		.4byte	0x18d
 5143 122b 09       		.uleb128 0x9
 5144 122c BA010000 		.4byte	0x1ba
 5145 1230 09       		.uleb128 0x9
 5146 1231 0E0F0000 		.4byte	0xf0e
 5147 1235 00       		.byte	0
 5148 1236 07       		.uleb128 0x7
 5149 1237 04       		.byte	0x4
 5150 1238 0D120000 		.4byte	0x120d
 5151 123c 12       		.uleb128 0x12
 5152 123d 55120000 		.4byte	0x1255
 5153 1241 55120000 		.4byte	0x1255
 5154 1245 09       		.uleb128 0x9
 5155 1246 93100000 		.4byte	0x1093
 5156 124a 09       		.uleb128 0x9
 5157 124b 55120000 		.4byte	0x1255
 5158 124f 09       		.uleb128 0x9
 5159 1250 CA0E0000 		.4byte	0xeca
 5160 1254 00       		.byte	0
 5161 1255 07       		.uleb128 0x7
 5162 1256 04       		.byte	0x4
 5163 1257 1F0F0000 		.4byte	0xf1f
 5164 125b 07       		.uleb128 0x7
 5165 125c 04       		.byte	0x4
 5166 125d 3C120000 		.4byte	0x123c
 5167 1261 08       		.uleb128 0x8
 5168 1262 76120000 		.4byte	0x1276
 5169 1266 09       		.uleb128 0x9
 5170 1267 93100000 		.4byte	0x1093
 5171 126b 09       		.uleb128 0x9
 5172 126c 55120000 		.4byte	0x1255
 5173 1270 09       		.uleb128 0x9
 5174 1271 CA0E0000 		.4byte	0xeca
ARM GAS  C:\Users\haske\AppData\Local\Temp\ccIkbvey.s 			page 130


 5175 1275 00       		.byte	0
 5176 1276 07       		.uleb128 0x7
 5177 1277 04       		.byte	0x4
 5178 1278 61120000 		.4byte	0x1261
 5179 127c 08       		.uleb128 0x8
 5180 127d 91120000 		.4byte	0x1291
 5181 1281 09       		.uleb128 0x9
 5182 1282 93100000 		.4byte	0x1093
 5183 1286 09       		.uleb128 0x9
 5184 1287 55120000 		.4byte	0x1255
 5185 128b 09       		.uleb128 0x9
 5186 128c 24110000 		.4byte	0x1124
 5187 1290 00       		.byte	0
 5188 1291 07       		.uleb128 0x7
 5189 1292 04       		.byte	0x4
 5190 1293 7C120000 		.4byte	0x127c
 5191 1297 08       		.uleb128 0x8
 5192 1298 A7120000 		.4byte	0x12a7
 5193 129c 09       		.uleb128 0x9
 5194 129d 93100000 		.4byte	0x1093
 5195 12a1 09       		.uleb128 0x9
 5196 12a2 A7120000 		.4byte	0x12a7
 5197 12a6 00       		.byte	0
 5198 12a7 07       		.uleb128 0x7
 5199 12a8 04       		.byte	0x4
 5200 12a9 740F0000 		.4byte	0xf74
 5201 12ad 07       		.uleb128 0x7
 5202 12ae 04       		.byte	0x4
 5203 12af 97120000 		.4byte	0x1297
 5204 12b3 02       		.uleb128 0x2
 5205 12b4 4A200000 		.4byte	.LASF306
 5206 12b8 18       		.byte	0x18
 5207 12b9 C0       		.byte	0xc0
 5208 12ba 7F0F0000 		.4byte	0xf7f
 5209 12be 02       		.uleb128 0x2
 5210 12bf 2F0B0000 		.4byte	.LASF307
 5211 12c3 19       		.byte	0x19
 5212 12c4 1D       		.byte	0x1d
 5213 12c5 B8000000 		.4byte	0xb8
 5214 12c9 0E       		.uleb128 0xe
 5215 12ca 0C       		.byte	0xc
 5216 12cb 19       		.byte	0x19
 5217 12cc 20       		.byte	0x20
 5218 12cd F6120000 		.4byte	0x12f6
 5219 12d1 0B       		.uleb128 0xb
 5220 12d2 42270000 		.4byte	.LASF308
 5221 12d6 19       		.byte	0x19
 5222 12d7 21       		.byte	0x21
 5223 12d8 E4000000 		.4byte	0xe4
 5224 12dc 00       		.byte	0
 5225 12dd 0B       		.uleb128 0xb
 5226 12de F1240000 		.4byte	.LASF309
 5227 12e2 19       		.byte	0x19
 5228 12e3 22       		.byte	0x22
 5229 12e4 F6120000 		.4byte	0x12f6
 5230 12e8 04       		.byte	0x4
 5231 12e9 0B       		.uleb128 0xb
ARM GAS  C:\Users\haske\AppData\Local\Temp\ccIkbvey.s 			page 131


 5232 12ea 25230000 		.4byte	.LASF310
 5233 12ee 19       		.byte	0x19
 5234 12ef 23       		.byte	0x23
 5235 12f0 F6120000 		.4byte	0x12f6
 5236 12f4 08       		.byte	0x8
 5237 12f5 00       		.byte	0
 5238 12f6 07       		.uleb128 0x7
 5239 12f7 04       		.byte	0x4
 5240 12f8 BE120000 		.4byte	0x12be
 5241 12fc 02       		.uleb128 0x2
 5242 12fd 3A140000 		.4byte	.LASF311
 5243 1301 19       		.byte	0x19
 5244 1302 24       		.byte	0x24
 5245 1303 C9120000 		.4byte	0x12c9
 5246 1307 0A       		.uleb128 0xa
 5247 1308 58200000 		.4byte	.LASF312
 5248 130c 1C       		.byte	0x1c
 5249 130d 1A       		.byte	0x1a
 5250 130e 32       		.byte	0x32
 5251 130f 7A130000 		.4byte	0x137a
 5252 1313 0B       		.uleb128 0xb
 5253 1314 95160000 		.4byte	.LASF313
 5254 1318 1A       		.byte	0x1a
 5255 1319 33       		.byte	0x33
 5256 131a 8D010000 		.4byte	0x18d
 5257 131e 00       		.byte	0
 5258 131f 0B       		.uleb128 0xb
 5259 1320 E2150000 		.4byte	.LASF314
 5260 1324 1A       		.byte	0x1a
 5261 1325 34       		.byte	0x34
 5262 1326 8D010000 		.4byte	0x18d
 5263 132a 04       		.byte	0x4
 5264 132b 0B       		.uleb128 0xb
 5265 132c B6260000 		.4byte	.LASF315
 5266 1330 1A       		.byte	0x1a
 5267 1331 37       		.byte	0x37
 5268 1332 8D010000 		.4byte	0x18d
 5269 1336 08       		.byte	0x8
 5270 1337 0B       		.uleb128 0xb
 5271 1338 970E0000 		.4byte	.LASF316
 5272 133c 1A       		.byte	0x1a
 5273 133d 38       		.byte	0x38
 5274 133e E4000000 		.4byte	0xe4
 5275 1342 0C       		.byte	0xc
 5276 1343 0B       		.uleb128 0xb
 5277 1344 631D0000 		.4byte	.LASF317
 5278 1348 1A       		.byte	0x1a
 5279 1349 3A       		.byte	0x3a
 5280 134a 7A130000 		.4byte	0x137a
 5281 134e 10       		.byte	0x10
 5282 134f 0B       		.uleb128 0xb
 5283 1350 0E0B0000 		.4byte	.LASF318
 5284 1354 1A       		.byte	0x1a
 5285 1355 3C       		.byte	0x3c
 5286 1356 7A130000 		.4byte	0x137a
 5287 135a 14       		.byte	0x14
 5288 135b 0C       		.uleb128 0xc
ARM GAS  C:\Users\haske\AppData\Local\Temp\ccIkbvey.s 			page 132


 5289 135c 95040000 		.4byte	.LASF319
 5290 1360 1A       		.byte	0x1a
 5291 1361 3D       		.byte	0x3d
 5292 1362 7F130000 		.4byte	0x137f
 5293 1366 04       		.byte	0x4
 5294 1367 01       		.byte	0x1
 5295 1368 1F       		.byte	0x1f
 5296 1369 18       		.byte	0x18
 5297 136a 0C       		.uleb128 0xc
 5298 136b FC290000 		.4byte	.LASF320
 5299 136f 1A       		.byte	0x1a
 5300 1370 3E       		.byte	0x3e
 5301 1371 7F130000 		.4byte	0x137f
 5302 1375 04       		.byte	0x4
 5303 1376 01       		.byte	0x1
 5304 1377 1E       		.byte	0x1e
 5305 1378 18       		.byte	0x18
 5306 1379 00       		.byte	0
 5307 137a 20       		.uleb128 0x20
 5308 137b 9F000000 		.4byte	0x9f
 5309 137f 20       		.uleb128 0x20
 5310 1380 E4000000 		.4byte	0xe4
 5311 1384 02       		.uleb128 0x2
 5312 1385 AB280000 		.4byte	.LASF321
 5313 1389 1A       		.byte	0x1a
 5314 138a 3F       		.byte	0x3f
 5315 138b 07130000 		.4byte	0x1307
 5316 138f 0A       		.uleb128 0xa
 5317 1390 FC190000 		.4byte	.LASF322
 5318 1394 50       		.byte	0x50
 5319 1395 1A       		.byte	0x1a
 5320 1396 4D       		.byte	0x4d
 5321 1397 0D150000 		.4byte	0x150d
 5322 139b 0B       		.uleb128 0xb
 5323 139c 43230000 		.4byte	.LASF323
 5324 13a0 1A       		.byte	0x1a
 5325 13a1 4F       		.byte	0x4f
 5326 13a2 BA010000 		.4byte	0x1ba
 5327 13a6 00       		.byte	0
 5328 13a7 0B       		.uleb128 0xb
 5329 13a8 AE0F0000 		.4byte	.LASF324
 5330 13ac 1A       		.byte	0x1a
 5331 13ad 50       		.byte	0x50
 5332 13ae BA010000 		.4byte	0x1ba
 5333 13b2 02       		.byte	0x2
 5334 13b3 0B       		.uleb128 0xb
 5335 13b4 F30B0000 		.4byte	.LASF325
 5336 13b8 1A       		.byte	0x1a
 5337 13b9 53       		.byte	0x53
 5338 13ba BA010000 		.4byte	0x1ba
 5339 13be 04       		.byte	0x4
 5340 13bf 0B       		.uleb128 0xb
 5341 13c0 73100000 		.4byte	.LASF326
 5342 13c4 1A       		.byte	0x1a
 5343 13c5 55       		.byte	0x55
 5344 13c6 BA010000 		.4byte	0x1ba
 5345 13ca 06       		.byte	0x6
ARM GAS  C:\Users\haske\AppData\Local\Temp\ccIkbvey.s 			page 133


 5346 13cb 0B       		.uleb128 0xb
 5347 13cc CC110000 		.4byte	.LASF327
 5348 13d0 1A       		.byte	0x1a
 5349 13d1 57       		.byte	0x57
 5350 13d2 BA010000 		.4byte	0x1ba
 5351 13d6 08       		.byte	0x8
 5352 13d7 0B       		.uleb128 0xb
 5353 13d8 D5110000 		.4byte	.LASF328
 5354 13dc 1A       		.byte	0x1a
 5355 13dd 58       		.byte	0x58
 5356 13de BA010000 		.4byte	0x1ba
 5357 13e2 0A       		.byte	0xa
 5358 13e3 0B       		.uleb128 0xb
 5359 13e4 E7280000 		.4byte	.LASF329
 5360 13e8 1A       		.byte	0x1a
 5361 13e9 5C       		.byte	0x5c
 5362 13ea 0D150000 		.4byte	0x150d
 5363 13ee 0C       		.byte	0xc
 5364 13ef 0C       		.uleb128 0xc
 5365 13f0 440F0000 		.4byte	.LASF330
 5366 13f4 1A       		.byte	0x1a
 5367 13f5 5E       		.byte	0x5e
 5368 13f6 E4000000 		.4byte	0xe4
 5369 13fa 04       		.byte	0x4
 5370 13fb 01       		.byte	0x1
 5371 13fc 1F       		.byte	0x1f
 5372 13fd 10       		.byte	0x10
 5373 13fe 0C       		.uleb128 0xc
 5374 13ff BE0E0000 		.4byte	.LASF331
 5375 1403 1A       		.byte	0x1a
 5376 1404 5F       		.byte	0x5f
 5377 1405 E4000000 		.4byte	0xe4
 5378 1409 04       		.byte	0x4
 5379 140a 01       		.byte	0x1
 5380 140b 1E       		.byte	0x1e
 5381 140c 10       		.byte	0x10
 5382 140d 0C       		.uleb128 0xc
 5383 140e 2A070000 		.4byte	.LASF332
 5384 1412 1A       		.byte	0x1a
 5385 1413 60       		.byte	0x60
 5386 1414 E4000000 		.4byte	0xe4
 5387 1418 04       		.byte	0x4
 5388 1419 01       		.byte	0x1
 5389 141a 1D       		.byte	0x1d
 5390 141b 10       		.byte	0x10
 5391 141c 0C       		.uleb128 0xc
 5392 141d F30C0000 		.4byte	.LASF333
 5393 1421 1A       		.byte	0x1a
 5394 1422 61       		.byte	0x61
 5395 1423 E4000000 		.4byte	0xe4
 5396 1427 04       		.byte	0x4
 5397 1428 01       		.byte	0x1
 5398 1429 1C       		.byte	0x1c
 5399 142a 10       		.byte	0x10
 5400 142b 0C       		.uleb128 0xc
 5401 142c BB040000 		.4byte	.LASF334
 5402 1430 1A       		.byte	0x1a
ARM GAS  C:\Users\haske\AppData\Local\Temp\ccIkbvey.s 			page 134


 5403 1431 62       		.byte	0x62
 5404 1432 E4000000 		.4byte	0xe4
 5405 1436 04       		.byte	0x4
 5406 1437 02       		.byte	0x2
 5407 1438 1A       		.byte	0x1a
 5408 1439 10       		.byte	0x10
 5409 143a 0C       		.uleb128 0xc
 5410 143b DD040000 		.4byte	.LASF280
 5411 143f 1A       		.byte	0x1a
 5412 1440 63       		.byte	0x63
 5413 1441 E4000000 		.4byte	0xe4
 5414 1445 04       		.byte	0x4
 5415 1446 01       		.byte	0x1
 5416 1447 19       		.byte	0x19
 5417 1448 10       		.byte	0x10
 5418 1449 10       		.uleb128 0x10
 5419 144a 64706900 		.ascii	"dpi\000"
 5420 144e 1A       		.byte	0x1a
 5421 144f 66       		.byte	0x66
 5422 1450 E4000000 		.4byte	0xe4
 5423 1454 04       		.byte	0x4
 5424 1455 0A       		.byte	0xa
 5425 1456 0F       		.byte	0xf
 5426 1457 10       		.byte	0x10
 5427 1458 0B       		.uleb128 0xb
 5428 1459 D9150000 		.4byte	.LASF335
 5429 145d 1A       		.byte	0x1a
 5430 145e 6A       		.byte	0x6a
 5431 145f 2E150000 		.4byte	0x152e
 5432 1463 14       		.byte	0x14
 5433 1464 0B       		.uleb128 0xb
 5434 1465 81250000 		.4byte	.LASF336
 5435 1469 1A       		.byte	0x1a
 5436 146a 6E       		.byte	0x6e
 5437 146b 44150000 		.4byte	0x1544
 5438 146f 18       		.byte	0x18
 5439 1470 0B       		.uleb128 0xb
 5440 1471 CC1D0000 		.4byte	.LASF337
 5441 1475 1A       		.byte	0x1a
 5442 1476 73       		.byte	0x73
 5443 1477 73150000 		.4byte	0x1573
 5444 147b 1C       		.byte	0x1c
 5445 147c 0B       		.uleb128 0xb
 5446 147d 031E0000 		.4byte	.LASF338
 5447 1481 1A       		.byte	0x1a
 5448 1482 76       		.byte	0x76
 5449 1483 8E150000 		.4byte	0x158e
 5450 1487 20       		.byte	0x20
 5451 1488 0B       		.uleb128 0xb
 5452 1489 A10E0000 		.4byte	.LASF339
 5453 148d 1A       		.byte	0x1a
 5454 148e 7B       		.byte	0x7b
 5455 148f A9150000 		.4byte	0x15a9
 5456 1493 24       		.byte	0x24
 5457 1494 0B       		.uleb128 0xb
 5458 1495 190C0000 		.4byte	.LASF340
 5459 1499 1A       		.byte	0x1a
ARM GAS  C:\Users\haske\AppData\Local\Temp\ccIkbvey.s 			page 135


 5460 149a 80       		.byte	0x80
 5461 149b BA150000 		.4byte	0x15ba
 5462 149f 28       		.byte	0x28
 5463 14a0 0B       		.uleb128 0xb
 5464 14a1 0B1A0000 		.4byte	.LASF341
 5465 14a5 1A       		.byte	0x1a
 5466 14a6 83       		.byte	0x83
 5467 14a7 BA150000 		.4byte	0x15ba
 5468 14ab 2C       		.byte	0x2c
 5469 14ac 0B       		.uleb128 0xb
 5470 14ad 011C0000 		.4byte	.LASF342
 5471 14b1 1A       		.byte	0x1a
 5472 14b2 86       		.byte	0x86
 5473 14b3 BA150000 		.4byte	0x15ba
 5474 14b7 30       		.byte	0x30
 5475 14b8 0B       		.uleb128 0xb
 5476 14b9 E41A0000 		.4byte	.LASF343
 5477 14bd 1A       		.byte	0x1a
 5478 14be 89       		.byte	0x89
 5479 14bf BA150000 		.4byte	0x15ba
 5480 14c3 34       		.byte	0x34
 5481 14c4 0B       		.uleb128 0xb
 5482 14c5 84160000 		.4byte	.LASF344
 5483 14c9 1A       		.byte	0x1a
 5484 14ca 8D       		.byte	0x8d
 5485 14cb 6E040000 		.4byte	0x46e
 5486 14cf 38       		.byte	0x38
 5487 14d0 0B       		.uleb128 0xb
 5488 14d1 CB2A0000 		.4byte	.LASF345
 5489 14d5 1A       		.byte	0x1a
 5490 14d6 8F       		.byte	0x8f
 5491 14d7 C0150000 		.4byte	0x15c0
 5492 14db 3C       		.byte	0x3c
 5493 14dc 0B       		.uleb128 0xb
 5494 14dd 17120000 		.4byte	.LASF346
 5495 14e1 1A       		.byte	0x1a
 5496 14e2 90       		.byte	0x90
 5497 14e3 D6150000 		.4byte	0x15d6
 5498 14e7 40       		.byte	0x40
 5499 14e8 0B       		.uleb128 0xb
 5500 14e9 8B270000 		.4byte	.LASF347
 5501 14ed 1A       		.byte	0x1a
 5502 14ee 91       		.byte	0x91
 5503 14ef D6150000 		.4byte	0x15d6
 5504 14f3 44       		.byte	0x44
 5505 14f4 0B       		.uleb128 0xb
 5506 14f5 A7010000 		.4byte	.LASF348
 5507 14f9 1A       		.byte	0x1a
 5508 14fa 92       		.byte	0x92
 5509 14fb 9A010000 		.4byte	0x19a
 5510 14ff 48       		.byte	0x48
 5511 1500 0B       		.uleb128 0xb
 5512 1501 C31C0000 		.4byte	.LASF28
 5513 1505 1A       		.byte	0x1a
 5514 1506 95       		.byte	0x95
 5515 1507 8D010000 		.4byte	0x18d
 5516 150b 4C       		.byte	0x4c
ARM GAS  C:\Users\haske\AppData\Local\Temp\ccIkbvey.s 			page 136


 5517 150c 00       		.byte	0
 5518 150d 07       		.uleb128 0x7
 5519 150e 04       		.byte	0x4
 5520 150f 84130000 		.4byte	0x1384
 5521 1513 08       		.uleb128 0x8
 5522 1514 28150000 		.4byte	0x1528
 5523 1518 09       		.uleb128 0x9
 5524 1519 28150000 		.4byte	0x1528
 5525 151d 09       		.uleb128 0x9
 5526 151e 0E0F0000 		.4byte	0xf0e
 5527 1522 09       		.uleb128 0x9
 5528 1523 8B090000 		.4byte	0x98b
 5529 1527 00       		.byte	0
 5530 1528 07       		.uleb128 0x7
 5531 1529 04       		.byte	0x4
 5532 152a 8F130000 		.4byte	0x138f
 5533 152e 07       		.uleb128 0x7
 5534 152f 04       		.byte	0x4
 5535 1530 13150000 		.4byte	0x1513
 5536 1534 08       		.uleb128 0x8
 5537 1535 44150000 		.4byte	0x1544
 5538 1539 09       		.uleb128 0x9
 5539 153a 28150000 		.4byte	0x1528
 5540 153e 09       		.uleb128 0x9
 5541 153f 190F0000 		.4byte	0xf19
 5542 1543 00       		.byte	0
 5543 1544 07       		.uleb128 0x7
 5544 1545 04       		.byte	0x4
 5545 1546 34150000 		.4byte	0x1534
 5546 154a 08       		.uleb128 0x8
 5547 154b 73150000 		.4byte	0x1573
 5548 154f 09       		.uleb128 0x9
 5549 1550 28150000 		.4byte	0x1528
 5550 1554 09       		.uleb128 0x9
 5551 1555 58080000 		.4byte	0x858
 5552 1559 09       		.uleb128 0x9
 5553 155a BA010000 		.4byte	0x1ba
 5554 155e 09       		.uleb128 0x9
 5555 155f BA010000 		.4byte	0x1ba
 5556 1563 09       		.uleb128 0x9
 5557 1564 BA010000 		.4byte	0x1ba
 5558 1568 09       		.uleb128 0x9
 5559 1569 6E040000 		.4byte	0x46e
 5560 156d 09       		.uleb128 0x9
 5561 156e AB040000 		.4byte	0x4ab
 5562 1572 00       		.byte	0
 5563 1573 07       		.uleb128 0x7
 5564 1574 04       		.byte	0x4
 5565 1575 4A150000 		.4byte	0x154a
 5566 1579 08       		.uleb128 0x8
 5567 157a 8E150000 		.4byte	0x158e
 5568 157e 09       		.uleb128 0x9
 5569 157f 28150000 		.4byte	0x1528
 5570 1583 09       		.uleb128 0x9
 5571 1584 58080000 		.4byte	0x858
 5572 1588 09       		.uleb128 0x9
 5573 1589 E4000000 		.4byte	0xe4
ARM GAS  C:\Users\haske\AppData\Local\Temp\ccIkbvey.s 			page 137


 5574 158d 00       		.byte	0
 5575 158e 07       		.uleb128 0x7
 5576 158f 04       		.byte	0x4
 5577 1590 79150000 		.4byte	0x1579
 5578 1594 08       		.uleb128 0x8
 5579 1595 A9150000 		.4byte	0x15a9
 5580 1599 09       		.uleb128 0x9
 5581 159a 28150000 		.4byte	0x1528
 5582 159e 09       		.uleb128 0x9
 5583 159f E4000000 		.4byte	0xe4
 5584 15a3 09       		.uleb128 0x9
 5585 15a4 E4000000 		.4byte	0xe4
 5586 15a8 00       		.byte	0
 5587 15a9 07       		.uleb128 0x7
 5588 15aa 04       		.byte	0x4
 5589 15ab 94150000 		.4byte	0x1594
 5590 15af 08       		.uleb128 0x8
 5591 15b0 BA150000 		.4byte	0x15ba
 5592 15b4 09       		.uleb128 0x9
 5593 15b5 28150000 		.4byte	0x1528
 5594 15b9 00       		.byte	0
 5595 15ba 07       		.uleb128 0x7
 5596 15bb 04       		.byte	0x4
 5597 15bc AF150000 		.4byte	0x15af
 5598 15c0 07       		.uleb128 0x7
 5599 15c1 04       		.byte	0x4
 5600 15c2 B3120000 		.4byte	0x12b3
 5601 15c6 08       		.uleb128 0x8
 5602 15c7 D6150000 		.4byte	0x15d6
 5603 15cb 09       		.uleb128 0x9
 5604 15cc 28150000 		.4byte	0x1528
 5605 15d0 09       		.uleb128 0x9
 5606 15d1 C0150000 		.4byte	0x15c0
 5607 15d5 00       		.byte	0
 5608 15d6 07       		.uleb128 0x7
 5609 15d7 04       		.byte	0x4
 5610 15d8 C6150000 		.4byte	0x15c6
 5611 15dc 21       		.uleb128 0x21
 5612 15dd ED160000 		.4byte	.LASF349
 5613 15e1 5C01     		.2byte	0x15c
 5614 15e3 1A       		.byte	0x1a
 5615 15e4 9E       		.byte	0x9e
 5616 15e5 F3160000 		.4byte	0x16f3
 5617 15e9 0B       		.uleb128 0xb
 5618 15ea FF210000 		.4byte	.LASF350
 5619 15ee 1A       		.byte	0x1a
 5620 15ef A0       		.byte	0xa0
 5621 15f0 28150000 		.4byte	0x1528
 5622 15f4 00       		.byte	0
 5623 15f5 0B       		.uleb128 0xb
 5624 15f6 5F250000 		.4byte	.LASF351
 5625 15fa 1A       		.byte	0x1a
 5626 15fb A3       		.byte	0xa3
 5627 15fc F3160000 		.4byte	0x16f3
 5628 1600 04       		.byte	0x4
 5629 1601 0B       		.uleb128 0xb
 5630 1602 A80F0000 		.4byte	.LASF352
ARM GAS  C:\Users\haske\AppData\Local\Temp\ccIkbvey.s 			page 138


 5631 1606 1A       		.byte	0x1a
 5632 1607 A6       		.byte	0xa6
 5633 1608 7E170000 		.4byte	0x177e
 5634 160c 08       		.byte	0x8
 5635 160d 0B       		.uleb128 0xb
 5636 160e E4220000 		.4byte	.LASF353
 5637 1612 1A       		.byte	0x1a
 5638 1613 A9       		.byte	0xa9
 5639 1614 84170000 		.4byte	0x1784
 5640 1618 0C       		.byte	0xc
 5641 1619 0B       		.uleb128 0xb
 5642 161a 41100000 		.4byte	.LASF354
 5643 161e 1A       		.byte	0x1a
 5644 161f AA       		.byte	0xaa
 5645 1620 BE080000 		.4byte	0x8be
 5646 1624 10       		.byte	0x10
 5647 1625 0B       		.uleb128 0xb
 5648 1626 42140000 		.4byte	.LASF355
 5649 162a 1A       		.byte	0x1a
 5650 162b AB       		.byte	0xab
 5651 162c BE080000 		.4byte	0x8be
 5652 1630 14       		.byte	0x14
 5653 1631 0B       		.uleb128 0xb
 5654 1632 D81E0000 		.4byte	.LASF356
 5655 1636 1A       		.byte	0x1a
 5656 1637 AC       		.byte	0xac
 5657 1638 BE080000 		.4byte	0x8be
 5658 163c 18       		.byte	0x18
 5659 163d 0B       		.uleb128 0xb
 5660 163e CE1E0000 		.4byte	.LASF357
 5661 1642 1A       		.byte	0x1a
 5662 1643 AD       		.byte	0xad
 5663 1644 BE080000 		.4byte	0x8be
 5664 1648 1C       		.byte	0x1c
 5665 1649 0B       		.uleb128 0xb
 5666 164a 782C0000 		.4byte	.LASF358
 5667 164e 1A       		.byte	0x1a
 5668 164f AE       		.byte	0xae
 5669 1650 BE080000 		.4byte	0x8be
 5670 1654 20       		.byte	0x20
 5671 1655 0B       		.uleb128 0xb
 5672 1656 8F220000 		.4byte	.LASF359
 5673 165a 1A       		.byte	0x1a
 5674 165b AF       		.byte	0xaf
 5675 165c E4000000 		.4byte	0xe4
 5676 1660 24       		.byte	0x24
 5677 1661 0C       		.uleb128 0xc
 5678 1662 1C0B0000 		.4byte	.LASF360
 5679 1666 1A       		.byte	0x1a
 5680 1667 B0       		.byte	0xb0
 5681 1668 B8000000 		.4byte	0xb8
 5682 166c 01       		.byte	0x1
 5683 166d 01       		.byte	0x1
 5684 166e 07       		.byte	0x7
 5685 166f 28       		.byte	0x28
 5686 1670 0C       		.uleb128 0xc
 5687 1671 CD0A0000 		.4byte	.LASF361
ARM GAS  C:\Users\haske\AppData\Local\Temp\ccIkbvey.s 			page 139


 5688 1675 1A       		.byte	0x1a
 5689 1676 B2       		.byte	0xb2
 5690 1677 B8000000 		.4byte	0xb8
 5691 167b 01       		.byte	0x1
 5692 167c 01       		.byte	0x1
 5693 167d 06       		.byte	0x6
 5694 167e 28       		.byte	0x28
 5695 167f 0C       		.uleb128 0xc
 5696 1680 EF110000 		.4byte	.LASF362
 5697 1684 1A       		.byte	0x1a
 5698 1685 B4       		.byte	0xb4
 5699 1686 B8000000 		.4byte	0xb8
 5700 168a 01       		.byte	0x1
 5701 168b 01       		.byte	0x1
 5702 168c 05       		.byte	0x5
 5703 168d 28       		.byte	0x28
 5704 168e 0B       		.uleb128 0xb
 5705 168f 0E000000 		.4byte	.LASF202
 5706 1693 1A       		.byte	0x1a
 5707 1694 B6       		.byte	0xb6
 5708 1695 AB040000 		.4byte	0x4ab
 5709 1699 29       		.byte	0x29
 5710 169a 0B       		.uleb128 0xb
 5711 169b 342D0000 		.4byte	.LASF203
 5712 169f 1A       		.byte	0x1a
 5713 16a0 B7       		.byte	0xb7
 5714 16a1 6E040000 		.4byte	0x46e
 5715 16a5 2A       		.byte	0x2a
 5716 16a6 0B       		.uleb128 0xb
 5717 16a7 EF0F0000 		.4byte	.LASF363
 5718 16ab 1A       		.byte	0x1a
 5719 16ac B8       		.byte	0xb8
 5720 16ad 9B030000 		.4byte	0x39b
 5721 16b1 2C       		.byte	0x2c
 5722 16b2 0B       		.uleb128 0xb
 5723 16b3 BA1D0000 		.4byte	.LASF364
 5724 16b7 1A       		.byte	0x1a
 5725 16b8 BB       		.byte	0xbb
 5726 16b9 8A170000 		.4byte	0x178a
 5727 16bd 30       		.byte	0x30
 5728 16be 22       		.uleb128 0x22
 5729 16bf BB2A0000 		.4byte	.LASF365
 5730 16c3 1A       		.byte	0x1a
 5731 16c4 BC       		.byte	0xbc
 5732 16c5 9A170000 		.4byte	0x179a
 5733 16c9 3001     		.2byte	0x130
 5734 16cb 22       		.uleb128 0x22
 5735 16cc 14250000 		.4byte	.LASF366
 5736 16d0 1A       		.byte	0x1a
 5737 16d1 BD       		.byte	0xbd
 5738 16d2 CE000000 		.4byte	0xce
 5739 16d6 5001     		.2byte	0x150
 5740 16d8 22       		.uleb128 0x22
 5741 16d9 93090000 		.4byte	.LASF367
 5742 16dd 1A       		.byte	0x1a
 5743 16de BE       		.byte	0xbe
 5744 16df D9000000 		.4byte	0xd9
ARM GAS  C:\Users\haske\AppData\Local\Temp\ccIkbvey.s 			page 140


 5745 16e3 5401     		.2byte	0x154
 5746 16e5 22       		.uleb128 0x22
 5747 16e6 11020000 		.4byte	.LASF368
 5748 16ea 1A       		.byte	0x1a
 5749 16eb C1       		.byte	0xc1
 5750 16ec E4000000 		.4byte	0xe4
 5751 16f0 5801     		.2byte	0x158
 5752 16f2 00       		.byte	0
 5753 16f3 07       		.uleb128 0x7
 5754 16f4 04       		.byte	0x4
 5755 16f5 8F010000 		.4byte	0x18f
 5756 16f9 0A       		.uleb128 0xa
 5757 16fa DB190000 		.4byte	.LASF369
 5758 16fe 24       		.byte	0x24
 5759 16ff 1B       		.byte	0x1b
 5760 1700 1F       		.byte	0x1f
 5761 1701 7E170000 		.4byte	0x177e
 5762 1705 0B       		.uleb128 0xb
 5763 1706 F6120000 		.4byte	.LASF370
 5764 170a 1B       		.byte	0x1b
 5765 170b 20       		.byte	0x20
 5766 170c 55220000 		.4byte	0x2255
 5767 1710 00       		.byte	0
 5768 1711 0B       		.uleb128 0xb
 5769 1712 69260000 		.4byte	.LASF188
 5770 1716 1B       		.byte	0x1b
 5771 1717 21       		.byte	0x21
 5772 1718 7E170000 		.4byte	0x177e
 5773 171c 04       		.byte	0x4
 5774 171d 0B       		.uleb128 0xb
 5775 171e C31C0000 		.4byte	.LASF28
 5776 1722 1B       		.byte	0x1b
 5777 1723 22       		.byte	0x22
 5778 1724 8D010000 		.4byte	0x18d
 5779 1728 08       		.byte	0x8
 5780 1729 0B       		.uleb128 0xb
 5781 172a 40180000 		.4byte	.LASF371
 5782 172e 1B       		.byte	0x1b
 5783 172f 23       		.byte	0x23
 5784 1730 35190000 		.4byte	0x1935
 5785 1734 0C       		.byte	0xc
 5786 1735 0B       		.uleb128 0xb
 5787 1736 C2220000 		.4byte	.LASF372
 5788 173a 1B       		.byte	0x1b
 5789 173b 24       		.byte	0x24
 5790 173c 6E040000 		.4byte	0x46e
 5791 1740 10       		.byte	0x10
 5792 1741 0B       		.uleb128 0xb
 5793 1742 F82B0000 		.4byte	.LASF373
 5794 1746 1B       		.byte	0x1b
 5795 1747 25       		.byte	0x25
 5796 1748 6E040000 		.4byte	0x46e
 5797 174c 12       		.byte	0x12
 5798 174d 0B       		.uleb128 0xb
 5799 174e 1C210000 		.4byte	.LASF374
 5800 1752 1B       		.byte	0x1b
 5801 1753 26       		.byte	0x26
ARM GAS  C:\Users\haske\AppData\Local\Temp\ccIkbvey.s 			page 141


 5802 1754 B20B0000 		.4byte	0xbb2
 5803 1758 14       		.byte	0x14
 5804 1759 0B       		.uleb128 0xb
 5805 175a D4020000 		.4byte	.LASF375
 5806 175e 1B       		.byte	0x1b
 5807 175f 27       		.byte	0x27
 5808 1760 B20B0000 		.4byte	0xbb2
 5809 1764 18       		.byte	0x18
 5810 1765 0B       		.uleb128 0xb
 5811 1766 350D0000 		.4byte	.LASF376
 5812 176a 1B       		.byte	0x1b
 5813 176b 28       		.byte	0x28
 5814 176c B20B0000 		.4byte	0xbb2
 5815 1770 1C       		.byte	0x1c
 5816 1771 0B       		.uleb128 0xb
 5817 1772 482D0000 		.4byte	.LASF192
 5818 1776 1B       		.byte	0x1b
 5819 1777 29       		.byte	0x29
 5820 1778 E4000000 		.4byte	0xe4
 5821 177c 20       		.byte	0x20
 5822 177d 00       		.byte	0
 5823 177e 07       		.uleb128 0x7
 5824 177f 04       		.byte	0x4
 5825 1780 F9160000 		.4byte	0x16f9
 5826 1784 07       		.uleb128 0x7
 5827 1785 04       		.byte	0x4
 5828 1786 BE080000 		.4byte	0x8be
 5829 178a 17       		.uleb128 0x17
 5830 178b 22020000 		.4byte	0x222
 5831 178f 9A170000 		.4byte	0x179a
 5832 1793 18       		.uleb128 0x18
 5833 1794 AC010000 		.4byte	0x1ac
 5834 1798 1F       		.byte	0x1f
 5835 1799 00       		.byte	0
 5836 179a 17       		.uleb128 0x17
 5837 179b B8000000 		.4byte	0xb8
 5838 179f AA170000 		.4byte	0x17aa
 5839 17a3 18       		.uleb128 0x18
 5840 17a4 AC010000 		.4byte	0x1ac
 5841 17a8 1F       		.byte	0x1f
 5842 17a9 00       		.byte	0
 5843 17aa 05       		.uleb128 0x5
 5844 17ab 01       		.byte	0x1
 5845 17ac 42000000 		.4byte	0x42
 5846 17b0 1C       		.byte	0x1c
 5847 17b1 3E       		.byte	0x3e
 5848 17b2 D5170000 		.4byte	0x17d5
 5849 17b6 06       		.uleb128 0x6
 5850 17b7 CA090000 		.4byte	.LASF377
 5851 17bb 00       		.byte	0
 5852 17bc 06       		.uleb128 0x6
 5853 17bd 430B0000 		.4byte	.LASF378
 5854 17c1 01       		.byte	0x1
 5855 17c2 06       		.uleb128 0x6
 5856 17c3 8E230000 		.4byte	.LASF379
 5857 17c7 02       		.byte	0x2
 5858 17c8 06       		.uleb128 0x6
ARM GAS  C:\Users\haske\AppData\Local\Temp\ccIkbvey.s 			page 142


 5859 17c9 8C250000 		.4byte	.LASF380
 5860 17cd 03       		.byte	0x3
 5861 17ce 06       		.uleb128 0x6
 5862 17cf 77180000 		.4byte	.LASF381
 5863 17d3 04       		.byte	0x4
 5864 17d4 00       		.byte	0
 5865 17d5 02       		.uleb128 0x2
 5866 17d6 19170000 		.4byte	.LASF382
 5867 17da 1C       		.byte	0x1c
 5868 17db 44       		.byte	0x44
 5869 17dc AA170000 		.4byte	0x17aa
 5870 17e0 05       		.uleb128 0x5
 5871 17e1 01       		.byte	0x1
 5872 17e2 42000000 		.4byte	0x42
 5873 17e6 1C       		.byte	0x1c
 5874 17e7 47       		.byte	0x47
 5875 17e8 F9170000 		.4byte	0x17f9
 5876 17ec 06       		.uleb128 0x6
 5877 17ed CF180000 		.4byte	.LASF383
 5878 17f1 00       		.byte	0
 5879 17f2 06       		.uleb128 0x6
 5880 17f3 F41A0000 		.4byte	.LASF384
 5881 17f7 01       		.byte	0x1
 5882 17f8 00       		.byte	0
 5883 17f9 02       		.uleb128 0x2
 5884 17fa 49070000 		.4byte	.LASF385
 5885 17fe 1C       		.byte	0x1c
 5886 17ff 4A       		.byte	0x4a
 5887 1800 E0170000 		.4byte	0x17e0
 5888 1804 0E       		.uleb128 0xe
 5889 1805 10       		.byte	0x10
 5890 1806 1C       		.byte	0x1c
 5891 1807 4D       		.byte	0x4d
 5892 1808 55180000 		.4byte	0x1855
 5893 180c 0B       		.uleb128 0xb
 5894 180d 7C130000 		.4byte	.LASF386
 5895 1811 1C       		.byte	0x1c
 5896 1812 4E       		.byte	0x4e
 5897 1813 E2010000 		.4byte	0x1e2
 5898 1817 00       		.byte	0
 5899 1818 0F       		.uleb128 0xf
 5900 1819 6B657900 		.ascii	"key\000"
 5901 181d 1C       		.byte	0x1c
 5902 181e 4F       		.byte	0x4f
 5903 181f E4000000 		.4byte	0xe4
 5904 1823 04       		.byte	0x4
 5905 1824 0B       		.uleb128 0xb
 5906 1825 1E1D0000 		.4byte	.LASF387
 5907 1829 1C       		.byte	0x1c
 5908 182a 50       		.byte	0x50
 5909 182b E4000000 		.4byte	0xe4
 5910 182f 08       		.byte	0x8
 5911 1830 0B       		.uleb128 0xb
 5912 1831 9F0F0000 		.4byte	.LASF388
 5913 1835 1C       		.byte	0x1c
 5914 1836 51       		.byte	0x51
 5915 1837 C3000000 		.4byte	0xc3
ARM GAS  C:\Users\haske\AppData\Local\Temp\ccIkbvey.s 			page 143


 5916 183b 0C       		.byte	0xc
 5917 183c 0B       		.uleb128 0xb
 5918 183d A6190000 		.4byte	.LASF193
 5919 1841 1C       		.byte	0x1c
 5920 1842 53       		.byte	0x53
 5921 1843 F9170000 		.4byte	0x17f9
 5922 1847 0E       		.byte	0xe
 5923 1848 0B       		.uleb128 0xb
 5924 1849 B0020000 		.4byte	.LASF389
 5925 184d 1C       		.byte	0x1c
 5926 184e 54       		.byte	0x54
 5927 184f 63030000 		.4byte	0x363
 5928 1853 0F       		.byte	0xf
 5929 1854 00       		.byte	0
 5930 1855 02       		.uleb128 0x2
 5931 1856 BB1A0000 		.4byte	.LASF390
 5932 185a 1C       		.byte	0x1c
 5933 185b 55       		.byte	0x55
 5934 185c 04180000 		.4byte	0x1804
 5935 1860 0A       		.uleb128 0xa
 5936 1861 2D1D0000 		.4byte	.LASF391
 5937 1865 20       		.byte	0x20
 5938 1866 1C       		.byte	0x1c
 5939 1867 58       		.byte	0x58
 5940 1868 FD180000 		.4byte	0x18fd
 5941 186c 0B       		.uleb128 0xb
 5942 186d 6E160000 		.4byte	.LASF262
 5943 1871 1C       		.byte	0x1c
 5944 1872 5B       		.byte	0x5b
 5945 1873 D5170000 		.4byte	0x17d5
 5946 1877 00       		.byte	0
 5947 1878 0B       		.uleb128 0xb
 5948 1879 F60F0000 		.4byte	.LASF392
 5949 187d 1C       		.byte	0x1c
 5950 187e 5E       		.byte	0x5e
 5951 187f 19190000 		.4byte	0x1919
 5952 1883 04       		.byte	0x4
 5953 1884 0B       		.uleb128 0xb
 5954 1885 A4020000 		.4byte	.LASF393
 5955 1889 1C       		.byte	0x1c
 5956 188a 62       		.byte	0x62
 5957 188b 2F190000 		.4byte	0x192f
 5958 188f 08       		.byte	0x8
 5959 1890 0B       		.uleb128 0xb
 5960 1891 C31C0000 		.4byte	.LASF28
 5961 1895 1C       		.byte	0x1c
 5962 1896 65       		.byte	0x65
 5963 1897 8D010000 		.4byte	0x18d
 5964 189b 0C       		.byte	0xc
 5965 189c 0B       		.uleb128 0xb
 5966 189d 40180000 		.4byte	.LASF371
 5967 18a1 1C       		.byte	0x1c
 5968 18a2 69       		.byte	0x69
 5969 18a3 35190000 		.4byte	0x1935
 5970 18a7 10       		.byte	0x10
 5971 18a8 0B       		.uleb128 0xb
 5972 18a9 8C260000 		.4byte	.LASF394
ARM GAS  C:\Users\haske\AppData\Local\Temp\ccIkbvey.s 			page 144


 5973 18ad 1C       		.byte	0x1c
 5974 18ae 6C       		.byte	0x6c
 5975 18af F3160000 		.4byte	0x16f3
 5976 18b3 14       		.byte	0x14
 5977 18b4 0B       		.uleb128 0xb
 5978 18b5 89120000 		.4byte	.LASF395
 5979 18b9 1C       		.byte	0x1c
 5980 18ba 6F       		.byte	0x6f
 5981 18bb B8000000 		.4byte	0xb8
 5982 18bf 18       		.byte	0x18
 5983 18c0 0B       		.uleb128 0xb
 5984 18c1 8F010000 		.4byte	.LASF396
 5985 18c5 1C       		.byte	0x1c
 5986 18c6 72       		.byte	0x72
 5987 18c7 B8000000 		.4byte	0xb8
 5988 18cb 19       		.byte	0x19
 5989 18cc 0B       		.uleb128 0xb
 5990 18cd A8090000 		.4byte	.LASF397
 5991 18d1 1C       		.byte	0x1c
 5992 18d2 75       		.byte	0x75
 5993 18d3 B8000000 		.4byte	0xb8
 5994 18d7 1A       		.byte	0x1a
 5995 18d8 0B       		.uleb128 0xb
 5996 18d9 8C170000 		.4byte	.LASF398
 5997 18dd 1C       		.byte	0x1c
 5998 18de 78       		.byte	0x78
 5999 18df B8000000 		.4byte	0xb8
 6000 18e3 1B       		.byte	0x1b
 6001 18e4 0B       		.uleb128 0xb
 6002 18e5 E6000000 		.4byte	.LASF399
 6003 18e9 1C       		.byte	0x1c
 6004 18ea 7B       		.byte	0x7b
 6005 18eb CE000000 		.4byte	0xce
 6006 18ef 1C       		.byte	0x1c
 6007 18f0 0B       		.uleb128 0xb
 6008 18f1 1C2A0000 		.4byte	.LASF400
 6009 18f5 1C       		.byte	0x1c
 6010 18f6 7E       		.byte	0x7e
 6011 18f7 CE000000 		.4byte	0xce
 6012 18fb 1E       		.byte	0x1e
 6013 18fc 00       		.byte	0
 6014 18fd 08       		.uleb128 0x8
 6015 18fe 0D190000 		.4byte	0x190d
 6016 1902 09       		.uleb128 0x9
 6017 1903 0D190000 		.4byte	0x190d
 6018 1907 09       		.uleb128 0x9
 6019 1908 13190000 		.4byte	0x1913
 6020 190c 00       		.byte	0
 6021 190d 07       		.uleb128 0x7
 6022 190e 04       		.byte	0x4
 6023 190f 60180000 		.4byte	0x1860
 6024 1913 07       		.uleb128 0x7
 6025 1914 04       		.byte	0x4
 6026 1915 55180000 		.4byte	0x1855
 6027 1919 07       		.uleb128 0x7
 6028 191a 04       		.byte	0x4
 6029 191b FD180000 		.4byte	0x18fd
ARM GAS  C:\Users\haske\AppData\Local\Temp\ccIkbvey.s 			page 145


 6030 191f 08       		.uleb128 0x8
 6031 1920 2F190000 		.4byte	0x192f
 6032 1924 09       		.uleb128 0x9
 6033 1925 0D190000 		.4byte	0x190d
 6034 1929 09       		.uleb128 0x9
 6035 192a B8000000 		.4byte	0xb8
 6036 192e 00       		.byte	0
 6037 192f 07       		.uleb128 0x7
 6038 1930 04       		.byte	0x4
 6039 1931 1F190000 		.4byte	0x191f
 6040 1935 07       		.uleb128 0x7
 6041 1936 04       		.byte	0x4
 6042 1937 DC150000 		.4byte	0x15dc
 6043 193b 0E       		.uleb128 0xe
 6044 193c 40       		.byte	0x40
 6045 193d 1C       		.byte	0x1c
 6046 193e 8D       		.byte	0x8d
 6047 193f 191A0000 		.4byte	0x1a19
 6048 1943 0B       		.uleb128 0xb
 6049 1944 E62A0000 		.4byte	.LASF401
 6050 1948 1C       		.byte	0x1c
 6051 1949 8F       		.byte	0x8f
 6052 194a E2010000 		.4byte	0x1e2
 6053 194e 00       		.byte	0
 6054 194f 0B       		.uleb128 0xb
 6055 1950 4B140000 		.4byte	.LASF402
 6056 1954 1C       		.byte	0x1c
 6057 1955 90       		.byte	0x90
 6058 1956 E2010000 		.4byte	0x1e2
 6059 195a 04       		.byte	0x4
 6060 195b 0B       		.uleb128 0xb
 6061 195c 7B200000 		.4byte	.LASF403
 6062 1960 1C       		.byte	0x1c
 6063 1961 91       		.byte	0x91
 6064 1962 E2010000 		.4byte	0x1e2
 6065 1966 08       		.byte	0x8
 6066 1967 0B       		.uleb128 0xb
 6067 1968 350A0000 		.4byte	.LASF404
 6068 196c 1C       		.byte	0x1c
 6069 196d 92       		.byte	0x92
 6070 196e E2010000 		.4byte	0x1e2
 6071 1972 0C       		.byte	0xc
 6072 1973 0B       		.uleb128 0xb
 6073 1974 D1000000 		.4byte	.LASF405
 6074 1978 1C       		.byte	0x1c
 6075 1979 93       		.byte	0x93
 6076 197a E2010000 		.4byte	0x1e2
 6077 197e 10       		.byte	0x10
 6078 197f 0B       		.uleb128 0xb
 6079 1980 3B050000 		.4byte	.LASF406
 6080 1984 1C       		.byte	0x1c
 6081 1985 94       		.byte	0x94
 6082 1986 E2010000 		.4byte	0x1e2
 6083 198a 14       		.byte	0x14
 6084 198b 0B       		.uleb128 0xb
 6085 198c 25240000 		.4byte	.LASF407
 6086 1990 1C       		.byte	0x1c
ARM GAS  C:\Users\haske\AppData\Local\Temp\ccIkbvey.s 			page 146


 6087 1991 95       		.byte	0x95
 6088 1992 E2010000 		.4byte	0x1e2
 6089 1996 18       		.byte	0x18
 6090 1997 0B       		.uleb128 0xb
 6091 1998 6C1D0000 		.4byte	.LASF408
 6092 199c 1C       		.byte	0x1c
 6093 199d 96       		.byte	0x96
 6094 199e E2010000 		.4byte	0x1e2
 6095 19a2 1C       		.byte	0x1c
 6096 19a3 0B       		.uleb128 0xb
 6097 19a4 FE2C0000 		.4byte	.LASF409
 6098 19a8 1C       		.byte	0x1c
 6099 19a9 97       		.byte	0x97
 6100 19aa BE080000 		.4byte	0x8be
 6101 19ae 20       		.byte	0x20
 6102 19af 0B       		.uleb128 0xb
 6103 19b0 0B260000 		.4byte	.LASF410
 6104 19b4 1C       		.byte	0x1c
 6105 19b5 98       		.byte	0x98
 6106 19b6 BE080000 		.4byte	0x8be
 6107 19ba 24       		.byte	0x24
 6108 19bb 0B       		.uleb128 0xb
 6109 19bc 15000000 		.4byte	.LASF411
 6110 19c0 1C       		.byte	0x1c
 6111 19c1 99       		.byte	0x99
 6112 19c2 BE080000 		.4byte	0x8be
 6113 19c6 28       		.byte	0x28
 6114 19c7 0B       		.uleb128 0xb
 6115 19c8 A42A0000 		.4byte	.LASF412
 6116 19cc 1C       		.byte	0x1c
 6117 19cd 9A       		.byte	0x9a
 6118 19ce BE080000 		.4byte	0x8be
 6119 19d2 2C       		.byte	0x2c
 6120 19d3 0B       		.uleb128 0xb
 6121 19d4 47120000 		.4byte	.LASF413
 6122 19d8 1C       		.byte	0x1c
 6123 19d9 9B       		.byte	0x9b
 6124 19da 22020000 		.4byte	0x222
 6125 19de 30       		.byte	0x30
 6126 19df 0B       		.uleb128 0xb
 6127 19e0 AA0B0000 		.4byte	.LASF414
 6128 19e4 1C       		.byte	0x1c
 6129 19e5 9D       		.byte	0x9d
 6130 19e6 E2010000 		.4byte	0x1e2
 6131 19ea 38       		.byte	0x38
 6132 19eb 0C       		.uleb128 0xc
 6133 19ec 81140000 		.4byte	.LASF415
 6134 19f0 1C       		.byte	0x1c
 6135 19f1 9F       		.byte	0x9f
 6136 19f2 2D020000 		.4byte	0x22d
 6137 19f6 01       		.byte	0x1
 6138 19f7 04       		.byte	0x4
 6139 19f8 04       		.byte	0x4
 6140 19f9 3C       		.byte	0x3c
 6141 19fa 0C       		.uleb128 0xc
 6142 19fb 1F010000 		.4byte	.LASF416
 6143 19ff 1C       		.byte	0x1c
ARM GAS  C:\Users\haske\AppData\Local\Temp\ccIkbvey.s 			page 147


 6144 1a00 A0       		.byte	0xa0
 6145 1a01 2D020000 		.4byte	0x22d
 6146 1a05 01       		.byte	0x1
 6147 1a06 04       		.byte	0x4
 6148 1a07 00       		.byte	0
 6149 1a08 3C       		.byte	0x3c
 6150 1a09 0C       		.uleb128 0xc
 6151 1a0a 210C0000 		.4byte	.LASF417
 6152 1a0e 1C       		.byte	0x1c
 6153 1a0f A1       		.byte	0xa1
 6154 1a10 B8000000 		.4byte	0xb8
 6155 1a14 01       		.byte	0x1
 6156 1a15 01       		.byte	0x1
 6157 1a16 07       		.byte	0x7
 6158 1a17 3D       		.byte	0x3d
 6159 1a18 00       		.byte	0
 6160 1a19 0E       		.uleb128 0xe
 6161 1a1a 08       		.byte	0x8
 6162 1a1b 1C       		.byte	0x1c
 6163 1a1c A3       		.byte	0xa3
 6164 1a1d 3A1A0000 		.4byte	0x1a3a
 6165 1a21 0B       		.uleb128 0xb
 6166 1a22 07100000 		.4byte	.LASF418
 6167 1a26 1C       		.byte	0x1c
 6168 1a27 A5       		.byte	0xa5
 6169 1a28 F9170000 		.4byte	0x17f9
 6170 1a2c 00       		.byte	0
 6171 1a2d 0B       		.uleb128 0xb
 6172 1a2e 74150000 		.4byte	.LASF419
 6173 1a32 1C       		.byte	0x1c
 6174 1a33 A6       		.byte	0xa6
 6175 1a34 E4000000 		.4byte	0xe4
 6176 1a38 04       		.byte	0x4
 6177 1a39 00       		.byte	0
 6178 1a3a 14       		.uleb128 0x14
 6179 1a3b 40       		.byte	0x40
 6180 1a3c 1C       		.byte	0x1c
 6181 1a3d 8C       		.byte	0x8c
 6182 1a3e 591A0000 		.4byte	0x1a59
 6183 1a42 16       		.uleb128 0x16
 6184 1a43 4A1B0000 		.4byte	.LASF420
 6185 1a47 1C       		.byte	0x1c
 6186 1a48 A2       		.byte	0xa2
 6187 1a49 3B190000 		.4byte	0x193b
 6188 1a4d 16       		.uleb128 0x16
 6189 1a4e 422B0000 		.4byte	.LASF421
 6190 1a52 1C       		.byte	0x1c
 6191 1a53 A7       		.byte	0xa7
 6192 1a54 191A0000 		.4byte	0x1a19
 6193 1a58 00       		.byte	0
 6194 1a59 0A       		.uleb128 0xa
 6195 1a5a BC0A0000 		.4byte	.LASF422
 6196 1a5e 4C       		.byte	0x4c
 6197 1a5f 1C       		.byte	0x1c
 6198 1a60 84       		.byte	0x84
 6199 1a61 D21A0000 		.4byte	0x1ad2
 6200 1a65 0B       		.uleb128 0xb
ARM GAS  C:\Users\haske\AppData\Local\Temp\ccIkbvey.s 			page 148


 6201 1a66 A6190000 		.4byte	.LASF193
 6202 1a6a 1C       		.byte	0x1c
 6203 1a6b 85       		.byte	0x85
 6204 1a6c F9170000 		.4byte	0x17f9
 6205 1a70 00       		.byte	0
 6206 1a71 0C       		.uleb128 0xc
 6207 1a72 37220000 		.4byte	.LASF423
 6208 1a76 1C       		.byte	0x1c
 6209 1a77 87       		.byte	0x87
 6210 1a78 B8000000 		.4byte	0xb8
 6211 1a7c 01       		.byte	0x1
 6212 1a7d 01       		.byte	0x1
 6213 1a7e 07       		.byte	0x7
 6214 1a7f 01       		.byte	0x1
 6215 1a80 0C       		.uleb128 0xc
 6216 1a81 52030000 		.4byte	.LASF424
 6217 1a85 1C       		.byte	0x1c
 6218 1a86 88       		.byte	0x88
 6219 1a87 B8000000 		.4byte	0xb8
 6220 1a8b 01       		.byte	0x1
 6221 1a8c 01       		.byte	0x1
 6222 1a8d 06       		.byte	0x6
 6223 1a8e 01       		.byte	0x1
 6224 1a8f 0C       		.uleb128 0xc
 6225 1a90 21070000 		.4byte	.LASF425
 6226 1a94 1C       		.byte	0x1c
 6227 1a95 89       		.byte	0x89
 6228 1a96 B8000000 		.4byte	0xb8
 6229 1a9a 01       		.byte	0x1
 6230 1a9b 01       		.byte	0x1
 6231 1a9c 05       		.byte	0x5
 6232 1a9d 01       		.byte	0x1
 6233 1a9e 0C       		.uleb128 0xc
 6234 1a9f C1020000 		.4byte	.LASF426
 6235 1aa3 1C       		.byte	0x1c
 6236 1aa4 8A       		.byte	0x8a
 6237 1aa5 B8000000 		.4byte	0xb8
 6238 1aa9 01       		.byte	0x1
 6239 1aaa 01       		.byte	0x1
 6240 1aab 04       		.byte	0x4
 6241 1aac 01       		.byte	0x1
 6242 1aad 0B       		.uleb128 0xb
 6243 1aae E7150000 		.4byte	.LASF427
 6244 1ab2 1C       		.byte	0x1c
 6245 1ab3 A8       		.byte	0xa8
 6246 1ab4 3A1A0000 		.4byte	0x1a3a
 6247 1ab8 04       		.byte	0x4
 6248 1ab9 0B       		.uleb128 0xb
 6249 1aba F6200000 		.4byte	.LASF428
 6250 1abe 1C       		.byte	0x1c
 6251 1abf AA       		.byte	0xaa
 6252 1ac0 E4000000 		.4byte	0xe4
 6253 1ac4 44       		.byte	0x44
 6254 1ac5 0B       		.uleb128 0xb
 6255 1ac6 F6250000 		.4byte	.LASF429
 6256 1aca 1C       		.byte	0x1c
 6257 1acb AB       		.byte	0xab
ARM GAS  C:\Users\haske\AppData\Local\Temp\ccIkbvey.s 			page 149


 6258 1acc E4000000 		.4byte	0xe4
 6259 1ad0 48       		.byte	0x48
 6260 1ad1 00       		.byte	0
 6261 1ad2 02       		.uleb128 0x2
 6262 1ad3 BC0A0000 		.4byte	.LASF422
 6263 1ad7 1C       		.byte	0x1c
 6264 1ad8 AC       		.byte	0xac
 6265 1ad9 591A0000 		.4byte	0x1a59
 6266 1add 0A       		.uleb128 0xa
 6267 1ade 4C150000 		.4byte	.LASF430
 6268 1ae2 5C       		.byte	0x5c
 6269 1ae3 1C       		.byte	0x1c
 6270 1ae4 B0       		.byte	0xb0
 6271 1ae5 261B0000 		.4byte	0x1b26
 6272 1ae9 0B       		.uleb128 0xb
 6273 1aea FF210000 		.4byte	.LASF350
 6274 1aee 1C       		.byte	0x1c
 6275 1aef B1       		.byte	0xb1
 6276 1af0 0D190000 		.4byte	0x190d
 6277 1af4 00       		.byte	0
 6278 1af5 0B       		.uleb128 0xb
 6279 1af6 BD050000 		.4byte	.LASF431
 6280 1afa 1C       		.byte	0x1c
 6281 1afb B2       		.byte	0xb2
 6282 1afc D21A0000 		.4byte	0x1ad2
 6283 1b00 04       		.byte	0x4
 6284 1b01 0B       		.uleb128 0xb
 6285 1b02 7C290000 		.4byte	.LASF432
 6286 1b06 1C       		.byte	0x1c
 6287 1b07 B3       		.byte	0xb3
 6288 1b08 BE080000 		.4byte	0x8be
 6289 1b0c 50       		.byte	0x50
 6290 1b0d 0B       		.uleb128 0xb
 6291 1b0e 29170000 		.4byte	.LASF433
 6292 1b12 1C       		.byte	0x1c
 6293 1b13 B4       		.byte	0xb4
 6294 1b14 AB1B0000 		.4byte	0x1bab
 6295 1b18 54       		.byte	0x54
 6296 1b19 0B       		.uleb128 0xb
 6297 1b1a 8E070000 		.4byte	.LASF434
 6298 1b1e 1C       		.byte	0x1c
 6299 1b1f B5       		.byte	0xb5
 6300 1b20 F4100000 		.4byte	0x10f4
 6301 1b24 58       		.byte	0x58
 6302 1b25 00       		.byte	0
 6303 1b26 0A       		.uleb128 0xa
 6304 1b27 13010000 		.4byte	.LASF435
 6305 1b2b 20       		.byte	0x20
 6306 1b2c 1D       		.byte	0x1d
 6307 1b2d 3B       		.byte	0x3b
 6308 1b2e AB1B0000 		.4byte	0x1bab
 6309 1b32 0B       		.uleb128 0xb
 6310 1b33 7A1F0000 		.4byte	.LASF436
 6311 1b37 1D       		.byte	0x1d
 6312 1b38 3C       		.byte	0x3c
 6313 1b39 FC120000 		.4byte	0x12fc
 6314 1b3d 00       		.byte	0
ARM GAS  C:\Users\haske\AppData\Local\Temp\ccIkbvey.s 			page 150


 6315 1b3e 0B       		.uleb128 0xb
 6316 1b3f 9E090000 		.4byte	.LASF437
 6317 1b43 1D       		.byte	0x1d
 6318 1b44 3D       		.byte	0x3d
 6319 1b45 84170000 		.4byte	0x1784
 6320 1b49 0C       		.byte	0xc
 6321 1b4a 0B       		.uleb128 0xb
 6322 1b4b 34060000 		.4byte	.LASF438
 6323 1b4f 1D       		.byte	0x1d
 6324 1b50 3F       		.byte	0x3f
 6325 1b51 18210000 		.4byte	0x2118
 6326 1b55 10       		.byte	0x10
 6327 1b56 0B       		.uleb128 0xb
 6328 1b57 38180000 		.4byte	.LASF439
 6329 1b5b 1D       		.byte	0x1d
 6330 1b5c 40       		.byte	0x40
 6331 1b5d 34210000 		.4byte	0x2134
 6332 1b61 14       		.byte	0x14
 6333 1b62 0B       		.uleb128 0xb
 6334 1b63 C31C0000 		.4byte	.LASF28
 6335 1b67 1D       		.byte	0x1d
 6336 1b68 45       		.byte	0x45
 6337 1b69 8D010000 		.4byte	0x18d
 6338 1b6d 18       		.byte	0x18
 6339 1b6e 0C       		.uleb128 0xc
 6340 1b6f 53120000 		.4byte	.LASF440
 6341 1b73 1D       		.byte	0x1d
 6342 1b74 48       		.byte	0x48
 6343 1b75 B8000000 		.4byte	0xb8
 6344 1b79 01       		.byte	0x1
 6345 1b7a 01       		.byte	0x1
 6346 1b7b 07       		.byte	0x7
 6347 1b7c 1C       		.byte	0x1c
 6348 1b7d 0C       		.uleb128 0xc
 6349 1b7e E7180000 		.4byte	.LASF441
 6350 1b82 1D       		.byte	0x1d
 6351 1b83 49       		.byte	0x49
 6352 1b84 B8000000 		.4byte	0xb8
 6353 1b88 01       		.byte	0x1
 6354 1b89 01       		.byte	0x1
 6355 1b8a 06       		.byte	0x6
 6356 1b8b 1C       		.byte	0x1c
 6357 1b8c 0C       		.uleb128 0xc
 6358 1b8d 05250000 		.4byte	.LASF442
 6359 1b91 1D       		.byte	0x1d
 6360 1b92 4A       		.byte	0x4a
 6361 1b93 B8000000 		.4byte	0xb8
 6362 1b97 01       		.byte	0x1
 6363 1b98 01       		.byte	0x1
 6364 1b99 05       		.byte	0x5
 6365 1b9a 1C       		.byte	0x1c
 6366 1b9b 0C       		.uleb128 0xc
 6367 1b9c 27210000 		.4byte	.LASF443
 6368 1ba0 1D       		.byte	0x1d
 6369 1ba1 4C       		.byte	0x4c
 6370 1ba2 B8000000 		.4byte	0xb8
 6371 1ba6 01       		.byte	0x1
ARM GAS  C:\Users\haske\AppData\Local\Temp\ccIkbvey.s 			page 151


 6372 1ba7 01       		.byte	0x1
 6373 1ba8 04       		.byte	0x4
 6374 1ba9 1C       		.byte	0x1c
 6375 1baa 00       		.byte	0
 6376 1bab 07       		.uleb128 0x7
 6377 1bac 04       		.byte	0x4
 6378 1bad 261B0000 		.4byte	0x1b26
 6379 1bb1 02       		.uleb128 0x2
 6380 1bb2 5C1C0000 		.4byte	.LASF444
 6381 1bb6 1C       		.byte	0x1c
 6382 1bb7 B7       		.byte	0xb7
 6383 1bb8 DD1A0000 		.4byte	0x1add
 6384 1bbc 02       		.uleb128 0x2
 6385 1bbd 9E1C0000 		.4byte	.LASF445
 6386 1bc1 10       		.byte	0x10
 6387 1bc2 3C       		.byte	0x3c
 6388 1bc3 CE000000 		.4byte	0xce
 6389 1bc7 05       		.uleb128 0x5
 6390 1bc8 04       		.byte	0x4
 6391 1bc9 A6000000 		.4byte	0xa6
 6392 1bcd 10       		.byte	0x10
 6393 1bce 44       		.byte	0x44
 6394 1bcf 2B1C0000 		.4byte	0x1c2b
 6395 1bd3 06       		.uleb128 0x6
 6396 1bd4 29030000 		.4byte	.LASF446
 6397 1bd8 00       		.byte	0
 6398 1bd9 23       		.uleb128 0x23
 6399 1bda 101B0000 		.4byte	.LASF447
 6400 1bde 00000100 		.4byte	0x10000
 6401 1be2 23       		.uleb128 0x23
 6402 1be3 AC0E0000 		.4byte	.LASF448
 6403 1be7 00000200 		.4byte	0x20000
 6404 1beb 23       		.uleb128 0x23
 6405 1bec 82130000 		.4byte	.LASF449
 6406 1bf0 00000300 		.4byte	0x30000
 6407 1bf4 23       		.uleb128 0x23
 6408 1bf5 020F0000 		.4byte	.LASF450
 6409 1bf9 00000400 		.4byte	0x40000
 6410 1bfd 23       		.uleb128 0x23
 6411 1bfe 4B0C0000 		.4byte	.LASF451
 6412 1c02 00000500 		.4byte	0x50000
 6413 1c06 23       		.uleb128 0x23
 6414 1c07 E8080000 		.4byte	.LASF452
 6415 1c0b 00000600 		.4byte	0x60000
 6416 1c0f 23       		.uleb128 0x23
 6417 1c10 332B0000 		.4byte	.LASF453
 6418 1c14 00000700 		.4byte	0x70000
 6419 1c18 23       		.uleb128 0x23
 6420 1c19 6F010000 		.4byte	.LASF454
 6421 1c1d 00000800 		.4byte	0x80000
 6422 1c21 23       		.uleb128 0x23
 6423 1c22 A3270000 		.4byte	.LASF455
 6424 1c26 00000F00 		.4byte	0xf0000
 6425 1c2a 00       		.byte	0
 6426 1c2b 05       		.uleb128 0x5
 6427 1c2c 04       		.byte	0x4
 6428 1c2d A6000000 		.4byte	0xa6
ARM GAS  C:\Users\haske\AppData\Local\Temp\ccIkbvey.s 			page 152


 6429 1c31 10       		.byte	0x10
 6430 1c32 59       		.byte	0x59
 6431 1c33 131D0000 		.4byte	0x1d13
 6432 1c37 06       		.uleb128 0x6
 6433 1c38 902B0000 		.4byte	.LASF456
 6434 1c3c 01       		.byte	0x1
 6435 1c3d 06       		.uleb128 0x6
 6436 1c3e E11B0000 		.4byte	.LASF457
 6437 1c42 02       		.byte	0x2
 6438 1c43 06       		.uleb128 0x6
 6439 1c44 96120000 		.4byte	.LASF458
 6440 1c48 04       		.byte	0x4
 6441 1c49 06       		.uleb128 0x6
 6442 1c4a 440A0000 		.4byte	.LASF459
 6443 1c4e 08       		.byte	0x8
 6444 1c4f 06       		.uleb128 0x6
 6445 1c50 EC060000 		.4byte	.LASF460
 6446 1c54 10       		.byte	0x10
 6447 1c55 06       		.uleb128 0x6
 6448 1c56 FB0D0000 		.4byte	.LASF461
 6449 1c5a 20       		.byte	0x20
 6450 1c5b 06       		.uleb128 0x6
 6451 1c5c 58150000 		.4byte	.LASF462
 6452 1c60 40       		.byte	0x40
 6453 1c61 06       		.uleb128 0x6
 6454 1c62 332A0000 		.4byte	.LASF463
 6455 1c66 80       		.byte	0x80
 6456 1c67 19       		.uleb128 0x19
 6457 1c68 C8100000 		.4byte	.LASF464
 6458 1c6c 0001     		.2byte	0x100
 6459 1c6e 19       		.uleb128 0x19
 6460 1c6f 9E1A0000 		.4byte	.LASF465
 6461 1c73 0002     		.2byte	0x200
 6462 1c75 19       		.uleb128 0x19
 6463 1c76 72270000 		.4byte	.LASF466
 6464 1c7a 0003     		.2byte	0x300
 6465 1c7c 19       		.uleb128 0x19
 6466 1c7d 70260000 		.4byte	.LASF467
 6467 1c81 0004     		.2byte	0x400
 6468 1c83 19       		.uleb128 0x19
 6469 1c84 34260000 		.4byte	.LASF468
 6470 1c88 0008     		.2byte	0x800
 6471 1c8a 19       		.uleb128 0x19
 6472 1c8b A7050000 		.4byte	.LASF469
 6473 1c8f 0010     		.2byte	0x1000
 6474 1c91 19       		.uleb128 0x19
 6475 1c92 880F0000 		.4byte	.LASF470
 6476 1c96 0020     		.2byte	0x2000
 6477 1c98 19       		.uleb128 0x19
 6478 1c99 E3290000 		.4byte	.LASF471
 6479 1c9d 0040     		.2byte	0x4000
 6480 1c9f 19       		.uleb128 0x19
 6481 1ca0 9D110000 		.4byte	.LASF472
 6482 1ca4 0080     		.2byte	0x8000
 6483 1ca6 23       		.uleb128 0x23
 6484 1ca7 73210000 		.4byte	.LASF473
 6485 1cab 00000100 		.4byte	0x10000
ARM GAS  C:\Users\haske\AppData\Local\Temp\ccIkbvey.s 			page 153


 6486 1caf 23       		.uleb128 0x23
 6487 1cb0 821D0000 		.4byte	.LASF474
 6488 1cb4 00000200 		.4byte	0x20000
 6489 1cb8 23       		.uleb128 0x23
 6490 1cb9 45180000 		.4byte	.LASF475
 6491 1cbd 00000400 		.4byte	0x40000
 6492 1cc1 23       		.uleb128 0x23
 6493 1cc2 621A0000 		.4byte	.LASF476
 6494 1cc6 00000800 		.4byte	0x80000
 6495 1cca 23       		.uleb128 0x23
 6496 1ccb 3D060000 		.4byte	.LASF477
 6497 1ccf 00008000 		.4byte	0x800000
 6498 1cd3 23       		.uleb128 0x23
 6499 1cd4 8F2C0000 		.4byte	.LASF478
 6500 1cd8 00000001 		.4byte	0x1000000
 6501 1cdc 23       		.uleb128 0x23
 6502 1cdd 6F2D0000 		.4byte	.LASF479
 6503 1ce1 00000002 		.4byte	0x2000000
 6504 1ce5 23       		.uleb128 0x23
 6505 1ce6 842D0000 		.4byte	.LASF480
 6506 1cea 00000004 		.4byte	0x4000000
 6507 1cee 23       		.uleb128 0x23
 6508 1cef 17290000 		.4byte	.LASF481
 6509 1cf3 00000008 		.4byte	0x8000000
 6510 1cf7 23       		.uleb128 0x23
 6511 1cf8 12220000 		.4byte	.LASF482
 6512 1cfc 00000010 		.4byte	0x10000000
 6513 1d00 23       		.uleb128 0x23
 6514 1d01 36290000 		.4byte	.LASF483
 6515 1d05 00000020 		.4byte	0x20000000
 6516 1d09 23       		.uleb128 0x23
 6517 1d0a 49290000 		.4byte	.LASF484
 6518 1d0e 00000040 		.4byte	0x40000000
 6519 1d12 00       		.byte	0
 6520 1d13 02       		.uleb128 0x2
 6521 1d14 71030000 		.4byte	.LASF485
 6522 1d18 10       		.byte	0x10
 6523 1d19 7D       		.byte	0x7d
 6524 1d1a E4000000 		.4byte	0xe4
 6525 1d1e 02       		.uleb128 0x2
 6526 1d1f BA1E0000 		.4byte	.LASF486
 6527 1d23 1E       		.byte	0x1e
 6528 1d24 26       		.byte	0x26
 6529 1d25 B8000000 		.4byte	0xb8
 6530 1d29 02       		.uleb128 0x2
 6531 1d2a 15130000 		.4byte	.LASF487
 6532 1d2e 1E       		.byte	0x1e
 6533 1d2f 30       		.byte	0x30
 6534 1d30 B8000000 		.4byte	0xb8
 6535 1d34 0E       		.uleb128 0xe
 6536 1d35 08       		.byte	0x8
 6537 1d36 1F       		.byte	0x1f
 6538 1d37 27       		.byte	0x27
 6539 1d38 761D0000 		.4byte	0x1d76
 6540 1d3c 0B       		.uleb128 0xb
 6541 1d3d 0F230000 		.4byte	.LASF488
 6542 1d41 1F       		.byte	0x1f
ARM GAS  C:\Users\haske\AppData\Local\Temp\ccIkbvey.s 			page 154


 6543 1d42 28       		.byte	0x28
 6544 1d43 761D0000 		.4byte	0x1d76
 6545 1d47 00       		.byte	0
 6546 1d48 0C       		.uleb128 0xc
 6547 1d49 590C0000 		.4byte	.LASF489
 6548 1d4d 1F       		.byte	0x1f
 6549 1d4e 29       		.byte	0x29
 6550 1d4f E4000000 		.4byte	0xe4
 6551 1d53 04       		.byte	0x4
 6552 1d54 18       		.byte	0x18
 6553 1d55 08       		.byte	0x8
 6554 1d56 04       		.byte	0x4
 6555 1d57 0C       		.uleb128 0xc
 6556 1d58 620C0000 		.4byte	.LASF490
 6557 1d5c 1F       		.byte	0x1f
 6558 1d5d 2A       		.byte	0x2a
 6559 1d5e E4000000 		.4byte	0xe4
 6560 1d62 04       		.byte	0x4
 6561 1d63 01       		.byte	0x1
 6562 1d64 07       		.byte	0x7
 6563 1d65 04       		.byte	0x4
 6564 1d66 0C       		.uleb128 0xc
 6565 1d67 940B0000 		.4byte	.LASF491
 6566 1d6b 1F       		.byte	0x1f
 6567 1d6c 2B       		.byte	0x2b
 6568 1d6d E4000000 		.4byte	0xe4
 6569 1d71 04       		.byte	0x4
 6570 1d72 01       		.byte	0x1
 6571 1d73 06       		.byte	0x6
 6572 1d74 04       		.byte	0x4
 6573 1d75 00       		.byte	0
 6574 1d76 07       		.uleb128 0x7
 6575 1d77 04       		.byte	0x4
 6576 1d78 A7080000 		.4byte	0x8a7
 6577 1d7c 02       		.uleb128 0x2
 6578 1d7d 521B0000 		.4byte	.LASF492
 6579 1d81 1F       		.byte	0x1f
 6580 1d82 2C       		.byte	0x2c
 6581 1d83 341D0000 		.4byte	0x1d34
 6582 1d87 05       		.uleb128 0x5
 6583 1d88 01       		.byte	0x1
 6584 1d89 42000000 		.4byte	0x42
 6585 1d8d 20       		.byte	0x20
 6586 1d8e 1E       		.byte	0x1e
 6587 1d8f A61D0000 		.4byte	0x1da6
 6588 1d93 06       		.uleb128 0x6
 6589 1d94 882A0000 		.4byte	.LASF493
 6590 1d98 00       		.byte	0
 6591 1d99 06       		.uleb128 0x6
 6592 1d9a 12140000 		.4byte	.LASF494
 6593 1d9e 01       		.byte	0x1
 6594 1d9f 06       		.uleb128 0x6
 6595 1da0 46050000 		.4byte	.LASF495
 6596 1da4 02       		.byte	0x2
 6597 1da5 00       		.byte	0
 6598 1da6 02       		.uleb128 0x2
 6599 1da7 77110000 		.4byte	.LASF496
ARM GAS  C:\Users\haske\AppData\Local\Temp\ccIkbvey.s 			page 155


 6600 1dab 20       		.byte	0x20
 6601 1dac 22       		.byte	0x22
 6602 1dad 871D0000 		.4byte	0x1d87
 6603 1db1 0A       		.uleb128 0xa
 6604 1db2 46090000 		.4byte	.LASF497
 6605 1db6 1C       		.byte	0x1c
 6606 1db7 21       		.byte	0x21
 6607 1db8 31       		.byte	0x31
 6608 1db9 3F1E0000 		.4byte	0x1e3f
 6609 1dbd 0B       		.uleb128 0xb
 6610 1dbe 07160000 		.4byte	.LASF498
 6611 1dc2 21       		.byte	0x21
 6612 1dc3 32       		.byte	0x32
 6613 1dc4 3F1E0000 		.4byte	0x1e3f
 6614 1dc8 00       		.byte	0
 6615 1dc9 0B       		.uleb128 0xb
 6616 1dca 2B1B0000 		.4byte	.LASF499
 6617 1dce 21       		.byte	0x21
 6618 1dcf 33       		.byte	0x33
 6619 1dd0 011F0000 		.4byte	0x1f01
 6620 1dd4 04       		.byte	0x4
 6621 1dd5 0B       		.uleb128 0xb
 6622 1dd6 822B0000 		.4byte	.LASF500
 6623 1dda 21       		.byte	0x21
 6624 1ddb 34       		.byte	0x34
 6625 1ddc 011F0000 		.4byte	0x1f01
 6626 1de0 08       		.byte	0x8
 6627 1de1 0B       		.uleb128 0xb
 6628 1de2 C31C0000 		.4byte	.LASF28
 6629 1de6 21       		.byte	0x21
 6630 1de7 36       		.byte	0x36
 6631 1de8 8D010000 		.4byte	0x18d
 6632 1dec 0C       		.byte	0xc
 6633 1ded 0B       		.uleb128 0xb
 6634 1dee 820D0000 		.4byte	.LASF501
 6635 1df2 21       		.byte	0x21
 6636 1df3 38       		.byte	0x38
 6637 1df4 171F0000 		.4byte	0x1f17
 6638 1df8 10       		.byte	0x10
 6639 1df9 0B       		.uleb128 0xb
 6640 1dfa 521C0000 		.4byte	.LASF502
 6641 1dfe 21       		.byte	0x21
 6642 1dff 3A       		.byte	0x3a
 6643 1e00 BA010000 		.4byte	0x1ba
 6644 1e04 14       		.byte	0x14
 6645 1e05 0B       		.uleb128 0xb
 6646 1e06 14090000 		.4byte	.LASF503
 6647 1e0a 21       		.byte	0x21
 6648 1e0b 3B       		.byte	0x3b
 6649 1e0c BA010000 		.4byte	0x1ba
 6650 1e10 16       		.byte	0x16
 6651 1e11 0C       		.uleb128 0xc
 6652 1e12 F3190000 		.4byte	.LASF504
 6653 1e16 21       		.byte	0x21
 6654 1e17 3C       		.byte	0x3c
 6655 1e18 E4000000 		.4byte	0xe4
 6656 1e1c 04       		.byte	0x4
ARM GAS  C:\Users\haske\AppData\Local\Temp\ccIkbvey.s 			page 156


 6657 1e1d 02       		.byte	0x2
 6658 1e1e 1E       		.byte	0x1e
 6659 1e1f 18       		.byte	0x18
 6660 1e20 0C       		.uleb128 0xc
 6661 1e21 141D0000 		.4byte	.LASF505
 6662 1e25 21       		.byte	0x21
 6663 1e26 3D       		.byte	0x3d
 6664 1e27 E4000000 		.4byte	0xe4
 6665 1e2b 04       		.byte	0x4
 6666 1e2c 02       		.byte	0x2
 6667 1e2d 1C       		.byte	0x1c
 6668 1e2e 18       		.byte	0x18
 6669 1e2f 0C       		.uleb128 0xc
 6670 1e30 44160000 		.4byte	.LASF506
 6671 1e34 21       		.byte	0x21
 6672 1e35 3E       		.byte	0x3e
 6673 1e36 E4000000 		.4byte	0xe4
 6674 1e3a 04       		.byte	0x4
 6675 1e3b 10       		.byte	0x10
 6676 1e3c 0C       		.byte	0xc
 6677 1e3d 18       		.byte	0x18
 6678 1e3e 00       		.byte	0
 6679 1e3f 07       		.uleb128 0x7
 6680 1e40 04       		.byte	0x4
 6681 1e41 451E0000 		.4byte	0x1e45
 6682 1e45 11       		.uleb128 0x11
 6683 1e46 B11D0000 		.4byte	0x1db1
 6684 1e4a 05       		.uleb128 0x5
 6685 1e4b 01       		.byte	0x1
 6686 1e4c 42000000 		.4byte	0x42
 6687 1e50 21       		.byte	0x21
 6688 1e51 20       		.byte	0x20
 6689 1e52 691E0000 		.4byte	0x1e69
 6690 1e56 06       		.uleb128 0x6
 6691 1e57 C3230000 		.4byte	.LASF507
 6692 1e5b 00       		.byte	0
 6693 1e5c 06       		.uleb128 0x6
 6694 1e5d D7260000 		.4byte	.LASF508
 6695 1e61 01       		.byte	0x1
 6696 1e62 06       		.uleb128 0x6
 6697 1e63 9F080000 		.4byte	.LASF509
 6698 1e67 02       		.byte	0x2
 6699 1e68 00       		.byte	0
 6700 1e69 07       		.uleb128 0x7
 6701 1e6a 04       		.byte	0x4
 6702 1e6b 6F1E0000 		.4byte	0x1e6f
 6703 1e6f 0A       		.uleb128 0xa
 6704 1e70 05270000 		.4byte	.LASF510
 6705 1e74 1C       		.byte	0x1c
 6706 1e75 22       		.byte	0x22
 6707 1e76 5E       		.byte	0x5e
 6708 1e77 F11E0000 		.4byte	0x1ef1
 6709 1e7b 0B       		.uleb128 0xb
 6710 1e7c 3C0B0000 		.4byte	.LASF511
 6711 1e80 22       		.byte	0x22
 6712 1e81 5F       		.byte	0x5f
 6713 1e82 BE080000 		.4byte	0x8be
ARM GAS  C:\Users\haske\AppData\Local\Temp\ccIkbvey.s 			page 157


 6714 1e86 00       		.byte	0
 6715 1e87 0B       		.uleb128 0xb
 6716 1e88 6C200000 		.4byte	.LASF512
 6717 1e8c 22       		.byte	0x22
 6718 1e8d 60       		.byte	0x60
 6719 1e8e BE080000 		.4byte	0x8be
 6720 1e92 04       		.byte	0x4
 6721 1e93 0B       		.uleb128 0xb
 6722 1e94 84100000 		.4byte	.LASF513
 6723 1e98 22       		.byte	0x22
 6724 1e99 61       		.byte	0x61
 6725 1e9a 4F200000 		.4byte	0x204f
 6726 1e9e 08       		.byte	0x8
 6727 1e9f 0B       		.uleb128 0xb
 6728 1ea0 C31C0000 		.4byte	.LASF28
 6729 1ea4 22       		.byte	0x22
 6730 1ea5 62       		.byte	0x62
 6731 1ea6 8D010000 		.4byte	0x18d
 6732 1eaa 0C       		.byte	0xc
 6733 1eab 0B       		.uleb128 0xb
 6734 1eac 820F0000 		.4byte	.LASF514
 6735 1eb0 22       		.byte	0x22
 6736 1eb1 63       		.byte	0x63
 6737 1eb2 8D010000 		.4byte	0x18d
 6738 1eb6 10       		.byte	0x10
 6739 1eb7 0B       		.uleb128 0xb
 6740 1eb8 A42C0000 		.4byte	.LASF515
 6741 1ebc 22       		.byte	0x22
 6742 1ebd 64       		.byte	0x64
 6743 1ebe 691E0000 		.4byte	0x1e69
 6744 1ec2 14       		.byte	0x14
 6745 1ec3 0C       		.uleb128 0xc
 6746 1ec4 A32B0000 		.4byte	.LASF516
 6747 1ec8 22       		.byte	0x22
 6748 1ec9 65       		.byte	0x65
 6749 1eca B8000000 		.4byte	0xb8
 6750 1ece 01       		.byte	0x1
 6751 1ecf 01       		.byte	0x1
 6752 1ed0 07       		.byte	0x7
 6753 1ed1 18       		.byte	0x18
 6754 1ed2 0C       		.uleb128 0xc
 6755 1ed3 BA070000 		.4byte	.LASF517
 6756 1ed7 22       		.byte	0x22
 6757 1ed8 66       		.byte	0x66
 6758 1ed9 B8000000 		.4byte	0xb8
 6759 1edd 01       		.byte	0x1
 6760 1ede 01       		.byte	0x1
 6761 1edf 06       		.byte	0x6
 6762 1ee0 18       		.byte	0x18
 6763 1ee1 0C       		.uleb128 0xc
 6764 1ee2 B5160000 		.4byte	.LASF518
 6765 1ee6 22       		.byte	0x22
 6766 1ee7 67       		.byte	0x67
 6767 1ee8 B8000000 		.4byte	0xb8
 6768 1eec 01       		.byte	0x1
 6769 1eed 01       		.byte	0x1
 6770 1eee 05       		.byte	0x5
ARM GAS  C:\Users\haske\AppData\Local\Temp\ccIkbvey.s 			page 158


 6771 1eef 18       		.byte	0x18
 6772 1ef0 00       		.byte	0
 6773 1ef1 08       		.uleb128 0x8
 6774 1ef2 011F0000 		.4byte	0x1f01
 6775 1ef6 09       		.uleb128 0x9
 6776 1ef7 3F1E0000 		.4byte	0x1e3f
 6777 1efb 09       		.uleb128 0x9
 6778 1efc BE080000 		.4byte	0x8be
 6779 1f00 00       		.byte	0
 6780 1f01 07       		.uleb128 0x7
 6781 1f02 04       		.byte	0x4
 6782 1f03 F11E0000 		.4byte	0x1ef1
 6783 1f07 08       		.uleb128 0x8
 6784 1f08 171F0000 		.4byte	0x1f17
 6785 1f0c 09       		.uleb128 0x9
 6786 1f0d 3F1E0000 		.4byte	0x1e3f
 6787 1f11 09       		.uleb128 0x9
 6788 1f12 691E0000 		.4byte	0x1e69
 6789 1f16 00       		.byte	0
 6790 1f17 07       		.uleb128 0x7
 6791 1f18 04       		.byte	0x4
 6792 1f19 071F0000 		.4byte	0x1f07
 6793 1f1d 02       		.uleb128 0x2
 6794 1f1e EC0D0000 		.4byte	.LASF519
 6795 1f22 21       		.byte	0x21
 6796 1f23 3F       		.byte	0x3f
 6797 1f24 B11D0000 		.4byte	0x1db1
 6798 1f28 05       		.uleb128 0x5
 6799 1f29 01       		.byte	0x1
 6800 1f2a 42000000 		.4byte	0x42
 6801 1f2e 22       		.byte	0x22
 6802 1f2f 20       		.byte	0x20
 6803 1f30 4F200000 		.4byte	0x204f
 6804 1f34 06       		.uleb128 0x6
 6805 1f35 590B0000 		.4byte	.LASF520
 6806 1f39 00       		.byte	0
 6807 1f3a 06       		.uleb128 0x6
 6808 1f3b A3220000 		.4byte	.LASF521
 6809 1f3f 01       		.byte	0x1
 6810 1f40 06       		.uleb128 0x6
 6811 1f41 6F140000 		.4byte	.LASF522
 6812 1f45 02       		.byte	0x2
 6813 1f46 06       		.uleb128 0x6
 6814 1f47 E41E0000 		.4byte	.LASF523
 6815 1f4b 03       		.byte	0x3
 6816 1f4c 06       		.uleb128 0x6
 6817 1f4d 86110000 		.4byte	.LASF524
 6818 1f51 04       		.byte	0x4
 6819 1f52 06       		.uleb128 0x6
 6820 1f53 171C0000 		.4byte	.LASF525
 6821 1f57 05       		.byte	0x5
 6822 1f58 06       		.uleb128 0x6
 6823 1f59 69060000 		.4byte	.LASF526
 6824 1f5d 06       		.byte	0x6
 6825 1f5e 06       		.uleb128 0x6
 6826 1f5f B12B0000 		.4byte	.LASF527
 6827 1f63 07       		.byte	0x7
ARM GAS  C:\Users\haske\AppData\Local\Temp\ccIkbvey.s 			page 159


 6828 1f64 06       		.uleb128 0x6
 6829 1f65 C70B0000 		.4byte	.LASF528
 6830 1f69 08       		.byte	0x8
 6831 1f6a 06       		.uleb128 0x6
 6832 1f6b 591E0000 		.4byte	.LASF529
 6833 1f6f 09       		.byte	0x9
 6834 1f70 06       		.uleb128 0x6
 6835 1f71 CD120000 		.4byte	.LASF530
 6836 1f75 0A       		.byte	0xa
 6837 1f76 06       		.uleb128 0x6
 6838 1f77 78090000 		.4byte	.LASF531
 6839 1f7b 0B       		.byte	0xb
 6840 1f7c 06       		.uleb128 0x6
 6841 1f7d 73160000 		.4byte	.LASF532
 6842 1f81 0C       		.byte	0xc
 6843 1f82 06       		.uleb128 0x6
 6844 1f83 1B2C0000 		.4byte	.LASF533
 6845 1f87 0D       		.byte	0xd
 6846 1f88 06       		.uleb128 0x6
 6847 1f89 98060000 		.4byte	.LASF534
 6848 1f8d 0E       		.byte	0xe
 6849 1f8e 06       		.uleb128 0x6
 6850 1f8f C9010000 		.4byte	.LASF535
 6851 1f93 0F       		.byte	0xf
 6852 1f94 06       		.uleb128 0x6
 6853 1f95 6B040000 		.4byte	.LASF536
 6854 1f99 10       		.byte	0x10
 6855 1f9a 06       		.uleb128 0x6
 6856 1f9b EC220000 		.4byte	.LASF537
 6857 1f9f 11       		.byte	0x11
 6858 1fa0 06       		.uleb128 0x6
 6859 1fa1 2F170000 		.4byte	.LASF538
 6860 1fa5 12       		.byte	0x12
 6861 1fa6 06       		.uleb128 0x6
 6862 1fa7 3B010000 		.4byte	.LASF539
 6863 1fab 13       		.byte	0x13
 6864 1fac 06       		.uleb128 0x6
 6865 1fad 0C240000 		.4byte	.LASF540
 6866 1fb1 14       		.byte	0x14
 6867 1fb2 06       		.uleb128 0x6
 6868 1fb3 FA050000 		.4byte	.LASF541
 6869 1fb7 15       		.byte	0x15
 6870 1fb8 06       		.uleb128 0x6
 6871 1fb9 F02A0000 		.4byte	.LASF542
 6872 1fbd 16       		.byte	0x16
 6873 1fbe 06       		.uleb128 0x6
 6874 1fbf FE280000 		.4byte	.LASF543
 6875 1fc3 17       		.byte	0x17
 6876 1fc4 06       		.uleb128 0x6
 6877 1fc5 7A040000 		.4byte	.LASF544
 6878 1fc9 18       		.byte	0x18
 6879 1fca 06       		.uleb128 0x6
 6880 1fcb 96290000 		.4byte	.LASF545
 6881 1fcf 19       		.byte	0x19
 6882 1fd0 06       		.uleb128 0x6
 6883 1fd1 97260000 		.4byte	.LASF546
 6884 1fd5 1A       		.byte	0x1a
ARM GAS  C:\Users\haske\AppData\Local\Temp\ccIkbvey.s 			page 160


 6885 1fd6 06       		.uleb128 0x6
 6886 1fd7 17160000 		.4byte	.LASF547
 6887 1fdb 1B       		.byte	0x1b
 6888 1fdc 06       		.uleb128 0x6
 6889 1fdd 20000000 		.4byte	.LASF548
 6890 1fe1 1C       		.byte	0x1c
 6891 1fe2 06       		.uleb128 0x6
 6892 1fe3 621B0000 		.4byte	.LASF549
 6893 1fe7 1D       		.byte	0x1d
 6894 1fe8 06       		.uleb128 0x6
 6895 1fe9 521D0000 		.4byte	.LASF550
 6896 1fed 1E       		.byte	0x1e
 6897 1fee 06       		.uleb128 0x6
 6898 1fef B91F0000 		.4byte	.LASF551
 6899 1ff3 1F       		.byte	0x1f
 6900 1ff4 06       		.uleb128 0x6
 6901 1ff5 CA0F0000 		.4byte	.LASF552
 6902 1ff9 20       		.byte	0x20
 6903 1ffa 06       		.uleb128 0x6
 6904 1ffb 7F030000 		.4byte	.LASF553
 6905 1fff 21       		.byte	0x21
 6906 2000 06       		.uleb128 0x6
 6907 2001 6E190000 		.4byte	.LASF554
 6908 2005 22       		.byte	0x22
 6909 2006 06       		.uleb128 0x6
 6910 2007 11110000 		.4byte	.LASF555
 6911 200b 23       		.byte	0x23
 6912 200c 06       		.uleb128 0x6
 6913 200d E1070000 		.4byte	.LASF556
 6914 2011 24       		.byte	0x24
 6915 2012 06       		.uleb128 0x6
 6916 2013 F4020000 		.4byte	.LASF557
 6917 2017 25       		.byte	0x25
 6918 2018 06       		.uleb128 0x6
 6919 2019 6E120000 		.4byte	.LASF558
 6920 201d 26       		.byte	0x26
 6921 201e 06       		.uleb128 0x6
 6922 201f 77070000 		.4byte	.LASF559
 6923 2023 27       		.byte	0x27
 6924 2024 06       		.uleb128 0x6
 6925 2025 B41B0000 		.4byte	.LASF560
 6926 2029 28       		.byte	0x28
 6927 202a 06       		.uleb128 0x6
 6928 202b 1D2B0000 		.4byte	.LASF561
 6929 202f 29       		.byte	0x29
 6930 2030 06       		.uleb128 0x6
 6931 2031 8C140000 		.4byte	.LASF562
 6932 2035 2A       		.byte	0x2a
 6933 2036 06       		.uleb128 0x6
 6934 2037 FF040000 		.4byte	.LASF563
 6935 203b 2B       		.byte	0x2b
 6936 203c 06       		.uleb128 0x6
 6937 203d 25270000 		.4byte	.LASF564
 6938 2041 2C       		.byte	0x2c
 6939 2042 06       		.uleb128 0x6
 6940 2043 68290000 		.4byte	.LASF565
 6941 2047 2D       		.byte	0x2d
ARM GAS  C:\Users\haske\AppData\Local\Temp\ccIkbvey.s 			page 161


 6942 2048 06       		.uleb128 0x6
 6943 2049 B40C0000 		.4byte	.LASF566
 6944 204d 80       		.byte	0x80
 6945 204e 00       		.byte	0
 6946 204f 02       		.uleb128 0x2
 6947 2050 271A0000 		.4byte	.LASF567
 6948 2054 22       		.byte	0x22
 6949 2055 5C       		.byte	0x5c
 6950 2056 281F0000 		.4byte	0x1f28
 6951 205a 02       		.uleb128 0x2
 6952 205b 63120000 		.4byte	.LASF568
 6953 205f 22       		.byte	0x22
 6954 2060 68       		.byte	0x68
 6955 2061 6F1E0000 		.4byte	0x1e6f
 6956 2065 07       		.uleb128 0x7
 6957 2066 04       		.byte	0x4
 6958 2067 5A200000 		.4byte	0x205a
 6959 206b 0E       		.uleb128 0xe
 6960 206c 08       		.byte	0x8
 6961 206d 22       		.byte	0x22
 6962 206e 78       		.byte	0x78
 6963 206f 8C200000 		.4byte	0x208c
 6964 2073 0B       		.uleb128 0xb
 6965 2074 7C130000 		.4byte	.LASF386
 6966 2078 22       		.byte	0x22
 6967 2079 79       		.byte	0x79
 6968 207a F4100000 		.4byte	0x10f4
 6969 207e 00       		.byte	0
 6970 207f 0F       		.uleb128 0xf
 6971 2080 72657300 		.ascii	"res\000"
 6972 2084 22       		.byte	0x22
 6973 2085 7A       		.byte	0x7a
 6974 2086 63030000 		.4byte	0x363
 6975 208a 04       		.byte	0x4
 6976 208b 00       		.byte	0
 6977 208c 02       		.uleb128 0x2
 6978 208d AF270000 		.4byte	.LASF569
 6979 2091 22       		.byte	0x22
 6980 2092 7B       		.byte	0x7b
 6981 2093 6B200000 		.4byte	0x206b
 6982 2097 0E       		.uleb128 0xe
 6983 2098 08       		.byte	0x8
 6984 2099 22       		.byte	0x22
 6985 209a 82       		.byte	0x82
 6986 209b B8200000 		.4byte	0x20b8
 6987 209f 0F       		.uleb128 0xf
 6988 20a0 72657300 		.ascii	"res\000"
 6989 20a4 22       		.byte	0x22
 6990 20a5 83       		.byte	0x83
 6991 20a6 A61D0000 		.4byte	0x1da6
 6992 20aa 00       		.byte	0
 6993 20ab 0B       		.uleb128 0xb
 6994 20ac FA210000 		.4byte	.LASF570
 6995 20b0 22       		.byte	0x22
 6996 20b1 84       		.byte	0x84
 6997 20b2 0E0F0000 		.4byte	0xf0e
 6998 20b6 04       		.byte	0x4
ARM GAS  C:\Users\haske\AppData\Local\Temp\ccIkbvey.s 			page 162


 6999 20b7 00       		.byte	0
 7000 20b8 02       		.uleb128 0x2
 7001 20b9 492B0000 		.4byte	.LASF571
 7002 20bd 22       		.byte	0x22
 7003 20be 85       		.byte	0x85
 7004 20bf 97200000 		.4byte	0x2097
 7005 20c3 05       		.uleb128 0x5
 7006 20c4 01       		.byte	0x1
 7007 20c5 42000000 		.4byte	0x42
 7008 20c9 1D       		.byte	0x1d
 7009 20ca 1D       		.byte	0x1d
 7010 20cb 18210000 		.4byte	0x2118
 7011 20cf 06       		.uleb128 0x6
 7012 20d0 9A000000 		.4byte	.LASF572
 7013 20d4 11       		.byte	0x11
 7014 20d5 06       		.uleb128 0x6
 7015 20d6 82230000 		.4byte	.LASF573
 7016 20da 12       		.byte	0x12
 7017 20db 06       		.uleb128 0x6
 7018 20dc BD090000 		.4byte	.LASF574
 7019 20e0 13       		.byte	0x13
 7020 20e1 06       		.uleb128 0x6
 7021 20e2 C9140000 		.4byte	.LASF575
 7022 20e6 14       		.byte	0x14
 7023 20e7 06       		.uleb128 0x6
 7024 20e8 AF100000 		.4byte	.LASF576
 7025 20ec 1B       		.byte	0x1b
 7026 20ed 06       		.uleb128 0x6
 7027 20ee 1D050000 		.4byte	.LASF577
 7028 20f2 7F       		.byte	0x7f
 7029 20f3 06       		.uleb128 0x6
 7030 20f4 62210000 		.4byte	.LASF578
 7031 20f8 08       		.byte	0x8
 7032 20f9 06       		.uleb128 0x6
 7033 20fa 5E040000 		.4byte	.LASF579
 7034 20fe 0A       		.byte	0xa
 7035 20ff 06       		.uleb128 0x6
 7036 2100 06220000 		.4byte	.LASF580
 7037 2104 09       		.byte	0x9
 7038 2105 06       		.uleb128 0x6
 7039 2106 9C1D0000 		.4byte	.LASF581
 7040 210a 0B       		.byte	0xb
 7041 210b 06       		.uleb128 0x6
 7042 210c A91C0000 		.4byte	.LASF582
 7043 2110 02       		.byte	0x2
 7044 2111 06       		.uleb128 0x6
 7045 2112 770F0000 		.4byte	.LASF583
 7046 2116 03       		.byte	0x3
 7047 2117 00       		.byte	0
 7048 2118 02       		.uleb128 0x2
 7049 2119 24180000 		.4byte	.LASF584
 7050 211d 1D       		.byte	0x1d
 7051 211e 34       		.byte	0x34
 7052 211f 23210000 		.4byte	0x2123
 7053 2123 07       		.uleb128 0x7
 7054 2124 04       		.byte	0x4
 7055 2125 29210000 		.4byte	0x2129
ARM GAS  C:\Users\haske\AppData\Local\Temp\ccIkbvey.s 			page 163


 7056 2129 08       		.uleb128 0x8
 7057 212a 34210000 		.4byte	0x2134
 7058 212e 09       		.uleb128 0x9
 7059 212f AB1B0000 		.4byte	0x1bab
 7060 2133 00       		.byte	0
 7061 2134 02       		.uleb128 0x2
 7062 2135 AD0D0000 		.4byte	.LASF585
 7063 2139 1D       		.byte	0x1d
 7064 213a 35       		.byte	0x35
 7065 213b 3F210000 		.4byte	0x213f
 7066 213f 07       		.uleb128 0x7
 7067 2140 04       		.byte	0x4
 7068 2141 45210000 		.4byte	0x2145
 7069 2145 08       		.uleb128 0x8
 7070 2146 55210000 		.4byte	0x2155
 7071 214a 09       		.uleb128 0x9
 7072 214b AB1B0000 		.4byte	0x1bab
 7073 214f 09       		.uleb128 0x9
 7074 2150 63030000 		.4byte	0x363
 7075 2154 00       		.byte	0
 7076 2155 02       		.uleb128 0x2
 7077 2156 C5060000 		.4byte	.LASF586
 7078 215a 1D       		.byte	0x1d
 7079 215b 4E       		.byte	0x4e
 7080 215c 261B0000 		.4byte	0x1b26
 7081 2160 0E       		.uleb128 0xe
 7082 2161 1C       		.byte	0x1c
 7083 2162 10       		.byte	0x10
 7084 2163 9B       		.byte	0x9b
 7085 2164 17220000 		.4byte	0x2217
 7086 2168 0B       		.uleb128 0xb
 7087 2169 FE220000 		.4byte	.LASF587
 7088 216d 10       		.byte	0x10
 7089 216e 9C       		.byte	0x9c
 7090 216f 84170000 		.4byte	0x1784
 7091 2173 00       		.byte	0
 7092 2174 0B       		.uleb128 0xb
 7093 2175 3C090000 		.4byte	.LASF588
 7094 2179 10       		.byte	0x10
 7095 217a 9D       		.byte	0x9d
 7096 217b E4000000 		.4byte	0xe4
 7097 217f 04       		.byte	0x4
 7098 2180 0B       		.uleb128 0xb
 7099 2181 3F0E0000 		.4byte	.LASF589
 7100 2185 10       		.byte	0x10
 7101 2186 9E       		.byte	0x9e
 7102 2187 17220000 		.4byte	0x2217
 7103 218b 08       		.byte	0x8
 7104 218c 0B       		.uleb128 0xb
 7105 218d EC200000 		.4byte	.LASF590
 7106 2191 10       		.byte	0x10
 7107 2192 A0       		.byte	0xa0
 7108 2193 22220000 		.4byte	0x2222
 7109 2197 0C       		.byte	0xc
 7110 2198 0B       		.uleb128 0xb
 7111 2199 C6120000 		.4byte	.LASF591
 7112 219d 10       		.byte	0x10
ARM GAS  C:\Users\haske\AppData\Local\Temp\ccIkbvey.s 			page 164


 7113 219e A1       		.byte	0xa1
 7114 219f E2010000 		.4byte	0x1e2
 7115 21a3 10       		.byte	0x10
 7116 21a4 0B       		.uleb128 0xb
 7117 21a5 6D170000 		.4byte	.LASF592
 7118 21a9 10       		.byte	0x10
 7119 21aa A3       		.byte	0xa3
 7120 21ab BA010000 		.4byte	0x1ba
 7121 21af 14       		.byte	0x14
 7122 21b0 0B       		.uleb128 0xb
 7123 21b1 552A0000 		.4byte	.LASF593
 7124 21b5 10       		.byte	0x10
 7125 21b6 A4       		.byte	0xa4
 7126 21b7 BA010000 		.4byte	0x1ba
 7127 21bb 16       		.byte	0x16
 7128 21bc 0C       		.uleb128 0xc
 7129 21bd 49270000 		.4byte	.LASF594
 7130 21c1 10       		.byte	0x10
 7131 21c2 A6       		.byte	0xa6
 7132 21c3 1E1D0000 		.4byte	0x1d1e
 7133 21c7 01       		.byte	0x1
 7134 21c8 02       		.byte	0x2
 7135 21c9 06       		.byte	0x6
 7136 21ca 18       		.byte	0x18
 7137 21cb 0C       		.uleb128 0xc
 7138 21cc DE210000 		.4byte	.LASF595
 7139 21d0 10       		.byte	0x10
 7140 21d1 A7       		.byte	0xa7
 7141 21d2 291D0000 		.4byte	0x1d29
 7142 21d6 01       		.byte	0x1
 7143 21d7 02       		.byte	0x2
 7144 21d8 04       		.byte	0x4
 7145 21d9 18       		.byte	0x18
 7146 21da 0C       		.uleb128 0xc
 7147 21db EC210000 		.4byte	.LASF596
 7148 21df 10       		.byte	0x10
 7149 21e0 A8       		.byte	0xa8
 7150 21e1 291D0000 		.4byte	0x1d29
 7151 21e5 01       		.byte	0x1
 7152 21e6 02       		.byte	0x2
 7153 21e7 02       		.byte	0x2
 7154 21e8 18       		.byte	0x18
 7155 21e9 0C       		.uleb128 0xc
 7156 21ea 81140000 		.4byte	.LASF415
 7157 21ee 10       		.byte	0x10
 7158 21ef A9       		.byte	0xa9
 7159 21f0 2D020000 		.4byte	0x22d
 7160 21f4 01       		.byte	0x1
 7161 21f5 04       		.byte	0x4
 7162 21f6 04       		.byte	0x4
 7163 21f7 19       		.byte	0x19
 7164 21f8 0C       		.uleb128 0xc
 7165 21f9 EC1D0000 		.4byte	.LASF597
 7166 21fd 10       		.byte	0x10
 7167 21fe AA       		.byte	0xaa
 7168 21ff B8000000 		.4byte	0xb8
 7169 2203 01       		.byte	0x1
ARM GAS  C:\Users\haske\AppData\Local\Temp\ccIkbvey.s 			page 165


 7170 2204 06       		.byte	0x6
 7171 2205 02       		.byte	0x2
 7172 2206 1A       		.byte	0x1a
 7173 2207 0C       		.uleb128 0xc
 7174 2208 88090000 		.4byte	.LASF598
 7175 220c 10       		.byte	0x10
 7176 220d AB       		.byte	0xab
 7177 220e B8000000 		.4byte	0xb8
 7178 2212 01       		.byte	0x1
 7179 2213 02       		.byte	0x2
 7180 2214 00       		.byte	0
 7181 2215 1A       		.byte	0x1a
 7182 2216 00       		.byte	0
 7183 2217 07       		.uleb128 0x7
 7184 2218 04       		.byte	0x4
 7185 2219 55210000 		.4byte	0x2155
 7186 221d 24       		.uleb128 0x24
 7187 221e 09150000 		.4byte	.LASF746
 7188 2222 07       		.uleb128 0x7
 7189 2223 04       		.byte	0x4
 7190 2224 1D220000 		.4byte	0x221d
 7191 2228 02       		.uleb128 0x2
 7192 2229 10040000 		.4byte	.LASF599
 7193 222d 10       		.byte	0x10
 7194 222e AC       		.byte	0xac
 7195 222f 60210000 		.4byte	0x2160
 7196 2233 07       		.uleb128 0x7
 7197 2234 04       		.byte	0x4
 7198 2235 39220000 		.4byte	0x2239
 7199 2239 11       		.uleb128 0x11
 7200 223a 1D1F0000 		.4byte	0x1f1d
 7201 223e 07       		.uleb128 0x7
 7202 223f 04       		.byte	0x4
 7203 2240 28220000 		.4byte	0x2228
 7204 2244 07       		.uleb128 0x7
 7205 2245 04       		.byte	0x4
 7206 2246 7C1D0000 		.4byte	0x1d7c
 7207 224a 02       		.uleb128 0x2
 7208 224b DB220000 		.4byte	.LASF600
 7209 224f 10       		.byte	0x10
 7210 2250 BF       		.byte	0xbf
 7211 2251 C4080000 		.4byte	0x8c4
 7212 2255 02       		.uleb128 0x2
 7213 2256 5A0A0000 		.4byte	.LASF601
 7214 225a 1B       		.byte	0x1b
 7215 225b 1D       		.byte	0x1d
 7216 225c 60220000 		.4byte	0x2260
 7217 2260 07       		.uleb128 0x7
 7218 2261 04       		.byte	0x4
 7219 2262 66220000 		.4byte	0x2266
 7220 2266 08       		.uleb128 0x8
 7221 2267 76220000 		.4byte	0x2276
 7222 226b 09       		.uleb128 0x9
 7223 226c 7E170000 		.4byte	0x177e
 7224 2270 09       		.uleb128 0x9
 7225 2271 76220000 		.4byte	0x2276
 7226 2275 00       		.byte	0
ARM GAS  C:\Users\haske\AppData\Local\Temp\ccIkbvey.s 			page 166


 7227 2276 07       		.uleb128 0x7
 7228 2277 04       		.byte	0x4
 7229 2278 4A220000 		.4byte	0x224a
 7230 227c 07       		.uleb128 0x7
 7231 227d 04       		.byte	0x4
 7232 227e BA010000 		.4byte	0x1ba
 7233 2282 05       		.uleb128 0x5
 7234 2283 01       		.byte	0x1
 7235 2284 42000000 		.4byte	0x42
 7236 2288 23       		.byte	0x23
 7237 2289 21       		.byte	0x21
 7238 228a A1220000 		.4byte	0x22a1
 7239 228e 06       		.uleb128 0x6
 7240 228f 56000000 		.4byte	.LASF602
 7241 2293 00       		.byte	0
 7242 2294 06       		.uleb128 0x6
 7243 2295 57010000 		.4byte	.LASF603
 7244 2299 01       		.byte	0x1
 7245 229a 06       		.uleb128 0x6
 7246 229b E8050000 		.4byte	.LASF604
 7247 229f 02       		.byte	0x2
 7248 22a0 00       		.byte	0
 7249 22a1 05       		.uleb128 0x5
 7250 22a2 01       		.byte	0x1
 7251 22a3 42000000 		.4byte	0x42
 7252 22a7 24       		.byte	0x24
 7253 22a8 17       		.byte	0x17
 7254 22a9 D8220000 		.4byte	0x22d8
 7255 22ad 06       		.uleb128 0x6
 7256 22ae 7E0C0000 		.4byte	.LASF605
 7257 22b2 00       		.byte	0
 7258 22b3 06       		.uleb128 0x6
 7259 22b4 BB080000 		.4byte	.LASF606
 7260 22b8 01       		.byte	0x1
 7261 22b9 06       		.uleb128 0x6
 7262 22ba 03210000 		.4byte	.LASF607
 7263 22be 02       		.byte	0x2
 7264 22bf 06       		.uleb128 0x6
 7265 22c0 C7050000 		.4byte	.LASF608
 7266 22c4 03       		.byte	0x3
 7267 22c5 06       		.uleb128 0x6
 7268 22c6 690E0000 		.4byte	.LASF609
 7269 22ca 04       		.byte	0x4
 7270 22cb 06       		.uleb128 0x6
 7271 22cc 85190000 		.4byte	.LASF610
 7272 22d0 05       		.byte	0x5
 7273 22d1 06       		.uleb128 0x6
 7274 22d2 7F1A0000 		.4byte	.LASF611
 7275 22d6 06       		.byte	0x6
 7276 22d7 00       		.byte	0
 7277 22d8 05       		.uleb128 0x5
 7278 22d9 01       		.byte	0x1
 7279 22da 42000000 		.4byte	0x42
 7280 22de 25       		.byte	0x25
 7281 22df 1C       		.byte	0x1c
 7282 22e0 F7220000 		.4byte	0x22f7
 7283 22e4 06       		.uleb128 0x6
ARM GAS  C:\Users\haske\AppData\Local\Temp\ccIkbvey.s 			page 167


 7284 22e5 CA070000 		.4byte	.LASF612
 7285 22e9 00       		.byte	0
 7286 22ea 06       		.uleb128 0x6
 7287 22eb 7C1B0000 		.4byte	.LASF613
 7288 22ef 01       		.byte	0x1
 7289 22f0 06       		.uleb128 0x6
 7290 22f1 C00D0000 		.4byte	.LASF614
 7291 22f5 02       		.byte	0x2
 7292 22f6 00       		.byte	0
 7293 22f7 02       		.uleb128 0x2
 7294 22f8 20200000 		.4byte	.LASF615
 7295 22fc 25       		.byte	0x25
 7296 22fd 21       		.byte	0x21
 7297 22fe B8000000 		.4byte	0xb8
 7298 2302 0E       		.uleb128 0xe
 7299 2303 06       		.byte	0x6
 7300 2304 25       		.byte	0x25
 7301 2305 28       		.byte	0x28
 7302 2306 26230000 		.4byte	0x2326
 7303 230a 0F       		.uleb128 0xf
 7304 230b 706F7300 		.ascii	"pos\000"
 7305 230f 25       		.byte	0x25
 7306 2310 29       		.byte	0x29
 7307 2311 E2010000 		.4byte	0x1e2
 7308 2315 00       		.byte	0
 7309 2316 0C       		.uleb128 0xc
 7310 2317 7A230000 		.4byte	.LASF242
 7311 231b 25       		.byte	0x25
 7312 231c 2A       		.byte	0x2a
 7313 231d B8000000 		.4byte	0xb8
 7314 2321 01       		.byte	0x1
 7315 2322 01       		.byte	0x1
 7316 2323 07       		.byte	0x7
 7317 2324 04       		.byte	0x4
 7318 2325 00       		.byte	0
 7319 2326 0E       		.uleb128 0xe
 7320 2327 40       		.byte	0x40
 7321 2328 25       		.byte	0x25
 7322 2329 25       		.byte	0x25
 7323 232a 95230000 		.4byte	0x2395
 7324 232e 0F       		.uleb128 0xf
 7325 232f 6F626A00 		.ascii	"obj\000"
 7326 2333 25       		.byte	0x25
 7327 2334 26       		.byte	0x26
 7328 2335 4A220000 		.4byte	0x224a
 7329 2339 00       		.byte	0
 7330 233a 0F       		.uleb128 0xf
 7331 233b 68737600 		.ascii	"hsv\000"
 7332 233f 25       		.byte	0x25
 7333 2340 27       		.byte	0x27
 7334 2341 A0040000 		.4byte	0x4a0
 7335 2345 24       		.byte	0x24
 7336 2346 0B       		.uleb128 0xb
 7337 2347 EF130000 		.4byte	.LASF616
 7338 234b 25       		.byte	0x25
 7339 234c 2B       		.byte	0x2b
 7340 234d 02230000 		.4byte	0x2302
ARM GAS  C:\Users\haske\AppData\Local\Temp\ccIkbvey.s 			page 168


 7341 2351 28       		.byte	0x28
 7342 2352 0B       		.uleb128 0xb
 7343 2353 110D0000 		.4byte	.LASF617
 7344 2357 25       		.byte	0x25
 7345 2358 2C       		.byte	0x2c
 7346 2359 E4000000 		.4byte	0xe4
 7347 235d 30       		.byte	0x30
 7348 235e 0B       		.uleb128 0xb
 7349 235f 000D0000 		.4byte	.LASF618
 7350 2363 25       		.byte	0x25
 7351 2364 2D       		.byte	0x2d
 7352 2365 E4000000 		.4byte	0xe4
 7353 2369 34       		.byte	0x34
 7354 236a 0B       		.uleb128 0xb
 7355 236b DE110000 		.4byte	.LASF619
 7356 236f 25       		.byte	0x25
 7357 2370 2E       		.byte	0x2e
 7358 2371 E2010000 		.4byte	0x1e2
 7359 2375 38       		.byte	0x38
 7360 2376 0C       		.uleb128 0xc
 7361 2377 56090000 		.4byte	.LASF620
 7362 237b 25       		.byte	0x25
 7363 237c 2F       		.byte	0x2f
 7364 237d F7220000 		.4byte	0x22f7
 7365 2381 01       		.byte	0x1
 7366 2382 02       		.byte	0x2
 7367 2383 06       		.byte	0x6
 7368 2384 3C       		.byte	0x3c
 7369 2385 0C       		.uleb128 0xc
 7370 2386 4A2A0000 		.4byte	.LASF621
 7371 238a 25       		.byte	0x25
 7372 238b 30       		.byte	0x30
 7373 238c B8000000 		.4byte	0xb8
 7374 2390 01       		.byte	0x1
 7375 2391 01       		.byte	0x1
 7376 2392 05       		.byte	0x5
 7377 2393 3C       		.byte	0x3c
 7378 2394 00       		.byte	0
 7379 2395 02       		.uleb128 0x2
 7380 2396 68090000 		.4byte	.LASF622
 7381 239a 25       		.byte	0x25
 7382 239b 31       		.byte	0x31
 7383 239c 26230000 		.4byte	0x2326
 7384 23a0 25       		.uleb128 0x25
 7385 23a1 F8070000 		.4byte	.LASF623
 7386 23a5 02       		.byte	0x2
 7387 23a6 4C02     		.2byte	0x24c
 7388 23a8 6E040000 		.4byte	0x46e
 7389 23ac 03       		.byte	0x3
 7390 23ad D0230000 		.4byte	0x23d0
 7391 23b1 26       		.uleb128 0x26
 7392 23b2 7200     		.ascii	"r\000"
 7393 23b4 02       		.byte	0x2
 7394 23b5 4C02     		.2byte	0x24c
 7395 23b7 B8000000 		.4byte	0xb8
 7396 23bb 26       		.uleb128 0x26
 7397 23bc 6700     		.ascii	"g\000"
ARM GAS  C:\Users\haske\AppData\Local\Temp\ccIkbvey.s 			page 169


 7398 23be 02       		.byte	0x2
 7399 23bf 4C02     		.2byte	0x24c
 7400 23c1 B8000000 		.4byte	0xb8
 7401 23c5 26       		.uleb128 0x26
 7402 23c6 6200     		.ascii	"b\000"
 7403 23c8 02       		.byte	0x2
 7404 23c9 4C02     		.2byte	0x24c
 7405 23cb B8000000 		.4byte	0xb8
 7406 23cf 00       		.byte	0
 7407 23d0 27       		.uleb128 0x27
 7408 23d1 BD150000 		.4byte	.LASF624
 7409 23d5 03       		.byte	0x3
 7410 23d6 6D       		.byte	0x6d
 7411 23d7 BA010000 		.4byte	0x1ba
 7412 23db 03       		.byte	0x3
 7413 23dc 00240000 		.4byte	0x2400
 7414 23e0 28       		.uleb128 0x28
 7415 23e1 6F626A00 		.ascii	"obj\000"
 7416 23e5 03       		.byte	0x3
 7417 23e6 6D       		.byte	0x6d
 7418 23e7 00240000 		.4byte	0x2400
 7419 23eb 29       		.uleb128 0x29
 7420 23ec 1F180000 		.4byte	.LASF625
 7421 23f0 03       		.byte	0x3
 7422 23f1 6D       		.byte	0x6d
 7423 23f2 E4000000 		.4byte	0xe4
 7424 23f6 2A       		.uleb128 0x2a
 7425 23f7 7600     		.ascii	"v\000"
 7426 23f9 03       		.byte	0x3
 7427 23fa 6F       		.byte	0x6f
 7428 23fb BE050000 		.4byte	0x5be
 7429 23ff 00       		.byte	0
 7430 2400 07       		.uleb128 0x7
 7431 2401 04       		.byte	0x4
 7432 2402 06240000 		.4byte	0x2406
 7433 2406 11       		.uleb128 0x11
 7434 2407 C4080000 		.4byte	0x8c4
 7435 240b 27       		.uleb128 0x27
 7436 240c C81F0000 		.4byte	.LASF626
 7437 2410 03       		.byte	0x3
 7438 2411 67       		.byte	0x67
 7439 2412 BA010000 		.4byte	0x1ba
 7440 2416 03       		.byte	0x3
 7441 2417 3B240000 		.4byte	0x243b
 7442 241b 28       		.uleb128 0x28
 7443 241c 6F626A00 		.ascii	"obj\000"
 7444 2420 03       		.byte	0x3
 7445 2421 67       		.byte	0x67
 7446 2422 00240000 		.4byte	0x2400
 7447 2426 29       		.uleb128 0x29
 7448 2427 1F180000 		.4byte	.LASF625
 7449 242b 03       		.byte	0x3
 7450 242c 67       		.byte	0x67
 7451 242d E4000000 		.4byte	0xe4
 7452 2431 2A       		.uleb128 0x2a
 7453 2432 7600     		.ascii	"v\000"
 7454 2434 03       		.byte	0x3
ARM GAS  C:\Users\haske\AppData\Local\Temp\ccIkbvey.s 			page 170


 7455 2435 69       		.byte	0x69
 7456 2436 BE050000 		.4byte	0x5be
 7457 243a 00       		.byte	0
 7458 243b 27       		.uleb128 0x27
 7459 243c 660B0000 		.4byte	.LASF627
 7460 2440 03       		.byte	0x3
 7461 2441 79       		.byte	0x79
 7462 2442 BA010000 		.4byte	0x1ba
 7463 2446 03       		.byte	0x3
 7464 2447 6B240000 		.4byte	0x246b
 7465 244b 28       		.uleb128 0x28
 7466 244c 6F626A00 		.ascii	"obj\000"
 7467 2450 03       		.byte	0x3
 7468 2451 79       		.byte	0x79
 7469 2452 00240000 		.4byte	0x2400
 7470 2456 29       		.uleb128 0x29
 7471 2457 1F180000 		.4byte	.LASF625
 7472 245b 03       		.byte	0x3
 7473 245c 79       		.byte	0x79
 7474 245d E4000000 		.4byte	0xe4
 7475 2461 2A       		.uleb128 0x2a
 7476 2462 7600     		.ascii	"v\000"
 7477 2464 03       		.byte	0x3
 7478 2465 7B       		.byte	0x7b
 7479 2466 BE050000 		.4byte	0x5be
 7480 246a 00       		.byte	0
 7481 246b 27       		.uleb128 0x27
 7482 246c D90B0000 		.4byte	.LASF628
 7483 2470 03       		.byte	0x3
 7484 2471 73       		.byte	0x73
 7485 2472 BA010000 		.4byte	0x1ba
 7486 2476 03       		.byte	0x3
 7487 2477 9B240000 		.4byte	0x249b
 7488 247b 28       		.uleb128 0x28
 7489 247c 6F626A00 		.ascii	"obj\000"
 7490 2480 03       		.byte	0x3
 7491 2481 73       		.byte	0x73
 7492 2482 00240000 		.4byte	0x2400
 7493 2486 29       		.uleb128 0x29
 7494 2487 1F180000 		.4byte	.LASF625
 7495 248b 03       		.byte	0x3
 7496 248c 73       		.byte	0x73
 7497 248d E4000000 		.4byte	0xe4
 7498 2491 2A       		.uleb128 0x2a
 7499 2492 7600     		.ascii	"v\000"
 7500 2494 03       		.byte	0x3
 7501 2495 75       		.byte	0x75
 7502 2496 BE050000 		.4byte	0x5be
 7503 249a 00       		.byte	0
 7504 249b 25       		.uleb128 0x25
 7505 249c B0210000 		.4byte	.LASF629
 7506 24a0 03       		.byte	0x3
 7507 24a1 9901     		.2byte	0x199
 7508 24a3 BA010000 		.4byte	0x1ba
 7509 24a7 03       		.byte	0x3
 7510 24a8 CF240000 		.4byte	0x24cf
 7511 24ac 26       		.uleb128 0x26
ARM GAS  C:\Users\haske\AppData\Local\Temp\ccIkbvey.s 			page 171


 7512 24ad 6F626A00 		.ascii	"obj\000"
 7513 24b1 03       		.byte	0x3
 7514 24b2 9901     		.2byte	0x199
 7515 24b4 00240000 		.4byte	0x2400
 7516 24b8 2B       		.uleb128 0x2b
 7517 24b9 1F180000 		.4byte	.LASF625
 7518 24bd 03       		.byte	0x3
 7519 24be 9901     		.2byte	0x199
 7520 24c0 E4000000 		.4byte	0xe4
 7521 24c4 2C       		.uleb128 0x2c
 7522 24c5 7600     		.ascii	"v\000"
 7523 24c7 03       		.byte	0x3
 7524 24c8 9B01     		.2byte	0x19b
 7525 24ca BE050000 		.4byte	0x5be
 7526 24ce 00       		.byte	0
 7527 24cf 27       		.uleb128 0x27
 7528 24d0 58270000 		.4byte	.LASF630
 7529 24d4 04       		.byte	0x4
 7530 24d5 31       		.byte	0x31
 7531 24d6 C3000000 		.4byte	0xc3
 7532 24da 03       		.byte	0x3
 7533 24db EB240000 		.4byte	0x24eb
 7534 24df 29       		.uleb128 0x29
 7535 24e0 24020000 		.4byte	.LASF239
 7536 24e4 04       		.byte	0x4
 7537 24e5 31       		.byte	0x31
 7538 24e6 C3000000 		.4byte	0xc3
 7539 24ea 00       		.byte	0
 7540 24eb 2D       		.uleb128 0x2d
 7541 24ec 9D0B0000 		.4byte	.LASF747
 7542 24f0 05       		.byte	0x5
 7543 24f1 6E       		.byte	0x6e
 7544 24f2 03       		.byte	0x3
 7545 24f3 0E250000 		.4byte	0x250e
 7546 24f7 29       		.uleb128 0x29
 7547 24f8 D0060000 		.4byte	.LASF631
 7548 24fc 05       		.byte	0x5
 7549 24fd 6E       		.byte	0x6e
 7550 24fe 190F0000 		.4byte	0xf19
 7551 2502 28       		.uleb128 0x28
 7552 2503 73726300 		.ascii	"src\000"
 7553 2507 05       		.byte	0x5
 7554 2508 6E       		.byte	0x6e
 7555 2509 0E0F0000 		.4byte	0xf0e
 7556 250d 00       		.byte	0
 7557 250e 25       		.uleb128 0x25
 7558 250f 102D0000 		.4byte	.LASF632
 7559 2513 02       		.byte	0x2
 7560 2514 7701     		.2byte	0x177
 7561 2516 E4000000 		.4byte	0xe4
 7562 251a 03       		.byte	0x3
 7563 251b 38250000 		.4byte	0x2538
 7564 251f 2B       		.uleb128 0x2b
 7565 2520 A81F0000 		.4byte	.LASF77
 7566 2524 02       		.byte	0x2
 7567 2525 7701     		.2byte	0x177
 7568 2527 6E040000 		.4byte	0x46e
ARM GAS  C:\Users\haske\AppData\Local\Temp\ccIkbvey.s 			page 172


 7569 252b 2C       		.uleb128 0x2c
 7570 252c 72657400 		.ascii	"ret\000"
 7571 2530 02       		.byte	0x2
 7572 2531 A301     		.2byte	0x1a3
 7573 2533 63040000 		.4byte	0x463
 7574 2537 00       		.byte	0
 7575 2538 27       		.uleb128 0x27
 7576 2539 12100000 		.4byte	.LASF633
 7577 253d 05       		.byte	0x5
 7578 253e 7B       		.byte	0x7b
 7579 253f BA010000 		.4byte	0x1ba
 7580 2543 03       		.byte	0x3
 7581 2544 54250000 		.4byte	0x2554
 7582 2548 29       		.uleb128 0x29
 7583 2549 2E0C0000 		.4byte	.LASF634
 7584 254d 05       		.byte	0x5
 7585 254e 7B       		.byte	0x7b
 7586 254f 0E0F0000 		.4byte	0xf0e
 7587 2553 00       		.byte	0
 7588 2554 27       		.uleb128 0x27
 7589 2555 91020000 		.4byte	.LASF635
 7590 2559 05       		.byte	0x5
 7591 255a 85       		.byte	0x85
 7592 255b BA010000 		.4byte	0x1ba
 7593 255f 03       		.byte	0x3
 7594 2560 70250000 		.4byte	0x2570
 7595 2564 29       		.uleb128 0x29
 7596 2565 2E0C0000 		.4byte	.LASF634
 7597 2569 05       		.byte	0x5
 7598 256a 85       		.byte	0x85
 7599 256b 0E0F0000 		.4byte	0xf0e
 7600 256f 00       		.byte	0
 7601 2570 2E       		.uleb128 0x2e
 7602 2571 D20E0000 		.4byte	.LASF647
 7603 2575 01       		.byte	0x1
 7604 2576 6802     		.2byte	0x268
 7605 2578 00000000 		.4byte	.LFB220
 7606 257c 88000000 		.4byte	.LFE220-.LFB220
 7607 2580 01       		.uleb128 0x1
 7608 2581 9C       		.byte	0x9c
 7609 2582 75260000 		.4byte	0x2675
 7610 2586 2F       		.uleb128 0x2f
 7611 2587 6800     		.ascii	"h\000"
 7612 2589 01       		.byte	0x1
 7613 258a 6802     		.2byte	0x268
 7614 258c CE000000 		.4byte	0xce
 7615 2590 00000000 		.4byte	.LLST0
 7616 2594 2F       		.uleb128 0x2f
 7617 2595 7300     		.ascii	"s\000"
 7618 2597 01       		.byte	0x1
 7619 2598 6802     		.2byte	0x268
 7620 259a B8000000 		.4byte	0xb8
 7621 259e 3A000000 		.4byte	.LLST1
 7622 25a2 2F       		.uleb128 0x2f
 7623 25a3 7600     		.ascii	"v\000"
 7624 25a5 01       		.byte	0x1
 7625 25a6 6802     		.2byte	0x268
ARM GAS  C:\Users\haske\AppData\Local\Temp\ccIkbvey.s 			page 173


 7626 25a8 B8000000 		.4byte	0xb8
 7627 25ac A6000000 		.4byte	.LLST2
 7628 25b0 2F       		.uleb128 0x2f
 7629 25b1 7200     		.ascii	"r\000"
 7630 25b3 01       		.byte	0x1
 7631 25b4 6802     		.2byte	0x268
 7632 25b6 58080000 		.4byte	0x858
 7633 25ba D4000000 		.4byte	.LLST3
 7634 25be 2F       		.uleb128 0x2f
 7635 25bf 6700     		.ascii	"g\000"
 7636 25c1 01       		.byte	0x1
 7637 25c2 6802     		.2byte	0x268
 7638 25c4 58080000 		.4byte	0x858
 7639 25c8 29010000 		.4byte	.LLST4
 7640 25cc 2F       		.uleb128 0x2f
 7641 25cd 6200     		.ascii	"b\000"
 7642 25cf 01       		.byte	0x1
 7643 25d0 6802     		.2byte	0x268
 7644 25d2 58080000 		.4byte	0x858
 7645 25d6 55010000 		.4byte	.LLST5
 7646 25da 30       		.uleb128 0x30
 7647 25db 7D280000 		.4byte	.LASF636
 7648 25df 01       		.byte	0x1
 7649 25e0 6F02     		.2byte	0x26f
 7650 25e2 B8000000 		.4byte	0xb8
 7651 25e6 75010000 		.4byte	.LLST6
 7652 25ea 31       		.uleb128 0x31
 7653 25eb 626200   		.ascii	"bb\000"
 7654 25ee 01       		.byte	0x1
 7655 25ef 7402     		.2byte	0x274
 7656 25f1 B8000000 		.4byte	0xb8
 7657 25f5 A6010000 		.4byte	.LLST7
 7658 25f9 31       		.uleb128 0x31
 7659 25fa 777700   		.ascii	"ww\000"
 7660 25fd 01       		.byte	0x1
 7661 25fe 7502     		.2byte	0x275
 7662 2600 CE000000 		.4byte	0xce
 7663 2604 07020000 		.4byte	.LLST8
 7664 2608 30       		.uleb128 0x30
 7665 2609 05200000 		.4byte	.LASF637
 7666 260d 01       		.byte	0x1
 7667 260e 7802     		.2byte	0x278
 7668 2610 B8000000 		.4byte	0xb8
 7669 2614 6C020000 		.4byte	.LLST9
 7670 2618 32       		.uleb128 0x32
 7671 2619 1A000000 		.4byte	.LBB52
 7672 261d 04000000 		.4byte	.LBE52-.LBB52
 7673 2621 30260000 		.4byte	0x2630
 7674 2625 2C       		.uleb128 0x2c
 7675 2626 7400     		.ascii	"t\000"
 7676 2628 01       		.byte	0x1
 7677 2629 7002     		.2byte	0x270
 7678 262b 58080000 		.4byte	0x858
 7679 262f 00       		.byte	0
 7680 2630 32       		.uleb128 0x32
 7681 2631 24000000 		.4byte	.LBB53
 7682 2635 06000000 		.4byte	.LBE53-.LBB53
ARM GAS  C:\Users\haske\AppData\Local\Temp\ccIkbvey.s 			page 174


 7683 2639 48260000 		.4byte	0x2648
 7684 263d 2C       		.uleb128 0x2c
 7685 263e 7400     		.ascii	"t\000"
 7686 2640 01       		.byte	0x1
 7687 2641 7002     		.2byte	0x270
 7688 2643 58080000 		.4byte	0x858
 7689 2647 00       		.byte	0
 7690 2648 32       		.uleb128 0x32
 7691 2649 3E000000 		.4byte	.LBB54
 7692 264d 06000000 		.4byte	.LBE54-.LBB54
 7693 2651 60260000 		.4byte	0x2660
 7694 2655 2C       		.uleb128 0x2c
 7695 2656 7400     		.ascii	"t\000"
 7696 2658 01       		.byte	0x1
 7697 2659 7002     		.2byte	0x270
 7698 265b 58080000 		.4byte	0x858
 7699 265f 00       		.byte	0
 7700 2660 33       		.uleb128 0x33
 7701 2661 46000000 		.4byte	.LBB55
 7702 2665 04000000 		.4byte	.LBE55-.LBB55
 7703 2669 2C       		.uleb128 0x2c
 7704 266a 7400     		.ascii	"t\000"
 7705 266c 01       		.byte	0x1
 7706 266d 7002     		.2byte	0x270
 7707 266f 58080000 		.4byte	0x858
 7708 2673 00       		.byte	0
 7709 2674 00       		.byte	0
 7710 2675 34       		.uleb128 0x34
 7711 2676 85280000 		.4byte	.LASF639
 7712 267a 01       		.byte	0x1
 7713 267b 8802     		.2byte	0x288
 7714 267d 6E040000 		.4byte	0x46e
 7715 2681 00000000 		.4byte	.LFB221
 7716 2685 68010000 		.4byte	.LFE221-.LFB221
 7717 2689 01       		.uleb128 0x1
 7718 268a 9C       		.byte	0x9c
 7719 268b DD270000 		.4byte	0x27dd
 7720 268f 2F       		.uleb128 0x2f
 7721 2690 6F626A00 		.ascii	"obj\000"
 7722 2694 01       		.byte	0x1
 7723 2695 8802     		.2byte	0x288
 7724 2697 76220000 		.4byte	0x2276
 7725 269b A3020000 		.4byte	.LLST10
 7726 269f 35       		.uleb128 0x35
 7727 26a0 24020000 		.4byte	.LASF239
 7728 26a4 01       		.byte	0x1
 7729 26a5 8802     		.2byte	0x288
 7730 26a7 CE000000 		.4byte	0xce
 7731 26ab FB020000 		.4byte	.LLST11
 7732 26af 31       		.uleb128 0x31
 7733 26b0 65787400 		.ascii	"ext\000"
 7734 26b4 01       		.byte	0x1
 7735 26b5 8A02     		.2byte	0x28a
 7736 26b7 DD270000 		.4byte	0x27dd
 7737 26bb 4E030000 		.4byte	.LLST12
 7738 26bf 36       		.uleb128 0x36
 7739 26c0 7200     		.ascii	"r\000"
ARM GAS  C:\Users\haske\AppData\Local\Temp\ccIkbvey.s 			page 175


 7740 26c2 01       		.byte	0x1
 7741 26c3 8B02     		.2byte	0x28b
 7742 26c5 B8000000 		.4byte	0xb8
 7743 26c9 02       		.uleb128 0x2
 7744 26ca 91       		.byte	0x91
 7745 26cb 67       		.sleb128 -25
 7746 26cc 36       		.uleb128 0x36
 7747 26cd 6700     		.ascii	"g\000"
 7748 26cf 01       		.byte	0x1
 7749 26d0 8B02     		.2byte	0x28b
 7750 26d2 B8000000 		.4byte	0xb8
 7751 26d6 02       		.uleb128 0x2
 7752 26d7 91       		.byte	0x91
 7753 26d8 66       		.sleb128 -26
 7754 26d9 36       		.uleb128 0x36
 7755 26da 6200     		.ascii	"b\000"
 7756 26dc 01       		.byte	0x1
 7757 26dd 8B02     		.2byte	0x28b
 7758 26df B8000000 		.4byte	0xb8
 7759 26e3 02       		.uleb128 0x2
 7760 26e4 91       		.byte	0x91
 7761 26e5 65       		.sleb128 -27
 7762 26e6 36       		.uleb128 0x36
 7763 26e7 6800     		.ascii	"h\000"
 7764 26e9 01       		.byte	0x1
 7765 26ea 8C02     		.2byte	0x28c
 7766 26ec CE000000 		.4byte	0xce
 7767 26f0 05       		.uleb128 0x5
 7768 26f1 03       		.byte	0x3
 7769 26f2 02000000 		.4byte	h.11402
 7770 26f6 36       		.uleb128 0x36
 7771 26f7 7300     		.ascii	"s\000"
 7772 26f9 01       		.byte	0x1
 7773 26fa 8D02     		.2byte	0x28d
 7774 26fc B8000000 		.4byte	0xb8
 7775 2700 05       		.uleb128 0x5
 7776 2701 03       		.byte	0x3
 7777 2702 00000000 		.4byte	s.11403
 7778 2706 36       		.uleb128 0x36
 7779 2707 7600     		.ascii	"v\000"
 7780 2709 01       		.byte	0x1
 7781 270a 8D02     		.2byte	0x28d
 7782 270c B8000000 		.4byte	0xb8
 7783 2710 05       		.uleb128 0x5
 7784 2711 03       		.byte	0x3
 7785 2712 01000000 		.4byte	v.11404
 7786 2716 36       		.uleb128 0x36
 7787 2717 6D00     		.ascii	"m\000"
 7788 2719 01       		.byte	0x1
 7789 271a 8D02     		.2byte	0x28d
 7790 271c B8000000 		.4byte	0xb8
 7791 2720 05       		.uleb128 0x5
 7792 2721 03       		.byte	0x3
 7793 2722 02000000 		.4byte	m.11405
 7794 2726 37       		.uleb128 0x37
 7795 2727 5C290000 		.4byte	.LASF638
 7796 272b 01       		.byte	0x1
ARM GAS  C:\Users\haske\AppData\Local\Temp\ccIkbvey.s 			page 176


 7797 272c 8E02     		.2byte	0x28e
 7798 272e CE000000 		.4byte	0xce
 7799 2732 05       		.uleb128 0x5
 7800 2733 03       		.byte	0x3
 7801 2734 00000000 		.4byte	angle_saved.11406
 7802 2738 38       		.uleb128 0x38
 7803 2739 A0230000 		.4byte	0x23a0
 7804 273d 4E010000 		.4byte	.LBB56
 7805 2741 0E000000 		.4byte	.LBE56-.LBB56
 7806 2745 01       		.byte	0x1
 7807 2746 B302     		.2byte	0x2b3
 7808 2748 68270000 		.4byte	0x2768
 7809 274c 39       		.uleb128 0x39
 7810 274d C5230000 		.4byte	0x23c5
 7811 2751 A6030000 		.4byte	.LLST13
 7812 2755 39       		.uleb128 0x39
 7813 2756 BB230000 		.4byte	0x23bb
 7814 275a B9030000 		.4byte	.LLST14
 7815 275e 39       		.uleb128 0x39
 7816 275f B1230000 		.4byte	0x23b1
 7817 2763 D8030000 		.4byte	.LLST15
 7818 2767 00       		.byte	0
 7819 2768 3A       		.uleb128 0x3a
 7820 2769 98000000 		.4byte	.LVL42
 7821 276d 70250000 		.4byte	0x2570
 7822 2771 90270000 		.4byte	0x2790
 7823 2775 3B       		.uleb128 0x3b
 7824 2776 01       		.uleb128 0x1
 7825 2777 50       		.byte	0x50
 7826 2778 02       		.uleb128 0x2
 7827 2779 75       		.byte	0x75
 7828 277a 00       		.sleb128 0
 7829 277b 3B       		.uleb128 0x3b
 7830 277c 01       		.uleb128 0x1
 7831 277d 53       		.byte	0x53
 7832 277e 02       		.uleb128 0x2
 7833 277f 91       		.byte	0x91
 7834 2780 67       		.sleb128 -25
 7835 2781 3B       		.uleb128 0x3b
 7836 2782 02       		.uleb128 0x2
 7837 2783 7D       		.byte	0x7d
 7838 2784 00       		.sleb128 0
 7839 2785 02       		.uleb128 0x2
 7840 2786 91       		.byte	0x91
 7841 2787 66       		.sleb128 -26
 7842 2788 3B       		.uleb128 0x3b
 7843 2789 02       		.uleb128 0x2
 7844 278a 7D       		.byte	0x7d
 7845 278b 04       		.sleb128 4
 7846 278c 02       		.uleb128 0x2
 7847 278d 91       		.byte	0x91
 7848 278e 65       		.sleb128 -27
 7849 278f 00       		.byte	0
 7850 2790 3A       		.uleb128 0x3a
 7851 2791 EA000000 		.4byte	.LVL48
 7852 2795 70250000 		.4byte	0x2570
 7853 2799 B8270000 		.4byte	0x27b8
ARM GAS  C:\Users\haske\AppData\Local\Temp\ccIkbvey.s 			page 177


 7854 279d 3B       		.uleb128 0x3b
 7855 279e 01       		.uleb128 0x1
 7856 279f 51       		.byte	0x51
 7857 27a0 02       		.uleb128 0x2
 7858 27a1 75       		.byte	0x75
 7859 27a2 00       		.sleb128 0
 7860 27a3 3B       		.uleb128 0x3b
 7861 27a4 01       		.uleb128 0x1
 7862 27a5 53       		.byte	0x53
 7863 27a6 02       		.uleb128 0x2
 7864 27a7 91       		.byte	0x91
 7865 27a8 67       		.sleb128 -25
 7866 27a9 3B       		.uleb128 0x3b
 7867 27aa 02       		.uleb128 0x2
 7868 27ab 7D       		.byte	0x7d
 7869 27ac 00       		.sleb128 0
 7870 27ad 02       		.uleb128 0x2
 7871 27ae 91       		.byte	0x91
 7872 27af 66       		.sleb128 -26
 7873 27b0 3B       		.uleb128 0x3b
 7874 27b1 02       		.uleb128 0x2
 7875 27b2 7D       		.byte	0x7d
 7876 27b3 04       		.sleb128 4
 7877 27b4 02       		.uleb128 0x2
 7878 27b5 91       		.byte	0x91
 7879 27b6 65       		.sleb128 -27
 7880 27b7 00       		.byte	0
 7881 27b8 3C       		.uleb128 0x3c
 7882 27b9 3C010000 		.4byte	.LVL54
 7883 27bd 70250000 		.4byte	0x2570
 7884 27c1 3B       		.uleb128 0x3b
 7885 27c2 01       		.uleb128 0x1
 7886 27c3 52       		.byte	0x52
 7887 27c4 02       		.uleb128 0x2
 7888 27c5 75       		.byte	0x75
 7889 27c6 00       		.sleb128 0
 7890 27c7 3B       		.uleb128 0x3b
 7891 27c8 01       		.uleb128 0x1
 7892 27c9 53       		.byte	0x53
 7893 27ca 02       		.uleb128 0x2
 7894 27cb 91       		.byte	0x91
 7895 27cc 67       		.sleb128 -25
 7896 27cd 3B       		.uleb128 0x3b
 7897 27ce 02       		.uleb128 0x2
 7898 27cf 7D       		.byte	0x7d
 7899 27d0 00       		.sleb128 0
 7900 27d1 02       		.uleb128 0x2
 7901 27d2 91       		.byte	0x91
 7902 27d3 66       		.sleb128 -26
 7903 27d4 3B       		.uleb128 0x3b
 7904 27d5 02       		.uleb128 0x2
 7905 27d6 7D       		.byte	0x7d
 7906 27d7 04       		.sleb128 4
 7907 27d8 02       		.uleb128 0x2
 7908 27d9 91       		.byte	0x91
 7909 27da 65       		.sleb128 -27
 7910 27db 00       		.byte	0
ARM GAS  C:\Users\haske\AppData\Local\Temp\ccIkbvey.s 			page 178


 7911 27dc 00       		.byte	0
 7912 27dd 07       		.uleb128 0x7
 7913 27de 04       		.byte	0x4
 7914 27df 95230000 		.4byte	0x2395
 7915 27e3 34       		.uleb128 0x34
 7916 27e4 31010000 		.4byte	.LASF640
 7917 27e8 01       		.byte	0x1
 7918 27e9 B602     		.2byte	0x2b6
 7919 27eb CE000000 		.4byte	0xce
 7920 27ef 00000000 		.4byte	.LFB222
 7921 27f3 3E000000 		.4byte	.LFE222-.LFB222
 7922 27f7 01       		.uleb128 0x1
 7923 27f8 9C       		.byte	0x9c
 7924 27f9 2E280000 		.4byte	0x282e
 7925 27fd 2F       		.uleb128 0x2f
 7926 27fe 6F626A00 		.ascii	"obj\000"
 7927 2802 01       		.byte	0x1
 7928 2803 B602     		.2byte	0x2b6
 7929 2805 76220000 		.4byte	0x2276
 7930 2809 F7030000 		.4byte	.LLST16
 7931 280d 30       		.uleb128 0x30
 7932 280e 3A040000 		.4byte	.LASF641
 7933 2812 01       		.byte	0x1
 7934 2813 B802     		.2byte	0x2b8
 7935 2815 DD270000 		.4byte	0x27dd
 7936 2819 4A040000 		.4byte	.LLST17
 7937 281d 30       		.uleb128 0x30
 7938 281e 24020000 		.4byte	.LASF239
 7939 2822 01       		.byte	0x1
 7940 2823 B902     		.2byte	0x2b9
 7941 2825 CE000000 		.4byte	0xce
 7942 2829 9D040000 		.4byte	.LLST18
 7943 282d 00       		.byte	0
 7944 282e 3D       		.uleb128 0x3d
 7945 282f BA100000 		.4byte	.LASF642
 7946 2833 01       		.byte	0x1
 7947 2834 4E01     		.2byte	0x14e
 7948 2836 22020000 		.4byte	0x222
 7949 283a 00000000 		.4byte	.LFB215
 7950 283e 94000000 		.4byte	.LFE215-.LFB215
 7951 2842 01       		.uleb128 0x1
 7952 2843 9C       		.byte	0x9c
 7953 2844 582A0000 		.4byte	0x2a58
 7954 2848 2F       		.uleb128 0x2f
 7955 2849 6F626A00 		.ascii	"obj\000"
 7956 284d 01       		.byte	0x1
 7957 284e 4E01     		.2byte	0x14e
 7958 2850 76220000 		.4byte	0x2276
 7959 2854 C6040000 		.4byte	.LLST19
 7960 2858 30       		.uleb128 0x30
 7961 2859 3A040000 		.4byte	.LASF641
 7962 285d 01       		.byte	0x1
 7963 285e 5001     		.2byte	0x150
 7964 2860 DD270000 		.4byte	0x27dd
 7965 2864 F2040000 		.4byte	.LLST20
 7966 2868 31       		.uleb128 0x31
 7967 2869 7200     		.ascii	"r\000"
ARM GAS  C:\Users\haske\AppData\Local\Temp\ccIkbvey.s 			page 179


 7968 286b 01       		.byte	0x1
 7969 286c 5301     		.2byte	0x153
 7970 286e CE000000 		.4byte	0xce
 7971 2872 1E050000 		.4byte	.LLST21
 7972 2876 3E       		.uleb128 0x3e
 7973 2877 5A250000 		.4byte	.LASF643
 7974 287b 01       		.byte	0x1
 7975 287c 5601     		.2byte	0x156
 7976 287e BA010000 		.4byte	0x1ba
 7977 2882 3E       		.uleb128 0x3e
 7978 2883 EB240000 		.4byte	.LASF644
 7979 2887 01       		.byte	0x1
 7980 2888 5701     		.2byte	0x157
 7981 288a BA010000 		.4byte	0x1ba
 7982 288e 2C       		.uleb128 0x2c
 7983 288f 746F7000 		.ascii	"top\000"
 7984 2893 01       		.byte	0x1
 7985 2894 5801     		.2byte	0x158
 7986 2896 BA010000 		.4byte	0x1ba
 7987 289a 3E       		.uleb128 0x3e
 7988 289b 57040000 		.4byte	.LASF645
 7989 289f 01       		.byte	0x1
 7990 28a0 5901     		.2byte	0x159
 7991 28a2 BA010000 		.4byte	0x1ba
 7992 28a6 30       		.uleb128 0x30
 7993 28a7 F71B0000 		.4byte	.LASF646
 7994 28ab 01       		.byte	0x1
 7995 28ac 5B01     		.2byte	0x15b
 7996 28ae 22020000 		.4byte	0x222
 7997 28b2 3D050000 		.4byte	.LLST22
 7998 28b6 38       		.uleb128 0x38
 7999 28b7 9B240000 		.4byte	0x249b
 8000 28bb 0E000000 		.4byte	.LBB58
 8001 28bf 0C000000 		.4byte	.LBE58-.LBB58
 8002 28c3 01       		.byte	0x1
 8003 28c4 5401     		.2byte	0x154
 8004 28c6 07290000 		.4byte	0x2907
 8005 28ca 39       		.uleb128 0x39
 8006 28cb B8240000 		.4byte	0x24b8
 8007 28cf 69050000 		.4byte	.LLST23
 8008 28d3 39       		.uleb128 0x39
 8009 28d4 AC240000 		.4byte	0x24ac
 8010 28d8 7D050000 		.4byte	.LLST24
 8011 28dc 33       		.uleb128 0x33
 8012 28dd 0E000000 		.4byte	.LBB59
 8013 28e1 0C000000 		.4byte	.LBE59-.LBB59
 8014 28e5 3F       		.uleb128 0x3f
 8015 28e6 C4240000 		.4byte	0x24c4
 8016 28ea 3C       		.uleb128 0x3c
 8017 28eb 18000000 		.4byte	.LVL75
 8018 28ef 713D0000 		.4byte	0x3d71
 8019 28f3 3B       		.uleb128 0x3b
 8020 28f4 01       		.uleb128 0x1
 8021 28f5 50       		.byte	0x50
 8022 28f6 02       		.uleb128 0x2
 8023 28f7 75       		.byte	0x75
 8024 28f8 00       		.sleb128 0
ARM GAS  C:\Users\haske\AppData\Local\Temp\ccIkbvey.s 			page 180


 8025 28f9 3B       		.uleb128 0x3b
 8026 28fa 01       		.uleb128 0x1
 8027 28fb 51       		.byte	0x51
 8028 28fc 01       		.uleb128 0x1
 8029 28fd 30       		.byte	0x30
 8030 28fe 3B       		.uleb128 0x3b
 8031 28ff 01       		.uleb128 0x1
 8032 2900 52       		.byte	0x52
 8033 2901 02       		.uleb128 0x2
 8034 2902 08       		.byte	0x8
 8035 2903 50       		.byte	0x50
 8036 2904 00       		.byte	0
 8037 2905 00       		.byte	0
 8038 2906 00       		.byte	0
 8039 2907 38       		.uleb128 0x38
 8040 2908 6B240000 		.4byte	0x246b
 8041 290c 22000000 		.4byte	.LBB60
 8042 2910 10000000 		.4byte	.LBE60-.LBB60
 8043 2914 01       		.byte	0x1
 8044 2915 5601     		.2byte	0x156
 8045 2917 5C290000 		.4byte	0x295c
 8046 291b 39       		.uleb128 0x39
 8047 291c 86240000 		.4byte	0x2486
 8048 2920 9B050000 		.4byte	.LLST25
 8049 2924 39       		.uleb128 0x39
 8050 2925 7B240000 		.4byte	0x247b
 8051 2929 B1050000 		.4byte	.LLST26
 8052 292d 33       		.uleb128 0x33
 8053 292e 22000000 		.4byte	.LBB61
 8054 2932 10000000 		.4byte	.LBE61-.LBB61
 8055 2936 40       		.uleb128 0x40
 8056 2937 91240000 		.4byte	0x2491
 8057 293b C4050000 		.4byte	.LLST27
 8058 293f 3C       		.uleb128 0x3c
 8059 2940 30000000 		.4byte	.LVL78
 8060 2944 713D0000 		.4byte	0x3d71
 8061 2948 3B       		.uleb128 0x3b
 8062 2949 01       		.uleb128 0x1
 8063 294a 50       		.byte	0x50
 8064 294b 02       		.uleb128 0x2
 8065 294c 75       		.byte	0x75
 8066 294d 00       		.sleb128 0
 8067 294e 3B       		.uleb128 0x3b
 8068 294f 01       		.uleb128 0x1
 8069 2950 51       		.byte	0x51
 8070 2951 02       		.uleb128 0x2
 8071 2952 77       		.byte	0x77
 8072 2953 00       		.sleb128 0
 8073 2954 3B       		.uleb128 0x3b
 8074 2955 01       		.uleb128 0x1
 8075 2956 52       		.byte	0x52
 8076 2957 01       		.uleb128 0x1
 8077 2958 42       		.byte	0x42
 8078 2959 00       		.byte	0
 8079 295a 00       		.byte	0
 8080 295b 00       		.byte	0
 8081 295c 38       		.uleb128 0x38
ARM GAS  C:\Users\haske\AppData\Local\Temp\ccIkbvey.s 			page 181


 8082 295d 3B240000 		.4byte	0x243b
 8083 2961 32000000 		.4byte	.LBB62
 8084 2965 0C000000 		.4byte	.LBE62-.LBB62
 8085 2969 01       		.byte	0x1
 8086 296a 5701     		.2byte	0x157
 8087 296c B1290000 		.4byte	0x29b1
 8088 2970 39       		.uleb128 0x39
 8089 2971 56240000 		.4byte	0x2456
 8090 2975 D7050000 		.4byte	.LLST28
 8091 2979 39       		.uleb128 0x39
 8092 297a 4B240000 		.4byte	0x244b
 8093 297e ED050000 		.4byte	.LLST29
 8094 2982 33       		.uleb128 0x33
 8095 2983 32000000 		.4byte	.LBB63
 8096 2987 0C000000 		.4byte	.LBE63-.LBB63
 8097 298b 40       		.uleb128 0x40
 8098 298c 61240000 		.4byte	0x2461
 8099 2990 00060000 		.4byte	.LLST30
 8100 2994 3C       		.uleb128 0x3c
 8101 2995 3C000000 		.4byte	.LVL80
 8102 2999 713D0000 		.4byte	0x3d71
 8103 299d 3B       		.uleb128 0x3b
 8104 299e 01       		.uleb128 0x1
 8105 299f 50       		.byte	0x50
 8106 29a0 02       		.uleb128 0x2
 8107 29a1 75       		.byte	0x75
 8108 29a2 00       		.sleb128 0
 8109 29a3 3B       		.uleb128 0x3b
 8110 29a4 01       		.uleb128 0x1
 8111 29a5 51       		.byte	0x51
 8112 29a6 02       		.uleb128 0x2
 8113 29a7 77       		.byte	0x77
 8114 29a8 00       		.sleb128 0
 8115 29a9 3B       		.uleb128 0x3b
 8116 29aa 01       		.uleb128 0x1
 8117 29ab 52       		.byte	0x52
 8118 29ac 01       		.uleb128 0x1
 8119 29ad 43       		.byte	0x43
 8120 29ae 00       		.byte	0
 8121 29af 00       		.byte	0
 8122 29b0 00       		.byte	0
 8123 29b1 38       		.uleb128 0x38
 8124 29b2 0B240000 		.4byte	0x240b
 8125 29b6 3E000000 		.4byte	.LBB64
 8126 29ba 0C000000 		.4byte	.LBE64-.LBB64
 8127 29be 01       		.byte	0x1
 8128 29bf 5801     		.2byte	0x158
 8129 29c1 062A0000 		.4byte	0x2a06
 8130 29c5 39       		.uleb128 0x39
 8131 29c6 26240000 		.4byte	0x2426
 8132 29ca 13060000 		.4byte	.LLST31
 8133 29ce 39       		.uleb128 0x39
 8134 29cf 1B240000 		.4byte	0x241b
 8135 29d3 29060000 		.4byte	.LLST32
 8136 29d7 33       		.uleb128 0x33
 8137 29d8 3E000000 		.4byte	.LBB65
 8138 29dc 0C000000 		.4byte	.LBE65-.LBB65
ARM GAS  C:\Users\haske\AppData\Local\Temp\ccIkbvey.s 			page 182


 8139 29e0 40       		.uleb128 0x40
 8140 29e1 31240000 		.4byte	0x2431
 8141 29e5 3C060000 		.4byte	.LLST33
 8142 29e9 3C       		.uleb128 0x3c
 8143 29ea 48000000 		.4byte	.LVL82
 8144 29ee 713D0000 		.4byte	0x3d71
 8145 29f2 3B       		.uleb128 0x3b
 8146 29f3 01       		.uleb128 0x1
 8147 29f4 50       		.byte	0x50
 8148 29f5 02       		.uleb128 0x2
 8149 29f6 75       		.byte	0x75
 8150 29f7 00       		.sleb128 0
 8151 29f8 3B       		.uleb128 0x3b
 8152 29f9 01       		.uleb128 0x1
 8153 29fa 51       		.byte	0x51
 8154 29fb 02       		.uleb128 0x2
 8155 29fc 77       		.byte	0x77
 8156 29fd 00       		.sleb128 0
 8157 29fe 3B       		.uleb128 0x3b
 8158 29ff 01       		.uleb128 0x1
 8159 2a00 52       		.byte	0x52
 8160 2a01 01       		.uleb128 0x1
 8161 2a02 40       		.byte	0x40
 8162 2a03 00       		.byte	0
 8163 2a04 00       		.byte	0
 8164 2a05 00       		.byte	0
 8165 2a06 41       		.uleb128 0x41
 8166 2a07 D0230000 		.4byte	0x23d0
 8167 2a0b 4A000000 		.4byte	.LBB66
 8168 2a0f 0A000000 		.4byte	.LBE66-.LBB66
 8169 2a13 01       		.byte	0x1
 8170 2a14 5901     		.2byte	0x159
 8171 2a16 39       		.uleb128 0x39
 8172 2a17 EB230000 		.4byte	0x23eb
 8173 2a1b 4F060000 		.4byte	.LLST34
 8174 2a1f 39       		.uleb128 0x39
 8175 2a20 E0230000 		.4byte	0x23e0
 8176 2a24 65060000 		.4byte	.LLST35
 8177 2a28 33       		.uleb128 0x33
 8178 2a29 4A000000 		.4byte	.LBB67
 8179 2a2d 0A000000 		.4byte	.LBE67-.LBB67
 8180 2a31 40       		.uleb128 0x40
 8181 2a32 F6230000 		.4byte	0x23f6
 8182 2a36 78060000 		.4byte	.LLST36
 8183 2a3a 3C       		.uleb128 0x3c
 8184 2a3b 54000000 		.4byte	.LVL84
 8185 2a3f 713D0000 		.4byte	0x3d71
 8186 2a43 3B       		.uleb128 0x3b
 8187 2a44 01       		.uleb128 0x1
 8188 2a45 50       		.byte	0x50
 8189 2a46 02       		.uleb128 0x2
 8190 2a47 75       		.byte	0x75
 8191 2a48 00       		.sleb128 0
 8192 2a49 3B       		.uleb128 0x3b
 8193 2a4a 01       		.uleb128 0x1
 8194 2a4b 51       		.byte	0x51
 8195 2a4c 02       		.uleb128 0x2
ARM GAS  C:\Users\haske\AppData\Local\Temp\ccIkbvey.s 			page 183


 8196 2a4d 77       		.byte	0x77
 8197 2a4e 00       		.sleb128 0
 8198 2a4f 3B       		.uleb128 0x3b
 8199 2a50 01       		.uleb128 0x1
 8200 2a51 52       		.byte	0x52
 8201 2a52 01       		.uleb128 0x1
 8202 2a53 41       		.byte	0x41
 8203 2a54 00       		.byte	0
 8204 2a55 00       		.byte	0
 8205 2a56 00       		.byte	0
 8206 2a57 00       		.byte	0
 8207 2a58 2E       		.uleb128 0x2e
 8208 2a59 981F0000 		.4byte	.LASF648
 8209 2a5d 01       		.byte	0x1
 8210 2a5e 4701     		.2byte	0x147
 8211 2a60 00000000 		.4byte	.LFB214
 8212 2a64 1A000000 		.4byte	.LFE214-.LFB214
 8213 2a68 01       		.uleb128 0x1
 8214 2a69 9C       		.byte	0x9c
 8215 2a6a BE2A0000 		.4byte	0x2abe
 8216 2a6e 2F       		.uleb128 0x2f
 8217 2a6f 6F626A00 		.ascii	"obj\000"
 8218 2a73 01       		.byte	0x1
 8219 2a74 4701     		.2byte	0x147
 8220 2a76 76220000 		.4byte	0x2276
 8221 2a7a 8B060000 		.4byte	.LLST37
 8222 2a7e 37       		.uleb128 0x37
 8223 2a7f F71B0000 		.4byte	.LASF646
 8224 2a83 01       		.byte	0x1
 8225 2a84 4901     		.2byte	0x149
 8226 2a86 22020000 		.4byte	0x222
 8227 2a8a 02       		.uleb128 0x2
 8228 2a8b 91       		.byte	0x91
 8229 2a8c 70       		.sleb128 -16
 8230 2a8d 3A       		.uleb128 0x3a
 8231 2a8e 0E000000 		.4byte	.LVL97
 8232 2a92 2E280000 		.4byte	0x282e
 8233 2a96 A72A0000 		.4byte	0x2aa7
 8234 2a9a 3B       		.uleb128 0x3b
 8235 2a9b 01       		.uleb128 0x1
 8236 2a9c 50       		.byte	0x50
 8237 2a9d 02       		.uleb128 0x2
 8238 2a9e 7D       		.byte	0x7d
 8239 2a9f 00       		.sleb128 0
 8240 2aa0 3B       		.uleb128 0x3b
 8241 2aa1 01       		.uleb128 0x1
 8242 2aa2 51       		.byte	0x51
 8243 2aa3 02       		.uleb128 0x2
 8244 2aa4 74       		.byte	0x74
 8245 2aa5 00       		.sleb128 0
 8246 2aa6 00       		.byte	0
 8247 2aa7 3C       		.uleb128 0x3c
 8248 2aa8 16000000 		.4byte	.LVL98
 8249 2aac 7C3D0000 		.4byte	0x3d7c
 8250 2ab0 3B       		.uleb128 0x3b
 8251 2ab1 01       		.uleb128 0x1
 8252 2ab2 50       		.byte	0x50
ARM GAS  C:\Users\haske\AppData\Local\Temp\ccIkbvey.s 			page 184


 8253 2ab3 02       		.uleb128 0x2
 8254 2ab4 74       		.byte	0x74
 8255 2ab5 00       		.sleb128 0
 8256 2ab6 3B       		.uleb128 0x3b
 8257 2ab7 01       		.uleb128 0x1
 8258 2ab8 51       		.byte	0x51
 8259 2ab9 02       		.uleb128 0x2
 8260 2aba 7D       		.byte	0x7d
 8261 2abb 00       		.sleb128 0
 8262 2abc 00       		.byte	0
 8263 2abd 00       		.byte	0
 8264 2abe 2E       		.uleb128 0x2e
 8265 2abf 75080000 		.4byte	.LASF649
 8266 2ac3 01       		.byte	0x1
 8267 2ac4 2502     		.2byte	0x225
 8268 2ac6 00000000 		.4byte	.LFB218
 8269 2aca 64000000 		.4byte	.LFE218-.LFB218
 8270 2ace 01       		.uleb128 0x1
 8271 2acf 9C       		.byte	0x9c
 8272 2ad0 012C0000 		.4byte	0x2c01
 8273 2ad4 2F       		.uleb128 0x2f
 8274 2ad5 6F626A00 		.ascii	"obj\000"
 8275 2ad9 01       		.byte	0x1
 8276 2ada 2502     		.2byte	0x225
 8277 2adc 76220000 		.4byte	0x2276
 8278 2ae0 C2060000 		.4byte	.LLST38
 8279 2ae4 30       		.uleb128 0x30
 8280 2ae5 3A040000 		.4byte	.LASF641
 8281 2ae9 01       		.byte	0x1
 8282 2aea 2902     		.2byte	0x229
 8283 2aec DD270000 		.4byte	0x27dd
 8284 2af0 EE060000 		.4byte	.LLST39
 8285 2af4 31       		.uleb128 0x31
 8286 2af5 7700     		.ascii	"w\000"
 8287 2af7 01       		.byte	0x1
 8288 2af8 2A02     		.2byte	0x22a
 8289 2afa BA010000 		.4byte	0x1ba
 8290 2afe 0F070000 		.4byte	.LLST40
 8291 2b02 3E       		.uleb128 0x3e
 8292 2b03 23190000 		.4byte	.LASF650
 8293 2b07 01       		.byte	0x1
 8294 2b08 2C02     		.2byte	0x22c
 8295 2b0a BA010000 		.4byte	0x1ba
 8296 2b0e 31       		.uleb128 0x31
 8297 2b0f 7200     		.ascii	"r\000"
 8298 2b11 01       		.byte	0x1
 8299 2b12 2D02     		.2byte	0x22d
 8300 2b14 BA010000 		.4byte	0x1ba
 8301 2b18 22070000 		.4byte	.LLST41
 8302 2b1c 30       		.uleb128 0x30
 8303 2b1d 24020000 		.4byte	.LASF239
 8304 2b21 01       		.byte	0x1
 8305 2b22 2E02     		.2byte	0x22e
 8306 2b24 CE000000 		.4byte	0xce
 8307 2b28 35070000 		.4byte	.LLST42
 8308 2b2c 38       		.uleb128 0x38
 8309 2b2d 9B240000 		.4byte	0x249b
ARM GAS  C:\Users\haske\AppData\Local\Temp\ccIkbvey.s 			page 185


 8310 2b31 10000000 		.4byte	.LBB68
 8311 2b35 0C000000 		.4byte	.LBE68-.LBB68
 8312 2b39 01       		.byte	0x1
 8313 2b3a 2C02     		.2byte	0x22c
 8314 2b3c 7D2B0000 		.4byte	0x2b7d
 8315 2b40 39       		.uleb128 0x39
 8316 2b41 B8240000 		.4byte	0x24b8
 8317 2b45 48070000 		.4byte	.LLST43
 8318 2b49 39       		.uleb128 0x39
 8319 2b4a AC240000 		.4byte	0x24ac
 8320 2b4e 5C070000 		.4byte	.LLST44
 8321 2b52 33       		.uleb128 0x33
 8322 2b53 10000000 		.4byte	.LBB69
 8323 2b57 0C000000 		.4byte	.LBE69-.LBB69
 8324 2b5b 3F       		.uleb128 0x3f
 8325 2b5c C4240000 		.4byte	0x24c4
 8326 2b60 3C       		.uleb128 0x3c
 8327 2b61 1A000000 		.4byte	.LVL104
 8328 2b65 713D0000 		.4byte	0x3d71
 8329 2b69 3B       		.uleb128 0x3b
 8330 2b6a 01       		.uleb128 0x1
 8331 2b6b 50       		.byte	0x50
 8332 2b6c 02       		.uleb128 0x2
 8333 2b6d 75       		.byte	0x75
 8334 2b6e 00       		.sleb128 0
 8335 2b6f 3B       		.uleb128 0x3b
 8336 2b70 01       		.uleb128 0x1
 8337 2b71 51       		.byte	0x51
 8338 2b72 01       		.uleb128 0x1
 8339 2b73 30       		.byte	0x30
 8340 2b74 3B       		.uleb128 0x3b
 8341 2b75 01       		.uleb128 0x1
 8342 2b76 52       		.byte	0x52
 8343 2b77 02       		.uleb128 0x2
 8344 2b78 08       		.byte	0x8
 8345 2b79 50       		.byte	0x50
 8346 2b7a 00       		.byte	0
 8347 2b7b 00       		.byte	0
 8348 2b7c 00       		.byte	0
 8349 2b7d 38       		.uleb128 0x38
 8350 2b7e CF240000 		.4byte	0x24cf
 8351 2b82 3A000000 		.4byte	.LBB70
 8352 2b86 08000000 		.4byte	.LBE70-.LBB70
 8353 2b8a 01       		.byte	0x1
 8354 2b8b 3002     		.2byte	0x230
 8355 2b8d AB2B0000 		.4byte	0x2bab
 8356 2b91 39       		.uleb128 0x39
 8357 2b92 DF240000 		.4byte	0x24df
 8358 2b96 6F070000 		.4byte	.LLST45
 8359 2b9a 3C       		.uleb128 0x3c
 8360 2b9b 42000000 		.4byte	.LVL112
 8361 2b9f 883D0000 		.4byte	0x3d88
 8362 2ba3 3B       		.uleb128 0x3b
 8363 2ba4 01       		.uleb128 0x1
 8364 2ba5 50       		.byte	0x50
 8365 2ba6 02       		.uleb128 0x2
 8366 2ba7 77       		.byte	0x77
ARM GAS  C:\Users\haske\AppData\Local\Temp\ccIkbvey.s 			page 186


 8367 2ba8 00       		.sleb128 0
 8368 2ba9 00       		.byte	0
 8369 2baa 00       		.byte	0
 8370 2bab 3A       		.uleb128 0x3a
 8371 2bac 08000000 		.4byte	.LVL101
 8372 2bb0 582A0000 		.4byte	0x2a58
 8373 2bb4 BF2B0000 		.4byte	0x2bbf
 8374 2bb8 3B       		.uleb128 0x3b
 8375 2bb9 01       		.uleb128 0x1
 8376 2bba 50       		.byte	0x50
 8377 2bbb 02       		.uleb128 0x2
 8378 2bbc 75       		.byte	0x75
 8379 2bbd 00       		.sleb128 0
 8380 2bbe 00       		.byte	0
 8381 2bbf 3A       		.uleb128 0x3a
 8382 2bc0 0E000000 		.4byte	.LVL102
 8383 2bc4 933D0000 		.4byte	0x3d93
 8384 2bc8 D32B0000 		.4byte	0x2bd3
 8385 2bcc 3B       		.uleb128 0x3b
 8386 2bcd 01       		.uleb128 0x1
 8387 2bce 50       		.byte	0x50
 8388 2bcf 02       		.uleb128 0x2
 8389 2bd0 75       		.byte	0x75
 8390 2bd1 00       		.sleb128 0
 8391 2bd2 00       		.byte	0
 8392 2bd3 3A       		.uleb128 0x3a
 8393 2bd4 2C000000 		.4byte	.LVL107
 8394 2bd8 E3270000 		.4byte	0x27e3
 8395 2bdc E72B0000 		.4byte	0x2be7
 8396 2be0 3B       		.uleb128 0x3b
 8397 2be1 01       		.uleb128 0x1
 8398 2be2 50       		.byte	0x50
 8399 2be3 02       		.uleb128 0x2
 8400 2be4 75       		.byte	0x75
 8401 2be5 00       		.sleb128 0
 8402 2be6 00       		.byte	0
 8403 2be7 42       		.uleb128 0x42
 8404 2be8 34000000 		.4byte	.LVL109
 8405 2bec 883D0000 		.4byte	0x3d88
 8406 2bf0 3C       		.uleb128 0x3c
 8407 2bf1 62000000 		.4byte	.LVL114
 8408 2bf5 582A0000 		.4byte	0x2a58
 8409 2bf9 3B       		.uleb128 0x3b
 8410 2bfa 01       		.uleb128 0x1
 8411 2bfb 50       		.byte	0x50
 8412 2bfc 02       		.uleb128 0x2
 8413 2bfd 75       		.byte	0x75
 8414 2bfe 00       		.sleb128 0
 8415 2bff 00       		.byte	0
 8416 2c00 00       		.byte	0
 8417 2c01 43       		.uleb128 0x43
 8418 2c02 0E280000 		.4byte	.LASF651
 8419 2c06 01       		.byte	0x1
 8420 2c07 1D02     		.2byte	0x21d
 8421 2c09 00000000 		.4byte	.LFB217
 8422 2c0d 2C000000 		.4byte	.LFE217-.LFB217
 8423 2c11 01       		.uleb128 0x1
ARM GAS  C:\Users\haske\AppData\Local\Temp\ccIkbvey.s 			page 187


 8424 2c12 9C       		.byte	0x9c
 8425 2c13 5C2C0000 		.4byte	0x2c5c
 8426 2c17 2F       		.uleb128 0x2f
 8427 2c18 6F626A00 		.ascii	"obj\000"
 8428 2c1c 01       		.byte	0x1
 8429 2c1d 1D02     		.2byte	0x21d
 8430 2c1f 76220000 		.4byte	0x2276
 8431 2c23 82070000 		.4byte	.LLST46
 8432 2c27 30       		.uleb128 0x30
 8433 2c28 3A040000 		.4byte	.LASF641
 8434 2c2c 01       		.byte	0x1
 8435 2c2d 1F02     		.2byte	0x21f
 8436 2c2f DD270000 		.4byte	0x27dd
 8437 2c33 AE070000 		.4byte	.LLST47
 8438 2c37 3A       		.uleb128 0x3a
 8439 2c38 24000000 		.4byte	.LVL121
 8440 2c3c BE2A0000 		.4byte	0x2abe
 8441 2c40 4B2C0000 		.4byte	0x2c4b
 8442 2c44 3B       		.uleb128 0x3b
 8443 2c45 01       		.uleb128 0x1
 8444 2c46 50       		.byte	0x50
 8445 2c47 02       		.uleb128 0x2
 8446 2c48 74       		.byte	0x74
 8447 2c49 00       		.sleb128 0
 8448 2c4a 00       		.byte	0
 8449 2c4b 3C       		.uleb128 0x3c
 8450 2c4c 2A000000 		.4byte	.LVL122
 8451 2c50 9F3D0000 		.4byte	0x3d9f
 8452 2c54 3B       		.uleb128 0x3b
 8453 2c55 01       		.uleb128 0x1
 8454 2c56 50       		.byte	0x50
 8455 2c57 02       		.uleb128 0x2
 8456 2c58 74       		.byte	0x74
 8457 2c59 00       		.sleb128 0
 8458 2c5a 00       		.byte	0
 8459 2c5b 00       		.byte	0
 8460 2c5c 44       		.uleb128 0x44
 8461 2c5d 6D130000 		.4byte	.LASF652
 8462 2c61 01       		.byte	0x1
 8463 2c62 F2       		.byte	0xf2
 8464 2c63 00000000 		.4byte	.LFB212
 8465 2c67 A0010000 		.4byte	.LFE212-.LFB212
 8466 2c6b 01       		.uleb128 0x1
 8467 2c6c 9C       		.byte	0x9c
 8468 2c6d 3F300000 		.4byte	0x303f
 8469 2c71 45       		.uleb128 0x45
 8470 2c72 6500     		.ascii	"e\000"
 8471 2c74 01       		.byte	0x1
 8472 2c75 F2       		.byte	0xf2
 8473 2c76 65200000 		.4byte	0x2065
 8474 2c7a DA070000 		.4byte	.LLST48
 8475 2c7e 46       		.uleb128 0x46
 8476 2c7f 6F626A00 		.ascii	"obj\000"
 8477 2c83 01       		.byte	0x1
 8478 2c84 F4       		.byte	0xf4
 8479 2c85 76220000 		.4byte	0x2276
 8480 2c89 06080000 		.4byte	.LLST49
ARM GAS  C:\Users\haske\AppData\Local\Temp\ccIkbvey.s 			page 188


 8481 2c8d 47       		.uleb128 0x47
 8482 2c8e CB2A0000 		.4byte	.LASF345
 8483 2c92 01       		.byte	0x1
 8484 2c93 F5       		.byte	0xf5
 8485 2c94 C0150000 		.4byte	0x15c0
 8486 2c98 31080000 		.4byte	.LLST50
 8487 2c9c 46       		.uleb128 0x46
 8488 2c9d 7700     		.ascii	"w\000"
 8489 2c9f 01       		.byte	0x1
 8490 2ca0 F6       		.byte	0xf6
 8491 2ca1 BA010000 		.4byte	0x1ba
 8492 2ca5 51080000 		.4byte	.LLST51
 8493 2ca9 46       		.uleb128 0x46
 8494 2caa 6800     		.ascii	"h\000"
 8495 2cac 01       		.byte	0x1
 8496 2cad F7       		.byte	0xf7
 8497 2cae BA010000 		.4byte	0x1ba
 8498 2cb2 64080000 		.4byte	.LLST52
 8499 2cb6 46       		.uleb128 0x46
 8500 2cb7 637800   		.ascii	"cx\000"
 8501 2cba 01       		.byte	0x1
 8502 2cbb F8       		.byte	0xf8
 8503 2cbc BA010000 		.4byte	0x1ba
 8504 2cc0 77080000 		.4byte	.LLST53
 8505 2cc4 46       		.uleb128 0x46
 8506 2cc5 637900   		.ascii	"cy\000"
 8507 2cc8 01       		.byte	0x1
 8508 2cc9 F9       		.byte	0xf9
 8509 2cca BA010000 		.4byte	0x1ba
 8510 2cce 8A080000 		.4byte	.LLST54
 8511 2cd2 46       		.uleb128 0x46
 8512 2cd3 7200     		.ascii	"r\000"
 8513 2cd5 01       		.byte	0x1
 8514 2cd6 FA       		.byte	0xfa
 8515 2cd7 BA010000 		.4byte	0x1ba
 8516 2cdb 9D080000 		.4byte	.LLST55
 8517 2cdf 48       		.uleb128 0x48
 8518 2ce0 6E0A0000 		.4byte	.LASF653
 8519 2ce4 01       		.byte	0x1
 8520 2ce5 FC       		.byte	0xfc
 8521 2ce6 CF0C0000 		.4byte	0xccf
 8522 2cea 02       		.uleb128 0x2
 8523 2ceb 91       		.byte	0x91
 8524 2cec 4C       		.sleb128 -52
 8525 2ced 31       		.uleb128 0x31
 8526 2cee 6900     		.ascii	"i\000"
 8527 2cf0 01       		.byte	0x1
 8528 2cf1 0201     		.2byte	0x102
 8529 2cf3 CE000000 		.4byte	0xce
 8530 2cf7 BD080000 		.4byte	.LLST56
 8531 2cfb 31       		.uleb128 0x31
 8532 2cfc 6100     		.ascii	"a\000"
 8533 2cfe 01       		.byte	0x1
 8534 2cff 0301     		.2byte	0x103
 8535 2d01 E4000000 		.4byte	0xe4
 8536 2d05 DC080000 		.4byte	.LLST57
 8537 2d09 3E       		.uleb128 0x3e
ARM GAS  C:\Users\haske\AppData\Local\Temp\ccIkbvey.s 			page 189


 8538 2d0a F9040000 		.4byte	.LASF654
 8539 2d0e 01       		.byte	0x1
 8540 2d0f 0401     		.2byte	0x104
 8541 2d11 BA010000 		.4byte	0x1ba
 8542 2d15 37       		.uleb128 0x37
 8543 2d16 25260000 		.4byte	.LASF655
 8544 2d1a 01       		.byte	0x1
 8545 2d1b 0801     		.2byte	0x108
 8546 2d1d A00E0000 		.4byte	0xea0
 8547 2d21 03       		.uleb128 0x3
 8548 2d22 91       		.byte	0x91
 8549 2d23 B47F     		.sleb128 -76
 8550 2d25 37       		.uleb128 0x37
 8551 2d26 7C2A0000 		.4byte	.LASF656
 8552 2d2a 01       		.byte	0x1
 8553 2d2b 0A01     		.2byte	0x10a
 8554 2d2d C3000000 		.4byte	0xc3
 8555 2d31 03       		.uleb128 0x3
 8556 2d32 91       		.byte	0x91
 8557 2d33 807F     		.sleb128 -128
 8558 2d35 37       		.uleb128 0x37
 8559 2d36 B12A0000 		.4byte	.LASF657
 8560 2d3a 01       		.byte	0x1
 8561 2d3b 0C01     		.2byte	0x10c
 8562 2d3d 22020000 		.4byte	0x222
 8563 2d41 03       		.uleb128 0x3
 8564 2d42 91       		.byte	0x91
 8565 2d43 AC7F     		.sleb128 -84
 8566 2d45 37       		.uleb128 0x37
 8567 2d46 EB1F0000 		.4byte	.LASF658
 8568 2d4a 01       		.byte	0x1
 8569 2d4b 1201     		.2byte	0x112
 8570 2d4d A00E0000 		.4byte	0xea0
 8571 2d51 03       		.uleb128 0x3
 8572 2d52 91       		.byte	0x91
 8573 2d53 947F     		.sleb128 -108
 8574 2d55 37       		.uleb128 0x37
 8575 2d56 6A250000 		.4byte	.LASF659
 8576 2d5a 01       		.byte	0x1
 8577 2d5b 1401     		.2byte	0x114
 8578 2d5d C3000000 		.4byte	0xc3
 8579 2d61 03       		.uleb128 0x3
 8580 2d62 91       		.byte	0x91
 8581 2d63 847F     		.sleb128 -124
 8582 2d65 30       		.uleb128 0x30
 8583 2d66 99070000 		.4byte	.LASF660
 8584 2d6a 01       		.byte	0x1
 8585 2d6b 1801     		.2byte	0x118
 8586 2d6d BA010000 		.4byte	0x1ba
 8587 2d71 FB080000 		.4byte	.LLST58
 8588 2d75 38       		.uleb128 0x38
 8589 2d76 9B240000 		.4byte	0x249b
 8590 2d7a 76000000 		.4byte	.LBB72
 8591 2d7e 10000000 		.4byte	.LBE72-.LBB72
 8592 2d82 01       		.byte	0x1
 8593 2d83 0401     		.2byte	0x104
 8594 2d85 C62D0000 		.4byte	0x2dc6
ARM GAS  C:\Users\haske\AppData\Local\Temp\ccIkbvey.s 			page 190


 8595 2d89 39       		.uleb128 0x39
 8596 2d8a B8240000 		.4byte	0x24b8
 8597 2d8e 0E090000 		.4byte	.LLST59
 8598 2d92 39       		.uleb128 0x39
 8599 2d93 AC240000 		.4byte	0x24ac
 8600 2d97 22090000 		.4byte	.LLST60
 8601 2d9b 33       		.uleb128 0x33
 8602 2d9c 76000000 		.4byte	.LBB73
 8603 2da0 10000000 		.4byte	.LBE73-.LBB73
 8604 2da4 3F       		.uleb128 0x3f
 8605 2da5 C4240000 		.4byte	0x24c4
 8606 2da9 3C       		.uleb128 0x3c
 8607 2daa 80000000 		.4byte	.LVL142
 8608 2dae 713D0000 		.4byte	0x3d71
 8609 2db2 3B       		.uleb128 0x3b
 8610 2db3 01       		.uleb128 0x1
 8611 2db4 50       		.byte	0x50
 8612 2db5 02       		.uleb128 0x2
 8613 2db6 76       		.byte	0x76
 8614 2db7 00       		.sleb128 0
 8615 2db8 3B       		.uleb128 0x3b
 8616 2db9 01       		.uleb128 0x1
 8617 2dba 51       		.byte	0x51
 8618 2dbb 01       		.uleb128 0x1
 8619 2dbc 30       		.byte	0x30
 8620 2dbd 3B       		.uleb128 0x3b
 8621 2dbe 01       		.uleb128 0x1
 8622 2dbf 52       		.byte	0x52
 8623 2dc0 02       		.uleb128 0x2
 8624 2dc1 08       		.byte	0x8
 8625 2dc2 50       		.byte	0x50
 8626 2dc3 00       		.byte	0
 8627 2dc4 00       		.byte	0
 8628 2dc5 00       		.byte	0
 8629 2dc6 38       		.uleb128 0x38
 8630 2dc7 EB240000 		.4byte	0x24eb
 8631 2dcb 9E000000 		.4byte	.LBB74
 8632 2dcf 18000000 		.4byte	.LBE74-.LBB74
 8633 2dd3 01       		.byte	0x1
 8634 2dd4 0D01     		.2byte	0x10d
 8635 2dd6 ED2D0000 		.4byte	0x2ded
 8636 2dda 39       		.uleb128 0x39
 8637 2ddb 02250000 		.4byte	0x2502
 8638 2ddf 35090000 		.4byte	.LLST61
 8639 2de3 39       		.uleb128 0x39
 8640 2de4 F7240000 		.4byte	0x24f7
 8641 2de8 4A090000 		.4byte	.LLST62
 8642 2dec 00       		.byte	0
 8643 2ded 32       		.uleb128 0x32
 8644 2dee EC000000 		.4byte	.LBB76
 8645 2df2 72000000 		.4byte	.LBE76-.LBB76
 8646 2df6 E42E0000 		.4byte	0x2ee4
 8647 2dfa 30       		.uleb128 0x30
 8648 2dfb F91F0000 		.4byte	.LASF661
 8649 2dff 01       		.byte	0x1
 8650 2e00 1F01     		.2byte	0x11f
 8651 2e02 CE000000 		.4byte	0xce
ARM GAS  C:\Users\haske\AppData\Local\Temp\ccIkbvey.s 			page 191


 8652 2e06 6B090000 		.4byte	.LLST63
 8653 2e0a 36       		.uleb128 0x36
 8654 2e0b 7000     		.ascii	"p\000"
 8655 2e0d 01       		.byte	0x1
 8656 2e0e 2101     		.2byte	0x121
 8657 2e10 3F300000 		.4byte	0x303f
 8658 2e14 03       		.uleb128 0x3
 8659 2e15 91       		.byte	0x91
 8660 2e16 8C7F     		.sleb128 -116
 8661 2e18 38       		.uleb128 0x38
 8662 2e19 CF240000 		.4byte	0x24cf
 8663 2e1d 1A010000 		.4byte	.LBB77
 8664 2e21 0A000000 		.4byte	.LBE77-.LBB77
 8665 2e25 01       		.byte	0x1
 8666 2e26 2301     		.2byte	0x123
 8667 2e28 462E0000 		.4byte	0x2e46
 8668 2e2c 39       		.uleb128 0x39
 8669 2e2d DF240000 		.4byte	0x24df
 8670 2e31 8B090000 		.4byte	.LLST64
 8671 2e35 3C       		.uleb128 0x3c
 8672 2e36 24010000 		.4byte	.LVL160
 8673 2e3a 883D0000 		.4byte	0x3d88
 8674 2e3e 3B       		.uleb128 0x3b
 8675 2e3f 01       		.uleb128 0x1
 8676 2e40 50       		.byte	0x50
 8677 2e41 02       		.uleb128 0x2
 8678 2e42 75       		.byte	0x75
 8679 2e43 00       		.sleb128 0
 8680 2e44 00       		.byte	0
 8681 2e45 00       		.byte	0
 8682 2e46 38       		.uleb128 0x38
 8683 2e47 CF240000 		.4byte	0x24cf
 8684 2e4b 44010000 		.4byte	.LBB79
 8685 2e4f 06000000 		.4byte	.LBE79-.LBB79
 8686 2e53 01       		.byte	0x1
 8687 2e54 2501     		.2byte	0x125
 8688 2e56 742E0000 		.4byte	0x2e74
 8689 2e5a 39       		.uleb128 0x39
 8690 2e5b DF240000 		.4byte	0x24df
 8691 2e5f AB090000 		.4byte	.LLST65
 8692 2e63 3C       		.uleb128 0x3c
 8693 2e64 4A010000 		.4byte	.LVL163
 8694 2e68 883D0000 		.4byte	0x3d88
 8695 2e6c 3B       		.uleb128 0x3b
 8696 2e6d 01       		.uleb128 0x1
 8697 2e6e 50       		.byte	0x50
 8698 2e6f 02       		.uleb128 0x2
 8699 2e70 75       		.byte	0x75
 8700 2e71 00       		.sleb128 0
 8701 2e72 00       		.byte	0
 8702 2e73 00       		.byte	0
 8703 2e74 3A       		.uleb128 0x3a
 8704 2e75 F4000000 		.4byte	.LVL155
 8705 2e79 75260000 		.4byte	0x2675
 8706 2e7d 902E0000 		.4byte	0x2e90
 8707 2e81 3B       		.uleb128 0x3b
 8708 2e82 01       		.uleb128 0x1
ARM GAS  C:\Users\haske\AppData\Local\Temp\ccIkbvey.s 			page 192


 8709 2e83 50       		.byte	0x50
 8710 2e84 04       		.uleb128 0x4
 8711 2e85 91       		.byte	0x91
 8712 2e86 F47E     		.sleb128 -140
 8713 2e88 06       		.byte	0x6
 8714 2e89 3B       		.uleb128 0x3b
 8715 2e8a 01       		.uleb128 0x1
 8716 2e8b 51       		.byte	0x51
 8717 2e8c 02       		.uleb128 0x2
 8718 2e8d 77       		.byte	0x77
 8719 2e8e 00       		.sleb128 0
 8720 2e8f 00       		.byte	0
 8721 2e90 3A       		.uleb128 0x3a
 8722 2e91 10010000 		.4byte	.LVL157
 8723 2e95 883D0000 		.4byte	0x3d88
 8724 2e99 A72E0000 		.4byte	0x2ea7
 8725 2e9d 3B       		.uleb128 0x3b
 8726 2e9e 01       		.uleb128 0x1
 8727 2e9f 50       		.byte	0x50
 8728 2ea0 05       		.uleb128 0x5
 8729 2ea1 91       		.byte	0x91
 8730 2ea2 F07E     		.sleb128 -144
 8731 2ea4 94       		.byte	0x94
 8732 2ea5 02       		.byte	0x2
 8733 2ea6 00       		.byte	0
 8734 2ea7 3A       		.uleb128 0x3a
 8735 2ea8 3C010000 		.4byte	.LVL161
 8736 2eac 883D0000 		.4byte	0x3d88
 8737 2eb0 BE2E0000 		.4byte	0x2ebe
 8738 2eb4 3B       		.uleb128 0x3b
 8739 2eb5 01       		.uleb128 0x1
 8740 2eb6 50       		.byte	0x50
 8741 2eb7 05       		.uleb128 0x5
 8742 2eb8 91       		.byte	0x91
 8743 2eb9 F07E     		.sleb128 -144
 8744 2ebb 94       		.byte	0x94
 8745 2ebc 02       		.byte	0x2
 8746 2ebd 00       		.byte	0
 8747 2ebe 3C       		.uleb128 0x3c
 8748 2ebf 5E010000 		.4byte	.LVL164
 8749 2ec3 AB3D0000 		.4byte	0x3dab
 8750 2ec7 3B       		.uleb128 0x3b
 8751 2ec8 01       		.uleb128 0x1
 8752 2ec9 50       		.byte	0x50
 8753 2eca 04       		.uleb128 0x4
 8754 2ecb 91       		.byte	0x91
 8755 2ecc F87E     		.sleb128 -136
 8756 2ece 06       		.byte	0x6
 8757 2ecf 3B       		.uleb128 0x3b
 8758 2ed0 01       		.uleb128 0x1
 8759 2ed1 51       		.byte	0x51
 8760 2ed2 02       		.uleb128 0x2
 8761 2ed3 91       		.byte	0x91
 8762 2ed4 4C       		.sleb128 -52
 8763 2ed5 3B       		.uleb128 0x3b
 8764 2ed6 01       		.uleb128 0x1
 8765 2ed7 52       		.byte	0x52
ARM GAS  C:\Users\haske\AppData\Local\Temp\ccIkbvey.s 			page 193


 8766 2ed8 02       		.uleb128 0x2
 8767 2ed9 76       		.byte	0x76
 8768 2eda 00       		.sleb128 0
 8769 2edb 3B       		.uleb128 0x3b
 8770 2edc 01       		.uleb128 0x1
 8771 2edd 53       		.byte	0x53
 8772 2ede 03       		.uleb128 0x3
 8773 2edf 91       		.byte	0x91
 8774 2ee0 907F     		.sleb128 -112
 8775 2ee2 00       		.byte	0
 8776 2ee3 00       		.byte	0
 8777 2ee4 3A       		.uleb128 0x3a
 8778 2ee5 14000000 		.4byte	.LVL125
 8779 2ee9 B63D0000 		.4byte	0x3db6
 8780 2eed F82E0000 		.4byte	0x2ef8
 8781 2ef1 3B       		.uleb128 0x3b
 8782 2ef2 01       		.uleb128 0x1
 8783 2ef3 50       		.byte	0x50
 8784 2ef4 02       		.uleb128 0x2
 8785 2ef5 74       		.byte	0x74
 8786 2ef6 00       		.sleb128 0
 8787 2ef7 00       		.byte	0
 8788 2ef8 3A       		.uleb128 0x3a
 8789 2ef9 1E000000 		.4byte	.LVL128
 8790 2efd C13D0000 		.4byte	0x3dc1
 8791 2f01 0C2F0000 		.4byte	0x2f0c
 8792 2f05 3B       		.uleb128 0x3b
 8793 2f06 01       		.uleb128 0x1
 8794 2f07 50       		.byte	0x50
 8795 2f08 02       		.uleb128 0x2
 8796 2f09 74       		.byte	0x74
 8797 2f0a 00       		.sleb128 0
 8798 2f0b 00       		.byte	0
 8799 2f0c 3A       		.uleb128 0x3a
 8800 2f0d 26000000 		.4byte	.LVL131
 8801 2f11 933D0000 		.4byte	0x3d93
 8802 2f15 202F0000 		.4byte	0x2f20
 8803 2f19 3B       		.uleb128 0x3b
 8804 2f1a 01       		.uleb128 0x1
 8805 2f1b 50       		.byte	0x50
 8806 2f1c 02       		.uleb128 0x2
 8807 2f1d 76       		.byte	0x76
 8808 2f1e 00       		.sleb128 0
 8809 2f1f 00       		.byte	0
 8810 2f20 3A       		.uleb128 0x3a
 8811 2f21 2E000000 		.4byte	.LVL133
 8812 2f25 CD3D0000 		.4byte	0x3dcd
 8813 2f29 342F0000 		.4byte	0x2f34
 8814 2f2d 3B       		.uleb128 0x3b
 8815 2f2e 01       		.uleb128 0x1
 8816 2f2f 50       		.byte	0x50
 8817 2f30 02       		.uleb128 0x2
 8818 2f31 76       		.byte	0x76
 8819 2f32 00       		.sleb128 0
 8820 2f33 00       		.byte	0
 8821 2f34 3A       		.uleb128 0x3a
 8822 2f35 58000000 		.4byte	.LVL138
ARM GAS  C:\Users\haske\AppData\Local\Temp\ccIkbvey.s 			page 194


 8823 2f39 D93D0000 		.4byte	0x3dd9
 8824 2f3d 482F0000 		.4byte	0x2f48
 8825 2f41 3B       		.uleb128 0x3b
 8826 2f42 01       		.uleb128 0x1
 8827 2f43 50       		.byte	0x50
 8828 2f44 02       		.uleb128 0x2
 8829 2f45 74       		.byte	0x74
 8830 2f46 00       		.sleb128 0
 8831 2f47 00       		.byte	0
 8832 2f48 3A       		.uleb128 0x3a
 8833 2f49 62000000 		.4byte	.LVL139
 8834 2f4d E43D0000 		.4byte	0x3de4
 8835 2f51 672F0000 		.4byte	0x2f67
 8836 2f55 3B       		.uleb128 0x3b
 8837 2f56 01       		.uleb128 0x1
 8838 2f57 50       		.byte	0x50
 8839 2f58 02       		.uleb128 0x2
 8840 2f59 76       		.byte	0x76
 8841 2f5a 00       		.sleb128 0
 8842 2f5b 3B       		.uleb128 0x3b
 8843 2f5c 01       		.uleb128 0x1
 8844 2f5d 51       		.byte	0x51
 8845 2f5e 01       		.uleb128 0x1
 8846 2f5f 30       		.byte	0x30
 8847 2f60 3B       		.uleb128 0x3b
 8848 2f61 01       		.uleb128 0x1
 8849 2f62 52       		.byte	0x52
 8850 2f63 02       		.uleb128 0x2
 8851 2f64 74       		.byte	0x74
 8852 2f65 00       		.sleb128 0
 8853 2f66 00       		.byte	0
 8854 2f67 3A       		.uleb128 0x3a
 8855 2f68 94000000 		.4byte	.LVL145
 8856 2f6c EF3D0000 		.4byte	0x3def
 8857 2f70 8E2F0000 		.4byte	0x2f8e
 8858 2f74 3B       		.uleb128 0x3b
 8859 2f75 01       		.uleb128 0x1
 8860 2f76 50       		.byte	0x50
 8861 2f77 03       		.uleb128 0x3
 8862 2f78 91       		.byte	0x91
 8863 2f79 B47F     		.sleb128 -76
 8864 2f7b 3B       		.uleb128 0x3b
 8865 2f7c 01       		.uleb128 0x1
 8866 2f7d 51       		.byte	0x51
 8867 2f7e 02       		.uleb128 0x2
 8868 2f7f 76       		.byte	0x76
 8869 2f80 14       		.sleb128 20
 8870 2f81 3B       		.uleb128 0x3b
 8871 2f82 01       		.uleb128 0x1
 8872 2f83 52       		.byte	0x52
 8873 2f84 03       		.uleb128 0x3
 8874 2f85 0A       		.byte	0xa
 8875 2f86 FF7F     		.2byte	0x7fff
 8876 2f88 3B       		.uleb128 0x3b
 8877 2f89 01       		.uleb128 0x1
 8878 2f8a 53       		.byte	0x53
 8879 2f8b 01       		.uleb128 0x1
ARM GAS  C:\Users\haske\AppData\Local\Temp\ccIkbvey.s 			page 195


 8880 2f8c 30       		.byte	0x30
 8881 2f8d 00       		.byte	0
 8882 2f8e 3A       		.uleb128 0x3a
 8883 2f8f 9C000000 		.4byte	.LVL146
 8884 2f93 FB3D0000 		.4byte	0x3dfb
 8885 2f97 A82F0000 		.4byte	0x2fa8
 8886 2f9b 3B       		.uleb128 0x3b
 8887 2f9c 01       		.uleb128 0x1
 8888 2f9d 50       		.byte	0x50
 8889 2f9e 03       		.uleb128 0x3
 8890 2f9f 91       		.byte	0x91
 8891 2fa0 B47F     		.sleb128 -76
 8892 2fa2 3B       		.uleb128 0x3b
 8893 2fa3 01       		.uleb128 0x1
 8894 2fa4 51       		.byte	0x51
 8895 2fa5 01       		.uleb128 0x1
 8896 2fa6 30       		.byte	0x30
 8897 2fa7 00       		.byte	0
 8898 2fa8 3A       		.uleb128 0x3a
 8899 2fa9 D2000000 		.4byte	.LVL150
 8900 2fad EF3D0000 		.4byte	0x3def
 8901 2fb1 D02F0000 		.4byte	0x2fd0
 8902 2fb5 3B       		.uleb128 0x3b
 8903 2fb6 01       		.uleb128 0x1
 8904 2fb7 50       		.byte	0x50
 8905 2fb8 03       		.uleb128 0x3
 8906 2fb9 91       		.byte	0x91
 8907 2fba 947F     		.sleb128 -108
 8908 2fbc 3B       		.uleb128 0x3b
 8909 2fbd 01       		.uleb128 0x1
 8910 2fbe 51       		.byte	0x51
 8911 2fbf 03       		.uleb128 0x3
 8912 2fc0 91       		.byte	0x91
 8913 2fc1 AC7F     		.sleb128 -84
 8914 2fc3 3B       		.uleb128 0x3b
 8915 2fc4 01       		.uleb128 0x1
 8916 2fc5 52       		.byte	0x52
 8917 2fc6 03       		.uleb128 0x3
 8918 2fc7 0A       		.byte	0xa
 8919 2fc8 FF7F     		.2byte	0x7fff
 8920 2fca 3B       		.uleb128 0x3b
 8921 2fcb 01       		.uleb128 0x1
 8922 2fcc 53       		.byte	0x53
 8923 2fcd 01       		.uleb128 0x1
 8924 2fce 31       		.byte	0x31
 8925 2fcf 00       		.byte	0
 8926 2fd0 3A       		.uleb128 0x3a
 8927 2fd1 DA000000 		.4byte	.LVL151
 8928 2fd5 FB3D0000 		.4byte	0x3dfb
 8929 2fd9 EA2F0000 		.4byte	0x2fea
 8930 2fdd 3B       		.uleb128 0x3b
 8931 2fde 01       		.uleb128 0x1
 8932 2fdf 50       		.byte	0x50
 8933 2fe0 03       		.uleb128 0x3
 8934 2fe1 91       		.byte	0x91
 8935 2fe2 947F     		.sleb128 -108
 8936 2fe4 3B       		.uleb128 0x3b
ARM GAS  C:\Users\haske\AppData\Local\Temp\ccIkbvey.s 			page 196


 8937 2fe5 01       		.uleb128 0x1
 8938 2fe6 51       		.byte	0x51
 8939 2fe7 01       		.uleb128 0x1
 8940 2fe8 30       		.byte	0x30
 8941 2fe9 00       		.byte	0
 8942 2fea 3A       		.uleb128 0x3a
 8943 2feb 78010000 		.4byte	.LVL167
 8944 2fef 063E0000 		.4byte	0x3e06
 8945 2ff3 FF2F0000 		.4byte	0x2fff
 8946 2ff7 3B       		.uleb128 0x3b
 8947 2ff8 01       		.uleb128 0x1
 8948 2ff9 50       		.byte	0x50
 8949 2ffa 03       		.uleb128 0x3
 8950 2ffb 91       		.byte	0x91
 8951 2ffc B47F     		.sleb128 -76
 8952 2ffe 00       		.byte	0
 8953 2fff 3A       		.uleb128 0x3a
 8954 3000 7E010000 		.4byte	.LVL168
 8955 3004 063E0000 		.4byte	0x3e06
 8956 3008 14300000 		.4byte	0x3014
 8957 300c 3B       		.uleb128 0x3b
 8958 300d 01       		.uleb128 0x1
 8959 300e 50       		.byte	0x50
 8960 300f 03       		.uleb128 0x3
 8961 3010 91       		.byte	0x91
 8962 3011 947F     		.sleb128 -108
 8963 3013 00       		.byte	0
 8964 3014 3A       		.uleb128 0x3a
 8965 3015 84010000 		.4byte	.LVL169
 8966 3019 123E0000 		.4byte	0x3e12
 8967 301d 2B300000 		.4byte	0x302b
 8968 3021 3B       		.uleb128 0x3b
 8969 3022 01       		.uleb128 0x1
 8970 3023 50       		.byte	0x50
 8971 3024 05       		.uleb128 0x5
 8972 3025 91       		.byte	0x91
 8973 3026 807F     		.sleb128 -128
 8974 3028 94       		.byte	0x94
 8975 3029 02       		.byte	0x2
 8976 302a 00       		.byte	0
 8977 302b 3C       		.uleb128 0x3c
 8978 302c 8A010000 		.4byte	.LVL170
 8979 3030 123E0000 		.4byte	0x3e12
 8980 3034 3B       		.uleb128 0x3b
 8981 3035 01       		.uleb128 0x1
 8982 3036 50       		.byte	0x50
 8983 3037 05       		.uleb128 0x5
 8984 3038 91       		.byte	0x91
 8985 3039 847F     		.sleb128 -124
 8986 303b 94       		.byte	0x94
 8987 303c 02       		.byte	0x2
 8988 303d 00       		.byte	0
 8989 303e 00       		.byte	0
 8990 303f 17       		.uleb128 0x17
 8991 3040 E2010000 		.4byte	0x1e2
 8992 3044 4F300000 		.4byte	0x304f
 8993 3048 18       		.uleb128 0x18
ARM GAS  C:\Users\haske\AppData\Local\Temp\ccIkbvey.s 			page 197


 8994 3049 AC010000 		.4byte	0x1ac
 8995 304d 01       		.byte	0x1
 8996 304e 00       		.byte	0
 8997 304f 49       		.uleb128 0x49
 8998 3050 891E0000 		.4byte	.LASF662
 8999 3054 01       		.byte	0x1
 9000 3055 E0       		.byte	0xe0
 9001 3056 00000000 		.4byte	.LFB211
 9002 305a 58000000 		.4byte	.LFE211-.LFB211
 9003 305e 01       		.uleb128 0x1
 9004 305f 9C       		.byte	0x9c
 9005 3060 D8300000 		.4byte	0x30d8
 9006 3064 4A       		.uleb128 0x4a
 9007 3065 671C0000 		.4byte	.LASF187
 9008 3069 01       		.byte	0x1
 9009 306a E0       		.byte	0xe0
 9010 306b 33220000 		.4byte	0x2233
 9011 306f C2090000 		.4byte	.LLST66
 9012 3073 45       		.uleb128 0x45
 9013 3074 6F626A00 		.ascii	"obj\000"
 9014 3078 01       		.byte	0x1
 9015 3079 E0       		.byte	0xe0
 9016 307a 76220000 		.4byte	0x2276
 9017 307e E3090000 		.4byte	.LLST67
 9018 3082 47       		.uleb128 0x47
 9019 3083 3A040000 		.4byte	.LASF641
 9020 3087 01       		.byte	0x1
 9021 3088 E3       		.byte	0xe3
 9022 3089 DD270000 		.4byte	0x27dd
 9023 308d 0F0A0000 		.4byte	.LLST68
 9024 3091 3A       		.uleb128 0x3a
 9025 3092 42000000 		.4byte	.LVL180
 9026 3096 1E3E0000 		.4byte	0x3e1e
 9027 309a AC300000 		.4byte	0x30ac
 9028 309e 3B       		.uleb128 0x3b
 9029 309f 01       		.uleb128 0x1
 9030 30a0 50       		.byte	0x50
 9031 30a1 02       		.uleb128 0x2
 9032 30a2 74       		.byte	0x74
 9033 30a3 00       		.sleb128 0
 9034 30a4 3B       		.uleb128 0x3b
 9035 30a5 01       		.uleb128 0x1
 9036 30a6 51       		.byte	0x51
 9037 30a7 03       		.uleb128 0x3
 9038 30a8 40       		.byte	0x40
 9039 30a9 3C       		.byte	0x3c
 9040 30aa 24       		.byte	0x24
 9041 30ab 00       		.byte	0
 9042 30ac 3A       		.uleb128 0x3a
 9043 30ad 4C000000 		.4byte	.LVL181
 9044 30b1 293E0000 		.4byte	0x3e29
 9045 30b5 C7300000 		.4byte	0x30c7
 9046 30b9 3B       		.uleb128 0x3b
 9047 30ba 01       		.uleb128 0x1
 9048 30bb 50       		.byte	0x50
 9049 30bc 02       		.uleb128 0x2
 9050 30bd 74       		.byte	0x74
ARM GAS  C:\Users\haske\AppData\Local\Temp\ccIkbvey.s 			page 198


 9051 30be 00       		.sleb128 0
 9052 30bf 3B       		.uleb128 0x3b
 9053 30c0 01       		.uleb128 0x1
 9054 30c1 51       		.byte	0x51
 9055 30c2 03       		.uleb128 0x3
 9056 30c3 0A       		.byte	0xa
 9057 30c4 0003     		.2byte	0x300
 9058 30c6 00       		.byte	0
 9059 30c7 3C       		.uleb128 0x3c
 9060 30c8 52000000 		.4byte	.LVL182
 9061 30cc BE2A0000 		.4byte	0x2abe
 9062 30d0 3B       		.uleb128 0x3b
 9063 30d1 01       		.uleb128 0x1
 9064 30d2 50       		.byte	0x50
 9065 30d3 02       		.uleb128 0x2
 9066 30d4 74       		.byte	0x74
 9067 30d5 00       		.sleb128 0
 9068 30d6 00       		.byte	0
 9069 30d7 00       		.byte	0
 9070 30d8 4B       		.uleb128 0x4b
 9071 30d9 AD290000 		.4byte	.LASF664
 9072 30dd 01       		.byte	0x1
 9073 30de 4D       		.byte	0x4d
 9074 30df 76220000 		.4byte	0x2276
 9075 30e3 00000000 		.4byte	.LFB202
 9076 30e7 20000000 		.4byte	.LFE202-.LFB202
 9077 30eb 01       		.uleb128 0x1
 9078 30ec 9C       		.byte	0x9c
 9079 30ed 4D310000 		.4byte	0x314d
 9080 30f1 4A       		.uleb128 0x4a
 9081 30f2 69260000 		.4byte	.LASF188
 9082 30f6 01       		.byte	0x1
 9083 30f7 4D       		.byte	0x4d
 9084 30f8 76220000 		.4byte	0x2276
 9085 30fc 3B0A0000 		.4byte	.LLST69
 9086 3100 4A       		.uleb128 0x4a
 9087 3101 C3040000 		.4byte	.LASF663
 9088 3105 01       		.byte	0x1
 9089 3106 4D       		.byte	0x4d
 9090 3107 63030000 		.4byte	0x363
 9091 310b 670A0000 		.4byte	.LLST70
 9092 310f 46       		.uleb128 0x46
 9093 3110 6F626A00 		.ascii	"obj\000"
 9094 3114 01       		.byte	0x1
 9095 3115 52       		.byte	0x52
 9096 3116 76220000 		.4byte	0x2276
 9097 311a 970A0000 		.4byte	.LLST71
 9098 311e 3A       		.uleb128 0x3a
 9099 311f 0E000000 		.4byte	.LVL187
 9100 3123 343E0000 		.4byte	0x3e34
 9101 3127 3C310000 		.4byte	0x313c
 9102 312b 3B       		.uleb128 0x3b
 9103 312c 01       		.uleb128 0x1
 9104 312d 50       		.byte	0x50
 9105 312e 05       		.uleb128 0x5
 9106 312f 03       		.byte	0x3
 9107 3130 00000000 		.4byte	.LANCHOR2
ARM GAS  C:\Users\haske\AppData\Local\Temp\ccIkbvey.s 			page 199


 9108 3134 3B       		.uleb128 0x3b
 9109 3135 01       		.uleb128 0x1
 9110 3136 51       		.byte	0x51
 9111 3137 03       		.uleb128 0x3
 9112 3138 F3       		.byte	0xf3
 9113 3139 01       		.uleb128 0x1
 9114 313a 50       		.byte	0x50
 9115 313b 00       		.byte	0
 9116 313c 3C       		.uleb128 0x3c
 9117 313d 14000000 		.4byte	.LVL189
 9118 3141 3F3E0000 		.4byte	0x3e3f
 9119 3145 3B       		.uleb128 0x3b
 9120 3146 01       		.uleb128 0x1
 9121 3147 50       		.byte	0x50
 9122 3148 02       		.uleb128 0x2
 9123 3149 74       		.byte	0x74
 9124 314a 00       		.sleb128 0
 9125 314b 00       		.byte	0
 9126 314c 00       		.byte	0
 9127 314d 4C       		.uleb128 0x4c
 9128 314e 1E2D0000 		.4byte	.LASF665
 9129 3152 01       		.byte	0x1
 9130 3153 61       		.byte	0x61
 9131 3154 63030000 		.4byte	0x363
 9132 3158 00000000 		.4byte	.LFB203
 9133 315c 66000000 		.4byte	.LFE203-.LFB203
 9134 3160 01       		.uleb128 0x1
 9135 3161 9C       		.byte	0x9c
 9136 3162 B7310000 		.4byte	0x31b7
 9137 3166 45       		.uleb128 0x45
 9138 3167 6F626A00 		.ascii	"obj\000"
 9139 316b 01       		.byte	0x1
 9140 316c 61       		.byte	0x61
 9141 316d 76220000 		.4byte	0x2276
 9142 3171 C00A0000 		.4byte	.LLST72
 9143 3175 4D       		.uleb128 0x4d
 9144 3176 68737600 		.ascii	"hsv\000"
 9145 317a 01       		.byte	0x1
 9146 317b 61       		.byte	0x61
 9147 317c A0040000 		.4byte	0x4a0
 9148 3180 02       		.uleb128 0x2
 9149 3181 91       		.byte	0x91
 9150 3182 74       		.sleb128 -12
 9151 3183 47       		.uleb128 0x47
 9152 3184 3A040000 		.4byte	.LASF641
 9153 3188 01       		.byte	0x1
 9154 3189 68       		.byte	0x68
 9155 318a DD270000 		.4byte	0x27dd
 9156 318e EC0A0000 		.4byte	.LLST73
 9157 3192 3A       		.uleb128 0x3a
 9158 3193 56000000 		.4byte	.LVL195
 9159 3197 BE2A0000 		.4byte	0x2abe
 9160 319b A6310000 		.4byte	0x31a6
 9161 319f 3B       		.uleb128 0x3b
 9162 31a0 01       		.uleb128 0x1
 9163 31a1 50       		.byte	0x50
 9164 31a2 02       		.uleb128 0x2
ARM GAS  C:\Users\haske\AppData\Local\Temp\ccIkbvey.s 			page 200


 9165 31a3 74       		.byte	0x74
 9166 31a4 00       		.sleb128 0
 9167 31a5 00       		.byte	0
 9168 31a6 3C       		.uleb128 0x3c
 9169 31a7 5C000000 		.4byte	.LVL196
 9170 31ab 9F3D0000 		.4byte	0x3d9f
 9171 31af 3B       		.uleb128 0x3b
 9172 31b0 01       		.uleb128 0x1
 9173 31b1 50       		.byte	0x50
 9174 31b2 02       		.uleb128 0x2
 9175 31b3 74       		.byte	0x74
 9176 31b4 00       		.sleb128 0
 9177 31b5 00       		.byte	0
 9178 31b6 00       		.byte	0
 9179 31b7 3D       		.uleb128 0x3d
 9180 31b8 CB210000 		.4byte	.LASF666
 9181 31bc 01       		.byte	0x1
 9182 31bd 3702     		.2byte	0x237
 9183 31bf 08010000 		.4byte	0x108
 9184 31c3 00000000 		.4byte	.LFB219
 9185 31c7 76000000 		.4byte	.LFE219-.LFB219
 9186 31cb 01       		.uleb128 0x1
 9187 31cc 9C       		.byte	0x9c
 9188 31cd 96320000 		.4byte	0x3296
 9189 31d1 2F       		.uleb128 0x2f
 9190 31d2 6F626A00 		.ascii	"obj\000"
 9191 31d6 01       		.byte	0x1
 9192 31d7 3702     		.2byte	0x237
 9193 31d9 76220000 		.4byte	0x2276
 9194 31dd 0D0B0000 		.4byte	.LLST74
 9195 31e1 30       		.uleb128 0x30
 9196 31e2 3A040000 		.4byte	.LASF641
 9197 31e6 01       		.byte	0x1
 9198 31e7 3902     		.2byte	0x239
 9199 31e9 DD270000 		.4byte	0x27dd
 9200 31ed 390B0000 		.4byte	.LLST75
 9201 31f1 30       		.uleb128 0x30
 9202 31f2 A9060000 		.4byte	.LASF667
 9203 31f6 01       		.byte	0x1
 9204 31f7 3A02     		.2byte	0x23a
 9205 31f9 96320000 		.4byte	0x3296
 9206 31fd 650B0000 		.4byte	.LLST76
 9207 3201 32       		.uleb128 0x32
 9208 3202 1A000000 		.4byte	.LBB81
 9209 3206 50000000 		.4byte	.LBE81-.LBB81
 9210 320a 7A320000 		.4byte	0x327a
 9211 320e 37       		.uleb128 0x37
 9212 320f 251D0000 		.4byte	.LASF668
 9213 3213 01       		.byte	0x1
 9214 3214 3D02     		.2byte	0x23d
 9215 3216 A0040000 		.4byte	0x4a0
 9216 321a 02       		.uleb128 0x2
 9217 321b 91       		.byte	0x91
 9218 321c 6C       		.sleb128 -20
 9219 321d 32       		.uleb128 0x32
 9220 321e 5C000000 		.4byte	.LBB82
 9221 3222 0E000000 		.4byte	.LBE82-.LBB82
ARM GAS  C:\Users\haske\AppData\Local\Temp\ccIkbvey.s 			page 201


 9222 3226 55320000 		.4byte	0x3255
 9223 322a 31       		.uleb128 0x31
 9224 322b 72657300 		.ascii	"res\000"
 9225 322f 01       		.byte	0x1
 9226 3230 4F02     		.2byte	0x24f
 9227 3232 08010000 		.4byte	0x108
 9228 3236 830B0000 		.4byte	.LLST77
 9229 323a 3C       		.uleb128 0x3c
 9230 323b 66000000 		.4byte	.LVL206
 9231 323f 4A3E0000 		.4byte	0x3e4a
 9232 3243 3B       		.uleb128 0x3b
 9233 3244 01       		.uleb128 0x1
 9234 3245 50       		.byte	0x50
 9235 3246 02       		.uleb128 0x2
 9236 3247 74       		.byte	0x74
 9237 3248 00       		.sleb128 0
 9238 3249 3B       		.uleb128 0x3b
 9239 324a 01       		.uleb128 0x1
 9240 324b 51       		.byte	0x51
 9241 324c 01       		.uleb128 0x1
 9242 324d 4C       		.byte	0x4c
 9243 324e 3B       		.uleb128 0x3b
 9244 324f 01       		.uleb128 0x1
 9245 3250 52       		.byte	0x52
 9246 3251 01       		.uleb128 0x1
 9247 3252 30       		.byte	0x30
 9248 3253 00       		.byte	0
 9249 3254 00       		.byte	0
 9250 3255 3A       		.uleb128 0x3a
 9251 3256 50000000 		.4byte	.LVL204
 9252 325a 553E0000 		.4byte	0x3e55
 9253 325e 69320000 		.4byte	0x3269
 9254 3262 3B       		.uleb128 0x3b
 9255 3263 01       		.uleb128 0x1
 9256 3264 50       		.byte	0x50
 9257 3265 02       		.uleb128 0x2
 9258 3266 75       		.byte	0x75
 9259 3267 00       		.sleb128 0
 9260 3268 00       		.byte	0
 9261 3269 3C       		.uleb128 0x3c
 9262 326a 58000000 		.4byte	.LVL205
 9263 326e 4D310000 		.4byte	0x314d
 9264 3272 3B       		.uleb128 0x3b
 9265 3273 01       		.uleb128 0x1
 9266 3274 50       		.byte	0x50
 9267 3275 02       		.uleb128 0x2
 9268 3276 74       		.byte	0x74
 9269 3277 00       		.sleb128 0
 9270 3278 00       		.byte	0
 9271 3279 00       		.byte	0
 9272 327a 42       		.uleb128 0x42
 9273 327b 0A000000 		.4byte	.LVL200
 9274 327f 603E0000 		.4byte	0x3e60
 9275 3283 42       		.uleb128 0x42
 9276 3284 12000000 		.4byte	.LVL203
 9277 3288 6B3E0000 		.4byte	0x3e6b
 9278 328c 42       		.uleb128 0x42
ARM GAS  C:\Users\haske\AppData\Local\Temp\ccIkbvey.s 			page 202


 9279 328d 6E000000 		.4byte	.LVL208
 9280 3291 763E0000 		.4byte	0x3e76
 9281 3295 00       		.byte	0
 9282 3296 07       		.uleb128 0x7
 9283 3297 04       		.byte	0x4
 9284 3298 B11B0000 		.4byte	0x1bb1
 9285 329c 4B       		.uleb128 0x4b
 9286 329d E82C0000 		.4byte	.LASF669
 9287 32a1 01       		.byte	0x1
 9288 32a2 7B       		.byte	0x7b
 9289 32a3 63030000 		.4byte	0x363
 9290 32a7 00000000 		.4byte	.LFB204
 9291 32ab 64000000 		.4byte	.LFE204-.LFB204
 9292 32af 01       		.uleb128 0x1
 9293 32b0 9C       		.byte	0x9c
 9294 32b1 24330000 		.4byte	0x3324
 9295 32b5 45       		.uleb128 0x45
 9296 32b6 6F626A00 		.ascii	"obj\000"
 9297 32ba 01       		.byte	0x1
 9298 32bb 7B       		.byte	0x7b
 9299 32bc 76220000 		.4byte	0x2276
 9300 32c0 960B0000 		.4byte	.LLST78
 9301 32c4 4A       		.uleb128 0x4a
 9302 32c5 A81F0000 		.4byte	.LASF77
 9303 32c9 01       		.byte	0x1
 9304 32ca 7B       		.byte	0x7b
 9305 32cb 6E040000 		.4byte	0x46e
 9306 32cf C20B0000 		.4byte	.LLST79
 9307 32d3 2A       		.uleb128 0x2a
 9308 32d4 63333200 		.ascii	"c32\000"
 9309 32d8 01       		.byte	0x1
 9310 32d9 7D       		.byte	0x7d
 9311 32da 63040000 		.4byte	0x463
 9312 32de 4E       		.uleb128 0x4e
 9313 32df 0E250000 		.4byte	0x250e
 9314 32e3 06000000 		.4byte	.LBB83
 9315 32e7 44000000 		.4byte	.LBE83-.LBB83
 9316 32eb 01       		.byte	0x1
 9317 32ec 7E       		.byte	0x7e
 9318 32ed 0A330000 		.4byte	0x330a
 9319 32f1 4F       		.uleb128 0x4f
 9320 32f2 1F250000 		.4byte	0x251f
 9321 32f6 33       		.uleb128 0x33
 9322 32f7 06000000 		.4byte	.LBB84
 9323 32fb 44000000 		.4byte	.LBE84-.LBB84
 9324 32ff 40       		.uleb128 0x40
 9325 3300 2B250000 		.4byte	0x252b
 9326 3304 D50B0000 		.4byte	.LLST80
 9327 3308 00       		.byte	0
 9328 3309 00       		.byte	0
 9329 330a 42       		.uleb128 0x42
 9330 330b 58000000 		.4byte	.LVL218
 9331 330f 813E0000 		.4byte	0x3e81
 9332 3313 3C       		.uleb128 0x3c
 9333 3314 60000000 		.4byte	.LVL219
 9334 3318 4D310000 		.4byte	0x314d
 9335 331c 3B       		.uleb128 0x3b
ARM GAS  C:\Users\haske\AppData\Local\Temp\ccIkbvey.s 			page 203


 9336 331d 01       		.uleb128 0x1
 9337 331e 50       		.byte	0x50
 9338 331f 02       		.uleb128 0x2
 9339 3320 74       		.byte	0x74
 9340 3321 00       		.sleb128 0
 9341 3322 00       		.byte	0
 9342 3323 00       		.byte	0
 9343 3324 50       		.uleb128 0x50
 9344 3325 EB140000 		.4byte	.LASF670
 9345 3329 01       		.byte	0x1
 9346 332a 88       		.byte	0x88
 9347 332b 00000000 		.4byte	.LFB205
 9348 332f 22000000 		.4byte	.LFE205-.LFB205
 9349 3333 01       		.uleb128 0x1
 9350 3334 9C       		.byte	0x9c
 9351 3335 8B330000 		.4byte	0x338b
 9352 3339 45       		.uleb128 0x45
 9353 333a 6F626A00 		.ascii	"obj\000"
 9354 333e 01       		.byte	0x1
 9355 333f 88       		.byte	0x88
 9356 3340 76220000 		.4byte	0x2276
 9357 3344 E80B0000 		.4byte	.LLST81
 9358 3348 4A       		.uleb128 0x4a
 9359 3349 56090000 		.4byte	.LASF620
 9360 334d 01       		.byte	0x1
 9361 334e 88       		.byte	0x88
 9362 334f F7220000 		.4byte	0x22f7
 9363 3353 140C0000 		.4byte	.LLST82
 9364 3357 47       		.uleb128 0x47
 9365 3358 3A040000 		.4byte	.LASF641
 9366 335c 01       		.byte	0x1
 9367 335d 8B       		.byte	0x8b
 9368 335e DD270000 		.4byte	0x27dd
 9369 3362 350C0000 		.4byte	.LLST83
 9370 3366 3A       		.uleb128 0x3a
 9371 3367 1A000000 		.4byte	.LVL225
 9372 336b BE2A0000 		.4byte	0x2abe
 9373 336f 7A330000 		.4byte	0x337a
 9374 3373 3B       		.uleb128 0x3b
 9375 3374 01       		.uleb128 0x1
 9376 3375 50       		.byte	0x50
 9377 3376 02       		.uleb128 0x2
 9378 3377 74       		.byte	0x74
 9379 3378 00       		.sleb128 0
 9380 3379 00       		.byte	0
 9381 337a 3C       		.uleb128 0x3c
 9382 337b 20000000 		.4byte	.LVL226
 9383 337f 9F3D0000 		.4byte	0x3d9f
 9384 3383 3B       		.uleb128 0x3b
 9385 3384 01       		.uleb128 0x1
 9386 3385 50       		.byte	0x50
 9387 3386 02       		.uleb128 0x2
 9388 3387 74       		.byte	0x74
 9389 3388 00       		.sleb128 0
 9390 3389 00       		.byte	0
 9391 338a 00       		.byte	0
 9392 338b 50       		.uleb128 0x50
ARM GAS  C:\Users\haske\AppData\Local\Temp\ccIkbvey.s 			page 204


 9393 338c 970C0000 		.4byte	.LASF671
 9394 3390 01       		.byte	0x1
 9395 3391 97       		.byte	0x97
 9396 3392 00000000 		.4byte	.LFB206
 9397 3396 16000000 		.4byte	.LFE206-.LFB206
 9398 339a 01       		.uleb128 0x1
 9399 339b 9C       		.byte	0x9c
 9400 339c CA330000 		.4byte	0x33ca
 9401 33a0 4D       		.uleb128 0x4d
 9402 33a1 6F626A00 		.ascii	"obj\000"
 9403 33a5 01       		.byte	0x1
 9404 33a6 97       		.byte	0x97
 9405 33a7 76220000 		.4byte	0x2276
 9406 33ab 01       		.uleb128 0x1
 9407 33ac 50       		.byte	0x50
 9408 33ad 4A       		.uleb128 0x4a
 9409 33ae 8B210000 		.4byte	.LASF672
 9410 33b2 01       		.byte	0x1
 9411 33b3 97       		.byte	0x97
 9412 33b4 63030000 		.4byte	0x363
 9413 33b8 610C0000 		.4byte	.LLST84
 9414 33bc 48       		.uleb128 0x48
 9415 33bd 3A040000 		.4byte	.LASF641
 9416 33c1 01       		.byte	0x1
 9417 33c2 9A       		.byte	0x9a
 9418 33c3 DD270000 		.4byte	0x27dd
 9419 33c7 01       		.uleb128 0x1
 9420 33c8 50       		.byte	0x50
 9421 33c9 00       		.byte	0
 9422 33ca 4B       		.uleb128 0x4b
 9423 33cb D61D0000 		.4byte	.LASF673
 9424 33cf 01       		.byte	0x1
 9425 33d0 A9       		.byte	0xa9
 9426 33d1 A0040000 		.4byte	0x4a0
 9427 33d5 00000000 		.4byte	.LFB207
 9428 33d9 12000000 		.4byte	.LFE207-.LFB207
 9429 33dd 01       		.uleb128 0x1
 9430 33de 9C       		.byte	0x9c
 9431 33df 02340000 		.4byte	0x3402
 9432 33e3 45       		.uleb128 0x45
 9433 33e4 6F626A00 		.ascii	"obj\000"
 9434 33e8 01       		.byte	0x1
 9435 33e9 A9       		.byte	0xa9
 9436 33ea 76220000 		.4byte	0x2276
 9437 33ee 820C0000 		.4byte	.LLST85
 9438 33f2 47       		.uleb128 0x47
 9439 33f3 3A040000 		.4byte	.LASF641
 9440 33f7 01       		.byte	0x1
 9441 33f8 AC       		.byte	0xac
 9442 33f9 DD270000 		.4byte	0x27dd
 9443 33fd A30C0000 		.4byte	.LLST86
 9444 3401 00       		.byte	0
 9445 3402 4B       		.uleb128 0x4b
 9446 3403 31120000 		.4byte	.LASF674
 9447 3407 01       		.byte	0x1
 9448 3408 B6       		.byte	0xb6
 9449 3409 6E040000 		.4byte	0x46e
ARM GAS  C:\Users\haske\AppData\Local\Temp\ccIkbvey.s 			page 205


 9450 340d 00000000 		.4byte	.LFB208
 9451 3411 12000000 		.4byte	.LFE208-.LFB208
 9452 3415 01       		.uleb128 0x1
 9453 3416 9C       		.byte	0x9c
 9454 3417 43340000 		.4byte	0x3443
 9455 341b 45       		.uleb128 0x45
 9456 341c 6F626A00 		.ascii	"obj\000"
 9457 3420 01       		.byte	0x1
 9458 3421 B6       		.byte	0xb6
 9459 3422 76220000 		.4byte	0x2276
 9460 3426 C40C0000 		.4byte	.LLST87
 9461 342a 47       		.uleb128 0x47
 9462 342b 3A040000 		.4byte	.LASF641
 9463 342f 01       		.byte	0x1
 9464 3430 B9       		.byte	0xb9
 9465 3431 DD270000 		.4byte	0x27dd
 9466 3435 E50C0000 		.4byte	.LLST88
 9467 3439 42       		.uleb128 0x42
 9468 343a 10000000 		.4byte	.LVL237
 9469 343e 8D3E0000 		.4byte	0x3e8d
 9470 3442 00       		.byte	0
 9471 3443 2E       		.uleb128 0x2e
 9472 3444 941C0000 		.4byte	.LASF675
 9473 3448 01       		.byte	0x1
 9474 3449 3201     		.2byte	0x132
 9475 344b 00000000 		.4byte	.LFB213
 9476 344f 58000000 		.4byte	.LFE213-.LFB213
 9477 3453 01       		.uleb128 0x1
 9478 3454 9C       		.byte	0x9c
 9479 3455 5F350000 		.4byte	0x355f
 9480 3459 2F       		.uleb128 0x2f
 9481 345a 6500     		.ascii	"e\000"
 9482 345c 01       		.byte	0x1
 9483 345d 3201     		.2byte	0x132
 9484 345f 65200000 		.4byte	0x2065
 9485 3463 060D0000 		.4byte	.LLST89
 9486 3467 31       		.uleb128 0x31
 9487 3468 6F626A00 		.ascii	"obj\000"
 9488 346c 01       		.byte	0x1
 9489 346d 3401     		.2byte	0x134
 9490 346f 76220000 		.4byte	0x2276
 9491 3473 320D0000 		.4byte	.LLST90
 9492 3477 30       		.uleb128 0x30
 9493 3478 CB2A0000 		.4byte	.LASF345
 9494 347c 01       		.byte	0x1
 9495 347d 3501     		.2byte	0x135
 9496 347f C0150000 		.4byte	0x15c0
 9497 3483 500D0000 		.4byte	.LLST91
 9498 3487 30       		.uleb128 0x30
 9499 3488 3A040000 		.4byte	.LASF641
 9500 348c 01       		.byte	0x1
 9501 348d 3601     		.2byte	0x136
 9502 348f DD270000 		.4byte	0x27dd
 9503 3493 6E0D0000 		.4byte	.LLST92
 9504 3497 37       		.uleb128 0x37
 9505 3498 C41D0000 		.4byte	.LASF676
 9506 349c 01       		.byte	0x1
ARM GAS  C:\Users\haske\AppData\Local\Temp\ccIkbvey.s 			page 206


 9507 349d 3801     		.2byte	0x138
 9508 349f D80A0000 		.4byte	0xad8
 9509 34a3 03       		.uleb128 0x3
 9510 34a4 91       		.byte	0x91
 9511 34a5 B87F     		.sleb128 -72
 9512 34a7 37       		.uleb128 0x37
 9513 34a8 F71B0000 		.4byte	.LASF646
 9514 34ac 01       		.byte	0x1
 9515 34ad 4201     		.2byte	0x142
 9516 34af 22020000 		.4byte	0x222
 9517 34b3 03       		.uleb128 0x3
 9518 34b4 91       		.byte	0x91
 9519 34b5 B07F     		.sleb128 -80
 9520 34b7 3A       		.uleb128 0x3a
 9521 34b8 0A000000 		.4byte	.LVL239
 9522 34bc B63D0000 		.4byte	0x3db6
 9523 34c0 CB340000 		.4byte	0x34cb
 9524 34c4 3B       		.uleb128 0x3b
 9525 34c5 01       		.uleb128 0x1
 9526 34c6 50       		.byte	0x50
 9527 34c7 02       		.uleb128 0x2
 9528 34c8 75       		.byte	0x75
 9529 34c9 00       		.sleb128 0
 9530 34ca 00       		.byte	0
 9531 34cb 3A       		.uleb128 0x3a
 9532 34cc 12000000 		.4byte	.LVL242
 9533 34d0 C13D0000 		.4byte	0x3dc1
 9534 34d4 DF340000 		.4byte	0x34df
 9535 34d8 3B       		.uleb128 0x3b
 9536 34d9 01       		.uleb128 0x1
 9537 34da 50       		.byte	0x50
 9538 34db 02       		.uleb128 0x2
 9539 34dc 75       		.byte	0x75
 9540 34dd 00       		.sleb128 0
 9541 34de 00       		.byte	0
 9542 34df 3A       		.uleb128 0x3a
 9543 34e0 1C000000 		.4byte	.LVL246
 9544 34e4 993E0000 		.4byte	0x3e99
 9545 34e8 F3340000 		.4byte	0x34f3
 9546 34ec 3B       		.uleb128 0x3b
 9547 34ed 01       		.uleb128 0x1
 9548 34ee 50       		.byte	0x50
 9549 34ef 02       		.uleb128 0x2
 9550 34f0 75       		.byte	0x75
 9551 34f1 00       		.sleb128 0
 9552 34f2 00       		.byte	0
 9553 34f3 3A       		.uleb128 0x3a
 9554 34f4 28000000 		.4byte	.LVL247
 9555 34f8 A43E0000 		.4byte	0x3ea4
 9556 34fc 14350000 		.4byte	0x3514
 9557 3500 3B       		.uleb128 0x3b
 9558 3501 01       		.uleb128 0x1
 9559 3502 50       		.byte	0x50
 9560 3503 02       		.uleb128 0x2
 9561 3504 74       		.byte	0x74
 9562 3505 00       		.sleb128 0
 9563 3506 3B       		.uleb128 0x3b
ARM GAS  C:\Users\haske\AppData\Local\Temp\ccIkbvey.s 			page 207


 9564 3507 01       		.uleb128 0x1
 9565 3508 51       		.byte	0x51
 9566 3509 03       		.uleb128 0x3
 9567 350a 48       		.byte	0x48
 9568 350b 3D       		.byte	0x3d
 9569 350c 24       		.byte	0x24
 9570 350d 3B       		.uleb128 0x3b
 9571 350e 01       		.uleb128 0x1
 9572 350f 52       		.byte	0x52
 9573 3510 02       		.uleb128 0x2
 9574 3511 75       		.byte	0x75
 9575 3512 00       		.sleb128 0
 9576 3513 00       		.byte	0
 9577 3514 3A       		.uleb128 0x3a
 9578 3515 3A000000 		.4byte	.LVL248
 9579 3519 02340000 		.4byte	0x3402
 9580 351d 28350000 		.4byte	0x3528
 9581 3521 3B       		.uleb128 0x3b
 9582 3522 01       		.uleb128 0x1
 9583 3523 50       		.byte	0x50
 9584 3524 02       		.uleb128 0x2
 9585 3525 74       		.byte	0x74
 9586 3526 00       		.sleb128 0
 9587 3527 00       		.byte	0
 9588 3528 3A       		.uleb128 0x3a
 9589 3529 46000000 		.4byte	.LVL249
 9590 352d 2E280000 		.4byte	0x282e
 9591 3531 42350000 		.4byte	0x3542
 9592 3535 3B       		.uleb128 0x3b
 9593 3536 01       		.uleb128 0x1
 9594 3537 50       		.byte	0x50
 9595 3538 02       		.uleb128 0x2
 9596 3539 7D       		.byte	0x7d
 9597 353a 00       		.sleb128 0
 9598 353b 3B       		.uleb128 0x3b
 9599 353c 01       		.uleb128 0x1
 9600 353d 51       		.byte	0x51
 9601 353e 02       		.uleb128 0x2
 9602 353f 74       		.byte	0x74
 9603 3540 00       		.sleb128 0
 9604 3541 00       		.byte	0
 9605 3542 3C       		.uleb128 0x3c
 9606 3543 50000000 		.4byte	.LVL250
 9607 3547 AF3E0000 		.4byte	0x3eaf
 9608 354b 3B       		.uleb128 0x3b
 9609 354c 01       		.uleb128 0x1
 9610 354d 50       		.byte	0x50
 9611 354e 02       		.uleb128 0x2
 9612 354f 76       		.byte	0x76
 9613 3550 00       		.sleb128 0
 9614 3551 3B       		.uleb128 0x3b
 9615 3552 01       		.uleb128 0x1
 9616 3553 51       		.byte	0x51
 9617 3554 02       		.uleb128 0x2
 9618 3555 75       		.byte	0x75
 9619 3556 00       		.sleb128 0
 9620 3557 3B       		.uleb128 0x3b
ARM GAS  C:\Users\haske\AppData\Local\Temp\ccIkbvey.s 			page 208


 9621 3558 01       		.uleb128 0x1
 9622 3559 52       		.byte	0x52
 9623 355a 02       		.uleb128 0x2
 9624 355b 7D       		.byte	0x7d
 9625 355c 00       		.sleb128 0
 9626 355d 00       		.byte	0
 9627 355e 00       		.byte	0
 9628 355f 43       		.uleb128 0x43
 9629 3560 4B230000 		.4byte	.LASF677
 9630 3564 01       		.byte	0x1
 9631 3565 6401     		.2byte	0x164
 9632 3567 00000000 		.4byte	.LFB216
 9633 356b 04040000 		.4byte	.LFE216-.LFB216
 9634 356f 01       		.uleb128 0x1
 9635 3570 9C       		.byte	0x9c
 9636 3571 183C0000 		.4byte	0x3c18
 9637 3575 35       		.uleb128 0x35
 9638 3576 671C0000 		.4byte	.LASF187
 9639 357a 01       		.byte	0x1
 9640 357b 6401     		.2byte	0x164
 9641 357d 33220000 		.4byte	0x2233
 9642 3581 810D0000 		.4byte	.LLST93
 9643 3585 2F       		.uleb128 0x2f
 9644 3586 6500     		.ascii	"e\000"
 9645 3588 01       		.byte	0x1
 9646 3589 6401     		.2byte	0x164
 9647 358b 65200000 		.4byte	0x2065
 9648 358f A20D0000 		.4byte	.LLST94
 9649 3593 31       		.uleb128 0x31
 9650 3594 72657300 		.ascii	"res\000"
 9651 3598 01       		.byte	0x1
 9652 3599 6901     		.2byte	0x169
 9653 359b 08010000 		.4byte	0x108
 9654 359f 320E0000 		.4byte	.LLST95
 9655 35a3 30       		.uleb128 0x30
 9656 35a4 84100000 		.4byte	.LASF513
 9657 35a8 01       		.byte	0x1
 9658 35a9 6D01     		.2byte	0x16d
 9659 35ab 4F200000 		.4byte	0x204f
 9660 35af 660E0000 		.4byte	.LLST96
 9661 35b3 31       		.uleb128 0x31
 9662 35b4 6F626A00 		.ascii	"obj\000"
 9663 35b8 01       		.byte	0x1
 9664 35b9 6E01     		.2byte	0x16e
 9665 35bb 76220000 		.4byte	0x2276
 9666 35bf 9A0E0000 		.4byte	.LLST97
 9667 35c3 30       		.uleb128 0x30
 9668 35c4 3A040000 		.4byte	.LASF641
 9669 35c8 01       		.byte	0x1
 9670 35c9 6F01     		.2byte	0x16f
 9671 35cb DD270000 		.4byte	0x27dd
 9672 35cf 9A0E0000 		.4byte	.LLST97
 9673 35d3 32       		.uleb128 0x32
 9674 35d4 2A000000 		.4byte	.LBB85
 9675 35d8 6C000000 		.4byte	.LBE85-.LBB85
 9676 35dc 87370000 		.4byte	0x3787
 9677 35e0 3E       		.uleb128 0x3e
ARM GAS  C:\Users\haske\AppData\Local\Temp\ccIkbvey.s 			page 209


 9678 35e1 5A250000 		.4byte	.LASF643
 9679 35e5 01       		.byte	0x1
 9680 35e6 7201     		.2byte	0x172
 9681 35e8 BA010000 		.4byte	0x1ba
 9682 35ec 3E       		.uleb128 0x3e
 9683 35ed EB240000 		.4byte	.LASF644
 9684 35f1 01       		.byte	0x1
 9685 35f2 7301     		.2byte	0x173
 9686 35f4 BA010000 		.4byte	0x1ba
 9687 35f8 2C       		.uleb128 0x2c
 9688 35f9 746F7000 		.ascii	"top\000"
 9689 35fd 01       		.byte	0x1
 9690 35fe 7401     		.2byte	0x174
 9691 3600 BA010000 		.4byte	0x1ba
 9692 3604 3E       		.uleb128 0x3e
 9693 3605 57040000 		.4byte	.LASF645
 9694 3609 01       		.byte	0x1
 9695 360a 7501     		.2byte	0x175
 9696 360c BA010000 		.4byte	0x1ba
 9697 3610 30       		.uleb128 0x30
 9698 3611 D61C0000 		.4byte	.LASF678
 9699 3615 01       		.byte	0x1
 9700 3616 7701     		.2byte	0x177
 9701 3618 BA010000 		.4byte	0x1ba
 9702 361c 680F0000 		.4byte	.LLST99
 9703 3620 31       		.uleb128 0x31
 9704 3621 7300     		.ascii	"s\000"
 9705 3623 01       		.byte	0x1
 9706 3624 7801     		.2byte	0x178
 9707 3626 7C220000 		.4byte	0x227c
 9708 362a 7B0F0000 		.4byte	.LLST100
 9709 362e 38       		.uleb128 0x38
 9710 362f 6B240000 		.4byte	0x246b
 9711 3633 2A000000 		.4byte	.LBB86
 9712 3637 0C000000 		.4byte	.LBE86-.LBB86
 9713 363b 01       		.byte	0x1
 9714 363c 7201     		.2byte	0x172
 9715 363e 80360000 		.4byte	0x3680
 9716 3642 39       		.uleb128 0x39
 9717 3643 86240000 		.4byte	0x2486
 9718 3647 8E0F0000 		.4byte	.LLST101
 9719 364b 39       		.uleb128 0x39
 9720 364c 7B240000 		.4byte	0x247b
 9721 3650 A40F0000 		.4byte	.LLST102
 9722 3654 33       		.uleb128 0x33
 9723 3655 2A000000 		.4byte	.LBB87
 9724 3659 0C000000 		.4byte	.LBE87-.LBB87
 9725 365d 3F       		.uleb128 0x3f
 9726 365e 91240000 		.4byte	0x2491
 9727 3662 3C       		.uleb128 0x3c
 9728 3663 34000000 		.4byte	.LVL263
 9729 3667 713D0000 		.4byte	0x3d71
 9730 366b 3B       		.uleb128 0x3b
 9731 366c 01       		.uleb128 0x1
 9732 366d 50       		.byte	0x50
 9733 366e 02       		.uleb128 0x2
 9734 366f 76       		.byte	0x76
ARM GAS  C:\Users\haske\AppData\Local\Temp\ccIkbvey.s 			page 210


 9735 3670 00       		.sleb128 0
 9736 3671 3B       		.uleb128 0x3b
 9737 3672 01       		.uleb128 0x1
 9738 3673 51       		.byte	0x51
 9739 3674 03       		.uleb128 0x3
 9740 3675 48       		.byte	0x48
 9741 3676 3D       		.byte	0x3d
 9742 3677 24       		.byte	0x24
 9743 3678 3B       		.uleb128 0x3b
 9744 3679 01       		.uleb128 0x1
 9745 367a 52       		.byte	0x52
 9746 367b 01       		.uleb128 0x1
 9747 367c 42       		.byte	0x42
 9748 367d 00       		.byte	0
 9749 367e 00       		.byte	0
 9750 367f 00       		.byte	0
 9751 3680 38       		.uleb128 0x38
 9752 3681 3B240000 		.4byte	0x243b
 9753 3685 36000000 		.4byte	.LBB88
 9754 3689 0E000000 		.4byte	.LBE88-.LBB88
 9755 368d 01       		.byte	0x1
 9756 368e 7301     		.2byte	0x173
 9757 3690 D2360000 		.4byte	0x36d2
 9758 3694 39       		.uleb128 0x39
 9759 3695 56240000 		.4byte	0x2456
 9760 3699 C20F0000 		.4byte	.LLST103
 9761 369d 39       		.uleb128 0x39
 9762 369e 4B240000 		.4byte	0x244b
 9763 36a2 D80F0000 		.4byte	.LLST104
 9764 36a6 33       		.uleb128 0x33
 9765 36a7 36000000 		.4byte	.LBB89
 9766 36ab 0E000000 		.4byte	.LBE89-.LBB89
 9767 36af 3F       		.uleb128 0x3f
 9768 36b0 61240000 		.4byte	0x2461
 9769 36b4 3C       		.uleb128 0x3c
 9770 36b5 42000000 		.4byte	.LVL265
 9771 36b9 713D0000 		.4byte	0x3d71
 9772 36bd 3B       		.uleb128 0x3b
 9773 36be 01       		.uleb128 0x1
 9774 36bf 50       		.byte	0x50
 9775 36c0 02       		.uleb128 0x2
 9776 36c1 76       		.byte	0x76
 9777 36c2 00       		.sleb128 0
 9778 36c3 3B       		.uleb128 0x3b
 9779 36c4 01       		.uleb128 0x1
 9780 36c5 51       		.byte	0x51
 9781 36c6 03       		.uleb128 0x3
 9782 36c7 48       		.byte	0x48
 9783 36c8 3D       		.byte	0x3d
 9784 36c9 24       		.byte	0x24
 9785 36ca 3B       		.uleb128 0x3b
 9786 36cb 01       		.uleb128 0x1
 9787 36cc 52       		.byte	0x52
 9788 36cd 01       		.uleb128 0x1
 9789 36ce 43       		.byte	0x43
 9790 36cf 00       		.byte	0
 9791 36d0 00       		.byte	0
ARM GAS  C:\Users\haske\AppData\Local\Temp\ccIkbvey.s 			page 211


 9792 36d1 00       		.byte	0
 9793 36d2 38       		.uleb128 0x38
 9794 36d3 0B240000 		.4byte	0x240b
 9795 36d7 44000000 		.4byte	.LBB90
 9796 36db 10000000 		.4byte	.LBE90-.LBB90
 9797 36df 01       		.byte	0x1
 9798 36e0 7401     		.2byte	0x174
 9799 36e2 24370000 		.4byte	0x3724
 9800 36e6 39       		.uleb128 0x39
 9801 36e7 26240000 		.4byte	0x2426
 9802 36eb EB0F0000 		.4byte	.LLST105
 9803 36ef 39       		.uleb128 0x39
 9804 36f0 1B240000 		.4byte	0x241b
 9805 36f4 01100000 		.4byte	.LLST106
 9806 36f8 33       		.uleb128 0x33
 9807 36f9 44000000 		.4byte	.LBB91
 9808 36fd 10000000 		.4byte	.LBE91-.LBB91
 9809 3701 3F       		.uleb128 0x3f
 9810 3702 31240000 		.4byte	0x2431
 9811 3706 3C       		.uleb128 0x3c
 9812 3707 50000000 		.4byte	.LVL267
 9813 370b 713D0000 		.4byte	0x3d71
 9814 370f 3B       		.uleb128 0x3b
 9815 3710 01       		.uleb128 0x1
 9816 3711 50       		.byte	0x50
 9817 3712 02       		.uleb128 0x2
 9818 3713 76       		.byte	0x76
 9819 3714 00       		.sleb128 0
 9820 3715 3B       		.uleb128 0x3b
 9821 3716 01       		.uleb128 0x1
 9822 3717 51       		.byte	0x51
 9823 3718 03       		.uleb128 0x3
 9824 3719 48       		.byte	0x48
 9825 371a 3D       		.byte	0x3d
 9826 371b 24       		.byte	0x24
 9827 371c 3B       		.uleb128 0x3b
 9828 371d 01       		.uleb128 0x1
 9829 371e 52       		.byte	0x52
 9830 371f 01       		.uleb128 0x1
 9831 3720 40       		.byte	0x40
 9832 3721 00       		.byte	0
 9833 3722 00       		.byte	0
 9834 3723 00       		.byte	0
 9835 3724 38       		.uleb128 0x38
 9836 3725 D0230000 		.4byte	0x23d0
 9837 3729 54000000 		.4byte	.LBB92
 9838 372d 0E000000 		.4byte	.LBE92-.LBB92
 9839 3731 01       		.byte	0x1
 9840 3732 7501     		.2byte	0x175
 9841 3734 76370000 		.4byte	0x3776
 9842 3738 39       		.uleb128 0x39
 9843 3739 EB230000 		.4byte	0x23eb
 9844 373d 14100000 		.4byte	.LLST107
 9845 3741 39       		.uleb128 0x39
 9846 3742 E0230000 		.4byte	0x23e0
 9847 3746 2A100000 		.4byte	.LLST108
 9848 374a 33       		.uleb128 0x33
ARM GAS  C:\Users\haske\AppData\Local\Temp\ccIkbvey.s 			page 212


 9849 374b 54000000 		.4byte	.LBB93
 9850 374f 0E000000 		.4byte	.LBE93-.LBB93
 9851 3753 3F       		.uleb128 0x3f
 9852 3754 F6230000 		.4byte	0x23f6
 9853 3758 3C       		.uleb128 0x3c
 9854 3759 60000000 		.4byte	.LVL269
 9855 375d 713D0000 		.4byte	0x3d71
 9856 3761 3B       		.uleb128 0x3b
 9857 3762 01       		.uleb128 0x1
 9858 3763 50       		.byte	0x50
 9859 3764 02       		.uleb128 0x2
 9860 3765 76       		.byte	0x76
 9861 3766 00       		.sleb128 0
 9862 3767 3B       		.uleb128 0x3b
 9863 3768 01       		.uleb128 0x1
 9864 3769 51       		.byte	0x51
 9865 376a 03       		.uleb128 0x3
 9866 376b 48       		.byte	0x48
 9867 376c 3D       		.byte	0x3d
 9868 376d 24       		.byte	0x24
 9869 376e 3B       		.uleb128 0x3b
 9870 376f 01       		.uleb128 0x1
 9871 3770 52       		.byte	0x52
 9872 3771 01       		.uleb128 0x1
 9873 3772 41       		.byte	0x41
 9874 3773 00       		.byte	0
 9875 3774 00       		.byte	0
 9876 3775 00       		.byte	0
 9877 3776 3C       		.uleb128 0x3c
 9878 3777 88000000 		.4byte	.LVL272
 9879 377b BA3E0000 		.4byte	0x3eba
 9880 377f 3B       		.uleb128 0x3b
 9881 3780 01       		.uleb128 0x1
 9882 3781 50       		.byte	0x50
 9883 3782 02       		.uleb128 0x2
 9884 3783 74       		.byte	0x74
 9885 3784 00       		.sleb128 0
 9886 3785 00       		.byte	0
 9887 3786 00       		.byte	0
 9888 3787 32       		.uleb128 0x32
 9889 3788 9C000000 		.4byte	.LBB94
 9890 378c 42000000 		.4byte	.LBE94-.LBB94
 9891 3790 2D380000 		.4byte	0x382d
 9892 3794 30       		.uleb128 0x30
 9893 3795 820F0000 		.4byte	.LASF514
 9894 3799 01       		.byte	0x1
 9895 379a 7C01     		.2byte	0x17c
 9896 379c 8D010000 		.4byte	0x18d
 9897 37a0 3D100000 		.4byte	.LLST109
 9898 37a4 38       		.uleb128 0x38
 9899 37a5 38250000 		.4byte	0x2538
 9900 37a9 AA000000 		.4byte	.LBB95
 9901 37ad 0E000000 		.4byte	.LBE95-.LBB95
 9902 37b1 01       		.byte	0x1
 9903 37b2 7E01     		.2byte	0x17e
 9904 37b4 C2370000 		.4byte	0x37c2
 9905 37b8 39       		.uleb128 0x39
ARM GAS  C:\Users\haske\AppData\Local\Temp\ccIkbvey.s 			page 213


 9906 37b9 48250000 		.4byte	0x2548
 9907 37bd 5B100000 		.4byte	.LLST110
 9908 37c1 00       		.byte	0
 9909 37c2 38       		.uleb128 0x38
 9910 37c3 54250000 		.4byte	0x2554
 9911 37c7 C2000000 		.4byte	.LBB97
 9912 37cb 0E000000 		.4byte	.LBE97-.LBB97
 9913 37cf 01       		.byte	0x1
 9914 37d0 7F01     		.2byte	0x17f
 9915 37d2 E0370000 		.4byte	0x37e0
 9916 37d6 39       		.uleb128 0x39
 9917 37d7 64250000 		.4byte	0x2564
 9918 37db 6E100000 		.4byte	.LLST111
 9919 37df 00       		.byte	0
 9920 37e0 3A       		.uleb128 0x3a
 9921 37e1 A2000000 		.4byte	.LVL275
 9922 37e5 BA3E0000 		.4byte	0x3eba
 9923 37e9 F4370000 		.4byte	0x37f4
 9924 37ed 3B       		.uleb128 0x3b
 9925 37ee 01       		.uleb128 0x1
 9926 37ef 50       		.byte	0x50
 9927 37f0 02       		.uleb128 0x2
 9928 37f1 74       		.byte	0x74
 9929 37f2 00       		.sleb128 0
 9930 37f3 00       		.byte	0
 9931 37f4 3A       		.uleb128 0x3a
 9932 37f5 AA000000 		.4byte	.LVL278
 9933 37f9 933D0000 		.4byte	0x3d93
 9934 37fd 08380000 		.4byte	0x3808
 9935 3801 3B       		.uleb128 0x3b
 9936 3802 01       		.uleb128 0x1
 9937 3803 50       		.byte	0x50
 9938 3804 02       		.uleb128 0x2
 9939 3805 76       		.byte	0x76
 9940 3806 00       		.sleb128 0
 9941 3807 00       		.byte	0
 9942 3808 3A       		.uleb128 0x3a
 9943 3809 C2000000 		.4byte	.LVL280
 9944 380d CD3D0000 		.4byte	0x3dcd
 9945 3811 1C380000 		.4byte	0x381c
 9946 3815 3B       		.uleb128 0x3b
 9947 3816 01       		.uleb128 0x1
 9948 3817 50       		.byte	0x50
 9949 3818 02       		.uleb128 0x2
 9950 3819 76       		.byte	0x76
 9951 381a 00       		.sleb128 0
 9952 381b 00       		.byte	0
 9953 381c 3C       		.uleb128 0x3c
 9954 381d DC000000 		.4byte	.LVL282
 9955 3821 BE2A0000 		.4byte	0x2abe
 9956 3825 3B       		.uleb128 0x3b
 9957 3826 01       		.uleb128 0x1
 9958 3827 50       		.byte	0x50
 9959 3828 02       		.uleb128 0x2
 9960 3829 76       		.byte	0x76
 9961 382a 00       		.sleb128 0
 9962 382b 00       		.byte	0
ARM GAS  C:\Users\haske\AppData\Local\Temp\ccIkbvey.s 			page 214


 9963 382c 00       		.byte	0
 9964 382d 32       		.uleb128 0x32
 9965 382e EC000000 		.4byte	.LBB99
 9966 3832 F6000000 		.4byte	.LBE99-.LBB99
 9967 3836 EF380000 		.4byte	0x38ef
 9968 383a 31       		.uleb128 0x31
 9969 383b 6300     		.ascii	"c\000"
 9970 383d 01       		.byte	0x1
 9971 383e 8801     		.2byte	0x188
 9972 3840 E4000000 		.4byte	0xe4
 9973 3844 81100000 		.4byte	.LLST112
 9974 3848 32       		.uleb128 0x32
 9975 3849 FC000000 		.4byte	.LBB100
 9976 384d 68000000 		.4byte	.LBE100-.LBB100
 9977 3851 93380000 		.4byte	0x3893
 9978 3855 37       		.uleb128 0x37
 9979 3856 251D0000 		.4byte	.LASF668
 9980 385a 01       		.byte	0x1
 9981 385b 8B01     		.2byte	0x18b
 9982 385d A0040000 		.4byte	0x4a0
 9983 3861 02       		.uleb128 0x2
 9984 3862 91       		.byte	0x91
 9985 3863 64       		.sleb128 -28
 9986 3864 3A       		.uleb128 0x3a
 9987 3865 52010000 		.4byte	.LVL294
 9988 3869 4D310000 		.4byte	0x314d
 9989 386d 78380000 		.4byte	0x3878
 9990 3871 3B       		.uleb128 0x3b
 9991 3872 01       		.uleb128 0x1
 9992 3873 50       		.byte	0x50
 9993 3874 02       		.uleb128 0x2
 9994 3875 76       		.byte	0x76
 9995 3876 00       		.sleb128 0
 9996 3877 00       		.byte	0
 9997 3878 3C       		.uleb128 0x3c
 9998 3879 62010000 		.4byte	.LVL295
 9999 387d 4A3E0000 		.4byte	0x3e4a
 10000 3881 3B       		.uleb128 0x3b
 10001 3882 01       		.uleb128 0x1
 10002 3883 50       		.byte	0x50
 10003 3884 02       		.uleb128 0x2
 10004 3885 76       		.byte	0x76
 10005 3886 00       		.sleb128 0
 10006 3887 3B       		.uleb128 0x3b
 10007 3888 01       		.uleb128 0x1
 10008 3889 51       		.byte	0x51
 10009 388a 01       		.uleb128 0x1
 10010 388b 4C       		.byte	0x4c
 10011 388c 3B       		.uleb128 0x3b
 10012 388d 01       		.uleb128 0x1
 10013 388e 52       		.byte	0x52
 10014 388f 01       		.uleb128 0x1
 10015 3890 30       		.byte	0x30
 10016 3891 00       		.byte	0
 10017 3892 00       		.byte	0
 10018 3893 32       		.uleb128 0x32
 10019 3894 6E010000 		.4byte	.LBB101
ARM GAS  C:\Users\haske\AppData\Local\Temp\ccIkbvey.s 			page 215


 10020 3898 74000000 		.4byte	.LBE101-.LBB101
 10021 389c DE380000 		.4byte	0x38de
 10022 38a0 37       		.uleb128 0x37
 10023 38a1 251D0000 		.4byte	.LASF668
 10024 38a5 01       		.byte	0x1
 10025 38a6 A001     		.2byte	0x1a0
 10026 38a8 A0040000 		.4byte	0x4a0
 10027 38ac 02       		.uleb128 0x2
 10028 38ad 91       		.byte	0x91
 10029 38ae 64       		.sleb128 -28
 10030 38af 3A       		.uleb128 0x3a
 10031 38b0 D0010000 		.4byte	.LVL299
 10032 38b4 4D310000 		.4byte	0x314d
 10033 38b8 C3380000 		.4byte	0x38c3
 10034 38bc 3B       		.uleb128 0x3b
 10035 38bd 01       		.uleb128 0x1
 10036 38be 50       		.byte	0x50
 10037 38bf 02       		.uleb128 0x2
 10038 38c0 76       		.byte	0x76
 10039 38c1 00       		.sleb128 0
 10040 38c2 00       		.byte	0
 10041 38c3 3C       		.uleb128 0x3c
 10042 38c4 E0010000 		.4byte	.LVL300
 10043 38c8 4A3E0000 		.4byte	0x3e4a
 10044 38cc 3B       		.uleb128 0x3b
 10045 38cd 01       		.uleb128 0x1
 10046 38ce 50       		.byte	0x50
 10047 38cf 02       		.uleb128 0x2
 10048 38d0 76       		.byte	0x76
 10049 38d1 00       		.sleb128 0
 10050 38d2 3B       		.uleb128 0x3b
 10051 38d3 01       		.uleb128 0x1
 10052 38d4 51       		.byte	0x51
 10053 38d5 01       		.uleb128 0x1
 10054 38d6 4C       		.byte	0x4c
 10055 38d7 3B       		.uleb128 0x3b
 10056 38d8 01       		.uleb128 0x1
 10057 38d9 52       		.byte	0x52
 10058 38da 01       		.uleb128 0x1
 10059 38db 30       		.byte	0x30
 10060 38dc 00       		.byte	0
 10061 38dd 00       		.byte	0
 10062 38de 3C       		.uleb128 0x3c
 10063 38df F2000000 		.4byte	.LVL287
 10064 38e3 BA3E0000 		.4byte	0x3eba
 10065 38e7 3B       		.uleb128 0x3b
 10066 38e8 01       		.uleb128 0x1
 10067 38e9 50       		.byte	0x50
 10068 38ea 02       		.uleb128 0x2
 10069 38eb 74       		.byte	0x74
 10070 38ec 00       		.sleb128 0
 10071 38ed 00       		.byte	0
 10072 38ee 00       		.byte	0
 10073 38ef 32       		.uleb128 0x32
 10074 38f0 06020000 		.4byte	.LBB102
 10075 38f4 B0010000 		.4byte	.LBE102-.LBB102
 10076 38f8 F43A0000 		.4byte	0x3af4
ARM GAS  C:\Users\haske\AppData\Local\Temp\ccIkbvey.s 			page 216


 10077 38fc 30       		.uleb128 0x30
 10078 38fd A9060000 		.4byte	.LASF667
 10079 3901 01       		.byte	0x1
 10080 3902 BC01     		.2byte	0x1bc
 10081 3904 96320000 		.4byte	0x3296
 10082 3908 B7100000 		.4byte	.LLST113
 10083 390c 30       		.uleb128 0x30
 10084 390d D0220000 		.4byte	.LASF679
 10085 3911 01       		.byte	0x1
 10086 3912 BF01     		.2byte	0x1bf
 10087 3914 D5170000 		.4byte	0x17d5
 10088 3918 D5100000 		.4byte	.LLST114
 10089 391c 36       		.uleb128 0x36
 10090 391d 7000     		.ascii	"p\000"
 10091 391f 01       		.byte	0x1
 10092 3920 C001     		.2byte	0x1c0
 10093 3922 E2010000 		.4byte	0x1e2
 10094 3926 02       		.uleb128 0x2
 10095 3927 91       		.byte	0x91
 10096 3928 60       		.sleb128 -32
 10097 3929 30       		.uleb128 0x30
 10098 392a 3D2D0000 		.4byte	.LASF680
 10099 392e 01       		.byte	0x1
 10100 392f C901     		.2byte	0x1c9
 10101 3931 BA010000 		.4byte	0x1ba
 10102 3935 F3100000 		.4byte	.LLST115
 10103 3939 31       		.uleb128 0x31
 10104 393a 7700     		.ascii	"w\000"
 10105 393c 01       		.byte	0x1
 10106 393d D501     		.2byte	0x1d5
 10107 393f CE000000 		.4byte	0xce
 10108 3943 10110000 		.4byte	.LLST116
 10109 3947 30       		.uleb128 0x30
 10110 3948 24020000 		.4byte	.LASF239
 10111 394c 01       		.byte	0x1
 10112 394d D701     		.2byte	0x1d7
 10113 394f C3000000 		.4byte	0xc3
 10114 3953 23110000 		.4byte	.LLST117
 10115 3957 3E       		.uleb128 0x3e
 10116 3958 F9040000 		.4byte	.LASF654
 10117 395c 01       		.byte	0x1
 10118 395d D801     		.2byte	0x1d8
 10119 395f BA010000 		.4byte	0x1ba
 10120 3963 30       		.uleb128 0x30
 10121 3964 0B1B0000 		.4byte	.LASF681
 10122 3968 01       		.byte	0x1
 10123 3969 DA01     		.2byte	0x1da
 10124 396b BA010000 		.4byte	0x1ba
 10125 396f 4D110000 		.4byte	.LLST118
 10126 3973 30       		.uleb128 0x30
 10127 3974 07230000 		.4byte	.LASF682
 10128 3978 01       		.byte	0x1
 10129 3979 DD01     		.2byte	0x1dd
 10130 397b 63030000 		.4byte	0x363
 10131 397f 81110000 		.4byte	.LLST119
 10132 3983 30       		.uleb128 0x30
 10133 3984 9C0E0000 		.4byte	.LASF683
ARM GAS  C:\Users\haske\AppData\Local\Temp\ccIkbvey.s 			page 217


 10134 3988 01       		.byte	0x1
 10135 3989 EB01     		.2byte	0x1eb
 10136 398b E4000000 		.4byte	0xe4
 10137 398f A0110000 		.4byte	.LLST120
 10138 3993 37       		.uleb128 0x37
 10139 3994 251D0000 		.4byte	.LASF668
 10140 3998 01       		.byte	0x1
 10141 3999 F701     		.2byte	0x1f7
 10142 399b A0040000 		.4byte	0x4a0
 10143 399f 02       		.uleb128 0x2
 10144 39a0 91       		.byte	0x91
 10145 39a1 64       		.sleb128 -28
 10146 39a2 38       		.uleb128 0x38
 10147 39a3 9B240000 		.4byte	0x249b
 10148 39a7 BC020000 		.4byte	.LBB103
 10149 39ab 0C000000 		.4byte	.LBE103-.LBB103
 10150 39af 01       		.byte	0x1
 10151 39b0 D801     		.2byte	0x1d8
 10152 39b2 F3390000 		.4byte	0x39f3
 10153 39b6 39       		.uleb128 0x39
 10154 39b7 B8240000 		.4byte	0x24b8
 10155 39bb BE110000 		.4byte	.LLST121
 10156 39bf 39       		.uleb128 0x39
 10157 39c0 AC240000 		.4byte	0x24ac
 10158 39c4 D2110000 		.4byte	.LLST122
 10159 39c8 33       		.uleb128 0x33
 10160 39c9 BC020000 		.4byte	.LBB104
 10161 39cd 0C000000 		.4byte	.LBE104-.LBB104
 10162 39d1 3F       		.uleb128 0x3f
 10163 39d2 C4240000 		.4byte	0x24c4
 10164 39d6 3C       		.uleb128 0x3c
 10165 39d7 C6020000 		.4byte	.LVL320
 10166 39db 713D0000 		.4byte	0x3d71
 10167 39df 3B       		.uleb128 0x3b
 10168 39e0 01       		.uleb128 0x1
 10169 39e1 50       		.byte	0x50
 10170 39e2 02       		.uleb128 0x2
 10171 39e3 76       		.byte	0x76
 10172 39e4 00       		.sleb128 0
 10173 39e5 3B       		.uleb128 0x3b
 10174 39e6 01       		.uleb128 0x1
 10175 39e7 51       		.byte	0x51
 10176 39e8 01       		.uleb128 0x1
 10177 39e9 30       		.byte	0x30
 10178 39ea 3B       		.uleb128 0x3b
 10179 39eb 01       		.uleb128 0x1
 10180 39ec 52       		.byte	0x52
 10181 39ed 02       		.uleb128 0x2
 10182 39ee 08       		.byte	0x8
 10183 39ef 50       		.byte	0x50
 10184 39f0 00       		.byte	0
 10185 39f1 00       		.byte	0
 10186 39f2 00       		.byte	0
 10187 39f3 32       		.uleb128 0x32
 10188 39f4 E8020000 		.4byte	.LBB105
 10189 39f8 10000000 		.4byte	.LBE105-.LBB105
 10190 39fc 113A0000 		.4byte	0x3a11
ARM GAS  C:\Users\haske\AppData\Local\Temp\ccIkbvey.s 			page 218


 10191 3a00 30       		.uleb128 0x30
 10192 3a01 17050000 		.4byte	.LASF684
 10193 3a05 01       		.byte	0x1
 10194 3a06 E001     		.2byte	0x1e0
 10195 3a08 BA010000 		.4byte	0x1ba
 10196 3a0c E5110000 		.4byte	.LLST123
 10197 3a10 00       		.byte	0
 10198 3a11 42       		.uleb128 0x42
 10199 3a12 0A020000 		.4byte	.LVL307
 10200 3a16 603E0000 		.4byte	0x3e60
 10201 3a1a 3A       		.uleb128 0x3a
 10202 3a1b 14020000 		.4byte	.LVL309
 10203 3a1f C53E0000 		.4byte	0x3ec5
 10204 3a23 2E3A0000 		.4byte	0x3a2e
 10205 3a27 3B       		.uleb128 0x3b
 10206 3a28 01       		.uleb128 0x1
 10207 3a29 50       		.byte	0x50
 10208 3a2a 02       		.uleb128 0x2
 10209 3a2b 75       		.byte	0x75
 10210 3a2c 00       		.sleb128 0
 10211 3a2d 00       		.byte	0
 10212 3a2e 3A       		.uleb128 0x3a
 10213 3a2f 26020000 		.4byte	.LVL312
 10214 3a33 933D0000 		.4byte	0x3d93
 10215 3a37 423A0000 		.4byte	0x3a42
 10216 3a3b 3B       		.uleb128 0x3b
 10217 3a3c 01       		.uleb128 0x1
 10218 3a3d 50       		.byte	0x50
 10219 3a3e 02       		.uleb128 0x2
 10220 3a3f 76       		.byte	0x76
 10221 3a40 00       		.sleb128 0
 10222 3a41 00       		.byte	0
 10223 3a42 3A       		.uleb128 0x3a
 10224 3a43 3C020000 		.4byte	.LVL313
 10225 3a47 CD3D0000 		.4byte	0x3dcd
 10226 3a4b 563A0000 		.4byte	0x3a56
 10227 3a4f 3B       		.uleb128 0x3b
 10228 3a50 01       		.uleb128 0x1
 10229 3a51 50       		.byte	0x50
 10230 3a52 02       		.uleb128 0x2
 10231 3a53 76       		.byte	0x76
 10232 3a54 00       		.sleb128 0
 10233 3a55 00       		.byte	0
 10234 3a56 3A       		.uleb128 0x3a
 10235 3a57 52020000 		.4byte	.LVL316
 10236 3a5b D03E0000 		.4byte	0x3ed0
 10237 3a5f 703A0000 		.4byte	0x3a70
 10238 3a63 3B       		.uleb128 0x3b
 10239 3a64 01       		.uleb128 0x1
 10240 3a65 50       		.byte	0x50
 10241 3a66 02       		.uleb128 0x2
 10242 3a67 75       		.byte	0x75
 10243 3a68 00       		.sleb128 0
 10244 3a69 3B       		.uleb128 0x3b
 10245 3a6a 01       		.uleb128 0x1
 10246 3a6b 51       		.byte	0x51
 10247 3a6c 02       		.uleb128 0x2
ARM GAS  C:\Users\haske\AppData\Local\Temp\ccIkbvey.s 			page 219


 10248 3a6d 7D       		.byte	0x7d
 10249 3a6e 00       		.sleb128 0
 10250 3a6f 00       		.byte	0
 10251 3a70 42       		.uleb128 0x42
 10252 3a71 86020000 		.4byte	.LVL317
 10253 3a75 763E0000 		.4byte	0x3e76
 10254 3a79 3A       		.uleb128 0x3a
 10255 3a7a BA020000 		.4byte	.LVL318
 10256 3a7e 933D0000 		.4byte	0x3d93
 10257 3a82 8D3A0000 		.4byte	0x3a8d
 10258 3a86 3B       		.uleb128 0x3b
 10259 3a87 01       		.uleb128 0x1
 10260 3a88 50       		.byte	0x50
 10261 3a89 02       		.uleb128 0x2
 10262 3a8a 76       		.byte	0x76
 10263 3a8b 00       		.sleb128 0
 10264 3a8c 00       		.byte	0
 10265 3a8d 42       		.uleb128 0x42
 10266 3a8e 12030000 		.4byte	.LVL334
 10267 3a92 6B3E0000 		.4byte	0x3e6b
 10268 3a96 3A       		.uleb128 0x3a
 10269 3a97 2C030000 		.4byte	.LVL336
 10270 3a9b 012C0000 		.4byte	0x2c01
 10271 3a9f AA3A0000 		.4byte	0x3aaa
 10272 3aa3 3B       		.uleb128 0x3b
 10273 3aa4 01       		.uleb128 0x1
 10274 3aa5 50       		.byte	0x50
 10275 3aa6 02       		.uleb128 0x2
 10276 3aa7 76       		.byte	0x76
 10277 3aa8 00       		.sleb128 0
 10278 3aa9 00       		.byte	0
 10279 3aaa 42       		.uleb128 0x42
 10280 3aab 30030000 		.4byte	.LVL337
 10281 3aaf 603E0000 		.4byte	0x3e60
 10282 3ab3 42       		.uleb128 0x42
 10283 3ab4 34030000 		.4byte	.LVL338
 10284 3ab8 553E0000 		.4byte	0x3e55
 10285 3abc 42       		.uleb128 0x42
 10286 3abd 50030000 		.4byte	.LVL341
 10287 3ac1 DB3E0000 		.4byte	0x3edb
 10288 3ac5 3A       		.uleb128 0x3a
 10289 3ac6 A6030000 		.4byte	.LVL347
 10290 3aca 4D310000 		.4byte	0x314d
 10291 3ace D93A0000 		.4byte	0x3ad9
 10292 3ad2 3B       		.uleb128 0x3b
 10293 3ad3 01       		.uleb128 0x1
 10294 3ad4 50       		.byte	0x50
 10295 3ad5 02       		.uleb128 0x2
 10296 3ad6 76       		.byte	0x76
 10297 3ad7 00       		.sleb128 0
 10298 3ad8 00       		.byte	0
 10299 3ad9 3C       		.uleb128 0x3c
 10300 3ada B4030000 		.4byte	.LVL348
 10301 3ade 4A3E0000 		.4byte	0x3e4a
 10302 3ae2 3B       		.uleb128 0x3b
 10303 3ae3 01       		.uleb128 0x1
 10304 3ae4 50       		.byte	0x50
ARM GAS  C:\Users\haske\AppData\Local\Temp\ccIkbvey.s 			page 220


 10305 3ae5 02       		.uleb128 0x2
 10306 3ae6 76       		.byte	0x76
 10307 3ae7 00       		.sleb128 0
 10308 3ae8 3B       		.uleb128 0x3b
 10309 3ae9 01       		.uleb128 0x1
 10310 3aea 51       		.byte	0x51
 10311 3aeb 01       		.uleb128 0x1
 10312 3aec 4C       		.byte	0x4c
 10313 3aed 3B       		.uleb128 0x3b
 10314 3aee 01       		.uleb128 0x1
 10315 3aef 52       		.byte	0x52
 10316 3af0 01       		.uleb128 0x1
 10317 3af1 30       		.byte	0x30
 10318 3af2 00       		.byte	0
 10319 3af3 00       		.byte	0
 10320 3af4 32       		.uleb128 0x32
 10321 3af5 BA030000 		.4byte	.LBB106
 10322 3af9 16000000 		.4byte	.LBE106-.LBB106
 10323 3afd 3D3B0000 		.4byte	0x3b3d
 10324 3b01 30       		.uleb128 0x30
 10325 3b02 34070000 		.4byte	.LASF685
 10326 3b06 01       		.byte	0x1
 10327 3b07 0C02     		.2byte	0x20c
 10328 3b09 183C0000 		.4byte	0x3c18
 10329 3b0d F8110000 		.4byte	.LLST124
 10330 3b11 3A       		.uleb128 0x3a
 10331 3b12 C0030000 		.4byte	.LVL351
 10332 3b16 BA3E0000 		.4byte	0x3eba
 10333 3b1a 253B0000 		.4byte	0x3b25
 10334 3b1e 3B       		.uleb128 0x3b
 10335 3b1f 01       		.uleb128 0x1
 10336 3b20 50       		.byte	0x50
 10337 3b21 02       		.uleb128 0x2
 10338 3b22 74       		.byte	0x74
 10339 3b23 00       		.sleb128 0
 10340 3b24 00       		.byte	0
 10341 3b25 3C       		.uleb128 0x3c
 10342 3b26 CE030000 		.4byte	.LVL354
 10343 3b2a E63E0000 		.4byte	0x3ee6
 10344 3b2e 3B       		.uleb128 0x3b
 10345 3b2f 01       		.uleb128 0x1
 10346 3b30 50       		.byte	0x50
 10347 3b31 02       		.uleb128 0x2
 10348 3b32 76       		.byte	0x76
 10349 3b33 14       		.sleb128 20
 10350 3b34 3B       		.uleb128 0x3b
 10351 3b35 01       		.uleb128 0x1
 10352 3b36 52       		.byte	0x52
 10353 3b37 03       		.uleb128 0x3
 10354 3b38 0A       		.byte	0xa
 10355 3b39 FF7F     		.2byte	0x7fff
 10356 3b3b 00       		.byte	0
 10357 3b3c 00       		.byte	0
 10358 3b3d 32       		.uleb128 0x32
 10359 3b3e E8030000 		.4byte	.LBB107
 10360 3b42 10000000 		.4byte	.LBE107-.LBB107
 10361 3b46 6B3B0000 		.4byte	0x3b6b
ARM GAS  C:\Users\haske\AppData\Local\Temp\ccIkbvey.s 			page 221


 10362 3b4a 30       		.uleb128 0x30
 10363 3b4b 34070000 		.4byte	.LASF685
 10364 3b4f 01       		.byte	0x1
 10365 3b50 1602     		.2byte	0x216
 10366 3b52 1E3C0000 		.4byte	0x3c1e
 10367 3b56 16120000 		.4byte	.LLST125
 10368 3b5a 3C       		.uleb128 0x3c
 10369 3b5b EE030000 		.4byte	.LVL361
 10370 3b5f BA3E0000 		.4byte	0x3eba
 10371 3b63 3B       		.uleb128 0x3b
 10372 3b64 01       		.uleb128 0x1
 10373 3b65 50       		.byte	0x50
 10374 3b66 02       		.uleb128 0x2
 10375 3b67 74       		.byte	0x74
 10376 3b68 00       		.sleb128 0
 10377 3b69 00       		.byte	0
 10378 3b6a 00       		.byte	0
 10379 3b6b 3A       		.uleb128 0x3a
 10380 3b6c 10000000 		.4byte	.LVL255
 10381 3b70 F13E0000 		.4byte	0x3ef1
 10382 3b74 883B0000 		.4byte	0x3b88
 10383 3b78 3B       		.uleb128 0x3b
 10384 3b79 01       		.uleb128 0x1
 10385 3b7a 50       		.byte	0x50
 10386 3b7b 05       		.uleb128 0x5
 10387 3b7c 03       		.byte	0x3
 10388 3b7d 00000000 		.4byte	.LANCHOR2
 10389 3b81 3B       		.uleb128 0x3b
 10390 3b82 01       		.uleb128 0x1
 10391 3b83 51       		.byte	0x51
 10392 3b84 02       		.uleb128 0x2
 10393 3b85 74       		.byte	0x74
 10394 3b86 00       		.sleb128 0
 10395 3b87 00       		.byte	0
 10396 3b88 3A       		.uleb128 0x3a
 10397 3b89 1C000000 		.4byte	.LVL257
 10398 3b8d FC3E0000 		.4byte	0x3efc
 10399 3b91 9C3B0000 		.4byte	0x3b9c
 10400 3b95 3B       		.uleb128 0x3b
 10401 3b96 01       		.uleb128 0x1
 10402 3b97 50       		.byte	0x50
 10403 3b98 02       		.uleb128 0x2
 10404 3b99 74       		.byte	0x74
 10405 3b9a 00       		.sleb128 0
 10406 3b9b 00       		.byte	0
 10407 3b9c 3A       		.uleb128 0x3a
 10408 3b9d 24000000 		.4byte	.LVL260
 10409 3ba1 B63D0000 		.4byte	0x3db6
 10410 3ba5 B03B0000 		.4byte	0x3bb0
 10411 3ba9 3B       		.uleb128 0x3b
 10412 3baa 01       		.uleb128 0x1
 10413 3bab 50       		.byte	0x50
 10414 3bac 02       		.uleb128 0x2
 10415 3bad 74       		.byte	0x74
 10416 3bae 00       		.sleb128 0
 10417 3baf 00       		.byte	0
 10418 3bb0 42       		.uleb128 0x42
ARM GAS  C:\Users\haske\AppData\Local\Temp\ccIkbvey.s 			page 222


 10419 3bb1 E6000000 		.4byte	.LVL284
 10420 3bb5 BE2A0000 		.4byte	0x2abe
 10421 3bb9 42       		.uleb128 0x42
 10422 3bba EA010000 		.4byte	.LVL302
 10423 3bbe 763E0000 		.4byte	0x3e76
 10424 3bc2 42       		.uleb128 0x42
 10425 3bc3 F0010000 		.4byte	.LVL303
 10426 3bc7 603E0000 		.4byte	0x3e60
 10427 3bcb 3A       		.uleb128 0x3a
 10428 3bcc F8010000 		.4byte	.LVL304
 10429 3bd0 D03E0000 		.4byte	0x3ed0
 10430 3bd4 DF3B0000 		.4byte	0x3bdf
 10431 3bd8 3B       		.uleb128 0x3b
 10432 3bd9 01       		.uleb128 0x1
 10433 3bda 51       		.byte	0x51
 10434 3bdb 02       		.uleb128 0x2
 10435 3bdc 76       		.byte	0x76
 10436 3bdd 38       		.sleb128 56
 10437 3bde 00       		.byte	0
 10438 3bdf 3A       		.uleb128 0x3a
 10439 3be0 FE010000 		.4byte	.LVL305
 10440 3be4 B7310000 		.4byte	0x31b7
 10441 3be8 F33B0000 		.4byte	0x3bf3
 10442 3bec 3B       		.uleb128 0x3b
 10443 3bed 01       		.uleb128 0x1
 10444 3bee 50       		.byte	0x50
 10445 3bef 02       		.uleb128 0x2
 10446 3bf0 76       		.byte	0x76
 10447 3bf1 00       		.sleb128 0
 10448 3bf2 00       		.byte	0
 10449 3bf3 3A       		.uleb128 0x3a
 10450 3bf4 DC030000 		.4byte	.LVL357
 10451 3bf8 5C2C0000 		.4byte	0x2c5c
 10452 3bfc 073C0000 		.4byte	0x3c07
 10453 3c00 3B       		.uleb128 0x3b
 10454 3c01 01       		.uleb128 0x1
 10455 3c02 50       		.byte	0x50
 10456 3c03 02       		.uleb128 0x2
 10457 3c04 74       		.byte	0x74
 10458 3c05 00       		.sleb128 0
 10459 3c06 00       		.byte	0
 10460 3c07 3C       		.uleb128 0x3c
 10461 3c08 E2030000 		.4byte	.LVL358
 10462 3c0c 43340000 		.4byte	0x3443
 10463 3c10 3B       		.uleb128 0x3b
 10464 3c11 01       		.uleb128 0x1
 10465 3c12 50       		.byte	0x50
 10466 3c13 02       		.uleb128 0x2
 10467 3c14 74       		.byte	0x74
 10468 3c15 00       		.sleb128 0
 10469 3c16 00       		.byte	0
 10470 3c17 00       		.byte	0
 10471 3c18 07       		.uleb128 0x7
 10472 3c19 04       		.byte	0x4
 10473 3c1a 8C200000 		.4byte	0x208c
 10474 3c1e 07       		.uleb128 0x7
 10475 3c1f 04       		.byte	0x4
ARM GAS  C:\Users\haske\AppData\Local\Temp\ccIkbvey.s 			page 223


 10476 3c20 B8200000 		.4byte	0x20b8
 10477 3c24 4B       		.uleb128 0x4b
 10478 3c25 5A070000 		.4byte	.LASF686
 10479 3c29 01       		.byte	0x1
 10480 3c2a C3       		.byte	0xc3
 10481 3c2b F7220000 		.4byte	0x22f7
 10482 3c2f 00000000 		.4byte	.LFB209
 10483 3c33 0A000000 		.4byte	.LFE209-.LFB209
 10484 3c37 01       		.uleb128 0x1
 10485 3c38 9C       		.byte	0x9c
 10486 3c39 5C3C0000 		.4byte	0x3c5c
 10487 3c3d 45       		.uleb128 0x45
 10488 3c3e 6F626A00 		.ascii	"obj\000"
 10489 3c42 01       		.byte	0x1
 10490 3c43 C3       		.byte	0xc3
 10491 3c44 76220000 		.4byte	0x2276
 10492 3c48 29120000 		.4byte	.LLST126
 10493 3c4c 47       		.uleb128 0x47
 10494 3c4d 3A040000 		.4byte	.LASF641
 10495 3c51 01       		.byte	0x1
 10496 3c52 C6       		.byte	0xc6
 10497 3c53 DD270000 		.4byte	0x27dd
 10498 3c57 4A120000 		.4byte	.LLST127
 10499 3c5b 00       		.byte	0
 10500 3c5c 4B       		.uleb128 0x4b
 10501 3c5d C0200000 		.4byte	.LASF687
 10502 3c61 01       		.byte	0x1
 10503 3c62 D0       		.byte	0xd0
 10504 3c63 63030000 		.4byte	0x363
 10505 3c67 00000000 		.4byte	.LFB210
 10506 3c6b 0A000000 		.4byte	.LFE210-.LFB210
 10507 3c6f 01       		.uleb128 0x1
 10508 3c70 9C       		.byte	0x9c
 10509 3c71 943C0000 		.4byte	0x3c94
 10510 3c75 45       		.uleb128 0x45
 10511 3c76 6F626A00 		.ascii	"obj\000"
 10512 3c7a 01       		.byte	0x1
 10513 3c7b D0       		.byte	0xd0
 10514 3c7c 76220000 		.4byte	0x2276
 10515 3c80 6B120000 		.4byte	.LLST128
 10516 3c84 47       		.uleb128 0x47
 10517 3c85 3A040000 		.4byte	.LASF641
 10518 3c89 01       		.byte	0x1
 10519 3c8a D3       		.byte	0xd3
 10520 3c8b DD270000 		.4byte	0x27dd
 10521 3c8f 8C120000 		.4byte	.LLST129
 10522 3c93 00       		.byte	0
 10523 3c94 48       		.uleb128 0x48
 10524 3c95 210D0000 		.4byte	.LASF688
 10525 3c99 01       		.byte	0x1
 10526 3c9a 3E       		.byte	0x3e
 10527 3c9b 63030000 		.4byte	0x363
 10528 3c9f 05       		.uleb128 0x5
 10529 3ca0 03       		.byte	0x3
 10530 3ca1 04000000 		.4byte	create_knob_recolor
 10531 3ca5 51       		.uleb128 0x51
 10532 3ca6 431A0000 		.4byte	.LASF689
ARM GAS  C:\Users\haske\AppData\Local\Temp\ccIkbvey.s 			page 224


 10533 3caa 0B       		.byte	0xb
 10534 3cab 94       		.byte	0x94
 10535 3cac B80B0000 		.4byte	0xbb8
 10536 3cb0 51       		.uleb128 0x51
 10537 3cb1 60130000 		.4byte	.LASF690
 10538 3cb5 10       		.byte	0x10
 10539 3cb6 95       		.byte	0x95
 10540 3cb7 39220000 		.4byte	0x2239
 10541 3cbb 51       		.uleb128 0x51
 10542 3cbc FB0A0000 		.4byte	.LASF691
 10543 3cc0 26       		.byte	0x26
 10544 3cc1 3D       		.byte	0x3d
 10545 3cc2 EE070000 		.4byte	0x7ee
 10546 3cc6 51       		.uleb128 0x51
 10547 3cc7 CB1A0000 		.4byte	.LASF692
 10548 3ccb 26       		.byte	0x26
 10549 3ccc 3E       		.byte	0x3e
 10550 3ccd EE070000 		.4byte	0x7ee
 10551 3cd1 51       		.uleb128 0x51
 10552 3cd2 E10A0000 		.4byte	.LASF693
 10553 3cd6 26       		.byte	0x26
 10554 3cd7 3F       		.byte	0x3f
 10555 3cd8 EE070000 		.4byte	0x7ee
 10556 3cdc 51       		.uleb128 0x51
 10557 3cdd 3D2C0000 		.4byte	.LASF694
 10558 3ce1 26       		.byte	0x26
 10559 3ce2 40       		.byte	0x40
 10560 3ce3 EE070000 		.4byte	0x7ee
 10561 3ce7 51       		.uleb128 0x51
 10562 3ce8 D90D0000 		.4byte	.LASF695
 10563 3cec 26       		.byte	0x26
 10564 3ced 41       		.byte	0x41
 10565 3cee EE070000 		.4byte	0x7ee
 10566 3cf2 51       		.uleb128 0x51
 10567 3cf3 20080000 		.4byte	.LASF696
 10568 3cf7 27       		.byte	0x27
 10569 3cf8 39       		.byte	0x39
 10570 3cf9 EE070000 		.4byte	0x7ee
 10571 3cfd 51       		.uleb128 0x51
 10572 3cfe B4130000 		.4byte	.LASF697
 10573 3d02 27       		.byte	0x27
 10574 3d03 3A       		.byte	0x3a
 10575 3d04 EE070000 		.4byte	0x7ee
 10576 3d08 51       		.uleb128 0x51
 10577 3d09 36030000 		.4byte	.LASF698
 10578 3d0d 27       		.byte	0x27
 10579 3d0e 3B       		.byte	0x3b
 10580 3d0f EE070000 		.4byte	0x7ee
 10581 3d13 51       		.uleb128 0x51
 10582 3d14 11030000 		.4byte	.LASF699
 10583 3d18 27       		.byte	0x27
 10584 3d19 3C       		.byte	0x3c
 10585 3d1a EE070000 		.4byte	0x7ee
 10586 3d1e 51       		.uleb128 0x51
 10587 3d1f F4130000 		.4byte	.LASF700
 10588 3d23 27       		.byte	0x27
 10589 3d24 3D       		.byte	0x3d
ARM GAS  C:\Users\haske\AppData\Local\Temp\ccIkbvey.s 			page 225


 10590 3d25 EE070000 		.4byte	0x7ee
 10591 3d29 51       		.uleb128 0x51
 10592 3d2a F51C0000 		.4byte	.LASF701
 10593 3d2e 27       		.byte	0x27
 10594 3d2f 3E       		.byte	0x3e
 10595 3d30 EE070000 		.4byte	0x7ee
 10596 3d34 51       		.uleb128 0x51
 10597 3d35 B4180000 		.4byte	.LASF702
 10598 3d39 27       		.byte	0x27
 10599 3d3a 3F       		.byte	0x3f
 10600 3d3b EE070000 		.4byte	0x7ee
 10601 3d3f 51       		.uleb128 0x51
 10602 3d40 74220000 		.4byte	.LASF703
 10603 3d44 27       		.byte	0x27
 10604 3d45 40       		.byte	0x40
 10605 3d46 EE070000 		.4byte	0x7ee
 10606 3d4a 51       		.uleb128 0x51
 10607 3d4b AC190000 		.4byte	.LASF704
 10608 3d4f 27       		.byte	0x27
 10609 3d50 41       		.byte	0x41
 10610 3d51 EE070000 		.4byte	0x7ee
 10611 3d55 51       		.uleb128 0x51
 10612 3d56 5F230000 		.4byte	.LASF705
 10613 3d5a 27       		.byte	0x27
 10614 3d5b 42       		.byte	0x42
 10615 3d5c EE070000 		.4byte	0x7ee
 10616 3d60 52       		.uleb128 0x52
 10617 3d61 AD000000 		.4byte	.LASF706
 10618 3d65 01       		.byte	0x1
 10619 3d66 36       		.byte	0x36
 10620 3d67 39220000 		.4byte	0x2239
 10621 3d6b 05       		.uleb128 0x5
 10622 3d6c 03       		.byte	0x3
 10623 3d6d 00000000 		.4byte	lv_colorwheel_class
 10624 3d71 53       		.uleb128 0x53
 10625 3d72 FB100000 		.4byte	.LASF707
 10626 3d76 FB100000 		.4byte	.LASF707
 10627 3d7a 1F       		.byte	0x1f
 10628 3d7b 83       		.byte	0x83
 10629 3d7c 54       		.uleb128 0x54
 10630 3d7d 9D180000 		.4byte	.LASF708
 10631 3d81 9D180000 		.4byte	.LASF708
 10632 3d85 28       		.byte	0x28
 10633 3d86 7701     		.2byte	0x177
 10634 3d88 53       		.uleb128 0x53
 10635 3d89 910D0000 		.4byte	.LASF709
 10636 3d8d 910D0000 		.4byte	.LASF709
 10637 3d91 04       		.byte	0x4
 10638 3d92 2F       		.byte	0x2f
 10639 3d93 54       		.uleb128 0x54
 10640 3d94 6C020000 		.4byte	.LASF710
 10641 3d98 6C020000 		.4byte	.LASF710
 10642 3d9c 28       		.byte	0x28
 10643 3d9d 1901     		.2byte	0x119
 10644 3d9f 54       		.uleb128 0x54
 10645 3da0 3F080000 		.4byte	.LASF711
 10646 3da4 3F080000 		.4byte	.LASF711
ARM GAS  C:\Users\haske\AppData\Local\Temp\ccIkbvey.s 			page 226


 10647 3da8 28       		.byte	0x28
 10648 3da9 7D01     		.2byte	0x17d
 10649 3dab 53       		.uleb128 0x53
 10650 3dac 9E280000 		.4byte	.LASF712
 10651 3db0 9E280000 		.4byte	.LASF712
 10652 3db4 14       		.byte	0x14
 10653 3db5 37       		.byte	0x37
 10654 3db6 53       		.uleb128 0x53
 10655 3db7 470E0000 		.4byte	.LASF713
 10656 3dbb 470E0000 		.4byte	.LASF713
 10657 3dbf 22       		.byte	0x22
 10658 3dc0 A1       		.byte	0xa1
 10659 3dc1 54       		.uleb128 0x54
 10660 3dc2 89080000 		.4byte	.LASF714
 10661 3dc6 89080000 		.4byte	.LASF714
 10662 3dca 22       		.byte	0x22
 10663 3dcb 2701     		.2byte	0x127
 10664 3dcd 54       		.uleb128 0x54
 10665 3dce A81E0000 		.4byte	.LASF715
 10666 3dd2 A81E0000 		.4byte	.LASF715
 10667 3dd6 28       		.byte	0x28
 10668 3dd7 2201     		.2byte	0x122
 10669 3dd9 53       		.uleb128 0x53
 10670 3dda 45280000 		.4byte	.LASF716
 10671 3dde 45280000 		.4byte	.LASF716
 10672 3de2 14       		.byte	0x14
 10673 3de3 2E       		.byte	0x2e
 10674 3de4 53       		.uleb128 0x53
 10675 3de5 06080000 		.4byte	.LASF717
 10676 3de9 06080000 		.4byte	.LASF717
 10677 3ded 20       		.byte	0x20
 10678 3dee 70       		.byte	0x70
 10679 3def 54       		.uleb128 0x54
 10680 3df0 CE280000 		.4byte	.LASF718
 10681 3df4 CE280000 		.4byte	.LASF718
 10682 3df8 16       		.byte	0x16
 10683 3df9 6701     		.2byte	0x167
 10684 3dfb 53       		.uleb128 0x53
 10685 3dfc 64080000 		.4byte	.LASF719
 10686 3e00 64080000 		.4byte	.LASF719
 10687 3e04 16       		.byte	0x16
 10688 3e05 E5       		.byte	0xe5
 10689 3e06 54       		.uleb128 0x54
 10690 3e07 34150000 		.4byte	.LASF720
 10691 3e0b 34150000 		.4byte	.LASF720
 10692 3e0f 16       		.byte	0x16
 10693 3e10 2001     		.2byte	0x120
 10694 3e12 54       		.uleb128 0x54
 10695 3e13 C0250000 		.4byte	.LASF721
 10696 3e17 C0250000 		.4byte	.LASF721
 10697 3e1b 16       		.byte	0x16
 10698 3e1c 0F01     		.2byte	0x10f
 10699 3e1e 53       		.uleb128 0x53
 10700 3e1f 05190000 		.4byte	.LASF722
 10701 3e23 05190000 		.4byte	.LASF722
 10702 3e27 10       		.byte	0x10
 10703 3e28 EC       		.byte	0xec
ARM GAS  C:\Users\haske\AppData\Local\Temp\ccIkbvey.s 			page 227


 10704 3e29 53       		.uleb128 0x53
 10705 3e2a 86060000 		.4byte	.LASF723
 10706 3e2e 86060000 		.4byte	.LASF723
 10707 3e32 10       		.byte	0x10
 10708 3e33 F3       		.byte	0xf3
 10709 3e34 53       		.uleb128 0x53
 10710 3e35 8F130000 		.4byte	.LASF724
 10711 3e39 8F130000 		.4byte	.LASF724
 10712 3e3d 21       		.byte	0x21
 10713 3e3e 4B       		.byte	0x4b
 10714 3e3f 53       		.uleb128 0x53
 10715 3e40 500F0000 		.4byte	.LASF725
 10716 3e44 500F0000 		.4byte	.LASF725
 10717 3e48 21       		.byte	0x21
 10718 3e49 4D       		.byte	0x4d
 10719 3e4a 53       		.uleb128 0x53
 10720 3e4b 552D0000 		.4byte	.LASF726
 10721 3e4f 552D0000 		.4byte	.LASF726
 10722 3e53 22       		.byte	0x22
 10723 3e54 92       		.byte	0x92
 10724 3e55 53       		.uleb128 0x53
 10725 3e56 40000000 		.4byte	.LASF727
 10726 3e5a 40000000 		.4byte	.LASF727
 10727 3e5e 29       		.byte	0x29
 10728 3e5f 90       		.byte	0x90
 10729 3e60 53       		.uleb128 0x53
 10730 3e61 AF200000 		.4byte	.LASF728
 10731 3e65 AF200000 		.4byte	.LASF728
 10732 3e69 29       		.byte	0x29
 10733 3e6a 32       		.byte	0x32
 10734 3e6b 53       		.uleb128 0x53
 10735 3e6c 00000000 		.4byte	.LASF729
 10736 3e70 00000000 		.4byte	.LASF729
 10737 3e74 2A       		.byte	0x2a
 10738 3e75 3B       		.byte	0x3b
 10739 3e76 53       		.uleb128 0x53
 10740 3e77 05120000 		.4byte	.LASF730
 10741 3e7b 05120000 		.4byte	.LASF730
 10742 3e7f 2A       		.byte	0x2a
 10743 3e80 34       		.byte	0x34
 10744 3e81 54       		.uleb128 0x54
 10745 3e82 B60F0000 		.4byte	.LASF731
 10746 3e86 B60F0000 		.4byte	.LASF731
 10747 3e8a 02       		.byte	0x2
 10748 3e8b 9902     		.2byte	0x299
 10749 3e8d 54       		.uleb128 0x54
 10750 3e8e 77050000 		.4byte	.LASF732
 10751 3e92 77050000 		.4byte	.LASF732
 10752 3e96 02       		.byte	0x2
 10753 3e97 9002     		.2byte	0x290
 10754 3e99 53       		.uleb128 0x53
 10755 3e9a 062A0000 		.4byte	.LASF733
 10756 3e9e 062A0000 		.4byte	.LASF733
 10757 3ea2 11       		.byte	0x11
 10758 3ea3 4D       		.byte	0x4d
 10759 3ea4 53       		.uleb128 0x53
 10760 3ea5 26130000 		.4byte	.LASF734
ARM GAS  C:\Users\haske\AppData\Local\Temp\ccIkbvey.s 			page 228


 10761 3ea9 26130000 		.4byte	.LASF734
 10762 3ead 20       		.byte	0x20
 10763 3eae 53       		.byte	0x53
 10764 3eaf 53       		.uleb128 0x53
 10765 3eb0 5B090000 		.4byte	.LASF735
 10766 3eb4 5B090000 		.4byte	.LASF735
 10767 3eb8 11       		.byte	0x11
 10768 3eb9 56       		.byte	0x56
 10769 3eba 53       		.uleb128 0x53
 10770 3ebb 83290000 		.4byte	.LASF736
 10771 3ebf 83290000 		.4byte	.LASF736
 10772 3ec3 22       		.byte	0x22
 10773 3ec4 B7       		.byte	0xb7
 10774 3ec5 53       		.uleb128 0x53
 10775 3ec6 F2010000 		.4byte	.LASF737
 10776 3eca F2010000 		.4byte	.LASF737
 10777 3ece 29       		.byte	0x29
 10778 3ecf 39       		.byte	0x39
 10779 3ed0 53       		.uleb128 0x53
 10780 3ed1 07180000 		.4byte	.LASF738
 10781 3ed5 07180000 		.4byte	.LASF738
 10782 3ed9 29       		.byte	0x29
 10783 3eda 63       		.byte	0x63
 10784 3edb 53       		.uleb128 0x53
 10785 3edc 491D0000 		.4byte	.LASF739
 10786 3ee0 491D0000 		.4byte	.LASF739
 10787 3ee4 04       		.byte	0x4
 10788 3ee5 49       		.byte	0x49
 10789 3ee6 53       		.uleb128 0x53
 10790 3ee7 A92C0000 		.4byte	.LASF740
 10791 3eeb A92C0000 		.4byte	.LASF740
 10792 3eef 05       		.byte	0x5
 10793 3ef0 C3       		.byte	0xc3
 10794 3ef1 53       		.uleb128 0x53
 10795 3ef2 AA030000 		.4byte	.LASF741
 10796 3ef6 AA030000 		.4byte	.LASF741
 10797 3efa 22       		.byte	0x22
 10798 3efb 9A       		.byte	0x9a
 10799 3efc 53       		.uleb128 0x53
 10800 3efd 45040000 		.4byte	.LASF742
 10801 3f01 45040000 		.4byte	.LASF742
 10802 3f05 22       		.byte	0x22
 10803 3f06 B0       		.byte	0xb0
 10804 3f07 00       		.byte	0
 10805              		.section	.debug_abbrev,"",%progbits
 10806              	.Ldebug_abbrev0:
 10807 0000 01       		.uleb128 0x1
 10808 0001 11       		.uleb128 0x11
 10809 0002 01       		.byte	0x1
 10810 0003 25       		.uleb128 0x25
 10811 0004 0E       		.uleb128 0xe
 10812 0005 13       		.uleb128 0x13
 10813 0006 0B       		.uleb128 0xb
 10814 0007 03       		.uleb128 0x3
 10815 0008 0E       		.uleb128 0xe
 10816 0009 1B       		.uleb128 0x1b
 10817 000a 0E       		.uleb128 0xe
ARM GAS  C:\Users\haske\AppData\Local\Temp\ccIkbvey.s 			page 229


 10818 000b 55       		.uleb128 0x55
 10819 000c 17       		.uleb128 0x17
 10820 000d 11       		.uleb128 0x11
 10821 000e 01       		.uleb128 0x1
 10822 000f 10       		.uleb128 0x10
 10823 0010 17       		.uleb128 0x17
 10824 0011 00       		.byte	0
 10825 0012 00       		.byte	0
 10826 0013 02       		.uleb128 0x2
 10827 0014 16       		.uleb128 0x16
 10828 0015 00       		.byte	0
 10829 0016 03       		.uleb128 0x3
 10830 0017 0E       		.uleb128 0xe
 10831 0018 3A       		.uleb128 0x3a
 10832 0019 0B       		.uleb128 0xb
 10833 001a 3B       		.uleb128 0x3b
 10834 001b 0B       		.uleb128 0xb
 10835 001c 49       		.uleb128 0x49
 10836 001d 13       		.uleb128 0x13
 10837 001e 00       		.byte	0
 10838 001f 00       		.byte	0
 10839 0020 03       		.uleb128 0x3
 10840 0021 24       		.uleb128 0x24
 10841 0022 00       		.byte	0
 10842 0023 0B       		.uleb128 0xb
 10843 0024 0B       		.uleb128 0xb
 10844 0025 3E       		.uleb128 0x3e
 10845 0026 0B       		.uleb128 0xb
 10846 0027 03       		.uleb128 0x3
 10847 0028 0E       		.uleb128 0xe
 10848 0029 00       		.byte	0
 10849 002a 00       		.byte	0
 10850 002b 04       		.uleb128 0x4
 10851 002c 24       		.uleb128 0x24
 10852 002d 00       		.byte	0
 10853 002e 0B       		.uleb128 0xb
 10854 002f 0B       		.uleb128 0xb
 10855 0030 3E       		.uleb128 0x3e
 10856 0031 0B       		.uleb128 0xb
 10857 0032 03       		.uleb128 0x3
 10858 0033 08       		.uleb128 0x8
 10859 0034 00       		.byte	0
 10860 0035 00       		.byte	0
 10861 0036 05       		.uleb128 0x5
 10862 0037 04       		.uleb128 0x4
 10863 0038 01       		.byte	0x1
 10864 0039 0B       		.uleb128 0xb
 10865 003a 0B       		.uleb128 0xb
 10866 003b 49       		.uleb128 0x49
 10867 003c 13       		.uleb128 0x13
 10868 003d 3A       		.uleb128 0x3a
 10869 003e 0B       		.uleb128 0xb
 10870 003f 3B       		.uleb128 0x3b
 10871 0040 0B       		.uleb128 0xb
 10872 0041 01       		.uleb128 0x1
 10873 0042 13       		.uleb128 0x13
 10874 0043 00       		.byte	0
ARM GAS  C:\Users\haske\AppData\Local\Temp\ccIkbvey.s 			page 230


 10875 0044 00       		.byte	0
 10876 0045 06       		.uleb128 0x6
 10877 0046 28       		.uleb128 0x28
 10878 0047 00       		.byte	0
 10879 0048 03       		.uleb128 0x3
 10880 0049 0E       		.uleb128 0xe
 10881 004a 1C       		.uleb128 0x1c
 10882 004b 0B       		.uleb128 0xb
 10883 004c 00       		.byte	0
 10884 004d 00       		.byte	0
 10885 004e 07       		.uleb128 0x7
 10886 004f 0F       		.uleb128 0xf
 10887 0050 00       		.byte	0
 10888 0051 0B       		.uleb128 0xb
 10889 0052 0B       		.uleb128 0xb
 10890 0053 49       		.uleb128 0x49
 10891 0054 13       		.uleb128 0x13
 10892 0055 00       		.byte	0
 10893 0056 00       		.byte	0
 10894 0057 08       		.uleb128 0x8
 10895 0058 15       		.uleb128 0x15
 10896 0059 01       		.byte	0x1
 10897 005a 27       		.uleb128 0x27
 10898 005b 19       		.uleb128 0x19
 10899 005c 01       		.uleb128 0x1
 10900 005d 13       		.uleb128 0x13
 10901 005e 00       		.byte	0
 10902 005f 00       		.byte	0
 10903 0060 09       		.uleb128 0x9
 10904 0061 05       		.uleb128 0x5
 10905 0062 00       		.byte	0
 10906 0063 49       		.uleb128 0x49
 10907 0064 13       		.uleb128 0x13
 10908 0065 00       		.byte	0
 10909 0066 00       		.byte	0
 10910 0067 0A       		.uleb128 0xa
 10911 0068 13       		.uleb128 0x13
 10912 0069 01       		.byte	0x1
 10913 006a 03       		.uleb128 0x3
 10914 006b 0E       		.uleb128 0xe
 10915 006c 0B       		.uleb128 0xb
 10916 006d 0B       		.uleb128 0xb
 10917 006e 3A       		.uleb128 0x3a
 10918 006f 0B       		.uleb128 0xb
 10919 0070 3B       		.uleb128 0x3b
 10920 0071 0B       		.uleb128 0xb
 10921 0072 01       		.uleb128 0x1
 10922 0073 13       		.uleb128 0x13
 10923 0074 00       		.byte	0
 10924 0075 00       		.byte	0
 10925 0076 0B       		.uleb128 0xb
 10926 0077 0D       		.uleb128 0xd
 10927 0078 00       		.byte	0
 10928 0079 03       		.uleb128 0x3
 10929 007a 0E       		.uleb128 0xe
 10930 007b 3A       		.uleb128 0x3a
 10931 007c 0B       		.uleb128 0xb
ARM GAS  C:\Users\haske\AppData\Local\Temp\ccIkbvey.s 			page 231


 10932 007d 3B       		.uleb128 0x3b
 10933 007e 0B       		.uleb128 0xb
 10934 007f 49       		.uleb128 0x49
 10935 0080 13       		.uleb128 0x13
 10936 0081 38       		.uleb128 0x38
 10937 0082 0B       		.uleb128 0xb
 10938 0083 00       		.byte	0
 10939 0084 00       		.byte	0
 10940 0085 0C       		.uleb128 0xc
 10941 0086 0D       		.uleb128 0xd
 10942 0087 00       		.byte	0
 10943 0088 03       		.uleb128 0x3
 10944 0089 0E       		.uleb128 0xe
 10945 008a 3A       		.uleb128 0x3a
 10946 008b 0B       		.uleb128 0xb
 10947 008c 3B       		.uleb128 0x3b
 10948 008d 0B       		.uleb128 0xb
 10949 008e 49       		.uleb128 0x49
 10950 008f 13       		.uleb128 0x13
 10951 0090 0B       		.uleb128 0xb
 10952 0091 0B       		.uleb128 0xb
 10953 0092 0D       		.uleb128 0xd
 10954 0093 0B       		.uleb128 0xb
 10955 0094 0C       		.uleb128 0xc
 10956 0095 0B       		.uleb128 0xb
 10957 0096 38       		.uleb128 0x38
 10958 0097 0B       		.uleb128 0xb
 10959 0098 00       		.byte	0
 10960 0099 00       		.byte	0
 10961 009a 0D       		.uleb128 0xd
 10962 009b 0F       		.uleb128 0xf
 10963 009c 00       		.byte	0
 10964 009d 0B       		.uleb128 0xb
 10965 009e 0B       		.uleb128 0xb
 10966 009f 00       		.byte	0
 10967 00a0 00       		.byte	0
 10968 00a1 0E       		.uleb128 0xe
 10969 00a2 13       		.uleb128 0x13
 10970 00a3 01       		.byte	0x1
 10971 00a4 0B       		.uleb128 0xb
 10972 00a5 0B       		.uleb128 0xb
 10973 00a6 3A       		.uleb128 0x3a
 10974 00a7 0B       		.uleb128 0xb
 10975 00a8 3B       		.uleb128 0x3b
 10976 00a9 0B       		.uleb128 0xb
 10977 00aa 01       		.uleb128 0x1
 10978 00ab 13       		.uleb128 0x13
 10979 00ac 00       		.byte	0
 10980 00ad 00       		.byte	0
 10981 00ae 0F       		.uleb128 0xf
 10982 00af 0D       		.uleb128 0xd
 10983 00b0 00       		.byte	0
 10984 00b1 03       		.uleb128 0x3
 10985 00b2 08       		.uleb128 0x8
 10986 00b3 3A       		.uleb128 0x3a
 10987 00b4 0B       		.uleb128 0xb
 10988 00b5 3B       		.uleb128 0x3b
ARM GAS  C:\Users\haske\AppData\Local\Temp\ccIkbvey.s 			page 232


 10989 00b6 0B       		.uleb128 0xb
 10990 00b7 49       		.uleb128 0x49
 10991 00b8 13       		.uleb128 0x13
 10992 00b9 38       		.uleb128 0x38
 10993 00ba 0B       		.uleb128 0xb
 10994 00bb 00       		.byte	0
 10995 00bc 00       		.byte	0
 10996 00bd 10       		.uleb128 0x10
 10997 00be 0D       		.uleb128 0xd
 10998 00bf 00       		.byte	0
 10999 00c0 03       		.uleb128 0x3
 11000 00c1 08       		.uleb128 0x8
 11001 00c2 3A       		.uleb128 0x3a
 11002 00c3 0B       		.uleb128 0xb
 11003 00c4 3B       		.uleb128 0x3b
 11004 00c5 0B       		.uleb128 0xb
 11005 00c6 49       		.uleb128 0x49
 11006 00c7 13       		.uleb128 0x13
 11007 00c8 0B       		.uleb128 0xb
 11008 00c9 0B       		.uleb128 0xb
 11009 00ca 0D       		.uleb128 0xd
 11010 00cb 0B       		.uleb128 0xb
 11011 00cc 0C       		.uleb128 0xc
 11012 00cd 0B       		.uleb128 0xb
 11013 00ce 38       		.uleb128 0x38
 11014 00cf 0B       		.uleb128 0xb
 11015 00d0 00       		.byte	0
 11016 00d1 00       		.byte	0
 11017 00d2 11       		.uleb128 0x11
 11018 00d3 26       		.uleb128 0x26
 11019 00d4 00       		.byte	0
 11020 00d5 49       		.uleb128 0x49
 11021 00d6 13       		.uleb128 0x13
 11022 00d7 00       		.byte	0
 11023 00d8 00       		.byte	0
 11024 00d9 12       		.uleb128 0x12
 11025 00da 15       		.uleb128 0x15
 11026 00db 01       		.byte	0x1
 11027 00dc 27       		.uleb128 0x27
 11028 00dd 19       		.uleb128 0x19
 11029 00de 49       		.uleb128 0x49
 11030 00df 13       		.uleb128 0x13
 11031 00e0 01       		.uleb128 0x1
 11032 00e1 13       		.uleb128 0x13
 11033 00e2 00       		.byte	0
 11034 00e3 00       		.byte	0
 11035 00e4 13       		.uleb128 0x13
 11036 00e5 26       		.uleb128 0x26
 11037 00e6 00       		.byte	0
 11038 00e7 00       		.byte	0
 11039 00e8 00       		.byte	0
 11040 00e9 14       		.uleb128 0x14
 11041 00ea 17       		.uleb128 0x17
 11042 00eb 01       		.byte	0x1
 11043 00ec 0B       		.uleb128 0xb
 11044 00ed 0B       		.uleb128 0xb
 11045 00ee 3A       		.uleb128 0x3a
ARM GAS  C:\Users\haske\AppData\Local\Temp\ccIkbvey.s 			page 233


 11046 00ef 0B       		.uleb128 0xb
 11047 00f0 3B       		.uleb128 0x3b
 11048 00f1 0B       		.uleb128 0xb
 11049 00f2 01       		.uleb128 0x1
 11050 00f3 13       		.uleb128 0x13
 11051 00f4 00       		.byte	0
 11052 00f5 00       		.byte	0
 11053 00f6 15       		.uleb128 0x15
 11054 00f7 0D       		.uleb128 0xd
 11055 00f8 00       		.byte	0
 11056 00f9 03       		.uleb128 0x3
 11057 00fa 08       		.uleb128 0x8
 11058 00fb 3A       		.uleb128 0x3a
 11059 00fc 0B       		.uleb128 0xb
 11060 00fd 3B       		.uleb128 0x3b
 11061 00fe 0B       		.uleb128 0xb
 11062 00ff 49       		.uleb128 0x49
 11063 0100 13       		.uleb128 0x13
 11064 0101 00       		.byte	0
 11065 0102 00       		.byte	0
 11066 0103 16       		.uleb128 0x16
 11067 0104 0D       		.uleb128 0xd
 11068 0105 00       		.byte	0
 11069 0106 03       		.uleb128 0x3
 11070 0107 0E       		.uleb128 0xe
 11071 0108 3A       		.uleb128 0x3a
 11072 0109 0B       		.uleb128 0xb
 11073 010a 3B       		.uleb128 0x3b
 11074 010b 0B       		.uleb128 0xb
 11075 010c 49       		.uleb128 0x49
 11076 010d 13       		.uleb128 0x13
 11077 010e 00       		.byte	0
 11078 010f 00       		.byte	0
 11079 0110 17       		.uleb128 0x17
 11080 0111 01       		.uleb128 0x1
 11081 0112 01       		.byte	0x1
 11082 0113 49       		.uleb128 0x49
 11083 0114 13       		.uleb128 0x13
 11084 0115 01       		.uleb128 0x1
 11085 0116 13       		.uleb128 0x13
 11086 0117 00       		.byte	0
 11087 0118 00       		.byte	0
 11088 0119 18       		.uleb128 0x18
 11089 011a 21       		.uleb128 0x21
 11090 011b 00       		.byte	0
 11091 011c 49       		.uleb128 0x49
 11092 011d 13       		.uleb128 0x13
 11093 011e 2F       		.uleb128 0x2f
 11094 011f 0B       		.uleb128 0xb
 11095 0120 00       		.byte	0
 11096 0121 00       		.byte	0
 11097 0122 19       		.uleb128 0x19
 11098 0123 28       		.uleb128 0x28
 11099 0124 00       		.byte	0
 11100 0125 03       		.uleb128 0x3
 11101 0126 0E       		.uleb128 0xe
 11102 0127 1C       		.uleb128 0x1c
ARM GAS  C:\Users\haske\AppData\Local\Temp\ccIkbvey.s 			page 234


 11103 0128 05       		.uleb128 0x5
 11104 0129 00       		.byte	0
 11105 012a 00       		.byte	0
 11106 012b 1A       		.uleb128 0x1a
 11107 012c 16       		.uleb128 0x16
 11108 012d 00       		.byte	0
 11109 012e 03       		.uleb128 0x3
 11110 012f 0E       		.uleb128 0xe
 11111 0130 3A       		.uleb128 0x3a
 11112 0131 0B       		.uleb128 0xb
 11113 0132 3B       		.uleb128 0x3b
 11114 0133 05       		.uleb128 0x5
 11115 0134 49       		.uleb128 0x49
 11116 0135 13       		.uleb128 0x13
 11117 0136 00       		.byte	0
 11118 0137 00       		.byte	0
 11119 0138 1B       		.uleb128 0x1b
 11120 0139 13       		.uleb128 0x13
 11121 013a 01       		.byte	0x1
 11122 013b 0B       		.uleb128 0xb
 11123 013c 0B       		.uleb128 0xb
 11124 013d 3A       		.uleb128 0x3a
 11125 013e 0B       		.uleb128 0xb
 11126 013f 3B       		.uleb128 0x3b
 11127 0140 05       		.uleb128 0x5
 11128 0141 01       		.uleb128 0x1
 11129 0142 13       		.uleb128 0x13
 11130 0143 00       		.byte	0
 11131 0144 00       		.byte	0
 11132 0145 1C       		.uleb128 0x1c
 11133 0146 0D       		.uleb128 0xd
 11134 0147 00       		.byte	0
 11135 0148 03       		.uleb128 0x3
 11136 0149 0E       		.uleb128 0xe
 11137 014a 3A       		.uleb128 0x3a
 11138 014b 0B       		.uleb128 0xb
 11139 014c 3B       		.uleb128 0x3b
 11140 014d 05       		.uleb128 0x5
 11141 014e 49       		.uleb128 0x49
 11142 014f 13       		.uleb128 0x13
 11143 0150 38       		.uleb128 0x38
 11144 0151 0B       		.uleb128 0xb
 11145 0152 00       		.byte	0
 11146 0153 00       		.byte	0
 11147 0154 1D       		.uleb128 0x1d
 11148 0155 17       		.uleb128 0x17
 11149 0156 01       		.byte	0x1
 11150 0157 0B       		.uleb128 0xb
 11151 0158 0B       		.uleb128 0xb
 11152 0159 3A       		.uleb128 0x3a
 11153 015a 0B       		.uleb128 0xb
 11154 015b 3B       		.uleb128 0x3b
 11155 015c 05       		.uleb128 0x5
 11156 015d 01       		.uleb128 0x1
 11157 015e 13       		.uleb128 0x13
 11158 015f 00       		.byte	0
 11159 0160 00       		.byte	0
ARM GAS  C:\Users\haske\AppData\Local\Temp\ccIkbvey.s 			page 235


 11160 0161 1E       		.uleb128 0x1e
 11161 0162 0D       		.uleb128 0xd
 11162 0163 00       		.byte	0
 11163 0164 03       		.uleb128 0x3
 11164 0165 0E       		.uleb128 0xe
 11165 0166 3A       		.uleb128 0x3a
 11166 0167 0B       		.uleb128 0xb
 11167 0168 3B       		.uleb128 0x3b
 11168 0169 05       		.uleb128 0x5
 11169 016a 49       		.uleb128 0x49
 11170 016b 13       		.uleb128 0x13
 11171 016c 00       		.byte	0
 11172 016d 00       		.byte	0
 11173 016e 1F       		.uleb128 0x1f
 11174 016f 0D       		.uleb128 0xd
 11175 0170 00       		.byte	0
 11176 0171 03       		.uleb128 0x3
 11177 0172 08       		.uleb128 0x8
 11178 0173 3A       		.uleb128 0x3a
 11179 0174 0B       		.uleb128 0xb
 11180 0175 3B       		.uleb128 0x3b
 11181 0176 05       		.uleb128 0x5
 11182 0177 49       		.uleb128 0x49
 11183 0178 13       		.uleb128 0x13
 11184 0179 38       		.uleb128 0x38
 11185 017a 0B       		.uleb128 0xb
 11186 017b 00       		.byte	0
 11187 017c 00       		.byte	0
 11188 017d 20       		.uleb128 0x20
 11189 017e 35       		.uleb128 0x35
 11190 017f 00       		.byte	0
 11191 0180 49       		.uleb128 0x49
 11192 0181 13       		.uleb128 0x13
 11193 0182 00       		.byte	0
 11194 0183 00       		.byte	0
 11195 0184 21       		.uleb128 0x21
 11196 0185 13       		.uleb128 0x13
 11197 0186 01       		.byte	0x1
 11198 0187 03       		.uleb128 0x3
 11199 0188 0E       		.uleb128 0xe
 11200 0189 0B       		.uleb128 0xb
 11201 018a 05       		.uleb128 0x5
 11202 018b 3A       		.uleb128 0x3a
 11203 018c 0B       		.uleb128 0xb
 11204 018d 3B       		.uleb128 0x3b
 11205 018e 0B       		.uleb128 0xb
 11206 018f 01       		.uleb128 0x1
 11207 0190 13       		.uleb128 0x13
 11208 0191 00       		.byte	0
 11209 0192 00       		.byte	0
 11210 0193 22       		.uleb128 0x22
 11211 0194 0D       		.uleb128 0xd
 11212 0195 00       		.byte	0
 11213 0196 03       		.uleb128 0x3
 11214 0197 0E       		.uleb128 0xe
 11215 0198 3A       		.uleb128 0x3a
 11216 0199 0B       		.uleb128 0xb
ARM GAS  C:\Users\haske\AppData\Local\Temp\ccIkbvey.s 			page 236


 11217 019a 3B       		.uleb128 0x3b
 11218 019b 0B       		.uleb128 0xb
 11219 019c 49       		.uleb128 0x49
 11220 019d 13       		.uleb128 0x13
 11221 019e 38       		.uleb128 0x38
 11222 019f 05       		.uleb128 0x5
 11223 01a0 00       		.byte	0
 11224 01a1 00       		.byte	0
 11225 01a2 23       		.uleb128 0x23
 11226 01a3 28       		.uleb128 0x28
 11227 01a4 00       		.byte	0
 11228 01a5 03       		.uleb128 0x3
 11229 01a6 0E       		.uleb128 0xe
 11230 01a7 1C       		.uleb128 0x1c
 11231 01a8 06       		.uleb128 0x6
 11232 01a9 00       		.byte	0
 11233 01aa 00       		.byte	0
 11234 01ab 24       		.uleb128 0x24
 11235 01ac 13       		.uleb128 0x13
 11236 01ad 00       		.byte	0
 11237 01ae 03       		.uleb128 0x3
 11238 01af 0E       		.uleb128 0xe
 11239 01b0 3C       		.uleb128 0x3c
 11240 01b1 19       		.uleb128 0x19
 11241 01b2 00       		.byte	0
 11242 01b3 00       		.byte	0
 11243 01b4 25       		.uleb128 0x25
 11244 01b5 2E       		.uleb128 0x2e
 11245 01b6 01       		.byte	0x1
 11246 01b7 03       		.uleb128 0x3
 11247 01b8 0E       		.uleb128 0xe
 11248 01b9 3A       		.uleb128 0x3a
 11249 01ba 0B       		.uleb128 0xb
 11250 01bb 3B       		.uleb128 0x3b
 11251 01bc 05       		.uleb128 0x5
 11252 01bd 27       		.uleb128 0x27
 11253 01be 19       		.uleb128 0x19
 11254 01bf 49       		.uleb128 0x49
 11255 01c0 13       		.uleb128 0x13
 11256 01c1 20       		.uleb128 0x20
 11257 01c2 0B       		.uleb128 0xb
 11258 01c3 01       		.uleb128 0x1
 11259 01c4 13       		.uleb128 0x13
 11260 01c5 00       		.byte	0
 11261 01c6 00       		.byte	0
 11262 01c7 26       		.uleb128 0x26
 11263 01c8 05       		.uleb128 0x5
 11264 01c9 00       		.byte	0
 11265 01ca 03       		.uleb128 0x3
 11266 01cb 08       		.uleb128 0x8
 11267 01cc 3A       		.uleb128 0x3a
 11268 01cd 0B       		.uleb128 0xb
 11269 01ce 3B       		.uleb128 0x3b
 11270 01cf 05       		.uleb128 0x5
 11271 01d0 49       		.uleb128 0x49
 11272 01d1 13       		.uleb128 0x13
 11273 01d2 00       		.byte	0
ARM GAS  C:\Users\haske\AppData\Local\Temp\ccIkbvey.s 			page 237


 11274 01d3 00       		.byte	0
 11275 01d4 27       		.uleb128 0x27
 11276 01d5 2E       		.uleb128 0x2e
 11277 01d6 01       		.byte	0x1
 11278 01d7 03       		.uleb128 0x3
 11279 01d8 0E       		.uleb128 0xe
 11280 01d9 3A       		.uleb128 0x3a
 11281 01da 0B       		.uleb128 0xb
 11282 01db 3B       		.uleb128 0x3b
 11283 01dc 0B       		.uleb128 0xb
 11284 01dd 27       		.uleb128 0x27
 11285 01de 19       		.uleb128 0x19
 11286 01df 49       		.uleb128 0x49
 11287 01e0 13       		.uleb128 0x13
 11288 01e1 20       		.uleb128 0x20
 11289 01e2 0B       		.uleb128 0xb
 11290 01e3 01       		.uleb128 0x1
 11291 01e4 13       		.uleb128 0x13
 11292 01e5 00       		.byte	0
 11293 01e6 00       		.byte	0
 11294 01e7 28       		.uleb128 0x28
 11295 01e8 05       		.uleb128 0x5
 11296 01e9 00       		.byte	0
 11297 01ea 03       		.uleb128 0x3
 11298 01eb 08       		.uleb128 0x8
 11299 01ec 3A       		.uleb128 0x3a
 11300 01ed 0B       		.uleb128 0xb
 11301 01ee 3B       		.uleb128 0x3b
 11302 01ef 0B       		.uleb128 0xb
 11303 01f0 49       		.uleb128 0x49
 11304 01f1 13       		.uleb128 0x13
 11305 01f2 00       		.byte	0
 11306 01f3 00       		.byte	0
 11307 01f4 29       		.uleb128 0x29
 11308 01f5 05       		.uleb128 0x5
 11309 01f6 00       		.byte	0
 11310 01f7 03       		.uleb128 0x3
 11311 01f8 0E       		.uleb128 0xe
 11312 01f9 3A       		.uleb128 0x3a
 11313 01fa 0B       		.uleb128 0xb
 11314 01fb 3B       		.uleb128 0x3b
 11315 01fc 0B       		.uleb128 0xb
 11316 01fd 49       		.uleb128 0x49
 11317 01fe 13       		.uleb128 0x13
 11318 01ff 00       		.byte	0
 11319 0200 00       		.byte	0
 11320 0201 2A       		.uleb128 0x2a
 11321 0202 34       		.uleb128 0x34
 11322 0203 00       		.byte	0
 11323 0204 03       		.uleb128 0x3
 11324 0205 08       		.uleb128 0x8
 11325 0206 3A       		.uleb128 0x3a
 11326 0207 0B       		.uleb128 0xb
 11327 0208 3B       		.uleb128 0x3b
 11328 0209 0B       		.uleb128 0xb
 11329 020a 49       		.uleb128 0x49
 11330 020b 13       		.uleb128 0x13
ARM GAS  C:\Users\haske\AppData\Local\Temp\ccIkbvey.s 			page 238


 11331 020c 00       		.byte	0
 11332 020d 00       		.byte	0
 11333 020e 2B       		.uleb128 0x2b
 11334 020f 05       		.uleb128 0x5
 11335 0210 00       		.byte	0
 11336 0211 03       		.uleb128 0x3
 11337 0212 0E       		.uleb128 0xe
 11338 0213 3A       		.uleb128 0x3a
 11339 0214 0B       		.uleb128 0xb
 11340 0215 3B       		.uleb128 0x3b
 11341 0216 05       		.uleb128 0x5
 11342 0217 49       		.uleb128 0x49
 11343 0218 13       		.uleb128 0x13
 11344 0219 00       		.byte	0
 11345 021a 00       		.byte	0
 11346 021b 2C       		.uleb128 0x2c
 11347 021c 34       		.uleb128 0x34
 11348 021d 00       		.byte	0
 11349 021e 03       		.uleb128 0x3
 11350 021f 08       		.uleb128 0x8
 11351 0220 3A       		.uleb128 0x3a
 11352 0221 0B       		.uleb128 0xb
 11353 0222 3B       		.uleb128 0x3b
 11354 0223 05       		.uleb128 0x5
 11355 0224 49       		.uleb128 0x49
 11356 0225 13       		.uleb128 0x13
 11357 0226 00       		.byte	0
 11358 0227 00       		.byte	0
 11359 0228 2D       		.uleb128 0x2d
 11360 0229 2E       		.uleb128 0x2e
 11361 022a 01       		.byte	0x1
 11362 022b 03       		.uleb128 0x3
 11363 022c 0E       		.uleb128 0xe
 11364 022d 3A       		.uleb128 0x3a
 11365 022e 0B       		.uleb128 0xb
 11366 022f 3B       		.uleb128 0x3b
 11367 0230 0B       		.uleb128 0xb
 11368 0231 27       		.uleb128 0x27
 11369 0232 19       		.uleb128 0x19
 11370 0233 20       		.uleb128 0x20
 11371 0234 0B       		.uleb128 0xb
 11372 0235 01       		.uleb128 0x1
 11373 0236 13       		.uleb128 0x13
 11374 0237 00       		.byte	0
 11375 0238 00       		.byte	0
 11376 0239 2E       		.uleb128 0x2e
 11377 023a 2E       		.uleb128 0x2e
 11378 023b 01       		.byte	0x1
 11379 023c 03       		.uleb128 0x3
 11380 023d 0E       		.uleb128 0xe
 11381 023e 3A       		.uleb128 0x3a
 11382 023f 0B       		.uleb128 0xb
 11383 0240 3B       		.uleb128 0x3b
 11384 0241 05       		.uleb128 0x5
 11385 0242 27       		.uleb128 0x27
 11386 0243 19       		.uleb128 0x19
 11387 0244 11       		.uleb128 0x11
ARM GAS  C:\Users\haske\AppData\Local\Temp\ccIkbvey.s 			page 239


 11388 0245 01       		.uleb128 0x1
 11389 0246 12       		.uleb128 0x12
 11390 0247 06       		.uleb128 0x6
 11391 0248 40       		.uleb128 0x40
 11392 0249 18       		.uleb128 0x18
 11393 024a 9742     		.uleb128 0x2117
 11394 024c 19       		.uleb128 0x19
 11395 024d 01       		.uleb128 0x1
 11396 024e 13       		.uleb128 0x13
 11397 024f 00       		.byte	0
 11398 0250 00       		.byte	0
 11399 0251 2F       		.uleb128 0x2f
 11400 0252 05       		.uleb128 0x5
 11401 0253 00       		.byte	0
 11402 0254 03       		.uleb128 0x3
 11403 0255 08       		.uleb128 0x8
 11404 0256 3A       		.uleb128 0x3a
 11405 0257 0B       		.uleb128 0xb
 11406 0258 3B       		.uleb128 0x3b
 11407 0259 05       		.uleb128 0x5
 11408 025a 49       		.uleb128 0x49
 11409 025b 13       		.uleb128 0x13
 11410 025c 02       		.uleb128 0x2
 11411 025d 17       		.uleb128 0x17
 11412 025e 00       		.byte	0
 11413 025f 00       		.byte	0
 11414 0260 30       		.uleb128 0x30
 11415 0261 34       		.uleb128 0x34
 11416 0262 00       		.byte	0
 11417 0263 03       		.uleb128 0x3
 11418 0264 0E       		.uleb128 0xe
 11419 0265 3A       		.uleb128 0x3a
 11420 0266 0B       		.uleb128 0xb
 11421 0267 3B       		.uleb128 0x3b
 11422 0268 05       		.uleb128 0x5
 11423 0269 49       		.uleb128 0x49
 11424 026a 13       		.uleb128 0x13
 11425 026b 02       		.uleb128 0x2
 11426 026c 17       		.uleb128 0x17
 11427 026d 00       		.byte	0
 11428 026e 00       		.byte	0
 11429 026f 31       		.uleb128 0x31
 11430 0270 34       		.uleb128 0x34
 11431 0271 00       		.byte	0
 11432 0272 03       		.uleb128 0x3
 11433 0273 08       		.uleb128 0x8
 11434 0274 3A       		.uleb128 0x3a
 11435 0275 0B       		.uleb128 0xb
 11436 0276 3B       		.uleb128 0x3b
 11437 0277 05       		.uleb128 0x5
 11438 0278 49       		.uleb128 0x49
 11439 0279 13       		.uleb128 0x13
 11440 027a 02       		.uleb128 0x2
 11441 027b 17       		.uleb128 0x17
 11442 027c 00       		.byte	0
 11443 027d 00       		.byte	0
 11444 027e 32       		.uleb128 0x32
ARM GAS  C:\Users\haske\AppData\Local\Temp\ccIkbvey.s 			page 240


 11445 027f 0B       		.uleb128 0xb
 11446 0280 01       		.byte	0x1
 11447 0281 11       		.uleb128 0x11
 11448 0282 01       		.uleb128 0x1
 11449 0283 12       		.uleb128 0x12
 11450 0284 06       		.uleb128 0x6
 11451 0285 01       		.uleb128 0x1
 11452 0286 13       		.uleb128 0x13
 11453 0287 00       		.byte	0
 11454 0288 00       		.byte	0
 11455 0289 33       		.uleb128 0x33
 11456 028a 0B       		.uleb128 0xb
 11457 028b 01       		.byte	0x1
 11458 028c 11       		.uleb128 0x11
 11459 028d 01       		.uleb128 0x1
 11460 028e 12       		.uleb128 0x12
 11461 028f 06       		.uleb128 0x6
 11462 0290 00       		.byte	0
 11463 0291 00       		.byte	0
 11464 0292 34       		.uleb128 0x34
 11465 0293 2E       		.uleb128 0x2e
 11466 0294 01       		.byte	0x1
 11467 0295 03       		.uleb128 0x3
 11468 0296 0E       		.uleb128 0xe
 11469 0297 3A       		.uleb128 0x3a
 11470 0298 0B       		.uleb128 0xb
 11471 0299 3B       		.uleb128 0x3b
 11472 029a 05       		.uleb128 0x5
 11473 029b 27       		.uleb128 0x27
 11474 029c 19       		.uleb128 0x19
 11475 029d 49       		.uleb128 0x49
 11476 029e 13       		.uleb128 0x13
 11477 029f 11       		.uleb128 0x11
 11478 02a0 01       		.uleb128 0x1
 11479 02a1 12       		.uleb128 0x12
 11480 02a2 06       		.uleb128 0x6
 11481 02a3 40       		.uleb128 0x40
 11482 02a4 18       		.uleb128 0x18
 11483 02a5 9642     		.uleb128 0x2116
 11484 02a7 19       		.uleb128 0x19
 11485 02a8 01       		.uleb128 0x1
 11486 02a9 13       		.uleb128 0x13
 11487 02aa 00       		.byte	0
 11488 02ab 00       		.byte	0
 11489 02ac 35       		.uleb128 0x35
 11490 02ad 05       		.uleb128 0x5
 11491 02ae 00       		.byte	0
 11492 02af 03       		.uleb128 0x3
 11493 02b0 0E       		.uleb128 0xe
 11494 02b1 3A       		.uleb128 0x3a
 11495 02b2 0B       		.uleb128 0xb
 11496 02b3 3B       		.uleb128 0x3b
 11497 02b4 05       		.uleb128 0x5
 11498 02b5 49       		.uleb128 0x49
 11499 02b6 13       		.uleb128 0x13
 11500 02b7 02       		.uleb128 0x2
 11501 02b8 17       		.uleb128 0x17
ARM GAS  C:\Users\haske\AppData\Local\Temp\ccIkbvey.s 			page 241


 11502 02b9 00       		.byte	0
 11503 02ba 00       		.byte	0
 11504 02bb 36       		.uleb128 0x36
 11505 02bc 34       		.uleb128 0x34
 11506 02bd 00       		.byte	0
 11507 02be 03       		.uleb128 0x3
 11508 02bf 08       		.uleb128 0x8
 11509 02c0 3A       		.uleb128 0x3a
 11510 02c1 0B       		.uleb128 0xb
 11511 02c2 3B       		.uleb128 0x3b
 11512 02c3 05       		.uleb128 0x5
 11513 02c4 49       		.uleb128 0x49
 11514 02c5 13       		.uleb128 0x13
 11515 02c6 02       		.uleb128 0x2
 11516 02c7 18       		.uleb128 0x18
 11517 02c8 00       		.byte	0
 11518 02c9 00       		.byte	0
 11519 02ca 37       		.uleb128 0x37
 11520 02cb 34       		.uleb128 0x34
 11521 02cc 00       		.byte	0
 11522 02cd 03       		.uleb128 0x3
 11523 02ce 0E       		.uleb128 0xe
 11524 02cf 3A       		.uleb128 0x3a
 11525 02d0 0B       		.uleb128 0xb
 11526 02d1 3B       		.uleb128 0x3b
 11527 02d2 05       		.uleb128 0x5
 11528 02d3 49       		.uleb128 0x49
 11529 02d4 13       		.uleb128 0x13
 11530 02d5 02       		.uleb128 0x2
 11531 02d6 18       		.uleb128 0x18
 11532 02d7 00       		.byte	0
 11533 02d8 00       		.byte	0
 11534 02d9 38       		.uleb128 0x38
 11535 02da 1D       		.uleb128 0x1d
 11536 02db 01       		.byte	0x1
 11537 02dc 31       		.uleb128 0x31
 11538 02dd 13       		.uleb128 0x13
 11539 02de 11       		.uleb128 0x11
 11540 02df 01       		.uleb128 0x1
 11541 02e0 12       		.uleb128 0x12
 11542 02e1 06       		.uleb128 0x6
 11543 02e2 58       		.uleb128 0x58
 11544 02e3 0B       		.uleb128 0xb
 11545 02e4 59       		.uleb128 0x59
 11546 02e5 05       		.uleb128 0x5
 11547 02e6 01       		.uleb128 0x1
 11548 02e7 13       		.uleb128 0x13
 11549 02e8 00       		.byte	0
 11550 02e9 00       		.byte	0
 11551 02ea 39       		.uleb128 0x39
 11552 02eb 05       		.uleb128 0x5
 11553 02ec 00       		.byte	0
 11554 02ed 31       		.uleb128 0x31
 11555 02ee 13       		.uleb128 0x13
 11556 02ef 02       		.uleb128 0x2
 11557 02f0 17       		.uleb128 0x17
 11558 02f1 00       		.byte	0
ARM GAS  C:\Users\haske\AppData\Local\Temp\ccIkbvey.s 			page 242


 11559 02f2 00       		.byte	0
 11560 02f3 3A       		.uleb128 0x3a
 11561 02f4 898201   		.uleb128 0x4109
 11562 02f7 01       		.byte	0x1
 11563 02f8 11       		.uleb128 0x11
 11564 02f9 01       		.uleb128 0x1
 11565 02fa 31       		.uleb128 0x31
 11566 02fb 13       		.uleb128 0x13
 11567 02fc 01       		.uleb128 0x1
 11568 02fd 13       		.uleb128 0x13
 11569 02fe 00       		.byte	0
 11570 02ff 00       		.byte	0
 11571 0300 3B       		.uleb128 0x3b
 11572 0301 8A8201   		.uleb128 0x410a
 11573 0304 00       		.byte	0
 11574 0305 02       		.uleb128 0x2
 11575 0306 18       		.uleb128 0x18
 11576 0307 9142     		.uleb128 0x2111
 11577 0309 18       		.uleb128 0x18
 11578 030a 00       		.byte	0
 11579 030b 00       		.byte	0
 11580 030c 3C       		.uleb128 0x3c
 11581 030d 898201   		.uleb128 0x4109
 11582 0310 01       		.byte	0x1
 11583 0311 11       		.uleb128 0x11
 11584 0312 01       		.uleb128 0x1
 11585 0313 31       		.uleb128 0x31
 11586 0314 13       		.uleb128 0x13
 11587 0315 00       		.byte	0
 11588 0316 00       		.byte	0
 11589 0317 3D       		.uleb128 0x3d
 11590 0318 2E       		.uleb128 0x2e
 11591 0319 01       		.byte	0x1
 11592 031a 03       		.uleb128 0x3
 11593 031b 0E       		.uleb128 0xe
 11594 031c 3A       		.uleb128 0x3a
 11595 031d 0B       		.uleb128 0xb
 11596 031e 3B       		.uleb128 0x3b
 11597 031f 05       		.uleb128 0x5
 11598 0320 27       		.uleb128 0x27
 11599 0321 19       		.uleb128 0x19
 11600 0322 49       		.uleb128 0x49
 11601 0323 13       		.uleb128 0x13
 11602 0324 11       		.uleb128 0x11
 11603 0325 01       		.uleb128 0x1
 11604 0326 12       		.uleb128 0x12
 11605 0327 06       		.uleb128 0x6
 11606 0328 40       		.uleb128 0x40
 11607 0329 18       		.uleb128 0x18
 11608 032a 9742     		.uleb128 0x2117
 11609 032c 19       		.uleb128 0x19
 11610 032d 01       		.uleb128 0x1
 11611 032e 13       		.uleb128 0x13
 11612 032f 00       		.byte	0
 11613 0330 00       		.byte	0
 11614 0331 3E       		.uleb128 0x3e
 11615 0332 34       		.uleb128 0x34
ARM GAS  C:\Users\haske\AppData\Local\Temp\ccIkbvey.s 			page 243


 11616 0333 00       		.byte	0
 11617 0334 03       		.uleb128 0x3
 11618 0335 0E       		.uleb128 0xe
 11619 0336 3A       		.uleb128 0x3a
 11620 0337 0B       		.uleb128 0xb
 11621 0338 3B       		.uleb128 0x3b
 11622 0339 05       		.uleb128 0x5
 11623 033a 49       		.uleb128 0x49
 11624 033b 13       		.uleb128 0x13
 11625 033c 00       		.byte	0
 11626 033d 00       		.byte	0
 11627 033e 3F       		.uleb128 0x3f
 11628 033f 34       		.uleb128 0x34
 11629 0340 00       		.byte	0
 11630 0341 31       		.uleb128 0x31
 11631 0342 13       		.uleb128 0x13
 11632 0343 00       		.byte	0
 11633 0344 00       		.byte	0
 11634 0345 40       		.uleb128 0x40
 11635 0346 34       		.uleb128 0x34
 11636 0347 00       		.byte	0
 11637 0348 31       		.uleb128 0x31
 11638 0349 13       		.uleb128 0x13
 11639 034a 02       		.uleb128 0x2
 11640 034b 17       		.uleb128 0x17
 11641 034c 00       		.byte	0
 11642 034d 00       		.byte	0
 11643 034e 41       		.uleb128 0x41
 11644 034f 1D       		.uleb128 0x1d
 11645 0350 01       		.byte	0x1
 11646 0351 31       		.uleb128 0x31
 11647 0352 13       		.uleb128 0x13
 11648 0353 11       		.uleb128 0x11
 11649 0354 01       		.uleb128 0x1
 11650 0355 12       		.uleb128 0x12
 11651 0356 06       		.uleb128 0x6
 11652 0357 58       		.uleb128 0x58
 11653 0358 0B       		.uleb128 0xb
 11654 0359 59       		.uleb128 0x59
 11655 035a 05       		.uleb128 0x5
 11656 035b 00       		.byte	0
 11657 035c 00       		.byte	0
 11658 035d 42       		.uleb128 0x42
 11659 035e 898201   		.uleb128 0x4109
 11660 0361 00       		.byte	0
 11661 0362 11       		.uleb128 0x11
 11662 0363 01       		.uleb128 0x1
 11663 0364 31       		.uleb128 0x31
 11664 0365 13       		.uleb128 0x13
 11665 0366 00       		.byte	0
 11666 0367 00       		.byte	0
 11667 0368 43       		.uleb128 0x43
 11668 0369 2E       		.uleb128 0x2e
 11669 036a 01       		.byte	0x1
 11670 036b 03       		.uleb128 0x3
 11671 036c 0E       		.uleb128 0xe
 11672 036d 3A       		.uleb128 0x3a
ARM GAS  C:\Users\haske\AppData\Local\Temp\ccIkbvey.s 			page 244


 11673 036e 0B       		.uleb128 0xb
 11674 036f 3B       		.uleb128 0x3b
 11675 0370 05       		.uleb128 0x5
 11676 0371 27       		.uleb128 0x27
 11677 0372 19       		.uleb128 0x19
 11678 0373 11       		.uleb128 0x11
 11679 0374 01       		.uleb128 0x1
 11680 0375 12       		.uleb128 0x12
 11681 0376 06       		.uleb128 0x6
 11682 0377 40       		.uleb128 0x40
 11683 0378 18       		.uleb128 0x18
 11684 0379 9642     		.uleb128 0x2116
 11685 037b 19       		.uleb128 0x19
 11686 037c 01       		.uleb128 0x1
 11687 037d 13       		.uleb128 0x13
 11688 037e 00       		.byte	0
 11689 037f 00       		.byte	0
 11690 0380 44       		.uleb128 0x44
 11691 0381 2E       		.uleb128 0x2e
 11692 0382 01       		.byte	0x1
 11693 0383 03       		.uleb128 0x3
 11694 0384 0E       		.uleb128 0xe
 11695 0385 3A       		.uleb128 0x3a
 11696 0386 0B       		.uleb128 0xb
 11697 0387 3B       		.uleb128 0x3b
 11698 0388 0B       		.uleb128 0xb
 11699 0389 27       		.uleb128 0x27
 11700 038a 19       		.uleb128 0x19
 11701 038b 11       		.uleb128 0x11
 11702 038c 01       		.uleb128 0x1
 11703 038d 12       		.uleb128 0x12
 11704 038e 06       		.uleb128 0x6
 11705 038f 40       		.uleb128 0x40
 11706 0390 18       		.uleb128 0x18
 11707 0391 9642     		.uleb128 0x2116
 11708 0393 19       		.uleb128 0x19
 11709 0394 01       		.uleb128 0x1
 11710 0395 13       		.uleb128 0x13
 11711 0396 00       		.byte	0
 11712 0397 00       		.byte	0
 11713 0398 45       		.uleb128 0x45
 11714 0399 05       		.uleb128 0x5
 11715 039a 00       		.byte	0
 11716 039b 03       		.uleb128 0x3
 11717 039c 08       		.uleb128 0x8
 11718 039d 3A       		.uleb128 0x3a
 11719 039e 0B       		.uleb128 0xb
 11720 039f 3B       		.uleb128 0x3b
 11721 03a0 0B       		.uleb128 0xb
 11722 03a1 49       		.uleb128 0x49
 11723 03a2 13       		.uleb128 0x13
 11724 03a3 02       		.uleb128 0x2
 11725 03a4 17       		.uleb128 0x17
 11726 03a5 00       		.byte	0
 11727 03a6 00       		.byte	0
 11728 03a7 46       		.uleb128 0x46
 11729 03a8 34       		.uleb128 0x34
ARM GAS  C:\Users\haske\AppData\Local\Temp\ccIkbvey.s 			page 245


 11730 03a9 00       		.byte	0
 11731 03aa 03       		.uleb128 0x3
 11732 03ab 08       		.uleb128 0x8
 11733 03ac 3A       		.uleb128 0x3a
 11734 03ad 0B       		.uleb128 0xb
 11735 03ae 3B       		.uleb128 0x3b
 11736 03af 0B       		.uleb128 0xb
 11737 03b0 49       		.uleb128 0x49
 11738 03b1 13       		.uleb128 0x13
 11739 03b2 02       		.uleb128 0x2
 11740 03b3 17       		.uleb128 0x17
 11741 03b4 00       		.byte	0
 11742 03b5 00       		.byte	0
 11743 03b6 47       		.uleb128 0x47
 11744 03b7 34       		.uleb128 0x34
 11745 03b8 00       		.byte	0
 11746 03b9 03       		.uleb128 0x3
 11747 03ba 0E       		.uleb128 0xe
 11748 03bb 3A       		.uleb128 0x3a
 11749 03bc 0B       		.uleb128 0xb
 11750 03bd 3B       		.uleb128 0x3b
 11751 03be 0B       		.uleb128 0xb
 11752 03bf 49       		.uleb128 0x49
 11753 03c0 13       		.uleb128 0x13
 11754 03c1 02       		.uleb128 0x2
 11755 03c2 17       		.uleb128 0x17
 11756 03c3 00       		.byte	0
 11757 03c4 00       		.byte	0
 11758 03c5 48       		.uleb128 0x48
 11759 03c6 34       		.uleb128 0x34
 11760 03c7 00       		.byte	0
 11761 03c8 03       		.uleb128 0x3
 11762 03c9 0E       		.uleb128 0xe
 11763 03ca 3A       		.uleb128 0x3a
 11764 03cb 0B       		.uleb128 0xb
 11765 03cc 3B       		.uleb128 0x3b
 11766 03cd 0B       		.uleb128 0xb
 11767 03ce 49       		.uleb128 0x49
 11768 03cf 13       		.uleb128 0x13
 11769 03d0 02       		.uleb128 0x2
 11770 03d1 18       		.uleb128 0x18
 11771 03d2 00       		.byte	0
 11772 03d3 00       		.byte	0
 11773 03d4 49       		.uleb128 0x49
 11774 03d5 2E       		.uleb128 0x2e
 11775 03d6 01       		.byte	0x1
 11776 03d7 03       		.uleb128 0x3
 11777 03d8 0E       		.uleb128 0xe
 11778 03d9 3A       		.uleb128 0x3a
 11779 03da 0B       		.uleb128 0xb
 11780 03db 3B       		.uleb128 0x3b
 11781 03dc 0B       		.uleb128 0xb
 11782 03dd 27       		.uleb128 0x27
 11783 03de 19       		.uleb128 0x19
 11784 03df 11       		.uleb128 0x11
 11785 03e0 01       		.uleb128 0x1
 11786 03e1 12       		.uleb128 0x12
ARM GAS  C:\Users\haske\AppData\Local\Temp\ccIkbvey.s 			page 246


 11787 03e2 06       		.uleb128 0x6
 11788 03e3 40       		.uleb128 0x40
 11789 03e4 18       		.uleb128 0x18
 11790 03e5 9742     		.uleb128 0x2117
 11791 03e7 19       		.uleb128 0x19
 11792 03e8 01       		.uleb128 0x1
 11793 03e9 13       		.uleb128 0x13
 11794 03ea 00       		.byte	0
 11795 03eb 00       		.byte	0
 11796 03ec 4A       		.uleb128 0x4a
 11797 03ed 05       		.uleb128 0x5
 11798 03ee 00       		.byte	0
 11799 03ef 03       		.uleb128 0x3
 11800 03f0 0E       		.uleb128 0xe
 11801 03f1 3A       		.uleb128 0x3a
 11802 03f2 0B       		.uleb128 0xb
 11803 03f3 3B       		.uleb128 0x3b
 11804 03f4 0B       		.uleb128 0xb
 11805 03f5 49       		.uleb128 0x49
 11806 03f6 13       		.uleb128 0x13
 11807 03f7 02       		.uleb128 0x2
 11808 03f8 17       		.uleb128 0x17
 11809 03f9 00       		.byte	0
 11810 03fa 00       		.byte	0
 11811 03fb 4B       		.uleb128 0x4b
 11812 03fc 2E       		.uleb128 0x2e
 11813 03fd 01       		.byte	0x1
 11814 03fe 3F       		.uleb128 0x3f
 11815 03ff 19       		.uleb128 0x19
 11816 0400 03       		.uleb128 0x3
 11817 0401 0E       		.uleb128 0xe
 11818 0402 3A       		.uleb128 0x3a
 11819 0403 0B       		.uleb128 0xb
 11820 0404 3B       		.uleb128 0x3b
 11821 0405 0B       		.uleb128 0xb
 11822 0406 27       		.uleb128 0x27
 11823 0407 19       		.uleb128 0x19
 11824 0408 49       		.uleb128 0x49
 11825 0409 13       		.uleb128 0x13
 11826 040a 11       		.uleb128 0x11
 11827 040b 01       		.uleb128 0x1
 11828 040c 12       		.uleb128 0x12
 11829 040d 06       		.uleb128 0x6
 11830 040e 40       		.uleb128 0x40
 11831 040f 18       		.uleb128 0x18
 11832 0410 9742     		.uleb128 0x2117
 11833 0412 19       		.uleb128 0x19
 11834 0413 01       		.uleb128 0x1
 11835 0414 13       		.uleb128 0x13
 11836 0415 00       		.byte	0
 11837 0416 00       		.byte	0
 11838 0417 4C       		.uleb128 0x4c
 11839 0418 2E       		.uleb128 0x2e
 11840 0419 01       		.byte	0x1
 11841 041a 3F       		.uleb128 0x3f
 11842 041b 19       		.uleb128 0x19
 11843 041c 03       		.uleb128 0x3
ARM GAS  C:\Users\haske\AppData\Local\Temp\ccIkbvey.s 			page 247


 11844 041d 0E       		.uleb128 0xe
 11845 041e 3A       		.uleb128 0x3a
 11846 041f 0B       		.uleb128 0xb
 11847 0420 3B       		.uleb128 0x3b
 11848 0421 0B       		.uleb128 0xb
 11849 0422 27       		.uleb128 0x27
 11850 0423 19       		.uleb128 0x19
 11851 0424 49       		.uleb128 0x49
 11852 0425 13       		.uleb128 0x13
 11853 0426 11       		.uleb128 0x11
 11854 0427 01       		.uleb128 0x1
 11855 0428 12       		.uleb128 0x12
 11856 0429 06       		.uleb128 0x6
 11857 042a 40       		.uleb128 0x40
 11858 042b 18       		.uleb128 0x18
 11859 042c 9642     		.uleb128 0x2116
 11860 042e 19       		.uleb128 0x19
 11861 042f 01       		.uleb128 0x1
 11862 0430 13       		.uleb128 0x13
 11863 0431 00       		.byte	0
 11864 0432 00       		.byte	0
 11865 0433 4D       		.uleb128 0x4d
 11866 0434 05       		.uleb128 0x5
 11867 0435 00       		.byte	0
 11868 0436 03       		.uleb128 0x3
 11869 0437 08       		.uleb128 0x8
 11870 0438 3A       		.uleb128 0x3a
 11871 0439 0B       		.uleb128 0xb
 11872 043a 3B       		.uleb128 0x3b
 11873 043b 0B       		.uleb128 0xb
 11874 043c 49       		.uleb128 0x49
 11875 043d 13       		.uleb128 0x13
 11876 043e 02       		.uleb128 0x2
 11877 043f 18       		.uleb128 0x18
 11878 0440 00       		.byte	0
 11879 0441 00       		.byte	0
 11880 0442 4E       		.uleb128 0x4e
 11881 0443 1D       		.uleb128 0x1d
 11882 0444 01       		.byte	0x1
 11883 0445 31       		.uleb128 0x31
 11884 0446 13       		.uleb128 0x13
 11885 0447 11       		.uleb128 0x11
 11886 0448 01       		.uleb128 0x1
 11887 0449 12       		.uleb128 0x12
 11888 044a 06       		.uleb128 0x6
 11889 044b 58       		.uleb128 0x58
 11890 044c 0B       		.uleb128 0xb
 11891 044d 59       		.uleb128 0x59
 11892 044e 0B       		.uleb128 0xb
 11893 044f 01       		.uleb128 0x1
 11894 0450 13       		.uleb128 0x13
 11895 0451 00       		.byte	0
 11896 0452 00       		.byte	0
 11897 0453 4F       		.uleb128 0x4f
 11898 0454 05       		.uleb128 0x5
 11899 0455 00       		.byte	0
 11900 0456 31       		.uleb128 0x31
ARM GAS  C:\Users\haske\AppData\Local\Temp\ccIkbvey.s 			page 248


 11901 0457 13       		.uleb128 0x13
 11902 0458 00       		.byte	0
 11903 0459 00       		.byte	0
 11904 045a 50       		.uleb128 0x50
 11905 045b 2E       		.uleb128 0x2e
 11906 045c 01       		.byte	0x1
 11907 045d 3F       		.uleb128 0x3f
 11908 045e 19       		.uleb128 0x19
 11909 045f 03       		.uleb128 0x3
 11910 0460 0E       		.uleb128 0xe
 11911 0461 3A       		.uleb128 0x3a
 11912 0462 0B       		.uleb128 0xb
 11913 0463 3B       		.uleb128 0x3b
 11914 0464 0B       		.uleb128 0xb
 11915 0465 27       		.uleb128 0x27
 11916 0466 19       		.uleb128 0x19
 11917 0467 11       		.uleb128 0x11
 11918 0468 01       		.uleb128 0x1
 11919 0469 12       		.uleb128 0x12
 11920 046a 06       		.uleb128 0x6
 11921 046b 40       		.uleb128 0x40
 11922 046c 18       		.uleb128 0x18
 11923 046d 9742     		.uleb128 0x2117
 11924 046f 19       		.uleb128 0x19
 11925 0470 01       		.uleb128 0x1
 11926 0471 13       		.uleb128 0x13
 11927 0472 00       		.byte	0
 11928 0473 00       		.byte	0
 11929 0474 51       		.uleb128 0x51
 11930 0475 34       		.uleb128 0x34
 11931 0476 00       		.byte	0
 11932 0477 03       		.uleb128 0x3
 11933 0478 0E       		.uleb128 0xe
 11934 0479 3A       		.uleb128 0x3a
 11935 047a 0B       		.uleb128 0xb
 11936 047b 3B       		.uleb128 0x3b
 11937 047c 0B       		.uleb128 0xb
 11938 047d 49       		.uleb128 0x49
 11939 047e 13       		.uleb128 0x13
 11940 047f 3F       		.uleb128 0x3f
 11941 0480 19       		.uleb128 0x19
 11942 0481 3C       		.uleb128 0x3c
 11943 0482 19       		.uleb128 0x19
 11944 0483 00       		.byte	0
 11945 0484 00       		.byte	0
 11946 0485 52       		.uleb128 0x52
 11947 0486 34       		.uleb128 0x34
 11948 0487 00       		.byte	0
 11949 0488 03       		.uleb128 0x3
 11950 0489 0E       		.uleb128 0xe
 11951 048a 3A       		.uleb128 0x3a
 11952 048b 0B       		.uleb128 0xb
 11953 048c 3B       		.uleb128 0x3b
 11954 048d 0B       		.uleb128 0xb
 11955 048e 49       		.uleb128 0x49
 11956 048f 13       		.uleb128 0x13
 11957 0490 3F       		.uleb128 0x3f
ARM GAS  C:\Users\haske\AppData\Local\Temp\ccIkbvey.s 			page 249


 11958 0491 19       		.uleb128 0x19
 11959 0492 02       		.uleb128 0x2
 11960 0493 18       		.uleb128 0x18
 11961 0494 00       		.byte	0
 11962 0495 00       		.byte	0
 11963 0496 53       		.uleb128 0x53
 11964 0497 2E       		.uleb128 0x2e
 11965 0498 00       		.byte	0
 11966 0499 3F       		.uleb128 0x3f
 11967 049a 19       		.uleb128 0x19
 11968 049b 3C       		.uleb128 0x3c
 11969 049c 19       		.uleb128 0x19
 11970 049d 6E       		.uleb128 0x6e
 11971 049e 0E       		.uleb128 0xe
 11972 049f 03       		.uleb128 0x3
 11973 04a0 0E       		.uleb128 0xe
 11974 04a1 3A       		.uleb128 0x3a
 11975 04a2 0B       		.uleb128 0xb
 11976 04a3 3B       		.uleb128 0x3b
 11977 04a4 0B       		.uleb128 0xb
 11978 04a5 00       		.byte	0
 11979 04a6 00       		.byte	0
 11980 04a7 54       		.uleb128 0x54
 11981 04a8 2E       		.uleb128 0x2e
 11982 04a9 00       		.byte	0
 11983 04aa 3F       		.uleb128 0x3f
 11984 04ab 19       		.uleb128 0x19
 11985 04ac 3C       		.uleb128 0x3c
 11986 04ad 19       		.uleb128 0x19
 11987 04ae 6E       		.uleb128 0x6e
 11988 04af 0E       		.uleb128 0xe
 11989 04b0 03       		.uleb128 0x3
 11990 04b1 0E       		.uleb128 0xe
 11991 04b2 3A       		.uleb128 0x3a
 11992 04b3 0B       		.uleb128 0xb
 11993 04b4 3B       		.uleb128 0x3b
 11994 04b5 05       		.uleb128 0x5
 11995 04b6 00       		.byte	0
 11996 04b7 00       		.byte	0
 11997 04b8 00       		.byte	0
 11998              		.section	.debug_loc,"",%progbits
 11999              	.Ldebug_loc0:
 12000              	.LLST0:
 12001 0000 00000000 		.4byte	.LVL0
 12002 0004 6E000000 		.4byte	.LVL23
 12003 0008 0100     		.2byte	0x1
 12004 000a 50       		.byte	0x50
 12005 000b 6E000000 		.4byte	.LVL23
 12006 000f 72000000 		.4byte	.LVL25
 12007 0013 0400     		.2byte	0x4
 12008 0015 F3       		.byte	0xf3
 12009 0016 01       		.uleb128 0x1
 12010 0017 50       		.byte	0x50
 12011 0018 9F       		.byte	0x9f
 12012 0019 72000000 		.4byte	.LVL25
 12013 001d 76000000 		.4byte	.LVL27
 12014 0021 0100     		.2byte	0x1
ARM GAS  C:\Users\haske\AppData\Local\Temp\ccIkbvey.s 			page 250


 12015 0023 50       		.byte	0x50
 12016 0024 76000000 		.4byte	.LVL27
 12017 0028 88000000 		.4byte	.LFE220
 12018 002c 0400     		.2byte	0x4
 12019 002e F3       		.byte	0xf3
 12020 002f 01       		.uleb128 0x1
 12021 0030 50       		.byte	0x50
 12022 0031 9F       		.byte	0x9f
 12023 0032 00000000 		.4byte	0
 12024 0036 00000000 		.4byte	0
 12025              	.LLST1:
 12026 003a 00000000 		.4byte	.LVL0
 12027 003e 08000000 		.4byte	.LVL1
 12028 0042 0100     		.2byte	0x1
 12029 0044 51       		.byte	0x51
 12030 0045 08000000 		.4byte	.LVL1
 12031 0049 12000000 		.4byte	.LVL2
 12032 004d 0400     		.2byte	0x4
 12033 004f F3       		.byte	0xf3
 12034 0050 01       		.uleb128 0x1
 12035 0051 51       		.byte	0x51
 12036 0052 9F       		.byte	0x9f
 12037 0053 12000000 		.4byte	.LVL2
 12038 0057 68000000 		.4byte	.LVL20
 12039 005b 0100     		.2byte	0x1
 12040 005d 51       		.byte	0x51
 12041 005e 68000000 		.4byte	.LVL20
 12042 0062 6A000000 		.4byte	.LVL21
 12043 0066 0400     		.2byte	0x4
 12044 0068 F3       		.byte	0xf3
 12045 0069 01       		.uleb128 0x1
 12046 006a 51       		.byte	0x51
 12047 006b 9F       		.byte	0x9f
 12048 006c 6A000000 		.4byte	.LVL21
 12049 0070 70000000 		.4byte	.LVL24
 12050 0074 0100     		.2byte	0x1
 12051 0076 51       		.byte	0x51
 12052 0077 70000000 		.4byte	.LVL24
 12053 007b 72000000 		.4byte	.LVL25
 12054 007f 0400     		.2byte	0x4
 12055 0081 F3       		.byte	0xf3
 12056 0082 01       		.uleb128 0x1
 12057 0083 51       		.byte	0x51
 12058 0084 9F       		.byte	0x9f
 12059 0085 72000000 		.4byte	.LVL25
 12060 0089 78000000 		.4byte	.LVL28
 12061 008d 0100     		.2byte	0x1
 12062 008f 51       		.byte	0x51
 12063 0090 78000000 		.4byte	.LVL28
 12064 0094 88000000 		.4byte	.LFE220
 12065 0098 0400     		.2byte	0x4
 12066 009a F3       		.byte	0xf3
 12067 009b 01       		.uleb128 0x1
 12068 009c 51       		.byte	0x51
 12069 009d 9F       		.byte	0x9f
 12070 009e 00000000 		.4byte	0
 12071 00a2 00000000 		.4byte	0
ARM GAS  C:\Users\haske\AppData\Local\Temp\ccIkbvey.s 			page 251


 12072              	.LLST2:
 12073 00a6 00000000 		.4byte	.LVL0
 12074 00aa 54000000 		.4byte	.LVL14
 12075 00ae 0100     		.2byte	0x1
 12076 00b0 52       		.byte	0x52
 12077 00b1 54000000 		.4byte	.LVL14
 12078 00b5 5C000000 		.4byte	.LVL17
 12079 00b9 0300     		.2byte	0x3
 12080 00bb 91       		.byte	0x91
 12081 00bc 00       		.sleb128 0
 12082 00bd 06       		.byte	0x6
 12083 00be 5C000000 		.4byte	.LVL17
 12084 00c2 88000000 		.4byte	.LFE220
 12085 00c6 0400     		.2byte	0x4
 12086 00c8 F3       		.byte	0xf3
 12087 00c9 01       		.uleb128 0x1
 12088 00ca 52       		.byte	0x52
 12089 00cb 9F       		.byte	0x9f
 12090 00cc 00000000 		.4byte	0
 12091 00d0 00000000 		.4byte	0
 12092              	.LLST3:
 12093 00d4 00000000 		.4byte	.LVL0
 12094 00d8 1C000000 		.4byte	.LVL4
 12095 00dc 0100     		.2byte	0x1
 12096 00de 53       		.byte	0x53
 12097 00df 1C000000 		.4byte	.LVL4
 12098 00e3 1E000000 		.4byte	.LVL5
 12099 00e7 0100     		.2byte	0x1
 12100 00e9 54       		.byte	0x54
 12101 00ea 1E000000 		.4byte	.LVL5
 12102 00ee 40000000 		.4byte	.LVL8
 12103 00f2 0100     		.2byte	0x1
 12104 00f4 53       		.byte	0x53
 12105 00f5 40000000 		.4byte	.LVL8
 12106 00f9 44000000 		.4byte	.LVL10
 12107 00fd 0100     		.2byte	0x1
 12108 00ff 54       		.byte	0x54
 12109 0100 44000000 		.4byte	.LVL10
 12110 0104 48000000 		.4byte	.LVL11
 12111 0108 0100     		.2byte	0x1
 12112 010a 53       		.byte	0x53
 12113 010b 48000000 		.4byte	.LVL11
 12114 010f 4A000000 		.4byte	.LVL12
 12115 0113 0100     		.2byte	0x1
 12116 0115 54       		.byte	0x54
 12117 0116 4A000000 		.4byte	.LVL12
 12118 011a 88000000 		.4byte	.LFE220
 12119 011e 0100     		.2byte	0x1
 12120 0120 53       		.byte	0x53
 12121 0121 00000000 		.4byte	0
 12122 0125 00000000 		.4byte	0
 12123              	.LLST4:
 12124 0129 00000000 		.4byte	.LVL0
 12125 012d 28000000 		.4byte	.LVL6
 12126 0131 0200     		.2byte	0x2
 12127 0133 91       		.byte	0x91
 12128 0134 00       		.sleb128 0
ARM GAS  C:\Users\haske\AppData\Local\Temp\ccIkbvey.s 			page 252


 12129 0135 2A000000 		.4byte	.LVL7
 12130 0139 42000000 		.4byte	.LVL9
 12131 013d 0200     		.2byte	0x2
 12132 013f 91       		.byte	0x91
 12133 0140 00       		.sleb128 0
 12134 0141 44000000 		.4byte	.LVL10
 12135 0145 88000000 		.4byte	.LFE220
 12136 0149 0200     		.2byte	0x2
 12137 014b 91       		.byte	0x91
 12138 014c 00       		.sleb128 0
 12139 014d 00000000 		.4byte	0
 12140 0151 00000000 		.4byte	0
 12141              	.LLST5:
 12142 0155 00000000 		.4byte	.LVL0
 12143 0159 1E000000 		.4byte	.LVL5
 12144 015d 0200     		.2byte	0x2
 12145 015f 91       		.byte	0x91
 12146 0160 04       		.sleb128 4
 12147 0161 1E000000 		.4byte	.LVL5
 12148 0165 88000000 		.4byte	.LFE220
 12149 0169 0200     		.2byte	0x2
 12150 016b 91       		.byte	0x91
 12151 016c 04       		.sleb128 4
 12152 016d 00000000 		.4byte	0
 12153 0171 00000000 		.4byte	0
 12154              	.LLST6:
 12155 0175 14000000 		.4byte	.LVL3
 12156 0179 62000000 		.4byte	.LVL19
 12157 017d 0100     		.2byte	0x1
 12158 017f 55       		.byte	0x55
 12159 0180 62000000 		.4byte	.LVL19
 12160 0184 6E000000 		.4byte	.LVL23
 12161 0188 0500     		.2byte	0x5
 12162 018a 70       		.byte	0x70
 12163 018b 00       		.sleb128 0
 12164 018c 38       		.byte	0x38
 12165 018d 25       		.byte	0x25
 12166 018e 9F       		.byte	0x9f
 12167 018f 72000000 		.4byte	.LVL25
 12168 0193 76000000 		.4byte	.LVL27
 12169 0197 0500     		.2byte	0x5
 12170 0199 70       		.byte	0x70
 12171 019a 00       		.sleb128 0
 12172 019b 38       		.byte	0x38
 12173 019c 25       		.byte	0x25
 12174 019d 9F       		.byte	0x9f
 12175 019e 00000000 		.4byte	0
 12176 01a2 00000000 		.4byte	0
 12177              	.LLST7:
 12178 01a6 52000000 		.4byte	.LVL13
 12179 01aa 56000000 		.4byte	.LVL15
 12180 01ae 0100     		.2byte	0x1
 12181 01b0 54       		.byte	0x54
 12182 01b1 56000000 		.4byte	.LVL15
 12183 01b5 68000000 		.4byte	.LVL20
 12184 01b9 0400     		.2byte	0x4
 12185 01bb 71       		.byte	0x71
ARM GAS  C:\Users\haske\AppData\Local\Temp\ccIkbvey.s 			page 253


 12186 01bc 00       		.sleb128 0
 12187 01bd 20       		.byte	0x20
 12188 01be 9F       		.byte	0x9f
 12189 01bf 6A000000 		.4byte	.LVL21
 12190 01c3 70000000 		.4byte	.LVL24
 12191 01c7 0400     		.2byte	0x4
 12192 01c9 71       		.byte	0x71
 12193 01ca 00       		.sleb128 0
 12194 01cb 20       		.byte	0x20
 12195 01cc 9F       		.byte	0x9f
 12196 01cd 72000000 		.4byte	.LVL25
 12197 01d1 78000000 		.4byte	.LVL28
 12198 01d5 0400     		.2byte	0x4
 12199 01d7 71       		.byte	0x71
 12200 01d8 00       		.sleb128 0
 12201 01d9 20       		.byte	0x20
 12202 01da 9F       		.byte	0x9f
 12203 01db 7C000000 		.4byte	.LVL30
 12204 01df 7E000000 		.4byte	.LVL31
 12205 01e3 0100     		.2byte	0x1
 12206 01e5 51       		.byte	0x51
 12207 01e6 7E000000 		.4byte	.LVL31
 12208 01ea 80000000 		.4byte	.LVL32
 12209 01ee 0400     		.2byte	0x4
 12210 01f0 71       		.byte	0x71
 12211 01f1 00       		.sleb128 0
 12212 01f2 20       		.byte	0x20
 12213 01f3 9F       		.byte	0x9f
 12214 01f4 80000000 		.4byte	.LVL32
 12215 01f8 86000000 		.4byte	.LVL35
 12216 01fc 0100     		.2byte	0x1
 12217 01fe 51       		.byte	0x51
 12218 01ff 00000000 		.4byte	0
 12219 0203 00000000 		.4byte	0
 12220              	.LLST8:
 12221 0207 56000000 		.4byte	.LVL15
 12222 020b 58000000 		.4byte	.LVL16
 12223 020f 0100     		.2byte	0x1
 12224 0211 54       		.byte	0x54
 12225 0212 58000000 		.4byte	.LVL16
 12226 0216 68000000 		.4byte	.LVL20
 12227 021a 0A00     		.2byte	0xa
 12228 021c 71       		.byte	0x71
 12229 021d 00       		.sleb128 0
 12230 021e 20       		.byte	0x20
 12231 021f 08       		.byte	0x8
 12232 0220 FF       		.byte	0xff
 12233 0221 1A       		.byte	0x1a
 12234 0222 72       		.byte	0x72
 12235 0223 00       		.sleb128 0
 12236 0224 1E       		.byte	0x1e
 12237 0225 9F       		.byte	0x9f
 12238 0226 6A000000 		.4byte	.LVL21
 12239 022a 70000000 		.4byte	.LVL24
 12240 022e 0A00     		.2byte	0xa
 12241 0230 71       		.byte	0x71
 12242 0231 00       		.sleb128 0
ARM GAS  C:\Users\haske\AppData\Local\Temp\ccIkbvey.s 			page 254


 12243 0232 20       		.byte	0x20
 12244 0233 08       		.byte	0x8
 12245 0234 FF       		.byte	0xff
 12246 0235 1A       		.byte	0x1a
 12247 0236 72       		.byte	0x72
 12248 0237 00       		.sleb128 0
 12249 0238 1E       		.byte	0x1e
 12250 0239 9F       		.byte	0x9f
 12251 023a 72000000 		.4byte	.LVL25
 12252 023e 78000000 		.4byte	.LVL28
 12253 0242 0A00     		.2byte	0xa
 12254 0244 71       		.byte	0x71
 12255 0245 00       		.sleb128 0
 12256 0246 20       		.byte	0x20
 12257 0247 08       		.byte	0x8
 12258 0248 FF       		.byte	0xff
 12259 0249 1A       		.byte	0x1a
 12260 024a 72       		.byte	0x72
 12261 024b 00       		.sleb128 0
 12262 024c 1E       		.byte	0x1e
 12263 024d 9F       		.byte	0x9f
 12264 024e 78000000 		.4byte	.LVL28
 12265 0252 7A000000 		.4byte	.LVL29
 12266 0256 0100     		.2byte	0x1
 12267 0258 51       		.byte	0x51
 12268 0259 82000000 		.4byte	.LVL33
 12269 025d 84000000 		.4byte	.LVL34
 12270 0261 0100     		.2byte	0x1
 12271 0263 52       		.byte	0x52
 12272 0264 00000000 		.4byte	0
 12273 0268 00000000 		.4byte	0
 12274              	.LLST9:
 12275 026c 5E000000 		.4byte	.LVL18
 12276 0270 6C000000 		.4byte	.LVL22
 12277 0274 0100     		.2byte	0x1
 12278 0276 54       		.byte	0x54
 12279 0277 6C000000 		.4byte	.LVL22
 12280 027b 72000000 		.4byte	.LVL25
 12281 027f 0400     		.2byte	0x4
 12282 0281 74       		.byte	0x74
 12283 0282 00       		.sleb128 0
 12284 0283 1F       		.byte	0x1f
 12285 0284 9F       		.byte	0x9f
 12286 0285 72000000 		.4byte	.LVL25
 12287 0289 74000000 		.4byte	.LVL26
 12288 028d 0100     		.2byte	0x1
 12289 028f 54       		.byte	0x54
 12290 0290 74000000 		.4byte	.LVL26
 12291 0294 76000000 		.4byte	.LVL27
 12292 0298 0100     		.2byte	0x1
 12293 029a 50       		.byte	0x50
 12294 029b 00000000 		.4byte	0
 12295 029f 00000000 		.4byte	0
 12296              	.LLST10:
 12297 02a3 00000000 		.4byte	.LVL36
 12298 02a7 4E000000 		.4byte	.LVL38
 12299 02ab 0100     		.2byte	0x1
ARM GAS  C:\Users\haske\AppData\Local\Temp\ccIkbvey.s 			page 255


 12300 02ad 50       		.byte	0x50
 12301 02ae 4E000000 		.4byte	.LVL38
 12302 02b2 9A000000 		.4byte	.LVL43
 12303 02b6 0100     		.2byte	0x1
 12304 02b8 56       		.byte	0x56
 12305 02b9 9A000000 		.4byte	.LVL43
 12306 02bd A4000000 		.4byte	.LVL44
 12307 02c1 0100     		.2byte	0x1
 12308 02c3 50       		.byte	0x50
 12309 02c4 A4000000 		.4byte	.LVL44
 12310 02c8 EC000000 		.4byte	.LVL49
 12311 02cc 0100     		.2byte	0x1
 12312 02ce 56       		.byte	0x56
 12313 02cf EC000000 		.4byte	.LVL49
 12314 02d3 F8000000 		.4byte	.LVL50
 12315 02d7 0100     		.2byte	0x1
 12316 02d9 50       		.byte	0x50
 12317 02da F8000000 		.4byte	.LVL50
 12318 02de 5E010000 		.4byte	.LVL59
 12319 02e2 0100     		.2byte	0x1
 12320 02e4 56       		.byte	0x56
 12321 02e5 5E010000 		.4byte	.LVL59
 12322 02e9 68010000 		.4byte	.LFE221
 12323 02ed 0400     		.2byte	0x4
 12324 02ef F3       		.byte	0xf3
 12325 02f0 01       		.uleb128 0x1
 12326 02f1 50       		.byte	0x50
 12327 02f2 9F       		.byte	0x9f
 12328 02f3 00000000 		.4byte	0
 12329 02f7 00000000 		.4byte	0
 12330              	.LLST11:
 12331 02fb 00000000 		.4byte	.LVL36
 12332 02ff 56000000 		.4byte	.LVL39
 12333 0303 0100     		.2byte	0x1
 12334 0305 51       		.byte	0x51
 12335 0306 56000000 		.4byte	.LVL39
 12336 030a 9A000000 		.4byte	.LVL43
 12337 030e 0400     		.2byte	0x4
 12338 0310 F3       		.byte	0xf3
 12339 0311 01       		.uleb128 0x1
 12340 0312 51       		.byte	0x51
 12341 0313 9F       		.byte	0x9f
 12342 0314 9A000000 		.4byte	.LVL43
 12343 0318 AC000000 		.4byte	.LVL45
 12344 031c 0100     		.2byte	0x1
 12345 031e 51       		.byte	0x51
 12346 031f AC000000 		.4byte	.LVL45
 12347 0323 EC000000 		.4byte	.LVL49
 12348 0327 0400     		.2byte	0x4
 12349 0329 F3       		.byte	0xf3
 12350 032a 01       		.uleb128 0x1
 12351 032b 51       		.byte	0x51
 12352 032c 9F       		.byte	0x9f
 12353 032d EC000000 		.4byte	.LVL49
 12354 0331 FE000000 		.4byte	.LVL51
 12355 0335 0100     		.2byte	0x1
 12356 0337 51       		.byte	0x51
ARM GAS  C:\Users\haske\AppData\Local\Temp\ccIkbvey.s 			page 256


 12357 0338 FE000000 		.4byte	.LVL51
 12358 033c 68010000 		.4byte	.LFE221
 12359 0340 0400     		.2byte	0x4
 12360 0342 F3       		.byte	0xf3
 12361 0343 01       		.uleb128 0x1
 12362 0344 51       		.byte	0x51
 12363 0345 9F       		.byte	0x9f
 12364 0346 00000000 		.4byte	0
 12365 034a 00000000 		.4byte	0
 12366              	.LLST12:
 12367 034e 08000000 		.4byte	.LVL37
 12368 0352 4E000000 		.4byte	.LVL38
 12369 0356 0100     		.2byte	0x1
 12370 0358 50       		.byte	0x50
 12371 0359 4E000000 		.4byte	.LVL38
 12372 035d 9A000000 		.4byte	.LVL43
 12373 0361 0100     		.2byte	0x1
 12374 0363 56       		.byte	0x56
 12375 0364 9A000000 		.4byte	.LVL43
 12376 0368 A4000000 		.4byte	.LVL44
 12377 036c 0100     		.2byte	0x1
 12378 036e 50       		.byte	0x50
 12379 036f A4000000 		.4byte	.LVL44
 12380 0373 EC000000 		.4byte	.LVL49
 12381 0377 0100     		.2byte	0x1
 12382 0379 56       		.byte	0x56
 12383 037a EC000000 		.4byte	.LVL49
 12384 037e F8000000 		.4byte	.LVL50
 12385 0382 0100     		.2byte	0x1
 12386 0384 50       		.byte	0x50
 12387 0385 F8000000 		.4byte	.LVL50
 12388 0389 5E010000 		.4byte	.LVL59
 12389 038d 0100     		.2byte	0x1
 12390 038f 56       		.byte	0x56
 12391 0390 5E010000 		.4byte	.LVL59
 12392 0394 68010000 		.4byte	.LFE221
 12393 0398 0400     		.2byte	0x4
 12394 039a F3       		.byte	0xf3
 12395 039b 01       		.uleb128 0x1
 12396 039c 50       		.byte	0x50
 12397 039d 9F       		.byte	0x9f
 12398 039e 00000000 		.4byte	0
 12399 03a2 00000000 		.4byte	0
 12400              	.LLST13:
 12401 03a6 4E010000 		.4byte	.LVL55
 12402 03aa 5C010000 		.4byte	.LVL58
 12403 03ae 0100     		.2byte	0x1
 12404 03b0 51       		.byte	0x51
 12405 03b1 00000000 		.4byte	0
 12406 03b5 00000000 		.4byte	0
 12407              	.LLST14:
 12408 03b9 4E010000 		.4byte	.LVL55
 12409 03bd 54010000 		.4byte	.LVL57
 12410 03c1 0100     		.2byte	0x1
 12411 03c3 52       		.byte	0x52
 12412 03c4 54010000 		.4byte	.LVL57
 12413 03c8 5C010000 		.4byte	.LVL58
ARM GAS  C:\Users\haske\AppData\Local\Temp\ccIkbvey.s 			page 257


 12414 03cc 0200     		.2byte	0x2
 12415 03ce 91       		.byte	0x91
 12416 03cf 66       		.sleb128 -26
 12417 03d0 00000000 		.4byte	0
 12418 03d4 00000000 		.4byte	0
 12419              	.LLST15:
 12420 03d8 4E010000 		.4byte	.LVL55
 12421 03dc 50010000 		.4byte	.LVL56
 12422 03e0 0100     		.2byte	0x1
 12423 03e2 53       		.byte	0x53
 12424 03e3 50010000 		.4byte	.LVL56
 12425 03e7 5C010000 		.4byte	.LVL58
 12426 03eb 0200     		.2byte	0x2
 12427 03ed 91       		.byte	0x91
 12428 03ee 67       		.sleb128 -25
 12429 03ef 00000000 		.4byte	0
 12430 03f3 00000000 		.4byte	0
 12431              	.LLST16:
 12432 03f7 00000000 		.4byte	.LVL60
 12433 03fb 14000000 		.4byte	.LVL62
 12434 03ff 0100     		.2byte	0x1
 12435 0401 50       		.byte	0x50
 12436 0402 14000000 		.4byte	.LVL62
 12437 0406 16000000 		.4byte	.LVL63
 12438 040a 0400     		.2byte	0x4
 12439 040c F3       		.byte	0xf3
 12440 040d 01       		.uleb128 0x1
 12441 040e 50       		.byte	0x50
 12442 040f 9F       		.byte	0x9f
 12443 0410 16000000 		.4byte	.LVL63
 12444 0414 1A000000 		.4byte	.LVL64
 12445 0418 0100     		.2byte	0x1
 12446 041a 50       		.byte	0x50
 12447 041b 1A000000 		.4byte	.LVL64
 12448 041f 2A000000 		.4byte	.LVL67
 12449 0423 0400     		.2byte	0x4
 12450 0425 F3       		.byte	0xf3
 12451 0426 01       		.uleb128 0x1
 12452 0427 50       		.byte	0x50
 12453 0428 9F       		.byte	0x9f
 12454 0429 2A000000 		.4byte	.LVL67
 12455 042d 2E000000 		.4byte	.LVL68
 12456 0431 0100     		.2byte	0x1
 12457 0433 50       		.byte	0x50
 12458 0434 2E000000 		.4byte	.LVL68
 12459 0438 3E000000 		.4byte	.LFE222
 12460 043c 0400     		.2byte	0x4
 12461 043e F3       		.byte	0xf3
 12462 043f 01       		.uleb128 0x1
 12463 0440 50       		.byte	0x50
 12464 0441 9F       		.byte	0x9f
 12465 0442 00000000 		.4byte	0
 12466 0446 00000000 		.4byte	0
 12467              	.LLST17:
 12468 044a 02000000 		.4byte	.LVL61
 12469 044e 14000000 		.4byte	.LVL62
 12470 0452 0100     		.2byte	0x1
ARM GAS  C:\Users\haske\AppData\Local\Temp\ccIkbvey.s 			page 258


 12471 0454 50       		.byte	0x50
 12472 0455 14000000 		.4byte	.LVL62
 12473 0459 16000000 		.4byte	.LVL63
 12474 045d 0400     		.2byte	0x4
 12475 045f F3       		.byte	0xf3
 12476 0460 01       		.uleb128 0x1
 12477 0461 50       		.byte	0x50
 12478 0462 9F       		.byte	0x9f
 12479 0463 16000000 		.4byte	.LVL63
 12480 0467 1A000000 		.4byte	.LVL64
 12481 046b 0100     		.2byte	0x1
 12482 046d 50       		.byte	0x50
 12483 046e 1A000000 		.4byte	.LVL64
 12484 0472 2A000000 		.4byte	.LVL67
 12485 0476 0400     		.2byte	0x4
 12486 0478 F3       		.byte	0xf3
 12487 0479 01       		.uleb128 0x1
 12488 047a 50       		.byte	0x50
 12489 047b 9F       		.byte	0x9f
 12490 047c 2A000000 		.4byte	.LVL67
 12491 0480 2E000000 		.4byte	.LVL68
 12492 0484 0100     		.2byte	0x1
 12493 0486 50       		.byte	0x50
 12494 0487 2E000000 		.4byte	.LVL68
 12495 048b 3E000000 		.4byte	.LFE222
 12496 048f 0400     		.2byte	0x4
 12497 0491 F3       		.byte	0xf3
 12498 0492 01       		.uleb128 0x1
 12499 0493 50       		.byte	0x50
 12500 0494 9F       		.byte	0x9f
 12501 0495 00000000 		.4byte	0
 12502 0499 00000000 		.4byte	0
 12503              	.LLST18:
 12504 049d 14000000 		.4byte	.LVL62
 12505 04a1 16000000 		.4byte	.LVL63
 12506 04a5 0100     		.2byte	0x1
 12507 04a7 50       		.byte	0x50
 12508 04a8 28000000 		.4byte	.LVL66
 12509 04ac 2A000000 		.4byte	.LVL67
 12510 04b0 0100     		.2byte	0x1
 12511 04b2 50       		.byte	0x50
 12512 04b3 3C000000 		.4byte	.LVL70
 12513 04b7 3E000000 		.4byte	.LFE222
 12514 04bb 0100     		.2byte	0x1
 12515 04bd 50       		.byte	0x50
 12516 04be 00000000 		.4byte	0
 12517 04c2 00000000 		.4byte	0
 12518              	.LLST19:
 12519 04c6 00000000 		.4byte	.LVL71
 12520 04ca 12000000 		.4byte	.LVL73
 12521 04ce 0100     		.2byte	0x1
 12522 04d0 51       		.byte	0x51
 12523 04d1 12000000 		.4byte	.LVL73
 12524 04d5 70000000 		.4byte	.LVL86
 12525 04d9 0100     		.2byte	0x1
 12526 04db 55       		.byte	0x55
 12527 04dc 70000000 		.4byte	.LVL86
ARM GAS  C:\Users\haske\AppData\Local\Temp\ccIkbvey.s 			page 259


 12528 04e0 94000000 		.4byte	.LFE215
 12529 04e4 0400     		.2byte	0x4
 12530 04e6 F3       		.byte	0xf3
 12531 04e7 01       		.uleb128 0x1
 12532 04e8 51       		.byte	0x51
 12533 04e9 9F       		.byte	0x9f
 12534 04ea 00000000 		.4byte	0
 12535 04ee 00000000 		.4byte	0
 12536              	.LLST20:
 12537 04f2 0E000000 		.4byte	.LVL72
 12538 04f6 12000000 		.4byte	.LVL73
 12539 04fa 0100     		.2byte	0x1
 12540 04fc 51       		.byte	0x51
 12541 04fd 12000000 		.4byte	.LVL73
 12542 0501 70000000 		.4byte	.LVL86
 12543 0505 0100     		.2byte	0x1
 12544 0507 55       		.byte	0x55
 12545 0508 70000000 		.4byte	.LVL86
 12546 050c 94000000 		.4byte	.LFE215
 12547 0510 0400     		.2byte	0x4
 12548 0512 F3       		.byte	0xf3
 12549 0513 01       		.uleb128 0x1
 12550 0514 51       		.byte	0x51
 12551 0515 9F       		.byte	0x9f
 12552 0516 00000000 		.4byte	0
 12553 051a 00000000 		.4byte	0
 12554              	.LLST21:
 12555 051e 0E000000 		.4byte	.LVL72
 12556 0522 22000000 		.4byte	.LVL77
 12557 0526 0200     		.2byte	0x2
 12558 0528 30       		.byte	0x30
 12559 0529 9F       		.byte	0x9f
 12560 052a 22000000 		.4byte	.LVL77
 12561 052e 84000000 		.4byte	.LVL89
 12562 0532 0100     		.2byte	0x1
 12563 0534 54       		.byte	0x54
 12564 0535 00000000 		.4byte	0
 12565 0539 00000000 		.4byte	0
 12566              	.LLST22:
 12567 053d 00000000 		.4byte	.LVL71
 12568 0541 14000000 		.4byte	.LVL74
 12569 0545 0200     		.2byte	0x2
 12570 0547 70       		.byte	0x70
 12571 0548 00       		.sleb128 0
 12572 0549 14000000 		.4byte	.LVL74
 12573 054d 8A000000 		.4byte	.LVL91
 12574 0551 0200     		.2byte	0x2
 12575 0553 76       		.byte	0x76
 12576 0554 00       		.sleb128 0
 12577 0555 8A000000 		.4byte	.LVL91
 12578 0559 94000000 		.4byte	.LFE215
 12579 055d 0200     		.2byte	0x2
 12580 055f 70       		.byte	0x70
 12581 0560 00       		.sleb128 0
 12582 0561 00000000 		.4byte	0
 12583 0565 00000000 		.4byte	0
 12584              	.LLST23:
ARM GAS  C:\Users\haske\AppData\Local\Temp\ccIkbvey.s 			page 260


 12585 0569 0E000000 		.4byte	.LVL72
 12586 056d 1A000000 		.4byte	.LVL76
 12587 0571 0200     		.2byte	0x2
 12588 0573 30       		.byte	0x30
 12589 0574 9F       		.byte	0x9f
 12590 0575 00000000 		.4byte	0
 12591 0579 00000000 		.4byte	0
 12592              	.LLST24:
 12593 057d 0E000000 		.4byte	.LVL72
 12594 0581 12000000 		.4byte	.LVL73
 12595 0585 0100     		.2byte	0x1
 12596 0587 51       		.byte	0x51
 12597 0588 12000000 		.4byte	.LVL73
 12598 058c 1A000000 		.4byte	.LVL76
 12599 0590 0100     		.2byte	0x1
 12600 0592 55       		.byte	0x55
 12601 0593 00000000 		.4byte	0
 12602 0597 00000000 		.4byte	0
 12603              	.LLST25:
 12604 059b 22000000 		.4byte	.LVL77
 12605 059f 32000000 		.4byte	.LVL79
 12606 05a3 0400     		.2byte	0x4
 12607 05a5 48       		.byte	0x48
 12608 05a6 3D       		.byte	0x3d
 12609 05a7 24       		.byte	0x24
 12610 05a8 9F       		.byte	0x9f
 12611 05a9 00000000 		.4byte	0
 12612 05ad 00000000 		.4byte	0
 12613              	.LLST26:
 12614 05b1 22000000 		.4byte	.LVL77
 12615 05b5 32000000 		.4byte	.LVL79
 12616 05b9 0100     		.2byte	0x1
 12617 05bb 55       		.byte	0x55
 12618 05bc 00000000 		.4byte	0
 12619 05c0 00000000 		.4byte	0
 12620              	.LLST27:
 12621 05c4 62000000 		.4byte	.LVL85
 12622 05c8 8A000000 		.4byte	.LVL94
 12623 05cc 0100     		.2byte	0x1
 12624 05ce 5A       		.byte	0x5a
 12625 05cf 00000000 		.4byte	0
 12626 05d3 00000000 		.4byte	0
 12627              	.LLST28:
 12628 05d7 32000000 		.4byte	.LVL79
 12629 05db 3E000000 		.4byte	.LVL81
 12630 05df 0400     		.2byte	0x4
 12631 05e1 48       		.byte	0x48
 12632 05e2 3D       		.byte	0x3d
 12633 05e3 24       		.byte	0x24
 12634 05e4 9F       		.byte	0x9f
 12635 05e5 00000000 		.4byte	0
 12636 05e9 00000000 		.4byte	0
 12637              	.LLST29:
 12638 05ed 32000000 		.4byte	.LVL79
 12639 05f1 3E000000 		.4byte	.LVL81
 12640 05f5 0100     		.2byte	0x1
 12641 05f7 55       		.byte	0x55
ARM GAS  C:\Users\haske\AppData\Local\Temp\ccIkbvey.s 			page 261


 12642 05f8 00000000 		.4byte	0
 12643 05fc 00000000 		.4byte	0
 12644              	.LLST30:
 12645 0600 76000000 		.4byte	.LVL87
 12646 0604 8A000000 		.4byte	.LVL93
 12647 0608 0100     		.2byte	0x1
 12648 060a 59       		.byte	0x59
 12649 060b 00000000 		.4byte	0
 12650 060f 00000000 		.4byte	0
 12651              	.LLST31:
 12652 0613 3E000000 		.4byte	.LVL81
 12653 0617 4A000000 		.4byte	.LVL83
 12654 061b 0400     		.2byte	0x4
 12655 061d 48       		.byte	0x48
 12656 061e 3D       		.byte	0x3d
 12657 061f 24       		.byte	0x24
 12658 0620 9F       		.byte	0x9f
 12659 0621 00000000 		.4byte	0
 12660 0625 00000000 		.4byte	0
 12661              	.LLST32:
 12662 0629 3E000000 		.4byte	.LVL81
 12663 062d 4A000000 		.4byte	.LVL83
 12664 0631 0100     		.2byte	0x1
 12665 0633 55       		.byte	0x55
 12666 0634 00000000 		.4byte	0
 12667 0638 00000000 		.4byte	0
 12668              	.LLST33:
 12669 063c 7E000000 		.4byte	.LVL88
 12670 0640 8A000000 		.4byte	.LVL92
 12671 0644 0100     		.2byte	0x1
 12672 0646 58       		.byte	0x58
 12673 0647 00000000 		.4byte	0
 12674 064b 00000000 		.4byte	0
 12675              	.LLST34:
 12676 064f 4A000000 		.4byte	.LVL83
 12677 0653 54000000 		.4byte	.LVL84
 12678 0657 0400     		.2byte	0x4
 12679 0659 48       		.byte	0x48
 12680 065a 3D       		.byte	0x3d
 12681 065b 24       		.byte	0x24
 12682 065c 9F       		.byte	0x9f
 12683 065d 00000000 		.4byte	0
 12684 0661 00000000 		.4byte	0
 12685              	.LLST35:
 12686 0665 4A000000 		.4byte	.LVL83
 12687 0669 54000000 		.4byte	.LVL84
 12688 066d 0100     		.2byte	0x1
 12689 066f 55       		.byte	0x55
 12690 0670 00000000 		.4byte	0
 12691 0674 00000000 		.4byte	0
 12692              	.LLST36:
 12693 0678 84000000 		.4byte	.LVL89
 12694 067c 8A000000 		.4byte	.LVL90
 12695 0680 0100     		.2byte	0x1
 12696 0682 50       		.byte	0x50
 12697 0683 00000000 		.4byte	0
 12698 0687 00000000 		.4byte	0
ARM GAS  C:\Users\haske\AppData\Local\Temp\ccIkbvey.s 			page 262


 12699              	.LLST37:
 12700 068b 00000000 		.4byte	.LVL95
 12701 068f 0A000000 		.4byte	.LVL96
 12702 0693 0100     		.2byte	0x1
 12703 0695 50       		.byte	0x50
 12704 0696 0A000000 		.4byte	.LVL96
 12705 069a 0D000000 		.4byte	.LVL97-1
 12706 069e 0100     		.2byte	0x1
 12707 06a0 51       		.byte	0x51
 12708 06a1 0D000000 		.4byte	.LVL97-1
 12709 06a5 18000000 		.4byte	.LVL99
 12710 06a9 0100     		.2byte	0x1
 12711 06ab 54       		.byte	0x54
 12712 06ac 18000000 		.4byte	.LVL99
 12713 06b0 1A000000 		.4byte	.LFE214
 12714 06b4 0400     		.2byte	0x4
 12715 06b6 F3       		.byte	0xf3
 12716 06b7 01       		.uleb128 0x1
 12717 06b8 50       		.byte	0x50
 12718 06b9 9F       		.byte	0x9f
 12719 06ba 00000000 		.4byte	0
 12720 06be 00000000 		.4byte	0
 12721              	.LLST38:
 12722 06c2 00000000 		.4byte	.LVL100
 12723 06c6 07000000 		.4byte	.LVL101-1
 12724 06ca 0100     		.2byte	0x1
 12725 06cc 50       		.byte	0x50
 12726 06cd 07000000 		.4byte	.LVL101-1
 12727 06d1 62000000 		.4byte	.LVL115
 12728 06d5 0100     		.2byte	0x1
 12729 06d7 55       		.byte	0x55
 12730 06d8 62000000 		.4byte	.LVL115
 12731 06dc 64000000 		.4byte	.LFE218
 12732 06e0 0400     		.2byte	0x4
 12733 06e2 F3       		.byte	0xf3
 12734 06e3 01       		.uleb128 0x1
 12735 06e4 50       		.byte	0x50
 12736 06e5 9F       		.byte	0x9f
 12737 06e6 00000000 		.4byte	0
 12738 06ea 00000000 		.4byte	0
 12739              	.LLST39:
 12740 06ee 08000000 		.4byte	.LVL101
 12741 06f2 62000000 		.4byte	.LVL115
 12742 06f6 0100     		.2byte	0x1
 12743 06f8 55       		.byte	0x55
 12744 06f9 62000000 		.4byte	.LVL115
 12745 06fd 64000000 		.4byte	.LFE218
 12746 0701 0400     		.2byte	0x4
 12747 0703 F3       		.byte	0xf3
 12748 0704 01       		.uleb128 0x1
 12749 0705 50       		.byte	0x50
 12750 0706 9F       		.byte	0x9f
 12751 0707 00000000 		.4byte	0
 12752 070b 00000000 		.4byte	0
 12753              	.LLST40:
 12754 070f 10000000 		.4byte	.LVL103
 12755 0713 62000000 		.4byte	.LVL116
ARM GAS  C:\Users\haske\AppData\Local\Temp\ccIkbvey.s 			page 263


 12756 0717 0100     		.2byte	0x1
 12757 0719 56       		.byte	0x56
 12758 071a 00000000 		.4byte	0
 12759 071e 00000000 		.4byte	0
 12760              	.LLST41:
 12761 0722 26000000 		.4byte	.LVL106
 12762 0726 44000000 		.4byte	.LVL113
 12763 072a 0100     		.2byte	0x1
 12764 072c 54       		.byte	0x54
 12765 072d 00000000 		.4byte	0
 12766 0731 00000000 		.4byte	0
 12767              	.LLST42:
 12768 0735 2E000000 		.4byte	.LVL108
 12769 0739 33000000 		.4byte	.LVL109-1
 12770 073d 0100     		.2byte	0x1
 12771 073f 50       		.byte	0x50
 12772 0740 00000000 		.4byte	0
 12773 0744 00000000 		.4byte	0
 12774              	.LLST43:
 12775 0748 10000000 		.4byte	.LVL103
 12776 074c 1C000000 		.4byte	.LVL105
 12777 0750 0200     		.2byte	0x2
 12778 0752 30       		.byte	0x30
 12779 0753 9F       		.byte	0x9f
 12780 0754 00000000 		.4byte	0
 12781 0758 00000000 		.4byte	0
 12782              	.LLST44:
 12783 075c 10000000 		.4byte	.LVL103
 12784 0760 1C000000 		.4byte	.LVL105
 12785 0764 0100     		.2byte	0x1
 12786 0766 55       		.byte	0x55
 12787 0767 00000000 		.4byte	0
 12788 076b 00000000 		.4byte	0
 12789              	.LLST45:
 12790 076f 3A000000 		.4byte	.LVL110
 12791 0773 3C000000 		.4byte	.LVL111
 12792 0777 0100     		.2byte	0x1
 12793 0779 57       		.byte	0x57
 12794 077a 00000000 		.4byte	0
 12795 077e 00000000 		.4byte	0
 12796              	.LLST46:
 12797 0782 00000000 		.4byte	.LVL117
 12798 0786 0A000000 		.4byte	.LVL119
 12799 078a 0100     		.2byte	0x1
 12800 078c 50       		.byte	0x50
 12801 078d 0A000000 		.4byte	.LVL119
 12802 0791 2A000000 		.4byte	.LVL123
 12803 0795 0100     		.2byte	0x1
 12804 0797 54       		.byte	0x54
 12805 0798 2A000000 		.4byte	.LVL123
 12806 079c 2C000000 		.4byte	.LFE217
 12807 07a0 0400     		.2byte	0x4
 12808 07a2 F3       		.byte	0xf3
 12809 07a3 01       		.uleb128 0x1
 12810 07a4 50       		.byte	0x50
 12811 07a5 9F       		.byte	0x9f
 12812 07a6 00000000 		.4byte	0
ARM GAS  C:\Users\haske\AppData\Local\Temp\ccIkbvey.s 			page 264


 12813 07aa 00000000 		.4byte	0
 12814              	.LLST47:
 12815 07ae 04000000 		.4byte	.LVL118
 12816 07b2 0A000000 		.4byte	.LVL119
 12817 07b6 0100     		.2byte	0x1
 12818 07b8 50       		.byte	0x50
 12819 07b9 0A000000 		.4byte	.LVL119
 12820 07bd 2A000000 		.4byte	.LVL123
 12821 07c1 0100     		.2byte	0x1
 12822 07c3 54       		.byte	0x54
 12823 07c4 2A000000 		.4byte	.LVL123
 12824 07c8 2C000000 		.4byte	.LFE217
 12825 07cc 0400     		.2byte	0x4
 12826 07ce F3       		.byte	0xf3
 12827 07cf 01       		.uleb128 0x1
 12828 07d0 50       		.byte	0x50
 12829 07d1 9F       		.byte	0x9f
 12830 07d2 00000000 		.4byte	0
 12831 07d6 00000000 		.4byte	0
 12832              	.LLST48:
 12833 07da 00000000 		.4byte	.LVL124
 12834 07de 13000000 		.4byte	.LVL125-1
 12835 07e2 0100     		.2byte	0x1
 12836 07e4 50       		.byte	0x50
 12837 07e5 13000000 		.4byte	.LVL125-1
 12838 07e9 28000000 		.4byte	.LVL132
 12839 07ed 0100     		.2byte	0x1
 12840 07ef 54       		.byte	0x54
 12841 07f0 28000000 		.4byte	.LVL132
 12842 07f4 A0010000 		.4byte	.LFE212
 12843 07f8 0400     		.2byte	0x4
 12844 07fa F3       		.byte	0xf3
 12845 07fb 01       		.uleb128 0x1
 12846 07fc 50       		.byte	0x50
 12847 07fd 9F       		.byte	0x9f
 12848 07fe 00000000 		.4byte	0
 12849 0802 00000000 		.4byte	0
 12850              	.LLST49:
 12851 0806 18000000 		.4byte	.LVL126
 12852 080a 1A000000 		.4byte	.LVL127
 12853 080e 0100     		.2byte	0x1
 12854 0810 50       		.byte	0x50
 12855 0811 1A000000 		.4byte	.LVL127
 12856 0815 B6000000 		.4byte	.LVL149
 12857 0819 0100     		.2byte	0x1
 12858 081b 56       		.byte	0x56
 12859 081c B6000000 		.4byte	.LVL149
 12860 0820 A0010000 		.4byte	.LFE212
 12861 0824 0300     		.2byte	0x3
 12862 0826 91       		.byte	0x91
 12863 0827 F47E     		.sleb128 -140
 12864 0829 00000000 		.4byte	0
 12865 082d 00000000 		.4byte	0
 12866              	.LLST50:
 12867 0831 20000000 		.4byte	.LVL129
 12868 0835 22000000 		.4byte	.LVL130
 12869 0839 0100     		.2byte	0x1
ARM GAS  C:\Users\haske\AppData\Local\Temp\ccIkbvey.s 			page 265


 12870 083b 50       		.byte	0x50
 12871 083c 22000000 		.4byte	.LVL130
 12872 0840 A0010000 		.4byte	.LFE212
 12873 0844 0300     		.2byte	0x3
 12874 0846 91       		.byte	0x91
 12875 0847 F87E     		.sleb128 -136
 12876 0849 00000000 		.4byte	0
 12877 084d 00000000 		.4byte	0
 12878              	.LLST51:
 12879 0851 28000000 		.4byte	.LVL132
 12880 0855 36000000 		.4byte	.LVL134
 12881 0859 0100     		.2byte	0x1
 12882 085b 54       		.byte	0x54
 12883 085c 00000000 		.4byte	0
 12884 0860 00000000 		.4byte	0
 12885              	.LLST52:
 12886 0864 2E000000 		.4byte	.LVL133
 12887 0868 48000000 		.4byte	.LVL136
 12888 086c 0100     		.2byte	0x1
 12889 086e 50       		.byte	0x50
 12890 086f 00000000 		.4byte	0
 12891 0873 00000000 		.4byte	0
 12892              	.LLST53:
 12893 0877 40000000 		.4byte	.LVL135
 12894 087b 8C010000 		.4byte	.LVL172
 12895 087f 0100     		.2byte	0x1
 12896 0881 58       		.byte	0x58
 12897 0882 00000000 		.4byte	0
 12898 0886 00000000 		.4byte	0
 12899              	.LLST54:
 12900 088a 50000000 		.4byte	.LVL137
 12901 088e 8C010000 		.4byte	.LVL174
 12902 0892 0100     		.2byte	0x1
 12903 0894 5A       		.byte	0x5a
 12904 0895 00000000 		.4byte	0
 12905 0899 00000000 		.4byte	0
 12906              	.LLST55:
 12907 089d 50000000 		.4byte	.LVL137
 12908 08a1 82000000 		.4byte	.LVL143
 12909 08a5 0100     		.2byte	0x1
 12910 08a7 55       		.byte	0x55
 12911 08a8 82000000 		.4byte	.LVL143
 12912 08ac A0010000 		.4byte	.LFE212
 12913 08b0 0300     		.2byte	0x3
 12914 08b2 91       		.byte	0x91
 12915 08b3 EC7E     		.sleb128 -148
 12916 08b5 00000000 		.4byte	0
 12917 08b9 00000000 		.4byte	0
 12918              	.LLST56:
 12919 08bd E2000000 		.4byte	.LVL153
 12920 08c1 EC000000 		.4byte	.LVL154
 12921 08c5 0200     		.2byte	0x2
 12922 08c7 30       		.byte	0x30
 12923 08c8 9F       		.byte	0x9f
 12924 08c9 EC000000 		.4byte	.LVL154
 12925 08cd 8C010000 		.4byte	.LVL171
 12926 08d1 0100     		.2byte	0x1
ARM GAS  C:\Users\haske\AppData\Local\Temp\ccIkbvey.s 			page 266


 12927 08d3 57       		.byte	0x57
 12928 08d4 00000000 		.4byte	0
 12929 08d8 00000000 		.4byte	0
 12930              	.LLST57:
 12931 08dc 76000000 		.4byte	.LVL141
 12932 08e0 EC000000 		.4byte	.LVL154
 12933 08e4 0200     		.2byte	0x2
 12934 08e6 30       		.byte	0x30
 12935 08e7 9F       		.byte	0x9f
 12936 08e8 EC000000 		.4byte	.LVL154
 12937 08ec 8C010000 		.4byte	.LVL173
 12938 08f0 0100     		.2byte	0x1
 12939 08f2 59       		.byte	0x59
 12940 08f3 00000000 		.4byte	0
 12941 08f7 00000000 		.4byte	0
 12942              	.LLST58:
 12943 08fb E2000000 		.4byte	.LVL153
 12944 08ff 8C010000 		.4byte	.LVL175
 12945 0903 0100     		.2byte	0x1
 12946 0905 5B       		.byte	0x5b
 12947 0906 00000000 		.4byte	0
 12948 090a 00000000 		.4byte	0
 12949              	.LLST59:
 12950 090e 76000000 		.4byte	.LVL141
 12951 0912 86000000 		.4byte	.LVL144
 12952 0916 0200     		.2byte	0x2
 12953 0918 30       		.byte	0x30
 12954 0919 9F       		.byte	0x9f
 12955 091a 00000000 		.4byte	0
 12956 091e 00000000 		.4byte	0
 12957              	.LLST60:
 12958 0922 76000000 		.4byte	.LVL141
 12959 0926 86000000 		.4byte	.LVL144
 12960 092a 0100     		.2byte	0x1
 12961 092c 56       		.byte	0x56
 12962 092d 00000000 		.4byte	0
 12963 0931 00000000 		.4byte	0
 12964              	.LLST61:
 12965 0935 9E000000 		.4byte	.LVL147
 12966 0939 B6000000 		.4byte	.LVL149
 12967 093d 0300     		.2byte	0x3
 12968 093f 76       		.byte	0x76
 12969 0940 14       		.sleb128 20
 12970 0941 9F       		.byte	0x9f
 12971 0942 00000000 		.4byte	0
 12972 0946 00000000 		.4byte	0
 12973              	.LLST62:
 12974 094a 9E000000 		.4byte	.LVL147
 12975 094e A4000000 		.4byte	.LVL148
 12976 0952 0400     		.2byte	0x4
 12977 0954 91       		.byte	0x91
 12978 0955 AC7F     		.sleb128 -84
 12979 0957 9F       		.byte	0x9f
 12980 0958 A4000000 		.4byte	.LVL148
 12981 095c B6000000 		.4byte	.LVL149
 12982 0960 0100     		.2byte	0x1
 12983 0962 51       		.byte	0x51
ARM GAS  C:\Users\haske\AppData\Local\Temp\ccIkbvey.s 			page 267


 12984 0963 00000000 		.4byte	0
 12985 0967 00000000 		.4byte	0
 12986              	.LLST63:
 12987 096b 00010000 		.4byte	.LVL156
 12988 096f 1C010000 		.4byte	.LVL159
 12989 0973 0100     		.2byte	0x1
 12990 0975 55       		.byte	0x55
 12991 0976 1C010000 		.4byte	.LVL159
 12992 097a 6A010000 		.4byte	.LVL166
 12993 097e 0300     		.2byte	0x3
 12994 0980 91       		.byte	0x91
 12995 0981 F07E     		.sleb128 -144
 12996 0983 00000000 		.4byte	0
 12997 0987 00000000 		.4byte	0
 12998              	.LLST64:
 12999 098b 1A010000 		.4byte	.LVL158
 13000 098f 1C010000 		.4byte	.LVL159
 13001 0993 0100     		.2byte	0x1
 13002 0995 55       		.byte	0x55
 13003 0996 1C010000 		.4byte	.LVL159
 13004 099a 24010000 		.4byte	.LVL160
 13005 099e 0300     		.2byte	0x3
 13006 09a0 91       		.byte	0x91
 13007 09a1 F07E     		.sleb128 -144
 13008 09a3 00000000 		.4byte	0
 13009 09a7 00000000 		.4byte	0
 13010              	.LLST65:
 13011 09ab 44010000 		.4byte	.LVL162
 13012 09af 4A010000 		.4byte	.LVL163
 13013 09b3 0500     		.2byte	0x5
 13014 09b5 79       		.byte	0x79
 13015 09b6 00       		.sleb128 0
 13016 09b7 38       		.byte	0x38
 13017 09b8 25       		.byte	0x25
 13018 09b9 9F       		.byte	0x9f
 13019 09ba 00000000 		.4byte	0
 13020 09be 00000000 		.4byte	0
 13021              	.LLST66:
 13022 09c2 00000000 		.4byte	.LVL176
 13023 09c6 18000000 		.4byte	.LVL179
 13024 09ca 0100     		.2byte	0x1
 13025 09cc 50       		.byte	0x50
 13026 09cd 18000000 		.4byte	.LVL179
 13027 09d1 58000000 		.4byte	.LFE211
 13028 09d5 0400     		.2byte	0x4
 13029 09d7 F3       		.byte	0xf3
 13030 09d8 01       		.uleb128 0x1
 13031 09d9 50       		.byte	0x50
 13032 09da 9F       		.byte	0x9f
 13033 09db 00000000 		.4byte	0
 13034 09df 00000000 		.4byte	0
 13035              	.LLST67:
 13036 09e3 00000000 		.4byte	.LVL176
 13037 09e7 0C000000 		.4byte	.LVL178
 13038 09eb 0100     		.2byte	0x1
 13039 09ed 51       		.byte	0x51
 13040 09ee 0C000000 		.4byte	.LVL178
ARM GAS  C:\Users\haske\AppData\Local\Temp\ccIkbvey.s 			page 268


 13041 09f2 52000000 		.4byte	.LVL183
 13042 09f6 0100     		.2byte	0x1
 13043 09f8 54       		.byte	0x54
 13044 09f9 52000000 		.4byte	.LVL183
 13045 09fd 58000000 		.4byte	.LFE211
 13046 0a01 0400     		.2byte	0x4
 13047 0a03 F3       		.byte	0xf3
 13048 0a04 01       		.uleb128 0x1
 13049 0a05 51       		.byte	0x51
 13050 0a06 9F       		.byte	0x9f
 13051 0a07 00000000 		.4byte	0
 13052 0a0b 00000000 		.4byte	0
 13053              	.LLST68:
 13054 0a0f 04000000 		.4byte	.LVL177
 13055 0a13 0C000000 		.4byte	.LVL178
 13056 0a17 0100     		.2byte	0x1
 13057 0a19 51       		.byte	0x51
 13058 0a1a 0C000000 		.4byte	.LVL178
 13059 0a1e 52000000 		.4byte	.LVL183
 13060 0a22 0100     		.2byte	0x1
 13061 0a24 54       		.byte	0x54
 13062 0a25 52000000 		.4byte	.LVL183
 13063 0a29 58000000 		.4byte	.LFE211
 13064 0a2d 0400     		.2byte	0x4
 13065 0a2f F3       		.byte	0xf3
 13066 0a30 01       		.uleb128 0x1
 13067 0a31 51       		.byte	0x51
 13068 0a32 9F       		.byte	0x9f
 13069 0a33 00000000 		.4byte	0
 13070 0a37 00000000 		.4byte	0
 13071              	.LLST69:
 13072 0a3b 00000000 		.4byte	.LVL184
 13073 0a3f 0A000000 		.4byte	.LVL186
 13074 0a43 0100     		.2byte	0x1
 13075 0a45 50       		.byte	0x50
 13076 0a46 0A000000 		.4byte	.LVL186
 13077 0a4a 0D000000 		.4byte	.LVL187-1
 13078 0a4e 0100     		.2byte	0x1
 13079 0a50 51       		.byte	0x51
 13080 0a51 0D000000 		.4byte	.LVL187-1
 13081 0a55 20000000 		.4byte	.LFE202
 13082 0a59 0400     		.2byte	0x4
 13083 0a5b F3       		.byte	0xf3
 13084 0a5c 01       		.uleb128 0x1
 13085 0a5d 50       		.byte	0x50
 13086 0a5e 9F       		.byte	0x9f
 13087 0a5f 00000000 		.4byte	0
 13088 0a63 00000000 		.4byte	0
 13089              	.LLST70:
 13090 0a67 00000000 		.4byte	.LVL184
 13091 0a6b 08000000 		.4byte	.LVL185
 13092 0a6f 0100     		.2byte	0x1
 13093 0a71 51       		.byte	0x51
 13094 0a72 08000000 		.4byte	.LVL185
 13095 0a76 0D000000 		.4byte	.LVL187-1
 13096 0a7a 0500     		.2byte	0x5
 13097 0a7c 03       		.byte	0x3
ARM GAS  C:\Users\haske\AppData\Local\Temp\ccIkbvey.s 			page 269


 13098 0a7d 04000000 		.4byte	create_knob_recolor
 13099 0a81 0D000000 		.4byte	.LVL187-1
 13100 0a85 20000000 		.4byte	.LFE202
 13101 0a89 0400     		.2byte	0x4
 13102 0a8b F3       		.byte	0xf3
 13103 0a8c 01       		.uleb128 0x1
 13104 0a8d 51       		.byte	0x51
 13105 0a8e 9F       		.byte	0x9f
 13106 0a8f 00000000 		.4byte	0
 13107 0a93 00000000 		.4byte	0
 13108              	.LLST71:
 13109 0a97 10000000 		.4byte	.LVL188
 13110 0a9b 13000000 		.4byte	.LVL189-1
 13111 0a9f 0100     		.2byte	0x1
 13112 0aa1 50       		.byte	0x50
 13113 0aa2 13000000 		.4byte	.LVL189-1
 13114 0aa6 16000000 		.4byte	.LVL190
 13115 0aaa 0100     		.2byte	0x1
 13116 0aac 54       		.byte	0x54
 13117 0aad 16000000 		.4byte	.LVL190
 13118 0ab1 20000000 		.4byte	.LFE202
 13119 0ab5 0100     		.2byte	0x1
 13120 0ab7 50       		.byte	0x50
 13121 0ab8 00000000 		.4byte	0
 13122 0abc 00000000 		.4byte	0
 13123              	.LLST72:
 13124 0ac0 00000000 		.4byte	.LVL191
 13125 0ac4 0A000000 		.4byte	.LVL192
 13126 0ac8 0100     		.2byte	0x1
 13127 0aca 50       		.byte	0x50
 13128 0acb 0A000000 		.4byte	.LVL192
 13129 0acf 64000000 		.4byte	.LVL197
 13130 0ad3 0100     		.2byte	0x1
 13131 0ad5 54       		.byte	0x54
 13132 0ad6 64000000 		.4byte	.LVL197
 13133 0ada 66000000 		.4byte	.LFE203
 13134 0ade 0400     		.2byte	0x4
 13135 0ae0 F3       		.byte	0xf3
 13136 0ae1 01       		.uleb128 0x1
 13137 0ae2 50       		.byte	0x50
 13138 0ae3 9F       		.byte	0x9f
 13139 0ae4 00000000 		.4byte	0
 13140 0ae8 00000000 		.4byte	0
 13141              	.LLST73:
 13142 0aec 38000000 		.4byte	.LVL194
 13143 0af0 64000000 		.4byte	.LVL197
 13144 0af4 0100     		.2byte	0x1
 13145 0af6 54       		.byte	0x54
 13146 0af7 64000000 		.4byte	.LVL197
 13147 0afb 66000000 		.4byte	.LFE203
 13148 0aff 0400     		.2byte	0x4
 13149 0b01 F3       		.byte	0xf3
 13150 0b02 01       		.uleb128 0x1
 13151 0b03 50       		.byte	0x50
 13152 0b04 9F       		.byte	0x9f
 13153 0b05 00000000 		.4byte	0
 13154 0b09 00000000 		.4byte	0
ARM GAS  C:\Users\haske\AppData\Local\Temp\ccIkbvey.s 			page 270


 13155              	.LLST74:
 13156 0b0d 00000000 		.4byte	.LVL198
 13157 0b11 09000000 		.4byte	.LVL200-1
 13158 0b15 0100     		.2byte	0x1
 13159 0b17 50       		.byte	0x50
 13160 0b18 09000000 		.4byte	.LVL200-1
 13161 0b1c 74000000 		.4byte	.LVL209
 13162 0b20 0100     		.2byte	0x1
 13163 0b22 54       		.byte	0x54
 13164 0b23 74000000 		.4byte	.LVL209
 13165 0b27 76000000 		.4byte	.LFE219
 13166 0b2b 0400     		.2byte	0x4
 13167 0b2d F3       		.byte	0xf3
 13168 0b2e 01       		.uleb128 0x1
 13169 0b2f 50       		.byte	0x50
 13170 0b30 9F       		.byte	0x9f
 13171 0b31 00000000 		.4byte	0
 13172 0b35 00000000 		.4byte	0
 13173              	.LLST75:
 13174 0b39 06000000 		.4byte	.LVL199
 13175 0b3d 09000000 		.4byte	.LVL200-1
 13176 0b41 0100     		.2byte	0x1
 13177 0b43 50       		.byte	0x50
 13178 0b44 09000000 		.4byte	.LVL200-1
 13179 0b48 74000000 		.4byte	.LVL209
 13180 0b4c 0100     		.2byte	0x1
 13181 0b4e 54       		.byte	0x54
 13182 0b4f 74000000 		.4byte	.LVL209
 13183 0b53 76000000 		.4byte	.LFE219
 13184 0b57 0400     		.2byte	0x4
 13185 0b59 F3       		.byte	0xf3
 13186 0b5a 01       		.uleb128 0x1
 13187 0b5b 50       		.byte	0x50
 13188 0b5c 9F       		.byte	0x9f
 13189 0b5d 00000000 		.4byte	0
 13190 0b61 00000000 		.4byte	0
 13191              	.LLST76:
 13192 0b65 0C000000 		.4byte	.LVL201
 13193 0b69 0E000000 		.4byte	.LVL202
 13194 0b6d 0100     		.2byte	0x1
 13195 0b6f 50       		.byte	0x50
 13196 0b70 0E000000 		.4byte	.LVL202
 13197 0b74 74000000 		.4byte	.LVL210
 13198 0b78 0100     		.2byte	0x1
 13199 0b7a 55       		.byte	0x55
 13200 0b7b 00000000 		.4byte	0
 13201 0b7f 00000000 		.4byte	0
 13202              	.LLST77:
 13203 0b83 66000000 		.4byte	.LVL206
 13204 0b87 6A000000 		.4byte	.LVL207
 13205 0b8b 0100     		.2byte	0x1
 13206 0b8d 50       		.byte	0x50
 13207 0b8e 00000000 		.4byte	0
 13208 0b92 00000000 		.4byte	0
 13209              	.LLST78:
 13210 0b96 00000000 		.4byte	.LVL211
 13211 0b9a 1E000000 		.4byte	.LVL212
ARM GAS  C:\Users\haske\AppData\Local\Temp\ccIkbvey.s 			page 271


 13212 0b9e 0100     		.2byte	0x1
 13213 0ba0 50       		.byte	0x50
 13214 0ba1 1E000000 		.4byte	.LVL212
 13215 0ba5 62000000 		.4byte	.LVL220
 13216 0ba9 0100     		.2byte	0x1
 13217 0bab 54       		.byte	0x54
 13218 0bac 62000000 		.4byte	.LVL220
 13219 0bb0 64000000 		.4byte	.LFE204
 13220 0bb4 0400     		.2byte	0x4
 13221 0bb6 F3       		.byte	0xf3
 13222 0bb7 01       		.uleb128 0x1
 13223 0bb8 50       		.byte	0x50
 13224 0bb9 9F       		.byte	0x9f
 13225 0bba 00000000 		.4byte	0
 13226 0bbe 00000000 		.4byte	0
 13227              	.LLST79:
 13228 0bc2 00000000 		.4byte	.LVL211
 13229 0bc6 30000000 		.4byte	.LVL213
 13230 0bca 0100     		.2byte	0x1
 13231 0bcc 51       		.byte	0x51
 13232 0bcd 00000000 		.4byte	0
 13233 0bd1 00000000 		.4byte	0
 13234              	.LLST80:
 13235 0bd5 48000000 		.4byte	.LVL215
 13236 0bd9 4A000000 		.4byte	.LVL216
 13237 0bdd 0100     		.2byte	0x1
 13238 0bdf 50       		.byte	0x50
 13239 0be0 00000000 		.4byte	0
 13240 0be4 00000000 		.4byte	0
 13241              	.LLST81:
 13242 0be8 00000000 		.4byte	.LVL221
 13243 0bec 0E000000 		.4byte	.LVL224
 13244 0bf0 0100     		.2byte	0x1
 13245 0bf2 50       		.byte	0x50
 13246 0bf3 0E000000 		.4byte	.LVL224
 13247 0bf7 20000000 		.4byte	.LVL227
 13248 0bfb 0100     		.2byte	0x1
 13249 0bfd 54       		.byte	0x54
 13250 0bfe 20000000 		.4byte	.LVL227
 13251 0c02 22000000 		.4byte	.LFE205
 13252 0c06 0400     		.2byte	0x4
 13253 0c08 F3       		.byte	0xf3
 13254 0c09 01       		.uleb128 0x1
 13255 0c0a 50       		.byte	0x50
 13256 0c0b 9F       		.byte	0x9f
 13257 0c0c 00000000 		.4byte	0
 13258 0c10 00000000 		.4byte	0
 13259              	.LLST82:
 13260 0c14 00000000 		.4byte	.LVL221
 13261 0c18 0A000000 		.4byte	.LVL223
 13262 0c1c 0100     		.2byte	0x1
 13263 0c1e 51       		.byte	0x51
 13264 0c1f 0A000000 		.4byte	.LVL223
 13265 0c23 22000000 		.4byte	.LFE205
 13266 0c27 0400     		.2byte	0x4
 13267 0c29 F3       		.byte	0xf3
 13268 0c2a 01       		.uleb128 0x1
ARM GAS  C:\Users\haske\AppData\Local\Temp\ccIkbvey.s 			page 272


 13269 0c2b 51       		.byte	0x51
 13270 0c2c 9F       		.byte	0x9f
 13271 0c2d 00000000 		.4byte	0
 13272 0c31 00000000 		.4byte	0
 13273              	.LLST83:
 13274 0c35 04000000 		.4byte	.LVL222
 13275 0c39 0E000000 		.4byte	.LVL224
 13276 0c3d 0100     		.2byte	0x1
 13277 0c3f 50       		.byte	0x50
 13278 0c40 0E000000 		.4byte	.LVL224
 13279 0c44 20000000 		.4byte	.LVL227
 13280 0c48 0100     		.2byte	0x1
 13281 0c4a 54       		.byte	0x54
 13282 0c4b 20000000 		.4byte	.LVL227
 13283 0c4f 22000000 		.4byte	.LFE205
 13284 0c53 0400     		.2byte	0x4
 13285 0c55 F3       		.byte	0xf3
 13286 0c56 01       		.uleb128 0x1
 13287 0c57 50       		.byte	0x50
 13288 0c58 9F       		.byte	0x9f
 13289 0c59 00000000 		.4byte	0
 13290 0c5d 00000000 		.4byte	0
 13291              	.LLST84:
 13292 0c61 00000000 		.4byte	.LVL228
 13293 0c65 08000000 		.4byte	.LVL230
 13294 0c69 0100     		.2byte	0x1
 13295 0c6b 51       		.byte	0x51
 13296 0c6c 08000000 		.4byte	.LVL230
 13297 0c70 16000000 		.4byte	.LFE206
 13298 0c74 0400     		.2byte	0x4
 13299 0c76 F3       		.byte	0xf3
 13300 0c77 01       		.uleb128 0x1
 13301 0c78 51       		.byte	0x51
 13302 0c79 9F       		.byte	0x9f
 13303 0c7a 00000000 		.4byte	0
 13304 0c7e 00000000 		.4byte	0
 13305              	.LLST85:
 13306 0c82 00000000 		.4byte	.LVL231
 13307 0c86 06000000 		.4byte	.LVL233
 13308 0c8a 0100     		.2byte	0x1
 13309 0c8c 50       		.byte	0x50
 13310 0c8d 06000000 		.4byte	.LVL233
 13311 0c91 12000000 		.4byte	.LFE207
 13312 0c95 0400     		.2byte	0x4
 13313 0c97 F3       		.byte	0xf3
 13314 0c98 01       		.uleb128 0x1
 13315 0c99 50       		.byte	0x50
 13316 0c9a 9F       		.byte	0x9f
 13317 0c9b 00000000 		.4byte	0
 13318 0c9f 00000000 		.4byte	0
 13319              	.LLST86:
 13320 0ca3 02000000 		.4byte	.LVL232
 13321 0ca7 06000000 		.4byte	.LVL233
 13322 0cab 0100     		.2byte	0x1
 13323 0cad 50       		.byte	0x50
 13324 0cae 06000000 		.4byte	.LVL233
 13325 0cb2 12000000 		.4byte	.LFE207
ARM GAS  C:\Users\haske\AppData\Local\Temp\ccIkbvey.s 			page 273


 13326 0cb6 0400     		.2byte	0x4
 13327 0cb8 F3       		.byte	0xf3
 13328 0cb9 01       		.uleb128 0x1
 13329 0cba 50       		.byte	0x50
 13330 0cbb 9F       		.byte	0x9f
 13331 0cbc 00000000 		.4byte	0
 13332 0cc0 00000000 		.4byte	0
 13333              	.LLST87:
 13334 0cc4 00000000 		.4byte	.LVL234
 13335 0cc8 0C000000 		.4byte	.LVL236
 13336 0ccc 0100     		.2byte	0x1
 13337 0cce 50       		.byte	0x50
 13338 0ccf 0C000000 		.4byte	.LVL236
 13339 0cd3 12000000 		.4byte	.LFE208
 13340 0cd7 0400     		.2byte	0x4
 13341 0cd9 F3       		.byte	0xf3
 13342 0cda 01       		.uleb128 0x1
 13343 0cdb 50       		.byte	0x50
 13344 0cdc 9F       		.byte	0x9f
 13345 0cdd 00000000 		.4byte	0
 13346 0ce1 00000000 		.4byte	0
 13347              	.LLST88:
 13348 0ce5 02000000 		.4byte	.LVL235
 13349 0ce9 0C000000 		.4byte	.LVL236
 13350 0ced 0100     		.2byte	0x1
 13351 0cef 50       		.byte	0x50
 13352 0cf0 0C000000 		.4byte	.LVL236
 13353 0cf4 12000000 		.4byte	.LFE208
 13354 0cf8 0400     		.2byte	0x4
 13355 0cfa F3       		.byte	0xf3
 13356 0cfb 01       		.uleb128 0x1
 13357 0cfc 50       		.byte	0x50
 13358 0cfd 9F       		.byte	0x9f
 13359 0cfe 00000000 		.4byte	0
 13360 0d02 00000000 		.4byte	0
 13361              	.LLST89:
 13362 0d06 00000000 		.4byte	.LVL238
 13363 0d0a 09000000 		.4byte	.LVL239-1
 13364 0d0e 0100     		.2byte	0x1
 13365 0d10 50       		.byte	0x50
 13366 0d11 09000000 		.4byte	.LVL239-1
 13367 0d15 16000000 		.4byte	.LVL244
 13368 0d19 0100     		.2byte	0x1
 13369 0d1b 55       		.byte	0x55
 13370 0d1c 16000000 		.4byte	.LVL244
 13371 0d20 58000000 		.4byte	.LFE213
 13372 0d24 0400     		.2byte	0x4
 13373 0d26 F3       		.byte	0xf3
 13374 0d27 01       		.uleb128 0x1
 13375 0d28 50       		.byte	0x50
 13376 0d29 9F       		.byte	0x9f
 13377 0d2a 00000000 		.4byte	0
 13378 0d2e 00000000 		.4byte	0
 13379              	.LLST90:
 13380 0d32 0C000000 		.4byte	.LVL240
 13381 0d36 0E000000 		.4byte	.LVL241
 13382 0d3a 0100     		.2byte	0x1
ARM GAS  C:\Users\haske\AppData\Local\Temp\ccIkbvey.s 			page 274


 13383 0d3c 50       		.byte	0x50
 13384 0d3d 0E000000 		.4byte	.LVL241
 13385 0d41 52000000 		.4byte	.LVL251
 13386 0d45 0100     		.2byte	0x1
 13387 0d47 54       		.byte	0x54
 13388 0d48 00000000 		.4byte	0
 13389 0d4c 00000000 		.4byte	0
 13390              	.LLST91:
 13391 0d50 14000000 		.4byte	.LVL243
 13392 0d54 18000000 		.4byte	.LVL245
 13393 0d58 0100     		.2byte	0x1
 13394 0d5a 50       		.byte	0x50
 13395 0d5b 18000000 		.4byte	.LVL245
 13396 0d5f 52000000 		.4byte	.LVL252
 13397 0d63 0100     		.2byte	0x1
 13398 0d65 56       		.byte	0x56
 13399 0d66 00000000 		.4byte	0
 13400 0d6a 00000000 		.4byte	0
 13401              	.LLST92:
 13402 0d6e 14000000 		.4byte	.LVL243
 13403 0d72 52000000 		.4byte	.LVL251
 13404 0d76 0100     		.2byte	0x1
 13405 0d78 54       		.byte	0x54
 13406 0d79 00000000 		.4byte	0
 13407 0d7d 00000000 		.4byte	0
 13408              	.LLST93:
 13409 0d81 00000000 		.4byte	.LVL253
 13410 0d85 0C000000 		.4byte	.LVL254
 13411 0d89 0100     		.2byte	0x1
 13412 0d8b 50       		.byte	0x50
 13413 0d8c 0C000000 		.4byte	.LVL254
 13414 0d90 04040000 		.4byte	.LFE216
 13415 0d94 0400     		.2byte	0x4
 13416 0d96 F3       		.byte	0xf3
 13417 0d97 01       		.uleb128 0x1
 13418 0d98 50       		.byte	0x50
 13419 0d99 9F       		.byte	0x9f
 13420 0d9a 00000000 		.4byte	0
 13421 0d9e 00000000 		.4byte	0
 13422              	.LLST94:
 13423 0da2 00000000 		.4byte	.LVL253
 13424 0da6 0F000000 		.4byte	.LVL255-1
 13425 0daa 0100     		.2byte	0x1
 13426 0dac 51       		.byte	0x51
 13427 0dad 0F000000 		.4byte	.LVL255-1
 13428 0db1 A4000000 		.4byte	.LVL276
 13429 0db5 0100     		.2byte	0x1
 13430 0db7 54       		.byte	0x54
 13431 0db8 A4000000 		.4byte	.LVL276
 13432 0dbc DE000000 		.4byte	.LVL283
 13433 0dc0 0400     		.2byte	0x4
 13434 0dc2 F3       		.byte	0xf3
 13435 0dc3 01       		.uleb128 0x1
 13436 0dc4 51       		.byte	0x51
 13437 0dc5 9F       		.byte	0x9f
 13438 0dc6 DE000000 		.4byte	.LVL283
 13439 0dca 20020000 		.4byte	.LVL310
ARM GAS  C:\Users\haske\AppData\Local\Temp\ccIkbvey.s 			page 275


 13440 0dce 0100     		.2byte	0x1
 13441 0dd0 54       		.byte	0x54
 13442 0dd1 20020000 		.4byte	.LVL310
 13443 0dd5 4A020000 		.4byte	.LVL314
 13444 0dd9 0400     		.2byte	0x4
 13445 0ddb F3       		.byte	0xf3
 13446 0ddc 01       		.uleb128 0x1
 13447 0ddd 51       		.byte	0x51
 13448 0dde 9F       		.byte	0x9f
 13449 0ddf 4A020000 		.4byte	.LVL314
 13450 0de3 52020000 		.4byte	.LVL316
 13451 0de7 0100     		.2byte	0x1
 13452 0de9 54       		.byte	0x54
 13453 0dea 52020000 		.4byte	.LVL316
 13454 0dee B6030000 		.4byte	.LVL349
 13455 0df2 0400     		.2byte	0x4
 13456 0df4 F3       		.byte	0xf3
 13457 0df5 01       		.uleb128 0x1
 13458 0df6 51       		.byte	0x51
 13459 0df7 9F       		.byte	0x9f
 13460 0df8 B6030000 		.4byte	.LVL349
 13461 0dfc C2030000 		.4byte	.LVL352
 13462 0e00 0100     		.2byte	0x1
 13463 0e02 54       		.byte	0x54
 13464 0e03 C2030000 		.4byte	.LVL352
 13465 0e07 D2030000 		.4byte	.LVL355
 13466 0e0b 0400     		.2byte	0x4
 13467 0e0d F3       		.byte	0xf3
 13468 0e0e 01       		.uleb128 0x1
 13469 0e0f 51       		.byte	0x51
 13470 0e10 9F       		.byte	0x9f
 13471 0e11 D2030000 		.4byte	.LVL355
 13472 0e15 F8030000 		.4byte	.LVL362
 13473 0e19 0100     		.2byte	0x1
 13474 0e1b 54       		.byte	0x54
 13475 0e1c F8030000 		.4byte	.LVL362
 13476 0e20 04040000 		.4byte	.LFE216
 13477 0e24 0400     		.2byte	0x4
 13478 0e26 F3       		.byte	0xf3
 13479 0e27 01       		.uleb128 0x1
 13480 0e28 51       		.byte	0x51
 13481 0e29 9F       		.byte	0x9f
 13482 0e2a 00000000 		.4byte	0
 13483 0e2e 00000000 		.4byte	0
 13484              	.LLST95:
 13485 0e32 10000000 		.4byte	.LVL255
 13486 0e36 18000000 		.4byte	.LVL256
 13487 0e3a 0100     		.2byte	0x1
 13488 0e3c 50       		.byte	0x50
 13489 0e3d 62010000 		.4byte	.LVL295
 13490 0e41 64010000 		.4byte	.LVL296
 13491 0e45 0100     		.2byte	0x1
 13492 0e47 50       		.byte	0x50
 13493 0e48 E0010000 		.4byte	.LVL300
 13494 0e4c E2010000 		.4byte	.LVL301
 13495 0e50 0100     		.2byte	0x1
 13496 0e52 50       		.byte	0x50
ARM GAS  C:\Users\haske\AppData\Local\Temp\ccIkbvey.s 			page 276


 13497 0e53 B4030000 		.4byte	.LVL348
 13498 0e57 B6030000 		.4byte	.LVL349
 13499 0e5b 0100     		.2byte	0x1
 13500 0e5d 50       		.byte	0x50
 13501 0e5e 00000000 		.4byte	0
 13502 0e62 00000000 		.4byte	0
 13503              	.LLST96:
 13504 0e66 1E000000 		.4byte	.LVL258
 13505 0e6a 20000000 		.4byte	.LVL259
 13506 0e6e 0100     		.2byte	0x1
 13507 0e70 50       		.byte	0x50
 13508 0e71 20000000 		.4byte	.LVL259
 13509 0e75 44000000 		.4byte	.LVL266
 13510 0e79 0100     		.2byte	0x1
 13511 0e7b 55       		.byte	0x55
 13512 0e7c 98000000 		.4byte	.LVL273
 13513 0e80 0C020000 		.4byte	.LVL308
 13514 0e84 0100     		.2byte	0x1
 13515 0e86 55       		.byte	0x55
 13516 0e87 B6030000 		.4byte	.LVL349
 13517 0e8b F8030000 		.4byte	.LVL362
 13518 0e8f 0100     		.2byte	0x1
 13519 0e91 55       		.byte	0x55
 13520 0e92 00000000 		.4byte	0
 13521 0e96 00000000 		.4byte	0
 13522              	.LLST97:
 13523 0e9a 26000000 		.4byte	.LVL261
 13524 0e9e 33000000 		.4byte	.LVL263-1
 13525 0ea2 0100     		.2byte	0x1
 13526 0ea4 50       		.byte	0x50
 13527 0ea5 33000000 		.4byte	.LVL263-1
 13528 0ea9 98000000 		.4byte	.LVL273
 13529 0ead 0100     		.2byte	0x1
 13530 0eaf 56       		.byte	0x56
 13531 0eb0 98000000 		.4byte	.LVL273
 13532 0eb4 9E000000 		.4byte	.LVL274
 13533 0eb8 0100     		.2byte	0x1
 13534 0eba 50       		.byte	0x50
 13535 0ebb 9E000000 		.4byte	.LVL274
 13536 0ebf DE000000 		.4byte	.LVL283
 13537 0ec3 0100     		.2byte	0x1
 13538 0ec5 56       		.byte	0x56
 13539 0ec6 DE000000 		.4byte	.LVL283
 13540 0eca E5000000 		.4byte	.LVL284-1
 13541 0ece 0100     		.2byte	0x1
 13542 0ed0 50       		.byte	0x50
 13543 0ed1 E5000000 		.4byte	.LVL284-1
 13544 0ed5 E8000000 		.4byte	.LVL285
 13545 0ed9 0100     		.2byte	0x1
 13546 0edb 56       		.byte	0x56
 13547 0edc E8000000 		.4byte	.LVL285
 13548 0ee0 EE000000 		.4byte	.LVL286
 13549 0ee4 0100     		.2byte	0x1
 13550 0ee6 50       		.byte	0x50
 13551 0ee7 EE000000 		.4byte	.LVL286
 13552 0eeb E2010000 		.4byte	.LVL301
 13553 0eef 0100     		.2byte	0x1
ARM GAS  C:\Users\haske\AppData\Local\Temp\ccIkbvey.s 			page 277


 13554 0ef1 56       		.byte	0x56
 13555 0ef2 E2010000 		.4byte	.LVL301
 13556 0ef6 E9010000 		.4byte	.LVL302-1
 13557 0efa 0100     		.2byte	0x1
 13558 0efc 50       		.byte	0x50
 13559 0efd E9010000 		.4byte	.LVL302-1
 13560 0f01 00020000 		.4byte	.LVL306
 13561 0f05 0100     		.2byte	0x1
 13562 0f07 56       		.byte	0x56
 13563 0f08 00020000 		.4byte	.LVL306
 13564 0f0c 09020000 		.4byte	.LVL307-1
 13565 0f10 0100     		.2byte	0x1
 13566 0f12 50       		.byte	0x50
 13567 0f13 09020000 		.4byte	.LVL307-1
 13568 0f17 B6030000 		.4byte	.LVL349
 13569 0f1b 0100     		.2byte	0x1
 13570 0f1d 56       		.byte	0x56
 13571 0f1e B6030000 		.4byte	.LVL349
 13572 0f22 BC030000 		.4byte	.LVL350
 13573 0f26 0100     		.2byte	0x1
 13574 0f28 50       		.byte	0x50
 13575 0f29 BC030000 		.4byte	.LVL350
 13576 0f2d D2030000 		.4byte	.LVL355
 13577 0f31 0100     		.2byte	0x1
 13578 0f33 56       		.byte	0x56
 13579 0f34 D2030000 		.4byte	.LVL355
 13580 0f38 D8030000 		.4byte	.LVL356
 13581 0f3c 0100     		.2byte	0x1
 13582 0f3e 50       		.byte	0x50
 13583 0f3f D8030000 		.4byte	.LVL356
 13584 0f43 E4030000 		.4byte	.LVL359
 13585 0f47 0100     		.2byte	0x1
 13586 0f49 56       		.byte	0x56
 13587 0f4a E4030000 		.4byte	.LVL359
 13588 0f4e EA030000 		.4byte	.LVL360
 13589 0f52 0100     		.2byte	0x1
 13590 0f54 50       		.byte	0x50
 13591 0f55 EA030000 		.4byte	.LVL360
 13592 0f59 F8030000 		.4byte	.LVL362
 13593 0f5d 0100     		.2byte	0x1
 13594 0f5f 56       		.byte	0x56
 13595 0f60 00000000 		.4byte	0
 13596 0f64 00000000 		.4byte	0
 13597              	.LLST99:
 13598 0f68 82000000 		.4byte	.LVL271
 13599 0f6c 98000000 		.4byte	.LVL273
 13600 0f70 0100     		.2byte	0x1
 13601 0f72 55       		.byte	0x55
 13602 0f73 00000000 		.4byte	0
 13603 0f77 00000000 		.4byte	0
 13604              	.LLST100:
 13605 0f7b 88000000 		.4byte	.LVL272
 13606 0f7f 98000000 		.4byte	.LVL273
 13607 0f83 0100     		.2byte	0x1
 13608 0f85 50       		.byte	0x50
 13609 0f86 00000000 		.4byte	0
 13610 0f8a 00000000 		.4byte	0
ARM GAS  C:\Users\haske\AppData\Local\Temp\ccIkbvey.s 			page 278


 13611              	.LLST101:
 13612 0f8e 2A000000 		.4byte	.LVL262
 13613 0f92 36000000 		.4byte	.LVL264
 13614 0f96 0400     		.2byte	0x4
 13615 0f98 48       		.byte	0x48
 13616 0f99 3D       		.byte	0x3d
 13617 0f9a 24       		.byte	0x24
 13618 0f9b 9F       		.byte	0x9f
 13619 0f9c 00000000 		.4byte	0
 13620 0fa0 00000000 		.4byte	0
 13621              	.LLST102:
 13622 0fa4 2A000000 		.4byte	.LVL262
 13623 0fa8 33000000 		.4byte	.LVL263-1
 13624 0fac 0100     		.2byte	0x1
 13625 0fae 50       		.byte	0x50
 13626 0faf 33000000 		.4byte	.LVL263-1
 13627 0fb3 36000000 		.4byte	.LVL264
 13628 0fb7 0100     		.2byte	0x1
 13629 0fb9 56       		.byte	0x56
 13630 0fba 00000000 		.4byte	0
 13631 0fbe 00000000 		.4byte	0
 13632              	.LLST103:
 13633 0fc2 36000000 		.4byte	.LVL264
 13634 0fc6 44000000 		.4byte	.LVL266
 13635 0fca 0400     		.2byte	0x4
 13636 0fcc 48       		.byte	0x48
 13637 0fcd 3D       		.byte	0x3d
 13638 0fce 24       		.byte	0x24
 13639 0fcf 9F       		.byte	0x9f
 13640 0fd0 00000000 		.4byte	0
 13641 0fd4 00000000 		.4byte	0
 13642              	.LLST104:
 13643 0fd8 36000000 		.4byte	.LVL264
 13644 0fdc 44000000 		.4byte	.LVL266
 13645 0fe0 0100     		.2byte	0x1
 13646 0fe2 56       		.byte	0x56
 13647 0fe3 00000000 		.4byte	0
 13648 0fe7 00000000 		.4byte	0
 13649              	.LLST105:
 13650 0feb 44000000 		.4byte	.LVL266
 13651 0fef 54000000 		.4byte	.LVL268
 13652 0ff3 0400     		.2byte	0x4
 13653 0ff5 48       		.byte	0x48
 13654 0ff6 3D       		.byte	0x3d
 13655 0ff7 24       		.byte	0x24
 13656 0ff8 9F       		.byte	0x9f
 13657 0ff9 00000000 		.4byte	0
 13658 0ffd 00000000 		.4byte	0
 13659              	.LLST106:
 13660 1001 44000000 		.4byte	.LVL266
 13661 1005 54000000 		.4byte	.LVL268
 13662 1009 0100     		.2byte	0x1
 13663 100b 56       		.byte	0x56
 13664 100c 00000000 		.4byte	0
 13665 1010 00000000 		.4byte	0
 13666              	.LLST107:
 13667 1014 54000000 		.4byte	.LVL268
ARM GAS  C:\Users\haske\AppData\Local\Temp\ccIkbvey.s 			page 279


 13668 1018 62000000 		.4byte	.LVL270
 13669 101c 0400     		.2byte	0x4
 13670 101e 48       		.byte	0x48
 13671 101f 3D       		.byte	0x3d
 13672 1020 24       		.byte	0x24
 13673 1021 9F       		.byte	0x9f
 13674 1022 00000000 		.4byte	0
 13675 1026 00000000 		.4byte	0
 13676              	.LLST108:
 13677 102a 54000000 		.4byte	.LVL268
 13678 102e 62000000 		.4byte	.LVL270
 13679 1032 0100     		.2byte	0x1
 13680 1034 56       		.byte	0x56
 13681 1035 00000000 		.4byte	0
 13682 1039 00000000 		.4byte	0
 13683              	.LLST109:
 13684 103d A4000000 		.4byte	.LVL276
 13685 1041 A6000000 		.4byte	.LVL277
 13686 1045 0100     		.2byte	0x1
 13687 1047 50       		.byte	0x50
 13688 1048 A6000000 		.4byte	.LVL277
 13689 104c DE000000 		.4byte	.LVL283
 13690 1050 0100     		.2byte	0x1
 13691 1052 54       		.byte	0x54
 13692 1053 00000000 		.4byte	0
 13693 1057 00000000 		.4byte	0
 13694              	.LLST110:
 13695 105b AA000000 		.4byte	.LVL278
 13696 105f B8000000 		.4byte	.LVL279
 13697 1063 0100     		.2byte	0x1
 13698 1065 54       		.byte	0x54
 13699 1066 00000000 		.4byte	0
 13700 106a 00000000 		.4byte	0
 13701              	.LLST111:
 13702 106e C2000000 		.4byte	.LVL280
 13703 1072 D0000000 		.4byte	.LVL281
 13704 1076 0100     		.2byte	0x1
 13705 1078 54       		.byte	0x54
 13706 1079 00000000 		.4byte	0
 13707 107d 00000000 		.4byte	0
 13708              	.LLST112:
 13709 1081 F4000000 		.4byte	.LVL288
 13710 1085 FE000000 		.4byte	.LVL289
 13711 1089 0100     		.2byte	0x1
 13712 108b 53       		.byte	0x53
 13713 108c FE000000 		.4byte	.LVL289
 13714 1090 00010000 		.4byte	.LVL290
 13715 1094 0200     		.2byte	0x2
 13716 1096 70       		.byte	0x70
 13717 1097 00       		.sleb128 0
 13718 1098 64010000 		.4byte	.LVL296
 13719 109c 70010000 		.4byte	.LVL297
 13720 10a0 0100     		.2byte	0x1
 13721 10a2 53       		.byte	0x53
 13722 10a3 70010000 		.4byte	.LVL297
 13723 10a7 72010000 		.4byte	.LVL298
 13724 10ab 0200     		.2byte	0x2
ARM GAS  C:\Users\haske\AppData\Local\Temp\ccIkbvey.s 			page 280


 13725 10ad 70       		.byte	0x70
 13726 10ae 00       		.sleb128 0
 13727 10af 00000000 		.4byte	0
 13728 10b3 00000000 		.4byte	0
 13729              	.LLST113:
 13730 10b7 0C020000 		.4byte	.LVL308
 13731 10bb 13020000 		.4byte	.LVL309-1
 13732 10bf 0100     		.2byte	0x1
 13733 10c1 50       		.byte	0x50
 13734 10c2 13020000 		.4byte	.LVL309-1
 13735 10c6 B6030000 		.4byte	.LVL349
 13736 10ca 0100     		.2byte	0x1
 13737 10cc 55       		.byte	0x55
 13738 10cd 00000000 		.4byte	0
 13739 10d1 00000000 		.4byte	0
 13740              	.LLST114:
 13741 10d5 14020000 		.4byte	.LVL309
 13742 10d9 22020000 		.4byte	.LVL311
 13743 10dd 0100     		.2byte	0x1
 13744 10df 50       		.byte	0x50
 13745 10e0 4A020000 		.4byte	.LVL314
 13746 10e4 4E020000 		.4byte	.LVL315
 13747 10e8 0100     		.2byte	0x1
 13748 10ea 50       		.byte	0x50
 13749 10eb 00000000 		.4byte	0
 13750 10ef 00000000 		.4byte	0
 13751              	.LLST115:
 13752 10f3 52020000 		.4byte	.LVL316
 13753 10f7 85020000 		.4byte	.LVL317-1
 13754 10fb 0B00     		.2byte	0xb
 13755 10fd 75       		.byte	0x75
 13756 10fe 00       		.sleb128 0
 13757 10ff 06       		.byte	0x6
 13758 1100 23       		.byte	0x23
 13759 1101 18       		.uleb128 0x18
 13760 1102 94       		.byte	0x94
 13761 1103 01       		.byte	0x1
 13762 1104 08       		.byte	0x8
 13763 1105 FF       		.byte	0xff
 13764 1106 1A       		.byte	0x1a
 13765 1107 9F       		.byte	0x9f
 13766 1108 00000000 		.4byte	0
 13767 110c 00000000 		.4byte	0
 13768              	.LLST116:
 13769 1110 BC020000 		.4byte	.LVL319
 13770 1114 DC020000 		.4byte	.LVL323
 13771 1118 0100     		.2byte	0x1
 13772 111a 54       		.byte	0x54
 13773 111b 00000000 		.4byte	0
 13774 111f 00000000 		.4byte	0
 13775              	.LLST117:
 13776 1123 BC020000 		.4byte	.LVL319
 13777 1127 5C030000 		.4byte	.LVL343
 13778 112b 0200     		.2byte	0x2
 13779 112d 30       		.byte	0x30
 13780 112e 9F       		.byte	0x9f
 13781 112f 5C030000 		.4byte	.LVL343
ARM GAS  C:\Users\haske\AppData\Local\Temp\ccIkbvey.s 			page 281


 13782 1133 87030000 		.4byte	.LVL344-1
 13783 1137 0100     		.2byte	0x1
 13784 1139 52       		.byte	0x52
 13785 113a 8E030000 		.4byte	.LVL345
 13786 113e 99030000 		.4byte	.LVL346-1
 13787 1142 0100     		.2byte	0x1
 13788 1144 52       		.byte	0x52
 13789 1145 00000000 		.4byte	0
 13790 1149 00000000 		.4byte	0
 13791              	.LLST118:
 13792 114d CA020000 		.4byte	.LVL322
 13793 1151 E0020000 		.4byte	.LVL325
 13794 1155 0100     		.2byte	0x1
 13795 1157 53       		.byte	0x53
 13796 1158 E4020000 		.4byte	.LVL326
 13797 115c EA020000 		.4byte	.LVL327
 13798 1160 0100     		.2byte	0x1
 13799 1162 50       		.byte	0x50
 13800 1163 EA020000 		.4byte	.LVL327
 13801 1167 F0020000 		.4byte	.LVL329
 13802 116b 0100     		.2byte	0x1
 13803 116d 53       		.byte	0x53
 13804 116e F2020000 		.4byte	.LVL330
 13805 1172 0E030000 		.4byte	.LVL333
 13806 1176 0100     		.2byte	0x1
 13807 1178 50       		.byte	0x50
 13808 1179 00000000 		.4byte	0
 13809 117d 00000000 		.4byte	0
 13810              	.LLST119:
 13811 1181 DE020000 		.4byte	.LVL324
 13812 1185 0C030000 		.4byte	.LVL332
 13813 1189 0200     		.2byte	0x2
 13814 118b 31       		.byte	0x31
 13815 118c 9F       		.byte	0x9f
 13816 118d 0C030000 		.4byte	.LVL332
 13817 1191 B6030000 		.4byte	.LVL349
 13818 1195 0100     		.2byte	0x1
 13819 1197 54       		.byte	0x54
 13820 1198 00000000 		.4byte	0
 13821 119c 00000000 		.4byte	0
 13822              	.LLST120:
 13823 11a0 12030000 		.4byte	.LVL334
 13824 11a4 28030000 		.4byte	.LVL335
 13825 11a8 0100     		.2byte	0x1
 13826 11aa 50       		.byte	0x50
 13827 11ab 3C030000 		.4byte	.LVL339
 13828 11af 46030000 		.4byte	.LVL340
 13829 11b3 0100     		.2byte	0x1
 13830 11b5 50       		.byte	0x50
 13831 11b6 00000000 		.4byte	0
 13832 11ba 00000000 		.4byte	0
 13833              	.LLST121:
 13834 11be BC020000 		.4byte	.LVL319
 13835 11c2 C8020000 		.4byte	.LVL321
 13836 11c6 0200     		.2byte	0x2
 13837 11c8 30       		.byte	0x30
 13838 11c9 9F       		.byte	0x9f
ARM GAS  C:\Users\haske\AppData\Local\Temp\ccIkbvey.s 			page 282


 13839 11ca 00000000 		.4byte	0
 13840 11ce 00000000 		.4byte	0
 13841              	.LLST122:
 13842 11d2 BC020000 		.4byte	.LVL319
 13843 11d6 C8020000 		.4byte	.LVL321
 13844 11da 0100     		.2byte	0x1
 13845 11dc 56       		.byte	0x56
 13846 11dd 00000000 		.4byte	0
 13847 11e1 00000000 		.4byte	0
 13848              	.LLST123:
 13849 11e5 EE020000 		.4byte	.LVL328
 13850 11e9 F8020000 		.4byte	.LVL331
 13851 11ed 0100     		.2byte	0x1
 13852 11ef 57       		.byte	0x57
 13853 11f0 00000000 		.4byte	0
 13854 11f4 00000000 		.4byte	0
 13855              	.LLST124:
 13856 11f8 C2030000 		.4byte	.LVL352
 13857 11fc C4030000 		.4byte	.LVL353
 13858 1200 0100     		.2byte	0x1
 13859 1202 50       		.byte	0x50
 13860 1203 C4030000 		.4byte	.LVL353
 13861 1207 D2030000 		.4byte	.LVL355
 13862 120b 0100     		.2byte	0x1
 13863 120d 54       		.byte	0x54
 13864 120e 00000000 		.4byte	0
 13865 1212 00000000 		.4byte	0
 13866              	.LLST125:
 13867 1216 EE030000 		.4byte	.LVL361
 13868 121a F8030000 		.4byte	.LVL362
 13869 121e 0100     		.2byte	0x1
 13870 1220 50       		.byte	0x50
 13871 1221 00000000 		.4byte	0
 13872 1225 00000000 		.4byte	0
 13873              	.LLST126:
 13874 1229 00000000 		.4byte	.LVL363
 13875 122d 04000000 		.4byte	.LVL364
 13876 1231 0100     		.2byte	0x1
 13877 1233 50       		.byte	0x50
 13878 1234 04000000 		.4byte	.LVL364
 13879 1238 0A000000 		.4byte	.LFE209
 13880 123c 0400     		.2byte	0x4
 13881 123e F3       		.byte	0xf3
 13882 123f 01       		.uleb128 0x1
 13883 1240 50       		.byte	0x50
 13884 1241 9F       		.byte	0x9f
 13885 1242 00000000 		.4byte	0
 13886 1246 00000000 		.4byte	0
 13887              	.LLST127:
 13888 124a 00000000 		.4byte	.LVL363
 13889 124e 04000000 		.4byte	.LVL364
 13890 1252 0100     		.2byte	0x1
 13891 1254 50       		.byte	0x50
 13892 1255 04000000 		.4byte	.LVL364
 13893 1259 0A000000 		.4byte	.LFE209
 13894 125d 0400     		.2byte	0x4
 13895 125f F3       		.byte	0xf3
ARM GAS  C:\Users\haske\AppData\Local\Temp\ccIkbvey.s 			page 283


 13896 1260 01       		.uleb128 0x1
 13897 1261 50       		.byte	0x50
 13898 1262 9F       		.byte	0x9f
 13899 1263 00000000 		.4byte	0
 13900 1267 00000000 		.4byte	0
 13901              	.LLST128:
 13902 126b 00000000 		.4byte	.LVL365
 13903 126f 04000000 		.4byte	.LVL366
 13904 1273 0100     		.2byte	0x1
 13905 1275 50       		.byte	0x50
 13906 1276 04000000 		.4byte	.LVL366
 13907 127a 0A000000 		.4byte	.LFE210
 13908 127e 0400     		.2byte	0x4
 13909 1280 F3       		.byte	0xf3
 13910 1281 01       		.uleb128 0x1
 13911 1282 50       		.byte	0x50
 13912 1283 9F       		.byte	0x9f
 13913 1284 00000000 		.4byte	0
 13914 1288 00000000 		.4byte	0
 13915              	.LLST129:
 13916 128c 00000000 		.4byte	.LVL365
 13917 1290 04000000 		.4byte	.LVL366
 13918 1294 0100     		.2byte	0x1
 13919 1296 50       		.byte	0x50
 13920 1297 04000000 		.4byte	.LVL366
 13921 129b 0A000000 		.4byte	.LFE210
 13922 129f 0400     		.2byte	0x4
 13923 12a1 F3       		.byte	0xf3
 13924 12a2 01       		.uleb128 0x1
 13925 12a3 50       		.byte	0x50
 13926 12a4 9F       		.byte	0x9f
 13927 12a5 00000000 		.4byte	0
 13928 12a9 00000000 		.4byte	0
 13929              		.section	.debug_aranges,"",%progbits
 13930 0000 BC000000 		.4byte	0xbc
 13931 0004 0200     		.2byte	0x2
 13932 0006 00000000 		.4byte	.Ldebug_info0
 13933 000a 04       		.byte	0x4
 13934 000b 00       		.byte	0
 13935 000c 0000     		.2byte	0
 13936 000e 0000     		.2byte	0
 13937 0010 00000000 		.4byte	.LFB220
 13938 0014 88000000 		.4byte	.LFE220-.LFB220
 13939 0018 00000000 		.4byte	.LFB221
 13940 001c 68010000 		.4byte	.LFE221-.LFB221
 13941 0020 00000000 		.4byte	.LFB222
 13942 0024 3E000000 		.4byte	.LFE222-.LFB222
 13943 0028 00000000 		.4byte	.LFB215
 13944 002c 94000000 		.4byte	.LFE215-.LFB215
 13945 0030 00000000 		.4byte	.LFB214
 13946 0034 1A000000 		.4byte	.LFE214-.LFB214
 13947 0038 00000000 		.4byte	.LFB218
 13948 003c 64000000 		.4byte	.LFE218-.LFB218
 13949 0040 00000000 		.4byte	.LFB217
 13950 0044 2C000000 		.4byte	.LFE217-.LFB217
 13951 0048 00000000 		.4byte	.LFB212
 13952 004c A0010000 		.4byte	.LFE212-.LFB212
ARM GAS  C:\Users\haske\AppData\Local\Temp\ccIkbvey.s 			page 284


 13953 0050 00000000 		.4byte	.LFB211
 13954 0054 58000000 		.4byte	.LFE211-.LFB211
 13955 0058 00000000 		.4byte	.LFB202
 13956 005c 20000000 		.4byte	.LFE202-.LFB202
 13957 0060 00000000 		.4byte	.LFB203
 13958 0064 66000000 		.4byte	.LFE203-.LFB203
 13959 0068 00000000 		.4byte	.LFB219
 13960 006c 76000000 		.4byte	.LFE219-.LFB219
 13961 0070 00000000 		.4byte	.LFB204
 13962 0074 64000000 		.4byte	.LFE204-.LFB204
 13963 0078 00000000 		.4byte	.LFB205
 13964 007c 22000000 		.4byte	.LFE205-.LFB205
 13965 0080 00000000 		.4byte	.LFB206
 13966 0084 16000000 		.4byte	.LFE206-.LFB206
 13967 0088 00000000 		.4byte	.LFB207
 13968 008c 12000000 		.4byte	.LFE207-.LFB207
 13969 0090 00000000 		.4byte	.LFB208
 13970 0094 12000000 		.4byte	.LFE208-.LFB208
 13971 0098 00000000 		.4byte	.LFB213
 13972 009c 58000000 		.4byte	.LFE213-.LFB213
 13973 00a0 00000000 		.4byte	.LFB216
 13974 00a4 04040000 		.4byte	.LFE216-.LFB216
 13975 00a8 00000000 		.4byte	.LFB209
 13976 00ac 0A000000 		.4byte	.LFE209-.LFB209
 13977 00b0 00000000 		.4byte	.LFB210
 13978 00b4 0A000000 		.4byte	.LFE210-.LFB210
 13979 00b8 00000000 		.4byte	0
 13980 00bc 00000000 		.4byte	0
 13981              		.section	.debug_ranges,"",%progbits
 13982              	.Ldebug_ranges0:
 13983 0000 00000000 		.4byte	.LFB220
 13984 0004 88000000 		.4byte	.LFE220
 13985 0008 00000000 		.4byte	.LFB221
 13986 000c 68010000 		.4byte	.LFE221
 13987 0010 00000000 		.4byte	.LFB222
 13988 0014 3E000000 		.4byte	.LFE222
 13989 0018 00000000 		.4byte	.LFB215
 13990 001c 94000000 		.4byte	.LFE215
 13991 0020 00000000 		.4byte	.LFB214
 13992 0024 1A000000 		.4byte	.LFE214
 13993 0028 00000000 		.4byte	.LFB218
 13994 002c 64000000 		.4byte	.LFE218
 13995 0030 00000000 		.4byte	.LFB217
 13996 0034 2C000000 		.4byte	.LFE217
 13997 0038 00000000 		.4byte	.LFB212
 13998 003c A0010000 		.4byte	.LFE212
 13999 0040 00000000 		.4byte	.LFB211
 14000 0044 58000000 		.4byte	.LFE211
 14001 0048 00000000 		.4byte	.LFB202
 14002 004c 20000000 		.4byte	.LFE202
 14003 0050 00000000 		.4byte	.LFB203
 14004 0054 66000000 		.4byte	.LFE203
 14005 0058 00000000 		.4byte	.LFB219
 14006 005c 76000000 		.4byte	.LFE219
 14007 0060 00000000 		.4byte	.LFB204
 14008 0064 64000000 		.4byte	.LFE204
 14009 0068 00000000 		.4byte	.LFB205
ARM GAS  C:\Users\haske\AppData\Local\Temp\ccIkbvey.s 			page 285


 14010 006c 22000000 		.4byte	.LFE205
 14011 0070 00000000 		.4byte	.LFB206
 14012 0074 16000000 		.4byte	.LFE206
 14013 0078 00000000 		.4byte	.LFB207
 14014 007c 12000000 		.4byte	.LFE207
 14015 0080 00000000 		.4byte	.LFB208
 14016 0084 12000000 		.4byte	.LFE208
 14017 0088 00000000 		.4byte	.LFB213
 14018 008c 58000000 		.4byte	.LFE213
 14019 0090 00000000 		.4byte	.LFB216
 14020 0094 04040000 		.4byte	.LFE216
 14021 0098 00000000 		.4byte	.LFB209
 14022 009c 0A000000 		.4byte	.LFE209
 14023 00a0 00000000 		.4byte	.LFB210
 14024 00a4 0A000000 		.4byte	.LFE210
 14025 00a8 00000000 		.4byte	0
 14026 00ac 00000000 		.4byte	0
 14027              		.section	.debug_line,"",%progbits
 14028              	.Ldebug_line0:
 14029 0000 060B0000 		.section	.debug_str,"MS",%progbits,1
 14029      02000007 
 14029      00000201 
 14029      FB0E0D00 
 14029      01010101 
 14030              	.LASF729:
 14031 0000 6C765F74 		.ascii	"lv_tick_elaps\000"
 14031      69636B5F 
 14031      656C6170 
 14031      7300
 14032              	.LASF202:
 14033 000e 62675F6F 		.ascii	"bg_opa\000"
 14033      706100
 14034              	.LASF411:
 14035 0015 7363726F 		.ascii	"scroll_obj\000"
 14035      6C6C5F6F 
 14035      626A00
 14036              	.LASF548:
 14037 0020 4C565F45 		.ascii	"LV_EVENT_VALUE_CHANGED\000"
 14037      56454E54 
 14037      5F56414C 
 14037      55455F43 
 14037      48414E47 
 14038              	.LASF198:
 14039 0037 685F6C61 		.ascii	"h_layout\000"
 14039      796F7574 
 14039      00
 14040              	.LASF727:
 14041 0040 6C765F69 		.ascii	"lv_indev_wait_release\000"
 14041      6E646576 
 14041      5F776169 
 14041      745F7265 
 14041      6C656173 
 14042              	.LASF602:
 14043 0056 4C565F42 		.ascii	"LV_BAR_MODE_NORMAL\000"
 14043      41525F4D 
 14043      4F44455F 
 14043      4E4F524D 
ARM GAS  C:\Users\haske\AppData\Local\Temp\ccIkbvey.s 			page 286


 14043      414C00
 14044              	.LASF276:
 14045 0069 4C565F44 		.ascii	"LV_DRAW_LAYER_FLAG_CAN_SUBDIVIDE\000"
 14045      5241575F 
 14045      4C415945 
 14045      525F464C 
 14045      41475F43 
 14046              	.LASF95:
 14047 008a 4C565F53 		.ascii	"LV_STYLE_LAYOUT\000"
 14047      54594C45 
 14047      5F4C4159 
 14047      4F555400 
 14048              	.LASF572:
 14049 009a 4C565F4B 		.ascii	"LV_KEY_UP\000"
 14049      45595F55 
 14049      5000
 14050              	.LASF23:
 14051 00a4 6C765F72 		.ascii	"lv_res_t\000"
 14051      65735F74 
 14051      00
 14052              	.LASF706:
 14053 00ad 6C765F63 		.ascii	"lv_colorwheel_class\000"
 14053      6F6C6F72 
 14053      77686565 
 14053      6C5F636C 
 14053      61737300 
 14054              	.LASF227:
 14055 00c1 666F6E74 		.ascii	"font\000"
 14055      00
 14056              	.LASF232:
 14057 00c6 6C696E65 		.ascii	"line_space\000"
 14057      5F737061 
 14057      636500
 14058              	.LASF405:
 14059 00d1 76656374 		.ascii	"vect\000"
 14059      00
 14060              	.LASF70:
 14061 00d6 6C765F74 		.ascii	"lv_text_align_t\000"
 14061      6578745F 
 14061      616C6967 
 14061      6E5F7400 
 14062              	.LASF399:
 14063 00e6 6C6F6E67 		.ascii	"long_press_time\000"
 14063      5F707265 
 14063      73735F74 
 14063      696D6500 
 14064              	.LASF38:
 14065 00f6 6C765F64 		.ascii	"lv_dir_t\000"
 14065      69725F74 
 14065      00
 14066              	.LASF182:
 14067 00ff 6861735F 		.ascii	"has_group\000"
 14067      67726F75 
 14067      7000
 14068              	.LASF1:
 14069 0109 5F5F7569 		.ascii	"__uint8_t\000"
 14069      6E74385F 
ARM GAS  C:\Users\haske\AppData\Local\Temp\ccIkbvey.s 			page 287


 14069      7400
 14070              	.LASF435:
 14071 0113 5F6C765F 		.ascii	"_lv_group_t\000"
 14071      67726F75 
 14071      705F7400 
 14072              	.LASF416:
 14073 011f 67657374 		.ascii	"gesture_dir\000"
 14073      7572655F 
 14073      64697200 
 14074              	.LASF58:
 14075 012b 5F426F6F 		.ascii	"_Bool\000"
 14075      6C00
 14076              	.LASF640:
 14077 0131 6765745F 		.ascii	"get_angle\000"
 14077      616E676C 
 14077      6500
 14078              	.LASF539:
 14079 013b 4C565F45 		.ascii	"LV_EVENT_REFR_EXT_DRAW_SIZE\000"
 14079      56454E54 
 14079      5F524546 
 14079      525F4558 
 14079      545F4452 
 14080              	.LASF603:
 14081 0157 4C565F42 		.ascii	"LV_BAR_MODE_SYMMETRICAL\000"
 14081      41525F4D 
 14081      4F44455F 
 14081      53594D4D 
 14081      45545249 
 14082              	.LASF454:
 14083 016f 4C565F50 		.ascii	"LV_PART_CUSTOM_FIRST\000"
 14083      4152545F 
 14083      43555354 
 14083      4F4D5F46 
 14083      49525354 
 14084              	.LASF30:
 14085 0184 6C765F74 		.ascii	"lv_timer_t\000"
 14085      696D6572 
 14085      5F7400
 14086              	.LASF396:
 14087 018f 7363726F 		.ascii	"scroll_throw\000"
 14087      6C6C5F74 
 14087      68726F77 
 14087      00
 14088              	.LASF248:
 14089 019c 64617368 		.ascii	"dash_width\000"
 14089      5F776964 
 14089      746800
 14090              	.LASF348:
 14091 01a7 64726177 		.ascii	"draw_ctx_size\000"
 14091      5F637478 
 14091      5F73697A 
 14091      6500
 14092              	.LASF55:
 14093 01b5 756E6465 		.ascii	"underline_thickness\000"
 14093      726C696E 
 14093      655F7468 
 14093      69636B6E 
ARM GAS  C:\Users\haske\AppData\Local\Temp\ccIkbvey.s 			page 288


 14093      65737300 
 14094              	.LASF535:
 14095 01c9 4C565F45 		.ascii	"LV_EVENT_DEFOCUSED\000"
 14095      56454E54 
 14095      5F444546 
 14095      4F435553 
 14095      454400
 14096              	.LASF109:
 14097 01dc 4C565F53 		.ascii	"LV_STYLE_BG_MAIN_STOP\000"
 14097      54594C45 
 14097      5F42475F 
 14097      4D41494E 
 14097      5F53544F 
 14098              	.LASF737:
 14099 01f2 6C765F69 		.ascii	"lv_indev_get_type\000"
 14099      6E646576 
 14099      5F676574 
 14099      5F747970 
 14099      6500
 14100              	.LASF302:
 14101 0204 6C617965 		.ascii	"layer_adjust\000"
 14101      725F6164 
 14101      6A757374 
 14101      00
 14102              	.LASF368:
 14103 0211 6C617374 		.ascii	"last_activity_time\000"
 14103      5F616374 
 14103      69766974 
 14103      795F7469 
 14103      6D6500
 14104              	.LASF239:
 14105 0224 616E676C 		.ascii	"angle\000"
 14105      6500
 14106              	.LASF102:
 14107 022a 4C565F53 		.ascii	"LV_STYLE_PAD_COLUMN\000"
 14107      54594C45 
 14107      5F504144 
 14107      5F434F4C 
 14107      554D4E00 
 14108              	.LASF57:
 14109 023e 6C765F66 		.ascii	"lv_font_glyph_dsc_t\000"
 14109      6F6E745F 
 14109      676C7970 
 14109      685F6473 
 14109      635F7400 
 14110              	.LASF163:
 14111 0252 4C565F53 		.ascii	"LV_STYLE_TRANSFORM_HEIGHT\000"
 14111      54594C45 
 14111      5F545241 
 14111      4E53464F 
 14111      524D5F48 
 14112              	.LASF710:
 14113 026c 6C765F6F 		.ascii	"lv_obj_get_width\000"
 14113      626A5F67 
 14113      65745F77 
 14113      69647468 
 14113      00
ARM GAS  C:\Users\haske\AppData\Local\Temp\ccIkbvey.s 			page 289


 14114              	.LASF18:
 14115 027d 75696E74 		.ascii	"uint16_t\000"
 14115      31365F74 
 14115      00
 14116              	.LASF194:
 14117 0286 6C61796F 		.ascii	"layout_inv\000"
 14117      75745F69 
 14117      6E7600
 14118              	.LASF635:
 14119 0291 6C765F61 		.ascii	"lv_area_get_height\000"
 14119      7265615F 
 14119      6765745F 
 14119      68656967 
 14119      687400
 14120              	.LASF393:
 14121 02a4 66656564 		.ascii	"feedback_cb\000"
 14121      6261636B 
 14121      5F636200 
 14122              	.LASF389:
 14123 02b0 636F6E74 		.ascii	"continue_reading\000"
 14123      696E7565 
 14123      5F726561 
 14123      64696E67 
 14123      00
 14124              	.LASF426:
 14125 02c1 77616974 		.ascii	"wait_until_release\000"
 14125      5F756E74 
 14125      696C5F72 
 14125      656C6561 
 14125      736500
 14126              	.LASF375:
 14127 02d4 666F6E74 		.ascii	"font_normal\000"
 14127      5F6E6F72 
 14127      6D616C00 
 14128              	.LASF114:
 14129 02e0 4C565F53 		.ascii	"LV_STYLE_BG_IMG_OPA\000"
 14129      54594C45 
 14129      5F42475F 
 14129      494D475F 
 14129      4F504100 
 14130              	.LASF557:
 14131 02f4 4C565F45 		.ascii	"LV_EVENT_SCREEN_UNLOAD_START\000"
 14131      56454E54 
 14131      5F534352 
 14131      45454E5F 
 14131      554E4C4F 
 14132              	.LASF699:
 14133 0311 4C565F53 		.ascii	"LV_STYLE_GRID_ROW_ALIGN\000"
 14133      54594C45 
 14133      5F475249 
 14133      445F524F 
 14133      575F414C 
 14134              	.LASF446:
 14135 0329 4C565F50 		.ascii	"LV_PART_MAIN\000"
 14135      4152545F 
 14135      4D41494E 
 14135      00
ARM GAS  C:\Users\haske\AppData\Local\Temp\ccIkbvey.s 			page 290


 14136              	.LASF698:
 14137 0336 4C565F53 		.ascii	"LV_STYLE_GRID_ROW_DSC_ARRAY\000"
 14137      54594C45 
 14137      5F475249 
 14137      445F524F 
 14137      575F4453 
 14138              	.LASF424:
 14139 0352 72657365 		.ascii	"reset_query\000"
 14139      745F7175 
 14139      65727900 
 14140              	.LASF149:
 14141 035e 4C565F53 		.ascii	"LV_STYLE_TEXT_FONT\000"
 14141      54594C45 
 14141      5F544558 
 14141      545F464F 
 14141      4E5400
 14142              	.LASF485:
 14143 0371 6C765F6F 		.ascii	"lv_obj_flag_t\000"
 14143      626A5F66 
 14143      6C61675F 
 14143      7400
 14144              	.LASF553:
 14145 037f 4C565F45 		.ascii	"LV_EVENT_DELETE\000"
 14145      56454E54 
 14145      5F44454C 
 14145      45544500 
 14146              	.LASF56:
 14147 038f 66616C6C 		.ascii	"fallback\000"
 14147      6261636B 
 14147      00
 14148              	.LASF78:
 14149 0398 66726163 		.ascii	"frac\000"
 14149      00
 14150              	.LASF190:
 14151 039d 7374796C 		.ascii	"styles\000"
 14151      657300
 14152              	.LASF53:
 14153 03a4 73756270 		.ascii	"subpx\000"
 14153      7800
 14154              	.LASF741:
 14155 03aa 6C765F6F 		.ascii	"lv_obj_event_base\000"
 14155      626A5F65 
 14155      76656E74 
 14155      5F626173 
 14155      6500
 14156              	.LASF162:
 14157 03bc 4C565F53 		.ascii	"LV_STYLE_TRANSFORM_WIDTH\000"
 14157      54594C45 
 14157      5F545241 
 14157      4E53464F 
 14157      524D5F57 
 14158              	.LASF270:
 14159 03d5 72656374 		.ascii	"rect\000"
 14159      00
 14160              	.LASF136:
 14161 03da 4C565F53 		.ascii	"LV_STYLE_LINE_WIDTH\000"
 14161      54594C45 
ARM GAS  C:\Users\haske\AppData\Local\Temp\ccIkbvey.s 			page 291


 14161      5F4C494E 
 14161      455F5749 
 14161      44544800 
 14162              	.LASF288:
 14163 03ee 5F6C765F 		.ascii	"_lv_draw_ctx_t\000"
 14163      64726177 
 14163      5F637478 
 14163      5F7400
 14164              	.LASF88:
 14165 03fd 4C565F53 		.ascii	"LV_STYLE_MAX_WIDTH\000"
 14165      54594C45 
 14165      5F4D4158 
 14165      5F574944 
 14165      544800
 14166              	.LASF599:
 14167 0410 5F6C765F 		.ascii	"_lv_obj_spec_attr_t\000"
 14167      6F626A5F 
 14167      73706563 
 14167      5F617474 
 14167      725F7400 
 14168              	.LASF139:
 14169 0424 4C565F53 		.ascii	"LV_STYLE_LINE_ROUNDED\000"
 14169      54594C45 
 14169      5F4C494E 
 14169      455F524F 
 14169      554E4445 
 14170              	.LASF641:
 14171 043a 636F6C6F 		.ascii	"colorwheel\000"
 14171      72776865 
 14171      656C00
 14172              	.LASF742:
 14173 0445 6C765F65 		.ascii	"lv_event_get_code\000"
 14173      76656E74 
 14173      5F676574 
 14173      5F636F64 
 14173      6500
 14174              	.LASF645:
 14175 0457 626F7474 		.ascii	"bottom\000"
 14175      6F6D00
 14176              	.LASF579:
 14177 045e 4C565F4B 		.ascii	"LV_KEY_ENTER\000"
 14177      45595F45 
 14177      4E544552 
 14177      00
 14178              	.LASF536:
 14179 046b 4C565F45 		.ascii	"LV_EVENT_LEAVE\000"
 14179      56454E54 
 14179      5F4C4541 
 14179      564500
 14180              	.LASF544:
 14181 047a 4C565F45 		.ascii	"LV_EVENT_DRAW_POST\000"
 14181      56454E54 
 14181      5F445241 
 14181      575F504F 
 14181      535400
 14182              	.LASF19:
 14183 048d 696E7433 		.ascii	"int32_t\000"
ARM GAS  C:\Users\haske\AppData\Local\Temp\ccIkbvey.s 			page 292


 14183      325F7400 
 14184              	.LASF319:
 14185 0495 6C617374 		.ascii	"last_area\000"
 14185      5F617265 
 14185      6100
 14186              	.LASF178:
 14187 049f 76616C75 		.ascii	"value1\000"
 14187      653100
 14188              	.LASF173:
 14189 04a6 5F4C565F 		.ascii	"_LV_STYLE_PROP_CONST\000"
 14189      5354594C 
 14189      455F5052 
 14189      4F505F43 
 14189      4F4E5354 
 14190              	.LASF334:
 14191 04bb 726F7461 		.ascii	"rotated\000"
 14191      74656400 
 14192              	.LASF663:
 14193 04c3 6B6E6F62 		.ascii	"knob_recolor\000"
 14193      5F726563 
 14193      6F6C6F72 
 14193      00
 14194              	.LASF154:
 14195 04d0 4C565F53 		.ascii	"LV_STYLE_OPA\000"
 14195      54594C45 
 14195      5F4F5041 
 14195      00
 14196              	.LASF280:
 14197 04dd 73637265 		.ascii	"screen_transp\000"
 14197      656E5F74 
 14197      72616E73 
 14197      7000
 14198              	.LASF39:
 14199 04eb 7265736F 		.ascii	"resolved_font\000"
 14199      6C766564 
 14199      5F666F6E 
 14199      7400
 14200              	.LASF654:
 14201 04f9 6369725F 		.ascii	"cir_w\000"
 14201      7700
 14202              	.LASF563:
 14203 04ff 4C565F45 		.ascii	"LV_EVENT_LAYOUT_CHANGED\000"
 14203      56454E54 
 14203      5F4C4159 
 14203      4F55545F 
 14203      4348414E 
 14204              	.LASF684:
 14205 0517 696E6E65 		.ascii	"inner\000"
 14205      7200
 14206              	.LASF577:
 14207 051d 4C565F4B 		.ascii	"LV_KEY_DEL\000"
 14207      45595F44 
 14207      454C00
 14208              	.LASF261:
 14209 0528 6C765F64 		.ascii	"lv_draw_mask_xcb_t\000"
 14209      7261775F 
 14209      6D61736B 
ARM GAS  C:\Users\haske\AppData\Local\Temp\ccIkbvey.s 			page 293


 14209      5F786362 
 14209      5F7400
 14210              	.LASF406:
 14211 053b 7363726F 		.ascii	"scroll_sum\000"
 14211      6C6C5F73 
 14211      756D00
 14212              	.LASF495:
 14213 0546 4C565F43 		.ascii	"LV_COVER_RES_MASKED\000"
 14213      4F564552 
 14213      5F524553 
 14213      5F4D4153 
 14213      4B454400 
 14214              	.LASF275:
 14215 055a 4C565F44 		.ascii	"LV_DRAW_LAYER_FLAG_HAS_ALPHA\000"
 14215      5241575F 
 14215      4C415945 
 14215      525F464C 
 14215      41475F48 
 14216              	.LASF732:
 14217 0577 6C765F63 		.ascii	"lv_color_hsv_to_rgb\000"
 14217      6F6C6F72 
 14217      5F687376 
 14217      5F746F5F 
 14217      72676200 
 14218              	.LASF159:
 14219 058b 4C565F53 		.ascii	"LV_STYLE_ANIM_SPEED\000"
 14219      54594C45 
 14219      5F414E49 
 14219      4D5F5350 
 14219      45454400 
 14220              	.LASF204:
 14221 059f 62675F67 		.ascii	"bg_grad\000"
 14221      72616400 
 14222              	.LASF469:
 14223 05a7 4C565F4F 		.ascii	"LV_OBJ_FLAG_SNAPPABLE\000"
 14223      424A5F46 
 14223      4C41475F 
 14223      534E4150 
 14223      5041424C 
 14224              	.LASF431:
 14225 05bd 70726F63 		.ascii	"proc\000"
 14225      00
 14226              	.LASF175:
 14227 05c2 70726F70 		.ascii	"prop\000"
 14227      00
 14228              	.LASF608:
 14229 05c7 4C565F49 		.ascii	"LV_IMGBTN_STATE_CHECKED_RELEASED\000"
 14229      4D474254 
 14229      4E5F5354 
 14229      4154455F 
 14229      43484543 
 14230              	.LASF604:
 14231 05e8 4C565F42 		.ascii	"LV_BAR_MODE_RANGE\000"
 14231      41525F4D 
 14231      4F44455F 
 14231      52414E47 
 14231      4500
ARM GAS  C:\Users\haske\AppData\Local\Temp\ccIkbvey.s 			page 294


 14232              	.LASF541:
 14233 05fa 4C565F45 		.ascii	"LV_EVENT_DRAW_MAIN\000"
 14233      56454E54 
 14233      5F445241 
 14233      575F4D41 
 14233      494E00
 14234              	.LASF87:
 14235 060d 4C565F53 		.ascii	"LV_STYLE_MIN_WIDTH\000"
 14235      54594C45 
 14235      5F4D494E 
 14235      5F574944 
 14235      544800
 14236              	.LASF161:
 14237 0620 4C565F53 		.ascii	"LV_STYLE_BLEND_MODE\000"
 14237      54594C45 
 14237      5F424C45 
 14237      4E445F4D 
 14237      4F444500 
 14238              	.LASF438:
 14239 0634 666F6375 		.ascii	"focus_cb\000"
 14239      735F6362 
 14239      00
 14240              	.LASF477:
 14241 063d 4C565F4F 		.ascii	"LV_OBJ_FLAG_LAYOUT_1\000"
 14241      424A5F46 
 14241      4C41475F 
 14241      4C41594F 
 14241      55545F31 
 14242              	.LASF207:
 14243 0652 62675F69 		.ascii	"bg_img_recolor\000"
 14243      6D675F72 
 14243      65636F6C 
 14243      6F7200
 14244              	.LASF257:
 14245 0661 726F756E 		.ascii	"rounded\000"
 14245      64656400 
 14246              	.LASF526:
 14247 0669 4C565F45 		.ascii	"LV_EVENT_LONG_PRESSED_REPEAT\000"
 14247      56454E54 
 14247      5F4C4F4E 
 14247      475F5052 
 14247      45535345 
 14248              	.LASF723:
 14249 0686 6C765F6F 		.ascii	"lv_obj_clear_flag\000"
 14249      626A5F63 
 14249      6C656172 
 14249      5F666C61 
 14249      6700
 14250              	.LASF534:
 14251 0698 4C565F45 		.ascii	"LV_EVENT_FOCUSED\000"
 14251      56454E54 
 14251      5F464F43 
 14251      55534544 
 14251      00
 14252              	.LASF667:
 14253 06a9 696E6465 		.ascii	"indev\000"
 14253      7600
ARM GAS  C:\Users\haske\AppData\Local\Temp\ccIkbvey.s 			page 295


 14254              	.LASF92:
 14255 06af 4C565F53 		.ascii	"LV_STYLE_X\000"
 14255      54594C45 
 14255      5F5800
 14256              	.LASF93:
 14257 06ba 4C565F53 		.ascii	"LV_STYLE_Y\000"
 14257      54594C45 
 14257      5F5900
 14258              	.LASF586:
 14259 06c5 6C765F67 		.ascii	"lv_group_t\000"
 14259      726F7570 
 14259      5F7400
 14260              	.LASF631:
 14261 06d0 64657374 		.ascii	"dest\000"
 14261      00
 14262              	.LASF107:
 14263 06d5 4C565F53 		.ascii	"LV_STYLE_BG_GRAD_COLOR\000"
 14263      54594C45 
 14263      5F42475F 
 14263      47524144 
 14263      5F434F4C 
 14264              	.LASF460:
 14265 06ec 4C565F4F 		.ascii	"LV_OBJ_FLAG_SCROLLABLE\000"
 14265      424A5F46 
 14265      4C41475F 
 14265      5343524F 
 14265      4C4C4142 
 14266              	.LASF172:
 14267 0703 4C565F53 		.ascii	"LV_STYLE_PROP_ANY\000"
 14267      54594C45 
 14267      5F50524F 
 14267      505F414E 
 14267      5900
 14268              	.LASF254:
 14269 0715 73746172 		.ascii	"start_angle\000"
 14269      745F616E 
 14269      676C6500 
 14270              	.LASF425:
 14271 0721 64697361 		.ascii	"disabled\000"
 14271      626C6564 
 14271      00
 14272              	.LASF332:
 14273 072a 73775F72 		.ascii	"sw_rotate\000"
 14273      6F746174 
 14273      6500
 14274              	.LASF685:
 14275 0734 696E666F 		.ascii	"info\000"
 14275      00
 14276              	.LASF89:
 14277 0739 4C565F53 		.ascii	"LV_STYLE_HEIGHT\000"
 14277      54594C45 
 14277      5F484549 
 14277      47485400 
 14278              	.LASF385:
 14279 0749 6C765F69 		.ascii	"lv_indev_state_t\000"
 14279      6E646576 
 14279      5F737461 
ARM GAS  C:\Users\haske\AppData\Local\Temp\ccIkbvey.s 			page 296


 14279      74655F74 
 14279      00
 14280              	.LASF686:
 14281 075a 6C765F63 		.ascii	"lv_colorwheel_get_color_mode\000"
 14281      6F6C6F72 
 14281      77686565 
 14281      6C5F6765 
 14281      745F636F 
 14282              	.LASF559:
 14283 0777 4C565F45 		.ascii	"LV_EVENT_SCREEN_LOADED\000"
 14283      56454E54 
 14283      5F534352 
 14283      45454E5F 
 14283      4C4F4144 
 14284              	.LASF434:
 14285 078e 62746E5F 		.ascii	"btn_points\000"
 14285      706F696E 
 14285      747300
 14286              	.LASF660:
 14287 0799 6369725F 		.ascii	"cir_w_extra\000"
 14287      775F6578 
 14287      74726100 
 14288              	.LASF108:
 14289 07a5 4C565F53 		.ascii	"LV_STYLE_BG_GRAD_DIR\000"
 14289      54594C45 
 14289      5F42475F 
 14289      47524144 
 14289      5F444952 
 14290              	.LASF517:
 14291 07ba 73746F70 		.ascii	"stop_processing\000"
 14291      5F70726F 
 14291      63657373 
 14291      696E6700 
 14292              	.LASF612:
 14293 07ca 4C565F43 		.ascii	"LV_COLORWHEEL_MODE_HUE\000"
 14293      4F4C4F52 
 14293      57484545 
 14293      4C5F4D4F 
 14293      44455F48 
 14294              	.LASF556:
 14295 07e1 4C565F45 		.ascii	"LV_EVENT_CHILD_DELETED\000"
 14295      56454E54 
 14295      5F434849 
 14295      4C445F44 
 14295      454C4554 
 14296              	.LASF623:
 14297 07f8 6C765F63 		.ascii	"lv_color_make\000"
 14297      6F6C6F72 
 14297      5F6D616B 
 14297      6500
 14298              	.LASF717:
 14299 0806 6C765F6F 		.ascii	"lv_obj_init_draw_line_dsc\000"
 14299      626A5F69 
 14299      6E69745F 
 14299      64726177 
 14299      5F6C696E 
 14300              	.LASF696:
ARM GAS  C:\Users\haske\AppData\Local\Temp\ccIkbvey.s 			page 297


 14301 0820 4C565F53 		.ascii	"LV_STYLE_GRID_COLUMN_DSC_ARRAY\000"
 14301      54594C45 
 14301      5F475249 
 14301      445F434F 
 14301      4C554D4E 
 14302              	.LASF711:
 14303 083f 6C765F6F 		.ascii	"lv_obj_invalidate\000"
 14303      626A5F69 
 14303      6E76616C 
 14303      69646174 
 14303      6500
 14304              	.LASF75:
 14305 0851 6C765F67 		.ascii	"lv_grad_dir_t\000"
 14305      7261645F 
 14305      6469725F 
 14305      7400
 14306              	.LASF267:
 14307 085f 6C696665 		.ascii	"life\000"
 14307      00
 14308              	.LASF719:
 14309 0864 6C765F64 		.ascii	"lv_draw_mask_add\000"
 14309      7261775F 
 14309      6D61736B 
 14309      5F616464 
 14309      00
 14310              	.LASF649:
 14311 0875 72656672 		.ascii	"refr_knob_pos\000"
 14311      5F6B6E6F 
 14311      625F706F 
 14311      7300
 14312              	.LASF235:
 14313 0883 616C6967 		.ascii	"align\000"
 14313      6E00
 14314              	.LASF714:
 14315 0889 6C765F65 		.ascii	"lv_event_get_draw_ctx\000"
 14315      76656E74 
 14315      5F676574 
 14315      5F647261 
 14315      775F6374 
 14316              	.LASF509:
 14317 089f 4C565F4F 		.ascii	"LV_OBJ_CLASS_EDITABLE_FALSE\000"
 14317      424A5F43 
 14317      4C415353 
 14317      5F454449 
 14317      5441424C 
 14318              	.LASF606:
 14319 08bb 4C565F49 		.ascii	"LV_IMGBTN_STATE_PRESSED\000"
 14319      4D474254 
 14319      4E5F5354 
 14319      4154455F 
 14319      50524553 
 14320              	.LASF4:
 14321 08d3 5F5F696E 		.ascii	"__int16_t\000"
 14321      7431365F 
 14321      7400
 14322              	.LASF6:
 14323 08dd 5F5F7569 		.ascii	"__uint16_t\000"
ARM GAS  C:\Users\haske\AppData\Local\Temp\ccIkbvey.s 			page 298


 14323      6E743136 
 14323      5F7400
 14324              	.LASF452:
 14325 08e8 4C565F50 		.ascii	"LV_PART_TICKS\000"
 14325      4152545F 
 14325      5449434B 
 14325      5300
 14326              	.LASF153:
 14327 08f6 4C565F53 		.ascii	"LV_STYLE_TEXT_ALIGN\000"
 14327      54594C45 
 14327      5F544558 
 14327      545F414C 
 14327      49474E00 
 14328              	.LASF228:
 14329 090a 73656C5F 		.ascii	"sel_start\000"
 14329      73746172 
 14329      7400
 14330              	.LASF503:
 14331 0914 68656967 		.ascii	"height_def\000"
 14331      68745F64 
 14331      656600
 14332              	.LASF244:
 14333 091f 6672616D 		.ascii	"frame_id\000"
 14333      655F6964 
 14333      00
 14334              	.LASF305:
 14335 0928 6C617965 		.ascii	"layer_instance_size\000"
 14335      725F696E 
 14335      7374616E 
 14335      63655F73 
 14335      697A6500 
 14336              	.LASF588:
 14337 093c 6368696C 		.ascii	"child_cnt\000"
 14337      645F636E 
 14337      7400
 14338              	.LASF497:
 14339 0946 5F6C765F 		.ascii	"_lv_obj_class_t\000"
 14339      6F626A5F 
 14339      636C6173 
 14339      735F7400 
 14340              	.LASF620:
 14341 0956 6D6F6465 		.ascii	"mode\000"
 14341      00
 14342              	.LASF735:
 14343 095b 6C765F64 		.ascii	"lv_draw_rect\000"
 14343      7261775F 
 14343      72656374 
 14343      00
 14344              	.LASF622:
 14345 0968 6C765F63 		.ascii	"lv_colorwheel_t\000"
 14345      6F6C6F72 
 14345      77686565 
 14345      6C5F7400 
 14346              	.LASF531:
 14347 0978 4C565F45 		.ascii	"LV_EVENT_SCROLL\000"
 14347      56454E54 
 14347      5F534352 
ARM GAS  C:\Users\haske\AppData\Local\Temp\ccIkbvey.s 			page 299


 14347      4F4C4C00 
 14348              	.LASF598:
 14349 0988 6C617965 		.ascii	"layer_type\000"
 14349      725F7479 
 14349      706500
 14350              	.LASF367:
 14351 0993 696E765F 		.ascii	"inv_en_cnt\000"
 14351      656E5F63 
 14351      6E7400
 14352              	.LASF437:
 14353 099e 6F626A5F 		.ascii	"obj_focus\000"
 14353      666F6375 
 14353      7300
 14354              	.LASF397:
 14355 09a8 67657374 		.ascii	"gesture_min_velocity\000"
 14355      7572655F 
 14355      6D696E5F 
 14355      76656C6F 
 14355      63697479 
 14356              	.LASF574:
 14357 09bd 4C565F4B 		.ascii	"LV_KEY_RIGHT\000"
 14357      45595F52 
 14357      49474854 
 14357      00
 14358              	.LASF377:
 14359 09ca 4C565F49 		.ascii	"LV_INDEV_TYPE_NONE\000"
 14359      4E444556 
 14359      5F545950 
 14359      455F4E4F 
 14359      4E4500
 14360              	.LASF145:
 14361 09dd 4C565F53 		.ascii	"LV_STYLE_ARC_OPA\000"
 14361      54594C45 
 14361      5F415243 
 14361      5F4F5041 
 14361      00
 14362              	.LASF134:
 14363 09ee 4C565F53 		.ascii	"LV_STYLE_IMG_RECOLOR\000"
 14363      54594C45 
 14363      5F494D47 
 14363      5F524543 
 14363      4F4C4F52 
 14364              	.LASF3:
 14365 0a03 756E7369 		.ascii	"unsigned char\000"
 14365      676E6564 
 14365      20636861 
 14365      7200
 14366              	.LASF74:
 14367 0a11 6C765F62 		.ascii	"lv_border_side_t\000"
 14367      6F726465 
 14367      725F7369 
 14367      64655F74 
 14367      00
 14368              	.LASF54:
 14369 0a22 756E6465 		.ascii	"underline_position\000"
 14369      726C696E 
 14369      655F706F 
ARM GAS  C:\Users\haske\AppData\Local\Temp\ccIkbvey.s 			page 300


 14369      73697469 
 14369      6F6E00
 14370              	.LASF404:
 14371 0a35 6C617374 		.ascii	"last_raw_point\000"
 14371      5F726177 
 14371      5F706F69 
 14371      6E7400
 14372              	.LASF459:
 14373 0a44 4C565F4F 		.ascii	"LV_OBJ_FLAG_CHECKABLE\000"
 14373      424A5F46 
 14373      4C41475F 
 14373      43484543 
 14373      4B41424C 
 14374              	.LASF601:
 14375 0a5a 6C765F74 		.ascii	"lv_theme_apply_cb_t\000"
 14375      68656D65 
 14375      5F617070 
 14375      6C795F63 
 14375      625F7400 
 14376              	.LASF653:
 14377 0a6e 6C696E65 		.ascii	"line_dsc\000"
 14377      5F647363 
 14377      00
 14378              	.LASF115:
 14379 0a77 4C565F53 		.ascii	"LV_STYLE_BG_IMG_RECOLOR\000"
 14379      54594C45 
 14379      5F42475F 
 14379      494D475F 
 14379      5245434F 
 14380              	.LASF73:
 14381 0a8f 6C765F74 		.ascii	"lv_text_decor_t\000"
 14381      6578745F 
 14381      6465636F 
 14381      725F7400 
 14382              	.LASF170:
 14383 0a9f 5F4C565F 		.ascii	"_LV_STYLE_LAST_BUILT_IN_PROP\000"
 14383      5354594C 
 14383      455F4C41 
 14383      53545F42 
 14383      55494C54 
 14384              	.LASF422:
 14385 0abc 5F6C765F 		.ascii	"_lv_indev_proc_t\000"
 14385      696E6465 
 14385      765F7072 
 14385      6F635F74 
 14385      00
 14386              	.LASF361:
 14387 0acd 64656C5F 		.ascii	"del_prev\000"
 14387      70726576 
 14387      00
 14388              	.LASF36:
 14389 0ad6 6C765F70 		.ascii	"lv_point_t\000"
 14389      6F696E74 
 14389      5F7400
 14390              	.LASF693:
 14391 0ae1 4C565F53 		.ascii	"LV_STYLE_FLEX_CROSS_PLACE\000"
 14391      54594C45 
ARM GAS  C:\Users\haske\AppData\Local\Temp\ccIkbvey.s 			page 301


 14391      5F464C45 
 14391      585F4352 
 14391      4F53535F 
 14392              	.LASF691:
 14393 0afb 4C565F53 		.ascii	"LV_STYLE_FLEX_FLOW\000"
 14393      54594C45 
 14393      5F464C45 
 14393      585F464C 
 14393      4F5700
 14394              	.LASF318:
 14395 0b0e 666C7573 		.ascii	"flushing_last\000"
 14395      68696E67 
 14395      5F6C6173 
 14395      7400
 14396              	.LASF360:
 14397 0b1c 64726177 		.ascii	"draw_prev_over_act\000"
 14397      5F707265 
 14397      765F6F76 
 14397      65725F61 
 14397      637400
 14398              	.LASF307:
 14399 0b2f 6C765F6C 		.ascii	"lv_ll_node_t\000"
 14399      6C5F6E6F 
 14399      64655F74 
 14399      00
 14400              	.LASF511:
 14401 0b3c 74617267 		.ascii	"target\000"
 14401      657400
 14402              	.LASF378:
 14403 0b43 4C565F49 		.ascii	"LV_INDEV_TYPE_POINTER\000"
 14403      4E444556 
 14403      5F545950 
 14403      455F504F 
 14403      494E5445 
 14404              	.LASF520:
 14405 0b59 4C565F45 		.ascii	"LV_EVENT_ALL\000"
 14405      56454E54 
 14405      5F414C4C 
 14405      00
 14406              	.LASF627:
 14407 0b66 6C765F6F 		.ascii	"lv_obj_get_style_pad_right\000"
 14407      626A5F67 
 14407      65745F73 
 14407      74796C65 
 14407      5F706164 
 14408              	.LASF226:
 14409 0b81 6C765F64 		.ascii	"lv_draw_rect_dsc_t\000"
 14409      7261775F 
 14409      72656374 
 14409      5F647363 
 14409      5F7400
 14410              	.LASF491:
 14411 0b94 69735F74 		.ascii	"is_trans\000"
 14411      72616E73 
 14411      00
 14412              	.LASF747:
 14413 0b9d 6C765F61 		.ascii	"lv_area_copy\000"
ARM GAS  C:\Users\haske\AppData\Local\Temp\ccIkbvey.s 			page 302


 14413      7265615F 
 14413      636F7079 
 14413      00
 14414              	.LASF414:
 14415 0baa 67657374 		.ascii	"gesture_sum\000"
 14415      7572655F 
 14415      73756D00 
 14416              	.LASF66:
 14417 0bb6 6C765F63 		.ascii	"lv_color_t\000"
 14417      6F6C6F72 
 14417      5F7400
 14418              	.LASF42:
 14419 0bc1 626F785F 		.ascii	"box_h\000"
 14419      6800
 14420              	.LASF528:
 14421 0bc7 4C565F45 		.ascii	"LV_EVENT_RELEASED\000"
 14421      56454E54 
 14421      5F52454C 
 14421      45415345 
 14421      4400
 14422              	.LASF628:
 14423 0bd9 6C765F6F 		.ascii	"lv_obj_get_style_pad_left\000"
 14423      626A5F67 
 14423      65745F73 
 14423      74796C65 
 14423      5F706164 
 14424              	.LASF325:
 14425 0bf3 70687973 		.ascii	"physical_hor_res\000"
 14425      6963616C 
 14425      5F686F72 
 14425      5F726573 
 14425      00
 14426              	.LASF41:
 14427 0c04 626F785F 		.ascii	"box_w\000"
 14427      7700
 14428              	.LASF69:
 14429 0c0a 6C765F74 		.ascii	"lv_text_flag_t\000"
 14429      6578745F 
 14429      666C6167 
 14429      5F7400
 14430              	.LASF340:
 14431 0c19 77616974 		.ascii	"wait_cb\000"
 14431      5F636200 
 14432              	.LASF417:
 14433 0c21 67657374 		.ascii	"gesture_sent\000"
 14433      7572655F 
 14433      73656E74 
 14433      00
 14434              	.LASF634:
 14435 0c2e 61726561 		.ascii	"area_p\000"
 14435      5F7000
 14436              	.LASF63:
 14437 0c35 6C765F63 		.ascii	"lv_color16_t\000"
 14437      6F6C6F72 
 14437      31365F74 
 14437      00
 14438              	.LASF27:
ARM GAS  C:\Users\haske\AppData\Local\Temp\ccIkbvey.s 			page 303


 14439 0c42 74696D65 		.ascii	"timer_cb\000"
 14439      725F6362 
 14439      00
 14440              	.LASF451:
 14441 0c4b 4C565F50 		.ascii	"LV_PART_ITEMS\000"
 14441      4152545F 
 14441      4954454D 
 14441      5300
 14442              	.LASF489:
 14443 0c59 73656C65 		.ascii	"selector\000"
 14443      63746F72 
 14443      00
 14444              	.LASF490:
 14445 0c62 69735F6C 		.ascii	"is_local\000"
 14445      6F63616C 
 14445      00
 14446              	.LASF144:
 14447 0c6b 4C565F53 		.ascii	"LV_STYLE_ARC_COLOR\000"
 14447      54594C45 
 14447      5F415243 
 14447      5F434F4C 
 14447      4F5200
 14448              	.LASF605:
 14449 0c7e 4C565F49 		.ascii	"LV_IMGBTN_STATE_RELEASED\000"
 14449      4D474254 
 14449      4E5F5354 
 14449      4154455F 
 14449      52454C45 
 14450              	.LASF671:
 14451 0c97 6C765F63 		.ascii	"lv_colorwheel_set_mode_fixed\000"
 14451      6F6C6F72 
 14451      77686565 
 14451      6C5F7365 
 14451      745F6D6F 
 14452              	.LASF566:
 14453 0cb4 4C565F45 		.ascii	"LV_EVENT_PREPROCESS\000"
 14453      56454E54 
 14453      5F505245 
 14453      50524F43 
 14453      45535300 
 14454              	.LASF205:
 14455 0cc8 62675F69 		.ascii	"bg_img_src\000"
 14455      6D675F73 
 14455      726300
 14456              	.LASF304:
 14457 0cd3 6C617965 		.ascii	"layer_destroy\000"
 14457      725F6465 
 14457      7374726F 
 14457      7900
 14458              	.LASF148:
 14459 0ce1 4C565F53 		.ascii	"LV_STYLE_TEXT_OPA\000"
 14459      54594C45 
 14459      5F544558 
 14459      545F4F50 
 14459      4100
 14460              	.LASF333:
 14461 0cf3 616E7469 		.ascii	"antialiasing\000"
ARM GAS  C:\Users\haske\AppData\Local\Temp\ccIkbvey.s 			page 304


 14461      616C6961 
 14461      73696E67 
 14461      00
 14462              	.LASF618:
 14463 0d00 6C617374 		.ascii	"last_change_time\000"
 14463      5F636861 
 14463      6E67655F 
 14463      74696D65 
 14463      00
 14464              	.LASF617:
 14465 0d11 6C617374 		.ascii	"last_click_time\000"
 14465      5F636C69 
 14465      636B5F74 
 14465      696D6500 
 14466              	.LASF688:
 14467 0d21 63726561 		.ascii	"create_knob_recolor\000"
 14467      74655F6B 
 14467      6E6F625F 
 14467      7265636F 
 14467      6C6F7200 
 14468              	.LASF376:
 14469 0d35 666F6E74 		.ascii	"font_large\000"
 14469      5F6C6172 
 14469      676500
 14470              	.LASF191:
 14471 0d40 636F6F72 		.ascii	"coords\000"
 14471      647300
 14472              	.LASF131:
 14473 0d47 4C565F53 		.ascii	"LV_STYLE_SHADOW_COLOR\000"
 14473      54594C45 
 14473      5F534841 
 14473      444F575F 
 14473      434F4C4F 
 14474              	.LASF35:
 14475 0d5d 6C765F63 		.ascii	"lv_coord_t\000"
 14475      6F6F7264 
 14475      5F7400
 14476              	.LASF217:
 14477 0d68 6F75746C 		.ascii	"outline_width\000"
 14477      696E655F 
 14477      77696474 
 14477      6800
 14478              	.LASF303:
 14479 0d76 6C617965 		.ascii	"layer_blend\000"
 14479      725F626C 
 14479      656E6400 
 14480              	.LASF501:
 14481 0d82 6576656E 		.ascii	"event_cb\000"
 14481      745F6362 
 14481      00
 14482              	.LASF237:
 14483 0d8b 6465636F 		.ascii	"decor\000"
 14483      7200
 14484              	.LASF709:
 14485 0d91 6C765F74 		.ascii	"lv_trigo_sin\000"
 14485      7269676F 
 14485      5F73696E 
ARM GAS  C:\Users\haske\AppData\Local\Temp\ccIkbvey.s 			page 305


 14485      00
 14486              	.LASF195:
 14487 0d9e 7363725F 		.ascii	"scr_layout_inv\000"
 14487      6C61796F 
 14487      75745F69 
 14487      6E7600
 14488              	.LASF585:
 14489 0dad 6C765F67 		.ascii	"lv_group_edge_cb_t\000"
 14489      726F7570 
 14489      5F656467 
 14489      655F6362 
 14489      5F7400
 14490              	.LASF614:
 14491 0dc0 4C565F43 		.ascii	"LV_COLORWHEEL_MODE_VALUE\000"
 14491      4F4C4F52 
 14491      57484545 
 14491      4C5F4D4F 
 14491      44455F56 
 14492              	.LASF695:
 14493 0dd9 4C565F53 		.ascii	"LV_STYLE_FLEX_GROW\000"
 14493      54594C45 
 14493      5F464C45 
 14493      585F4752 
 14493      4F5700
 14494              	.LASF519:
 14495 0dec 6C765F6F 		.ascii	"lv_obj_class_t\000"
 14495      626A5F63 
 14495      6C617373 
 14495      5F7400
 14496              	.LASF461:
 14497 0dfb 4C565F4F 		.ascii	"LV_OBJ_FLAG_SCROLL_ELASTIC\000"
 14497      424A5F46 
 14497      4C41475F 
 14497      5343524F 
 14497      4C4C5F45 
 14498              	.LASF121:
 14499 0e16 4C565F53 		.ascii	"LV_STYLE_BORDER_SIDE\000"
 14499      54594C45 
 14499      5F424F52 
 14499      4445525F 
 14499      53494445 
 14500              	.LASF152:
 14501 0e2b 4C565F53 		.ascii	"LV_STYLE_TEXT_DECOR\000"
 14501      54594C45 
 14501      5F544558 
 14501      545F4445 
 14501      434F5200 
 14502              	.LASF589:
 14503 0e3f 67726F75 		.ascii	"group_p\000"
 14503      705F7000 
 14504              	.LASF713:
 14505 0e47 6C765F65 		.ascii	"lv_event_get_target\000"
 14505      76656E74 
 14505      5F676574 
 14505      5F746172 
 14505      67657400 
 14506              	.LASF224:
ARM GAS  C:\Users\haske\AppData\Local\Temp\ccIkbvey.s 			page 306


 14507 0e5b 73686164 		.ascii	"shadow_spread\000"
 14507      6F775F73 
 14507      70726561 
 14507      6400
 14508              	.LASF609:
 14509 0e69 4C565F49 		.ascii	"LV_IMGBTN_STATE_CHECKED_PRESSED\000"
 14509      4D474254 
 14509      4E5F5354 
 14509      4154455F 
 14509      43484543 
 14510              	.LASF24:
 14511 0e89 6C765F74 		.ascii	"lv_timer_cb_t\000"
 14511      696D6572 
 14511      5F63625F 
 14511      7400
 14512              	.LASF316:
 14513 0e97 73697A65 		.ascii	"size\000"
 14513      00
 14514              	.LASF683:
 14515 0e9c 64696666 		.ascii	"diff\000"
 14515      00
 14516              	.LASF339:
 14517 0ea1 6D6F6E69 		.ascii	"monitor_cb\000"
 14517      746F725F 
 14517      636200
 14518              	.LASF448:
 14519 0eac 4C565F50 		.ascii	"LV_PART_INDICATOR\000"
 14519      4152545F 
 14519      494E4449 
 14519      4341544F 
 14519      5200
 14520              	.LASF331:
 14521 0ebe 66756C6C 		.ascii	"full_refresh\000"
 14521      5F726566 
 14521      72657368 
 14521      00
 14522              	.LASF31:
 14523 0ecb 73697A65 		.ascii	"size_t\000"
 14523      5F7400
 14524              	.LASF647:
 14525 0ed2 66617374 		.ascii	"fast_hsv2rgb\000"
 14525      5F687376 
 14525      32726762 
 14525      00
 14526              	.LASF16:
 14527 0edf 75696E74 		.ascii	"uint8_t\000"
 14527      385F7400 
 14528              	.LASF263:
 14529 0ee7 5F6C765F 		.ascii	"_lv_draw_mask_common_dsc_t\000"
 14529      64726177 
 14529      5F6D6173 
 14529      6B5F636F 
 14529      6D6D6F6E 
 14530              	.LASF450:
 14531 0f02 4C565F50 		.ascii	"LV_PART_SELECTED\000"
 14531      4152545F 
 14531      53454C45 
ARM GAS  C:\Users\haske\AppData\Local\Temp\ccIkbvey.s 			page 307


 14531      43544544 
 14531      00
 14532              	.LASF137:
 14533 0f13 4C565F53 		.ascii	"LV_STYLE_LINE_DASH_WIDTH\000"
 14533      54594C45 
 14533      5F4C494E 
 14533      455F4441 
 14533      53485F57 
 14534              	.LASF112:
 14535 0f2c 4C565F53 		.ascii	"LV_STYLE_BG_DITHER_MODE\000"
 14535      54594C45 
 14535      5F42475F 
 14535      44495448 
 14535      45525F4D 
 14536              	.LASF330:
 14537 0f44 64697265 		.ascii	"direct_mode\000"
 14537      63745F6D 
 14537      6F646500 
 14538              	.LASF725:
 14539 0f50 6C765F6F 		.ascii	"lv_obj_class_init_obj\000"
 14539      626A5F63 
 14539      6C617373 
 14539      5F696E69 
 14539      745F6F62 
 14540              	.LASF292:
 14541 0f66 64726177 		.ascii	"draw_img_decoded\000"
 14541      5F696D67 
 14541      5F646563 
 14541      6F646564 
 14541      00
 14542              	.LASF583:
 14543 0f77 4C565F4B 		.ascii	"LV_KEY_END\000"
 14543      45595F45 
 14543      4E4400
 14544              	.LASF514:
 14545 0f82 70617261 		.ascii	"param\000"
 14545      6D00
 14546              	.LASF470:
 14547 0f88 4C565F4F 		.ascii	"LV_OBJ_FLAG_PRESS_LOCK\000"
 14547      424A5F46 
 14547      4C41475F 
 14547      50524553 
 14547      535F4C4F 
 14548              	.LASF388:
 14549 0f9f 656E635F 		.ascii	"enc_diff\000"
 14549      64696666 
 14549      00
 14550              	.LASF352:
 14551 0fa8 7468656D 		.ascii	"theme\000"
 14551      6500
 14552              	.LASF324:
 14553 0fae 7665725F 		.ascii	"ver_res\000"
 14553      72657300 
 14554              	.LASF731:
 14555 0fb6 6C765F63 		.ascii	"lv_color_rgb_to_hsv\000"
 14555      6F6C6F72 
 14555      5F726762 
ARM GAS  C:\Users\haske\AppData\Local\Temp\ccIkbvey.s 			page 308


 14555      5F746F5F 
 14555      68737600 
 14556              	.LASF552:
 14557 0fca 4C565F45 		.ascii	"LV_EVENT_CANCEL\000"
 14557      56454E54 
 14557      5F43414E 
 14557      43454C00 
 14558              	.LASF281:
 14559 0fda 5F6C765F 		.ascii	"_lv_draw_layer_ctx_t\000"
 14559      64726177 
 14559      5F6C6179 
 14559      65725F63 
 14559      74785F74 
 14560              	.LASF363:
 14561 0fef 62675F69 		.ascii	"bg_img\000"
 14561      6D6700
 14562              	.LASF392:
 14563 0ff6 72656164 		.ascii	"read_cb\000"
 14563      5F636200 
 14564              	.LASF183:
 14565 0ffe 70726F70 		.ascii	"prop_cnt\000"
 14565      5F636E74 
 14565      00
 14566              	.LASF418:
 14567 1007 6C617374 		.ascii	"last_state\000"
 14567      5F737461 
 14567      746500
 14568              	.LASF633:
 14569 1012 6C765F61 		.ascii	"lv_area_get_width\000"
 14569      7265615F 
 14569      6765745F 
 14569      77696474 
 14569      6800
 14570              	.LASF213:
 14571 1024 626F7264 		.ascii	"border_opa\000"
 14571      65725F6F 
 14571      706100
 14572              	.LASF229:
 14573 102f 73656C5F 		.ascii	"sel_end\000"
 14573      656E6400 
 14574              	.LASF282:
 14575 1037 61726561 		.ascii	"area_full\000"
 14575      5F66756C 
 14575      6C00
 14576              	.LASF354:
 14577 1041 6163745F 		.ascii	"act_scr\000"
 14577      73637200 
 14578              	.LASF164:
 14579 1049 4C565F53 		.ascii	"LV_STYLE_TRANSLATE_X\000"
 14579      54594C45 
 14579      5F545241 
 14579      4E534C41 
 14579      54455F58 
 14580              	.LASF165:
 14581 105e 4C565F53 		.ascii	"LV_STYLE_TRANSLATE_Y\000"
 14581      54594C45 
 14581      5F545241 
ARM GAS  C:\Users\haske\AppData\Local\Temp\ccIkbvey.s 			page 309


 14581      4E534C41 
 14581      54455F59 
 14582              	.LASF326:
 14583 1073 70687973 		.ascii	"physical_ver_res\000"
 14583      6963616C 
 14583      5F766572 
 14583      5F726573 
 14583      00
 14584              	.LASF513:
 14585 1084 636F6465 		.ascii	"code\000"
 14585      00
 14586              	.LASF201:
 14587 1089 626C656E 		.ascii	"blend_mode\000"
 14587      645F6D6F 
 14587      646500
 14588              	.LASF150:
 14589 1094 4C565F53 		.ascii	"LV_STYLE_TEXT_LETTER_SPACE\000"
 14589      54594C45 
 14589      5F544558 
 14589      545F4C45 
 14589      54544552 
 14590              	.LASF576:
 14591 10af 4C565F4B 		.ascii	"LV_KEY_ESC\000"
 14591      45595F45 
 14591      534300
 14592              	.LASF642:
 14593 10ba 6765745F 		.ascii	"get_knob_area\000"
 14593      6B6E6F62 
 14593      5F617265 
 14593      6100
 14594              	.LASF464:
 14595 10c8 4C565F4F 		.ascii	"LV_OBJ_FLAG_SCROLL_CHAIN_HOR\000"
 14595      424A5F46 
 14595      4C41475F 
 14595      5343524F 
 14595      4C4C5F43 
 14596              	.LASF285:
 14597 10e5 6D61785F 		.ascii	"max_row_with_no_alpha\000"
 14597      726F775F 
 14597      77697468 
 14597      5F6E6F5F 
 14597      616C7068 
 14598              	.LASF707:
 14599 10fb 6C765F6F 		.ascii	"lv_obj_get_style_prop\000"
 14599      626A5F67 
 14599      65745F73 
 14599      74796C65 
 14599      5F70726F 
 14600              	.LASF555:
 14601 1111 4C565F45 		.ascii	"LV_EVENT_CHILD_CREATED\000"
 14601      56454E54 
 14601      5F434849 
 14601      4C445F43 
 14601      52454154 
 14602              	.LASF171:
 14603 1128 5F4C565F 		.ascii	"_LV_STYLE_NUM_BUILT_IN_PROPS\000"
 14603      5354594C 
ARM GAS  C:\Users\haske\AppData\Local\Temp\ccIkbvey.s 			page 310


 14603      455F4E55 
 14603      4D5F4255 
 14603      494C545F 
 14604              	.LASF158:
 14605 1145 4C565F53 		.ascii	"LV_STYLE_ANIM_TIME\000"
 14605      54594C45 
 14605      5F414E49 
 14605      4D5F5449 
 14605      4D4500
 14606              	.LASF110:
 14607 1158 4C565F53 		.ascii	"LV_STYLE_BG_GRAD_STOP\000"
 14607      54594C45 
 14607      5F42475F 
 14607      47524144 
 14607      5F53544F 
 14608              	.LASF289:
 14609 116e 696E6974 		.ascii	"init_buf\000"
 14609      5F627566 
 14609      00
 14610              	.LASF496:
 14611 1177 6C765F63 		.ascii	"lv_cover_res_t\000"
 14611      6F766572 
 14611      5F726573 
 14611      5F7400
 14612              	.LASF524:
 14613 1186 4C565F45 		.ascii	"LV_EVENT_SHORT_CLICKED\000"
 14613      56454E54 
 14613      5F53484F 
 14613      52545F43 
 14613      4C49434B 
 14614              	.LASF472:
 14615 119d 4C565F4F 		.ascii	"LV_OBJ_FLAG_GESTURE_BUBBLE\000"
 14615      424A5F46 
 14615      4C41475F 
 14615      47455354 
 14615      5552455F 
 14616              	.LASF140:
 14617 11b8 4C565F53 		.ascii	"LV_STYLE_LINE_COLOR\000"
 14617      54594C45 
 14617      5F4C494E 
 14617      455F434F 
 14617      4C4F5200 
 14618              	.LASF327:
 14619 11cc 6F666673 		.ascii	"offset_x\000"
 14619      65745F78 
 14619      00
 14620              	.LASF328:
 14621 11d5 6F666673 		.ascii	"offset_y\000"
 14621      65745F79 
 14621      00
 14622              	.LASF619:
 14623 11de 6C617374 		.ascii	"last_press_point\000"
 14623      5F707265 
 14623      73735F70 
 14623      6F696E74 
 14623      00
 14624              	.LASF362:
ARM GAS  C:\Users\haske\AppData\Local\Temp\ccIkbvey.s 			page 311


 14625 11ef 72656E64 		.ascii	"rendering_in_progress\000"
 14625      6572696E 
 14625      675F696E 
 14625      5F70726F 
 14625      67726573 
 14626              	.LASF730:
 14627 1205 6C765F74 		.ascii	"lv_tick_get\000"
 14627      69636B5F 
 14627      67657400 
 14628              	.LASF176:
 14629 1211 76616C75 		.ascii	"value\000"
 14629      6500
 14630              	.LASF346:
 14631 1217 64726177 		.ascii	"draw_ctx_init\000"
 14631      5F637478 
 14631      5F696E69 
 14631      7400
 14632              	.LASF215:
 14633 1225 626F7264 		.ascii	"border_side\000"
 14633      65725F73 
 14633      69646500 
 14634              	.LASF674:
 14635 1231 6C765F63 		.ascii	"lv_colorwheel_get_rgb\000"
 14635      6F6C6F72 
 14635      77686565 
 14635      6C5F6765 
 14635      745F7267 
 14636              	.LASF413:
 14637 1247 7363726F 		.ascii	"scroll_area\000"
 14637      6C6C5F61 
 14637      72656100 
 14638              	.LASF440:
 14639 1253 66726F7A 		.ascii	"frozen\000"
 14639      656E00
 14640              	.LASF26:
 14641 125a 6C617374 		.ascii	"last_run\000"
 14641      5F72756E 
 14641      00
 14642              	.LASF568:
 14643 1263 6C765F65 		.ascii	"lv_event_t\000"
 14643      76656E74 
 14643      5F7400
 14644              	.LASF558:
 14645 126e 4C565F45 		.ascii	"LV_EVENT_SCREEN_LOAD_START\000"
 14645      56454E54 
 14645      5F534352 
 14645      45454E5F 
 14645      4C4F4144 
 14646              	.LASF395:
 14647 1289 7363726F 		.ascii	"scroll_limit\000"
 14647      6C6C5F6C 
 14647      696D6974 
 14647      00
 14648              	.LASF458:
 14649 1296 4C565F4F 		.ascii	"LV_OBJ_FLAG_CLICK_FOCUSABLE\000"
 14649      424A5F46 
 14649      4C41475F 
ARM GAS  C:\Users\haske\AppData\Local\Temp\ccIkbvey.s 			page 312


 14649      434C4943 
 14649      4B5F464F 
 14650              	.LASF260:
 14651 12b2 6C765F64 		.ascii	"lv_draw_mask_type_t\000"
 14651      7261775F 
 14651      6D61736B 
 14651      5F747970 
 14651      655F7400 
 14652              	.LASF591:
 14653 12c6 7363726F 		.ascii	"scroll\000"
 14653      6C6C00
 14654              	.LASF530:
 14655 12cd 4C565F45 		.ascii	"LV_EVENT_SCROLL_END\000"
 14655      56454E54 
 14655      5F534352 
 14655      4F4C4C5F 
 14655      454E4400 
 14656              	.LASF81:
 14657 12e1 73746F70 		.ascii	"stops_count\000"
 14657      735F636F 
 14657      756E7400 
 14658              	.LASF293:
 14659 12ed 64726177 		.ascii	"draw_img\000"
 14659      5F696D67 
 14659      00
 14660              	.LASF370:
 14661 12f6 6170706C 		.ascii	"apply_cb\000"
 14661      795F6362 
 14661      00
 14662              	.LASF251:
 14663 12ff 726F756E 		.ascii	"round_end\000"
 14663      645F656E 
 14663      6400
 14664              	.LASF294:
 14665 1309 64726177 		.ascii	"draw_letter\000"
 14665      5F6C6574 
 14665      74657200 
 14666              	.LASF487:
 14667 1315 6C765F73 		.ascii	"lv_scroll_snap_t\000"
 14667      63726F6C 
 14667      6C5F736E 
 14667      61705F74 
 14667      00
 14668              	.LASF734:
 14669 1326 6C765F6F 		.ascii	"lv_obj_init_draw_rect_dsc\000"
 14669      626A5F69 
 14669      6E69745F 
 14669      64726177 
 14669      5F726563 
 14670              	.LASF123:
 14671 1340 4C565F53 		.ascii	"LV_STYLE_OUTLINE_WIDTH\000"
 14671      54594C45 
 14671      5F4F5554 
 14671      4C494E45 
 14671      5F574944 
 14672              	.LASF286:
 14673 1357 6F726967 		.ascii	"original\000"
ARM GAS  C:\Users\haske\AppData\Local\Temp\ccIkbvey.s 			page 313


 14673      696E616C 
 14673      00
 14674              	.LASF690:
 14675 1360 6C765F6F 		.ascii	"lv_obj_class\000"
 14675      626A5F63 
 14675      6C617373 
 14675      00
 14676              	.LASF652:
 14677 136d 64726177 		.ascii	"draw_disc_grad\000"
 14677      5F646973 
 14677      635F6772 
 14677      616400
 14678              	.LASF386:
 14679 137c 706F696E 		.ascii	"point\000"
 14679      7400
 14680              	.LASF449:
 14681 1382 4C565F50 		.ascii	"LV_PART_KNOB\000"
 14681      4152545F 
 14681      4B4E4F42 
 14681      00
 14682              	.LASF724:
 14683 138f 6C765F6F 		.ascii	"lv_obj_class_create_obj\000"
 14683      626A5F63 
 14683      6C617373 
 14683      5F637265 
 14683      6174655F 
 14684              	.LASF221:
 14685 13a7 73686164 		.ascii	"shadow_width\000"
 14685      6F775F77 
 14685      69647468 
 14685      00
 14686              	.LASF697:
 14687 13b4 4C565F53 		.ascii	"LV_STYLE_GRID_COLUMN_ALIGN\000"
 14687      54594C45 
 14687      5F475249 
 14687      445F434F 
 14687      4C554D4E 
 14688              	.LASF209:
 14689 13cf 62675F69 		.ascii	"bg_img_recolor_opa\000"
 14689      6D675F72 
 14689      65636F6C 
 14689      6F725F6F 
 14689      706100
 14690              	.LASF212:
 14691 13e2 626F7264 		.ascii	"border_width\000"
 14691      65725F77 
 14691      69647468 
 14691      00
 14692              	.LASF616:
 14693 13ef 6B6E6F62 		.ascii	"knob\000"
 14693      00
 14694              	.LASF700:
 14695 13f4 4C565F53 		.ascii	"LV_STYLE_GRID_CELL_COLUMN_POS\000"
 14695      54594C45 
 14695      5F475249 
 14695      445F4345 
 14695      4C4C5F43 
ARM GAS  C:\Users\haske\AppData\Local\Temp\ccIkbvey.s 			page 314


 14696              	.LASF494:
 14697 1412 4C565F43 		.ascii	"LV_COVER_RES_NOT_COVER\000"
 14697      4F564552 
 14697      5F524553 
 14697      5F4E4F54 
 14697      5F434F56 
 14698              	.LASF225:
 14699 1429 73686164 		.ascii	"shadow_opa\000"
 14699      6F775F6F 
 14699      706100
 14700              	.LASF40:
 14701 1434 6164765F 		.ascii	"adv_w\000"
 14701      7700
 14702              	.LASF311:
 14703 143a 6C765F6C 		.ascii	"lv_ll_t\000"
 14703      6C5F7400 
 14704              	.LASF355:
 14705 1442 70726576 		.ascii	"prev_scr\000"
 14705      5F736372 
 14705      00
 14706              	.LASF402:
 14707 144b 696E6465 		.ascii	"indev_point\000"
 14707      765F706F 
 14707      696E7400 
 14708              	.LASF274:
 14709 1457 4C565F44 		.ascii	"LV_DRAW_LAYER_FLAG_NONE\000"
 14709      5241575F 
 14709      4C415945 
 14709      525F464C 
 14709      41475F4E 
 14710              	.LASF522:
 14711 146f 4C565F45 		.ascii	"LV_EVENT_PRESSING\000"
 14711      56454E54 
 14711      5F505245 
 14711      5353494E 
 14711      4700
 14712              	.LASF415:
 14713 1481 7363726F 		.ascii	"scroll_dir\000"
 14713      6C6C5F64 
 14713      697200
 14714              	.LASF562:
 14715 148c 4C565F45 		.ascii	"LV_EVENT_STYLE_CHANGED\000"
 14715      56454E54 
 14715      5F535459 
 14715      4C455F43 
 14715      48414E47 
 14716              	.LASF287:
 14717 14a3 6C765F64 		.ascii	"lv_draw_layer_ctx_t\000"
 14717      7261775F 
 14717      6C617965 
 14717      725F6374 
 14717      785F7400 
 14718              	.LASF258:
 14719 14b7 6C765F64 		.ascii	"lv_draw_arc_dsc_t\000"
 14719      7261775F 
 14719      6172635F 
 14719      6473635F 
ARM GAS  C:\Users\haske\AppData\Local\Temp\ccIkbvey.s 			page 315


 14719      7400
 14720              	.LASF575:
 14721 14c9 4C565F4B 		.ascii	"LV_KEY_LEFT\000"
 14721      45595F4C 
 14721      45465400 
 14722              	.LASF117:
 14723 14d5 4C565F53 		.ascii	"LV_STYLE_BG_IMG_TILED\000"
 14723      54594C45 
 14723      5F42475F 
 14723      494D475F 
 14723      54494C45 
 14724              	.LASF670:
 14725 14eb 6C765F63 		.ascii	"lv_colorwheel_set_mode\000"
 14725      6F6C6F72 
 14725      77686565 
 14725      6C5F7365 
 14725      745F6D6F 
 14726              	.LASF45:
 14727 1502 70617573 		.ascii	"paused\000"
 14727      656400
 14728              	.LASF746:
 14729 1509 5F6C765F 		.ascii	"_lv_event_dsc_t\000"
 14729      6576656E 
 14729      745F6473 
 14729      635F7400 
 14730              	.LASF113:
 14731 1519 4C565F53 		.ascii	"LV_STYLE_BG_IMG_SRC\000"
 14731      54594C45 
 14731      5F42475F 
 14731      494D475F 
 14731      53524300 
 14732              	.LASF25:
 14733 152d 70657269 		.ascii	"period\000"
 14733      6F6400
 14734              	.LASF720:
 14735 1534 6C765F64 		.ascii	"lv_draw_mask_free_param\000"
 14735      7261775F 
 14735      6D61736B 
 14735      5F667265 
 14735      655F7061 
 14736              	.LASF430:
 14737 154c 5F6C765F 		.ascii	"_lv_indev_t\000"
 14737      696E6465 
 14737      765F7400 
 14738              	.LASF462:
 14739 1558 4C565F4F 		.ascii	"LV_OBJ_FLAG_SCROLL_MOMENTUM\000"
 14739      424A5F46 
 14739      4C41475F 
 14739      5343524F 
 14739      4C4C5F4D 
 14740              	.LASF419:
 14741 1574 6C617374 		.ascii	"last_key\000"
 14741      5F6B6579 
 14741      00
 14742              	.LASF160:
 14743 157d 4C565F53 		.ascii	"LV_STYLE_TRANSITION\000"
 14743      54594C45 
ARM GAS  C:\Users\haske\AppData\Local\Temp\ccIkbvey.s 			page 316


 14743      5F545241 
 14743      4E534954 
 14743      494F4E00 
 14744              	.LASF103:
 14745 1591 4C565F53 		.ascii	"LV_STYLE_BASE_DIR\000"
 14745      54594C45 
 14745      5F424153 
 14745      455F4449 
 14745      5200
 14746              	.LASF100:
 14747 15a3 4C565F53 		.ascii	"LV_STYLE_PAD_RIGHT\000"
 14747      54594C45 
 14747      5F504144 
 14747      5F524947 
 14747      485400
 14748              	.LASF15:
 14749 15b6 696E7438 		.ascii	"int8_t\000"
 14749      5F7400
 14750              	.LASF624:
 14751 15bd 6C765F6F 		.ascii	"lv_obj_get_style_pad_bottom\000"
 14751      626A5F67 
 14751      65745F73 
 14751      74796C65 
 14751      5F706164 
 14752              	.LASF335:
 14753 15d9 666C7573 		.ascii	"flush_cb\000"
 14753      685F6362 
 14753      00
 14754              	.LASF314:
 14755 15e2 62756632 		.ascii	"buf2\000"
 14755      00
 14756              	.LASF427:
 14757 15e7 74797065 		.ascii	"types\000"
 14757      7300
 14758              	.LASF181:
 14759 15ed 70726F70 		.ascii	"prop1\000"
 14759      3100
 14760              	.LASF238:
 14761 15f3 6C765F64 		.ascii	"lv_draw_label_dsc_t\000"
 14761      7261775F 
 14761      6C616265 
 14761      6C5F6473 
 14761      635F7400 
 14762              	.LASF498:
 14763 1607 62617365 		.ascii	"base_class\000"
 14763      5F636C61 
 14763      737300
 14764              	.LASF236:
 14765 1612 666C6167 		.ascii	"flag\000"
 14765      00
 14766              	.LASF547:
 14767 1617 4C565F45 		.ascii	"LV_EVENT_DRAW_PART_END\000"
 14767      56454E54 
 14767      5F445241 
 14767      575F5041 
 14767      52545F45 
 14768              	.LASF177:
ARM GAS  C:\Users\haske\AppData\Local\Temp\ccIkbvey.s 			page 317


 14769 162e 6C765F73 		.ascii	"lv_style_const_prop_t\000"
 14769      74796C65 
 14769      5F636F6E 
 14769      73745F70 
 14769      726F705F 
 14770              	.LASF506:
 14771 1644 696E7374 		.ascii	"instance_size\000"
 14771      616E6365 
 14771      5F73697A 
 14771      6500
 14772              	.LASF210:
 14773 1652 62675F69 		.ascii	"bg_img_tiled\000"
 14773      6D675F74 
 14773      696C6564 
 14773      00
 14774              	.LASF266:
 14775 165f 6F70615F 		.ascii	"opa_start_on_y\000"
 14775      73746172 
 14775      745F6F6E 
 14775      5F7900
 14776              	.LASF262:
 14777 166e 74797065 		.ascii	"type\000"
 14777      00
 14778              	.LASF532:
 14779 1673 4C565F45 		.ascii	"LV_EVENT_GESTURE\000"
 14779      56454E54 
 14779      5F474553 
 14779      54555245 
 14779      00
 14780              	.LASF344:
 14781 1684 636F6C6F 		.ascii	"color_chroma_key\000"
 14781      725F6368 
 14781      726F6D61 
 14781      5F6B6579 
 14781      00
 14782              	.LASF313:
 14783 1695 62756631 		.ascii	"buf1\000"
 14783      00
 14784              	.LASF94:
 14785 169a 4C565F53 		.ascii	"LV_STYLE_ALIGN\000"
 14785      54594C45 
 14785      5F414C49 
 14785      474E00
 14786              	.LASF218:
 14787 16a9 6F75746C 		.ascii	"outline_pad\000"
 14787      696E655F 
 14787      70616400 
 14788              	.LASF518:
 14789 16b5 73746F70 		.ascii	"stop_bubbling\000"
 14789      5F627562 
 14789      626C696E 
 14789      6700
 14790              	.LASF101:
 14791 16c3 4C565F53 		.ascii	"LV_STYLE_PAD_ROW\000"
 14791      54594C45 
 14791      5F504144 
 14791      5F524F57 
ARM GAS  C:\Users\haske\AppData\Local\Temp\ccIkbvey.s 			page 318


 14791      00
 14792              	.LASF33:
 14793 16d4 73697A65 		.ascii	"sizetype\000"
 14793      74797065 
 14793      00
 14794              	.LASF106:
 14795 16dd 4C565F53 		.ascii	"LV_STYLE_BG_OPA\000"
 14795      54594C45 
 14795      5F42475F 
 14795      4F504100 
 14796              	.LASF349:
 14797 16ed 5F6C765F 		.ascii	"_lv_disp_t\000"
 14797      64697370 
 14797      5F7400
 14798              	.LASF265:
 14799 16f8 785F7374 		.ascii	"x_start_on_y\000"
 14799      6172745F 
 14799      6F6E5F79 
 14799      00
 14800              	.LASF43:
 14801 1705 6F66735F 		.ascii	"ofs_x\000"
 14801      7800
 14802              	.LASF44:
 14803 170b 6F66735F 		.ascii	"ofs_y\000"
 14803      7900
 14804              	.LASF17:
 14805 1711 696E7431 		.ascii	"int16_t\000"
 14805      365F7400 
 14806              	.LASF382:
 14807 1719 6C765F69 		.ascii	"lv_indev_type_t\000"
 14807      6E646576 
 14807      5F747970 
 14807      655F7400 
 14808              	.LASF433:
 14809 1729 67726F75 		.ascii	"group\000"
 14809      7000
 14810              	.LASF538:
 14811 172f 4C565F45 		.ascii	"LV_EVENT_COVER_CHECK\000"
 14811      56454E54 
 14811      5F434F56 
 14811      45525F43 
 14811      4845434B 
 14812              	.LASF7:
 14813 1744 73686F72 		.ascii	"short unsigned int\000"
 14813      7420756E 
 14813      7369676E 
 14813      65642069 
 14813      6E7400
 14814              	.LASF186:
 14815 1757 5F6C765F 		.ascii	"_lv_obj_t\000"
 14815      6F626A5F 
 14815      7400
 14816              	.LASF2:
 14817 1761 7369676E 		.ascii	"signed char\000"
 14817      65642063 
 14817      68617200 
 14818              	.LASF592:
ARM GAS  C:\Users\haske\AppData\Local\Temp\ccIkbvey.s 			page 319


 14819 176d 6578745F 		.ascii	"ext_click_pad\000"
 14819      636C6963 
 14819      6B5F7061 
 14819      6400
 14820              	.LASF111:
 14821 177b 4C565F53 		.ascii	"LV_STYLE_BG_GRAD\000"
 14821      54594C45 
 14821      5F42475F 
 14821      47524144 
 14821      00
 14822              	.LASF398:
 14823 178c 67657374 		.ascii	"gesture_limit\000"
 14823      7572655F 
 14823      6C696D69 
 14823      7400
 14824              	.LASF29:
 14825 179a 72657065 		.ascii	"repeat_count\000"
 14825      61745F63 
 14825      6F756E74 
 14825      00
 14826              	.LASF119:
 14827 17a7 4C565F53 		.ascii	"LV_STYLE_BORDER_OPA\000"
 14827      54594C45 
 14827      5F424F52 
 14827      4445525F 
 14827      4F504100 
 14828              	.LASF79:
 14829 17bb 6C765F67 		.ascii	"lv_gradient_stop_t\000"
 14829      72616469 
 14829      656E745F 
 14829      73746F70 
 14829      5F7400
 14830              	.LASF745:
 14831 17ce 433A5C50 		.ascii	"C:\\Projects\\PainDrain\\firmware\\PainDrain\\PainD"
 14831      726F6A65 
 14831      6374735C 
 14831      5061696E 
 14831      44726169 
 14832 17fc 7261696E 		.ascii	"rain.cydsn\000"
 14832      2E637964 
 14832      736E00
 14833              	.LASF738:
 14834 1807 6C765F69 		.ascii	"lv_indev_get_point\000"
 14834      6E646576 
 14834      5F676574 
 14834      5F706F69 
 14834      6E7400
 14835              	.LASF240:
 14836 181a 7A6F6F6D 		.ascii	"zoom\000"
 14836      00
 14837              	.LASF625:
 14838 181f 70617274 		.ascii	"part\000"
 14838      00
 14839              	.LASF584:
 14840 1824 6C765F67 		.ascii	"lv_group_focus_cb_t\000"
 14840      726F7570 
 14840      5F666F63 
ARM GAS  C:\Users\haske\AppData\Local\Temp\ccIkbvey.s 			page 320


 14840      75735F63 
 14840      625F7400 
 14841              	.LASF439:
 14842 1838 65646765 		.ascii	"edge_cb\000"
 14842      5F636200 
 14843              	.LASF371:
 14844 1840 64697370 		.ascii	"disp\000"
 14844      00
 14845              	.LASF475:
 14846 1845 4C565F4F 		.ascii	"LV_OBJ_FLAG_FLOATING\000"
 14846      424A5F46 
 14846      4C41475F 
 14846      464C4F41 
 14846      54494E47 
 14847              	.LASF120:
 14848 185a 4C565F53 		.ascii	"LV_STYLE_BORDER_WIDTH\000"
 14848      54594C45 
 14848      5F424F52 
 14848      4445525F 
 14848      57494454 
 14849              	.LASF272:
 14850 1870 63697263 		.ascii	"circle\000"
 14850      6C6500
 14851              	.LASF381:
 14852 1877 4C565F49 		.ascii	"LV_INDEV_TYPE_ENCODER\000"
 14852      4E444556 
 14852      5F545950 
 14852      455F454E 
 14852      434F4445 
 14853              	.LASF61:
 14854 188d 67726565 		.ascii	"green\000"
 14854      6E00
 14855              	.LASF37:
 14856 1893 6C765F61 		.ascii	"lv_area_t\000"
 14856      7265615F 
 14856      7400
 14857              	.LASF708:
 14858 189d 6C765F6F 		.ascii	"lv_obj_invalidate_area\000"
 14858      626A5F69 
 14858      6E76616C 
 14858      69646174 
 14858      655F6172 
 14859              	.LASF702:
 14860 18b4 4C565F53 		.ascii	"LV_STYLE_GRID_CELL_X_ALIGN\000"
 14860      54594C45 
 14860      5F475249 
 14860      445F4345 
 14860      4C4C5F58 
 14861              	.LASF383:
 14862 18cf 4C565F49 		.ascii	"LV_INDEV_STATE_RELEASED\000"
 14862      4E444556 
 14862      5F535441 
 14862      54455F52 
 14862      454C4541 
 14863              	.LASF441:
 14864 18e7 65646974 		.ascii	"editing\000"
 14864      696E6700 
ARM GAS  C:\Users\haske\AppData\Local\Temp\ccIkbvey.s 			page 321


 14865              	.LASF179:
 14866 18ef 76616C75 		.ascii	"values_and_props\000"
 14866      65735F61 
 14866      6E645F70 
 14866      726F7073 
 14866      00
 14867              	.LASF62:
 14868 1900 66756C6C 		.ascii	"full\000"
 14868      00
 14869              	.LASF722:
 14870 1905 6C765F6F 		.ascii	"lv_obj_add_flag\000"
 14870      626A5F61 
 14870      64645F66 
 14870      6C616700 
 14871              	.LASF83:
 14872 1915 6C765F67 		.ascii	"lv_grad_dsc_t\000"
 14872      7261645F 
 14872      6473635F 
 14872      7400
 14873              	.LASF650:
 14874 1923 7363616C 		.ascii	"scale_w\000"
 14874      655F7700 
 14875              	.LASF230:
 14876 192b 73656C5F 		.ascii	"sel_color\000"
 14876      636F6C6F 
 14876      7200
 14877              	.LASF269:
 14878 1935 5F6C765F 		.ascii	"_lv_draw_mask_radius_circle_dsc_t\000"
 14878      64726177 
 14878      5F6D6173 
 14878      6B5F7261 
 14878      64697573 
 14879              	.LASF197:
 14880 1957 7374796C 		.ascii	"style_cnt\000"
 14880      655F636E 
 14880      7400
 14881              	.LASF233:
 14882 1961 6C657474 		.ascii	"letter_space\000"
 14882      65725F73 
 14882      70616365 
 14882      00
 14883              	.LASF554:
 14884 196e 4C565F45 		.ascii	"LV_EVENT_CHILD_CHANGED\000"
 14884      56454E54 
 14884      5F434849 
 14884      4C445F43 
 14884      48414E47 
 14885              	.LASF610:
 14886 1985 4C565F49 		.ascii	"LV_IMGBTN_STATE_CHECKED_DISABLED\000"
 14886      4D474254 
 14886      4E5F5354 
 14886      4154455F 
 14886      43484543 
 14887              	.LASF193:
 14888 19a6 73746174 		.ascii	"state\000"
 14888      6500
 14889              	.LASF704:
ARM GAS  C:\Users\haske\AppData\Local\Temp\ccIkbvey.s 			page 322


 14890 19ac 4C565F53 		.ascii	"LV_STYLE_GRID_CELL_ROW_SPAN\000"
 14890      54594C45 
 14890      5F475249 
 14890      445F4345 
 14890      4C4C5F52 
 14891              	.LASF206:
 14892 19c8 62675F69 		.ascii	"bg_img_symbol_font\000"
 14892      6D675F73 
 14892      796D626F 
 14892      6C5F666F 
 14892      6E7400
 14893              	.LASF369:
 14894 19db 5F6C765F 		.ascii	"_lv_theme_t\000"
 14894      7468656D 
 14894      655F7400 
 14895              	.LASF51:
 14896 19e7 6C696E65 		.ascii	"line_height\000"
 14896      5F686569 
 14896      67687400 
 14897              	.LASF504:
 14898 19f3 65646974 		.ascii	"editable\000"
 14898      61626C65 
 14898      00
 14899              	.LASF322:
 14900 19fc 5F6C765F 		.ascii	"_lv_disp_drv_t\000"
 14900      64697370 
 14900      5F647276 
 14900      5F7400
 14901              	.LASF341:
 14902 1a0b 636C6561 		.ascii	"clean_dcache_cb\000"
 14902      6E5F6463 
 14902      61636865 
 14902      5F636200 
 14903              	.LASF243:
 14904 1a1b 7265636F 		.ascii	"recolor_opa\000"
 14904      6C6F725F 
 14904      6F706100 
 14905              	.LASF567:
 14906 1a27 6C765F65 		.ascii	"lv_event_code_t\000"
 14906      76656E74 
 14906      5F636F64 
 14906      655F7400 
 14907              	.LASF300:
 14908 1a37 62756666 		.ascii	"buffer_copy\000"
 14908      65725F63 
 14908      6F707900 
 14909              	.LASF689:
 14910 1a43 6C765F66 		.ascii	"lv_font_montserrat_14\000"
 14910      6F6E745F 
 14910      6D6F6E74 
 14910      73657272 
 14910      61745F31 
 14911              	.LASF279:
 14912 1a59 6275665F 		.ascii	"buf_area\000"
 14912      61726561 
 14912      00
 14913              	.LASF476:
ARM GAS  C:\Users\haske\AppData\Local\Temp\ccIkbvey.s 			page 323


 14914 1a62 4C565F4F 		.ascii	"LV_OBJ_FLAG_OVERFLOW_VISIBLE\000"
 14914      424A5F46 
 14914      4C41475F 
 14914      4F564552 
 14914      464C4F57 
 14915              	.LASF611:
 14916 1a7f 5F4C565F 		.ascii	"_LV_IMGBTN_STATE_NUM\000"
 14916      494D4742 
 14916      544E5F53 
 14916      54415445 
 14916      5F4E554D 
 14917              	.LASF59:
 14918 1a94 6C765F66 		.ascii	"lv_font_t\000"
 14918      6F6E745F 
 14918      7400
 14919              	.LASF465:
 14920 1a9e 4C565F4F 		.ascii	"LV_OBJ_FLAG_SCROLL_CHAIN_VER\000"
 14920      424A5F46 
 14920      4C41475F 
 14920      5343524F 
 14920      4C4C5F43 
 14921              	.LASF390:
 14922 1abb 6C765F69 		.ascii	"lv_indev_data_t\000"
 14922      6E646576 
 14922      5F646174 
 14922      615F7400 
 14923              	.LASF692:
 14924 1acb 4C565F53 		.ascii	"LV_STYLE_FLEX_MAIN_PLACE\000"
 14924      54594C45 
 14924      5F464C45 
 14924      585F4D41 
 14924      494E5F50 
 14925              	.LASF343:
 14926 1ae4 72656E64 		.ascii	"render_start_cb\000"
 14926      65725F73 
 14926      74617274 
 14926      5F636200 
 14927              	.LASF384:
 14928 1af4 4C565F49 		.ascii	"LV_INDEV_STATE_PRESSED\000"
 14928      4E444556 
 14928      5F535441 
 14928      54455F50 
 14928      52455353 
 14929              	.LASF681:
 14930 1b0b 725F696E 		.ascii	"r_in\000"
 14930      00
 14931              	.LASF447:
 14932 1b10 4C565F50 		.ascii	"LV_PART_SCROLLBAR\000"
 14932      4152545F 
 14932      5343524F 
 14932      4C4C4241 
 14932      5200
 14933              	.LASF9:
 14934 1b22 6C6F6E67 		.ascii	"long int\000"
 14934      20696E74 
 14934      00
 14935              	.LASF499:
ARM GAS  C:\Users\haske\AppData\Local\Temp\ccIkbvey.s 			page 324


 14936 1b2b 636F6E73 		.ascii	"constructor_cb\000"
 14936      74727563 
 14936      746F725F 
 14936      636200
 14937              	.LASF174:
 14938 1b3a 6C765F73 		.ascii	"lv_style_prop_t\000"
 14938      74796C65 
 14938      5F70726F 
 14938      705F7400 
 14939              	.LASF420:
 14940 1b4a 706F696E 		.ascii	"pointer\000"
 14940      74657200 
 14941              	.LASF492:
 14942 1b52 5F6C765F 		.ascii	"_lv_obj_style_t\000"
 14942      6F626A5F 
 14942      7374796C 
 14942      655F7400 
 14943              	.LASF549:
 14944 1b62 4C565F45 		.ascii	"LV_EVENT_INSERT\000"
 14944      56454E54 
 14944      5F494E53 
 14944      45525400 
 14945              	.LASF295:
 14946 1b72 64726177 		.ascii	"draw_line\000"
 14946      5F6C696E 
 14946      6500
 14947              	.LASF613:
 14948 1b7c 4C565F43 		.ascii	"LV_COLORWHEEL_MODE_SATURATION\000"
 14948      4F4C4F52 
 14948      57484545 
 14948      4C5F4D4F 
 14948      44455F53 
 14949              	.LASF222:
 14950 1b9a 73686164 		.ascii	"shadow_ofs_x\000"
 14950      6F775F6F 
 14950      66735F78 
 14950      00
 14951              	.LASF223:
 14952 1ba7 73686164 		.ascii	"shadow_ofs_y\000"
 14952      6F775F6F 
 14952      66735F79 
 14952      00
 14953              	.LASF560:
 14954 1bb4 4C565F45 		.ascii	"LV_EVENT_SCREEN_UNLOADED\000"
 14954      56454E54 
 14954      5F534352 
 14954      45454E5F 
 14954      554E4C4F 
 14955              	.LASF91:
 14956 1bcd 4C565F53 		.ascii	"LV_STYLE_MAX_HEIGHT\000"
 14956      54594C45 
 14956      5F4D4158 
 14956      5F484549 
 14956      47485400 
 14957              	.LASF457:
 14958 1be1 4C565F4F 		.ascii	"LV_OBJ_FLAG_CLICKABLE\000"
 14958      424A5F46 
ARM GAS  C:\Users\haske\AppData\Local\Temp\ccIkbvey.s 			page 325


 14958      4C41475F 
 14958      434C4943 
 14958      4B41424C 
 14959              	.LASF646:
 14960 1bf7 6B6E6F62 		.ascii	"knob_area\000"
 14960      5F617265 
 14960      6100
 14961              	.LASF342:
 14962 1c01 6472765F 		.ascii	"drv_update_cb\000"
 14962      75706461 
 14962      74655F63 
 14962      6200
 14963              	.LASF252:
 14964 1c0f 7261775F 		.ascii	"raw_end\000"
 14964      656E6400 
 14965              	.LASF525:
 14966 1c17 4C565F45 		.ascii	"LV_EVENT_LONG_PRESSED\000"
 14966      56454E54 
 14966      5F4C4F4E 
 14966      475F5052 
 14966      45535345 
 14967              	.LASF132:
 14968 1c2d 4C565F53 		.ascii	"LV_STYLE_SHADOW_OPA\000"
 14968      54594C45 
 14968      5F534841 
 14968      444F575F 
 14968      4F504100 
 14969              	.LASF50:
 14970 1c41 6765745F 		.ascii	"get_glyph_bitmap\000"
 14970      676C7970 
 14970      685F6269 
 14970      746D6170 
 14970      00
 14971              	.LASF502:
 14972 1c52 77696474 		.ascii	"width_def\000"
 14972      685F6465 
 14972      6600
 14973              	.LASF444:
 14974 1c5c 6C765F69 		.ascii	"lv_indev_t\000"
 14974      6E646576 
 14974      5F7400
 14975              	.LASF187:
 14976 1c67 636C6173 		.ascii	"class_p\000"
 14976      735F7000 
 14977              	.LASF46:
 14978 1c6f 69735F70 		.ascii	"is_placeholder\000"
 14978      6C616365 
 14978      686F6C64 
 14978      657200
 14979              	.LASF277:
 14980 1c7e 6C765F64 		.ascii	"lv_draw_layer_flags_t\000"
 14980      7261775F 
 14980      6C617965 
 14980      725F666C 
 14980      6167735F 
 14981              	.LASF675:
 14982 1c94 64726177 		.ascii	"draw_knob\000"
ARM GAS  C:\Users\haske\AppData\Local\Temp\ccIkbvey.s 			page 326


 14982      5F6B6E6F 
 14982      6200
 14983              	.LASF445:
 14984 1c9e 6C765F73 		.ascii	"lv_state_t\000"
 14984      74617465 
 14984      5F7400
 14985              	.LASF582:
 14986 1ca9 4C565F4B 		.ascii	"LV_KEY_HOME\000"
 14986      45595F48 
 14986      4F4D4500 
 14987              	.LASF216:
 14988 1cb5 6F75746C 		.ascii	"outline_color\000"
 14988      696E655F 
 14988      636F6C6F 
 14988      7200
 14989              	.LASF28:
 14990 1cc3 75736572 		.ascii	"user_data\000"
 14990      5F646174 
 14990      6100
 14991              	.LASF68:
 14992 1ccd 6C765F6F 		.ascii	"lv_opa_t\000"
 14992      70615F74 
 14992      00
 14993              	.LASF678:
 14994 1cd6 6B6E6F62 		.ascii	"knob_pad\000"
 14994      5F706164 
 14994      00
 14995              	.LASF20:
 14996 1cdf 75696E74 		.ascii	"uint32_t\000"
 14996      33325F74 
 14996      00
 14997              	.LASF296:
 14998 1ce8 64726177 		.ascii	"draw_polygon\000"
 14998      5F706F6C 
 14998      79676F6E 
 14998      00
 14999              	.LASF701:
 15000 1cf5 4C565F53 		.ascii	"LV_STYLE_GRID_CELL_COLUMN_SPAN\000"
 15000      54594C45 
 15000      5F475249 
 15000      445F4345 
 15000      4C4C5F43 
 15001              	.LASF505:
 15002 1d14 67726F75 		.ascii	"group_def\000"
 15002      705F6465 
 15002      6600
 15003              	.LASF387:
 15004 1d1e 62746E5F 		.ascii	"btn_id\000"
 15004      696400
 15005              	.LASF668:
 15006 1d25 6873765F 		.ascii	"hsv_cur\000"
 15006      63757200 
 15007              	.LASF391:
 15008 1d2d 5F6C765F 		.ascii	"_lv_indev_drv_t\000"
 15008      696E6465 
 15008      765F6472 
 15008      765F7400 
ARM GAS  C:\Users\haske\AppData\Local\Temp\ccIkbvey.s 			page 327


 15009              	.LASF32:
 15010 1d3d 6C6F6E67 		.ascii	"long double\000"
 15010      20646F75 
 15010      626C6500 
 15011              	.LASF739:
 15012 1d49 6C765F61 		.ascii	"lv_atan2\000"
 15012      74616E32 
 15012      00
 15013              	.LASF550:
 15014 1d52 4C565F45 		.ascii	"LV_EVENT_REFRESH\000"
 15014      56454E54 
 15014      5F524546 
 15014      52455348 
 15014      00
 15015              	.LASF317:
 15016 1d63 666C7573 		.ascii	"flushing\000"
 15016      68696E67 
 15016      00
 15017              	.LASF408:
 15018 1d6c 7363726F 		.ascii	"scroll_throw_vect_ori\000"
 15018      6C6C5F74 
 15018      68726F77 
 15018      5F766563 
 15018      745F6F72 
 15019              	.LASF474:
 15020 1d82 4C565F4F 		.ascii	"LV_OBJ_FLAG_IGNORE_LAYOUT\000"
 15020      424A5F46 
 15020      4C41475F 
 15020      49474E4F 
 15020      52455F4C 
 15021              	.LASF581:
 15022 1d9c 4C565F4B 		.ascii	"LV_KEY_PREV\000"
 15022      45595F50 
 15022      52455600 
 15023              	.LASF11:
 15024 1da8 6C6F6E67 		.ascii	"long unsigned int\000"
 15024      20756E73 
 15024      69676E65 
 15024      6420696E 
 15024      7400
 15025              	.LASF364:
 15026 1dba 696E765F 		.ascii	"inv_areas\000"
 15026      61726561 
 15026      7300
 15027              	.LASF676:
 15028 1dc4 6369725F 		.ascii	"cir_dsc\000"
 15028      64736300 
 15029              	.LASF337:
 15030 1dcc 7365745F 		.ascii	"set_px_cb\000"
 15030      70785F63 
 15030      6200
 15031              	.LASF673:
 15032 1dd6 6C765F63 		.ascii	"lv_colorwheel_get_hsv\000"
 15032      6F6C6F72 
 15032      77686565 
 15032      6C5F6765 
 15032      745F6873 
ARM GAS  C:\Users\haske\AppData\Local\Temp\ccIkbvey.s 			page 328


 15033              	.LASF597:
 15034 1dec 6576656E 		.ascii	"event_dsc_cnt\000"
 15034      745F6473 
 15034      635F636E 
 15034      7400
 15035              	.LASF249:
 15036 1dfa 64617368 		.ascii	"dash_gap\000"
 15036      5F676170 
 15036      00
 15037              	.LASF338:
 15038 1e03 636C6561 		.ascii	"clear_cb\000"
 15038      725F6362 
 15038      00
 15039              	.LASF143:
 15040 1e0c 4C565F53 		.ascii	"LV_STYLE_ARC_ROUNDED\000"
 15040      54594C45 
 15040      5F415243 
 15040      5F524F55 
 15040      4E444544 
 15041              	.LASF128:
 15042 1e21 4C565F53 		.ascii	"LV_STYLE_SHADOW_OFS_X\000"
 15042      54594C45 
 15042      5F534841 
 15042      444F575F 
 15042      4F46535F 
 15043              	.LASF129:
 15044 1e37 4C565F53 		.ascii	"LV_STYLE_SHADOW_OFS_Y\000"
 15044      54594C45 
 15044      5F534841 
 15044      444F575F 
 15044      4F46535F 
 15045              	.LASF219:
 15046 1e4d 6F75746C 		.ascii	"outline_opa\000"
 15046      696E655F 
 15046      6F706100 
 15047              	.LASF529:
 15048 1e59 4C565F45 		.ascii	"LV_EVENT_SCROLL_BEGIN\000"
 15048      56454E54 
 15048      5F534352 
 15048      4F4C4C5F 
 15048      42454749 
 15049              	.LASF298:
 15050 1e6f 64726177 		.ascii	"draw_bg\000"
 15050      5F626700 
 15051              	.LASF141:
 15052 1e77 4C565F53 		.ascii	"LV_STYLE_LINE_OPA\000"
 15052      54594C45 
 15052      5F4C494E 
 15052      455F4F50 
 15052      4100
 15053              	.LASF662:
 15054 1e89 6C765F63 		.ascii	"lv_colorwheel_constructor\000"
 15054      6F6C6F72 
 15054      77686565 
 15054      6C5F636F 
 15054      6E737472 
 15055              	.LASF34:
ARM GAS  C:\Users\haske\AppData\Local\Temp\ccIkbvey.s 			page 329


 15056 1ea3 63686172 		.ascii	"char\000"
 15056      00
 15057              	.LASF715:
 15058 1ea8 6C765F6F 		.ascii	"lv_obj_get_height\000"
 15058      626A5F67 
 15058      65745F68 
 15058      65696768 
 15058      7400
 15059              	.LASF486:
 15060 1eba 6C765F73 		.ascii	"lv_scrollbar_mode_t\000"
 15060      63726F6C 
 15060      6C626172 
 15060      5F6D6F64 
 15060      655F7400 
 15061              	.LASF357:
 15062 1ece 746F705F 		.ascii	"top_layer\000"
 15062      6C617965 
 15062      7200
 15063              	.LASF356:
 15064 1ed8 7363725F 		.ascii	"scr_to_load\000"
 15064      746F5F6C 
 15064      6F616400 
 15065              	.LASF523:
 15066 1ee4 4C565F45 		.ascii	"LV_EVENT_PRESS_LOST\000"
 15066      56454E54 
 15066      5F505245 
 15066      53535F4C 
 15066      4F535400 
 15067              	.LASF253:
 15068 1ef8 6C765F64 		.ascii	"lv_draw_line_dsc_t\000"
 15068      7261775F 
 15068      6C696E65 
 15068      5F647363 
 15068      5F7400
 15069              	.LASF86:
 15070 1f0b 4C565F53 		.ascii	"LV_STYLE_WIDTH\000"
 15070      54594C45 
 15070      5F574944 
 15070      544800
 15071              	.LASF744:
 15072 1f1a 2E2E5C2E 		.ascii	"..\\..\\..\\arduinoLCD\\test\\Pain Drain\\libraries"
 15072      2E5C2E2E 
 15072      5C617264 
 15072      75696E6F 
 15072      4C43445C 
 15073 1f47 5C6C7667 		.ascii	"\\lvgl\\src\\extra\\widgets\\colorwheel\\lv_colorwh"
 15073      6C5C7372 
 15073      635C6578 
 15073      7472615C 
 15073      77696467 
 15074 1f74 65656C2E 		.ascii	"eel.c\000"
 15074      6300
 15075              	.LASF436:
 15076 1f7a 6F626A5F 		.ascii	"obj_ll\000"
 15076      6C6C00
 15077              	.LASF130:
 15078 1f81 4C565F53 		.ascii	"LV_STYLE_SHADOW_SPREAD\000"
ARM GAS  C:\Users\haske\AppData\Local\Temp\ccIkbvey.s 			page 330


 15078      54594C45 
 15078      5F534841 
 15078      444F575F 
 15078      53505245 
 15079              	.LASF648:
 15080 1f98 696E7661 		.ascii	"invalidate_knob\000"
 15080      6C696461 
 15080      74655F6B 
 15080      6E6F6200 
 15081              	.LASF77:
 15082 1fa8 636F6C6F 		.ascii	"color\000"
 15082      7200
 15083              	.LASF184:
 15084 1fae 6C765F73 		.ascii	"lv_style_t\000"
 15084      74796C65 
 15084      5F7400
 15085              	.LASF551:
 15086 1fb9 4C565F45 		.ascii	"LV_EVENT_READY\000"
 15086      56454E54 
 15086      5F524541 
 15086      445900
 15087              	.LASF626:
 15088 1fc8 6C765F6F 		.ascii	"lv_obj_get_style_pad_top\000"
 15088      626A5F67 
 15088      65745F73 
 15088      74796C65 
 15088      5F706164 
 15089              	.LASF52:
 15090 1fe1 62617365 		.ascii	"base_line\000"
 15090      5F6C696E 
 15090      6500
 15091              	.LASF658:
 15092 1feb 6D61736B 		.ascii	"mask_in_param\000"
 15092      5F696E5F 
 15092      70617261 
 15092      6D00
 15093              	.LASF661:
 15094 1ff9 616E676C 		.ascii	"angle_trigo\000"
 15094      655F7472 
 15094      69676F00 
 15095              	.LASF637:
 15096 2005 685F6672 		.ascii	"h_frac\000"
 15096      616300
 15097              	.LASF147:
 15098 200c 4C565F53 		.ascii	"LV_STYLE_TEXT_COLOR\000"
 15098      54594C45 
 15098      5F544558 
 15098      545F434F 
 15098      4C4F5200 
 15099              	.LASF615:
 15100 2020 6C765F63 		.ascii	"lv_colorwheel_mode_t\000"
 15100      6F6C6F72 
 15100      77686565 
 15100      6C5F6D6F 
 15100      64655F74 
 15101              	.LASF122:
 15102 2035 4C565F53 		.ascii	"LV_STYLE_BORDER_POST\000"
ARM GAS  C:\Users\haske\AppData\Local\Temp\ccIkbvey.s 			page 331


 15102      54594C45 
 15102      5F424F52 
 15102      4445525F 
 15102      504F5354 
 15103              	.LASF306:
 15104 204a 6C765F64 		.ascii	"lv_draw_ctx_t\000"
 15104      7261775F 
 15104      6374785F 
 15104      7400
 15105              	.LASF312:
 15106 2058 5F6C765F 		.ascii	"_lv_disp_draw_buf_t\000"
 15106      64697370 
 15106      5F647261 
 15106      775F6275 
 15106      665F7400 
 15107              	.LASF512:
 15108 206c 63757272 		.ascii	"current_target\000"
 15108      656E745F 
 15108      74617267 
 15108      657400
 15109              	.LASF403:
 15110 207b 6C617374 		.ascii	"last_point\000"
 15110      5F706F69 
 15110      6E7400
 15111              	.LASF166:
 15112 2086 4C565F53 		.ascii	"LV_STYLE_TRANSFORM_ZOOM\000"
 15112      54594C45 
 15112      5F545241 
 15112      4E53464F 
 15112      524D5F5A 
 15113              	.LASF97:
 15114 209e 4C565F53 		.ascii	"LV_STYLE_PAD_TOP\000"
 15114      54594C45 
 15114      5F504144 
 15114      5F544F50 
 15114      00
 15115              	.LASF728:
 15116 20af 6C765F69 		.ascii	"lv_indev_get_act\000"
 15116      6E646576 
 15116      5F676574 
 15116      5F616374 
 15116      00
 15117              	.LASF687:
 15118 20c0 6C765F63 		.ascii	"lv_colorwheel_get_color_mode_fixed\000"
 15118      6F6C6F72 
 15118      77686565 
 15118      6C5F6765 
 15118      745F636F 
 15119              	.LASF234:
 15120 20e3 62696469 		.ascii	"bidi_dir\000"
 15120      5F646972 
 15120      00
 15121              	.LASF590:
 15122 20ec 6576656E 		.ascii	"event_dsc\000"
 15122      745F6473 
 15122      6300
 15123              	.LASF428:
ARM GAS  C:\Users\haske\AppData\Local\Temp\ccIkbvey.s 			page 332


 15124 20f6 70725F74 		.ascii	"pr_timestamp\000"
 15124      696D6573 
 15124      74616D70 
 15124      00
 15125              	.LASF607:
 15126 2103 4C565F49 		.ascii	"LV_IMGBTN_STATE_DISABLED\000"
 15126      4D474254 
 15126      4E5F5354 
 15126      4154455F 
 15126      44495341 
 15127              	.LASF374:
 15128 211c 666F6E74 		.ascii	"font_small\000"
 15128      5F736D61 
 15128      6C6C00
 15129              	.LASF443:
 15130 2127 77726170 		.ascii	"wrap\000"
 15130      00
 15131              	.LASF168:
 15132 212c 4C565F53 		.ascii	"LV_STYLE_TRANSFORM_PIVOT_X\000"
 15132      54594C45 
 15132      5F545241 
 15132      4E53464F 
 15132      524D5F50 
 15133              	.LASF169:
 15134 2147 4C565F53 		.ascii	"LV_STYLE_TRANSFORM_PIVOT_Y\000"
 15134      54594C45 
 15134      5F545241 
 15134      4E53464F 
 15134      524D5F50 
 15135              	.LASF578:
 15136 2162 4C565F4B 		.ascii	"LV_KEY_BACKSPACE\000"
 15136      45595F42 
 15136      41434B53 
 15136      50414345 
 15136      00
 15137              	.LASF473:
 15138 2173 4C565F4F 		.ascii	"LV_OBJ_FLAG_ADV_HITTEST\000"
 15138      424A5F46 
 15138      4C41475F 
 15138      4144565F 
 15138      48495454 
 15139              	.LASF672:
 15140 218b 66697865 		.ascii	"fixed\000"
 15140      6400
 15141              	.LASF71:
 15142 2191 6C765F62 		.ascii	"lv_base_dir_t\000"
 15142      6173655F 
 15142      6469725F 
 15142      7400
 15143              	.LASF76:
 15144 219f 6C765F64 		.ascii	"lv_dither_mode_t\000"
 15144      69746865 
 15144      725F6D6F 
 15144      64655F74 
 15144      00
 15145              	.LASF629:
 15146 21b0 6C765F6F 		.ascii	"lv_obj_get_style_arc_width\000"
ARM GAS  C:\Users\haske\AppData\Local\Temp\ccIkbvey.s 			page 333


 15146      626A5F67 
 15146      65745F73 
 15146      74796C65 
 15146      5F617263 
 15147              	.LASF666:
 15148 21cb 646F7562 		.ascii	"double_click_reset\000"
 15148      6C655F63 
 15148      6C69636B 
 15148      5F726573 
 15148      657400
 15149              	.LASF595:
 15150 21de 7363726F 		.ascii	"scroll_snap_x\000"
 15150      6C6C5F73 
 15150      6E61705F 
 15150      7800
 15151              	.LASF596:
 15152 21ec 7363726F 		.ascii	"scroll_snap_y\000"
 15152      6C6C5F73 
 15152      6E61705F 
 15152      7900
 15153              	.LASF570:
 15154 21fa 61726561 		.ascii	"area\000"
 15154      00
 15155              	.LASF350:
 15156 21ff 64726976 		.ascii	"driver\000"
 15156      657200
 15157              	.LASF580:
 15158 2206 4C565F4B 		.ascii	"LV_KEY_NEXT\000"
 15158      45595F4E 
 15158      45585400 
 15159              	.LASF482:
 15160 2212 4C565F4F 		.ascii	"LV_OBJ_FLAG_USER_2\000"
 15160      424A5F46 
 15160      4C41475F 
 15160      55534552 
 15160      5F3200
 15161              	.LASF99:
 15162 2225 4C565F53 		.ascii	"LV_STYLE_PAD_LEFT\000"
 15162      54594C45 
 15162      5F504144 
 15162      5F4C4546 
 15162      5400
 15163              	.LASF423:
 15164 2237 6C6F6E67 		.ascii	"long_pr_sent\000"
 15164      5F70725F 
 15164      73656E74 
 15164      00
 15165              	.LASF138:
 15166 2244 4C565F53 		.ascii	"LV_STYLE_LINE_DASH_GAP\000"
 15166      54594C45 
 15166      5F4C494E 
 15166      455F4441 
 15166      53485F47 
 15167              	.LASF301:
 15168 225b 6C617965 		.ascii	"layer_init\000"
 15168      725F696E 
 15168      697400
ARM GAS  C:\Users\haske\AppData\Local\Temp\ccIkbvey.s 			page 334


 15169              	.LASF157:
 15170 2266 4C565F53 		.ascii	"LV_STYLE_ANIM\000"
 15170      54594C45 
 15170      5F414E49 
 15170      4D00
 15171              	.LASF703:
 15172 2274 4C565F53 		.ascii	"LV_STYLE_GRID_CELL_ROW_POS\000"
 15172      54594C45 
 15172      5F475249 
 15172      445F4345 
 15172      4C4C5F52 
 15173              	.LASF359:
 15174 228f 73637265 		.ascii	"screen_cnt\000"
 15174      656E5F63 
 15174      6E7400
 15175              	.LASF291:
 15176 229a 64726177 		.ascii	"draw_arc\000"
 15176      5F617263 
 15176      00
 15177              	.LASF521:
 15178 22a3 4C565F45 		.ascii	"LV_EVENT_PRESSED\000"
 15178      56454E54 
 15178      5F505245 
 15178      53534544 
 15178      00
 15179              	.LASF49:
 15180 22b4 6765745F 		.ascii	"get_glyph_dsc\000"
 15180      676C7970 
 15180      685F6473 
 15180      6300
 15181              	.LASF372:
 15182 22c2 636F6C6F 		.ascii	"color_primary\000"
 15182      725F7072 
 15182      696D6172 
 15182      7900
 15183              	.LASF679:
 15184 22d0 696E6465 		.ascii	"indev_type\000"
 15184      765F7479 
 15184      706500
 15185              	.LASF600:
 15186 22db 6C765F6F 		.ascii	"lv_obj_t\000"
 15186      626A5F74 
 15186      00
 15187              	.LASF353:
 15188 22e4 73637265 		.ascii	"screens\000"
 15188      656E7300 
 15189              	.LASF537:
 15190 22ec 4C565F45 		.ascii	"LV_EVENT_HIT_TEST\000"
 15190      56454E54 
 15190      5F484954 
 15190      5F544553 
 15190      5400
 15191              	.LASF587:
 15192 22fe 6368696C 		.ascii	"children\000"
 15192      6472656E 
 15192      00
 15193              	.LASF682:
ARM GAS  C:\Users\haske\AppData\Local\Temp\ccIkbvey.s 			page 335


 15194 2307 6F6E5F72 		.ascii	"on_ring\000"
 15194      696E6700 
 15195              	.LASF488:
 15196 230f 7374796C 		.ascii	"style\000"
 15196      6500
 15197              	.LASF96:
 15198 2315 4C565F53 		.ascii	"LV_STYLE_RADIUS\000"
 15198      54594C45 
 15198      5F524144 
 15198      49555300 
 15199              	.LASF310:
 15200 2325 7461696C 		.ascii	"tail\000"
 15200      00
 15201              	.LASF167:
 15202 232a 4C565F53 		.ascii	"LV_STYLE_TRANSFORM_ANGLE\000"
 15202      54594C45 
 15202      5F545241 
 15202      4E53464F 
 15202      524D5F41 
 15203              	.LASF323:
 15204 2343 686F725F 		.ascii	"hor_res\000"
 15204      72657300 
 15205              	.LASF677:
 15206 234b 6C765F63 		.ascii	"lv_colorwheel_event\000"
 15206      6F6C6F72 
 15206      77686565 
 15206      6C5F6576 
 15206      656E7400 
 15207              	.LASF705:
 15208 235f 4C565F53 		.ascii	"LV_STYLE_GRID_CELL_Y_ALIGN\000"
 15208      54594C45 
 15208      5F475249 
 15208      445F4345 
 15208      4C4C5F59 
 15209              	.LASF242:
 15210 237a 7265636F 		.ascii	"recolor\000"
 15210      6C6F7200 
 15211              	.LASF573:
 15212 2382 4C565F4B 		.ascii	"LV_KEY_DOWN\000"
 15212      45595F44 
 15212      4F574E00 
 15213              	.LASF379:
 15214 238e 4C565F49 		.ascii	"LV_INDEV_TYPE_KEYPAD\000"
 15214      4E444556 
 15214      5F545950 
 15214      455F4B45 
 15214      59504144 
 15215              	.LASF199:
 15216 23a3 775F6C61 		.ascii	"w_layout\000"
 15216      796F7574 
 15216      00
 15217              	.LASF124:
 15218 23ac 4C565F53 		.ascii	"LV_STYLE_OUTLINE_COLOR\000"
 15218      54594C45 
 15218      5F4F5554 
 15218      4C494E45 
 15218      5F434F4C 
ARM GAS  C:\Users\haske\AppData\Local\Temp\ccIkbvey.s 			page 336


 15219              	.LASF507:
 15220 23c3 4C565F4F 		.ascii	"LV_OBJ_CLASS_EDITABLE_INHERIT\000"
 15220      424A5F43 
 15220      4C415353 
 15220      5F454449 
 15220      5441424C 
 15221              	.LASF268:
 15222 23e1 75736564 		.ascii	"used_cnt\000"
 15222      5F636E74 
 15222      00
 15223              	.LASF8:
 15224 23ea 5F5F696E 		.ascii	"__int32_t\000"
 15224      7433325F 
 15224      7400
 15225              	.LASF10:
 15226 23f4 5F5F7569 		.ascii	"__uint32_t\000"
 15226      6E743332 
 15226      5F7400
 15227              	.LASF220:
 15228 23ff 73686164 		.ascii	"shadow_color\000"
 15228      6F775F63 
 15228      6F6C6F72 
 15228      00
 15229              	.LASF540:
 15230 240c 4C565F45 		.ascii	"LV_EVENT_DRAW_MAIN_BEGIN\000"
 15230      56454E54 
 15230      5F445241 
 15230      575F4D41 
 15230      494E5F42 
 15231              	.LASF407:
 15232 2425 7363726F 		.ascii	"scroll_throw_vect\000"
 15232      6C6C5F74 
 15232      68726F77 
 15232      5F766563 
 15232      7400
 15233              	.LASF743:
 15234 2437 474E5520 		.ascii	"GNU C11 5.4.1 20160609 (release) [ARM/embedded-5-br"
 15234      43313120 
 15234      352E342E 
 15234      31203230 
 15234      31363036 
 15235 246a 616E6368 		.ascii	"anch revision 237715] -mcpu=cortex-m0plus -mthumb -"
 15235      20726576 
 15235      6973696F 
 15235      6E203233 
 15235      37373135 
 15236 249d 67202D4F 		.ascii	"g -Og -ffunction-sections -ffat-lto-objects\000"
 15236      67202D66 
 15236      66756E63 
 15236      74696F6E 
 15236      2D736563 
 15237              	.LASF22:
 15238 24c9 4C565F52 		.ascii	"LV_RES_OK\000"
 15238      45535F4F 
 15238      4B00
 15239              	.LASF211:
 15240 24d3 626F7264 		.ascii	"border_color\000"
ARM GAS  C:\Users\haske\AppData\Local\Temp\ccIkbvey.s 			page 337


 15240      65725F63 
 15240      6F6C6F72 
 15240      00
 15241              	.LASF48:
 15242 24e0 5F6C765F 		.ascii	"_lv_font_t\000"
 15242      666F6E74 
 15242      5F7400
 15243              	.LASF644:
 15244 24eb 72696768 		.ascii	"right\000"
 15244      7400
 15245              	.LASF309:
 15246 24f1 68656164 		.ascii	"head\000"
 15246      00
 15247              	.LASF297:
 15248 24f6 64726177 		.ascii	"draw_transform\000"
 15248      5F747261 
 15248      6E73666F 
 15248      726D00
 15249              	.LASF442:
 15250 2505 7265666F 		.ascii	"refocus_policy\000"
 15250      6375735F 
 15250      706F6C69 
 15250      637900
 15251              	.LASF366:
 15252 2514 696E765F 		.ascii	"inv_p\000"
 15252      7000
 15253              	.LASF104:
 15254 251a 4C565F53 		.ascii	"LV_STYLE_CLIP_CORNER\000"
 15254      54594C45 
 15254      5F434C49 
 15254      505F434F 
 15254      524E4552 
 15255              	.LASF264:
 15256 252f 6369725F 		.ascii	"cir_opa\000"
 15256      6F706100 
 15257              	.LASF21:
 15258 2537 4C565F52 		.ascii	"LV_RES_INV\000"
 15258      45535F49 
 15258      4E5600
 15259              	.LASF246:
 15260 2542 6C765F64 		.ascii	"lv_draw_img_dsc_t\000"
 15260      7261775F 
 15260      696D675F 
 15260      6473635F 
 15260      7400
 15261              	.LASF247:
 15262 2554 77696474 		.ascii	"width\000"
 15262      6800
 15263              	.LASF643:
 15264 255a 6C656674 		.ascii	"left\000"
 15264      00
 15265              	.LASF351:
 15266 255f 72656672 		.ascii	"refr_timer\000"
 15266      5F74696D 
 15266      657200
 15267              	.LASF659:
 15268 256a 6D61736B 		.ascii	"mask_in_id\000"
ARM GAS  C:\Users\haske\AppData\Local\Temp\ccIkbvey.s 			page 338


 15268      5F696E5F 
 15268      696400
 15269              	.LASF214:
 15270 2575 626F7264 		.ascii	"border_post\000"
 15270      65725F70 
 15270      6F737400 
 15271              	.LASF336:
 15272 2581 726F756E 		.ascii	"rounder_cb\000"
 15272      6465725F 
 15272      636200
 15273              	.LASF380:
 15274 258c 4C565F49 		.ascii	"LV_INDEV_TYPE_BUTTON\000"
 15274      4E444556 
 15274      5F545950 
 15274      455F4255 
 15274      54544F4E 
 15275              	.LASF146:
 15276 25a1 4C565F53 		.ascii	"LV_STYLE_ARC_IMG_SRC\000"
 15276      54594C45 
 15276      5F415243 
 15276      5F494D47 
 15276      5F535243 
 15277              	.LASF255:
 15278 25b6 656E645F 		.ascii	"end_angle\000"
 15278      616E676C 
 15278      6500
 15279              	.LASF721:
 15280 25c0 6C765F64 		.ascii	"lv_draw_mask_remove_id\000"
 15280      7261775F 
 15280      6D61736B 
 15280      5F72656D 
 15280      6F76655F 
 15281              	.LASF126:
 15282 25d7 4C565F53 		.ascii	"LV_STYLE_OUTLINE_PAD\000"
 15282      54594C45 
 15282      5F4F5554 
 15282      4C494E45 
 15282      5F504144 
 15283              	.LASF278:
 15284 25ec 636C6970 		.ascii	"clip_area\000"
 15284      5F617265 
 15284      6100
 15285              	.LASF429:
 15286 25f6 6C6F6E67 		.ascii	"longpr_rep_timestamp\000"
 15286      70725F72 
 15286      65705F74 
 15286      696D6573 
 15286      74616D70 
 15287              	.LASF410:
 15288 260b 6C617374 		.ascii	"last_obj\000"
 15288      5F6F626A 
 15288      00
 15289              	.LASF133:
 15290 2614 4C565F53 		.ascii	"LV_STYLE_IMG_OPA\000"
 15290      54594C45 
 15290      5F494D47 
 15290      5F4F5041 
ARM GAS  C:\Users\haske\AppData\Local\Temp\ccIkbvey.s 			page 339


 15290      00
 15291              	.LASF655:
 15292 2625 6D61736B 		.ascii	"mask_out_param\000"
 15292      5F6F7574 
 15292      5F706172 
 15292      616D00
 15293              	.LASF468:
 15294 2634 4C565F4F 		.ascii	"LV_OBJ_FLAG_SCROLL_WITH_ARROW\000"
 15294      424A5F46 
 15294      4C41475F 
 15294      5343524F 
 15294      4C4C5F57 
 15295              	.LASF13:
 15296 2652 6C6F6E67 		.ascii	"long long unsigned int\000"
 15296      206C6F6E 
 15296      6720756E 
 15296      7369676E 
 15296      65642069 
 15297              	.LASF188:
 15298 2669 70617265 		.ascii	"parent\000"
 15298      6E7400
 15299              	.LASF467:
 15300 2670 4C565F4F 		.ascii	"LV_OBJ_FLAG_SCROLL_ON_FOCUS\000"
 15300      424A5F46 
 15300      4C41475F 
 15300      5343524F 
 15300      4C4C5F4F 
 15301              	.LASF394:
 15302 268c 72656164 		.ascii	"read_timer\000"
 15302      5F74696D 
 15302      657200
 15303              	.LASF546:
 15304 2697 4C565F45 		.ascii	"LV_EVENT_DRAW_PART_BEGIN\000"
 15304      56454E54 
 15304      5F445241 
 15304      575F5041 
 15304      52545F42 
 15305              	.LASF241:
 15306 26b0 7069766F 		.ascii	"pivot\000"
 15306      7400
 15307              	.LASF315:
 15308 26b6 6275665F 		.ascii	"buf_act\000"
 15308      61637400 
 15309              	.LASF135:
 15310 26be 4C565F53 		.ascii	"LV_STYLE_IMG_RECOLOR_OPA\000"
 15310      54594C45 
 15310      5F494D47 
 15310      5F524543 
 15310      4F4C4F52 
 15311              	.LASF508:
 15312 26d7 4C565F4F 		.ascii	"LV_OBJ_CLASS_EDITABLE_TRUE\000"
 15312      424A5F43 
 15312      4C415353 
 15312      5F454449 
 15312      5441424C 
 15313              	.LASF259:
 15314 26f2 6C765F64 		.ascii	"lv_draw_mask_res_t\000"
ARM GAS  C:\Users\haske\AppData\Local\Temp\ccIkbvey.s 			page 340


 15314      7261775F 
 15314      6D61736B 
 15314      5F726573 
 15314      5F7400
 15315              	.LASF510:
 15316 2705 5F6C765F 		.ascii	"_lv_event_t\000"
 15316      6576656E 
 15316      745F7400 
 15317              	.LASF98:
 15318 2711 4C565F53 		.ascii	"LV_STYLE_PAD_BOTTOM\000"
 15318      54594C45 
 15318      5F504144 
 15318      5F424F54 
 15318      544F4D00 
 15319              	.LASF564:
 15320 2725 4C565F45 		.ascii	"LV_EVENT_GET_SELF_SIZE\000"
 15320      56454E54 
 15320      5F474554 
 15320      5F53454C 
 15320      465F5349 
 15321              	.LASF80:
 15322 273c 73746F70 		.ascii	"stops\000"
 15322      7300
 15323              	.LASF308:
 15324 2742 6E5F7369 		.ascii	"n_size\000"
 15324      7A6500
 15325              	.LASF594:
 15326 2749 7363726F 		.ascii	"scrollbar_mode\000"
 15326      6C6C6261 
 15326      725F6D6F 
 15326      646500
 15327              	.LASF630:
 15328 2758 6C765F74 		.ascii	"lv_trigo_cos\000"
 15328      7269676F 
 15328      5F636F73 
 15328      00
 15329              	.LASF65:
 15330 2765 6C765F63 		.ascii	"lv_color32_t\000"
 15330      6F6C6F72 
 15330      33325F74 
 15330      00
 15331              	.LASF466:
 15332 2772 4C565F4F 		.ascii	"LV_OBJ_FLAG_SCROLL_CHAIN\000"
 15332      424A5F46 
 15332      4C41475F 
 15332      5343524F 
 15332      4C4C5F43 
 15333              	.LASF347:
 15334 278b 64726177 		.ascii	"draw_ctx_deinit\000"
 15334      5F637478 
 15334      5F646569 
 15334      6E697400 
 15335              	.LASF256:
 15336 279b 696D675F 		.ascii	"img_src\000"
 15336      73726300 
 15337              	.LASF455:
 15338 27a3 4C565F50 		.ascii	"LV_PART_ANY\000"
ARM GAS  C:\Users\haske\AppData\Local\Temp\ccIkbvey.s 			page 341


 15338      4152545F 
 15338      414E5900 
 15339              	.LASF569:
 15340 27af 6C765F68 		.ascii	"lv_hit_test_info_t\000"
 15340      69745F74 
 15340      6573745F 
 15340      696E666F 
 15340      5F7400
 15341              	.LASF245:
 15342 27c2 616E7469 		.ascii	"antialias\000"
 15342      616C6961 
 15342      7300
 15343              	.LASF284:
 15344 27cc 6D61785F 		.ascii	"max_row_with_alpha\000"
 15344      726F775F 
 15344      77697468 
 15344      5F616C70 
 15344      686100
 15345              	.LASF82:
 15346 27df 64697468 		.ascii	"dither\000"
 15346      657200
 15347              	.LASF118:
 15348 27e6 4C565F53 		.ascii	"LV_STYLE_BORDER_COLOR\000"
 15348      54594C45 
 15348      5F424F52 
 15348      4445525F 
 15348      434F4C4F 
 15349              	.LASF105:
 15350 27fc 4C565F53 		.ascii	"LV_STYLE_BG_COLOR\000"
 15350      54594C45 
 15350      5F42475F 
 15350      434F4C4F 
 15350      5200
 15351              	.LASF651:
 15352 280e 6E657874 		.ascii	"next_color_mode\000"
 15352      5F636F6C 
 15352      6F725F6D 
 15352      6F646500 
 15353              	.LASF208:
 15354 281e 62675F69 		.ascii	"bg_img_opa\000"
 15354      6D675F6F 
 15354      706100
 15355              	.LASF116:
 15356 2829 4C565F53 		.ascii	"LV_STYLE_BG_IMG_RECOLOR_OPA\000"
 15356      54594C45 
 15356      5F42475F 
 15356      494D475F 
 15356      5245434F 
 15357              	.LASF716:
 15358 2845 6C765F64 		.ascii	"lv_draw_line_dsc_init\000"
 15358      7261775F 
 15358      6C696E65 
 15358      5F647363 
 15358      5F696E69 
 15359              	.LASF273:
 15360 285b 6C765F64 		.ascii	"lv_draw_mask_radius_param_t\000"
 15360      7261775F 
ARM GAS  C:\Users\haske\AppData\Local\Temp\ccIkbvey.s 			page 342


 15360      6D61736B 
 15360      5F726164 
 15360      6975735F 
 15361              	.LASF64:
 15362 2877 616C7068 		.ascii	"alpha\000"
 15362      6100
 15363              	.LASF636:
 15364 287d 73657874 		.ascii	"sextant\000"
 15364      616E7400 
 15365              	.LASF639:
 15366 2885 616E676C 		.ascii	"angle_to_mode_color_fast\000"
 15366      655F746F 
 15366      5F6D6F64 
 15366      655F636F 
 15366      6C6F725F 
 15367              	.LASF712:
 15368 289e 6C765F64 		.ascii	"lv_draw_line\000"
 15368      7261775F 
 15368      6C696E65 
 15368      00
 15369              	.LASF321:
 15370 28ab 6C765F64 		.ascii	"lv_disp_draw_buf_t\000"
 15370      6973705F 
 15370      64726177 
 15370      5F627566 
 15370      5F7400
 15371              	.LASF72:
 15372 28be 6C765F62 		.ascii	"lv_blend_mode_t\000"
 15372      6C656E64 
 15372      5F6D6F64 
 15372      655F7400 
 15373              	.LASF718:
 15374 28ce 6C765F64 		.ascii	"lv_draw_mask_radius_init\000"
 15374      7261775F 
 15374      6D61736B 
 15374      5F726164 
 15374      6975735F 
 15375              	.LASF329:
 15376 28e7 64726177 		.ascii	"draw_buf\000"
 15376      5F627566 
 15376      00
 15377              	.LASF12:
 15378 28f0 6C6F6E67 		.ascii	"long long int\000"
 15378      206C6F6E 
 15378      6720696E 
 15378      7400
 15379              	.LASF543:
 15380 28fe 4C565F45 		.ascii	"LV_EVENT_DRAW_POST_BEGIN\000"
 15380      56454E54 
 15380      5F445241 
 15380      575F504F 
 15380      53545F42 
 15381              	.LASF481:
 15382 2917 4C565F4F 		.ascii	"LV_OBJ_FLAG_USER_1\000"
 15382      424A5F46 
 15382      4C41475F 
 15382      55534552 
ARM GAS  C:\Users\haske\AppData\Local\Temp\ccIkbvey.s 			page 343


 15382      5F3100
 15383              	.LASF47:
 15384 292a 5F6C765F 		.ascii	"_lv_timer_t\000"
 15384      74696D65 
 15384      725F7400 
 15385              	.LASF483:
 15386 2936 4C565F4F 		.ascii	"LV_OBJ_FLAG_USER_3\000"
 15386      424A5F46 
 15386      4C41475F 
 15386      55534552 
 15386      5F3300
 15387              	.LASF484:
 15388 2949 4C565F4F 		.ascii	"LV_OBJ_FLAG_USER_4\000"
 15388      424A5F46 
 15388      4C41475F 
 15388      55534552 
 15388      5F3400
 15389              	.LASF638:
 15390 295c 616E676C 		.ascii	"angle_saved\000"
 15390      655F7361 
 15390      76656400 
 15391              	.LASF565:
 15392 2968 5F4C565F 		.ascii	"_LV_EVENT_LAST\000"
 15392      4556454E 
 15392      545F4C41 
 15392      535400
 15393              	.LASF60:
 15394 2977 626C7565 		.ascii	"blue\000"
 15394      00
 15395              	.LASF432:
 15396 297c 63757273 		.ascii	"cursor\000"
 15396      6F7200
 15397              	.LASF736:
 15398 2983 6C765F65 		.ascii	"lv_event_get_param\000"
 15398      76656E74 
 15398      5F676574 
 15398      5F706172 
 15398      616D00
 15399              	.LASF545:
 15400 2996 4C565F45 		.ascii	"LV_EVENT_DRAW_POST_END\000"
 15400      56454E54 
 15400      5F445241 
 15400      575F504F 
 15400      53545F45 
 15401              	.LASF664:
 15402 29ad 6C765F63 		.ascii	"lv_colorwheel_create\000"
 15402      6F6C6F72 
 15402      77686565 
 15402      6C5F6372 
 15402      65617465 
 15403              	.LASF299:
 15404 29c2 77616974 		.ascii	"wait_for_finish\000"
 15404      5F666F72 
 15404      5F66696E 
 15404      69736800 
 15405              	.LASF84:
 15406 29d2 6C765F73 		.ascii	"lv_style_value_t\000"
ARM GAS  C:\Users\haske\AppData\Local\Temp\ccIkbvey.s 			page 344


 15406      74796C65 
 15406      5F76616C 
 15406      75655F74 
 15406      00
 15407              	.LASF471:
 15408 29e3 4C565F4F 		.ascii	"LV_OBJ_FLAG_EVENT_BUBBLE\000"
 15408      424A5F46 
 15408      4C41475F 
 15408      4556454E 
 15408      545F4255 
 15409              	.LASF320:
 15410 29fc 6C617374 		.ascii	"last_part\000"
 15410      5F706172 
 15410      7400
 15411              	.LASF733:
 15412 2a06 6C765F64 		.ascii	"lv_draw_rect_dsc_init\000"
 15412      7261775F 
 15412      72656374 
 15412      5F647363 
 15412      5F696E69 
 15413              	.LASF400:
 15414 2a1c 6C6F6E67 		.ascii	"long_press_repeat_time\000"
 15414      5F707265 
 15414      73735F72 
 15414      65706561 
 15414      745F7469 
 15415              	.LASF463:
 15416 2a33 4C565F4F 		.ascii	"LV_OBJ_FLAG_SCROLL_ONE\000"
 15416      424A5F46 
 15416      4C41475F 
 15416      5343524F 
 15416      4C4C5F4F 
 15417              	.LASF621:
 15418 2a4a 6D6F6465 		.ascii	"mode_fixed\000"
 15418      5F666978 
 15418      656400
 15419              	.LASF593:
 15420 2a55 6578745F 		.ascii	"ext_draw_size\000"
 15420      64726177 
 15420      5F73697A 
 15420      6500
 15421              	.LASF151:
 15422 2a63 4C565F53 		.ascii	"LV_STYLE_TEXT_LINE_SPACE\000"
 15422      54594C45 
 15422      5F544558 
 15422      545F4C49 
 15422      4E455F53 
 15423              	.LASF656:
 15424 2a7c 6D61736B 		.ascii	"mask_out_id\000"
 15424      5F6F7574 
 15424      5F696400 
 15425              	.LASF493:
 15426 2a88 4C565F43 		.ascii	"LV_COVER_RES_COVER\000"
 15426      4F564552 
 15426      5F524553 
 15426      5F434F56 
 15426      455200
ARM GAS  C:\Users\haske\AppData\Local\Temp\ccIkbvey.s 			page 345


 15427              	.LASF283:
 15428 2a9b 61726561 		.ascii	"area_act\000"
 15428      5F616374 
 15428      00
 15429              	.LASF412:
 15430 2aa4 6C617374 		.ascii	"last_pressed\000"
 15430      5F707265 
 15430      73736564 
 15430      00
 15431              	.LASF657:
 15432 2ab1 6D61736B 		.ascii	"mask_area\000"
 15432      5F617265 
 15432      6100
 15433              	.LASF365:
 15434 2abb 696E765F 		.ascii	"inv_area_joined\000"
 15434      61726561 
 15434      5F6A6F69 
 15434      6E656400 
 15435              	.LASF345:
 15436 2acb 64726177 		.ascii	"draw_ctx\000"
 15436      5F637478 
 15436      00
 15437              	.LASF85:
 15438 2ad4 4C565F53 		.ascii	"LV_STYLE_PROP_INV\000"
 15438      54594C45 
 15438      5F50524F 
 15438      505F494E 
 15438      5600
 15439              	.LASF401:
 15440 2ae6 6163745F 		.ascii	"act_point\000"
 15440      706F696E 
 15440      7400
 15441              	.LASF542:
 15442 2af0 4C565F45 		.ascii	"LV_EVENT_DRAW_MAIN_END\000"
 15442      56454E54 
 15442      5F445241 
 15442      575F4D41 
 15442      494E5F45 
 15443              	.LASF290:
 15444 2b07 64726177 		.ascii	"draw_rect\000"
 15444      5F726563 
 15444      7400
 15445              	.LASF185:
 15446 2b11 6C765F69 		.ascii	"lv_img_cf_t\000"
 15446      6D675F63 
 15446      665F7400 
 15447              	.LASF561:
 15448 2b1d 4C565F45 		.ascii	"LV_EVENT_SIZE_CHANGED\000"
 15448      56454E54 
 15448      5F53495A 
 15448      455F4348 
 15448      414E4745 
 15449              	.LASF453:
 15450 2b33 4C565F50 		.ascii	"LV_PART_CURSOR\000"
 15450      4152545F 
 15450      43555253 
 15450      4F5200
ARM GAS  C:\Users\haske\AppData\Local\Temp\ccIkbvey.s 			page 346


 15451              	.LASF421:
 15452 2b42 6B657970 		.ascii	"keypad\000"
 15452      616400
 15453              	.LASF571:
 15454 2b49 6C765F63 		.ascii	"lv_cover_check_info_t\000"
 15454      6F766572 
 15454      5F636865 
 15454      636B5F69 
 15454      6E666F5F 
 15455              	.LASF0:
 15456 2b5f 5F5F696E 		.ascii	"__int8_t\000"
 15456      74385F74 
 15456      00
 15457              	.LASF155:
 15458 2b68 4C565F53 		.ascii	"LV_STYLE_COLOR_FILTER_DSC\000"
 15458      54594C45 
 15458      5F434F4C 
 15458      4F525F46 
 15458      494C5445 
 15459              	.LASF500:
 15460 2b82 64657374 		.ascii	"destructor_cb\000"
 15460      72756374 
 15460      6F725F63 
 15460      6200
 15461              	.LASF456:
 15462 2b90 4C565F4F 		.ascii	"LV_OBJ_FLAG_HIDDEN\000"
 15462      424A5F46 
 15462      4C41475F 
 15462      48494444 
 15462      454E00
 15463              	.LASF516:
 15464 2ba3 64656C65 		.ascii	"deleted\000"
 15464      74656400 
 15465              	.LASF271:
 15466 2bab 6F757465 		.ascii	"outer\000"
 15466      7200
 15467              	.LASF527:
 15468 2bb1 4C565F45 		.ascii	"LV_EVENT_CLICKED\000"
 15468      56454E54 
 15468      5F434C49 
 15468      434B4544 
 15468      00
 15469              	.LASF67:
 15470 2bc2 6C765F63 		.ascii	"lv_color_hsv_t\000"
 15470      6F6C6F72 
 15470      5F687376 
 15470      5F7400
 15471              	.LASF14:
 15472 2bd1 756E7369 		.ascii	"unsigned int\000"
 15472      676E6564 
 15472      20696E74 
 15472      00
 15473              	.LASF156:
 15474 2bde 4C565F53 		.ascii	"LV_STYLE_COLOR_FILTER_OPA\000"
 15474      54594C45 
 15474      5F434F4C 
 15474      4F525F46 
ARM GAS  C:\Users\haske\AppData\Local\Temp\ccIkbvey.s 			page 347


 15474      494C5445 
 15475              	.LASF373:
 15476 2bf8 636F6C6F 		.ascii	"color_secondary\000"
 15476      725F7365 
 15476      636F6E64 
 15476      61727900 
 15477              	.LASF142:
 15478 2c08 4C565F53 		.ascii	"LV_STYLE_ARC_WIDTH\000"
 15478      54594C45 
 15478      5F415243 
 15478      5F574944 
 15478      544800
 15479              	.LASF533:
 15480 2c1b 4C565F45 		.ascii	"LV_EVENT_KEY\000"
 15480      56454E54 
 15480      5F4B4559 
 15480      00
 15481              	.LASF125:
 15482 2c28 4C565F53 		.ascii	"LV_STYLE_OUTLINE_OPA\000"
 15482      54594C45 
 15482      5F4F5554 
 15482      4C494E45 
 15482      5F4F5041 
 15483              	.LASF694:
 15484 2c3d 4C565F53 		.ascii	"LV_STYLE_FLEX_TRACK_PLACE\000"
 15484      54594C45 
 15484      5F464C45 
 15484      585F5452 
 15484      41434B5F 
 15485              	.LASF196:
 15486 2c57 736B6970 		.ascii	"skip_trans\000"
 15486      5F747261 
 15486      6E7300
 15487              	.LASF5:
 15488 2c62 73686F72 		.ascii	"short int\000"
 15488      7420696E 
 15488      7400
 15489              	.LASF180:
 15490 2c6c 636F6E73 		.ascii	"const_props\000"
 15490      745F7072 
 15490      6F707300 
 15491              	.LASF358:
 15492 2c78 7379735F 		.ascii	"sys_layer\000"
 15492      6C617965 
 15492      7200
 15493              	.LASF231:
 15494 2c82 73656C5F 		.ascii	"sel_bg_color\000"
 15494      62675F63 
 15494      6F6C6F72 
 15494      00
 15495              	.LASF478:
 15496 2c8f 4C565F4F 		.ascii	"LV_OBJ_FLAG_LAYOUT_2\000"
 15496      424A5F46 
 15496      4C41475F 
 15496      4C41594F 
 15496      55545F32 
 15497              	.LASF515:
ARM GAS  C:\Users\haske\AppData\Local\Temp\ccIkbvey.s 			page 348


 15498 2ca4 70726576 		.ascii	"prev\000"
 15498      00
 15499              	.LASF740:
 15500 2ca9 5F6C765F 		.ascii	"_lv_area_is_point_on\000"
 15500      61726561 
 15500      5F69735F 
 15500      706F696E 
 15500      745F6F6E 
 15501              	.LASF90:
 15502 2cbe 4C565F53 		.ascii	"LV_STYLE_MIN_HEIGHT\000"
 15502      54594C45 
 15502      5F4D494E 
 15502      5F484549 
 15502      47485400 
 15503              	.LASF127:
 15504 2cd2 4C565F53 		.ascii	"LV_STYLE_SHADOW_WIDTH\000"
 15504      54594C45 
 15504      5F534841 
 15504      444F575F 
 15504      57494454 
 15505              	.LASF669:
 15506 2ce8 6C765F63 		.ascii	"lv_colorwheel_set_rgb\000"
 15506      6F6C6F72 
 15506      77686565 
 15506      6C5F7365 
 15506      745F7267 
 15507              	.LASF409:
 15508 2cfe 6163745F 		.ascii	"act_obj\000"
 15508      6F626A00 
 15509              	.LASF189:
 15510 2d06 73706563 		.ascii	"spec_attr\000"
 15510      5F617474 
 15510      7200
 15511              	.LASF632:
 15512 2d10 6C765F63 		.ascii	"lv_color_to32\000"
 15512      6F6C6F72 
 15512      5F746F33 
 15512      3200
 15513              	.LASF665:
 15514 2d1e 6C765F63 		.ascii	"lv_colorwheel_set_hsv\000"
 15514      6F6C6F72 
 15514      77686565 
 15514      6C5F7365 
 15514      745F6873 
 15515              	.LASF203:
 15516 2d34 62675F63 		.ascii	"bg_color\000"
 15516      6F6C6F72 
 15516      00
 15517              	.LASF680:
 15518 2d3d 64726167 		.ascii	"drag_limit\000"
 15518      5F6C696D 
 15518      697400
 15519              	.LASF192:
 15520 2d48 666C6167 		.ascii	"flags\000"
 15520      7300
 15521              	.LASF200:
 15522 2d4e 72616469 		.ascii	"radius\000"
ARM GAS  C:\Users\haske\AppData\Local\Temp\ccIkbvey.s 			page 349


 15522      757300
 15523              	.LASF726:
 15524 2d55 6C765F65 		.ascii	"lv_event_send\000"
 15524      76656E74 
 15524      5F73656E 
 15524      6400
 15525              	.LASF250:
 15526 2d63 726F756E 		.ascii	"round_start\000"
 15526      645F7374 
 15526      61727400 
 15527              	.LASF479:
 15528 2d6f 4C565F4F 		.ascii	"LV_OBJ_FLAG_WIDGET_1\000"
 15528      424A5F46 
 15528      4C41475F 
 15528      57494447 
 15528      45545F31 
 15529              	.LASF480:
 15530 2d84 4C565F4F 		.ascii	"LV_OBJ_FLAG_WIDGET_2\000"
 15530      424A5F46 
 15530      4C41475F 
 15530      57494447 
 15530      45545F32 
 15531              		.ident	"GCC: (GNU Tools for ARM Embedded Processors) 5.4.1 20160609 (release) [ARM/embedded-5-bran
