ARM GAS  C:\Users\haske\AppData\Local\Temp\cc37heYm.s 			page 1


   1              		.syntax unified
   2              		.cpu cortex-m0plus
   3              		.fpu softvfp
   4              		.eabi_attribute 20, 1
   5              		.eabi_attribute 21, 1
   6              		.eabi_attribute 23, 3
   7              		.eabi_attribute 24, 1
   8              		.eabi_attribute 25, 1
   9              		.eabi_attribute 26, 1
  10              		.eabi_attribute 30, 1
  11              		.eabi_attribute 34, 0
  12              		.eabi_attribute 18, 4
  13              		.thumb
  14              		.syntax unified
  15              		.file	"lv_calendar_header_arrow.c"
  16              		.text
  17              	.Ltext0:
  18              		.cfi_sections	.debug_frame
  19              		.section	.text.my_constructor,"ax",%progbits
  20              		.align	2
  21              		.code	16
  22              		.thumb_func
  23              		.type	my_constructor, %function
  24              	my_constructor:
  25              	.LFB165:
  26              		.file 1 "..\\..\\..\\arduinoLCD\\test\\Pain Drain\\libraries\\lvgl\\src\\extra\\widgets\\calendar\
   1:..\..\..\arduinoLCD\test\Pain Drain\libraries\lvgl\src\extra\widgets\calendar/lv_calendar_header_arrow.c **** /**
   2:..\..\..\arduinoLCD\test\Pain Drain\libraries\lvgl\src\extra\widgets\calendar/lv_calendar_header_arrow.c ****  * @file lv_calendar_header_arrow.c
   3:..\..\..\arduinoLCD\test\Pain Drain\libraries\lvgl\src\extra\widgets\calendar/lv_calendar_header_arrow.c ****  *
   4:..\..\..\arduinoLCD\test\Pain Drain\libraries\lvgl\src\extra\widgets\calendar/lv_calendar_header_arrow.c ****  */
   5:..\..\..\arduinoLCD\test\Pain Drain\libraries\lvgl\src\extra\widgets\calendar/lv_calendar_header_arrow.c **** 
   6:..\..\..\arduinoLCD\test\Pain Drain\libraries\lvgl\src\extra\widgets\calendar/lv_calendar_header_arrow.c **** /*********************
   7:..\..\..\arduinoLCD\test\Pain Drain\libraries\lvgl\src\extra\widgets\calendar/lv_calendar_header_arrow.c ****  *      INCLUDES
   8:..\..\..\arduinoLCD\test\Pain Drain\libraries\lvgl\src\extra\widgets\calendar/lv_calendar_header_arrow.c ****  *********************/
   9:..\..\..\arduinoLCD\test\Pain Drain\libraries\lvgl\src\extra\widgets\calendar/lv_calendar_header_arrow.c **** #include "lv_calendar_header_arrow.h"
  10:..\..\..\arduinoLCD\test\Pain Drain\libraries\lvgl\src\extra\widgets\calendar/lv_calendar_header_arrow.c **** #if LV_USE_CALENDAR_HEADER_ARROW
  11:..\..\..\arduinoLCD\test\Pain Drain\libraries\lvgl\src\extra\widgets\calendar/lv_calendar_header_arrow.c **** 
  12:..\..\..\arduinoLCD\test\Pain Drain\libraries\lvgl\src\extra\widgets\calendar/lv_calendar_header_arrow.c **** #include "lv_calendar.h"
  13:..\..\..\arduinoLCD\test\Pain Drain\libraries\lvgl\src\extra\widgets\calendar/lv_calendar_header_arrow.c **** #include "../../../widgets/lv_btn.h"
  14:..\..\..\arduinoLCD\test\Pain Drain\libraries\lvgl\src\extra\widgets\calendar/lv_calendar_header_arrow.c **** #include "../../../widgets/lv_label.h"
  15:..\..\..\arduinoLCD\test\Pain Drain\libraries\lvgl\src\extra\widgets\calendar/lv_calendar_header_arrow.c **** #include "../../layouts/flex/lv_flex.h"
  16:..\..\..\arduinoLCD\test\Pain Drain\libraries\lvgl\src\extra\widgets\calendar/lv_calendar_header_arrow.c **** 
  17:..\..\..\arduinoLCD\test\Pain Drain\libraries\lvgl\src\extra\widgets\calendar/lv_calendar_header_arrow.c **** /*********************
  18:..\..\..\arduinoLCD\test\Pain Drain\libraries\lvgl\src\extra\widgets\calendar/lv_calendar_header_arrow.c ****  *      DEFINES
  19:..\..\..\arduinoLCD\test\Pain Drain\libraries\lvgl\src\extra\widgets\calendar/lv_calendar_header_arrow.c ****  *********************/
  20:..\..\..\arduinoLCD\test\Pain Drain\libraries\lvgl\src\extra\widgets\calendar/lv_calendar_header_arrow.c **** 
  21:..\..\..\arduinoLCD\test\Pain Drain\libraries\lvgl\src\extra\widgets\calendar/lv_calendar_header_arrow.c **** /**********************
  22:..\..\..\arduinoLCD\test\Pain Drain\libraries\lvgl\src\extra\widgets\calendar/lv_calendar_header_arrow.c ****  *      TYPEDEFS
  23:..\..\..\arduinoLCD\test\Pain Drain\libraries\lvgl\src\extra\widgets\calendar/lv_calendar_header_arrow.c ****  **********************/
  24:..\..\..\arduinoLCD\test\Pain Drain\libraries\lvgl\src\extra\widgets\calendar/lv_calendar_header_arrow.c **** 
  25:..\..\..\arduinoLCD\test\Pain Drain\libraries\lvgl\src\extra\widgets\calendar/lv_calendar_header_arrow.c **** /**********************
  26:..\..\..\arduinoLCD\test\Pain Drain\libraries\lvgl\src\extra\widgets\calendar/lv_calendar_header_arrow.c ****  *  STATIC PROTOTYPES
  27:..\..\..\arduinoLCD\test\Pain Drain\libraries\lvgl\src\extra\widgets\calendar/lv_calendar_header_arrow.c ****  **********************/
  28:..\..\..\arduinoLCD\test\Pain Drain\libraries\lvgl\src\extra\widgets\calendar/lv_calendar_header_arrow.c **** static void my_constructor(const lv_obj_class_t * class_p, lv_obj_t * obj);
  29:..\..\..\arduinoLCD\test\Pain Drain\libraries\lvgl\src\extra\widgets\calendar/lv_calendar_header_arrow.c **** static void month_event_cb(lv_event_t * e);
  30:..\..\..\arduinoLCD\test\Pain Drain\libraries\lvgl\src\extra\widgets\calendar/lv_calendar_header_arrow.c **** static void value_changed_event_cb(lv_event_t * e);
  31:..\..\..\arduinoLCD\test\Pain Drain\libraries\lvgl\src\extra\widgets\calendar/lv_calendar_header_arrow.c **** 
ARM GAS  C:\Users\haske\AppData\Local\Temp\cc37heYm.s 			page 2


  32:..\..\..\arduinoLCD\test\Pain Drain\libraries\lvgl\src\extra\widgets\calendar/lv_calendar_header_arrow.c **** /**********************
  33:..\..\..\arduinoLCD\test\Pain Drain\libraries\lvgl\src\extra\widgets\calendar/lv_calendar_header_arrow.c ****  *  STATIC VARIABLES
  34:..\..\..\arduinoLCD\test\Pain Drain\libraries\lvgl\src\extra\widgets\calendar/lv_calendar_header_arrow.c ****  **********************/
  35:..\..\..\arduinoLCD\test\Pain Drain\libraries\lvgl\src\extra\widgets\calendar/lv_calendar_header_arrow.c **** const lv_obj_class_t lv_calendar_header_arrow_class = {
  36:..\..\..\arduinoLCD\test\Pain Drain\libraries\lvgl\src\extra\widgets\calendar/lv_calendar_header_arrow.c ****     .base_class = &lv_obj_class,
  37:..\..\..\arduinoLCD\test\Pain Drain\libraries\lvgl\src\extra\widgets\calendar/lv_calendar_header_arrow.c ****     .constructor_cb = my_constructor,
  38:..\..\..\arduinoLCD\test\Pain Drain\libraries\lvgl\src\extra\widgets\calendar/lv_calendar_header_arrow.c ****     .width_def = LV_PCT(100),
  39:..\..\..\arduinoLCD\test\Pain Drain\libraries\lvgl\src\extra\widgets\calendar/lv_calendar_header_arrow.c ****     .height_def = LV_DPI_DEF / 3
  40:..\..\..\arduinoLCD\test\Pain Drain\libraries\lvgl\src\extra\widgets\calendar/lv_calendar_header_arrow.c **** };
  41:..\..\..\arduinoLCD\test\Pain Drain\libraries\lvgl\src\extra\widgets\calendar/lv_calendar_header_arrow.c **** 
  42:..\..\..\arduinoLCD\test\Pain Drain\libraries\lvgl\src\extra\widgets\calendar/lv_calendar_header_arrow.c **** static const char * month_names_def[12] = LV_CALENDAR_DEFAULT_MONTH_NAMES;
  43:..\..\..\arduinoLCD\test\Pain Drain\libraries\lvgl\src\extra\widgets\calendar/lv_calendar_header_arrow.c **** 
  44:..\..\..\arduinoLCD\test\Pain Drain\libraries\lvgl\src\extra\widgets\calendar/lv_calendar_header_arrow.c **** /**********************
  45:..\..\..\arduinoLCD\test\Pain Drain\libraries\lvgl\src\extra\widgets\calendar/lv_calendar_header_arrow.c ****  *      MACROS
  46:..\..\..\arduinoLCD\test\Pain Drain\libraries\lvgl\src\extra\widgets\calendar/lv_calendar_header_arrow.c ****  **********************/
  47:..\..\..\arduinoLCD\test\Pain Drain\libraries\lvgl\src\extra\widgets\calendar/lv_calendar_header_arrow.c **** 
  48:..\..\..\arduinoLCD\test\Pain Drain\libraries\lvgl\src\extra\widgets\calendar/lv_calendar_header_arrow.c **** /**********************
  49:..\..\..\arduinoLCD\test\Pain Drain\libraries\lvgl\src\extra\widgets\calendar/lv_calendar_header_arrow.c ****  *   GLOBAL FUNCTIONS
  50:..\..\..\arduinoLCD\test\Pain Drain\libraries\lvgl\src\extra\widgets\calendar/lv_calendar_header_arrow.c ****  **********************/
  51:..\..\..\arduinoLCD\test\Pain Drain\libraries\lvgl\src\extra\widgets\calendar/lv_calendar_header_arrow.c **** 
  52:..\..\..\arduinoLCD\test\Pain Drain\libraries\lvgl\src\extra\widgets\calendar/lv_calendar_header_arrow.c **** lv_obj_t * lv_calendar_header_arrow_create(lv_obj_t * parent)
  53:..\..\..\arduinoLCD\test\Pain Drain\libraries\lvgl\src\extra\widgets\calendar/lv_calendar_header_arrow.c **** {
  54:..\..\..\arduinoLCD\test\Pain Drain\libraries\lvgl\src\extra\widgets\calendar/lv_calendar_header_arrow.c ****     lv_obj_t * obj = lv_obj_class_create_obj(&lv_calendar_header_arrow_class, parent);
  55:..\..\..\arduinoLCD\test\Pain Drain\libraries\lvgl\src\extra\widgets\calendar/lv_calendar_header_arrow.c ****     lv_obj_class_init_obj(obj);
  56:..\..\..\arduinoLCD\test\Pain Drain\libraries\lvgl\src\extra\widgets\calendar/lv_calendar_header_arrow.c ****     return obj;
  57:..\..\..\arduinoLCD\test\Pain Drain\libraries\lvgl\src\extra\widgets\calendar/lv_calendar_header_arrow.c **** }
  58:..\..\..\arduinoLCD\test\Pain Drain\libraries\lvgl\src\extra\widgets\calendar/lv_calendar_header_arrow.c **** 
  59:..\..\..\arduinoLCD\test\Pain Drain\libraries\lvgl\src\extra\widgets\calendar/lv_calendar_header_arrow.c **** /**********************
  60:..\..\..\arduinoLCD\test\Pain Drain\libraries\lvgl\src\extra\widgets\calendar/lv_calendar_header_arrow.c ****  *  STATIC FUNCTIONS
  61:..\..\..\arduinoLCD\test\Pain Drain\libraries\lvgl\src\extra\widgets\calendar/lv_calendar_header_arrow.c ****  **********************/
  62:..\..\..\arduinoLCD\test\Pain Drain\libraries\lvgl\src\extra\widgets\calendar/lv_calendar_header_arrow.c **** 
  63:..\..\..\arduinoLCD\test\Pain Drain\libraries\lvgl\src\extra\widgets\calendar/lv_calendar_header_arrow.c **** static void my_constructor(const lv_obj_class_t * class_p, lv_obj_t * obj)
  64:..\..\..\arduinoLCD\test\Pain Drain\libraries\lvgl\src\extra\widgets\calendar/lv_calendar_header_arrow.c **** {
  27              		.loc 1 64 0
  28              		.cfi_startproc
  29              		@ args = 0, pretend = 0, frame = 0
  30              		@ frame_needed = 0, uses_anonymous_args = 0
  31              	.LVL0:
  32 0000 F8B5     		push	{r3, r4, r5, r6, r7, lr}
  33              		.cfi_def_cfa_offset 24
  34              		.cfi_offset 3, -24
  35              		.cfi_offset 4, -20
  36              		.cfi_offset 5, -16
  37              		.cfi_offset 6, -12
  38              		.cfi_offset 7, -8
  39              		.cfi_offset 14, -4
  40 0002 0C00     		movs	r4, r1
  65:..\..\..\arduinoLCD\test\Pain Drain\libraries\lvgl\src\extra\widgets\calendar/lv_calendar_header_arrow.c ****     LV_TRACE_OBJ_CREATE("begin");
  66:..\..\..\arduinoLCD\test\Pain Drain\libraries\lvgl\src\extra\widgets\calendar/lv_calendar_header_arrow.c **** 
  67:..\..\..\arduinoLCD\test\Pain Drain\libraries\lvgl\src\extra\widgets\calendar/lv_calendar_header_arrow.c ****     LV_UNUSED(class_p);
  68:..\..\..\arduinoLCD\test\Pain Drain\libraries\lvgl\src\extra\widgets\calendar/lv_calendar_header_arrow.c **** 
  69:..\..\..\arduinoLCD\test\Pain Drain\libraries\lvgl\src\extra\widgets\calendar/lv_calendar_header_arrow.c ****     lv_obj_move_to_index(obj, 0);
  41              		.loc 1 69 0
  42 0004 0021     		movs	r1, #0
  43              	.LVL1:
  44 0006 2000     		movs	r0, r4
  45              	.LVL2:
ARM GAS  C:\Users\haske\AppData\Local\Temp\cc37heYm.s 			page 3


  46 0008 FFF7FEFF 		bl	lv_obj_move_to_index
  47              	.LVL3:
  70:..\..\..\arduinoLCD\test\Pain Drain\libraries\lvgl\src\extra\widgets\calendar/lv_calendar_header_arrow.c **** 
  71:..\..\..\arduinoLCD\test\Pain Drain\libraries\lvgl\src\extra\widgets\calendar/lv_calendar_header_arrow.c ****     lv_obj_set_flex_flow(obj, LV_FLEX_FLOW_ROW);
  48              		.loc 1 71 0
  49 000c 0021     		movs	r1, #0
  50 000e 2000     		movs	r0, r4
  51 0010 FFF7FEFF 		bl	lv_obj_set_flex_flow
  52              	.LVL4:
  72:..\..\..\arduinoLCD\test\Pain Drain\libraries\lvgl\src\extra\widgets\calendar/lv_calendar_header_arrow.c ****     lv_obj_set_flex_align(obj, LV_FLEX_ALIGN_START, LV_FLEX_ALIGN_CENTER, LV_FLEX_ALIGN_START);
  53              		.loc 1 72 0
  54 0014 0023     		movs	r3, #0
  55 0016 0222     		movs	r2, #2
  56 0018 0021     		movs	r1, #0
  57 001a 2000     		movs	r0, r4
  58 001c FFF7FEFF 		bl	lv_obj_set_flex_align
  59              	.LVL5:
  73:..\..\..\arduinoLCD\test\Pain Drain\libraries\lvgl\src\extra\widgets\calendar/lv_calendar_header_arrow.c **** 
  74:..\..\..\arduinoLCD\test\Pain Drain\libraries\lvgl\src\extra\widgets\calendar/lv_calendar_header_arrow.c ****     lv_obj_t * mo_prev = lv_btn_create(obj);
  60              		.loc 1 74 0
  61 0020 2000     		movs	r0, r4
  62 0022 FFF7FEFF 		bl	lv_btn_create
  63              	.LVL6:
  64 0026 0500     		movs	r5, r0
  65              	.LVL7:
  75:..\..\..\arduinoLCD\test\Pain Drain\libraries\lvgl\src\extra\widgets\calendar/lv_calendar_header_arrow.c ****     lv_obj_set_style_bg_img_src(mo_prev, LV_SYMBOL_LEFT, 0);
  66              		.loc 1 75 0
  67 0028 0022     		movs	r2, #0
  68 002a 2849     		ldr	r1, .L2
  69 002c FFF7FEFF 		bl	lv_obj_set_style_bg_img_src
  70              	.LVL8:
  76:..\..\..\arduinoLCD\test\Pain Drain\libraries\lvgl\src\extra\widgets\calendar/lv_calendar_header_arrow.c ****     lv_obj_set_height(mo_prev, lv_pct(100));
  71              		.loc 1 76 0
  72 0030 2749     		ldr	r1, .L2+4
  73 0032 2800     		movs	r0, r5
  74 0034 FFF7FEFF 		bl	lv_obj_set_height
  75              	.LVL9:
  77:..\..\..\arduinoLCD\test\Pain Drain\libraries\lvgl\src\extra\widgets\calendar/lv_calendar_header_arrow.c ****     lv_obj_update_layout(mo_prev);
  76              		.loc 1 77 0
  77 0038 2800     		movs	r0, r5
  78 003a FFF7FEFF 		bl	lv_obj_update_layout
  79              	.LVL10:
  78:..\..\..\arduinoLCD\test\Pain Drain\libraries\lvgl\src\extra\widgets\calendar/lv_calendar_header_arrow.c ****     lv_coord_t btn_size = lv_obj_get_height(mo_prev);
  80              		.loc 1 78 0
  81 003e 2800     		movs	r0, r5
  82 0040 FFF7FEFF 		bl	lv_obj_get_height
  83              	.LVL11:
  84 0044 0600     		movs	r6, r0
  85              	.LVL12:
  79:..\..\..\arduinoLCD\test\Pain Drain\libraries\lvgl\src\extra\widgets\calendar/lv_calendar_header_arrow.c ****     lv_obj_set_width(mo_prev, btn_size);
  86              		.loc 1 79 0
  87 0046 0100     		movs	r1, r0
  88 0048 2800     		movs	r0, r5
  89              	.LVL13:
  90 004a FFF7FEFF 		bl	lv_obj_set_width
  91              	.LVL14:
  80:..\..\..\arduinoLCD\test\Pain Drain\libraries\lvgl\src\extra\widgets\calendar/lv_calendar_header_arrow.c **** 
ARM GAS  C:\Users\haske\AppData\Local\Temp\cc37heYm.s 			page 4


  81:..\..\..\arduinoLCD\test\Pain Drain\libraries\lvgl\src\extra\widgets\calendar/lv_calendar_header_arrow.c ****     lv_obj_add_event_cb(mo_prev, month_event_cb, LV_EVENT_CLICKED, NULL);
  92              		.loc 1 81 0
  93 004e 214F     		ldr	r7, .L2+8
  94 0050 0023     		movs	r3, #0
  95 0052 0722     		movs	r2, #7
  96 0054 3900     		movs	r1, r7
  97 0056 2800     		movs	r0, r5
  98 0058 FFF7FEFF 		bl	lv_obj_add_event_cb
  99              	.LVL15:
  82:..\..\..\arduinoLCD\test\Pain Drain\libraries\lvgl\src\extra\widgets\calendar/lv_calendar_header_arrow.c ****     lv_obj_clear_flag(mo_prev, LV_OBJ_FLAG_CLICK_FOCUSABLE);
 100              		.loc 1 82 0
 101 005c 0421     		movs	r1, #4
 102 005e 2800     		movs	r0, r5
 103 0060 FFF7FEFF 		bl	lv_obj_clear_flag
 104              	.LVL16:
  83:..\..\..\arduinoLCD\test\Pain Drain\libraries\lvgl\src\extra\widgets\calendar/lv_calendar_header_arrow.c **** 
  84:..\..\..\arduinoLCD\test\Pain Drain\libraries\lvgl\src\extra\widgets\calendar/lv_calendar_header_arrow.c ****     lv_obj_t * label = lv_label_create(obj);
 105              		.loc 1 84 0
 106 0064 2000     		movs	r0, r4
 107 0066 FFF7FEFF 		bl	lv_label_create
 108              	.LVL17:
 109 006a 0500     		movs	r5, r0
 110              	.LVL18:
  85:..\..\..\arduinoLCD\test\Pain Drain\libraries\lvgl\src\extra\widgets\calendar/lv_calendar_header_arrow.c ****     lv_label_set_long_mode(label, LV_LABEL_LONG_SCROLL_CIRCULAR);
 111              		.loc 1 85 0
 112 006c 0321     		movs	r1, #3
 113 006e FFF7FEFF 		bl	lv_label_set_long_mode
 114              	.LVL19:
  86:..\..\..\arduinoLCD\test\Pain Drain\libraries\lvgl\src\extra\widgets\calendar/lv_calendar_header_arrow.c ****     lv_obj_set_style_text_align(label, LV_TEXT_ALIGN_CENTER, 0);
 115              		.loc 1 86 0
 116 0072 0022     		movs	r2, #0
 117 0074 0221     		movs	r1, #2
 118 0076 2800     		movs	r0, r5
 119 0078 FFF7FEFF 		bl	lv_obj_set_style_text_align
 120              	.LVL20:
  87:..\..\..\arduinoLCD\test\Pain Drain\libraries\lvgl\src\extra\widgets\calendar/lv_calendar_header_arrow.c ****     lv_obj_set_flex_grow(label, 1);
 121              		.loc 1 87 0
 122 007c 0121     		movs	r1, #1
 123 007e 2800     		movs	r0, r5
 124 0080 FFF7FEFF 		bl	lv_obj_set_flex_grow
 125              	.LVL21:
  88:..\..\..\arduinoLCD\test\Pain Drain\libraries\lvgl\src\extra\widgets\calendar/lv_calendar_header_arrow.c **** 
  89:..\..\..\arduinoLCD\test\Pain Drain\libraries\lvgl\src\extra\widgets\calendar/lv_calendar_header_arrow.c ****     lv_obj_t * mo_next = lv_btn_create(obj);
 126              		.loc 1 89 0
 127 0084 2000     		movs	r0, r4
 128 0086 FFF7FEFF 		bl	lv_btn_create
 129              	.LVL22:
 130 008a 0500     		movs	r5, r0
 131              	.LVL23:
  90:..\..\..\arduinoLCD\test\Pain Drain\libraries\lvgl\src\extra\widgets\calendar/lv_calendar_header_arrow.c ****     lv_obj_set_style_bg_img_src(mo_next, LV_SYMBOL_RIGHT, 0);
 132              		.loc 1 90 0
 133 008c 0022     		movs	r2, #0
 134 008e 1249     		ldr	r1, .L2+12
 135 0090 FFF7FEFF 		bl	lv_obj_set_style_bg_img_src
 136              	.LVL24:
  91:..\..\..\arduinoLCD\test\Pain Drain\libraries\lvgl\src\extra\widgets\calendar/lv_calendar_header_arrow.c ****     lv_obj_set_size(mo_next, btn_size, btn_size);
 137              		.loc 1 91 0
ARM GAS  C:\Users\haske\AppData\Local\Temp\cc37heYm.s 			page 5


 138 0094 3200     		movs	r2, r6
 139 0096 3100     		movs	r1, r6
 140 0098 2800     		movs	r0, r5
 141 009a FFF7FEFF 		bl	lv_obj_set_size
 142              	.LVL25:
  92:..\..\..\arduinoLCD\test\Pain Drain\libraries\lvgl\src\extra\widgets\calendar/lv_calendar_header_arrow.c **** 
  93:..\..\..\arduinoLCD\test\Pain Drain\libraries\lvgl\src\extra\widgets\calendar/lv_calendar_header_arrow.c ****     lv_obj_add_event_cb(mo_next, month_event_cb, LV_EVENT_CLICKED, NULL);
 143              		.loc 1 93 0
 144 009e 0023     		movs	r3, #0
 145 00a0 0722     		movs	r2, #7
 146 00a2 3900     		movs	r1, r7
 147 00a4 2800     		movs	r0, r5
 148 00a6 FFF7FEFF 		bl	lv_obj_add_event_cb
 149              	.LVL26:
  94:..\..\..\arduinoLCD\test\Pain Drain\libraries\lvgl\src\extra\widgets\calendar/lv_calendar_header_arrow.c ****     lv_obj_clear_flag(mo_next, LV_OBJ_FLAG_CLICK_FOCUSABLE);
 150              		.loc 1 94 0
 151 00aa 0421     		movs	r1, #4
 152 00ac 2800     		movs	r0, r5
 153 00ae FFF7FEFF 		bl	lv_obj_clear_flag
 154              	.LVL27:
  95:..\..\..\arduinoLCD\test\Pain Drain\libraries\lvgl\src\extra\widgets\calendar/lv_calendar_header_arrow.c **** 
  96:..\..\..\arduinoLCD\test\Pain Drain\libraries\lvgl\src\extra\widgets\calendar/lv_calendar_header_arrow.c ****     lv_obj_add_event_cb(obj, value_changed_event_cb, LV_EVENT_VALUE_CHANGED, NULL);
 155              		.loc 1 96 0
 156 00b2 0023     		movs	r3, #0
 157 00b4 1C22     		movs	r2, #28
 158 00b6 0949     		ldr	r1, .L2+16
 159 00b8 2000     		movs	r0, r4
 160 00ba FFF7FEFF 		bl	lv_obj_add_event_cb
 161              	.LVL28:
  97:..\..\..\arduinoLCD\test\Pain Drain\libraries\lvgl\src\extra\widgets\calendar/lv_calendar_header_arrow.c ****     /*Refresh the drop downs*/
  98:..\..\..\arduinoLCD\test\Pain Drain\libraries\lvgl\src\extra\widgets\calendar/lv_calendar_header_arrow.c ****     lv_event_send(obj, LV_EVENT_VALUE_CHANGED, NULL);
 162              		.loc 1 98 0
 163 00be 0022     		movs	r2, #0
 164 00c0 1C21     		movs	r1, #28
 165 00c2 2000     		movs	r0, r4
 166 00c4 FFF7FEFF 		bl	lv_event_send
 167              	.LVL29:
  99:..\..\..\arduinoLCD\test\Pain Drain\libraries\lvgl\src\extra\widgets\calendar/lv_calendar_header_arrow.c **** }
 168              		.loc 1 99 0
 169              		@ sp needed
 170              	.LVL30:
 171              	.LVL31:
 172 00c8 F8BD     		pop	{r3, r4, r5, r6, r7, pc}
 173              	.L3:
 174 00ca C046     		.align	2
 175              	.L2:
 176 00cc 00000000 		.word	.LC0
 177 00d0 64200000 		.word	8292
 178 00d4 00000000 		.word	month_event_cb
 179 00d8 04000000 		.word	.LC3
 180 00dc 00000000 		.word	value_changed_event_cb
 181              		.cfi_endproc
 182              	.LFE165:
 183              		.size	my_constructor, .-my_constructor
 184              		.section	.text.value_changed_event_cb,"ax",%progbits
 185              		.align	2
 186              		.code	16
ARM GAS  C:\Users\haske\AppData\Local\Temp\cc37heYm.s 			page 6


 187              		.thumb_func
 188              		.type	value_changed_event_cb, %function
 189              	value_changed_event_cb:
 190              	.LFB167:
 100:..\..\..\arduinoLCD\test\Pain Drain\libraries\lvgl\src\extra\widgets\calendar/lv_calendar_header_arrow.c **** 
 101:..\..\..\arduinoLCD\test\Pain Drain\libraries\lvgl\src\extra\widgets\calendar/lv_calendar_header_arrow.c **** static void month_event_cb(lv_event_t * e)
 102:..\..\..\arduinoLCD\test\Pain Drain\libraries\lvgl\src\extra\widgets\calendar/lv_calendar_header_arrow.c **** {
 103:..\..\..\arduinoLCD\test\Pain Drain\libraries\lvgl\src\extra\widgets\calendar/lv_calendar_header_arrow.c ****     lv_obj_t * btn = lv_event_get_target(e);
 104:..\..\..\arduinoLCD\test\Pain Drain\libraries\lvgl\src\extra\widgets\calendar/lv_calendar_header_arrow.c **** 
 105:..\..\..\arduinoLCD\test\Pain Drain\libraries\lvgl\src\extra\widgets\calendar/lv_calendar_header_arrow.c ****     lv_obj_t * header = lv_obj_get_parent(btn);
 106:..\..\..\arduinoLCD\test\Pain Drain\libraries\lvgl\src\extra\widgets\calendar/lv_calendar_header_arrow.c ****     lv_obj_t * calendar = lv_obj_get_parent(header);
 107:..\..\..\arduinoLCD\test\Pain Drain\libraries\lvgl\src\extra\widgets\calendar/lv_calendar_header_arrow.c **** 
 108:..\..\..\arduinoLCD\test\Pain Drain\libraries\lvgl\src\extra\widgets\calendar/lv_calendar_header_arrow.c ****     const lv_calendar_date_t * d;
 109:..\..\..\arduinoLCD\test\Pain Drain\libraries\lvgl\src\extra\widgets\calendar/lv_calendar_header_arrow.c ****     d = lv_calendar_get_showed_date(calendar);
 110:..\..\..\arduinoLCD\test\Pain Drain\libraries\lvgl\src\extra\widgets\calendar/lv_calendar_header_arrow.c ****     lv_calendar_date_t newd = *d;
 111:..\..\..\arduinoLCD\test\Pain Drain\libraries\lvgl\src\extra\widgets\calendar/lv_calendar_header_arrow.c **** 
 112:..\..\..\arduinoLCD\test\Pain Drain\libraries\lvgl\src\extra\widgets\calendar/lv_calendar_header_arrow.c ****     /*The last child is the right button*/
 113:..\..\..\arduinoLCD\test\Pain Drain\libraries\lvgl\src\extra\widgets\calendar/lv_calendar_header_arrow.c ****     if(lv_obj_get_child(header, 0) == btn) {
 114:..\..\..\arduinoLCD\test\Pain Drain\libraries\lvgl\src\extra\widgets\calendar/lv_calendar_header_arrow.c ****         if(newd.month == 1) {
 115:..\..\..\arduinoLCD\test\Pain Drain\libraries\lvgl\src\extra\widgets\calendar/lv_calendar_header_arrow.c ****             newd.month = 12;
 116:..\..\..\arduinoLCD\test\Pain Drain\libraries\lvgl\src\extra\widgets\calendar/lv_calendar_header_arrow.c ****             newd.year --;
 117:..\..\..\arduinoLCD\test\Pain Drain\libraries\lvgl\src\extra\widgets\calendar/lv_calendar_header_arrow.c ****         }
 118:..\..\..\arduinoLCD\test\Pain Drain\libraries\lvgl\src\extra\widgets\calendar/lv_calendar_header_arrow.c ****         else {
 119:..\..\..\arduinoLCD\test\Pain Drain\libraries\lvgl\src\extra\widgets\calendar/lv_calendar_header_arrow.c ****             newd.month --;
 120:..\..\..\arduinoLCD\test\Pain Drain\libraries\lvgl\src\extra\widgets\calendar/lv_calendar_header_arrow.c ****         }
 121:..\..\..\arduinoLCD\test\Pain Drain\libraries\lvgl\src\extra\widgets\calendar/lv_calendar_header_arrow.c ****     }
 122:..\..\..\arduinoLCD\test\Pain Drain\libraries\lvgl\src\extra\widgets\calendar/lv_calendar_header_arrow.c ****     else {
 123:..\..\..\arduinoLCD\test\Pain Drain\libraries\lvgl\src\extra\widgets\calendar/lv_calendar_header_arrow.c ****         if(newd.month == 12) {
 124:..\..\..\arduinoLCD\test\Pain Drain\libraries\lvgl\src\extra\widgets\calendar/lv_calendar_header_arrow.c ****             newd.month = 1;
 125:..\..\..\arduinoLCD\test\Pain Drain\libraries\lvgl\src\extra\widgets\calendar/lv_calendar_header_arrow.c ****             newd.year ++;
 126:..\..\..\arduinoLCD\test\Pain Drain\libraries\lvgl\src\extra\widgets\calendar/lv_calendar_header_arrow.c ****         }
 127:..\..\..\arduinoLCD\test\Pain Drain\libraries\lvgl\src\extra\widgets\calendar/lv_calendar_header_arrow.c ****         else {
 128:..\..\..\arduinoLCD\test\Pain Drain\libraries\lvgl\src\extra\widgets\calendar/lv_calendar_header_arrow.c ****             newd.month ++;
 129:..\..\..\arduinoLCD\test\Pain Drain\libraries\lvgl\src\extra\widgets\calendar/lv_calendar_header_arrow.c ****         }
 130:..\..\..\arduinoLCD\test\Pain Drain\libraries\lvgl\src\extra\widgets\calendar/lv_calendar_header_arrow.c ****     }
 131:..\..\..\arduinoLCD\test\Pain Drain\libraries\lvgl\src\extra\widgets\calendar/lv_calendar_header_arrow.c **** 
 132:..\..\..\arduinoLCD\test\Pain Drain\libraries\lvgl\src\extra\widgets\calendar/lv_calendar_header_arrow.c ****     lv_calendar_set_showed_date(calendar, newd.year, newd.month);
 133:..\..\..\arduinoLCD\test\Pain Drain\libraries\lvgl\src\extra\widgets\calendar/lv_calendar_header_arrow.c **** 
 134:..\..\..\arduinoLCD\test\Pain Drain\libraries\lvgl\src\extra\widgets\calendar/lv_calendar_header_arrow.c ****     lv_obj_t * label = lv_obj_get_child(header, 1);
 135:..\..\..\arduinoLCD\test\Pain Drain\libraries\lvgl\src\extra\widgets\calendar/lv_calendar_header_arrow.c ****     lv_label_set_text_fmt(label, "%d %s", newd.year, month_names_def[newd.month - 1]);
 136:..\..\..\arduinoLCD\test\Pain Drain\libraries\lvgl\src\extra\widgets\calendar/lv_calendar_header_arrow.c **** }
 137:..\..\..\arduinoLCD\test\Pain Drain\libraries\lvgl\src\extra\widgets\calendar/lv_calendar_header_arrow.c **** 
 138:..\..\..\arduinoLCD\test\Pain Drain\libraries\lvgl\src\extra\widgets\calendar/lv_calendar_header_arrow.c **** static void value_changed_event_cb(lv_event_t * e)
 139:..\..\..\arduinoLCD\test\Pain Drain\libraries\lvgl\src\extra\widgets\calendar/lv_calendar_header_arrow.c **** {
 191              		.loc 1 139 0
 192              		.cfi_startproc
 193              		@ args = 0, pretend = 0, frame = 0
 194              		@ frame_needed = 0, uses_anonymous_args = 0
 195              	.LVL32:
 196 0000 70B5     		push	{r4, r5, r6, lr}
 197              		.cfi_def_cfa_offset 16
 198              		.cfi_offset 4, -16
 199              		.cfi_offset 5, -12
 200              		.cfi_offset 6, -8
 201              		.cfi_offset 14, -4
 140:..\..\..\arduinoLCD\test\Pain Drain\libraries\lvgl\src\extra\widgets\calendar/lv_calendar_header_arrow.c ****     lv_obj_t * header = lv_event_get_target(e);
 202              		.loc 1 140 0
ARM GAS  C:\Users\haske\AppData\Local\Temp\cc37heYm.s 			page 7


 203 0002 FFF7FEFF 		bl	lv_event_get_target
 204              	.LVL33:
 205 0006 0500     		movs	r5, r0
 206              	.LVL34:
 141:..\..\..\arduinoLCD\test\Pain Drain\libraries\lvgl\src\extra\widgets\calendar/lv_calendar_header_arrow.c ****     lv_obj_t * calendar = lv_obj_get_parent(header);
 207              		.loc 1 141 0
 208 0008 FFF7FEFF 		bl	lv_obj_get_parent
 209              	.LVL35:
 142:..\..\..\arduinoLCD\test\Pain Drain\libraries\lvgl\src\extra\widgets\calendar/lv_calendar_header_arrow.c **** 
 143:..\..\..\arduinoLCD\test\Pain Drain\libraries\lvgl\src\extra\widgets\calendar/lv_calendar_header_arrow.c ****     const lv_calendar_date_t * cur_date = lv_calendar_get_showed_date(calendar);
 210              		.loc 1 143 0
 211 000c FFF7FEFF 		bl	lv_calendar_get_showed_date
 212              	.LVL36:
 213 0010 0400     		movs	r4, r0
 214              	.LVL37:
 144:..\..\..\arduinoLCD\test\Pain Drain\libraries\lvgl\src\extra\widgets\calendar/lv_calendar_header_arrow.c ****     lv_obj_t * label = lv_obj_get_child(header, 1);
 215              		.loc 1 144 0
 216 0012 0121     		movs	r1, #1
 217 0014 2800     		movs	r0, r5
 218              	.LVL38:
 219 0016 FFF7FEFF 		bl	lv_obj_get_child
 220              	.LVL39:
 145:..\..\..\arduinoLCD\test\Pain Drain\libraries\lvgl\src\extra\widgets\calendar/lv_calendar_header_arrow.c ****     lv_label_set_text_fmt(label, "%d %s", cur_date->year, month_names_def[cur_date->month - 1]);
 221              		.loc 1 145 0
 222 001a 2288     		ldrh	r2, [r4]
 223 001c 0223     		movs	r3, #2
 224 001e E356     		ldrsb	r3, [r4, r3]
 225 0020 013B     		subs	r3, r3, #1
 226 0022 9B00     		lsls	r3, r3, #2
 227 0024 0249     		ldr	r1, .L5
 228 0026 5B58     		ldr	r3, [r3, r1]
 229 0028 0249     		ldr	r1, .L5+4
 230 002a FFF7FEFF 		bl	lv_label_set_text_fmt
 231              	.LVL40:
 146:..\..\..\arduinoLCD\test\Pain Drain\libraries\lvgl\src\extra\widgets\calendar/lv_calendar_header_arrow.c **** }
 232              		.loc 1 146 0
 233              		@ sp needed
 234              	.LVL41:
 235              	.LVL42:
 236 002e 70BD     		pop	{r4, r5, r6, pc}
 237              	.L6:
 238              		.align	2
 239              	.L5:
 240 0030 00000000 		.word	.LANCHOR0
 241 0034 08000000 		.word	.LC7
 242              		.cfi_endproc
 243              	.LFE167:
 244              		.size	value_changed_event_cb, .-value_changed_event_cb
 245              		.section	.text.month_event_cb,"ax",%progbits
 246              		.align	2
 247              		.code	16
 248              		.thumb_func
 249              		.type	month_event_cb, %function
 250              	month_event_cb:
 251              	.LFB166:
 102:..\..\..\arduinoLCD\test\Pain Drain\libraries\lvgl\src\extra\widgets\calendar/lv_calendar_header_arrow.c ****     lv_obj_t * btn = lv_event_get_target(e);
 252              		.loc 1 102 0
ARM GAS  C:\Users\haske\AppData\Local\Temp\cc37heYm.s 			page 8


 253              		.cfi_startproc
 254              		@ args = 0, pretend = 0, frame = 8
 255              		@ frame_needed = 0, uses_anonymous_args = 0
 256              	.LVL43:
 257 0000 F0B5     		push	{r4, r5, r6, r7, lr}
 258              		.cfi_def_cfa_offset 20
 259              		.cfi_offset 4, -20
 260              		.cfi_offset 5, -16
 261              		.cfi_offset 6, -12
 262              		.cfi_offset 7, -8
 263              		.cfi_offset 14, -4
 264 0002 83B0     		sub	sp, sp, #12
 265              		.cfi_def_cfa_offset 32
 103:..\..\..\arduinoLCD\test\Pain Drain\libraries\lvgl\src\extra\widgets\calendar/lv_calendar_header_arrow.c **** 
 266              		.loc 1 103 0
 267 0004 FFF7FEFF 		bl	lv_event_get_target
 268              	.LVL44:
 269 0008 0400     		movs	r4, r0
 270              	.LVL45:
 105:..\..\..\arduinoLCD\test\Pain Drain\libraries\lvgl\src\extra\widgets\calendar/lv_calendar_header_arrow.c ****     lv_obj_t * calendar = lv_obj_get_parent(header);
 271              		.loc 1 105 0
 272 000a FFF7FEFF 		bl	lv_obj_get_parent
 273              	.LVL46:
 274 000e 0600     		movs	r6, r0
 275              	.LVL47:
 106:..\..\..\arduinoLCD\test\Pain Drain\libraries\lvgl\src\extra\widgets\calendar/lv_calendar_header_arrow.c **** 
 276              		.loc 1 106 0
 277 0010 FFF7FEFF 		bl	lv_obj_get_parent
 278              	.LVL48:
 279 0014 0700     		movs	r7, r0
 280              	.LVL49:
 109:..\..\..\arduinoLCD\test\Pain Drain\libraries\lvgl\src\extra\widgets\calendar/lv_calendar_header_arrow.c ****     lv_calendar_date_t newd = *d;
 281              		.loc 1 109 0
 282 0016 FFF7FEFF 		bl	lv_calendar_get_showed_date
 283              	.LVL50:
 284 001a 0100     		movs	r1, r0
 285              	.LVL51:
 110:..\..\..\arduinoLCD\test\Pain Drain\libraries\lvgl\src\extra\widgets\calendar/lv_calendar_header_arrow.c **** 
 286              		.loc 1 110 0
 287 001c 0422     		movs	r2, #4
 288 001e 01A8     		add	r0, sp, #4
 289              	.LVL52:
 290 0020 FFF7FEFF 		bl	memcpy
 291              	.LVL53:
 113:..\..\..\arduinoLCD\test\Pain Drain\libraries\lvgl\src\extra\widgets\calendar/lv_calendar_header_arrow.c ****         if(newd.month == 1) {
 292              		.loc 1 113 0
 293 0024 0021     		movs	r1, #0
 294 0026 3000     		movs	r0, r6
 295 0028 FFF7FEFF 		bl	lv_obj_get_child
 296              	.LVL54:
 297 002c 8442     		cmp	r4, r0
 298 002e 0FD1     		bne	.L8
 114:..\..\..\arduinoLCD\test\Pain Drain\libraries\lvgl\src\extra\widgets\calendar/lv_calendar_header_arrow.c ****             newd.month = 12;
 299              		.loc 1 114 0
 300 0030 01AB     		add	r3, sp, #4
 301 0032 9B78     		ldrb	r3, [r3, #2]
 302 0034 5BB2     		sxtb	r3, r3
ARM GAS  C:\Users\haske\AppData\Local\Temp\cc37heYm.s 			page 9


 303 0036 012B     		cmp	r3, #1
 304 0038 06D1     		bne	.L9
 115:..\..\..\arduinoLCD\test\Pain Drain\libraries\lvgl\src\extra\widgets\calendar/lv_calendar_header_arrow.c ****             newd.year --;
 305              		.loc 1 115 0
 306 003a 01AB     		add	r3, sp, #4
 307 003c 0C22     		movs	r2, #12
 308 003e 9A70     		strb	r2, [r3, #2]
 116:..\..\..\arduinoLCD\test\Pain Drain\libraries\lvgl\src\extra\widgets\calendar/lv_calendar_header_arrow.c ****         }
 309              		.loc 1 116 0
 310 0040 1A88     		ldrh	r2, [r3]
 311 0042 013A     		subs	r2, r2, #1
 312 0044 1A80     		strh	r2, [r3]
 313 0046 12E0     		b	.L10
 314              	.L9:
 119:..\..\..\arduinoLCD\test\Pain Drain\libraries\lvgl\src\extra\widgets\calendar/lv_calendar_header_arrow.c ****         }
 315              		.loc 1 119 0
 316 0048 013B     		subs	r3, r3, #1
 317 004a 01AA     		add	r2, sp, #4
 318 004c 9370     		strb	r3, [r2, #2]
 319 004e 0EE0     		b	.L10
 320              	.L8:
 123:..\..\..\arduinoLCD\test\Pain Drain\libraries\lvgl\src\extra\widgets\calendar/lv_calendar_header_arrow.c ****             newd.month = 1;
 321              		.loc 1 123 0
 322 0050 01AB     		add	r3, sp, #4
 323 0052 9B78     		ldrb	r3, [r3, #2]
 324 0054 5BB2     		sxtb	r3, r3
 325 0056 0C2B     		cmp	r3, #12
 326 0058 06D1     		bne	.L11
 124:..\..\..\arduinoLCD\test\Pain Drain\libraries\lvgl\src\extra\widgets\calendar/lv_calendar_header_arrow.c ****             newd.year ++;
 327              		.loc 1 124 0
 328 005a 01AB     		add	r3, sp, #4
 329 005c 0122     		movs	r2, #1
 330 005e 9A70     		strb	r2, [r3, #2]
 125:..\..\..\arduinoLCD\test\Pain Drain\libraries\lvgl\src\extra\widgets\calendar/lv_calendar_header_arrow.c ****         }
 331              		.loc 1 125 0
 332 0060 1A88     		ldrh	r2, [r3]
 333 0062 0132     		adds	r2, r2, #1
 334 0064 1A80     		strh	r2, [r3]
 335 0066 02E0     		b	.L10
 336              	.L11:
 128:..\..\..\arduinoLCD\test\Pain Drain\libraries\lvgl\src\extra\widgets\calendar/lv_calendar_header_arrow.c ****         }
 337              		.loc 1 128 0
 338 0068 0133     		adds	r3, r3, #1
 339 006a 01AA     		add	r2, sp, #4
 340 006c 9370     		strb	r3, [r2, #2]
 341              	.L10:
 132:..\..\..\arduinoLCD\test\Pain Drain\libraries\lvgl\src\extra\widgets\calendar/lv_calendar_header_arrow.c **** 
 342              		.loc 1 132 0
 343 006e 01AB     		add	r3, sp, #4
 344 0070 1D88     		ldrh	r5, [r3]
 345 0072 0224     		movs	r4, #2
 346              	.LVL55:
 347 0074 1C57     		ldrsb	r4, [r3, r4]
 348 0076 2200     		movs	r2, r4
 349 0078 2900     		movs	r1, r5
 350 007a 3800     		movs	r0, r7
 351 007c FFF7FEFF 		bl	lv_calendar_set_showed_date
ARM GAS  C:\Users\haske\AppData\Local\Temp\cc37heYm.s 			page 10


 352              	.LVL56:
 134:..\..\..\arduinoLCD\test\Pain Drain\libraries\lvgl\src\extra\widgets\calendar/lv_calendar_header_arrow.c ****     lv_label_set_text_fmt(label, "%d %s", newd.year, month_names_def[newd.month - 1]);
 353              		.loc 1 134 0
 354 0080 0121     		movs	r1, #1
 355 0082 3000     		movs	r0, r6
 356 0084 FFF7FEFF 		bl	lv_obj_get_child
 357              	.LVL57:
 135:..\..\..\arduinoLCD\test\Pain Drain\libraries\lvgl\src\extra\widgets\calendar/lv_calendar_header_arrow.c **** }
 358              		.loc 1 135 0
 359 0088 013C     		subs	r4, r4, #1
 360 008a A400     		lsls	r4, r4, #2
 361 008c 034B     		ldr	r3, .L12
 362 008e E358     		ldr	r3, [r4, r3]
 363 0090 2A00     		movs	r2, r5
 364 0092 0349     		ldr	r1, .L12+4
 365 0094 FFF7FEFF 		bl	lv_label_set_text_fmt
 366              	.LVL58:
 136:..\..\..\arduinoLCD\test\Pain Drain\libraries\lvgl\src\extra\widgets\calendar/lv_calendar_header_arrow.c **** 
 367              		.loc 1 136 0
 368 0098 03B0     		add	sp, sp, #12
 369              		@ sp needed
 370              	.LVL59:
 371              	.LVL60:
 372 009a F0BD     		pop	{r4, r5, r6, r7, pc}
 373              	.L13:
 374              		.align	2
 375              	.L12:
 376 009c 00000000 		.word	.LANCHOR0
 377 00a0 08000000 		.word	.LC7
 378              		.cfi_endproc
 379              	.LFE166:
 380              		.size	month_event_cb, .-month_event_cb
 381              		.section	.text.lv_calendar_header_arrow_create,"ax",%progbits
 382              		.align	2
 383              		.global	lv_calendar_header_arrow_create
 384              		.code	16
 385              		.thumb_func
 386              		.type	lv_calendar_header_arrow_create, %function
 387              	lv_calendar_header_arrow_create:
 388              	.LFB164:
  53:..\..\..\arduinoLCD\test\Pain Drain\libraries\lvgl\src\extra\widgets\calendar/lv_calendar_header_arrow.c ****     lv_obj_t * obj = lv_obj_class_create_obj(&lv_calendar_header_arrow_class, parent);
 389              		.loc 1 53 0
 390              		.cfi_startproc
 391              		@ args = 0, pretend = 0, frame = 0
 392              		@ frame_needed = 0, uses_anonymous_args = 0
 393              	.LVL61:
 394 0000 10B5     		push	{r4, lr}
 395              		.cfi_def_cfa_offset 8
 396              		.cfi_offset 4, -8
 397              		.cfi_offset 14, -4
 398 0002 0100     		movs	r1, r0
  54:..\..\..\arduinoLCD\test\Pain Drain\libraries\lvgl\src\extra\widgets\calendar/lv_calendar_header_arrow.c ****     lv_obj_class_init_obj(obj);
 399              		.loc 1 54 0
 400 0004 0448     		ldr	r0, .L15
 401              	.LVL62:
 402 0006 3030     		adds	r0, r0, #48
 403 0008 FFF7FEFF 		bl	lv_obj_class_create_obj
ARM GAS  C:\Users\haske\AppData\Local\Temp\cc37heYm.s 			page 11


 404              	.LVL63:
 405 000c 0400     		movs	r4, r0
 406              	.LVL64:
  55:..\..\..\arduinoLCD\test\Pain Drain\libraries\lvgl\src\extra\widgets\calendar/lv_calendar_header_arrow.c ****     return obj;
 407              		.loc 1 55 0
 408 000e FFF7FEFF 		bl	lv_obj_class_init_obj
 409              	.LVL65:
  57:..\..\..\arduinoLCD\test\Pain Drain\libraries\lvgl\src\extra\widgets\calendar/lv_calendar_header_arrow.c **** 
 410              		.loc 1 57 0
 411 0012 2000     		movs	r0, r4
 412              		@ sp needed
 413              	.LVL66:
 414 0014 10BD     		pop	{r4, pc}
 415              	.L16:
 416 0016 C046     		.align	2
 417              	.L15:
 418 0018 00000000 		.word	.LANCHOR0
 419              		.cfi_endproc
 420              	.LFE164:
 421              		.size	lv_calendar_header_arrow_create, .-lv_calendar_header_arrow_create
 422              		.global	lv_calendar_header_arrow_class
 423              		.section	.rodata
 424              		.align	2
 425              		.set	.LANCHOR0,. + 0
 426              		.type	month_names_def, %object
 427              		.size	month_names_def, 48
 428              	month_names_def:
 429 0000 10000000 		.word	.LC12
 430 0004 18000000 		.word	.LC13
 431 0008 24000000 		.word	.LC14
 432 000c 2C000000 		.word	.LC15
 433 0010 34000000 		.word	.LC16
 434 0014 38000000 		.word	.LC17
 435 0018 40000000 		.word	.LC18
 436 001c 48000000 		.word	.LC19
 437 0020 50000000 		.word	.LC20
 438 0024 5C000000 		.word	.LC21
 439 0028 64000000 		.word	.LC22
 440 002c 70000000 		.word	.LC23
 441              		.type	lv_calendar_header_arrow_class, %object
 442              		.size	lv_calendar_header_arrow_class, 28
 443              	lv_calendar_header_arrow_class:
 444 0030 00000000 		.word	lv_obj_class
 445 0034 00000000 		.word	my_constructor
 446 0038 00000000 		.space	12
 446      00000000 
 446      00000000 
 447 0044 6420     		.short	8292
 448 0046 2B00     		.short	43
 449 0048 00000000 		.space	4
 450              		.section	.rodata.str1.4,"aMS",%progbits,1
 451              		.align	2
 452              	.LC0:
 453 0000 EF819300 		.ascii	"\357\201\223\000"
 454              	.LC3:
 455 0004 EF819400 		.ascii	"\357\201\224\000"
 456              	.LC7:
ARM GAS  C:\Users\haske\AppData\Local\Temp\cc37heYm.s 			page 12


 457 0008 25642025 		.ascii	"%d %s\000"
 457      7300
 458 000e 0000     		.space	2
 459              	.LC12:
 460 0010 4A616E75 		.ascii	"January\000"
 460      61727900 
 461              	.LC13:
 462 0018 46656272 		.ascii	"February\000"
 462      75617279 
 462      00
 463 0021 000000   		.space	3
 464              	.LC14:
 465 0024 4D617263 		.ascii	"March\000"
 465      6800
 466 002a 0000     		.space	2
 467              	.LC15:
 468 002c 41707269 		.ascii	"April\000"
 468      6C00
 469 0032 0000     		.space	2
 470              	.LC16:
 471 0034 4D617900 		.ascii	"May\000"
 472              	.LC17:
 473 0038 4A756E65 		.ascii	"June\000"
 473      00
 474 003d 000000   		.space	3
 475              	.LC18:
 476 0040 4A756C79 		.ascii	"July\000"
 476      00
 477 0045 000000   		.space	3
 478              	.LC19:
 479 0048 41756775 		.ascii	"August\000"
 479      737400
 480 004f 00       		.space	1
 481              	.LC20:
 482 0050 53657074 		.ascii	"September\000"
 482      656D6265 
 482      7200
 483 005a 0000     		.space	2
 484              	.LC21:
 485 005c 4F63746F 		.ascii	"October\000"
 485      62657200 
 486              	.LC22:
 487 0064 4E6F7665 		.ascii	"November\000"
 487      6D626572 
 487      00
 488 006d 000000   		.space	3
 489              	.LC23:
 490 0070 44656365 		.ascii	"December\000"
 490      6D626572 
 490      00
 491              		.text
 492              	.Letext0:
 493              		.file 2 "c:\\program files (x86)\\cypress\\psoc creator\\4.4\\psoc creator\\import\\gnu\\arm\\5.4.
 494              		.file 3 "c:\\program files (x86)\\cypress\\psoc creator\\4.4\\psoc creator\\import\\gnu\\arm\\5.4.
 495              		.file 4 "c:\\projects\\paindrain\\arduinolcd\\test\\pain drain\\libraries\\lvgl\\src\\misc\\lv_are
 496              		.file 5 "c:\\projects\\paindrain\\arduinolcd\\test\\pain drain\\libraries\\lvgl\\src\\font\\lv_fon
 497              		.file 6 "c:\\projects\\paindrain\\arduinolcd\\test\\pain drain\\libraries\\lvgl\\src\\misc\\lv_col
ARM GAS  C:\Users\haske\AppData\Local\Temp\cc37heYm.s 			page 13


 498              		.file 7 "c:\\projects\\paindrain\\arduinolcd\\test\\pain drain\\libraries\\lvgl\\src\\misc\\lv_sty
 499              		.file 8 "c:\\projects\\paindrain\\arduinolcd\\test\\pain drain\\libraries\\lvgl\\src\\misc\\lv_txt
 500              		.file 9 "c:\\projects\\paindrain\\arduinolcd\\test\\pain drain\\libraries\\lvgl\\src\\core\\lv_obj
 501              		.file 10 "c:\\projects\\paindrain\\arduinolcd\\test\\pain drain\\libraries\\lvgl\\src\\misc\\lv_ll
 502              		.file 11 "c:\\projects\\paindrain\\arduinolcd\\test\\pain drain\\libraries\\lvgl\\src\\core\\lv_gr
 503              		.file 12 "c:\\projects\\paindrain\\arduinolcd\\test\\pain drain\\libraries\\lvgl\\src\\core\\lv_ob
 504              		.file 13 "c:\\projects\\paindrain\\arduinolcd\\test\\pain drain\\libraries\\lvgl\\src\\core\\lv_ob
 505              		.file 14 "c:\\projects\\paindrain\\arduinolcd\\test\\pain drain\\libraries\\lvgl\\src\\core\\lv_ob
 506              		.file 15 "c:\\projects\\paindrain\\arduinolcd\\test\\pain drain\\libraries\\lvgl\\src\\core\\lv_ev
 507              		.file 16 "..\\..\\..\\arduinoLCD\\test\\Pain Drain\\libraries\\lvgl\\src\\extra\\widgets\\calendar
 508              		.file 17 "c:\\projects\\paindrain\\arduinolcd\\test\\pain drain\\libraries\\lvgl\\src\\widgets\\lv
 509              		.file 18 "c:\\projects\\paindrain\\arduinolcd\\test\\pain drain\\libraries\\lvgl\\src\\extra\\layo
 510              		.file 19 "c:\\projects\\paindrain\\arduinolcd\\test\\pain drain\\libraries\\lvgl\\src\\core\\lv_ob
 511              		.file 20 "c:\\projects\\paindrain\\arduinolcd\\test\\pain drain\\libraries\\lvgl\\src\\widgets\\lv
 512              		.file 21 "c:\\projects\\paindrain\\arduinolcd\\test\\pain drain\\libraries\\lvgl\\src\\core\\lv_ob
 513              		.file 22 "c:\\projects\\paindrain\\arduinolcd\\test\\pain drain\\libraries\\lvgl\\src\\core\\lv_ob