ARM GAS  C:\Users\haske\AppData\Local\Temp\ccp1gvma.s 			page 1


   1              		.syntax unified
   2              		.cpu cortex-m0plus
   3              		.fpu softvfp
   4              		.eabi_attribute 20, 1
   5              		.eabi_attribute 21, 1
   6              		.eabi_attribute 23, 3
   7              		.eabi_attribute 24, 1
   8              		.eabi_attribute 25, 1
   9              		.eabi_attribute 26, 1
  10              		.eabi_attribute 30, 1
  11              		.eabi_attribute 34, 0
  12              		.eabi_attribute 18, 4
  13              		.thumb
  14              		.syntax unified
  15              		.file	"lv_calendar.c"
  16              		.text
  17              	.Ltext0:
  18              		.cfi_sections	.debug_frame
  19              		.global	__aeabi_uidivmod
  20              		.section	.text.is_leap_year,"ax",%progbits
  21              		.align	2
  22              		.code	16
  23              		.thumb_func
  24              		.type	is_leap_year, %function
  25              	is_leap_year:
  26              	.LFB216:
  27              		.file 1 "..\\..\\..\\arduinoLCD\\test\\Pain Drain\\libraries\\lvgl\\src\\extra\\widgets\\calendar\
   1:..\..\..\arduinoLCD\test\Pain Drain\libraries\lvgl\src\extra\widgets\calendar/lv_calendar.c **** /**
   2:..\..\..\arduinoLCD\test\Pain Drain\libraries\lvgl\src\extra\widgets\calendar/lv_calendar.c ****  * @file lv_calendar.c
   3:..\..\..\arduinoLCD\test\Pain Drain\libraries\lvgl\src\extra\widgets\calendar/lv_calendar.c ****  *
   4:..\..\..\arduinoLCD\test\Pain Drain\libraries\lvgl\src\extra\widgets\calendar/lv_calendar.c ****  */
   5:..\..\..\arduinoLCD\test\Pain Drain\libraries\lvgl\src\extra\widgets\calendar/lv_calendar.c **** 
   6:..\..\..\arduinoLCD\test\Pain Drain\libraries\lvgl\src\extra\widgets\calendar/lv_calendar.c **** /*********************
   7:..\..\..\arduinoLCD\test\Pain Drain\libraries\lvgl\src\extra\widgets\calendar/lv_calendar.c ****  *      INCLUDES
   8:..\..\..\arduinoLCD\test\Pain Drain\libraries\lvgl\src\extra\widgets\calendar/lv_calendar.c ****  *********************/
   9:..\..\..\arduinoLCD\test\Pain Drain\libraries\lvgl\src\extra\widgets\calendar/lv_calendar.c **** #include "lv_calendar.h"
  10:..\..\..\arduinoLCD\test\Pain Drain\libraries\lvgl\src\extra\widgets\calendar/lv_calendar.c **** #include "../../../lvgl.h"
  11:..\..\..\arduinoLCD\test\Pain Drain\libraries\lvgl\src\extra\widgets\calendar/lv_calendar.c **** #if LV_USE_CALENDAR
  12:..\..\..\arduinoLCD\test\Pain Drain\libraries\lvgl\src\extra\widgets\calendar/lv_calendar.c **** 
  13:..\..\..\arduinoLCD\test\Pain Drain\libraries\lvgl\src\extra\widgets\calendar/lv_calendar.c **** #include "../../../misc/lv_assert.h"
  14:..\..\..\arduinoLCD\test\Pain Drain\libraries\lvgl\src\extra\widgets\calendar/lv_calendar.c **** 
  15:..\..\..\arduinoLCD\test\Pain Drain\libraries\lvgl\src\extra\widgets\calendar/lv_calendar.c **** /*********************
  16:..\..\..\arduinoLCD\test\Pain Drain\libraries\lvgl\src\extra\widgets\calendar/lv_calendar.c ****  *      DEFINES
  17:..\..\..\arduinoLCD\test\Pain Drain\libraries\lvgl\src\extra\widgets\calendar/lv_calendar.c ****  *********************/
  18:..\..\..\arduinoLCD\test\Pain Drain\libraries\lvgl\src\extra\widgets\calendar/lv_calendar.c **** #define LV_CALENDAR_CTRL_TODAY      LV_BTNMATRIX_CTRL_CUSTOM_1
  19:..\..\..\arduinoLCD\test\Pain Drain\libraries\lvgl\src\extra\widgets\calendar/lv_calendar.c **** #define LV_CALENDAR_CTRL_HIGHLIGHT  LV_BTNMATRIX_CTRL_CUSTOM_2
  20:..\..\..\arduinoLCD\test\Pain Drain\libraries\lvgl\src\extra\widgets\calendar/lv_calendar.c **** 
  21:..\..\..\arduinoLCD\test\Pain Drain\libraries\lvgl\src\extra\widgets\calendar/lv_calendar.c **** #define MY_CLASS &lv_calendar_class
  22:..\..\..\arduinoLCD\test\Pain Drain\libraries\lvgl\src\extra\widgets\calendar/lv_calendar.c **** 
  23:..\..\..\arduinoLCD\test\Pain Drain\libraries\lvgl\src\extra\widgets\calendar/lv_calendar.c **** /**********************
  24:..\..\..\arduinoLCD\test\Pain Drain\libraries\lvgl\src\extra\widgets\calendar/lv_calendar.c ****  *      TYPEDEFS
  25:..\..\..\arduinoLCD\test\Pain Drain\libraries\lvgl\src\extra\widgets\calendar/lv_calendar.c ****  **********************/
  26:..\..\..\arduinoLCD\test\Pain Drain\libraries\lvgl\src\extra\widgets\calendar/lv_calendar.c **** 
  27:..\..\..\arduinoLCD\test\Pain Drain\libraries\lvgl\src\extra\widgets\calendar/lv_calendar.c **** /**********************
  28:..\..\..\arduinoLCD\test\Pain Drain\libraries\lvgl\src\extra\widgets\calendar/lv_calendar.c ****  *  STATIC PROTOTYPES
  29:..\..\..\arduinoLCD\test\Pain Drain\libraries\lvgl\src\extra\widgets\calendar/lv_calendar.c ****  **********************/
  30:..\..\..\arduinoLCD\test\Pain Drain\libraries\lvgl\src\extra\widgets\calendar/lv_calendar.c **** static void lv_calendar_constructor(const lv_obj_class_t * class_p, lv_obj_t * obj);
ARM GAS  C:\Users\haske\AppData\Local\Temp\ccp1gvma.s 			page 2


  31:..\..\..\arduinoLCD\test\Pain Drain\libraries\lvgl\src\extra\widgets\calendar/lv_calendar.c **** static void draw_part_begin_event_cb(lv_event_t * e);
  32:..\..\..\arduinoLCD\test\Pain Drain\libraries\lvgl\src\extra\widgets\calendar/lv_calendar.c **** 
  33:..\..\..\arduinoLCD\test\Pain Drain\libraries\lvgl\src\extra\widgets\calendar/lv_calendar.c **** static uint8_t get_day_of_week(uint32_t year, uint32_t month, uint32_t day);
  34:..\..\..\arduinoLCD\test\Pain Drain\libraries\lvgl\src\extra\widgets\calendar/lv_calendar.c **** static uint8_t get_month_length(int32_t year, int32_t month);
  35:..\..\..\arduinoLCD\test\Pain Drain\libraries\lvgl\src\extra\widgets\calendar/lv_calendar.c **** static uint8_t is_leap_year(uint32_t year);
  36:..\..\..\arduinoLCD\test\Pain Drain\libraries\lvgl\src\extra\widgets\calendar/lv_calendar.c **** static void highlight_update(lv_obj_t * calendar);
  37:..\..\..\arduinoLCD\test\Pain Drain\libraries\lvgl\src\extra\widgets\calendar/lv_calendar.c **** 
  38:..\..\..\arduinoLCD\test\Pain Drain\libraries\lvgl\src\extra\widgets\calendar/lv_calendar.c **** /**********************
  39:..\..\..\arduinoLCD\test\Pain Drain\libraries\lvgl\src\extra\widgets\calendar/lv_calendar.c ****  *  STATIC VARIABLES
  40:..\..\..\arduinoLCD\test\Pain Drain\libraries\lvgl\src\extra\widgets\calendar/lv_calendar.c ****  **********************/
  41:..\..\..\arduinoLCD\test\Pain Drain\libraries\lvgl\src\extra\widgets\calendar/lv_calendar.c **** const lv_obj_class_t lv_calendar_class = {
  42:..\..\..\arduinoLCD\test\Pain Drain\libraries\lvgl\src\extra\widgets\calendar/lv_calendar.c ****     .constructor_cb = lv_calendar_constructor,
  43:..\..\..\arduinoLCD\test\Pain Drain\libraries\lvgl\src\extra\widgets\calendar/lv_calendar.c ****     .width_def = (LV_DPI_DEF * 3) / 2,
  44:..\..\..\arduinoLCD\test\Pain Drain\libraries\lvgl\src\extra\widgets\calendar/lv_calendar.c ****     .height_def = (LV_DPI_DEF * 3) / 2,
  45:..\..\..\arduinoLCD\test\Pain Drain\libraries\lvgl\src\extra\widgets\calendar/lv_calendar.c ****     .group_def = LV_OBJ_CLASS_GROUP_DEF_TRUE,
  46:..\..\..\arduinoLCD\test\Pain Drain\libraries\lvgl\src\extra\widgets\calendar/lv_calendar.c ****     .instance_size = sizeof(lv_calendar_t),
  47:..\..\..\arduinoLCD\test\Pain Drain\libraries\lvgl\src\extra\widgets\calendar/lv_calendar.c ****     .base_class = &lv_obj_class
  48:..\..\..\arduinoLCD\test\Pain Drain\libraries\lvgl\src\extra\widgets\calendar/lv_calendar.c **** };
  49:..\..\..\arduinoLCD\test\Pain Drain\libraries\lvgl\src\extra\widgets\calendar/lv_calendar.c **** 
  50:..\..\..\arduinoLCD\test\Pain Drain\libraries\lvgl\src\extra\widgets\calendar/lv_calendar.c **** static const char * day_names_def[7] = LV_CALENDAR_DEFAULT_DAY_NAMES;
  51:..\..\..\arduinoLCD\test\Pain Drain\libraries\lvgl\src\extra\widgets\calendar/lv_calendar.c **** 
  52:..\..\..\arduinoLCD\test\Pain Drain\libraries\lvgl\src\extra\widgets\calendar/lv_calendar.c **** /**********************
  53:..\..\..\arduinoLCD\test\Pain Drain\libraries\lvgl\src\extra\widgets\calendar/lv_calendar.c ****  *      MACROS
  54:..\..\..\arduinoLCD\test\Pain Drain\libraries\lvgl\src\extra\widgets\calendar/lv_calendar.c ****  **********************/
  55:..\..\..\arduinoLCD\test\Pain Drain\libraries\lvgl\src\extra\widgets\calendar/lv_calendar.c **** 
  56:..\..\..\arduinoLCD\test\Pain Drain\libraries\lvgl\src\extra\widgets\calendar/lv_calendar.c **** /**********************
  57:..\..\..\arduinoLCD\test\Pain Drain\libraries\lvgl\src\extra\widgets\calendar/lv_calendar.c ****  *   GLOBAL FUNCTIONS
  58:..\..\..\arduinoLCD\test\Pain Drain\libraries\lvgl\src\extra\widgets\calendar/lv_calendar.c ****  **********************/
  59:..\..\..\arduinoLCD\test\Pain Drain\libraries\lvgl\src\extra\widgets\calendar/lv_calendar.c **** 
  60:..\..\..\arduinoLCD\test\Pain Drain\libraries\lvgl\src\extra\widgets\calendar/lv_calendar.c **** lv_obj_t * lv_calendar_create(lv_obj_t * parent)
  61:..\..\..\arduinoLCD\test\Pain Drain\libraries\lvgl\src\extra\widgets\calendar/lv_calendar.c **** {
  62:..\..\..\arduinoLCD\test\Pain Drain\libraries\lvgl\src\extra\widgets\calendar/lv_calendar.c ****     LV_LOG_INFO("begin");
  63:..\..\..\arduinoLCD\test\Pain Drain\libraries\lvgl\src\extra\widgets\calendar/lv_calendar.c ****     lv_obj_t * obj = lv_obj_class_create_obj(&lv_calendar_class, parent);
  64:..\..\..\arduinoLCD\test\Pain Drain\libraries\lvgl\src\extra\widgets\calendar/lv_calendar.c ****     lv_obj_class_init_obj(obj);
  65:..\..\..\arduinoLCD\test\Pain Drain\libraries\lvgl\src\extra\widgets\calendar/lv_calendar.c ****     return obj;
  66:..\..\..\arduinoLCD\test\Pain Drain\libraries\lvgl\src\extra\widgets\calendar/lv_calendar.c **** }
  67:..\..\..\arduinoLCD\test\Pain Drain\libraries\lvgl\src\extra\widgets\calendar/lv_calendar.c **** 
  68:..\..\..\arduinoLCD\test\Pain Drain\libraries\lvgl\src\extra\widgets\calendar/lv_calendar.c **** /*=====================
  69:..\..\..\arduinoLCD\test\Pain Drain\libraries\lvgl\src\extra\widgets\calendar/lv_calendar.c ****  * Setter functions
  70:..\..\..\arduinoLCD\test\Pain Drain\libraries\lvgl\src\extra\widgets\calendar/lv_calendar.c ****  *====================*/
  71:..\..\..\arduinoLCD\test\Pain Drain\libraries\lvgl\src\extra\widgets\calendar/lv_calendar.c **** 
  72:..\..\..\arduinoLCD\test\Pain Drain\libraries\lvgl\src\extra\widgets\calendar/lv_calendar.c **** void lv_calendar_set_day_names(lv_obj_t * obj, const char * day_names[])
  73:..\..\..\arduinoLCD\test\Pain Drain\libraries\lvgl\src\extra\widgets\calendar/lv_calendar.c **** {
  74:..\..\..\arduinoLCD\test\Pain Drain\libraries\lvgl\src\extra\widgets\calendar/lv_calendar.c ****     LV_ASSERT_OBJ(obj, MY_CLASS);
  75:..\..\..\arduinoLCD\test\Pain Drain\libraries\lvgl\src\extra\widgets\calendar/lv_calendar.c ****     lv_calendar_t * calendar = (lv_calendar_t *)obj;
  76:..\..\..\arduinoLCD\test\Pain Drain\libraries\lvgl\src\extra\widgets\calendar/lv_calendar.c **** 
  77:..\..\..\arduinoLCD\test\Pain Drain\libraries\lvgl\src\extra\widgets\calendar/lv_calendar.c ****     uint32_t i;
  78:..\..\..\arduinoLCD\test\Pain Drain\libraries\lvgl\src\extra\widgets\calendar/lv_calendar.c ****     for(i = 0; i < 7; i++) {
  79:..\..\..\arduinoLCD\test\Pain Drain\libraries\lvgl\src\extra\widgets\calendar/lv_calendar.c ****         calendar->map[i] = day_names[i];
  80:..\..\..\arduinoLCD\test\Pain Drain\libraries\lvgl\src\extra\widgets\calendar/lv_calendar.c ****     }
  81:..\..\..\arduinoLCD\test\Pain Drain\libraries\lvgl\src\extra\widgets\calendar/lv_calendar.c ****     lv_obj_invalidate(obj);
  82:..\..\..\arduinoLCD\test\Pain Drain\libraries\lvgl\src\extra\widgets\calendar/lv_calendar.c **** }
  83:..\..\..\arduinoLCD\test\Pain Drain\libraries\lvgl\src\extra\widgets\calendar/lv_calendar.c **** 
  84:..\..\..\arduinoLCD\test\Pain Drain\libraries\lvgl\src\extra\widgets\calendar/lv_calendar.c **** void lv_calendar_set_today_date(lv_obj_t * obj, uint32_t year, uint32_t month, uint32_t day)
  85:..\..\..\arduinoLCD\test\Pain Drain\libraries\lvgl\src\extra\widgets\calendar/lv_calendar.c **** {
  86:..\..\..\arduinoLCD\test\Pain Drain\libraries\lvgl\src\extra\widgets\calendar/lv_calendar.c ****     LV_ASSERT_OBJ(obj, MY_CLASS);
  87:..\..\..\arduinoLCD\test\Pain Drain\libraries\lvgl\src\extra\widgets\calendar/lv_calendar.c ****     lv_calendar_t * calendar = (lv_calendar_t *)obj;
ARM GAS  C:\Users\haske\AppData\Local\Temp\ccp1gvma.s 			page 3


  88:..\..\..\arduinoLCD\test\Pain Drain\libraries\lvgl\src\extra\widgets\calendar/lv_calendar.c **** 
  89:..\..\..\arduinoLCD\test\Pain Drain\libraries\lvgl\src\extra\widgets\calendar/lv_calendar.c ****     calendar->today.year         = year;
  90:..\..\..\arduinoLCD\test\Pain Drain\libraries\lvgl\src\extra\widgets\calendar/lv_calendar.c ****     calendar->today.month        = month;
  91:..\..\..\arduinoLCD\test\Pain Drain\libraries\lvgl\src\extra\widgets\calendar/lv_calendar.c ****     calendar->today.day          = day;
  92:..\..\..\arduinoLCD\test\Pain Drain\libraries\lvgl\src\extra\widgets\calendar/lv_calendar.c **** 
  93:..\..\..\arduinoLCD\test\Pain Drain\libraries\lvgl\src\extra\widgets\calendar/lv_calendar.c ****     highlight_update(obj);
  94:..\..\..\arduinoLCD\test\Pain Drain\libraries\lvgl\src\extra\widgets\calendar/lv_calendar.c **** }
  95:..\..\..\arduinoLCD\test\Pain Drain\libraries\lvgl\src\extra\widgets\calendar/lv_calendar.c **** 
  96:..\..\..\arduinoLCD\test\Pain Drain\libraries\lvgl\src\extra\widgets\calendar/lv_calendar.c **** void lv_calendar_set_highlighted_dates(lv_obj_t * obj, lv_calendar_date_t highlighted[], uint16_t d
  97:..\..\..\arduinoLCD\test\Pain Drain\libraries\lvgl\src\extra\widgets\calendar/lv_calendar.c **** {
  98:..\..\..\arduinoLCD\test\Pain Drain\libraries\lvgl\src\extra\widgets\calendar/lv_calendar.c ****     LV_ASSERT_NULL(highlighted);
  99:..\..\..\arduinoLCD\test\Pain Drain\libraries\lvgl\src\extra\widgets\calendar/lv_calendar.c **** 
 100:..\..\..\arduinoLCD\test\Pain Drain\libraries\lvgl\src\extra\widgets\calendar/lv_calendar.c ****     LV_ASSERT_OBJ(obj, MY_CLASS);
 101:..\..\..\arduinoLCD\test\Pain Drain\libraries\lvgl\src\extra\widgets\calendar/lv_calendar.c ****     lv_calendar_t * calendar = (lv_calendar_t *)obj;
 102:..\..\..\arduinoLCD\test\Pain Drain\libraries\lvgl\src\extra\widgets\calendar/lv_calendar.c **** 
 103:..\..\..\arduinoLCD\test\Pain Drain\libraries\lvgl\src\extra\widgets\calendar/lv_calendar.c ****     calendar->highlighted_dates     = highlighted;
 104:..\..\..\arduinoLCD\test\Pain Drain\libraries\lvgl\src\extra\widgets\calendar/lv_calendar.c ****     calendar->highlighted_dates_num = date_num;
 105:..\..\..\arduinoLCD\test\Pain Drain\libraries\lvgl\src\extra\widgets\calendar/lv_calendar.c **** 
 106:..\..\..\arduinoLCD\test\Pain Drain\libraries\lvgl\src\extra\widgets\calendar/lv_calendar.c ****     highlight_update(obj);
 107:..\..\..\arduinoLCD\test\Pain Drain\libraries\lvgl\src\extra\widgets\calendar/lv_calendar.c **** }
 108:..\..\..\arduinoLCD\test\Pain Drain\libraries\lvgl\src\extra\widgets\calendar/lv_calendar.c **** 
 109:..\..\..\arduinoLCD\test\Pain Drain\libraries\lvgl\src\extra\widgets\calendar/lv_calendar.c **** void lv_calendar_set_showed_date(lv_obj_t * obj, uint32_t year, uint32_t month)
 110:..\..\..\arduinoLCD\test\Pain Drain\libraries\lvgl\src\extra\widgets\calendar/lv_calendar.c **** {
 111:..\..\..\arduinoLCD\test\Pain Drain\libraries\lvgl\src\extra\widgets\calendar/lv_calendar.c ****     LV_ASSERT_OBJ(obj, MY_CLASS);
 112:..\..\..\arduinoLCD\test\Pain Drain\libraries\lvgl\src\extra\widgets\calendar/lv_calendar.c ****     lv_calendar_t * calendar = (lv_calendar_t *)obj;
 113:..\..\..\arduinoLCD\test\Pain Drain\libraries\lvgl\src\extra\widgets\calendar/lv_calendar.c **** 
 114:..\..\..\arduinoLCD\test\Pain Drain\libraries\lvgl\src\extra\widgets\calendar/lv_calendar.c ****     calendar->showed_date.year   = year;
 115:..\..\..\arduinoLCD\test\Pain Drain\libraries\lvgl\src\extra\widgets\calendar/lv_calendar.c ****     calendar->showed_date.month  = month;
 116:..\..\..\arduinoLCD\test\Pain Drain\libraries\lvgl\src\extra\widgets\calendar/lv_calendar.c ****     calendar->showed_date.day    = 1;
 117:..\..\..\arduinoLCD\test\Pain Drain\libraries\lvgl\src\extra\widgets\calendar/lv_calendar.c **** 
 118:..\..\..\arduinoLCD\test\Pain Drain\libraries\lvgl\src\extra\widgets\calendar/lv_calendar.c ****     lv_calendar_date_t d;
 119:..\..\..\arduinoLCD\test\Pain Drain\libraries\lvgl\src\extra\widgets\calendar/lv_calendar.c ****     d.year = calendar->showed_date.year;
 120:..\..\..\arduinoLCD\test\Pain Drain\libraries\lvgl\src\extra\widgets\calendar/lv_calendar.c ****     d.month = calendar->showed_date.month;
 121:..\..\..\arduinoLCD\test\Pain Drain\libraries\lvgl\src\extra\widgets\calendar/lv_calendar.c ****     d.day = calendar->showed_date.day;
 122:..\..\..\arduinoLCD\test\Pain Drain\libraries\lvgl\src\extra\widgets\calendar/lv_calendar.c **** 
 123:..\..\..\arduinoLCD\test\Pain Drain\libraries\lvgl\src\extra\widgets\calendar/lv_calendar.c ****     uint32_t i;
 124:..\..\..\arduinoLCD\test\Pain Drain\libraries\lvgl\src\extra\widgets\calendar/lv_calendar.c **** 
 125:..\..\..\arduinoLCD\test\Pain Drain\libraries\lvgl\src\extra\widgets\calendar/lv_calendar.c ****     /*Remove the disabled state but revert it for day names*/
 126:..\..\..\arduinoLCD\test\Pain Drain\libraries\lvgl\src\extra\widgets\calendar/lv_calendar.c ****     lv_btnmatrix_clear_btn_ctrl_all(calendar->btnm, LV_BTNMATRIX_CTRL_DISABLED);
 127:..\..\..\arduinoLCD\test\Pain Drain\libraries\lvgl\src\extra\widgets\calendar/lv_calendar.c ****     for(i = 0; i < 7; i++) {
 128:..\..\..\arduinoLCD\test\Pain Drain\libraries\lvgl\src\extra\widgets\calendar/lv_calendar.c ****         lv_btnmatrix_set_btn_ctrl(calendar->btnm, i, LV_BTNMATRIX_CTRL_DISABLED);
 129:..\..\..\arduinoLCD\test\Pain Drain\libraries\lvgl\src\extra\widgets\calendar/lv_calendar.c ****     }
 130:..\..\..\arduinoLCD\test\Pain Drain\libraries\lvgl\src\extra\widgets\calendar/lv_calendar.c **** 
 131:..\..\..\arduinoLCD\test\Pain Drain\libraries\lvgl\src\extra\widgets\calendar/lv_calendar.c ****     uint8_t act_mo_len = get_month_length(d.year, d.month);
 132:..\..\..\arduinoLCD\test\Pain Drain\libraries\lvgl\src\extra\widgets\calendar/lv_calendar.c ****     uint8_t day_first = get_day_of_week(d.year, d.month, 1);
 133:..\..\..\arduinoLCD\test\Pain Drain\libraries\lvgl\src\extra\widgets\calendar/lv_calendar.c ****     uint8_t c;
 134:..\..\..\arduinoLCD\test\Pain Drain\libraries\lvgl\src\extra\widgets\calendar/lv_calendar.c ****     for(i = day_first, c = 1; i < act_mo_len + day_first; i++, c++) {
 135:..\..\..\arduinoLCD\test\Pain Drain\libraries\lvgl\src\extra\widgets\calendar/lv_calendar.c ****         lv_snprintf(calendar->nums[i], sizeof(calendar->nums[0]), "%d", c);
 136:..\..\..\arduinoLCD\test\Pain Drain\libraries\lvgl\src\extra\widgets\calendar/lv_calendar.c ****     }
 137:..\..\..\arduinoLCD\test\Pain Drain\libraries\lvgl\src\extra\widgets\calendar/lv_calendar.c **** 
 138:..\..\..\arduinoLCD\test\Pain Drain\libraries\lvgl\src\extra\widgets\calendar/lv_calendar.c ****     uint8_t prev_mo_len = get_month_length(d.year, d.month - 1);
 139:..\..\..\arduinoLCD\test\Pain Drain\libraries\lvgl\src\extra\widgets\calendar/lv_calendar.c ****     for(i = 0, c = prev_mo_len - day_first + 1; i < day_first; i++, c++) {
 140:..\..\..\arduinoLCD\test\Pain Drain\libraries\lvgl\src\extra\widgets\calendar/lv_calendar.c ****         lv_snprintf(calendar->nums[i], sizeof(calendar->nums[0]), "%d", c);
 141:..\..\..\arduinoLCD\test\Pain Drain\libraries\lvgl\src\extra\widgets\calendar/lv_calendar.c ****         lv_btnmatrix_set_btn_ctrl(calendar->btnm, i + 7, LV_BTNMATRIX_CTRL_DISABLED);
 142:..\..\..\arduinoLCD\test\Pain Drain\libraries\lvgl\src\extra\widgets\calendar/lv_calendar.c ****     }
 143:..\..\..\arduinoLCD\test\Pain Drain\libraries\lvgl\src\extra\widgets\calendar/lv_calendar.c **** 
 144:..\..\..\arduinoLCD\test\Pain Drain\libraries\lvgl\src\extra\widgets\calendar/lv_calendar.c ****     for(i = day_first + act_mo_len, c = 1; i < 6 * 7; i++, c++) {
ARM GAS  C:\Users\haske\AppData\Local\Temp\ccp1gvma.s 			page 4


 145:..\..\..\arduinoLCD\test\Pain Drain\libraries\lvgl\src\extra\widgets\calendar/lv_calendar.c ****         lv_snprintf(calendar->nums[i], sizeof(calendar->nums[0]), "%d", c);
 146:..\..\..\arduinoLCD\test\Pain Drain\libraries\lvgl\src\extra\widgets\calendar/lv_calendar.c ****         lv_btnmatrix_set_btn_ctrl(calendar->btnm, i + 7, LV_BTNMATRIX_CTRL_DISABLED);
 147:..\..\..\arduinoLCD\test\Pain Drain\libraries\lvgl\src\extra\widgets\calendar/lv_calendar.c ****     }
 148:..\..\..\arduinoLCD\test\Pain Drain\libraries\lvgl\src\extra\widgets\calendar/lv_calendar.c **** 
 149:..\..\..\arduinoLCD\test\Pain Drain\libraries\lvgl\src\extra\widgets\calendar/lv_calendar.c ****     highlight_update(obj);
 150:..\..\..\arduinoLCD\test\Pain Drain\libraries\lvgl\src\extra\widgets\calendar/lv_calendar.c **** 
 151:..\..\..\arduinoLCD\test\Pain Drain\libraries\lvgl\src\extra\widgets\calendar/lv_calendar.c ****     /*Reset the focused button if the days changes*/
 152:..\..\..\arduinoLCD\test\Pain Drain\libraries\lvgl\src\extra\widgets\calendar/lv_calendar.c ****     if(lv_btnmatrix_get_selected_btn(calendar->btnm) != LV_BTNMATRIX_BTN_NONE) {
 153:..\..\..\arduinoLCD\test\Pain Drain\libraries\lvgl\src\extra\widgets\calendar/lv_calendar.c ****         lv_btnmatrix_set_selected_btn(calendar->btnm, day_first + 7);
 154:..\..\..\arduinoLCD\test\Pain Drain\libraries\lvgl\src\extra\widgets\calendar/lv_calendar.c ****     }
 155:..\..\..\arduinoLCD\test\Pain Drain\libraries\lvgl\src\extra\widgets\calendar/lv_calendar.c **** 
 156:..\..\..\arduinoLCD\test\Pain Drain\libraries\lvgl\src\extra\widgets\calendar/lv_calendar.c ****     lv_obj_invalidate(obj);
 157:..\..\..\arduinoLCD\test\Pain Drain\libraries\lvgl\src\extra\widgets\calendar/lv_calendar.c **** 
 158:..\..\..\arduinoLCD\test\Pain Drain\libraries\lvgl\src\extra\widgets\calendar/lv_calendar.c ****     /* The children of the calendar are probably headers.
 159:..\..\..\arduinoLCD\test\Pain Drain\libraries\lvgl\src\extra\widgets\calendar/lv_calendar.c ****      * Notify them to let the headers updated to the new date*/
 160:..\..\..\arduinoLCD\test\Pain Drain\libraries\lvgl\src\extra\widgets\calendar/lv_calendar.c ****     uint32_t child_cnt = lv_obj_get_child_cnt(obj);
 161:..\..\..\arduinoLCD\test\Pain Drain\libraries\lvgl\src\extra\widgets\calendar/lv_calendar.c ****     for(i = 0; i < child_cnt; i++) {
 162:..\..\..\arduinoLCD\test\Pain Drain\libraries\lvgl\src\extra\widgets\calendar/lv_calendar.c ****         lv_obj_t * child = lv_obj_get_child(obj, i);
 163:..\..\..\arduinoLCD\test\Pain Drain\libraries\lvgl\src\extra\widgets\calendar/lv_calendar.c ****         if(child == calendar->btnm) continue;
 164:..\..\..\arduinoLCD\test\Pain Drain\libraries\lvgl\src\extra\widgets\calendar/lv_calendar.c ****         lv_event_send(child, LV_EVENT_VALUE_CHANGED, obj);
 165:..\..\..\arduinoLCD\test\Pain Drain\libraries\lvgl\src\extra\widgets\calendar/lv_calendar.c ****     }
 166:..\..\..\arduinoLCD\test\Pain Drain\libraries\lvgl\src\extra\widgets\calendar/lv_calendar.c **** }
 167:..\..\..\arduinoLCD\test\Pain Drain\libraries\lvgl\src\extra\widgets\calendar/lv_calendar.c **** 
 168:..\..\..\arduinoLCD\test\Pain Drain\libraries\lvgl\src\extra\widgets\calendar/lv_calendar.c **** /*=====================
 169:..\..\..\arduinoLCD\test\Pain Drain\libraries\lvgl\src\extra\widgets\calendar/lv_calendar.c ****  * Getter functions
 170:..\..\..\arduinoLCD\test\Pain Drain\libraries\lvgl\src\extra\widgets\calendar/lv_calendar.c ****  *====================*/
 171:..\..\..\arduinoLCD\test\Pain Drain\libraries\lvgl\src\extra\widgets\calendar/lv_calendar.c **** 
 172:..\..\..\arduinoLCD\test\Pain Drain\libraries\lvgl\src\extra\widgets\calendar/lv_calendar.c **** lv_obj_t * lv_calendar_get_btnmatrix(const lv_obj_t * obj)
 173:..\..\..\arduinoLCD\test\Pain Drain\libraries\lvgl\src\extra\widgets\calendar/lv_calendar.c **** {
 174:..\..\..\arduinoLCD\test\Pain Drain\libraries\lvgl\src\extra\widgets\calendar/lv_calendar.c ****     LV_ASSERT_OBJ(obj, MY_CLASS);
 175:..\..\..\arduinoLCD\test\Pain Drain\libraries\lvgl\src\extra\widgets\calendar/lv_calendar.c ****     const lv_calendar_t * calendar = (lv_calendar_t *)obj;
 176:..\..\..\arduinoLCD\test\Pain Drain\libraries\lvgl\src\extra\widgets\calendar/lv_calendar.c ****     return calendar->btnm;
 177:..\..\..\arduinoLCD\test\Pain Drain\libraries\lvgl\src\extra\widgets\calendar/lv_calendar.c **** }
 178:..\..\..\arduinoLCD\test\Pain Drain\libraries\lvgl\src\extra\widgets\calendar/lv_calendar.c **** 
 179:..\..\..\arduinoLCD\test\Pain Drain\libraries\lvgl\src\extra\widgets\calendar/lv_calendar.c **** const lv_calendar_date_t * lv_calendar_get_today_date(const lv_obj_t * obj)
 180:..\..\..\arduinoLCD\test\Pain Drain\libraries\lvgl\src\extra\widgets\calendar/lv_calendar.c **** {
 181:..\..\..\arduinoLCD\test\Pain Drain\libraries\lvgl\src\extra\widgets\calendar/lv_calendar.c ****     LV_ASSERT_OBJ(obj, MY_CLASS);
 182:..\..\..\arduinoLCD\test\Pain Drain\libraries\lvgl\src\extra\widgets\calendar/lv_calendar.c ****     const lv_calendar_t * calendar = (lv_calendar_t *)obj;
 183:..\..\..\arduinoLCD\test\Pain Drain\libraries\lvgl\src\extra\widgets\calendar/lv_calendar.c **** 
 184:..\..\..\arduinoLCD\test\Pain Drain\libraries\lvgl\src\extra\widgets\calendar/lv_calendar.c ****     return &calendar->today;
 185:..\..\..\arduinoLCD\test\Pain Drain\libraries\lvgl\src\extra\widgets\calendar/lv_calendar.c **** }
 186:..\..\..\arduinoLCD\test\Pain Drain\libraries\lvgl\src\extra\widgets\calendar/lv_calendar.c **** 
 187:..\..\..\arduinoLCD\test\Pain Drain\libraries\lvgl\src\extra\widgets\calendar/lv_calendar.c **** const lv_calendar_date_t * lv_calendar_get_showed_date(const lv_obj_t * obj)
 188:..\..\..\arduinoLCD\test\Pain Drain\libraries\lvgl\src\extra\widgets\calendar/lv_calendar.c **** {
 189:..\..\..\arduinoLCD\test\Pain Drain\libraries\lvgl\src\extra\widgets\calendar/lv_calendar.c ****     LV_ASSERT_OBJ(obj, MY_CLASS);
 190:..\..\..\arduinoLCD\test\Pain Drain\libraries\lvgl\src\extra\widgets\calendar/lv_calendar.c ****     const lv_calendar_t * calendar = (lv_calendar_t *)obj;
 191:..\..\..\arduinoLCD\test\Pain Drain\libraries\lvgl\src\extra\widgets\calendar/lv_calendar.c **** 
 192:..\..\..\arduinoLCD\test\Pain Drain\libraries\lvgl\src\extra\widgets\calendar/lv_calendar.c ****     return &calendar->showed_date;
 193:..\..\..\arduinoLCD\test\Pain Drain\libraries\lvgl\src\extra\widgets\calendar/lv_calendar.c **** }
 194:..\..\..\arduinoLCD\test\Pain Drain\libraries\lvgl\src\extra\widgets\calendar/lv_calendar.c **** 
 195:..\..\..\arduinoLCD\test\Pain Drain\libraries\lvgl\src\extra\widgets\calendar/lv_calendar.c **** lv_calendar_date_t * lv_calendar_get_highlighted_dates(const lv_obj_t * obj)
 196:..\..\..\arduinoLCD\test\Pain Drain\libraries\lvgl\src\extra\widgets\calendar/lv_calendar.c **** {
 197:..\..\..\arduinoLCD\test\Pain Drain\libraries\lvgl\src\extra\widgets\calendar/lv_calendar.c ****     LV_ASSERT_OBJ(obj, MY_CLASS);
 198:..\..\..\arduinoLCD\test\Pain Drain\libraries\lvgl\src\extra\widgets\calendar/lv_calendar.c ****     lv_calendar_t * calendar = (lv_calendar_t *)obj;
 199:..\..\..\arduinoLCD\test\Pain Drain\libraries\lvgl\src\extra\widgets\calendar/lv_calendar.c **** 
 200:..\..\..\arduinoLCD\test\Pain Drain\libraries\lvgl\src\extra\widgets\calendar/lv_calendar.c ****     return calendar->highlighted_dates;
 201:..\..\..\arduinoLCD\test\Pain Drain\libraries\lvgl\src\extra\widgets\calendar/lv_calendar.c **** }
ARM GAS  C:\Users\haske\AppData\Local\Temp\ccp1gvma.s 			page 5


 202:..\..\..\arduinoLCD\test\Pain Drain\libraries\lvgl\src\extra\widgets\calendar/lv_calendar.c **** 
 203:..\..\..\arduinoLCD\test\Pain Drain\libraries\lvgl\src\extra\widgets\calendar/lv_calendar.c **** uint16_t lv_calendar_get_highlighted_dates_num(const lv_obj_t * obj)
 204:..\..\..\arduinoLCD\test\Pain Drain\libraries\lvgl\src\extra\widgets\calendar/lv_calendar.c **** {
 205:..\..\..\arduinoLCD\test\Pain Drain\libraries\lvgl\src\extra\widgets\calendar/lv_calendar.c ****     LV_ASSERT_OBJ(obj, MY_CLASS);
 206:..\..\..\arduinoLCD\test\Pain Drain\libraries\lvgl\src\extra\widgets\calendar/lv_calendar.c ****     lv_calendar_t * calendar = (lv_calendar_t *)obj;
 207:..\..\..\arduinoLCD\test\Pain Drain\libraries\lvgl\src\extra\widgets\calendar/lv_calendar.c **** 
 208:..\..\..\arduinoLCD\test\Pain Drain\libraries\lvgl\src\extra\widgets\calendar/lv_calendar.c ****     return calendar->highlighted_dates_num;
 209:..\..\..\arduinoLCD\test\Pain Drain\libraries\lvgl\src\extra\widgets\calendar/lv_calendar.c **** }
 210:..\..\..\arduinoLCD\test\Pain Drain\libraries\lvgl\src\extra\widgets\calendar/lv_calendar.c **** 
 211:..\..\..\arduinoLCD\test\Pain Drain\libraries\lvgl\src\extra\widgets\calendar/lv_calendar.c **** lv_res_t lv_calendar_get_pressed_date(const lv_obj_t * obj, lv_calendar_date_t * date)
 212:..\..\..\arduinoLCD\test\Pain Drain\libraries\lvgl\src\extra\widgets\calendar/lv_calendar.c **** {
 213:..\..\..\arduinoLCD\test\Pain Drain\libraries\lvgl\src\extra\widgets\calendar/lv_calendar.c ****     LV_ASSERT_OBJ(obj, MY_CLASS);
 214:..\..\..\arduinoLCD\test\Pain Drain\libraries\lvgl\src\extra\widgets\calendar/lv_calendar.c ****     lv_calendar_t * calendar = (lv_calendar_t *)obj;
 215:..\..\..\arduinoLCD\test\Pain Drain\libraries\lvgl\src\extra\widgets\calendar/lv_calendar.c **** 
 216:..\..\..\arduinoLCD\test\Pain Drain\libraries\lvgl\src\extra\widgets\calendar/lv_calendar.c ****     uint16_t d = lv_btnmatrix_get_selected_btn(calendar->btnm);
 217:..\..\..\arduinoLCD\test\Pain Drain\libraries\lvgl\src\extra\widgets\calendar/lv_calendar.c ****     if(d == LV_BTNMATRIX_BTN_NONE) {
 218:..\..\..\arduinoLCD\test\Pain Drain\libraries\lvgl\src\extra\widgets\calendar/lv_calendar.c ****         date->year = 0;
 219:..\..\..\arduinoLCD\test\Pain Drain\libraries\lvgl\src\extra\widgets\calendar/lv_calendar.c ****         date->month = 0;
 220:..\..\..\arduinoLCD\test\Pain Drain\libraries\lvgl\src\extra\widgets\calendar/lv_calendar.c ****         date->day = 0;
 221:..\..\..\arduinoLCD\test\Pain Drain\libraries\lvgl\src\extra\widgets\calendar/lv_calendar.c ****         return LV_RES_INV;
 222:..\..\..\arduinoLCD\test\Pain Drain\libraries\lvgl\src\extra\widgets\calendar/lv_calendar.c ****     }
 223:..\..\..\arduinoLCD\test\Pain Drain\libraries\lvgl\src\extra\widgets\calendar/lv_calendar.c **** 
 224:..\..\..\arduinoLCD\test\Pain Drain\libraries\lvgl\src\extra\widgets\calendar/lv_calendar.c ****     const char * txt = lv_btnmatrix_get_btn_text(calendar->btnm, lv_btnmatrix_get_selected_btn(cale
 225:..\..\..\arduinoLCD\test\Pain Drain\libraries\lvgl\src\extra\widgets\calendar/lv_calendar.c **** 
 226:..\..\..\arduinoLCD\test\Pain Drain\libraries\lvgl\src\extra\widgets\calendar/lv_calendar.c ****     if(txt[1] == 0) date->day = txt[0] - '0';
 227:..\..\..\arduinoLCD\test\Pain Drain\libraries\lvgl\src\extra\widgets\calendar/lv_calendar.c ****     else date->day = (txt[0] - '0') * 10 + (txt[1] - '0');
 228:..\..\..\arduinoLCD\test\Pain Drain\libraries\lvgl\src\extra\widgets\calendar/lv_calendar.c **** 
 229:..\..\..\arduinoLCD\test\Pain Drain\libraries\lvgl\src\extra\widgets\calendar/lv_calendar.c ****     date->year = calendar->showed_date.year;
 230:..\..\..\arduinoLCD\test\Pain Drain\libraries\lvgl\src\extra\widgets\calendar/lv_calendar.c ****     date->month = calendar->showed_date.month;
 231:..\..\..\arduinoLCD\test\Pain Drain\libraries\lvgl\src\extra\widgets\calendar/lv_calendar.c **** 
 232:..\..\..\arduinoLCD\test\Pain Drain\libraries\lvgl\src\extra\widgets\calendar/lv_calendar.c ****     return LV_RES_OK;
 233:..\..\..\arduinoLCD\test\Pain Drain\libraries\lvgl\src\extra\widgets\calendar/lv_calendar.c **** }
 234:..\..\..\arduinoLCD\test\Pain Drain\libraries\lvgl\src\extra\widgets\calendar/lv_calendar.c **** 
 235:..\..\..\arduinoLCD\test\Pain Drain\libraries\lvgl\src\extra\widgets\calendar/lv_calendar.c **** 
 236:..\..\..\arduinoLCD\test\Pain Drain\libraries\lvgl\src\extra\widgets\calendar/lv_calendar.c **** /**********************
 237:..\..\..\arduinoLCD\test\Pain Drain\libraries\lvgl\src\extra\widgets\calendar/lv_calendar.c ****  *  STATIC FUNCTIONS
 238:..\..\..\arduinoLCD\test\Pain Drain\libraries\lvgl\src\extra\widgets\calendar/lv_calendar.c ****  **********************/
 239:..\..\..\arduinoLCD\test\Pain Drain\libraries\lvgl\src\extra\widgets\calendar/lv_calendar.c **** 
 240:..\..\..\arduinoLCD\test\Pain Drain\libraries\lvgl\src\extra\widgets\calendar/lv_calendar.c **** static void lv_calendar_constructor(const lv_obj_class_t * class_p, lv_obj_t * obj)
 241:..\..\..\arduinoLCD\test\Pain Drain\libraries\lvgl\src\extra\widgets\calendar/lv_calendar.c **** {
 242:..\..\..\arduinoLCD\test\Pain Drain\libraries\lvgl\src\extra\widgets\calendar/lv_calendar.c ****     LV_UNUSED(class_p);
 243:..\..\..\arduinoLCD\test\Pain Drain\libraries\lvgl\src\extra\widgets\calendar/lv_calendar.c ****     lv_calendar_t * calendar = (lv_calendar_t *)obj;
 244:..\..\..\arduinoLCD\test\Pain Drain\libraries\lvgl\src\extra\widgets\calendar/lv_calendar.c **** 
 245:..\..\..\arduinoLCD\test\Pain Drain\libraries\lvgl\src\extra\widgets\calendar/lv_calendar.c ****     /*Initialize the allocated 'ext'*/
 246:..\..\..\arduinoLCD\test\Pain Drain\libraries\lvgl\src\extra\widgets\calendar/lv_calendar.c ****     calendar->today.year  = 2020;
 247:..\..\..\arduinoLCD\test\Pain Drain\libraries\lvgl\src\extra\widgets\calendar/lv_calendar.c ****     calendar->today.month = 1;
 248:..\..\..\arduinoLCD\test\Pain Drain\libraries\lvgl\src\extra\widgets\calendar/lv_calendar.c ****     calendar->today.day   = 1;
 249:..\..\..\arduinoLCD\test\Pain Drain\libraries\lvgl\src\extra\widgets\calendar/lv_calendar.c **** 
 250:..\..\..\arduinoLCD\test\Pain Drain\libraries\lvgl\src\extra\widgets\calendar/lv_calendar.c ****     calendar->showed_date.year  = 2020;
 251:..\..\..\arduinoLCD\test\Pain Drain\libraries\lvgl\src\extra\widgets\calendar/lv_calendar.c ****     calendar->showed_date.month = 1;
 252:..\..\..\arduinoLCD\test\Pain Drain\libraries\lvgl\src\extra\widgets\calendar/lv_calendar.c ****     calendar->showed_date.day   = 1;
 253:..\..\..\arduinoLCD\test\Pain Drain\libraries\lvgl\src\extra\widgets\calendar/lv_calendar.c **** 
 254:..\..\..\arduinoLCD\test\Pain Drain\libraries\lvgl\src\extra\widgets\calendar/lv_calendar.c ****     calendar->highlighted_dates      = NULL;
 255:..\..\..\arduinoLCD\test\Pain Drain\libraries\lvgl\src\extra\widgets\calendar/lv_calendar.c ****     calendar->highlighted_dates_num  = 0;
 256:..\..\..\arduinoLCD\test\Pain Drain\libraries\lvgl\src\extra\widgets\calendar/lv_calendar.c **** 
 257:..\..\..\arduinoLCD\test\Pain Drain\libraries\lvgl\src\extra\widgets\calendar/lv_calendar.c ****     lv_memset_00(calendar->nums, sizeof(calendar->nums));
 258:..\..\..\arduinoLCD\test\Pain Drain\libraries\lvgl\src\extra\widgets\calendar/lv_calendar.c ****     uint8_t i;
ARM GAS  C:\Users\haske\AppData\Local\Temp\ccp1gvma.s 			page 6


 259:..\..\..\arduinoLCD\test\Pain Drain\libraries\lvgl\src\extra\widgets\calendar/lv_calendar.c ****     uint8_t j = 0;
 260:..\..\..\arduinoLCD\test\Pain Drain\libraries\lvgl\src\extra\widgets\calendar/lv_calendar.c ****     for(i = 0; i < 8 * 7; i++) {
 261:..\..\..\arduinoLCD\test\Pain Drain\libraries\lvgl\src\extra\widgets\calendar/lv_calendar.c ****         /*Every 8th string is "\n"*/
 262:..\..\..\arduinoLCD\test\Pain Drain\libraries\lvgl\src\extra\widgets\calendar/lv_calendar.c ****         if(i != 0 && (i + 1) % 8 == 0) {
 263:..\..\..\arduinoLCD\test\Pain Drain\libraries\lvgl\src\extra\widgets\calendar/lv_calendar.c ****             calendar->map[i] = "\n";
 264:..\..\..\arduinoLCD\test\Pain Drain\libraries\lvgl\src\extra\widgets\calendar/lv_calendar.c ****         }
 265:..\..\..\arduinoLCD\test\Pain Drain\libraries\lvgl\src\extra\widgets\calendar/lv_calendar.c ****         else if(i < 7) {
 266:..\..\..\arduinoLCD\test\Pain Drain\libraries\lvgl\src\extra\widgets\calendar/lv_calendar.c ****             calendar->map[i] = day_names_def[i];
 267:..\..\..\arduinoLCD\test\Pain Drain\libraries\lvgl\src\extra\widgets\calendar/lv_calendar.c ****         }
 268:..\..\..\arduinoLCD\test\Pain Drain\libraries\lvgl\src\extra\widgets\calendar/lv_calendar.c ****         else {
 269:..\..\..\arduinoLCD\test\Pain Drain\libraries\lvgl\src\extra\widgets\calendar/lv_calendar.c ****             calendar->nums[j][0] = 'x';
 270:..\..\..\arduinoLCD\test\Pain Drain\libraries\lvgl\src\extra\widgets\calendar/lv_calendar.c ****             calendar->map[i] = calendar->nums[j];
 271:..\..\..\arduinoLCD\test\Pain Drain\libraries\lvgl\src\extra\widgets\calendar/lv_calendar.c ****             j++;
 272:..\..\..\arduinoLCD\test\Pain Drain\libraries\lvgl\src\extra\widgets\calendar/lv_calendar.c ****         }
 273:..\..\..\arduinoLCD\test\Pain Drain\libraries\lvgl\src\extra\widgets\calendar/lv_calendar.c ****     }
 274:..\..\..\arduinoLCD\test\Pain Drain\libraries\lvgl\src\extra\widgets\calendar/lv_calendar.c ****     calendar->map[8 * 7 - 1] = "";
 275:..\..\..\arduinoLCD\test\Pain Drain\libraries\lvgl\src\extra\widgets\calendar/lv_calendar.c **** 
 276:..\..\..\arduinoLCD\test\Pain Drain\libraries\lvgl\src\extra\widgets\calendar/lv_calendar.c ****     calendar->btnm = lv_btnmatrix_create(obj);
 277:..\..\..\arduinoLCD\test\Pain Drain\libraries\lvgl\src\extra\widgets\calendar/lv_calendar.c ****     lv_btnmatrix_set_map(calendar->btnm, calendar->map);
 278:..\..\..\arduinoLCD\test\Pain Drain\libraries\lvgl\src\extra\widgets\calendar/lv_calendar.c ****     lv_btnmatrix_set_btn_ctrl_all(calendar->btnm, LV_BTNMATRIX_CTRL_CLICK_TRIG | LV_BTNMATRIX_CTRL_
 279:..\..\..\arduinoLCD\test\Pain Drain\libraries\lvgl\src\extra\widgets\calendar/lv_calendar.c ****     lv_obj_add_event_cb(calendar->btnm, draw_part_begin_event_cb, LV_EVENT_DRAW_PART_BEGIN, NULL);
 280:..\..\..\arduinoLCD\test\Pain Drain\libraries\lvgl\src\extra\widgets\calendar/lv_calendar.c ****     lv_obj_set_width(calendar->btnm, lv_pct(100));
 281:..\..\..\arduinoLCD\test\Pain Drain\libraries\lvgl\src\extra\widgets\calendar/lv_calendar.c **** 
 282:..\..\..\arduinoLCD\test\Pain Drain\libraries\lvgl\src\extra\widgets\calendar/lv_calendar.c ****     lv_obj_set_flex_flow(obj, LV_FLEX_FLOW_COLUMN);
 283:..\..\..\arduinoLCD\test\Pain Drain\libraries\lvgl\src\extra\widgets\calendar/lv_calendar.c ****     lv_obj_set_flex_grow(calendar->btnm, 1);
 284:..\..\..\arduinoLCD\test\Pain Drain\libraries\lvgl\src\extra\widgets\calendar/lv_calendar.c **** 
 285:..\..\..\arduinoLCD\test\Pain Drain\libraries\lvgl\src\extra\widgets\calendar/lv_calendar.c ****     lv_calendar_set_showed_date(obj, calendar->showed_date.year, calendar->showed_date.month);
 286:..\..\..\arduinoLCD\test\Pain Drain\libraries\lvgl\src\extra\widgets\calendar/lv_calendar.c ****     lv_calendar_set_today_date(obj, calendar->today.year, calendar->today.month, calendar->today.da
 287:..\..\..\arduinoLCD\test\Pain Drain\libraries\lvgl\src\extra\widgets\calendar/lv_calendar.c **** 
 288:..\..\..\arduinoLCD\test\Pain Drain\libraries\lvgl\src\extra\widgets\calendar/lv_calendar.c ****     lv_obj_add_flag(calendar->btnm, LV_OBJ_FLAG_EVENT_BUBBLE);
 289:..\..\..\arduinoLCD\test\Pain Drain\libraries\lvgl\src\extra\widgets\calendar/lv_calendar.c **** }
 290:..\..\..\arduinoLCD\test\Pain Drain\libraries\lvgl\src\extra\widgets\calendar/lv_calendar.c **** 
 291:..\..\..\arduinoLCD\test\Pain Drain\libraries\lvgl\src\extra\widgets\calendar/lv_calendar.c **** static void draw_part_begin_event_cb(lv_event_t * e)
 292:..\..\..\arduinoLCD\test\Pain Drain\libraries\lvgl\src\extra\widgets\calendar/lv_calendar.c **** {
 293:..\..\..\arduinoLCD\test\Pain Drain\libraries\lvgl\src\extra\widgets\calendar/lv_calendar.c ****     lv_obj_t * obj = lv_event_get_target(e);
 294:..\..\..\arduinoLCD\test\Pain Drain\libraries\lvgl\src\extra\widgets\calendar/lv_calendar.c ****     lv_obj_draw_part_dsc_t * dsc = lv_event_get_param(e);
 295:..\..\..\arduinoLCD\test\Pain Drain\libraries\lvgl\src\extra\widgets\calendar/lv_calendar.c ****     if(dsc->part == LV_PART_ITEMS) {
 296:..\..\..\arduinoLCD\test\Pain Drain\libraries\lvgl\src\extra\widgets\calendar/lv_calendar.c ****         /*Day name styles*/
 297:..\..\..\arduinoLCD\test\Pain Drain\libraries\lvgl\src\extra\widgets\calendar/lv_calendar.c ****         if(dsc->id < 7) {
 298:..\..\..\arduinoLCD\test\Pain Drain\libraries\lvgl\src\extra\widgets\calendar/lv_calendar.c ****             dsc->rect_dsc->bg_opa = LV_OPA_TRANSP;
 299:..\..\..\arduinoLCD\test\Pain Drain\libraries\lvgl\src\extra\widgets\calendar/lv_calendar.c ****             dsc->rect_dsc->border_opa = LV_OPA_TRANSP;
 300:..\..\..\arduinoLCD\test\Pain Drain\libraries\lvgl\src\extra\widgets\calendar/lv_calendar.c ****         }
 301:..\..\..\arduinoLCD\test\Pain Drain\libraries\lvgl\src\extra\widgets\calendar/lv_calendar.c ****         else if(lv_btnmatrix_has_btn_ctrl(obj, dsc->id, LV_BTNMATRIX_CTRL_DISABLED)) {
 302:..\..\..\arduinoLCD\test\Pain Drain\libraries\lvgl\src\extra\widgets\calendar/lv_calendar.c ****             dsc->rect_dsc->bg_opa = LV_OPA_TRANSP;
 303:..\..\..\arduinoLCD\test\Pain Drain\libraries\lvgl\src\extra\widgets\calendar/lv_calendar.c ****             dsc->rect_dsc->border_opa = LV_OPA_TRANSP;
 304:..\..\..\arduinoLCD\test\Pain Drain\libraries\lvgl\src\extra\widgets\calendar/lv_calendar.c ****             dsc->label_dsc->color = lv_palette_main(LV_PALETTE_GREY);
 305:..\..\..\arduinoLCD\test\Pain Drain\libraries\lvgl\src\extra\widgets\calendar/lv_calendar.c ****         }
 306:..\..\..\arduinoLCD\test\Pain Drain\libraries\lvgl\src\extra\widgets\calendar/lv_calendar.c **** 
 307:..\..\..\arduinoLCD\test\Pain Drain\libraries\lvgl\src\extra\widgets\calendar/lv_calendar.c ****         if(lv_btnmatrix_has_btn_ctrl(obj, dsc->id, LV_CALENDAR_CTRL_HIGHLIGHT)) {
 308:..\..\..\arduinoLCD\test\Pain Drain\libraries\lvgl\src\extra\widgets\calendar/lv_calendar.c ****             dsc->rect_dsc->bg_opa = LV_OPA_40;
 309:..\..\..\arduinoLCD\test\Pain Drain\libraries\lvgl\src\extra\widgets\calendar/lv_calendar.c ****             dsc->rect_dsc->bg_color = lv_theme_get_color_primary(obj);
 310:..\..\..\arduinoLCD\test\Pain Drain\libraries\lvgl\src\extra\widgets\calendar/lv_calendar.c ****             if(lv_btnmatrix_get_selected_btn(obj) == dsc->id) {
 311:..\..\..\arduinoLCD\test\Pain Drain\libraries\lvgl\src\extra\widgets\calendar/lv_calendar.c ****                 dsc->rect_dsc->bg_opa = LV_OPA_70;
 312:..\..\..\arduinoLCD\test\Pain Drain\libraries\lvgl\src\extra\widgets\calendar/lv_calendar.c ****             }
 313:..\..\..\arduinoLCD\test\Pain Drain\libraries\lvgl\src\extra\widgets\calendar/lv_calendar.c ****         }
 314:..\..\..\arduinoLCD\test\Pain Drain\libraries\lvgl\src\extra\widgets\calendar/lv_calendar.c **** 
 315:..\..\..\arduinoLCD\test\Pain Drain\libraries\lvgl\src\extra\widgets\calendar/lv_calendar.c ****         if(lv_btnmatrix_has_btn_ctrl(obj, dsc->id, LV_CALENDAR_CTRL_TODAY)) {
ARM GAS  C:\Users\haske\AppData\Local\Temp\ccp1gvma.s 			page 7


 316:..\..\..\arduinoLCD\test\Pain Drain\libraries\lvgl\src\extra\widgets\calendar/lv_calendar.c ****             dsc->rect_dsc->border_opa = LV_OPA_COVER;
 317:..\..\..\arduinoLCD\test\Pain Drain\libraries\lvgl\src\extra\widgets\calendar/lv_calendar.c ****             dsc->rect_dsc->border_color = lv_theme_get_color_primary(obj);
 318:..\..\..\arduinoLCD\test\Pain Drain\libraries\lvgl\src\extra\widgets\calendar/lv_calendar.c ****             dsc->rect_dsc->border_width += 1;
 319:..\..\..\arduinoLCD\test\Pain Drain\libraries\lvgl\src\extra\widgets\calendar/lv_calendar.c ****         }
 320:..\..\..\arduinoLCD\test\Pain Drain\libraries\lvgl\src\extra\widgets\calendar/lv_calendar.c **** 
 321:..\..\..\arduinoLCD\test\Pain Drain\libraries\lvgl\src\extra\widgets\calendar/lv_calendar.c ****     }
 322:..\..\..\arduinoLCD\test\Pain Drain\libraries\lvgl\src\extra\widgets\calendar/lv_calendar.c **** }
 323:..\..\..\arduinoLCD\test\Pain Drain\libraries\lvgl\src\extra\widgets\calendar/lv_calendar.c **** 
 324:..\..\..\arduinoLCD\test\Pain Drain\libraries\lvgl\src\extra\widgets\calendar/lv_calendar.c **** /**
 325:..\..\..\arduinoLCD\test\Pain Drain\libraries\lvgl\src\extra\widgets\calendar/lv_calendar.c ****  * Get the number of days in a month
 326:..\..\..\arduinoLCD\test\Pain Drain\libraries\lvgl\src\extra\widgets\calendar/lv_calendar.c ****  * @param year a year
 327:..\..\..\arduinoLCD\test\Pain Drain\libraries\lvgl\src\extra\widgets\calendar/lv_calendar.c ****  * @param month a month. The range is basically [1..12] but [-11..0] or [13..24] is also
 328:..\..\..\arduinoLCD\test\Pain Drain\libraries\lvgl\src\extra\widgets\calendar/lv_calendar.c ****  *              supported to handle next/prev. year
 329:..\..\..\arduinoLCD\test\Pain Drain\libraries\lvgl\src\extra\widgets\calendar/lv_calendar.c ****  * @return [28..31]
 330:..\..\..\arduinoLCD\test\Pain Drain\libraries\lvgl\src\extra\widgets\calendar/lv_calendar.c ****  */
 331:..\..\..\arduinoLCD\test\Pain Drain\libraries\lvgl\src\extra\widgets\calendar/lv_calendar.c **** static uint8_t get_month_length(int32_t year, int32_t month)
 332:..\..\..\arduinoLCD\test\Pain Drain\libraries\lvgl\src\extra\widgets\calendar/lv_calendar.c **** {
 333:..\..\..\arduinoLCD\test\Pain Drain\libraries\lvgl\src\extra\widgets\calendar/lv_calendar.c ****     month--;
 334:..\..\..\arduinoLCD\test\Pain Drain\libraries\lvgl\src\extra\widgets\calendar/lv_calendar.c ****     if(month < 0) {
 335:..\..\..\arduinoLCD\test\Pain Drain\libraries\lvgl\src\extra\widgets\calendar/lv_calendar.c ****         year--;             /*Already in the previous year (won't be less then -12 to skip a whole 
 336:..\..\..\arduinoLCD\test\Pain Drain\libraries\lvgl\src\extra\widgets\calendar/lv_calendar.c ****         month = 12 + month; /*`month` is negative, the result will be < 12*/
 337:..\..\..\arduinoLCD\test\Pain Drain\libraries\lvgl\src\extra\widgets\calendar/lv_calendar.c ****     }
 338:..\..\..\arduinoLCD\test\Pain Drain\libraries\lvgl\src\extra\widgets\calendar/lv_calendar.c ****     if(month >= 12) {
 339:..\..\..\arduinoLCD\test\Pain Drain\libraries\lvgl\src\extra\widgets\calendar/lv_calendar.c ****         year++;
 340:..\..\..\arduinoLCD\test\Pain Drain\libraries\lvgl\src\extra\widgets\calendar/lv_calendar.c ****         month -= 12;
 341:..\..\..\arduinoLCD\test\Pain Drain\libraries\lvgl\src\extra\widgets\calendar/lv_calendar.c ****     }
 342:..\..\..\arduinoLCD\test\Pain Drain\libraries\lvgl\src\extra\widgets\calendar/lv_calendar.c **** 
 343:..\..\..\arduinoLCD\test\Pain Drain\libraries\lvgl\src\extra\widgets\calendar/lv_calendar.c ****     /*month == 1 is february*/
 344:..\..\..\arduinoLCD\test\Pain Drain\libraries\lvgl\src\extra\widgets\calendar/lv_calendar.c ****     return (month == 1) ? (28 + is_leap_year(year)) : 31 - month % 7 % 2;
 345:..\..\..\arduinoLCD\test\Pain Drain\libraries\lvgl\src\extra\widgets\calendar/lv_calendar.c **** }
 346:..\..\..\arduinoLCD\test\Pain Drain\libraries\lvgl\src\extra\widgets\calendar/lv_calendar.c **** 
 347:..\..\..\arduinoLCD\test\Pain Drain\libraries\lvgl\src\extra\widgets\calendar/lv_calendar.c **** /**
 348:..\..\..\arduinoLCD\test\Pain Drain\libraries\lvgl\src\extra\widgets\calendar/lv_calendar.c ****  * Tells whether a year is leap year or not
 349:..\..\..\arduinoLCD\test\Pain Drain\libraries\lvgl\src\extra\widgets\calendar/lv_calendar.c ****  * @param year a year
 350:..\..\..\arduinoLCD\test\Pain Drain\libraries\lvgl\src\extra\widgets\calendar/lv_calendar.c ****  * @return 0: not leap year; 1: leap year
 351:..\..\..\arduinoLCD\test\Pain Drain\libraries\lvgl\src\extra\widgets\calendar/lv_calendar.c ****  */
 352:..\..\..\arduinoLCD\test\Pain Drain\libraries\lvgl\src\extra\widgets\calendar/lv_calendar.c **** static uint8_t is_leap_year(uint32_t year)
 353:..\..\..\arduinoLCD\test\Pain Drain\libraries\lvgl\src\extra\widgets\calendar/lv_calendar.c **** {
  28              		.loc 1 353 0
  29              		.cfi_startproc
  30              		@ args = 0, pretend = 0, frame = 0
  31              		@ frame_needed = 0, uses_anonymous_args = 0
  32              	.LVL0:
  33 0000 10B5     		push	{r4, lr}
  34              		.cfi_def_cfa_offset 8
  35              		.cfi_offset 4, -8
  36              		.cfi_offset 14, -4
  37 0002 0400     		movs	r4, r0
 354:..\..\..\arduinoLCD\test\Pain Drain\libraries\lvgl\src\extra\widgets\calendar/lv_calendar.c ****     return (year % 4) || ((year % 100 == 0) && (year % 400)) ? 0 : 1;
  38              		.loc 1 354 0
  39 0004 8307     		lsls	r3, r0, #30
  40 0006 0DD1     		bne	.L3
  41              		.loc 1 354 0 is_stmt 0 discriminator 1
  42 0008 6421     		movs	r1, #100
  43 000a FFF7FEFF 		bl	__aeabi_uidivmod
  44              	.LVL1:
  45 000e 0029     		cmp	r1, #0
ARM GAS  C:\Users\haske\AppData\Local\Temp\ccp1gvma.s 			page 8


  46 0010 0AD1     		bne	.L4
  47              		.loc 1 354 0 discriminator 4
  48 0012 9131     		adds	r1, r1, #145
  49 0014 FF31     		adds	r1, r1, #255
  50 0016 2000     		movs	r0, r4
  51 0018 FFF7FEFF 		bl	__aeabi_uidivmod
  52              	.LVL2:
  53 001c 0029     		cmp	r1, #0
  54 001e 05D0     		beq	.L5
  55              		.loc 1 354 0
  56 0020 0020     		movs	r0, #0
  57 0022 04E0     		b	.L2
  58              	.LVL3:
  59              	.L3:
  60 0024 0020     		movs	r0, #0
  61              	.LVL4:
  62 0026 02E0     		b	.L2
  63              	.L4:
  64 0028 0120     		movs	r0, #1
  65 002a 00E0     		b	.L2
  66              	.L5:
  67 002c 0120     		movs	r0, #1
  68              	.L2:
  69              		.loc 1 354 0 discriminator 8
  70 002e C0B2     		uxtb	r0, r0
 355:..\..\..\arduinoLCD\test\Pain Drain\libraries\lvgl\src\extra\widgets\calendar/lv_calendar.c **** }
  71              		.loc 1 355 0 is_stmt 1 discriminator 8
  72              		@ sp needed
  73              	.LVL5:
  74 0030 10BD     		pop	{r4, pc}
  75              		.cfi_endproc
  76              	.LFE216:
  77              		.size	is_leap_year, .-is_leap_year
  78              		.global	__aeabi_idivmod
  79 0032 C046     		.section	.text.get_month_length,"ax",%progbits
  80              		.align	2
  81              		.code	16
  82              		.thumb_func
  83              		.type	get_month_length, %function
  84              	get_month_length:
  85              	.LFB215:
 332:..\..\..\arduinoLCD\test\Pain Drain\libraries\lvgl\src\extra\widgets\calendar/lv_calendar.c ****     month--;
  86              		.loc 1 332 0
  87              		.cfi_startproc
  88              		@ args = 0, pretend = 0, frame = 0
  89              		@ frame_needed = 0, uses_anonymous_args = 0
  90              	.LVL6:
  91 0000 10B5     		push	{r4, lr}
  92              		.cfi_def_cfa_offset 8
  93              		.cfi_offset 4, -8
  94              		.cfi_offset 14, -4
  95              	.LVL7:
 334:..\..\..\arduinoLCD\test\Pain Drain\libraries\lvgl\src\extra\widgets\calendar/lv_calendar.c ****         year--;             /*Already in the previous year (won't be less then -12 to skip a whole 
  96              		.loc 1 334 0
  97 0002 4B1E     		subs	r3, r1, #1
  98 0004 01D5     		bpl	.L7
  99              	.LVL8:
ARM GAS  C:\Users\haske\AppData\Local\Temp\ccp1gvma.s 			page 9


 335:..\..\..\arduinoLCD\test\Pain Drain\libraries\lvgl\src\extra\widgets\calendar/lv_calendar.c ****         month = 12 + month; /*`month` is negative, the result will be < 12*/
 100              		.loc 1 335 0
 101 0006 0138     		subs	r0, r0, #1
 102              	.LVL9:
 336:..\..\..\arduinoLCD\test\Pain Drain\libraries\lvgl\src\extra\widgets\calendar/lv_calendar.c ****     }
 103              		.loc 1 336 0
 104 0008 0C33     		adds	r3, r3, #12
 105              	.LVL10:
 106              	.L7:
 338:..\..\..\arduinoLCD\test\Pain Drain\libraries\lvgl\src\extra\widgets\calendar/lv_calendar.c ****         year++;
 107              		.loc 1 338 0
 108 000a 0B2B     		cmp	r3, #11
 109 000c 01DD     		ble	.L8
 339:..\..\..\arduinoLCD\test\Pain Drain\libraries\lvgl\src\extra\widgets\calendar/lv_calendar.c ****         month -= 12;
 110              		.loc 1 339 0
 111 000e 0130     		adds	r0, r0, #1
 112              	.LVL11:
 340:..\..\..\arduinoLCD\test\Pain Drain\libraries\lvgl\src\extra\widgets\calendar/lv_calendar.c ****     }
 113              		.loc 1 340 0
 114 0010 0C3B     		subs	r3, r3, #12
 115              	.LVL12:
 116              	.L8:
 344:..\..\..\arduinoLCD\test\Pain Drain\libraries\lvgl\src\extra\widgets\calendar/lv_calendar.c **** }
 117              		.loc 1 344 0
 118 0012 012B     		cmp	r3, #1
 119 0014 04D1     		bne	.L9
 344:..\..\..\arduinoLCD\test\Pain Drain\libraries\lvgl\src\extra\widgets\calendar/lv_calendar.c **** }
 120              		.loc 1 344 0 is_stmt 0 discriminator 1
 121 0016 FFF7FEFF 		bl	is_leap_year
 122              	.LVL13:
 123 001a 1C30     		adds	r0, r0, #28
 124 001c C0B2     		uxtb	r0, r0
 125 001e 0BE0     		b	.L10
 126              	.LVL14:
 127              	.L9:
 344:..\..\..\arduinoLCD\test\Pain Drain\libraries\lvgl\src\extra\widgets\calendar/lv_calendar.c **** }
 128              		.loc 1 344 0 discriminator 2
 129 0020 0721     		movs	r1, #7
 130 0022 1800     		movs	r0, r3
 131              	.LVL15:
 132 0024 FFF7FEFF 		bl	__aeabi_idivmod
 133              	.LVL16:
 134 0028 CB0F     		lsrs	r3, r1, #31
 135 002a C918     		adds	r1, r1, r3
 136 002c 0120     		movs	r0, #1
 137 002e 0140     		ands	r1, r0
 138 0030 C91A     		subs	r1, r1, r3
 139 0032 1F20     		movs	r0, #31
 140 0034 401A     		subs	r0, r0, r1
 141 0036 C0B2     		uxtb	r0, r0
 142              	.L10:
 345:..\..\..\arduinoLCD\test\Pain Drain\libraries\lvgl\src\extra\widgets\calendar/lv_calendar.c **** 
 143              		.loc 1 345 0 is_stmt 1 discriminator 4
 144              		@ sp needed
 145 0038 10BD     		pop	{r4, pc}
 146              		.cfi_endproc
 147              	.LFE215:
ARM GAS  C:\Users\haske\AppData\Local\Temp\ccp1gvma.s 			page 10


 148              		.size	get_month_length, .-get_month_length
 149              		.global	__aeabi_uidiv
 150 003a C046     		.section	.text.get_day_of_week,"ax",%progbits
 151              		.align	2
 152              		.code	16
 153              		.thumb_func
 154              		.type	get_day_of_week, %function
 155              	get_day_of_week:
 156              	.LFB217:
 356:..\..\..\arduinoLCD\test\Pain Drain\libraries\lvgl\src\extra\widgets\calendar/lv_calendar.c **** 
 357:..\..\..\arduinoLCD\test\Pain Drain\libraries\lvgl\src\extra\widgets\calendar/lv_calendar.c **** /**
 358:..\..\..\arduinoLCD\test\Pain Drain\libraries\lvgl\src\extra\widgets\calendar/lv_calendar.c ****  * Get the day of the week
 359:..\..\..\arduinoLCD\test\Pain Drain\libraries\lvgl\src\extra\widgets\calendar/lv_calendar.c ****  * @param year a year
 360:..\..\..\arduinoLCD\test\Pain Drain\libraries\lvgl\src\extra\widgets\calendar/lv_calendar.c ****  * @param month a  month [1..12]
 361:..\..\..\arduinoLCD\test\Pain Drain\libraries\lvgl\src\extra\widgets\calendar/lv_calendar.c ****  * @param day a day [1..32]
 362:..\..\..\arduinoLCD\test\Pain Drain\libraries\lvgl\src\extra\widgets\calendar/lv_calendar.c ****  * @return [0..6] which means [Sun..Sat] or [Mon..Sun] depending on LV_CALENDAR_WEEK_STARTS_MONDAY
 363:..\..\..\arduinoLCD\test\Pain Drain\libraries\lvgl\src\extra\widgets\calendar/lv_calendar.c ****  */
 364:..\..\..\arduinoLCD\test\Pain Drain\libraries\lvgl\src\extra\widgets\calendar/lv_calendar.c **** static uint8_t get_day_of_week(uint32_t year, uint32_t month, uint32_t day)
 365:..\..\..\arduinoLCD\test\Pain Drain\libraries\lvgl\src\extra\widgets\calendar/lv_calendar.c **** {
 157              		.loc 1 365 0
 158              		.cfi_startproc
 159              		@ args = 0, pretend = 0, frame = 0
 160              		@ frame_needed = 0, uses_anonymous_args = 0
 161              	.LVL17:
 162 0000 70B5     		push	{r4, r5, r6, lr}
 163              		.cfi_def_cfa_offset 16
 164              		.cfi_offset 4, -16
 165              		.cfi_offset 5, -12
 166              		.cfi_offset 6, -8
 167              		.cfi_offset 14, -4
 168 0002 1500     		movs	r5, r2
 366:..\..\..\arduinoLCD\test\Pain Drain\libraries\lvgl\src\extra\widgets\calendar/lv_calendar.c ****     uint32_t a = month < 3 ? 1 : 0;
 169              		.loc 1 366 0
 170 0004 0023     		movs	r3, #0
 171 0006 0222     		movs	r2, #2
 172              	.LVL18:
 173 0008 8A42     		cmp	r2, r1
 174 000a 5B41     		adcs	r3, r3, r3
 175 000c DBB2     		uxtb	r3, r3
 176              	.LVL19:
 367:..\..\..\arduinoLCD\test\Pain Drain\libraries\lvgl\src\extra\widgets\calendar/lv_calendar.c ****     uint32_t b = year - a;
 177              		.loc 1 367 0
 178 000e C41A     		subs	r4, r0, r3
 179              	.LVL20:
 368:..\..\..\arduinoLCD\test\Pain Drain\libraries\lvgl\src\extra\widgets\calendar/lv_calendar.c **** 
 369:..\..\..\arduinoLCD\test\Pain Drain\libraries\lvgl\src\extra\widgets\calendar/lv_calendar.c **** #if LV_CALENDAR_WEEK_STARTS_MONDAY
 370:..\..\..\arduinoLCD\test\Pain Drain\libraries\lvgl\src\extra\widgets\calendar/lv_calendar.c ****     uint32_t day_of_week = (day + (31 * (month - 2 + 12 * a) / 12) + b + (b / 4) - (b / 100) + (b /
 371:..\..\..\arduinoLCD\test\Pain Drain\libraries\lvgl\src\extra\widgets\calendar/lv_calendar.c **** #else
 372:..\..\..\arduinoLCD\test\Pain Drain\libraries\lvgl\src\extra\widgets\calendar/lv_calendar.c ****     uint32_t day_of_week = (day + (31 * (month - 2 + 12 * a) / 12) + b + (b / 4) - (b / 100) + (b /
 180              		.loc 1 372 0
 181 0010 5A00     		lsls	r2, r3, #1
 182 0012 D318     		adds	r3, r2, r3
 183              	.LVL21:
 184 0014 9A00     		lsls	r2, r3, #2
 185 0016 8918     		adds	r1, r1, r2
 186              	.LVL22:
 187 0018 4B01     		lsls	r3, r1, #5
ARM GAS  C:\Users\haske\AppData\Local\Temp\ccp1gvma.s 			page 11


 188 001a 581A     		subs	r0, r3, r1
 189              	.LVL23:
 190 001c 3E38     		subs	r0, r0, #62
 191 001e 0C21     		movs	r1, #12
 192 0020 FFF7FEFF 		bl	__aeabi_uidiv
 193              	.LVL24:
 194 0024 4519     		adds	r5, r0, r5
 195              	.LVL25:
 196 0026 6519     		adds	r5, r4, r5
 197 0028 A308     		lsrs	r3, r4, #2
 198 002a ED18     		adds	r5, r5, r3
 199 002c 6421     		movs	r1, #100
 200 002e 2000     		movs	r0, r4
 201 0030 FFF7FEFF 		bl	__aeabi_uidiv
 202              	.LVL26:
 203 0034 2D1A     		subs	r5, r5, r0
 204 0036 C821     		movs	r1, #200
 205 0038 4900     		lsls	r1, r1, #1
 206 003a 2000     		movs	r0, r4
 207 003c FFF7FEFF 		bl	__aeabi_uidiv
 208              	.LVL27:
 209 0040 2818     		adds	r0, r5, r0
 210 0042 0721     		movs	r1, #7
 211 0044 FFF7FEFF 		bl	__aeabi_uidivmod
 212              	.LVL28:
 373:..\..\..\arduinoLCD\test\Pain Drain\libraries\lvgl\src\extra\widgets\calendar/lv_calendar.c **** #endif
 374:..\..\..\arduinoLCD\test\Pain Drain\libraries\lvgl\src\extra\widgets\calendar/lv_calendar.c **** 
 375:..\..\..\arduinoLCD\test\Pain Drain\libraries\lvgl\src\extra\widgets\calendar/lv_calendar.c ****     return day_of_week  ;
 213              		.loc 1 375 0
 214 0048 C8B2     		uxtb	r0, r1
 376:..\..\..\arduinoLCD\test\Pain Drain\libraries\lvgl\src\extra\widgets\calendar/lv_calendar.c **** }
 215              		.loc 1 376 0
 216              		@ sp needed
 217              	.LVL29:
 218 004a 70BD     		pop	{r4, r5, r6, pc}
 219              		.cfi_endproc
 220              	.LFE217:
 221              		.size	get_day_of_week, .-get_day_of_week
 222              		.section	.text.draw_part_begin_event_cb,"ax",%progbits
 223              		.align	2
 224              		.code	16
 225              		.thumb_func
 226              		.type	draw_part_begin_event_cb, %function
 227              	draw_part_begin_event_cb:
 228              	.LFB214:
 292:..\..\..\arduinoLCD\test\Pain Drain\libraries\lvgl\src\extra\widgets\calendar/lv_calendar.c ****     lv_obj_t * obj = lv_event_get_target(e);
 229              		.loc 1 292 0
 230              		.cfi_startproc
 231              		@ args = 0, pretend = 0, frame = 0
 232              		@ frame_needed = 0, uses_anonymous_args = 0
 233              	.LVL30:
 234 0000 70B5     		push	{r4, r5, r6, lr}
 235              		.cfi_def_cfa_offset 16
 236              		.cfi_offset 4, -16
 237              		.cfi_offset 5, -12
 238              		.cfi_offset 6, -8
 239              		.cfi_offset 14, -4
ARM GAS  C:\Users\haske\AppData\Local\Temp\ccp1gvma.s 			page 12


 240 0002 0400     		movs	r4, r0
 293:..\..\..\arduinoLCD\test\Pain Drain\libraries\lvgl\src\extra\widgets\calendar/lv_calendar.c ****     lv_obj_draw_part_dsc_t * dsc = lv_event_get_param(e);
 241              		.loc 1 293 0
 242 0004 FFF7FEFF 		bl	lv_event_get_target
 243              	.LVL31:
 244 0008 0500     		movs	r5, r0
 245              	.LVL32:
 294:..\..\..\arduinoLCD\test\Pain Drain\libraries\lvgl\src\extra\widgets\calendar/lv_calendar.c ****     if(dsc->part == LV_PART_ITEMS) {
 246              		.loc 1 294 0
 247 000a 2000     		movs	r0, r4
 248              	.LVL33:
 249 000c FFF7FEFF 		bl	lv_event_get_param
 250              	.LVL34:
 251 0010 0400     		movs	r4, r0
 252              	.LVL35:
 295:..\..\..\arduinoLCD\test\Pain Drain\libraries\lvgl\src\extra\widgets\calendar/lv_calendar.c ****         /*Day name styles*/
 253              		.loc 1 295 0
 254 0012 A023     		movs	r3, #160
 255 0014 DB02     		lsls	r3, r3, #11
 256 0016 426B     		ldr	r2, [r0, #52]
 257 0018 9A42     		cmp	r2, r3
 258 001a 49D1     		bne	.L12
 297:..\..\..\arduinoLCD\test\Pain Drain\libraries\lvgl\src\extra\widgets\calendar/lv_calendar.c ****             dsc->rect_dsc->bg_opa = LV_OPA_TRANSP;
 259              		.loc 1 297 0
 260 001c 816B     		ldr	r1, [r0, #56]
 261 001e 0629     		cmp	r1, #6
 262 0020 06D8     		bhi	.L14
 298:..\..\..\arduinoLCD\test\Pain Drain\libraries\lvgl\src\extra\widgets\calendar/lv_calendar.c ****             dsc->rect_dsc->border_opa = LV_OPA_TRANSP;
 263              		.loc 1 298 0
 264 0022 0023     		movs	r3, #0
 265 0024 0269     		ldr	r2, [r0, #16]
 266 0026 D370     		strb	r3, [r2, #3]
 299:..\..\..\arduinoLCD\test\Pain Drain\libraries\lvgl\src\extra\widgets\calendar/lv_calendar.c ****         }
 267              		.loc 1 299 0
 268 0028 2222     		movs	r2, #34
 269 002a 0169     		ldr	r1, [r0, #16]
 270 002c 8B54     		strb	r3, [r1, r2]
 271 002e 11E0     		b	.L15
 272              	.L14:
 301:..\..\..\arduinoLCD\test\Pain Drain\libraries\lvgl\src\extra\widgets\calendar/lv_calendar.c ****             dsc->rect_dsc->bg_opa = LV_OPA_TRANSP;
 273              		.loc 1 301 0
 274 0030 89B2     		uxth	r1, r1
 275 0032 2022     		movs	r2, #32
 276 0034 2800     		movs	r0, r5
 277              	.LVL36:
 278 0036 FFF7FEFF 		bl	lv_btnmatrix_has_btn_ctrl
 279              	.LVL37:
 280 003a 0028     		cmp	r0, #0
 281 003c 0AD0     		beq	.L15
 302:..\..\..\arduinoLCD\test\Pain Drain\libraries\lvgl\src\extra\widgets\calendar/lv_calendar.c ****             dsc->rect_dsc->border_opa = LV_OPA_TRANSP;
 282              		.loc 1 302 0
 283 003e 0023     		movs	r3, #0
 284 0040 2269     		ldr	r2, [r4, #16]
 285 0042 D370     		strb	r3, [r2, #3]
 303:..\..\..\arduinoLCD\test\Pain Drain\libraries\lvgl\src\extra\widgets\calendar/lv_calendar.c ****             dsc->label_dsc->color = lv_palette_main(LV_PALETTE_GREY);
 286              		.loc 1 303 0
 287 0044 2222     		movs	r2, #34
ARM GAS  C:\Users\haske\AppData\Local\Temp\ccp1gvma.s 			page 13


 288 0046 2169     		ldr	r1, [r4, #16]
 289 0048 8B54     		strb	r3, [r1, r2]
 304:..\..\..\arduinoLCD\test\Pain Drain\libraries\lvgl\src\extra\widgets\calendar/lv_calendar.c ****         }
 290              		.loc 1 304 0
 291 004a 6669     		ldr	r6, [r4, #20]
 292 004c 1220     		movs	r0, #18
 293 004e FFF7FEFF 		bl	lv_palette_main
 294              	.LVL38:
 295 0052 B081     		strh	r0, [r6, #12]
 296              	.L15:
 307:..\..\..\arduinoLCD\test\Pain Drain\libraries\lvgl\src\extra\widgets\calendar/lv_calendar.c ****             dsc->rect_dsc->bg_opa = LV_OPA_40;
 297              		.loc 1 307 0
 298 0054 218F     		ldrh	r1, [r4, #56]
 299 0056 8022     		movs	r2, #128
 300 0058 1202     		lsls	r2, r2, #8
 301 005a 2800     		movs	r0, r5
 302 005c FFF7FEFF 		bl	lv_btnmatrix_has_btn_ctrl
 303              	.LVL39:
 304 0060 0028     		cmp	r0, #0
 305 0062 10D0     		beq	.L16
 308:..\..\..\arduinoLCD\test\Pain Drain\libraries\lvgl\src\extra\widgets\calendar/lv_calendar.c ****             dsc->rect_dsc->bg_color = lv_theme_get_color_primary(obj);
 306              		.loc 1 308 0
 307 0064 6623     		movs	r3, #102
 308 0066 2269     		ldr	r2, [r4, #16]
 309 0068 D370     		strb	r3, [r2, #3]
 309:..\..\..\arduinoLCD\test\Pain Drain\libraries\lvgl\src\extra\widgets\calendar/lv_calendar.c ****             if(lv_btnmatrix_get_selected_btn(obj) == dsc->id) {
 310              		.loc 1 309 0
 311 006a 2669     		ldr	r6, [r4, #16]
 312 006c 2800     		movs	r0, r5
 313 006e FFF7FEFF 		bl	lv_theme_get_color_primary
 314              	.LVL40:
 315 0072 B080     		strh	r0, [r6, #4]
 310:..\..\..\arduinoLCD\test\Pain Drain\libraries\lvgl\src\extra\widgets\calendar/lv_calendar.c ****                 dsc->rect_dsc->bg_opa = LV_OPA_70;
 316              		.loc 1 310 0
 317 0074 2800     		movs	r0, r5
 318 0076 FFF7FEFF 		bl	lv_btnmatrix_get_selected_btn
 319              	.LVL41:
 320 007a A36B     		ldr	r3, [r4, #56]
 321 007c 9842     		cmp	r0, r3
 322 007e 02D1     		bne	.L16
 311:..\..\..\arduinoLCD\test\Pain Drain\libraries\lvgl\src\extra\widgets\calendar/lv_calendar.c ****             }
 323              		.loc 1 311 0
 324 0080 B223     		movs	r3, #178
 325 0082 2269     		ldr	r2, [r4, #16]
 326 0084 D370     		strb	r3, [r2, #3]
 327              	.L16:
 315:..\..\..\arduinoLCD\test\Pain Drain\libraries\lvgl\src\extra\widgets\calendar/lv_calendar.c ****             dsc->rect_dsc->border_opa = LV_OPA_COVER;
 328              		.loc 1 315 0
 329 0086 218F     		ldrh	r1, [r4, #56]
 330 0088 8022     		movs	r2, #128
 331 008a D201     		lsls	r2, r2, #7
 332 008c 2800     		movs	r0, r5
 333 008e FFF7FEFF 		bl	lv_btnmatrix_has_btn_ctrl
 334              	.LVL42:
 335 0092 0028     		cmp	r0, #0
 336 0094 0CD0     		beq	.L12
 316:..\..\..\arduinoLCD\test\Pain Drain\libraries\lvgl\src\extra\widgets\calendar/lv_calendar.c ****             dsc->rect_dsc->border_color = lv_theme_get_color_primary(obj);
ARM GAS  C:\Users\haske\AppData\Local\Temp\ccp1gvma.s 			page 14


 337              		.loc 1 316 0
 338 0096 FF22     		movs	r2, #255
 339 0098 2223     		movs	r3, #34
 340 009a 2169     		ldr	r1, [r4, #16]
 341 009c CA54     		strb	r2, [r1, r3]
 317:..\..\..\arduinoLCD\test\Pain Drain\libraries\lvgl\src\extra\widgets\calendar/lv_calendar.c ****             dsc->rect_dsc->border_width += 1;
 342              		.loc 1 317 0
 343 009e 2669     		ldr	r6, [r4, #16]
 344 00a0 2800     		movs	r0, r5
 345 00a2 FFF7FEFF 		bl	lv_theme_get_color_primary
 346              	.LVL43:
 347 00a6 F083     		strh	r0, [r6, #30]
 318:..\..\..\arduinoLCD\test\Pain Drain\libraries\lvgl\src\extra\widgets\calendar/lv_calendar.c ****         }
 348              		.loc 1 318 0
 349 00a8 2269     		ldr	r2, [r4, #16]
 350 00aa 138C     		ldrh	r3, [r2, #32]
 351 00ac 0133     		adds	r3, r3, #1
 352 00ae 1384     		strh	r3, [r2, #32]
 353              	.L12:
 322:..\..\..\arduinoLCD\test\Pain Drain\libraries\lvgl\src\extra\widgets\calendar/lv_calendar.c **** 
 354              		.loc 1 322 0
 355              		@ sp needed
 356              	.LVL44:
 357              	.LVL45:
 358 00b0 70BD     		pop	{r4, r5, r6, pc}
 359              		.cfi_endproc
 360              	.LFE214:
 361              		.size	draw_part_begin_event_cb, .-draw_part_begin_event_cb
 362 00b2 C046     		.section	.text.highlight_update,"ax",%progbits
 363              		.align	2
 364              		.code	16
 365              		.thumb_func
 366              		.type	highlight_update, %function
 367              	highlight_update:
 368              	.LFB218:
 377:..\..\..\arduinoLCD\test\Pain Drain\libraries\lvgl\src\extra\widgets\calendar/lv_calendar.c **** 
 378:..\..\..\arduinoLCD\test\Pain Drain\libraries\lvgl\src\extra\widgets\calendar/lv_calendar.c **** static void highlight_update(lv_obj_t * obj)
 379:..\..\..\arduinoLCD\test\Pain Drain\libraries\lvgl\src\extra\widgets\calendar/lv_calendar.c **** {
 369              		.loc 1 379 0
 370              		.cfi_startproc
 371              		@ args = 0, pretend = 0, frame = 0
 372              		@ frame_needed = 0, uses_anonymous_args = 0
 373              	.LVL46:
 374 0000 F8B5     		push	{r3, r4, r5, r6, r7, lr}
 375              		.cfi_def_cfa_offset 24
 376              		.cfi_offset 3, -24
 377              		.cfi_offset 4, -20
 378              		.cfi_offset 5, -16
 379              		.cfi_offset 6, -12
 380              		.cfi_offset 7, -8
 381              		.cfi_offset 14, -4
 382 0002 0700     		movs	r7, r0
 383              	.LVL47:
 380:..\..\..\arduinoLCD\test\Pain Drain\libraries\lvgl\src\extra\widgets\calendar/lv_calendar.c ****     lv_calendar_t * calendar = (lv_calendar_t *)obj;
 381:..\..\..\arduinoLCD\test\Pain Drain\libraries\lvgl\src\extra\widgets\calendar/lv_calendar.c ****     uint16_t i;
 382:..\..\..\arduinoLCD\test\Pain Drain\libraries\lvgl\src\extra\widgets\calendar/lv_calendar.c **** 
 383:..\..\..\arduinoLCD\test\Pain Drain\libraries\lvgl\src\extra\widgets\calendar/lv_calendar.c ****     /*Clear all kind of selection*/
ARM GAS  C:\Users\haske\AppData\Local\Temp\ccp1gvma.s 			page 15


 384:..\..\..\arduinoLCD\test\Pain Drain\libraries\lvgl\src\extra\widgets\calendar/lv_calendar.c ****     lv_btnmatrix_clear_btn_ctrl_all(calendar->btnm, LV_CALENDAR_CTRL_TODAY | LV_CALENDAR_CTRL_HIGHL
 384              		.loc 1 384 0
 385 0004 C021     		movs	r1, #192
 386 0006 0902     		lsls	r1, r1, #8
 387 0008 406A     		ldr	r0, [r0, #36]
 388              	.LVL48:
 389 000a FFF7FEFF 		bl	lv_btnmatrix_clear_btn_ctrl_all
 390              	.LVL49:
 385:..\..\..\arduinoLCD\test\Pain Drain\libraries\lvgl\src\extra\widgets\calendar/lv_calendar.c **** 
 386:..\..\..\arduinoLCD\test\Pain Drain\libraries\lvgl\src\extra\widgets\calendar/lv_calendar.c ****     uint8_t day_first = get_day_of_week(calendar->showed_date.year, calendar->showed_date.month, 1)
 391              		.loc 1 386 0
 392 000e B88D     		ldrh	r0, [r7, #44]
 393 0010 2E23     		movs	r3, #46
 394 0012 F956     		ldrsb	r1, [r7, r3]
 395 0014 0122     		movs	r2, #1
 396 0016 FFF7FEFF 		bl	get_day_of_week
 397              	.LVL50:
 398 001a 0500     		movs	r5, r0
 399 001c 0600     		movs	r6, r0
 400              	.LVL51:
 387:..\..\..\arduinoLCD\test\Pain Drain\libraries\lvgl\src\extra\widgets\calendar/lv_calendar.c ****     if(calendar->highlighted_dates) {
 401              		.loc 1 387 0
 402 001e 3B6B     		ldr	r3, [r7, #48]
 403 0020 002B     		cmp	r3, #0
 404 0022 1BD1     		bne	.L23
 405 0024 1EE0     		b	.L19
 406              	.LVL52:
 407              	.L21:
 388:..\..\..\arduinoLCD\test\Pain Drain\libraries\lvgl\src\extra\widgets\calendar/lv_calendar.c ****         for(i = 0; i < calendar->highlighted_dates_num; i++) {
 389:..\..\..\arduinoLCD\test\Pain Drain\libraries\lvgl\src\extra\widgets\calendar/lv_calendar.c ****             if(calendar->highlighted_dates[i].year == calendar->showed_date.year &&
 408              		.loc 1 389 0
 409 0026 A300     		lsls	r3, r4, #2
 410 0028 3A6B     		ldr	r2, [r7, #48]
 411 002a 9446     		mov	ip, r2
 412 002c 6344     		add	r3, r3, ip
 413 002e 1988     		ldrh	r1, [r3]
 414 0030 BA8D     		ldrh	r2, [r7, #44]
 415 0032 9142     		cmp	r1, r2
 416 0034 0FD1     		bne	.L20
 390:..\..\..\arduinoLCD\test\Pain Drain\libraries\lvgl\src\extra\widgets\calendar/lv_calendar.c ****                calendar->highlighted_dates[i].month == calendar->showed_date.month) {
 417              		.loc 1 390 0 discriminator 1
 418 0036 0221     		movs	r1, #2
 419 0038 5956     		ldrsb	r1, [r3, r1]
 420 003a 2E22     		movs	r2, #46
 421 003c BA56     		ldrsb	r2, [r7, r2]
 389:..\..\..\arduinoLCD\test\Pain Drain\libraries\lvgl\src\extra\widgets\calendar/lv_calendar.c ****                calendar->highlighted_dates[i].month == calendar->showed_date.month) {
 422              		.loc 1 389 0 discriminator 1
 423 003e 9142     		cmp	r1, r2
 424 0040 09D1     		bne	.L20
 391:..\..\..\arduinoLCD\test\Pain Drain\libraries\lvgl\src\extra\widgets\calendar/lv_calendar.c ****                 lv_btnmatrix_set_btn_ctrl(calendar->btnm, calendar->highlighted_dates[i].day - 1 + 
 425              		.loc 1 391 0
 426 0042 0321     		movs	r1, #3
 427 0044 5956     		ldrsb	r1, [r3, r1]
 428 0046 8919     		adds	r1, r1, r6
 429 0048 0631     		adds	r1, r1, #6
 430 004a 89B2     		uxth	r1, r1
 431 004c 8022     		movs	r2, #128
ARM GAS  C:\Users\haske\AppData\Local\Temp\ccp1gvma.s 			page 16


 432 004e 1202     		lsls	r2, r2, #8
 433 0050 786A     		ldr	r0, [r7, #36]
 434 0052 FFF7FEFF 		bl	lv_btnmatrix_set_btn_ctrl
 435              	.LVL53:
 436              	.L20:
 388:..\..\..\arduinoLCD\test\Pain Drain\libraries\lvgl\src\extra\widgets\calendar/lv_calendar.c ****             if(calendar->highlighted_dates[i].year == calendar->showed_date.year &&
 437              		.loc 1 388 0 discriminator 2
 438 0056 0134     		adds	r4, r4, #1
 439              	.LVL54:
 440 0058 A4B2     		uxth	r4, r4
 441              	.LVL55:
 442 005a 00E0     		b	.L18
 443              	.LVL56:
 444              	.L23:
 445 005c 0024     		movs	r4, #0
 446              	.L18:
 447              	.LVL57:
 388:..\..\..\arduinoLCD\test\Pain Drain\libraries\lvgl\src\extra\widgets\calendar/lv_calendar.c ****             if(calendar->highlighted_dates[i].year == calendar->showed_date.year &&
 448              		.loc 1 388 0 is_stmt 0 discriminator 1
 449 005e BB8E     		ldrh	r3, [r7, #52]
 450 0060 9C42     		cmp	r4, r3
 451 0062 E0D3     		bcc	.L21
 452              	.LVL58:
 453              	.L19:
 392:..\..\..\arduinoLCD\test\Pain Drain\libraries\lvgl\src\extra\widgets\calendar/lv_calendar.c ****                                           LV_CALENDAR_CTRL_HIGHLIGHT);
 393:..\..\..\arduinoLCD\test\Pain Drain\libraries\lvgl\src\extra\widgets\calendar/lv_calendar.c ****             }
 394:..\..\..\arduinoLCD\test\Pain Drain\libraries\lvgl\src\extra\widgets\calendar/lv_calendar.c ****         }
 395:..\..\..\arduinoLCD\test\Pain Drain\libraries\lvgl\src\extra\widgets\calendar/lv_calendar.c ****     }
 396:..\..\..\arduinoLCD\test\Pain Drain\libraries\lvgl\src\extra\widgets\calendar/lv_calendar.c **** 
 397:..\..\..\arduinoLCD\test\Pain Drain\libraries\lvgl\src\extra\widgets\calendar/lv_calendar.c ****     if(calendar->showed_date.year == calendar->today.year && calendar->showed_date.month == calenda
 454              		.loc 1 397 0 is_stmt 1
 455 0064 FB6A     		ldr	r3, [r7, #44]
 456 0066 1A02     		lsls	r2, r3, #8
 457 0068 120A     		lsrs	r2, r2, #8
 458 006a BB6A     		ldr	r3, [r7, #40]
 459 006c 1B02     		lsls	r3, r3, #8
 460 006e 1B0A     		lsrs	r3, r3, #8
 461 0070 9A42     		cmp	r2, r3
 462 0072 09D1     		bne	.L17
 398:..\..\..\arduinoLCD\test\Pain Drain\libraries\lvgl\src\extra\widgets\calendar/lv_calendar.c ****         lv_btnmatrix_set_btn_ctrl(calendar->btnm, calendar->today.day - 1 + day_first + 7, LV_CALEN
 463              		.loc 1 398 0
 464 0074 2B23     		movs	r3, #43
 465 0076 F956     		ldrsb	r1, [r7, r3]
 466 0078 4D19     		adds	r5, r1, r5
 467              	.LVL59:
 468 007a 0635     		adds	r5, r5, #6
 469 007c A9B2     		uxth	r1, r5
 470 007e 786A     		ldr	r0, [r7, #36]
 471 0080 8022     		movs	r2, #128
 472 0082 D201     		lsls	r2, r2, #7
 473 0084 FFF7FEFF 		bl	lv_btnmatrix_set_btn_ctrl
 474              	.LVL60:
 475              	.L17:
 399:..\..\..\arduinoLCD\test\Pain Drain\libraries\lvgl\src\extra\widgets\calendar/lv_calendar.c ****     }
 400:..\..\..\arduinoLCD\test\Pain Drain\libraries\lvgl\src\extra\widgets\calendar/lv_calendar.c **** }
 476              		.loc 1 400 0
 477              		@ sp needed
ARM GAS  C:\Users\haske\AppData\Local\Temp\ccp1gvma.s 			page 17


 478              	.LVL61:
 479 0088 F8BD     		pop	{r3, r4, r5, r6, r7, pc}
 480              		.cfi_endproc
 481              	.LFE218:
 482              		.size	highlight_update, .-highlight_update
 483 008a C046     		.section	.text.lv_calendar_create,"ax",%progbits
 484              		.align	2
 485              		.global	lv_calendar_create
 486              		.code	16
 487              		.thumb_func
 488              		.type	lv_calendar_create, %function
 489              	lv_calendar_create:
 490              	.LFB202:
  61:..\..\..\arduinoLCD\test\Pain Drain\libraries\lvgl\src\extra\widgets\calendar/lv_calendar.c ****     LV_LOG_INFO("begin");
 491              		.loc 1 61 0
 492              		.cfi_startproc
 493              		@ args = 0, pretend = 0, frame = 0
 494              		@ frame_needed = 0, uses_anonymous_args = 0
 495              	.LVL62:
 496 0000 10B5     		push	{r4, lr}
 497              		.cfi_def_cfa_offset 8
 498              		.cfi_offset 4, -8
 499              		.cfi_offset 14, -4
 500 0002 0100     		movs	r1, r0
  63:..\..\..\arduinoLCD\test\Pain Drain\libraries\lvgl\src\extra\widgets\calendar/lv_calendar.c ****     lv_obj_class_init_obj(obj);
 501              		.loc 1 63 0
 502 0004 0348     		ldr	r0, .L25
 503              	.LVL63:
 504 0006 FFF7FEFF 		bl	lv_obj_class_create_obj
 505              	.LVL64:
 506 000a 0400     		movs	r4, r0
 507              	.LVL65:
  64:..\..\..\arduinoLCD\test\Pain Drain\libraries\lvgl\src\extra\widgets\calendar/lv_calendar.c ****     return obj;
 508              		.loc 1 64 0
 509 000c FFF7FEFF 		bl	lv_obj_class_init_obj
 510              	.LVL66:
  66:..\..\..\arduinoLCD\test\Pain Drain\libraries\lvgl\src\extra\widgets\calendar/lv_calendar.c **** 
 511              		.loc 1 66 0
 512 0010 2000     		movs	r0, r4
 513              		@ sp needed
 514              	.LVL67:
 515 0012 10BD     		pop	{r4, pc}
 516              	.L26:
 517              		.align	2
 518              	.L25:
 519 0014 00000000 		.word	.LANCHOR0
 520              		.cfi_endproc
 521              	.LFE202:
 522              		.size	lv_calendar_create, .-lv_calendar_create
 523              		.section	.text.lv_calendar_set_day_names,"ax",%progbits
 524              		.align	2
 525              		.global	lv_calendar_set_day_names
 526              		.code	16
 527              		.thumb_func
 528              		.type	lv_calendar_set_day_names, %function
 529              	lv_calendar_set_day_names:
 530              	.LFB203:
ARM GAS  C:\Users\haske\AppData\Local\Temp\ccp1gvma.s 			page 18


  73:..\..\..\arduinoLCD\test\Pain Drain\libraries\lvgl\src\extra\widgets\calendar/lv_calendar.c ****     LV_ASSERT_OBJ(obj, MY_CLASS);
 531              		.loc 1 73 0
 532              		.cfi_startproc
 533              		@ args = 0, pretend = 0, frame = 0
 534              		@ frame_needed = 0, uses_anonymous_args = 0
 535              	.LVL68:
 536 0000 10B5     		push	{r4, lr}
 537              		.cfi_def_cfa_offset 8
 538              		.cfi_offset 4, -8
 539              		.cfi_offset 14, -4
 540              	.LVL69:
  78:..\..\..\arduinoLCD\test\Pain Drain\libraries\lvgl\src\extra\widgets\calendar/lv_calendar.c ****         calendar->map[i] = day_names[i];
 541              		.loc 1 78 0
 542 0002 0023     		movs	r3, #0
 543 0004 06E0     		b	.L28
 544              	.LVL70:
 545              	.L29:
  79:..\..\..\arduinoLCD\test\Pain Drain\libraries\lvgl\src\extra\widgets\calendar/lv_calendar.c ****     }
 546              		.loc 1 79 0 discriminator 3
 547 0006 9A00     		lsls	r2, r3, #2
 548 0008 5458     		ldr	r4, [r2, r1]
 549 000a 1A00     		movs	r2, r3
 550 000c 0E32     		adds	r2, r2, #14
 551 000e 9200     		lsls	r2, r2, #2
 552 0010 1450     		str	r4, [r2, r0]
  78:..\..\..\arduinoLCD\test\Pain Drain\libraries\lvgl\src\extra\widgets\calendar/lv_calendar.c ****         calendar->map[i] = day_names[i];
 553              		.loc 1 78 0 discriminator 3
 554 0012 0133     		adds	r3, r3, #1
 555              	.LVL71:
 556              	.L28:
  78:..\..\..\arduinoLCD\test\Pain Drain\libraries\lvgl\src\extra\widgets\calendar/lv_calendar.c ****         calendar->map[i] = day_names[i];
 557              		.loc 1 78 0 is_stmt 0 discriminator 1
 558 0014 062B     		cmp	r3, #6
 559 0016 F6D9     		bls	.L29
  81:..\..\..\arduinoLCD\test\Pain Drain\libraries\lvgl\src\extra\widgets\calendar/lv_calendar.c **** }
 560              		.loc 1 81 0 is_stmt 1
 561 0018 FFF7FEFF 		bl	lv_obj_invalidate
 562              	.LVL72:
  82:..\..\..\arduinoLCD\test\Pain Drain\libraries\lvgl\src\extra\widgets\calendar/lv_calendar.c **** 
 563              		.loc 1 82 0
 564              		@ sp needed
 565 001c 10BD     		pop	{r4, pc}
 566              		.cfi_endproc
 567              	.LFE203:
 568              		.size	lv_calendar_set_day_names, .-lv_calendar_set_day_names
 569 001e C046     		.section	.text.lv_calendar_set_today_date,"ax",%progbits
 570              		.align	2
 571              		.global	lv_calendar_set_today_date
 572              		.code	16
 573              		.thumb_func
 574              		.type	lv_calendar_set_today_date, %function
 575              	lv_calendar_set_today_date:
 576              	.LFB204:
  85:..\..\..\arduinoLCD\test\Pain Drain\libraries\lvgl\src\extra\widgets\calendar/lv_calendar.c ****     LV_ASSERT_OBJ(obj, MY_CLASS);
 577              		.loc 1 85 0
 578              		.cfi_startproc
 579              		@ args = 0, pretend = 0, frame = 0
ARM GAS  C:\Users\haske\AppData\Local\Temp\ccp1gvma.s 			page 19


 580              		@ frame_needed = 0, uses_anonymous_args = 0
 581              	.LVL73:
 582 0000 10B5     		push	{r4, lr}
 583              		.cfi_def_cfa_offset 8
 584              		.cfi_offset 4, -8
 585              		.cfi_offset 14, -4
 586              	.LVL74:
  89:..\..\..\arduinoLCD\test\Pain Drain\libraries\lvgl\src\extra\widgets\calendar/lv_calendar.c ****     calendar->today.month        = month;
 587              		.loc 1 89 0
 588 0002 0185     		strh	r1, [r0, #40]
  90:..\..\..\arduinoLCD\test\Pain Drain\libraries\lvgl\src\extra\widgets\calendar/lv_calendar.c ****     calendar->today.day          = day;
 589              		.loc 1 90 0
 590 0004 2A21     		movs	r1, #42
 591              	.LVL75:
 592 0006 4254     		strb	r2, [r0, r1]
  91:..\..\..\arduinoLCD\test\Pain Drain\libraries\lvgl\src\extra\widgets\calendar/lv_calendar.c **** 
 593              		.loc 1 91 0
 594 0008 2B22     		movs	r2, #43
 595              	.LVL76:
 596 000a 8354     		strb	r3, [r0, r2]
  93:..\..\..\arduinoLCD\test\Pain Drain\libraries\lvgl\src\extra\widgets\calendar/lv_calendar.c **** }
 597              		.loc 1 93 0
 598 000c FFF7FEFF 		bl	highlight_update
 599              	.LVL77:
  94:..\..\..\arduinoLCD\test\Pain Drain\libraries\lvgl\src\extra\widgets\calendar/lv_calendar.c **** 
 600              		.loc 1 94 0
 601              		@ sp needed
 602 0010 10BD     		pop	{r4, pc}
 603              		.cfi_endproc
 604              	.LFE204:
 605              		.size	lv_calendar_set_today_date, .-lv_calendar_set_today_date
 606 0012 C046     		.section	.text.lv_calendar_set_highlighted_dates,"ax",%progbits
 607              		.align	2
 608              		.global	lv_calendar_set_highlighted_dates
 609              		.code	16
 610              		.thumb_func
 611              		.type	lv_calendar_set_highlighted_dates, %function
 612              	lv_calendar_set_highlighted_dates:
 613              	.LFB205:
  97:..\..\..\arduinoLCD\test\Pain Drain\libraries\lvgl\src\extra\widgets\calendar/lv_calendar.c ****     LV_ASSERT_NULL(highlighted);
 614              		.loc 1 97 0
 615              		.cfi_startproc
 616              		@ args = 0, pretend = 0, frame = 0
 617              		@ frame_needed = 0, uses_anonymous_args = 0
 618              	.LVL78:
 619 0000 10B5     		push	{r4, lr}
 620              		.cfi_def_cfa_offset 8
 621              		.cfi_offset 4, -8
 622              		.cfi_offset 14, -4
  98:..\..\..\arduinoLCD\test\Pain Drain\libraries\lvgl\src\extra\widgets\calendar/lv_calendar.c **** 
 623              		.loc 1 98 0
 624 0002 0029     		cmp	r1, #0
 625 0004 00D1     		bne	.L32
 626              	.L33:
 627 0006 FEE7     		b	.L33
 628              	.L32:
 629              	.LVL79:
ARM GAS  C:\Users\haske\AppData\Local\Temp\ccp1gvma.s 			page 20


 103:..\..\..\arduinoLCD\test\Pain Drain\libraries\lvgl\src\extra\widgets\calendar/lv_calendar.c ****     calendar->highlighted_dates_num = date_num;
 630              		.loc 1 103 0
 631 0008 0163     		str	r1, [r0, #48]
 104:..\..\..\arduinoLCD\test\Pain Drain\libraries\lvgl\src\extra\widgets\calendar/lv_calendar.c **** 
 632              		.loc 1 104 0
 633 000a 8286     		strh	r2, [r0, #52]
 106:..\..\..\arduinoLCD\test\Pain Drain\libraries\lvgl\src\extra\widgets\calendar/lv_calendar.c **** }
 634              		.loc 1 106 0
 635 000c FFF7FEFF 		bl	highlight_update
 636              	.LVL80:
 107:..\..\..\arduinoLCD\test\Pain Drain\libraries\lvgl\src\extra\widgets\calendar/lv_calendar.c **** 
 637              		.loc 1 107 0
 638              		@ sp needed
 639 0010 10BD     		pop	{r4, pc}
 640              		.cfi_endproc
 641              	.LFE205:
 642              		.size	lv_calendar_set_highlighted_dates, .-lv_calendar_set_highlighted_dates
 643 0012 C046     		.section	.text.lv_calendar_set_showed_date,"ax",%progbits
 644              		.align	2
 645              		.global	lv_calendar_set_showed_date
 646              		.code	16
 647              		.thumb_func
 648              		.type	lv_calendar_set_showed_date, %function
 649              	lv_calendar_set_showed_date:
 650              	.LFB206:
 110:..\..\..\arduinoLCD\test\Pain Drain\libraries\lvgl\src\extra\widgets\calendar/lv_calendar.c ****     LV_ASSERT_OBJ(obj, MY_CLASS);
 651              		.loc 1 110 0
 652              		.cfi_startproc
 653              		@ args = 0, pretend = 0, frame = 8
 654              		@ frame_needed = 0, uses_anonymous_args = 0
 655              	.LVL81:
 656 0000 F0B5     		push	{r4, r5, r6, r7, lr}
 657              		.cfi_def_cfa_offset 20
 658              		.cfi_offset 4, -20
 659              		.cfi_offset 5, -16
 660              		.cfi_offset 6, -12
 661              		.cfi_offset 7, -8
 662              		.cfi_offset 14, -4
 663 0002 5F46     		mov	r7, fp
 664 0004 5646     		mov	r6, r10
 665 0006 4D46     		mov	r5, r9
 666 0008 4446     		mov	r4, r8
 667 000a F0B4     		push	{r4, r5, r6, r7}
 668              		.cfi_def_cfa_offset 36
 669              		.cfi_offset 8, -36
 670              		.cfi_offset 9, -32
 671              		.cfi_offset 10, -28
 672              		.cfi_offset 11, -24
 673 000c 83B0     		sub	sp, sp, #12
 674              		.cfi_def_cfa_offset 48
 675 000e 0400     		movs	r4, r0
 676              	.LVL82:
 114:..\..\..\arduinoLCD\test\Pain Drain\libraries\lvgl\src\extra\widgets\calendar/lv_calendar.c ****     calendar->showed_date.month  = month;
 677              		.loc 1 114 0
 678 0010 8BB2     		uxth	r3, r1
 679 0012 0093     		str	r3, [sp]
 680 0014 8385     		strh	r3, [r0, #44]
ARM GAS  C:\Users\haske\AppData\Local\Temp\ccp1gvma.s 			page 21


 115:..\..\..\arduinoLCD\test\Pain Drain\libraries\lvgl\src\extra\widgets\calendar/lv_calendar.c ****     calendar->showed_date.day    = 1;
 681              		.loc 1 115 0
 682 0016 53B2     		sxtb	r3, r2
 683 0018 9846     		mov	r8, r3
 684 001a 2E23     		movs	r3, #46
 685 001c 4246     		mov	r2, r8
 686              	.LVL83:
 687 001e C254     		strb	r2, [r0, r3]
 116:..\..\..\arduinoLCD\test\Pain Drain\libraries\lvgl\src\extra\widgets\calendar/lv_calendar.c **** 
 688              		.loc 1 116 0
 689 0020 0122     		movs	r2, #1
 690 0022 0133     		adds	r3, r3, #1
 691 0024 C254     		strb	r2, [r0, r3]
 126:..\..\..\arduinoLCD\test\Pain Drain\libraries\lvgl\src\extra\widgets\calendar/lv_calendar.c ****     for(i = 0; i < 7; i++) {
 692              		.loc 1 126 0
 693 0026 2021     		movs	r1, #32
 694              	.LVL84:
 695 0028 406A     		ldr	r0, [r0, #36]
 696              	.LVL85:
 697 002a FFF7FEFF 		bl	lv_btnmatrix_clear_btn_ctrl_all
 698              	.LVL86:
 127:..\..\..\arduinoLCD\test\Pain Drain\libraries\lvgl\src\extra\widgets\calendar/lv_calendar.c ****         lv_btnmatrix_set_btn_ctrl(calendar->btnm, i, LV_BTNMATRIX_CTRL_DISABLED);
 699              		.loc 1 127 0
 700 002e 0025     		movs	r5, #0
 701 0030 05E0     		b	.L35
 702              	.LVL87:
 703              	.L36:
 128:..\..\..\arduinoLCD\test\Pain Drain\libraries\lvgl\src\extra\widgets\calendar/lv_calendar.c ****     }
 704              		.loc 1 128 0 discriminator 3
 705 0032 A9B2     		uxth	r1, r5
 706 0034 2022     		movs	r2, #32
 707 0036 606A     		ldr	r0, [r4, #36]
 708 0038 FFF7FEFF 		bl	lv_btnmatrix_set_btn_ctrl
 709              	.LVL88:
 127:..\..\..\arduinoLCD\test\Pain Drain\libraries\lvgl\src\extra\widgets\calendar/lv_calendar.c ****         lv_btnmatrix_set_btn_ctrl(calendar->btnm, i, LV_BTNMATRIX_CTRL_DISABLED);
 710              		.loc 1 127 0 discriminator 3
 711 003c 0135     		adds	r5, r5, #1
 712              	.LVL89:
 713              	.L35:
 127:..\..\..\arduinoLCD\test\Pain Drain\libraries\lvgl\src\extra\widgets\calendar/lv_calendar.c ****         lv_btnmatrix_set_btn_ctrl(calendar->btnm, i, LV_BTNMATRIX_CTRL_DISABLED);
 714              		.loc 1 127 0 is_stmt 0 discriminator 1
 715 003e 062D     		cmp	r5, #6
 716 0040 F7D9     		bls	.L36
 131:..\..\..\arduinoLCD\test\Pain Drain\libraries\lvgl\src\extra\widgets\calendar/lv_calendar.c ****     uint8_t day_first = get_day_of_week(d.year, d.month, 1);
 717              		.loc 1 131 0 is_stmt 1
 718 0042 4146     		mov	r1, r8
 719 0044 009D     		ldr	r5, [sp]
 720              	.LVL90:
 721 0046 2800     		movs	r0, r5
 722 0048 FFF7FEFF 		bl	get_month_length
 723              	.LVL91:
 724 004c 8146     		mov	r9, r0
 725              	.LVL92:
 132:..\..\..\arduinoLCD\test\Pain Drain\libraries\lvgl\src\extra\widgets\calendar/lv_calendar.c ****     uint8_t c;
 726              		.loc 1 132 0
 727 004e 0122     		movs	r2, #1
 728 0050 4146     		mov	r1, r8
ARM GAS  C:\Users\haske\AppData\Local\Temp\ccp1gvma.s 			page 22


 729 0052 2800     		movs	r0, r5
 730              	.LVL93:
 731 0054 FFF7FEFF 		bl	get_day_of_week
 732              	.LVL94:
 733 0058 0700     		movs	r7, r0
 734 005a 0190     		str	r0, [sp, #4]
 735              	.LVL95:
 134:..\..\..\arduinoLCD\test\Pain Drain\libraries\lvgl\src\extra\widgets\calendar/lv_calendar.c ****         lv_snprintf(calendar->nums[i], sizeof(calendar->nums[0]), "%d", c);
 736              		.loc 1 134 0
 737 005c 8246     		mov	r10, r0
 738              	.LVL96:
 739 005e 0126     		movs	r6, #1
 740 0060 4D46     		mov	r5, r9
 741 0062 A146     		mov	r9, r4
 742              	.LVL97:
 743 0064 0400     		movs	r4, r0
 744              	.LVL98:
 745 0066 0BE0     		b	.L37
 746              	.LVL99:
 747              	.L38:
 135:..\..\..\arduinoLCD\test\Pain Drain\libraries\lvgl\src\extra\widgets\calendar/lv_calendar.c ****     }
 748              		.loc 1 135 0 discriminator 3
 749 0068 3800     		movs	r0, r7
 750 006a 4630     		adds	r0, r0, #70
 751 006c 8000     		lsls	r0, r0, #2
 752 006e 4844     		add	r0, r0, r9
 753 0070 3300     		movs	r3, r6
 754 0072 384A     		ldr	r2, .L47
 755 0074 0421     		movs	r1, #4
 756 0076 FFF7FEFF 		bl	lv_snprintf
 757              	.LVL100:
 134:..\..\..\arduinoLCD\test\Pain Drain\libraries\lvgl\src\extra\widgets\calendar/lv_calendar.c ****         lv_snprintf(calendar->nums[i], sizeof(calendar->nums[0]), "%d", c);
 758              		.loc 1 134 0 discriminator 3
 759 007a 0137     		adds	r7, r7, #1
 760              	.LVL101:
 761 007c 0136     		adds	r6, r6, #1
 762              	.LVL102:
 763 007e F6B2     		uxtb	r6, r6
 764              	.LVL103:
 765              	.L37:
 134:..\..\..\arduinoLCD\test\Pain Drain\libraries\lvgl\src\extra\widgets\calendar/lv_calendar.c ****         lv_snprintf(calendar->nums[i], sizeof(calendar->nums[0]), "%d", c);
 766              		.loc 1 134 0 is_stmt 0 discriminator 1
 767 0080 2B19     		adds	r3, r5, r4
 768 0082 9F42     		cmp	r7, r3
 769 0084 F0D3     		bcc	.L38
 770 0086 1D00     		movs	r5, r3
 771              	.LVL104:
 772 0088 4C46     		mov	r4, r9
 773              	.LVL105:
 138:..\..\..\arduinoLCD\test\Pain Drain\libraries\lvgl\src\extra\widgets\calendar/lv_calendar.c ****     for(i = 0, c = prev_mo_len - day_first + 1; i < day_first; i++, c++) {
 774              		.loc 1 138 0 is_stmt 1
 775 008a 4146     		mov	r1, r8
 776 008c 0139     		subs	r1, r1, #1
 777 008e 0098     		ldr	r0, [sp]
 778 0090 FFF7FEFF 		bl	get_month_length
 779              	.LVL106:
 139:..\..\..\arduinoLCD\test\Pain Drain\libraries\lvgl\src\extra\widgets\calendar/lv_calendar.c ****         lv_snprintf(calendar->nums[i], sizeof(calendar->nums[0]), "%d", c);
ARM GAS  C:\Users\haske\AppData\Local\Temp\ccp1gvma.s 			page 23


 780              		.loc 1 139 0
 781 0094 019B     		ldr	r3, [sp, #4]
 782 0096 C61A     		subs	r6, r0, r3
 783              	.LVL107:
 784 0098 0136     		adds	r6, r6, #1
 785 009a F6B2     		uxtb	r6, r6
 786              	.LVL108:
 787 009c 0027     		movs	r7, #0
 788 009e A846     		mov	r8, r5
 789 00a0 5546     		mov	r5, r10
 790 00a2 11E0     		b	.L39
 791              	.LVL109:
 792              	.L40:
 140:..\..\..\arduinoLCD\test\Pain Drain\libraries\lvgl\src\extra\widgets\calendar/lv_calendar.c ****         lv_btnmatrix_set_btn_ctrl(calendar->btnm, i + 7, LV_BTNMATRIX_CTRL_DISABLED);
 793              		.loc 1 140 0 discriminator 3
 794 00a4 3800     		movs	r0, r7
 795 00a6 4630     		adds	r0, r0, #70
 796 00a8 8000     		lsls	r0, r0, #2
 797 00aa 2018     		adds	r0, r4, r0
 798 00ac 3300     		movs	r3, r6
 799 00ae 294A     		ldr	r2, .L47
 800 00b0 0421     		movs	r1, #4
 801 00b2 FFF7FEFF 		bl	lv_snprintf
 802              	.LVL110:
 141:..\..\..\arduinoLCD\test\Pain Drain\libraries\lvgl\src\extra\widgets\calendar/lv_calendar.c ****     }
 803              		.loc 1 141 0 discriminator 3
 804 00b6 F91D     		adds	r1, r7, #7
 805 00b8 89B2     		uxth	r1, r1
 806 00ba 2022     		movs	r2, #32
 807 00bc 606A     		ldr	r0, [r4, #36]
 808 00be FFF7FEFF 		bl	lv_btnmatrix_set_btn_ctrl
 809              	.LVL111:
 139:..\..\..\arduinoLCD\test\Pain Drain\libraries\lvgl\src\extra\widgets\calendar/lv_calendar.c ****         lv_snprintf(calendar->nums[i], sizeof(calendar->nums[0]), "%d", c);
 810              		.loc 1 139 0 discriminator 3
 811 00c2 0137     		adds	r7, r7, #1
 812              	.LVL112:
 813 00c4 0136     		adds	r6, r6, #1
 814              	.LVL113:
 815 00c6 F6B2     		uxtb	r6, r6
 816              	.LVL114:
 817              	.L39:
 139:..\..\..\arduinoLCD\test\Pain Drain\libraries\lvgl\src\extra\widgets\calendar/lv_calendar.c ****         lv_snprintf(calendar->nums[i], sizeof(calendar->nums[0]), "%d", c);
 818              		.loc 1 139 0 is_stmt 0 discriminator 1
 819 00c8 AF42     		cmp	r7, r5
 820 00ca EBD3     		bcc	.L40
 821 00cc 4546     		mov	r5, r8
 822              	.LVL115:
 823 00ce 0126     		movs	r6, #1
 824              	.LVL116:
 825 00d0 11E0     		b	.L41
 826              	.LVL117:
 827              	.L42:
 145:..\..\..\arduinoLCD\test\Pain Drain\libraries\lvgl\src\extra\widgets\calendar/lv_calendar.c ****         lv_btnmatrix_set_btn_ctrl(calendar->btnm, i + 7, LV_BTNMATRIX_CTRL_DISABLED);
 828              		.loc 1 145 0 is_stmt 1 discriminator 3
 829 00d2 2800     		movs	r0, r5
 830 00d4 4630     		adds	r0, r0, #70
 831 00d6 8000     		lsls	r0, r0, #2
ARM GAS  C:\Users\haske\AppData\Local\Temp\ccp1gvma.s 			page 24


 832 00d8 2018     		adds	r0, r4, r0
 833 00da 3300     		movs	r3, r6
 834 00dc 1D4A     		ldr	r2, .L47
 835 00de 0421     		movs	r1, #4
 836 00e0 FFF7FEFF 		bl	lv_snprintf
 837              	.LVL118:
 146:..\..\..\arduinoLCD\test\Pain Drain\libraries\lvgl\src\extra\widgets\calendar/lv_calendar.c ****     }
 838              		.loc 1 146 0 discriminator 3
 839 00e4 E91D     		adds	r1, r5, #7
 840 00e6 89B2     		uxth	r1, r1
 841 00e8 2022     		movs	r2, #32
 842 00ea 606A     		ldr	r0, [r4, #36]
 843 00ec FFF7FEFF 		bl	lv_btnmatrix_set_btn_ctrl
 844              	.LVL119:
 144:..\..\..\arduinoLCD\test\Pain Drain\libraries\lvgl\src\extra\widgets\calendar/lv_calendar.c ****         lv_snprintf(calendar->nums[i], sizeof(calendar->nums[0]), "%d", c);
 845              		.loc 1 144 0 discriminator 3
 846 00f0 0135     		adds	r5, r5, #1
 847              	.LVL120:
 848 00f2 0136     		adds	r6, r6, #1
 849              	.LVL121:
 850 00f4 F6B2     		uxtb	r6, r6
 851              	.LVL122:
 852              	.L41:
 144:..\..\..\arduinoLCD\test\Pain Drain\libraries\lvgl\src\extra\widgets\calendar/lv_calendar.c ****         lv_snprintf(calendar->nums[i], sizeof(calendar->nums[0]), "%d", c);
 853              		.loc 1 144 0 is_stmt 0 discriminator 1
 854 00f6 292D     		cmp	r5, #41
 855 00f8 EBD9     		bls	.L42
 149:..\..\..\arduinoLCD\test\Pain Drain\libraries\lvgl\src\extra\widgets\calendar/lv_calendar.c **** 
 856              		.loc 1 149 0 is_stmt 1
 857 00fa 2000     		movs	r0, r4
 858 00fc FFF7FEFF 		bl	highlight_update
 859              	.LVL123:
 152:..\..\..\arduinoLCD\test\Pain Drain\libraries\lvgl\src\extra\widgets\calendar/lv_calendar.c ****         lv_btnmatrix_set_selected_btn(calendar->btnm, day_first + 7);
 860              		.loc 1 152 0
 861 0100 606A     		ldr	r0, [r4, #36]
 862 0102 FFF7FEFF 		bl	lv_btnmatrix_get_selected_btn
 863              	.LVL124:
 864 0106 144B     		ldr	r3, .L47+4
 865 0108 9842     		cmp	r0, r3
 866 010a 05D0     		beq	.L43
 153:..\..\..\arduinoLCD\test\Pain Drain\libraries\lvgl\src\extra\widgets\calendar/lv_calendar.c ****     }
 867              		.loc 1 153 0
 868 010c 0199     		ldr	r1, [sp, #4]
 869 010e 0731     		adds	r1, r1, #7
 870 0110 89B2     		uxth	r1, r1
 871 0112 606A     		ldr	r0, [r4, #36]
 872 0114 FFF7FEFF 		bl	lv_btnmatrix_set_selected_btn
 873              	.LVL125:
 874              	.L43:
 156:..\..\..\arduinoLCD\test\Pain Drain\libraries\lvgl\src\extra\widgets\calendar/lv_calendar.c **** 
 875              		.loc 1 156 0
 876 0118 2000     		movs	r0, r4
 877 011a FFF7FEFF 		bl	lv_obj_invalidate
 878              	.LVL126:
 160:..\..\..\arduinoLCD\test\Pain Drain\libraries\lvgl\src\extra\widgets\calendar/lv_calendar.c ****     for(i = 0; i < child_cnt; i++) {
 879              		.loc 1 160 0
 880 011e 2000     		movs	r0, r4
ARM GAS  C:\Users\haske\AppData\Local\Temp\ccp1gvma.s 			page 25


 881 0120 FFF7FEFF 		bl	lv_obj_get_child_cnt
 882              	.LVL127:
 883 0124 0600     		movs	r6, r0
 884              	.LVL128:
 161:..\..\..\arduinoLCD\test\Pain Drain\libraries\lvgl\src\extra\widgets\calendar/lv_calendar.c ****         lv_obj_t * child = lv_obj_get_child(obj, i);
 885              		.loc 1 161 0
 886 0126 0025     		movs	r5, #0
 887 0128 0BE0     		b	.L44
 888              	.LVL129:
 889              	.L46:
 890              	.LBB4:
 162:..\..\..\arduinoLCD\test\Pain Drain\libraries\lvgl\src\extra\widgets\calendar/lv_calendar.c ****         if(child == calendar->btnm) continue;
 891              		.loc 1 162 0
 892 012a 2900     		movs	r1, r5
 893 012c 2000     		movs	r0, r4
 894 012e FFF7FEFF 		bl	lv_obj_get_child
 895              	.LVL130:
 163:..\..\..\arduinoLCD\test\Pain Drain\libraries\lvgl\src\extra\widgets\calendar/lv_calendar.c ****         lv_event_send(child, LV_EVENT_VALUE_CHANGED, obj);
 896              		.loc 1 163 0
 897 0132 636A     		ldr	r3, [r4, #36]
 898 0134 9842     		cmp	r0, r3
 899 0136 03D0     		beq	.L45
 164:..\..\..\arduinoLCD\test\Pain Drain\libraries\lvgl\src\extra\widgets\calendar/lv_calendar.c ****     }
 900              		.loc 1 164 0
 901 0138 2200     		movs	r2, r4
 902 013a 1C21     		movs	r1, #28
 903 013c FFF7FEFF 		bl	lv_event_send
 904              	.LVL131:
 905              	.L45:
 906              	.LBE4:
 161:..\..\..\arduinoLCD\test\Pain Drain\libraries\lvgl\src\extra\widgets\calendar/lv_calendar.c ****         lv_obj_t * child = lv_obj_get_child(obj, i);
 907              		.loc 1 161 0 discriminator 2
 908 0140 0135     		adds	r5, r5, #1
 909              	.LVL132:
 910              	.L44:
 161:..\..\..\arduinoLCD\test\Pain Drain\libraries\lvgl\src\extra\widgets\calendar/lv_calendar.c ****         lv_obj_t * child = lv_obj_get_child(obj, i);
 911              		.loc 1 161 0 is_stmt 0 discriminator 1
 912 0142 B542     		cmp	r5, r6
 913 0144 F1D3     		bcc	.L46
 166:..\..\..\arduinoLCD\test\Pain Drain\libraries\lvgl\src\extra\widgets\calendar/lv_calendar.c **** 
 914              		.loc 1 166 0 is_stmt 1
 915 0146 03B0     		add	sp, sp, #12
 916              		@ sp needed
 917              	.LVL133:
 918              	.LVL134:
 919              	.LVL135:
 920              	.LVL136:
 921              	.LVL137:
 922 0148 3CBC     		pop	{r2, r3, r4, r5}
 923 014a 9046     		mov	r8, r2
 924 014c 9946     		mov	r9, r3
 925 014e A246     		mov	r10, r4
 926 0150 AB46     		mov	fp, r5
 927 0152 F0BD     		pop	{r4, r5, r6, r7, pc}
 928              	.L48:
 929              		.align	2
 930              	.L47:
ARM GAS  C:\Users\haske\AppData\Local\Temp\ccp1gvma.s 			page 26


 931 0154 00000000 		.word	.LC1
 932 0158 FFFF0000 		.word	65535
 933              		.cfi_endproc
 934              	.LFE206:
 935              		.size	lv_calendar_set_showed_date, .-lv_calendar_set_showed_date
 936              		.section	.text.lv_calendar_constructor,"ax",%progbits
 937              		.align	2
 938              		.code	16
 939              		.thumb_func
 940              		.type	lv_calendar_constructor, %function
 941              	lv_calendar_constructor:
 942              	.LFB213:
 241:..\..\..\arduinoLCD\test\Pain Drain\libraries\lvgl\src\extra\widgets\calendar/lv_calendar.c ****     LV_UNUSED(class_p);
 943              		.loc 1 241 0
 944              		.cfi_startproc
 945              		@ args = 0, pretend = 0, frame = 0
 946              		@ frame_needed = 0, uses_anonymous_args = 0
 947              	.LVL138:
 948 0000 10B5     		push	{r4, lr}
 949              		.cfi_def_cfa_offset 8
 950              		.cfi_offset 4, -8
 951              		.cfi_offset 14, -4
 952 0002 0C00     		movs	r4, r1
 953              	.LVL139:
 246:..\..\..\arduinoLCD\test\Pain Drain\libraries\lvgl\src\extra\widgets\calendar/lv_calendar.c ****     calendar->today.month = 1;
 954              		.loc 1 246 0
 955 0004 3A4A     		ldr	r2, .L55
 956 0006 0A85     		strh	r2, [r1, #40]
 247:..\..\..\arduinoLCD\test\Pain Drain\libraries\lvgl\src\extra\widgets\calendar/lv_calendar.c ****     calendar->today.day   = 1;
 957              		.loc 1 247 0
 958 0008 0123     		movs	r3, #1
 959 000a 2A21     		movs	r1, #42
 960              	.LVL140:
 961 000c 6354     		strb	r3, [r4, r1]
 248:..\..\..\arduinoLCD\test\Pain Drain\libraries\lvgl\src\extra\widgets\calendar/lv_calendar.c **** 
 962              		.loc 1 248 0
 963 000e 0131     		adds	r1, r1, #1
 964 0010 6354     		strb	r3, [r4, r1]
 250:..\..\..\arduinoLCD\test\Pain Drain\libraries\lvgl\src\extra\widgets\calendar/lv_calendar.c ****     calendar->showed_date.month = 1;
 965              		.loc 1 250 0
 966 0012 A285     		strh	r2, [r4, #44]
 251:..\..\..\arduinoLCD\test\Pain Drain\libraries\lvgl\src\extra\widgets\calendar/lv_calendar.c ****     calendar->showed_date.day   = 1;
 967              		.loc 1 251 0
 968 0014 2E22     		movs	r2, #46
 969 0016 A354     		strb	r3, [r4, r2]
 252:..\..\..\arduinoLCD\test\Pain Drain\libraries\lvgl\src\extra\widgets\calendar/lv_calendar.c **** 
 970              		.loc 1 252 0
 971 0018 0132     		adds	r2, r2, #1
 972 001a A354     		strb	r3, [r4, r2]
 254:..\..\..\arduinoLCD\test\Pain Drain\libraries\lvgl\src\extra\widgets\calendar/lv_calendar.c ****     calendar->highlighted_dates_num  = 0;
 973              		.loc 1 254 0
 974 001c 0023     		movs	r3, #0
 975 001e 2363     		str	r3, [r4, #48]
 255:..\..\..\arduinoLCD\test\Pain Drain\libraries\lvgl\src\extra\widgets\calendar/lv_calendar.c **** 
 976              		.loc 1 255 0
 977 0020 A386     		strh	r3, [r4, #52]
 257:..\..\..\arduinoLCD\test\Pain Drain\libraries\lvgl\src\extra\widgets\calendar/lv_calendar.c ****     uint8_t i;
ARM GAS  C:\Users\haske\AppData\Local\Temp\ccp1gvma.s 			page 27


 978              		.loc 1 257 0
 979 0022 2000     		movs	r0, r4
 980              	.LVL141:
 981 0024 1930     		adds	r0, r0, #25
 982 0026 FF30     		adds	r0, r0, #255
 983 0028 7D31     		adds	r1, r1, #125
 984 002a FFF7FEFF 		bl	lv_memset_00
 985              	.LVL142:
 259:..\..\..\arduinoLCD\test\Pain Drain\libraries\lvgl\src\extra\widgets\calendar/lv_calendar.c ****     for(i = 0; i < 8 * 7; i++) {
 986              		.loc 1 259 0
 987 002e 0021     		movs	r1, #0
 260:..\..\..\arduinoLCD\test\Pain Drain\libraries\lvgl\src\extra\widgets\calendar/lv_calendar.c ****         /*Every 8th string is "\n"*/
 988              		.loc 1 260 0
 989 0030 0023     		movs	r3, #0
 990 0032 23E0     		b	.L50
 991              	.LVL143:
 992              	.L54:
 262:..\..\..\arduinoLCD\test\Pain Drain\libraries\lvgl\src\extra\widgets\calendar/lv_calendar.c ****             calendar->map[i] = "\n";
 993              		.loc 1 262 0
 994 0034 002B     		cmp	r3, #0
 995 0036 08D0     		beq	.L51
 262:..\..\..\arduinoLCD\test\Pain Drain\libraries\lvgl\src\extra\widgets\calendar/lv_calendar.c ****             calendar->map[i] = "\n";
 996              		.loc 1 262 0 is_stmt 0 discriminator 1
 997 0038 5A1C     		adds	r2, r3, #1
 998 003a 5207     		lsls	r2, r2, #29
 999 003c 05D1     		bne	.L51
 263:..\..\..\arduinoLCD\test\Pain Drain\libraries\lvgl\src\extra\widgets\calendar/lv_calendar.c ****         }
 1000              		.loc 1 263 0 is_stmt 1
 1001 003e 1A00     		movs	r2, r3
 1002 0040 0E32     		adds	r2, r2, #14
 1003 0042 9200     		lsls	r2, r2, #2
 1004 0044 2B48     		ldr	r0, .L55+4
 1005 0046 1051     		str	r0, [r2, r4]
 1006 0048 16E0     		b	.L52
 1007              	.L51:
 265:..\..\..\arduinoLCD\test\Pain Drain\libraries\lvgl\src\extra\widgets\calendar/lv_calendar.c ****             calendar->map[i] = day_names_def[i];
 1008              		.loc 1 265 0
 1009 004a 062B     		cmp	r3, #6
 1010 004c 08D8     		bhi	.L53
 266:..\..\..\arduinoLCD\test\Pain Drain\libraries\lvgl\src\extra\widgets\calendar/lv_calendar.c ****         }
 1011              		.loc 1 266 0
 1012 004e 9A00     		lsls	r2, r3, #2
 1013 0050 2948     		ldr	r0, .L55+8
 1014 0052 8218     		adds	r2, r0, r2
 1015 0054 D069     		ldr	r0, [r2, #28]
 1016 0056 1A00     		movs	r2, r3
 1017 0058 0E32     		adds	r2, r2, #14
 1018 005a 9200     		lsls	r2, r2, #2
 1019 005c 1051     		str	r0, [r2, r4]
 1020 005e 0BE0     		b	.L52
 1021              	.L53:
 269:..\..\..\arduinoLCD\test\Pain Drain\libraries\lvgl\src\extra\widgets\calendar/lv_calendar.c ****             calendar->map[i] = calendar->nums[j];
 1022              		.loc 1 269 0
 1023 0060 0A00     		movs	r2, r1
 1024 0062 4632     		adds	r2, r2, #70
 1025 0064 9200     		lsls	r2, r2, #2
 1026 0066 7820     		movs	r0, #120
ARM GAS  C:\Users\haske\AppData\Local\Temp\ccp1gvma.s 			page 28


 1027 0068 1055     		strb	r0, [r2, r4]
 270:..\..\..\arduinoLCD\test\Pain Drain\libraries\lvgl\src\extra\widgets\calendar/lv_calendar.c ****             j++;
 1028              		.loc 1 270 0
 1029 006a A218     		adds	r2, r4, r2
 1030 006c 1800     		movs	r0, r3
 1031 006e 0E30     		adds	r0, r0, #14
 1032 0070 8000     		lsls	r0, r0, #2
 1033 0072 0251     		str	r2, [r0, r4]
 271:..\..\..\arduinoLCD\test\Pain Drain\libraries\lvgl\src\extra\widgets\calendar/lv_calendar.c ****         }
 1034              		.loc 1 271 0
 1035 0074 0131     		adds	r1, r1, #1
 1036              	.LVL144:
 1037 0076 C9B2     		uxtb	r1, r1
 1038              	.LVL145:
 1039              	.L52:
 260:..\..\..\arduinoLCD\test\Pain Drain\libraries\lvgl\src\extra\widgets\calendar/lv_calendar.c ****         /*Every 8th string is "\n"*/
 1040              		.loc 1 260 0 discriminator 2
 1041 0078 0133     		adds	r3, r3, #1
 1042              	.LVL146:
 1043 007a DBB2     		uxtb	r3, r3
 1044              	.LVL147:
 1045              	.L50:
 260:..\..\..\arduinoLCD\test\Pain Drain\libraries\lvgl\src\extra\widgets\calendar/lv_calendar.c ****         /*Every 8th string is "\n"*/
 1046              		.loc 1 260 0 is_stmt 0 discriminator 1
 1047 007c 372B     		cmp	r3, #55
 1048 007e D9D9     		bls	.L54
 274:..\..\..\arduinoLCD\test\Pain Drain\libraries\lvgl\src\extra\widgets\calendar/lv_calendar.c **** 
 1049              		.loc 1 274 0 is_stmt 1
 1050 0080 1E4A     		ldr	r2, .L55+12
 1051 0082 8A23     		movs	r3, #138
 1052              	.LVL148:
 1053 0084 5B00     		lsls	r3, r3, #1
 1054 0086 E250     		str	r2, [r4, r3]
 276:..\..\..\arduinoLCD\test\Pain Drain\libraries\lvgl\src\extra\widgets\calendar/lv_calendar.c ****     lv_btnmatrix_set_map(calendar->btnm, calendar->map);
 1055              		.loc 1 276 0
 1056 0088 2000     		movs	r0, r4
 1057 008a FFF7FEFF 		bl	lv_btnmatrix_create
 1058              	.LVL149:
 1059 008e 6062     		str	r0, [r4, #36]
 277:..\..\..\arduinoLCD\test\Pain Drain\libraries\lvgl\src\extra\widgets\calendar/lv_calendar.c ****     lv_btnmatrix_set_btn_ctrl_all(calendar->btnm, LV_BTNMATRIX_CTRL_CLICK_TRIG | LV_BTNMATRIX_CTRL_
 1060              		.loc 1 277 0
 1061 0090 2100     		movs	r1, r4
 1062 0092 3831     		adds	r1, r1, #56
 1063 0094 FFF7FEFF 		bl	lv_btnmatrix_set_map
 1064              	.LVL150:
 278:..\..\..\arduinoLCD\test\Pain Drain\libraries\lvgl\src\extra\widgets\calendar/lv_calendar.c ****     lv_obj_add_event_cb(calendar->btnm, draw_part_begin_event_cb, LV_EVENT_DRAW_PART_BEGIN, NULL);
 1065              		.loc 1 278 0
 1066 0098 8821     		movs	r1, #136
 1067 009a 4900     		lsls	r1, r1, #1
 1068 009c 606A     		ldr	r0, [r4, #36]
 1069 009e FFF7FEFF 		bl	lv_btnmatrix_set_btn_ctrl_all
 1070              	.LVL151:
 279:..\..\..\arduinoLCD\test\Pain Drain\libraries\lvgl\src\extra\widgets\calendar/lv_calendar.c ****     lv_obj_set_width(calendar->btnm, lv_pct(100));
 1071              		.loc 1 279 0
 1072 00a2 0023     		movs	r3, #0
 1073 00a4 1A22     		movs	r2, #26
 1074 00a6 1649     		ldr	r1, .L55+16
ARM GAS  C:\Users\haske\AppData\Local\Temp\ccp1gvma.s 			page 29


 1075 00a8 606A     		ldr	r0, [r4, #36]
 1076 00aa FFF7FEFF 		bl	lv_obj_add_event_cb
 1077              	.LVL152:
 280:..\..\..\arduinoLCD\test\Pain Drain\libraries\lvgl\src\extra\widgets\calendar/lv_calendar.c **** 
 1078              		.loc 1 280 0
 1079 00ae 1549     		ldr	r1, .L55+20
 1080 00b0 606A     		ldr	r0, [r4, #36]
 1081 00b2 FFF7FEFF 		bl	lv_obj_set_width
 1082              	.LVL153:
 282:..\..\..\arduinoLCD\test\Pain Drain\libraries\lvgl\src\extra\widgets\calendar/lv_calendar.c ****     lv_obj_set_flex_grow(calendar->btnm, 1);
 1083              		.loc 1 282 0
 1084 00b6 0121     		movs	r1, #1
 1085 00b8 2000     		movs	r0, r4
 1086 00ba FFF7FEFF 		bl	lv_obj_set_flex_flow
 1087              	.LVL154:
 283:..\..\..\arduinoLCD\test\Pain Drain\libraries\lvgl\src\extra\widgets\calendar/lv_calendar.c **** 
 1088              		.loc 1 283 0
 1089 00be 0121     		movs	r1, #1
 1090 00c0 606A     		ldr	r0, [r4, #36]
 1091 00c2 FFF7FEFF 		bl	lv_obj_set_flex_grow
 1092              	.LVL155:
 285:..\..\..\arduinoLCD\test\Pain Drain\libraries\lvgl\src\extra\widgets\calendar/lv_calendar.c ****     lv_calendar_set_today_date(obj, calendar->today.year, calendar->today.month, calendar->today.da
 1093              		.loc 1 285 0
 1094 00c6 A18D     		ldrh	r1, [r4, #44]
 1095 00c8 2E23     		movs	r3, #46
 1096 00ca E256     		ldrsb	r2, [r4, r3]
 1097 00cc 2000     		movs	r0, r4
 1098 00ce FFF7FEFF 		bl	lv_calendar_set_showed_date
 1099              	.LVL156:
 286:..\..\..\arduinoLCD\test\Pain Drain\libraries\lvgl\src\extra\widgets\calendar/lv_calendar.c **** 
 1100              		.loc 1 286 0
 1101 00d2 218D     		ldrh	r1, [r4, #40]
 1102 00d4 2A23     		movs	r3, #42
 1103 00d6 E256     		ldrsb	r2, [r4, r3]
 1104 00d8 0133     		adds	r3, r3, #1
 1105 00da E356     		ldrsb	r3, [r4, r3]
 1106 00dc 2000     		movs	r0, r4
 1107 00de FFF7FEFF 		bl	lv_calendar_set_today_date
 1108              	.LVL157:
 288:..\..\..\arduinoLCD\test\Pain Drain\libraries\lvgl\src\extra\widgets\calendar/lv_calendar.c **** }
 1109              		.loc 1 288 0
 1110 00e2 606A     		ldr	r0, [r4, #36]
 1111 00e4 8021     		movs	r1, #128
 1112 00e6 C901     		lsls	r1, r1, #7
 1113 00e8 FFF7FEFF 		bl	lv_obj_add_flag
 1114              	.LVL158:
 289:..\..\..\arduinoLCD\test\Pain Drain\libraries\lvgl\src\extra\widgets\calendar/lv_calendar.c **** 
 1115              		.loc 1 289 0
 1116              		@ sp needed
 1117              	.LVL159:
 1118 00ec 10BD     		pop	{r4, pc}
 1119              	.L56:
 1120 00ee C046     		.align	2
 1121              	.L55:
 1122 00f0 E4070000 		.word	2020
 1123 00f4 04000000 		.word	.LC3
 1124 00f8 00000000 		.word	.LANCHOR0
ARM GAS  C:\Users\haske\AppData\Local\Temp\ccp1gvma.s 			page 30


 1125 00fc 08000000 		.word	.LC6
 1126 0100 00000000 		.word	draw_part_begin_event_cb
 1127 0104 64200000 		.word	8292
 1128              		.cfi_endproc
 1129              	.LFE213:
 1130              		.size	lv_calendar_constructor, .-lv_calendar_constructor
 1131              		.section	.text.lv_calendar_get_btnmatrix,"ax",%progbits
 1132              		.align	2
 1133              		.global	lv_calendar_get_btnmatrix
 1134              		.code	16
 1135              		.thumb_func
 1136              		.type	lv_calendar_get_btnmatrix, %function
 1137              	lv_calendar_get_btnmatrix:
 1138              	.LFB207:
 173:..\..\..\arduinoLCD\test\Pain Drain\libraries\lvgl\src\extra\widgets\calendar/lv_calendar.c ****     LV_ASSERT_OBJ(obj, MY_CLASS);
 1139              		.loc 1 173 0
 1140              		.cfi_startproc
 1141              		@ args = 0, pretend = 0, frame = 0
 1142              		@ frame_needed = 0, uses_anonymous_args = 0
 1143              		@ link register save eliminated.
 1144              	.LVL160:
 176:..\..\..\arduinoLCD\test\Pain Drain\libraries\lvgl\src\extra\widgets\calendar/lv_calendar.c **** }
 1145              		.loc 1 176 0
 1146 0000 406A     		ldr	r0, [r0, #36]
 1147              	.LVL161:
 177:..\..\..\arduinoLCD\test\Pain Drain\libraries\lvgl\src\extra\widgets\calendar/lv_calendar.c **** 
 1148              		.loc 1 177 0
 1149              		@ sp needed
 1150 0002 7047     		bx	lr
 1151              		.cfi_endproc
 1152              	.LFE207:
 1153              		.size	lv_calendar_get_btnmatrix, .-lv_calendar_get_btnmatrix
 1154              		.section	.text.lv_calendar_get_today_date,"ax",%progbits
 1155              		.align	2
 1156              		.global	lv_calendar_get_today_date
 1157              		.code	16
 1158              		.thumb_func
 1159              		.type	lv_calendar_get_today_date, %function
 1160              	lv_calendar_get_today_date:
 1161              	.LFB208:
 180:..\..\..\arduinoLCD\test\Pain Drain\libraries\lvgl\src\extra\widgets\calendar/lv_calendar.c ****     LV_ASSERT_OBJ(obj, MY_CLASS);
 1162              		.loc 1 180 0
 1163              		.cfi_startproc
 1164              		@ args = 0, pretend = 0, frame = 0
 1165              		@ frame_needed = 0, uses_anonymous_args = 0
 1166              		@ link register save eliminated.
 1167              	.LVL162:
 184:..\..\..\arduinoLCD\test\Pain Drain\libraries\lvgl\src\extra\widgets\calendar/lv_calendar.c **** }
 1168              		.loc 1 184 0
 1169 0000 2830     		adds	r0, r0, #40
 1170              	.LVL163:
 185:..\..\..\arduinoLCD\test\Pain Drain\libraries\lvgl\src\extra\widgets\calendar/lv_calendar.c **** 
 1171              		.loc 1 185 0
 1172              		@ sp needed
 1173 0002 7047     		bx	lr
 1174              		.cfi_endproc
 1175              	.LFE208:
ARM GAS  C:\Users\haske\AppData\Local\Temp\ccp1gvma.s 			page 31


 1176              		.size	lv_calendar_get_today_date, .-lv_calendar_get_today_date
 1177              		.section	.text.lv_calendar_get_showed_date,"ax",%progbits
 1178              		.align	2
 1179              		.global	lv_calendar_get_showed_date
 1180              		.code	16
 1181              		.thumb_func
 1182              		.type	lv_calendar_get_showed_date, %function
 1183              	lv_calendar_get_showed_date:
 1184              	.LFB209:
 188:..\..\..\arduinoLCD\test\Pain Drain\libraries\lvgl\src\extra\widgets\calendar/lv_calendar.c ****     LV_ASSERT_OBJ(obj, MY_CLASS);
 1185              		.loc 1 188 0
 1186              		.cfi_startproc
 1187              		@ args = 0, pretend = 0, frame = 0
 1188              		@ frame_needed = 0, uses_anonymous_args = 0
 1189              		@ link register save eliminated.
 1190              	.LVL164:
 192:..\..\..\arduinoLCD\test\Pain Drain\libraries\lvgl\src\extra\widgets\calendar/lv_calendar.c **** }
 1191              		.loc 1 192 0
 1192 0000 2C30     		adds	r0, r0, #44
 1193              	.LVL165:
 193:..\..\..\arduinoLCD\test\Pain Drain\libraries\lvgl\src\extra\widgets\calendar/lv_calendar.c **** 
 1194              		.loc 1 193 0
 1195              		@ sp needed
 1196 0002 7047     		bx	lr
 1197              		.cfi_endproc
 1198              	.LFE209:
 1199              		.size	lv_calendar_get_showed_date, .-lv_calendar_get_showed_date
 1200              		.section	.text.lv_calendar_get_highlighted_dates,"ax",%progbits
 1201              		.align	2
 1202              		.global	lv_calendar_get_highlighted_dates
 1203              		.code	16
 1204              		.thumb_func
 1205              		.type	lv_calendar_get_highlighted_dates, %function
 1206              	lv_calendar_get_highlighted_dates:
 1207              	.LFB210:
 196:..\..\..\arduinoLCD\test\Pain Drain\libraries\lvgl\src\extra\widgets\calendar/lv_calendar.c ****     LV_ASSERT_OBJ(obj, MY_CLASS);
 1208              		.loc 1 196 0
 1209              		.cfi_startproc
 1210              		@ args = 0, pretend = 0, frame = 0
 1211              		@ frame_needed = 0, uses_anonymous_args = 0
 1212              		@ link register save eliminated.
 1213              	.LVL166:
 200:..\..\..\arduinoLCD\test\Pain Drain\libraries\lvgl\src\extra\widgets\calendar/lv_calendar.c **** }
 1214              		.loc 1 200 0
 1215 0000 006B     		ldr	r0, [r0, #48]
 1216              	.LVL167:
 201:..\..\..\arduinoLCD\test\Pain Drain\libraries\lvgl\src\extra\widgets\calendar/lv_calendar.c **** 
 1217              		.loc 1 201 0
 1218              		@ sp needed
 1219 0002 7047     		bx	lr
 1220              		.cfi_endproc
 1221              	.LFE210:
 1222              		.size	lv_calendar_get_highlighted_dates, .-lv_calendar_get_highlighted_dates
 1223              		.section	.text.lv_calendar_get_highlighted_dates_num,"ax",%progbits
 1224              		.align	2
 1225              		.global	lv_calendar_get_highlighted_dates_num
 1226              		.code	16
ARM GAS  C:\Users\haske\AppData\Local\Temp\ccp1gvma.s 			page 32


 1227              		.thumb_func
 1228              		.type	lv_calendar_get_highlighted_dates_num, %function
 1229              	lv_calendar_get_highlighted_dates_num:
 1230              	.LFB211:
 204:..\..\..\arduinoLCD\test\Pain Drain\libraries\lvgl\src\extra\widgets\calendar/lv_calendar.c ****     LV_ASSERT_OBJ(obj, MY_CLASS);
 1231              		.loc 1 204 0
 1232              		.cfi_startproc
 1233              		@ args = 0, pretend = 0, frame = 0
 1234              		@ frame_needed = 0, uses_anonymous_args = 0
 1235              		@ link register save eliminated.
 1236              	.LVL168:
 208:..\..\..\arduinoLCD\test\Pain Drain\libraries\lvgl\src\extra\widgets\calendar/lv_calendar.c **** }
 1237              		.loc 1 208 0
 1238 0000 808E     		ldrh	r0, [r0, #52]
 1239              	.LVL169:
 209:..\..\..\arduinoLCD\test\Pain Drain\libraries\lvgl\src\extra\widgets\calendar/lv_calendar.c **** 
 1240              		.loc 1 209 0
 1241              		@ sp needed
 1242 0002 7047     		bx	lr
 1243              		.cfi_endproc
 1244              	.LFE211:
 1245              		.size	lv_calendar_get_highlighted_dates_num, .-lv_calendar_get_highlighted_dates_num
 1246              		.section	.text.lv_calendar_get_pressed_date,"ax",%progbits
 1247              		.align	2
 1248              		.global	lv_calendar_get_pressed_date
 1249              		.code	16
 1250              		.thumb_func
 1251              		.type	lv_calendar_get_pressed_date, %function
 1252              	lv_calendar_get_pressed_date:
 1253              	.LFB212:
 212:..\..\..\arduinoLCD\test\Pain Drain\libraries\lvgl\src\extra\widgets\calendar/lv_calendar.c ****     LV_ASSERT_OBJ(obj, MY_CLASS);
 1254              		.loc 1 212 0
 1255              		.cfi_startproc
 1256              		@ args = 0, pretend = 0, frame = 0
 1257              		@ frame_needed = 0, uses_anonymous_args = 0
 1258              	.LVL170:
 1259 0000 70B5     		push	{r4, r5, r6, lr}
 1260              		.cfi_def_cfa_offset 16
 1261              		.cfi_offset 4, -16
 1262              		.cfi_offset 5, -12
 1263              		.cfi_offset 6, -8
 1264              		.cfi_offset 14, -4
 1265 0002 0500     		movs	r5, r0
 1266 0004 0C00     		movs	r4, r1
 1267              	.LVL171:
 216:..\..\..\arduinoLCD\test\Pain Drain\libraries\lvgl\src\extra\widgets\calendar/lv_calendar.c ****     if(d == LV_BTNMATRIX_BTN_NONE) {
 1268              		.loc 1 216 0
 1269 0006 406A     		ldr	r0, [r0, #36]
 1270              	.LVL172:
 1271 0008 FFF7FEFF 		bl	lv_btnmatrix_get_selected_btn
 1272              	.LVL173:
 217:..\..\..\arduinoLCD\test\Pain Drain\libraries\lvgl\src\extra\widgets\calendar/lv_calendar.c ****         date->year = 0;
 1273              		.loc 1 217 0
 1274 000c 134B     		ldr	r3, .L67
 1275 000e 9842     		cmp	r0, r3
 1276 0010 05D1     		bne	.L63
 218:..\..\..\arduinoLCD\test\Pain Drain\libraries\lvgl\src\extra\widgets\calendar/lv_calendar.c ****         date->month = 0;
ARM GAS  C:\Users\haske\AppData\Local\Temp\ccp1gvma.s 			page 33


 1277              		.loc 1 218 0
 1278 0012 0023     		movs	r3, #0
 1279 0014 2380     		strh	r3, [r4]
 219:..\..\..\arduinoLCD\test\Pain Drain\libraries\lvgl\src\extra\widgets\calendar/lv_calendar.c ****         date->day = 0;
 1280              		.loc 1 219 0
 1281 0016 A370     		strb	r3, [r4, #2]
 220:..\..\..\arduinoLCD\test\Pain Drain\libraries\lvgl\src\extra\widgets\calendar/lv_calendar.c ****         return LV_RES_INV;
 1282              		.loc 1 220 0
 1283 0018 E370     		strb	r3, [r4, #3]
 221:..\..\..\arduinoLCD\test\Pain Drain\libraries\lvgl\src\extra\widgets\calendar/lv_calendar.c ****     }
 1284              		.loc 1 221 0
 1285 001a 0020     		movs	r0, #0
 1286              	.LVL174:
 1287 001c 1CE0     		b	.L64
 1288              	.LVL175:
 1289              	.L63:
 224:..\..\..\arduinoLCD\test\Pain Drain\libraries\lvgl\src\extra\widgets\calendar/lv_calendar.c **** 
 1290              		.loc 1 224 0
 1291 001e 6E6A     		ldr	r6, [r5, #36]
 1292 0020 3000     		movs	r0, r6
 1293              	.LVL176:
 1294 0022 FFF7FEFF 		bl	lv_btnmatrix_get_selected_btn
 1295              	.LVL177:
 1296 0026 0100     		movs	r1, r0
 1297 0028 3000     		movs	r0, r6
 1298 002a FFF7FEFF 		bl	lv_btnmatrix_get_btn_text
 1299              	.LVL178:
 226:..\..\..\arduinoLCD\test\Pain Drain\libraries\lvgl\src\extra\widgets\calendar/lv_calendar.c ****     else date->day = (txt[0] - '0') * 10 + (txt[1] - '0');
 1300              		.loc 1 226 0
 1301 002e 4278     		ldrb	r2, [r0, #1]
 1302 0030 002A     		cmp	r2, #0
 1303 0032 03D1     		bne	.L65
 226:..\..\..\arduinoLCD\test\Pain Drain\libraries\lvgl\src\extra\widgets\calendar/lv_calendar.c ****     else date->day = (txt[0] - '0') * 10 + (txt[1] - '0');
 1304              		.loc 1 226 0 is_stmt 0 discriminator 1
 1305 0034 0378     		ldrb	r3, [r0]
 1306 0036 303B     		subs	r3, r3, #48
 1307 0038 E370     		strb	r3, [r4, #3]
 1308 003a 07E0     		b	.L66
 1309              	.L65:
 227:..\..\..\arduinoLCD\test\Pain Drain\libraries\lvgl\src\extra\widgets\calendar/lv_calendar.c **** 
 1310              		.loc 1 227 0 is_stmt 1
 1311 003c 0178     		ldrb	r1, [r0]
 1312 003e 3039     		subs	r1, r1, #48
 1313 0040 8B00     		lsls	r3, r1, #2
 1314 0042 C918     		adds	r1, r1, r3
 1315 0044 4B00     		lsls	r3, r1, #1
 1316 0046 D318     		adds	r3, r2, r3
 1317 0048 303B     		subs	r3, r3, #48
 1318 004a E370     		strb	r3, [r4, #3]
 1319              	.L66:
 229:..\..\..\arduinoLCD\test\Pain Drain\libraries\lvgl\src\extra\widgets\calendar/lv_calendar.c ****     date->month = calendar->showed_date.month;
 1320              		.loc 1 229 0
 1321 004c AB8D     		ldrh	r3, [r5, #44]
 1322 004e 2380     		strh	r3, [r4]
 230:..\..\..\arduinoLCD\test\Pain Drain\libraries\lvgl\src\extra\widgets\calendar/lv_calendar.c **** 
 1323              		.loc 1 230 0
 1324 0050 2E23     		movs	r3, #46
ARM GAS  C:\Users\haske\AppData\Local\Temp\ccp1gvma.s 			page 34


 1325 0052 EB56     		ldrsb	r3, [r5, r3]
 1326 0054 A370     		strb	r3, [r4, #2]
 232:..\..\..\arduinoLCD\test\Pain Drain\libraries\lvgl\src\extra\widgets\calendar/lv_calendar.c **** }
 1327              		.loc 1 232 0
 1328 0056 0120     		movs	r0, #1
 1329              	.LVL179:
 1330              	.L64:
 233:..\..\..\arduinoLCD\test\Pain Drain\libraries\lvgl\src\extra\widgets\calendar/lv_calendar.c **** 
 1331              		.loc 1 233 0
 1332              		@ sp needed
 1333              	.LVL180:
 1334              	.LVL181:
 1335 0058 70BD     		pop	{r4, r5, r6, pc}
 1336              	.L68:
 1337 005a C046     		.align	2
 1338              	.L67:
 1339 005c FFFF0000 		.word	65535
 1340              		.cfi_endproc
 1341              	.LFE212:
 1342              		.size	lv_calendar_get_pressed_date, .-lv_calendar_get_pressed_date
 1343              		.global	lv_calendar_class
 1344              		.section	.rodata
 1345              		.align	2
 1346              		.set	.LANCHOR0,. + 0
 1347              		.type	lv_calendar_class, %object
 1348              		.size	lv_calendar_class, 28
 1349              	lv_calendar_class:
 1350 0000 00000000 		.word	lv_obj_class
 1351 0004 00000000 		.word	lv_calendar_constructor
 1352 0008 00000000 		.space	12
 1352      00000000 
 1352      00000000 
 1353 0014 C300     		.short	195
 1354 0016 C300     		.short	195
 1355 0018 04       		.byte	4
 1356 0019 1C       		.byte	28
 1357 001a 00       		.byte	0
 1358 001b 00       		.space	1
 1359              		.type	day_names_def, %object
 1360              		.size	day_names_def, 28
 1361              	day_names_def:
 1362 001c 0C000000 		.word	.LC9
 1363 0020 10000000 		.word	.LC10
 1364 0024 14000000 		.word	.LC11
 1365 0028 18000000 		.word	.LC12
 1366 002c 1C000000 		.word	.LC13
 1367 0030 20000000 		.word	.LC14
 1368 0034 24000000 		.word	.LC15
 1369              		.section	.rodata.str1.4,"aMS",%progbits,1
 1370              		.align	2
 1371              	.LC1:
 1372 0000 256400   		.ascii	"%d\000"
 1373 0003 00       		.space	1
 1374              	.LC3:
 1375 0004 0A00     		.ascii	"\012\000"
 1376 0006 0000     		.space	2
 1377              	.LC6:
ARM GAS  C:\Users\haske\AppData\Local\Temp\ccp1gvma.s 			page 35


 1378 0008 00       		.ascii	"\000"
 1379 0009 000000   		.space	3
 1380              	.LC9:
 1381 000c 537500   		.ascii	"Su\000"
 1382 000f 00       		.space	1
 1383              	.LC10:
 1384 0010 4D6F00   		.ascii	"Mo\000"
 1385 0013 00       		.space	1
 1386              	.LC11:
 1387 0014 547500   		.ascii	"Tu\000"
 1388 0017 00       		.space	1
 1389              	.LC12:
 1390 0018 576500   		.ascii	"We\000"
 1391 001b 00       		.space	1
 1392              	.LC13:
 1393 001c 546800   		.ascii	"Th\000"
 1394 001f 00       		.space	1
 1395              	.LC14:
 1396 0020 467200   		.ascii	"Fr\000"
 1397 0023 00       		.space	1
 1398              	.LC15:
 1399 0024 536100   		.ascii	"Sa\000"
 1400              		.text
 1401              	.Letext0:
 1402              		.file 2 "c:\\program files (x86)\\cypress\\psoc creator\\4.4\\psoc creator\\import\\gnu\\arm\\5.4.
 1403              		.file 3 "c:\\program files (x86)\\cypress\\psoc creator\\4.4\\psoc creator\\import\\gnu\\arm\\5.4.
 1404              		.file 4 "c:\\program files (x86)\\cypress\\psoc creator\\4.4\\psoc creator\\import\\gnu\\arm\\5.4.
 1405              		.file 5 "c:\\projects\\paindrain\\arduinolcd\\test\\pain drain\\libraries\\lvgl\\src\\misc\\lv_are
 1406              		.file 6 "c:\\projects\\paindrain\\arduinolcd\\test\\pain drain\\libraries\\lvgl\\src\\font\\lv_fon
 1407              		.file 7 "c:\\projects\\paindrain\\arduinolcd\\test\\pain drain\\libraries\\lvgl\\src\\misc\\lv_typ
 1408              		.file 8 "c:\\projects\\paindrain\\arduinolcd\\test\\pain drain\\libraries\\lvgl\\src\\misc\\lv_col
 1409              		.file 9 "c:\\projects\\paindrain\\arduinolcd\\test\\pain drain\\libraries\\lvgl\\src\\misc\\lv_txt
 1410              		.file 10 "c:\\projects\\paindrain\\arduinolcd\\test\\pain drain\\libraries\\lvgl\\src\\misc\\lv_bi
 1411              		.file 11 "c:\\projects\\paindrain\\arduinolcd\\test\\pain drain\\libraries\\lvgl\\src\\misc\\lv_st
 1412              		.file 12 "c:\\projects\\paindrain\\arduinolcd\\test\\pain drain\\libraries\\lvgl\\src\\draw\\lv_im
 1413              		.file 13 "c:\\projects\\paindrain\\arduinolcd\\test\\pain drain\\libraries\\lvgl\\src\\core\\lv_ob
 1414              		.file 14 "c:\\projects\\paindrain\\arduinolcd\\test\\pain drain\\libraries\\lvgl\\src\\draw\\lv_dr
 1415              		.file 15 "c:\\projects\\paindrain\\arduinolcd\\test\\pain drain\\libraries\\lvgl\\src\\draw\\lv_dr
 1416              		.file 16 "c:\\projects\\paindrain\\arduinolcd\\test\\pain drain\\libraries\\lvgl\\src\\draw\\lv_dr
 1417              		.file 17 "c:\\projects\\paindrain\\arduinolcd\\test\\pain drain\\libraries\\lvgl\\src\\draw\\lv_dr
 1418              		.file 18 "c:\\projects\\paindrain\\arduinolcd\\test\\pain drain\\libraries\\lvgl\\src\\draw\\lv_dr
 1419              		.file 19 "c:\\projects\\paindrain\\arduinolcd\\test\\pain drain\\libraries\\lvgl\\src\\draw\\lv_dr
 1420              		.file 20 "c:\\projects\\paindrain\\arduinolcd\\test\\pain drain\\libraries\\lvgl\\src\\draw\\lv_dr
 1421              		.file 21 "c:\\projects\\paindrain\\arduinolcd\\test\\pain drain\\libraries\\lvgl\\src\\misc\\lv_ll
 1422              		.file 22 "c:\\projects\\paindrain\\arduinolcd\\test\\pain drain\\libraries\\lvgl\\src\\core\\lv_gr
 1423              		.file 23 "c:\\projects\\paindrain\\arduinolcd\\test\\pain drain\\libraries\\lvgl\\src\\core\\lv_ob
 1424              		.file 24 "c:\\projects\\paindrain\\arduinolcd\\test\\pain drain\\libraries\\lvgl\\src\\core\\lv_ob
 1425              		.file 25 "c:\\projects\\paindrain\\arduinolcd\\test\\pain drain\\libraries\\lvgl\\src\\core\\lv_ob
 1426              		.file 26 "c:\\projects\\paindrain\\arduinolcd\\test\\pain drain\\libraries\\lvgl\\src\\core\\lv_ob
 1427              		.file 27 "c:\\projects\\paindrain\\arduinolcd\\test\\pain drain\\libraries\\lvgl\\src\\core\\lv_ev
 1428              		.file 28 "c:\\projects\\paindrain\\arduinolcd\\test\\pain drain\\libraries\\lvgl\\src\\widgets\\lv
 1429              		.file 29 "..\\..\\..\\arduinoLCD\\test\\Pain Drain\\libraries\\lvgl\\src\\extra\\widgets\\calendar
 1430              		.file 30 "c:\\projects\\paindrain\\arduinolcd\\test\\pain drain\\libraries\\lvgl\\src/widgets/lv_b
 1431              		.file 31 "c:\\projects\\paindrain\\arduinolcd\\test\\pain drain\\libraries\\lvgl\\src/extra/layout
 1432              		.file 32 "c:\\projects\\paindrain\\arduinolcd\\test\\pain drain\\libraries\\lvgl\\src/extra/widget
 1433              		.file 33 "c:\\projects\\paindrain\\arduinolcd\\test\\pain drain\\libraries\\lvgl\\src/extra/layout
 1434              		.file 34 "c:\\projects\\paindrain\\arduinolcd\\test\\pain drain\\libraries\\lvgl\\src/core/lv_them
ARM GAS  C:\Users\haske\AppData\Local\Temp\ccp1gvma.s 			page 36


 1435              		.file 35 "c:\\projects\\paindrain\\arduinolcd\\test\\pain drain\\libraries\\lvgl\\src\\core\\lv_ob
 1436              		.file 36 "c:\\projects\\paindrain\\arduinolcd\\test\\pain drain\\libraries\\lvgl\\src\\core\\lv_ob
 1437              		.file 37 "c:\\projects\\paindrain\\arduinolcd\\test\\pain drain\\libraries\\lvgl\\src\\misc\\lv_pr
 1438              		.file 38 "c:\\projects\\paindrain\\arduinolcd\\test\\pain drain\\libraries\\lvgl\\src\\misc\\lv_me