ARM GAS  C:\Users\haske\AppData\Local\Temp\ccIkbvey.s 			page 1


   1              		.syntax unified
   2              		.cpu cortex-m0plus
   3              		.fpu softvfp
   4              		.eabi_attribute 20, 1
   5              		.eabi_attribute 21, 1
   6              		.eabi_attribute 23, 3
   7              		.eabi_attribute 24, 1
   8              		.eabi_attribute 25, 1
   9              		.eabi_attribute 26, 1
  10              		.eabi_attribute 30, 1
  11              		.eabi_attribute 34, 0
  12              		.eabi_attribute 18, 4
  13              		.thumb
  14              		.syntax unified
  15              		.file	"lv_colorwheel.c"
  16              		.text
  17              	.Ltext0:
  18              		.cfi_sections	.debug_frame
  19              		.section	.text.fast_hsv2rgb,"ax",%progbits
  20              		.align	2
  21              		.code	16
  22              		.thumb_func
  23              		.type	fast_hsv2rgb, %function
  24              	fast_hsv2rgb:
  25              	.LFB220:
  26              		.file 1 "..\\..\\..\\arduinoLCD\\test\\Pain Drain\\libraries\\lvgl\\src\\extra\\widgets\\colorwhee
   1:..\..\..\arduinoLCD\test\Pain Drain\libraries\lvgl\src\extra\widgets\colorwheel/lv_colorwheel.c **** /**
   2:..\..\..\arduinoLCD\test\Pain Drain\libraries\lvgl\src\extra\widgets\colorwheel/lv_colorwheel.c ****  * @file lv_colorwheel.c
   3:..\..\..\arduinoLCD\test\Pain Drain\libraries\lvgl\src\extra\widgets\colorwheel/lv_colorwheel.c ****  *
   4:..\..\..\arduinoLCD\test\Pain Drain\libraries\lvgl\src\extra\widgets\colorwheel/lv_colorwheel.c ****  * Based on the work of @AloyseTech and @paulpv.
   5:..\..\..\arduinoLCD\test\Pain Drain\libraries\lvgl\src\extra\widgets\colorwheel/lv_colorwheel.c ****  */
   6:..\..\..\arduinoLCD\test\Pain Drain\libraries\lvgl\src\extra\widgets\colorwheel/lv_colorwheel.c **** 
   7:..\..\..\arduinoLCD\test\Pain Drain\libraries\lvgl\src\extra\widgets\colorwheel/lv_colorwheel.c **** /*********************
   8:..\..\..\arduinoLCD\test\Pain Drain\libraries\lvgl\src\extra\widgets\colorwheel/lv_colorwheel.c ****  *      INCLUDES
   9:..\..\..\arduinoLCD\test\Pain Drain\libraries\lvgl\src\extra\widgets\colorwheel/lv_colorwheel.c ****  *********************/
  10:..\..\..\arduinoLCD\test\Pain Drain\libraries\lvgl\src\extra\widgets\colorwheel/lv_colorwheel.c **** #include "lv_colorwheel.h"
  11:..\..\..\arduinoLCD\test\Pain Drain\libraries\lvgl\src\extra\widgets\colorwheel/lv_colorwheel.c **** #if LV_USE_COLORWHEEL
  12:..\..\..\arduinoLCD\test\Pain Drain\libraries\lvgl\src\extra\widgets\colorwheel/lv_colorwheel.c **** 
  13:..\..\..\arduinoLCD\test\Pain Drain\libraries\lvgl\src\extra\widgets\colorwheel/lv_colorwheel.c **** #include "../../../misc/lv_assert.h"
  14:..\..\..\arduinoLCD\test\Pain Drain\libraries\lvgl\src\extra\widgets\colorwheel/lv_colorwheel.c **** 
  15:..\..\..\arduinoLCD\test\Pain Drain\libraries\lvgl\src\extra\widgets\colorwheel/lv_colorwheel.c **** /*********************
  16:..\..\..\arduinoLCD\test\Pain Drain\libraries\lvgl\src\extra\widgets\colorwheel/lv_colorwheel.c ****  *      DEFINES
  17:..\..\..\arduinoLCD\test\Pain Drain\libraries\lvgl\src\extra\widgets\colorwheel/lv_colorwheel.c ****  *********************/
  18:..\..\..\arduinoLCD\test\Pain Drain\libraries\lvgl\src\extra\widgets\colorwheel/lv_colorwheel.c **** #define MY_CLASS &lv_colorwheel_class
  19:..\..\..\arduinoLCD\test\Pain Drain\libraries\lvgl\src\extra\widgets\colorwheel/lv_colorwheel.c **** 
  20:..\..\..\arduinoLCD\test\Pain Drain\libraries\lvgl\src\extra\widgets\colorwheel/lv_colorwheel.c **** #define LV_CPICKER_DEF_QF 3
  21:..\..\..\arduinoLCD\test\Pain Drain\libraries\lvgl\src\extra\widgets\colorwheel/lv_colorwheel.c **** 
  22:..\..\..\arduinoLCD\test\Pain Drain\libraries\lvgl\src\extra\widgets\colorwheel/lv_colorwheel.c **** /**
  23:..\..\..\arduinoLCD\test\Pain Drain\libraries\lvgl\src\extra\widgets\colorwheel/lv_colorwheel.c ****  * The OUTER_MASK_WIDTH define is required to assist with the placing of a mask over the outer ring
  24:..\..\..\arduinoLCD\test\Pain Drain\libraries\lvgl\src\extra\widgets\colorwheel/lv_colorwheel.c ****  * multicoloured radial lines are calculated for the outer ring of the widget their lengths are jit
  25:..\..\..\arduinoLCD\test\Pain Drain\libraries\lvgl\src\extra\widgets\colorwheel/lv_colorwheel.c ****  * integer based arithmetic. From tests the maximum delta was found to be 2 so the current value is
  26:..\..\..\arduinoLCD\test\Pain Drain\libraries\lvgl\src\extra\widgets\colorwheel/lv_colorwheel.c ****  * appropriate masking.
  27:..\..\..\arduinoLCD\test\Pain Drain\libraries\lvgl\src\extra\widgets\colorwheel/lv_colorwheel.c ****  */
  28:..\..\..\arduinoLCD\test\Pain Drain\libraries\lvgl\src\extra\widgets\colorwheel/lv_colorwheel.c **** #define OUTER_MASK_WIDTH 3
  29:..\..\..\arduinoLCD\test\Pain Drain\libraries\lvgl\src\extra\widgets\colorwheel/lv_colorwheel.c **** 
  30:..\..\..\arduinoLCD\test\Pain Drain\libraries\lvgl\src\extra\widgets\colorwheel/lv_colorwheel.c **** /**********************
  31:..\..\..\arduinoLCD\test\Pain Drain\libraries\lvgl\src\extra\widgets\colorwheel/lv_colorwheel.c ****  *      TYPEDEFS
ARM GAS  C:\Users\haske\AppData\Local\Temp\ccIkbvey.s 			page 2


  32:..\..\..\arduinoLCD\test\Pain Drain\libraries\lvgl\src\extra\widgets\colorwheel/lv_colorwheel.c ****  **********************/
  33:..\..\..\arduinoLCD\test\Pain Drain\libraries\lvgl\src\extra\widgets\colorwheel/lv_colorwheel.c **** 
  34:..\..\..\arduinoLCD\test\Pain Drain\libraries\lvgl\src\extra\widgets\colorwheel/lv_colorwheel.c **** /**********************
  35:..\..\..\arduinoLCD\test\Pain Drain\libraries\lvgl\src\extra\widgets\colorwheel/lv_colorwheel.c ****  *  STATIC PROTOTYPES
  36:..\..\..\arduinoLCD\test\Pain Drain\libraries\lvgl\src\extra\widgets\colorwheel/lv_colorwheel.c ****  **********************/
  37:..\..\..\arduinoLCD\test\Pain Drain\libraries\lvgl\src\extra\widgets\colorwheel/lv_colorwheel.c **** static void lv_colorwheel_constructor(const lv_obj_class_t * class_p, lv_obj_t * obj);
  38:..\..\..\arduinoLCD\test\Pain Drain\libraries\lvgl\src\extra\widgets\colorwheel/lv_colorwheel.c **** static void lv_colorwheel_event(const lv_obj_class_t * class_p, lv_event_t * e);
  39:..\..\..\arduinoLCD\test\Pain Drain\libraries\lvgl\src\extra\widgets\colorwheel/lv_colorwheel.c **** 
  40:..\..\..\arduinoLCD\test\Pain Drain\libraries\lvgl\src\extra\widgets\colorwheel/lv_colorwheel.c **** static void draw_disc_grad(lv_event_t * e);
  41:..\..\..\arduinoLCD\test\Pain Drain\libraries\lvgl\src\extra\widgets\colorwheel/lv_colorwheel.c **** static void draw_knob(lv_event_t * e);
  42:..\..\..\arduinoLCD\test\Pain Drain\libraries\lvgl\src\extra\widgets\colorwheel/lv_colorwheel.c **** static void invalidate_knob(lv_obj_t * obj);
  43:..\..\..\arduinoLCD\test\Pain Drain\libraries\lvgl\src\extra\widgets\colorwheel/lv_colorwheel.c **** static lv_area_t get_knob_area(lv_obj_t * obj);
  44:..\..\..\arduinoLCD\test\Pain Drain\libraries\lvgl\src\extra\widgets\colorwheel/lv_colorwheel.c **** 
  45:..\..\..\arduinoLCD\test\Pain Drain\libraries\lvgl\src\extra\widgets\colorwheel/lv_colorwheel.c **** static void next_color_mode(lv_obj_t * obj);
  46:..\..\..\arduinoLCD\test\Pain Drain\libraries\lvgl\src\extra\widgets\colorwheel/lv_colorwheel.c **** static lv_res_t double_click_reset(lv_obj_t * obj);
  47:..\..\..\arduinoLCD\test\Pain Drain\libraries\lvgl\src\extra\widgets\colorwheel/lv_colorwheel.c **** static void refr_knob_pos(lv_obj_t * obj);
  48:..\..\..\arduinoLCD\test\Pain Drain\libraries\lvgl\src\extra\widgets\colorwheel/lv_colorwheel.c **** static lv_color_t angle_to_mode_color_fast(lv_obj_t * obj, uint16_t angle);
  49:..\..\..\arduinoLCD\test\Pain Drain\libraries\lvgl\src\extra\widgets\colorwheel/lv_colorwheel.c **** static uint16_t get_angle(lv_obj_t * obj);
  50:..\..\..\arduinoLCD\test\Pain Drain\libraries\lvgl\src\extra\widgets\colorwheel/lv_colorwheel.c **** 
  51:..\..\..\arduinoLCD\test\Pain Drain\libraries\lvgl\src\extra\widgets\colorwheel/lv_colorwheel.c **** /**********************
  52:..\..\..\arduinoLCD\test\Pain Drain\libraries\lvgl\src\extra\widgets\colorwheel/lv_colorwheel.c ****  *  STATIC VARIABLES
  53:..\..\..\arduinoLCD\test\Pain Drain\libraries\lvgl\src\extra\widgets\colorwheel/lv_colorwheel.c ****  **********************/
  54:..\..\..\arduinoLCD\test\Pain Drain\libraries\lvgl\src\extra\widgets\colorwheel/lv_colorwheel.c **** const lv_obj_class_t lv_colorwheel_class = {.instance_size = sizeof(lv_colorwheel_t), .base_class =
  55:..\..\..\arduinoLCD\test\Pain Drain\libraries\lvgl\src\extra\widgets\colorwheel/lv_colorwheel.c ****                                             .constructor_cb = lv_colorwheel_constructor,
  56:..\..\..\arduinoLCD\test\Pain Drain\libraries\lvgl\src\extra\widgets\colorwheel/lv_colorwheel.c ****                                             .event_cb = lv_colorwheel_event,
  57:..\..\..\arduinoLCD\test\Pain Drain\libraries\lvgl\src\extra\widgets\colorwheel/lv_colorwheel.c ****                                             .width_def = LV_DPI_DEF * 2,
  58:..\..\..\arduinoLCD\test\Pain Drain\libraries\lvgl\src\extra\widgets\colorwheel/lv_colorwheel.c ****                                             .height_def = LV_DPI_DEF * 2,
  59:..\..\..\arduinoLCD\test\Pain Drain\libraries\lvgl\src\extra\widgets\colorwheel/lv_colorwheel.c ****                                             .editable = LV_OBJ_CLASS_EDITABLE_TRUE,
  60:..\..\..\arduinoLCD\test\Pain Drain\libraries\lvgl\src\extra\widgets\colorwheel/lv_colorwheel.c ****                                            };
  61:..\..\..\arduinoLCD\test\Pain Drain\libraries\lvgl\src\extra\widgets\colorwheel/lv_colorwheel.c **** 
  62:..\..\..\arduinoLCD\test\Pain Drain\libraries\lvgl\src\extra\widgets\colorwheel/lv_colorwheel.c **** static bool create_knob_recolor;
  63:..\..\..\arduinoLCD\test\Pain Drain\libraries\lvgl\src\extra\widgets\colorwheel/lv_colorwheel.c **** 
  64:..\..\..\arduinoLCD\test\Pain Drain\libraries\lvgl\src\extra\widgets\colorwheel/lv_colorwheel.c **** /**********************
  65:..\..\..\arduinoLCD\test\Pain Drain\libraries\lvgl\src\extra\widgets\colorwheel/lv_colorwheel.c ****  *      MACROS
  66:..\..\..\arduinoLCD\test\Pain Drain\libraries\lvgl\src\extra\widgets\colorwheel/lv_colorwheel.c ****  **********************/
  67:..\..\..\arduinoLCD\test\Pain Drain\libraries\lvgl\src\extra\widgets\colorwheel/lv_colorwheel.c **** 
  68:..\..\..\arduinoLCD\test\Pain Drain\libraries\lvgl\src\extra\widgets\colorwheel/lv_colorwheel.c **** /**********************
  69:..\..\..\arduinoLCD\test\Pain Drain\libraries\lvgl\src\extra\widgets\colorwheel/lv_colorwheel.c ****  *   GLOBAL FUNCTIONS
  70:..\..\..\arduinoLCD\test\Pain Drain\libraries\lvgl\src\extra\widgets\colorwheel/lv_colorwheel.c ****  **********************/
  71:..\..\..\arduinoLCD\test\Pain Drain\libraries\lvgl\src\extra\widgets\colorwheel/lv_colorwheel.c **** 
  72:..\..\..\arduinoLCD\test\Pain Drain\libraries\lvgl\src\extra\widgets\colorwheel/lv_colorwheel.c **** /**
  73:..\..\..\arduinoLCD\test\Pain Drain\libraries\lvgl\src\extra\widgets\colorwheel/lv_colorwheel.c ****  * Create a color_picker object
  74:..\..\..\arduinoLCD\test\Pain Drain\libraries\lvgl\src\extra\widgets\colorwheel/lv_colorwheel.c ****  * @param parent pointer to an object, it will be the parent of the new color_picker
  75:..\..\..\arduinoLCD\test\Pain Drain\libraries\lvgl\src\extra\widgets\colorwheel/lv_colorwheel.c ****  * @return pointer to the created color_picker
  76:..\..\..\arduinoLCD\test\Pain Drain\libraries\lvgl\src\extra\widgets\colorwheel/lv_colorwheel.c ****  */
  77:..\..\..\arduinoLCD\test\Pain Drain\libraries\lvgl\src\extra\widgets\colorwheel/lv_colorwheel.c **** lv_obj_t * lv_colorwheel_create(lv_obj_t * parent, bool knob_recolor)
  78:..\..\..\arduinoLCD\test\Pain Drain\libraries\lvgl\src\extra\widgets\colorwheel/lv_colorwheel.c **** {
  79:..\..\..\arduinoLCD\test\Pain Drain\libraries\lvgl\src\extra\widgets\colorwheel/lv_colorwheel.c ****     LV_LOG_INFO("begin");
  80:..\..\..\arduinoLCD\test\Pain Drain\libraries\lvgl\src\extra\widgets\colorwheel/lv_colorwheel.c ****     create_knob_recolor = knob_recolor;
  81:..\..\..\arduinoLCD\test\Pain Drain\libraries\lvgl\src\extra\widgets\colorwheel/lv_colorwheel.c **** 
  82:..\..\..\arduinoLCD\test\Pain Drain\libraries\lvgl\src\extra\widgets\colorwheel/lv_colorwheel.c ****     lv_obj_t * obj = lv_obj_class_create_obj(MY_CLASS, parent);
  83:..\..\..\arduinoLCD\test\Pain Drain\libraries\lvgl\src\extra\widgets\colorwheel/lv_colorwheel.c ****     lv_obj_class_init_obj(obj);
  84:..\..\..\arduinoLCD\test\Pain Drain\libraries\lvgl\src\extra\widgets\colorwheel/lv_colorwheel.c ****     return obj;
  85:..\..\..\arduinoLCD\test\Pain Drain\libraries\lvgl\src\extra\widgets\colorwheel/lv_colorwheel.c **** }
  86:..\..\..\arduinoLCD\test\Pain Drain\libraries\lvgl\src\extra\widgets\colorwheel/lv_colorwheel.c **** 
  87:..\..\..\arduinoLCD\test\Pain Drain\libraries\lvgl\src\extra\widgets\colorwheel/lv_colorwheel.c **** /*=====================
  88:..\..\..\arduinoLCD\test\Pain Drain\libraries\lvgl\src\extra\widgets\colorwheel/lv_colorwheel.c ****  * Setter functions
ARM GAS  C:\Users\haske\AppData\Local\Temp\ccIkbvey.s 			page 3


  89:..\..\..\arduinoLCD\test\Pain Drain\libraries\lvgl\src\extra\widgets\colorwheel/lv_colorwheel.c ****  *====================*/
  90:..\..\..\arduinoLCD\test\Pain Drain\libraries\lvgl\src\extra\widgets\colorwheel/lv_colorwheel.c **** 
  91:..\..\..\arduinoLCD\test\Pain Drain\libraries\lvgl\src\extra\widgets\colorwheel/lv_colorwheel.c **** /**
  92:..\..\..\arduinoLCD\test\Pain Drain\libraries\lvgl\src\extra\widgets\colorwheel/lv_colorwheel.c ****  * Set the current hsv of a color wheel.
  93:..\..\..\arduinoLCD\test\Pain Drain\libraries\lvgl\src\extra\widgets\colorwheel/lv_colorwheel.c ****  * @param colorwheel pointer to color wheel object
  94:..\..\..\arduinoLCD\test\Pain Drain\libraries\lvgl\src\extra\widgets\colorwheel/lv_colorwheel.c ****  * @param color current selected hsv
  95:..\..\..\arduinoLCD\test\Pain Drain\libraries\lvgl\src\extra\widgets\colorwheel/lv_colorwheel.c ****  * @return true if changed, otherwise false
  96:..\..\..\arduinoLCD\test\Pain Drain\libraries\lvgl\src\extra\widgets\colorwheel/lv_colorwheel.c ****  */
  97:..\..\..\arduinoLCD\test\Pain Drain\libraries\lvgl\src\extra\widgets\colorwheel/lv_colorwheel.c **** bool lv_colorwheel_set_hsv(lv_obj_t * obj, lv_color_hsv_t hsv)
  98:..\..\..\arduinoLCD\test\Pain Drain\libraries\lvgl\src\extra\widgets\colorwheel/lv_colorwheel.c **** {
  99:..\..\..\arduinoLCD\test\Pain Drain\libraries\lvgl\src\extra\widgets\colorwheel/lv_colorwheel.c ****     if(hsv.h > 360) hsv.h %= 360;
 100:..\..\..\arduinoLCD\test\Pain Drain\libraries\lvgl\src\extra\widgets\colorwheel/lv_colorwheel.c ****     if(hsv.s > 100) hsv.s = 100;
 101:..\..\..\arduinoLCD\test\Pain Drain\libraries\lvgl\src\extra\widgets\colorwheel/lv_colorwheel.c ****     if(hsv.v > 100) hsv.v = 100;
 102:..\..\..\arduinoLCD\test\Pain Drain\libraries\lvgl\src\extra\widgets\colorwheel/lv_colorwheel.c **** 
 103:..\..\..\arduinoLCD\test\Pain Drain\libraries\lvgl\src\extra\widgets\colorwheel/lv_colorwheel.c ****     LV_ASSERT_OBJ(obj, MY_CLASS);
 104:..\..\..\arduinoLCD\test\Pain Drain\libraries\lvgl\src\extra\widgets\colorwheel/lv_colorwheel.c ****     lv_colorwheel_t * colorwheel = (lv_colorwheel_t *)obj;
 105:..\..\..\arduinoLCD\test\Pain Drain\libraries\lvgl\src\extra\widgets\colorwheel/lv_colorwheel.c **** 
 106:..\..\..\arduinoLCD\test\Pain Drain\libraries\lvgl\src\extra\widgets\colorwheel/lv_colorwheel.c ****     if(colorwheel->hsv.h == hsv.h && colorwheel->hsv.s == hsv.s && colorwheel->hsv.v == hsv.v) retu
 107:..\..\..\arduinoLCD\test\Pain Drain\libraries\lvgl\src\extra\widgets\colorwheel/lv_colorwheel.c **** 
 108:..\..\..\arduinoLCD\test\Pain Drain\libraries\lvgl\src\extra\widgets\colorwheel/lv_colorwheel.c ****     colorwheel->hsv = hsv;
 109:..\..\..\arduinoLCD\test\Pain Drain\libraries\lvgl\src\extra\widgets\colorwheel/lv_colorwheel.c **** 
 110:..\..\..\arduinoLCD\test\Pain Drain\libraries\lvgl\src\extra\widgets\colorwheel/lv_colorwheel.c ****     refr_knob_pos(obj);
 111:..\..\..\arduinoLCD\test\Pain Drain\libraries\lvgl\src\extra\widgets\colorwheel/lv_colorwheel.c **** 
 112:..\..\..\arduinoLCD\test\Pain Drain\libraries\lvgl\src\extra\widgets\colorwheel/lv_colorwheel.c ****     lv_obj_invalidate(obj);
 113:..\..\..\arduinoLCD\test\Pain Drain\libraries\lvgl\src\extra\widgets\colorwheel/lv_colorwheel.c **** 
 114:..\..\..\arduinoLCD\test\Pain Drain\libraries\lvgl\src\extra\widgets\colorwheel/lv_colorwheel.c ****     return true;
 115:..\..\..\arduinoLCD\test\Pain Drain\libraries\lvgl\src\extra\widgets\colorwheel/lv_colorwheel.c **** }
 116:..\..\..\arduinoLCD\test\Pain Drain\libraries\lvgl\src\extra\widgets\colorwheel/lv_colorwheel.c **** 
 117:..\..\..\arduinoLCD\test\Pain Drain\libraries\lvgl\src\extra\widgets\colorwheel/lv_colorwheel.c **** /**
 118:..\..\..\arduinoLCD\test\Pain Drain\libraries\lvgl\src\extra\widgets\colorwheel/lv_colorwheel.c ****  * Set the current color of a color wheel.
 119:..\..\..\arduinoLCD\test\Pain Drain\libraries\lvgl\src\extra\widgets\colorwheel/lv_colorwheel.c ****  * @param colorwheel pointer to color wheel object
 120:..\..\..\arduinoLCD\test\Pain Drain\libraries\lvgl\src\extra\widgets\colorwheel/lv_colorwheel.c ****  * @param color current selected color
 121:..\..\..\arduinoLCD\test\Pain Drain\libraries\lvgl\src\extra\widgets\colorwheel/lv_colorwheel.c ****  * @return true if changed, otherwise false
 122:..\..\..\arduinoLCD\test\Pain Drain\libraries\lvgl\src\extra\widgets\colorwheel/lv_colorwheel.c ****  */
 123:..\..\..\arduinoLCD\test\Pain Drain\libraries\lvgl\src\extra\widgets\colorwheel/lv_colorwheel.c **** bool lv_colorwheel_set_rgb(lv_obj_t * obj, lv_color_t color)
 124:..\..\..\arduinoLCD\test\Pain Drain\libraries\lvgl\src\extra\widgets\colorwheel/lv_colorwheel.c **** {
 125:..\..\..\arduinoLCD\test\Pain Drain\libraries\lvgl\src\extra\widgets\colorwheel/lv_colorwheel.c ****     lv_color32_t c32;
 126:..\..\..\arduinoLCD\test\Pain Drain\libraries\lvgl\src\extra\widgets\colorwheel/lv_colorwheel.c ****     c32.full = lv_color_to32(color);
 127:..\..\..\arduinoLCD\test\Pain Drain\libraries\lvgl\src\extra\widgets\colorwheel/lv_colorwheel.c **** 
 128:..\..\..\arduinoLCD\test\Pain Drain\libraries\lvgl\src\extra\widgets\colorwheel/lv_colorwheel.c ****     return lv_colorwheel_set_hsv(obj,  lv_color_rgb_to_hsv(c32.ch.red, c32.ch.green, c32.ch.blue));
 129:..\..\..\arduinoLCD\test\Pain Drain\libraries\lvgl\src\extra\widgets\colorwheel/lv_colorwheel.c **** }
 130:..\..\..\arduinoLCD\test\Pain Drain\libraries\lvgl\src\extra\widgets\colorwheel/lv_colorwheel.c **** 
 131:..\..\..\arduinoLCD\test\Pain Drain\libraries\lvgl\src\extra\widgets\colorwheel/lv_colorwheel.c **** /**
 132:..\..\..\arduinoLCD\test\Pain Drain\libraries\lvgl\src\extra\widgets\colorwheel/lv_colorwheel.c ****  * Set the current color mode.
 133:..\..\..\arduinoLCD\test\Pain Drain\libraries\lvgl\src\extra\widgets\colorwheel/lv_colorwheel.c ****  * @param colorwheel pointer to color wheel object
 134:..\..\..\arduinoLCD\test\Pain Drain\libraries\lvgl\src\extra\widgets\colorwheel/lv_colorwheel.c ****  * @param mode color mode (hue/sat/val)
 135:..\..\..\arduinoLCD\test\Pain Drain\libraries\lvgl\src\extra\widgets\colorwheel/lv_colorwheel.c ****  */
 136:..\..\..\arduinoLCD\test\Pain Drain\libraries\lvgl\src\extra\widgets\colorwheel/lv_colorwheel.c **** void lv_colorwheel_set_mode(lv_obj_t * obj, lv_colorwheel_mode_t mode)
 137:..\..\..\arduinoLCD\test\Pain Drain\libraries\lvgl\src\extra\widgets\colorwheel/lv_colorwheel.c **** {
 138:..\..\..\arduinoLCD\test\Pain Drain\libraries\lvgl\src\extra\widgets\colorwheel/lv_colorwheel.c ****     LV_ASSERT_OBJ(obj, MY_CLASS);
 139:..\..\..\arduinoLCD\test\Pain Drain\libraries\lvgl\src\extra\widgets\colorwheel/lv_colorwheel.c ****     lv_colorwheel_t * colorwheel = (lv_colorwheel_t *)obj;
 140:..\..\..\arduinoLCD\test\Pain Drain\libraries\lvgl\src\extra\widgets\colorwheel/lv_colorwheel.c **** 
 141:..\..\..\arduinoLCD\test\Pain Drain\libraries\lvgl\src\extra\widgets\colorwheel/lv_colorwheel.c ****     colorwheel->mode = mode;
 142:..\..\..\arduinoLCD\test\Pain Drain\libraries\lvgl\src\extra\widgets\colorwheel/lv_colorwheel.c ****     refr_knob_pos(obj);
 143:..\..\..\arduinoLCD\test\Pain Drain\libraries\lvgl\src\extra\widgets\colorwheel/lv_colorwheel.c ****     lv_obj_invalidate(obj);
 144:..\..\..\arduinoLCD\test\Pain Drain\libraries\lvgl\src\extra\widgets\colorwheel/lv_colorwheel.c **** }
 145:..\..\..\arduinoLCD\test\Pain Drain\libraries\lvgl\src\extra\widgets\colorwheel/lv_colorwheel.c **** 
ARM GAS  C:\Users\haske\AppData\Local\Temp\ccIkbvey.s 			page 4


 146:..\..\..\arduinoLCD\test\Pain Drain\libraries\lvgl\src\extra\widgets\colorwheel/lv_colorwheel.c **** /**
 147:..\..\..\arduinoLCD\test\Pain Drain\libraries\lvgl\src\extra\widgets\colorwheel/lv_colorwheel.c ****  * Set if the color mode is changed on long press on center
 148:..\..\..\arduinoLCD\test\Pain Drain\libraries\lvgl\src\extra\widgets\colorwheel/lv_colorwheel.c ****  * @param colorwheel pointer to color wheel object
 149:..\..\..\arduinoLCD\test\Pain Drain\libraries\lvgl\src\extra\widgets\colorwheel/lv_colorwheel.c ****  * @param fixed color mode cannot be changed on long press
 150:..\..\..\arduinoLCD\test\Pain Drain\libraries\lvgl\src\extra\widgets\colorwheel/lv_colorwheel.c ****  */
 151:..\..\..\arduinoLCD\test\Pain Drain\libraries\lvgl\src\extra\widgets\colorwheel/lv_colorwheel.c **** void lv_colorwheel_set_mode_fixed(lv_obj_t * obj, bool fixed)
 152:..\..\..\arduinoLCD\test\Pain Drain\libraries\lvgl\src\extra\widgets\colorwheel/lv_colorwheel.c **** {
 153:..\..\..\arduinoLCD\test\Pain Drain\libraries\lvgl\src\extra\widgets\colorwheel/lv_colorwheel.c ****     LV_ASSERT_OBJ(obj, MY_CLASS);
 154:..\..\..\arduinoLCD\test\Pain Drain\libraries\lvgl\src\extra\widgets\colorwheel/lv_colorwheel.c ****     lv_colorwheel_t * colorwheel = (lv_colorwheel_t *)obj;
 155:..\..\..\arduinoLCD\test\Pain Drain\libraries\lvgl\src\extra\widgets\colorwheel/lv_colorwheel.c **** 
 156:..\..\..\arduinoLCD\test\Pain Drain\libraries\lvgl\src\extra\widgets\colorwheel/lv_colorwheel.c ****     colorwheel->mode_fixed = fixed;
 157:..\..\..\arduinoLCD\test\Pain Drain\libraries\lvgl\src\extra\widgets\colorwheel/lv_colorwheel.c **** }
 158:..\..\..\arduinoLCD\test\Pain Drain\libraries\lvgl\src\extra\widgets\colorwheel/lv_colorwheel.c **** 
 159:..\..\..\arduinoLCD\test\Pain Drain\libraries\lvgl\src\extra\widgets\colorwheel/lv_colorwheel.c **** /*=====================
 160:..\..\..\arduinoLCD\test\Pain Drain\libraries\lvgl\src\extra\widgets\colorwheel/lv_colorwheel.c ****  * Getter functions
 161:..\..\..\arduinoLCD\test\Pain Drain\libraries\lvgl\src\extra\widgets\colorwheel/lv_colorwheel.c ****  *====================*/
 162:..\..\..\arduinoLCD\test\Pain Drain\libraries\lvgl\src\extra\widgets\colorwheel/lv_colorwheel.c **** 
 163:..\..\..\arduinoLCD\test\Pain Drain\libraries\lvgl\src\extra\widgets\colorwheel/lv_colorwheel.c **** 
 164:..\..\..\arduinoLCD\test\Pain Drain\libraries\lvgl\src\extra\widgets\colorwheel/lv_colorwheel.c **** /**
 165:..\..\..\arduinoLCD\test\Pain Drain\libraries\lvgl\src\extra\widgets\colorwheel/lv_colorwheel.c ****  * Get the current selected hsv of a color wheel.
 166:..\..\..\arduinoLCD\test\Pain Drain\libraries\lvgl\src\extra\widgets\colorwheel/lv_colorwheel.c ****  * @param colorwheel pointer to color wheel object
 167:..\..\..\arduinoLCD\test\Pain Drain\libraries\lvgl\src\extra\widgets\colorwheel/lv_colorwheel.c ****  * @return current selected hsv
 168:..\..\..\arduinoLCD\test\Pain Drain\libraries\lvgl\src\extra\widgets\colorwheel/lv_colorwheel.c ****  */
 169:..\..\..\arduinoLCD\test\Pain Drain\libraries\lvgl\src\extra\widgets\colorwheel/lv_colorwheel.c **** lv_color_hsv_t lv_colorwheel_get_hsv(lv_obj_t * obj)
 170:..\..\..\arduinoLCD\test\Pain Drain\libraries\lvgl\src\extra\widgets\colorwheel/lv_colorwheel.c **** {
 171:..\..\..\arduinoLCD\test\Pain Drain\libraries\lvgl\src\extra\widgets\colorwheel/lv_colorwheel.c ****     LV_ASSERT_OBJ(obj, MY_CLASS);
 172:..\..\..\arduinoLCD\test\Pain Drain\libraries\lvgl\src\extra\widgets\colorwheel/lv_colorwheel.c ****     lv_colorwheel_t * colorwheel = (lv_colorwheel_t *)obj;
 173:..\..\..\arduinoLCD\test\Pain Drain\libraries\lvgl\src\extra\widgets\colorwheel/lv_colorwheel.c **** 
 174:..\..\..\arduinoLCD\test\Pain Drain\libraries\lvgl\src\extra\widgets\colorwheel/lv_colorwheel.c ****     return colorwheel->hsv;
 175:..\..\..\arduinoLCD\test\Pain Drain\libraries\lvgl\src\extra\widgets\colorwheel/lv_colorwheel.c **** }
 176:..\..\..\arduinoLCD\test\Pain Drain\libraries\lvgl\src\extra\widgets\colorwheel/lv_colorwheel.c **** 
 177:..\..\..\arduinoLCD\test\Pain Drain\libraries\lvgl\src\extra\widgets\colorwheel/lv_colorwheel.c **** /**
 178:..\..\..\arduinoLCD\test\Pain Drain\libraries\lvgl\src\extra\widgets\colorwheel/lv_colorwheel.c ****  * Get the current selected color of a color wheel.
 179:..\..\..\arduinoLCD\test\Pain Drain\libraries\lvgl\src\extra\widgets\colorwheel/lv_colorwheel.c ****  * @param colorwheel pointer to color wheel object
 180:..\..\..\arduinoLCD\test\Pain Drain\libraries\lvgl\src\extra\widgets\colorwheel/lv_colorwheel.c ****  * @return color current selected color
 181:..\..\..\arduinoLCD\test\Pain Drain\libraries\lvgl\src\extra\widgets\colorwheel/lv_colorwheel.c ****  */
 182:..\..\..\arduinoLCD\test\Pain Drain\libraries\lvgl\src\extra\widgets\colorwheel/lv_colorwheel.c **** lv_color_t lv_colorwheel_get_rgb(lv_obj_t * obj)
 183:..\..\..\arduinoLCD\test\Pain Drain\libraries\lvgl\src\extra\widgets\colorwheel/lv_colorwheel.c **** {
 184:..\..\..\arduinoLCD\test\Pain Drain\libraries\lvgl\src\extra\widgets\colorwheel/lv_colorwheel.c ****     LV_ASSERT_OBJ(obj, MY_CLASS);
 185:..\..\..\arduinoLCD\test\Pain Drain\libraries\lvgl\src\extra\widgets\colorwheel/lv_colorwheel.c ****     lv_colorwheel_t * colorwheel = (lv_colorwheel_t *)obj;
 186:..\..\..\arduinoLCD\test\Pain Drain\libraries\lvgl\src\extra\widgets\colorwheel/lv_colorwheel.c **** 
 187:..\..\..\arduinoLCD\test\Pain Drain\libraries\lvgl\src\extra\widgets\colorwheel/lv_colorwheel.c ****     return lv_color_hsv_to_rgb(colorwheel->hsv.h, colorwheel->hsv.s, colorwheel->hsv.v);
 188:..\..\..\arduinoLCD\test\Pain Drain\libraries\lvgl\src\extra\widgets\colorwheel/lv_colorwheel.c **** }
 189:..\..\..\arduinoLCD\test\Pain Drain\libraries\lvgl\src\extra\widgets\colorwheel/lv_colorwheel.c **** 
 190:..\..\..\arduinoLCD\test\Pain Drain\libraries\lvgl\src\extra\widgets\colorwheel/lv_colorwheel.c **** /**
 191:..\..\..\arduinoLCD\test\Pain Drain\libraries\lvgl\src\extra\widgets\colorwheel/lv_colorwheel.c ****  * Get the current color mode.
 192:..\..\..\arduinoLCD\test\Pain Drain\libraries\lvgl\src\extra\widgets\colorwheel/lv_colorwheel.c ****  * @param colorwheel pointer to color wheel object
 193:..\..\..\arduinoLCD\test\Pain Drain\libraries\lvgl\src\extra\widgets\colorwheel/lv_colorwheel.c ****  * @return color mode (hue/sat/val)
 194:..\..\..\arduinoLCD\test\Pain Drain\libraries\lvgl\src\extra\widgets\colorwheel/lv_colorwheel.c ****  */
 195:..\..\..\arduinoLCD\test\Pain Drain\libraries\lvgl\src\extra\widgets\colorwheel/lv_colorwheel.c **** lv_colorwheel_mode_t lv_colorwheel_get_color_mode(lv_obj_t * obj)
 196:..\..\..\arduinoLCD\test\Pain Drain\libraries\lvgl\src\extra\widgets\colorwheel/lv_colorwheel.c **** {
 197:..\..\..\arduinoLCD\test\Pain Drain\libraries\lvgl\src\extra\widgets\colorwheel/lv_colorwheel.c ****     LV_ASSERT_OBJ(obj, MY_CLASS);
 198:..\..\..\arduinoLCD\test\Pain Drain\libraries\lvgl\src\extra\widgets\colorwheel/lv_colorwheel.c ****     lv_colorwheel_t * colorwheel = (lv_colorwheel_t *)obj;
 199:..\..\..\arduinoLCD\test\Pain Drain\libraries\lvgl\src\extra\widgets\colorwheel/lv_colorwheel.c **** 
 200:..\..\..\arduinoLCD\test\Pain Drain\libraries\lvgl\src\extra\widgets\colorwheel/lv_colorwheel.c ****     return colorwheel->mode;
 201:..\..\..\arduinoLCD\test\Pain Drain\libraries\lvgl\src\extra\widgets\colorwheel/lv_colorwheel.c **** }
 202:..\..\..\arduinoLCD\test\Pain Drain\libraries\lvgl\src\extra\widgets\colorwheel/lv_colorwheel.c **** 
ARM GAS  C:\Users\haske\AppData\Local\Temp\ccIkbvey.s 			page 5


 203:..\..\..\arduinoLCD\test\Pain Drain\libraries\lvgl\src\extra\widgets\colorwheel/lv_colorwheel.c **** /**
 204:..\..\..\arduinoLCD\test\Pain Drain\libraries\lvgl\src\extra\widgets\colorwheel/lv_colorwheel.c ****  * Get if the color mode is changed on long press on center
 205:..\..\..\arduinoLCD\test\Pain Drain\libraries\lvgl\src\extra\widgets\colorwheel/lv_colorwheel.c ****  * @param colorwheel pointer to color wheel object
 206:..\..\..\arduinoLCD\test\Pain Drain\libraries\lvgl\src\extra\widgets\colorwheel/lv_colorwheel.c ****  * @return mode cannot be changed on long press
 207:..\..\..\arduinoLCD\test\Pain Drain\libraries\lvgl\src\extra\widgets\colorwheel/lv_colorwheel.c ****  */
 208:..\..\..\arduinoLCD\test\Pain Drain\libraries\lvgl\src\extra\widgets\colorwheel/lv_colorwheel.c **** bool lv_colorwheel_get_color_mode_fixed(lv_obj_t * obj)
 209:..\..\..\arduinoLCD\test\Pain Drain\libraries\lvgl\src\extra\widgets\colorwheel/lv_colorwheel.c **** {
 210:..\..\..\arduinoLCD\test\Pain Drain\libraries\lvgl\src\extra\widgets\colorwheel/lv_colorwheel.c ****     LV_ASSERT_OBJ(obj, MY_CLASS);
 211:..\..\..\arduinoLCD\test\Pain Drain\libraries\lvgl\src\extra\widgets\colorwheel/lv_colorwheel.c ****     lv_colorwheel_t * colorwheel = (lv_colorwheel_t *)obj;
 212:..\..\..\arduinoLCD\test\Pain Drain\libraries\lvgl\src\extra\widgets\colorwheel/lv_colorwheel.c **** 
 213:..\..\..\arduinoLCD\test\Pain Drain\libraries\lvgl\src\extra\widgets\colorwheel/lv_colorwheel.c ****     return colorwheel->mode_fixed;
 214:..\..\..\arduinoLCD\test\Pain Drain\libraries\lvgl\src\extra\widgets\colorwheel/lv_colorwheel.c **** }
 215:..\..\..\arduinoLCD\test\Pain Drain\libraries\lvgl\src\extra\widgets\colorwheel/lv_colorwheel.c **** 
 216:..\..\..\arduinoLCD\test\Pain Drain\libraries\lvgl\src\extra\widgets\colorwheel/lv_colorwheel.c **** /*=====================
 217:..\..\..\arduinoLCD\test\Pain Drain\libraries\lvgl\src\extra\widgets\colorwheel/lv_colorwheel.c ****  * Other functions
 218:..\..\..\arduinoLCD\test\Pain Drain\libraries\lvgl\src\extra\widgets\colorwheel/lv_colorwheel.c ****  *====================*/
 219:..\..\..\arduinoLCD\test\Pain Drain\libraries\lvgl\src\extra\widgets\colorwheel/lv_colorwheel.c **** 
 220:..\..\..\arduinoLCD\test\Pain Drain\libraries\lvgl\src\extra\widgets\colorwheel/lv_colorwheel.c **** /**********************
 221:..\..\..\arduinoLCD\test\Pain Drain\libraries\lvgl\src\extra\widgets\colorwheel/lv_colorwheel.c ****  *   STATIC FUNCTIONS
 222:..\..\..\arduinoLCD\test\Pain Drain\libraries\lvgl\src\extra\widgets\colorwheel/lv_colorwheel.c ****  **********************/
 223:..\..\..\arduinoLCD\test\Pain Drain\libraries\lvgl\src\extra\widgets\colorwheel/lv_colorwheel.c **** 
 224:..\..\..\arduinoLCD\test\Pain Drain\libraries\lvgl\src\extra\widgets\colorwheel/lv_colorwheel.c **** static void lv_colorwheel_constructor(const lv_obj_class_t * class_p, lv_obj_t * obj)
 225:..\..\..\arduinoLCD\test\Pain Drain\libraries\lvgl\src\extra\widgets\colorwheel/lv_colorwheel.c **** {
 226:..\..\..\arduinoLCD\test\Pain Drain\libraries\lvgl\src\extra\widgets\colorwheel/lv_colorwheel.c ****     LV_UNUSED(class_p);
 227:..\..\..\arduinoLCD\test\Pain Drain\libraries\lvgl\src\extra\widgets\colorwheel/lv_colorwheel.c ****     lv_colorwheel_t * colorwheel = (lv_colorwheel_t *)obj;
 228:..\..\..\arduinoLCD\test\Pain Drain\libraries\lvgl\src\extra\widgets\colorwheel/lv_colorwheel.c ****     colorwheel->hsv.h = 0;
 229:..\..\..\arduinoLCD\test\Pain Drain\libraries\lvgl\src\extra\widgets\colorwheel/lv_colorwheel.c ****     colorwheel->hsv.s = 100;
 230:..\..\..\arduinoLCD\test\Pain Drain\libraries\lvgl\src\extra\widgets\colorwheel/lv_colorwheel.c ****     colorwheel->hsv.v = 100;
 231:..\..\..\arduinoLCD\test\Pain Drain\libraries\lvgl\src\extra\widgets\colorwheel/lv_colorwheel.c ****     colorwheel->mode = LV_COLORWHEEL_MODE_HUE;
 232:..\..\..\arduinoLCD\test\Pain Drain\libraries\lvgl\src\extra\widgets\colorwheel/lv_colorwheel.c ****     colorwheel->mode_fixed = 0;
 233:..\..\..\arduinoLCD\test\Pain Drain\libraries\lvgl\src\extra\widgets\colorwheel/lv_colorwheel.c ****     colorwheel->last_click_time = 0;
 234:..\..\..\arduinoLCD\test\Pain Drain\libraries\lvgl\src\extra\widgets\colorwheel/lv_colorwheel.c ****     colorwheel->last_change_time = 0;
 235:..\..\..\arduinoLCD\test\Pain Drain\libraries\lvgl\src\extra\widgets\colorwheel/lv_colorwheel.c ****     colorwheel->knob.recolor = create_knob_recolor;
 236:..\..\..\arduinoLCD\test\Pain Drain\libraries\lvgl\src\extra\widgets\colorwheel/lv_colorwheel.c **** 
 237:..\..\..\arduinoLCD\test\Pain Drain\libraries\lvgl\src\extra\widgets\colorwheel/lv_colorwheel.c ****     lv_obj_add_flag(obj, LV_OBJ_FLAG_ADV_HITTEST);
 238:..\..\..\arduinoLCD\test\Pain Drain\libraries\lvgl\src\extra\widgets\colorwheel/lv_colorwheel.c ****     lv_obj_clear_flag(obj, LV_OBJ_FLAG_SCROLL_CHAIN);
 239:..\..\..\arduinoLCD\test\Pain Drain\libraries\lvgl\src\extra\widgets\colorwheel/lv_colorwheel.c ****     refr_knob_pos(obj);
 240:..\..\..\arduinoLCD\test\Pain Drain\libraries\lvgl\src\extra\widgets\colorwheel/lv_colorwheel.c **** }
 241:..\..\..\arduinoLCD\test\Pain Drain\libraries\lvgl\src\extra\widgets\colorwheel/lv_colorwheel.c **** 
 242:..\..\..\arduinoLCD\test\Pain Drain\libraries\lvgl\src\extra\widgets\colorwheel/lv_colorwheel.c **** static void draw_disc_grad(lv_event_t * e)
 243:..\..\..\arduinoLCD\test\Pain Drain\libraries\lvgl\src\extra\widgets\colorwheel/lv_colorwheel.c **** {
 244:..\..\..\arduinoLCD\test\Pain Drain\libraries\lvgl\src\extra\widgets\colorwheel/lv_colorwheel.c ****     lv_obj_t * obj = lv_event_get_target(e);
 245:..\..\..\arduinoLCD\test\Pain Drain\libraries\lvgl\src\extra\widgets\colorwheel/lv_colorwheel.c ****     lv_draw_ctx_t * draw_ctx = lv_event_get_draw_ctx(e);
 246:..\..\..\arduinoLCD\test\Pain Drain\libraries\lvgl\src\extra\widgets\colorwheel/lv_colorwheel.c ****     lv_coord_t w = lv_obj_get_width(obj);
 247:..\..\..\arduinoLCD\test\Pain Drain\libraries\lvgl\src\extra\widgets\colorwheel/lv_colorwheel.c ****     lv_coord_t h = lv_obj_get_height(obj);
 248:..\..\..\arduinoLCD\test\Pain Drain\libraries\lvgl\src\extra\widgets\colorwheel/lv_colorwheel.c ****     lv_coord_t cx = obj->coords.x1 + w / 2;
 249:..\..\..\arduinoLCD\test\Pain Drain\libraries\lvgl\src\extra\widgets\colorwheel/lv_colorwheel.c ****     lv_coord_t cy = obj->coords.y1 + h / 2;
 250:..\..\..\arduinoLCD\test\Pain Drain\libraries\lvgl\src\extra\widgets\colorwheel/lv_colorwheel.c ****     lv_coord_t r = w / 2;
 251:..\..\..\arduinoLCD\test\Pain Drain\libraries\lvgl\src\extra\widgets\colorwheel/lv_colorwheel.c **** 
 252:..\..\..\arduinoLCD\test\Pain Drain\libraries\lvgl\src\extra\widgets\colorwheel/lv_colorwheel.c ****     lv_draw_line_dsc_t line_dsc;
 253:..\..\..\arduinoLCD\test\Pain Drain\libraries\lvgl\src\extra\widgets\colorwheel/lv_colorwheel.c ****     lv_draw_line_dsc_init(&line_dsc);
 254:..\..\..\arduinoLCD\test\Pain Drain\libraries\lvgl\src\extra\widgets\colorwheel/lv_colorwheel.c ****     lv_obj_init_draw_line_dsc(obj, LV_PART_MAIN, &line_dsc);
 255:..\..\..\arduinoLCD\test\Pain Drain\libraries\lvgl\src\extra\widgets\colorwheel/lv_colorwheel.c **** 
 256:..\..\..\arduinoLCD\test\Pain Drain\libraries\lvgl\src\extra\widgets\colorwheel/lv_colorwheel.c ****     line_dsc.width = (r * 628 / (256 / LV_CPICKER_DEF_QF)) / 100;
 257:..\..\..\arduinoLCD\test\Pain Drain\libraries\lvgl\src\extra\widgets\colorwheel/lv_colorwheel.c ****     line_dsc.width += 2;
 258:..\..\..\arduinoLCD\test\Pain Drain\libraries\lvgl\src\extra\widgets\colorwheel/lv_colorwheel.c ****     uint16_t i;
 259:..\..\..\arduinoLCD\test\Pain Drain\libraries\lvgl\src\extra\widgets\colorwheel/lv_colorwheel.c ****     uint32_t a = 0;
ARM GAS  C:\Users\haske\AppData\Local\Temp\ccIkbvey.s 			page 6


 260:..\..\..\arduinoLCD\test\Pain Drain\libraries\lvgl\src\extra\widgets\colorwheel/lv_colorwheel.c ****     lv_coord_t cir_w = lv_obj_get_style_arc_width(obj, LV_PART_MAIN);
 261:..\..\..\arduinoLCD\test\Pain Drain\libraries\lvgl\src\extra\widgets\colorwheel/lv_colorwheel.c **** 
 262:..\..\..\arduinoLCD\test\Pain Drain\libraries\lvgl\src\extra\widgets\colorwheel/lv_colorwheel.c **** #if LV_DRAW_COMPLEX
 263:..\..\..\arduinoLCD\test\Pain Drain\libraries\lvgl\src\extra\widgets\colorwheel/lv_colorwheel.c ****     /*Mask outer and inner ring of widget to tidy up ragged edges of lines while drawing outer ring
 264:..\..\..\arduinoLCD\test\Pain Drain\libraries\lvgl\src\extra\widgets\colorwheel/lv_colorwheel.c ****     lv_draw_mask_radius_param_t mask_out_param;
 265:..\..\..\arduinoLCD\test\Pain Drain\libraries\lvgl\src\extra\widgets\colorwheel/lv_colorwheel.c ****     lv_draw_mask_radius_init(&mask_out_param, &obj->coords, LV_RADIUS_CIRCLE, false);
 266:..\..\..\arduinoLCD\test\Pain Drain\libraries\lvgl\src\extra\widgets\colorwheel/lv_colorwheel.c ****     int16_t mask_out_id = lv_draw_mask_add(&mask_out_param, 0);
 267:..\..\..\arduinoLCD\test\Pain Drain\libraries\lvgl\src\extra\widgets\colorwheel/lv_colorwheel.c **** 
 268:..\..\..\arduinoLCD\test\Pain Drain\libraries\lvgl\src\extra\widgets\colorwheel/lv_colorwheel.c ****     lv_area_t mask_area;
 269:..\..\..\arduinoLCD\test\Pain Drain\libraries\lvgl\src\extra\widgets\colorwheel/lv_colorwheel.c ****     lv_area_copy(&mask_area, &obj->coords);
 270:..\..\..\arduinoLCD\test\Pain Drain\libraries\lvgl\src\extra\widgets\colorwheel/lv_colorwheel.c ****     mask_area.x1 += cir_w;
 271:..\..\..\arduinoLCD\test\Pain Drain\libraries\lvgl\src\extra\widgets\colorwheel/lv_colorwheel.c ****     mask_area.x2 -= cir_w;
 272:..\..\..\arduinoLCD\test\Pain Drain\libraries\lvgl\src\extra\widgets\colorwheel/lv_colorwheel.c ****     mask_area.y1 += cir_w;
 273:..\..\..\arduinoLCD\test\Pain Drain\libraries\lvgl\src\extra\widgets\colorwheel/lv_colorwheel.c ****     mask_area.y2 -= cir_w;
 274:..\..\..\arduinoLCD\test\Pain Drain\libraries\lvgl\src\extra\widgets\colorwheel/lv_colorwheel.c ****     lv_draw_mask_radius_param_t mask_in_param;
 275:..\..\..\arduinoLCD\test\Pain Drain\libraries\lvgl\src\extra\widgets\colorwheel/lv_colorwheel.c ****     lv_draw_mask_radius_init(&mask_in_param, &mask_area, LV_RADIUS_CIRCLE, true);
 276:..\..\..\arduinoLCD\test\Pain Drain\libraries\lvgl\src\extra\widgets\colorwheel/lv_colorwheel.c ****     int16_t mask_in_id = lv_draw_mask_add(&mask_in_param, 0);
 277:..\..\..\arduinoLCD\test\Pain Drain\libraries\lvgl\src\extra\widgets\colorwheel/lv_colorwheel.c **** 
 278:..\..\..\arduinoLCD\test\Pain Drain\libraries\lvgl\src\extra\widgets\colorwheel/lv_colorwheel.c ****     /*The inner and outer line ends will be masked out.
 279:..\..\..\arduinoLCD\test\Pain Drain\libraries\lvgl\src\extra\widgets\colorwheel/lv_colorwheel.c ****      *So make lines a little bit longer because the masking makes a more even result*/
 280:..\..\..\arduinoLCD\test\Pain Drain\libraries\lvgl\src\extra\widgets\colorwheel/lv_colorwheel.c ****     lv_coord_t cir_w_extra = line_dsc.width;
 281:..\..\..\arduinoLCD\test\Pain Drain\libraries\lvgl\src\extra\widgets\colorwheel/lv_colorwheel.c **** #else
 282:..\..\..\arduinoLCD\test\Pain Drain\libraries\lvgl\src\extra\widgets\colorwheel/lv_colorwheel.c ****     lv_coord_t cir_w_extra = 0;
 283:..\..\..\arduinoLCD\test\Pain Drain\libraries\lvgl\src\extra\widgets\colorwheel/lv_colorwheel.c **** #endif
 284:..\..\..\arduinoLCD\test\Pain Drain\libraries\lvgl\src\extra\widgets\colorwheel/lv_colorwheel.c **** 
 285:..\..\..\arduinoLCD\test\Pain Drain\libraries\lvgl\src\extra\widgets\colorwheel/lv_colorwheel.c ****     for(i = 0; i <= 256; i += LV_CPICKER_DEF_QF, a += 360 * LV_CPICKER_DEF_QF) {
 286:..\..\..\arduinoLCD\test\Pain Drain\libraries\lvgl\src\extra\widgets\colorwheel/lv_colorwheel.c ****         line_dsc.color = angle_to_mode_color_fast(obj, i);
 287:..\..\..\arduinoLCD\test\Pain Drain\libraries\lvgl\src\extra\widgets\colorwheel/lv_colorwheel.c ****         uint16_t angle_trigo = (uint16_t)(a >> 8); /*i * 360 / 256 is the scale to apply, but we ca
 288:..\..\..\arduinoLCD\test\Pain Drain\libraries\lvgl\src\extra\widgets\colorwheel/lv_colorwheel.c **** 
 289:..\..\..\arduinoLCD\test\Pain Drain\libraries\lvgl\src\extra\widgets\colorwheel/lv_colorwheel.c ****         lv_point_t p[2];
 290:..\..\..\arduinoLCD\test\Pain Drain\libraries\lvgl\src\extra\widgets\colorwheel/lv_colorwheel.c ****         p[0].x = cx + ((r + cir_w_extra) * lv_trigo_sin(angle_trigo) >> LV_TRIGO_SHIFT);
 291:..\..\..\arduinoLCD\test\Pain Drain\libraries\lvgl\src\extra\widgets\colorwheel/lv_colorwheel.c ****         p[0].y = cy + ((r + cir_w_extra) * lv_trigo_cos(angle_trigo) >> LV_TRIGO_SHIFT);
 292:..\..\..\arduinoLCD\test\Pain Drain\libraries\lvgl\src\extra\widgets\colorwheel/lv_colorwheel.c ****         p[1].x = cx + ((r - cir_w - cir_w_extra) * lv_trigo_sin(angle_trigo) >> LV_TRIGO_SHIFT);
 293:..\..\..\arduinoLCD\test\Pain Drain\libraries\lvgl\src\extra\widgets\colorwheel/lv_colorwheel.c ****         p[1].y = cy + ((r - cir_w - cir_w_extra) * lv_trigo_cos(angle_trigo) >> LV_TRIGO_SHIFT);
 294:..\..\..\arduinoLCD\test\Pain Drain\libraries\lvgl\src\extra\widgets\colorwheel/lv_colorwheel.c **** 
 295:..\..\..\arduinoLCD\test\Pain Drain\libraries\lvgl\src\extra\widgets\colorwheel/lv_colorwheel.c ****         lv_draw_line(draw_ctx, &line_dsc, &p[0], &p[1]);
 296:..\..\..\arduinoLCD\test\Pain Drain\libraries\lvgl\src\extra\widgets\colorwheel/lv_colorwheel.c ****     }
 297:..\..\..\arduinoLCD\test\Pain Drain\libraries\lvgl\src\extra\widgets\colorwheel/lv_colorwheel.c **** 
 298:..\..\..\arduinoLCD\test\Pain Drain\libraries\lvgl\src\extra\widgets\colorwheel/lv_colorwheel.c **** #if LV_DRAW_COMPLEX
 299:..\..\..\arduinoLCD\test\Pain Drain\libraries\lvgl\src\extra\widgets\colorwheel/lv_colorwheel.c ****     lv_draw_mask_free_param(&mask_out_param);
 300:..\..\..\arduinoLCD\test\Pain Drain\libraries\lvgl\src\extra\widgets\colorwheel/lv_colorwheel.c ****     lv_draw_mask_free_param(&mask_in_param);
 301:..\..\..\arduinoLCD\test\Pain Drain\libraries\lvgl\src\extra\widgets\colorwheel/lv_colorwheel.c ****     lv_draw_mask_remove_id(mask_out_id);
 302:..\..\..\arduinoLCD\test\Pain Drain\libraries\lvgl\src\extra\widgets\colorwheel/lv_colorwheel.c ****     lv_draw_mask_remove_id(mask_in_id);
 303:..\..\..\arduinoLCD\test\Pain Drain\libraries\lvgl\src\extra\widgets\colorwheel/lv_colorwheel.c **** #endif
 304:..\..\..\arduinoLCD\test\Pain Drain\libraries\lvgl\src\extra\widgets\colorwheel/lv_colorwheel.c **** }
 305:..\..\..\arduinoLCD\test\Pain Drain\libraries\lvgl\src\extra\widgets\colorwheel/lv_colorwheel.c **** 
 306:..\..\..\arduinoLCD\test\Pain Drain\libraries\lvgl\src\extra\widgets\colorwheel/lv_colorwheel.c **** static void draw_knob(lv_event_t * e)
 307:..\..\..\arduinoLCD\test\Pain Drain\libraries\lvgl\src\extra\widgets\colorwheel/lv_colorwheel.c **** {
 308:..\..\..\arduinoLCD\test\Pain Drain\libraries\lvgl\src\extra\widgets\colorwheel/lv_colorwheel.c ****     lv_obj_t * obj = lv_event_get_target(e);
 309:..\..\..\arduinoLCD\test\Pain Drain\libraries\lvgl\src\extra\widgets\colorwheel/lv_colorwheel.c ****     lv_draw_ctx_t * draw_ctx = lv_event_get_draw_ctx(e);
 310:..\..\..\arduinoLCD\test\Pain Drain\libraries\lvgl\src\extra\widgets\colorwheel/lv_colorwheel.c ****     lv_colorwheel_t * colorwheel = (lv_colorwheel_t *)obj;
 311:..\..\..\arduinoLCD\test\Pain Drain\libraries\lvgl\src\extra\widgets\colorwheel/lv_colorwheel.c **** 
 312:..\..\..\arduinoLCD\test\Pain Drain\libraries\lvgl\src\extra\widgets\colorwheel/lv_colorwheel.c ****     lv_draw_rect_dsc_t cir_dsc;
 313:..\..\..\arduinoLCD\test\Pain Drain\libraries\lvgl\src\extra\widgets\colorwheel/lv_colorwheel.c ****     lv_draw_rect_dsc_init(&cir_dsc);
 314:..\..\..\arduinoLCD\test\Pain Drain\libraries\lvgl\src\extra\widgets\colorwheel/lv_colorwheel.c ****     lv_obj_init_draw_rect_dsc(obj, LV_PART_KNOB, &cir_dsc);
 315:..\..\..\arduinoLCD\test\Pain Drain\libraries\lvgl\src\extra\widgets\colorwheel/lv_colorwheel.c **** 
 316:..\..\..\arduinoLCD\test\Pain Drain\libraries\lvgl\src\extra\widgets\colorwheel/lv_colorwheel.c ****     cir_dsc.radius = LV_RADIUS_CIRCLE;
ARM GAS  C:\Users\haske\AppData\Local\Temp\ccIkbvey.s 			page 7


 317:..\..\..\arduinoLCD\test\Pain Drain\libraries\lvgl\src\extra\widgets\colorwheel/lv_colorwheel.c **** 
 318:..\..\..\arduinoLCD\test\Pain Drain\libraries\lvgl\src\extra\widgets\colorwheel/lv_colorwheel.c ****     if(colorwheel->knob.recolor) {
 319:..\..\..\arduinoLCD\test\Pain Drain\libraries\lvgl\src\extra\widgets\colorwheel/lv_colorwheel.c ****         cir_dsc.bg_color = lv_colorwheel_get_rgb(obj);
 320:..\..\..\arduinoLCD\test\Pain Drain\libraries\lvgl\src\extra\widgets\colorwheel/lv_colorwheel.c ****     }
 321:..\..\..\arduinoLCD\test\Pain Drain\libraries\lvgl\src\extra\widgets\colorwheel/lv_colorwheel.c **** 
 322:..\..\..\arduinoLCD\test\Pain Drain\libraries\lvgl\src\extra\widgets\colorwheel/lv_colorwheel.c ****     lv_area_t knob_area = get_knob_area(obj);
 323:..\..\..\arduinoLCD\test\Pain Drain\libraries\lvgl\src\extra\widgets\colorwheel/lv_colorwheel.c **** 
 324:..\..\..\arduinoLCD\test\Pain Drain\libraries\lvgl\src\extra\widgets\colorwheel/lv_colorwheel.c ****     lv_draw_rect(draw_ctx, &cir_dsc, &knob_area);
 325:..\..\..\arduinoLCD\test\Pain Drain\libraries\lvgl\src\extra\widgets\colorwheel/lv_colorwheel.c **** }
 326:..\..\..\arduinoLCD\test\Pain Drain\libraries\lvgl\src\extra\widgets\colorwheel/lv_colorwheel.c **** 
 327:..\..\..\arduinoLCD\test\Pain Drain\libraries\lvgl\src\extra\widgets\colorwheel/lv_colorwheel.c **** static void invalidate_knob(lv_obj_t * obj)
 328:..\..\..\arduinoLCD\test\Pain Drain\libraries\lvgl\src\extra\widgets\colorwheel/lv_colorwheel.c **** {
 329:..\..\..\arduinoLCD\test\Pain Drain\libraries\lvgl\src\extra\widgets\colorwheel/lv_colorwheel.c ****     lv_area_t knob_area = get_knob_area(obj);
 330:..\..\..\arduinoLCD\test\Pain Drain\libraries\lvgl\src\extra\widgets\colorwheel/lv_colorwheel.c **** 
 331:..\..\..\arduinoLCD\test\Pain Drain\libraries\lvgl\src\extra\widgets\colorwheel/lv_colorwheel.c ****     lv_obj_invalidate_area(obj, &knob_area);
 332:..\..\..\arduinoLCD\test\Pain Drain\libraries\lvgl\src\extra\widgets\colorwheel/lv_colorwheel.c **** }
 333:..\..\..\arduinoLCD\test\Pain Drain\libraries\lvgl\src\extra\widgets\colorwheel/lv_colorwheel.c **** 
 334:..\..\..\arduinoLCD\test\Pain Drain\libraries\lvgl\src\extra\widgets\colorwheel/lv_colorwheel.c **** static lv_area_t get_knob_area(lv_obj_t * obj)
 335:..\..\..\arduinoLCD\test\Pain Drain\libraries\lvgl\src\extra\widgets\colorwheel/lv_colorwheel.c **** {
 336:..\..\..\arduinoLCD\test\Pain Drain\libraries\lvgl\src\extra\widgets\colorwheel/lv_colorwheel.c ****     lv_colorwheel_t * colorwheel = (lv_colorwheel_t *)obj;
 337:..\..\..\arduinoLCD\test\Pain Drain\libraries\lvgl\src\extra\widgets\colorwheel/lv_colorwheel.c **** 
 338:..\..\..\arduinoLCD\test\Pain Drain\libraries\lvgl\src\extra\widgets\colorwheel/lv_colorwheel.c ****     /*Get knob's radius*/
 339:..\..\..\arduinoLCD\test\Pain Drain\libraries\lvgl\src\extra\widgets\colorwheel/lv_colorwheel.c ****     uint16_t r = 0;
 340:..\..\..\arduinoLCD\test\Pain Drain\libraries\lvgl\src\extra\widgets\colorwheel/lv_colorwheel.c ****     r = lv_obj_get_style_arc_width(obj, LV_PART_MAIN) / 2;
 341:..\..\..\arduinoLCD\test\Pain Drain\libraries\lvgl\src\extra\widgets\colorwheel/lv_colorwheel.c **** 
 342:..\..\..\arduinoLCD\test\Pain Drain\libraries\lvgl\src\extra\widgets\colorwheel/lv_colorwheel.c ****     lv_coord_t left = lv_obj_get_style_pad_left(obj, LV_PART_KNOB);
 343:..\..\..\arduinoLCD\test\Pain Drain\libraries\lvgl\src\extra\widgets\colorwheel/lv_colorwheel.c ****     lv_coord_t right = lv_obj_get_style_pad_right(obj, LV_PART_KNOB);
 344:..\..\..\arduinoLCD\test\Pain Drain\libraries\lvgl\src\extra\widgets\colorwheel/lv_colorwheel.c ****     lv_coord_t top = lv_obj_get_style_pad_top(obj, LV_PART_KNOB);
 345:..\..\..\arduinoLCD\test\Pain Drain\libraries\lvgl\src\extra\widgets\colorwheel/lv_colorwheel.c ****     lv_coord_t bottom = lv_obj_get_style_pad_bottom(obj, LV_PART_KNOB);
 346:..\..\..\arduinoLCD\test\Pain Drain\libraries\lvgl\src\extra\widgets\colorwheel/lv_colorwheel.c **** 
 347:..\..\..\arduinoLCD\test\Pain Drain\libraries\lvgl\src\extra\widgets\colorwheel/lv_colorwheel.c ****     lv_area_t knob_area;
 348:..\..\..\arduinoLCD\test\Pain Drain\libraries\lvgl\src\extra\widgets\colorwheel/lv_colorwheel.c ****     knob_area.x1 = obj->coords.x1 + colorwheel->knob.pos.x - r - left;
 349:..\..\..\arduinoLCD\test\Pain Drain\libraries\lvgl\src\extra\widgets\colorwheel/lv_colorwheel.c ****     knob_area.y1 = obj->coords.y1 + colorwheel->knob.pos.y - r - right;
 350:..\..\..\arduinoLCD\test\Pain Drain\libraries\lvgl\src\extra\widgets\colorwheel/lv_colorwheel.c ****     knob_area.x2 = obj->coords.x1 + colorwheel->knob.pos.x + r + top;
 351:..\..\..\arduinoLCD\test\Pain Drain\libraries\lvgl\src\extra\widgets\colorwheel/lv_colorwheel.c ****     knob_area.y2 = obj->coords.y1 + colorwheel->knob.pos.y + r + bottom;
 352:..\..\..\arduinoLCD\test\Pain Drain\libraries\lvgl\src\extra\widgets\colorwheel/lv_colorwheel.c **** 
 353:..\..\..\arduinoLCD\test\Pain Drain\libraries\lvgl\src\extra\widgets\colorwheel/lv_colorwheel.c ****     return knob_area;
 354:..\..\..\arduinoLCD\test\Pain Drain\libraries\lvgl\src\extra\widgets\colorwheel/lv_colorwheel.c **** }
 355:..\..\..\arduinoLCD\test\Pain Drain\libraries\lvgl\src\extra\widgets\colorwheel/lv_colorwheel.c **** 
 356:..\..\..\arduinoLCD\test\Pain Drain\libraries\lvgl\src\extra\widgets\colorwheel/lv_colorwheel.c **** static void lv_colorwheel_event(const lv_obj_class_t * class_p, lv_event_t * e)
 357:..\..\..\arduinoLCD\test\Pain Drain\libraries\lvgl\src\extra\widgets\colorwheel/lv_colorwheel.c **** {
 358:..\..\..\arduinoLCD\test\Pain Drain\libraries\lvgl\src\extra\widgets\colorwheel/lv_colorwheel.c ****     LV_UNUSED(class_p);
 359:..\..\..\arduinoLCD\test\Pain Drain\libraries\lvgl\src\extra\widgets\colorwheel/lv_colorwheel.c **** 
 360:..\..\..\arduinoLCD\test\Pain Drain\libraries\lvgl\src\extra\widgets\colorwheel/lv_colorwheel.c ****     /*Call the ancestor's event handler*/
 361:..\..\..\arduinoLCD\test\Pain Drain\libraries\lvgl\src\extra\widgets\colorwheel/lv_colorwheel.c ****     lv_res_t res = lv_obj_event_base(MY_CLASS, e);
 362:..\..\..\arduinoLCD\test\Pain Drain\libraries\lvgl\src\extra\widgets\colorwheel/lv_colorwheel.c **** 
 363:..\..\..\arduinoLCD\test\Pain Drain\libraries\lvgl\src\extra\widgets\colorwheel/lv_colorwheel.c ****     if(res != LV_RES_OK) return;
 364:..\..\..\arduinoLCD\test\Pain Drain\libraries\lvgl\src\extra\widgets\colorwheel/lv_colorwheel.c **** 
 365:..\..\..\arduinoLCD\test\Pain Drain\libraries\lvgl\src\extra\widgets\colorwheel/lv_colorwheel.c ****     lv_event_code_t code = lv_event_get_code(e);
 366:..\..\..\arduinoLCD\test\Pain Drain\libraries\lvgl\src\extra\widgets\colorwheel/lv_colorwheel.c ****     lv_obj_t * obj = lv_event_get_target(e);
 367:..\..\..\arduinoLCD\test\Pain Drain\libraries\lvgl\src\extra\widgets\colorwheel/lv_colorwheel.c ****     lv_colorwheel_t * colorwheel = (lv_colorwheel_t *)obj;
 368:..\..\..\arduinoLCD\test\Pain Drain\libraries\lvgl\src\extra\widgets\colorwheel/lv_colorwheel.c **** 
 369:..\..\..\arduinoLCD\test\Pain Drain\libraries\lvgl\src\extra\widgets\colorwheel/lv_colorwheel.c ****     if(code == LV_EVENT_REFR_EXT_DRAW_SIZE) {
 370:..\..\..\arduinoLCD\test\Pain Drain\libraries\lvgl\src\extra\widgets\colorwheel/lv_colorwheel.c ****         lv_coord_t left = lv_obj_get_style_pad_left(obj, LV_PART_KNOB);
 371:..\..\..\arduinoLCD\test\Pain Drain\libraries\lvgl\src\extra\widgets\colorwheel/lv_colorwheel.c ****         lv_coord_t right = lv_obj_get_style_pad_right(obj, LV_PART_KNOB);
 372:..\..\..\arduinoLCD\test\Pain Drain\libraries\lvgl\src\extra\widgets\colorwheel/lv_colorwheel.c ****         lv_coord_t top = lv_obj_get_style_pad_top(obj, LV_PART_KNOB);
 373:..\..\..\arduinoLCD\test\Pain Drain\libraries\lvgl\src\extra\widgets\colorwheel/lv_colorwheel.c ****         lv_coord_t bottom = lv_obj_get_style_pad_bottom(obj, LV_PART_KNOB);
ARM GAS  C:\Users\haske\AppData\Local\Temp\ccIkbvey.s 			page 8


 374:..\..\..\arduinoLCD\test\Pain Drain\libraries\lvgl\src\extra\widgets\colorwheel/lv_colorwheel.c **** 
 375:..\..\..\arduinoLCD\test\Pain Drain\libraries\lvgl\src\extra\widgets\colorwheel/lv_colorwheel.c ****         lv_coord_t knob_pad = LV_MAX4(left, right, top, bottom) + 2;
 376:..\..\..\arduinoLCD\test\Pain Drain\libraries\lvgl\src\extra\widgets\colorwheel/lv_colorwheel.c ****         lv_coord_t * s = lv_event_get_param(e);
 377:..\..\..\arduinoLCD\test\Pain Drain\libraries\lvgl\src\extra\widgets\colorwheel/lv_colorwheel.c ****         *s = LV_MAX(*s, knob_pad);
 378:..\..\..\arduinoLCD\test\Pain Drain\libraries\lvgl\src\extra\widgets\colorwheel/lv_colorwheel.c ****     }
 379:..\..\..\arduinoLCD\test\Pain Drain\libraries\lvgl\src\extra\widgets\colorwheel/lv_colorwheel.c ****     else if(code == LV_EVENT_SIZE_CHANGED) {
 380:..\..\..\arduinoLCD\test\Pain Drain\libraries\lvgl\src\extra\widgets\colorwheel/lv_colorwheel.c ****         void * param = lv_event_get_param(e);
 381:..\..\..\arduinoLCD\test\Pain Drain\libraries\lvgl\src\extra\widgets\colorwheel/lv_colorwheel.c ****         /*Refresh extended draw area to make knob visible*/
 382:..\..\..\arduinoLCD\test\Pain Drain\libraries\lvgl\src\extra\widgets\colorwheel/lv_colorwheel.c ****         if(lv_obj_get_width(obj) != lv_area_get_width(param) ||
 383:..\..\..\arduinoLCD\test\Pain Drain\libraries\lvgl\src\extra\widgets\colorwheel/lv_colorwheel.c ****            lv_obj_get_height(obj) != lv_area_get_height(param)) {
 384:..\..\..\arduinoLCD\test\Pain Drain\libraries\lvgl\src\extra\widgets\colorwheel/lv_colorwheel.c ****             refr_knob_pos(obj);
 385:..\..\..\arduinoLCD\test\Pain Drain\libraries\lvgl\src\extra\widgets\colorwheel/lv_colorwheel.c ****         }
 386:..\..\..\arduinoLCD\test\Pain Drain\libraries\lvgl\src\extra\widgets\colorwheel/lv_colorwheel.c ****     }
 387:..\..\..\arduinoLCD\test\Pain Drain\libraries\lvgl\src\extra\widgets\colorwheel/lv_colorwheel.c ****     else if(code == LV_EVENT_STYLE_CHANGED) {
 388:..\..\..\arduinoLCD\test\Pain Drain\libraries\lvgl\src\extra\widgets\colorwheel/lv_colorwheel.c ****         /*Refresh extended draw area to make knob visible*/
 389:..\..\..\arduinoLCD\test\Pain Drain\libraries\lvgl\src\extra\widgets\colorwheel/lv_colorwheel.c ****         refr_knob_pos(obj);
 390:..\..\..\arduinoLCD\test\Pain Drain\libraries\lvgl\src\extra\widgets\colorwheel/lv_colorwheel.c ****     }
 391:..\..\..\arduinoLCD\test\Pain Drain\libraries\lvgl\src\extra\widgets\colorwheel/lv_colorwheel.c ****     else if(code == LV_EVENT_KEY) {
 392:..\..\..\arduinoLCD\test\Pain Drain\libraries\lvgl\src\extra\widgets\colorwheel/lv_colorwheel.c ****         uint32_t c = *((uint32_t *)lv_event_get_param(e)); /*uint32_t because can be UTF-8*/
 393:..\..\..\arduinoLCD\test\Pain Drain\libraries\lvgl\src\extra\widgets\colorwheel/lv_colorwheel.c **** 
 394:..\..\..\arduinoLCD\test\Pain Drain\libraries\lvgl\src\extra\widgets\colorwheel/lv_colorwheel.c ****         if(c == LV_KEY_RIGHT || c == LV_KEY_UP) {
 395:..\..\..\arduinoLCD\test\Pain Drain\libraries\lvgl\src\extra\widgets\colorwheel/lv_colorwheel.c ****             lv_color_hsv_t hsv_cur;
 396:..\..\..\arduinoLCD\test\Pain Drain\libraries\lvgl\src\extra\widgets\colorwheel/lv_colorwheel.c ****             hsv_cur = colorwheel->hsv;
 397:..\..\..\arduinoLCD\test\Pain Drain\libraries\lvgl\src\extra\widgets\colorwheel/lv_colorwheel.c **** 
 398:..\..\..\arduinoLCD\test\Pain Drain\libraries\lvgl\src\extra\widgets\colorwheel/lv_colorwheel.c ****             switch(colorwheel->mode) {
 399:..\..\..\arduinoLCD\test\Pain Drain\libraries\lvgl\src\extra\widgets\colorwheel/lv_colorwheel.c ****                 case LV_COLORWHEEL_MODE_HUE:
 400:..\..\..\arduinoLCD\test\Pain Drain\libraries\lvgl\src\extra\widgets\colorwheel/lv_colorwheel.c ****                     hsv_cur.h = (colorwheel->hsv.h + 1) % 360;
 401:..\..\..\arduinoLCD\test\Pain Drain\libraries\lvgl\src\extra\widgets\colorwheel/lv_colorwheel.c ****                     break;
 402:..\..\..\arduinoLCD\test\Pain Drain\libraries\lvgl\src\extra\widgets\colorwheel/lv_colorwheel.c ****                 case LV_COLORWHEEL_MODE_SATURATION:
 403:..\..\..\arduinoLCD\test\Pain Drain\libraries\lvgl\src\extra\widgets\colorwheel/lv_colorwheel.c ****                     hsv_cur.s = (colorwheel->hsv.s + 1) % 100;
 404:..\..\..\arduinoLCD\test\Pain Drain\libraries\lvgl\src\extra\widgets\colorwheel/lv_colorwheel.c ****                     break;
 405:..\..\..\arduinoLCD\test\Pain Drain\libraries\lvgl\src\extra\widgets\colorwheel/lv_colorwheel.c ****                 case LV_COLORWHEEL_MODE_VALUE:
 406:..\..\..\arduinoLCD\test\Pain Drain\libraries\lvgl\src\extra\widgets\colorwheel/lv_colorwheel.c ****                     hsv_cur.v = (colorwheel->hsv.v + 1) % 100;
 407:..\..\..\arduinoLCD\test\Pain Drain\libraries\lvgl\src\extra\widgets\colorwheel/lv_colorwheel.c ****                     break;
 408:..\..\..\arduinoLCD\test\Pain Drain\libraries\lvgl\src\extra\widgets\colorwheel/lv_colorwheel.c ****             }
 409:..\..\..\arduinoLCD\test\Pain Drain\libraries\lvgl\src\extra\widgets\colorwheel/lv_colorwheel.c **** 
 410:..\..\..\arduinoLCD\test\Pain Drain\libraries\lvgl\src\extra\widgets\colorwheel/lv_colorwheel.c ****             if(lv_colorwheel_set_hsv(obj, hsv_cur)) {
 411:..\..\..\arduinoLCD\test\Pain Drain\libraries\lvgl\src\extra\widgets\colorwheel/lv_colorwheel.c ****                 res = lv_event_send(obj, LV_EVENT_VALUE_CHANGED, NULL);
 412:..\..\..\arduinoLCD\test\Pain Drain\libraries\lvgl\src\extra\widgets\colorwheel/lv_colorwheel.c ****                 if(res != LV_RES_OK) return;
 413:..\..\..\arduinoLCD\test\Pain Drain\libraries\lvgl\src\extra\widgets\colorwheel/lv_colorwheel.c ****             }
 414:..\..\..\arduinoLCD\test\Pain Drain\libraries\lvgl\src\extra\widgets\colorwheel/lv_colorwheel.c ****         }
 415:..\..\..\arduinoLCD\test\Pain Drain\libraries\lvgl\src\extra\widgets\colorwheel/lv_colorwheel.c ****         else if(c == LV_KEY_LEFT || c == LV_KEY_DOWN) {
 416:..\..\..\arduinoLCD\test\Pain Drain\libraries\lvgl\src\extra\widgets\colorwheel/lv_colorwheel.c ****             lv_color_hsv_t hsv_cur;
 417:..\..\..\arduinoLCD\test\Pain Drain\libraries\lvgl\src\extra\widgets\colorwheel/lv_colorwheel.c ****             hsv_cur = colorwheel->hsv;
 418:..\..\..\arduinoLCD\test\Pain Drain\libraries\lvgl\src\extra\widgets\colorwheel/lv_colorwheel.c **** 
 419:..\..\..\arduinoLCD\test\Pain Drain\libraries\lvgl\src\extra\widgets\colorwheel/lv_colorwheel.c ****             switch(colorwheel->mode) {
 420:..\..\..\arduinoLCD\test\Pain Drain\libraries\lvgl\src\extra\widgets\colorwheel/lv_colorwheel.c ****                 case LV_COLORWHEEL_MODE_HUE:
 421:..\..\..\arduinoLCD\test\Pain Drain\libraries\lvgl\src\extra\widgets\colorwheel/lv_colorwheel.c ****                     hsv_cur.h = colorwheel->hsv.h > 0 ? (colorwheel->hsv.h - 1) : 360;
 422:..\..\..\arduinoLCD\test\Pain Drain\libraries\lvgl\src\extra\widgets\colorwheel/lv_colorwheel.c ****                     break;
 423:..\..\..\arduinoLCD\test\Pain Drain\libraries\lvgl\src\extra\widgets\colorwheel/lv_colorwheel.c ****                 case LV_COLORWHEEL_MODE_SATURATION:
 424:..\..\..\arduinoLCD\test\Pain Drain\libraries\lvgl\src\extra\widgets\colorwheel/lv_colorwheel.c ****                     hsv_cur.s = colorwheel->hsv.s > 0 ? (colorwheel->hsv.s - 1) : 100;
 425:..\..\..\arduinoLCD\test\Pain Drain\libraries\lvgl\src\extra\widgets\colorwheel/lv_colorwheel.c ****                     break;
 426:..\..\..\arduinoLCD\test\Pain Drain\libraries\lvgl\src\extra\widgets\colorwheel/lv_colorwheel.c ****                 case LV_COLORWHEEL_MODE_VALUE:
 427:..\..\..\arduinoLCD\test\Pain Drain\libraries\lvgl\src\extra\widgets\colorwheel/lv_colorwheel.c ****                     hsv_cur.v = colorwheel->hsv.v > 0 ? (colorwheel->hsv.v - 1) : 100;
 428:..\..\..\arduinoLCD\test\Pain Drain\libraries\lvgl\src\extra\widgets\colorwheel/lv_colorwheel.c ****                     break;
 429:..\..\..\arduinoLCD\test\Pain Drain\libraries\lvgl\src\extra\widgets\colorwheel/lv_colorwheel.c ****             }
 430:..\..\..\arduinoLCD\test\Pain Drain\libraries\lvgl\src\extra\widgets\colorwheel/lv_colorwheel.c **** 
ARM GAS  C:\Users\haske\AppData\Local\Temp\ccIkbvey.s 			page 9


 431:..\..\..\arduinoLCD\test\Pain Drain\libraries\lvgl\src\extra\widgets\colorwheel/lv_colorwheel.c ****             if(lv_colorwheel_set_hsv(obj, hsv_cur)) {
 432:..\..\..\arduinoLCD\test\Pain Drain\libraries\lvgl\src\extra\widgets\colorwheel/lv_colorwheel.c ****                 res = lv_event_send(obj, LV_EVENT_VALUE_CHANGED, NULL);
 433:..\..\..\arduinoLCD\test\Pain Drain\libraries\lvgl\src\extra\widgets\colorwheel/lv_colorwheel.c ****                 if(res != LV_RES_OK) return;
 434:..\..\..\arduinoLCD\test\Pain Drain\libraries\lvgl\src\extra\widgets\colorwheel/lv_colorwheel.c ****             }
 435:..\..\..\arduinoLCD\test\Pain Drain\libraries\lvgl\src\extra\widgets\colorwheel/lv_colorwheel.c ****         }
 436:..\..\..\arduinoLCD\test\Pain Drain\libraries\lvgl\src\extra\widgets\colorwheel/lv_colorwheel.c ****     }
 437:..\..\..\arduinoLCD\test\Pain Drain\libraries\lvgl\src\extra\widgets\colorwheel/lv_colorwheel.c ****     else if(code == LV_EVENT_PRESSED) {
 438:..\..\..\arduinoLCD\test\Pain Drain\libraries\lvgl\src\extra\widgets\colorwheel/lv_colorwheel.c ****         colorwheel->last_change_time = lv_tick_get();
 439:..\..\..\arduinoLCD\test\Pain Drain\libraries\lvgl\src\extra\widgets\colorwheel/lv_colorwheel.c ****         lv_indev_get_point(lv_indev_get_act(), &colorwheel->last_press_point);
 440:..\..\..\arduinoLCD\test\Pain Drain\libraries\lvgl\src\extra\widgets\colorwheel/lv_colorwheel.c ****         res = double_click_reset(obj);
 441:..\..\..\arduinoLCD\test\Pain Drain\libraries\lvgl\src\extra\widgets\colorwheel/lv_colorwheel.c ****         if(res != LV_RES_OK) return;
 442:..\..\..\arduinoLCD\test\Pain Drain\libraries\lvgl\src\extra\widgets\colorwheel/lv_colorwheel.c ****     }
 443:..\..\..\arduinoLCD\test\Pain Drain\libraries\lvgl\src\extra\widgets\colorwheel/lv_colorwheel.c ****     else if(code == LV_EVENT_PRESSING) {
 444:..\..\..\arduinoLCD\test\Pain Drain\libraries\lvgl\src\extra\widgets\colorwheel/lv_colorwheel.c ****         lv_indev_t * indev = lv_indev_get_act();
 445:..\..\..\arduinoLCD\test\Pain Drain\libraries\lvgl\src\extra\widgets\colorwheel/lv_colorwheel.c ****         if(indev == NULL) return;
 446:..\..\..\arduinoLCD\test\Pain Drain\libraries\lvgl\src\extra\widgets\colorwheel/lv_colorwheel.c **** 
 447:..\..\..\arduinoLCD\test\Pain Drain\libraries\lvgl\src\extra\widgets\colorwheel/lv_colorwheel.c ****         lv_indev_type_t indev_type = lv_indev_get_type(indev);
 448:..\..\..\arduinoLCD\test\Pain Drain\libraries\lvgl\src\extra\widgets\colorwheel/lv_colorwheel.c ****         lv_point_t p;
 449:..\..\..\arduinoLCD\test\Pain Drain\libraries\lvgl\src\extra\widgets\colorwheel/lv_colorwheel.c ****         if(indev_type == LV_INDEV_TYPE_ENCODER || indev_type == LV_INDEV_TYPE_KEYPAD) {
 450:..\..\..\arduinoLCD\test\Pain Drain\libraries\lvgl\src\extra\widgets\colorwheel/lv_colorwheel.c ****             p.x = obj->coords.x1 + lv_obj_get_width(obj) / 2;
 451:..\..\..\arduinoLCD\test\Pain Drain\libraries\lvgl\src\extra\widgets\colorwheel/lv_colorwheel.c ****             p.y = obj->coords.y1 + lv_obj_get_height(obj) / 2;
 452:..\..\..\arduinoLCD\test\Pain Drain\libraries\lvgl\src\extra\widgets\colorwheel/lv_colorwheel.c ****         }
 453:..\..\..\arduinoLCD\test\Pain Drain\libraries\lvgl\src\extra\widgets\colorwheel/lv_colorwheel.c ****         else {
 454:..\..\..\arduinoLCD\test\Pain Drain\libraries\lvgl\src\extra\widgets\colorwheel/lv_colorwheel.c ****             lv_indev_get_point(indev, &p);
 455:..\..\..\arduinoLCD\test\Pain Drain\libraries\lvgl\src\extra\widgets\colorwheel/lv_colorwheel.c ****         }
 456:..\..\..\arduinoLCD\test\Pain Drain\libraries\lvgl\src\extra\widgets\colorwheel/lv_colorwheel.c **** 
 457:..\..\..\arduinoLCD\test\Pain Drain\libraries\lvgl\src\extra\widgets\colorwheel/lv_colorwheel.c ****         lv_coord_t drag_limit = indev->driver->scroll_limit;
 458:..\..\..\arduinoLCD\test\Pain Drain\libraries\lvgl\src\extra\widgets\colorwheel/lv_colorwheel.c ****         if((LV_ABS(p.x - colorwheel->last_press_point.x) > drag_limit) ||
 459:..\..\..\arduinoLCD\test\Pain Drain\libraries\lvgl\src\extra\widgets\colorwheel/lv_colorwheel.c ****            (LV_ABS(p.y - colorwheel->last_press_point.y) > drag_limit)) {
 460:..\..\..\arduinoLCD\test\Pain Drain\libraries\lvgl\src\extra\widgets\colorwheel/lv_colorwheel.c ****             colorwheel->last_change_time = lv_tick_get();
 461:..\..\..\arduinoLCD\test\Pain Drain\libraries\lvgl\src\extra\widgets\colorwheel/lv_colorwheel.c ****             colorwheel->last_press_point.x = p.x;
 462:..\..\..\arduinoLCD\test\Pain Drain\libraries\lvgl\src\extra\widgets\colorwheel/lv_colorwheel.c ****             colorwheel->last_press_point.y = p.y;
 463:..\..\..\arduinoLCD\test\Pain Drain\libraries\lvgl\src\extra\widgets\colorwheel/lv_colorwheel.c ****         }
 464:..\..\..\arduinoLCD\test\Pain Drain\libraries\lvgl\src\extra\widgets\colorwheel/lv_colorwheel.c **** 
 465:..\..\..\arduinoLCD\test\Pain Drain\libraries\lvgl\src\extra\widgets\colorwheel/lv_colorwheel.c ****         p.x -= obj->coords.x1;
 466:..\..\..\arduinoLCD\test\Pain Drain\libraries\lvgl\src\extra\widgets\colorwheel/lv_colorwheel.c ****         p.y -= obj->coords.y1;
 467:..\..\..\arduinoLCD\test\Pain Drain\libraries\lvgl\src\extra\widgets\colorwheel/lv_colorwheel.c **** 
 468:..\..\..\arduinoLCD\test\Pain Drain\libraries\lvgl\src\extra\widgets\colorwheel/lv_colorwheel.c ****         /*Ignore pressing in the inner area*/
 469:..\..\..\arduinoLCD\test\Pain Drain\libraries\lvgl\src\extra\widgets\colorwheel/lv_colorwheel.c ****         uint16_t w = lv_obj_get_width(obj);
 470:..\..\..\arduinoLCD\test\Pain Drain\libraries\lvgl\src\extra\widgets\colorwheel/lv_colorwheel.c **** 
 471:..\..\..\arduinoLCD\test\Pain Drain\libraries\lvgl\src\extra\widgets\colorwheel/lv_colorwheel.c ****         int16_t angle = 0;
 472:..\..\..\arduinoLCD\test\Pain Drain\libraries\lvgl\src\extra\widgets\colorwheel/lv_colorwheel.c ****         lv_coord_t cir_w = lv_obj_get_style_arc_width(obj, LV_PART_MAIN);
 473:..\..\..\arduinoLCD\test\Pain Drain\libraries\lvgl\src\extra\widgets\colorwheel/lv_colorwheel.c **** 
 474:..\..\..\arduinoLCD\test\Pain Drain\libraries\lvgl\src\extra\widgets\colorwheel/lv_colorwheel.c ****         lv_coord_t r_in = w / 2;
 475:..\..\..\arduinoLCD\test\Pain Drain\libraries\lvgl\src\extra\widgets\colorwheel/lv_colorwheel.c ****         p.x -= r_in;
 476:..\..\..\arduinoLCD\test\Pain Drain\libraries\lvgl\src\extra\widgets\colorwheel/lv_colorwheel.c ****         p.y -= r_in;
 477:..\..\..\arduinoLCD\test\Pain Drain\libraries\lvgl\src\extra\widgets\colorwheel/lv_colorwheel.c ****         bool on_ring = true;
 478:..\..\..\arduinoLCD\test\Pain Drain\libraries\lvgl\src\extra\widgets\colorwheel/lv_colorwheel.c ****         r_in -= cir_w;
 479:..\..\..\arduinoLCD\test\Pain Drain\libraries\lvgl\src\extra\widgets\colorwheel/lv_colorwheel.c ****         if(r_in > LV_DPI_DEF / 2) {
 480:..\..\..\arduinoLCD\test\Pain Drain\libraries\lvgl\src\extra\widgets\colorwheel/lv_colorwheel.c ****             lv_coord_t inner = cir_w / 2;
 481:..\..\..\arduinoLCD\test\Pain Drain\libraries\lvgl\src\extra\widgets\colorwheel/lv_colorwheel.c ****             r_in -= inner;
 482:..\..\..\arduinoLCD\test\Pain Drain\libraries\lvgl\src\extra\widgets\colorwheel/lv_colorwheel.c **** 
 483:..\..\..\arduinoLCD\test\Pain Drain\libraries\lvgl\src\extra\widgets\colorwheel/lv_colorwheel.c ****             if(r_in < LV_DPI_DEF / 2) r_in = LV_DPI_DEF / 2;
 484:..\..\..\arduinoLCD\test\Pain Drain\libraries\lvgl\src\extra\widgets\colorwheel/lv_colorwheel.c ****         }
 485:..\..\..\arduinoLCD\test\Pain Drain\libraries\lvgl\src\extra\widgets\colorwheel/lv_colorwheel.c **** 
 486:..\..\..\arduinoLCD\test\Pain Drain\libraries\lvgl\src\extra\widgets\colorwheel/lv_colorwheel.c ****         if(p.x * p.x + p.y * p.y < r_in * r_in) {
 487:..\..\..\arduinoLCD\test\Pain Drain\libraries\lvgl\src\extra\widgets\colorwheel/lv_colorwheel.c ****             on_ring = false;
ARM GAS  C:\Users\haske\AppData\Local\Temp\ccIkbvey.s 			page 10


 488:..\..\..\arduinoLCD\test\Pain Drain\libraries\lvgl\src\extra\widgets\colorwheel/lv_colorwheel.c ****         }
 489:..\..\..\arduinoLCD\test\Pain Drain\libraries\lvgl\src\extra\widgets\colorwheel/lv_colorwheel.c **** 
 490:..\..\..\arduinoLCD\test\Pain Drain\libraries\lvgl\src\extra\widgets\colorwheel/lv_colorwheel.c ****         /*If the inner area is being pressed, go to the next color mode on long press*/
 491:..\..\..\arduinoLCD\test\Pain Drain\libraries\lvgl\src\extra\widgets\colorwheel/lv_colorwheel.c ****         uint32_t diff = lv_tick_elaps(colorwheel->last_change_time);
 492:..\..\..\arduinoLCD\test\Pain Drain\libraries\lvgl\src\extra\widgets\colorwheel/lv_colorwheel.c ****         if(!on_ring && diff > indev->driver->long_press_time && !colorwheel->mode_fixed) {
 493:..\..\..\arduinoLCD\test\Pain Drain\libraries\lvgl\src\extra\widgets\colorwheel/lv_colorwheel.c ****             next_color_mode(obj);
 494:..\..\..\arduinoLCD\test\Pain Drain\libraries\lvgl\src\extra\widgets\colorwheel/lv_colorwheel.c ****             lv_indev_wait_release(lv_indev_get_act());
 495:..\..\..\arduinoLCD\test\Pain Drain\libraries\lvgl\src\extra\widgets\colorwheel/lv_colorwheel.c ****             return;
 496:..\..\..\arduinoLCD\test\Pain Drain\libraries\lvgl\src\extra\widgets\colorwheel/lv_colorwheel.c ****         }
 497:..\..\..\arduinoLCD\test\Pain Drain\libraries\lvgl\src\extra\widgets\colorwheel/lv_colorwheel.c **** 
 498:..\..\..\arduinoLCD\test\Pain Drain\libraries\lvgl\src\extra\widgets\colorwheel/lv_colorwheel.c ****         /*Set the angle only if pressed on the ring*/
 499:..\..\..\arduinoLCD\test\Pain Drain\libraries\lvgl\src\extra\widgets\colorwheel/lv_colorwheel.c ****         if(!on_ring) return;
 500:..\..\..\arduinoLCD\test\Pain Drain\libraries\lvgl\src\extra\widgets\colorwheel/lv_colorwheel.c **** 
 501:..\..\..\arduinoLCD\test\Pain Drain\libraries\lvgl\src\extra\widgets\colorwheel/lv_colorwheel.c ****         angle = lv_atan2(p.x, p.y) % 360;
 502:..\..\..\arduinoLCD\test\Pain Drain\libraries\lvgl\src\extra\widgets\colorwheel/lv_colorwheel.c **** 
 503:..\..\..\arduinoLCD\test\Pain Drain\libraries\lvgl\src\extra\widgets\colorwheel/lv_colorwheel.c ****         lv_color_hsv_t hsv_cur;
 504:..\..\..\arduinoLCD\test\Pain Drain\libraries\lvgl\src\extra\widgets\colorwheel/lv_colorwheel.c ****         hsv_cur = colorwheel->hsv;
 505:..\..\..\arduinoLCD\test\Pain Drain\libraries\lvgl\src\extra\widgets\colorwheel/lv_colorwheel.c **** 
 506:..\..\..\arduinoLCD\test\Pain Drain\libraries\lvgl\src\extra\widgets\colorwheel/lv_colorwheel.c ****         switch(colorwheel->mode) {
 507:..\..\..\arduinoLCD\test\Pain Drain\libraries\lvgl\src\extra\widgets\colorwheel/lv_colorwheel.c ****             case LV_COLORWHEEL_MODE_HUE:
 508:..\..\..\arduinoLCD\test\Pain Drain\libraries\lvgl\src\extra\widgets\colorwheel/lv_colorwheel.c ****                 hsv_cur.h = angle;
 509:..\..\..\arduinoLCD\test\Pain Drain\libraries\lvgl\src\extra\widgets\colorwheel/lv_colorwheel.c ****                 break;
 510:..\..\..\arduinoLCD\test\Pain Drain\libraries\lvgl\src\extra\widgets\colorwheel/lv_colorwheel.c ****             case LV_COLORWHEEL_MODE_SATURATION:
 511:..\..\..\arduinoLCD\test\Pain Drain\libraries\lvgl\src\extra\widgets\colorwheel/lv_colorwheel.c ****                 hsv_cur.s = (angle * 100) / 360;
 512:..\..\..\arduinoLCD\test\Pain Drain\libraries\lvgl\src\extra\widgets\colorwheel/lv_colorwheel.c ****                 break;
 513:..\..\..\arduinoLCD\test\Pain Drain\libraries\lvgl\src\extra\widgets\colorwheel/lv_colorwheel.c ****             case LV_COLORWHEEL_MODE_VALUE:
 514:..\..\..\arduinoLCD\test\Pain Drain\libraries\lvgl\src\extra\widgets\colorwheel/lv_colorwheel.c ****                 hsv_cur.v = (angle * 100) / 360;
 515:..\..\..\arduinoLCD\test\Pain Drain\libraries\lvgl\src\extra\widgets\colorwheel/lv_colorwheel.c ****                 break;
 516:..\..\..\arduinoLCD\test\Pain Drain\libraries\lvgl\src\extra\widgets\colorwheel/lv_colorwheel.c ****         }
 517:..\..\..\arduinoLCD\test\Pain Drain\libraries\lvgl\src\extra\widgets\colorwheel/lv_colorwheel.c **** 
 518:..\..\..\arduinoLCD\test\Pain Drain\libraries\lvgl\src\extra\widgets\colorwheel/lv_colorwheel.c ****         if(lv_colorwheel_set_hsv(obj, hsv_cur)) {
 519:..\..\..\arduinoLCD\test\Pain Drain\libraries\lvgl\src\extra\widgets\colorwheel/lv_colorwheel.c ****             res = lv_event_send(obj, LV_EVENT_VALUE_CHANGED, NULL);
 520:..\..\..\arduinoLCD\test\Pain Drain\libraries\lvgl\src\extra\widgets\colorwheel/lv_colorwheel.c ****             if(res != LV_RES_OK) return;
 521:..\..\..\arduinoLCD\test\Pain Drain\libraries\lvgl\src\extra\widgets\colorwheel/lv_colorwheel.c ****         }
 522:..\..\..\arduinoLCD\test\Pain Drain\libraries\lvgl\src\extra\widgets\colorwheel/lv_colorwheel.c ****     }
 523:..\..\..\arduinoLCD\test\Pain Drain\libraries\lvgl\src\extra\widgets\colorwheel/lv_colorwheel.c ****     else if(code == LV_EVENT_HIT_TEST) {
 524:..\..\..\arduinoLCD\test\Pain Drain\libraries\lvgl\src\extra\widgets\colorwheel/lv_colorwheel.c ****         lv_hit_test_info_t * info = lv_event_get_param(e);;
 525:..\..\..\arduinoLCD\test\Pain Drain\libraries\lvgl\src\extra\widgets\colorwheel/lv_colorwheel.c **** 
 526:..\..\..\arduinoLCD\test\Pain Drain\libraries\lvgl\src\extra\widgets\colorwheel/lv_colorwheel.c ****         /*Valid clicks can be only in the circle*/
 527:..\..\..\arduinoLCD\test\Pain Drain\libraries\lvgl\src\extra\widgets\colorwheel/lv_colorwheel.c ****         info->res = _lv_area_is_point_on(&obj->coords, info->point, LV_RADIUS_CIRCLE);
 528:..\..\..\arduinoLCD\test\Pain Drain\libraries\lvgl\src\extra\widgets\colorwheel/lv_colorwheel.c ****     }
 529:..\..\..\arduinoLCD\test\Pain Drain\libraries\lvgl\src\extra\widgets\colorwheel/lv_colorwheel.c ****     else if(code == LV_EVENT_DRAW_MAIN) {
 530:..\..\..\arduinoLCD\test\Pain Drain\libraries\lvgl\src\extra\widgets\colorwheel/lv_colorwheel.c ****         draw_disc_grad(e);
 531:..\..\..\arduinoLCD\test\Pain Drain\libraries\lvgl\src\extra\widgets\colorwheel/lv_colorwheel.c ****         draw_knob(e);
 532:..\..\..\arduinoLCD\test\Pain Drain\libraries\lvgl\src\extra\widgets\colorwheel/lv_colorwheel.c ****     }
 533:..\..\..\arduinoLCD\test\Pain Drain\libraries\lvgl\src\extra\widgets\colorwheel/lv_colorwheel.c ****     else if(code == LV_EVENT_COVER_CHECK) {
 534:..\..\..\arduinoLCD\test\Pain Drain\libraries\lvgl\src\extra\widgets\colorwheel/lv_colorwheel.c ****         lv_cover_check_info_t * info = lv_event_get_param(e);
 535:..\..\..\arduinoLCD\test\Pain Drain\libraries\lvgl\src\extra\widgets\colorwheel/lv_colorwheel.c ****         if(info->res != LV_COVER_RES_MASKED) info->res = LV_COVER_RES_NOT_COVER;
 536:..\..\..\arduinoLCD\test\Pain Drain\libraries\lvgl\src\extra\widgets\colorwheel/lv_colorwheel.c ****     }
 537:..\..\..\arduinoLCD\test\Pain Drain\libraries\lvgl\src\extra\widgets\colorwheel/lv_colorwheel.c **** }
 538:..\..\..\arduinoLCD\test\Pain Drain\libraries\lvgl\src\extra\widgets\colorwheel/lv_colorwheel.c **** 
 539:..\..\..\arduinoLCD\test\Pain Drain\libraries\lvgl\src\extra\widgets\colorwheel/lv_colorwheel.c **** 
 540:..\..\..\arduinoLCD\test\Pain Drain\libraries\lvgl\src\extra\widgets\colorwheel/lv_colorwheel.c **** 
 541:..\..\..\arduinoLCD\test\Pain Drain\libraries\lvgl\src\extra\widgets\colorwheel/lv_colorwheel.c **** static void next_color_mode(lv_obj_t * obj)
 542:..\..\..\arduinoLCD\test\Pain Drain\libraries\lvgl\src\extra\widgets\colorwheel/lv_colorwheel.c **** {
 543:..\..\..\arduinoLCD\test\Pain Drain\libraries\lvgl\src\extra\widgets\colorwheel/lv_colorwheel.c ****     lv_colorwheel_t * colorwheel = (lv_colorwheel_t *)obj;
 544:..\..\..\arduinoLCD\test\Pain Drain\libraries\lvgl\src\extra\widgets\colorwheel/lv_colorwheel.c ****     colorwheel->mode = (colorwheel->mode + 1) % 3;
ARM GAS  C:\Users\haske\AppData\Local\Temp\ccIkbvey.s 			page 11


 545:..\..\..\arduinoLCD\test\Pain Drain\libraries\lvgl\src\extra\widgets\colorwheel/lv_colorwheel.c ****     refr_knob_pos(obj);
 546:..\..\..\arduinoLCD\test\Pain Drain\libraries\lvgl\src\extra\widgets\colorwheel/lv_colorwheel.c ****     lv_obj_invalidate(obj);
 547:..\..\..\arduinoLCD\test\Pain Drain\libraries\lvgl\src\extra\widgets\colorwheel/lv_colorwheel.c **** }
 548:..\..\..\arduinoLCD\test\Pain Drain\libraries\lvgl\src\extra\widgets\colorwheel/lv_colorwheel.c **** 
 549:..\..\..\arduinoLCD\test\Pain Drain\libraries\lvgl\src\extra\widgets\colorwheel/lv_colorwheel.c **** static void refr_knob_pos(lv_obj_t * obj)
 550:..\..\..\arduinoLCD\test\Pain Drain\libraries\lvgl\src\extra\widgets\colorwheel/lv_colorwheel.c **** {
 551:..\..\..\arduinoLCD\test\Pain Drain\libraries\lvgl\src\extra\widgets\colorwheel/lv_colorwheel.c ****     invalidate_knob(obj);
 552:..\..\..\arduinoLCD\test\Pain Drain\libraries\lvgl\src\extra\widgets\colorwheel/lv_colorwheel.c **** 
 553:..\..\..\arduinoLCD\test\Pain Drain\libraries\lvgl\src\extra\widgets\colorwheel/lv_colorwheel.c ****     lv_colorwheel_t * colorwheel = (lv_colorwheel_t *)obj;
 554:..\..\..\arduinoLCD\test\Pain Drain\libraries\lvgl\src\extra\widgets\colorwheel/lv_colorwheel.c ****     lv_coord_t w = lv_obj_get_width(obj);
 555:..\..\..\arduinoLCD\test\Pain Drain\libraries\lvgl\src\extra\widgets\colorwheel/lv_colorwheel.c **** 
 556:..\..\..\arduinoLCD\test\Pain Drain\libraries\lvgl\src\extra\widgets\colorwheel/lv_colorwheel.c ****     lv_coord_t scale_w = lv_obj_get_style_arc_width(obj, LV_PART_MAIN);
 557:..\..\..\arduinoLCD\test\Pain Drain\libraries\lvgl\src\extra\widgets\colorwheel/lv_colorwheel.c ****     lv_coord_t r = (w - scale_w) / 2;
 558:..\..\..\arduinoLCD\test\Pain Drain\libraries\lvgl\src\extra\widgets\colorwheel/lv_colorwheel.c ****     uint16_t angle = get_angle(obj);
 559:..\..\..\arduinoLCD\test\Pain Drain\libraries\lvgl\src\extra\widgets\colorwheel/lv_colorwheel.c ****     colorwheel->knob.pos.x = (((int32_t)r * lv_trigo_sin(angle)) >> LV_TRIGO_SHIFT);
 560:..\..\..\arduinoLCD\test\Pain Drain\libraries\lvgl\src\extra\widgets\colorwheel/lv_colorwheel.c ****     colorwheel->knob.pos.y = (((int32_t)r * lv_trigo_cos(angle)) >> LV_TRIGO_SHIFT);
 561:..\..\..\arduinoLCD\test\Pain Drain\libraries\lvgl\src\extra\widgets\colorwheel/lv_colorwheel.c ****     colorwheel->knob.pos.x = colorwheel->knob.pos.x + w / 2;
 562:..\..\..\arduinoLCD\test\Pain Drain\libraries\lvgl\src\extra\widgets\colorwheel/lv_colorwheel.c ****     colorwheel->knob.pos.y = colorwheel->knob.pos.y + w / 2;
 563:..\..\..\arduinoLCD\test\Pain Drain\libraries\lvgl\src\extra\widgets\colorwheel/lv_colorwheel.c **** 
 564:..\..\..\arduinoLCD\test\Pain Drain\libraries\lvgl\src\extra\widgets\colorwheel/lv_colorwheel.c ****     invalidate_knob(obj);
 565:..\..\..\arduinoLCD\test\Pain Drain\libraries\lvgl\src\extra\widgets\colorwheel/lv_colorwheel.c **** }
 566:..\..\..\arduinoLCD\test\Pain Drain\libraries\lvgl\src\extra\widgets\colorwheel/lv_colorwheel.c **** 
 567:..\..\..\arduinoLCD\test\Pain Drain\libraries\lvgl\src\extra\widgets\colorwheel/lv_colorwheel.c **** static lv_res_t double_click_reset(lv_obj_t * obj)
 568:..\..\..\arduinoLCD\test\Pain Drain\libraries\lvgl\src\extra\widgets\colorwheel/lv_colorwheel.c **** {
 569:..\..\..\arduinoLCD\test\Pain Drain\libraries\lvgl\src\extra\widgets\colorwheel/lv_colorwheel.c ****     lv_colorwheel_t * colorwheel = (lv_colorwheel_t *)obj;
 570:..\..\..\arduinoLCD\test\Pain Drain\libraries\lvgl\src\extra\widgets\colorwheel/lv_colorwheel.c ****     lv_indev_t * indev = lv_indev_get_act();
 571:..\..\..\arduinoLCD\test\Pain Drain\libraries\lvgl\src\extra\widgets\colorwheel/lv_colorwheel.c ****     /*Double clicked? Use long press time as double click time out*/
 572:..\..\..\arduinoLCD\test\Pain Drain\libraries\lvgl\src\extra\widgets\colorwheel/lv_colorwheel.c ****     if(lv_tick_elaps(colorwheel->last_click_time) < indev->driver->long_press_time) {
 573:..\..\..\arduinoLCD\test\Pain Drain\libraries\lvgl\src\extra\widgets\colorwheel/lv_colorwheel.c ****         lv_color_hsv_t hsv_cur;
 574:..\..\..\arduinoLCD\test\Pain Drain\libraries\lvgl\src\extra\widgets\colorwheel/lv_colorwheel.c ****         hsv_cur = colorwheel->hsv;
 575:..\..\..\arduinoLCD\test\Pain Drain\libraries\lvgl\src\extra\widgets\colorwheel/lv_colorwheel.c **** 
 576:..\..\..\arduinoLCD\test\Pain Drain\libraries\lvgl\src\extra\widgets\colorwheel/lv_colorwheel.c ****         switch(colorwheel->mode) {
 577:..\..\..\arduinoLCD\test\Pain Drain\libraries\lvgl\src\extra\widgets\colorwheel/lv_colorwheel.c ****             case LV_COLORWHEEL_MODE_HUE:
 578:..\..\..\arduinoLCD\test\Pain Drain\libraries\lvgl\src\extra\widgets\colorwheel/lv_colorwheel.c ****                 hsv_cur.h = 0;
 579:..\..\..\arduinoLCD\test\Pain Drain\libraries\lvgl\src\extra\widgets\colorwheel/lv_colorwheel.c ****                 break;
 580:..\..\..\arduinoLCD\test\Pain Drain\libraries\lvgl\src\extra\widgets\colorwheel/lv_colorwheel.c ****             case LV_COLORWHEEL_MODE_SATURATION:
 581:..\..\..\arduinoLCD\test\Pain Drain\libraries\lvgl\src\extra\widgets\colorwheel/lv_colorwheel.c ****                 hsv_cur.s = 100;
 582:..\..\..\arduinoLCD\test\Pain Drain\libraries\lvgl\src\extra\widgets\colorwheel/lv_colorwheel.c ****                 break;
 583:..\..\..\arduinoLCD\test\Pain Drain\libraries\lvgl\src\extra\widgets\colorwheel/lv_colorwheel.c ****             case LV_COLORWHEEL_MODE_VALUE:
 584:..\..\..\arduinoLCD\test\Pain Drain\libraries\lvgl\src\extra\widgets\colorwheel/lv_colorwheel.c ****                 hsv_cur.v = 100;
 585:..\..\..\arduinoLCD\test\Pain Drain\libraries\lvgl\src\extra\widgets\colorwheel/lv_colorwheel.c ****                 break;
 586:..\..\..\arduinoLCD\test\Pain Drain\libraries\lvgl\src\extra\widgets\colorwheel/lv_colorwheel.c ****         }
 587:..\..\..\arduinoLCD\test\Pain Drain\libraries\lvgl\src\extra\widgets\colorwheel/lv_colorwheel.c **** 
 588:..\..\..\arduinoLCD\test\Pain Drain\libraries\lvgl\src\extra\widgets\colorwheel/lv_colorwheel.c ****         lv_indev_wait_release(indev);
 589:..\..\..\arduinoLCD\test\Pain Drain\libraries\lvgl\src\extra\widgets\colorwheel/lv_colorwheel.c **** 
 590:..\..\..\arduinoLCD\test\Pain Drain\libraries\lvgl\src\extra\widgets\colorwheel/lv_colorwheel.c ****         if(lv_colorwheel_set_hsv(obj, hsv_cur)) {
 591:..\..\..\arduinoLCD\test\Pain Drain\libraries\lvgl\src\extra\widgets\colorwheel/lv_colorwheel.c ****             lv_res_t res = lv_event_send(obj, LV_EVENT_VALUE_CHANGED, NULL);
 592:..\..\..\arduinoLCD\test\Pain Drain\libraries\lvgl\src\extra\widgets\colorwheel/lv_colorwheel.c ****             if(res != LV_RES_OK) return res;
 593:..\..\..\arduinoLCD\test\Pain Drain\libraries\lvgl\src\extra\widgets\colorwheel/lv_colorwheel.c ****         }
 594:..\..\..\arduinoLCD\test\Pain Drain\libraries\lvgl\src\extra\widgets\colorwheel/lv_colorwheel.c ****     }
 595:..\..\..\arduinoLCD\test\Pain Drain\libraries\lvgl\src\extra\widgets\colorwheel/lv_colorwheel.c ****     colorwheel->last_click_time = lv_tick_get();
 596:..\..\..\arduinoLCD\test\Pain Drain\libraries\lvgl\src\extra\widgets\colorwheel/lv_colorwheel.c **** 
 597:..\..\..\arduinoLCD\test\Pain Drain\libraries\lvgl\src\extra\widgets\colorwheel/lv_colorwheel.c ****     return LV_RES_OK;
 598:..\..\..\arduinoLCD\test\Pain Drain\libraries\lvgl\src\extra\widgets\colorwheel/lv_colorwheel.c **** }
 599:..\..\..\arduinoLCD\test\Pain Drain\libraries\lvgl\src\extra\widgets\colorwheel/lv_colorwheel.c **** 
 600:..\..\..\arduinoLCD\test\Pain Drain\libraries\lvgl\src\extra\widgets\colorwheel/lv_colorwheel.c **** #define SWAPPTR(A, B) do { uint8_t * t = A; A = B; B = t; } while(0)
 601:..\..\..\arduinoLCD\test\Pain Drain\libraries\lvgl\src\extra\widgets\colorwheel/lv_colorwheel.c **** #define HSV_PTR_SWAP(sextant,r,g,b)     if((sextant) & 2) { SWAPPTR((r), (b)); } if((sextant) & 4) 
ARM GAS  C:\Users\haske\AppData\Local\Temp\ccIkbvey.s 			page 12


 602:..\..\..\arduinoLCD\test\Pain Drain\libraries\lvgl\src\extra\widgets\colorwheel/lv_colorwheel.c ****         if(!((sextant) & 1)) { SWAPPTR((r), (g)); } } else { if((sextant) & 1) { SWAPPTR((r), (g));
 603:..\..\..\arduinoLCD\test\Pain Drain\libraries\lvgl\src\extra\widgets\colorwheel/lv_colorwheel.c **** 
 604:..\..\..\arduinoLCD\test\Pain Drain\libraries\lvgl\src\extra\widgets\colorwheel/lv_colorwheel.c **** /**
 605:..\..\..\arduinoLCD\test\Pain Drain\libraries\lvgl\src\extra\widgets\colorwheel/lv_colorwheel.c ****  * Based on the idea from https://www.vagrearg.org/content/hsvrgb
 606:..\..\..\arduinoLCD\test\Pain Drain\libraries\lvgl\src\extra\widgets\colorwheel/lv_colorwheel.c ****  * Here we want to compute an approximate RGB value from a HSV input color space. We don't want to 
 607:..\..\..\arduinoLCD\test\Pain Drain\libraries\lvgl\src\extra\widgets\colorwheel/lv_colorwheel.c ****  * (for that, there's lv_color_hsv_to_rgb), but we want to be fast.
 608:..\..\..\arduinoLCD\test\Pain Drain\libraries\lvgl\src\extra\widgets\colorwheel/lv_colorwheel.c ****  *
 609:..\..\..\arduinoLCD\test\Pain Drain\libraries\lvgl\src\extra\widgets\colorwheel/lv_colorwheel.c ****  * Few tricks are used here: Hue is in range [0; 6 * 256] (so that the sextant is in the high byte 
 610:..\..\..\arduinoLCD\test\Pain Drain\libraries\lvgl\src\extra\widgets\colorwheel/lv_colorwheel.c ****  * both s and v are in [0; 255] range (very convenient to avoid divisions).
 611:..\..\..\arduinoLCD\test\Pain Drain\libraries\lvgl\src\extra\widgets\colorwheel/lv_colorwheel.c ****  *
 612:..\..\..\arduinoLCD\test\Pain Drain\libraries\lvgl\src\extra\widgets\colorwheel/lv_colorwheel.c ****  * We fold all symmetry by swapping the R, G, B pointers so that the code is the same for all sexta
 613:..\..\..\arduinoLCD\test\Pain Drain\libraries\lvgl\src\extra\widgets\colorwheel/lv_colorwheel.c ****  * We replace division by 255 by a division by 256, a.k.a a shift right by 8 bits.
 614:..\..\..\arduinoLCD\test\Pain Drain\libraries\lvgl\src\extra\widgets\colorwheel/lv_colorwheel.c ****  * This is wrong, but since this is only used to compute the pixels on the screen and not the final
 615:..\..\..\arduinoLCD\test\Pain Drain\libraries\lvgl\src\extra\widgets\colorwheel/lv_colorwheel.c ****  */
 616:..\..\..\arduinoLCD\test\Pain Drain\libraries\lvgl\src\extra\widgets\colorwheel/lv_colorwheel.c **** static void fast_hsv2rgb(uint16_t h, uint8_t s, uint8_t v, uint8_t * r, uint8_t * g, uint8_t * b)
 617:..\..\..\arduinoLCD\test\Pain Drain\libraries\lvgl\src\extra\widgets\colorwheel/lv_colorwheel.c **** {
  27              		.loc 1 617 0
  28              		.cfi_startproc
  29              		@ args = 8, pretend = 0, frame = 0
  30              		@ frame_needed = 0, uses_anonymous_args = 0
  31              	.LVL0:
  32 0000 70B5     		push	{r4, r5, r6, lr}
  33              		.cfi_def_cfa_offset 16
  34              		.cfi_offset 4, -16
  35              		.cfi_offset 5, -12
  36              		.cfi_offset 6, -8
  37              		.cfi_offset 14, -4
 618:..\..\..\arduinoLCD\test\Pain Drain\libraries\lvgl\src\extra\widgets\colorwheel/lv_colorwheel.c ****     if(!s) {
  38              		.loc 1 618 0
  39 0002 0029     		cmp	r1, #0
  40 0004 05D1     		bne	.L2
 619:..\..\..\arduinoLCD\test\Pain Drain\libraries\lvgl\src\extra\widgets\colorwheel/lv_colorwheel.c ****         *r = *g = *b = v;
  41              		.loc 1 619 0
  42 0006 0599     		ldr	r1, [sp, #20]
  43              	.LVL1:
  44 0008 0A70     		strb	r2, [r1]
  45 000a 0499     		ldr	r1, [sp, #16]
  46 000c 0A70     		strb	r2, [r1]
  47 000e 1A70     		strb	r2, [r3]
 620:..\..\..\arduinoLCD\test\Pain Drain\libraries\lvgl\src\extra\widgets\colorwheel/lv_colorwheel.c ****         return;
  48              		.loc 1 620 0
  49 0010 39E0     		b	.L1
  50              	.LVL2:
  51              	.L2:
 621:..\..\..\arduinoLCD\test\Pain Drain\libraries\lvgl\src\extra\widgets\colorwheel/lv_colorwheel.c ****     }
 622:..\..\..\arduinoLCD\test\Pain Drain\libraries\lvgl\src\extra\widgets\colorwheel/lv_colorwheel.c **** 
 623:..\..\..\arduinoLCD\test\Pain Drain\libraries\lvgl\src\extra\widgets\colorwheel/lv_colorwheel.c ****     uint8_t sextant = h >> 8;
  52              		.loc 1 623 0
  53 0012 050A     		lsrs	r5, r0, #8
  54              	.LVL3:
 624:..\..\..\arduinoLCD\test\Pain Drain\libraries\lvgl\src\extra\widgets\colorwheel/lv_colorwheel.c ****     HSV_PTR_SWAP(sextant, r, g, b); /*Swap pointers so the conversion code is the same*/
  55              		.loc 1 624 0
  56 0014 AC07     		lsls	r4, r5, #30
  57 0016 02D5     		bpl	.L4
  58 0018 1C00     		movs	r4, r3
  59              	.LBB52:
  60 001a 059B     		ldr	r3, [sp, #20]
ARM GAS  C:\Users\haske\AppData\Local\Temp\ccIkbvey.s 			page 13


  61              	.LVL4:
  62 001c 0594     		str	r4, [sp, #20]
  63              	.LVL5:
  64              	.L4:
  65              	.LBE52:
  66              		.loc 1 624 0 is_stmt 0 discriminator 3
  67 001e 6C07     		lsls	r4, r5, #29
  68 0020 03D5     		bpl	.L5
  69 0022 049C     		ldr	r4, [sp, #16]
  70              	.LBB53:
  71              		.loc 1 624 0
  72 0024 059E     		ldr	r6, [sp, #20]
  73 0026 0496     		str	r6, [sp, #16]
  74              	.LVL6:
  75 0028 0594     		str	r4, [sp, #20]
  76              	.LVL7:
  77              	.L5:
  78              	.LBE53:
  79              		.loc 1 624 0 discriminator 6
  80 002a 0624     		movs	r4, #6
  81 002c 2C42     		tst	r4, r5
  82 002e 02D1     		bne	.L6
  83              		.loc 1 624 0 discriminator 7
  84 0030 EC07     		lsls	r4, r5, #31
  85 0032 03D5     		bpl	.L13
  86 0034 09E0     		b	.L7
  87              	.L6:
  88              		.loc 1 624 0 discriminator 8
  89 0036 EC07     		lsls	r4, r5, #31
  90 0038 04D4     		bmi	.L14
  91 003a 06E0     		b	.L7
  92              	.L13:
  93 003c 1C00     		movs	r4, r3
  94              	.LBB54:
  95              		.loc 1 624 0
  96 003e 049B     		ldr	r3, [sp, #16]
  97              	.LVL8:
  98 0040 0494     		str	r4, [sp, #16]
  99              	.LVL9:
 100 0042 02E0     		b	.L7
 101              	.LVL10:
 102              	.L14:
 103              	.LBE54:
 104 0044 1C00     		movs	r4, r3
 105              	.LBB55:
 106 0046 049B     		ldr	r3, [sp, #16]
 107              	.LVL11:
 108 0048 0494     		str	r4, [sp, #16]
 109              	.LVL12:
 110              	.L7:
 111              	.LBE55:
 625:..\..\..\arduinoLCD\test\Pain Drain\libraries\lvgl\src\extra\widgets\colorwheel/lv_colorwheel.c **** 
 626:..\..\..\arduinoLCD\test\Pain Drain\libraries\lvgl\src\extra\widgets\colorwheel/lv_colorwheel.c ****     *g = v;
 112              		.loc 1 626 0 is_stmt 1
 113 004a 049C     		ldr	r4, [sp, #16]
 114 004c 2270     		strb	r2, [r4]
 627:..\..\..\arduinoLCD\test\Pain Drain\libraries\lvgl\src\extra\widgets\colorwheel/lv_colorwheel.c **** 
ARM GAS  C:\Users\haske\AppData\Local\Temp\ccIkbvey.s 			page 14


 628:..\..\..\arduinoLCD\test\Pain Drain\libraries\lvgl\src\extra\widgets\colorwheel/lv_colorwheel.c ****     uint8_t bb = ~s;
 115              		.loc 1 628 0
 116 004e CC43     		mvns	r4, r1
 117 0050 E4B2     		uxtb	r4, r4
 118              	.LVL13:
 629:..\..\..\arduinoLCD\test\Pain Drain\libraries\lvgl\src\extra\widgets\colorwheel/lv_colorwheel.c ****     uint16_t ww = v * bb; /*Don't try to be precise, but instead, be fast*/
 119              		.loc 1 629 0
 120 0052 92B2     		uxth	r2, r2
 121              	.LVL14:
 122 0054 5443     		muls	r4, r2
 123              	.LVL15:
 630:..\..\..\arduinoLCD\test\Pain Drain\libraries\lvgl\src\extra\widgets\colorwheel/lv_colorwheel.c ****     *b = ww >> 8;
 124              		.loc 1 630 0
 125 0056 240A     		lsrs	r4, r4, #8
 126              	.LVL16:
 127 0058 059E     		ldr	r6, [sp, #20]
 128 005a 3470     		strb	r4, [r6]
 129              	.LVL17:
 631:..\..\..\arduinoLCD\test\Pain Drain\libraries\lvgl\src\extra\widgets\colorwheel/lv_colorwheel.c **** 
 632:..\..\..\arduinoLCD\test\Pain Drain\libraries\lvgl\src\extra\widgets\colorwheel/lv_colorwheel.c ****     uint8_t h_frac = h & 0xff;
 130              		.loc 1 632 0
 131 005c C4B2     		uxtb	r4, r0
 132              	.LVL18:
 633:..\..\..\arduinoLCD\test\Pain Drain\libraries\lvgl\src\extra\widgets\colorwheel/lv_colorwheel.c **** 
 634:..\..\..\arduinoLCD\test\Pain Drain\libraries\lvgl\src\extra\widgets\colorwheel/lv_colorwheel.c ****     if(!(sextant & 1)) {
 133              		.loc 1 634 0
 134 005e ED07     		lsls	r5, r5, #31
 135 0060 07D4     		bmi	.L8
 136              	.LVL19:
 635:..\..\..\arduinoLCD\test\Pain Drain\libraries\lvgl\src\extra\widgets\colorwheel/lv_colorwheel.c ****         /*Up slope*/
 636:..\..\..\arduinoLCD\test\Pain Drain\libraries\lvgl\src\extra\widgets\colorwheel/lv_colorwheel.c ****         ww = !h_frac ? ((uint16_t)s << 8) : (s * (uint8_t)(-h_frac)); /*Skip multiply if not requir
 137              		.loc 1 636 0
 138 0062 002C     		cmp	r4, #0
 139 0064 01D1     		bne	.L9
 140              		.loc 1 636 0 is_stmt 0 discriminator 1
 141 0066 0902     		lsls	r1, r1, #8
 142              	.LVL20:
 143 0068 06E0     		b	.L10
 144              	.LVL21:
 145              	.L9:
 146              		.loc 1 636 0 discriminator 2
 147 006a 6442     		rsbs	r4, r4, #0
 148              	.LVL22:
 149 006c E0B2     		uxtb	r0, r4
 150              	.LVL23:
 151 006e 4143     		muls	r1, r0
 152              	.LVL24:
 153 0070 02E0     		b	.L10
 154              	.LVL25:
 155              	.L8:
 637:..\..\..\arduinoLCD\test\Pain Drain\libraries\lvgl\src\extra\widgets\colorwheel/lv_colorwheel.c ****     }
 638:..\..\..\arduinoLCD\test\Pain Drain\libraries\lvgl\src\extra\widgets\colorwheel/lv_colorwheel.c ****     else {
 639:..\..\..\arduinoLCD\test\Pain Drain\libraries\lvgl\src\extra\widgets\colorwheel/lv_colorwheel.c ****         /*Down slope*/
 640:..\..\..\arduinoLCD\test\Pain Drain\libraries\lvgl\src\extra\widgets\colorwheel/lv_colorwheel.c ****         ww = s * h_frac;
 156              		.loc 1 640 0 is_stmt 1
 157 0072 FF24     		movs	r4, #255
 158              	.LVL26:
ARM GAS  C:\Users\haske\AppData\Local\Temp\ccIkbvey.s 			page 15


 159 0074 2040     		ands	r0, r4
 160              	.LVL27:
 161 0076 4143     		muls	r1, r0
 162              	.LVL28:
 163              	.L10:
 641:..\..\..\arduinoLCD\test\Pain Drain\libraries\lvgl\src\extra\widgets\colorwheel/lv_colorwheel.c ****     }
 642:..\..\..\arduinoLCD\test\Pain Drain\libraries\lvgl\src\extra\widgets\colorwheel/lv_colorwheel.c ****     bb = ww >> 8;
 164              		.loc 1 642 0
 165 0078 090A     		lsrs	r1, r1, #8
 166              	.LVL29:
 167 007a C9B2     		uxtb	r1, r1
 168              	.LVL30:
 643:..\..\..\arduinoLCD\test\Pain Drain\libraries\lvgl\src\extra\widgets\colorwheel/lv_colorwheel.c ****     bb = ~bb;
 169              		.loc 1 643 0
 170 007c C943     		mvns	r1, r1
 171              	.LVL31:
 172 007e C9B2     		uxtb	r1, r1
 173              	.LVL32:
 644:..\..\..\arduinoLCD\test\Pain Drain\libraries\lvgl\src\extra\widgets\colorwheel/lv_colorwheel.c ****     ww = v * bb;
 174              		.loc 1 644 0
 175 0080 4A43     		muls	r2, r1
 176              	.LVL33:
 645:..\..\..\arduinoLCD\test\Pain Drain\libraries\lvgl\src\extra\widgets\colorwheel/lv_colorwheel.c ****     *r = ww >> 8;
 177              		.loc 1 645 0
 178 0082 120A     		lsrs	r2, r2, #8
 179              	.LVL34:
 180 0084 1A70     		strb	r2, [r3]
 181              	.LVL35:
 182              	.L1:
 646:..\..\..\arduinoLCD\test\Pain Drain\libraries\lvgl\src\extra\widgets\colorwheel/lv_colorwheel.c **** }
 183              		.loc 1 646 0
 184              		@ sp needed
 185 0086 70BD     		pop	{r4, r5, r6, pc}
 186              		.cfi_endproc
 187              	.LFE220:
 188              		.size	fast_hsv2rgb, .-fast_hsv2rgb
 189              		.global	__aeabi_idiv
 190              		.global	__aeabi_uidiv
 191              		.section	.text.angle_to_mode_color_fast,"ax",%progbits
 192              		.align	2
 193              		.code	16
 194              		.thumb_func
 195              		.type	angle_to_mode_color_fast, %function
 196              	angle_to_mode_color_fast:
 197              	.LFB221:
 647:..\..\..\arduinoLCD\test\Pain Drain\libraries\lvgl\src\extra\widgets\colorwheel/lv_colorwheel.c **** 
 648:..\..\..\arduinoLCD\test\Pain Drain\libraries\lvgl\src\extra\widgets\colorwheel/lv_colorwheel.c **** static lv_color_t angle_to_mode_color_fast(lv_obj_t * obj, uint16_t angle)
 649:..\..\..\arduinoLCD\test\Pain Drain\libraries\lvgl\src\extra\widgets\colorwheel/lv_colorwheel.c **** {
 198              		.loc 1 649 0
 199              		.cfi_startproc
 200              		@ args = 0, pretend = 0, frame = 8
 201              		@ frame_needed = 0, uses_anonymous_args = 0
 202              	.LVL36:
 203 0000 F0B5     		push	{r4, r5, r6, r7, lr}
 204              		.cfi_def_cfa_offset 20
 205              		.cfi_offset 4, -20
 206              		.cfi_offset 5, -16
ARM GAS  C:\Users\haske\AppData\Local\Temp\ccIkbvey.s 			page 16


 207              		.cfi_offset 6, -12
 208              		.cfi_offset 7, -8
 209              		.cfi_offset 14, -4
 210 0002 85B0     		sub	sp, sp, #20
 211              		.cfi_def_cfa_offset 40
 212 0004 0600     		movs	r6, r0
 213 0006 0D00     		movs	r5, r1
 214              	.LVL37:
 650:..\..\..\arduinoLCD\test\Pain Drain\libraries\lvgl\src\extra\widgets\colorwheel/lv_colorwheel.c ****     lv_colorwheel_t * ext = (lv_colorwheel_t *)obj;
 651:..\..\..\arduinoLCD\test\Pain Drain\libraries\lvgl\src\extra\widgets\colorwheel/lv_colorwheel.c ****     uint8_t r = 0, g = 0, b = 0;
 215              		.loc 1 651 0
 216 0008 0023     		movs	r3, #0
 217 000a 0F22     		movs	r2, #15
 218 000c 6A44     		add	r2, r2, sp
 219 000e 1370     		strb	r3, [r2]
 220 0010 0E22     		movs	r2, #14
 221 0012 6A44     		add	r2, r2, sp
 222 0014 1370     		strb	r3, [r2]
 223 0016 0D22     		movs	r2, #13
 224 0018 6A44     		add	r2, r2, sp
 225 001a 1370     		strb	r3, [r2]
 652:..\..\..\arduinoLCD\test\Pain Drain\libraries\lvgl\src\extra\widgets\colorwheel/lv_colorwheel.c ****     static uint16_t h = 0;
 653:..\..\..\arduinoLCD\test\Pain Drain\libraries\lvgl\src\extra\widgets\colorwheel/lv_colorwheel.c ****     static uint8_t s = 0, v = 0, m = 255;
 654:..\..\..\arduinoLCD\test\Pain Drain\libraries\lvgl\src\extra\widgets\colorwheel/lv_colorwheel.c ****     static uint16_t angle_saved = 0xffff;
 655:..\..\..\arduinoLCD\test\Pain Drain\libraries\lvgl\src\extra\widgets\colorwheel/lv_colorwheel.c **** 
 656:..\..\..\arduinoLCD\test\Pain Drain\libraries\lvgl\src\extra\widgets\colorwheel/lv_colorwheel.c ****     /*If the angle is different recalculate scaling*/
 657:..\..\..\arduinoLCD\test\Pain Drain\libraries\lvgl\src\extra\widgets\colorwheel/lv_colorwheel.c ****     if(angle_saved != angle) m = 255;
 226              		.loc 1 657 0
 227 001c 504B     		ldr	r3, .L24
 228 001e 1B88     		ldrh	r3, [r3]
 229 0020 8B42     		cmp	r3, r1
 230 0022 02D0     		beq	.L16
 231              		.loc 1 657 0 is_stmt 0 discriminator 1
 232 0024 FF22     		movs	r2, #255
 233 0026 4E4B     		ldr	r3, .L24
 234 0028 9A70     		strb	r2, [r3, #2]
 235              	.L16:
 658:..\..\..\arduinoLCD\test\Pain Drain\libraries\lvgl\src\extra\widgets\colorwheel/lv_colorwheel.c ****     angle_saved = angle;
 236              		.loc 1 658 0 is_stmt 1
 237 002a 4D4B     		ldr	r3, .L24
 238 002c 1D80     		strh	r5, [r3]
 659:..\..\..\arduinoLCD\test\Pain Drain\libraries\lvgl\src\extra\widgets\colorwheel/lv_colorwheel.c **** 
 660:..\..\..\arduinoLCD\test\Pain Drain\libraries\lvgl\src\extra\widgets\colorwheel/lv_colorwheel.c ****     switch(ext->mode) {
 239              		.loc 1 660 0
 240 002e 3C23     		movs	r3, #60
 241 0030 F45C     		ldrb	r4, [r6, r3]
 242 0032 A407     		lsls	r4, r4, #30
 243 0034 A40F     		lsrs	r4, r4, #30
 244 0036 E3B2     		uxtb	r3, r4
 245 0038 012B     		cmp	r3, #1
 246 003a 2ED0     		beq	.L18
 247 003c 022B     		cmp	r3, #2
 248 003e 55D0     		beq	.L19
 661:..\..\..\arduinoLCD\test\Pain Drain\libraries\lvgl\src\extra\widgets\colorwheel/lv_colorwheel.c ****         default:
 662:..\..\..\arduinoLCD\test\Pain Drain\libraries\lvgl\src\extra\widgets\colorwheel/lv_colorwheel.c ****         case LV_COLORWHEEL_MODE_HUE:
 663:..\..\..\arduinoLCD\test\Pain Drain\libraries\lvgl\src\extra\widgets\colorwheel/lv_colorwheel.c ****             /*Don't recompute costly scaling if it does not change*/
 664:..\..\..\arduinoLCD\test\Pain Drain\libraries\lvgl\src\extra\widgets\colorwheel/lv_colorwheel.c ****             if(m != ext->mode) {
ARM GAS  C:\Users\haske\AppData\Local\Temp\ccIkbvey.s 			page 17


 249              		.loc 1 664 0
 250 0040 474A     		ldr	r2, .L24
 251 0042 9278     		ldrb	r2, [r2, #2]
 252 0044 9342     		cmp	r3, r2
 253 0046 16D0     		beq	.L20
 665:..\..\..\arduinoLCD\test\Pain Drain\libraries\lvgl\src\extra\widgets\colorwheel/lv_colorwheel.c ****                 s = (uint8_t)(((uint16_t)ext->hsv.s * 51) / 20);
 254              		.loc 1 665 0
 255 0048 2623     		movs	r3, #38
 256 004a F35C     		ldrb	r3, [r6, r3]
 257 004c 5800     		lsls	r0, r3, #1
 258              	.LVL38:
 259 004e C018     		adds	r0, r0, r3
 260 0050 0301     		lsls	r3, r0, #4
 261 0052 C018     		adds	r0, r0, r3
 262 0054 1421     		movs	r1, #20
 263              	.LVL39:
 264 0056 FFF7FEFF 		bl	__aeabi_idiv
 265              	.LVL40:
 266 005a 424F     		ldr	r7, .L24+4
 267 005c 3870     		strb	r0, [r7]
 666:..\..\..\arduinoLCD\test\Pain Drain\libraries\lvgl\src\extra\widgets\colorwheel/lv_colorwheel.c ****                 v = (uint8_t)(((uint16_t)ext->hsv.v * 51) / 20);
 268              		.loc 1 666 0
 269 005e 2723     		movs	r3, #39
 270 0060 F35C     		ldrb	r3, [r6, r3]
 271 0062 5800     		lsls	r0, r3, #1
 272 0064 C018     		adds	r0, r0, r3
 273 0066 0301     		lsls	r3, r0, #4
 274 0068 C018     		adds	r0, r0, r3
 275 006a 1421     		movs	r1, #20
 276 006c FFF7FEFF 		bl	__aeabi_idiv
 277              	.LVL41:
 278 0070 7870     		strb	r0, [r7, #1]
 667:..\..\..\arduinoLCD\test\Pain Drain\libraries\lvgl\src\extra\widgets\colorwheel/lv_colorwheel.c ****                 m = ext->mode;
 279              		.loc 1 667 0
 280 0072 3B4B     		ldr	r3, .L24
 281 0074 9C70     		strb	r4, [r3, #2]
 282              	.L20:
 668:..\..\..\arduinoLCD\test\Pain Drain\libraries\lvgl\src\extra\widgets\colorwheel/lv_colorwheel.c ****             }
 669:..\..\..\arduinoLCD\test\Pain Drain\libraries\lvgl\src\extra\widgets\colorwheel/lv_colorwheel.c ****             fast_hsv2rgb(angle * 6, s, v, &r, &g,
 283              		.loc 1 669 0
 284 0076 3B4B     		ldr	r3, .L24+4
 285 0078 5A78     		ldrb	r2, [r3, #1]
 286 007a 1978     		ldrb	r1, [r3]
 287 007c 6800     		lsls	r0, r5, #1
 288 007e 2D18     		adds	r5, r5, r0
 289 0080 6D00     		lsls	r5, r5, #1
 290 0082 A8B2     		uxth	r0, r5
 291 0084 0D23     		movs	r3, #13
 292 0086 6B44     		add	r3, r3, sp
 293 0088 0193     		str	r3, [sp, #4]
 294 008a 0E23     		movs	r3, #14
 295 008c 6B44     		add	r3, r3, sp
 296 008e 0093     		str	r3, [sp]
 297 0090 0F23     		movs	r3, #15
 298 0092 6B44     		add	r3, r3, sp
 299 0094 FFF7FEFF 		bl	fast_hsv2rgb
 300              	.LVL42:
ARM GAS  C:\Users\haske\AppData\Local\Temp\ccIkbvey.s 			page 18


 670:..\..\..\arduinoLCD\test\Pain Drain\libraries\lvgl\src\extra\widgets\colorwheel/lv_colorwheel.c ****                          &b); /*A smart compiler will replace x * 6 by (x << 2) + (x << 1) if it's 
 671:..\..\..\arduinoLCD\test\Pain Drain\libraries\lvgl\src\extra\widgets\colorwheel/lv_colorwheel.c ****             break;
 301              		.loc 1 671 0
 302 0098 50E0     		b	.L21
 303              	.LVL43:
 304              	.L18:
 672:..\..\..\arduinoLCD\test\Pain Drain\libraries\lvgl\src\extra\widgets\colorwheel/lv_colorwheel.c ****         case LV_COLORWHEEL_MODE_SATURATION:
 673:..\..\..\arduinoLCD\test\Pain Drain\libraries\lvgl\src\extra\widgets\colorwheel/lv_colorwheel.c ****             /*Don't recompute costly scaling if it does not change*/
 674:..\..\..\arduinoLCD\test\Pain Drain\libraries\lvgl\src\extra\widgets\colorwheel/lv_colorwheel.c ****             if(m != ext->mode) {
 305              		.loc 1 674 0
 306 009a 314A     		ldr	r2, .L24
 307 009c 9278     		ldrb	r2, [r2, #2]
 308 009e 9342     		cmp	r3, r2
 309 00a0 15D0     		beq	.L22
 675:..\..\..\arduinoLCD\test\Pain Drain\libraries\lvgl\src\extra\widgets\colorwheel/lv_colorwheel.c ****                 h = (uint16_t)(((uint32_t)ext->hsv.h * 6 * 256) / 360);
 310              		.loc 1 675 0
 311 00a2 B08C     		ldrh	r0, [r6, #36]
 312              	.LVL44:
 313 00a4 4300     		lsls	r3, r0, #1
 314 00a6 1818     		adds	r0, r3, r0
 315 00a8 4002     		lsls	r0, r0, #9
 316 00aa B421     		movs	r1, #180
 317              	.LVL45:
 318 00ac 4900     		lsls	r1, r1, #1
 319 00ae FFF7FEFF 		bl	__aeabi_uidiv
 320              	.LVL46:
 321 00b2 2C4F     		ldr	r7, .L24+4
 322 00b4 7880     		strh	r0, [r7, #2]
 676:..\..\..\arduinoLCD\test\Pain Drain\libraries\lvgl\src\extra\widgets\colorwheel/lv_colorwheel.c ****                 v = (uint8_t)(((uint16_t)ext->hsv.v * 51) / 20);
 323              		.loc 1 676 0
 324 00b6 2723     		movs	r3, #39
 325 00b8 F35C     		ldrb	r3, [r6, r3]
 326 00ba 5800     		lsls	r0, r3, #1
 327 00bc C018     		adds	r0, r0, r3
 328 00be 0301     		lsls	r3, r0, #4
 329 00c0 C018     		adds	r0, r0, r3
 330 00c2 1421     		movs	r1, #20
 331 00c4 FFF7FEFF 		bl	__aeabi_idiv
 332              	.LVL47:
 333 00c8 7870     		strb	r0, [r7, #1]
 677:..\..\..\arduinoLCD\test\Pain Drain\libraries\lvgl\src\extra\widgets\colorwheel/lv_colorwheel.c ****                 m = ext->mode;
 334              		.loc 1 677 0
 335 00ca 254B     		ldr	r3, .L24
 336 00cc 9C70     		strb	r4, [r3, #2]
 337              	.L22:
 678:..\..\..\arduinoLCD\test\Pain Drain\libraries\lvgl\src\extra\widgets\colorwheel/lv_colorwheel.c ****             }
 679:..\..\..\arduinoLCD\test\Pain Drain\libraries\lvgl\src\extra\widgets\colorwheel/lv_colorwheel.c ****             fast_hsv2rgb(h, angle, v, &r, &g, &b);
 338              		.loc 1 679 0
 339 00ce 254B     		ldr	r3, .L24+4
 340 00d0 5A78     		ldrb	r2, [r3, #1]
 341 00d2 E9B2     		uxtb	r1, r5
 342 00d4 5888     		ldrh	r0, [r3, #2]
 343 00d6 0D23     		movs	r3, #13
 344 00d8 6B44     		add	r3, r3, sp
 345 00da 0193     		str	r3, [sp, #4]
 346 00dc 0E23     		movs	r3, #14
 347 00de 6B44     		add	r3, r3, sp
ARM GAS  C:\Users\haske\AppData\Local\Temp\ccIkbvey.s 			page 19


 348 00e0 0093     		str	r3, [sp]
 349 00e2 0F23     		movs	r3, #15
 350 00e4 6B44     		add	r3, r3, sp
 351 00e6 FFF7FEFF 		bl	fast_hsv2rgb
 352              	.LVL48:
 680:..\..\..\arduinoLCD\test\Pain Drain\libraries\lvgl\src\extra\widgets\colorwheel/lv_colorwheel.c ****             break;
 353              		.loc 1 680 0
 354 00ea 27E0     		b	.L21
 355              	.LVL49:
 356              	.L19:
 681:..\..\..\arduinoLCD\test\Pain Drain\libraries\lvgl\src\extra\widgets\colorwheel/lv_colorwheel.c ****         case LV_COLORWHEEL_MODE_VALUE:
 682:..\..\..\arduinoLCD\test\Pain Drain\libraries\lvgl\src\extra\widgets\colorwheel/lv_colorwheel.c ****             /*Don't recompute costly scaling if it does not change*/
 683:..\..\..\arduinoLCD\test\Pain Drain\libraries\lvgl\src\extra\widgets\colorwheel/lv_colorwheel.c ****             if(m != ext->mode) {
 357              		.loc 1 683 0
 358 00ec 1C4A     		ldr	r2, .L24
 359 00ee 9278     		ldrb	r2, [r2, #2]
 360 00f0 9342     		cmp	r3, r2
 361 00f2 15D0     		beq	.L23
 684:..\..\..\arduinoLCD\test\Pain Drain\libraries\lvgl\src\extra\widgets\colorwheel/lv_colorwheel.c ****                 h = (uint16_t)(((uint32_t)ext->hsv.h * 6 * 256) / 360);
 362              		.loc 1 684 0
 363 00f4 B38C     		ldrh	r3, [r6, #36]
 364 00f6 5800     		lsls	r0, r3, #1
 365              	.LVL50:
 366 00f8 C018     		adds	r0, r0, r3
 367 00fa 4002     		lsls	r0, r0, #9
 368 00fc B421     		movs	r1, #180
 369              	.LVL51:
 370 00fe 4900     		lsls	r1, r1, #1
 371 0100 FFF7FEFF 		bl	__aeabi_uidiv
 372              	.LVL52:
 373 0104 174F     		ldr	r7, .L24+4
 374 0106 7880     		strh	r0, [r7, #2]
 685:..\..\..\arduinoLCD\test\Pain Drain\libraries\lvgl\src\extra\widgets\colorwheel/lv_colorwheel.c ****                 s = (uint8_t)(((uint16_t)ext->hsv.s * 51) / 20);
 375              		.loc 1 685 0
 376 0108 2623     		movs	r3, #38
 377 010a F35C     		ldrb	r3, [r6, r3]
 378 010c 5800     		lsls	r0, r3, #1
 379 010e C018     		adds	r0, r0, r3
 380 0110 0301     		lsls	r3, r0, #4
 381 0112 C018     		adds	r0, r0, r3
 382 0114 1421     		movs	r1, #20
 383 0116 FFF7FEFF 		bl	__aeabi_idiv
 384              	.LVL53:
 385 011a 3870     		strb	r0, [r7]
 686:..\..\..\arduinoLCD\test\Pain Drain\libraries\lvgl\src\extra\widgets\colorwheel/lv_colorwheel.c ****                 m = ext->mode;
 386              		.loc 1 686 0
 387 011c 104B     		ldr	r3, .L24
 388 011e 9C70     		strb	r4, [r3, #2]
 389              	.L23:
 687:..\..\..\arduinoLCD\test\Pain Drain\libraries\lvgl\src\extra\widgets\colorwheel/lv_colorwheel.c ****             }
 688:..\..\..\arduinoLCD\test\Pain Drain\libraries\lvgl\src\extra\widgets\colorwheel/lv_colorwheel.c ****             fast_hsv2rgb(h, s, angle, &r, &g, &b);
 390              		.loc 1 688 0
 391 0120 EAB2     		uxtb	r2, r5
 392 0122 104B     		ldr	r3, .L24+4
 393 0124 1978     		ldrb	r1, [r3]
 394 0126 5888     		ldrh	r0, [r3, #2]
 395 0128 0D23     		movs	r3, #13
ARM GAS  C:\Users\haske\AppData\Local\Temp\ccIkbvey.s 			page 20


 396 012a 6B44     		add	r3, r3, sp
 397 012c 0193     		str	r3, [sp, #4]
 398 012e 0E23     		movs	r3, #14
 399 0130 6B44     		add	r3, r3, sp
 400 0132 0093     		str	r3, [sp]
 401 0134 0F23     		movs	r3, #15
 402 0136 6B44     		add	r3, r3, sp
 403 0138 FFF7FEFF 		bl	fast_hsv2rgb
 404              	.LVL54:
 405              	.L21:
 689:..\..\..\arduinoLCD\test\Pain Drain\libraries\lvgl\src\extra\widgets\colorwheel/lv_colorwheel.c ****             break;
 690:..\..\..\arduinoLCD\test\Pain Drain\libraries\lvgl\src\extra\widgets\colorwheel/lv_colorwheel.c ****     }
 691:..\..\..\arduinoLCD\test\Pain Drain\libraries\lvgl\src\extra\widgets\colorwheel/lv_colorwheel.c ****     return lv_color_make(r, g, b);
 406              		.loc 1 691 0
 407 013c 0F23     		movs	r3, #15
 408 013e 6B44     		add	r3, r3, sp
 409 0140 1B78     		ldrb	r3, [r3]
 410 0142 0E22     		movs	r2, #14
 411 0144 6A44     		add	r2, r2, sp
 412 0146 1278     		ldrb	r2, [r2]
 413 0148 0D21     		movs	r1, #13
 414 014a 6944     		add	r1, r1, sp
 415 014c 0978     		ldrb	r1, [r1]
 416              	.LVL55:
 417              	.LBB56:
 418              	.LBB57:
 419              		.file 2 "c:\\projects\\paindrain\\arduinolcd\\test\\pain drain\\libraries\\lvgl\\src\\misc\\lv_col
   1:c:\projects\paindrain\arduinolcd\test\pain drain\libraries\lvgl\src\misc\lv_color.h **** /**
   2:c:\projects\paindrain\arduinolcd\test\pain drain\libraries\lvgl\src\misc\lv_color.h ****  * @file lv_color.h
   3:c:\projects\paindrain\arduinolcd\test\pain drain\libraries\lvgl\src\misc\lv_color.h ****  *
   4:c:\projects\paindrain\arduinolcd\test\pain drain\libraries\lvgl\src\misc\lv_color.h ****  */
   5:c:\projects\paindrain\arduinolcd\test\pain drain\libraries\lvgl\src\misc\lv_color.h **** 
   6:c:\projects\paindrain\arduinolcd\test\pain drain\libraries\lvgl\src\misc\lv_color.h **** #ifndef LV_COLOR_H
   7:c:\projects\paindrain\arduinolcd\test\pain drain\libraries\lvgl\src\misc\lv_color.h **** #define LV_COLOR_H
   8:c:\projects\paindrain\arduinolcd\test\pain drain\libraries\lvgl\src\misc\lv_color.h **** 
   9:c:\projects\paindrain\arduinolcd\test\pain drain\libraries\lvgl\src\misc\lv_color.h **** #ifdef __cplusplus
  10:c:\projects\paindrain\arduinolcd\test\pain drain\libraries\lvgl\src\misc\lv_color.h **** extern "C" {
  11:c:\projects\paindrain\arduinolcd\test\pain drain\libraries\lvgl\src\misc\lv_color.h **** #endif
  12:c:\projects\paindrain\arduinolcd\test\pain drain\libraries\lvgl\src\misc\lv_color.h **** 
  13:c:\projects\paindrain\arduinolcd\test\pain drain\libraries\lvgl\src\misc\lv_color.h **** /*********************
  14:c:\projects\paindrain\arduinolcd\test\pain drain\libraries\lvgl\src\misc\lv_color.h ****  *      INCLUDES
  15:c:\projects\paindrain\arduinolcd\test\pain drain\libraries\lvgl\src\misc\lv_color.h ****  *********************/
  16:c:\projects\paindrain\arduinolcd\test\pain drain\libraries\lvgl\src\misc\lv_color.h **** #include "../lv_conf_internal.h"
  17:c:\projects\paindrain\arduinolcd\test\pain drain\libraries\lvgl\src\misc\lv_color.h **** #include "lv_assert.h"
  18:c:\projects\paindrain\arduinolcd\test\pain drain\libraries\lvgl\src\misc\lv_color.h **** #include "lv_math.h"
  19:c:\projects\paindrain\arduinolcd\test\pain drain\libraries\lvgl\src\misc\lv_color.h **** #include "lv_types.h"
  20:c:\projects\paindrain\arduinolcd\test\pain drain\libraries\lvgl\src\misc\lv_color.h **** 
  21:c:\projects\paindrain\arduinolcd\test\pain drain\libraries\lvgl\src\misc\lv_color.h **** /*Error checking*/
  22:c:\projects\paindrain\arduinolcd\test\pain drain\libraries\lvgl\src\misc\lv_color.h **** #if LV_COLOR_DEPTH == 24
  23:c:\projects\paindrain\arduinolcd\test\pain drain\libraries\lvgl\src\misc\lv_color.h **** #error "LV_COLOR_DEPTH 24 is deprecated. Use LV_COLOR_DEPTH 32 instead (lv_conf.h)"
  24:c:\projects\paindrain\arduinolcd\test\pain drain\libraries\lvgl\src\misc\lv_color.h **** #endif
  25:c:\projects\paindrain\arduinolcd\test\pain drain\libraries\lvgl\src\misc\lv_color.h **** 
  26:c:\projects\paindrain\arduinolcd\test\pain drain\libraries\lvgl\src\misc\lv_color.h **** #if LV_COLOR_DEPTH != 16 && LV_COLOR_16_SWAP != 0
  27:c:\projects\paindrain\arduinolcd\test\pain drain\libraries\lvgl\src\misc\lv_color.h **** #error "LV_COLOR_16_SWAP requires LV_COLOR_DEPTH == 16. Set it in lv_conf.h"
  28:c:\projects\paindrain\arduinolcd\test\pain drain\libraries\lvgl\src\misc\lv_color.h **** #endif
  29:c:\projects\paindrain\arduinolcd\test\pain drain\libraries\lvgl\src\misc\lv_color.h **** 
  30:c:\projects\paindrain\arduinolcd\test\pain drain\libraries\lvgl\src\misc\lv_color.h **** #include <stdint.h>
ARM GAS  C:\Users\haske\AppData\Local\Temp\ccIkbvey.s 			page 21


  31:c:\projects\paindrain\arduinolcd\test\pain drain\libraries\lvgl\src\misc\lv_color.h **** 
  32:c:\projects\paindrain\arduinolcd\test\pain drain\libraries\lvgl\src\misc\lv_color.h **** /*********************
  33:c:\projects\paindrain\arduinolcd\test\pain drain\libraries\lvgl\src\misc\lv_color.h ****  *      DEFINES
  34:c:\projects\paindrain\arduinolcd\test\pain drain\libraries\lvgl\src\misc\lv_color.h ****  *********************/
  35:c:\projects\paindrain\arduinolcd\test\pain drain\libraries\lvgl\src\misc\lv_color.h **** LV_EXPORT_CONST_INT(LV_COLOR_DEPTH);
  36:c:\projects\paindrain\arduinolcd\test\pain drain\libraries\lvgl\src\misc\lv_color.h **** LV_EXPORT_CONST_INT(LV_COLOR_16_SWAP);
  37:c:\projects\paindrain\arduinolcd\test\pain drain\libraries\lvgl\src\misc\lv_color.h **** 
  38:c:\projects\paindrain\arduinolcd\test\pain drain\libraries\lvgl\src\misc\lv_color.h **** /**
  39:c:\projects\paindrain\arduinolcd\test\pain drain\libraries\lvgl\src\misc\lv_color.h ****  * Opacity percentages.
  40:c:\projects\paindrain\arduinolcd\test\pain drain\libraries\lvgl\src\misc\lv_color.h ****  */
  41:c:\projects\paindrain\arduinolcd\test\pain drain\libraries\lvgl\src\misc\lv_color.h **** enum {
  42:c:\projects\paindrain\arduinolcd\test\pain drain\libraries\lvgl\src\misc\lv_color.h ****     LV_OPA_TRANSP = 0,
  43:c:\projects\paindrain\arduinolcd\test\pain drain\libraries\lvgl\src\misc\lv_color.h ****     LV_OPA_0      = 0,
  44:c:\projects\paindrain\arduinolcd\test\pain drain\libraries\lvgl\src\misc\lv_color.h ****     LV_OPA_10     = 25,
  45:c:\projects\paindrain\arduinolcd\test\pain drain\libraries\lvgl\src\misc\lv_color.h ****     LV_OPA_20     = 51,
  46:c:\projects\paindrain\arduinolcd\test\pain drain\libraries\lvgl\src\misc\lv_color.h ****     LV_OPA_30     = 76,
  47:c:\projects\paindrain\arduinolcd\test\pain drain\libraries\lvgl\src\misc\lv_color.h ****     LV_OPA_40     = 102,
  48:c:\projects\paindrain\arduinolcd\test\pain drain\libraries\lvgl\src\misc\lv_color.h ****     LV_OPA_50     = 127,
  49:c:\projects\paindrain\arduinolcd\test\pain drain\libraries\lvgl\src\misc\lv_color.h ****     LV_OPA_60     = 153,
  50:c:\projects\paindrain\arduinolcd\test\pain drain\libraries\lvgl\src\misc\lv_color.h ****     LV_OPA_70     = 178,
  51:c:\projects\paindrain\arduinolcd\test\pain drain\libraries\lvgl\src\misc\lv_color.h ****     LV_OPA_80     = 204,
  52:c:\projects\paindrain\arduinolcd\test\pain drain\libraries\lvgl\src\misc\lv_color.h ****     LV_OPA_90     = 229,
  53:c:\projects\paindrain\arduinolcd\test\pain drain\libraries\lvgl\src\misc\lv_color.h ****     LV_OPA_100    = 255,
  54:c:\projects\paindrain\arduinolcd\test\pain drain\libraries\lvgl\src\misc\lv_color.h ****     LV_OPA_COVER  = 255,
  55:c:\projects\paindrain\arduinolcd\test\pain drain\libraries\lvgl\src\misc\lv_color.h **** };
  56:c:\projects\paindrain\arduinolcd\test\pain drain\libraries\lvgl\src\misc\lv_color.h **** 
  57:c:\projects\paindrain\arduinolcd\test\pain drain\libraries\lvgl\src\misc\lv_color.h **** #define LV_OPA_MIN 2    /*Opacities below this will be transparent*/
  58:c:\projects\paindrain\arduinolcd\test\pain drain\libraries\lvgl\src\misc\lv_color.h **** #define LV_OPA_MAX 253  /*Opacities above this will fully cover*/
  59:c:\projects\paindrain\arduinolcd\test\pain drain\libraries\lvgl\src\misc\lv_color.h **** 
  60:c:\projects\paindrain\arduinolcd\test\pain drain\libraries\lvgl\src\misc\lv_color.h **** #if LV_COLOR_DEPTH == 1
  61:c:\projects\paindrain\arduinolcd\test\pain drain\libraries\lvgl\src\misc\lv_color.h **** #define LV_COLOR_SIZE 8
  62:c:\projects\paindrain\arduinolcd\test\pain drain\libraries\lvgl\src\misc\lv_color.h **** #elif LV_COLOR_DEPTH == 8
  63:c:\projects\paindrain\arduinolcd\test\pain drain\libraries\lvgl\src\misc\lv_color.h **** #define LV_COLOR_SIZE 8
  64:c:\projects\paindrain\arduinolcd\test\pain drain\libraries\lvgl\src\misc\lv_color.h **** #elif LV_COLOR_DEPTH == 16
  65:c:\projects\paindrain\arduinolcd\test\pain drain\libraries\lvgl\src\misc\lv_color.h **** #define LV_COLOR_SIZE 16
  66:c:\projects\paindrain\arduinolcd\test\pain drain\libraries\lvgl\src\misc\lv_color.h **** #elif LV_COLOR_DEPTH == 32
  67:c:\projects\paindrain\arduinolcd\test\pain drain\libraries\lvgl\src\misc\lv_color.h **** #define LV_COLOR_SIZE 32
  68:c:\projects\paindrain\arduinolcd\test\pain drain\libraries\lvgl\src\misc\lv_color.h **** #else
  69:c:\projects\paindrain\arduinolcd\test\pain drain\libraries\lvgl\src\misc\lv_color.h **** #error "Invalid LV_COLOR_DEPTH in lv_conf.h! Set it to 1, 8, 16 or 32!"
  70:c:\projects\paindrain\arduinolcd\test\pain drain\libraries\lvgl\src\misc\lv_color.h **** #endif
  71:c:\projects\paindrain\arduinolcd\test\pain drain\libraries\lvgl\src\misc\lv_color.h **** 
  72:c:\projects\paindrain\arduinolcd\test\pain drain\libraries\lvgl\src\misc\lv_color.h **** #if defined(__cplusplus) && !defined(_LV_COLOR_HAS_MODERN_CPP)
  73:c:\projects\paindrain\arduinolcd\test\pain drain\libraries\lvgl\src\misc\lv_color.h **** /**
  74:c:\projects\paindrain\arduinolcd\test\pain drain\libraries\lvgl\src\misc\lv_color.h **** * MSVC compiler's definition of the __cplusplus indicating 199711L regardless to C++ standard versi
  75:c:\projects\paindrain\arduinolcd\test\pain drain\libraries\lvgl\src\misc\lv_color.h **** * see https://devblogs.microsoft.com/cppblog/msvc-now-correctly-reports-cplusplus
  76:c:\projects\paindrain\arduinolcd\test\pain drain\libraries\lvgl\src\misc\lv_color.h **** * so we use _MSC_VER macro instead of __cplusplus
  77:c:\projects\paindrain\arduinolcd\test\pain drain\libraries\lvgl\src\misc\lv_color.h **** */
  78:c:\projects\paindrain\arduinolcd\test\pain drain\libraries\lvgl\src\misc\lv_color.h **** #ifdef _MSC_VER
  79:c:\projects\paindrain\arduinolcd\test\pain drain\libraries\lvgl\src\misc\lv_color.h **** #if _MSC_VER >= 1900 /*Visual Studio 2015*/
  80:c:\projects\paindrain\arduinolcd\test\pain drain\libraries\lvgl\src\misc\lv_color.h **** #define _LV_COLOR_HAS_MODERN_CPP 1
  81:c:\projects\paindrain\arduinolcd\test\pain drain\libraries\lvgl\src\misc\lv_color.h **** #endif
  82:c:\projects\paindrain\arduinolcd\test\pain drain\libraries\lvgl\src\misc\lv_color.h **** #else
  83:c:\projects\paindrain\arduinolcd\test\pain drain\libraries\lvgl\src\misc\lv_color.h **** #if __cplusplus >= 201103L
  84:c:\projects\paindrain\arduinolcd\test\pain drain\libraries\lvgl\src\misc\lv_color.h **** #define _LV_COLOR_HAS_MODERN_CPP 1
  85:c:\projects\paindrain\arduinolcd\test\pain drain\libraries\lvgl\src\misc\lv_color.h **** #endif
  86:c:\projects\paindrain\arduinolcd\test\pain drain\libraries\lvgl\src\misc\lv_color.h **** #endif
  87:c:\projects\paindrain\arduinolcd\test\pain drain\libraries\lvgl\src\misc\lv_color.h **** #endif /*__cplusplus*/
ARM GAS  C:\Users\haske\AppData\Local\Temp\ccIkbvey.s 			page 22


  88:c:\projects\paindrain\arduinolcd\test\pain drain\libraries\lvgl\src\misc\lv_color.h **** 
  89:c:\projects\paindrain\arduinolcd\test\pain drain\libraries\lvgl\src\misc\lv_color.h **** #ifndef _LV_COLOR_HAS_MODERN_CPP
  90:c:\projects\paindrain\arduinolcd\test\pain drain\libraries\lvgl\src\misc\lv_color.h **** #define _LV_COLOR_HAS_MODERN_CPP 0
  91:c:\projects\paindrain\arduinolcd\test\pain drain\libraries\lvgl\src\misc\lv_color.h **** #endif
  92:c:\projects\paindrain\arduinolcd\test\pain drain\libraries\lvgl\src\misc\lv_color.h **** 
  93:c:\projects\paindrain\arduinolcd\test\pain drain\libraries\lvgl\src\misc\lv_color.h **** #if _LV_COLOR_HAS_MODERN_CPP
  94:c:\projects\paindrain\arduinolcd\test\pain drain\libraries\lvgl\src\misc\lv_color.h **** /*Fix msvc compiler error C4576 inside C++ code*/
  95:c:\projects\paindrain\arduinolcd\test\pain drain\libraries\lvgl\src\misc\lv_color.h **** #define _LV_COLOR_MAKE_TYPE_HELPER lv_color_t
  96:c:\projects\paindrain\arduinolcd\test\pain drain\libraries\lvgl\src\misc\lv_color.h **** #else
  97:c:\projects\paindrain\arduinolcd\test\pain drain\libraries\lvgl\src\misc\lv_color.h **** #define _LV_COLOR_MAKE_TYPE_HELPER (lv_color_t)
  98:c:\projects\paindrain\arduinolcd\test\pain drain\libraries\lvgl\src\misc\lv_color.h **** #endif
  99:c:\projects\paindrain\arduinolcd\test\pain drain\libraries\lvgl\src\misc\lv_color.h **** 
 100:c:\projects\paindrain\arduinolcd\test\pain drain\libraries\lvgl\src\misc\lv_color.h **** /*---------------------------------------
 101:c:\projects\paindrain\arduinolcd\test\pain drain\libraries\lvgl\src\misc\lv_color.h ****  * Macros for all existing color depths
 102:c:\projects\paindrain\arduinolcd\test\pain drain\libraries\lvgl\src\misc\lv_color.h ****  * to set/get values of the color channels
 103:c:\projects\paindrain\arduinolcd\test\pain drain\libraries\lvgl\src\misc\lv_color.h ****  *------------------------------------------*/
 104:c:\projects\paindrain\arduinolcd\test\pain drain\libraries\lvgl\src\misc\lv_color.h **** # define LV_COLOR_SET_R1(c, v) (c).ch.red = (uint8_t)((v) & 0x1)
 105:c:\projects\paindrain\arduinolcd\test\pain drain\libraries\lvgl\src\misc\lv_color.h **** # define LV_COLOR_SET_G1(c, v) (c).ch.green = (uint8_t)((v) & 0x1)
 106:c:\projects\paindrain\arduinolcd\test\pain drain\libraries\lvgl\src\misc\lv_color.h **** # define LV_COLOR_SET_B1(c, v) (c).ch.blue = (uint8_t)((v) & 0x1)
 107:c:\projects\paindrain\arduinolcd\test\pain drain\libraries\lvgl\src\misc\lv_color.h **** # define LV_COLOR_SET_A1(c, v) do {} while(0)
 108:c:\projects\paindrain\arduinolcd\test\pain drain\libraries\lvgl\src\misc\lv_color.h **** 
 109:c:\projects\paindrain\arduinolcd\test\pain drain\libraries\lvgl\src\misc\lv_color.h **** # define LV_COLOR_GET_R1(c) (c).ch.red
 110:c:\projects\paindrain\arduinolcd\test\pain drain\libraries\lvgl\src\misc\lv_color.h **** # define LV_COLOR_GET_G1(c) (c).ch.green
 111:c:\projects\paindrain\arduinolcd\test\pain drain\libraries\lvgl\src\misc\lv_color.h **** # define LV_COLOR_GET_B1(c) (c).ch.blue
 112:c:\projects\paindrain\arduinolcd\test\pain drain\libraries\lvgl\src\misc\lv_color.h **** # define LV_COLOR_GET_A1(c) 0xFF
 113:c:\projects\paindrain\arduinolcd\test\pain drain\libraries\lvgl\src\misc\lv_color.h **** 
 114:c:\projects\paindrain\arduinolcd\test\pain drain\libraries\lvgl\src\misc\lv_color.h **** # define _LV_COLOR_ZERO_INITIALIZER1 {0x00}
 115:c:\projects\paindrain\arduinolcd\test\pain drain\libraries\lvgl\src\misc\lv_color.h **** # define LV_COLOR_MAKE1(r8, g8, b8)  {(uint8_t)((b8 >> 7) | (g8 >> 7) | (r8 >> 7))}
 116:c:\projects\paindrain\arduinolcd\test\pain drain\libraries\lvgl\src\misc\lv_color.h **** 
 117:c:\projects\paindrain\arduinolcd\test\pain drain\libraries\lvgl\src\misc\lv_color.h **** # define LV_COLOR_SET_R8(c, v) (c).ch.red = (uint8_t)((v) & 0x7U)
 118:c:\projects\paindrain\arduinolcd\test\pain drain\libraries\lvgl\src\misc\lv_color.h **** # define LV_COLOR_SET_G8(c, v) (c).ch.green = (uint8_t)((v) & 0x7U)
 119:c:\projects\paindrain\arduinolcd\test\pain drain\libraries\lvgl\src\misc\lv_color.h **** # define LV_COLOR_SET_B8(c, v) (c).ch.blue = (uint8_t)((v) & 0x3U)
 120:c:\projects\paindrain\arduinolcd\test\pain drain\libraries\lvgl\src\misc\lv_color.h **** # define LV_COLOR_SET_A8(c, v) do {} while(0)
 121:c:\projects\paindrain\arduinolcd\test\pain drain\libraries\lvgl\src\misc\lv_color.h **** 
 122:c:\projects\paindrain\arduinolcd\test\pain drain\libraries\lvgl\src\misc\lv_color.h **** # define LV_COLOR_GET_R8(c) (c).ch.red
 123:c:\projects\paindrain\arduinolcd\test\pain drain\libraries\lvgl\src\misc\lv_color.h **** # define LV_COLOR_GET_G8(c) (c).ch.green
 124:c:\projects\paindrain\arduinolcd\test\pain drain\libraries\lvgl\src\misc\lv_color.h **** # define LV_COLOR_GET_B8(c) (c).ch.blue
 125:c:\projects\paindrain\arduinolcd\test\pain drain\libraries\lvgl\src\misc\lv_color.h **** # define LV_COLOR_GET_A8(c) 0xFF
 126:c:\projects\paindrain\arduinolcd\test\pain drain\libraries\lvgl\src\misc\lv_color.h **** 
 127:c:\projects\paindrain\arduinolcd\test\pain drain\libraries\lvgl\src\misc\lv_color.h **** # define _LV_COLOR_ZERO_INITIALIZER8 {{0x00, 0x00, 0x00}}
 128:c:\projects\paindrain\arduinolcd\test\pain drain\libraries\lvgl\src\misc\lv_color.h **** # define LV_COLOR_MAKE8(r8, g8, b8) {{(uint8_t)((b8 >> 6) & 0x3U), (uint8_t)((g8 >> 5) & 0x7U), (ui
 129:c:\projects\paindrain\arduinolcd\test\pain drain\libraries\lvgl\src\misc\lv_color.h **** 
 130:c:\projects\paindrain\arduinolcd\test\pain drain\libraries\lvgl\src\misc\lv_color.h **** # define LV_COLOR_SET_R16(c, v) (c).ch.red = (uint8_t)((v) & 0x1FU)
 131:c:\projects\paindrain\arduinolcd\test\pain drain\libraries\lvgl\src\misc\lv_color.h **** #if LV_COLOR_16_SWAP == 0
 132:c:\projects\paindrain\arduinolcd\test\pain drain\libraries\lvgl\src\misc\lv_color.h **** # define LV_COLOR_SET_G16(c, v) (c).ch.green = (uint8_t)((v) & 0x3FU)
 133:c:\projects\paindrain\arduinolcd\test\pain drain\libraries\lvgl\src\misc\lv_color.h **** #else
 134:c:\projects\paindrain\arduinolcd\test\pain drain\libraries\lvgl\src\misc\lv_color.h **** # define LV_COLOR_SET_G16(c, v) {(c).ch.green_h = (uint8_t)(((v) >> 3) & 0x7); (c).ch.green_l = (ui
 135:c:\projects\paindrain\arduinolcd\test\pain drain\libraries\lvgl\src\misc\lv_color.h **** #endif
 136:c:\projects\paindrain\arduinolcd\test\pain drain\libraries\lvgl\src\misc\lv_color.h **** # define LV_COLOR_SET_B16(c, v) (c).ch.blue = (uint8_t)((v) & 0x1FU)
 137:c:\projects\paindrain\arduinolcd\test\pain drain\libraries\lvgl\src\misc\lv_color.h **** # define LV_COLOR_SET_A16(c, v) do {} while(0)
 138:c:\projects\paindrain\arduinolcd\test\pain drain\libraries\lvgl\src\misc\lv_color.h **** 
 139:c:\projects\paindrain\arduinolcd\test\pain drain\libraries\lvgl\src\misc\lv_color.h **** # define LV_COLOR_GET_R16(c) (c).ch.red
 140:c:\projects\paindrain\arduinolcd\test\pain drain\libraries\lvgl\src\misc\lv_color.h **** #if LV_COLOR_16_SWAP == 0
 141:c:\projects\paindrain\arduinolcd\test\pain drain\libraries\lvgl\src\misc\lv_color.h **** # define LV_COLOR_GET_G16(c) (c).ch.green
 142:c:\projects\paindrain\arduinolcd\test\pain drain\libraries\lvgl\src\misc\lv_color.h **** #else
 143:c:\projects\paindrain\arduinolcd\test\pain drain\libraries\lvgl\src\misc\lv_color.h **** # define LV_COLOR_GET_G16(c) (((c).ch.green_h << 3) + (c).ch.green_l)
 144:c:\projects\paindrain\arduinolcd\test\pain drain\libraries\lvgl\src\misc\lv_color.h **** #endif
ARM GAS  C:\Users\haske\AppData\Local\Temp\ccIkbvey.s 			page 23


 145:c:\projects\paindrain\arduinolcd\test\pain drain\libraries\lvgl\src\misc\lv_color.h **** # define LV_COLOR_GET_B16(c) (c).ch.blue
 146:c:\projects\paindrain\arduinolcd\test\pain drain\libraries\lvgl\src\misc\lv_color.h **** # define LV_COLOR_GET_A16(c) 0xFF
 147:c:\projects\paindrain\arduinolcd\test\pain drain\libraries\lvgl\src\misc\lv_color.h **** 
 148:c:\projects\paindrain\arduinolcd\test\pain drain\libraries\lvgl\src\misc\lv_color.h **** #if LV_COLOR_16_SWAP == 0
 149:c:\projects\paindrain\arduinolcd\test\pain drain\libraries\lvgl\src\misc\lv_color.h **** # define _LV_COLOR_ZERO_INITIALIZER16  {{0x00, 0x00, 0x00}}
 150:c:\projects\paindrain\arduinolcd\test\pain drain\libraries\lvgl\src\misc\lv_color.h **** # define LV_COLOR_MAKE16(r8, g8, b8) {{(uint8_t)((b8 >> 3) & 0x1FU), (uint8_t)((g8 >> 2) & 0x3FU), 
 151:c:\projects\paindrain\arduinolcd\test\pain drain\libraries\lvgl\src\misc\lv_color.h **** #else
 152:c:\projects\paindrain\arduinolcd\test\pain drain\libraries\lvgl\src\misc\lv_color.h **** # define _LV_COLOR_ZERO_INITIALIZER16 {{0x00, 0x00, 0x00, 0x00}}
 153:c:\projects\paindrain\arduinolcd\test\pain drain\libraries\lvgl\src\misc\lv_color.h **** # define LV_COLOR_MAKE16(r8, g8, b8) {{(uint8_t)((g8 >> 5) & 0x7U), (uint8_t)((r8 >> 3) & 0x1FU), (
 154:c:\projects\paindrain\arduinolcd\test\pain drain\libraries\lvgl\src\misc\lv_color.h **** #endif
 155:c:\projects\paindrain\arduinolcd\test\pain drain\libraries\lvgl\src\misc\lv_color.h **** 
 156:c:\projects\paindrain\arduinolcd\test\pain drain\libraries\lvgl\src\misc\lv_color.h **** # define LV_COLOR_SET_R32(c, v) (c).ch.red = (uint8_t)((v) & 0xFF)
 157:c:\projects\paindrain\arduinolcd\test\pain drain\libraries\lvgl\src\misc\lv_color.h **** # define LV_COLOR_SET_G32(c, v) (c).ch.green = (uint8_t)((v) & 0xFF)
 158:c:\projects\paindrain\arduinolcd\test\pain drain\libraries\lvgl\src\misc\lv_color.h **** # define LV_COLOR_SET_B32(c, v) (c).ch.blue = (uint8_t)((v) & 0xFF)
 159:c:\projects\paindrain\arduinolcd\test\pain drain\libraries\lvgl\src\misc\lv_color.h **** # define LV_COLOR_SET_A32(c, v) (c).ch.alpha = (uint8_t)((v) & 0xFF)
 160:c:\projects\paindrain\arduinolcd\test\pain drain\libraries\lvgl\src\misc\lv_color.h **** 
 161:c:\projects\paindrain\arduinolcd\test\pain drain\libraries\lvgl\src\misc\lv_color.h **** # define LV_COLOR_GET_R32(c) (c).ch.red
 162:c:\projects\paindrain\arduinolcd\test\pain drain\libraries\lvgl\src\misc\lv_color.h **** # define LV_COLOR_GET_G32(c) (c).ch.green
 163:c:\projects\paindrain\arduinolcd\test\pain drain\libraries\lvgl\src\misc\lv_color.h **** # define LV_COLOR_GET_B32(c) (c).ch.blue
 164:c:\projects\paindrain\arduinolcd\test\pain drain\libraries\lvgl\src\misc\lv_color.h **** # define LV_COLOR_GET_A32(c) (c).ch.alpha
 165:c:\projects\paindrain\arduinolcd\test\pain drain\libraries\lvgl\src\misc\lv_color.h **** 
 166:c:\projects\paindrain\arduinolcd\test\pain drain\libraries\lvgl\src\misc\lv_color.h **** # define _LV_COLOR_ZERO_INITIALIZER32  {{0x00, 0x00, 0x00, 0x00}}
 167:c:\projects\paindrain\arduinolcd\test\pain drain\libraries\lvgl\src\misc\lv_color.h **** # define LV_COLOR_MAKE32(r8, g8, b8) {{b8, g8, r8, 0xff}} /*Fix 0xff alpha*/
 168:c:\projects\paindrain\arduinolcd\test\pain drain\libraries\lvgl\src\misc\lv_color.h **** 
 169:c:\projects\paindrain\arduinolcd\test\pain drain\libraries\lvgl\src\misc\lv_color.h **** /*---------------------------------------
 170:c:\projects\paindrain\arduinolcd\test\pain drain\libraries\lvgl\src\misc\lv_color.h ****  * Macros for the current color depth
 171:c:\projects\paindrain\arduinolcd\test\pain drain\libraries\lvgl\src\misc\lv_color.h ****  * to set/get values of the color channels
 172:c:\projects\paindrain\arduinolcd\test\pain drain\libraries\lvgl\src\misc\lv_color.h ****  *------------------------------------------*/
 173:c:\projects\paindrain\arduinolcd\test\pain drain\libraries\lvgl\src\misc\lv_color.h **** #define LV_COLOR_SET_R(c, v) LV_CONCAT(LV_COLOR_SET_R, LV_COLOR_DEPTH)(c, v)
 174:c:\projects\paindrain\arduinolcd\test\pain drain\libraries\lvgl\src\misc\lv_color.h **** #define LV_COLOR_SET_G(c, v) LV_CONCAT(LV_COLOR_SET_G, LV_COLOR_DEPTH)(c, v)
 175:c:\projects\paindrain\arduinolcd\test\pain drain\libraries\lvgl\src\misc\lv_color.h **** #define LV_COLOR_SET_B(c, v) LV_CONCAT(LV_COLOR_SET_B, LV_COLOR_DEPTH)(c, v)
 176:c:\projects\paindrain\arduinolcd\test\pain drain\libraries\lvgl\src\misc\lv_color.h **** #define LV_COLOR_SET_A(c, v) LV_CONCAT(LV_COLOR_SET_A, LV_COLOR_DEPTH)(c, v)
 177:c:\projects\paindrain\arduinolcd\test\pain drain\libraries\lvgl\src\misc\lv_color.h **** 
 178:c:\projects\paindrain\arduinolcd\test\pain drain\libraries\lvgl\src\misc\lv_color.h **** #define LV_COLOR_GET_R(c) LV_CONCAT(LV_COLOR_GET_R, LV_COLOR_DEPTH)(c)
 179:c:\projects\paindrain\arduinolcd\test\pain drain\libraries\lvgl\src\misc\lv_color.h **** #define LV_COLOR_GET_G(c) LV_CONCAT(LV_COLOR_GET_G, LV_COLOR_DEPTH)(c)
 180:c:\projects\paindrain\arduinolcd\test\pain drain\libraries\lvgl\src\misc\lv_color.h **** #define LV_COLOR_GET_B(c) LV_CONCAT(LV_COLOR_GET_B, LV_COLOR_DEPTH)(c)
 181:c:\projects\paindrain\arduinolcd\test\pain drain\libraries\lvgl\src\misc\lv_color.h **** #define LV_COLOR_GET_A(c) LV_CONCAT(LV_COLOR_GET_A, LV_COLOR_DEPTH)(c)
 182:c:\projects\paindrain\arduinolcd\test\pain drain\libraries\lvgl\src\misc\lv_color.h **** 
 183:c:\projects\paindrain\arduinolcd\test\pain drain\libraries\lvgl\src\misc\lv_color.h **** #define _LV_COLOR_ZERO_INITIALIZER LV_CONCAT(_LV_COLOR_ZERO_INITIALIZER, LV_COLOR_DEPTH)
 184:c:\projects\paindrain\arduinolcd\test\pain drain\libraries\lvgl\src\misc\lv_color.h **** #define LV_COLOR_MAKE(r8, g8, b8) LV_CONCAT(LV_COLOR_MAKE, LV_COLOR_DEPTH)(r8, g8, b8)
 185:c:\projects\paindrain\arduinolcd\test\pain drain\libraries\lvgl\src\misc\lv_color.h **** 
 186:c:\projects\paindrain\arduinolcd\test\pain drain\libraries\lvgl\src\misc\lv_color.h **** /**********************
 187:c:\projects\paindrain\arduinolcd\test\pain drain\libraries\lvgl\src\misc\lv_color.h ****  *      TYPEDEFS
 188:c:\projects\paindrain\arduinolcd\test\pain drain\libraries\lvgl\src\misc\lv_color.h ****  **********************/
 189:c:\projects\paindrain\arduinolcd\test\pain drain\libraries\lvgl\src\misc\lv_color.h **** 
 190:c:\projects\paindrain\arduinolcd\test\pain drain\libraries\lvgl\src\misc\lv_color.h **** typedef union {
 191:c:\projects\paindrain\arduinolcd\test\pain drain\libraries\lvgl\src\misc\lv_color.h ****     uint8_t full; /*must be declared first to set all bits of byte via initializer list*/
 192:c:\projects\paindrain\arduinolcd\test\pain drain\libraries\lvgl\src\misc\lv_color.h ****     union {
 193:c:\projects\paindrain\arduinolcd\test\pain drain\libraries\lvgl\src\misc\lv_color.h ****         uint8_t blue : 1;
 194:c:\projects\paindrain\arduinolcd\test\pain drain\libraries\lvgl\src\misc\lv_color.h ****         uint8_t green : 1;
 195:c:\projects\paindrain\arduinolcd\test\pain drain\libraries\lvgl\src\misc\lv_color.h ****         uint8_t red : 1;
 196:c:\projects\paindrain\arduinolcd\test\pain drain\libraries\lvgl\src\misc\lv_color.h ****     } ch;
 197:c:\projects\paindrain\arduinolcd\test\pain drain\libraries\lvgl\src\misc\lv_color.h **** } lv_color1_t;
 198:c:\projects\paindrain\arduinolcd\test\pain drain\libraries\lvgl\src\misc\lv_color.h **** 
 199:c:\projects\paindrain\arduinolcd\test\pain drain\libraries\lvgl\src\misc\lv_color.h **** typedef union {
 200:c:\projects\paindrain\arduinolcd\test\pain drain\libraries\lvgl\src\misc\lv_color.h ****     struct {
 201:c:\projects\paindrain\arduinolcd\test\pain drain\libraries\lvgl\src\misc\lv_color.h ****         uint8_t blue : 2;
ARM GAS  C:\Users\haske\AppData\Local\Temp\ccIkbvey.s 			page 24


 202:c:\projects\paindrain\arduinolcd\test\pain drain\libraries\lvgl\src\misc\lv_color.h ****         uint8_t green : 3;
 203:c:\projects\paindrain\arduinolcd\test\pain drain\libraries\lvgl\src\misc\lv_color.h ****         uint8_t red : 3;
 204:c:\projects\paindrain\arduinolcd\test\pain drain\libraries\lvgl\src\misc\lv_color.h ****     } ch;
 205:c:\projects\paindrain\arduinolcd\test\pain drain\libraries\lvgl\src\misc\lv_color.h ****     uint8_t full;
 206:c:\projects\paindrain\arduinolcd\test\pain drain\libraries\lvgl\src\misc\lv_color.h **** } lv_color8_t;
 207:c:\projects\paindrain\arduinolcd\test\pain drain\libraries\lvgl\src\misc\lv_color.h **** 
 208:c:\projects\paindrain\arduinolcd\test\pain drain\libraries\lvgl\src\misc\lv_color.h **** typedef union {
 209:c:\projects\paindrain\arduinolcd\test\pain drain\libraries\lvgl\src\misc\lv_color.h ****     struct {
 210:c:\projects\paindrain\arduinolcd\test\pain drain\libraries\lvgl\src\misc\lv_color.h **** #if LV_COLOR_16_SWAP == 0
 211:c:\projects\paindrain\arduinolcd\test\pain drain\libraries\lvgl\src\misc\lv_color.h ****         uint16_t blue : 5;
 212:c:\projects\paindrain\arduinolcd\test\pain drain\libraries\lvgl\src\misc\lv_color.h ****         uint16_t green : 6;
 213:c:\projects\paindrain\arduinolcd\test\pain drain\libraries\lvgl\src\misc\lv_color.h ****         uint16_t red : 5;
 214:c:\projects\paindrain\arduinolcd\test\pain drain\libraries\lvgl\src\misc\lv_color.h **** #else
 215:c:\projects\paindrain\arduinolcd\test\pain drain\libraries\lvgl\src\misc\lv_color.h ****         uint16_t green_h : 3;
 216:c:\projects\paindrain\arduinolcd\test\pain drain\libraries\lvgl\src\misc\lv_color.h ****         uint16_t red : 5;
 217:c:\projects\paindrain\arduinolcd\test\pain drain\libraries\lvgl\src\misc\lv_color.h ****         uint16_t blue : 5;
 218:c:\projects\paindrain\arduinolcd\test\pain drain\libraries\lvgl\src\misc\lv_color.h ****         uint16_t green_l : 3;
 219:c:\projects\paindrain\arduinolcd\test\pain drain\libraries\lvgl\src\misc\lv_color.h **** #endif
 220:c:\projects\paindrain\arduinolcd\test\pain drain\libraries\lvgl\src\misc\lv_color.h ****     } ch;
 221:c:\projects\paindrain\arduinolcd\test\pain drain\libraries\lvgl\src\misc\lv_color.h ****     uint16_t full;
 222:c:\projects\paindrain\arduinolcd\test\pain drain\libraries\lvgl\src\misc\lv_color.h **** } lv_color16_t;
 223:c:\projects\paindrain\arduinolcd\test\pain drain\libraries\lvgl\src\misc\lv_color.h **** 
 224:c:\projects\paindrain\arduinolcd\test\pain drain\libraries\lvgl\src\misc\lv_color.h **** typedef union {
 225:c:\projects\paindrain\arduinolcd\test\pain drain\libraries\lvgl\src\misc\lv_color.h ****     struct {
 226:c:\projects\paindrain\arduinolcd\test\pain drain\libraries\lvgl\src\misc\lv_color.h ****         uint8_t blue;
 227:c:\projects\paindrain\arduinolcd\test\pain drain\libraries\lvgl\src\misc\lv_color.h ****         uint8_t green;
 228:c:\projects\paindrain\arduinolcd\test\pain drain\libraries\lvgl\src\misc\lv_color.h ****         uint8_t red;
 229:c:\projects\paindrain\arduinolcd\test\pain drain\libraries\lvgl\src\misc\lv_color.h ****         uint8_t alpha;
 230:c:\projects\paindrain\arduinolcd\test\pain drain\libraries\lvgl\src\misc\lv_color.h ****     } ch;
 231:c:\projects\paindrain\arduinolcd\test\pain drain\libraries\lvgl\src\misc\lv_color.h ****     uint32_t full;
 232:c:\projects\paindrain\arduinolcd\test\pain drain\libraries\lvgl\src\misc\lv_color.h **** } lv_color32_t;
 233:c:\projects\paindrain\arduinolcd\test\pain drain\libraries\lvgl\src\misc\lv_color.h **** 
 234:c:\projects\paindrain\arduinolcd\test\pain drain\libraries\lvgl\src\misc\lv_color.h **** typedef LV_CONCAT3(uint, LV_COLOR_SIZE, _t) lv_color_int_t;
 235:c:\projects\paindrain\arduinolcd\test\pain drain\libraries\lvgl\src\misc\lv_color.h **** typedef LV_CONCAT3(lv_color, LV_COLOR_DEPTH, _t) lv_color_t;
 236:c:\projects\paindrain\arduinolcd\test\pain drain\libraries\lvgl\src\misc\lv_color.h **** 
 237:c:\projects\paindrain\arduinolcd\test\pain drain\libraries\lvgl\src\misc\lv_color.h **** typedef struct {
 238:c:\projects\paindrain\arduinolcd\test\pain drain\libraries\lvgl\src\misc\lv_color.h ****     uint16_t h;
 239:c:\projects\paindrain\arduinolcd\test\pain drain\libraries\lvgl\src\misc\lv_color.h ****     uint8_t s;
 240:c:\projects\paindrain\arduinolcd\test\pain drain\libraries\lvgl\src\misc\lv_color.h ****     uint8_t v;
 241:c:\projects\paindrain\arduinolcd\test\pain drain\libraries\lvgl\src\misc\lv_color.h **** } lv_color_hsv_t;
 242:c:\projects\paindrain\arduinolcd\test\pain drain\libraries\lvgl\src\misc\lv_color.h **** 
 243:c:\projects\paindrain\arduinolcd\test\pain drain\libraries\lvgl\src\misc\lv_color.h **** //! @cond Doxygen_Suppress
 244:c:\projects\paindrain\arduinolcd\test\pain drain\libraries\lvgl\src\misc\lv_color.h **** /*No idea where the guard is required but else throws warnings in the docs*/
 245:c:\projects\paindrain\arduinolcd\test\pain drain\libraries\lvgl\src\misc\lv_color.h **** typedef uint8_t lv_opa_t;
 246:c:\projects\paindrain\arduinolcd\test\pain drain\libraries\lvgl\src\misc\lv_color.h **** //! @endcond
 247:c:\projects\paindrain\arduinolcd\test\pain drain\libraries\lvgl\src\misc\lv_color.h **** 
 248:c:\projects\paindrain\arduinolcd\test\pain drain\libraries\lvgl\src\misc\lv_color.h **** struct _lv_color_filter_dsc_t;
 249:c:\projects\paindrain\arduinolcd\test\pain drain\libraries\lvgl\src\misc\lv_color.h **** 
 250:c:\projects\paindrain\arduinolcd\test\pain drain\libraries\lvgl\src\misc\lv_color.h **** typedef lv_color_t (*lv_color_filter_cb_t)(const struct _lv_color_filter_dsc_t *, lv_color_t, lv_op
 251:c:\projects\paindrain\arduinolcd\test\pain drain\libraries\lvgl\src\misc\lv_color.h **** 
 252:c:\projects\paindrain\arduinolcd\test\pain drain\libraries\lvgl\src\misc\lv_color.h **** typedef struct _lv_color_filter_dsc_t {
 253:c:\projects\paindrain\arduinolcd\test\pain drain\libraries\lvgl\src\misc\lv_color.h ****     lv_color_filter_cb_t filter_cb;
 254:c:\projects\paindrain\arduinolcd\test\pain drain\libraries\lvgl\src\misc\lv_color.h ****     void * user_data;
 255:c:\projects\paindrain\arduinolcd\test\pain drain\libraries\lvgl\src\misc\lv_color.h **** } lv_color_filter_dsc_t;
 256:c:\projects\paindrain\arduinolcd\test\pain drain\libraries\lvgl\src\misc\lv_color.h **** 
 257:c:\projects\paindrain\arduinolcd\test\pain drain\libraries\lvgl\src\misc\lv_color.h **** 
 258:c:\projects\paindrain\arduinolcd\test\pain drain\libraries\lvgl\src\misc\lv_color.h **** typedef enum {
ARM GAS  C:\Users\haske\AppData\Local\Temp\ccIkbvey.s 			page 25


 259:c:\projects\paindrain\arduinolcd\test\pain drain\libraries\lvgl\src\misc\lv_color.h ****     LV_PALETTE_RED,
 260:c:\projects\paindrain\arduinolcd\test\pain drain\libraries\lvgl\src\misc\lv_color.h ****     LV_PALETTE_PINK,
 261:c:\projects\paindrain\arduinolcd\test\pain drain\libraries\lvgl\src\misc\lv_color.h ****     LV_PALETTE_PURPLE,
 262:c:\projects\paindrain\arduinolcd\test\pain drain\libraries\lvgl\src\misc\lv_color.h ****     LV_PALETTE_DEEP_PURPLE,
 263:c:\projects\paindrain\arduinolcd\test\pain drain\libraries\lvgl\src\misc\lv_color.h ****     LV_PALETTE_INDIGO,
 264:c:\projects\paindrain\arduinolcd\test\pain drain\libraries\lvgl\src\misc\lv_color.h ****     LV_PALETTE_BLUE,
 265:c:\projects\paindrain\arduinolcd\test\pain drain\libraries\lvgl\src\misc\lv_color.h ****     LV_PALETTE_LIGHT_BLUE,
 266:c:\projects\paindrain\arduinolcd\test\pain drain\libraries\lvgl\src\misc\lv_color.h ****     LV_PALETTE_CYAN,
 267:c:\projects\paindrain\arduinolcd\test\pain drain\libraries\lvgl\src\misc\lv_color.h ****     LV_PALETTE_TEAL,
 268:c:\projects\paindrain\arduinolcd\test\pain drain\libraries\lvgl\src\misc\lv_color.h ****     LV_PALETTE_GREEN,
 269:c:\projects\paindrain\arduinolcd\test\pain drain\libraries\lvgl\src\misc\lv_color.h ****     LV_PALETTE_LIGHT_GREEN,
 270:c:\projects\paindrain\arduinolcd\test\pain drain\libraries\lvgl\src\misc\lv_color.h ****     LV_PALETTE_LIME,
 271:c:\projects\paindrain\arduinolcd\test\pain drain\libraries\lvgl\src\misc\lv_color.h ****     LV_PALETTE_YELLOW,
 272:c:\projects\paindrain\arduinolcd\test\pain drain\libraries\lvgl\src\misc\lv_color.h ****     LV_PALETTE_AMBER,
 273:c:\projects\paindrain\arduinolcd\test\pain drain\libraries\lvgl\src\misc\lv_color.h ****     LV_PALETTE_ORANGE,
 274:c:\projects\paindrain\arduinolcd\test\pain drain\libraries\lvgl\src\misc\lv_color.h ****     LV_PALETTE_DEEP_ORANGE,
 275:c:\projects\paindrain\arduinolcd\test\pain drain\libraries\lvgl\src\misc\lv_color.h ****     LV_PALETTE_BROWN,
 276:c:\projects\paindrain\arduinolcd\test\pain drain\libraries\lvgl\src\misc\lv_color.h ****     LV_PALETTE_BLUE_GREY,
 277:c:\projects\paindrain\arduinolcd\test\pain drain\libraries\lvgl\src\misc\lv_color.h ****     LV_PALETTE_GREY,
 278:c:\projects\paindrain\arduinolcd\test\pain drain\libraries\lvgl\src\misc\lv_color.h ****     _LV_PALETTE_LAST,
 279:c:\projects\paindrain\arduinolcd\test\pain drain\libraries\lvgl\src\misc\lv_color.h ****     LV_PALETTE_NONE = 0xff,
 280:c:\projects\paindrain\arduinolcd\test\pain drain\libraries\lvgl\src\misc\lv_color.h **** } lv_palette_t;
 281:c:\projects\paindrain\arduinolcd\test\pain drain\libraries\lvgl\src\misc\lv_color.h **** 
 282:c:\projects\paindrain\arduinolcd\test\pain drain\libraries\lvgl\src\misc\lv_color.h **** /**********************
 283:c:\projects\paindrain\arduinolcd\test\pain drain\libraries\lvgl\src\misc\lv_color.h ****  * GLOBAL PROTOTYPES
 284:c:\projects\paindrain\arduinolcd\test\pain drain\libraries\lvgl\src\misc\lv_color.h ****  **********************/
 285:c:\projects\paindrain\arduinolcd\test\pain drain\libraries\lvgl\src\misc\lv_color.h **** 
 286:c:\projects\paindrain\arduinolcd\test\pain drain\libraries\lvgl\src\misc\lv_color.h **** /*In color conversations:
 287:c:\projects\paindrain\arduinolcd\test\pain drain\libraries\lvgl\src\misc\lv_color.h ****  * - When converting to bigger color type the LSB weight of 1 LSB is calculated
 288:c:\projects\paindrain\arduinolcd\test\pain drain\libraries\lvgl\src\misc\lv_color.h ****  *   E.g. 16 bit Red has 5 bits
 289:c:\projects\paindrain\arduinolcd\test\pain drain\libraries\lvgl\src\misc\lv_color.h ****  *         8 bit Red has 3 bits
 290:c:\projects\paindrain\arduinolcd\test\pain drain\libraries\lvgl\src\misc\lv_color.h ****  *        ----------------------
 291:c:\projects\paindrain\arduinolcd\test\pain drain\libraries\lvgl\src\misc\lv_color.h ****  *        8 bit red LSB = (2^5 - 1) / (2^3 - 1) = 31 / 7 = 4
 292:c:\projects\paindrain\arduinolcd\test\pain drain\libraries\lvgl\src\misc\lv_color.h ****  *
 293:c:\projects\paindrain\arduinolcd\test\pain drain\libraries\lvgl\src\misc\lv_color.h ****  * - When calculating to smaller color type simply shift out the LSBs
 294:c:\projects\paindrain\arduinolcd\test\pain drain\libraries\lvgl\src\misc\lv_color.h ****  *   E.g.  8 bit Red has 3 bits
 295:c:\projects\paindrain\arduinolcd\test\pain drain\libraries\lvgl\src\misc\lv_color.h ****  *        16 bit Red has 5 bits
 296:c:\projects\paindrain\arduinolcd\test\pain drain\libraries\lvgl\src\misc\lv_color.h ****  *        ----------------------
 297:c:\projects\paindrain\arduinolcd\test\pain drain\libraries\lvgl\src\misc\lv_color.h ****  *         Shift right with 5 - 3 = 2
 298:c:\projects\paindrain\arduinolcd\test\pain drain\libraries\lvgl\src\misc\lv_color.h ****  */
 299:c:\projects\paindrain\arduinolcd\test\pain drain\libraries\lvgl\src\misc\lv_color.h **** static inline uint8_t lv_color_to1(lv_color_t color)
 300:c:\projects\paindrain\arduinolcd\test\pain drain\libraries\lvgl\src\misc\lv_color.h **** {
 301:c:\projects\paindrain\arduinolcd\test\pain drain\libraries\lvgl\src\misc\lv_color.h **** #if LV_COLOR_DEPTH == 1
 302:c:\projects\paindrain\arduinolcd\test\pain drain\libraries\lvgl\src\misc\lv_color.h ****     return color.full;
 303:c:\projects\paindrain\arduinolcd\test\pain drain\libraries\lvgl\src\misc\lv_color.h **** #elif LV_COLOR_DEPTH == 8
 304:c:\projects\paindrain\arduinolcd\test\pain drain\libraries\lvgl\src\misc\lv_color.h ****     if((LV_COLOR_GET_R(color) & 0x4) || (LV_COLOR_GET_G(color) & 0x4) || (LV_COLOR_GET_B(color) & 0
 305:c:\projects\paindrain\arduinolcd\test\pain drain\libraries\lvgl\src\misc\lv_color.h ****         return 1;
 306:c:\projects\paindrain\arduinolcd\test\pain drain\libraries\lvgl\src\misc\lv_color.h ****     }
 307:c:\projects\paindrain\arduinolcd\test\pain drain\libraries\lvgl\src\misc\lv_color.h ****     else {
 308:c:\projects\paindrain\arduinolcd\test\pain drain\libraries\lvgl\src\misc\lv_color.h ****         return 0;
 309:c:\projects\paindrain\arduinolcd\test\pain drain\libraries\lvgl\src\misc\lv_color.h ****     }
 310:c:\projects\paindrain\arduinolcd\test\pain drain\libraries\lvgl\src\misc\lv_color.h **** #elif LV_COLOR_DEPTH == 16
 311:c:\projects\paindrain\arduinolcd\test\pain drain\libraries\lvgl\src\misc\lv_color.h ****     if((LV_COLOR_GET_R(color) & 0x10) || (LV_COLOR_GET_G(color) & 0x20) || (LV_COLOR_GET_B(color) &
 312:c:\projects\paindrain\arduinolcd\test\pain drain\libraries\lvgl\src\misc\lv_color.h ****         return 1;
 313:c:\projects\paindrain\arduinolcd\test\pain drain\libraries\lvgl\src\misc\lv_color.h ****     }
 314:c:\projects\paindrain\arduinolcd\test\pain drain\libraries\lvgl\src\misc\lv_color.h ****     else {
 315:c:\projects\paindrain\arduinolcd\test\pain drain\libraries\lvgl\src\misc\lv_color.h ****         return 0;
ARM GAS  C:\Users\haske\AppData\Local\Temp\ccIkbvey.s 			page 26


 316:c:\projects\paindrain\arduinolcd\test\pain drain\libraries\lvgl\src\misc\lv_color.h ****     }
 317:c:\projects\paindrain\arduinolcd\test\pain drain\libraries\lvgl\src\misc\lv_color.h **** #elif LV_COLOR_DEPTH == 32
 318:c:\projects\paindrain\arduinolcd\test\pain drain\libraries\lvgl\src\misc\lv_color.h ****     if((LV_COLOR_GET_R(color) & 0x80) || (LV_COLOR_GET_G(color) & 0x80) || (LV_COLOR_GET_B(color) &
 319:c:\projects\paindrain\arduinolcd\test\pain drain\libraries\lvgl\src\misc\lv_color.h ****         return 1;
 320:c:\projects\paindrain\arduinolcd\test\pain drain\libraries\lvgl\src\misc\lv_color.h ****     }
 321:c:\projects\paindrain\arduinolcd\test\pain drain\libraries\lvgl\src\misc\lv_color.h ****     else {
 322:c:\projects\paindrain\arduinolcd\test\pain drain\libraries\lvgl\src\misc\lv_color.h ****         return 0;
 323:c:\projects\paindrain\arduinolcd\test\pain drain\libraries\lvgl\src\misc\lv_color.h ****     }
 324:c:\projects\paindrain\arduinolcd\test\pain drain\libraries\lvgl\src\misc\lv_color.h **** #endif
 325:c:\projects\paindrain\arduinolcd\test\pain drain\libraries\lvgl\src\misc\lv_color.h **** }
 326:c:\projects\paindrain\arduinolcd\test\pain drain\libraries\lvgl\src\misc\lv_color.h **** 
 327:c:\projects\paindrain\arduinolcd\test\pain drain\libraries\lvgl\src\misc\lv_color.h **** static inline uint8_t lv_color_to8(lv_color_t color)
 328:c:\projects\paindrain\arduinolcd\test\pain drain\libraries\lvgl\src\misc\lv_color.h **** {
 329:c:\projects\paindrain\arduinolcd\test\pain drain\libraries\lvgl\src\misc\lv_color.h **** #if LV_COLOR_DEPTH == 1
 330:c:\projects\paindrain\arduinolcd\test\pain drain\libraries\lvgl\src\misc\lv_color.h ****     if(color.full == 0)
 331:c:\projects\paindrain\arduinolcd\test\pain drain\libraries\lvgl\src\misc\lv_color.h ****         return 0;
 332:c:\projects\paindrain\arduinolcd\test\pain drain\libraries\lvgl\src\misc\lv_color.h ****     else
 333:c:\projects\paindrain\arduinolcd\test\pain drain\libraries\lvgl\src\misc\lv_color.h ****         return 0xFF;
 334:c:\projects\paindrain\arduinolcd\test\pain drain\libraries\lvgl\src\misc\lv_color.h **** #elif LV_COLOR_DEPTH == 8
 335:c:\projects\paindrain\arduinolcd\test\pain drain\libraries\lvgl\src\misc\lv_color.h ****     return color.full;
 336:c:\projects\paindrain\arduinolcd\test\pain drain\libraries\lvgl\src\misc\lv_color.h **** #elif LV_COLOR_DEPTH == 16
 337:c:\projects\paindrain\arduinolcd\test\pain drain\libraries\lvgl\src\misc\lv_color.h ****     lv_color8_t ret;
 338:c:\projects\paindrain\arduinolcd\test\pain drain\libraries\lvgl\src\misc\lv_color.h ****     LV_COLOR_SET_R8(ret, LV_COLOR_GET_R(color) >> 2); /*5 - 3  = 2*/
 339:c:\projects\paindrain\arduinolcd\test\pain drain\libraries\lvgl\src\misc\lv_color.h ****     LV_COLOR_SET_G8(ret, LV_COLOR_GET_G(color) >> 3); /*6 - 3  = 3*/
 340:c:\projects\paindrain\arduinolcd\test\pain drain\libraries\lvgl\src\misc\lv_color.h ****     LV_COLOR_SET_B8(ret, LV_COLOR_GET_B(color) >> 3); /*5 - 2  = 3*/
 341:c:\projects\paindrain\arduinolcd\test\pain drain\libraries\lvgl\src\misc\lv_color.h ****     return ret.full;
 342:c:\projects\paindrain\arduinolcd\test\pain drain\libraries\lvgl\src\misc\lv_color.h **** #elif LV_COLOR_DEPTH == 32
 343:c:\projects\paindrain\arduinolcd\test\pain drain\libraries\lvgl\src\misc\lv_color.h ****     lv_color8_t ret;
 344:c:\projects\paindrain\arduinolcd\test\pain drain\libraries\lvgl\src\misc\lv_color.h ****     LV_COLOR_SET_R8(ret, LV_COLOR_GET_R(color) >> 5); /*8 - 3  = 5*/
 345:c:\projects\paindrain\arduinolcd\test\pain drain\libraries\lvgl\src\misc\lv_color.h ****     LV_COLOR_SET_G8(ret, LV_COLOR_GET_G(color) >> 5); /*8 - 3  = 5*/
 346:c:\projects\paindrain\arduinolcd\test\pain drain\libraries\lvgl\src\misc\lv_color.h ****     LV_COLOR_SET_B8(ret, LV_COLOR_GET_B(color) >> 6); /*8 - 2  = 6*/
 347:c:\projects\paindrain\arduinolcd\test\pain drain\libraries\lvgl\src\misc\lv_color.h ****     return ret.full;
 348:c:\projects\paindrain\arduinolcd\test\pain drain\libraries\lvgl\src\misc\lv_color.h **** #endif
 349:c:\projects\paindrain\arduinolcd\test\pain drain\libraries\lvgl\src\misc\lv_color.h **** }
 350:c:\projects\paindrain\arduinolcd\test\pain drain\libraries\lvgl\src\misc\lv_color.h **** 
 351:c:\projects\paindrain\arduinolcd\test\pain drain\libraries\lvgl\src\misc\lv_color.h **** static inline uint16_t lv_color_to16(lv_color_t color)
 352:c:\projects\paindrain\arduinolcd\test\pain drain\libraries\lvgl\src\misc\lv_color.h **** {
 353:c:\projects\paindrain\arduinolcd\test\pain drain\libraries\lvgl\src\misc\lv_color.h **** #if LV_COLOR_DEPTH == 1
 354:c:\projects\paindrain\arduinolcd\test\pain drain\libraries\lvgl\src\misc\lv_color.h ****     if(color.full == 0)
 355:c:\projects\paindrain\arduinolcd\test\pain drain\libraries\lvgl\src\misc\lv_color.h ****         return 0;
 356:c:\projects\paindrain\arduinolcd\test\pain drain\libraries\lvgl\src\misc\lv_color.h ****     else
 357:c:\projects\paindrain\arduinolcd\test\pain drain\libraries\lvgl\src\misc\lv_color.h ****         return 0xFFFF;
 358:c:\projects\paindrain\arduinolcd\test\pain drain\libraries\lvgl\src\misc\lv_color.h **** #elif LV_COLOR_DEPTH == 8
 359:c:\projects\paindrain\arduinolcd\test\pain drain\libraries\lvgl\src\misc\lv_color.h ****     lv_color16_t ret;
 360:c:\projects\paindrain\arduinolcd\test\pain drain\libraries\lvgl\src\misc\lv_color.h ****     LV_COLOR_SET_R16(ret, LV_COLOR_GET_R(color) * 4);  /*(2^5 - 1)/(2^3 - 1) = 31/7 = 4*/
 361:c:\projects\paindrain\arduinolcd\test\pain drain\libraries\lvgl\src\misc\lv_color.h ****     LV_COLOR_SET_G16(ret, LV_COLOR_GET_G(color) * 9);  /*(2^6 - 1)/(2^3 - 1) = 63/7 = 9*/
 362:c:\projects\paindrain\arduinolcd\test\pain drain\libraries\lvgl\src\misc\lv_color.h ****     LV_COLOR_SET_B16(ret, LV_COLOR_GET_B(color) * 10); /*(2^5 - 1)/(2^2 - 1) = 31/3 = 10*/
 363:c:\projects\paindrain\arduinolcd\test\pain drain\libraries\lvgl\src\misc\lv_color.h ****     return ret.full;
 364:c:\projects\paindrain\arduinolcd\test\pain drain\libraries\lvgl\src\misc\lv_color.h **** #elif LV_COLOR_DEPTH == 16
 365:c:\projects\paindrain\arduinolcd\test\pain drain\libraries\lvgl\src\misc\lv_color.h ****     return color.full;
 366:c:\projects\paindrain\arduinolcd\test\pain drain\libraries\lvgl\src\misc\lv_color.h **** #elif LV_COLOR_DEPTH == 32
 367:c:\projects\paindrain\arduinolcd\test\pain drain\libraries\lvgl\src\misc\lv_color.h ****     lv_color16_t ret;
 368:c:\projects\paindrain\arduinolcd\test\pain drain\libraries\lvgl\src\misc\lv_color.h ****     LV_COLOR_SET_R16(ret, LV_COLOR_GET_R(color) >> 3); /*8 - 5  = 3*/
 369:c:\projects\paindrain\arduinolcd\test\pain drain\libraries\lvgl\src\misc\lv_color.h ****     LV_COLOR_SET_G16(ret, LV_COLOR_GET_G(color) >> 2); /*8 - 6  = 2*/
 370:c:\projects\paindrain\arduinolcd\test\pain drain\libraries\lvgl\src\misc\lv_color.h ****     LV_COLOR_SET_B16(ret, LV_COLOR_GET_B(color) >> 3); /*8 - 5  = 3*/
 371:c:\projects\paindrain\arduinolcd\test\pain drain\libraries\lvgl\src\misc\lv_color.h ****     return ret.full;
 372:c:\projects\paindrain\arduinolcd\test\pain drain\libraries\lvgl\src\misc\lv_color.h **** #endif
ARM GAS  C:\Users\haske\AppData\Local\Temp\ccIkbvey.s 			page 27


 373:c:\projects\paindrain\arduinolcd\test\pain drain\libraries\lvgl\src\misc\lv_color.h **** }
 374:c:\projects\paindrain\arduinolcd\test\pain drain\libraries\lvgl\src\misc\lv_color.h **** 
 375:c:\projects\paindrain\arduinolcd\test\pain drain\libraries\lvgl\src\misc\lv_color.h **** static inline uint32_t lv_color_to32(lv_color_t color)
 376:c:\projects\paindrain\arduinolcd\test\pain drain\libraries\lvgl\src\misc\lv_color.h **** {
 377:c:\projects\paindrain\arduinolcd\test\pain drain\libraries\lvgl\src\misc\lv_color.h **** #if LV_COLOR_DEPTH == 1
 378:c:\projects\paindrain\arduinolcd\test\pain drain\libraries\lvgl\src\misc\lv_color.h ****     if(color.full == 0)
 379:c:\projects\paindrain\arduinolcd\test\pain drain\libraries\lvgl\src\misc\lv_color.h ****         return 0xFF000000;
 380:c:\projects\paindrain\arduinolcd\test\pain drain\libraries\lvgl\src\misc\lv_color.h ****     else
 381:c:\projects\paindrain\arduinolcd\test\pain drain\libraries\lvgl\src\misc\lv_color.h ****         return 0xFFFFFFFF;
 382:c:\projects\paindrain\arduinolcd\test\pain drain\libraries\lvgl\src\misc\lv_color.h **** #elif LV_COLOR_DEPTH == 8
 383:c:\projects\paindrain\arduinolcd\test\pain drain\libraries\lvgl\src\misc\lv_color.h ****     lv_color32_t ret;
 384:c:\projects\paindrain\arduinolcd\test\pain drain\libraries\lvgl\src\misc\lv_color.h ****     LV_COLOR_SET_R32(ret, LV_COLOR_GET_R(color) * 36); /*(2^8 - 1)/(2^3 - 1) = 255/7 = 36*/
 385:c:\projects\paindrain\arduinolcd\test\pain drain\libraries\lvgl\src\misc\lv_color.h ****     LV_COLOR_SET_G32(ret, LV_COLOR_GET_G(color) * 36); /*(2^8 - 1)/(2^3 - 1) = 255/7 = 36*/
 386:c:\projects\paindrain\arduinolcd\test\pain drain\libraries\lvgl\src\misc\lv_color.h ****     LV_COLOR_SET_B32(ret, LV_COLOR_GET_B(color) * 85); /*(2^8 - 1)/(2^2 - 1) = 255/3 = 85*/
 387:c:\projects\paindrain\arduinolcd\test\pain drain\libraries\lvgl\src\misc\lv_color.h ****     LV_COLOR_SET_A32(ret, 0xFF);
 388:c:\projects\paindrain\arduinolcd\test\pain drain\libraries\lvgl\src\misc\lv_color.h ****     return ret.full;
 389:c:\projects\paindrain\arduinolcd\test\pain drain\libraries\lvgl\src\misc\lv_color.h **** #elif LV_COLOR_DEPTH == 16
 390:c:\projects\paindrain\arduinolcd\test\pain drain\libraries\lvgl\src\misc\lv_color.h ****     /**
 391:c:\projects\paindrain\arduinolcd\test\pain drain\libraries\lvgl\src\misc\lv_color.h ****      * The floating point math for conversion is:
 392:c:\projects\paindrain\arduinolcd\test\pain drain\libraries\lvgl\src\misc\lv_color.h ****      *  valueto = valuefrom * ( (2^bitsto - 1) / (float)(2^bitsfrom - 1) )
 393:c:\projects\paindrain\arduinolcd\test\pain drain\libraries\lvgl\src\misc\lv_color.h ****      * The faster integer math for conversion is:
 394:c:\projects\paindrain\arduinolcd\test\pain drain\libraries\lvgl\src\misc\lv_color.h ****      *  valueto = ( valuefrom * multiplier + adder ) >> divisor
 395:c:\projects\paindrain\arduinolcd\test\pain drain\libraries\lvgl\src\misc\lv_color.h ****      *   multiplier = FLOOR( ( (2^bitsto - 1) << divisor ) / (float)(2^bitsfrom - 1) )
 396:c:\projects\paindrain\arduinolcd\test\pain drain\libraries\lvgl\src\misc\lv_color.h ****      *
 397:c:\projects\paindrain\arduinolcd\test\pain drain\libraries\lvgl\src\misc\lv_color.h ****      * Find the first divisor where ( adder >> divisor ) <= 0
 398:c:\projects\paindrain\arduinolcd\test\pain drain\libraries\lvgl\src\misc\lv_color.h ****      *
 399:c:\projects\paindrain\arduinolcd\test\pain drain\libraries\lvgl\src\misc\lv_color.h ****      * 5-bit to 8-bit: ( 31 * multiplier + adder ) >> divisor = 255
 400:c:\projects\paindrain\arduinolcd\test\pain drain\libraries\lvgl\src\misc\lv_color.h ****      * divisor  multiplier  adder  min (0)  max (31)
 401:c:\projects\paindrain\arduinolcd\test\pain drain\libraries\lvgl\src\misc\lv_color.h ****      *       0           8      7        7       255
 402:c:\projects\paindrain\arduinolcd\test\pain drain\libraries\lvgl\src\misc\lv_color.h ****      *       1          16     14        7       255
 403:c:\projects\paindrain\arduinolcd\test\pain drain\libraries\lvgl\src\misc\lv_color.h ****      *       2          32     28        7       255
 404:c:\projects\paindrain\arduinolcd\test\pain drain\libraries\lvgl\src\misc\lv_color.h ****      *       3          65     25        3       255
 405:c:\projects\paindrain\arduinolcd\test\pain drain\libraries\lvgl\src\misc\lv_color.h ****      *       4         131     19        1       255
 406:c:\projects\paindrain\arduinolcd\test\pain drain\libraries\lvgl\src\misc\lv_color.h ****      *       5         263      7        0       255
 407:c:\projects\paindrain\arduinolcd\test\pain drain\libraries\lvgl\src\misc\lv_color.h ****      *
 408:c:\projects\paindrain\arduinolcd\test\pain drain\libraries\lvgl\src\misc\lv_color.h ****      * 6-bit to 8-bit: 255 = ( 63 * multiplier + adder ) >> divisor
 409:c:\projects\paindrain\arduinolcd\test\pain drain\libraries\lvgl\src\misc\lv_color.h ****      * divisor  multiplier  adder  min (0)  max (63)
 410:c:\projects\paindrain\arduinolcd\test\pain drain\libraries\lvgl\src\misc\lv_color.h ****      *       0           4      3        3       255
 411:c:\projects\paindrain\arduinolcd\test\pain drain\libraries\lvgl\src\misc\lv_color.h ****      *       1           8      6        3       255
 412:c:\projects\paindrain\arduinolcd\test\pain drain\libraries\lvgl\src\misc\lv_color.h ****      *       2          16     12        3       255
 413:c:\projects\paindrain\arduinolcd\test\pain drain\libraries\lvgl\src\misc\lv_color.h ****      *       3          32     24        3       255
 414:c:\projects\paindrain\arduinolcd\test\pain drain\libraries\lvgl\src\misc\lv_color.h ****      *       4          64     48        3       255
 415:c:\projects\paindrain\arduinolcd\test\pain drain\libraries\lvgl\src\misc\lv_color.h ****      *       5         129     33        1       255
 416:c:\projects\paindrain\arduinolcd\test\pain drain\libraries\lvgl\src\misc\lv_color.h ****      *       6         259      3        0       255
 417:c:\projects\paindrain\arduinolcd\test\pain drain\libraries\lvgl\src\misc\lv_color.h ****      */
 418:c:\projects\paindrain\arduinolcd\test\pain drain\libraries\lvgl\src\misc\lv_color.h **** 
 419:c:\projects\paindrain\arduinolcd\test\pain drain\libraries\lvgl\src\misc\lv_color.h ****     lv_color32_t ret;
 420:c:\projects\paindrain\arduinolcd\test\pain drain\libraries\lvgl\src\misc\lv_color.h ****     LV_COLOR_SET_R32(ret, (LV_COLOR_GET_R(color) * 263 + 7) >> 5);
 421:c:\projects\paindrain\arduinolcd\test\pain drain\libraries\lvgl\src\misc\lv_color.h ****     LV_COLOR_SET_G32(ret, (LV_COLOR_GET_G(color) * 259 + 3) >> 6);
 422:c:\projects\paindrain\arduinolcd\test\pain drain\libraries\lvgl\src\misc\lv_color.h ****     LV_COLOR_SET_B32(ret, (LV_COLOR_GET_B(color) * 263 + 7) >> 5);
 423:c:\projects\paindrain\arduinolcd\test\pain drain\libraries\lvgl\src\misc\lv_color.h ****     LV_COLOR_SET_A32(ret, 0xFF);
 424:c:\projects\paindrain\arduinolcd\test\pain drain\libraries\lvgl\src\misc\lv_color.h ****     return ret.full;
 425:c:\projects\paindrain\arduinolcd\test\pain drain\libraries\lvgl\src\misc\lv_color.h **** #elif LV_COLOR_DEPTH == 32
 426:c:\projects\paindrain\arduinolcd\test\pain drain\libraries\lvgl\src\misc\lv_color.h ****     return color.full;
 427:c:\projects\paindrain\arduinolcd\test\pain drain\libraries\lvgl\src\misc\lv_color.h **** #endif
 428:c:\projects\paindrain\arduinolcd\test\pain drain\libraries\lvgl\src\misc\lv_color.h **** }
 429:c:\projects\paindrain\arduinolcd\test\pain drain\libraries\lvgl\src\misc\lv_color.h **** 
ARM GAS  C:\Users\haske\AppData\Local\Temp\ccIkbvey.s 			page 28


 430:c:\projects\paindrain\arduinolcd\test\pain drain\libraries\lvgl\src\misc\lv_color.h **** //! @cond Doxygen_Suppress
 431:c:\projects\paindrain\arduinolcd\test\pain drain\libraries\lvgl\src\misc\lv_color.h **** 
 432:c:\projects\paindrain\arduinolcd\test\pain drain\libraries\lvgl\src\misc\lv_color.h **** /**
 433:c:\projects\paindrain\arduinolcd\test\pain drain\libraries\lvgl\src\misc\lv_color.h ****  * Mix two colors with a given ratio.
 434:c:\projects\paindrain\arduinolcd\test\pain drain\libraries\lvgl\src\misc\lv_color.h ****  * @param c1 the first color to mix (usually the foreground)
 435:c:\projects\paindrain\arduinolcd\test\pain drain\libraries\lvgl\src\misc\lv_color.h ****  * @param c2 the second color to mix (usually the background)
 436:c:\projects\paindrain\arduinolcd\test\pain drain\libraries\lvgl\src\misc\lv_color.h ****  * @param mix The ratio of the colors. 0: full `c2`, 255: full `c1`, 127: half `c1` and half`c2`
 437:c:\projects\paindrain\arduinolcd\test\pain drain\libraries\lvgl\src\misc\lv_color.h ****  * @return the mixed color
 438:c:\projects\paindrain\arduinolcd\test\pain drain\libraries\lvgl\src\misc\lv_color.h ****  */
 439:c:\projects\paindrain\arduinolcd\test\pain drain\libraries\lvgl\src\misc\lv_color.h **** LV_ATTRIBUTE_FAST_MEM static inline lv_color_t lv_color_mix(lv_color_t c1, lv_color_t c2, uint8_t m
 440:c:\projects\paindrain\arduinolcd\test\pain drain\libraries\lvgl\src\misc\lv_color.h **** {
 441:c:\projects\paindrain\arduinolcd\test\pain drain\libraries\lvgl\src\misc\lv_color.h ****     lv_color_t ret;
 442:c:\projects\paindrain\arduinolcd\test\pain drain\libraries\lvgl\src\misc\lv_color.h **** 
 443:c:\projects\paindrain\arduinolcd\test\pain drain\libraries\lvgl\src\misc\lv_color.h **** #if LV_COLOR_DEPTH == 16 && LV_COLOR_16_SWAP == 0 && LV_COLOR_MIX_ROUND_OFS == 0
 444:c:\projects\paindrain\arduinolcd\test\pain drain\libraries\lvgl\src\misc\lv_color.h ****     /*Source: https://stackoverflow.com/a/50012418/1999969*/
 445:c:\projects\paindrain\arduinolcd\test\pain drain\libraries\lvgl\src\misc\lv_color.h ****     mix = (uint32_t)((uint32_t)mix + 4) >> 3;
 446:c:\projects\paindrain\arduinolcd\test\pain drain\libraries\lvgl\src\misc\lv_color.h ****     uint32_t bg = (uint32_t)((uint32_t)c2.full | ((uint32_t)c2.full << 16)) &
 447:c:\projects\paindrain\arduinolcd\test\pain drain\libraries\lvgl\src\misc\lv_color.h ****                   0x7E0F81F; /*0b00000111111000001111100000011111*/
 448:c:\projects\paindrain\arduinolcd\test\pain drain\libraries\lvgl\src\misc\lv_color.h ****     uint32_t fg = (uint32_t)((uint32_t)c1.full | ((uint32_t)c1.full << 16)) & 0x7E0F81F;
 449:c:\projects\paindrain\arduinolcd\test\pain drain\libraries\lvgl\src\misc\lv_color.h ****     uint32_t result = ((((fg - bg) * mix) >> 5) + bg) & 0x7E0F81F;
 450:c:\projects\paindrain\arduinolcd\test\pain drain\libraries\lvgl\src\misc\lv_color.h ****     ret.full = (uint16_t)((result >> 16) | result);
 451:c:\projects\paindrain\arduinolcd\test\pain drain\libraries\lvgl\src\misc\lv_color.h **** #elif LV_COLOR_DEPTH != 1
 452:c:\projects\paindrain\arduinolcd\test\pain drain\libraries\lvgl\src\misc\lv_color.h ****     /*LV_COLOR_DEPTH == 8, 16 or 32*/
 453:c:\projects\paindrain\arduinolcd\test\pain drain\libraries\lvgl\src\misc\lv_color.h ****     LV_COLOR_SET_R(ret, LV_UDIV255((uint16_t)LV_COLOR_GET_R(c1) * mix + LV_COLOR_GET_R(c2) *
 454:c:\projects\paindrain\arduinolcd\test\pain drain\libraries\lvgl\src\misc\lv_color.h ****                                    (255 - mix) + LV_COLOR_MIX_ROUND_OFS));
 455:c:\projects\paindrain\arduinolcd\test\pain drain\libraries\lvgl\src\misc\lv_color.h ****     LV_COLOR_SET_G(ret, LV_UDIV255((uint16_t)LV_COLOR_GET_G(c1) * mix + LV_COLOR_GET_G(c2) *
 456:c:\projects\paindrain\arduinolcd\test\pain drain\libraries\lvgl\src\misc\lv_color.h ****                                    (255 - mix) + LV_COLOR_MIX_ROUND_OFS));
 457:c:\projects\paindrain\arduinolcd\test\pain drain\libraries\lvgl\src\misc\lv_color.h ****     LV_COLOR_SET_B(ret, LV_UDIV255((uint16_t)LV_COLOR_GET_B(c1) * mix + LV_COLOR_GET_B(c2) *
 458:c:\projects\paindrain\arduinolcd\test\pain drain\libraries\lvgl\src\misc\lv_color.h ****                                    (255 - mix) + LV_COLOR_MIX_ROUND_OFS));
 459:c:\projects\paindrain\arduinolcd\test\pain drain\libraries\lvgl\src\misc\lv_color.h ****     LV_COLOR_SET_A(ret, 0xFF);
 460:c:\projects\paindrain\arduinolcd\test\pain drain\libraries\lvgl\src\misc\lv_color.h **** #else
 461:c:\projects\paindrain\arduinolcd\test\pain drain\libraries\lvgl\src\misc\lv_color.h ****     /*LV_COLOR_DEPTH == 1*/
 462:c:\projects\paindrain\arduinolcd\test\pain drain\libraries\lvgl\src\misc\lv_color.h ****     ret.full = mix > LV_OPA_50 ? c1.full : c2.full;
 463:c:\projects\paindrain\arduinolcd\test\pain drain\libraries\lvgl\src\misc\lv_color.h **** #endif
 464:c:\projects\paindrain\arduinolcd\test\pain drain\libraries\lvgl\src\misc\lv_color.h **** 
 465:c:\projects\paindrain\arduinolcd\test\pain drain\libraries\lvgl\src\misc\lv_color.h ****     return ret;
 466:c:\projects\paindrain\arduinolcd\test\pain drain\libraries\lvgl\src\misc\lv_color.h **** }
 467:c:\projects\paindrain\arduinolcd\test\pain drain\libraries\lvgl\src\misc\lv_color.h **** 
 468:c:\projects\paindrain\arduinolcd\test\pain drain\libraries\lvgl\src\misc\lv_color.h **** LV_ATTRIBUTE_FAST_MEM static inline void lv_color_premult(lv_color_t c, uint8_t mix, uint16_t * out
 469:c:\projects\paindrain\arduinolcd\test\pain drain\libraries\lvgl\src\misc\lv_color.h **** {
 470:c:\projects\paindrain\arduinolcd\test\pain drain\libraries\lvgl\src\misc\lv_color.h **** #if LV_COLOR_DEPTH != 1
 471:c:\projects\paindrain\arduinolcd\test\pain drain\libraries\lvgl\src\misc\lv_color.h ****     out[0] = (uint16_t)LV_COLOR_GET_R(c) * mix;
 472:c:\projects\paindrain\arduinolcd\test\pain drain\libraries\lvgl\src\misc\lv_color.h ****     out[1] = (uint16_t)LV_COLOR_GET_G(c) * mix;
 473:c:\projects\paindrain\arduinolcd\test\pain drain\libraries\lvgl\src\misc\lv_color.h ****     out[2] = (uint16_t)LV_COLOR_GET_B(c) * mix;
 474:c:\projects\paindrain\arduinolcd\test\pain drain\libraries\lvgl\src\misc\lv_color.h **** #else
 475:c:\projects\paindrain\arduinolcd\test\pain drain\libraries\lvgl\src\misc\lv_color.h ****     (void) mix;
 476:c:\projects\paindrain\arduinolcd\test\pain drain\libraries\lvgl\src\misc\lv_color.h ****     /*Pre-multiplication can't be used with 1 bpp*/
 477:c:\projects\paindrain\arduinolcd\test\pain drain\libraries\lvgl\src\misc\lv_color.h ****     out[0] = LV_COLOR_GET_R(c);
 478:c:\projects\paindrain\arduinolcd\test\pain drain\libraries\lvgl\src\misc\lv_color.h ****     out[1] = LV_COLOR_GET_G(c);
 479:c:\projects\paindrain\arduinolcd\test\pain drain\libraries\lvgl\src\misc\lv_color.h ****     out[2] = LV_COLOR_GET_B(c);
 480:c:\projects\paindrain\arduinolcd\test\pain drain\libraries\lvgl\src\misc\lv_color.h **** #endif
 481:c:\projects\paindrain\arduinolcd\test\pain drain\libraries\lvgl\src\misc\lv_color.h **** 
 482:c:\projects\paindrain\arduinolcd\test\pain drain\libraries\lvgl\src\misc\lv_color.h **** }
 483:c:\projects\paindrain\arduinolcd\test\pain drain\libraries\lvgl\src\misc\lv_color.h **** 
 484:c:\projects\paindrain\arduinolcd\test\pain drain\libraries\lvgl\src\misc\lv_color.h **** /**
 485:c:\projects\paindrain\arduinolcd\test\pain drain\libraries\lvgl\src\misc\lv_color.h ****  * Mix two colors with a given ratio. It runs faster then `lv_color_mix` but requires some pre comp
 486:c:\projects\paindrain\arduinolcd\test\pain drain\libraries\lvgl\src\misc\lv_color.h ****  * @param premult_c1 The first color. Should be preprocessed with `lv_color_premult(c1)`
ARM GAS  C:\Users\haske\AppData\Local\Temp\ccIkbvey.s 			page 29


 487:c:\projects\paindrain\arduinolcd\test\pain drain\libraries\lvgl\src\misc\lv_color.h ****  * @param c2 The second color. As it is no pre computation required on it
 488:c:\projects\paindrain\arduinolcd\test\pain drain\libraries\lvgl\src\misc\lv_color.h ****  * @param mix The ratio of the colors. 0: full `c1`, 255: full `c2`, 127: half `c1` and half `c2`.
 489:c:\projects\paindrain\arduinolcd\test\pain drain\libraries\lvgl\src\misc\lv_color.h ****  *            Should be modified like mix = `255 - mix`
 490:c:\projects\paindrain\arduinolcd\test\pain drain\libraries\lvgl\src\misc\lv_color.h ****  * @return the mixed color
 491:c:\projects\paindrain\arduinolcd\test\pain drain\libraries\lvgl\src\misc\lv_color.h ****  * @note 255 won't give clearly `c1`.
 492:c:\projects\paindrain\arduinolcd\test\pain drain\libraries\lvgl\src\misc\lv_color.h ****  */
 493:c:\projects\paindrain\arduinolcd\test\pain drain\libraries\lvgl\src\misc\lv_color.h **** LV_ATTRIBUTE_FAST_MEM static inline lv_color_t lv_color_mix_premult(uint16_t * premult_c1, lv_color
 494:c:\projects\paindrain\arduinolcd\test\pain drain\libraries\lvgl\src\misc\lv_color.h **** {
 495:c:\projects\paindrain\arduinolcd\test\pain drain\libraries\lvgl\src\misc\lv_color.h ****     lv_color_t ret;
 496:c:\projects\paindrain\arduinolcd\test\pain drain\libraries\lvgl\src\misc\lv_color.h **** #if LV_COLOR_DEPTH != 1
 497:c:\projects\paindrain\arduinolcd\test\pain drain\libraries\lvgl\src\misc\lv_color.h ****     /*LV_COLOR_DEPTH == 8 or 32*/
 498:c:\projects\paindrain\arduinolcd\test\pain drain\libraries\lvgl\src\misc\lv_color.h ****     LV_COLOR_SET_R(ret, LV_UDIV255(premult_c1[0] + LV_COLOR_GET_R(c2) * mix + LV_COLOR_MIX_ROUND_OF
 499:c:\projects\paindrain\arduinolcd\test\pain drain\libraries\lvgl\src\misc\lv_color.h ****     LV_COLOR_SET_G(ret, LV_UDIV255(premult_c1[1] + LV_COLOR_GET_G(c2) * mix + LV_COLOR_MIX_ROUND_OF
 500:c:\projects\paindrain\arduinolcd\test\pain drain\libraries\lvgl\src\misc\lv_color.h ****     LV_COLOR_SET_B(ret, LV_UDIV255(premult_c1[2] + LV_COLOR_GET_B(c2) * mix + LV_COLOR_MIX_ROUND_OF
 501:c:\projects\paindrain\arduinolcd\test\pain drain\libraries\lvgl\src\misc\lv_color.h ****     LV_COLOR_SET_A(ret, 0xFF);
 502:c:\projects\paindrain\arduinolcd\test\pain drain\libraries\lvgl\src\misc\lv_color.h **** #else
 503:c:\projects\paindrain\arduinolcd\test\pain drain\libraries\lvgl\src\misc\lv_color.h ****     /*LV_COLOR_DEPTH == 1*/
 504:c:\projects\paindrain\arduinolcd\test\pain drain\libraries\lvgl\src\misc\lv_color.h ****     /*Restore color1*/
 505:c:\projects\paindrain\arduinolcd\test\pain drain\libraries\lvgl\src\misc\lv_color.h ****     lv_color_t c1;
 506:c:\projects\paindrain\arduinolcd\test\pain drain\libraries\lvgl\src\misc\lv_color.h ****     LV_COLOR_SET_R(c1, premult_c1[0]);
 507:c:\projects\paindrain\arduinolcd\test\pain drain\libraries\lvgl\src\misc\lv_color.h ****     LV_COLOR_SET_G(c1, premult_c1[1]);
 508:c:\projects\paindrain\arduinolcd\test\pain drain\libraries\lvgl\src\misc\lv_color.h ****     LV_COLOR_SET_B(c1, premult_c1[2]);
 509:c:\projects\paindrain\arduinolcd\test\pain drain\libraries\lvgl\src\misc\lv_color.h ****     ret.full = mix > LV_OPA_50 ? c2.full : c1.full;
 510:c:\projects\paindrain\arduinolcd\test\pain drain\libraries\lvgl\src\misc\lv_color.h **** #endif
 511:c:\projects\paindrain\arduinolcd\test\pain drain\libraries\lvgl\src\misc\lv_color.h **** 
 512:c:\projects\paindrain\arduinolcd\test\pain drain\libraries\lvgl\src\misc\lv_color.h ****     return ret;
 513:c:\projects\paindrain\arduinolcd\test\pain drain\libraries\lvgl\src\misc\lv_color.h **** }
 514:c:\projects\paindrain\arduinolcd\test\pain drain\libraries\lvgl\src\misc\lv_color.h **** 
 515:c:\projects\paindrain\arduinolcd\test\pain drain\libraries\lvgl\src\misc\lv_color.h **** /**
 516:c:\projects\paindrain\arduinolcd\test\pain drain\libraries\lvgl\src\misc\lv_color.h ****  * Mix two colors. Both color can have alpha value.
 517:c:\projects\paindrain\arduinolcd\test\pain drain\libraries\lvgl\src\misc\lv_color.h ****  * @param bg_color background color
 518:c:\projects\paindrain\arduinolcd\test\pain drain\libraries\lvgl\src\misc\lv_color.h ****  * @param bg_opa alpha of the background color
 519:c:\projects\paindrain\arduinolcd\test\pain drain\libraries\lvgl\src\misc\lv_color.h ****  * @param fg_color foreground color
 520:c:\projects\paindrain\arduinolcd\test\pain drain\libraries\lvgl\src\misc\lv_color.h ****  * @param fg_opa alpha of the foreground color
 521:c:\projects\paindrain\arduinolcd\test\pain drain\libraries\lvgl\src\misc\lv_color.h ****  * @param res_color the result color
 522:c:\projects\paindrain\arduinolcd\test\pain drain\libraries\lvgl\src\misc\lv_color.h ****  * @param res_opa the result opacity
 523:c:\projects\paindrain\arduinolcd\test\pain drain\libraries\lvgl\src\misc\lv_color.h ****  */
 524:c:\projects\paindrain\arduinolcd\test\pain drain\libraries\lvgl\src\misc\lv_color.h **** LV_ATTRIBUTE_FAST_MEM static inline void lv_color_mix_with_alpha(lv_color_t bg_color, lv_opa_t bg_o
 525:c:\projects\paindrain\arduinolcd\test\pain drain\libraries\lvgl\src\misc\lv_color.h ****                                                                  lv_color_t fg_color, lv_opa_t fg_o
 526:c:\projects\paindrain\arduinolcd\test\pain drain\libraries\lvgl\src\misc\lv_color.h ****                                                                  lv_color_t * res_color, lv_opa_t *
 527:c:\projects\paindrain\arduinolcd\test\pain drain\libraries\lvgl\src\misc\lv_color.h **** {
 528:c:\projects\paindrain\arduinolcd\test\pain drain\libraries\lvgl\src\misc\lv_color.h ****     /*Pick the foreground if it's fully opaque or the Background is fully transparent*/
 529:c:\projects\paindrain\arduinolcd\test\pain drain\libraries\lvgl\src\misc\lv_color.h ****     if(fg_opa >= LV_OPA_MAX || bg_opa <= LV_OPA_MIN) {
 530:c:\projects\paindrain\arduinolcd\test\pain drain\libraries\lvgl\src\misc\lv_color.h ****         res_color->full = fg_color.full;
 531:c:\projects\paindrain\arduinolcd\test\pain drain\libraries\lvgl\src\misc\lv_color.h ****         *res_opa = fg_opa;
 532:c:\projects\paindrain\arduinolcd\test\pain drain\libraries\lvgl\src\misc\lv_color.h ****     }
 533:c:\projects\paindrain\arduinolcd\test\pain drain\libraries\lvgl\src\misc\lv_color.h ****     /*Transparent foreground: use the Background*/
 534:c:\projects\paindrain\arduinolcd\test\pain drain\libraries\lvgl\src\misc\lv_color.h ****     else if(fg_opa <= LV_OPA_MIN) {
 535:c:\projects\paindrain\arduinolcd\test\pain drain\libraries\lvgl\src\misc\lv_color.h ****         res_color->full = bg_color.full;
 536:c:\projects\paindrain\arduinolcd\test\pain drain\libraries\lvgl\src\misc\lv_color.h ****         *res_opa = bg_opa;
 537:c:\projects\paindrain\arduinolcd\test\pain drain\libraries\lvgl\src\misc\lv_color.h ****     }
 538:c:\projects\paindrain\arduinolcd\test\pain drain\libraries\lvgl\src\misc\lv_color.h ****     /*Opaque background: use simple mix*/
 539:c:\projects\paindrain\arduinolcd\test\pain drain\libraries\lvgl\src\misc\lv_color.h ****     else if(bg_opa >= LV_OPA_MAX) {
 540:c:\projects\paindrain\arduinolcd\test\pain drain\libraries\lvgl\src\misc\lv_color.h ****         *res_color = lv_color_mix(fg_color, bg_color, fg_opa);
 541:c:\projects\paindrain\arduinolcd\test\pain drain\libraries\lvgl\src\misc\lv_color.h ****         *res_opa = LV_OPA_COVER;
 542:c:\projects\paindrain\arduinolcd\test\pain drain\libraries\lvgl\src\misc\lv_color.h ****     }
 543:c:\projects\paindrain\arduinolcd\test\pain drain\libraries\lvgl\src\misc\lv_color.h ****     /*Both colors have alpha. Expensive calculation need to be applied*/
ARM GAS  C:\Users\haske\AppData\Local\Temp\ccIkbvey.s 			page 30


 544:c:\projects\paindrain\arduinolcd\test\pain drain\libraries\lvgl\src\misc\lv_color.h ****     else {
 545:c:\projects\paindrain\arduinolcd\test\pain drain\libraries\lvgl\src\misc\lv_color.h ****         /*Save the parameters and the result. If they will be asked again don't compute again*/
 546:c:\projects\paindrain\arduinolcd\test\pain drain\libraries\lvgl\src\misc\lv_color.h ****         static lv_opa_t fg_opa_save     = 0;
 547:c:\projects\paindrain\arduinolcd\test\pain drain\libraries\lvgl\src\misc\lv_color.h ****         static lv_opa_t bg_opa_save     = 0;
 548:c:\projects\paindrain\arduinolcd\test\pain drain\libraries\lvgl\src\misc\lv_color.h ****         static lv_color_t fg_color_save = _LV_COLOR_ZERO_INITIALIZER;
 549:c:\projects\paindrain\arduinolcd\test\pain drain\libraries\lvgl\src\misc\lv_color.h ****         static lv_color_t bg_color_save = _LV_COLOR_ZERO_INITIALIZER;
 550:c:\projects\paindrain\arduinolcd\test\pain drain\libraries\lvgl\src\misc\lv_color.h ****         static lv_color_t res_color_saved = _LV_COLOR_ZERO_INITIALIZER;
 551:c:\projects\paindrain\arduinolcd\test\pain drain\libraries\lvgl\src\misc\lv_color.h ****         static lv_opa_t res_opa_saved = 0;
 552:c:\projects\paindrain\arduinolcd\test\pain drain\libraries\lvgl\src\misc\lv_color.h **** 
 553:c:\projects\paindrain\arduinolcd\test\pain drain\libraries\lvgl\src\misc\lv_color.h ****         if(fg_opa != fg_opa_save || bg_opa != bg_opa_save || fg_color.full != fg_color_save.full ||
 554:c:\projects\paindrain\arduinolcd\test\pain drain\libraries\lvgl\src\misc\lv_color.h ****            bg_color.full != bg_color_save.full) {
 555:c:\projects\paindrain\arduinolcd\test\pain drain\libraries\lvgl\src\misc\lv_color.h ****             fg_opa_save        = fg_opa;
 556:c:\projects\paindrain\arduinolcd\test\pain drain\libraries\lvgl\src\misc\lv_color.h ****             bg_opa_save        = bg_opa;
 557:c:\projects\paindrain\arduinolcd\test\pain drain\libraries\lvgl\src\misc\lv_color.h ****             fg_color_save.full = fg_color.full;
 558:c:\projects\paindrain\arduinolcd\test\pain drain\libraries\lvgl\src\misc\lv_color.h ****             bg_color_save.full = bg_color.full;
 559:c:\projects\paindrain\arduinolcd\test\pain drain\libraries\lvgl\src\misc\lv_color.h ****             /*Info:
 560:c:\projects\paindrain\arduinolcd\test\pain drain\libraries\lvgl\src\misc\lv_color.h ****              * https://en.wikipedia.org/wiki/Alpha_compositing#Analytical_derivation_of_the_over_op
 561:c:\projects\paindrain\arduinolcd\test\pain drain\libraries\lvgl\src\misc\lv_color.h ****             res_opa_saved = 255 - ((uint16_t)((uint16_t)(255 - fg_opa) * (255 - bg_opa)) >> 8);
 562:c:\projects\paindrain\arduinolcd\test\pain drain\libraries\lvgl\src\misc\lv_color.h ****             LV_ASSERT(res_opa_saved != 0);
 563:c:\projects\paindrain\arduinolcd\test\pain drain\libraries\lvgl\src\misc\lv_color.h ****             lv_opa_t ratio = (uint16_t)((uint16_t)fg_opa * 255) / res_opa_saved;
 564:c:\projects\paindrain\arduinolcd\test\pain drain\libraries\lvgl\src\misc\lv_color.h ****             res_color_saved = lv_color_mix(fg_color, bg_color, ratio);
 565:c:\projects\paindrain\arduinolcd\test\pain drain\libraries\lvgl\src\misc\lv_color.h **** 
 566:c:\projects\paindrain\arduinolcd\test\pain drain\libraries\lvgl\src\misc\lv_color.h ****         }
 567:c:\projects\paindrain\arduinolcd\test\pain drain\libraries\lvgl\src\misc\lv_color.h **** 
 568:c:\projects\paindrain\arduinolcd\test\pain drain\libraries\lvgl\src\misc\lv_color.h ****         res_color->full = res_color_saved.full;
 569:c:\projects\paindrain\arduinolcd\test\pain drain\libraries\lvgl\src\misc\lv_color.h ****         *res_opa = res_opa_saved;
 570:c:\projects\paindrain\arduinolcd\test\pain drain\libraries\lvgl\src\misc\lv_color.h ****     }
 571:c:\projects\paindrain\arduinolcd\test\pain drain\libraries\lvgl\src\misc\lv_color.h **** }
 572:c:\projects\paindrain\arduinolcd\test\pain drain\libraries\lvgl\src\misc\lv_color.h **** 
 573:c:\projects\paindrain\arduinolcd\test\pain drain\libraries\lvgl\src\misc\lv_color.h **** //! @endcond
 574:c:\projects\paindrain\arduinolcd\test\pain drain\libraries\lvgl\src\misc\lv_color.h **** 
 575:c:\projects\paindrain\arduinolcd\test\pain drain\libraries\lvgl\src\misc\lv_color.h **** /**
 576:c:\projects\paindrain\arduinolcd\test\pain drain\libraries\lvgl\src\misc\lv_color.h ****  * Get the brightness of a color
 577:c:\projects\paindrain\arduinolcd\test\pain drain\libraries\lvgl\src\misc\lv_color.h ****  * @param color a color
 578:c:\projects\paindrain\arduinolcd\test\pain drain\libraries\lvgl\src\misc\lv_color.h ****  * @return the brightness [0..255]
 579:c:\projects\paindrain\arduinolcd\test\pain drain\libraries\lvgl\src\misc\lv_color.h ****  */
 580:c:\projects\paindrain\arduinolcd\test\pain drain\libraries\lvgl\src\misc\lv_color.h **** static inline uint8_t lv_color_brightness(lv_color_t color)
 581:c:\projects\paindrain\arduinolcd\test\pain drain\libraries\lvgl\src\misc\lv_color.h **** {
 582:c:\projects\paindrain\arduinolcd\test\pain drain\libraries\lvgl\src\misc\lv_color.h ****     lv_color32_t c32;
 583:c:\projects\paindrain\arduinolcd\test\pain drain\libraries\lvgl\src\misc\lv_color.h ****     c32.full        = lv_color_to32(color);
 584:c:\projects\paindrain\arduinolcd\test\pain drain\libraries\lvgl\src\misc\lv_color.h ****     uint16_t bright = (uint16_t)(3u * LV_COLOR_GET_R32(c32) + LV_COLOR_GET_B32(c32) + 4u * LV_COLOR
 585:c:\projects\paindrain\arduinolcd\test\pain drain\libraries\lvgl\src\misc\lv_color.h ****     return (uint8_t)(bright >> 3);
 586:c:\projects\paindrain\arduinolcd\test\pain drain\libraries\lvgl\src\misc\lv_color.h **** }
 587:c:\projects\paindrain\arduinolcd\test\pain drain\libraries\lvgl\src\misc\lv_color.h **** 
 588:c:\projects\paindrain\arduinolcd\test\pain drain\libraries\lvgl\src\misc\lv_color.h **** static inline lv_color_t lv_color_make(uint8_t r, uint8_t g, uint8_t b)
 589:c:\projects\paindrain\arduinolcd\test\pain drain\libraries\lvgl\src\misc\lv_color.h **** {
 590:c:\projects\paindrain\arduinolcd\test\pain drain\libraries\lvgl\src\misc\lv_color.h ****     return _LV_COLOR_MAKE_TYPE_HELPER LV_COLOR_MAKE(r, g, b);
 420              		.loc 2 590 0
 421 014e DB08     		lsrs	r3, r3, #3
 422              	.LVL56:
 423 0150 9008     		lsrs	r0, r2, #2
 424 0152 4201     		lsls	r2, r0, #5
 425              	.LVL57:
 426 0154 C808     		lsrs	r0, r1, #3
 427 0156 DB02     		lsls	r3, r3, #11
 428 0158 1043     		orrs	r0, r2
 429 015a 1843     		orrs	r0, r3
ARM GAS  C:\Users\haske\AppData\Local\Temp\ccIkbvey.s 			page 31


 430              	.LVL58:
 431              	.LBE57:
 432              	.LBE56:
 692:..\..\..\arduinoLCD\test\Pain Drain\libraries\lvgl\src\extra\widgets\colorwheel/lv_colorwheel.c **** }
 433              		.loc 1 692 0
 434 015c 05B0     		add	sp, sp, #20
 435              		@ sp needed
 436              	.LVL59:
 437 015e F0BD     		pop	{r4, r5, r6, r7, pc}
 438              	.L25:
 439              		.align	2
 440              	.L24:
 441 0160 00000000 		.word	.LANCHOR0
 442 0164 00000000 		.word	.LANCHOR1
 443              		.cfi_endproc
 444              	.LFE221:
 445              		.size	angle_to_mode_color_fast, .-angle_to_mode_color_fast
 446              		.section	.text.get_angle,"ax",%progbits
 447              		.align	2
 448              		.code	16
 449              		.thumb_func
 450              		.type	get_angle, %function
 451              	get_angle:
 452              	.LFB222:
 693:..\..\..\arduinoLCD\test\Pain Drain\libraries\lvgl\src\extra\widgets\colorwheel/lv_colorwheel.c **** 
 694:..\..\..\arduinoLCD\test\Pain Drain\libraries\lvgl\src\extra\widgets\colorwheel/lv_colorwheel.c **** static uint16_t get_angle(lv_obj_t * obj)
 695:..\..\..\arduinoLCD\test\Pain Drain\libraries\lvgl\src\extra\widgets\colorwheel/lv_colorwheel.c **** {
 453              		.loc 1 695 0
 454              		.cfi_startproc
 455              		@ args = 0, pretend = 0, frame = 0
 456              		@ frame_needed = 0, uses_anonymous_args = 0
 457              	.LVL60:
 458 0000 10B5     		push	{r4, lr}
 459              		.cfi_def_cfa_offset 8
 460              		.cfi_offset 4, -8
 461              		.cfi_offset 14, -4
 462              	.LVL61:
 696:..\..\..\arduinoLCD\test\Pain Drain\libraries\lvgl\src\extra\widgets\colorwheel/lv_colorwheel.c ****     lv_colorwheel_t * colorwheel = (lv_colorwheel_t *)obj;
 697:..\..\..\arduinoLCD\test\Pain Drain\libraries\lvgl\src\extra\widgets\colorwheel/lv_colorwheel.c ****     uint16_t angle;
 698:..\..\..\arduinoLCD\test\Pain Drain\libraries\lvgl\src\extra\widgets\colorwheel/lv_colorwheel.c ****     switch(colorwheel->mode) {
 463              		.loc 1 698 0
 464 0002 3C23     		movs	r3, #60
 465 0004 C35C     		ldrb	r3, [r0, r3]
 466 0006 9B07     		lsls	r3, r3, #30
 467 0008 9B0F     		lsrs	r3, r3, #30
 468 000a 012B     		cmp	r3, #1
 469 000c 03D0     		beq	.L28
 470 000e 022B     		cmp	r3, #2
 471 0010 0BD0     		beq	.L29
 699:..\..\..\arduinoLCD\test\Pain Drain\libraries\lvgl\src\extra\widgets\colorwheel/lv_colorwheel.c ****         default:
 700:..\..\..\arduinoLCD\test\Pain Drain\libraries\lvgl\src\extra\widgets\colorwheel/lv_colorwheel.c ****         case LV_COLORWHEEL_MODE_HUE:
 701:..\..\..\arduinoLCD\test\Pain Drain\libraries\lvgl\src\extra\widgets\colorwheel/lv_colorwheel.c ****             angle = colorwheel->hsv.h;
 472              		.loc 1 701 0
 473 0012 808C     		ldrh	r0, [r0, #36]
 474              	.LVL62:
 702:..\..\..\arduinoLCD\test\Pain Drain\libraries\lvgl\src\extra\widgets\colorwheel/lv_colorwheel.c ****             break;
 475              		.loc 1 702 0
ARM GAS  C:\Users\haske\AppData\Local\Temp\ccIkbvey.s 			page 32


 476 0014 12E0     		b	.L30
 477              	.LVL63:
 478              	.L28:
 703:..\..\..\arduinoLCD\test\Pain Drain\libraries\lvgl\src\extra\widgets\colorwheel/lv_colorwheel.c ****         case LV_COLORWHEEL_MODE_SATURATION:
 704:..\..\..\arduinoLCD\test\Pain Drain\libraries\lvgl\src\extra\widgets\colorwheel/lv_colorwheel.c ****             angle = (colorwheel->hsv.s * 360) / 100;
 479              		.loc 1 704 0
 480 0016 2623     		movs	r3, #38
 481 0018 C05C     		ldrb	r0, [r0, r3]
 482              	.LVL64:
 483 001a 4333     		adds	r3, r3, #67
 484 001c FF33     		adds	r3, r3, #255
 485 001e 5843     		muls	r0, r3
 486 0020 6421     		movs	r1, #100
 487 0022 FFF7FEFF 		bl	__aeabi_idiv
 488              	.LVL65:
 489 0026 80B2     		uxth	r0, r0
 490              	.LVL66:
 705:..\..\..\arduinoLCD\test\Pain Drain\libraries\lvgl\src\extra\widgets\colorwheel/lv_colorwheel.c ****             break;
 491              		.loc 1 705 0
 492 0028 08E0     		b	.L30
 493              	.LVL67:
 494              	.L29:
 706:..\..\..\arduinoLCD\test\Pain Drain\libraries\lvgl\src\extra\widgets\colorwheel/lv_colorwheel.c ****         case LV_COLORWHEEL_MODE_VALUE:
 707:..\..\..\arduinoLCD\test\Pain Drain\libraries\lvgl\src\extra\widgets\colorwheel/lv_colorwheel.c ****             angle = (colorwheel->hsv.v * 360) / 100 ;
 495              		.loc 1 707 0
 496 002a 2723     		movs	r3, #39
 497 002c C05C     		ldrb	r0, [r0, r3]
 498              	.LVL68:
 499 002e 4233     		adds	r3, r3, #66
 500 0030 FF33     		adds	r3, r3, #255
 501 0032 5843     		muls	r0, r3
 502 0034 6421     		movs	r1, #100
 503 0036 FFF7FEFF 		bl	__aeabi_idiv
 504              	.LVL69:
 505 003a 80B2     		uxth	r0, r0
 506              	.LVL70:
 507              	.L30:
 708:..\..\..\arduinoLCD\test\Pain Drain\libraries\lvgl\src\extra\widgets\colorwheel/lv_colorwheel.c ****             break;
 709:..\..\..\arduinoLCD\test\Pain Drain\libraries\lvgl\src\extra\widgets\colorwheel/lv_colorwheel.c ****     }
 710:..\..\..\arduinoLCD\test\Pain Drain\libraries\lvgl\src\extra\widgets\colorwheel/lv_colorwheel.c ****     return angle;
 711:..\..\..\arduinoLCD\test\Pain Drain\libraries\lvgl\src\extra\widgets\colorwheel/lv_colorwheel.c **** }
 508              		.loc 1 711 0
 509              		@ sp needed
 510 003c 10BD     		pop	{r4, pc}
 511              		.cfi_endproc
 512              	.LFE222:
 513              		.size	get_angle, .-get_angle
 514 003e C046     		.section	.text.get_knob_area,"ax",%progbits
 515              		.align	2
 516              		.code	16
 517              		.thumb_func
 518              		.type	get_knob_area, %function
 519              	get_knob_area:
 520              	.LFB215:
 335:..\..\..\arduinoLCD\test\Pain Drain\libraries\lvgl\src\extra\widgets\colorwheel/lv_colorwheel.c ****     lv_colorwheel_t * colorwheel = (lv_colorwheel_t *)obj;
 521              		.loc 1 335 0
 522              		.cfi_startproc
ARM GAS  C:\Users\haske\AppData\Local\Temp\ccIkbvey.s 			page 33


 523              		@ args = 0, pretend = 0, frame = 0
 524              		@ frame_needed = 0, uses_anonymous_args = 0
 525              	.LVL71:
 526 0000 F0B5     		push	{r4, r5, r6, r7, lr}
 527              		.cfi_def_cfa_offset 20
 528              		.cfi_offset 4, -20
 529              		.cfi_offset 5, -16
 530              		.cfi_offset 6, -12
 531              		.cfi_offset 7, -8
 532              		.cfi_offset 14, -4
 533 0002 5746     		mov	r7, r10
 534 0004 4E46     		mov	r6, r9
 535 0006 4546     		mov	r5, r8
 536 0008 E0B4     		push	{r5, r6, r7}
 537              		.cfi_def_cfa_offset 32
 538              		.cfi_offset 8, -32
 539              		.cfi_offset 9, -28
 540              		.cfi_offset 10, -24
 541 000a 0600     		movs	r6, r0
 542 000c 0D00     		movs	r5, r1
 543              	.LVL72:
 544              	.LBB58:
 545              	.LBB59:
 546              		.file 3 "c:\\projects\\paindrain\\arduinolcd\\test\\pain drain\\libraries\\lvgl\\src/core/lv_obj_s
   1:c:\projects\paindrain\arduinolcd\test\pain drain\libraries\lvgl\src/core\lv_obj_style_gen.h **** static inline lv_coord_t lv_obj_get_style_width(const struct _lv_obj_t * obj, uint32_t part)
   2:c:\projects\paindrain\arduinolcd\test\pain drain\libraries\lvgl\src/core\lv_obj_style_gen.h **** {
   3:c:\projects\paindrain\arduinolcd\test\pain drain\libraries\lvgl\src/core\lv_obj_style_gen.h ****     lv_style_value_t v = lv_obj_get_style_prop(obj, part, LV_STYLE_WIDTH);
   4:c:\projects\paindrain\arduinolcd\test\pain drain\libraries\lvgl\src/core\lv_obj_style_gen.h ****     return (lv_coord_t)v.num;
   5:c:\projects\paindrain\arduinolcd\test\pain drain\libraries\lvgl\src/core\lv_obj_style_gen.h **** }
   6:c:\projects\paindrain\arduinolcd\test\pain drain\libraries\lvgl\src/core\lv_obj_style_gen.h **** 
   7:c:\projects\paindrain\arduinolcd\test\pain drain\libraries\lvgl\src/core\lv_obj_style_gen.h **** static inline lv_coord_t lv_obj_get_style_min_width(const struct _lv_obj_t * obj, uint32_t part)
   8:c:\projects\paindrain\arduinolcd\test\pain drain\libraries\lvgl\src/core\lv_obj_style_gen.h **** {
   9:c:\projects\paindrain\arduinolcd\test\pain drain\libraries\lvgl\src/core\lv_obj_style_gen.h ****     lv_style_value_t v = lv_obj_get_style_prop(obj, part, LV_STYLE_MIN_WIDTH);
  10:c:\projects\paindrain\arduinolcd\test\pain drain\libraries\lvgl\src/core\lv_obj_style_gen.h ****     return (lv_coord_t)v.num;
  11:c:\projects\paindrain\arduinolcd\test\pain drain\libraries\lvgl\src/core\lv_obj_style_gen.h **** }
  12:c:\projects\paindrain\arduinolcd\test\pain drain\libraries\lvgl\src/core\lv_obj_style_gen.h **** 
  13:c:\projects\paindrain\arduinolcd\test\pain drain\libraries\lvgl\src/core\lv_obj_style_gen.h **** static inline lv_coord_t lv_obj_get_style_max_width(const struct _lv_obj_t * obj, uint32_t part)
  14:c:\projects\paindrain\arduinolcd\test\pain drain\libraries\lvgl\src/core\lv_obj_style_gen.h **** {
  15:c:\projects\paindrain\arduinolcd\test\pain drain\libraries\lvgl\src/core\lv_obj_style_gen.h ****     lv_style_value_t v = lv_obj_get_style_prop(obj, part, LV_STYLE_MAX_WIDTH);
  16:c:\projects\paindrain\arduinolcd\test\pain drain\libraries\lvgl\src/core\lv_obj_style_gen.h ****     return (lv_coord_t)v.num;
  17:c:\projects\paindrain\arduinolcd\test\pain drain\libraries\lvgl\src/core\lv_obj_style_gen.h **** }
  18:c:\projects\paindrain\arduinolcd\test\pain drain\libraries\lvgl\src/core\lv_obj_style_gen.h **** 
  19:c:\projects\paindrain\arduinolcd\test\pain drain\libraries\lvgl\src/core\lv_obj_style_gen.h **** static inline lv_coord_t lv_obj_get_style_height(const struct _lv_obj_t * obj, uint32_t part)
  20:c:\projects\paindrain\arduinolcd\test\pain drain\libraries\lvgl\src/core\lv_obj_style_gen.h **** {
  21:c:\projects\paindrain\arduinolcd\test\pain drain\libraries\lvgl\src/core\lv_obj_style_gen.h ****     lv_style_value_t v = lv_obj_get_style_prop(obj, part, LV_STYLE_HEIGHT);
  22:c:\projects\paindrain\arduinolcd\test\pain drain\libraries\lvgl\src/core\lv_obj_style_gen.h ****     return (lv_coord_t)v.num;
  23:c:\projects\paindrain\arduinolcd\test\pain drain\libraries\lvgl\src/core\lv_obj_style_gen.h **** }
  24:c:\projects\paindrain\arduinolcd\test\pain drain\libraries\lvgl\src/core\lv_obj_style_gen.h **** 
  25:c:\projects\paindrain\arduinolcd\test\pain drain\libraries\lvgl\src/core\lv_obj_style_gen.h **** static inline lv_coord_t lv_obj_get_style_min_height(const struct _lv_obj_t * obj, uint32_t part)
  26:c:\projects\paindrain\arduinolcd\test\pain drain\libraries\lvgl\src/core\lv_obj_style_gen.h **** {
  27:c:\projects\paindrain\arduinolcd\test\pain drain\libraries\lvgl\src/core\lv_obj_style_gen.h ****     lv_style_value_t v = lv_obj_get_style_prop(obj, part, LV_STYLE_MIN_HEIGHT);
  28:c:\projects\paindrain\arduinolcd\test\pain drain\libraries\lvgl\src/core\lv_obj_style_gen.h ****     return (lv_coord_t)v.num;
  29:c:\projects\paindrain\arduinolcd\test\pain drain\libraries\lvgl\src/core\lv_obj_style_gen.h **** }
  30:c:\projects\paindrain\arduinolcd\test\pain drain\libraries\lvgl\src/core\lv_obj_style_gen.h **** 
  31:c:\projects\paindrain\arduinolcd\test\pain drain\libraries\lvgl\src/core\lv_obj_style_gen.h **** static inline lv_coord_t lv_obj_get_style_max_height(const struct _lv_obj_t * obj, uint32_t part)
  32:c:\projects\paindrain\arduinolcd\test\pain drain\libraries\lvgl\src/core\lv_obj_style_gen.h **** {
  33:c:\projects\paindrain\arduinolcd\test\pain drain\libraries\lvgl\src/core\lv_obj_style_gen.h ****     lv_style_value_t v = lv_obj_get_style_prop(obj, part, LV_STYLE_MAX_HEIGHT);
ARM GAS  C:\Users\haske\AppData\Local\Temp\ccIkbvey.s 			page 34


  34:c:\projects\paindrain\arduinolcd\test\pain drain\libraries\lvgl\src/core\lv_obj_style_gen.h ****     return (lv_coord_t)v.num;
  35:c:\projects\paindrain\arduinolcd\test\pain drain\libraries\lvgl\src/core\lv_obj_style_gen.h **** }
  36:c:\projects\paindrain\arduinolcd\test\pain drain\libraries\lvgl\src/core\lv_obj_style_gen.h **** 
  37:c:\projects\paindrain\arduinolcd\test\pain drain\libraries\lvgl\src/core\lv_obj_style_gen.h **** static inline lv_coord_t lv_obj_get_style_x(const struct _lv_obj_t * obj, uint32_t part)
  38:c:\projects\paindrain\arduinolcd\test\pain drain\libraries\lvgl\src/core\lv_obj_style_gen.h **** {
  39:c:\projects\paindrain\arduinolcd\test\pain drain\libraries\lvgl\src/core\lv_obj_style_gen.h ****     lv_style_value_t v = lv_obj_get_style_prop(obj, part, LV_STYLE_X);
  40:c:\projects\paindrain\arduinolcd\test\pain drain\libraries\lvgl\src/core\lv_obj_style_gen.h ****     return (lv_coord_t)v.num;
  41:c:\projects\paindrain\arduinolcd\test\pain drain\libraries\lvgl\src/core\lv_obj_style_gen.h **** }
  42:c:\projects\paindrain\arduinolcd\test\pain drain\libraries\lvgl\src/core\lv_obj_style_gen.h **** 
  43:c:\projects\paindrain\arduinolcd\test\pain drain\libraries\lvgl\src/core\lv_obj_style_gen.h **** static inline lv_coord_t lv_obj_get_style_y(const struct _lv_obj_t * obj, uint32_t part)
  44:c:\projects\paindrain\arduinolcd\test\pain drain\libraries\lvgl\src/core\lv_obj_style_gen.h **** {
  45:c:\projects\paindrain\arduinolcd\test\pain drain\libraries\lvgl\src/core\lv_obj_style_gen.h ****     lv_style_value_t v = lv_obj_get_style_prop(obj, part, LV_STYLE_Y);
  46:c:\projects\paindrain\arduinolcd\test\pain drain\libraries\lvgl\src/core\lv_obj_style_gen.h ****     return (lv_coord_t)v.num;
  47:c:\projects\paindrain\arduinolcd\test\pain drain\libraries\lvgl\src/core\lv_obj_style_gen.h **** }
  48:c:\projects\paindrain\arduinolcd\test\pain drain\libraries\lvgl\src/core\lv_obj_style_gen.h **** 
  49:c:\projects\paindrain\arduinolcd\test\pain drain\libraries\lvgl\src/core\lv_obj_style_gen.h **** static inline lv_align_t lv_obj_get_style_align(const struct _lv_obj_t * obj, uint32_t part)
  50:c:\projects\paindrain\arduinolcd\test\pain drain\libraries\lvgl\src/core\lv_obj_style_gen.h **** {
  51:c:\projects\paindrain\arduinolcd\test\pain drain\libraries\lvgl\src/core\lv_obj_style_gen.h ****     lv_style_value_t v = lv_obj_get_style_prop(obj, part, LV_STYLE_ALIGN);
  52:c:\projects\paindrain\arduinolcd\test\pain drain\libraries\lvgl\src/core\lv_obj_style_gen.h ****     return (lv_align_t)v.num;
  53:c:\projects\paindrain\arduinolcd\test\pain drain\libraries\lvgl\src/core\lv_obj_style_gen.h **** }
  54:c:\projects\paindrain\arduinolcd\test\pain drain\libraries\lvgl\src/core\lv_obj_style_gen.h **** 
  55:c:\projects\paindrain\arduinolcd\test\pain drain\libraries\lvgl\src/core\lv_obj_style_gen.h **** static inline lv_coord_t lv_obj_get_style_transform_width(const struct _lv_obj_t * obj, uint32_t pa
  56:c:\projects\paindrain\arduinolcd\test\pain drain\libraries\lvgl\src/core\lv_obj_style_gen.h **** {
  57:c:\projects\paindrain\arduinolcd\test\pain drain\libraries\lvgl\src/core\lv_obj_style_gen.h ****     lv_style_value_t v = lv_obj_get_style_prop(obj, part, LV_STYLE_TRANSFORM_WIDTH);
  58:c:\projects\paindrain\arduinolcd\test\pain drain\libraries\lvgl\src/core\lv_obj_style_gen.h ****     return (lv_coord_t)v.num;
  59:c:\projects\paindrain\arduinolcd\test\pain drain\libraries\lvgl\src/core\lv_obj_style_gen.h **** }
  60:c:\projects\paindrain\arduinolcd\test\pain drain\libraries\lvgl\src/core\lv_obj_style_gen.h **** 
  61:c:\projects\paindrain\arduinolcd\test\pain drain\libraries\lvgl\src/core\lv_obj_style_gen.h **** static inline lv_coord_t lv_obj_get_style_transform_height(const struct _lv_obj_t * obj, uint32_t p
  62:c:\projects\paindrain\arduinolcd\test\pain drain\libraries\lvgl\src/core\lv_obj_style_gen.h **** {
  63:c:\projects\paindrain\arduinolcd\test\pain drain\libraries\lvgl\src/core\lv_obj_style_gen.h ****     lv_style_value_t v = lv_obj_get_style_prop(obj, part, LV_STYLE_TRANSFORM_HEIGHT);
  64:c:\projects\paindrain\arduinolcd\test\pain drain\libraries\lvgl\src/core\lv_obj_style_gen.h ****     return (lv_coord_t)v.num;
  65:c:\projects\paindrain\arduinolcd\test\pain drain\libraries\lvgl\src/core\lv_obj_style_gen.h **** }
  66:c:\projects\paindrain\arduinolcd\test\pain drain\libraries\lvgl\src/core\lv_obj_style_gen.h **** 
  67:c:\projects\paindrain\arduinolcd\test\pain drain\libraries\lvgl\src/core\lv_obj_style_gen.h **** static inline lv_coord_t lv_obj_get_style_translate_x(const struct _lv_obj_t * obj, uint32_t part)
  68:c:\projects\paindrain\arduinolcd\test\pain drain\libraries\lvgl\src/core\lv_obj_style_gen.h **** {
  69:c:\projects\paindrain\arduinolcd\test\pain drain\libraries\lvgl\src/core\lv_obj_style_gen.h ****     lv_style_value_t v = lv_obj_get_style_prop(obj, part, LV_STYLE_TRANSLATE_X);
  70:c:\projects\paindrain\arduinolcd\test\pain drain\libraries\lvgl\src/core\lv_obj_style_gen.h ****     return (lv_coord_t)v.num;
  71:c:\projects\paindrain\arduinolcd\test\pain drain\libraries\lvgl\src/core\lv_obj_style_gen.h **** }
  72:c:\projects\paindrain\arduinolcd\test\pain drain\libraries\lvgl\src/core\lv_obj_style_gen.h **** 
  73:c:\projects\paindrain\arduinolcd\test\pain drain\libraries\lvgl\src/core\lv_obj_style_gen.h **** static inline lv_coord_t lv_obj_get_style_translate_y(const struct _lv_obj_t * obj, uint32_t part)
  74:c:\projects\paindrain\arduinolcd\test\pain drain\libraries\lvgl\src/core\lv_obj_style_gen.h **** {
  75:c:\projects\paindrain\arduinolcd\test\pain drain\libraries\lvgl\src/core\lv_obj_style_gen.h ****     lv_style_value_t v = lv_obj_get_style_prop(obj, part, LV_STYLE_TRANSLATE_Y);
  76:c:\projects\paindrain\arduinolcd\test\pain drain\libraries\lvgl\src/core\lv_obj_style_gen.h ****     return (lv_coord_t)v.num;
  77:c:\projects\paindrain\arduinolcd\test\pain drain\libraries\lvgl\src/core\lv_obj_style_gen.h **** }
  78:c:\projects\paindrain\arduinolcd\test\pain drain\libraries\lvgl\src/core\lv_obj_style_gen.h **** 
  79:c:\projects\paindrain\arduinolcd\test\pain drain\libraries\lvgl\src/core\lv_obj_style_gen.h **** static inline lv_coord_t lv_obj_get_style_transform_zoom(const struct _lv_obj_t * obj, uint32_t par
  80:c:\projects\paindrain\arduinolcd\test\pain drain\libraries\lvgl\src/core\lv_obj_style_gen.h **** {
  81:c:\projects\paindrain\arduinolcd\test\pain drain\libraries\lvgl\src/core\lv_obj_style_gen.h ****     lv_style_value_t v = lv_obj_get_style_prop(obj, part, LV_STYLE_TRANSFORM_ZOOM);
  82:c:\projects\paindrain\arduinolcd\test\pain drain\libraries\lvgl\src/core\lv_obj_style_gen.h ****     return (lv_coord_t)v.num;
  83:c:\projects\paindrain\arduinolcd\test\pain drain\libraries\lvgl\src/core\lv_obj_style_gen.h **** }
  84:c:\projects\paindrain\arduinolcd\test\pain drain\libraries\lvgl\src/core\lv_obj_style_gen.h **** 
  85:c:\projects\paindrain\arduinolcd\test\pain drain\libraries\lvgl\src/core\lv_obj_style_gen.h **** static inline lv_coord_t lv_obj_get_style_transform_angle(const struct _lv_obj_t * obj, uint32_t pa
  86:c:\projects\paindrain\arduinolcd\test\pain drain\libraries\lvgl\src/core\lv_obj_style_gen.h **** {
  87:c:\projects\paindrain\arduinolcd\test\pain drain\libraries\lvgl\src/core\lv_obj_style_gen.h ****     lv_style_value_t v = lv_obj_get_style_prop(obj, part, LV_STYLE_TRANSFORM_ANGLE);
  88:c:\projects\paindrain\arduinolcd\test\pain drain\libraries\lvgl\src/core\lv_obj_style_gen.h ****     return (lv_coord_t)v.num;
  89:c:\projects\paindrain\arduinolcd\test\pain drain\libraries\lvgl\src/core\lv_obj_style_gen.h **** }
  90:c:\projects\paindrain\arduinolcd\test\pain drain\libraries\lvgl\src/core\lv_obj_style_gen.h **** 
ARM GAS  C:\Users\haske\AppData\Local\Temp\ccIkbvey.s 			page 35


  91:c:\projects\paindrain\arduinolcd\test\pain drain\libraries\lvgl\src/core\lv_obj_style_gen.h **** static inline lv_coord_t lv_obj_get_style_transform_pivot_x(const struct _lv_obj_t * obj, uint32_t 
  92:c:\projects\paindrain\arduinolcd\test\pain drain\libraries\lvgl\src/core\lv_obj_style_gen.h **** {
  93:c:\projects\paindrain\arduinolcd\test\pain drain\libraries\lvgl\src/core\lv_obj_style_gen.h ****     lv_style_value_t v = lv_obj_get_style_prop(obj, part, LV_STYLE_TRANSFORM_PIVOT_X);
  94:c:\projects\paindrain\arduinolcd\test\pain drain\libraries\lvgl\src/core\lv_obj_style_gen.h ****     return (lv_coord_t)v.num;
  95:c:\projects\paindrain\arduinolcd\test\pain drain\libraries\lvgl\src/core\lv_obj_style_gen.h **** }
  96:c:\projects\paindrain\arduinolcd\test\pain drain\libraries\lvgl\src/core\lv_obj_style_gen.h **** 
  97:c:\projects\paindrain\arduinolcd\test\pain drain\libraries\lvgl\src/core\lv_obj_style_gen.h **** static inline lv_coord_t lv_obj_get_style_transform_pivot_y(const struct _lv_obj_t * obj, uint32_t 
  98:c:\projects\paindrain\arduinolcd\test\pain drain\libraries\lvgl\src/core\lv_obj_style_gen.h **** {
  99:c:\projects\paindrain\arduinolcd\test\pain drain\libraries\lvgl\src/core\lv_obj_style_gen.h ****     lv_style_value_t v = lv_obj_get_style_prop(obj, part, LV_STYLE_TRANSFORM_PIVOT_Y);
 100:c:\projects\paindrain\arduinolcd\test\pain drain\libraries\lvgl\src/core\lv_obj_style_gen.h ****     return (lv_coord_t)v.num;
 101:c:\projects\paindrain\arduinolcd\test\pain drain\libraries\lvgl\src/core\lv_obj_style_gen.h **** }
 102:c:\projects\paindrain\arduinolcd\test\pain drain\libraries\lvgl\src/core\lv_obj_style_gen.h **** 
 103:c:\projects\paindrain\arduinolcd\test\pain drain\libraries\lvgl\src/core\lv_obj_style_gen.h **** static inline lv_coord_t lv_obj_get_style_pad_top(const struct _lv_obj_t * obj, uint32_t part)
 104:c:\projects\paindrain\arduinolcd\test\pain drain\libraries\lvgl\src/core\lv_obj_style_gen.h **** {
 105:c:\projects\paindrain\arduinolcd\test\pain drain\libraries\lvgl\src/core\lv_obj_style_gen.h ****     lv_style_value_t v = lv_obj_get_style_prop(obj, part, LV_STYLE_PAD_TOP);
 106:c:\projects\paindrain\arduinolcd\test\pain drain\libraries\lvgl\src/core\lv_obj_style_gen.h ****     return (lv_coord_t)v.num;
 107:c:\projects\paindrain\arduinolcd\test\pain drain\libraries\lvgl\src/core\lv_obj_style_gen.h **** }
 108:c:\projects\paindrain\arduinolcd\test\pain drain\libraries\lvgl\src/core\lv_obj_style_gen.h **** 
 109:c:\projects\paindrain\arduinolcd\test\pain drain\libraries\lvgl\src/core\lv_obj_style_gen.h **** static inline lv_coord_t lv_obj_get_style_pad_bottom(const struct _lv_obj_t * obj, uint32_t part)
 110:c:\projects\paindrain\arduinolcd\test\pain drain\libraries\lvgl\src/core\lv_obj_style_gen.h **** {
 111:c:\projects\paindrain\arduinolcd\test\pain drain\libraries\lvgl\src/core\lv_obj_style_gen.h ****     lv_style_value_t v = lv_obj_get_style_prop(obj, part, LV_STYLE_PAD_BOTTOM);
 112:c:\projects\paindrain\arduinolcd\test\pain drain\libraries\lvgl\src/core\lv_obj_style_gen.h ****     return (lv_coord_t)v.num;
 113:c:\projects\paindrain\arduinolcd\test\pain drain\libraries\lvgl\src/core\lv_obj_style_gen.h **** }
 114:c:\projects\paindrain\arduinolcd\test\pain drain\libraries\lvgl\src/core\lv_obj_style_gen.h **** 
 115:c:\projects\paindrain\arduinolcd\test\pain drain\libraries\lvgl\src/core\lv_obj_style_gen.h **** static inline lv_coord_t lv_obj_get_style_pad_left(const struct _lv_obj_t * obj, uint32_t part)
 116:c:\projects\paindrain\arduinolcd\test\pain drain\libraries\lvgl\src/core\lv_obj_style_gen.h **** {
 117:c:\projects\paindrain\arduinolcd\test\pain drain\libraries\lvgl\src/core\lv_obj_style_gen.h ****     lv_style_value_t v = lv_obj_get_style_prop(obj, part, LV_STYLE_PAD_LEFT);
 118:c:\projects\paindrain\arduinolcd\test\pain drain\libraries\lvgl\src/core\lv_obj_style_gen.h ****     return (lv_coord_t)v.num;
 119:c:\projects\paindrain\arduinolcd\test\pain drain\libraries\lvgl\src/core\lv_obj_style_gen.h **** }
 120:c:\projects\paindrain\arduinolcd\test\pain drain\libraries\lvgl\src/core\lv_obj_style_gen.h **** 
 121:c:\projects\paindrain\arduinolcd\test\pain drain\libraries\lvgl\src/core\lv_obj_style_gen.h **** static inline lv_coord_t lv_obj_get_style_pad_right(const struct _lv_obj_t * obj, uint32_t part)
 122:c:\projects\paindrain\arduinolcd\test\pain drain\libraries\lvgl\src/core\lv_obj_style_gen.h **** {
 123:c:\projects\paindrain\arduinolcd\test\pain drain\libraries\lvgl\src/core\lv_obj_style_gen.h ****     lv_style_value_t v = lv_obj_get_style_prop(obj, part, LV_STYLE_PAD_RIGHT);
 124:c:\projects\paindrain\arduinolcd\test\pain drain\libraries\lvgl\src/core\lv_obj_style_gen.h ****     return (lv_coord_t)v.num;
 125:c:\projects\paindrain\arduinolcd\test\pain drain\libraries\lvgl\src/core\lv_obj_style_gen.h **** }
 126:c:\projects\paindrain\arduinolcd\test\pain drain\libraries\lvgl\src/core\lv_obj_style_gen.h **** 
 127:c:\projects\paindrain\arduinolcd\test\pain drain\libraries\lvgl\src/core\lv_obj_style_gen.h **** static inline lv_coord_t lv_obj_get_style_pad_row(const struct _lv_obj_t * obj, uint32_t part)
 128:c:\projects\paindrain\arduinolcd\test\pain drain\libraries\lvgl\src/core\lv_obj_style_gen.h **** {
 129:c:\projects\paindrain\arduinolcd\test\pain drain\libraries\lvgl\src/core\lv_obj_style_gen.h ****     lv_style_value_t v = lv_obj_get_style_prop(obj, part, LV_STYLE_PAD_ROW);
 130:c:\projects\paindrain\arduinolcd\test\pain drain\libraries\lvgl\src/core\lv_obj_style_gen.h ****     return (lv_coord_t)v.num;
 131:c:\projects\paindrain\arduinolcd\test\pain drain\libraries\lvgl\src/core\lv_obj_style_gen.h **** }
 132:c:\projects\paindrain\arduinolcd\test\pain drain\libraries\lvgl\src/core\lv_obj_style_gen.h **** 
 133:c:\projects\paindrain\arduinolcd\test\pain drain\libraries\lvgl\src/core\lv_obj_style_gen.h **** static inline lv_coord_t lv_obj_get_style_pad_column(const struct _lv_obj_t * obj, uint32_t part)
 134:c:\projects\paindrain\arduinolcd\test\pain drain\libraries\lvgl\src/core\lv_obj_style_gen.h **** {
 135:c:\projects\paindrain\arduinolcd\test\pain drain\libraries\lvgl\src/core\lv_obj_style_gen.h ****     lv_style_value_t v = lv_obj_get_style_prop(obj, part, LV_STYLE_PAD_COLUMN);
 136:c:\projects\paindrain\arduinolcd\test\pain drain\libraries\lvgl\src/core\lv_obj_style_gen.h ****     return (lv_coord_t)v.num;
 137:c:\projects\paindrain\arduinolcd\test\pain drain\libraries\lvgl\src/core\lv_obj_style_gen.h **** }
 138:c:\projects\paindrain\arduinolcd\test\pain drain\libraries\lvgl\src/core\lv_obj_style_gen.h **** 
 139:c:\projects\paindrain\arduinolcd\test\pain drain\libraries\lvgl\src/core\lv_obj_style_gen.h **** static inline lv_color_t lv_obj_get_style_bg_color(const struct _lv_obj_t * obj, uint32_t part)
 140:c:\projects\paindrain\arduinolcd\test\pain drain\libraries\lvgl\src/core\lv_obj_style_gen.h **** {
 141:c:\projects\paindrain\arduinolcd\test\pain drain\libraries\lvgl\src/core\lv_obj_style_gen.h ****     lv_style_value_t v = lv_obj_get_style_prop(obj, part, LV_STYLE_BG_COLOR);
 142:c:\projects\paindrain\arduinolcd\test\pain drain\libraries\lvgl\src/core\lv_obj_style_gen.h ****     return v.color;
 143:c:\projects\paindrain\arduinolcd\test\pain drain\libraries\lvgl\src/core\lv_obj_style_gen.h **** }
 144:c:\projects\paindrain\arduinolcd\test\pain drain\libraries\lvgl\src/core\lv_obj_style_gen.h **** 
 145:c:\projects\paindrain\arduinolcd\test\pain drain\libraries\lvgl\src/core\lv_obj_style_gen.h **** static inline lv_color_t lv_obj_get_style_bg_color_filtered(const struct _lv_obj_t * obj, uint32_t 
 146:c:\projects\paindrain\arduinolcd\test\pain drain\libraries\lvgl\src/core\lv_obj_style_gen.h **** {
 147:c:\projects\paindrain\arduinolcd\test\pain drain\libraries\lvgl\src/core\lv_obj_style_gen.h ****     lv_style_value_t v = _lv_obj_style_apply_color_filter(obj, part, lv_obj_get_style_prop(obj, par
ARM GAS  C:\Users\haske\AppData\Local\Temp\ccIkbvey.s 			page 36


 148:c:\projects\paindrain\arduinolcd\test\pain drain\libraries\lvgl\src/core\lv_obj_style_gen.h ****     return v.color;
 149:c:\projects\paindrain\arduinolcd\test\pain drain\libraries\lvgl\src/core\lv_obj_style_gen.h **** }
 150:c:\projects\paindrain\arduinolcd\test\pain drain\libraries\lvgl\src/core\lv_obj_style_gen.h **** 
 151:c:\projects\paindrain\arduinolcd\test\pain drain\libraries\lvgl\src/core\lv_obj_style_gen.h **** static inline lv_opa_t lv_obj_get_style_bg_opa(const struct _lv_obj_t * obj, uint32_t part)
 152:c:\projects\paindrain\arduinolcd\test\pain drain\libraries\lvgl\src/core\lv_obj_style_gen.h **** {
 153:c:\projects\paindrain\arduinolcd\test\pain drain\libraries\lvgl\src/core\lv_obj_style_gen.h ****     lv_style_value_t v = lv_obj_get_style_prop(obj, part, LV_STYLE_BG_OPA);
 154:c:\projects\paindrain\arduinolcd\test\pain drain\libraries\lvgl\src/core\lv_obj_style_gen.h ****     return (lv_opa_t)v.num;
 155:c:\projects\paindrain\arduinolcd\test\pain drain\libraries\lvgl\src/core\lv_obj_style_gen.h **** }
 156:c:\projects\paindrain\arduinolcd\test\pain drain\libraries\lvgl\src/core\lv_obj_style_gen.h **** 
 157:c:\projects\paindrain\arduinolcd\test\pain drain\libraries\lvgl\src/core\lv_obj_style_gen.h **** static inline lv_color_t lv_obj_get_style_bg_grad_color(const struct _lv_obj_t * obj, uint32_t part
 158:c:\projects\paindrain\arduinolcd\test\pain drain\libraries\lvgl\src/core\lv_obj_style_gen.h **** {
 159:c:\projects\paindrain\arduinolcd\test\pain drain\libraries\lvgl\src/core\lv_obj_style_gen.h ****     lv_style_value_t v = lv_obj_get_style_prop(obj, part, LV_STYLE_BG_GRAD_COLOR);
 160:c:\projects\paindrain\arduinolcd\test\pain drain\libraries\lvgl\src/core\lv_obj_style_gen.h ****     return v.color;
 161:c:\projects\paindrain\arduinolcd\test\pain drain\libraries\lvgl\src/core\lv_obj_style_gen.h **** }
 162:c:\projects\paindrain\arduinolcd\test\pain drain\libraries\lvgl\src/core\lv_obj_style_gen.h **** 
 163:c:\projects\paindrain\arduinolcd\test\pain drain\libraries\lvgl\src/core\lv_obj_style_gen.h **** static inline lv_color_t lv_obj_get_style_bg_grad_color_filtered(const struct _lv_obj_t * obj, uint
 164:c:\projects\paindrain\arduinolcd\test\pain drain\libraries\lvgl\src/core\lv_obj_style_gen.h **** {
 165:c:\projects\paindrain\arduinolcd\test\pain drain\libraries\lvgl\src/core\lv_obj_style_gen.h ****     lv_style_value_t v = _lv_obj_style_apply_color_filter(obj, part, lv_obj_get_style_prop(obj, par
 166:c:\projects\paindrain\arduinolcd\test\pain drain\libraries\lvgl\src/core\lv_obj_style_gen.h ****     return v.color;
 167:c:\projects\paindrain\arduinolcd\test\pain drain\libraries\lvgl\src/core\lv_obj_style_gen.h **** }
 168:c:\projects\paindrain\arduinolcd\test\pain drain\libraries\lvgl\src/core\lv_obj_style_gen.h **** 
 169:c:\projects\paindrain\arduinolcd\test\pain drain\libraries\lvgl\src/core\lv_obj_style_gen.h **** static inline lv_grad_dir_t lv_obj_get_style_bg_grad_dir(const struct _lv_obj_t * obj, uint32_t par
 170:c:\projects\paindrain\arduinolcd\test\pain drain\libraries\lvgl\src/core\lv_obj_style_gen.h **** {
 171:c:\projects\paindrain\arduinolcd\test\pain drain\libraries\lvgl\src/core\lv_obj_style_gen.h ****     lv_style_value_t v = lv_obj_get_style_prop(obj, part, LV_STYLE_BG_GRAD_DIR);
 172:c:\projects\paindrain\arduinolcd\test\pain drain\libraries\lvgl\src/core\lv_obj_style_gen.h ****     return (lv_grad_dir_t)v.num;
 173:c:\projects\paindrain\arduinolcd\test\pain drain\libraries\lvgl\src/core\lv_obj_style_gen.h **** }
 174:c:\projects\paindrain\arduinolcd\test\pain drain\libraries\lvgl\src/core\lv_obj_style_gen.h **** 
 175:c:\projects\paindrain\arduinolcd\test\pain drain\libraries\lvgl\src/core\lv_obj_style_gen.h **** static inline lv_coord_t lv_obj_get_style_bg_main_stop(const struct _lv_obj_t * obj, uint32_t part)
 176:c:\projects\paindrain\arduinolcd\test\pain drain\libraries\lvgl\src/core\lv_obj_style_gen.h **** {
 177:c:\projects\paindrain\arduinolcd\test\pain drain\libraries\lvgl\src/core\lv_obj_style_gen.h ****     lv_style_value_t v = lv_obj_get_style_prop(obj, part, LV_STYLE_BG_MAIN_STOP);
 178:c:\projects\paindrain\arduinolcd\test\pain drain\libraries\lvgl\src/core\lv_obj_style_gen.h ****     return (lv_coord_t)v.num;
 179:c:\projects\paindrain\arduinolcd\test\pain drain\libraries\lvgl\src/core\lv_obj_style_gen.h **** }
 180:c:\projects\paindrain\arduinolcd\test\pain drain\libraries\lvgl\src/core\lv_obj_style_gen.h **** 
 181:c:\projects\paindrain\arduinolcd\test\pain drain\libraries\lvgl\src/core\lv_obj_style_gen.h **** static inline lv_coord_t lv_obj_get_style_bg_grad_stop(const struct _lv_obj_t * obj, uint32_t part)
 182:c:\projects\paindrain\arduinolcd\test\pain drain\libraries\lvgl\src/core\lv_obj_style_gen.h **** {
 183:c:\projects\paindrain\arduinolcd\test\pain drain\libraries\lvgl\src/core\lv_obj_style_gen.h ****     lv_style_value_t v = lv_obj_get_style_prop(obj, part, LV_STYLE_BG_GRAD_STOP);
 184:c:\projects\paindrain\arduinolcd\test\pain drain\libraries\lvgl\src/core\lv_obj_style_gen.h ****     return (lv_coord_t)v.num;
 185:c:\projects\paindrain\arduinolcd\test\pain drain\libraries\lvgl\src/core\lv_obj_style_gen.h **** }
 186:c:\projects\paindrain\arduinolcd\test\pain drain\libraries\lvgl\src/core\lv_obj_style_gen.h **** 
 187:c:\projects\paindrain\arduinolcd\test\pain drain\libraries\lvgl\src/core\lv_obj_style_gen.h **** static inline const lv_grad_dsc_t * lv_obj_get_style_bg_grad(const struct _lv_obj_t * obj, uint32_t
 188:c:\projects\paindrain\arduinolcd\test\pain drain\libraries\lvgl\src/core\lv_obj_style_gen.h **** {
 189:c:\projects\paindrain\arduinolcd\test\pain drain\libraries\lvgl\src/core\lv_obj_style_gen.h ****     lv_style_value_t v = lv_obj_get_style_prop(obj, part, LV_STYLE_BG_GRAD);
 190:c:\projects\paindrain\arduinolcd\test\pain drain\libraries\lvgl\src/core\lv_obj_style_gen.h ****     return (const lv_grad_dsc_t *)v.ptr;
 191:c:\projects\paindrain\arduinolcd\test\pain drain\libraries\lvgl\src/core\lv_obj_style_gen.h **** }
 192:c:\projects\paindrain\arduinolcd\test\pain drain\libraries\lvgl\src/core\lv_obj_style_gen.h **** 
 193:c:\projects\paindrain\arduinolcd\test\pain drain\libraries\lvgl\src/core\lv_obj_style_gen.h **** static inline lv_dither_mode_t lv_obj_get_style_bg_dither_mode(const struct _lv_obj_t * obj, uint32
 194:c:\projects\paindrain\arduinolcd\test\pain drain\libraries\lvgl\src/core\lv_obj_style_gen.h **** {
 195:c:\projects\paindrain\arduinolcd\test\pain drain\libraries\lvgl\src/core\lv_obj_style_gen.h ****     lv_style_value_t v = lv_obj_get_style_prop(obj, part, LV_STYLE_BG_DITHER_MODE);
 196:c:\projects\paindrain\arduinolcd\test\pain drain\libraries\lvgl\src/core\lv_obj_style_gen.h ****     return (lv_dither_mode_t)v.num;
 197:c:\projects\paindrain\arduinolcd\test\pain drain\libraries\lvgl\src/core\lv_obj_style_gen.h **** }
 198:c:\projects\paindrain\arduinolcd\test\pain drain\libraries\lvgl\src/core\lv_obj_style_gen.h **** 
 199:c:\projects\paindrain\arduinolcd\test\pain drain\libraries\lvgl\src/core\lv_obj_style_gen.h **** static inline const void * lv_obj_get_style_bg_img_src(const struct _lv_obj_t * obj, uint32_t part)
 200:c:\projects\paindrain\arduinolcd\test\pain drain\libraries\lvgl\src/core\lv_obj_style_gen.h **** {
 201:c:\projects\paindrain\arduinolcd\test\pain drain\libraries\lvgl\src/core\lv_obj_style_gen.h ****     lv_style_value_t v = lv_obj_get_style_prop(obj, part, LV_STYLE_BG_IMG_SRC);
 202:c:\projects\paindrain\arduinolcd\test\pain drain\libraries\lvgl\src/core\lv_obj_style_gen.h ****     return (const void *)v.ptr;
 203:c:\projects\paindrain\arduinolcd\test\pain drain\libraries\lvgl\src/core\lv_obj_style_gen.h **** }
 204:c:\projects\paindrain\arduinolcd\test\pain drain\libraries\lvgl\src/core\lv_obj_style_gen.h **** 
ARM GAS  C:\Users\haske\AppData\Local\Temp\ccIkbvey.s 			page 37


 205:c:\projects\paindrain\arduinolcd\test\pain drain\libraries\lvgl\src/core\lv_obj_style_gen.h **** static inline lv_opa_t lv_obj_get_style_bg_img_opa(const struct _lv_obj_t * obj, uint32_t part)
 206:c:\projects\paindrain\arduinolcd\test\pain drain\libraries\lvgl\src/core\lv_obj_style_gen.h **** {
 207:c:\projects\paindrain\arduinolcd\test\pain drain\libraries\lvgl\src/core\lv_obj_style_gen.h ****     lv_style_value_t v = lv_obj_get_style_prop(obj, part, LV_STYLE_BG_IMG_OPA);
 208:c:\projects\paindrain\arduinolcd\test\pain drain\libraries\lvgl\src/core\lv_obj_style_gen.h ****     return (lv_opa_t)v.num;
 209:c:\projects\paindrain\arduinolcd\test\pain drain\libraries\lvgl\src/core\lv_obj_style_gen.h **** }
 210:c:\projects\paindrain\arduinolcd\test\pain drain\libraries\lvgl\src/core\lv_obj_style_gen.h **** 
 211:c:\projects\paindrain\arduinolcd\test\pain drain\libraries\lvgl\src/core\lv_obj_style_gen.h **** static inline lv_color_t lv_obj_get_style_bg_img_recolor(const struct _lv_obj_t * obj, uint32_t par
 212:c:\projects\paindrain\arduinolcd\test\pain drain\libraries\lvgl\src/core\lv_obj_style_gen.h **** {
 213:c:\projects\paindrain\arduinolcd\test\pain drain\libraries\lvgl\src/core\lv_obj_style_gen.h ****     lv_style_value_t v = lv_obj_get_style_prop(obj, part, LV_STYLE_BG_IMG_RECOLOR);
 214:c:\projects\paindrain\arduinolcd\test\pain drain\libraries\lvgl\src/core\lv_obj_style_gen.h ****     return v.color;
 215:c:\projects\paindrain\arduinolcd\test\pain drain\libraries\lvgl\src/core\lv_obj_style_gen.h **** }
 216:c:\projects\paindrain\arduinolcd\test\pain drain\libraries\lvgl\src/core\lv_obj_style_gen.h **** 
 217:c:\projects\paindrain\arduinolcd\test\pain drain\libraries\lvgl\src/core\lv_obj_style_gen.h **** static inline lv_color_t lv_obj_get_style_bg_img_recolor_filtered(const struct _lv_obj_t * obj, uin
 218:c:\projects\paindrain\arduinolcd\test\pain drain\libraries\lvgl\src/core\lv_obj_style_gen.h **** {
 219:c:\projects\paindrain\arduinolcd\test\pain drain\libraries\lvgl\src/core\lv_obj_style_gen.h ****     lv_style_value_t v = _lv_obj_style_apply_color_filter(obj, part, lv_obj_get_style_prop(obj, par
 220:c:\projects\paindrain\arduinolcd\test\pain drain\libraries\lvgl\src/core\lv_obj_style_gen.h ****     return v.color;
 221:c:\projects\paindrain\arduinolcd\test\pain drain\libraries\lvgl\src/core\lv_obj_style_gen.h **** }
 222:c:\projects\paindrain\arduinolcd\test\pain drain\libraries\lvgl\src/core\lv_obj_style_gen.h **** 
 223:c:\projects\paindrain\arduinolcd\test\pain drain\libraries\lvgl\src/core\lv_obj_style_gen.h **** static inline lv_opa_t lv_obj_get_style_bg_img_recolor_opa(const struct _lv_obj_t * obj, uint32_t p
 224:c:\projects\paindrain\arduinolcd\test\pain drain\libraries\lvgl\src/core\lv_obj_style_gen.h **** {
 225:c:\projects\paindrain\arduinolcd\test\pain drain\libraries\lvgl\src/core\lv_obj_style_gen.h ****     lv_style_value_t v = lv_obj_get_style_prop(obj, part, LV_STYLE_BG_IMG_RECOLOR_OPA);
 226:c:\projects\paindrain\arduinolcd\test\pain drain\libraries\lvgl\src/core\lv_obj_style_gen.h ****     return (lv_opa_t)v.num;
 227:c:\projects\paindrain\arduinolcd\test\pain drain\libraries\lvgl\src/core\lv_obj_style_gen.h **** }
 228:c:\projects\paindrain\arduinolcd\test\pain drain\libraries\lvgl\src/core\lv_obj_style_gen.h **** 
 229:c:\projects\paindrain\arduinolcd\test\pain drain\libraries\lvgl\src/core\lv_obj_style_gen.h **** static inline bool lv_obj_get_style_bg_img_tiled(const struct _lv_obj_t * obj, uint32_t part)
 230:c:\projects\paindrain\arduinolcd\test\pain drain\libraries\lvgl\src/core\lv_obj_style_gen.h **** {
 231:c:\projects\paindrain\arduinolcd\test\pain drain\libraries\lvgl\src/core\lv_obj_style_gen.h ****     lv_style_value_t v = lv_obj_get_style_prop(obj, part, LV_STYLE_BG_IMG_TILED);
 232:c:\projects\paindrain\arduinolcd\test\pain drain\libraries\lvgl\src/core\lv_obj_style_gen.h ****     return (bool)v.num;
 233:c:\projects\paindrain\arduinolcd\test\pain drain\libraries\lvgl\src/core\lv_obj_style_gen.h **** }
 234:c:\projects\paindrain\arduinolcd\test\pain drain\libraries\lvgl\src/core\lv_obj_style_gen.h **** 
 235:c:\projects\paindrain\arduinolcd\test\pain drain\libraries\lvgl\src/core\lv_obj_style_gen.h **** static inline lv_color_t lv_obj_get_style_border_color(const struct _lv_obj_t * obj, uint32_t part)
 236:c:\projects\paindrain\arduinolcd\test\pain drain\libraries\lvgl\src/core\lv_obj_style_gen.h **** {
 237:c:\projects\paindrain\arduinolcd\test\pain drain\libraries\lvgl\src/core\lv_obj_style_gen.h ****     lv_style_value_t v = lv_obj_get_style_prop(obj, part, LV_STYLE_BORDER_COLOR);
 238:c:\projects\paindrain\arduinolcd\test\pain drain\libraries\lvgl\src/core\lv_obj_style_gen.h ****     return v.color;
 239:c:\projects\paindrain\arduinolcd\test\pain drain\libraries\lvgl\src/core\lv_obj_style_gen.h **** }
 240:c:\projects\paindrain\arduinolcd\test\pain drain\libraries\lvgl\src/core\lv_obj_style_gen.h **** 
 241:c:\projects\paindrain\arduinolcd\test\pain drain\libraries\lvgl\src/core\lv_obj_style_gen.h **** static inline lv_color_t lv_obj_get_style_border_color_filtered(const struct _lv_obj_t * obj, uint3
 242:c:\projects\paindrain\arduinolcd\test\pain drain\libraries\lvgl\src/core\lv_obj_style_gen.h **** {
 243:c:\projects\paindrain\arduinolcd\test\pain drain\libraries\lvgl\src/core\lv_obj_style_gen.h ****     lv_style_value_t v = _lv_obj_style_apply_color_filter(obj, part, lv_obj_get_style_prop(obj, par
 244:c:\projects\paindrain\arduinolcd\test\pain drain\libraries\lvgl\src/core\lv_obj_style_gen.h ****     return v.color;
 245:c:\projects\paindrain\arduinolcd\test\pain drain\libraries\lvgl\src/core\lv_obj_style_gen.h **** }
 246:c:\projects\paindrain\arduinolcd\test\pain drain\libraries\lvgl\src/core\lv_obj_style_gen.h **** 
 247:c:\projects\paindrain\arduinolcd\test\pain drain\libraries\lvgl\src/core\lv_obj_style_gen.h **** static inline lv_opa_t lv_obj_get_style_border_opa(const struct _lv_obj_t * obj, uint32_t part)
 248:c:\projects\paindrain\arduinolcd\test\pain drain\libraries\lvgl\src/core\lv_obj_style_gen.h **** {
 249:c:\projects\paindrain\arduinolcd\test\pain drain\libraries\lvgl\src/core\lv_obj_style_gen.h ****     lv_style_value_t v = lv_obj_get_style_prop(obj, part, LV_STYLE_BORDER_OPA);
 250:c:\projects\paindrain\arduinolcd\test\pain drain\libraries\lvgl\src/core\lv_obj_style_gen.h ****     return (lv_opa_t)v.num;
 251:c:\projects\paindrain\arduinolcd\test\pain drain\libraries\lvgl\src/core\lv_obj_style_gen.h **** }
 252:c:\projects\paindrain\arduinolcd\test\pain drain\libraries\lvgl\src/core\lv_obj_style_gen.h **** 
 253:c:\projects\paindrain\arduinolcd\test\pain drain\libraries\lvgl\src/core\lv_obj_style_gen.h **** static inline lv_coord_t lv_obj_get_style_border_width(const struct _lv_obj_t * obj, uint32_t part)
 254:c:\projects\paindrain\arduinolcd\test\pain drain\libraries\lvgl\src/core\lv_obj_style_gen.h **** {
 255:c:\projects\paindrain\arduinolcd\test\pain drain\libraries\lvgl\src/core\lv_obj_style_gen.h ****     lv_style_value_t v = lv_obj_get_style_prop(obj, part, LV_STYLE_BORDER_WIDTH);
 256:c:\projects\paindrain\arduinolcd\test\pain drain\libraries\lvgl\src/core\lv_obj_style_gen.h ****     return (lv_coord_t)v.num;
 257:c:\projects\paindrain\arduinolcd\test\pain drain\libraries\lvgl\src/core\lv_obj_style_gen.h **** }
 258:c:\projects\paindrain\arduinolcd\test\pain drain\libraries\lvgl\src/core\lv_obj_style_gen.h **** 
 259:c:\projects\paindrain\arduinolcd\test\pain drain\libraries\lvgl\src/core\lv_obj_style_gen.h **** static inline lv_border_side_t lv_obj_get_style_border_side(const struct _lv_obj_t * obj, uint32_t 
 260:c:\projects\paindrain\arduinolcd\test\pain drain\libraries\lvgl\src/core\lv_obj_style_gen.h **** {
 261:c:\projects\paindrain\arduinolcd\test\pain drain\libraries\lvgl\src/core\lv_obj_style_gen.h ****     lv_style_value_t v = lv_obj_get_style_prop(obj, part, LV_STYLE_BORDER_SIDE);
ARM GAS  C:\Users\haske\AppData\Local\Temp\ccIkbvey.s 			page 38


 262:c:\projects\paindrain\arduinolcd\test\pain drain\libraries\lvgl\src/core\lv_obj_style_gen.h ****     return (lv_border_side_t)v.num;
 263:c:\projects\paindrain\arduinolcd\test\pain drain\libraries\lvgl\src/core\lv_obj_style_gen.h **** }
 264:c:\projects\paindrain\arduinolcd\test\pain drain\libraries\lvgl\src/core\lv_obj_style_gen.h **** 
 265:c:\projects\paindrain\arduinolcd\test\pain drain\libraries\lvgl\src/core\lv_obj_style_gen.h **** static inline bool lv_obj_get_style_border_post(const struct _lv_obj_t * obj, uint32_t part)
 266:c:\projects\paindrain\arduinolcd\test\pain drain\libraries\lvgl\src/core\lv_obj_style_gen.h **** {
 267:c:\projects\paindrain\arduinolcd\test\pain drain\libraries\lvgl\src/core\lv_obj_style_gen.h ****     lv_style_value_t v = lv_obj_get_style_prop(obj, part, LV_STYLE_BORDER_POST);
 268:c:\projects\paindrain\arduinolcd\test\pain drain\libraries\lvgl\src/core\lv_obj_style_gen.h ****     return (bool)v.num;
 269:c:\projects\paindrain\arduinolcd\test\pain drain\libraries\lvgl\src/core\lv_obj_style_gen.h **** }
 270:c:\projects\paindrain\arduinolcd\test\pain drain\libraries\lvgl\src/core\lv_obj_style_gen.h **** 
 271:c:\projects\paindrain\arduinolcd\test\pain drain\libraries\lvgl\src/core\lv_obj_style_gen.h **** static inline lv_coord_t lv_obj_get_style_outline_width(const struct _lv_obj_t * obj, uint32_t part
 272:c:\projects\paindrain\arduinolcd\test\pain drain\libraries\lvgl\src/core\lv_obj_style_gen.h **** {
 273:c:\projects\paindrain\arduinolcd\test\pain drain\libraries\lvgl\src/core\lv_obj_style_gen.h ****     lv_style_value_t v = lv_obj_get_style_prop(obj, part, LV_STYLE_OUTLINE_WIDTH);
 274:c:\projects\paindrain\arduinolcd\test\pain drain\libraries\lvgl\src/core\lv_obj_style_gen.h ****     return (lv_coord_t)v.num;
 275:c:\projects\paindrain\arduinolcd\test\pain drain\libraries\lvgl\src/core\lv_obj_style_gen.h **** }
 276:c:\projects\paindrain\arduinolcd\test\pain drain\libraries\lvgl\src/core\lv_obj_style_gen.h **** 
 277:c:\projects\paindrain\arduinolcd\test\pain drain\libraries\lvgl\src/core\lv_obj_style_gen.h **** static inline lv_color_t lv_obj_get_style_outline_color(const struct _lv_obj_t * obj, uint32_t part
 278:c:\projects\paindrain\arduinolcd\test\pain drain\libraries\lvgl\src/core\lv_obj_style_gen.h **** {
 279:c:\projects\paindrain\arduinolcd\test\pain drain\libraries\lvgl\src/core\lv_obj_style_gen.h ****     lv_style_value_t v = lv_obj_get_style_prop(obj, part, LV_STYLE_OUTLINE_COLOR);
 280:c:\projects\paindrain\arduinolcd\test\pain drain\libraries\lvgl\src/core\lv_obj_style_gen.h ****     return v.color;
 281:c:\projects\paindrain\arduinolcd\test\pain drain\libraries\lvgl\src/core\lv_obj_style_gen.h **** }
 282:c:\projects\paindrain\arduinolcd\test\pain drain\libraries\lvgl\src/core\lv_obj_style_gen.h **** 
 283:c:\projects\paindrain\arduinolcd\test\pain drain\libraries\lvgl\src/core\lv_obj_style_gen.h **** static inline lv_color_t lv_obj_get_style_outline_color_filtered(const struct _lv_obj_t * obj, uint
 284:c:\projects\paindrain\arduinolcd\test\pain drain\libraries\lvgl\src/core\lv_obj_style_gen.h **** {
 285:c:\projects\paindrain\arduinolcd\test\pain drain\libraries\lvgl\src/core\lv_obj_style_gen.h ****     lv_style_value_t v = _lv_obj_style_apply_color_filter(obj, part, lv_obj_get_style_prop(obj, par
 286:c:\projects\paindrain\arduinolcd\test\pain drain\libraries\lvgl\src/core\lv_obj_style_gen.h ****     return v.color;
 287:c:\projects\paindrain\arduinolcd\test\pain drain\libraries\lvgl\src/core\lv_obj_style_gen.h **** }
 288:c:\projects\paindrain\arduinolcd\test\pain drain\libraries\lvgl\src/core\lv_obj_style_gen.h **** 
 289:c:\projects\paindrain\arduinolcd\test\pain drain\libraries\lvgl\src/core\lv_obj_style_gen.h **** static inline lv_opa_t lv_obj_get_style_outline_opa(const struct _lv_obj_t * obj, uint32_t part)
 290:c:\projects\paindrain\arduinolcd\test\pain drain\libraries\lvgl\src/core\lv_obj_style_gen.h **** {
 291:c:\projects\paindrain\arduinolcd\test\pain drain\libraries\lvgl\src/core\lv_obj_style_gen.h ****     lv_style_value_t v = lv_obj_get_style_prop(obj, part, LV_STYLE_OUTLINE_OPA);
 292:c:\projects\paindrain\arduinolcd\test\pain drain\libraries\lvgl\src/core\lv_obj_style_gen.h ****     return (lv_opa_t)v.num;
 293:c:\projects\paindrain\arduinolcd\test\pain drain\libraries\lvgl\src/core\lv_obj_style_gen.h **** }
 294:c:\projects\paindrain\arduinolcd\test\pain drain\libraries\lvgl\src/core\lv_obj_style_gen.h **** 
 295:c:\projects\paindrain\arduinolcd\test\pain drain\libraries\lvgl\src/core\lv_obj_style_gen.h **** static inline lv_coord_t lv_obj_get_style_outline_pad(const struct _lv_obj_t * obj, uint32_t part)
 296:c:\projects\paindrain\arduinolcd\test\pain drain\libraries\lvgl\src/core\lv_obj_style_gen.h **** {
 297:c:\projects\paindrain\arduinolcd\test\pain drain\libraries\lvgl\src/core\lv_obj_style_gen.h ****     lv_style_value_t v = lv_obj_get_style_prop(obj, part, LV_STYLE_OUTLINE_PAD);
 298:c:\projects\paindrain\arduinolcd\test\pain drain\libraries\lvgl\src/core\lv_obj_style_gen.h ****     return (lv_coord_t)v.num;
 299:c:\projects\paindrain\arduinolcd\test\pain drain\libraries\lvgl\src/core\lv_obj_style_gen.h **** }
 300:c:\projects\paindrain\arduinolcd\test\pain drain\libraries\lvgl\src/core\lv_obj_style_gen.h **** 
 301:c:\projects\paindrain\arduinolcd\test\pain drain\libraries\lvgl\src/core\lv_obj_style_gen.h **** static inline lv_coord_t lv_obj_get_style_shadow_width(const struct _lv_obj_t * obj, uint32_t part)
 302:c:\projects\paindrain\arduinolcd\test\pain drain\libraries\lvgl\src/core\lv_obj_style_gen.h **** {
 303:c:\projects\paindrain\arduinolcd\test\pain drain\libraries\lvgl\src/core\lv_obj_style_gen.h ****     lv_style_value_t v = lv_obj_get_style_prop(obj, part, LV_STYLE_SHADOW_WIDTH);
 304:c:\projects\paindrain\arduinolcd\test\pain drain\libraries\lvgl\src/core\lv_obj_style_gen.h ****     return (lv_coord_t)v.num;
 305:c:\projects\paindrain\arduinolcd\test\pain drain\libraries\lvgl\src/core\lv_obj_style_gen.h **** }
 306:c:\projects\paindrain\arduinolcd\test\pain drain\libraries\lvgl\src/core\lv_obj_style_gen.h **** 
 307:c:\projects\paindrain\arduinolcd\test\pain drain\libraries\lvgl\src/core\lv_obj_style_gen.h **** static inline lv_coord_t lv_obj_get_style_shadow_ofs_x(const struct _lv_obj_t * obj, uint32_t part)
 308:c:\projects\paindrain\arduinolcd\test\pain drain\libraries\lvgl\src/core\lv_obj_style_gen.h **** {
 309:c:\projects\paindrain\arduinolcd\test\pain drain\libraries\lvgl\src/core\lv_obj_style_gen.h ****     lv_style_value_t v = lv_obj_get_style_prop(obj, part, LV_STYLE_SHADOW_OFS_X);
 310:c:\projects\paindrain\arduinolcd\test\pain drain\libraries\lvgl\src/core\lv_obj_style_gen.h ****     return (lv_coord_t)v.num;
 311:c:\projects\paindrain\arduinolcd\test\pain drain\libraries\lvgl\src/core\lv_obj_style_gen.h **** }
 312:c:\projects\paindrain\arduinolcd\test\pain drain\libraries\lvgl\src/core\lv_obj_style_gen.h **** 
 313:c:\projects\paindrain\arduinolcd\test\pain drain\libraries\lvgl\src/core\lv_obj_style_gen.h **** static inline lv_coord_t lv_obj_get_style_shadow_ofs_y(const struct _lv_obj_t * obj, uint32_t part)
 314:c:\projects\paindrain\arduinolcd\test\pain drain\libraries\lvgl\src/core\lv_obj_style_gen.h **** {
 315:c:\projects\paindrain\arduinolcd\test\pain drain\libraries\lvgl\src/core\lv_obj_style_gen.h ****     lv_style_value_t v = lv_obj_get_style_prop(obj, part, LV_STYLE_SHADOW_OFS_Y);
 316:c:\projects\paindrain\arduinolcd\test\pain drain\libraries\lvgl\src/core\lv_obj_style_gen.h ****     return (lv_coord_t)v.num;
 317:c:\projects\paindrain\arduinolcd\test\pain drain\libraries\lvgl\src/core\lv_obj_style_gen.h **** }
 318:c:\projects\paindrain\arduinolcd\test\pain drain\libraries\lvgl\src/core\lv_obj_style_gen.h **** 
ARM GAS  C:\Users\haske\AppData\Local\Temp\ccIkbvey.s 			page 39


 319:c:\projects\paindrain\arduinolcd\test\pain drain\libraries\lvgl\src/core\lv_obj_style_gen.h **** static inline lv_coord_t lv_obj_get_style_shadow_spread(const struct _lv_obj_t * obj, uint32_t part
 320:c:\projects\paindrain\arduinolcd\test\pain drain\libraries\lvgl\src/core\lv_obj_style_gen.h **** {
 321:c:\projects\paindrain\arduinolcd\test\pain drain\libraries\lvgl\src/core\lv_obj_style_gen.h ****     lv_style_value_t v = lv_obj_get_style_prop(obj, part, LV_STYLE_SHADOW_SPREAD);
 322:c:\projects\paindrain\arduinolcd\test\pain drain\libraries\lvgl\src/core\lv_obj_style_gen.h ****     return (lv_coord_t)v.num;
 323:c:\projects\paindrain\arduinolcd\test\pain drain\libraries\lvgl\src/core\lv_obj_style_gen.h **** }
 324:c:\projects\paindrain\arduinolcd\test\pain drain\libraries\lvgl\src/core\lv_obj_style_gen.h **** 
 325:c:\projects\paindrain\arduinolcd\test\pain drain\libraries\lvgl\src/core\lv_obj_style_gen.h **** static inline lv_color_t lv_obj_get_style_shadow_color(const struct _lv_obj_t * obj, uint32_t part)
 326:c:\projects\paindrain\arduinolcd\test\pain drain\libraries\lvgl\src/core\lv_obj_style_gen.h **** {
 327:c:\projects\paindrain\arduinolcd\test\pain drain\libraries\lvgl\src/core\lv_obj_style_gen.h ****     lv_style_value_t v = lv_obj_get_style_prop(obj, part, LV_STYLE_SHADOW_COLOR);
 328:c:\projects\paindrain\arduinolcd\test\pain drain\libraries\lvgl\src/core\lv_obj_style_gen.h ****     return v.color;
 329:c:\projects\paindrain\arduinolcd\test\pain drain\libraries\lvgl\src/core\lv_obj_style_gen.h **** }
 330:c:\projects\paindrain\arduinolcd\test\pain drain\libraries\lvgl\src/core\lv_obj_style_gen.h **** 
 331:c:\projects\paindrain\arduinolcd\test\pain drain\libraries\lvgl\src/core\lv_obj_style_gen.h **** static inline lv_color_t lv_obj_get_style_shadow_color_filtered(const struct _lv_obj_t * obj, uint3
 332:c:\projects\paindrain\arduinolcd\test\pain drain\libraries\lvgl\src/core\lv_obj_style_gen.h **** {
 333:c:\projects\paindrain\arduinolcd\test\pain drain\libraries\lvgl\src/core\lv_obj_style_gen.h ****     lv_style_value_t v = _lv_obj_style_apply_color_filter(obj, part, lv_obj_get_style_prop(obj, par
 334:c:\projects\paindrain\arduinolcd\test\pain drain\libraries\lvgl\src/core\lv_obj_style_gen.h ****     return v.color;
 335:c:\projects\paindrain\arduinolcd\test\pain drain\libraries\lvgl\src/core\lv_obj_style_gen.h **** }
 336:c:\projects\paindrain\arduinolcd\test\pain drain\libraries\lvgl\src/core\lv_obj_style_gen.h **** 
 337:c:\projects\paindrain\arduinolcd\test\pain drain\libraries\lvgl\src/core\lv_obj_style_gen.h **** static inline lv_opa_t lv_obj_get_style_shadow_opa(const struct _lv_obj_t * obj, uint32_t part)
 338:c:\projects\paindrain\arduinolcd\test\pain drain\libraries\lvgl\src/core\lv_obj_style_gen.h **** {
 339:c:\projects\paindrain\arduinolcd\test\pain drain\libraries\lvgl\src/core\lv_obj_style_gen.h ****     lv_style_value_t v = lv_obj_get_style_prop(obj, part, LV_STYLE_SHADOW_OPA);
 340:c:\projects\paindrain\arduinolcd\test\pain drain\libraries\lvgl\src/core\lv_obj_style_gen.h ****     return (lv_opa_t)v.num;
 341:c:\projects\paindrain\arduinolcd\test\pain drain\libraries\lvgl\src/core\lv_obj_style_gen.h **** }
 342:c:\projects\paindrain\arduinolcd\test\pain drain\libraries\lvgl\src/core\lv_obj_style_gen.h **** 
 343:c:\projects\paindrain\arduinolcd\test\pain drain\libraries\lvgl\src/core\lv_obj_style_gen.h **** static inline lv_opa_t lv_obj_get_style_img_opa(const struct _lv_obj_t * obj, uint32_t part)
 344:c:\projects\paindrain\arduinolcd\test\pain drain\libraries\lvgl\src/core\lv_obj_style_gen.h **** {
 345:c:\projects\paindrain\arduinolcd\test\pain drain\libraries\lvgl\src/core\lv_obj_style_gen.h ****     lv_style_value_t v = lv_obj_get_style_prop(obj, part, LV_STYLE_IMG_OPA);
 346:c:\projects\paindrain\arduinolcd\test\pain drain\libraries\lvgl\src/core\lv_obj_style_gen.h ****     return (lv_opa_t)v.num;
 347:c:\projects\paindrain\arduinolcd\test\pain drain\libraries\lvgl\src/core\lv_obj_style_gen.h **** }
 348:c:\projects\paindrain\arduinolcd\test\pain drain\libraries\lvgl\src/core\lv_obj_style_gen.h **** 
 349:c:\projects\paindrain\arduinolcd\test\pain drain\libraries\lvgl\src/core\lv_obj_style_gen.h **** static inline lv_color_t lv_obj_get_style_img_recolor(const struct _lv_obj_t * obj, uint32_t part)
 350:c:\projects\paindrain\arduinolcd\test\pain drain\libraries\lvgl\src/core\lv_obj_style_gen.h **** {
 351:c:\projects\paindrain\arduinolcd\test\pain drain\libraries\lvgl\src/core\lv_obj_style_gen.h ****     lv_style_value_t v = lv_obj_get_style_prop(obj, part, LV_STYLE_IMG_RECOLOR);
 352:c:\projects\paindrain\arduinolcd\test\pain drain\libraries\lvgl\src/core\lv_obj_style_gen.h ****     return v.color;
 353:c:\projects\paindrain\arduinolcd\test\pain drain\libraries\lvgl\src/core\lv_obj_style_gen.h **** }
 354:c:\projects\paindrain\arduinolcd\test\pain drain\libraries\lvgl\src/core\lv_obj_style_gen.h **** 
 355:c:\projects\paindrain\arduinolcd\test\pain drain\libraries\lvgl\src/core\lv_obj_style_gen.h **** static inline lv_color_t lv_obj_get_style_img_recolor_filtered(const struct _lv_obj_t * obj, uint32
 356:c:\projects\paindrain\arduinolcd\test\pain drain\libraries\lvgl\src/core\lv_obj_style_gen.h **** {
 357:c:\projects\paindrain\arduinolcd\test\pain drain\libraries\lvgl\src/core\lv_obj_style_gen.h ****     lv_style_value_t v = _lv_obj_style_apply_color_filter(obj, part, lv_obj_get_style_prop(obj, par
 358:c:\projects\paindrain\arduinolcd\test\pain drain\libraries\lvgl\src/core\lv_obj_style_gen.h ****     return v.color;
 359:c:\projects\paindrain\arduinolcd\test\pain drain\libraries\lvgl\src/core\lv_obj_style_gen.h **** }
 360:c:\projects\paindrain\arduinolcd\test\pain drain\libraries\lvgl\src/core\lv_obj_style_gen.h **** 
 361:c:\projects\paindrain\arduinolcd\test\pain drain\libraries\lvgl\src/core\lv_obj_style_gen.h **** static inline lv_opa_t lv_obj_get_style_img_recolor_opa(const struct _lv_obj_t * obj, uint32_t part
 362:c:\projects\paindrain\arduinolcd\test\pain drain\libraries\lvgl\src/core\lv_obj_style_gen.h **** {
 363:c:\projects\paindrain\arduinolcd\test\pain drain\libraries\lvgl\src/core\lv_obj_style_gen.h ****     lv_style_value_t v = lv_obj_get_style_prop(obj, part, LV_STYLE_IMG_RECOLOR_OPA);
 364:c:\projects\paindrain\arduinolcd\test\pain drain\libraries\lvgl\src/core\lv_obj_style_gen.h ****     return (lv_opa_t)v.num;
 365:c:\projects\paindrain\arduinolcd\test\pain drain\libraries\lvgl\src/core\lv_obj_style_gen.h **** }
 366:c:\projects\paindrain\arduinolcd\test\pain drain\libraries\lvgl\src/core\lv_obj_style_gen.h **** 
 367:c:\projects\paindrain\arduinolcd\test\pain drain\libraries\lvgl\src/core\lv_obj_style_gen.h **** static inline lv_coord_t lv_obj_get_style_line_width(const struct _lv_obj_t * obj, uint32_t part)
 368:c:\projects\paindrain\arduinolcd\test\pain drain\libraries\lvgl\src/core\lv_obj_style_gen.h **** {
 369:c:\projects\paindrain\arduinolcd\test\pain drain\libraries\lvgl\src/core\lv_obj_style_gen.h ****     lv_style_value_t v = lv_obj_get_style_prop(obj, part, LV_STYLE_LINE_WIDTH);
 370:c:\projects\paindrain\arduinolcd\test\pain drain\libraries\lvgl\src/core\lv_obj_style_gen.h ****     return (lv_coord_t)v.num;
 371:c:\projects\paindrain\arduinolcd\test\pain drain\libraries\lvgl\src/core\lv_obj_style_gen.h **** }
 372:c:\projects\paindrain\arduinolcd\test\pain drain\libraries\lvgl\src/core\lv_obj_style_gen.h **** 
 373:c:\projects\paindrain\arduinolcd\test\pain drain\libraries\lvgl\src/core\lv_obj_style_gen.h **** static inline lv_coord_t lv_obj_get_style_line_dash_width(const struct _lv_obj_t * obj, uint32_t pa
 374:c:\projects\paindrain\arduinolcd\test\pain drain\libraries\lvgl\src/core\lv_obj_style_gen.h **** {
 375:c:\projects\paindrain\arduinolcd\test\pain drain\libraries\lvgl\src/core\lv_obj_style_gen.h ****     lv_style_value_t v = lv_obj_get_style_prop(obj, part, LV_STYLE_LINE_DASH_WIDTH);
ARM GAS  C:\Users\haske\AppData\Local\Temp\ccIkbvey.s 			page 40


 376:c:\projects\paindrain\arduinolcd\test\pain drain\libraries\lvgl\src/core\lv_obj_style_gen.h ****     return (lv_coord_t)v.num;
 377:c:\projects\paindrain\arduinolcd\test\pain drain\libraries\lvgl\src/core\lv_obj_style_gen.h **** }
 378:c:\projects\paindrain\arduinolcd\test\pain drain\libraries\lvgl\src/core\lv_obj_style_gen.h **** 
 379:c:\projects\paindrain\arduinolcd\test\pain drain\libraries\lvgl\src/core\lv_obj_style_gen.h **** static inline lv_coord_t lv_obj_get_style_line_dash_gap(const struct _lv_obj_t * obj, uint32_t part
 380:c:\projects\paindrain\arduinolcd\test\pain drain\libraries\lvgl\src/core\lv_obj_style_gen.h **** {
 381:c:\projects\paindrain\arduinolcd\test\pain drain\libraries\lvgl\src/core\lv_obj_style_gen.h ****     lv_style_value_t v = lv_obj_get_style_prop(obj, part, LV_STYLE_LINE_DASH_GAP);
 382:c:\projects\paindrain\arduinolcd\test\pain drain\libraries\lvgl\src/core\lv_obj_style_gen.h ****     return (lv_coord_t)v.num;
 383:c:\projects\paindrain\arduinolcd\test\pain drain\libraries\lvgl\src/core\lv_obj_style_gen.h **** }
 384:c:\projects\paindrain\arduinolcd\test\pain drain\libraries\lvgl\src/core\lv_obj_style_gen.h **** 
 385:c:\projects\paindrain\arduinolcd\test\pain drain\libraries\lvgl\src/core\lv_obj_style_gen.h **** static inline bool lv_obj_get_style_line_rounded(const struct _lv_obj_t * obj, uint32_t part)
 386:c:\projects\paindrain\arduinolcd\test\pain drain\libraries\lvgl\src/core\lv_obj_style_gen.h **** {
 387:c:\projects\paindrain\arduinolcd\test\pain drain\libraries\lvgl\src/core\lv_obj_style_gen.h ****     lv_style_value_t v = lv_obj_get_style_prop(obj, part, LV_STYLE_LINE_ROUNDED);
 388:c:\projects\paindrain\arduinolcd\test\pain drain\libraries\lvgl\src/core\lv_obj_style_gen.h ****     return (bool)v.num;
 389:c:\projects\paindrain\arduinolcd\test\pain drain\libraries\lvgl\src/core\lv_obj_style_gen.h **** }
 390:c:\projects\paindrain\arduinolcd\test\pain drain\libraries\lvgl\src/core\lv_obj_style_gen.h **** 
 391:c:\projects\paindrain\arduinolcd\test\pain drain\libraries\lvgl\src/core\lv_obj_style_gen.h **** static inline lv_color_t lv_obj_get_style_line_color(const struct _lv_obj_t * obj, uint32_t part)
 392:c:\projects\paindrain\arduinolcd\test\pain drain\libraries\lvgl\src/core\lv_obj_style_gen.h **** {
 393:c:\projects\paindrain\arduinolcd\test\pain drain\libraries\lvgl\src/core\lv_obj_style_gen.h ****     lv_style_value_t v = lv_obj_get_style_prop(obj, part, LV_STYLE_LINE_COLOR);
 394:c:\projects\paindrain\arduinolcd\test\pain drain\libraries\lvgl\src/core\lv_obj_style_gen.h ****     return v.color;
