ARM GAS  C:\Users\haske\AppData\Local\Temp\ccxUXv8a.s 			page 1


   1              		.syntax unified
   2              		.cpu cortex-m0plus
   3              		.fpu softvfp
   4              		.eabi_attribute 20, 1
   5              		.eabi_attribute 21, 1
   6              		.eabi_attribute 23, 3
   7              		.eabi_attribute 24, 1
   8              		.eabi_attribute 25, 1
   9              		.eabi_attribute 26, 1
  10              		.eabi_attribute 30, 1
  11              		.eabi_attribute 34, 0
  12              		.eabi_attribute 18, 4
  13              		.thumb
  14              		.syntax unified
  15              		.file	"lv_canvas.c"
  16              		.text
  17              	.Ltext0:
  18              		.cfi_sections	.debug_frame
  19              		.section	.text.lv_canvas_destructor,"ax",%progbits
  20              		.align	2
  21              		.code	16
  22              		.thumb_func
  23              		.type	lv_canvas_destructor, %function
  24              	lv_canvas_destructor:
  25              	.LFB179:
  26              		.file 1 "..\\..\\..\\arduinoLCD\\test\\Pain Drain\\libraries\\lvgl\\src\\widgets\\lv_canvas.c"
   1:..\..\..\arduinoLCD\test\Pain Drain\libraries\lvgl\src\widgets/lv_canvas.c **** /**
   2:..\..\..\arduinoLCD\test\Pain Drain\libraries\lvgl\src\widgets/lv_canvas.c ****  * @file lv_canvas.c
   3:..\..\..\arduinoLCD\test\Pain Drain\libraries\lvgl\src\widgets/lv_canvas.c ****  *
   4:..\..\..\arduinoLCD\test\Pain Drain\libraries\lvgl\src\widgets/lv_canvas.c ****  */
   5:..\..\..\arduinoLCD\test\Pain Drain\libraries\lvgl\src\widgets/lv_canvas.c **** 
   6:..\..\..\arduinoLCD\test\Pain Drain\libraries\lvgl\src\widgets/lv_canvas.c **** /*********************
   7:..\..\..\arduinoLCD\test\Pain Drain\libraries\lvgl\src\widgets/lv_canvas.c ****  *      INCLUDES
   8:..\..\..\arduinoLCD\test\Pain Drain\libraries\lvgl\src\widgets/lv_canvas.c ****  *********************/
   9:..\..\..\arduinoLCD\test\Pain Drain\libraries\lvgl\src\widgets/lv_canvas.c **** #include "lv_canvas.h"
  10:..\..\..\arduinoLCD\test\Pain Drain\libraries\lvgl\src\widgets/lv_canvas.c **** #include "../misc/lv_assert.h"
  11:..\..\..\arduinoLCD\test\Pain Drain\libraries\lvgl\src\widgets/lv_canvas.c **** #include "../misc/lv_math.h"
  12:..\..\..\arduinoLCD\test\Pain Drain\libraries\lvgl\src\widgets/lv_canvas.c **** #include "../draw/lv_draw.h"
  13:..\..\..\arduinoLCD\test\Pain Drain\libraries\lvgl\src\widgets/lv_canvas.c **** #include "../core/lv_refr.h"
  14:..\..\..\arduinoLCD\test\Pain Drain\libraries\lvgl\src\widgets/lv_canvas.c **** 
  15:..\..\..\arduinoLCD\test\Pain Drain\libraries\lvgl\src\widgets/lv_canvas.c **** #if LV_USE_CANVAS != 0
  16:..\..\..\arduinoLCD\test\Pain Drain\libraries\lvgl\src\widgets/lv_canvas.c **** 
  17:..\..\..\arduinoLCD\test\Pain Drain\libraries\lvgl\src\widgets/lv_canvas.c **** #include "../draw/sw/lv_draw_sw.h"
  18:..\..\..\arduinoLCD\test\Pain Drain\libraries\lvgl\src\widgets/lv_canvas.c **** 
  19:..\..\..\arduinoLCD\test\Pain Drain\libraries\lvgl\src\widgets/lv_canvas.c **** /*********************
  20:..\..\..\arduinoLCD\test\Pain Drain\libraries\lvgl\src\widgets/lv_canvas.c ****  *      DEFINES
  21:..\..\..\arduinoLCD\test\Pain Drain\libraries\lvgl\src\widgets/lv_canvas.c ****  *********************/
  22:..\..\..\arduinoLCD\test\Pain Drain\libraries\lvgl\src\widgets/lv_canvas.c **** #define MY_CLASS &lv_canvas_class
  23:..\..\..\arduinoLCD\test\Pain Drain\libraries\lvgl\src\widgets/lv_canvas.c **** 
  24:..\..\..\arduinoLCD\test\Pain Drain\libraries\lvgl\src\widgets/lv_canvas.c **** /**********************
  25:..\..\..\arduinoLCD\test\Pain Drain\libraries\lvgl\src\widgets/lv_canvas.c ****  *      TYPEDEFS
  26:..\..\..\arduinoLCD\test\Pain Drain\libraries\lvgl\src\widgets/lv_canvas.c ****  **********************/
  27:..\..\..\arduinoLCD\test\Pain Drain\libraries\lvgl\src\widgets/lv_canvas.c **** 
  28:..\..\..\arduinoLCD\test\Pain Drain\libraries\lvgl\src\widgets/lv_canvas.c **** /**********************
  29:..\..\..\arduinoLCD\test\Pain Drain\libraries\lvgl\src\widgets/lv_canvas.c ****  *  STATIC PROTOTYPES
  30:..\..\..\arduinoLCD\test\Pain Drain\libraries\lvgl\src\widgets/lv_canvas.c ****  **********************/
  31:..\..\..\arduinoLCD\test\Pain Drain\libraries\lvgl\src\widgets/lv_canvas.c **** static void lv_canvas_constructor(const lv_obj_class_t * class_p, lv_obj_t * obj);
ARM GAS  C:\Users\haske\AppData\Local\Temp\ccxUXv8a.s 			page 2


  32:..\..\..\arduinoLCD\test\Pain Drain\libraries\lvgl\src\widgets/lv_canvas.c **** static void lv_canvas_destructor(const lv_obj_class_t * class_p, lv_obj_t * obj);
  33:..\..\..\arduinoLCD\test\Pain Drain\libraries\lvgl\src\widgets/lv_canvas.c **** static void init_fake_disp(lv_obj_t * canvas, lv_disp_t * disp, lv_disp_drv_t * drv, lv_area_t * cl
  34:..\..\..\arduinoLCD\test\Pain Drain\libraries\lvgl\src\widgets/lv_canvas.c **** static void deinit_fake_disp(lv_obj_t * canvas, lv_disp_t * disp);
  35:..\..\..\arduinoLCD\test\Pain Drain\libraries\lvgl\src\widgets/lv_canvas.c **** 
  36:..\..\..\arduinoLCD\test\Pain Drain\libraries\lvgl\src\widgets/lv_canvas.c **** /**********************
  37:..\..\..\arduinoLCD\test\Pain Drain\libraries\lvgl\src\widgets/lv_canvas.c ****  *  STATIC VARIABLES
  38:..\..\..\arduinoLCD\test\Pain Drain\libraries\lvgl\src\widgets/lv_canvas.c ****  **********************/
  39:..\..\..\arduinoLCD\test\Pain Drain\libraries\lvgl\src\widgets/lv_canvas.c **** const lv_obj_class_t lv_canvas_class = {
  40:..\..\..\arduinoLCD\test\Pain Drain\libraries\lvgl\src\widgets/lv_canvas.c ****     .constructor_cb = lv_canvas_constructor,
  41:..\..\..\arduinoLCD\test\Pain Drain\libraries\lvgl\src\widgets/lv_canvas.c ****     .destructor_cb = lv_canvas_destructor,
  42:..\..\..\arduinoLCD\test\Pain Drain\libraries\lvgl\src\widgets/lv_canvas.c ****     .instance_size = sizeof(lv_canvas_t),
  43:..\..\..\arduinoLCD\test\Pain Drain\libraries\lvgl\src\widgets/lv_canvas.c ****     .base_class = &lv_img_class
  44:..\..\..\arduinoLCD\test\Pain Drain\libraries\lvgl\src\widgets/lv_canvas.c **** };
  45:..\..\..\arduinoLCD\test\Pain Drain\libraries\lvgl\src\widgets/lv_canvas.c **** 
  46:..\..\..\arduinoLCD\test\Pain Drain\libraries\lvgl\src\widgets/lv_canvas.c **** /**********************
  47:..\..\..\arduinoLCD\test\Pain Drain\libraries\lvgl\src\widgets/lv_canvas.c ****  *      MACROS
  48:..\..\..\arduinoLCD\test\Pain Drain\libraries\lvgl\src\widgets/lv_canvas.c ****  **********************/
  49:..\..\..\arduinoLCD\test\Pain Drain\libraries\lvgl\src\widgets/lv_canvas.c **** 
  50:..\..\..\arduinoLCD\test\Pain Drain\libraries\lvgl\src\widgets/lv_canvas.c **** /**********************
  51:..\..\..\arduinoLCD\test\Pain Drain\libraries\lvgl\src\widgets/lv_canvas.c ****  *   GLOBAL FUNCTIONS
  52:..\..\..\arduinoLCD\test\Pain Drain\libraries\lvgl\src\widgets/lv_canvas.c ****  **********************/
  53:..\..\..\arduinoLCD\test\Pain Drain\libraries\lvgl\src\widgets/lv_canvas.c **** 
  54:..\..\..\arduinoLCD\test\Pain Drain\libraries\lvgl\src\widgets/lv_canvas.c **** lv_obj_t * lv_canvas_create(lv_obj_t * parent)
  55:..\..\..\arduinoLCD\test\Pain Drain\libraries\lvgl\src\widgets/lv_canvas.c **** {
  56:..\..\..\arduinoLCD\test\Pain Drain\libraries\lvgl\src\widgets/lv_canvas.c ****     LV_LOG_INFO("begin");
  57:..\..\..\arduinoLCD\test\Pain Drain\libraries\lvgl\src\widgets/lv_canvas.c ****     lv_obj_t * obj = lv_obj_class_create_obj(MY_CLASS, parent);
  58:..\..\..\arduinoLCD\test\Pain Drain\libraries\lvgl\src\widgets/lv_canvas.c ****     lv_obj_class_init_obj(obj);
  59:..\..\..\arduinoLCD\test\Pain Drain\libraries\lvgl\src\widgets/lv_canvas.c ****     return obj;
  60:..\..\..\arduinoLCD\test\Pain Drain\libraries\lvgl\src\widgets/lv_canvas.c **** }
  61:..\..\..\arduinoLCD\test\Pain Drain\libraries\lvgl\src\widgets/lv_canvas.c **** 
  62:..\..\..\arduinoLCD\test\Pain Drain\libraries\lvgl\src\widgets/lv_canvas.c **** /*=====================
  63:..\..\..\arduinoLCD\test\Pain Drain\libraries\lvgl\src\widgets/lv_canvas.c ****  * Setter functions
  64:..\..\..\arduinoLCD\test\Pain Drain\libraries\lvgl\src\widgets/lv_canvas.c ****  *====================*/
  65:..\..\..\arduinoLCD\test\Pain Drain\libraries\lvgl\src\widgets/lv_canvas.c **** 
  66:..\..\..\arduinoLCD\test\Pain Drain\libraries\lvgl\src\widgets/lv_canvas.c **** void lv_canvas_set_buffer(lv_obj_t * obj, void * buf, lv_coord_t w, lv_coord_t h, lv_img_cf_t cf)
  67:..\..\..\arduinoLCD\test\Pain Drain\libraries\lvgl\src\widgets/lv_canvas.c **** {
  68:..\..\..\arduinoLCD\test\Pain Drain\libraries\lvgl\src\widgets/lv_canvas.c ****     LV_ASSERT_OBJ(obj, MY_CLASS);
  69:..\..\..\arduinoLCD\test\Pain Drain\libraries\lvgl\src\widgets/lv_canvas.c ****     LV_ASSERT_NULL(buf);
  70:..\..\..\arduinoLCD\test\Pain Drain\libraries\lvgl\src\widgets/lv_canvas.c **** 
  71:..\..\..\arduinoLCD\test\Pain Drain\libraries\lvgl\src\widgets/lv_canvas.c ****     lv_canvas_t * canvas = (lv_canvas_t *)obj;
  72:..\..\..\arduinoLCD\test\Pain Drain\libraries\lvgl\src\widgets/lv_canvas.c **** 
  73:..\..\..\arduinoLCD\test\Pain Drain\libraries\lvgl\src\widgets/lv_canvas.c ****     canvas->dsc.header.cf = cf;
  74:..\..\..\arduinoLCD\test\Pain Drain\libraries\lvgl\src\widgets/lv_canvas.c ****     canvas->dsc.header.w  = w;
  75:..\..\..\arduinoLCD\test\Pain Drain\libraries\lvgl\src\widgets/lv_canvas.c ****     canvas->dsc.header.h  = h;
  76:..\..\..\arduinoLCD\test\Pain Drain\libraries\lvgl\src\widgets/lv_canvas.c ****     canvas->dsc.data      = buf;
  77:..\..\..\arduinoLCD\test\Pain Drain\libraries\lvgl\src\widgets/lv_canvas.c **** 
  78:..\..\..\arduinoLCD\test\Pain Drain\libraries\lvgl\src\widgets/lv_canvas.c ****     lv_img_set_src(obj, &canvas->dsc);
  79:..\..\..\arduinoLCD\test\Pain Drain\libraries\lvgl\src\widgets/lv_canvas.c ****     lv_img_cache_invalidate_src(&canvas->dsc);
  80:..\..\..\arduinoLCD\test\Pain Drain\libraries\lvgl\src\widgets/lv_canvas.c **** }
  81:..\..\..\arduinoLCD\test\Pain Drain\libraries\lvgl\src\widgets/lv_canvas.c **** 
  82:..\..\..\arduinoLCD\test\Pain Drain\libraries\lvgl\src\widgets/lv_canvas.c **** void lv_canvas_set_px_color(lv_obj_t * obj, lv_coord_t x, lv_coord_t y, lv_color_t c)
  83:..\..\..\arduinoLCD\test\Pain Drain\libraries\lvgl\src\widgets/lv_canvas.c **** {
  84:..\..\..\arduinoLCD\test\Pain Drain\libraries\lvgl\src\widgets/lv_canvas.c ****     LV_ASSERT_OBJ(obj, MY_CLASS);
  85:..\..\..\arduinoLCD\test\Pain Drain\libraries\lvgl\src\widgets/lv_canvas.c **** 
  86:..\..\..\arduinoLCD\test\Pain Drain\libraries\lvgl\src\widgets/lv_canvas.c ****     lv_canvas_t * canvas = (lv_canvas_t *)obj;
  87:..\..\..\arduinoLCD\test\Pain Drain\libraries\lvgl\src\widgets/lv_canvas.c **** 
  88:..\..\..\arduinoLCD\test\Pain Drain\libraries\lvgl\src\widgets/lv_canvas.c ****     lv_img_buf_set_px_color(&canvas->dsc, x, y, c);
ARM GAS  C:\Users\haske\AppData\Local\Temp\ccxUXv8a.s 			page 3


  89:..\..\..\arduinoLCD\test\Pain Drain\libraries\lvgl\src\widgets/lv_canvas.c ****     lv_obj_invalidate(obj);
  90:..\..\..\arduinoLCD\test\Pain Drain\libraries\lvgl\src\widgets/lv_canvas.c **** }
  91:..\..\..\arduinoLCD\test\Pain Drain\libraries\lvgl\src\widgets/lv_canvas.c **** 
  92:..\..\..\arduinoLCD\test\Pain Drain\libraries\lvgl\src\widgets/lv_canvas.c **** void lv_canvas_set_px_opa(lv_obj_t * obj, lv_coord_t x, lv_coord_t y, lv_opa_t opa)
  93:..\..\..\arduinoLCD\test\Pain Drain\libraries\lvgl\src\widgets/lv_canvas.c **** {
  94:..\..\..\arduinoLCD\test\Pain Drain\libraries\lvgl\src\widgets/lv_canvas.c ****     LV_ASSERT_OBJ(obj, MY_CLASS);
  95:..\..\..\arduinoLCD\test\Pain Drain\libraries\lvgl\src\widgets/lv_canvas.c **** 
  96:..\..\..\arduinoLCD\test\Pain Drain\libraries\lvgl\src\widgets/lv_canvas.c ****     lv_canvas_t * canvas = (lv_canvas_t *)obj;
  97:..\..\..\arduinoLCD\test\Pain Drain\libraries\lvgl\src\widgets/lv_canvas.c **** 
  98:..\..\..\arduinoLCD\test\Pain Drain\libraries\lvgl\src\widgets/lv_canvas.c ****     lv_img_buf_set_px_alpha(&canvas->dsc, x, y, opa);
  99:..\..\..\arduinoLCD\test\Pain Drain\libraries\lvgl\src\widgets/lv_canvas.c ****     lv_obj_invalidate(obj);
 100:..\..\..\arduinoLCD\test\Pain Drain\libraries\lvgl\src\widgets/lv_canvas.c **** }
 101:..\..\..\arduinoLCD\test\Pain Drain\libraries\lvgl\src\widgets/lv_canvas.c **** 
 102:..\..\..\arduinoLCD\test\Pain Drain\libraries\lvgl\src\widgets/lv_canvas.c **** void lv_canvas_set_palette(lv_obj_t * obj, uint8_t id, lv_color_t c)
 103:..\..\..\arduinoLCD\test\Pain Drain\libraries\lvgl\src\widgets/lv_canvas.c **** {
 104:..\..\..\arduinoLCD\test\Pain Drain\libraries\lvgl\src\widgets/lv_canvas.c ****     LV_ASSERT_OBJ(obj, MY_CLASS);
 105:..\..\..\arduinoLCD\test\Pain Drain\libraries\lvgl\src\widgets/lv_canvas.c **** 
 106:..\..\..\arduinoLCD\test\Pain Drain\libraries\lvgl\src\widgets/lv_canvas.c ****     lv_canvas_t * canvas = (lv_canvas_t *)obj;
 107:..\..\..\arduinoLCD\test\Pain Drain\libraries\lvgl\src\widgets/lv_canvas.c **** 
 108:..\..\..\arduinoLCD\test\Pain Drain\libraries\lvgl\src\widgets/lv_canvas.c ****     lv_img_buf_set_palette(&canvas->dsc, id, c);
 109:..\..\..\arduinoLCD\test\Pain Drain\libraries\lvgl\src\widgets/lv_canvas.c ****     lv_obj_invalidate(obj);
 110:..\..\..\arduinoLCD\test\Pain Drain\libraries\lvgl\src\widgets/lv_canvas.c **** }
 111:..\..\..\arduinoLCD\test\Pain Drain\libraries\lvgl\src\widgets/lv_canvas.c **** 
 112:..\..\..\arduinoLCD\test\Pain Drain\libraries\lvgl\src\widgets/lv_canvas.c **** /*=====================
 113:..\..\..\arduinoLCD\test\Pain Drain\libraries\lvgl\src\widgets/lv_canvas.c ****  * Getter functions
 114:..\..\..\arduinoLCD\test\Pain Drain\libraries\lvgl\src\widgets/lv_canvas.c ****  *====================*/
 115:..\..\..\arduinoLCD\test\Pain Drain\libraries\lvgl\src\widgets/lv_canvas.c **** 
 116:..\..\..\arduinoLCD\test\Pain Drain\libraries\lvgl\src\widgets/lv_canvas.c **** lv_color_t lv_canvas_get_px(lv_obj_t * obj, lv_coord_t x, lv_coord_t y)
 117:..\..\..\arduinoLCD\test\Pain Drain\libraries\lvgl\src\widgets/lv_canvas.c **** {
 118:..\..\..\arduinoLCD\test\Pain Drain\libraries\lvgl\src\widgets/lv_canvas.c ****     LV_ASSERT_OBJ(obj, MY_CLASS);
 119:..\..\..\arduinoLCD\test\Pain Drain\libraries\lvgl\src\widgets/lv_canvas.c **** 
 120:..\..\..\arduinoLCD\test\Pain Drain\libraries\lvgl\src\widgets/lv_canvas.c ****     lv_canvas_t * canvas = (lv_canvas_t *)obj;
 121:..\..\..\arduinoLCD\test\Pain Drain\libraries\lvgl\src\widgets/lv_canvas.c ****     lv_color_t color = lv_obj_get_style_img_recolor(obj, LV_PART_MAIN);
 122:..\..\..\arduinoLCD\test\Pain Drain\libraries\lvgl\src\widgets/lv_canvas.c **** 
 123:..\..\..\arduinoLCD\test\Pain Drain\libraries\lvgl\src\widgets/lv_canvas.c ****     return lv_img_buf_get_px_color(&canvas->dsc, x, y, color);
 124:..\..\..\arduinoLCD\test\Pain Drain\libraries\lvgl\src\widgets/lv_canvas.c **** }
 125:..\..\..\arduinoLCD\test\Pain Drain\libraries\lvgl\src\widgets/lv_canvas.c **** 
 126:..\..\..\arduinoLCD\test\Pain Drain\libraries\lvgl\src\widgets/lv_canvas.c **** lv_img_dsc_t * lv_canvas_get_img(lv_obj_t * obj)
 127:..\..\..\arduinoLCD\test\Pain Drain\libraries\lvgl\src\widgets/lv_canvas.c **** {
 128:..\..\..\arduinoLCD\test\Pain Drain\libraries\lvgl\src\widgets/lv_canvas.c ****     LV_ASSERT_OBJ(obj, MY_CLASS);
 129:..\..\..\arduinoLCD\test\Pain Drain\libraries\lvgl\src\widgets/lv_canvas.c **** 
 130:..\..\..\arduinoLCD\test\Pain Drain\libraries\lvgl\src\widgets/lv_canvas.c ****     lv_canvas_t * canvas = (lv_canvas_t *)obj;
 131:..\..\..\arduinoLCD\test\Pain Drain\libraries\lvgl\src\widgets/lv_canvas.c ****     return &canvas->dsc;
 132:..\..\..\arduinoLCD\test\Pain Drain\libraries\lvgl\src\widgets/lv_canvas.c **** }
 133:..\..\..\arduinoLCD\test\Pain Drain\libraries\lvgl\src\widgets/lv_canvas.c **** 
 134:..\..\..\arduinoLCD\test\Pain Drain\libraries\lvgl\src\widgets/lv_canvas.c **** /*=====================
 135:..\..\..\arduinoLCD\test\Pain Drain\libraries\lvgl\src\widgets/lv_canvas.c ****  * Other functions
 136:..\..\..\arduinoLCD\test\Pain Drain\libraries\lvgl\src\widgets/lv_canvas.c ****  *====================*/
 137:..\..\..\arduinoLCD\test\Pain Drain\libraries\lvgl\src\widgets/lv_canvas.c **** 
 138:..\..\..\arduinoLCD\test\Pain Drain\libraries\lvgl\src\widgets/lv_canvas.c **** void lv_canvas_copy_buf(lv_obj_t * obj, const void * to_copy, lv_coord_t x, lv_coord_t y, lv_coord_
 139:..\..\..\arduinoLCD\test\Pain Drain\libraries\lvgl\src\widgets/lv_canvas.c **** {
 140:..\..\..\arduinoLCD\test\Pain Drain\libraries\lvgl\src\widgets/lv_canvas.c ****     LV_ASSERT_OBJ(obj, MY_CLASS);
 141:..\..\..\arduinoLCD\test\Pain Drain\libraries\lvgl\src\widgets/lv_canvas.c ****     LV_ASSERT_NULL(to_copy);
 142:..\..\..\arduinoLCD\test\Pain Drain\libraries\lvgl\src\widgets/lv_canvas.c **** 
 143:..\..\..\arduinoLCD\test\Pain Drain\libraries\lvgl\src\widgets/lv_canvas.c ****     lv_canvas_t * canvas = (lv_canvas_t *)obj;
 144:..\..\..\arduinoLCD\test\Pain Drain\libraries\lvgl\src\widgets/lv_canvas.c **** 
 145:..\..\..\arduinoLCD\test\Pain Drain\libraries\lvgl\src\widgets/lv_canvas.c ****     if(x + w - 1 >= (lv_coord_t)canvas->dsc.header.w || y + h - 1 >= (lv_coord_t)canvas->dsc.header
ARM GAS  C:\Users\haske\AppData\Local\Temp\ccxUXv8a.s 			page 4


 146:..\..\..\arduinoLCD\test\Pain Drain\libraries\lvgl\src\widgets/lv_canvas.c ****         LV_LOG_WARN("lv_canvas_copy_buf: x or y out of the canvas");
 147:..\..\..\arduinoLCD\test\Pain Drain\libraries\lvgl\src\widgets/lv_canvas.c ****         return;
 148:..\..\..\arduinoLCD\test\Pain Drain\libraries\lvgl\src\widgets/lv_canvas.c ****     }
 149:..\..\..\arduinoLCD\test\Pain Drain\libraries\lvgl\src\widgets/lv_canvas.c **** 
 150:..\..\..\arduinoLCD\test\Pain Drain\libraries\lvgl\src\widgets/lv_canvas.c ****     uint32_t px_size   = lv_img_cf_get_px_size(canvas->dsc.header.cf) >> 3;
 151:..\..\..\arduinoLCD\test\Pain Drain\libraries\lvgl\src\widgets/lv_canvas.c ****     uint32_t px        = canvas->dsc.header.w * y * px_size + x * px_size;
 152:..\..\..\arduinoLCD\test\Pain Drain\libraries\lvgl\src\widgets/lv_canvas.c ****     uint8_t * to_copy8 = (uint8_t *)to_copy;
 153:..\..\..\arduinoLCD\test\Pain Drain\libraries\lvgl\src\widgets/lv_canvas.c ****     lv_coord_t i;
 154:..\..\..\arduinoLCD\test\Pain Drain\libraries\lvgl\src\widgets/lv_canvas.c ****     for(i = 0; i < h; i++) {
 155:..\..\..\arduinoLCD\test\Pain Drain\libraries\lvgl\src\widgets/lv_canvas.c ****         lv_memcpy((void *)&canvas->dsc.data[px], to_copy8, w * px_size);
 156:..\..\..\arduinoLCD\test\Pain Drain\libraries\lvgl\src\widgets/lv_canvas.c ****         px += canvas->dsc.header.w * px_size;
 157:..\..\..\arduinoLCD\test\Pain Drain\libraries\lvgl\src\widgets/lv_canvas.c ****         to_copy8 += w * px_size;
 158:..\..\..\arduinoLCD\test\Pain Drain\libraries\lvgl\src\widgets/lv_canvas.c ****     }
 159:..\..\..\arduinoLCD\test\Pain Drain\libraries\lvgl\src\widgets/lv_canvas.c **** }
 160:..\..\..\arduinoLCD\test\Pain Drain\libraries\lvgl\src\widgets/lv_canvas.c **** 
 161:..\..\..\arduinoLCD\test\Pain Drain\libraries\lvgl\src\widgets/lv_canvas.c **** void lv_canvas_transform(lv_obj_t * obj, lv_img_dsc_t * src_img, int16_t angle, uint16_t zoom, lv_c
 162:..\..\..\arduinoLCD\test\Pain Drain\libraries\lvgl\src\widgets/lv_canvas.c ****                          lv_coord_t offset_y,
 163:..\..\..\arduinoLCD\test\Pain Drain\libraries\lvgl\src\widgets/lv_canvas.c ****                          int32_t pivot_x, int32_t pivot_y, bool antialias)
 164:..\..\..\arduinoLCD\test\Pain Drain\libraries\lvgl\src\widgets/lv_canvas.c **** {
 165:..\..\..\arduinoLCD\test\Pain Drain\libraries\lvgl\src\widgets/lv_canvas.c **** #if LV_DRAW_COMPLEX
 166:..\..\..\arduinoLCD\test\Pain Drain\libraries\lvgl\src\widgets/lv_canvas.c ****     LV_ASSERT_OBJ(obj, MY_CLASS);
 167:..\..\..\arduinoLCD\test\Pain Drain\libraries\lvgl\src\widgets/lv_canvas.c ****     LV_ASSERT_NULL(src_img);
 168:..\..\..\arduinoLCD\test\Pain Drain\libraries\lvgl\src\widgets/lv_canvas.c **** 
 169:..\..\..\arduinoLCD\test\Pain Drain\libraries\lvgl\src\widgets/lv_canvas.c ****     lv_canvas_t * canvas = (lv_canvas_t *)obj;
 170:..\..\..\arduinoLCD\test\Pain Drain\libraries\lvgl\src\widgets/lv_canvas.c ****     lv_img_dsc_t * dest_img = &canvas->dsc;
 171:..\..\..\arduinoLCD\test\Pain Drain\libraries\lvgl\src\widgets/lv_canvas.c **** 
 172:..\..\..\arduinoLCD\test\Pain Drain\libraries\lvgl\src\widgets/lv_canvas.c ****     int32_t x;
 173:..\..\..\arduinoLCD\test\Pain Drain\libraries\lvgl\src\widgets/lv_canvas.c ****     int32_t y;
 174:..\..\..\arduinoLCD\test\Pain Drain\libraries\lvgl\src\widgets/lv_canvas.c **** 
 175:..\..\..\arduinoLCD\test\Pain Drain\libraries\lvgl\src\widgets/lv_canvas.c ****     lv_draw_img_dsc_t draw_dsc;
 176:..\..\..\arduinoLCD\test\Pain Drain\libraries\lvgl\src\widgets/lv_canvas.c ****     lv_draw_img_dsc_init(&draw_dsc);
 177:..\..\..\arduinoLCD\test\Pain Drain\libraries\lvgl\src\widgets/lv_canvas.c ****     draw_dsc.angle = angle;
 178:..\..\..\arduinoLCD\test\Pain Drain\libraries\lvgl\src\widgets/lv_canvas.c ****     draw_dsc.zoom = zoom;
 179:..\..\..\arduinoLCD\test\Pain Drain\libraries\lvgl\src\widgets/lv_canvas.c ****     draw_dsc.pivot.x = pivot_x;
 180:..\..\..\arduinoLCD\test\Pain Drain\libraries\lvgl\src\widgets/lv_canvas.c ****     draw_dsc.pivot.y = pivot_y;
 181:..\..\..\arduinoLCD\test\Pain Drain\libraries\lvgl\src\widgets/lv_canvas.c ****     draw_dsc.antialias = antialias;
 182:..\..\..\arduinoLCD\test\Pain Drain\libraries\lvgl\src\widgets/lv_canvas.c **** 
 183:..\..\..\arduinoLCD\test\Pain Drain\libraries\lvgl\src\widgets/lv_canvas.c ****     lv_area_t dest_area;
 184:..\..\..\arduinoLCD\test\Pain Drain\libraries\lvgl\src\widgets/lv_canvas.c ****     dest_area.x1 = -offset_x;
 185:..\..\..\arduinoLCD\test\Pain Drain\libraries\lvgl\src\widgets/lv_canvas.c ****     dest_area.x2 = dest_area.x1 + dest_img->header.w - 1;
 186:..\..\..\arduinoLCD\test\Pain Drain\libraries\lvgl\src\widgets/lv_canvas.c ****     dest_area.y1 = -offset_y;
 187:..\..\..\arduinoLCD\test\Pain Drain\libraries\lvgl\src\widgets/lv_canvas.c ****     dest_area.y2 = -offset_y;
 188:..\..\..\arduinoLCD\test\Pain Drain\libraries\lvgl\src\widgets/lv_canvas.c **** 
 189:..\..\..\arduinoLCD\test\Pain Drain\libraries\lvgl\src\widgets/lv_canvas.c ****     lv_color_t * cbuf = lv_mem_alloc(dest_img->header.w * sizeof(lv_color_t));
 190:..\..\..\arduinoLCD\test\Pain Drain\libraries\lvgl\src\widgets/lv_canvas.c ****     lv_opa_t * abuf = lv_mem_alloc(dest_img->header.w * sizeof(lv_opa_t));
 191:..\..\..\arduinoLCD\test\Pain Drain\libraries\lvgl\src\widgets/lv_canvas.c ****     for(y = 0; y < dest_img->header.h; y++) {
 192:..\..\..\arduinoLCD\test\Pain Drain\libraries\lvgl\src\widgets/lv_canvas.c ****         if(y + offset_y >= 0) {
 193:..\..\..\arduinoLCD\test\Pain Drain\libraries\lvgl\src\widgets/lv_canvas.c ****             lv_draw_sw_transform(NULL, &dest_area, src_img->data, src_img->header.w, src_img->heade
 194:..\..\..\arduinoLCD\test\Pain Drain\libraries\lvgl\src\widgets/lv_canvas.c ****                                  &draw_dsc, canvas->dsc.header.cf, cbuf, abuf);
 195:..\..\..\arduinoLCD\test\Pain Drain\libraries\lvgl\src\widgets/lv_canvas.c **** 
 196:..\..\..\arduinoLCD\test\Pain Drain\libraries\lvgl\src\widgets/lv_canvas.c ****             for(x = 0; x < dest_img->header.w; x++) {
 197:..\..\..\arduinoLCD\test\Pain Drain\libraries\lvgl\src\widgets/lv_canvas.c ****                 if(abuf[x]) {
 198:..\..\..\arduinoLCD\test\Pain Drain\libraries\lvgl\src\widgets/lv_canvas.c ****                     lv_img_buf_set_px_color(dest_img, x, y, cbuf[x]);
 199:..\..\..\arduinoLCD\test\Pain Drain\libraries\lvgl\src\widgets/lv_canvas.c ****                     lv_img_buf_set_px_alpha(dest_img, x, y, abuf[x]);
 200:..\..\..\arduinoLCD\test\Pain Drain\libraries\lvgl\src\widgets/lv_canvas.c ****                 }
 201:..\..\..\arduinoLCD\test\Pain Drain\libraries\lvgl\src\widgets/lv_canvas.c ****             }
 202:..\..\..\arduinoLCD\test\Pain Drain\libraries\lvgl\src\widgets/lv_canvas.c **** 
ARM GAS  C:\Users\haske\AppData\Local\Temp\ccxUXv8a.s 			page 5


 203:..\..\..\arduinoLCD\test\Pain Drain\libraries\lvgl\src\widgets/lv_canvas.c ****             dest_area.y1++;
 204:..\..\..\arduinoLCD\test\Pain Drain\libraries\lvgl\src\widgets/lv_canvas.c ****             dest_area.y2++;
 205:..\..\..\arduinoLCD\test\Pain Drain\libraries\lvgl\src\widgets/lv_canvas.c ****         }
 206:..\..\..\arduinoLCD\test\Pain Drain\libraries\lvgl\src\widgets/lv_canvas.c ****     }
 207:..\..\..\arduinoLCD\test\Pain Drain\libraries\lvgl\src\widgets/lv_canvas.c ****     lv_mem_free(cbuf);
 208:..\..\..\arduinoLCD\test\Pain Drain\libraries\lvgl\src\widgets/lv_canvas.c ****     lv_mem_free(abuf);
 209:..\..\..\arduinoLCD\test\Pain Drain\libraries\lvgl\src\widgets/lv_canvas.c **** 
 210:..\..\..\arduinoLCD\test\Pain Drain\libraries\lvgl\src\widgets/lv_canvas.c ****     lv_obj_invalidate(obj);
 211:..\..\..\arduinoLCD\test\Pain Drain\libraries\lvgl\src\widgets/lv_canvas.c **** 
 212:..\..\..\arduinoLCD\test\Pain Drain\libraries\lvgl\src\widgets/lv_canvas.c **** #else
 213:..\..\..\arduinoLCD\test\Pain Drain\libraries\lvgl\src\widgets/lv_canvas.c ****     LV_UNUSED(obj);
 214:..\..\..\arduinoLCD\test\Pain Drain\libraries\lvgl\src\widgets/lv_canvas.c ****     LV_UNUSED(src_img);
 215:..\..\..\arduinoLCD\test\Pain Drain\libraries\lvgl\src\widgets/lv_canvas.c ****     LV_UNUSED(angle);
 216:..\..\..\arduinoLCD\test\Pain Drain\libraries\lvgl\src\widgets/lv_canvas.c ****     LV_UNUSED(zoom);
 217:..\..\..\arduinoLCD\test\Pain Drain\libraries\lvgl\src\widgets/lv_canvas.c ****     LV_UNUSED(offset_x);
 218:..\..\..\arduinoLCD\test\Pain Drain\libraries\lvgl\src\widgets/lv_canvas.c ****     LV_UNUSED(offset_y);
 219:..\..\..\arduinoLCD\test\Pain Drain\libraries\lvgl\src\widgets/lv_canvas.c ****     LV_UNUSED(pivot_x);
 220:..\..\..\arduinoLCD\test\Pain Drain\libraries\lvgl\src\widgets/lv_canvas.c ****     LV_UNUSED(pivot_y);
 221:..\..\..\arduinoLCD\test\Pain Drain\libraries\lvgl\src\widgets/lv_canvas.c ****     LV_UNUSED(antialias);
 222:..\..\..\arduinoLCD\test\Pain Drain\libraries\lvgl\src\widgets/lv_canvas.c ****     LV_LOG_WARN("Can't transform canvas with LV_DRAW_COMPLEX == 0");
 223:..\..\..\arduinoLCD\test\Pain Drain\libraries\lvgl\src\widgets/lv_canvas.c **** #endif
 224:..\..\..\arduinoLCD\test\Pain Drain\libraries\lvgl\src\widgets/lv_canvas.c **** }
 225:..\..\..\arduinoLCD\test\Pain Drain\libraries\lvgl\src\widgets/lv_canvas.c **** 
 226:..\..\..\arduinoLCD\test\Pain Drain\libraries\lvgl\src\widgets/lv_canvas.c **** void lv_canvas_blur_hor(lv_obj_t * obj, const lv_area_t * area, uint16_t r)
 227:..\..\..\arduinoLCD\test\Pain Drain\libraries\lvgl\src\widgets/lv_canvas.c **** {
 228:..\..\..\arduinoLCD\test\Pain Drain\libraries\lvgl\src\widgets/lv_canvas.c ****     LV_ASSERT_OBJ(obj, MY_CLASS);
 229:..\..\..\arduinoLCD\test\Pain Drain\libraries\lvgl\src\widgets/lv_canvas.c **** 
 230:..\..\..\arduinoLCD\test\Pain Drain\libraries\lvgl\src\widgets/lv_canvas.c ****     if(r == 0) return;
 231:..\..\..\arduinoLCD\test\Pain Drain\libraries\lvgl\src\widgets/lv_canvas.c **** 
 232:..\..\..\arduinoLCD\test\Pain Drain\libraries\lvgl\src\widgets/lv_canvas.c ****     lv_canvas_t * canvas = (lv_canvas_t *)obj;
 233:..\..\..\arduinoLCD\test\Pain Drain\libraries\lvgl\src\widgets/lv_canvas.c **** 
 234:..\..\..\arduinoLCD\test\Pain Drain\libraries\lvgl\src\widgets/lv_canvas.c ****     lv_area_t a;
 235:..\..\..\arduinoLCD\test\Pain Drain\libraries\lvgl\src\widgets/lv_canvas.c ****     if(area) {
 236:..\..\..\arduinoLCD\test\Pain Drain\libraries\lvgl\src\widgets/lv_canvas.c ****         lv_area_copy(&a, area);
 237:..\..\..\arduinoLCD\test\Pain Drain\libraries\lvgl\src\widgets/lv_canvas.c ****         if(a.x1 < 0) a.x1 = 0;
 238:..\..\..\arduinoLCD\test\Pain Drain\libraries\lvgl\src\widgets/lv_canvas.c ****         if(a.y1 < 0) a.y1 = 0;
 239:..\..\..\arduinoLCD\test\Pain Drain\libraries\lvgl\src\widgets/lv_canvas.c ****         if(a.x2 > canvas->dsc.header.w - 1) a.x2 = canvas->dsc.header.w - 1;
 240:..\..\..\arduinoLCD\test\Pain Drain\libraries\lvgl\src\widgets/lv_canvas.c ****         if(a.y2 > canvas->dsc.header.h - 1) a.y2 = canvas->dsc.header.h - 1;
 241:..\..\..\arduinoLCD\test\Pain Drain\libraries\lvgl\src\widgets/lv_canvas.c ****     }
 242:..\..\..\arduinoLCD\test\Pain Drain\libraries\lvgl\src\widgets/lv_canvas.c ****     else {
 243:..\..\..\arduinoLCD\test\Pain Drain\libraries\lvgl\src\widgets/lv_canvas.c ****         a.x1 = 0;
 244:..\..\..\arduinoLCD\test\Pain Drain\libraries\lvgl\src\widgets/lv_canvas.c ****         a.y1 = 0;
 245:..\..\..\arduinoLCD\test\Pain Drain\libraries\lvgl\src\widgets/lv_canvas.c ****         a.x2 = canvas->dsc.header.w - 1;
 246:..\..\..\arduinoLCD\test\Pain Drain\libraries\lvgl\src\widgets/lv_canvas.c ****         a.y2 = canvas->dsc.header.h - 1;
 247:..\..\..\arduinoLCD\test\Pain Drain\libraries\lvgl\src\widgets/lv_canvas.c ****     }
 248:..\..\..\arduinoLCD\test\Pain Drain\libraries\lvgl\src\widgets/lv_canvas.c **** 
 249:..\..\..\arduinoLCD\test\Pain Drain\libraries\lvgl\src\widgets/lv_canvas.c ****     lv_color_t color = lv_obj_get_style_img_recolor(obj, LV_PART_MAIN);
 250:..\..\..\arduinoLCD\test\Pain Drain\libraries\lvgl\src\widgets/lv_canvas.c **** 
 251:..\..\..\arduinoLCD\test\Pain Drain\libraries\lvgl\src\widgets/lv_canvas.c ****     uint16_t r_back = r / 2;
 252:..\..\..\arduinoLCD\test\Pain Drain\libraries\lvgl\src\widgets/lv_canvas.c ****     uint16_t r_front = r / 2;
 253:..\..\..\arduinoLCD\test\Pain Drain\libraries\lvgl\src\widgets/lv_canvas.c **** 
 254:..\..\..\arduinoLCD\test\Pain Drain\libraries\lvgl\src\widgets/lv_canvas.c ****     if((r & 0x1) == 0) r_back--;
 255:..\..\..\arduinoLCD\test\Pain Drain\libraries\lvgl\src\widgets/lv_canvas.c **** 
 256:..\..\..\arduinoLCD\test\Pain Drain\libraries\lvgl\src\widgets/lv_canvas.c ****     bool has_alpha = lv_img_cf_has_alpha(canvas->dsc.header.cf);
 257:..\..\..\arduinoLCD\test\Pain Drain\libraries\lvgl\src\widgets/lv_canvas.c **** 
 258:..\..\..\arduinoLCD\test\Pain Drain\libraries\lvgl\src\widgets/lv_canvas.c ****     lv_coord_t line_w = lv_img_buf_get_img_size(canvas->dsc.header.w, 1, canvas->dsc.header.cf);
 259:..\..\..\arduinoLCD\test\Pain Drain\libraries\lvgl\src\widgets/lv_canvas.c ****     uint8_t * line_buf = lv_mem_buf_get(line_w);
ARM GAS  C:\Users\haske\AppData\Local\Temp\ccxUXv8a.s 			page 6


 260:..\..\..\arduinoLCD\test\Pain Drain\libraries\lvgl\src\widgets/lv_canvas.c **** 
 261:..\..\..\arduinoLCD\test\Pain Drain\libraries\lvgl\src\widgets/lv_canvas.c ****     lv_img_dsc_t line_img;
 262:..\..\..\arduinoLCD\test\Pain Drain\libraries\lvgl\src\widgets/lv_canvas.c ****     line_img.data = line_buf;
 263:..\..\..\arduinoLCD\test\Pain Drain\libraries\lvgl\src\widgets/lv_canvas.c ****     line_img.header.always_zero = 0;
 264:..\..\..\arduinoLCD\test\Pain Drain\libraries\lvgl\src\widgets/lv_canvas.c ****     line_img.header.w = canvas->dsc.header.w;
 265:..\..\..\arduinoLCD\test\Pain Drain\libraries\lvgl\src\widgets/lv_canvas.c ****     line_img.header.h = 1;
 266:..\..\..\arduinoLCD\test\Pain Drain\libraries\lvgl\src\widgets/lv_canvas.c ****     line_img.header.cf = canvas->dsc.header.cf;
 267:..\..\..\arduinoLCD\test\Pain Drain\libraries\lvgl\src\widgets/lv_canvas.c **** 
 268:..\..\..\arduinoLCD\test\Pain Drain\libraries\lvgl\src\widgets/lv_canvas.c ****     lv_coord_t x;
 269:..\..\..\arduinoLCD\test\Pain Drain\libraries\lvgl\src\widgets/lv_canvas.c ****     lv_coord_t y;
 270:..\..\..\arduinoLCD\test\Pain Drain\libraries\lvgl\src\widgets/lv_canvas.c ****     lv_coord_t x_safe;
 271:..\..\..\arduinoLCD\test\Pain Drain\libraries\lvgl\src\widgets/lv_canvas.c **** 
 272:..\..\..\arduinoLCD\test\Pain Drain\libraries\lvgl\src\widgets/lv_canvas.c ****     for(y = a.y1; y <= a.y2; y++) {
 273:..\..\..\arduinoLCD\test\Pain Drain\libraries\lvgl\src\widgets/lv_canvas.c ****         uint32_t asum = 0;
 274:..\..\..\arduinoLCD\test\Pain Drain\libraries\lvgl\src\widgets/lv_canvas.c ****         uint32_t rsum = 0;
 275:..\..\..\arduinoLCD\test\Pain Drain\libraries\lvgl\src\widgets/lv_canvas.c ****         uint32_t gsum = 0;
 276:..\..\..\arduinoLCD\test\Pain Drain\libraries\lvgl\src\widgets/lv_canvas.c ****         uint32_t bsum = 0;
 277:..\..\..\arduinoLCD\test\Pain Drain\libraries\lvgl\src\widgets/lv_canvas.c **** 
 278:..\..\..\arduinoLCD\test\Pain Drain\libraries\lvgl\src\widgets/lv_canvas.c ****         lv_color_t c;
 279:..\..\..\arduinoLCD\test\Pain Drain\libraries\lvgl\src\widgets/lv_canvas.c ****         lv_opa_t opa = LV_OPA_TRANSP;
 280:..\..\..\arduinoLCD\test\Pain Drain\libraries\lvgl\src\widgets/lv_canvas.c ****         lv_memcpy(line_buf, &canvas->dsc.data[y * line_w], line_w);
 281:..\..\..\arduinoLCD\test\Pain Drain\libraries\lvgl\src\widgets/lv_canvas.c **** 
 282:..\..\..\arduinoLCD\test\Pain Drain\libraries\lvgl\src\widgets/lv_canvas.c ****         for(x = a.x1 - r_back; x <= a.x1 + r_front; x++) {
 283:..\..\..\arduinoLCD\test\Pain Drain\libraries\lvgl\src\widgets/lv_canvas.c ****             x_safe = x < 0 ? 0 : x;
 284:..\..\..\arduinoLCD\test\Pain Drain\libraries\lvgl\src\widgets/lv_canvas.c ****             x_safe = x_safe > canvas->dsc.header.w - 1 ? canvas->dsc.header.w - 1 : x_safe;
 285:..\..\..\arduinoLCD\test\Pain Drain\libraries\lvgl\src\widgets/lv_canvas.c **** 
 286:..\..\..\arduinoLCD\test\Pain Drain\libraries\lvgl\src\widgets/lv_canvas.c ****             c = lv_img_buf_get_px_color(&line_img, x_safe, 0, color);
 287:..\..\..\arduinoLCD\test\Pain Drain\libraries\lvgl\src\widgets/lv_canvas.c ****             if(has_alpha) opa = lv_img_buf_get_px_alpha(&line_img, x_safe, 0);
 288:..\..\..\arduinoLCD\test\Pain Drain\libraries\lvgl\src\widgets/lv_canvas.c **** 
 289:..\..\..\arduinoLCD\test\Pain Drain\libraries\lvgl\src\widgets/lv_canvas.c ****             rsum += c.ch.red;
 290:..\..\..\arduinoLCD\test\Pain Drain\libraries\lvgl\src\widgets/lv_canvas.c **** #if LV_COLOR_DEPTH == 16 && LV_COLOR_16_SWAP
 291:..\..\..\arduinoLCD\test\Pain Drain\libraries\lvgl\src\widgets/lv_canvas.c ****             gsum += (c.ch.green_h << 3) + c.ch.green_l;
 292:..\..\..\arduinoLCD\test\Pain Drain\libraries\lvgl\src\widgets/lv_canvas.c **** #else
 293:..\..\..\arduinoLCD\test\Pain Drain\libraries\lvgl\src\widgets/lv_canvas.c ****             gsum += c.ch.green;
 294:..\..\..\arduinoLCD\test\Pain Drain\libraries\lvgl\src\widgets/lv_canvas.c **** #endif
 295:..\..\..\arduinoLCD\test\Pain Drain\libraries\lvgl\src\widgets/lv_canvas.c ****             bsum += c.ch.blue;
 296:..\..\..\arduinoLCD\test\Pain Drain\libraries\lvgl\src\widgets/lv_canvas.c ****             if(has_alpha) asum += opa;
 297:..\..\..\arduinoLCD\test\Pain Drain\libraries\lvgl\src\widgets/lv_canvas.c ****         }
 298:..\..\..\arduinoLCD\test\Pain Drain\libraries\lvgl\src\widgets/lv_canvas.c **** 
 299:..\..\..\arduinoLCD\test\Pain Drain\libraries\lvgl\src\widgets/lv_canvas.c ****         /*Just to indicate that the px is visible*/
 300:..\..\..\arduinoLCD\test\Pain Drain\libraries\lvgl\src\widgets/lv_canvas.c ****         if(has_alpha == false) asum = LV_OPA_COVER;
 301:..\..\..\arduinoLCD\test\Pain Drain\libraries\lvgl\src\widgets/lv_canvas.c **** 
 302:..\..\..\arduinoLCD\test\Pain Drain\libraries\lvgl\src\widgets/lv_canvas.c ****         for(x = a.x1; x <= a.x2; x++) {
 303:..\..\..\arduinoLCD\test\Pain Drain\libraries\lvgl\src\widgets/lv_canvas.c **** 
 304:..\..\..\arduinoLCD\test\Pain Drain\libraries\lvgl\src\widgets/lv_canvas.c ****             if(asum) {
 305:..\..\..\arduinoLCD\test\Pain Drain\libraries\lvgl\src\widgets/lv_canvas.c ****                 c.ch.red = rsum / r;
 306:..\..\..\arduinoLCD\test\Pain Drain\libraries\lvgl\src\widgets/lv_canvas.c **** #if LV_COLOR_DEPTH == 16 && LV_COLOR_16_SWAP
 307:..\..\..\arduinoLCD\test\Pain Drain\libraries\lvgl\src\widgets/lv_canvas.c ****                 uint8_t gtmp = gsum / r;
 308:..\..\..\arduinoLCD\test\Pain Drain\libraries\lvgl\src\widgets/lv_canvas.c ****                 c.ch.green_h = gtmp >> 3;
 309:..\..\..\arduinoLCD\test\Pain Drain\libraries\lvgl\src\widgets/lv_canvas.c ****                 c.ch.green_l = gtmp & 0x7;
 310:..\..\..\arduinoLCD\test\Pain Drain\libraries\lvgl\src\widgets/lv_canvas.c **** #else
 311:..\..\..\arduinoLCD\test\Pain Drain\libraries\lvgl\src\widgets/lv_canvas.c ****                 c.ch.green = gsum / r;
 312:..\..\..\arduinoLCD\test\Pain Drain\libraries\lvgl\src\widgets/lv_canvas.c **** #endif
 313:..\..\..\arduinoLCD\test\Pain Drain\libraries\lvgl\src\widgets/lv_canvas.c ****                 c.ch.blue = bsum / r;
 314:..\..\..\arduinoLCD\test\Pain Drain\libraries\lvgl\src\widgets/lv_canvas.c ****                 if(has_alpha) opa = asum / r;
 315:..\..\..\arduinoLCD\test\Pain Drain\libraries\lvgl\src\widgets/lv_canvas.c **** 
 316:..\..\..\arduinoLCD\test\Pain Drain\libraries\lvgl\src\widgets/lv_canvas.c ****                 lv_img_buf_set_px_color(&canvas->dsc, x, y, c);
ARM GAS  C:\Users\haske\AppData\Local\Temp\ccxUXv8a.s 			page 7


 317:..\..\..\arduinoLCD\test\Pain Drain\libraries\lvgl\src\widgets/lv_canvas.c ****             }
 318:..\..\..\arduinoLCD\test\Pain Drain\libraries\lvgl\src\widgets/lv_canvas.c ****             if(has_alpha) lv_img_buf_set_px_alpha(&canvas->dsc, x, y, opa);
 319:..\..\..\arduinoLCD\test\Pain Drain\libraries\lvgl\src\widgets/lv_canvas.c **** 
 320:..\..\..\arduinoLCD\test\Pain Drain\libraries\lvgl\src\widgets/lv_canvas.c ****             x_safe = x - r_back;
 321:..\..\..\arduinoLCD\test\Pain Drain\libraries\lvgl\src\widgets/lv_canvas.c ****             x_safe = x_safe < 0 ? 0 : x_safe;
 322:..\..\..\arduinoLCD\test\Pain Drain\libraries\lvgl\src\widgets/lv_canvas.c ****             c = lv_img_buf_get_px_color(&line_img, x_safe, 0, color);
 323:..\..\..\arduinoLCD\test\Pain Drain\libraries\lvgl\src\widgets/lv_canvas.c ****             if(has_alpha) opa = lv_img_buf_get_px_alpha(&line_img, x_safe, 0);
 324:..\..\..\arduinoLCD\test\Pain Drain\libraries\lvgl\src\widgets/lv_canvas.c **** 
 325:..\..\..\arduinoLCD\test\Pain Drain\libraries\lvgl\src\widgets/lv_canvas.c ****             rsum -= c.ch.red;
 326:..\..\..\arduinoLCD\test\Pain Drain\libraries\lvgl\src\widgets/lv_canvas.c **** #if LV_COLOR_DEPTH == 16 && LV_COLOR_16_SWAP
 327:..\..\..\arduinoLCD\test\Pain Drain\libraries\lvgl\src\widgets/lv_canvas.c ****             gsum -= (c.ch.green_h << 3) + c.ch.green_l;
 328:..\..\..\arduinoLCD\test\Pain Drain\libraries\lvgl\src\widgets/lv_canvas.c **** #else
 329:..\..\..\arduinoLCD\test\Pain Drain\libraries\lvgl\src\widgets/lv_canvas.c ****             gsum -= c.ch.green;
 330:..\..\..\arduinoLCD\test\Pain Drain\libraries\lvgl\src\widgets/lv_canvas.c **** #endif
 331:..\..\..\arduinoLCD\test\Pain Drain\libraries\lvgl\src\widgets/lv_canvas.c ****             bsum -= c.ch.blue;
 332:..\..\..\arduinoLCD\test\Pain Drain\libraries\lvgl\src\widgets/lv_canvas.c ****             if(has_alpha) asum -= opa;
 333:..\..\..\arduinoLCD\test\Pain Drain\libraries\lvgl\src\widgets/lv_canvas.c **** 
 334:..\..\..\arduinoLCD\test\Pain Drain\libraries\lvgl\src\widgets/lv_canvas.c ****             x_safe = x + 1 + r_front;
 335:..\..\..\arduinoLCD\test\Pain Drain\libraries\lvgl\src\widgets/lv_canvas.c ****             x_safe = x_safe > canvas->dsc.header.w - 1 ? canvas->dsc.header.w - 1 : x_safe;
 336:..\..\..\arduinoLCD\test\Pain Drain\libraries\lvgl\src\widgets/lv_canvas.c ****             c = lv_img_buf_get_px_color(&line_img, x_safe, 0, lv_color_white());
 337:..\..\..\arduinoLCD\test\Pain Drain\libraries\lvgl\src\widgets/lv_canvas.c ****             if(has_alpha) opa = lv_img_buf_get_px_alpha(&line_img, x_safe, 0);
 338:..\..\..\arduinoLCD\test\Pain Drain\libraries\lvgl\src\widgets/lv_canvas.c **** 
 339:..\..\..\arduinoLCD\test\Pain Drain\libraries\lvgl\src\widgets/lv_canvas.c ****             rsum += c.ch.red;
 340:..\..\..\arduinoLCD\test\Pain Drain\libraries\lvgl\src\widgets/lv_canvas.c **** #if LV_COLOR_DEPTH == 16 && LV_COLOR_16_SWAP
 341:..\..\..\arduinoLCD\test\Pain Drain\libraries\lvgl\src\widgets/lv_canvas.c ****             gsum += (c.ch.green_h << 3) + c.ch.green_l;
 342:..\..\..\arduinoLCD\test\Pain Drain\libraries\lvgl\src\widgets/lv_canvas.c **** #else
 343:..\..\..\arduinoLCD\test\Pain Drain\libraries\lvgl\src\widgets/lv_canvas.c ****             gsum += c.ch.green;
 344:..\..\..\arduinoLCD\test\Pain Drain\libraries\lvgl\src\widgets/lv_canvas.c **** #endif
 345:..\..\..\arduinoLCD\test\Pain Drain\libraries\lvgl\src\widgets/lv_canvas.c ****             bsum += c.ch.blue;
 346:..\..\..\arduinoLCD\test\Pain Drain\libraries\lvgl\src\widgets/lv_canvas.c ****             if(has_alpha) asum += opa;
 347:..\..\..\arduinoLCD\test\Pain Drain\libraries\lvgl\src\widgets/lv_canvas.c ****         }
 348:..\..\..\arduinoLCD\test\Pain Drain\libraries\lvgl\src\widgets/lv_canvas.c ****     }
 349:..\..\..\arduinoLCD\test\Pain Drain\libraries\lvgl\src\widgets/lv_canvas.c ****     lv_obj_invalidate(obj);
 350:..\..\..\arduinoLCD\test\Pain Drain\libraries\lvgl\src\widgets/lv_canvas.c **** 
 351:..\..\..\arduinoLCD\test\Pain Drain\libraries\lvgl\src\widgets/lv_canvas.c ****     lv_mem_buf_release(line_buf);
 352:..\..\..\arduinoLCD\test\Pain Drain\libraries\lvgl\src\widgets/lv_canvas.c **** }
 353:..\..\..\arduinoLCD\test\Pain Drain\libraries\lvgl\src\widgets/lv_canvas.c **** 
 354:..\..\..\arduinoLCD\test\Pain Drain\libraries\lvgl\src\widgets/lv_canvas.c **** void lv_canvas_blur_ver(lv_obj_t * obj, const lv_area_t * area, uint16_t r)
 355:..\..\..\arduinoLCD\test\Pain Drain\libraries\lvgl\src\widgets/lv_canvas.c **** {
 356:..\..\..\arduinoLCD\test\Pain Drain\libraries\lvgl\src\widgets/lv_canvas.c ****     LV_ASSERT_OBJ(obj, MY_CLASS);
 357:..\..\..\arduinoLCD\test\Pain Drain\libraries\lvgl\src\widgets/lv_canvas.c **** 
 358:..\..\..\arduinoLCD\test\Pain Drain\libraries\lvgl\src\widgets/lv_canvas.c ****     if(r == 0) return;
 359:..\..\..\arduinoLCD\test\Pain Drain\libraries\lvgl\src\widgets/lv_canvas.c **** 
 360:..\..\..\arduinoLCD\test\Pain Drain\libraries\lvgl\src\widgets/lv_canvas.c ****     lv_canvas_t * canvas = (lv_canvas_t *)obj;
 361:..\..\..\arduinoLCD\test\Pain Drain\libraries\lvgl\src\widgets/lv_canvas.c **** 
 362:..\..\..\arduinoLCD\test\Pain Drain\libraries\lvgl\src\widgets/lv_canvas.c ****     lv_area_t a;
 363:..\..\..\arduinoLCD\test\Pain Drain\libraries\lvgl\src\widgets/lv_canvas.c ****     if(area) {
 364:..\..\..\arduinoLCD\test\Pain Drain\libraries\lvgl\src\widgets/lv_canvas.c ****         lv_area_copy(&a, area);
 365:..\..\..\arduinoLCD\test\Pain Drain\libraries\lvgl\src\widgets/lv_canvas.c ****         if(a.x1 < 0) a.x1 = 0;
 366:..\..\..\arduinoLCD\test\Pain Drain\libraries\lvgl\src\widgets/lv_canvas.c ****         if(a.y1 < 0) a.y1 = 0;
 367:..\..\..\arduinoLCD\test\Pain Drain\libraries\lvgl\src\widgets/lv_canvas.c ****         if(a.x2 > canvas->dsc.header.w - 1) a.x2 = canvas->dsc.header.w - 1;
 368:..\..\..\arduinoLCD\test\Pain Drain\libraries\lvgl\src\widgets/lv_canvas.c ****         if(a.y2 > canvas->dsc.header.h - 1) a.y2 = canvas->dsc.header.h - 1;
 369:..\..\..\arduinoLCD\test\Pain Drain\libraries\lvgl\src\widgets/lv_canvas.c ****     }
 370:..\..\..\arduinoLCD\test\Pain Drain\libraries\lvgl\src\widgets/lv_canvas.c ****     else {
 371:..\..\..\arduinoLCD\test\Pain Drain\libraries\lvgl\src\widgets/lv_canvas.c ****         a.x1 = 0;
 372:..\..\..\arduinoLCD\test\Pain Drain\libraries\lvgl\src\widgets/lv_canvas.c ****         a.y1 = 0;
 373:..\..\..\arduinoLCD\test\Pain Drain\libraries\lvgl\src\widgets/lv_canvas.c ****         a.x2 = canvas->dsc.header.w - 1;
ARM GAS  C:\Users\haske\AppData\Local\Temp\ccxUXv8a.s 			page 8


 374:..\..\..\arduinoLCD\test\Pain Drain\libraries\lvgl\src\widgets/lv_canvas.c ****         a.y2 = canvas->dsc.header.h - 1;
 375:..\..\..\arduinoLCD\test\Pain Drain\libraries\lvgl\src\widgets/lv_canvas.c ****     }
 376:..\..\..\arduinoLCD\test\Pain Drain\libraries\lvgl\src\widgets/lv_canvas.c **** 
 377:..\..\..\arduinoLCD\test\Pain Drain\libraries\lvgl\src\widgets/lv_canvas.c ****     lv_color_t color = lv_obj_get_style_img_recolor(obj, LV_PART_MAIN);
 378:..\..\..\arduinoLCD\test\Pain Drain\libraries\lvgl\src\widgets/lv_canvas.c **** 
 379:..\..\..\arduinoLCD\test\Pain Drain\libraries\lvgl\src\widgets/lv_canvas.c ****     uint16_t r_back = r / 2;
 380:..\..\..\arduinoLCD\test\Pain Drain\libraries\lvgl\src\widgets/lv_canvas.c ****     uint16_t r_front = r / 2;
 381:..\..\..\arduinoLCD\test\Pain Drain\libraries\lvgl\src\widgets/lv_canvas.c **** 
 382:..\..\..\arduinoLCD\test\Pain Drain\libraries\lvgl\src\widgets/lv_canvas.c ****     if((r & 0x1) == 0) r_back--;
 383:..\..\..\arduinoLCD\test\Pain Drain\libraries\lvgl\src\widgets/lv_canvas.c **** 
 384:..\..\..\arduinoLCD\test\Pain Drain\libraries\lvgl\src\widgets/lv_canvas.c ****     bool has_alpha = lv_img_cf_has_alpha(canvas->dsc.header.cf);
 385:..\..\..\arduinoLCD\test\Pain Drain\libraries\lvgl\src\widgets/lv_canvas.c ****     lv_coord_t col_w = lv_img_buf_get_img_size(1, canvas->dsc.header.h, canvas->dsc.header.cf);
 386:..\..\..\arduinoLCD\test\Pain Drain\libraries\lvgl\src\widgets/lv_canvas.c ****     uint8_t * col_buf = lv_mem_buf_get(col_w);
 387:..\..\..\arduinoLCD\test\Pain Drain\libraries\lvgl\src\widgets/lv_canvas.c ****     lv_img_dsc_t line_img;
 388:..\..\..\arduinoLCD\test\Pain Drain\libraries\lvgl\src\widgets/lv_canvas.c **** 
 389:..\..\..\arduinoLCD\test\Pain Drain\libraries\lvgl\src\widgets/lv_canvas.c ****     line_img.data = col_buf;
 390:..\..\..\arduinoLCD\test\Pain Drain\libraries\lvgl\src\widgets/lv_canvas.c ****     line_img.header.always_zero = 0;
 391:..\..\..\arduinoLCD\test\Pain Drain\libraries\lvgl\src\widgets/lv_canvas.c ****     line_img.header.w = 1;
 392:..\..\..\arduinoLCD\test\Pain Drain\libraries\lvgl\src\widgets/lv_canvas.c ****     line_img.header.h = canvas->dsc.header.h;
 393:..\..\..\arduinoLCD\test\Pain Drain\libraries\lvgl\src\widgets/lv_canvas.c ****     line_img.header.cf = canvas->dsc.header.cf;
 394:..\..\..\arduinoLCD\test\Pain Drain\libraries\lvgl\src\widgets/lv_canvas.c **** 
 395:..\..\..\arduinoLCD\test\Pain Drain\libraries\lvgl\src\widgets/lv_canvas.c ****     lv_coord_t x;
 396:..\..\..\arduinoLCD\test\Pain Drain\libraries\lvgl\src\widgets/lv_canvas.c ****     lv_coord_t y;
 397:..\..\..\arduinoLCD\test\Pain Drain\libraries\lvgl\src\widgets/lv_canvas.c ****     lv_coord_t y_safe;
 398:..\..\..\arduinoLCD\test\Pain Drain\libraries\lvgl\src\widgets/lv_canvas.c **** 
 399:..\..\..\arduinoLCD\test\Pain Drain\libraries\lvgl\src\widgets/lv_canvas.c ****     for(x = a.x1; x <= a.x2; x++) {
 400:..\..\..\arduinoLCD\test\Pain Drain\libraries\lvgl\src\widgets/lv_canvas.c ****         uint32_t asum = 0;
 401:..\..\..\arduinoLCD\test\Pain Drain\libraries\lvgl\src\widgets/lv_canvas.c ****         uint32_t rsum = 0;
 402:..\..\..\arduinoLCD\test\Pain Drain\libraries\lvgl\src\widgets/lv_canvas.c ****         uint32_t gsum = 0;
 403:..\..\..\arduinoLCD\test\Pain Drain\libraries\lvgl\src\widgets/lv_canvas.c ****         uint32_t bsum = 0;
 404:..\..\..\arduinoLCD\test\Pain Drain\libraries\lvgl\src\widgets/lv_canvas.c **** 
 405:..\..\..\arduinoLCD\test\Pain Drain\libraries\lvgl\src\widgets/lv_canvas.c ****         lv_color_t c;
 406:..\..\..\arduinoLCD\test\Pain Drain\libraries\lvgl\src\widgets/lv_canvas.c ****         lv_opa_t opa = LV_OPA_COVER;
 407:..\..\..\arduinoLCD\test\Pain Drain\libraries\lvgl\src\widgets/lv_canvas.c **** 
 408:..\..\..\arduinoLCD\test\Pain Drain\libraries\lvgl\src\widgets/lv_canvas.c ****         for(y = a.y1 - r_back; y <= a.y1 + r_front; y++) {
 409:..\..\..\arduinoLCD\test\Pain Drain\libraries\lvgl\src\widgets/lv_canvas.c ****             y_safe = y < 0 ? 0 : y;
 410:..\..\..\arduinoLCD\test\Pain Drain\libraries\lvgl\src\widgets/lv_canvas.c ****             y_safe = y_safe > canvas->dsc.header.h - 1 ? canvas->dsc.header.h - 1 : y_safe;
 411:..\..\..\arduinoLCD\test\Pain Drain\libraries\lvgl\src\widgets/lv_canvas.c **** 
 412:..\..\..\arduinoLCD\test\Pain Drain\libraries\lvgl\src\widgets/lv_canvas.c ****             c = lv_img_buf_get_px_color(&canvas->dsc, x, y_safe, color);
 413:..\..\..\arduinoLCD\test\Pain Drain\libraries\lvgl\src\widgets/lv_canvas.c ****             if(has_alpha) opa = lv_img_buf_get_px_alpha(&canvas->dsc, x, y_safe);
 414:..\..\..\arduinoLCD\test\Pain Drain\libraries\lvgl\src\widgets/lv_canvas.c **** 
 415:..\..\..\arduinoLCD\test\Pain Drain\libraries\lvgl\src\widgets/lv_canvas.c ****             lv_img_buf_set_px_color(&line_img, 0, y_safe, c);
 416:..\..\..\arduinoLCD\test\Pain Drain\libraries\lvgl\src\widgets/lv_canvas.c ****             if(has_alpha) lv_img_buf_set_px_alpha(&line_img, 0, y_safe, opa);
 417:..\..\..\arduinoLCD\test\Pain Drain\libraries\lvgl\src\widgets/lv_canvas.c **** 
 418:..\..\..\arduinoLCD\test\Pain Drain\libraries\lvgl\src\widgets/lv_canvas.c ****             rsum += c.ch.red;
 419:..\..\..\arduinoLCD\test\Pain Drain\libraries\lvgl\src\widgets/lv_canvas.c **** #if LV_COLOR_DEPTH == 16 && LV_COLOR_16_SWAP
 420:..\..\..\arduinoLCD\test\Pain Drain\libraries\lvgl\src\widgets/lv_canvas.c ****             gsum += (c.ch.green_h << 3) + c.ch.green_l;
 421:..\..\..\arduinoLCD\test\Pain Drain\libraries\lvgl\src\widgets/lv_canvas.c **** #else
 422:..\..\..\arduinoLCD\test\Pain Drain\libraries\lvgl\src\widgets/lv_canvas.c ****             gsum += c.ch.green;
 423:..\..\..\arduinoLCD\test\Pain Drain\libraries\lvgl\src\widgets/lv_canvas.c **** #endif
 424:..\..\..\arduinoLCD\test\Pain Drain\libraries\lvgl\src\widgets/lv_canvas.c ****             bsum += c.ch.blue;
 425:..\..\..\arduinoLCD\test\Pain Drain\libraries\lvgl\src\widgets/lv_canvas.c ****             if(has_alpha) asum += opa;
 426:..\..\..\arduinoLCD\test\Pain Drain\libraries\lvgl\src\widgets/lv_canvas.c ****         }
 427:..\..\..\arduinoLCD\test\Pain Drain\libraries\lvgl\src\widgets/lv_canvas.c **** 
 428:..\..\..\arduinoLCD\test\Pain Drain\libraries\lvgl\src\widgets/lv_canvas.c ****         /*Just to indicate that the px is visible*/
 429:..\..\..\arduinoLCD\test\Pain Drain\libraries\lvgl\src\widgets/lv_canvas.c ****         if(has_alpha == false) asum = LV_OPA_COVER;
 430:..\..\..\arduinoLCD\test\Pain Drain\libraries\lvgl\src\widgets/lv_canvas.c **** 
ARM GAS  C:\Users\haske\AppData\Local\Temp\ccxUXv8a.s 			page 9


 431:..\..\..\arduinoLCD\test\Pain Drain\libraries\lvgl\src\widgets/lv_canvas.c ****         for(y = a.y1; y <= a.y2; y++) {
 432:..\..\..\arduinoLCD\test\Pain Drain\libraries\lvgl\src\widgets/lv_canvas.c ****             if(asum) {
 433:..\..\..\arduinoLCD\test\Pain Drain\libraries\lvgl\src\widgets/lv_canvas.c ****                 c.ch.red = rsum / r;
 434:..\..\..\arduinoLCD\test\Pain Drain\libraries\lvgl\src\widgets/lv_canvas.c **** #if LV_COLOR_DEPTH == 16 && LV_COLOR_16_SWAP
 435:..\..\..\arduinoLCD\test\Pain Drain\libraries\lvgl\src\widgets/lv_canvas.c ****                 uint8_t gtmp = gsum / r;
 436:..\..\..\arduinoLCD\test\Pain Drain\libraries\lvgl\src\widgets/lv_canvas.c ****                 c.ch.green_h = gtmp >> 3;
 437:..\..\..\arduinoLCD\test\Pain Drain\libraries\lvgl\src\widgets/lv_canvas.c ****                 c.ch.green_l = gtmp & 0x7;
 438:..\..\..\arduinoLCD\test\Pain Drain\libraries\lvgl\src\widgets/lv_canvas.c **** #else
 439:..\..\..\arduinoLCD\test\Pain Drain\libraries\lvgl\src\widgets/lv_canvas.c ****                 c.ch.green = gsum / r;
 440:..\..\..\arduinoLCD\test\Pain Drain\libraries\lvgl\src\widgets/lv_canvas.c **** #endif
 441:..\..\..\arduinoLCD\test\Pain Drain\libraries\lvgl\src\widgets/lv_canvas.c ****                 c.ch.blue = bsum / r;
 442:..\..\..\arduinoLCD\test\Pain Drain\libraries\lvgl\src\widgets/lv_canvas.c ****                 if(has_alpha) opa = asum / r;
 443:..\..\..\arduinoLCD\test\Pain Drain\libraries\lvgl\src\widgets/lv_canvas.c **** 
 444:..\..\..\arduinoLCD\test\Pain Drain\libraries\lvgl\src\widgets/lv_canvas.c ****                 lv_img_buf_set_px_color(&canvas->dsc, x, y, c);
 445:..\..\..\arduinoLCD\test\Pain Drain\libraries\lvgl\src\widgets/lv_canvas.c ****             }
 446:..\..\..\arduinoLCD\test\Pain Drain\libraries\lvgl\src\widgets/lv_canvas.c ****             if(has_alpha) lv_img_buf_set_px_alpha(&canvas->dsc, x, y, opa);
 447:..\..\..\arduinoLCD\test\Pain Drain\libraries\lvgl\src\widgets/lv_canvas.c **** 
 448:..\..\..\arduinoLCD\test\Pain Drain\libraries\lvgl\src\widgets/lv_canvas.c ****             y_safe = y - r_back;
 449:..\..\..\arduinoLCD\test\Pain Drain\libraries\lvgl\src\widgets/lv_canvas.c ****             y_safe = y_safe < 0 ? 0 : y_safe;
 450:..\..\..\arduinoLCD\test\Pain Drain\libraries\lvgl\src\widgets/lv_canvas.c ****             c = lv_img_buf_get_px_color(&line_img, 0, y_safe, color);
 451:..\..\..\arduinoLCD\test\Pain Drain\libraries\lvgl\src\widgets/lv_canvas.c ****             if(has_alpha) opa = lv_img_buf_get_px_alpha(&line_img, 0, y_safe);
 452:..\..\..\arduinoLCD\test\Pain Drain\libraries\lvgl\src\widgets/lv_canvas.c **** 
 453:..\..\..\arduinoLCD\test\Pain Drain\libraries\lvgl\src\widgets/lv_canvas.c ****             rsum -= c.ch.red;
 454:..\..\..\arduinoLCD\test\Pain Drain\libraries\lvgl\src\widgets/lv_canvas.c **** #if LV_COLOR_DEPTH == 16 && LV_COLOR_16_SWAP
 455:..\..\..\arduinoLCD\test\Pain Drain\libraries\lvgl\src\widgets/lv_canvas.c ****             gsum -= (c.ch.green_h << 3) + c.ch.green_l;
 456:..\..\..\arduinoLCD\test\Pain Drain\libraries\lvgl\src\widgets/lv_canvas.c **** #else
 457:..\..\..\arduinoLCD\test\Pain Drain\libraries\lvgl\src\widgets/lv_canvas.c ****             gsum -= c.ch.green;
 458:..\..\..\arduinoLCD\test\Pain Drain\libraries\lvgl\src\widgets/lv_canvas.c **** #endif
 459:..\..\..\arduinoLCD\test\Pain Drain\libraries\lvgl\src\widgets/lv_canvas.c ****             bsum -= c.ch.blue;
 460:..\..\..\arduinoLCD\test\Pain Drain\libraries\lvgl\src\widgets/lv_canvas.c ****             if(has_alpha) asum -= opa;
 461:..\..\..\arduinoLCD\test\Pain Drain\libraries\lvgl\src\widgets/lv_canvas.c **** 
 462:..\..\..\arduinoLCD\test\Pain Drain\libraries\lvgl\src\widgets/lv_canvas.c ****             y_safe = y + 1 + r_front;
 463:..\..\..\arduinoLCD\test\Pain Drain\libraries\lvgl\src\widgets/lv_canvas.c ****             y_safe = y_safe > canvas->dsc.header.h - 1 ? canvas->dsc.header.h - 1 : y_safe;
 464:..\..\..\arduinoLCD\test\Pain Drain\libraries\lvgl\src\widgets/lv_canvas.c **** 
 465:..\..\..\arduinoLCD\test\Pain Drain\libraries\lvgl\src\widgets/lv_canvas.c ****             c = lv_img_buf_get_px_color(&canvas->dsc, x, y_safe, color);
 466:..\..\..\arduinoLCD\test\Pain Drain\libraries\lvgl\src\widgets/lv_canvas.c ****             if(has_alpha) opa = lv_img_buf_get_px_alpha(&canvas->dsc, x, y_safe);
 467:..\..\..\arduinoLCD\test\Pain Drain\libraries\lvgl\src\widgets/lv_canvas.c **** 
 468:..\..\..\arduinoLCD\test\Pain Drain\libraries\lvgl\src\widgets/lv_canvas.c ****             lv_img_buf_set_px_color(&line_img, 0, y_safe, c);
 469:..\..\..\arduinoLCD\test\Pain Drain\libraries\lvgl\src\widgets/lv_canvas.c ****             if(has_alpha) lv_img_buf_set_px_alpha(&line_img, 0, y_safe, opa);
 470:..\..\..\arduinoLCD\test\Pain Drain\libraries\lvgl\src\widgets/lv_canvas.c **** 
 471:..\..\..\arduinoLCD\test\Pain Drain\libraries\lvgl\src\widgets/lv_canvas.c ****             rsum += c.ch.red;
 472:..\..\..\arduinoLCD\test\Pain Drain\libraries\lvgl\src\widgets/lv_canvas.c **** #if LV_COLOR_DEPTH == 16 && LV_COLOR_16_SWAP
 473:..\..\..\arduinoLCD\test\Pain Drain\libraries\lvgl\src\widgets/lv_canvas.c ****             gsum += (c.ch.green_h << 3) + c.ch.green_l;
 474:..\..\..\arduinoLCD\test\Pain Drain\libraries\lvgl\src\widgets/lv_canvas.c **** #else
 475:..\..\..\arduinoLCD\test\Pain Drain\libraries\lvgl\src\widgets/lv_canvas.c ****             gsum += c.ch.green;
 476:..\..\..\arduinoLCD\test\Pain Drain\libraries\lvgl\src\widgets/lv_canvas.c **** #endif
 477:..\..\..\arduinoLCD\test\Pain Drain\libraries\lvgl\src\widgets/lv_canvas.c ****             bsum += c.ch.blue;
 478:..\..\..\arduinoLCD\test\Pain Drain\libraries\lvgl\src\widgets/lv_canvas.c ****             if(has_alpha) asum += opa;
 479:..\..\..\arduinoLCD\test\Pain Drain\libraries\lvgl\src\widgets/lv_canvas.c ****         }
 480:..\..\..\arduinoLCD\test\Pain Drain\libraries\lvgl\src\widgets/lv_canvas.c ****     }
 481:..\..\..\arduinoLCD\test\Pain Drain\libraries\lvgl\src\widgets/lv_canvas.c **** 
 482:..\..\..\arduinoLCD\test\Pain Drain\libraries\lvgl\src\widgets/lv_canvas.c ****     lv_obj_invalidate(obj);
 483:..\..\..\arduinoLCD\test\Pain Drain\libraries\lvgl\src\widgets/lv_canvas.c **** 
 484:..\..\..\arduinoLCD\test\Pain Drain\libraries\lvgl\src\widgets/lv_canvas.c ****     lv_mem_buf_release(col_buf);
 485:..\..\..\arduinoLCD\test\Pain Drain\libraries\lvgl\src\widgets/lv_canvas.c **** }
 486:..\..\..\arduinoLCD\test\Pain Drain\libraries\lvgl\src\widgets/lv_canvas.c **** 
 487:..\..\..\arduinoLCD\test\Pain Drain\libraries\lvgl\src\widgets/lv_canvas.c **** void lv_canvas_fill_bg(lv_obj_t * canvas, lv_color_t color, lv_opa_t opa)
ARM GAS  C:\Users\haske\AppData\Local\Temp\ccxUXv8a.s 			page 10


 488:..\..\..\arduinoLCD\test\Pain Drain\libraries\lvgl\src\widgets/lv_canvas.c **** {
 489:..\..\..\arduinoLCD\test\Pain Drain\libraries\lvgl\src\widgets/lv_canvas.c ****     LV_ASSERT_OBJ(canvas, MY_CLASS);
 490:..\..\..\arduinoLCD\test\Pain Drain\libraries\lvgl\src\widgets/lv_canvas.c **** 
 491:..\..\..\arduinoLCD\test\Pain Drain\libraries\lvgl\src\widgets/lv_canvas.c ****     lv_img_dsc_t * dsc = lv_canvas_get_img(canvas);
 492:..\..\..\arduinoLCD\test\Pain Drain\libraries\lvgl\src\widgets/lv_canvas.c **** 
 493:..\..\..\arduinoLCD\test\Pain Drain\libraries\lvgl\src\widgets/lv_canvas.c ****     if(dsc->header.cf == LV_IMG_CF_INDEXED_1BIT) {
 494:..\..\..\arduinoLCD\test\Pain Drain\libraries\lvgl\src\widgets/lv_canvas.c ****         uint32_t row_byte_cnt = (dsc->header.w + 7) >> 3;
 495:..\..\..\arduinoLCD\test\Pain Drain\libraries\lvgl\src\widgets/lv_canvas.c ****         /*+8 skip the palette*/
 496:..\..\..\arduinoLCD\test\Pain Drain\libraries\lvgl\src\widgets/lv_canvas.c ****         lv_memset((uint8_t *)dsc->data + 8, color.full ? 0xff : 0x00, row_byte_cnt * dsc->header.h)
 497:..\..\..\arduinoLCD\test\Pain Drain\libraries\lvgl\src\widgets/lv_canvas.c ****     }
 498:..\..\..\arduinoLCD\test\Pain Drain\libraries\lvgl\src\widgets/lv_canvas.c ****     else if(dsc->header.cf == LV_IMG_CF_ALPHA_1BIT) {
 499:..\..\..\arduinoLCD\test\Pain Drain\libraries\lvgl\src\widgets/lv_canvas.c ****         uint32_t row_byte_cnt = (dsc->header.w + 7) >> 3;
 500:..\..\..\arduinoLCD\test\Pain Drain\libraries\lvgl\src\widgets/lv_canvas.c ****         lv_memset((uint8_t *)dsc->data, opa > LV_OPA_50 ? 0xff : 0x00, row_byte_cnt * dsc->header.h
 501:..\..\..\arduinoLCD\test\Pain Drain\libraries\lvgl\src\widgets/lv_canvas.c ****     }
 502:..\..\..\arduinoLCD\test\Pain Drain\libraries\lvgl\src\widgets/lv_canvas.c ****     else {
 503:..\..\..\arduinoLCD\test\Pain Drain\libraries\lvgl\src\widgets/lv_canvas.c ****         uint32_t x;
 504:..\..\..\arduinoLCD\test\Pain Drain\libraries\lvgl\src\widgets/lv_canvas.c ****         uint32_t y;
 505:..\..\..\arduinoLCD\test\Pain Drain\libraries\lvgl\src\widgets/lv_canvas.c ****         for(y = 0; y < dsc->header.h; y++) {
 506:..\..\..\arduinoLCD\test\Pain Drain\libraries\lvgl\src\widgets/lv_canvas.c ****             for(x = 0; x < dsc->header.w; x++) {
 507:..\..\..\arduinoLCD\test\Pain Drain\libraries\lvgl\src\widgets/lv_canvas.c ****                 lv_img_buf_set_px_color(dsc, x, y, color);
 508:..\..\..\arduinoLCD\test\Pain Drain\libraries\lvgl\src\widgets/lv_canvas.c ****                 lv_img_buf_set_px_alpha(dsc, x, y, opa);
 509:..\..\..\arduinoLCD\test\Pain Drain\libraries\lvgl\src\widgets/lv_canvas.c ****             }
 510:..\..\..\arduinoLCD\test\Pain Drain\libraries\lvgl\src\widgets/lv_canvas.c ****         }
 511:..\..\..\arduinoLCD\test\Pain Drain\libraries\lvgl\src\widgets/lv_canvas.c ****     }
 512:..\..\..\arduinoLCD\test\Pain Drain\libraries\lvgl\src\widgets/lv_canvas.c **** 
 513:..\..\..\arduinoLCD\test\Pain Drain\libraries\lvgl\src\widgets/lv_canvas.c ****     lv_obj_invalidate(canvas);
 514:..\..\..\arduinoLCD\test\Pain Drain\libraries\lvgl\src\widgets/lv_canvas.c **** }
 515:..\..\..\arduinoLCD\test\Pain Drain\libraries\lvgl\src\widgets/lv_canvas.c **** 
 516:..\..\..\arduinoLCD\test\Pain Drain\libraries\lvgl\src\widgets/lv_canvas.c **** void lv_canvas_draw_rect(lv_obj_t * canvas, lv_coord_t x, lv_coord_t y, lv_coord_t w, lv_coord_t h,
 517:..\..\..\arduinoLCD\test\Pain Drain\libraries\lvgl\src\widgets/lv_canvas.c ****                          const lv_draw_rect_dsc_t * draw_dsc)
 518:..\..\..\arduinoLCD\test\Pain Drain\libraries\lvgl\src\widgets/lv_canvas.c **** {
 519:..\..\..\arduinoLCD\test\Pain Drain\libraries\lvgl\src\widgets/lv_canvas.c ****     LV_ASSERT_OBJ(canvas, MY_CLASS);
 520:..\..\..\arduinoLCD\test\Pain Drain\libraries\lvgl\src\widgets/lv_canvas.c **** 
 521:..\..\..\arduinoLCD\test\Pain Drain\libraries\lvgl\src\widgets/lv_canvas.c ****     lv_img_dsc_t * dsc = lv_canvas_get_img(canvas);
 522:..\..\..\arduinoLCD\test\Pain Drain\libraries\lvgl\src\widgets/lv_canvas.c **** 
 523:..\..\..\arduinoLCD\test\Pain Drain\libraries\lvgl\src\widgets/lv_canvas.c ****     if(dsc->header.cf >= LV_IMG_CF_INDEXED_1BIT && dsc->header.cf <= LV_IMG_CF_INDEXED_8BIT) {
 524:..\..\..\arduinoLCD\test\Pain Drain\libraries\lvgl\src\widgets/lv_canvas.c ****         LV_LOG_WARN("lv_canvas_draw_rect: can't draw to LV_IMG_CF_INDEXED canvas");
 525:..\..\..\arduinoLCD\test\Pain Drain\libraries\lvgl\src\widgets/lv_canvas.c ****         return;
 526:..\..\..\arduinoLCD\test\Pain Drain\libraries\lvgl\src\widgets/lv_canvas.c ****     }
 527:..\..\..\arduinoLCD\test\Pain Drain\libraries\lvgl\src\widgets/lv_canvas.c **** 
 528:..\..\..\arduinoLCD\test\Pain Drain\libraries\lvgl\src\widgets/lv_canvas.c ****     /*Create a dummy display to fool the lv_draw function.
 529:..\..\..\arduinoLCD\test\Pain Drain\libraries\lvgl\src\widgets/lv_canvas.c ****      *It will think it draws to real screen.*/
 530:..\..\..\arduinoLCD\test\Pain Drain\libraries\lvgl\src\widgets/lv_canvas.c ****     lv_disp_t fake_disp;
 531:..\..\..\arduinoLCD\test\Pain Drain\libraries\lvgl\src\widgets/lv_canvas.c ****     lv_disp_drv_t driver;
 532:..\..\..\arduinoLCD\test\Pain Drain\libraries\lvgl\src\widgets/lv_canvas.c ****     lv_area_t clip_area;
 533:..\..\..\arduinoLCD\test\Pain Drain\libraries\lvgl\src\widgets/lv_canvas.c ****     init_fake_disp(canvas, &fake_disp, &driver, &clip_area);
 534:..\..\..\arduinoLCD\test\Pain Drain\libraries\lvgl\src\widgets/lv_canvas.c **** 
 535:..\..\..\arduinoLCD\test\Pain Drain\libraries\lvgl\src\widgets/lv_canvas.c ****     lv_disp_t * refr_ori = _lv_refr_get_disp_refreshing();
 536:..\..\..\arduinoLCD\test\Pain Drain\libraries\lvgl\src\widgets/lv_canvas.c ****     _lv_refr_set_disp_refreshing(&fake_disp);
 537:..\..\..\arduinoLCD\test\Pain Drain\libraries\lvgl\src\widgets/lv_canvas.c **** 
 538:..\..\..\arduinoLCD\test\Pain Drain\libraries\lvgl\src\widgets/lv_canvas.c ****     /*Disable anti-aliasing if drawing with transparent color to chroma keyed canvas*/
 539:..\..\..\arduinoLCD\test\Pain Drain\libraries\lvgl\src\widgets/lv_canvas.c ****     lv_color_t ctransp = LV_COLOR_CHROMA_KEY;
 540:..\..\..\arduinoLCD\test\Pain Drain\libraries\lvgl\src\widgets/lv_canvas.c ****     if(dsc->header.cf == LV_IMG_CF_TRUE_COLOR_CHROMA_KEYED &&
 541:..\..\..\arduinoLCD\test\Pain Drain\libraries\lvgl\src\widgets/lv_canvas.c ****        draw_dsc->bg_color.full == ctransp.full) {
 542:..\..\..\arduinoLCD\test\Pain Drain\libraries\lvgl\src\widgets/lv_canvas.c ****         fake_disp.driver->antialiasing = 0;
 543:..\..\..\arduinoLCD\test\Pain Drain\libraries\lvgl\src\widgets/lv_canvas.c ****     }
 544:..\..\..\arduinoLCD\test\Pain Drain\libraries\lvgl\src\widgets/lv_canvas.c **** 
ARM GAS  C:\Users\haske\AppData\Local\Temp\ccxUXv8a.s 			page 11


 545:..\..\..\arduinoLCD\test\Pain Drain\libraries\lvgl\src\widgets/lv_canvas.c ****     lv_area_t coords;
 546:..\..\..\arduinoLCD\test\Pain Drain\libraries\lvgl\src\widgets/lv_canvas.c ****     coords.x1 = x;
 547:..\..\..\arduinoLCD\test\Pain Drain\libraries\lvgl\src\widgets/lv_canvas.c ****     coords.y1 = y;
 548:..\..\..\arduinoLCD\test\Pain Drain\libraries\lvgl\src\widgets/lv_canvas.c ****     coords.x2 = x + w - 1;
 549:..\..\..\arduinoLCD\test\Pain Drain\libraries\lvgl\src\widgets/lv_canvas.c ****     coords.y2 = y + h - 1;
 550:..\..\..\arduinoLCD\test\Pain Drain\libraries\lvgl\src\widgets/lv_canvas.c **** 
 551:..\..\..\arduinoLCD\test\Pain Drain\libraries\lvgl\src\widgets/lv_canvas.c ****     lv_draw_rect(driver.draw_ctx, draw_dsc, &coords);
 552:..\..\..\arduinoLCD\test\Pain Drain\libraries\lvgl\src\widgets/lv_canvas.c **** 
 553:..\..\..\arduinoLCD\test\Pain Drain\libraries\lvgl\src\widgets/lv_canvas.c ****     _lv_refr_set_disp_refreshing(refr_ori);
 554:..\..\..\arduinoLCD\test\Pain Drain\libraries\lvgl\src\widgets/lv_canvas.c **** 
 555:..\..\..\arduinoLCD\test\Pain Drain\libraries\lvgl\src\widgets/lv_canvas.c ****     deinit_fake_disp(canvas, &fake_disp);
 556:..\..\..\arduinoLCD\test\Pain Drain\libraries\lvgl\src\widgets/lv_canvas.c **** 
 557:..\..\..\arduinoLCD\test\Pain Drain\libraries\lvgl\src\widgets/lv_canvas.c ****     lv_obj_invalidate(canvas);
 558:..\..\..\arduinoLCD\test\Pain Drain\libraries\lvgl\src\widgets/lv_canvas.c **** }
 559:..\..\..\arduinoLCD\test\Pain Drain\libraries\lvgl\src\widgets/lv_canvas.c **** 
 560:..\..\..\arduinoLCD\test\Pain Drain\libraries\lvgl\src\widgets/lv_canvas.c **** void lv_canvas_draw_text(lv_obj_t * canvas, lv_coord_t x, lv_coord_t y, lv_coord_t max_w,
 561:..\..\..\arduinoLCD\test\Pain Drain\libraries\lvgl\src\widgets/lv_canvas.c ****                          lv_draw_label_dsc_t * draw_dsc, const char * txt)
 562:..\..\..\arduinoLCD\test\Pain Drain\libraries\lvgl\src\widgets/lv_canvas.c **** {
 563:..\..\..\arduinoLCD\test\Pain Drain\libraries\lvgl\src\widgets/lv_canvas.c ****     LV_ASSERT_OBJ(canvas, MY_CLASS);
 564:..\..\..\arduinoLCD\test\Pain Drain\libraries\lvgl\src\widgets/lv_canvas.c **** 
 565:..\..\..\arduinoLCD\test\Pain Drain\libraries\lvgl\src\widgets/lv_canvas.c ****     lv_img_dsc_t * dsc = lv_canvas_get_img(canvas);
 566:..\..\..\arduinoLCD\test\Pain Drain\libraries\lvgl\src\widgets/lv_canvas.c **** 
 567:..\..\..\arduinoLCD\test\Pain Drain\libraries\lvgl\src\widgets/lv_canvas.c ****     if(dsc->header.cf >= LV_IMG_CF_INDEXED_1BIT && dsc->header.cf <= LV_IMG_CF_INDEXED_8BIT) {
 568:..\..\..\arduinoLCD\test\Pain Drain\libraries\lvgl\src\widgets/lv_canvas.c ****         LV_LOG_WARN("lv_canvas_draw_text: can't draw to LV_IMG_CF_INDEXED canvas");
 569:..\..\..\arduinoLCD\test\Pain Drain\libraries\lvgl\src\widgets/lv_canvas.c ****         return;
 570:..\..\..\arduinoLCD\test\Pain Drain\libraries\lvgl\src\widgets/lv_canvas.c ****     }
 571:..\..\..\arduinoLCD\test\Pain Drain\libraries\lvgl\src\widgets/lv_canvas.c **** 
 572:..\..\..\arduinoLCD\test\Pain Drain\libraries\lvgl\src\widgets/lv_canvas.c ****     /*Create a dummy display to fool the lv_draw function.
 573:..\..\..\arduinoLCD\test\Pain Drain\libraries\lvgl\src\widgets/lv_canvas.c ****      *It will think it draws to real screen.*/
 574:..\..\..\arduinoLCD\test\Pain Drain\libraries\lvgl\src\widgets/lv_canvas.c ****     lv_disp_t fake_disp;
 575:..\..\..\arduinoLCD\test\Pain Drain\libraries\lvgl\src\widgets/lv_canvas.c ****     lv_disp_drv_t driver;
 576:..\..\..\arduinoLCD\test\Pain Drain\libraries\lvgl\src\widgets/lv_canvas.c ****     lv_area_t clip_area;
 577:..\..\..\arduinoLCD\test\Pain Drain\libraries\lvgl\src\widgets/lv_canvas.c ****     init_fake_disp(canvas, &fake_disp, &driver, &clip_area);
 578:..\..\..\arduinoLCD\test\Pain Drain\libraries\lvgl\src\widgets/lv_canvas.c **** 
 579:..\..\..\arduinoLCD\test\Pain Drain\libraries\lvgl\src\widgets/lv_canvas.c ****     lv_disp_t * refr_ori = _lv_refr_get_disp_refreshing();
 580:..\..\..\arduinoLCD\test\Pain Drain\libraries\lvgl\src\widgets/lv_canvas.c ****     _lv_refr_set_disp_refreshing(&fake_disp);
 581:..\..\..\arduinoLCD\test\Pain Drain\libraries\lvgl\src\widgets/lv_canvas.c **** 
 582:..\..\..\arduinoLCD\test\Pain Drain\libraries\lvgl\src\widgets/lv_canvas.c ****     lv_area_t coords;
 583:..\..\..\arduinoLCD\test\Pain Drain\libraries\lvgl\src\widgets/lv_canvas.c ****     coords.x1 = x;
 584:..\..\..\arduinoLCD\test\Pain Drain\libraries\lvgl\src\widgets/lv_canvas.c ****     coords.y1 = y;
 585:..\..\..\arduinoLCD\test\Pain Drain\libraries\lvgl\src\widgets/lv_canvas.c ****     coords.x2 = x + max_w - 1;
 586:..\..\..\arduinoLCD\test\Pain Drain\libraries\lvgl\src\widgets/lv_canvas.c ****     coords.y2 = dsc->header.h - 1;
 587:..\..\..\arduinoLCD\test\Pain Drain\libraries\lvgl\src\widgets/lv_canvas.c ****     lv_draw_label(driver.draw_ctx, draw_dsc, &coords, txt, NULL);
 588:..\..\..\arduinoLCD\test\Pain Drain\libraries\lvgl\src\widgets/lv_canvas.c **** 
 589:..\..\..\arduinoLCD\test\Pain Drain\libraries\lvgl\src\widgets/lv_canvas.c ****     _lv_refr_set_disp_refreshing(refr_ori);
 590:..\..\..\arduinoLCD\test\Pain Drain\libraries\lvgl\src\widgets/lv_canvas.c **** 
 591:..\..\..\arduinoLCD\test\Pain Drain\libraries\lvgl\src\widgets/lv_canvas.c ****     deinit_fake_disp(canvas, &fake_disp);
 592:..\..\..\arduinoLCD\test\Pain Drain\libraries\lvgl\src\widgets/lv_canvas.c **** 
 593:..\..\..\arduinoLCD\test\Pain Drain\libraries\lvgl\src\widgets/lv_canvas.c ****     lv_obj_invalidate(canvas);
 594:..\..\..\arduinoLCD\test\Pain Drain\libraries\lvgl\src\widgets/lv_canvas.c **** }
 595:..\..\..\arduinoLCD\test\Pain Drain\libraries\lvgl\src\widgets/lv_canvas.c **** 
 596:..\..\..\arduinoLCD\test\Pain Drain\libraries\lvgl\src\widgets/lv_canvas.c **** void lv_canvas_draw_img(lv_obj_t * canvas, lv_coord_t x, lv_coord_t y, const void * src,
 597:..\..\..\arduinoLCD\test\Pain Drain\libraries\lvgl\src\widgets/lv_canvas.c ****                         const lv_draw_img_dsc_t * draw_dsc)
 598:..\..\..\arduinoLCD\test\Pain Drain\libraries\lvgl\src\widgets/lv_canvas.c **** {
 599:..\..\..\arduinoLCD\test\Pain Drain\libraries\lvgl\src\widgets/lv_canvas.c ****     LV_ASSERT_OBJ(canvas, MY_CLASS);
 600:..\..\..\arduinoLCD\test\Pain Drain\libraries\lvgl\src\widgets/lv_canvas.c **** 
 601:..\..\..\arduinoLCD\test\Pain Drain\libraries\lvgl\src\widgets/lv_canvas.c ****     lv_img_dsc_t * dsc = lv_canvas_get_img(canvas);
ARM GAS  C:\Users\haske\AppData\Local\Temp\ccxUXv8a.s 			page 12


 602:..\..\..\arduinoLCD\test\Pain Drain\libraries\lvgl\src\widgets/lv_canvas.c **** 
 603:..\..\..\arduinoLCD\test\Pain Drain\libraries\lvgl\src\widgets/lv_canvas.c ****     if(dsc->header.cf >= LV_IMG_CF_INDEXED_1BIT && dsc->header.cf <= LV_IMG_CF_INDEXED_8BIT) {
 604:..\..\..\arduinoLCD\test\Pain Drain\libraries\lvgl\src\widgets/lv_canvas.c ****         LV_LOG_WARN("lv_canvas_draw_img: can't draw to LV_IMG_CF_INDEXED canvas");
 605:..\..\..\arduinoLCD\test\Pain Drain\libraries\lvgl\src\widgets/lv_canvas.c ****         return;
 606:..\..\..\arduinoLCD\test\Pain Drain\libraries\lvgl\src\widgets/lv_canvas.c ****     }
 607:..\..\..\arduinoLCD\test\Pain Drain\libraries\lvgl\src\widgets/lv_canvas.c **** 
 608:..\..\..\arduinoLCD\test\Pain Drain\libraries\lvgl\src\widgets/lv_canvas.c ****     lv_img_header_t header;
 609:..\..\..\arduinoLCD\test\Pain Drain\libraries\lvgl\src\widgets/lv_canvas.c ****     lv_res_t res = lv_img_decoder_get_info(src, &header);
 610:..\..\..\arduinoLCD\test\Pain Drain\libraries\lvgl\src\widgets/lv_canvas.c ****     if(res != LV_RES_OK) {
 611:..\..\..\arduinoLCD\test\Pain Drain\libraries\lvgl\src\widgets/lv_canvas.c ****         LV_LOG_WARN("lv_canvas_draw_img: Couldn't get the image data.");
 612:..\..\..\arduinoLCD\test\Pain Drain\libraries\lvgl\src\widgets/lv_canvas.c ****         return;
 613:..\..\..\arduinoLCD\test\Pain Drain\libraries\lvgl\src\widgets/lv_canvas.c ****     }
 614:..\..\..\arduinoLCD\test\Pain Drain\libraries\lvgl\src\widgets/lv_canvas.c ****     /*Create a dummy display to fool the lv_draw function.
 615:..\..\..\arduinoLCD\test\Pain Drain\libraries\lvgl\src\widgets/lv_canvas.c ****      *It will think it draws to real screen.*/
 616:..\..\..\arduinoLCD\test\Pain Drain\libraries\lvgl\src\widgets/lv_canvas.c ****     lv_disp_t fake_disp;
 617:..\..\..\arduinoLCD\test\Pain Drain\libraries\lvgl\src\widgets/lv_canvas.c ****     lv_disp_drv_t driver;
 618:..\..\..\arduinoLCD\test\Pain Drain\libraries\lvgl\src\widgets/lv_canvas.c ****     lv_area_t clip_area;
 619:..\..\..\arduinoLCD\test\Pain Drain\libraries\lvgl\src\widgets/lv_canvas.c ****     init_fake_disp(canvas, &fake_disp, &driver, &clip_area);
 620:..\..\..\arduinoLCD\test\Pain Drain\libraries\lvgl\src\widgets/lv_canvas.c **** 
 621:..\..\..\arduinoLCD\test\Pain Drain\libraries\lvgl\src\widgets/lv_canvas.c ****     lv_disp_t * refr_ori = _lv_refr_get_disp_refreshing();
 622:..\..\..\arduinoLCD\test\Pain Drain\libraries\lvgl\src\widgets/lv_canvas.c ****     _lv_refr_set_disp_refreshing(&fake_disp);
 623:..\..\..\arduinoLCD\test\Pain Drain\libraries\lvgl\src\widgets/lv_canvas.c **** 
 624:..\..\..\arduinoLCD\test\Pain Drain\libraries\lvgl\src\widgets/lv_canvas.c ****     lv_area_t coords;
 625:..\..\..\arduinoLCD\test\Pain Drain\libraries\lvgl\src\widgets/lv_canvas.c ****     coords.x1 = x;
 626:..\..\..\arduinoLCD\test\Pain Drain\libraries\lvgl\src\widgets/lv_canvas.c ****     coords.y1 = y;
 627:..\..\..\arduinoLCD\test\Pain Drain\libraries\lvgl\src\widgets/lv_canvas.c ****     coords.x2 = x + header.w - 1;
 628:..\..\..\arduinoLCD\test\Pain Drain\libraries\lvgl\src\widgets/lv_canvas.c ****     coords.y2 = y + header.h - 1;
 629:..\..\..\arduinoLCD\test\Pain Drain\libraries\lvgl\src\widgets/lv_canvas.c **** 
 630:..\..\..\arduinoLCD\test\Pain Drain\libraries\lvgl\src\widgets/lv_canvas.c ****     lv_draw_img(driver.draw_ctx, draw_dsc, &coords, src);
 631:..\..\..\arduinoLCD\test\Pain Drain\libraries\lvgl\src\widgets/lv_canvas.c **** 
 632:..\..\..\arduinoLCD\test\Pain Drain\libraries\lvgl\src\widgets/lv_canvas.c ****     _lv_refr_set_disp_refreshing(refr_ori);
 633:..\..\..\arduinoLCD\test\Pain Drain\libraries\lvgl\src\widgets/lv_canvas.c **** 
 634:..\..\..\arduinoLCD\test\Pain Drain\libraries\lvgl\src\widgets/lv_canvas.c ****     deinit_fake_disp(canvas, &fake_disp);
 635:..\..\..\arduinoLCD\test\Pain Drain\libraries\lvgl\src\widgets/lv_canvas.c **** 
 636:..\..\..\arduinoLCD\test\Pain Drain\libraries\lvgl\src\widgets/lv_canvas.c ****     lv_obj_invalidate(canvas);
 637:..\..\..\arduinoLCD\test\Pain Drain\libraries\lvgl\src\widgets/lv_canvas.c **** }
 638:..\..\..\arduinoLCD\test\Pain Drain\libraries\lvgl\src\widgets/lv_canvas.c **** 
 639:..\..\..\arduinoLCD\test\Pain Drain\libraries\lvgl\src\widgets/lv_canvas.c **** void lv_canvas_draw_line(lv_obj_t * canvas, const lv_point_t points[], uint32_t point_cnt,
 640:..\..\..\arduinoLCD\test\Pain Drain\libraries\lvgl\src\widgets/lv_canvas.c ****                          const lv_draw_line_dsc_t * draw_dsc)
 641:..\..\..\arduinoLCD\test\Pain Drain\libraries\lvgl\src\widgets/lv_canvas.c **** {
 642:..\..\..\arduinoLCD\test\Pain Drain\libraries\lvgl\src\widgets/lv_canvas.c ****     LV_ASSERT_OBJ(canvas, MY_CLASS);
 643:..\..\..\arduinoLCD\test\Pain Drain\libraries\lvgl\src\widgets/lv_canvas.c **** 
 644:..\..\..\arduinoLCD\test\Pain Drain\libraries\lvgl\src\widgets/lv_canvas.c ****     lv_img_dsc_t * dsc = lv_canvas_get_img(canvas);
 645:..\..\..\arduinoLCD\test\Pain Drain\libraries\lvgl\src\widgets/lv_canvas.c **** 
 646:..\..\..\arduinoLCD\test\Pain Drain\libraries\lvgl\src\widgets/lv_canvas.c ****     if(dsc->header.cf >= LV_IMG_CF_INDEXED_1BIT && dsc->header.cf <= LV_IMG_CF_INDEXED_8BIT) {
 647:..\..\..\arduinoLCD\test\Pain Drain\libraries\lvgl\src\widgets/lv_canvas.c ****         LV_LOG_WARN("lv_canvas_draw_line: can't draw to LV_IMG_CF_INDEXED canvas");
 648:..\..\..\arduinoLCD\test\Pain Drain\libraries\lvgl\src\widgets/lv_canvas.c ****         return;
 649:..\..\..\arduinoLCD\test\Pain Drain\libraries\lvgl\src\widgets/lv_canvas.c ****     }
 650:..\..\..\arduinoLCD\test\Pain Drain\libraries\lvgl\src\widgets/lv_canvas.c **** 
 651:..\..\..\arduinoLCD\test\Pain Drain\libraries\lvgl\src\widgets/lv_canvas.c ****     /*Create a dummy display to fool the lv_draw function.
 652:..\..\..\arduinoLCD\test\Pain Drain\libraries\lvgl\src\widgets/lv_canvas.c ****      *It will think it draws to real screen.*/
 653:..\..\..\arduinoLCD\test\Pain Drain\libraries\lvgl\src\widgets/lv_canvas.c ****     lv_disp_t fake_disp;
 654:..\..\..\arduinoLCD\test\Pain Drain\libraries\lvgl\src\widgets/lv_canvas.c ****     lv_disp_drv_t driver;
 655:..\..\..\arduinoLCD\test\Pain Drain\libraries\lvgl\src\widgets/lv_canvas.c ****     lv_area_t clip_area;
 656:..\..\..\arduinoLCD\test\Pain Drain\libraries\lvgl\src\widgets/lv_canvas.c ****     init_fake_disp(canvas, &fake_disp, &driver, &clip_area);
 657:..\..\..\arduinoLCD\test\Pain Drain\libraries\lvgl\src\widgets/lv_canvas.c **** 
 658:..\..\..\arduinoLCD\test\Pain Drain\libraries\lvgl\src\widgets/lv_canvas.c ****     lv_disp_t * refr_ori = _lv_refr_get_disp_refreshing();
ARM GAS  C:\Users\haske\AppData\Local\Temp\ccxUXv8a.s 			page 13


 659:..\..\..\arduinoLCD\test\Pain Drain\libraries\lvgl\src\widgets/lv_canvas.c ****     _lv_refr_set_disp_refreshing(&fake_disp);
 660:..\..\..\arduinoLCD\test\Pain Drain\libraries\lvgl\src\widgets/lv_canvas.c **** 
 661:..\..\..\arduinoLCD\test\Pain Drain\libraries\lvgl\src\widgets/lv_canvas.c **** 
 662:..\..\..\arduinoLCD\test\Pain Drain\libraries\lvgl\src\widgets/lv_canvas.c ****     /*Disable anti-aliasing if drawing with transparent color to chroma keyed canvas*/
 663:..\..\..\arduinoLCD\test\Pain Drain\libraries\lvgl\src\widgets/lv_canvas.c ****     lv_color_t ctransp = LV_COLOR_CHROMA_KEY;
 664:..\..\..\arduinoLCD\test\Pain Drain\libraries\lvgl\src\widgets/lv_canvas.c ****     if(dsc->header.cf == LV_IMG_CF_TRUE_COLOR_CHROMA_KEYED &&
 665:..\..\..\arduinoLCD\test\Pain Drain\libraries\lvgl\src\widgets/lv_canvas.c ****        draw_dsc->color.full == ctransp.full) {
 666:..\..\..\arduinoLCD\test\Pain Drain\libraries\lvgl\src\widgets/lv_canvas.c ****         fake_disp.driver->antialiasing = 0;
 667:..\..\..\arduinoLCD\test\Pain Drain\libraries\lvgl\src\widgets/lv_canvas.c ****     }
 668:..\..\..\arduinoLCD\test\Pain Drain\libraries\lvgl\src\widgets/lv_canvas.c **** 
 669:..\..\..\arduinoLCD\test\Pain Drain\libraries\lvgl\src\widgets/lv_canvas.c ****     uint32_t i;
 670:..\..\..\arduinoLCD\test\Pain Drain\libraries\lvgl\src\widgets/lv_canvas.c ****     for(i = 0; i < point_cnt - 1; i++) {
 671:..\..\..\arduinoLCD\test\Pain Drain\libraries\lvgl\src\widgets/lv_canvas.c ****         lv_draw_line(driver.draw_ctx, draw_dsc, &points[i], &points[i + 1]);
 672:..\..\..\arduinoLCD\test\Pain Drain\libraries\lvgl\src\widgets/lv_canvas.c ****     }
 673:..\..\..\arduinoLCD\test\Pain Drain\libraries\lvgl\src\widgets/lv_canvas.c **** 
 674:..\..\..\arduinoLCD\test\Pain Drain\libraries\lvgl\src\widgets/lv_canvas.c ****     _lv_refr_set_disp_refreshing(refr_ori);
 675:..\..\..\arduinoLCD\test\Pain Drain\libraries\lvgl\src\widgets/lv_canvas.c **** 
 676:..\..\..\arduinoLCD\test\Pain Drain\libraries\lvgl\src\widgets/lv_canvas.c ****     deinit_fake_disp(canvas, &fake_disp);
 677:..\..\..\arduinoLCD\test\Pain Drain\libraries\lvgl\src\widgets/lv_canvas.c **** 
 678:..\..\..\arduinoLCD\test\Pain Drain\libraries\lvgl\src\widgets/lv_canvas.c ****     lv_obj_invalidate(canvas);
 679:..\..\..\arduinoLCD\test\Pain Drain\libraries\lvgl\src\widgets/lv_canvas.c **** }
 680:..\..\..\arduinoLCD\test\Pain Drain\libraries\lvgl\src\widgets/lv_canvas.c **** 
 681:..\..\..\arduinoLCD\test\Pain Drain\libraries\lvgl\src\widgets/lv_canvas.c **** void lv_canvas_draw_polygon(lv_obj_t * canvas, const lv_point_t points[], uint32_t point_cnt,
 682:..\..\..\arduinoLCD\test\Pain Drain\libraries\lvgl\src\widgets/lv_canvas.c ****                             const lv_draw_rect_dsc_t * draw_dsc)
 683:..\..\..\arduinoLCD\test\Pain Drain\libraries\lvgl\src\widgets/lv_canvas.c **** {
 684:..\..\..\arduinoLCD\test\Pain Drain\libraries\lvgl\src\widgets/lv_canvas.c ****     LV_ASSERT_OBJ(canvas, MY_CLASS);
 685:..\..\..\arduinoLCD\test\Pain Drain\libraries\lvgl\src\widgets/lv_canvas.c **** 
 686:..\..\..\arduinoLCD\test\Pain Drain\libraries\lvgl\src\widgets/lv_canvas.c ****     lv_img_dsc_t * dsc = lv_canvas_get_img(canvas);
 687:..\..\..\arduinoLCD\test\Pain Drain\libraries\lvgl\src\widgets/lv_canvas.c **** 
 688:..\..\..\arduinoLCD\test\Pain Drain\libraries\lvgl\src\widgets/lv_canvas.c ****     if(dsc->header.cf >= LV_IMG_CF_INDEXED_1BIT && dsc->header.cf <= LV_IMG_CF_INDEXED_8BIT) {
 689:..\..\..\arduinoLCD\test\Pain Drain\libraries\lvgl\src\widgets/lv_canvas.c ****         LV_LOG_WARN("lv_canvas_draw_polygon: can't draw to LV_IMG_CF_INDEXED canvas");
 690:..\..\..\arduinoLCD\test\Pain Drain\libraries\lvgl\src\widgets/lv_canvas.c ****         return;
 691:..\..\..\arduinoLCD\test\Pain Drain\libraries\lvgl\src\widgets/lv_canvas.c ****     }
 692:..\..\..\arduinoLCD\test\Pain Drain\libraries\lvgl\src\widgets/lv_canvas.c **** 
 693:..\..\..\arduinoLCD\test\Pain Drain\libraries\lvgl\src\widgets/lv_canvas.c ****     /*Create a dummy display to fool the lv_draw function.
 694:..\..\..\arduinoLCD\test\Pain Drain\libraries\lvgl\src\widgets/lv_canvas.c ****      *It will think it draws to real screen.*/
 695:..\..\..\arduinoLCD\test\Pain Drain\libraries\lvgl\src\widgets/lv_canvas.c ****     lv_disp_t fake_disp;
 696:..\..\..\arduinoLCD\test\Pain Drain\libraries\lvgl\src\widgets/lv_canvas.c ****     lv_disp_drv_t driver;
 697:..\..\..\arduinoLCD\test\Pain Drain\libraries\lvgl\src\widgets/lv_canvas.c ****     lv_area_t clip_area;
 698:..\..\..\arduinoLCD\test\Pain Drain\libraries\lvgl\src\widgets/lv_canvas.c ****     init_fake_disp(canvas, &fake_disp, &driver, &clip_area);
 699:..\..\..\arduinoLCD\test\Pain Drain\libraries\lvgl\src\widgets/lv_canvas.c **** 
 700:..\..\..\arduinoLCD\test\Pain Drain\libraries\lvgl\src\widgets/lv_canvas.c ****     lv_disp_t * refr_ori = _lv_refr_get_disp_refreshing();
 701:..\..\..\arduinoLCD\test\Pain Drain\libraries\lvgl\src\widgets/lv_canvas.c ****     _lv_refr_set_disp_refreshing(&fake_disp);
 702:..\..\..\arduinoLCD\test\Pain Drain\libraries\lvgl\src\widgets/lv_canvas.c **** 
 703:..\..\..\arduinoLCD\test\Pain Drain\libraries\lvgl\src\widgets/lv_canvas.c ****     /*Disable anti-aliasing if drawing with transparent color to chroma keyed canvas*/
 704:..\..\..\arduinoLCD\test\Pain Drain\libraries\lvgl\src\widgets/lv_canvas.c ****     lv_color_t ctransp = LV_COLOR_CHROMA_KEY;
 705:..\..\..\arduinoLCD\test\Pain Drain\libraries\lvgl\src\widgets/lv_canvas.c ****     if(dsc->header.cf == LV_IMG_CF_TRUE_COLOR_CHROMA_KEYED &&
 706:..\..\..\arduinoLCD\test\Pain Drain\libraries\lvgl\src\widgets/lv_canvas.c ****        draw_dsc->bg_color.full == ctransp.full) {
 707:..\..\..\arduinoLCD\test\Pain Drain\libraries\lvgl\src\widgets/lv_canvas.c ****         fake_disp.driver->antialiasing = 0;
 708:..\..\..\arduinoLCD\test\Pain Drain\libraries\lvgl\src\widgets/lv_canvas.c ****     }
 709:..\..\..\arduinoLCD\test\Pain Drain\libraries\lvgl\src\widgets/lv_canvas.c **** 
 710:..\..\..\arduinoLCD\test\Pain Drain\libraries\lvgl\src\widgets/lv_canvas.c ****     lv_draw_polygon(driver.draw_ctx, draw_dsc, points, point_cnt);
 711:..\..\..\arduinoLCD\test\Pain Drain\libraries\lvgl\src\widgets/lv_canvas.c **** 
 712:..\..\..\arduinoLCD\test\Pain Drain\libraries\lvgl\src\widgets/lv_canvas.c ****     _lv_refr_set_disp_refreshing(refr_ori);
 713:..\..\..\arduinoLCD\test\Pain Drain\libraries\lvgl\src\widgets/lv_canvas.c **** 
 714:..\..\..\arduinoLCD\test\Pain Drain\libraries\lvgl\src\widgets/lv_canvas.c ****     deinit_fake_disp(canvas, &fake_disp);
 715:..\..\..\arduinoLCD\test\Pain Drain\libraries\lvgl\src\widgets/lv_canvas.c **** 
ARM GAS  C:\Users\haske\AppData\Local\Temp\ccxUXv8a.s 			page 14


 716:..\..\..\arduinoLCD\test\Pain Drain\libraries\lvgl\src\widgets/lv_canvas.c ****     lv_obj_invalidate(canvas);
 717:..\..\..\arduinoLCD\test\Pain Drain\libraries\lvgl\src\widgets/lv_canvas.c **** }
 718:..\..\..\arduinoLCD\test\Pain Drain\libraries\lvgl\src\widgets/lv_canvas.c **** 
 719:..\..\..\arduinoLCD\test\Pain Drain\libraries\lvgl\src\widgets/lv_canvas.c **** void lv_canvas_draw_arc(lv_obj_t * canvas, lv_coord_t x, lv_coord_t y, lv_coord_t r, int32_t start_
 720:..\..\..\arduinoLCD\test\Pain Drain\libraries\lvgl\src\widgets/lv_canvas.c ****                         int32_t end_angle, const lv_draw_arc_dsc_t * draw_dsc)
 721:..\..\..\arduinoLCD\test\Pain Drain\libraries\lvgl\src\widgets/lv_canvas.c **** {
 722:..\..\..\arduinoLCD\test\Pain Drain\libraries\lvgl\src\widgets/lv_canvas.c **** #if LV_DRAW_COMPLEX
 723:..\..\..\arduinoLCD\test\Pain Drain\libraries\lvgl\src\widgets/lv_canvas.c ****     LV_ASSERT_OBJ(canvas, MY_CLASS);
 724:..\..\..\arduinoLCD\test\Pain Drain\libraries\lvgl\src\widgets/lv_canvas.c **** 
 725:..\..\..\arduinoLCD\test\Pain Drain\libraries\lvgl\src\widgets/lv_canvas.c ****     lv_img_dsc_t * dsc = lv_canvas_get_img(canvas);
 726:..\..\..\arduinoLCD\test\Pain Drain\libraries\lvgl\src\widgets/lv_canvas.c **** 
 727:..\..\..\arduinoLCD\test\Pain Drain\libraries\lvgl\src\widgets/lv_canvas.c ****     if(dsc->header.cf >= LV_IMG_CF_INDEXED_1BIT && dsc->header.cf <= LV_IMG_CF_INDEXED_8BIT) {
 728:..\..\..\arduinoLCD\test\Pain Drain\libraries\lvgl\src\widgets/lv_canvas.c ****         LV_LOG_WARN("lv_canvas_draw_arc: can't draw to LV_IMG_CF_INDEXED canvas");
 729:..\..\..\arduinoLCD\test\Pain Drain\libraries\lvgl\src\widgets/lv_canvas.c ****         return;
 730:..\..\..\arduinoLCD\test\Pain Drain\libraries\lvgl\src\widgets/lv_canvas.c ****     }
 731:..\..\..\arduinoLCD\test\Pain Drain\libraries\lvgl\src\widgets/lv_canvas.c **** 
 732:..\..\..\arduinoLCD\test\Pain Drain\libraries\lvgl\src\widgets/lv_canvas.c ****     /*Create a dummy display to fool the lv_draw function.
 733:..\..\..\arduinoLCD\test\Pain Drain\libraries\lvgl\src\widgets/lv_canvas.c ****      *It will think it draws to real screen.*/
 734:..\..\..\arduinoLCD\test\Pain Drain\libraries\lvgl\src\widgets/lv_canvas.c ****     lv_disp_t fake_disp;
 735:..\..\..\arduinoLCD\test\Pain Drain\libraries\lvgl\src\widgets/lv_canvas.c ****     lv_disp_drv_t driver;
 736:..\..\..\arduinoLCD\test\Pain Drain\libraries\lvgl\src\widgets/lv_canvas.c ****     lv_area_t clip_area;
 737:..\..\..\arduinoLCD\test\Pain Drain\libraries\lvgl\src\widgets/lv_canvas.c ****     init_fake_disp(canvas, &fake_disp, &driver, &clip_area);
 738:..\..\..\arduinoLCD\test\Pain Drain\libraries\lvgl\src\widgets/lv_canvas.c **** 
 739:..\..\..\arduinoLCD\test\Pain Drain\libraries\lvgl\src\widgets/lv_canvas.c ****     lv_disp_t * refr_ori = _lv_refr_get_disp_refreshing();
 740:..\..\..\arduinoLCD\test\Pain Drain\libraries\lvgl\src\widgets/lv_canvas.c ****     _lv_refr_set_disp_refreshing(&fake_disp);
 741:..\..\..\arduinoLCD\test\Pain Drain\libraries\lvgl\src\widgets/lv_canvas.c **** 
 742:..\..\..\arduinoLCD\test\Pain Drain\libraries\lvgl\src\widgets/lv_canvas.c ****     lv_point_t p = {x, y};
 743:..\..\..\arduinoLCD\test\Pain Drain\libraries\lvgl\src\widgets/lv_canvas.c ****     lv_draw_arc(driver.draw_ctx, draw_dsc, &p, r,  start_angle, end_angle);
 744:..\..\..\arduinoLCD\test\Pain Drain\libraries\lvgl\src\widgets/lv_canvas.c **** 
 745:..\..\..\arduinoLCD\test\Pain Drain\libraries\lvgl\src\widgets/lv_canvas.c ****     _lv_refr_set_disp_refreshing(refr_ori);
 746:..\..\..\arduinoLCD\test\Pain Drain\libraries\lvgl\src\widgets/lv_canvas.c **** 
 747:..\..\..\arduinoLCD\test\Pain Drain\libraries\lvgl\src\widgets/lv_canvas.c ****     deinit_fake_disp(canvas, &fake_disp);
 748:..\..\..\arduinoLCD\test\Pain Drain\libraries\lvgl\src\widgets/lv_canvas.c **** 
 749:..\..\..\arduinoLCD\test\Pain Drain\libraries\lvgl\src\widgets/lv_canvas.c ****     lv_obj_invalidate(canvas);
 750:..\..\..\arduinoLCD\test\Pain Drain\libraries\lvgl\src\widgets/lv_canvas.c **** #else
 751:..\..\..\arduinoLCD\test\Pain Drain\libraries\lvgl\src\widgets/lv_canvas.c ****     LV_UNUSED(canvas);
 752:..\..\..\arduinoLCD\test\Pain Drain\libraries\lvgl\src\widgets/lv_canvas.c ****     LV_UNUSED(x);
 753:..\..\..\arduinoLCD\test\Pain Drain\libraries\lvgl\src\widgets/lv_canvas.c ****     LV_UNUSED(y);
 754:..\..\..\arduinoLCD\test\Pain Drain\libraries\lvgl\src\widgets/lv_canvas.c ****     LV_UNUSED(r);
 755:..\..\..\arduinoLCD\test\Pain Drain\libraries\lvgl\src\widgets/lv_canvas.c ****     LV_UNUSED(start_angle);
 756:..\..\..\arduinoLCD\test\Pain Drain\libraries\lvgl\src\widgets/lv_canvas.c ****     LV_UNUSED(end_angle);
 757:..\..\..\arduinoLCD\test\Pain Drain\libraries\lvgl\src\widgets/lv_canvas.c ****     LV_UNUSED(draw_dsc);
 758:..\..\..\arduinoLCD\test\Pain Drain\libraries\lvgl\src\widgets/lv_canvas.c ****     LV_LOG_WARN("Can't draw arc with LV_DRAW_COMPLEX == 0");
 759:..\..\..\arduinoLCD\test\Pain Drain\libraries\lvgl\src\widgets/lv_canvas.c **** #endif
 760:..\..\..\arduinoLCD\test\Pain Drain\libraries\lvgl\src\widgets/lv_canvas.c **** }
 761:..\..\..\arduinoLCD\test\Pain Drain\libraries\lvgl\src\widgets/lv_canvas.c **** 
 762:..\..\..\arduinoLCD\test\Pain Drain\libraries\lvgl\src\widgets/lv_canvas.c **** /**********************
 763:..\..\..\arduinoLCD\test\Pain Drain\libraries\lvgl\src\widgets/lv_canvas.c ****  *   STATIC FUNCTIONS
 764:..\..\..\arduinoLCD\test\Pain Drain\libraries\lvgl\src\widgets/lv_canvas.c ****  **********************/
 765:..\..\..\arduinoLCD\test\Pain Drain\libraries\lvgl\src\widgets/lv_canvas.c **** 
 766:..\..\..\arduinoLCD\test\Pain Drain\libraries\lvgl\src\widgets/lv_canvas.c **** static void lv_canvas_constructor(const lv_obj_class_t * class_p, lv_obj_t * obj)
 767:..\..\..\arduinoLCD\test\Pain Drain\libraries\lvgl\src\widgets/lv_canvas.c **** {
 768:..\..\..\arduinoLCD\test\Pain Drain\libraries\lvgl\src\widgets/lv_canvas.c ****     LV_UNUSED(class_p);
 769:..\..\..\arduinoLCD\test\Pain Drain\libraries\lvgl\src\widgets/lv_canvas.c ****     LV_TRACE_OBJ_CREATE("begin");
 770:..\..\..\arduinoLCD\test\Pain Drain\libraries\lvgl\src\widgets/lv_canvas.c **** 
 771:..\..\..\arduinoLCD\test\Pain Drain\libraries\lvgl\src\widgets/lv_canvas.c ****     lv_canvas_t * canvas = (lv_canvas_t *)obj;
 772:..\..\..\arduinoLCD\test\Pain Drain\libraries\lvgl\src\widgets/lv_canvas.c **** 
ARM GAS  C:\Users\haske\AppData\Local\Temp\ccxUXv8a.s 			page 15


 773:..\..\..\arduinoLCD\test\Pain Drain\libraries\lvgl\src\widgets/lv_canvas.c ****     canvas->dsc.header.always_zero = 0;
 774:..\..\..\arduinoLCD\test\Pain Drain\libraries\lvgl\src\widgets/lv_canvas.c ****     canvas->dsc.header.cf          = LV_IMG_CF_TRUE_COLOR;
 775:..\..\..\arduinoLCD\test\Pain Drain\libraries\lvgl\src\widgets/lv_canvas.c ****     canvas->dsc.header.h           = 0;
 776:..\..\..\arduinoLCD\test\Pain Drain\libraries\lvgl\src\widgets/lv_canvas.c ****     canvas->dsc.header.w           = 0;
 777:..\..\..\arduinoLCD\test\Pain Drain\libraries\lvgl\src\widgets/lv_canvas.c ****     canvas->dsc.data_size          = 0;
 778:..\..\..\arduinoLCD\test\Pain Drain\libraries\lvgl\src\widgets/lv_canvas.c ****     canvas->dsc.data               = NULL;
 779:..\..\..\arduinoLCD\test\Pain Drain\libraries\lvgl\src\widgets/lv_canvas.c **** 
 780:..\..\..\arduinoLCD\test\Pain Drain\libraries\lvgl\src\widgets/lv_canvas.c ****     lv_img_set_src(obj, &canvas->dsc);
 781:..\..\..\arduinoLCD\test\Pain Drain\libraries\lvgl\src\widgets/lv_canvas.c **** 
 782:..\..\..\arduinoLCD\test\Pain Drain\libraries\lvgl\src\widgets/lv_canvas.c ****     LV_TRACE_OBJ_CREATE("finished");
 783:..\..\..\arduinoLCD\test\Pain Drain\libraries\lvgl\src\widgets/lv_canvas.c **** }
 784:..\..\..\arduinoLCD\test\Pain Drain\libraries\lvgl\src\widgets/lv_canvas.c **** 
 785:..\..\..\arduinoLCD\test\Pain Drain\libraries\lvgl\src\widgets/lv_canvas.c **** static void lv_canvas_destructor(const lv_obj_class_t * class_p, lv_obj_t * obj)
 786:..\..\..\arduinoLCD\test\Pain Drain\libraries\lvgl\src\widgets/lv_canvas.c **** {
  27              		.loc 1 786 0
  28              		.cfi_startproc
  29              		@ args = 0, pretend = 0, frame = 0
  30              		@ frame_needed = 0, uses_anonymous_args = 0
  31              	.LVL0:
  32 0000 10B5     		push	{r4, lr}
  33              		.cfi_def_cfa_offset 8
  34              		.cfi_offset 4, -8
  35              		.cfi_offset 14, -4
  36              	.LVL1:
 787:..\..\..\arduinoLCD\test\Pain Drain\libraries\lvgl\src\widgets/lv_canvas.c ****     LV_UNUSED(class_p);
 788:..\..\..\arduinoLCD\test\Pain Drain\libraries\lvgl\src\widgets/lv_canvas.c ****     LV_TRACE_OBJ_CREATE("begin");
 789:..\..\..\arduinoLCD\test\Pain Drain\libraries\lvgl\src\widgets/lv_canvas.c **** 
 790:..\..\..\arduinoLCD\test\Pain Drain\libraries\lvgl\src\widgets/lv_canvas.c ****     lv_canvas_t * canvas = (lv_canvas_t *)obj;
 791:..\..\..\arduinoLCD\test\Pain Drain\libraries\lvgl\src\widgets/lv_canvas.c ****     lv_img_cache_invalidate_src(&canvas->dsc);
  37              		.loc 1 791 0
  38 0002 3C31     		adds	r1, r1, #60
  39              	.LVL2:
  40 0004 0800     		movs	r0, r1
  41              	.LVL3:
  42 0006 FFF7FEFF 		bl	lv_img_cache_invalidate_src
  43              	.LVL4:
 792:..\..\..\arduinoLCD\test\Pain Drain\libraries\lvgl\src\widgets/lv_canvas.c **** }
  44              		.loc 1 792 0
  45              		@ sp needed
  46 000a 10BD     		pop	{r4, pc}
  47              		.cfi_endproc
  48              	.LFE179:
  49              		.size	lv_canvas_destructor, .-lv_canvas_destructor
  50              		.section	.text.lv_canvas_constructor,"ax",%progbits
  51              		.align	2
  52              		.code	16
  53              		.thumb_func
  54              		.type	lv_canvas_constructor, %function
  55              	lv_canvas_constructor:
  56              	.LFB178:
 767:..\..\..\arduinoLCD\test\Pain Drain\libraries\lvgl\src\widgets/lv_canvas.c ****     LV_UNUSED(class_p);
  57              		.loc 1 767 0
  58              		.cfi_startproc
  59              		@ args = 0, pretend = 0, frame = 0
  60              		@ frame_needed = 0, uses_anonymous_args = 0
  61              	.LVL5:
  62 0000 10B5     		push	{r4, lr}
ARM GAS  C:\Users\haske\AppData\Local\Temp\ccxUXv8a.s 			page 16


  63              		.cfi_def_cfa_offset 8
  64              		.cfi_offset 4, -8
  65              		.cfi_offset 14, -4
  66 0002 0800     		movs	r0, r1
  67              	.LVL6:
 774:..\..\..\arduinoLCD\test\Pain Drain\libraries\lvgl\src\widgets/lv_canvas.c ****     canvas->dsc.header.h           = 0;
  68              		.loc 1 774 0
  69 0004 0422     		movs	r2, #4
  70 0006 3C23     		movs	r3, #60
  71 0008 CA54     		strb	r2, [r1, r3]
 775:..\..\..\arduinoLCD\test\Pain Drain\libraries\lvgl\src\widgets/lv_canvas.c ****     canvas->dsc.header.w           = 0;
  72              		.loc 1 775 0
  73 000a CB8F     		ldrh	r3, [r1, #62]
  74 000c 1B32     		adds	r2, r2, #27
  75 000e 1340     		ands	r3, r2
  76 0010 CB87     		strh	r3, [r1, #62]
 776:..\..\..\arduinoLCD\test\Pain Drain\libraries\lvgl\src\widgets/lv_canvas.c ****     canvas->dsc.data_size          = 0;
  77              		.loc 1 776 0
  78 0012 054B     		ldr	r3, .L3
  79 0014 CA6B     		ldr	r2, [r1, #60]
  80 0016 1340     		ands	r3, r2
  81 0018 CB63     		str	r3, [r1, #60]
 777:..\..\..\arduinoLCD\test\Pain Drain\libraries\lvgl\src\widgets/lv_canvas.c ****     canvas->dsc.data               = NULL;
  82              		.loc 1 777 0
  83 001a 0023     		movs	r3, #0
  84 001c 0B64     		str	r3, [r1, #64]
 778:..\..\..\arduinoLCD\test\Pain Drain\libraries\lvgl\src\widgets/lv_canvas.c **** 
  85              		.loc 1 778 0
  86 001e 4B64     		str	r3, [r1, #68]
 780:..\..\..\arduinoLCD\test\Pain Drain\libraries\lvgl\src\widgets/lv_canvas.c **** 
  87              		.loc 1 780 0
  88 0020 3C31     		adds	r1, r1, #60
  89              	.LVL7:
  90 0022 FFF7FEFF 		bl	lv_img_set_src
  91              	.LVL8:
 783:..\..\..\arduinoLCD\test\Pain Drain\libraries\lvgl\src\widgets/lv_canvas.c **** 
  92              		.loc 1 783 0
  93              		@ sp needed
  94 0026 10BD     		pop	{r4, pc}
  95              	.L4:
  96              		.align	2
  97              	.L3:
  98 0028 FF03E0FF 		.word	-2096129
  99              		.cfi_endproc
 100              	.LFE178:
 101              		.size	lv_canvas_constructor, .-lv_canvas_constructor
 102              		.section	.text.deinit_fake_disp,"ax",%progbits
 103              		.align	2
 104              		.code	16
 105              		.thumb_func
 106              		.type	deinit_fake_disp, %function
 107              	deinit_fake_disp:
 108              	.LFB181:
 793:..\..\..\arduinoLCD\test\Pain Drain\libraries\lvgl\src\widgets/lv_canvas.c **** 
 794:..\..\..\arduinoLCD\test\Pain Drain\libraries\lvgl\src\widgets/lv_canvas.c **** 
 795:..\..\..\arduinoLCD\test\Pain Drain\libraries\lvgl\src\widgets/lv_canvas.c **** static void init_fake_disp(lv_obj_t * canvas, lv_disp_t * disp, lv_disp_drv_t * drv, lv_area_t * cl
 796:..\..\..\arduinoLCD\test\Pain Drain\libraries\lvgl\src\widgets/lv_canvas.c **** {
ARM GAS  C:\Users\haske\AppData\Local\Temp\ccxUXv8a.s 			page 17


 797:..\..\..\arduinoLCD\test\Pain Drain\libraries\lvgl\src\widgets/lv_canvas.c ****     lv_img_dsc_t * dsc = lv_canvas_get_img(canvas);
 798:..\..\..\arduinoLCD\test\Pain Drain\libraries\lvgl\src\widgets/lv_canvas.c **** 
 799:..\..\..\arduinoLCD\test\Pain Drain\libraries\lvgl\src\widgets/lv_canvas.c ****     clip_area->x1 = 0;
 800:..\..\..\arduinoLCD\test\Pain Drain\libraries\lvgl\src\widgets/lv_canvas.c ****     clip_area->x2 = dsc->header.w - 1;
 801:..\..\..\arduinoLCD\test\Pain Drain\libraries\lvgl\src\widgets/lv_canvas.c ****     clip_area->y1 = 0;
 802:..\..\..\arduinoLCD\test\Pain Drain\libraries\lvgl\src\widgets/lv_canvas.c ****     clip_area->y2 = dsc->header.h - 1;
 803:..\..\..\arduinoLCD\test\Pain Drain\libraries\lvgl\src\widgets/lv_canvas.c **** 
 804:..\..\..\arduinoLCD\test\Pain Drain\libraries\lvgl\src\widgets/lv_canvas.c ****     /*Allocate the fake driver on the stack as the entire display doesn't outlive this function*/
 805:..\..\..\arduinoLCD\test\Pain Drain\libraries\lvgl\src\widgets/lv_canvas.c ****     lv_memset_00(disp, sizeof(lv_disp_t));
 806:..\..\..\arduinoLCD\test\Pain Drain\libraries\lvgl\src\widgets/lv_canvas.c ****     disp->driver = drv;
 807:..\..\..\arduinoLCD\test\Pain Drain\libraries\lvgl\src\widgets/lv_canvas.c **** 
 808:..\..\..\arduinoLCD\test\Pain Drain\libraries\lvgl\src\widgets/lv_canvas.c ****     lv_disp_drv_init(disp->driver);
 809:..\..\..\arduinoLCD\test\Pain Drain\libraries\lvgl\src\widgets/lv_canvas.c ****     disp->driver->hor_res = dsc->header.w;
 810:..\..\..\arduinoLCD\test\Pain Drain\libraries\lvgl\src\widgets/lv_canvas.c ****     disp->driver->ver_res = dsc->header.h;
 811:..\..\..\arduinoLCD\test\Pain Drain\libraries\lvgl\src\widgets/lv_canvas.c **** 
 812:..\..\..\arduinoLCD\test\Pain Drain\libraries\lvgl\src\widgets/lv_canvas.c ****     lv_draw_ctx_t * draw_ctx = lv_mem_alloc(sizeof(lv_draw_sw_ctx_t));
 813:..\..\..\arduinoLCD\test\Pain Drain\libraries\lvgl\src\widgets/lv_canvas.c ****     LV_ASSERT_MALLOC(draw_ctx);
 814:..\..\..\arduinoLCD\test\Pain Drain\libraries\lvgl\src\widgets/lv_canvas.c ****     if(draw_ctx == NULL)  return;
 815:..\..\..\arduinoLCD\test\Pain Drain\libraries\lvgl\src\widgets/lv_canvas.c ****     lv_draw_sw_init_ctx(drv, draw_ctx);
 816:..\..\..\arduinoLCD\test\Pain Drain\libraries\lvgl\src\widgets/lv_canvas.c ****     disp->driver->draw_ctx = draw_ctx;
 817:..\..\..\arduinoLCD\test\Pain Drain\libraries\lvgl\src\widgets/lv_canvas.c ****     draw_ctx->clip_area = clip_area;
 818:..\..\..\arduinoLCD\test\Pain Drain\libraries\lvgl\src\widgets/lv_canvas.c ****     draw_ctx->buf_area = clip_area;
 819:..\..\..\arduinoLCD\test\Pain Drain\libraries\lvgl\src\widgets/lv_canvas.c ****     draw_ctx->buf = (void *)dsc->data;
 820:..\..\..\arduinoLCD\test\Pain Drain\libraries\lvgl\src\widgets/lv_canvas.c **** 
 821:..\..\..\arduinoLCD\test\Pain Drain\libraries\lvgl\src\widgets/lv_canvas.c ****     lv_disp_drv_use_generic_set_px_cb(disp->driver, dsc->header.cf);
 822:..\..\..\arduinoLCD\test\Pain Drain\libraries\lvgl\src\widgets/lv_canvas.c ****     if(LV_COLOR_SCREEN_TRANSP && dsc->header.cf != LV_IMG_CF_TRUE_COLOR_ALPHA) {
 823:..\..\..\arduinoLCD\test\Pain Drain\libraries\lvgl\src\widgets/lv_canvas.c ****         drv->screen_transp = 0;
 824:..\..\..\arduinoLCD\test\Pain Drain\libraries\lvgl\src\widgets/lv_canvas.c ****     }
 825:..\..\..\arduinoLCD\test\Pain Drain\libraries\lvgl\src\widgets/lv_canvas.c **** }
 826:..\..\..\arduinoLCD\test\Pain Drain\libraries\lvgl\src\widgets/lv_canvas.c **** 
 827:..\..\..\arduinoLCD\test\Pain Drain\libraries\lvgl\src\widgets/lv_canvas.c **** static void deinit_fake_disp(lv_obj_t * canvas, lv_disp_t * disp)
 828:..\..\..\arduinoLCD\test\Pain Drain\libraries\lvgl\src\widgets/lv_canvas.c **** {
 109              		.loc 1 828 0
 110              		.cfi_startproc
 111              		@ args = 0, pretend = 0, frame = 0
 112              		@ frame_needed = 0, uses_anonymous_args = 0
 113              	.LVL9:
 114 0000 10B5     		push	{r4, lr}
 115              		.cfi_def_cfa_offset 8
 116              		.cfi_offset 4, -8
 117              		.cfi_offset 14, -4
 118 0002 0C00     		movs	r4, r1
 829:..\..\..\arduinoLCD\test\Pain Drain\libraries\lvgl\src\widgets/lv_canvas.c ****     LV_UNUSED(canvas);
 830:..\..\..\arduinoLCD\test\Pain Drain\libraries\lvgl\src\widgets/lv_canvas.c ****     lv_draw_sw_deinit_ctx(disp->driver, disp->driver->draw_ctx);
 119              		.loc 1 830 0
 120 0004 0868     		ldr	r0, [r1]
 121              	.LVL10:
 122 0006 C16B     		ldr	r1, [r0, #60]
 123              	.LVL11:
 124 0008 FFF7FEFF 		bl	lv_draw_sw_deinit_ctx
 125              	.LVL12:
 831:..\..\..\arduinoLCD\test\Pain Drain\libraries\lvgl\src\widgets/lv_canvas.c ****     lv_mem_free(disp->driver->draw_ctx);
 126              		.loc 1 831 0
 127 000c 2368     		ldr	r3, [r4]
 128 000e D86B     		ldr	r0, [r3, #60]
 129 0010 FFF7FEFF 		bl	lv_mem_free
 130              	.LVL13:
ARM GAS  C:\Users\haske\AppData\Local\Temp\ccxUXv8a.s 			page 18


 832:..\..\..\arduinoLCD\test\Pain Drain\libraries\lvgl\src\widgets/lv_canvas.c **** }
 131              		.loc 1 832 0
 132              		@ sp needed
 133              	.LVL14:
 134 0014 10BD     		pop	{r4, pc}
 135              		.cfi_endproc
 136              	.LFE181:
 137              		.size	deinit_fake_disp, .-deinit_fake_disp
 138 0016 C046     		.section	.text.lv_canvas_create,"ax",%progbits
 139              		.align	2
 140              		.global	lv_canvas_create
 141              		.code	16
 142              		.thumb_func
 143              		.type	lv_canvas_create, %function
 144              	lv_canvas_create:
 145              	.LFB160:
  55:..\..\..\arduinoLCD\test\Pain Drain\libraries\lvgl\src\widgets/lv_canvas.c ****     LV_LOG_INFO("begin");
 146              		.loc 1 55 0
 147              		.cfi_startproc
 148              		@ args = 0, pretend = 0, frame = 0
 149              		@ frame_needed = 0, uses_anonymous_args = 0
 150              	.LVL15:
 151 0000 10B5     		push	{r4, lr}
 152              		.cfi_def_cfa_offset 8
 153              		.cfi_offset 4, -8
 154              		.cfi_offset 14, -4
 155 0002 0100     		movs	r1, r0
  57:..\..\..\arduinoLCD\test\Pain Drain\libraries\lvgl\src\widgets/lv_canvas.c ****     lv_obj_class_init_obj(obj);
 156              		.loc 1 57 0
 157 0004 0348     		ldr	r0, .L7
 158              	.LVL16:
 159 0006 FFF7FEFF 		bl	lv_obj_class_create_obj
 160              	.LVL17:
 161 000a 0400     		movs	r4, r0
 162              	.LVL18:
  58:..\..\..\arduinoLCD\test\Pain Drain\libraries\lvgl\src\widgets/lv_canvas.c ****     return obj;
 163              		.loc 1 58 0
 164 000c FFF7FEFF 		bl	lv_obj_class_init_obj
 165              	.LVL19:
  60:..\..\..\arduinoLCD\test\Pain Drain\libraries\lvgl\src\widgets/lv_canvas.c **** 
 166              		.loc 1 60 0
 167 0010 2000     		movs	r0, r4
 168              		@ sp needed
 169              	.LVL20:
 170 0012 10BD     		pop	{r4, pc}
 171              	.L8:
 172              		.align	2
 173              	.L7:
 174 0014 00000000 		.word	.LANCHOR0
 175              		.cfi_endproc
 176              	.LFE160:
 177              		.size	lv_canvas_create, .-lv_canvas_create
 178              		.section	.text.lv_canvas_set_buffer,"ax",%progbits
 179              		.align	2
 180              		.global	lv_canvas_set_buffer
 181              		.code	16
 182              		.thumb_func
ARM GAS  C:\Users\haske\AppData\Local\Temp\ccxUXv8a.s 			page 19


 183              		.type	lv_canvas_set_buffer, %function
 184              	lv_canvas_set_buffer:
 185              	.LFB161:
  67:..\..\..\arduinoLCD\test\Pain Drain\libraries\lvgl\src\widgets/lv_canvas.c ****     LV_ASSERT_OBJ(obj, MY_CLASS);
 186              		.loc 1 67 0
 187              		.cfi_startproc
 188              		@ args = 4, pretend = 0, frame = 0
 189              		@ frame_needed = 0, uses_anonymous_args = 0
 190              	.LVL21:
 191 0000 F8B5     		push	{r3, r4, r5, r6, r7, lr}
 192              		.cfi_def_cfa_offset 24
 193              		.cfi_offset 3, -24
 194              		.cfi_offset 4, -20
 195              		.cfi_offset 5, -16
 196              		.cfi_offset 6, -12
 197              		.cfi_offset 7, -8
 198              		.cfi_offset 14, -4
 199 0002 06AC     		add	r4, sp, #24
 200              	.LVL22:
 201 0004 2478     		ldrb	r4, [r4]
 202              	.LVL23:
  69:..\..\..\arduinoLCD\test\Pain Drain\libraries\lvgl\src\widgets/lv_canvas.c **** 
 203              		.loc 1 69 0
 204 0006 0029     		cmp	r1, #0
 205 0008 00D1     		bne	.L10
 206              	.L11:
 207 000a FEE7     		b	.L11
 208              	.L10:
 209              	.LVL24:
  73:..\..\..\arduinoLCD\test\Pain Drain\libraries\lvgl\src\widgets/lv_canvas.c ****     canvas->dsc.header.w  = w;
 210              		.loc 1 73 0
 211 000c 3C26     		movs	r6, #60
 212 000e 1F25     		movs	r5, #31
 213 0010 2540     		ands	r5, r4
 214 0012 845D     		ldrb	r4, [r0, r6]
 215 0014 1F27     		movs	r7, #31
 216 0016 BC43     		bics	r4, r7
 217 0018 2C43     		orrs	r4, r5
 218 001a 8455     		strb	r4, [r0, r6]
  74:..\..\..\arduinoLCD\test\Pain Drain\libraries\lvgl\src\widgets/lv_canvas.c ****     canvas->dsc.header.h  = h;
 219              		.loc 1 74 0
 220 001c 5205     		lsls	r2, r2, #21
 221              	.LVL25:
 222 001e D20A     		lsrs	r2, r2, #11
 223 0020 0A4C     		ldr	r4, .L12
 224 0022 C56B     		ldr	r5, [r0, #60]
 225 0024 2C40     		ands	r4, r5
 226 0026 2243     		orrs	r2, r4
 227 0028 C263     		str	r2, [r0, #60]
 228              	.LVL26:
  75:..\..\..\arduinoLCD\test\Pain Drain\libraries\lvgl\src\widgets/lv_canvas.c ****     canvas->dsc.data      = buf;
 229              		.loc 1 75 0
 230 002a 5B01     		lsls	r3, r3, #5
 231              	.LVL27:
 232 002c 120C     		lsrs	r2, r2, #16
 233 002e 1F24     		movs	r4, #31
 234 0030 2240     		ands	r2, r4
ARM GAS  C:\Users\haske\AppData\Local\Temp\ccxUXv8a.s 			page 20


 235 0032 1A43     		orrs	r2, r3
 236 0034 C287     		strh	r2, [r0, #62]
  76:..\..\..\arduinoLCD\test\Pain Drain\libraries\lvgl\src\widgets/lv_canvas.c **** 
 237              		.loc 1 76 0
 238 0036 4164     		str	r1, [r0, #68]
  78:..\..\..\arduinoLCD\test\Pain Drain\libraries\lvgl\src\widgets/lv_canvas.c ****     lv_img_cache_invalidate_src(&canvas->dsc);
 239              		.loc 1 78 0
 240 0038 0400     		movs	r4, r0
 241 003a 3C34     		adds	r4, r4, #60
 242 003c 2100     		movs	r1, r4
 243              	.LVL28:
 244 003e FFF7FEFF 		bl	lv_img_set_src
 245              	.LVL29:
  79:..\..\..\arduinoLCD\test\Pain Drain\libraries\lvgl\src\widgets/lv_canvas.c **** }
 246              		.loc 1 79 0
 247 0042 2000     		movs	r0, r4
 248 0044 FFF7FEFF 		bl	lv_img_cache_invalidate_src
 249              	.LVL30:
  80:..\..\..\arduinoLCD\test\Pain Drain\libraries\lvgl\src\widgets/lv_canvas.c **** 
 250              		.loc 1 80 0
 251              		@ sp needed
 252              	.LVL31:
 253 0048 F8BD     		pop	{r3, r4, r5, r6, r7, pc}
 254              	.L13:
 255 004a C046     		.align	2
 256              	.L12:
 257 004c FF03E0FF 		.word	-2096129
 258              		.cfi_endproc
 259              	.LFE161:
 260              		.size	lv_canvas_set_buffer, .-lv_canvas_set_buffer
 261              		.section	.text.lv_canvas_set_px_color,"ax",%progbits
 262              		.align	2
 263              		.global	lv_canvas_set_px_color
 264              		.code	16
 265              		.thumb_func
 266              		.type	lv_canvas_set_px_color, %function
 267              	lv_canvas_set_px_color:
 268              	.LFB162:
  83:..\..\..\arduinoLCD\test\Pain Drain\libraries\lvgl\src\widgets/lv_canvas.c ****     LV_ASSERT_OBJ(obj, MY_CLASS);
 269              		.loc 1 83 0
 270              		.cfi_startproc
 271              		@ args = 0, pretend = 0, frame = 0
 272              		@ frame_needed = 0, uses_anonymous_args = 0
 273              	.LVL32:
 274 0000 10B5     		push	{r4, lr}
 275              		.cfi_def_cfa_offset 8
 276              		.cfi_offset 4, -8
 277              		.cfi_offset 14, -4
 278 0002 0400     		movs	r4, r0
 279              	.LVL33:
  88:..\..\..\arduinoLCD\test\Pain Drain\libraries\lvgl\src\widgets/lv_canvas.c ****     lv_obj_invalidate(obj);
 280              		.loc 1 88 0
 281 0004 3C30     		adds	r0, r0, #60
 282              	.LVL34:
 283 0006 FFF7FEFF 		bl	lv_img_buf_set_px_color
 284              	.LVL35:
  89:..\..\..\arduinoLCD\test\Pain Drain\libraries\lvgl\src\widgets/lv_canvas.c **** }
ARM GAS  C:\Users\haske\AppData\Local\Temp\ccxUXv8a.s 			page 21


 285              		.loc 1 89 0
 286 000a 2000     		movs	r0, r4
 287 000c FFF7FEFF 		bl	lv_obj_invalidate
 288              	.LVL36:
  90:..\..\..\arduinoLCD\test\Pain Drain\libraries\lvgl\src\widgets/lv_canvas.c **** 
 289              		.loc 1 90 0
 290              		@ sp needed
 291              	.LVL37:
 292 0010 10BD     		pop	{r4, pc}
 293              		.cfi_endproc
 294              	.LFE162:
 295              		.size	lv_canvas_set_px_color, .-lv_canvas_set_px_color
 296 0012 C046     		.section	.text.lv_canvas_set_px_opa,"ax",%progbits
 297              		.align	2
 298              		.global	lv_canvas_set_px_opa
 299              		.code	16
 300              		.thumb_func
 301              		.type	lv_canvas_set_px_opa, %function
 302              	lv_canvas_set_px_opa:
 303              	.LFB163:
  93:..\..\..\arduinoLCD\test\Pain Drain\libraries\lvgl\src\widgets/lv_canvas.c ****     LV_ASSERT_OBJ(obj, MY_CLASS);
 304              		.loc 1 93 0
 305              		.cfi_startproc
 306              		@ args = 0, pretend = 0, frame = 0
 307              		@ frame_needed = 0, uses_anonymous_args = 0
 308              	.LVL38:
 309 0000 10B5     		push	{r4, lr}
 310              		.cfi_def_cfa_offset 8
 311              		.cfi_offset 4, -8
 312              		.cfi_offset 14, -4
 313 0002 0400     		movs	r4, r0
 314              	.LVL39:
  98:..\..\..\arduinoLCD\test\Pain Drain\libraries\lvgl\src\widgets/lv_canvas.c ****     lv_obj_invalidate(obj);
 315              		.loc 1 98 0
 316 0004 3C30     		adds	r0, r0, #60
 317              	.LVL40:
 318 0006 FFF7FEFF 		bl	lv_img_buf_set_px_alpha
 319              	.LVL41:
  99:..\..\..\arduinoLCD\test\Pain Drain\libraries\lvgl\src\widgets/lv_canvas.c **** }
 320              		.loc 1 99 0
 321 000a 2000     		movs	r0, r4
 322 000c FFF7FEFF 		bl	lv_obj_invalidate
 323              	.LVL42:
 100:..\..\..\arduinoLCD\test\Pain Drain\libraries\lvgl\src\widgets/lv_canvas.c **** 
 324              		.loc 1 100 0
 325              		@ sp needed
 326              	.LVL43:
 327 0010 10BD     		pop	{r4, pc}
 328              		.cfi_endproc
 329              	.LFE163:
 330              		.size	lv_canvas_set_px_opa, .-lv_canvas_set_px_opa
 331 0012 C046     		.section	.text.lv_canvas_set_palette,"ax",%progbits
 332              		.align	2
 333              		.global	lv_canvas_set_palette
 334              		.code	16
 335              		.thumb_func
 336              		.type	lv_canvas_set_palette, %function
ARM GAS  C:\Users\haske\AppData\Local\Temp\ccxUXv8a.s 			page 22


 337              	lv_canvas_set_palette:
 338              	.LFB164:
 103:..\..\..\arduinoLCD\test\Pain Drain\libraries\lvgl\src\widgets/lv_canvas.c ****     LV_ASSERT_OBJ(obj, MY_CLASS);
 339              		.loc 1 103 0
 340              		.cfi_startproc
 341              		@ args = 0, pretend = 0, frame = 0
 342              		@ frame_needed = 0, uses_anonymous_args = 0
 343              	.LVL44:
 344 0000 10B5     		push	{r4, lr}
 345              		.cfi_def_cfa_offset 8
 346              		.cfi_offset 4, -8
 347              		.cfi_offset 14, -4
 348 0002 0400     		movs	r4, r0
 349              	.LVL45:
 108:..\..\..\arduinoLCD\test\Pain Drain\libraries\lvgl\src\widgets/lv_canvas.c ****     lv_obj_invalidate(obj);
 350              		.loc 1 108 0
 351 0004 3C30     		adds	r0, r0, #60
 352              	.LVL46:
 353 0006 FFF7FEFF 		bl	lv_img_buf_set_palette
 354              	.LVL47:
 109:..\..\..\arduinoLCD\test\Pain Drain\libraries\lvgl\src\widgets/lv_canvas.c **** }
 355              		.loc 1 109 0
 356 000a 2000     		movs	r0, r4
 357 000c FFF7FEFF 		bl	lv_obj_invalidate
 358              	.LVL48:
 110:..\..\..\arduinoLCD\test\Pain Drain\libraries\lvgl\src\widgets/lv_canvas.c **** 
 359              		.loc 1 110 0
 360              		@ sp needed
 361              	.LVL49:
 362 0010 10BD     		pop	{r4, pc}
 363              		.cfi_endproc
 364              	.LFE164:
 365              		.size	lv_canvas_set_palette, .-lv_canvas_set_palette
 366 0012 C046     		.section	.text.lv_canvas_get_px,"ax",%progbits
 367              		.align	2
 368              		.global	lv_canvas_get_px
 369              		.code	16
 370              		.thumb_func
 371              		.type	lv_canvas_get_px, %function
 372              	lv_canvas_get_px:
 373              	.LFB165:
 117:..\..\..\arduinoLCD\test\Pain Drain\libraries\lvgl\src\widgets/lv_canvas.c ****     LV_ASSERT_OBJ(obj, MY_CLASS);
 374              		.loc 1 117 0
 375              		.cfi_startproc
 376              		@ args = 0, pretend = 0, frame = 0
 377              		@ frame_needed = 0, uses_anonymous_args = 0
 378              	.LVL50:
 379 0000 70B5     		push	{r4, r5, r6, lr}
 380              		.cfi_def_cfa_offset 16
 381              		.cfi_offset 4, -16
 382              		.cfi_offset 5, -12
 383              		.cfi_offset 6, -8
 384              		.cfi_offset 14, -4
 385 0002 0400     		movs	r4, r0
 386 0004 0D00     		movs	r5, r1
 387 0006 1600     		movs	r6, r2
 388              	.LVL51:
ARM GAS  C:\Users\haske\AppData\Local\Temp\ccxUXv8a.s 			page 23


 389              	.LBB26:
 390              	.LBB27:
 391              		.file 2 "..\\..\\..\\arduinoLCD\\test\\Pain Drain\\libraries\\lvgl\\src\\widgets\\../core/lv_obj_s
   1:..\..\..\arduinoLCD\test\Pain Drain\libraries\lvgl\src\widgets\../core/lv_obj_style_gen.h **** static inline lv_coord_t lv_obj_get_style_width(const struct _lv_obj_t * obj, uint32_t part)
   2:..\..\..\arduinoLCD\test\Pain Drain\libraries\lvgl\src\widgets\../core/lv_obj_style_gen.h **** {
   3:..\..\..\arduinoLCD\test\Pain Drain\libraries\lvgl\src\widgets\../core/lv_obj_style_gen.h ****     lv_style_value_t v = lv_obj_get_style_prop(obj, part, LV_STYLE_WIDTH);
   4:..\..\..\arduinoLCD\test\Pain Drain\libraries\lvgl\src\widgets\../core/lv_obj_style_gen.h ****     return (lv_coord_t)v.num;
   5:..\..\..\arduinoLCD\test\Pain Drain\libraries\lvgl\src\widgets\../core/lv_obj_style_gen.h **** }
   6:..\..\..\arduinoLCD\test\Pain Drain\libraries\lvgl\src\widgets\../core/lv_obj_style_gen.h **** 
   7:..\..\..\arduinoLCD\test\Pain Drain\libraries\lvgl\src\widgets\../core/lv_obj_style_gen.h **** static inline lv_coord_t lv_obj_get_style_min_width(const struct _lv_obj_t * obj, uint32_t part)
   8:..\..\..\arduinoLCD\test\Pain Drain\libraries\lvgl\src\widgets\../core/lv_obj_style_gen.h **** {
   9:..\..\..\arduinoLCD\test\Pain Drain\libraries\lvgl\src\widgets\../core/lv_obj_style_gen.h ****     lv_style_value_t v = lv_obj_get_style_prop(obj, part, LV_STYLE_MIN_WIDTH);
  10:..\..\..\arduinoLCD\test\Pain Drain\libraries\lvgl\src\widgets\../core/lv_obj_style_gen.h ****     return (lv_coord_t)v.num;
  11:..\..\..\arduinoLCD\test\Pain Drain\libraries\lvgl\src\widgets\../core/lv_obj_style_gen.h **** }
  12:..\..\..\arduinoLCD\test\Pain Drain\libraries\lvgl\src\widgets\../core/lv_obj_style_gen.h **** 
  13:..\..\..\arduinoLCD\test\Pain Drain\libraries\lvgl\src\widgets\../core/lv_obj_style_gen.h **** static inline lv_coord_t lv_obj_get_style_max_width(const struct _lv_obj_t * obj, uint32_t part)
  14:..\..\..\arduinoLCD\test\Pain Drain\libraries\lvgl\src\widgets\../core/lv_obj_style_gen.h **** {
  15:..\..\..\arduinoLCD\test\Pain Drain\libraries\lvgl\src\widgets\../core/lv_obj_style_gen.h ****     lv_style_value_t v = lv_obj_get_style_prop(obj, part, LV_STYLE_MAX_WIDTH);
  16:..\..\..\arduinoLCD\test\Pain Drain\libraries\lvgl\src\widgets\../core/lv_obj_style_gen.h ****     return (lv_coord_t)v.num;
  17:..\..\..\arduinoLCD\test\Pain Drain\libraries\lvgl\src\widgets\../core/lv_obj_style_gen.h **** }
  18:..\..\..\arduinoLCD\test\Pain Drain\libraries\lvgl\src\widgets\../core/lv_obj_style_gen.h **** 
  19:..\..\..\arduinoLCD\test\Pain Drain\libraries\lvgl\src\widgets\../core/lv_obj_style_gen.h **** static inline lv_coord_t lv_obj_get_style_height(const struct _lv_obj_t * obj, uint32_t part)
  20:..\..\..\arduinoLCD\test\Pain Drain\libraries\lvgl\src\widgets\../core/lv_obj_style_gen.h **** {
  21:..\..\..\arduinoLCD\test\Pain Drain\libraries\lvgl\src\widgets\../core/lv_obj_style_gen.h ****     lv_style_value_t v = lv_obj_get_style_prop(obj, part, LV_STYLE_HEIGHT);
  22:..\..\..\arduinoLCD\test\Pain Drain\libraries\lvgl\src\widgets\../core/lv_obj_style_gen.h ****     return (lv_coord_t)v.num;
  23:..\..\..\arduinoLCD\test\Pain Drain\libraries\lvgl\src\widgets\../core/lv_obj_style_gen.h **** }
  24:..\..\..\arduinoLCD\test\Pain Drain\libraries\lvgl\src\widgets\../core/lv_obj_style_gen.h **** 
  25:..\..\..\arduinoLCD\test\Pain Drain\libraries\lvgl\src\widgets\../core/lv_obj_style_gen.h **** static inline lv_coord_t lv_obj_get_style_min_height(const struct _lv_obj_t * obj, uint32_t part)
  26:..\..\..\arduinoLCD\test\Pain Drain\libraries\lvgl\src\widgets\../core/lv_obj_style_gen.h **** {
  27:..\..\..\arduinoLCD\test\Pain Drain\libraries\lvgl\src\widgets\../core/lv_obj_style_gen.h ****     lv_style_value_t v = lv_obj_get_style_prop(obj, part, LV_STYLE_MIN_HEIGHT);
  28:..\..\..\arduinoLCD\test\Pain Drain\libraries\lvgl\src\widgets\../core/lv_obj_style_gen.h ****     return (lv_coord_t)v.num;
  29:..\..\..\arduinoLCD\test\Pain Drain\libraries\lvgl\src\widgets\../core/lv_obj_style_gen.h **** }
  30:..\..\..\arduinoLCD\test\Pain Drain\libraries\lvgl\src\widgets\../core/lv_obj_style_gen.h **** 
  31:..\..\..\arduinoLCD\test\Pain Drain\libraries\lvgl\src\widgets\../core/lv_obj_style_gen.h **** static inline lv_coord_t lv_obj_get_style_max_height(const struct _lv_obj_t * obj, uint32_t part)
  32:..\..\..\arduinoLCD\test\Pain Drain\libraries\lvgl\src\widgets\../core/lv_obj_style_gen.h **** {
  33:..\..\..\arduinoLCD\test\Pain Drain\libraries\lvgl\src\widgets\../core/lv_obj_style_gen.h ****     lv_style_value_t v = lv_obj_get_style_prop(obj, part, LV_STYLE_MAX_HEIGHT);
  34:..\..\..\arduinoLCD\test\Pain Drain\libraries\lvgl\src\widgets\../core/lv_obj_style_gen.h ****     return (lv_coord_t)v.num;
  35:..\..\..\arduinoLCD\test\Pain Drain\libraries\lvgl\src\widgets\../core/lv_obj_style_gen.h **** }
  36:..\..\..\arduinoLCD\test\Pain Drain\libraries\lvgl\src\widgets\../core/lv_obj_style_gen.h **** 
  37:..\..\..\arduinoLCD\test\Pain Drain\libraries\lvgl\src\widgets\../core/lv_obj_style_gen.h **** static inline lv_coord_t lv_obj_get_style_x(const struct _lv_obj_t * obj, uint32_t part)
  38:..\..\..\arduinoLCD\test\Pain Drain\libraries\lvgl\src\widgets\../core/lv_obj_style_gen.h **** {
  39:..\..\..\arduinoLCD\test\Pain Drain\libraries\lvgl\src\widgets\../core/lv_obj_style_gen.h ****     lv_style_value_t v = lv_obj_get_style_prop(obj, part, LV_STYLE_X);
  40:..\..\..\arduinoLCD\test\Pain Drain\libraries\lvgl\src\widgets\../core/lv_obj_style_gen.h ****     return (lv_coord_t)v.num;
  41:..\..\..\arduinoLCD\test\Pain Drain\libraries\lvgl\src\widgets\../core/lv_obj_style_gen.h **** }
  42:..\..\..\arduinoLCD\test\Pain Drain\libraries\lvgl\src\widgets\../core/lv_obj_style_gen.h **** 
  43:..\..\..\arduinoLCD\test\Pain Drain\libraries\lvgl\src\widgets\../core/lv_obj_style_gen.h **** static inline lv_coord_t lv_obj_get_style_y(const struct _lv_obj_t * obj, uint32_t part)
  44:..\..\..\arduinoLCD\test\Pain Drain\libraries\lvgl\src\widgets\../core/lv_obj_style_gen.h **** {
  45:..\..\..\arduinoLCD\test\Pain Drain\libraries\lvgl\src\widgets\../core/lv_obj_style_gen.h ****     lv_style_value_t v = lv_obj_get_style_prop(obj, part, LV_STYLE_Y);
  46:..\..\..\arduinoLCD\test\Pain Drain\libraries\lvgl\src\widgets\../core/lv_obj_style_gen.h ****     return (lv_coord_t)v.num;
  47:..\..\..\arduinoLCD\test\Pain Drain\libraries\lvgl\src\widgets\../core/lv_obj_style_gen.h **** }
  48:..\..\..\arduinoLCD\test\Pain Drain\libraries\lvgl\src\widgets\../core/lv_obj_style_gen.h **** 
  49:..\..\..\arduinoLCD\test\Pain Drain\libraries\lvgl\src\widgets\../core/lv_obj_style_gen.h **** static inline lv_align_t lv_obj_get_style_align(const struct _lv_obj_t * obj, uint32_t part)
  50:..\..\..\arduinoLCD\test\Pain Drain\libraries\lvgl\src\widgets\../core/lv_obj_style_gen.h **** {
  51:..\..\..\arduinoLCD\test\Pain Drain\libraries\lvgl\src\widgets\../core/lv_obj_style_gen.h ****     lv_style_value_t v = lv_obj_get_style_prop(obj, part, LV_STYLE_ALIGN);
  52:..\..\..\arduinoLCD\test\Pain Drain\libraries\lvgl\src\widgets\../core/lv_obj_style_gen.h ****     return (lv_align_t)v.num;
  53:..\..\..\arduinoLCD\test\Pain Drain\libraries\lvgl\src\widgets\../core/lv_obj_style_gen.h **** }
  54:..\..\..\arduinoLCD\test\Pain Drain\libraries\lvgl\src\widgets\../core/lv_obj_style_gen.h **** 
ARM GAS  C:\Users\haske\AppData\Local\Temp\ccxUXv8a.s 			page 24


  55:..\..\..\arduinoLCD\test\Pain Drain\libraries\lvgl\src\widgets\../core/lv_obj_style_gen.h **** static inline lv_coord_t lv_obj_get_style_transform_width(const struct _lv_obj_t * obj, uint32_t pa
  56:..\..\..\arduinoLCD\test\Pain Drain\libraries\lvgl\src\widgets\../core/lv_obj_style_gen.h **** {
  57:..\..\..\arduinoLCD\test\Pain Drain\libraries\lvgl\src\widgets\../core/lv_obj_style_gen.h ****     lv_style_value_t v = lv_obj_get_style_prop(obj, part, LV_STYLE_TRANSFORM_WIDTH);
  58:..\..\..\arduinoLCD\test\Pain Drain\libraries\lvgl\src\widgets\../core/lv_obj_style_gen.h ****     return (lv_coord_t)v.num;
  59:..\..\..\arduinoLCD\test\Pain Drain\libraries\lvgl\src\widgets\../core/lv_obj_style_gen.h **** }
  60:..\..\..\arduinoLCD\test\Pain Drain\libraries\lvgl\src\widgets\../core/lv_obj_style_gen.h **** 
  61:..\..\..\arduinoLCD\test\Pain Drain\libraries\lvgl\src\widgets\../core/lv_obj_style_gen.h **** static inline lv_coord_t lv_obj_get_style_transform_height(const struct _lv_obj_t * obj, uint32_t p
  62:..\..\..\arduinoLCD\test\Pain Drain\libraries\lvgl\src\widgets\../core/lv_obj_style_gen.h **** {
  63:..\..\..\arduinoLCD\test\Pain Drain\libraries\lvgl\src\widgets\../core/lv_obj_style_gen.h ****     lv_style_value_t v = lv_obj_get_style_prop(obj, part, LV_STYLE_TRANSFORM_HEIGHT);
  64:..\..\..\arduinoLCD\test\Pain Drain\libraries\lvgl\src\widgets\../core/lv_obj_style_gen.h ****     return (lv_coord_t)v.num;
  65:..\..\..\arduinoLCD\test\Pain Drain\libraries\lvgl\src\widgets\../core/lv_obj_style_gen.h **** }
  66:..\..\..\arduinoLCD\test\Pain Drain\libraries\lvgl\src\widgets\../core/lv_obj_style_gen.h **** 
  67:..\..\..\arduinoLCD\test\Pain Drain\libraries\lvgl\src\widgets\../core/lv_obj_style_gen.h **** static inline lv_coord_t lv_obj_get_style_translate_x(const struct _lv_obj_t * obj, uint32_t part)
  68:..\..\..\arduinoLCD\test\Pain Drain\libraries\lvgl\src\widgets\../core/lv_obj_style_gen.h **** {
  69:..\..\..\arduinoLCD\test\Pain Drain\libraries\lvgl\src\widgets\../core/lv_obj_style_gen.h ****     lv_style_value_t v = lv_obj_get_style_prop(obj, part, LV_STYLE_TRANSLATE_X);
  70:..\..\..\arduinoLCD\test\Pain Drain\libraries\lvgl\src\widgets\../core/lv_obj_style_gen.h ****     return (lv_coord_t)v.num;
  71:..\..\..\arduinoLCD\test\Pain Drain\libraries\lvgl\src\widgets\../core/lv_obj_style_gen.h **** }
  72:..\..\..\arduinoLCD\test\Pain Drain\libraries\lvgl\src\widgets\../core/lv_obj_style_gen.h **** 
  73:..\..\..\arduinoLCD\test\Pain Drain\libraries\lvgl\src\widgets\../core/lv_obj_style_gen.h **** static inline lv_coord_t lv_obj_get_style_translate_y(const struct _lv_obj_t * obj, uint32_t part)
  74:..\..\..\arduinoLCD\test\Pain Drain\libraries\lvgl\src\widgets\../core/lv_obj_style_gen.h **** {
  75:..\..\..\arduinoLCD\test\Pain Drain\libraries\lvgl\src\widgets\../core/lv_obj_style_gen.h ****     lv_style_value_t v = lv_obj_get_style_prop(obj, part, LV_STYLE_TRANSLATE_Y);
  76:..\..\..\arduinoLCD\test\Pain Drain\libraries\lvgl\src\widgets\../core/lv_obj_style_gen.h ****     return (lv_coord_t)v.num;
  77:..\..\..\arduinoLCD\test\Pain Drain\libraries\lvgl\src\widgets\../core/lv_obj_style_gen.h **** }
  78:..\..\..\arduinoLCD\test\Pain Drain\libraries\lvgl\src\widgets\../core/lv_obj_style_gen.h **** 
  79:..\..\..\arduinoLCD\test\Pain Drain\libraries\lvgl\src\widgets\../core/lv_obj_style_gen.h **** static inline lv_coord_t lv_obj_get_style_transform_zoom(const struct _lv_obj_t * obj, uint32_t par
  80:..\..\..\arduinoLCD\test\Pain Drain\libraries\lvgl\src\widgets\../core/lv_obj_style_gen.h **** {
  81:..\..\..\arduinoLCD\test\Pain Drain\libraries\lvgl\src\widgets\../core/lv_obj_style_gen.h ****     lv_style_value_t v = lv_obj_get_style_prop(obj, part, LV_STYLE_TRANSFORM_ZOOM);
  82:..\..\..\arduinoLCD\test\Pain Drain\libraries\lvgl\src\widgets\../core/lv_obj_style_gen.h ****     return (lv_coord_t)v.num;
  83:..\..\..\arduinoLCD\test\Pain Drain\libraries\lvgl\src\widgets\../core/lv_obj_style_gen.h **** }
  84:..\..\..\arduinoLCD\test\Pain Drain\libraries\lvgl\src\widgets\../core/lv_obj_style_gen.h **** 
  85:..\..\..\arduinoLCD\test\Pain Drain\libraries\lvgl\src\widgets\../core/lv_obj_style_gen.h **** static inline lv_coord_t lv_obj_get_style_transform_angle(const struct _lv_obj_t * obj, uint32_t pa
  86:..\..\..\arduinoLCD\test\Pain Drain\libraries\lvgl\src\widgets\../core/lv_obj_style_gen.h **** {
  87:..\..\..\arduinoLCD\test\Pain Drain\libraries\lvgl\src\widgets\../core/lv_obj_style_gen.h ****     lv_style_value_t v = lv_obj_get_style_prop(obj, part, LV_STYLE_TRANSFORM_ANGLE);
  88:..\..\..\arduinoLCD\test\Pain Drain\libraries\lvgl\src\widgets\../core/lv_obj_style_gen.h ****     return (lv_coord_t)v.num;
  89:..\..\..\arduinoLCD\test\Pain Drain\libraries\lvgl\src\widgets\../core/lv_obj_style_gen.h **** }
  90:..\..\..\arduinoLCD\test\Pain Drain\libraries\lvgl\src\widgets\../core/lv_obj_style_gen.h **** 
  91:..\..\..\arduinoLCD\test\Pain Drain\libraries\lvgl\src\widgets\../core/lv_obj_style_gen.h **** static inline lv_coord_t lv_obj_get_style_transform_pivot_x(const struct _lv_obj_t * obj, uint32_t 
  92:..\..\..\arduinoLCD\test\Pain Drain\libraries\lvgl\src\widgets\../core/lv_obj_style_gen.h **** {
  93:..\..\..\arduinoLCD\test\Pain Drain\libraries\lvgl\src\widgets\../core/lv_obj_style_gen.h ****     lv_style_value_t v = lv_obj_get_style_prop(obj, part, LV_STYLE_TRANSFORM_PIVOT_X);
  94:..\..\..\arduinoLCD\test\Pain Drain\libraries\lvgl\src\widgets\../core/lv_obj_style_gen.h ****     return (lv_coord_t)v.num;
  95:..\..\..\arduinoLCD\test\Pain Drain\libraries\lvgl\src\widgets\../core/lv_obj_style_gen.h **** }
  96:..\..\..\arduinoLCD\test\Pain Drain\libraries\lvgl\src\widgets\../core/lv_obj_style_gen.h **** 
  97:..\..\..\arduinoLCD\test\Pain Drain\libraries\lvgl\src\widgets\../core/lv_obj_style_gen.h **** static inline lv_coord_t lv_obj_get_style_transform_pivot_y(const struct _lv_obj_t * obj, uint32_t 
  98:..\..\..\arduinoLCD\test\Pain Drain\libraries\lvgl\src\widgets\../core/lv_obj_style_gen.h **** {
  99:..\..\..\arduinoLCD\test\Pain Drain\libraries\lvgl\src\widgets\../core/lv_obj_style_gen.h ****     lv_style_value_t v = lv_obj_get_style_prop(obj, part, LV_STYLE_TRANSFORM_PIVOT_Y);
 100:..\..\..\arduinoLCD\test\Pain Drain\libraries\lvgl\src\widgets\../core/lv_obj_style_gen.h ****     return (lv_coord_t)v.num;
 101:..\..\..\arduinoLCD\test\Pain Drain\libraries\lvgl\src\widgets\../core/lv_obj_style_gen.h **** }
 102:..\..\..\arduinoLCD\test\Pain Drain\libraries\lvgl\src\widgets\../core/lv_obj_style_gen.h **** 
 103:..\..\..\arduinoLCD\test\Pain Drain\libraries\lvgl\src\widgets\../core/lv_obj_style_gen.h **** static inline lv_coord_t lv_obj_get_style_pad_top(const struct _lv_obj_t * obj, uint32_t part)
 104:..\..\..\arduinoLCD\test\Pain Drain\libraries\lvgl\src\widgets\../core/lv_obj_style_gen.h **** {
 105:..\..\..\arduinoLCD\test\Pain Drain\libraries\lvgl\src\widgets\../core/lv_obj_style_gen.h ****     lv_style_value_t v = lv_obj_get_style_prop(obj, part, LV_STYLE_PAD_TOP);
 106:..\..\..\arduinoLCD\test\Pain Drain\libraries\lvgl\src\widgets\../core/lv_obj_style_gen.h ****     return (lv_coord_t)v.num;
 107:..\..\..\arduinoLCD\test\Pain Drain\libraries\lvgl\src\widgets\../core/lv_obj_style_gen.h **** }
 108:..\..\..\arduinoLCD\test\Pain Drain\libraries\lvgl\src\widgets\../core/lv_obj_style_gen.h **** 
 109:..\..\..\arduinoLCD\test\Pain Drain\libraries\lvgl\src\widgets\../core/lv_obj_style_gen.h **** static inline lv_coord_t lv_obj_get_style_pad_bottom(const struct _lv_obj_t * obj, uint32_t part)
 110:..\..\..\arduinoLCD\test\Pain Drain\libraries\lvgl\src\widgets\../core/lv_obj_style_gen.h **** {
 111:..\..\..\arduinoLCD\test\Pain Drain\libraries\lvgl\src\widgets\../core/lv_obj_style_gen.h ****     lv_style_value_t v = lv_obj_get_style_prop(obj, part, LV_STYLE_PAD_BOTTOM);
ARM GAS  C:\Users\haske\AppData\Local\Temp\ccxUXv8a.s 			page 25


 112:..\..\..\arduinoLCD\test\Pain Drain\libraries\lvgl\src\widgets\../core/lv_obj_style_gen.h ****     return (lv_coord_t)v.num;
 113:..\..\..\arduinoLCD\test\Pain Drain\libraries\lvgl\src\widgets\../core/lv_obj_style_gen.h **** }
 114:..\..\..\arduinoLCD\test\Pain Drain\libraries\lvgl\src\widgets\../core/lv_obj_style_gen.h **** 
 115:..\..\..\arduinoLCD\test\Pain Drain\libraries\lvgl\src\widgets\../core/lv_obj_style_gen.h **** static inline lv_coord_t lv_obj_get_style_pad_left(const struct _lv_obj_t * obj, uint32_t part)
 116:..\..\..\arduinoLCD\test\Pain Drain\libraries\lvgl\src\widgets\../core/lv_obj_style_gen.h **** {
 117:..\..\..\arduinoLCD\test\Pain Drain\libraries\lvgl\src\widgets\../core/lv_obj_style_gen.h ****     lv_style_value_t v = lv_obj_get_style_prop(obj, part, LV_STYLE_PAD_LEFT);
 118:..\..\..\arduinoLCD\test\Pain Drain\libraries\lvgl\src\widgets\../core/lv_obj_style_gen.h ****     return (lv_coord_t)v.num;
 119:..\..\..\arduinoLCD\test\Pain Drain\libraries\lvgl\src\widgets\../core/lv_obj_style_gen.h **** }
 120:..\..\..\arduinoLCD\test\Pain Drain\libraries\lvgl\src\widgets\../core/lv_obj_style_gen.h **** 
 121:..\..\..\arduinoLCD\test\Pain Drain\libraries\lvgl\src\widgets\../core/lv_obj_style_gen.h **** static inline lv_coord_t lv_obj_get_style_pad_right(const struct _lv_obj_t * obj, uint32_t part)
 122:..\..\..\arduinoLCD\test\Pain Drain\libraries\lvgl\src\widgets\../core/lv_obj_style_gen.h **** {
 123:..\..\..\arduinoLCD\test\Pain Drain\libraries\lvgl\src\widgets\../core/lv_obj_style_gen.h ****     lv_style_value_t v = lv_obj_get_style_prop(obj, part, LV_STYLE_PAD_RIGHT);
 124:..\..\..\arduinoLCD\test\Pain Drain\libraries\lvgl\src\widgets\../core/lv_obj_style_gen.h ****     return (lv_coord_t)v.num;
 125:..\..\..\arduinoLCD\test\Pain Drain\libraries\lvgl\src\widgets\../core/lv_obj_style_gen.h **** }
 126:..\..\..\arduinoLCD\test\Pain Drain\libraries\lvgl\src\widgets\../core/lv_obj_style_gen.h **** 
 127:..\..\..\arduinoLCD\test\Pain Drain\libraries\lvgl\src\widgets\../core/lv_obj_style_gen.h **** static inline lv_coord_t lv_obj_get_style_pad_row(const struct _lv_obj_t * obj, uint32_t part)
 128:..\..\..\arduinoLCD\test\Pain Drain\libraries\lvgl\src\widgets\../core/lv_obj_style_gen.h **** {
 129:..\..\..\arduinoLCD\test\Pain Drain\libraries\lvgl\src\widgets\../core/lv_obj_style_gen.h ****     lv_style_value_t v = lv_obj_get_style_prop(obj, part, LV_STYLE_PAD_ROW);
 130:..\..\..\arduinoLCD\test\Pain Drain\libraries\lvgl\src\widgets\../core/lv_obj_style_gen.h ****     return (lv_coord_t)v.num;
 131:..\..\..\arduinoLCD\test\Pain Drain\libraries\lvgl\src\widgets\../core/lv_obj_style_gen.h **** }
 132:..\..\..\arduinoLCD\test\Pain Drain\libraries\lvgl\src\widgets\../core/lv_obj_style_gen.h **** 
 133:..\..\..\arduinoLCD\test\Pain Drain\libraries\lvgl\src\widgets\../core/lv_obj_style_gen.h **** static inline lv_coord_t lv_obj_get_style_pad_column(const struct _lv_obj_t * obj, uint32_t part)
 134:..\..\..\arduinoLCD\test\Pain Drain\libraries\lvgl\src\widgets\../core/lv_obj_style_gen.h **** {
 135:..\..\..\arduinoLCD\test\Pain Drain\libraries\lvgl\src\widgets\../core/lv_obj_style_gen.h ****     lv_style_value_t v = lv_obj_get_style_prop(obj, part, LV_STYLE_PAD_COLUMN);
 136:..\..\..\arduinoLCD\test\Pain Drain\libraries\lvgl\src\widgets\../core/lv_obj_style_gen.h ****     return (lv_coord_t)v.num;
 137:..\..\..\arduinoLCD\test\Pain Drain\libraries\lvgl\src\widgets\../core/lv_obj_style_gen.h **** }
 138:..\..\..\arduinoLCD\test\Pain Drain\libraries\lvgl\src\widgets\../core/lv_obj_style_gen.h **** 
 139:..\..\..\arduinoLCD\test\Pain Drain\libraries\lvgl\src\widgets\../core/lv_obj_style_gen.h **** static inline lv_color_t lv_obj_get_style_bg_color(const struct _lv_obj_t * obj, uint32_t part)
 140:..\..\..\arduinoLCD\test\Pain Drain\libraries\lvgl\src\widgets\../core/lv_obj_style_gen.h **** {
 141:..\..\..\arduinoLCD\test\Pain Drain\libraries\lvgl\src\widgets\../core/lv_obj_style_gen.h ****     lv_style_value_t v = lv_obj_get_style_prop(obj, part, LV_STYLE_BG_COLOR);
 142:..\..\..\arduinoLCD\test\Pain Drain\libraries\lvgl\src\widgets\../core/lv_obj_style_gen.h ****     return v.color;
 143:..\..\..\arduinoLCD\test\Pain Drain\libraries\lvgl\src\widgets\../core/lv_obj_style_gen.h **** }
 144:..\..\..\arduinoLCD\test\Pain Drain\libraries\lvgl\src\widgets\../core/lv_obj_style_gen.h **** 
 145:..\..\..\arduinoLCD\test\Pain Drain\libraries\lvgl\src\widgets\../core/lv_obj_style_gen.h **** static inline lv_color_t lv_obj_get_style_bg_color_filtered(const struct _lv_obj_t * obj, uint32_t 
 146:..\..\..\arduinoLCD\test\Pain Drain\libraries\lvgl\src\widgets\../core/lv_obj_style_gen.h **** {
 147:..\..\..\arduinoLCD\test\Pain Drain\libraries\lvgl\src\widgets\../core/lv_obj_style_gen.h ****     lv_style_value_t v = _lv_obj_style_apply_color_filter(obj, part, lv_obj_get_style_prop(obj, par
 148:..\..\..\arduinoLCD\test\Pain Drain\libraries\lvgl\src\widgets\../core/lv_obj_style_gen.h ****     return v.color;
 149:..\..\..\arduinoLCD\test\Pain Drain\libraries\lvgl\src\widgets\../core/lv_obj_style_gen.h **** }
 150:..\..\..\arduinoLCD\test\Pain Drain\libraries\lvgl\src\widgets\../core/lv_obj_style_gen.h **** 
 151:..\..\..\arduinoLCD\test\Pain Drain\libraries\lvgl\src\widgets\../core/lv_obj_style_gen.h **** static inline lv_opa_t lv_obj_get_style_bg_opa(const struct _lv_obj_t * obj, uint32_t part)
 152:..\..\..\arduinoLCD\test\Pain Drain\libraries\lvgl\src\widgets\../core/lv_obj_style_gen.h **** {
 153:..\..\..\arduinoLCD\test\Pain Drain\libraries\lvgl\src\widgets\../core/lv_obj_style_gen.h ****     lv_style_value_t v = lv_obj_get_style_prop(obj, part, LV_STYLE_BG_OPA);
 154:..\..\..\arduinoLCD\test\Pain Drain\libraries\lvgl\src\widgets\../core/lv_obj_style_gen.h ****     return (lv_opa_t)v.num;
 155:..\..\..\arduinoLCD\test\Pain Drain\libraries\lvgl\src\widgets\../core/lv_obj_style_gen.h **** }
 156:..\..\..\arduinoLCD\test\Pain Drain\libraries\lvgl\src\widgets\../core/lv_obj_style_gen.h **** 
 157:..\..\..\arduinoLCD\test\Pain Drain\libraries\lvgl\src\widgets\../core/lv_obj_style_gen.h **** static inline lv_color_t lv_obj_get_style_bg_grad_color(const struct _lv_obj_t * obj, uint32_t part
 158:..\..\..\arduinoLCD\test\Pain Drain\libraries\lvgl\src\widgets\../core/lv_obj_style_gen.h **** {
 159:..\..\..\arduinoLCD\test\Pain Drain\libraries\lvgl\src\widgets\../core/lv_obj_style_gen.h ****     lv_style_value_t v = lv_obj_get_style_prop(obj, part, LV_STYLE_BG_GRAD_COLOR);
 160:..\..\..\arduinoLCD\test\Pain Drain\libraries\lvgl\src\widgets\../core/lv_obj_style_gen.h ****     return v.color;
 161:..\..\..\arduinoLCD\test\Pain Drain\libraries\lvgl\src\widgets\../core/lv_obj_style_gen.h **** }
 162:..\..\..\arduinoLCD\test\Pain Drain\libraries\lvgl\src\widgets\../core/lv_obj_style_gen.h **** 
 163:..\..\..\arduinoLCD\test\Pain Drain\libraries\lvgl\src\widgets\../core/lv_obj_style_gen.h **** static inline lv_color_t lv_obj_get_style_bg_grad_color_filtered(const struct _lv_obj_t * obj, uint
 164:..\..\..\arduinoLCD\test\Pain Drain\libraries\lvgl\src\widgets\../core/lv_obj_style_gen.h **** {
 165:..\..\..\arduinoLCD\test\Pain Drain\libraries\lvgl\src\widgets\../core/lv_obj_style_gen.h ****     lv_style_value_t v = _lv_obj_style_apply_color_filter(obj, part, lv_obj_get_style_prop(obj, par
 166:..\..\..\arduinoLCD\test\Pain Drain\libraries\lvgl\src\widgets\../core/lv_obj_style_gen.h ****     return v.color;
 167:..\..\..\arduinoLCD\test\Pain Drain\libraries\lvgl\src\widgets\../core/lv_obj_style_gen.h **** }
 168:..\..\..\arduinoLCD\test\Pain Drain\libraries\lvgl\src\widgets\../core/lv_obj_style_gen.h **** 
ARM GAS  C:\Users\haske\AppData\Local\Temp\ccxUXv8a.s 			page 26


 169:..\..\..\arduinoLCD\test\Pain Drain\libraries\lvgl\src\widgets\../core/lv_obj_style_gen.h **** static inline lv_grad_dir_t lv_obj_get_style_bg_grad_dir(const struct _lv_obj_t * obj, uint32_t par
 170:..\..\..\arduinoLCD\test\Pain Drain\libraries\lvgl\src\widgets\../core/lv_obj_style_gen.h **** {
 171:..\..\..\arduinoLCD\test\Pain Drain\libraries\lvgl\src\widgets\../core/lv_obj_style_gen.h ****     lv_style_value_t v = lv_obj_get_style_prop(obj, part, LV_STYLE_BG_GRAD_DIR);
 172:..\..\..\arduinoLCD\test\Pain Drain\libraries\lvgl\src\widgets\../core/lv_obj_style_gen.h ****     return (lv_grad_dir_t)v.num;
 173:..\..\..\arduinoLCD\test\Pain Drain\libraries\lvgl\src\widgets\../core/lv_obj_style_gen.h **** }
 174:..\..\..\arduinoLCD\test\Pain Drain\libraries\lvgl\src\widgets\../core/lv_obj_style_gen.h **** 
 175:..\..\..\arduinoLCD\test\Pain Drain\libraries\lvgl\src\widgets\../core/lv_obj_style_gen.h **** static inline lv_coord_t lv_obj_get_style_bg_main_stop(const struct _lv_obj_t * obj, uint32_t part)
 176:..\..\..\arduinoLCD\test\Pain Drain\libraries\lvgl\src\widgets\../core/lv_obj_style_gen.h **** {
 177:..\..\..\arduinoLCD\test\Pain Drain\libraries\lvgl\src\widgets\../core/lv_obj_style_gen.h ****     lv_style_value_t v = lv_obj_get_style_prop(obj, part, LV_STYLE_BG_MAIN_STOP);
 178:..\..\..\arduinoLCD\test\Pain Drain\libraries\lvgl\src\widgets\../core/lv_obj_style_gen.h ****     return (lv_coord_t)v.num;
 179:..\..\..\arduinoLCD\test\Pain Drain\libraries\lvgl\src\widgets\../core/lv_obj_style_gen.h **** }
 180:..\..\..\arduinoLCD\test\Pain Drain\libraries\lvgl\src\widgets\../core/lv_obj_style_gen.h **** 
 181:..\..\..\arduinoLCD\test\Pain Drain\libraries\lvgl\src\widgets\../core/lv_obj_style_gen.h **** static inline lv_coord_t lv_obj_get_style_bg_grad_stop(const struct _lv_obj_t * obj, uint32_t part)
 182:..\..\..\arduinoLCD\test\Pain Drain\libraries\lvgl\src\widgets\../core/lv_obj_style_gen.h **** {
 183:..\..\..\arduinoLCD\test\Pain Drain\libraries\lvgl\src\widgets\../core/lv_obj_style_gen.h ****     lv_style_value_t v = lv_obj_get_style_prop(obj, part, LV_STYLE_BG_GRAD_STOP);
 184:..\..\..\arduinoLCD\test\Pain Drain\libraries\lvgl\src\widgets\../core/lv_obj_style_gen.h ****     return (lv_coord_t)v.num;
 185:..\..\..\arduinoLCD\test\Pain Drain\libraries\lvgl\src\widgets\../core/lv_obj_style_gen.h **** }
 186:..\..\..\arduinoLCD\test\Pain Drain\libraries\lvgl\src\widgets\../core/lv_obj_style_gen.h **** 
 187:..\..\..\arduinoLCD\test\Pain Drain\libraries\lvgl\src\widgets\../core/lv_obj_style_gen.h **** static inline const lv_grad_dsc_t * lv_obj_get_style_bg_grad(const struct _lv_obj_t * obj, uint32_t
 188:..\..\..\arduinoLCD\test\Pain Drain\libraries\lvgl\src\widgets\../core/lv_obj_style_gen.h **** {
 189:..\..\..\arduinoLCD\test\Pain Drain\libraries\lvgl\src\widgets\../core/lv_obj_style_gen.h ****     lv_style_value_t v = lv_obj_get_style_prop(obj, part, LV_STYLE_BG_GRAD);
 190:..\..\..\arduinoLCD\test\Pain Drain\libraries\lvgl\src\widgets\../core/lv_obj_style_gen.h ****     return (const lv_grad_dsc_t *)v.ptr;
 191:..\..\..\arduinoLCD\test\Pain Drain\libraries\lvgl\src\widgets\../core/lv_obj_style_gen.h **** }
 192:..\..\..\arduinoLCD\test\Pain Drain\libraries\lvgl\src\widgets\../core/lv_obj_style_gen.h **** 
 193:..\..\..\arduinoLCD\test\Pain Drain\libraries\lvgl\src\widgets\../core/lv_obj_style_gen.h **** static inline lv_dither_mode_t lv_obj_get_style_bg_dither_mode(const struct _lv_obj_t * obj, uint32
 194:..\..\..\arduinoLCD\test\Pain Drain\libraries\lvgl\src\widgets\../core/lv_obj_style_gen.h **** {
 195:..\..\..\arduinoLCD\test\Pain Drain\libraries\lvgl\src\widgets\../core/lv_obj_style_gen.h ****     lv_style_value_t v = lv_obj_get_style_prop(obj, part, LV_STYLE_BG_DITHER_MODE);
 196:..\..\..\arduinoLCD\test\Pain Drain\libraries\lvgl\src\widgets\../core/lv_obj_style_gen.h ****     return (lv_dither_mode_t)v.num;
 197:..\..\..\arduinoLCD\test\Pain Drain\libraries\lvgl\src\widgets\../core/lv_obj_style_gen.h **** }
 198:..\..\..\arduinoLCD\test\Pain Drain\libraries\lvgl\src\widgets\../core/lv_obj_style_gen.h **** 
 199:..\..\..\arduinoLCD\test\Pain Drain\libraries\lvgl\src\widgets\../core/lv_obj_style_gen.h **** static inline const void * lv_obj_get_style_bg_img_src(const struct _lv_obj_t * obj, uint32_t part)
 200:..\..\..\arduinoLCD\test\Pain Drain\libraries\lvgl\src\widgets\../core/lv_obj_style_gen.h **** {
 201:..\..\..\arduinoLCD\test\Pain Drain\libraries\lvgl\src\widgets\../core/lv_obj_style_gen.h ****     lv_style_value_t v = lv_obj_get_style_prop(obj, part, LV_STYLE_BG_IMG_SRC);
 202:..\..\..\arduinoLCD\test\Pain Drain\libraries\lvgl\src\widgets\../core/lv_obj_style_gen.h ****     return (const void *)v.ptr;
 203:..\..\..\arduinoLCD\test\Pain Drain\libraries\lvgl\src\widgets\../core/lv_obj_style_gen.h **** }
 204:..\..\..\arduinoLCD\test\Pain Drain\libraries\lvgl\src\widgets\../core/lv_obj_style_gen.h **** 
 205:..\..\..\arduinoLCD\test\Pain Drain\libraries\lvgl\src\widgets\../core/lv_obj_style_gen.h **** static inline lv_opa_t lv_obj_get_style_bg_img_opa(const struct _lv_obj_t * obj, uint32_t part)
 206:..\..\..\arduinoLCD\test\Pain Drain\libraries\lvgl\src\widgets\../core/lv_obj_style_gen.h **** {
 207:..\..\..\arduinoLCD\test\Pain Drain\libraries\lvgl\src\widgets\../core/lv_obj_style_gen.h ****     lv_style_value_t v = lv_obj_get_style_prop(obj, part, LV_STYLE_BG_IMG_OPA);
 208:..\..\..\arduinoLCD\test\Pain Drain\libraries\lvgl\src\widgets\../core/lv_obj_style_gen.h ****     return (lv_opa_t)v.num;
 209:..\..\..\arduinoLCD\test\Pain Drain\libraries\lvgl\src\widgets\../core/lv_obj_style_gen.h **** }
 210:..\..\..\arduinoLCD\test\Pain Drain\libraries\lvgl\src\widgets\../core/lv_obj_style_gen.h **** 
 211:..\..\..\arduinoLCD\test\Pain Drain\libraries\lvgl\src\widgets\../core/lv_obj_style_gen.h **** static inline lv_color_t lv_obj_get_style_bg_img_recolor(const struct _lv_obj_t * obj, uint32_t par
 212:..\..\..\arduinoLCD\test\Pain Drain\libraries\lvgl\src\widgets\../core/lv_obj_style_gen.h **** {
 213:..\..\..\arduinoLCD\test\Pain Drain\libraries\lvgl\src\widgets\../core/lv_obj_style_gen.h ****     lv_style_value_t v = lv_obj_get_style_prop(obj, part, LV_STYLE_BG_IMG_RECOLOR);
 214:..\..\..\arduinoLCD\test\Pain Drain\libraries\lvgl\src\widgets\../core/lv_obj_style_gen.h ****     return v.color;
 215:..\..\..\arduinoLCD\test\Pain Drain\libraries\lvgl\src\widgets\../core/lv_obj_style_gen.h **** }
 216:..\..\..\arduinoLCD\test\Pain Drain\libraries\lvgl\src\widgets\../core/lv_obj_style_gen.h **** 
 217:..\..\..\arduinoLCD\test\Pain Drain\libraries\lvgl\src\widgets\../core/lv_obj_style_gen.h **** static inline lv_color_t lv_obj_get_style_bg_img_recolor_filtered(const struct _lv_obj_t * obj, uin
 218:..\..\..\arduinoLCD\test\Pain Drain\libraries\lvgl\src\widgets\../core/lv_obj_style_gen.h **** {
 219:..\..\..\arduinoLCD\test\Pain Drain\libraries\lvgl\src\widgets\../core/lv_obj_style_gen.h ****     lv_style_value_t v = _lv_obj_style_apply_color_filter(obj, part, lv_obj_get_style_prop(obj, par
 220:..\..\..\arduinoLCD\test\Pain Drain\libraries\lvgl\src\widgets\../core/lv_obj_style_gen.h ****     return v.color;
 221:..\..\..\arduinoLCD\test\Pain Drain\libraries\lvgl\src\widgets\../core/lv_obj_style_gen.h **** }
 222:..\..\..\arduinoLCD\test\Pain Drain\libraries\lvgl\src\widgets\../core/lv_obj_style_gen.h **** 
 223:..\..\..\arduinoLCD\test\Pain Drain\libraries\lvgl\src\widgets\../core/lv_obj_style_gen.h **** static inline lv_opa_t lv_obj_get_style_bg_img_recolor_opa(const struct _lv_obj_t * obj, uint32_t p
 224:..\..\..\arduinoLCD\test\Pain Drain\libraries\lvgl\src\widgets\../core/lv_obj_style_gen.h **** {
 225:..\..\..\arduinoLCD\test\Pain Drain\libraries\lvgl\src\widgets\../core/lv_obj_style_gen.h ****     lv_style_value_t v = lv_obj_get_style_prop(obj, part, LV_STYLE_BG_IMG_RECOLOR_OPA);
ARM GAS  C:\Users\haske\AppData\Local\Temp\ccxUXv8a.s 			page 27


 226:..\..\..\arduinoLCD\test\Pain Drain\libraries\lvgl\src\widgets\../core/lv_obj_style_gen.h ****     return (lv_opa_t)v.num;
 227:..\..\..\arduinoLCD\test\Pain Drain\libraries\lvgl\src\widgets\../core/lv_obj_style_gen.h **** }
 228:..\..\..\arduinoLCD\test\Pain Drain\libraries\lvgl\src\widgets\../core/lv_obj_style_gen.h **** 
 229:..\..\..\arduinoLCD\test\Pain Drain\libraries\lvgl\src\widgets\../core/lv_obj_style_gen.h **** static inline bool lv_obj_get_style_bg_img_tiled(const struct _lv_obj_t * obj, uint32_t part)
 230:..\..\..\arduinoLCD\test\Pain Drain\libraries\lvgl\src\widgets\../core/lv_obj_style_gen.h **** {
 231:..\..\..\arduinoLCD\test\Pain Drain\libraries\lvgl\src\widgets\../core/lv_obj_style_gen.h ****     lv_style_value_t v = lv_obj_get_style_prop(obj, part, LV_STYLE_BG_IMG_TILED);
 232:..\..\..\arduinoLCD\test\Pain Drain\libraries\lvgl\src\widgets\../core/lv_obj_style_gen.h ****     return (bool)v.num;
 233:..\..\..\arduinoLCD\test\Pain Drain\libraries\lvgl\src\widgets\../core/lv_obj_style_gen.h **** }
 234:..\..\..\arduinoLCD\test\Pain Drain\libraries\lvgl\src\widgets\../core/lv_obj_style_gen.h **** 
 235:..\..\..\arduinoLCD\test\Pain Drain\libraries\lvgl\src\widgets\../core/lv_obj_style_gen.h **** static inline lv_color_t lv_obj_get_style_border_color(const struct _lv_obj_t * obj, uint32_t part)
 236:..\..\..\arduinoLCD\test\Pain Drain\libraries\lvgl\src\widgets\../core/lv_obj_style_gen.h **** {
 237:..\..\..\arduinoLCD\test\Pain Drain\libraries\lvgl\src\widgets\../core/lv_obj_style_gen.h ****     lv_style_value_t v = lv_obj_get_style_prop(obj, part, LV_STYLE_BORDER_COLOR);
 238:..\..\..\arduinoLCD\test\Pain Drain\libraries\lvgl\src\widgets\../core/lv_obj_style_gen.h ****     return v.color;
 239:..\..\..\arduinoLCD\test\Pain Drain\libraries\lvgl\src\widgets\../core/lv_obj_style_gen.h **** }
 240:..\..\..\arduinoLCD\test\Pain Drain\libraries\lvgl\src\widgets\../core/lv_obj_style_gen.h **** 
 241:..\..\..\arduinoLCD\test\Pain Drain\libraries\lvgl\src\widgets\../core/lv_obj_style_gen.h **** static inline lv_color_t lv_obj_get_style_border_color_filtered(const struct _lv_obj_t * obj, uint3
 242:..\..\..\arduinoLCD\test\Pain Drain\libraries\lvgl\src\widgets\../core/lv_obj_style_gen.h **** {
 243:..\..\..\arduinoLCD\test\Pain Drain\libraries\lvgl\src\widgets\../core/lv_obj_style_gen.h ****     lv_style_value_t v = _lv_obj_style_apply_color_filter(obj, part, lv_obj_get_style_prop(obj, par
 244:..\..\..\arduinoLCD\test\Pain Drain\libraries\lvgl\src\widgets\../core/lv_obj_style_gen.h ****     return v.color;
 245:..\..\..\arduinoLCD\test\Pain Drain\libraries\lvgl\src\widgets\../core/lv_obj_style_gen.h **** }
 246:..\..\..\arduinoLCD\test\Pain Drain\libraries\lvgl\src\widgets\../core/lv_obj_style_gen.h **** 
 247:..\..\..\arduinoLCD\test\Pain Drain\libraries\lvgl\src\widgets\../core/lv_obj_style_gen.h **** static inline lv_opa_t lv_obj_get_style_border_opa(const struct _lv_obj_t * obj, uint32_t part)
 248:..\..\..\arduinoLCD\test\Pain Drain\libraries\lvgl\src\widgets\../core/lv_obj_style_gen.h **** {
 249:..\..\..\arduinoLCD\test\Pain Drain\libraries\lvgl\src\widgets\../core/lv_obj_style_gen.h ****     lv_style_value_t v = lv_obj_get_style_prop(obj, part, LV_STYLE_BORDER_OPA);
 250:..\..\..\arduinoLCD\test\Pain Drain\libraries\lvgl\src\widgets\../core/lv_obj_style_gen.h ****     return (lv_opa_t)v.num;
 251:..\..\..\arduinoLCD\test\Pain Drain\libraries\lvgl\src\widgets\../core/lv_obj_style_gen.h **** }
 252:..\..\..\arduinoLCD\test\Pain Drain\libraries\lvgl\src\widgets\../core/lv_obj_style_gen.h **** 
 253:..\..\..\arduinoLCD\test\Pain Drain\libraries\lvgl\src\widgets\../core/lv_obj_style_gen.h **** static inline lv_coord_t lv_obj_get_style_border_width(const struct _lv_obj_t * obj, uint32_t part)
 254:..\..\..\arduinoLCD\test\Pain Drain\libraries\lvgl\src\widgets\../core/lv_obj_style_gen.h **** {
 255:..\..\..\arduinoLCD\test\Pain Drain\libraries\lvgl\src\widgets\../core/lv_obj_style_gen.h ****     lv_style_value_t v = lv_obj_get_style_prop(obj, part, LV_STYLE_BORDER_WIDTH);
 256:..\..\..\arduinoLCD\test\Pain Drain\libraries\lvgl\src\widgets\../core/lv_obj_style_gen.h ****     return (lv_coord_t)v.num;
 257:..\..\..\arduinoLCD\test\Pain Drain\libraries\lvgl\src\widgets\../core/lv_obj_style_gen.h **** }
 258:..\..\..\arduinoLCD\test\Pain Drain\libraries\lvgl\src\widgets\../core/lv_obj_style_gen.h **** 
 259:..\..\..\arduinoLCD\test\Pain Drain\libraries\lvgl\src\widgets\../core/lv_obj_style_gen.h **** static inline lv_border_side_t lv_obj_get_style_border_side(const struct _lv_obj_t * obj, uint32_t 
 260:..\..\..\arduinoLCD\test\Pain Drain\libraries\lvgl\src\widgets\../core/lv_obj_style_gen.h **** {
 261:..\..\..\arduinoLCD\test\Pain Drain\libraries\lvgl\src\widgets\../core/lv_obj_style_gen.h ****     lv_style_value_t v = lv_obj_get_style_prop(obj, part, LV_STYLE_BORDER_SIDE);
 262:..\..\..\arduinoLCD\test\Pain Drain\libraries\lvgl\src\widgets\../core/lv_obj_style_gen.h ****     return (lv_border_side_t)v.num;
 263:..\..\..\arduinoLCD\test\Pain Drain\libraries\lvgl\src\widgets\../core/lv_obj_style_gen.h **** }
 264:..\..\..\arduinoLCD\test\Pain Drain\libraries\lvgl\src\widgets\../core/lv_obj_style_gen.h **** 
 265:..\..\..\arduinoLCD\test\Pain Drain\libraries\lvgl\src\widgets\../core/lv_obj_style_gen.h **** static inline bool lv_obj_get_style_border_post(const struct _lv_obj_t * obj, uint32_t part)
 266:..\..\..\arduinoLCD\test\Pain Drain\libraries\lvgl\src\widgets\../core/lv_obj_style_gen.h **** {
 267:..\..\..\arduinoLCD\test\Pain Drain\libraries\lvgl\src\widgets\../core/lv_obj_style_gen.h ****     lv_style_value_t v = lv_obj_get_style_prop(obj, part, LV_STYLE_BORDER_POST);
 268:..\..\..\arduinoLCD\test\Pain Drain\libraries\lvgl\src\widgets\../core/lv_obj_style_gen.h ****     return (bool)v.num;
 269:..\..\..\arduinoLCD\test\Pain Drain\libraries\lvgl\src\widgets\../core/lv_obj_style_gen.h **** }
 270:..\..\..\arduinoLCD\test\Pain Drain\libraries\lvgl\src\widgets\../core/lv_obj_style_gen.h **** 
 271:..\..\..\arduinoLCD\test\Pain Drain\libraries\lvgl\src\widgets\../core/lv_obj_style_gen.h **** static inline lv_coord_t lv_obj_get_style_outline_width(const struct _lv_obj_t * obj, uint32_t part
 272:..\..\..\arduinoLCD\test\Pain Drain\libraries\lvgl\src\widgets\../core/lv_obj_style_gen.h **** {
 273:..\..\..\arduinoLCD\test\Pain Drain\libraries\lvgl\src\widgets\../core/lv_obj_style_gen.h ****     lv_style_value_t v = lv_obj_get_style_prop(obj, part, LV_STYLE_OUTLINE_WIDTH);
 274:..\..\..\arduinoLCD\test\Pain Drain\libraries\lvgl\src\widgets\../core/lv_obj_style_gen.h ****     return (lv_coord_t)v.num;
 275:..\..\..\arduinoLCD\test\Pain Drain\libraries\lvgl\src\widgets\../core/lv_obj_style_gen.h **** }
 276:..\..\..\arduinoLCD\test\Pain Drain\libraries\lvgl\src\widgets\../core/lv_obj_style_gen.h **** 
 277:..\..\..\arduinoLCD\test\Pain Drain\libraries\lvgl\src\widgets\../core/lv_obj_style_gen.h **** static inline lv_color_t lv_obj_get_style_outline_color(const struct _lv_obj_t * obj, uint32_t part
 278:..\..\..\arduinoLCD\test\Pain Drain\libraries\lvgl\src\widgets\../core/lv_obj_style_gen.h **** {
 279:..\..\..\arduinoLCD\test\Pain Drain\libraries\lvgl\src\widgets\../core/lv_obj_style_gen.h ****     lv_style_value_t v = lv_obj_get_style_prop(obj, part, LV_STYLE_OUTLINE_COLOR);
 280:..\..\..\arduinoLCD\test\Pain Drain\libraries\lvgl\src\widgets\../core/lv_obj_style_gen.h ****     return v.color;
 281:..\..\..\arduinoLCD\test\Pain Drain\libraries\lvgl\src\widgets\../core/lv_obj_style_gen.h **** }
 282:..\..\..\arduinoLCD\test\Pain Drain\libraries\lvgl\src\widgets\../core/lv_obj_style_gen.h **** 
ARM GAS  C:\Users\haske\AppData\Local\Temp\ccxUXv8a.s 			page 28


 283:..\..\..\arduinoLCD\test\Pain Drain\libraries\lvgl\src\widgets\../core/lv_obj_style_gen.h **** static inline lv_color_t lv_obj_get_style_outline_color_filtered(const struct _lv_obj_t * obj, uint
 284:..\..\..\arduinoLCD\test\Pain Drain\libraries\lvgl\src\widgets\../core/lv_obj_style_gen.h **** {
 285:..\..\..\arduinoLCD\test\Pain Drain\libraries\lvgl\src\widgets\../core/lv_obj_style_gen.h ****     lv_style_value_t v = _lv_obj_style_apply_color_filter(obj, part, lv_obj_get_style_prop(obj, par
 286:..\..\..\arduinoLCD\test\Pain Drain\libraries\lvgl\src\widgets\../core/lv_obj_style_gen.h ****     return v.color;
 287:..\..\..\arduinoLCD\test\Pain Drain\libraries\lvgl\src\widgets\../core/lv_obj_style_gen.h **** }
 288:..\..\..\arduinoLCD\test\Pain Drain\libraries\lvgl\src\widgets\../core/lv_obj_style_gen.h **** 
 289:..\..\..\arduinoLCD\test\Pain Drain\libraries\lvgl\src\widgets\../core/lv_obj_style_gen.h **** static inline lv_opa_t lv_obj_get_style_outline_opa(const struct _lv_obj_t * obj, uint32_t part)
 290:..\..\..\arduinoLCD\test\Pain Drain\libraries\lvgl\src\widgets\../core/lv_obj_style_gen.h **** {
 291:..\..\..\arduinoLCD\test\Pain Drain\libraries\lvgl\src\widgets\../core/lv_obj_style_gen.h ****     lv_style_value_t v = lv_obj_get_style_prop(obj, part, LV_STYLE_OUTLINE_OPA);
 292:..\..\..\arduinoLCD\test\Pain Drain\libraries\lvgl\src\widgets\../core/lv_obj_style_gen.h ****     return (lv_opa_t)v.num;
 293:..\..\..\arduinoLCD\test\Pain Drain\libraries\lvgl\src\widgets\../core/lv_obj_style_gen.h **** }
 294:..\..\..\arduinoLCD\test\Pain Drain\libraries\lvgl\src\widgets\../core/lv_obj_style_gen.h **** 
 295:..\..\..\arduinoLCD\test\Pain Drain\libraries\lvgl\src\widgets\../core/lv_obj_style_gen.h **** static inline lv_coord_t lv_obj_get_style_outline_pad(const struct _lv_obj_t * obj, uint32_t part)
 296:..\..\..\arduinoLCD\test\Pain Drain\libraries\lvgl\src\widgets\../core/lv_obj_style_gen.h **** {
 297:..\..\..\arduinoLCD\test\Pain Drain\libraries\lvgl\src\widgets\../core/lv_obj_style_gen.h ****     lv_style_value_t v = lv_obj_get_style_prop(obj, part, LV_STYLE_OUTLINE_PAD);
 298:..\..\..\arduinoLCD\test\Pain Drain\libraries\lvgl\src\widgets\../core/lv_obj_style_gen.h ****     return (lv_coord_t)v.num;
 299:..\..\..\arduinoLCD\test\Pain Drain\libraries\lvgl\src\widgets\../core/lv_obj_style_gen.h **** }
 300:..\..\..\arduinoLCD\test\Pain Drain\libraries\lvgl\src\widgets\../core/lv_obj_style_gen.h **** 
 301:..\..\..\arduinoLCD\test\Pain Drain\libraries\lvgl\src\widgets\../core/lv_obj_style_gen.h **** static inline lv_coord_t lv_obj_get_style_shadow_width(const struct _lv_obj_t * obj, uint32_t part)
 302:..\..\..\arduinoLCD\test\Pain Drain\libraries\lvgl\src\widgets\../core/lv_obj_style_gen.h **** {
 303:..\..\..\arduinoLCD\test\Pain Drain\libraries\lvgl\src\widgets\../core/lv_obj_style_gen.h ****     lv_style_value_t v = lv_obj_get_style_prop(obj, part, LV_STYLE_SHADOW_WIDTH);
 304:..\..\..\arduinoLCD\test\Pain Drain\libraries\lvgl\src\widgets\../core/lv_obj_style_gen.h ****     return (lv_coord_t)v.num;
 305:..\..\..\arduinoLCD\test\Pain Drain\libraries\lvgl\src\widgets\../core/lv_obj_style_gen.h **** }
 306:..\..\..\arduinoLCD\test\Pain Drain\libraries\lvgl\src\widgets\../core/lv_obj_style_gen.h **** 
 307:..\..\..\arduinoLCD\test\Pain Drain\libraries\lvgl\src\widgets\../core/lv_obj_style_gen.h **** static inline lv_coord_t lv_obj_get_style_shadow_ofs_x(const struct _lv_obj_t * obj, uint32_t part)
 308:..\..\..\arduinoLCD\test\Pain Drain\libraries\lvgl\src\widgets\../core/lv_obj_style_gen.h **** {
 309:..\..\..\arduinoLCD\test\Pain Drain\libraries\lvgl\src\widgets\../core/lv_obj_style_gen.h ****     lv_style_value_t v = lv_obj_get_style_prop(obj, part, LV_STYLE_SHADOW_OFS_X);
 310:..\..\..\arduinoLCD\test\Pain Drain\libraries\lvgl\src\widgets\../core/lv_obj_style_gen.h ****     return (lv_coord_t)v.num;
 311:..\..\..\arduinoLCD\test\Pain Drain\libraries\lvgl\src\widgets\../core/lv_obj_style_gen.h **** }
 312:..\..\..\arduinoLCD\test\Pain Drain\libraries\lvgl\src\widgets\../core/lv_obj_style_gen.h **** 
 313:..\..\..\arduinoLCD\test\Pain Drain\libraries\lvgl\src\widgets\../core/lv_obj_style_gen.h **** static inline lv_coord_t lv_obj_get_style_shadow_ofs_y(const struct _lv_obj_t * obj, uint32_t part)
 314:..\..\..\arduinoLCD\test\Pain Drain\libraries\lvgl\src\widgets\../core/lv_obj_style_gen.h **** {
 315:..\..\..\arduinoLCD\test\Pain Drain\libraries\lvgl\src\widgets\../core/lv_obj_style_gen.h ****     lv_style_value_t v = lv_obj_get_style_prop(obj, part, LV_STYLE_SHADOW_OFS_Y);
 316:..\..\..\arduinoLCD\test\Pain Drain\libraries\lvgl\src\widgets\../core/lv_obj_style_gen.h ****     return (lv_coord_t)v.num;
 317:..\..\..\arduinoLCD\test\Pain Drain\libraries\lvgl\src\widgets\../core/lv_obj_style_gen.h **** }
 318:..\..\..\arduinoLCD\test\Pain Drain\libraries\lvgl\src\widgets\../core/lv_obj_style_gen.h **** 
 319:..\..\..\arduinoLCD\test\Pain Drain\libraries\lvgl\src\widgets\../core/lv_obj_style_gen.h **** static inline lv_coord_t lv_obj_get_style_shadow_spread(const struct _lv_obj_t * obj, uint32_t part
 320:..\..\..\arduinoLCD\test\Pain Drain\libraries\lvgl\src\widgets\../core/lv_obj_style_gen.h **** {
 321:..\..\..\arduinoLCD\test\Pain Drain\libraries\lvgl\src\widgets\../core/lv_obj_style_gen.h ****     lv_style_value_t v = lv_obj_get_style_prop(obj, part, LV_STYLE_SHADOW_SPREAD);
 322:..\..\..\arduinoLCD\test\Pain Drain\libraries\lvgl\src\widgets\../core/lv_obj_style_gen.h ****     return (lv_coord_t)v.num;
 323:..\..\..\arduinoLCD\test\Pain Drain\libraries\lvgl\src\widgets\../core/lv_obj_style_gen.h **** }
 324:..\..\..\arduinoLCD\test\Pain Drain\libraries\lvgl\src\widgets\../core/lv_obj_style_gen.h **** 
 325:..\..\..\arduinoLCD\test\Pain Drain\libraries\lvgl\src\widgets\../core/lv_obj_style_gen.h **** static inline lv_color_t lv_obj_get_style_shadow_color(const struct _lv_obj_t * obj, uint32_t part)
 326:..\..\..\arduinoLCD\test\Pain Drain\libraries\lvgl\src\widgets\../core/lv_obj_style_gen.h **** {
 327:..\..\..\arduinoLCD\test\Pain Drain\libraries\lvgl\src\widgets\../core/lv_obj_style_gen.h ****     lv_style_value_t v = lv_obj_get_style_prop(obj, part, LV_STYLE_SHADOW_COLOR);
 328:..\..\..\arduinoLCD\test\Pain Drain\libraries\lvgl\src\widgets\../core/lv_obj_style_gen.h ****     return v.color;
 329:..\..\..\arduinoLCD\test\Pain Drain\libraries\lvgl\src\widgets\../core/lv_obj_style_gen.h **** }
 330:..\..\..\arduinoLCD\test\Pain Drain\libraries\lvgl\src\widgets\../core/lv_obj_style_gen.h **** 
 331:..\..\..\arduinoLCD\test\Pain Drain\libraries\lvgl\src\widgets\../core/lv_obj_style_gen.h **** static inline lv_color_t lv_obj_get_style_shadow_color_filtered(const struct _lv_obj_t * obj, uint3
 332:..\..\..\arduinoLCD\test\Pain Drain\libraries\lvgl\src\widgets\../core/lv_obj_style_gen.h **** {
 333:..\..\..\arduinoLCD\test\Pain Drain\libraries\lvgl\src\widgets\../core/lv_obj_style_gen.h ****     lv_style_value_t v = _lv_obj_style_apply_color_filter(obj, part, lv_obj_get_style_prop(obj, par
 334:..\..\..\arduinoLCD\test\Pain Drain\libraries\lvgl\src\widgets\../core/lv_obj_style_gen.h ****     return v.color;
 335:..\..\..\arduinoLCD\test\Pain Drain\libraries\lvgl\src\widgets\../core/lv_obj_style_gen.h **** }
 336:..\..\..\arduinoLCD\test\Pain Drain\libraries\lvgl\src\widgets\../core/lv_obj_style_gen.h **** 
 337:..\..\..\arduinoLCD\test\Pain Drain\libraries\lvgl\src\widgets\../core/lv_obj_style_gen.h **** static inline lv_opa_t lv_obj_get_style_shadow_opa(const struct _lv_obj_t * obj, uint32_t part)
 338:..\..\..\arduinoLCD\test\Pain Drain\libraries\lvgl\src\widgets\../core/lv_obj_style_gen.h **** {
 339:..\..\..\arduinoLCD\test\Pain Drain\libraries\lvgl\src\widgets\../core/lv_obj_style_gen.h ****     lv_style_value_t v = lv_obj_get_style_prop(obj, part, LV_STYLE_SHADOW_OPA);
ARM GAS  C:\Users\haske\AppData\Local\Temp\ccxUXv8a.s 			page 29


 340:..\..\..\arduinoLCD\test\Pain Drain\libraries\lvgl\src\widgets\../core/lv_obj_style_gen.h ****     return (lv_opa_t)v.num;
 341:..\..\..\arduinoLCD\test\Pain Drain\libraries\lvgl\src\widgets\../core/lv_obj_style_gen.h **** }
 342:..\..\..\arduinoLCD\test\Pain Drain\libraries\lvgl\src\widgets\../core/lv_obj_style_gen.h **** 
 343:..\..\..\arduinoLCD\test\Pain Drain\libraries\lvgl\src\widgets\../core/lv_obj_style_gen.h **** static inline lv_opa_t lv_obj_get_style_img_opa(const struct _lv_obj_t * obj, uint32_t part)
 344:..\..\..\arduinoLCD\test\Pain Drain\libraries\lvgl\src\widgets\../core/lv_obj_style_gen.h **** {
 345:..\..\..\arduinoLCD\test\Pain Drain\libraries\lvgl\src\widgets\../core/lv_obj_style_gen.h ****     lv_style_value_t v = lv_obj_get_style_prop(obj, part, LV_STYLE_IMG_OPA);
 346:..\..\..\arduinoLCD\test\Pain Drain\libraries\lvgl\src\widgets\../core/lv_obj_style_gen.h ****     return (lv_opa_t)v.num;
 347:..\..\..\arduinoLCD\test\Pain Drain\libraries\lvgl\src\widgets\../core/lv_obj_style_gen.h **** }
 348:..\..\..\arduinoLCD\test\Pain Drain\libraries\lvgl\src\widgets\../core/lv_obj_style_gen.h **** 
 349:..\..\..\arduinoLCD\test\Pain Drain\libraries\lvgl\src\widgets\../core/lv_obj_style_gen.h **** static inline lv_color_t lv_obj_get_style_img_recolor(const struct _lv_obj_t * obj, uint32_t part)
 350:..\..\..\arduinoLCD\test\Pain Drain\libraries\lvgl\src\widgets\../core/lv_obj_style_gen.h **** {
 351:..\..\..\arduinoLCD\test\Pain Drain\libraries\lvgl\src\widgets\../core/lv_obj_style_gen.h ****     lv_style_value_t v = lv_obj_get_style_prop(obj, part, LV_STYLE_IMG_RECOLOR);
 392              		.loc 2 351 0
 393 0008 4722     		movs	r2, #71
 394              	.LVL52:
 395 000a 0021     		movs	r1, #0
 396              	.LVL53:
 397 000c FFF7FEFF 		bl	lv_obj_get_style_prop
 398              	.LVL54:
 399 0010 0300     		movs	r3, r0
 400              	.LVL55:
 401              	.LBE27:
 402              	.LBE26:
 123:..\..\..\arduinoLCD\test\Pain Drain\libraries\lvgl\src\widgets/lv_canvas.c **** }
 403              		.loc 1 123 0
 404 0012 2000     		movs	r0, r4
 405 0014 3C30     		adds	r0, r0, #60
 406 0016 3200     		movs	r2, r6
 407 0018 2900     		movs	r1, r5
 408 001a FFF7FEFF 		bl	lv_img_buf_get_px_color
 409              	.LVL56:
 124:..\..\..\arduinoLCD\test\Pain Drain\libraries\lvgl\src\widgets/lv_canvas.c **** 
 410              		.loc 1 124 0
 411              		@ sp needed
 412              	.LVL57:
 413 001e 70BD     		pop	{r4, r5, r6, pc}
 414              		.cfi_endproc
 415              	.LFE165:
 416              		.size	lv_canvas_get_px, .-lv_canvas_get_px
 417              		.section	.text.lv_canvas_get_img,"ax",%progbits
 418              		.align	2
 419              		.global	lv_canvas_get_img
 420              		.code	16
 421              		.thumb_func
 422              		.type	lv_canvas_get_img, %function
 423              	lv_canvas_get_img:
 424              	.LFB166:
 127:..\..\..\arduinoLCD\test\Pain Drain\libraries\lvgl\src\widgets/lv_canvas.c ****     LV_ASSERT_OBJ(obj, MY_CLASS);
 425              		.loc 1 127 0
 426              		.cfi_startproc
 427              		@ args = 0, pretend = 0, frame = 0
 428              		@ frame_needed = 0, uses_anonymous_args = 0
 429              		@ link register save eliminated.
 430              	.LVL58:
 131:..\..\..\arduinoLCD\test\Pain Drain\libraries\lvgl\src\widgets/lv_canvas.c **** }
 431              		.loc 1 131 0
 432 0000 3C30     		adds	r0, r0, #60
ARM GAS  C:\Users\haske\AppData\Local\Temp\ccxUXv8a.s 			page 30


 433              	.LVL59:
 132:..\..\..\arduinoLCD\test\Pain Drain\libraries\lvgl\src\widgets/lv_canvas.c **** 
 434              		.loc 1 132 0
 435              		@ sp needed
 436 0002 7047     		bx	lr
 437              		.cfi_endproc
 438              	.LFE166:
 439              		.size	lv_canvas_get_img, .-lv_canvas_get_img
 440              		.section	.text.init_fake_disp,"ax",%progbits
 441              		.align	2
 442              		.code	16
 443              		.thumb_func
 444              		.type	init_fake_disp, %function
 445              	init_fake_disp:
 446              	.LFB180:
 796:..\..\..\arduinoLCD\test\Pain Drain\libraries\lvgl\src\widgets/lv_canvas.c ****     lv_img_dsc_t * dsc = lv_canvas_get_img(canvas);
 447              		.loc 1 796 0
 448              		.cfi_startproc
 449              		@ args = 0, pretend = 0, frame = 8
 450              		@ frame_needed = 0, uses_anonymous_args = 0
 451              	.LVL60:
 452 0000 F0B5     		push	{r4, r5, r6, r7, lr}
 453              		.cfi_def_cfa_offset 20
 454              		.cfi_offset 4, -20
 455              		.cfi_offset 5, -16
 456              		.cfi_offset 6, -12
 457              		.cfi_offset 7, -8
 458              		.cfi_offset 14, -4
 459 0002 83B0     		sub	sp, sp, #12
 460              		.cfi_def_cfa_offset 32
 461 0004 0F00     		movs	r7, r1
 462 0006 1400     		movs	r4, r2
 463 0008 0192     		str	r2, [sp, #4]
 464 000a 1D00     		movs	r5, r3
 797:..\..\..\arduinoLCD\test\Pain Drain\libraries\lvgl\src\widgets/lv_canvas.c **** 
 465              		.loc 1 797 0
 466 000c FFF7FEFF 		bl	lv_canvas_get_img
 467              	.LVL61:
 468 0010 0600     		movs	r6, r0
 469              	.LVL62:
 799:..\..\..\arduinoLCD\test\Pain Drain\libraries\lvgl\src\widgets/lv_canvas.c ****     clip_area->x2 = dsc->header.w - 1;
 470              		.loc 1 799 0
 471 0012 0022     		movs	r2, #0
 472 0014 2A80     		strh	r2, [r5]
 800:..\..\..\arduinoLCD\test\Pain Drain\libraries\lvgl\src\widgets/lv_canvas.c ****     clip_area->y1 = 0;
 473              		.loc 1 800 0
 474 0016 0368     		ldr	r3, [r0]
 475 0018 DB02     		lsls	r3, r3, #11
 476 001a 5B0D     		lsrs	r3, r3, #21
 477 001c 013B     		subs	r3, r3, #1
 478 001e AB80     		strh	r3, [r5, #4]
 801:..\..\..\arduinoLCD\test\Pain Drain\libraries\lvgl\src\widgets/lv_canvas.c ****     clip_area->y2 = dsc->header.h - 1;
 479              		.loc 1 801 0
 480 0020 6A80     		strh	r2, [r5, #2]
 802:..\..\..\arduinoLCD\test\Pain Drain\libraries\lvgl\src\widgets/lv_canvas.c **** 
 481              		.loc 1 802 0
 482 0022 4388     		ldrh	r3, [r0, #2]
ARM GAS  C:\Users\haske\AppData\Local\Temp\ccxUXv8a.s 			page 31


 483 0024 5B09     		lsrs	r3, r3, #5
 484 0026 013B     		subs	r3, r3, #1
 485 0028 EB80     		strh	r3, [r5, #6]
 805:..\..\..\arduinoLCD\test\Pain Drain\libraries\lvgl\src\widgets/lv_canvas.c ****     disp->driver = drv;
 486              		.loc 1 805 0
 487 002a AE21     		movs	r1, #174
 488 002c 4900     		lsls	r1, r1, #1
 489 002e 3800     		movs	r0, r7
 490              	.LVL63:
 491 0030 FFF7FEFF 		bl	lv_memset_00
 492              	.LVL64:
 806:..\..\..\arduinoLCD\test\Pain Drain\libraries\lvgl\src\widgets/lv_canvas.c **** 
 493              		.loc 1 806 0
 494 0034 3C60     		str	r4, [r7]
 808:..\..\..\arduinoLCD\test\Pain Drain\libraries\lvgl\src\widgets/lv_canvas.c ****     disp->driver->hor_res = dsc->header.w;
 495              		.loc 1 808 0
 496 0036 2000     		movs	r0, r4
 497 0038 FFF7FEFF 		bl	lv_disp_drv_init
 498              	.LVL65:
 809:..\..\..\arduinoLCD\test\Pain Drain\libraries\lvgl\src\widgets/lv_canvas.c ****     disp->driver->ver_res = dsc->header.h;
 499              		.loc 1 809 0
 500 003c 3368     		ldr	r3, [r6]
 501 003e DB02     		lsls	r3, r3, #11
 502 0040 5B0D     		lsrs	r3, r3, #21
 503 0042 3A68     		ldr	r2, [r7]
 504 0044 1380     		strh	r3, [r2]
 810:..\..\..\arduinoLCD\test\Pain Drain\libraries\lvgl\src\widgets/lv_canvas.c **** 
 505              		.loc 1 810 0
 506 0046 7388     		ldrh	r3, [r6, #2]
 507 0048 5B09     		lsrs	r3, r3, #5
 508 004a 3A68     		ldr	r2, [r7]
 509 004c 5380     		strh	r3, [r2, #2]
 812:..\..\..\arduinoLCD\test\Pain Drain\libraries\lvgl\src\widgets/lv_canvas.c ****     LV_ASSERT_MALLOC(draw_ctx);
 510              		.loc 1 812 0
 511 004e 5820     		movs	r0, #88
 512 0050 FFF7FEFF 		bl	lv_mem_alloc
 513              	.LVL66:
 514 0054 041E     		subs	r4, r0, #0
 515              	.LVL67:
 813:..\..\..\arduinoLCD\test\Pain Drain\libraries\lvgl\src\widgets/lv_canvas.c ****     if(draw_ctx == NULL)  return;
 516              		.loc 1 813 0
 517 0056 00D1     		bne	.L20
 518              	.L21:
 519 0058 FEE7     		b	.L21
 520              	.L20:
 814:..\..\..\arduinoLCD\test\Pain Drain\libraries\lvgl\src\widgets/lv_canvas.c ****     lv_draw_sw_init_ctx(drv, draw_ctx);
 521              		.loc 1 814 0
 522 005a 0028     		cmp	r0, #0
 523 005c 0FD0     		beq	.L19
 815:..\..\..\arduinoLCD\test\Pain Drain\libraries\lvgl\src\widgets/lv_canvas.c ****     disp->driver->draw_ctx = draw_ctx;
 524              		.loc 1 815 0
 525 005e 0100     		movs	r1, r0
 526 0060 0198     		ldr	r0, [sp, #4]
 527              	.LVL68:
 528 0062 FFF7FEFF 		bl	lv_draw_sw_init_ctx
 529              	.LVL69:
 816:..\..\..\arduinoLCD\test\Pain Drain\libraries\lvgl\src\widgets/lv_canvas.c ****     draw_ctx->clip_area = clip_area;
ARM GAS  C:\Users\haske\AppData\Local\Temp\ccxUXv8a.s 			page 32


 530              		.loc 1 816 0
 531 0066 3B68     		ldr	r3, [r7]
 532 0068 DC63     		str	r4, [r3, #60]
 817:..\..\..\arduinoLCD\test\Pain Drain\libraries\lvgl\src\widgets/lv_canvas.c ****     draw_ctx->buf_area = clip_area;
 533              		.loc 1 817 0
 534 006a A560     		str	r5, [r4, #8]
 818:..\..\..\arduinoLCD\test\Pain Drain\libraries\lvgl\src\widgets/lv_canvas.c ****     draw_ctx->buf = (void *)dsc->data;
 535              		.loc 1 818 0
 536 006c 6560     		str	r5, [r4, #4]
 819:..\..\..\arduinoLCD\test\Pain Drain\libraries\lvgl\src\widgets/lv_canvas.c **** 
 537              		.loc 1 819 0
 538 006e B368     		ldr	r3, [r6, #8]
 539 0070 2360     		str	r3, [r4]
 821:..\..\..\arduinoLCD\test\Pain Drain\libraries\lvgl\src\widgets/lv_canvas.c ****     if(LV_COLOR_SCREEN_TRANSP && dsc->header.cf != LV_IMG_CF_TRUE_COLOR_ALPHA) {
 540              		.loc 1 821 0
 541 0072 3868     		ldr	r0, [r7]
 542 0074 3178     		ldrb	r1, [r6]
 543 0076 C906     		lsls	r1, r1, #27
 544 0078 C90E     		lsrs	r1, r1, #27
 545 007a FFF7FEFF 		bl	lv_disp_drv_use_generic_set_px_cb
 546              	.LVL70:
 547              	.L19:
 825:..\..\..\arduinoLCD\test\Pain Drain\libraries\lvgl\src\widgets/lv_canvas.c **** 
 548              		.loc 1 825 0
 549 007e 03B0     		add	sp, sp, #12
 550              		@ sp needed
 551              	.LVL71:
 552              	.LVL72:
 553              	.LVL73:
 554              	.LVL74:
 555 0080 F0BD     		pop	{r4, r5, r6, r7, pc}
 556              		.cfi_endproc
 557              	.LFE180:
 558              		.size	init_fake_disp, .-init_fake_disp
 559 0082 C046     		.section	.text.lv_canvas_copy_buf,"ax",%progbits
 560              		.align	2
 561              		.global	lv_canvas_copy_buf
 562              		.code	16
 563              		.thumb_func
 564              		.type	lv_canvas_copy_buf, %function
 565              	lv_canvas_copy_buf:
 566              	.LFB167:
 139:..\..\..\arduinoLCD\test\Pain Drain\libraries\lvgl\src\widgets/lv_canvas.c ****     LV_ASSERT_OBJ(obj, MY_CLASS);
 567              		.loc 1 139 0
 568              		.cfi_startproc
 569              		@ args = 8, pretend = 0, frame = 8
 570              		@ frame_needed = 0, uses_anonymous_args = 0
 571              	.LVL75:
 572 0000 F0B5     		push	{r4, r5, r6, r7, lr}
 573              		.cfi_def_cfa_offset 20
 574              		.cfi_offset 4, -20
 575              		.cfi_offset 5, -16
 576              		.cfi_offset 6, -12
 577              		.cfi_offset 7, -8
 578              		.cfi_offset 14, -4
 579 0002 5F46     		mov	r7, fp
 580 0004 5646     		mov	r6, r10
ARM GAS  C:\Users\haske\AppData\Local\Temp\ccxUXv8a.s 			page 33


 581 0006 4D46     		mov	r5, r9
 582 0008 E0B4     		push	{r5, r6, r7}
 583              		.cfi_def_cfa_offset 32
 584              		.cfi_offset 9, -32
 585              		.cfi_offset 10, -28
 586              		.cfi_offset 11, -24
 587 000a 82B0     		sub	sp, sp, #8
 588              		.cfi_def_cfa_offset 40
 589 000c 0600     		movs	r6, r0
 590 000e 8946     		mov	r9, r1
 591 0010 1400     		movs	r4, r2
 592 0012 1F00     		movs	r7, r3
 593 0014 0AAB     		add	r3, sp, #40
 594              	.LVL76:
 595 0016 0022     		movs	r2, #0
 596 0018 9B5E     		ldrsh	r3, [r3, r2]
 597              	.LVL77:
 598 001a 9A46     		mov	r10, r3
 599 001c 0BAB     		add	r3, sp, #44
 600              	.LVL78:
 601 001e 0022     		movs	r2, #0
 602 0020 9B5E     		ldrsh	r3, [r3, r2]
 603              	.LVL79:
 604 0022 9B46     		mov	fp, r3
 141:..\..\..\arduinoLCD\test\Pain Drain\libraries\lvgl\src\widgets/lv_canvas.c **** 
 605              		.loc 1 141 0
 606 0024 0029     		cmp	r1, #0
 607 0026 00D1     		bne	.L24
 608              	.L25:
 609 0028 FEE7     		b	.L25
 610              	.L24:
 611              	.LVL80:
 145:..\..\..\arduinoLCD\test\Pain Drain\libraries\lvgl\src\widgets/lv_canvas.c ****         LV_LOG_WARN("lv_canvas_copy_buf: x or y out of the canvas");
 612              		.loc 1 145 0
 613 002a 5346     		mov	r3, r10
 614 002c E218     		adds	r2, r4, r3
 615 002e 013A     		subs	r2, r2, #1
 616 0030 C36B     		ldr	r3, [r0, #60]
 617 0032 DB02     		lsls	r3, r3, #11
 618 0034 5B0D     		lsrs	r3, r3, #21
 619 0036 9A42     		cmp	r2, r3
 620 0038 2BDA     		bge	.L23
 145:..\..\..\arduinoLCD\test\Pain Drain\libraries\lvgl\src\widgets/lv_canvas.c ****         LV_LOG_WARN("lv_canvas_copy_buf: x or y out of the canvas");
 621              		.loc 1 145 0 is_stmt 0 discriminator 1
 622 003a 5B46     		mov	r3, fp
 623 003c DA19     		adds	r2, r3, r7
 624 003e 013A     		subs	r2, r2, #1
 625 0040 C38F     		ldrh	r3, [r0, #62]
 626 0042 5B09     		lsrs	r3, r3, #5
 627 0044 9A42     		cmp	r2, r3
 628 0046 24DA     		bge	.L23
 150:..\..\..\arduinoLCD\test\Pain Drain\libraries\lvgl\src\widgets/lv_canvas.c ****     uint32_t px        = canvas->dsc.header.w * y * px_size + x * px_size;
 629              		.loc 1 150 0 is_stmt 1
 630 0048 3C23     		movs	r3, #60
 631 004a C05C     		ldrb	r0, [r0, r3]
 632              	.LVL81:
 633 004c C006     		lsls	r0, r0, #27
ARM GAS  C:\Users\haske\AppData\Local\Temp\ccxUXv8a.s 			page 34


 634 004e C00E     		lsrs	r0, r0, #27
 635 0050 FFF7FEFF 		bl	lv_img_cf_get_px_size
 636              	.LVL82:
 637 0054 C508     		lsrs	r5, r0, #3
 638 0056 EDB2     		uxtb	r5, r5
 639              	.LVL83:
 151:..\..\..\arduinoLCD\test\Pain Drain\libraries\lvgl\src\widgets/lv_canvas.c ****     uint8_t * to_copy8 = (uint8_t *)to_copy;
 640              		.loc 1 151 0
 641 0058 F36B     		ldr	r3, [r6, #60]
 642 005a DB02     		lsls	r3, r3, #11
 643 005c 5B0D     		lsrs	r3, r3, #21
 644 005e 7B43     		muls	r3, r7
 645 0060 1C19     		adds	r4, r3, r4
 646 0062 6C43     		muls	r4, r5
 647              	.LVL84:
 154:..\..\..\arduinoLCD\test\Pain Drain\libraries\lvgl\src\widgets/lv_canvas.c ****         lv_memcpy((void *)&canvas->dsc.data[px], to_copy8, w * px_size);
 648              		.loc 1 154 0
 649 0064 0027     		movs	r7, #0
 650 0066 12E0     		b	.L27
 651              	.LVL85:
 652              	.L28:
 155:..\..\..\arduinoLCD\test\Pain Drain\libraries\lvgl\src\widgets/lv_canvas.c ****         px += canvas->dsc.header.w * px_size;
 653              		.loc 1 155 0 discriminator 3
 654 0068 736C     		ldr	r3, [r6, #68]
 655 006a 1819     		adds	r0, r3, r4
 656 006c 5346     		mov	r3, r10
 657 006e 6B43     		muls	r3, r5
 658 0070 0193     		str	r3, [sp, #4]
 659 0072 1A00     		movs	r2, r3
 660 0074 4946     		mov	r1, r9
 661 0076 FFF7FEFF 		bl	lv_memcpy
 662              	.LVL86:
 156:..\..\..\arduinoLCD\test\Pain Drain\libraries\lvgl\src\widgets/lv_canvas.c ****         to_copy8 += w * px_size;
 663              		.loc 1 156 0 discriminator 3
 664 007a F26B     		ldr	r2, [r6, #60]
 665 007c D302     		lsls	r3, r2, #11
 666 007e 5B0D     		lsrs	r3, r3, #21
 667 0080 6B43     		muls	r3, r5
 668 0082 E418     		adds	r4, r4, r3
 669              	.LVL87:
 157:..\..\..\arduinoLCD\test\Pain Drain\libraries\lvgl\src\widgets/lv_canvas.c ****     }
 670              		.loc 1 157 0 discriminator 3
 671 0084 019B     		ldr	r3, [sp, #4]
 672 0086 9C46     		mov	ip, r3
 673 0088 E144     		add	r9, r9, ip
 674              	.LVL88:
 154:..\..\..\arduinoLCD\test\Pain Drain\libraries\lvgl\src\widgets/lv_canvas.c ****         lv_memcpy((void *)&canvas->dsc.data[px], to_copy8, w * px_size);
 675              		.loc 1 154 0 discriminator 3
 676 008a 7B1C     		adds	r3, r7, #1
 677 008c 1FB2     		sxth	r7, r3
 678              	.LVL89:
 679              	.L27:
 154:..\..\..\arduinoLCD\test\Pain Drain\libraries\lvgl\src\widgets/lv_canvas.c ****         lv_memcpy((void *)&canvas->dsc.data[px], to_copy8, w * px_size);
 680              		.loc 1 154 0 is_stmt 0 discriminator 1
 681 008e 5F45     		cmp	r7, fp
 682 0090 EADB     		blt	.L28
 683              	.LVL90:
ARM GAS  C:\Users\haske\AppData\Local\Temp\ccxUXv8a.s 			page 35


 684              	.L23:
 159:..\..\..\arduinoLCD\test\Pain Drain\libraries\lvgl\src\widgets/lv_canvas.c **** 
 685              		.loc 1 159 0 is_stmt 1
 686 0092 02B0     		add	sp, sp, #8
 687              		@ sp needed
 688              	.LVL91:
 689 0094 1CBC     		pop	{r2, r3, r4}
 690 0096 9146     		mov	r9, r2
 691 0098 9A46     		mov	r10, r3
 692 009a A346     		mov	fp, r4
 693 009c F0BD     		pop	{r4, r5, r6, r7, pc}
 694              		.cfi_endproc
 695              	.LFE167:
 696              		.size	lv_canvas_copy_buf, .-lv_canvas_copy_buf
 697 009e C046     		.section	.text.lv_canvas_transform,"ax",%progbits
 698              		.align	2
 699              		.global	lv_canvas_transform
 700              		.code	16
 701              		.thumb_func
 702              		.type	lv_canvas_transform, %function
 703              	lv_canvas_transform:
 704              	.LFB168:
 164:..\..\..\arduinoLCD\test\Pain Drain\libraries\lvgl\src\widgets/lv_canvas.c **** #if LV_DRAW_COMPLEX
 705              		.loc 1 164 0
 706              		.cfi_startproc
 707              		@ args = 20, pretend = 0, frame = 48
 708              		@ frame_needed = 0, uses_anonymous_args = 0
 709              	.LVL92:
 710 0000 F0B5     		push	{r4, r5, r6, r7, lr}
 711              		.cfi_def_cfa_offset 20
 712              		.cfi_offset 4, -20
 713              		.cfi_offset 5, -16
 714              		.cfi_offset 6, -12
 715              		.cfi_offset 7, -8
 716              		.cfi_offset 14, -4
 717 0002 5F46     		mov	r7, fp
 718 0004 5646     		mov	r6, r10
 719 0006 4D46     		mov	r5, r9
 720 0008 4446     		mov	r4, r8
 721 000a F0B4     		push	{r4, r5, r6, r7}
 722              		.cfi_def_cfa_offset 36
 723              		.cfi_offset 8, -36
 724              		.cfi_offset 9, -32
 725              		.cfi_offset 10, -28
 726              		.cfi_offset 11, -24
 727 000c 93B0     		sub	sp, sp, #76
 728              		.cfi_def_cfa_offset 112
 729 000e 0700     		movs	r7, r0
 730 0010 8B46     		mov	fp, r1
 731 0012 9246     		mov	r10, r2
 732 0014 9846     		mov	r8, r3
 733 0016 1CAB     		add	r3, sp, #112
 734              	.LVL93:
 735 0018 0025     		movs	r5, #0
 736 001a 5D5F     		ldrsh	r5, [r3, r5]
 737              	.LVL94:
 738 001c 1DAB     		add	r3, sp, #116
ARM GAS  C:\Users\haske\AppData\Local\Temp\ccxUXv8a.s 			page 36


 739              	.LVL95:
 740 001e 0022     		movs	r2, #0
 741 0020 9B5E     		ldrsh	r3, [r3, r2]
 742              	.LVL96:
 743 0022 9946     		mov	r9, r3
 744 0024 20AB     		add	r3, sp, #128
 745              	.LVL97:
 746 0026 1E78     		ldrb	r6, [r3]
 167:..\..\..\arduinoLCD\test\Pain Drain\libraries\lvgl\src\widgets/lv_canvas.c **** 
 747              		.loc 1 167 0
 748 0028 0029     		cmp	r1, #0
 749 002a 00D1     		bne	.L30
 750              	.L31:
 751 002c FEE7     		b	.L31
 752              	.L30:
 753              	.LVL98:
 170:..\..\..\arduinoLCD\test\Pain Drain\libraries\lvgl\src\widgets/lv_canvas.c **** 
 754              		.loc 1 170 0
 755 002e 3C23     		movs	r3, #60
 756              	.LVL99:
 757 0030 9C46     		mov	ip, r3
 758 0032 8444     		add	ip, ip, r0
 759 0034 6346     		mov	r3, ip
 760 0036 0793     		str	r3, [sp, #28]
 761              	.LVL100:
 176:..\..\..\arduinoLCD\test\Pain Drain\libraries\lvgl\src\widgets/lv_canvas.c ****     draw_dsc.angle = angle;
 762              		.loc 1 176 0
 763 0038 0CAC     		add	r4, sp, #48
 764 003a 2000     		movs	r0, r4
 765              	.LVL101:
 766 003c FFF7FEFF 		bl	lv_draw_img_dsc_init
 767              	.LVL102:
 177:..\..\..\arduinoLCD\test\Pain Drain\libraries\lvgl\src\widgets/lv_canvas.c ****     draw_dsc.zoom = zoom;
 768              		.loc 1 177 0
 769 0040 5346     		mov	r3, r10
 770 0042 2380     		strh	r3, [r4]
 178:..\..\..\arduinoLCD\test\Pain Drain\libraries\lvgl\src\widgets/lv_canvas.c ****     draw_dsc.pivot.x = pivot_x;
 771              		.loc 1 178 0
 772 0044 4346     		mov	r3, r8
 773 0046 6380     		strh	r3, [r4, #2]
 179:..\..\..\arduinoLCD\test\Pain Drain\libraries\lvgl\src\widgets/lv_canvas.c ****     draw_dsc.pivot.y = pivot_y;
 774              		.loc 1 179 0
 775 0048 1E9B     		ldr	r3, [sp, #120]
 776 004a A380     		strh	r3, [r4, #4]
 180:..\..\..\arduinoLCD\test\Pain Drain\libraries\lvgl\src\widgets/lv_canvas.c ****     draw_dsc.antialias = antialias;
 777              		.loc 1 180 0
 778 004c 1F9B     		ldr	r3, [sp, #124]
 779 004e E380     		strh	r3, [r4, #6]
 181:..\..\..\arduinoLCD\test\Pain Drain\libraries\lvgl\src\widgets/lv_canvas.c **** 
 780              		.loc 1 181 0
 781 0050 0123     		movs	r3, #1
 782 0052 1E40     		ands	r6, r3
 783 0054 237D     		ldrb	r3, [r4, #20]
 784 0056 0122     		movs	r2, #1
 785 0058 9343     		bics	r3, r2
 786 005a 1E43     		orrs	r6, r3
 787 005c 2675     		strb	r6, [r4, #20]
ARM GAS  C:\Users\haske\AppData\Local\Temp\ccxUXv8a.s 			page 37


 184:..\..\..\arduinoLCD\test\Pain Drain\libraries\lvgl\src\widgets/lv_canvas.c ****     dest_area.x2 = dest_area.x1 + dest_img->header.w - 1;
 788              		.loc 1 184 0
 789 005e 6D42     		rsbs	r5, r5, #0
 790 0060 ADB2     		uxth	r5, r5
 791 0062 0AAB     		add	r3, sp, #40
 792 0064 1D80     		strh	r5, [r3]
 185:..\..\..\arduinoLCD\test\Pain Drain\libraries\lvgl\src\widgets/lv_canvas.c ****     dest_area.y1 = -offset_y;
 793              		.loc 1 185 0
 794 0066 FA6B     		ldr	r2, [r7, #60]
 795 0068 D002     		lsls	r0, r2, #11
 796 006a 400D     		lsrs	r0, r0, #21
 797 006c 4519     		adds	r5, r0, r5
 798 006e 013D     		subs	r5, r5, #1
 799 0070 9D80     		strh	r5, [r3, #4]
 186:..\..\..\arduinoLCD\test\Pain Drain\libraries\lvgl\src\widgets/lv_canvas.c ****     dest_area.y2 = -offset_y;
 800              		.loc 1 186 0
 801 0072 4A46     		mov	r2, r9
 802 0074 5242     		rsbs	r2, r2, #0
 803 0076 12B2     		sxth	r2, r2
 804 0078 5A80     		strh	r2, [r3, #2]
 187:..\..\..\arduinoLCD\test\Pain Drain\libraries\lvgl\src\widgets/lv_canvas.c **** 
 805              		.loc 1 187 0
 806 007a DA80     		strh	r2, [r3, #6]
 189:..\..\..\arduinoLCD\test\Pain Drain\libraries\lvgl\src\widgets/lv_canvas.c ****     lv_opa_t * abuf = lv_mem_alloc(dest_img->header.w * sizeof(lv_opa_t));
 807              		.loc 1 189 0
 808 007c 4000     		lsls	r0, r0, #1
 809 007e FFF7FEFF 		bl	lv_mem_alloc
 810              	.LVL103:
 811 0082 8046     		mov	r8, r0
 812              	.LVL104:
 190:..\..\..\arduinoLCD\test\Pain Drain\libraries\lvgl\src\widgets/lv_canvas.c ****     for(y = 0; y < dest_img->header.h; y++) {
 813              		.loc 1 190 0
 814 0084 FB6B     		ldr	r3, [r7, #60]
 815 0086 D802     		lsls	r0, r3, #11
 816              	.LVL105:
 817 0088 400D     		lsrs	r0, r0, #21
 818 008a FFF7FEFF 		bl	lv_mem_alloc
 819              	.LVL106:
 191:..\..\..\arduinoLCD\test\Pain Drain\libraries\lvgl\src\widgets/lv_canvas.c ****         if(y + offset_y >= 0) {
 820              		.loc 1 191 0
 821 008e 0023     		movs	r3, #0
 822 0090 9A46     		mov	r10, r3
 823 0092 3A00     		movs	r2, r7
 824 0094 0700     		movs	r7, r0
 825              	.LVL107:
 826 0096 4B46     		mov	r3, r9
 827 0098 D146     		mov	r9, r10
 828 009a C246     		mov	r10, r8
 829 009c 9846     		mov	r8, r3
 830              	.LVL108:
 831 009e 1600     		movs	r6, r2
 832 00a0 45E0     		b	.L32
 833              	.LVL109:
 834              	.L37:
 192:..\..\..\arduinoLCD\test\Pain Drain\libraries\lvgl\src\widgets/lv_canvas.c ****             lv_draw_sw_transform(NULL, &dest_area, src_img->data, src_img->header.w, src_img->heade
 835              		.loc 1 192 0
 836 00a2 4346     		mov	r3, r8
ARM GAS  C:\Users\haske\AppData\Local\Temp\ccxUXv8a.s 			page 38


 837 00a4 4A46     		mov	r2, r9
 838 00a6 D342     		cmn	r3, r2
 839 00a8 3ED4     		bmi	.L33
 840              	.LVL110:
 193:..\..\..\arduinoLCD\test\Pain Drain\libraries\lvgl\src\widgets/lv_canvas.c ****                                  &draw_dsc, canvas->dsc.header.cf, cbuf, abuf);
 841              		.loc 1 193 0
 842 00aa 5B46     		mov	r3, fp
 843 00ac 1B68     		ldr	r3, [r3]
 844 00ae DB02     		lsls	r3, r3, #11
 845 00b0 5A46     		mov	r2, fp
 846              	.LVL111:
 847 00b2 5188     		ldrh	r1, [r2, #2]
 848 00b4 5B0D     		lsrs	r3, r3, #21
 194:..\..\..\arduinoLCD\test\Pain Drain\libraries\lvgl\src\widgets/lv_canvas.c **** 
 849              		.loc 1 194 0
 850 00b6 3C22     		movs	r2, #60
 851 00b8 B25C     		ldrb	r2, [r6, r2]
 852 00ba D206     		lsls	r2, r2, #27
 853 00bc D20E     		lsrs	r2, r2, #27
 193:..\..\..\arduinoLCD\test\Pain Drain\libraries\lvgl\src\widgets/lv_canvas.c ****                                  &draw_dsc, canvas->dsc.header.cf, cbuf, abuf);
 854              		.loc 1 193 0
 855 00be 0597     		str	r7, [sp, #20]
 856 00c0 5046     		mov	r0, r10
 857 00c2 0490     		str	r0, [sp, #16]
 858 00c4 0392     		str	r2, [sp, #12]
 859 00c6 0CAA     		add	r2, sp, #48
 860 00c8 0292     		str	r2, [sp, #8]
 861 00ca 0193     		str	r3, [sp, #4]
 862 00cc 4A09     		lsrs	r2, r1, #5
 863 00ce 0092     		str	r2, [sp]
 864 00d0 5A46     		mov	r2, fp
 865 00d2 9268     		ldr	r2, [r2, #8]
 866 00d4 0AA9     		add	r1, sp, #40
 867 00d6 0020     		movs	r0, #0
 868 00d8 FFF7FEFF 		bl	lv_draw_sw_transform
 869              	.LVL112:
 196:..\..\..\arduinoLCD\test\Pain Drain\libraries\lvgl\src\widgets/lv_canvas.c ****                 if(abuf[x]) {
 870              		.loc 1 196 0
 871 00dc 0024     		movs	r4, #0
 872 00de 15E0     		b	.L34
 873              	.LVL113:
 874              	.L36:
 197:..\..\..\arduinoLCD\test\Pain Drain\libraries\lvgl\src\widgets/lv_canvas.c ****                     lv_img_buf_set_px_color(dest_img, x, y, cbuf[x]);
 875              		.loc 1 197 0
 876 00e0 3D19     		adds	r5, r7, r4
 877 00e2 2B78     		ldrb	r3, [r5]
 878 00e4 002B     		cmp	r3, #0
 879 00e6 10D0     		beq	.L35
 198:..\..\..\arduinoLCD\test\Pain Drain\libraries\lvgl\src\widgets/lv_canvas.c ****                     lv_img_buf_set_px_alpha(dest_img, x, y, abuf[x]);
 880              		.loc 1 198 0
 881 00e8 21B2     		sxth	r1, r4
 882 00ea 4B46     		mov	r3, r9
 883 00ec 1AB2     		sxth	r2, r3
 884 00ee 6300     		lsls	r3, r4, #1
 885 00f0 5046     		mov	r0, r10
 886 00f2 C35A     		ldrh	r3, [r0, r3]
 887 00f4 0992     		str	r2, [sp, #36]
ARM GAS  C:\Users\haske\AppData\Local\Temp\ccxUXv8a.s 			page 39


 888 00f6 0891     		str	r1, [sp, #32]
 889 00f8 0798     		ldr	r0, [sp, #28]
 890 00fa FFF7FEFF 		bl	lv_img_buf_set_px_color
 891              	.LVL114:
 199:..\..\..\arduinoLCD\test\Pain Drain\libraries\lvgl\src\widgets/lv_canvas.c ****                 }
 892              		.loc 1 199 0
 893 00fe 2B78     		ldrb	r3, [r5]
 894 0100 099A     		ldr	r2, [sp, #36]
 895 0102 0899     		ldr	r1, [sp, #32]
 896 0104 0798     		ldr	r0, [sp, #28]
 897 0106 FFF7FEFF 		bl	lv_img_buf_set_px_alpha
 898              	.LVL115:
 899              	.L35:
 196:..\..\..\arduinoLCD\test\Pain Drain\libraries\lvgl\src\widgets/lv_canvas.c ****                 if(abuf[x]) {
 900              		.loc 1 196 0 discriminator 2
 901 010a 0134     		adds	r4, r4, #1
 902              	.LVL116:
 903              	.L34:
 196:..\..\..\arduinoLCD\test\Pain Drain\libraries\lvgl\src\widgets/lv_canvas.c ****                 if(abuf[x]) {
 904              		.loc 1 196 0 is_stmt 0 discriminator 1
 905 010c F36B     		ldr	r3, [r6, #60]
 906 010e DB02     		lsls	r3, r3, #11
 907 0110 5B0D     		lsrs	r3, r3, #21
 908 0112 9C42     		cmp	r4, r3
 909 0114 E4DB     		blt	.L36
 203:..\..\..\arduinoLCD\test\Pain Drain\libraries\lvgl\src\widgets/lv_canvas.c ****             dest_area.y2++;
 910              		.loc 1 203 0 is_stmt 1
 911 0116 0AAB     		add	r3, sp, #40
 912 0118 0221     		movs	r1, #2
 913 011a 5A5E     		ldrsh	r2, [r3, r1]
 914 011c 0132     		adds	r2, r2, #1
 915 011e 5A80     		strh	r2, [r3, #2]
 204:..\..\..\arduinoLCD\test\Pain Drain\libraries\lvgl\src\widgets/lv_canvas.c ****         }
 916              		.loc 1 204 0
 917 0120 0621     		movs	r1, #6
 918 0122 5A5E     		ldrsh	r2, [r3, r1]
 919 0124 0132     		adds	r2, r2, #1
 920 0126 DA80     		strh	r2, [r3, #6]
 921              	.LVL117:
 922              	.L33:
 191:..\..\..\arduinoLCD\test\Pain Drain\libraries\lvgl\src\widgets/lv_canvas.c ****         if(y + offset_y >= 0) {
 923              		.loc 1 191 0 discriminator 2
 924 0128 0123     		movs	r3, #1
 925 012a 9C46     		mov	ip, r3
 926 012c E144     		add	r9, r9, ip
 927              	.LVL118:
 928              	.L32:
 191:..\..\..\arduinoLCD\test\Pain Drain\libraries\lvgl\src\widgets/lv_canvas.c ****         if(y + offset_y >= 0) {
 929              		.loc 1 191 0 is_stmt 0 discriminator 1
 930 012e F38F     		ldrh	r3, [r6, #62]
 931 0130 5B09     		lsrs	r3, r3, #5
 932 0132 9945     		cmp	r9, r3
 933 0134 B5DB     		blt	.L37
 934 0136 3300     		movs	r3, r6
 935 0138 3E00     		movs	r6, r7
 936              	.LVL119:
 937 013a 1F00     		movs	r7, r3
ARM GAS  C:\Users\haske\AppData\Local\Temp\ccxUXv8a.s 			page 40


 938              	.LVL120:
 207:..\..\..\arduinoLCD\test\Pain Drain\libraries\lvgl\src\widgets/lv_canvas.c ****     lv_mem_free(abuf);
 939              		.loc 1 207 0 is_stmt 1
 940 013c 5046     		mov	r0, r10
 941 013e FFF7FEFF 		bl	lv_mem_free
 942              	.LVL121:
 208:..\..\..\arduinoLCD\test\Pain Drain\libraries\lvgl\src\widgets/lv_canvas.c **** 
 943              		.loc 1 208 0
 944 0142 3000     		movs	r0, r6
 945 0144 FFF7FEFF 		bl	lv_mem_free
 946              	.LVL122:
 210:..\..\..\arduinoLCD\test\Pain Drain\libraries\lvgl\src\widgets/lv_canvas.c **** 
 947              		.loc 1 210 0
 948 0148 3800     		movs	r0, r7
 949 014a FFF7FEFF 		bl	lv_obj_invalidate
 950              	.LVL123:
 224:..\..\..\arduinoLCD\test\Pain Drain\libraries\lvgl\src\widgets/lv_canvas.c **** 
 951              		.loc 1 224 0
 952 014e 13B0     		add	sp, sp, #76
 953              		@ sp needed
 954              	.LVL124:
 955              	.LVL125:
 956              	.LVL126:
 957              	.LVL127:
 958              	.LVL128:
 959 0150 3CBC     		pop	{r2, r3, r4, r5}
 960 0152 9046     		mov	r8, r2
 961 0154 9946     		mov	r9, r3
 962 0156 A246     		mov	r10, r4
 963 0158 AB46     		mov	fp, r5
 964 015a F0BD     		pop	{r4, r5, r6, r7, pc}
 965              		.cfi_endproc
 966              	.LFE168:
 967              		.size	lv_canvas_transform, .-lv_canvas_transform
 968              		.global	__aeabi_uidiv
 969              		.section	.text.lv_canvas_blur_hor,"ax",%progbits
 970              		.align	2
 971              		.global	lv_canvas_blur_hor
 972              		.code	16
 973              		.thumb_func
 974              		.type	lv_canvas_blur_hor, %function
 975              	lv_canvas_blur_hor:
 976              	.LFB169:
 227:..\..\..\arduinoLCD\test\Pain Drain\libraries\lvgl\src\widgets/lv_canvas.c ****     LV_ASSERT_OBJ(obj, MY_CLASS);
 977              		.loc 1 227 0
 978              		.cfi_startproc
 979              		@ args = 0, pretend = 0, frame = 80
 980              		@ frame_needed = 0, uses_anonymous_args = 0
 981              	.LVL129:
 982 0000 F0B5     		push	{r4, r5, r6, r7, lr}
 983              		.cfi_def_cfa_offset 20
 984              		.cfi_offset 4, -20
 985              		.cfi_offset 5, -16
 986              		.cfi_offset 6, -12
 987              		.cfi_offset 7, -8
 988              		.cfi_offset 14, -4
 989 0002 5F46     		mov	r7, fp
ARM GAS  C:\Users\haske\AppData\Local\Temp\ccxUXv8a.s 			page 41


 990 0004 5646     		mov	r6, r10
 991 0006 4D46     		mov	r5, r9
 992 0008 4446     		mov	r4, r8
 993 000a F0B4     		push	{r4, r5, r6, r7}
 994              		.cfi_def_cfa_offset 36
 995              		.cfi_offset 8, -36
 996              		.cfi_offset 9, -32
 997              		.cfi_offset 10, -28
 998              		.cfi_offset 11, -24
 999 000c 95B0     		sub	sp, sp, #84
 1000              		.cfi_def_cfa_offset 120
 1001 000e 8146     		mov	r9, r0
 1002 0010 0692     		str	r2, [sp, #24]
 230:..\..\..\arduinoLCD\test\Pain Drain\libraries\lvgl\src\widgets/lv_canvas.c **** 
 1003              		.loc 1 230 0
 1004 0012 002A     		cmp	r2, #0
 1005 0014 00D1     		bne	.LCB1040
 1006 0016 A4E1     		b	.L38	@long jump
 1007              	.LCB1040:
 1008              	.LVL130:
 235:..\..\..\arduinoLCD\test\Pain Drain\libraries\lvgl\src\widgets/lv_canvas.c ****         lv_area_copy(&a, area);
 1009              		.loc 1 235 0
 1010 0018 0029     		cmp	r1, #0
 1011 001a 28D0     		beq	.L40
 1012              	.LVL131:
 1013              	.LBB28:
 1014              	.LBB29:
 1015              		.file 3 "c:\\projects\\paindrain\\arduinolcd\\test\\pain drain\\libraries\\lvgl\\src\\misc\\lv_are
   1:c:\projects\paindrain\arduinolcd\test\pain drain\libraries\lvgl\src\misc\lv_area.h **** /**
   2:c:\projects\paindrain\arduinolcd\test\pain drain\libraries\lvgl\src\misc\lv_area.h ****  * @file lv_area.h
   3:c:\projects\paindrain\arduinolcd\test\pain drain\libraries\lvgl\src\misc\lv_area.h ****  *
   4:c:\projects\paindrain\arduinolcd\test\pain drain\libraries\lvgl\src\misc\lv_area.h ****  */
   5:c:\projects\paindrain\arduinolcd\test\pain drain\libraries\lvgl\src\misc\lv_area.h **** 
   6:c:\projects\paindrain\arduinolcd\test\pain drain\libraries\lvgl\src\misc\lv_area.h **** #ifndef LV_AREA_H
   7:c:\projects\paindrain\arduinolcd\test\pain drain\libraries\lvgl\src\misc\lv_area.h **** #define LV_AREA_H
   8:c:\projects\paindrain\arduinolcd\test\pain drain\libraries\lvgl\src\misc\lv_area.h **** 
   9:c:\projects\paindrain\arduinolcd\test\pain drain\libraries\lvgl\src\misc\lv_area.h **** #ifdef __cplusplus
  10:c:\projects\paindrain\arduinolcd\test\pain drain\libraries\lvgl\src\misc\lv_area.h **** extern "C" {
  11:c:\projects\paindrain\arduinolcd\test\pain drain\libraries\lvgl\src\misc\lv_area.h **** #endif
  12:c:\projects\paindrain\arduinolcd\test\pain drain\libraries\lvgl\src\misc\lv_area.h **** 
  13:c:\projects\paindrain\arduinolcd\test\pain drain\libraries\lvgl\src\misc\lv_area.h **** /*********************
  14:c:\projects\paindrain\arduinolcd\test\pain drain\libraries\lvgl\src\misc\lv_area.h ****  *      INCLUDES
  15:c:\projects\paindrain\arduinolcd\test\pain drain\libraries\lvgl\src\misc\lv_area.h ****  *********************/
  16:c:\projects\paindrain\arduinolcd\test\pain drain\libraries\lvgl\src\misc\lv_area.h **** #include "../lv_conf_internal.h"
  17:c:\projects\paindrain\arduinolcd\test\pain drain\libraries\lvgl\src\misc\lv_area.h **** #include <stdbool.h>
  18:c:\projects\paindrain\arduinolcd\test\pain drain\libraries\lvgl\src\misc\lv_area.h **** #include <stdint.h>
  19:c:\projects\paindrain\arduinolcd\test\pain drain\libraries\lvgl\src\misc\lv_area.h **** 
  20:c:\projects\paindrain\arduinolcd\test\pain drain\libraries\lvgl\src\misc\lv_area.h **** /*********************
  21:c:\projects\paindrain\arduinolcd\test\pain drain\libraries\lvgl\src\misc\lv_area.h ****  *      DEFINES
  22:c:\projects\paindrain\arduinolcd\test\pain drain\libraries\lvgl\src\misc\lv_area.h ****  *********************/
  23:c:\projects\paindrain\arduinolcd\test\pain drain\libraries\lvgl\src\misc\lv_area.h **** 
  24:c:\projects\paindrain\arduinolcd\test\pain drain\libraries\lvgl\src\misc\lv_area.h **** #if LV_USE_LARGE_COORD
  25:c:\projects\paindrain\arduinolcd\test\pain drain\libraries\lvgl\src\misc\lv_area.h **** typedef int32_t lv_coord_t;
  26:c:\projects\paindrain\arduinolcd\test\pain drain\libraries\lvgl\src\misc\lv_area.h **** #else
  27:c:\projects\paindrain\arduinolcd\test\pain drain\libraries\lvgl\src\misc\lv_area.h **** typedef int16_t lv_coord_t;
  28:c:\projects\paindrain\arduinolcd\test\pain drain\libraries\lvgl\src\misc\lv_area.h **** #endif
  29:c:\projects\paindrain\arduinolcd\test\pain drain\libraries\lvgl\src\misc\lv_area.h **** 
ARM GAS  C:\Users\haske\AppData\Local\Temp\ccxUXv8a.s 			page 42


  30:c:\projects\paindrain\arduinolcd\test\pain drain\libraries\lvgl\src\misc\lv_area.h **** /**********************
  31:c:\projects\paindrain\arduinolcd\test\pain drain\libraries\lvgl\src\misc\lv_area.h ****  *      TYPEDEFS
  32:c:\projects\paindrain\arduinolcd\test\pain drain\libraries\lvgl\src\misc\lv_area.h ****  **********************/
  33:c:\projects\paindrain\arduinolcd\test\pain drain\libraries\lvgl\src\misc\lv_area.h **** 
  34:c:\projects\paindrain\arduinolcd\test\pain drain\libraries\lvgl\src\misc\lv_area.h **** /**
  35:c:\projects\paindrain\arduinolcd\test\pain drain\libraries\lvgl\src\misc\lv_area.h ****  * Represents a point on the screen.
  36:c:\projects\paindrain\arduinolcd\test\pain drain\libraries\lvgl\src\misc\lv_area.h ****  */
  37:c:\projects\paindrain\arduinolcd\test\pain drain\libraries\lvgl\src\misc\lv_area.h **** typedef struct {
  38:c:\projects\paindrain\arduinolcd\test\pain drain\libraries\lvgl\src\misc\lv_area.h ****     lv_coord_t x;
  39:c:\projects\paindrain\arduinolcd\test\pain drain\libraries\lvgl\src\misc\lv_area.h ****     lv_coord_t y;
  40:c:\projects\paindrain\arduinolcd\test\pain drain\libraries\lvgl\src\misc\lv_area.h **** } lv_point_t;
  41:c:\projects\paindrain\arduinolcd\test\pain drain\libraries\lvgl\src\misc\lv_area.h **** 
  42:c:\projects\paindrain\arduinolcd\test\pain drain\libraries\lvgl\src\misc\lv_area.h **** /** Represents an area of the screen.*/
  43:c:\projects\paindrain\arduinolcd\test\pain drain\libraries\lvgl\src\misc\lv_area.h **** typedef struct {
  44:c:\projects\paindrain\arduinolcd\test\pain drain\libraries\lvgl\src\misc\lv_area.h ****     lv_coord_t x1;
  45:c:\projects\paindrain\arduinolcd\test\pain drain\libraries\lvgl\src\misc\lv_area.h ****     lv_coord_t y1;
  46:c:\projects\paindrain\arduinolcd\test\pain drain\libraries\lvgl\src\misc\lv_area.h ****     lv_coord_t x2;
  47:c:\projects\paindrain\arduinolcd\test\pain drain\libraries\lvgl\src\misc\lv_area.h ****     lv_coord_t y2;
  48:c:\projects\paindrain\arduinolcd\test\pain drain\libraries\lvgl\src\misc\lv_area.h **** } lv_area_t;
  49:c:\projects\paindrain\arduinolcd\test\pain drain\libraries\lvgl\src\misc\lv_area.h **** 
  50:c:\projects\paindrain\arduinolcd\test\pain drain\libraries\lvgl\src\misc\lv_area.h **** /** Alignments*/
  51:c:\projects\paindrain\arduinolcd\test\pain drain\libraries\lvgl\src\misc\lv_area.h **** enum {
  52:c:\projects\paindrain\arduinolcd\test\pain drain\libraries\lvgl\src\misc\lv_area.h ****     LV_ALIGN_DEFAULT = 0,
  53:c:\projects\paindrain\arduinolcd\test\pain drain\libraries\lvgl\src\misc\lv_area.h ****     LV_ALIGN_TOP_LEFT,
  54:c:\projects\paindrain\arduinolcd\test\pain drain\libraries\lvgl\src\misc\lv_area.h ****     LV_ALIGN_TOP_MID,
  55:c:\projects\paindrain\arduinolcd\test\pain drain\libraries\lvgl\src\misc\lv_area.h ****     LV_ALIGN_TOP_RIGHT,
  56:c:\projects\paindrain\arduinolcd\test\pain drain\libraries\lvgl\src\misc\lv_area.h ****     LV_ALIGN_BOTTOM_LEFT,
  57:c:\projects\paindrain\arduinolcd\test\pain drain\libraries\lvgl\src\misc\lv_area.h ****     LV_ALIGN_BOTTOM_MID,
  58:c:\projects\paindrain\arduinolcd\test\pain drain\libraries\lvgl\src\misc\lv_area.h ****     LV_ALIGN_BOTTOM_RIGHT,
  59:c:\projects\paindrain\arduinolcd\test\pain drain\libraries\lvgl\src\misc\lv_area.h ****     LV_ALIGN_LEFT_MID,
  60:c:\projects\paindrain\arduinolcd\test\pain drain\libraries\lvgl\src\misc\lv_area.h ****     LV_ALIGN_RIGHT_MID,
  61:c:\projects\paindrain\arduinolcd\test\pain drain\libraries\lvgl\src\misc\lv_area.h ****     LV_ALIGN_CENTER,
  62:c:\projects\paindrain\arduinolcd\test\pain drain\libraries\lvgl\src\misc\lv_area.h **** 
  63:c:\projects\paindrain\arduinolcd\test\pain drain\libraries\lvgl\src\misc\lv_area.h ****     LV_ALIGN_OUT_TOP_LEFT,
  64:c:\projects\paindrain\arduinolcd\test\pain drain\libraries\lvgl\src\misc\lv_area.h ****     LV_ALIGN_OUT_TOP_MID,
  65:c:\projects\paindrain\arduinolcd\test\pain drain\libraries\lvgl\src\misc\lv_area.h ****     LV_ALIGN_OUT_TOP_RIGHT,
  66:c:\projects\paindrain\arduinolcd\test\pain drain\libraries\lvgl\src\misc\lv_area.h ****     LV_ALIGN_OUT_BOTTOM_LEFT,
  67:c:\projects\paindrain\arduinolcd\test\pain drain\libraries\lvgl\src\misc\lv_area.h ****     LV_ALIGN_OUT_BOTTOM_MID,
  68:c:\projects\paindrain\arduinolcd\test\pain drain\libraries\lvgl\src\misc\lv_area.h ****     LV_ALIGN_OUT_BOTTOM_RIGHT,
  69:c:\projects\paindrain\arduinolcd\test\pain drain\libraries\lvgl\src\misc\lv_area.h ****     LV_ALIGN_OUT_LEFT_TOP,
  70:c:\projects\paindrain\arduinolcd\test\pain drain\libraries\lvgl\src\misc\lv_area.h ****     LV_ALIGN_OUT_LEFT_MID,
  71:c:\projects\paindrain\arduinolcd\test\pain drain\libraries\lvgl\src\misc\lv_area.h ****     LV_ALIGN_OUT_LEFT_BOTTOM,
  72:c:\projects\paindrain\arduinolcd\test\pain drain\libraries\lvgl\src\misc\lv_area.h ****     LV_ALIGN_OUT_RIGHT_TOP,
  73:c:\projects\paindrain\arduinolcd\test\pain drain\libraries\lvgl\src\misc\lv_area.h ****     LV_ALIGN_OUT_RIGHT_MID,
  74:c:\projects\paindrain\arduinolcd\test\pain drain\libraries\lvgl\src\misc\lv_area.h ****     LV_ALIGN_OUT_RIGHT_BOTTOM,
  75:c:\projects\paindrain\arduinolcd\test\pain drain\libraries\lvgl\src\misc\lv_area.h **** };
  76:c:\projects\paindrain\arduinolcd\test\pain drain\libraries\lvgl\src\misc\lv_area.h **** typedef uint8_t lv_align_t;
  77:c:\projects\paindrain\arduinolcd\test\pain drain\libraries\lvgl\src\misc\lv_area.h **** 
  78:c:\projects\paindrain\arduinolcd\test\pain drain\libraries\lvgl\src\misc\lv_area.h **** enum {
  79:c:\projects\paindrain\arduinolcd\test\pain drain\libraries\lvgl\src\misc\lv_area.h ****     LV_DIR_NONE     = 0x00,
  80:c:\projects\paindrain\arduinolcd\test\pain drain\libraries\lvgl\src\misc\lv_area.h ****     LV_DIR_LEFT     = (1 << 0),
  81:c:\projects\paindrain\arduinolcd\test\pain drain\libraries\lvgl\src\misc\lv_area.h ****     LV_DIR_RIGHT    = (1 << 1),
  82:c:\projects\paindrain\arduinolcd\test\pain drain\libraries\lvgl\src\misc\lv_area.h ****     LV_DIR_TOP      = (1 << 2),
  83:c:\projects\paindrain\arduinolcd\test\pain drain\libraries\lvgl\src\misc\lv_area.h ****     LV_DIR_BOTTOM   = (1 << 3),
  84:c:\projects\paindrain\arduinolcd\test\pain drain\libraries\lvgl\src\misc\lv_area.h ****     LV_DIR_HOR      = LV_DIR_LEFT | LV_DIR_RIGHT,
  85:c:\projects\paindrain\arduinolcd\test\pain drain\libraries\lvgl\src\misc\lv_area.h ****     LV_DIR_VER      = LV_DIR_TOP | LV_DIR_BOTTOM,
  86:c:\projects\paindrain\arduinolcd\test\pain drain\libraries\lvgl\src\misc\lv_area.h ****     LV_DIR_ALL      = LV_DIR_HOR | LV_DIR_VER,
ARM GAS  C:\Users\haske\AppData\Local\Temp\ccxUXv8a.s 			page 43


  87:c:\projects\paindrain\arduinolcd\test\pain drain\libraries\lvgl\src\misc\lv_area.h **** };
  88:c:\projects\paindrain\arduinolcd\test\pain drain\libraries\lvgl\src\misc\lv_area.h **** 
  89:c:\projects\paindrain\arduinolcd\test\pain drain\libraries\lvgl\src\misc\lv_area.h **** typedef uint8_t lv_dir_t;
  90:c:\projects\paindrain\arduinolcd\test\pain drain\libraries\lvgl\src\misc\lv_area.h **** 
  91:c:\projects\paindrain\arduinolcd\test\pain drain\libraries\lvgl\src\misc\lv_area.h **** /**********************
  92:c:\projects\paindrain\arduinolcd\test\pain drain\libraries\lvgl\src\misc\lv_area.h ****  * GLOBAL PROTOTYPES
  93:c:\projects\paindrain\arduinolcd\test\pain drain\libraries\lvgl\src\misc\lv_area.h ****  **********************/
  94:c:\projects\paindrain\arduinolcd\test\pain drain\libraries\lvgl\src\misc\lv_area.h **** 
  95:c:\projects\paindrain\arduinolcd\test\pain drain\libraries\lvgl\src\misc\lv_area.h **** /**
  96:c:\projects\paindrain\arduinolcd\test\pain drain\libraries\lvgl\src\misc\lv_area.h ****  * Initialize an area
  97:c:\projects\paindrain\arduinolcd\test\pain drain\libraries\lvgl\src\misc\lv_area.h ****  * @param area_p pointer to an area
  98:c:\projects\paindrain\arduinolcd\test\pain drain\libraries\lvgl\src\misc\lv_area.h ****  * @param x1 left coordinate of the area
  99:c:\projects\paindrain\arduinolcd\test\pain drain\libraries\lvgl\src\misc\lv_area.h ****  * @param y1 top coordinate of the area
 100:c:\projects\paindrain\arduinolcd\test\pain drain\libraries\lvgl\src\misc\lv_area.h ****  * @param x2 right coordinate of the area
 101:c:\projects\paindrain\arduinolcd\test\pain drain\libraries\lvgl\src\misc\lv_area.h ****  * @param y2 bottom coordinate of the area
 102:c:\projects\paindrain\arduinolcd\test\pain drain\libraries\lvgl\src\misc\lv_area.h ****  */
 103:c:\projects\paindrain\arduinolcd\test\pain drain\libraries\lvgl\src\misc\lv_area.h **** void lv_area_set(lv_area_t * area_p, lv_coord_t x1, lv_coord_t y1, lv_coord_t x2, lv_coord_t y2);
 104:c:\projects\paindrain\arduinolcd\test\pain drain\libraries\lvgl\src\misc\lv_area.h **** 
 105:c:\projects\paindrain\arduinolcd\test\pain drain\libraries\lvgl\src\misc\lv_area.h **** /**
 106:c:\projects\paindrain\arduinolcd\test\pain drain\libraries\lvgl\src\misc\lv_area.h ****  * Copy an area
 107:c:\projects\paindrain\arduinolcd\test\pain drain\libraries\lvgl\src\misc\lv_area.h ****  * @param dest pointer to the destination area
 108:c:\projects\paindrain\arduinolcd\test\pain drain\libraries\lvgl\src\misc\lv_area.h ****  * @param src pointer to the source area
 109:c:\projects\paindrain\arduinolcd\test\pain drain\libraries\lvgl\src\misc\lv_area.h ****  */
 110:c:\projects\paindrain\arduinolcd\test\pain drain\libraries\lvgl\src\misc\lv_area.h **** inline static void lv_area_copy(lv_area_t * dest, const lv_area_t * src)
 111:c:\projects\paindrain\arduinolcd\test\pain drain\libraries\lvgl\src\misc\lv_area.h **** {
 112:c:\projects\paindrain\arduinolcd\test\pain drain\libraries\lvgl\src\misc\lv_area.h ****     dest->x1 = src->x1;
 1016              		.loc 3 112 0
 1017 001c 0023     		movs	r3, #0
 1018 001e CD5E     		ldrsh	r5, [r1, r3]
 1019 0020 12AB     		add	r3, sp, #72
 1020              	.LVL132:
 1021 0022 1D80     		strh	r5, [r3]
 113:c:\projects\paindrain\arduinolcd\test\pain drain\libraries\lvgl\src\misc\lv_area.h ****     dest->y1 = src->y1;
 1022              		.loc 3 113 0
 1023 0024 0222     		movs	r2, #2
 1024 0026 8C5E     		ldrsh	r4, [r1, r2]
 1025              	.LVL133:
 1026 0028 5C80     		strh	r4, [r3, #2]
 114:c:\projects\paindrain\arduinolcd\test\pain drain\libraries\lvgl\src\misc\lv_area.h ****     dest->x2 = src->x2;
 1027              		.loc 3 114 0
 1028 002a 0422     		movs	r2, #4
 1029 002c 885E     		ldrsh	r0, [r1, r2]
 1030              	.LVL134:
 1031 002e 9880     		strh	r0, [r3, #4]
 115:c:\projects\paindrain\arduinolcd\test\pain drain\libraries\lvgl\src\misc\lv_area.h ****     dest->y2 = src->y2;
 1032              		.loc 3 115 0
 1033 0030 0622     		movs	r2, #6
 1034 0032 8A5E     		ldrsh	r2, [r1, r2]
 1035              	.LVL135:
 1036 0034 DA80     		strh	r2, [r3, #6]
 1037              	.LVL136:
 1038              	.LBE29:
 1039              	.LBE28:
 237:..\..\..\arduinoLCD\test\Pain Drain\libraries\lvgl\src\widgets/lv_canvas.c ****         if(a.y1 < 0) a.y1 = 0;
 1040              		.loc 1 237 0
 1041 0036 002D     		cmp	r5, #0
 1042 0038 01DA     		bge	.L41
ARM GAS  C:\Users\haske\AppData\Local\Temp\ccxUXv8a.s 			page 44


 237:..\..\..\arduinoLCD\test\Pain Drain\libraries\lvgl\src\widgets/lv_canvas.c ****         if(a.y1 < 0) a.y1 = 0;
 1043              		.loc 1 237 0 is_stmt 0 discriminator 1
 1044 003a 0021     		movs	r1, #0
 1045 003c 1980     		strh	r1, [r3]
 1046              	.L41:
 238:..\..\..\arduinoLCD\test\Pain Drain\libraries\lvgl\src\widgets/lv_canvas.c ****         if(a.x2 > canvas->dsc.header.w - 1) a.x2 = canvas->dsc.header.w - 1;
 1047              		.loc 1 238 0 is_stmt 1
 1048 003e 002C     		cmp	r4, #0
 1049 0040 02DA     		bge	.L42
 238:..\..\..\arduinoLCD\test\Pain Drain\libraries\lvgl\src\widgets/lv_canvas.c ****         if(a.x2 > canvas->dsc.header.w - 1) a.x2 = canvas->dsc.header.w - 1;
 1050              		.loc 1 238 0 is_stmt 0 discriminator 1
 1051 0042 0021     		movs	r1, #0
 1052 0044 12AB     		add	r3, sp, #72
 1053 0046 5980     		strh	r1, [r3, #2]
 1054              	.L42:
 239:..\..\..\arduinoLCD\test\Pain Drain\libraries\lvgl\src\widgets/lv_canvas.c ****         if(a.y2 > canvas->dsc.header.h - 1) a.y2 = canvas->dsc.header.h - 1;
 1055              		.loc 1 239 0 is_stmt 1
 1056 0048 4B46     		mov	r3, r9
 1057 004a DB6B     		ldr	r3, [r3, #60]
 1058 004c DB02     		lsls	r3, r3, #11
 1059 004e 5B0D     		lsrs	r3, r3, #21
 1060 0050 591E     		subs	r1, r3, #1
 1061 0052 8842     		cmp	r0, r1
 1062 0054 02DD     		ble	.L43
 239:..\..\..\arduinoLCD\test\Pain Drain\libraries\lvgl\src\widgets/lv_canvas.c ****         if(a.y2 > canvas->dsc.header.h - 1) a.y2 = canvas->dsc.header.h - 1;
 1063              		.loc 1 239 0 is_stmt 0 discriminator 1
 1064 0056 0B00     		movs	r3, r1
 1065 0058 12A9     		add	r1, sp, #72
 1066 005a 8B80     		strh	r3, [r1, #4]
 1067              	.L43:
 240:..\..\..\arduinoLCD\test\Pain Drain\libraries\lvgl\src\widgets/lv_canvas.c ****     }
 1068              		.loc 1 240 0 is_stmt 1
 1069 005c 4B46     		mov	r3, r9
 1070 005e DB8F     		ldrh	r3, [r3, #62]
 1071 0060 5B09     		lsrs	r3, r3, #5
 1072 0062 591E     		subs	r1, r3, #1
 1073 0064 8A42     		cmp	r2, r1
 1074 0066 0FDD     		ble	.L44
 240:..\..\..\arduinoLCD\test\Pain Drain\libraries\lvgl\src\widgets/lv_canvas.c ****     }
 1075              		.loc 1 240 0 is_stmt 0 discriminator 1
 1076 0068 12AA     		add	r2, sp, #72
 1077 006a D180     		strh	r1, [r2, #6]
 1078 006c 0CE0     		b	.L44
 1079              	.LVL137:
 1080              	.L40:
 243:..\..\..\arduinoLCD\test\Pain Drain\libraries\lvgl\src\widgets/lv_canvas.c ****         a.y1 = 0;
 1081              		.loc 1 243 0 is_stmt 1
 1082 006e 12AA     		add	r2, sp, #72
 1083              	.LVL138:
 1084 0070 0023     		movs	r3, #0
 1085 0072 1380     		strh	r3, [r2]
 244:..\..\..\arduinoLCD\test\Pain Drain\libraries\lvgl\src\widgets/lv_canvas.c ****         a.x2 = canvas->dsc.header.w - 1;
 1086              		.loc 1 244 0
 1087 0074 5380     		strh	r3, [r2, #2]
 245:..\..\..\arduinoLCD\test\Pain Drain\libraries\lvgl\src\widgets/lv_canvas.c ****         a.y2 = canvas->dsc.header.h - 1;
 1088              		.loc 1 245 0
 1089 0076 C36B     		ldr	r3, [r0, #60]
ARM GAS  C:\Users\haske\AppData\Local\Temp\ccxUXv8a.s 			page 45


 1090 0078 DB02     		lsls	r3, r3, #11
 1091 007a 5B0D     		lsrs	r3, r3, #21
 1092 007c 013B     		subs	r3, r3, #1
 1093 007e 9380     		strh	r3, [r2, #4]
 246:..\..\..\arduinoLCD\test\Pain Drain\libraries\lvgl\src\widgets/lv_canvas.c ****     }
 1094              		.loc 1 246 0
 1095 0080 C38F     		ldrh	r3, [r0, #62]
 1096 0082 5B09     		lsrs	r3, r3, #5
 1097 0084 013B     		subs	r3, r3, #1
 1098 0086 D380     		strh	r3, [r2, #6]
 1099              	.LVL139:
 1100              	.L44:
 1101              	.LBB30:
 1102              	.LBB31:
 1103              		.loc 2 351 0
 1104 0088 4722     		movs	r2, #71
 1105 008a 0021     		movs	r1, #0
 1106 008c 4846     		mov	r0, r9
 1107 008e FFF7FEFF 		bl	lv_obj_get_style_prop
 1108              	.LVL140:
 1109 0092 6B46     		mov	r3, sp
 1110              	.LVL141:
 1111 0094 D881     		strh	r0, [r3, #14]
 1112              	.LVL142:
 1113              	.LBE31:
 1114              	.LBE30:
 251:..\..\..\arduinoLCD\test\Pain Drain\libraries\lvgl\src\widgets/lv_canvas.c ****     uint16_t r_front = r / 2;
 1115              		.loc 1 251 0
 1116 0096 069B     		ldr	r3, [sp, #24]
 1117 0098 5A08     		lsrs	r2, r3, #1
 1118 009a 0292     		str	r2, [sp, #8]
 1119              	.LVL143:
 254:..\..\..\arduinoLCD\test\Pain Drain\libraries\lvgl\src\widgets/lv_canvas.c **** 
 1120              		.loc 1 254 0
 1121 009c DB07     		lsls	r3, r3, #31
 1122 009e 03D4     		bmi	.L67
 254:..\..\..\arduinoLCD\test\Pain Drain\libraries\lvgl\src\widgets/lv_canvas.c **** 
 1123              		.loc 1 254 0 is_stmt 0 discriminator 1
 1124 00a0 531E     		subs	r3, r2, #1
 1125 00a2 9BB2     		uxth	r3, r3
 1126 00a4 0A93     		str	r3, [sp, #40]
 1127              	.LVL144:
 1128 00a6 01E0     		b	.L45
 1129              	.LVL145:
 1130              	.L67:
 251:..\..\..\arduinoLCD\test\Pain Drain\libraries\lvgl\src\widgets/lv_canvas.c ****     uint16_t r_front = r / 2;
 1131              		.loc 1 251 0 is_stmt 1
 1132 00a8 029B     		ldr	r3, [sp, #8]
 1133 00aa 0A93     		str	r3, [sp, #40]
 1134              	.LVL146:
 1135              	.L45:
 256:..\..\..\arduinoLCD\test\Pain Drain\libraries\lvgl\src\widgets/lv_canvas.c **** 
 1136              		.loc 1 256 0
 1137 00ac 3C24     		movs	r4, #60
 1138 00ae 4B46     		mov	r3, r9
 1139 00b0 185D     		ldrb	r0, [r3, r4]
 1140 00b2 C006     		lsls	r0, r0, #27
ARM GAS  C:\Users\haske\AppData\Local\Temp\ccxUXv8a.s 			page 46


 1141 00b4 C00E     		lsrs	r0, r0, #27
 1142 00b6 FFF7FEFF 		bl	lv_img_cf_has_alpha
 1143              	.LVL147:
 1144 00ba 8046     		mov	r8, r0
 1145              	.LVL148:
 258:..\..\..\arduinoLCD\test\Pain Drain\libraries\lvgl\src\widgets/lv_canvas.c ****     uint8_t * line_buf = lv_mem_buf_get(line_w);
 1146              		.loc 1 258 0
 1147 00bc 4B46     		mov	r3, r9
 1148 00be DB6B     		ldr	r3, [r3, #60]
 1149 00c0 D802     		lsls	r0, r3, #11
 1150              	.LVL149:
 1151 00c2 4B46     		mov	r3, r9
 1152 00c4 1A5D     		ldrb	r2, [r3, r4]
 1153 00c6 D206     		lsls	r2, r2, #27
 1154 00c8 D20E     		lsrs	r2, r2, #27
 1155 00ca 400D     		lsrs	r0, r0, #21
 1156 00cc 0121     		movs	r1, #1
 1157 00ce FFF7FEFF 		bl	lv_img_buf_get_img_size
 1158              	.LVL150:
 1159 00d2 03B2     		sxth	r3, r0
 1160 00d4 0C93     		str	r3, [sp, #48]
 1161              	.LVL151:
 259:..\..\..\arduinoLCD\test\Pain Drain\libraries\lvgl\src\widgets/lv_canvas.c **** 
 1162              		.loc 1 259 0
 1163 00d6 0D93     		str	r3, [sp, #52]
 1164 00d8 1800     		movs	r0, r3
 1165 00da FFF7FEFF 		bl	lv_mem_buf_get
 1166              	.LVL152:
 1167 00de 0B90     		str	r0, [sp, #44]
 1168              	.LVL153:
 262:..\..\..\arduinoLCD\test\Pain Drain\libraries\lvgl\src\widgets/lv_canvas.c ****     line_img.header.always_zero = 0;
 1169              		.loc 1 262 0
 1170 00e0 0FAA     		add	r2, sp, #60
 1171 00e2 1190     		str	r0, [sp, #68]
 263:..\..\..\arduinoLCD\test\Pain Drain\libraries\lvgl\src\widgets/lv_canvas.c ****     line_img.header.w = canvas->dsc.header.w;
 1172              		.loc 1 263 0
 1173 00e4 1378     		ldrb	r3, [r2]
 1174 00e6 1F21     		movs	r1, #31
 1175 00e8 0B40     		ands	r3, r1
 1176 00ea 1370     		strb	r3, [r2]
 264:..\..\..\arduinoLCD\test\Pain Drain\libraries\lvgl\src\widgets/lv_canvas.c ****     line_img.header.h = 1;
 1177              		.loc 1 264 0
 1178 00ec 4B46     		mov	r3, r9
 1179 00ee DB6B     		ldr	r3, [r3, #60]
 1180 00f0 DB02     		lsls	r3, r3, #11
 1181 00f2 5B0D     		lsrs	r3, r3, #21
 1182 00f4 9902     		lsls	r1, r3, #10
 1183 00f6 9E4B     		ldr	r3, .L70
 1184 00f8 0F98     		ldr	r0, [sp, #60]
 1185              	.LVL154:
 1186 00fa 0340     		ands	r3, r0
 1187 00fc 0B43     		orrs	r3, r1
 1188 00fe 0F93     		str	r3, [sp, #60]
 265:..\..\..\arduinoLCD\test\Pain Drain\libraries\lvgl\src\widgets/lv_canvas.c ****     line_img.header.cf = canvas->dsc.header.cf;
 1189              		.loc 1 265 0
 1190 0100 190C     		lsrs	r1, r3, #16
 1191 0102 1F20     		movs	r0, #31
ARM GAS  C:\Users\haske\AppData\Local\Temp\ccxUXv8a.s 			page 47


 1192 0104 0140     		ands	r1, r0
 1193 0106 2020     		movs	r0, #32
 1194 0108 0143     		orrs	r1, r0
 1195 010a 5180     		strh	r1, [r2, #2]
 266:..\..\..\arduinoLCD\test\Pain Drain\libraries\lvgl\src\widgets/lv_canvas.c **** 
 1196              		.loc 1 266 0
 1197 010c 4946     		mov	r1, r9
 1198 010e 095D     		ldrb	r1, [r1, r4]
 1199 0110 C906     		lsls	r1, r1, #27
 1200 0112 C90E     		lsrs	r1, r1, #27
 1201 0114 DBB2     		uxtb	r3, r3
 1202 0116 1F20     		movs	r0, #31
 1203 0118 8343     		bics	r3, r0
 1204 011a 0B43     		orrs	r3, r1
 1205 011c 1370     		strb	r3, [r2]
 272:..\..\..\arduinoLCD\test\Pain Drain\libraries\lvgl\src\widgets/lv_canvas.c ****         uint32_t asum = 0;
 1206              		.loc 1 272 0
 1207 011e 12AB     		add	r3, sp, #72
 1208 0120 0222     		movs	r2, #2
 1209 0122 9B5E     		ldrsh	r3, [r3, r2]
 1210 0124 0893     		str	r3, [sp, #32]
 1211              	.LVL155:
 1212 0126 0FE1     		b	.L46
 1213              	.LVL156:
 1214              	.L65:
 1215              	.LBB32:
 280:..\..\..\arduinoLCD\test\Pain Drain\libraries\lvgl\src\widgets/lv_canvas.c **** 
 1216              		.loc 1 280 0
 1217 0128 0C99     		ldr	r1, [sp, #48]
 1218 012a 089B     		ldr	r3, [sp, #32]
 1219 012c 5943     		muls	r1, r3
 1220 012e 4B46     		mov	r3, r9
 1221 0130 5B6C     		ldr	r3, [r3, #68]
 1222 0132 9C46     		mov	ip, r3
 1223 0134 6144     		add	r1, r1, ip
 1224 0136 0D9A     		ldr	r2, [sp, #52]
 1225 0138 0B98     		ldr	r0, [sp, #44]
 1226 013a FFF7FEFF 		bl	lv_memcpy
 1227              	.LVL157:
 282:..\..\..\arduinoLCD\test\Pain Drain\libraries\lvgl\src\widgets/lv_canvas.c ****             x_safe = x < 0 ? 0 : x;
 1228              		.loc 1 282 0
 1229 013e 12AB     		add	r3, sp, #72
 1230 0140 0022     		movs	r2, #0
 1231 0142 9B5E     		ldrsh	r3, [r3, r2]
 1232 0144 0793     		str	r3, [sp, #28]
 1233 0146 0A9A     		ldr	r2, [sp, #40]
 1234 0148 9B1A     		subs	r3, r3, r2
 1235 014a 1DB2     		sxth	r5, r3
 1236              	.LVL158:
 279:..\..\..\arduinoLCD\test\Pain Drain\libraries\lvgl\src\widgets/lv_canvas.c ****         lv_memcpy(line_buf, &canvas->dsc.data[y * line_w], line_w);
 1237              		.loc 1 279 0
 1238 014c 0023     		movs	r3, #0
 1239 014e 0193     		str	r3, [sp, #4]
 276:..\..\..\arduinoLCD\test\Pain Drain\libraries\lvgl\src\widgets/lv_canvas.c **** 
 1240              		.loc 1 276 0
 1241 0150 0027     		movs	r7, #0
 274:..\..\..\arduinoLCD\test\Pain Drain\libraries\lvgl\src\widgets/lv_canvas.c ****         uint32_t gsum = 0;
ARM GAS  C:\Users\haske\AppData\Local\Temp\ccxUXv8a.s 			page 48


 1242              		.loc 1 274 0
 1243 0152 9B46     		mov	fp, r3
 273:..\..\..\arduinoLCD\test\Pain Drain\libraries\lvgl\src\widgets/lv_canvas.c ****         uint32_t rsum = 0;
 1244              		.loc 1 273 0
 1245 0154 9A46     		mov	r10, r3
 1246 0156 0993     		str	r3, [sp, #36]
 1247 0158 2C00     		movs	r4, r5
 282:..\..\..\arduinoLCD\test\Pain Drain\libraries\lvgl\src\widgets/lv_canvas.c ****             x_safe = x < 0 ? 0 : x;
 1248              		.loc 1 282 0
 1249 015a 31E0     		b	.L47
 1250              	.LVL159:
 1251              	.L52:
 283:..\..\..\arduinoLCD\test\Pain Drain\libraries\lvgl\src\widgets/lv_canvas.c ****             x_safe = x_safe > canvas->dsc.header.w - 1 ? canvas->dsc.header.w - 1 : x_safe;
 1252              		.loc 1 283 0
 1253 015c 251C     		adds	r5, r4, #0
 1254 015e 002C     		cmp	r4, #0
 1255 0160 00DA     		bge	.L48
 1256 0162 0025     		movs	r5, #0
 1257              	.L48:
 1258              	.LVL160:
 284:..\..\..\arduinoLCD\test\Pain Drain\libraries\lvgl\src\widgets/lv_canvas.c **** 
 1259              		.loc 1 284 0
 1260 0164 4B46     		mov	r3, r9
 1261 0166 DB6B     		ldr	r3, [r3, #60]
 1262 0168 DB02     		lsls	r3, r3, #11
 1263 016a 5B0D     		lsrs	r3, r3, #21
 1264 016c 013B     		subs	r3, r3, #1
 1265 016e 2DB2     		sxth	r5, r5
 1266 0170 9D42     		cmp	r5, r3
 1267 0172 00DD     		ble	.L49
 1268 0174 1D00     		movs	r5, r3
 1269              	.LVL161:
 1270              	.L49:
 1271 0176 2DB2     		sxth	r5, r5
 1272              	.LVL162:
 286:..\..\..\arduinoLCD\test\Pain Drain\libraries\lvgl\src\widgets/lv_canvas.c ****             if(has_alpha) opa = lv_img_buf_get_px_alpha(&line_img, x_safe, 0);
 1273              		.loc 1 286 0
 1274 0178 6B46     		mov	r3, sp
 1275 017a DB89     		ldrh	r3, [r3, #14]
 1276 017c 0022     		movs	r2, #0
 1277 017e 2900     		movs	r1, r5
 1278 0180 0FA8     		add	r0, sp, #60
 1279 0182 FFF7FEFF 		bl	lv_img_buf_get_px_color
 1280              	.LVL163:
 1281 0186 061C     		adds	r6, r0, #0
 1282              	.LVL164:
 287:..\..\..\arduinoLCD\test\Pain Drain\libraries\lvgl\src\widgets/lv_canvas.c **** 
 1283              		.loc 1 287 0
 1284 0188 4346     		mov	r3, r8
 1285 018a 002B     		cmp	r3, #0
 1286 018c 05D0     		beq	.L50
 1287              	.LVL165:
 287:..\..\..\arduinoLCD\test\Pain Drain\libraries\lvgl\src\widgets/lv_canvas.c **** 
 1288              		.loc 1 287 0 is_stmt 0 discriminator 1
 1289 018e 0022     		movs	r2, #0
 1290 0190 2900     		movs	r1, r5
 1291 0192 0FA8     		add	r0, sp, #60
ARM GAS  C:\Users\haske\AppData\Local\Temp\ccxUXv8a.s 			page 49


 1292 0194 FFF7FEFF 		bl	lv_img_buf_get_px_alpha
 1293              	.LVL166:
 1294 0198 0190     		str	r0, [sp, #4]
 1295              	.LVL167:
 1296              	.L50:
 289:..\..\..\arduinoLCD\test\Pain Drain\libraries\lvgl\src\widgets/lv_canvas.c **** #if LV_COLOR_DEPTH == 16 && LV_COLOR_16_SWAP
 1297              		.loc 1 289 0 is_stmt 1
 1298 019a 3304     		lsls	r3, r6, #16
 1299 019c DB0E     		lsrs	r3, r3, #27
 1300 019e FF18     		adds	r7, r7, r3
 1301              	.LVL168:
 293:..\..\..\arduinoLCD\test\Pain Drain\libraries\lvgl\src\widgets/lv_canvas.c **** #endif
 1302              		.loc 1 293 0
 1303 01a0 7305     		lsls	r3, r6, #21
 1304 01a2 9B0E     		lsrs	r3, r3, #26
 1305 01a4 9A44     		add	r10, r10, r3
 1306              	.LVL169:
 295:..\..\..\arduinoLCD\test\Pain Drain\libraries\lvgl\src\widgets/lv_canvas.c ****             if(has_alpha) asum += opa;
 1307              		.loc 1 295 0
 1308 01a6 F306     		lsls	r3, r6, #27
 1309 01a8 DB0E     		lsrs	r3, r3, #27
 1310 01aa 9B44     		add	fp, fp, r3
 1311              	.LVL170:
 296:..\..\..\arduinoLCD\test\Pain Drain\libraries\lvgl\src\widgets/lv_canvas.c ****         }
 1312              		.loc 1 296 0
 1313 01ac 4346     		mov	r3, r8
 1314 01ae 002B     		cmp	r3, #0
 1315 01b0 04D0     		beq	.L51
 1316              	.LVL171:
 296:..\..\..\arduinoLCD\test\Pain Drain\libraries\lvgl\src\widgets/lv_canvas.c ****         }
 1317              		.loc 1 296 0 is_stmt 0 discriminator 1
 1318 01b2 099B     		ldr	r3, [sp, #36]
 1319              	.LVL172:
 1320 01b4 019A     		ldr	r2, [sp, #4]
 1321 01b6 9446     		mov	ip, r2
 1322 01b8 6344     		add	r3, r3, ip
 1323 01ba 0993     		str	r3, [sp, #36]
 1324              	.LVL173:
 1325              	.L51:
 282:..\..\..\arduinoLCD\test\Pain Drain\libraries\lvgl\src\widgets/lv_canvas.c ****             x_safe = x < 0 ? 0 : x;
 1326              		.loc 1 282 0 is_stmt 1 discriminator 2
 1327 01bc 0134     		adds	r4, r4, #1
 1328              	.LVL174:
 1329 01be 24B2     		sxth	r4, r4
 1330              	.LVL175:
 1331              	.L47:
 282:..\..\..\arduinoLCD\test\Pain Drain\libraries\lvgl\src\widgets/lv_canvas.c ****             x_safe = x < 0 ? 0 : x;
 1332              		.loc 1 282 0 is_stmt 0 discriminator 1
 1333 01c0 079B     		ldr	r3, [sp, #28]
 1334 01c2 029A     		ldr	r2, [sp, #8]
 1335 01c4 9446     		mov	ip, r2
 1336 01c6 6344     		add	r3, r3, ip
 1337 01c8 9C42     		cmp	r4, r3
 1338 01ca C7DD     		ble	.L52
 1339 01cc 5446     		mov	r4, r10
 1340              	.LVL176:
 1341 01ce 099B     		ldr	r3, [sp, #36]
ARM GAS  C:\Users\haske\AppData\Local\Temp\ccxUXv8a.s 			page 50


 1342 01d0 9A46     		mov	r10, r3
 1343              	.LVL177:
 1344 01d2 5B46     		mov	r3, fp
 1345 01d4 BB46     		mov	fp, r7
 1346              	.LVL178:
 1347 01d6 1F00     		movs	r7, r3
 1348              	.LVL179:
 300:..\..\..\arduinoLCD\test\Pain Drain\libraries\lvgl\src\widgets/lv_canvas.c **** 
 1349              		.loc 1 300 0 is_stmt 1
 1350 01d8 4346     		mov	r3, r8
 1351              	.LVL180:
 1352 01da 002B     		cmp	r3, #0
 1353 01dc 00D0     		beq	.LCB1444
 1354 01de A5E0     		b	.L69	@long jump
 1355              	.LCB1444:
 1356              	.LVL181:
 1357 01e0 FF33     		adds	r3, r3, #255
 1358              	.LVL182:
 1359 01e2 9A46     		mov	r10, r3
 1360 01e4 079D     		ldr	r5, [sp, #28]
 1361 01e6 5B46     		mov	r3, fp
 1362 01e8 D346     		mov	fp, r10
 1363              	.LVL183:
 1364 01ea 9A46     		mov	r10, r3
 1365 01ec A2E0     		b	.L54
 1366              	.LVL184:
 1367              	.L64:
 304:..\..\..\arduinoLCD\test\Pain Drain\libraries\lvgl\src\widgets/lv_canvas.c ****                 c.ch.red = rsum / r;
 1368              		.loc 1 304 0
 1369 01ee 5B46     		mov	r3, fp
 1370 01f0 002B     		cmp	r3, #0
 1371 01f2 2AD0     		beq	.L55
 1372              	.LVL185:
 305:..\..\..\arduinoLCD\test\Pain Drain\libraries\lvgl\src\widgets/lv_canvas.c **** #if LV_COLOR_DEPTH == 16 && LV_COLOR_16_SWAP
 1373              		.loc 1 305 0
 1374 01f4 0699     		ldr	r1, [sp, #24]
 1375 01f6 5046     		mov	r0, r10
 1376 01f8 FFF7FEFF 		bl	__aeabi_uidiv
 1377              	.LVL186:
 1378 01fc C0B2     		uxtb	r0, r0
 1379 01fe C002     		lsls	r0, r0, #11
 1380 0200 7605     		lsls	r6, r6, #21
 1381              	.LVL187:
 1382 0202 760D     		lsrs	r6, r6, #21
 1383 0204 0643     		orrs	r6, r0
 311:..\..\..\arduinoLCD\test\Pain Drain\libraries\lvgl\src\widgets/lv_canvas.c **** #endif
 1384              		.loc 1 311 0
 1385 0206 0699     		ldr	r1, [sp, #24]
 1386 0208 2000     		movs	r0, r4
 1387 020a FFF7FEFF 		bl	__aeabi_uidiv
 1388              	.LVL188:
 1389 020e 3F23     		movs	r3, #63
 1390 0210 1840     		ands	r0, r3
 1391 0212 4001     		lsls	r0, r0, #5
 1392 0214 574B     		ldr	r3, .L70+4
 1393 0216 1E40     		ands	r6, r3
 1394 0218 0643     		orrs	r6, r0
ARM GAS  C:\Users\haske\AppData\Local\Temp\ccxUXv8a.s 			page 51


 313:..\..\..\arduinoLCD\test\Pain Drain\libraries\lvgl\src\widgets/lv_canvas.c ****                 if(has_alpha) opa = asum / r;
 1395              		.loc 1 313 0
 1396 021a 0699     		ldr	r1, [sp, #24]
 1397 021c 3800     		movs	r0, r7
 1398 021e FFF7FEFF 		bl	__aeabi_uidiv
 1399              	.LVL189:
 1400 0222 1F23     		movs	r3, #31
 1401 0224 1840     		ands	r0, r3
 1402 0226 9E43     		bics	r6, r3
 1403 0228 0643     		orrs	r6, r0
 314:..\..\..\arduinoLCD\test\Pain Drain\libraries\lvgl\src\widgets/lv_canvas.c **** 
 1404              		.loc 1 314 0
 1405 022a 4346     		mov	r3, r8
 1406 022c 002B     		cmp	r3, #0
 1407 022e 05D0     		beq	.L56
 1408              	.LVL190:
 314:..\..\..\arduinoLCD\test\Pain Drain\libraries\lvgl\src\widgets/lv_canvas.c **** 
 1409              		.loc 1 314 0 is_stmt 0 discriminator 1
 1410 0230 0699     		ldr	r1, [sp, #24]
 1411 0232 5846     		mov	r0, fp
 1412 0234 FFF7FEFF 		bl	__aeabi_uidiv
 1413              	.LVL191:
 1414 0238 C3B2     		uxtb	r3, r0
 1415 023a 0193     		str	r3, [sp, #4]
 1416              	.LVL192:
 1417              	.L56:
 316:..\..\..\arduinoLCD\test\Pain Drain\libraries\lvgl\src\widgets/lv_canvas.c ****             }
 1418              		.loc 1 316 0 is_stmt 1
 1419 023c 4846     		mov	r0, r9
 1420 023e 3C30     		adds	r0, r0, #60
 1421 0240 331C     		adds	r3, r6, #0
 1422 0242 089A     		ldr	r2, [sp, #32]
 1423 0244 2900     		movs	r1, r5
 1424 0246 FFF7FEFF 		bl	lv_img_buf_set_px_color
 1425              	.LVL193:
 1426              	.L55:
 318:..\..\..\arduinoLCD\test\Pain Drain\libraries\lvgl\src\widgets/lv_canvas.c **** 
 1427              		.loc 1 318 0
 1428 024a 4346     		mov	r3, r8
 1429 024c 002B     		cmp	r3, #0
 1430 024e 06D0     		beq	.L57
 1431              	.LVL194:
 318:..\..\..\arduinoLCD\test\Pain Drain\libraries\lvgl\src\widgets/lv_canvas.c **** 
 1432              		.loc 1 318 0 is_stmt 0 discriminator 1
 1433 0250 4846     		mov	r0, r9
 1434 0252 3C30     		adds	r0, r0, #60
 1435 0254 019B     		ldr	r3, [sp, #4]
 1436              	.LVL195:
 1437 0256 089A     		ldr	r2, [sp, #32]
 1438 0258 2900     		movs	r1, r5
 1439 025a FFF7FEFF 		bl	lv_img_buf_set_px_alpha
 1440              	.LVL196:
 1441              	.L57:
 320:..\..\..\arduinoLCD\test\Pain Drain\libraries\lvgl\src\widgets/lv_canvas.c ****             x_safe = x_safe < 0 ? 0 : x_safe;
 1442              		.loc 1 320 0 is_stmt 1
 1443 025e ADB2     		uxth	r5, r5
 1444 0260 0A9B     		ldr	r3, [sp, #40]
ARM GAS  C:\Users\haske\AppData\Local\Temp\ccxUXv8a.s 			page 52


 1445 0262 EB1A     		subs	r3, r5, r3
 1446 0264 1BB2     		sxth	r3, r3
 1447              	.LVL197:
 321:..\..\..\arduinoLCD\test\Pain Drain\libraries\lvgl\src\widgets/lv_canvas.c ****             c = lv_img_buf_get_px_color(&line_img, x_safe, 0, color);
 1448              		.loc 1 321 0
 1449 0266 1A1C     		adds	r2, r3, #0
 1450 0268 002B     		cmp	r3, #0
 1451 026a 00DA     		bge	.L58
 1452 026c 0022     		movs	r2, #0
 1453              	.L58:
 1454 026e 13B2     		sxth	r3, r2
 1455              	.LVL198:
 1456 0270 1900     		movs	r1, r3
 1457 0272 0793     		str	r3, [sp, #28]
 1458              	.LVL199:
 322:..\..\..\arduinoLCD\test\Pain Drain\libraries\lvgl\src\widgets/lv_canvas.c ****             if(has_alpha) opa = lv_img_buf_get_px_alpha(&line_img, x_safe, 0);
 1459              		.loc 1 322 0
 1460 0274 6B46     		mov	r3, sp
 1461 0276 DB89     		ldrh	r3, [r3, #14]
 1462 0278 0022     		movs	r2, #0
 1463              	.LVL200:
 1464 027a 0FA8     		add	r0, sp, #60
 1465 027c FFF7FEFF 		bl	lv_img_buf_get_px_color
 1466              	.LVL201:
 1467 0280 061C     		adds	r6, r0, #0
 1468              	.LVL202:
 323:..\..\..\arduinoLCD\test\Pain Drain\libraries\lvgl\src\widgets/lv_canvas.c **** 
 1469              		.loc 1 323 0
 1470 0282 4346     		mov	r3, r8
 1471 0284 002B     		cmp	r3, #0
 1472 0286 05D0     		beq	.L59
 1473              	.LVL203:
 323:..\..\..\arduinoLCD\test\Pain Drain\libraries\lvgl\src\widgets/lv_canvas.c **** 
 1474              		.loc 1 323 0 is_stmt 0 discriminator 1
 1475 0288 0022     		movs	r2, #0
 1476 028a 0799     		ldr	r1, [sp, #28]
 1477 028c 0FA8     		add	r0, sp, #60
 1478 028e FFF7FEFF 		bl	lv_img_buf_get_px_alpha
 1479              	.LVL204:
 1480 0292 0190     		str	r0, [sp, #4]
 1481              	.LVL205:
 1482              	.L59:
 325:..\..\..\arduinoLCD\test\Pain Drain\libraries\lvgl\src\widgets/lv_canvas.c **** #if LV_COLOR_DEPTH == 16 && LV_COLOR_16_SWAP
 1483              		.loc 1 325 0 is_stmt 1
 1484 0294 3304     		lsls	r3, r6, #16
 1485 0296 DB0E     		lsrs	r3, r3, #27
 1486 0298 5246     		mov	r2, r10
 1487 029a D31A     		subs	r3, r2, r3
 1488 029c 9A46     		mov	r10, r3
 1489              	.LVL206:
 329:..\..\..\arduinoLCD\test\Pain Drain\libraries\lvgl\src\widgets/lv_canvas.c **** #endif
 1490              		.loc 1 329 0
 1491 029e 7305     		lsls	r3, r6, #21
 1492              	.LVL207:
 1493 02a0 9B0E     		lsrs	r3, r3, #26
 1494 02a2 E41A     		subs	r4, r4, r3
 1495              	.LVL208:
ARM GAS  C:\Users\haske\AppData\Local\Temp\ccxUXv8a.s 			page 53


 331:..\..\..\arduinoLCD\test\Pain Drain\libraries\lvgl\src\widgets/lv_canvas.c ****             if(has_alpha) asum -= opa;
 1496              		.loc 1 331 0
 1497 02a4 F606     		lsls	r6, r6, #27
 1498              	.LVL209:
 1499 02a6 F60E     		lsrs	r6, r6, #27
 1500 02a8 BF1B     		subs	r7, r7, r6
 1501              	.LVL210:
 332:..\..\..\arduinoLCD\test\Pain Drain\libraries\lvgl\src\widgets/lv_canvas.c **** 
 1502              		.loc 1 332 0
 1503 02aa 4346     		mov	r3, r8
 1504 02ac 002B     		cmp	r3, #0
 1505 02ae 03D0     		beq	.L60
 1506              	.LVL211:
 332:..\..\..\arduinoLCD\test\Pain Drain\libraries\lvgl\src\widgets/lv_canvas.c **** 
 1507              		.loc 1 332 0 is_stmt 0 discriminator 1
 1508 02b0 5B46     		mov	r3, fp
 1509              	.LVL212:
 1510 02b2 019A     		ldr	r2, [sp, #4]
 1511 02b4 9B1A     		subs	r3, r3, r2
 1512 02b6 9B46     		mov	fp, r3
 1513              	.LVL213:
 1514              	.L60:
 334:..\..\..\arduinoLCD\test\Pain Drain\libraries\lvgl\src\widgets/lv_canvas.c ****             x_safe = x_safe > canvas->dsc.header.w - 1 ? canvas->dsc.header.w - 1 : x_safe;
 1515              		.loc 1 334 0 is_stmt 1
 1516 02b8 029B     		ldr	r3, [sp, #8]
 1517 02ba 5A19     		adds	r2, r3, r5
 1518 02bc 0132     		adds	r2, r2, #1
 1519              	.LVL214:
 335:..\..\..\arduinoLCD\test\Pain Drain\libraries\lvgl\src\widgets/lv_canvas.c ****             c = lv_img_buf_get_px_color(&line_img, x_safe, 0, lv_color_white());
 1520              		.loc 1 335 0
 1521 02be 4B46     		mov	r3, r9
 1522 02c0 DB6B     		ldr	r3, [r3, #60]
 1523 02c2 DB02     		lsls	r3, r3, #11
 1524 02c4 5B0D     		lsrs	r3, r3, #21
 1525 02c6 013B     		subs	r3, r3, #1
 1526 02c8 12B2     		sxth	r2, r2
 1527 02ca 9A42     		cmp	r2, r3
 1528 02cc 00DD     		ble	.L61
 1529 02ce 1A00     		movs	r2, r3
 1530              	.LVL215:
 1531              	.L61:
 1532 02d0 13B2     		sxth	r3, r2
 1533 02d2 1900     		movs	r1, r3
 1534 02d4 0793     		str	r3, [sp, #28]
 1535              	.LVL216:
 1536              	.LBB33:
 1537              	.LBB34:
 1538              	.LBB35:
 1539              		.file 4 "c:\\projects\\paindrain\\arduinolcd\\test\\pain drain\\libraries\\lvgl\\src\\misc\\lv_col
   1:c:\projects\paindrain\arduinolcd\test\pain drain\libraries\lvgl\src\misc\lv_color.h **** /**
   2:c:\projects\paindrain\arduinolcd\test\pain drain\libraries\lvgl\src\misc\lv_color.h ****  * @file lv_color.h
   3:c:\projects\paindrain\arduinolcd\test\pain drain\libraries\lvgl\src\misc\lv_color.h ****  *
   4:c:\projects\paindrain\arduinolcd\test\pain drain\libraries\lvgl\src\misc\lv_color.h ****  */
   5:c:\projects\paindrain\arduinolcd\test\pain drain\libraries\lvgl\src\misc\lv_color.h **** 
   6:c:\projects\paindrain\arduinolcd\test\pain drain\libraries\lvgl\src\misc\lv_color.h **** #ifndef LV_COLOR_H
   7:c:\projects\paindrain\arduinolcd\test\pain drain\libraries\lvgl\src\misc\lv_color.h **** #define LV_COLOR_H
   8:c:\projects\paindrain\arduinolcd\test\pain drain\libraries\lvgl\src\misc\lv_color.h **** 
ARM GAS  C:\Users\haske\AppData\Local\Temp\ccxUXv8a.s 			page 54


   9:c:\projects\paindrain\arduinolcd\test\pain drain\libraries\lvgl\src\misc\lv_color.h **** #ifdef __cplusplus
  10:c:\projects\paindrain\arduinolcd\test\pain drain\libraries\lvgl\src\misc\lv_color.h **** extern "C" {
  11:c:\projects\paindrain\arduinolcd\test\pain drain\libraries\lvgl\src\misc\lv_color.h **** #endif
  12:c:\projects\paindrain\arduinolcd\test\pain drain\libraries\lvgl\src\misc\lv_color.h **** 
  13:c:\projects\paindrain\arduinolcd\test\pain drain\libraries\lvgl\src\misc\lv_color.h **** /*********************
  14:c:\projects\paindrain\arduinolcd\test\pain drain\libraries\lvgl\src\misc\lv_color.h ****  *      INCLUDES
  15:c:\projects\paindrain\arduinolcd\test\pain drain\libraries\lvgl\src\misc\lv_color.h ****  *********************/
  16:c:\projects\paindrain\arduinolcd\test\pain drain\libraries\lvgl\src\misc\lv_color.h **** #include "../lv_conf_internal.h"
  17:c:\projects\paindrain\arduinolcd\test\pain drain\libraries\lvgl\src\misc\lv_color.h **** #include "lv_assert.h"
  18:c:\projects\paindrain\arduinolcd\test\pain drain\libraries\lvgl\src\misc\lv_color.h **** #include "lv_math.h"
  19:c:\projects\paindrain\arduinolcd\test\pain drain\libraries\lvgl\src\misc\lv_color.h **** #include "lv_types.h"
  20:c:\projects\paindrain\arduinolcd\test\pain drain\libraries\lvgl\src\misc\lv_color.h **** 
  21:c:\projects\paindrain\arduinolcd\test\pain drain\libraries\lvgl\src\misc\lv_color.h **** /*Error checking*/
  22:c:\projects\paindrain\arduinolcd\test\pain drain\libraries\lvgl\src\misc\lv_color.h **** #if LV_COLOR_DEPTH == 24
  23:c:\projects\paindrain\arduinolcd\test\pain drain\libraries\lvgl\src\misc\lv_color.h **** #error "LV_COLOR_DEPTH 24 is deprecated. Use LV_COLOR_DEPTH 32 instead (lv_conf.h)"
  24:c:\projects\paindrain\arduinolcd\test\pain drain\libraries\lvgl\src\misc\lv_color.h **** #endif
  25:c:\projects\paindrain\arduinolcd\test\pain drain\libraries\lvgl\src\misc\lv_color.h **** 
  26:c:\projects\paindrain\arduinolcd\test\pain drain\libraries\lvgl\src\misc\lv_color.h **** #if LV_COLOR_DEPTH != 16 && LV_COLOR_16_SWAP != 0
  27:c:\projects\paindrain\arduinolcd\test\pain drain\libraries\lvgl\src\misc\lv_color.h **** #error "LV_COLOR_16_SWAP requires LV_COLOR_DEPTH == 16. Set it in lv_conf.h"
  28:c:\projects\paindrain\arduinolcd\test\pain drain\libraries\lvgl\src\misc\lv_color.h **** #endif
  29:c:\projects\paindrain\arduinolcd\test\pain drain\libraries\lvgl\src\misc\lv_color.h **** 
  30:c:\projects\paindrain\arduinolcd\test\pain drain\libraries\lvgl\src\misc\lv_color.h **** #include <stdint.h>
  31:c:\projects\paindrain\arduinolcd\test\pain drain\libraries\lvgl\src\misc\lv_color.h **** 
  32:c:\projects\paindrain\arduinolcd\test\pain drain\libraries\lvgl\src\misc\lv_color.h **** /*********************
  33:c:\projects\paindrain\arduinolcd\test\pain drain\libraries\lvgl\src\misc\lv_color.h ****  *      DEFINES
  34:c:\projects\paindrain\arduinolcd\test\pain drain\libraries\lvgl\src\misc\lv_color.h ****  *********************/
  35:c:\projects\paindrain\arduinolcd\test\pain drain\libraries\lvgl\src\misc\lv_color.h **** LV_EXPORT_CONST_INT(LV_COLOR_DEPTH);
  36:c:\projects\paindrain\arduinolcd\test\pain drain\libraries\lvgl\src\misc\lv_color.h **** LV_EXPORT_CONST_INT(LV_COLOR_16_SWAP);
  37:c:\projects\paindrain\arduinolcd\test\pain drain\libraries\lvgl\src\misc\lv_color.h **** 
  38:c:\projects\paindrain\arduinolcd\test\pain drain\libraries\lvgl\src\misc\lv_color.h **** /**
  39:c:\projects\paindrain\arduinolcd\test\pain drain\libraries\lvgl\src\misc\lv_color.h ****  * Opacity percentages.
  40:c:\projects\paindrain\arduinolcd\test\pain drain\libraries\lvgl\src\misc\lv_color.h ****  */
  41:c:\projects\paindrain\arduinolcd\test\pain drain\libraries\lvgl\src\misc\lv_color.h **** enum {
  42:c:\projects\paindrain\arduinolcd\test\pain drain\libraries\lvgl\src\misc\lv_color.h ****     LV_OPA_TRANSP = 0,
  43:c:\projects\paindrain\arduinolcd\test\pain drain\libraries\lvgl\src\misc\lv_color.h ****     LV_OPA_0      = 0,
  44:c:\projects\paindrain\arduinolcd\test\pain drain\libraries\lvgl\src\misc\lv_color.h ****     LV_OPA_10     = 25,
  45:c:\projects\paindrain\arduinolcd\test\pain drain\libraries\lvgl\src\misc\lv_color.h ****     LV_OPA_20     = 51,
  46:c:\projects\paindrain\arduinolcd\test\pain drain\libraries\lvgl\src\misc\lv_color.h ****     LV_OPA_30     = 76,
  47:c:\projects\paindrain\arduinolcd\test\pain drain\libraries\lvgl\src\misc\lv_color.h ****     LV_OPA_40     = 102,
  48:c:\projects\paindrain\arduinolcd\test\pain drain\libraries\lvgl\src\misc\lv_color.h ****     LV_OPA_50     = 127,
  49:c:\projects\paindrain\arduinolcd\test\pain drain\libraries\lvgl\src\misc\lv_color.h ****     LV_OPA_60     = 153,
  50:c:\projects\paindrain\arduinolcd\test\pain drain\libraries\lvgl\src\misc\lv_color.h ****     LV_OPA_70     = 178,
  51:c:\projects\paindrain\arduinolcd\test\pain drain\libraries\lvgl\src\misc\lv_color.h ****     LV_OPA_80     = 204,
  52:c:\projects\paindrain\arduinolcd\test\pain drain\libraries\lvgl\src\misc\lv_color.h ****     LV_OPA_90     = 229,
  53:c:\projects\paindrain\arduinolcd\test\pain drain\libraries\lvgl\src\misc\lv_color.h ****     LV_OPA_100    = 255,
  54:c:\projects\paindrain\arduinolcd\test\pain drain\libraries\lvgl\src\misc\lv_color.h ****     LV_OPA_COVER  = 255,
  55:c:\projects\paindrain\arduinolcd\test\pain drain\libraries\lvgl\src\misc\lv_color.h **** };
  56:c:\projects\paindrain\arduinolcd\test\pain drain\libraries\lvgl\src\misc\lv_color.h **** 
  57:c:\projects\paindrain\arduinolcd\test\pain drain\libraries\lvgl\src\misc\lv_color.h **** #define LV_OPA_MIN 2    /*Opacities below this will be transparent*/
  58:c:\projects\paindrain\arduinolcd\test\pain drain\libraries\lvgl\src\misc\lv_color.h **** #define LV_OPA_MAX 253  /*Opacities above this will fully cover*/
  59:c:\projects\paindrain\arduinolcd\test\pain drain\libraries\lvgl\src\misc\lv_color.h **** 
  60:c:\projects\paindrain\arduinolcd\test\pain drain\libraries\lvgl\src\misc\lv_color.h **** #if LV_COLOR_DEPTH == 1
  61:c:\projects\paindrain\arduinolcd\test\pain drain\libraries\lvgl\src\misc\lv_color.h **** #define LV_COLOR_SIZE 8
  62:c:\projects\paindrain\arduinolcd\test\pain drain\libraries\lvgl\src\misc\lv_color.h **** #elif LV_COLOR_DEPTH == 8
  63:c:\projects\paindrain\arduinolcd\test\pain drain\libraries\lvgl\src\misc\lv_color.h **** #define LV_COLOR_SIZE 8
  64:c:\projects\paindrain\arduinolcd\test\pain drain\libraries\lvgl\src\misc\lv_color.h **** #elif LV_COLOR_DEPTH == 16
  65:c:\projects\paindrain\arduinolcd\test\pain drain\libraries\lvgl\src\misc\lv_color.h **** #define LV_COLOR_SIZE 16
ARM GAS  C:\Users\haske\AppData\Local\Temp\ccxUXv8a.s 			page 55


  66:c:\projects\paindrain\arduinolcd\test\pain drain\libraries\lvgl\src\misc\lv_color.h **** #elif LV_COLOR_DEPTH == 32
  67:c:\projects\paindrain\arduinolcd\test\pain drain\libraries\lvgl\src\misc\lv_color.h **** #define LV_COLOR_SIZE 32
  68:c:\projects\paindrain\arduinolcd\test\pain drain\libraries\lvgl\src\misc\lv_color.h **** #else
  69:c:\projects\paindrain\arduinolcd\test\pain drain\libraries\lvgl\src\misc\lv_color.h **** #error "Invalid LV_COLOR_DEPTH in lv_conf.h! Set it to 1, 8, 16 or 32!"
  70:c:\projects\paindrain\arduinolcd\test\pain drain\libraries\lvgl\src\misc\lv_color.h **** #endif
  71:c:\projects\paindrain\arduinolcd\test\pain drain\libraries\lvgl\src\misc\lv_color.h **** 
  72:c:\projects\paindrain\arduinolcd\test\pain drain\libraries\lvgl\src\misc\lv_color.h **** #if defined(__cplusplus) && !defined(_LV_COLOR_HAS_MODERN_CPP)
  73:c:\projects\paindrain\arduinolcd\test\pain drain\libraries\lvgl\src\misc\lv_color.h **** /**
  74:c:\projects\paindrain\arduinolcd\test\pain drain\libraries\lvgl\src\misc\lv_color.h **** * MSVC compiler's definition of the __cplusplus indicating 199711L regardless to C++ standard versi
  75:c:\projects\paindrain\arduinolcd\test\pain drain\libraries\lvgl\src\misc\lv_color.h **** * see https://devblogs.microsoft.com/cppblog/msvc-now-correctly-reports-cplusplus
  76:c:\projects\paindrain\arduinolcd\test\pain drain\libraries\lvgl\src\misc\lv_color.h **** * so we use _MSC_VER macro instead of __cplusplus
  77:c:\projects\paindrain\arduinolcd\test\pain drain\libraries\lvgl\src\misc\lv_color.h **** */
  78:c:\projects\paindrain\arduinolcd\test\pain drain\libraries\lvgl\src\misc\lv_color.h **** #ifdef _MSC_VER
  79:c:\projects\paindrain\arduinolcd\test\pain drain\libraries\lvgl\src\misc\lv_color.h **** #if _MSC_VER >= 1900 /*Visual Studio 2015*/
  80:c:\projects\paindrain\arduinolcd\test\pain drain\libraries\lvgl\src\misc\lv_color.h **** #define _LV_COLOR_HAS_MODERN_CPP 1
  81:c:\projects\paindrain\arduinolcd\test\pain drain\libraries\lvgl\src\misc\lv_color.h **** #endif
  82:c:\projects\paindrain\arduinolcd\test\pain drain\libraries\lvgl\src\misc\lv_color.h **** #else
  83:c:\projects\paindrain\arduinolcd\test\pain drain\libraries\lvgl\src\misc\lv_color.h **** #if __cplusplus >= 201103L
  84:c:\projects\paindrain\arduinolcd\test\pain drain\libraries\lvgl\src\misc\lv_color.h **** #define _LV_COLOR_HAS_MODERN_CPP 1
  85:c:\projects\paindrain\arduinolcd\test\pain drain\libraries\lvgl\src\misc\lv_color.h **** #endif
  86:c:\projects\paindrain\arduinolcd\test\pain drain\libraries\lvgl\src\misc\lv_color.h **** #endif
  87:c:\projects\paindrain\arduinolcd\test\pain drain\libraries\lvgl\src\misc\lv_color.h **** #endif /*__cplusplus*/
  88:c:\projects\paindrain\arduinolcd\test\pain drain\libraries\lvgl\src\misc\lv_color.h **** 
  89:c:\projects\paindrain\arduinolcd\test\pain drain\libraries\lvgl\src\misc\lv_color.h **** #ifndef _LV_COLOR_HAS_MODERN_CPP
  90:c:\projects\paindrain\arduinolcd\test\pain drain\libraries\lvgl\src\misc\lv_color.h **** #define _LV_COLOR_HAS_MODERN_CPP 0
  91:c:\projects\paindrain\arduinolcd\test\pain drain\libraries\lvgl\src\misc\lv_color.h **** #endif
  92:c:\projects\paindrain\arduinolcd\test\pain drain\libraries\lvgl\src\misc\lv_color.h **** 
  93:c:\projects\paindrain\arduinolcd\test\pain drain\libraries\lvgl\src\misc\lv_color.h **** #if _LV_COLOR_HAS_MODERN_CPP
  94:c:\projects\paindrain\arduinolcd\test\pain drain\libraries\lvgl\src\misc\lv_color.h **** /*Fix msvc compiler error C4576 inside C++ code*/
  95:c:\projects\paindrain\arduinolcd\test\pain drain\libraries\lvgl\src\misc\lv_color.h **** #define _LV_COLOR_MAKE_TYPE_HELPER lv_color_t
  96:c:\projects\paindrain\arduinolcd\test\pain drain\libraries\lvgl\src\misc\lv_color.h **** #else
  97:c:\projects\paindrain\arduinolcd\test\pain drain\libraries\lvgl\src\misc\lv_color.h **** #define _LV_COLOR_MAKE_TYPE_HELPER (lv_color_t)
  98:c:\projects\paindrain\arduinolcd\test\pain drain\libraries\lvgl\src\misc\lv_color.h **** #endif
  99:c:\projects\paindrain\arduinolcd\test\pain drain\libraries\lvgl\src\misc\lv_color.h **** 
 100:c:\projects\paindrain\arduinolcd\test\pain drain\libraries\lvgl\src\misc\lv_color.h **** /*---------------------------------------
 101:c:\projects\paindrain\arduinolcd\test\pain drain\libraries\lvgl\src\misc\lv_color.h ****  * Macros for all existing color depths
 102:c:\projects\paindrain\arduinolcd\test\pain drain\libraries\lvgl\src\misc\lv_color.h ****  * to set/get values of the color channels
 103:c:\projects\paindrain\arduinolcd\test\pain drain\libraries\lvgl\src\misc\lv_color.h ****  *------------------------------------------*/
 104:c:\projects\paindrain\arduinolcd\test\pain drain\libraries\lvgl\src\misc\lv_color.h **** # define LV_COLOR_SET_R1(c, v) (c).ch.red = (uint8_t)((v) & 0x1)
 105:c:\projects\paindrain\arduinolcd\test\pain drain\libraries\lvgl\src\misc\lv_color.h **** # define LV_COLOR_SET_G1(c, v) (c).ch.green = (uint8_t)((v) & 0x1)
 106:c:\projects\paindrain\arduinolcd\test\pain drain\libraries\lvgl\src\misc\lv_color.h **** # define LV_COLOR_SET_B1(c, v) (c).ch.blue = (uint8_t)((v) & 0x1)
 107:c:\projects\paindrain\arduinolcd\test\pain drain\libraries\lvgl\src\misc\lv_color.h **** # define LV_COLOR_SET_A1(c, v) do {} while(0)
 108:c:\projects\paindrain\arduinolcd\test\pain drain\libraries\lvgl\src\misc\lv_color.h **** 
 109:c:\projects\paindrain\arduinolcd\test\pain drain\libraries\lvgl\src\misc\lv_color.h **** # define LV_COLOR_GET_R1(c) (c).ch.red
 110:c:\projects\paindrain\arduinolcd\test\pain drain\libraries\lvgl\src\misc\lv_color.h **** # define LV_COLOR_GET_G1(c) (c).ch.green
 111:c:\projects\paindrain\arduinolcd\test\pain drain\libraries\lvgl\src\misc\lv_color.h **** # define LV_COLOR_GET_B1(c) (c).ch.blue
 112:c:\projects\paindrain\arduinolcd\test\pain drain\libraries\lvgl\src\misc\lv_color.h **** # define LV_COLOR_GET_A1(c) 0xFF
 113:c:\projects\paindrain\arduinolcd\test\pain drain\libraries\lvgl\src\misc\lv_color.h **** 
 114:c:\projects\paindrain\arduinolcd\test\pain drain\libraries\lvgl\src\misc\lv_color.h **** # define _LV_COLOR_ZERO_INITIALIZER1 {0x00}
 115:c:\projects\paindrain\arduinolcd\test\pain drain\libraries\lvgl\src\misc\lv_color.h **** # define LV_COLOR_MAKE1(r8, g8, b8)  {(uint8_t)((b8 >> 7) | (g8 >> 7) | (r8 >> 7))}
 116:c:\projects\paindrain\arduinolcd\test\pain drain\libraries\lvgl\src\misc\lv_color.h **** 
 117:c:\projects\paindrain\arduinolcd\test\pain drain\libraries\lvgl\src\misc\lv_color.h **** # define LV_COLOR_SET_R8(c, v) (c).ch.red = (uint8_t)((v) & 0x7U)
 118:c:\projects\paindrain\arduinolcd\test\pain drain\libraries\lvgl\src\misc\lv_color.h **** # define LV_COLOR_SET_G8(c, v) (c).ch.green = (uint8_t)((v) & 0x7U)
 119:c:\projects\paindrain\arduinolcd\test\pain drain\libraries\lvgl\src\misc\lv_color.h **** # define LV_COLOR_SET_B8(c, v) (c).ch.blue = (uint8_t)((v) & 0x3U)
 120:c:\projects\paindrain\arduinolcd\test\pain drain\libraries\lvgl\src\misc\lv_color.h **** # define LV_COLOR_SET_A8(c, v) do {} while(0)
 121:c:\projects\paindrain\arduinolcd\test\pain drain\libraries\lvgl\src\misc\lv_color.h **** 
 122:c:\projects\paindrain\arduinolcd\test\pain drain\libraries\lvgl\src\misc\lv_color.h **** # define LV_COLOR_GET_R8(c) (c).ch.red
ARM GAS  C:\Users\haske\AppData\Local\Temp\ccxUXv8a.s 			page 56


 123:c:\projects\paindrain\arduinolcd\test\pain drain\libraries\lvgl\src\misc\lv_color.h **** # define LV_COLOR_GET_G8(c) (c).ch.green
 124:c:\projects\paindrain\arduinolcd\test\pain drain\libraries\lvgl\src\misc\lv_color.h **** # define LV_COLOR_GET_B8(c) (c).ch.blue
 125:c:\projects\paindrain\arduinolcd\test\pain drain\libraries\lvgl\src\misc\lv_color.h **** # define LV_COLOR_GET_A8(c) 0xFF
 126:c:\projects\paindrain\arduinolcd\test\pain drain\libraries\lvgl\src\misc\lv_color.h **** 
 127:c:\projects\paindrain\arduinolcd\test\pain drain\libraries\lvgl\src\misc\lv_color.h **** # define _LV_COLOR_ZERO_INITIALIZER8 {{0x00, 0x00, 0x00}}
 128:c:\projects\paindrain\arduinolcd\test\pain drain\libraries\lvgl\src\misc\lv_color.h **** # define LV_COLOR_MAKE8(r8, g8, b8) {{(uint8_t)((b8 >> 6) & 0x3U), (uint8_t)((g8 >> 5) & 0x7U), (ui
 129:c:\projects\paindrain\arduinolcd\test\pain drain\libraries\lvgl\src\misc\lv_color.h **** 
 130:c:\projects\paindrain\arduinolcd\test\pain drain\libraries\lvgl\src\misc\lv_color.h **** # define LV_COLOR_SET_R16(c, v) (c).ch.red = (uint8_t)((v) & 0x1FU)
 131:c:\projects\paindrain\arduinolcd\test\pain drain\libraries\lvgl\src\misc\lv_color.h **** #if LV_COLOR_16_SWAP == 0
 132:c:\projects\paindrain\arduinolcd\test\pain drain\libraries\lvgl\src\misc\lv_color.h **** # define LV_COLOR_SET_G16(c, v) (c).ch.green = (uint8_t)((v) & 0x3FU)
 133:c:\projects\paindrain\arduinolcd\test\pain drain\libraries\lvgl\src\misc\lv_color.h **** #else
 134:c:\projects\paindrain\arduinolcd\test\pain drain\libraries\lvgl\src\misc\lv_color.h **** # define LV_COLOR_SET_G16(c, v) {(c).ch.green_h = (uint8_t)(((v) >> 3) & 0x7); (c).ch.green_l = (ui
 135:c:\projects\paindrain\arduinolcd\test\pain drain\libraries\lvgl\src\misc\lv_color.h **** #endif
 136:c:\projects\paindrain\arduinolcd\test\pain drain\libraries\lvgl\src\misc\lv_color.h **** # define LV_COLOR_SET_B16(c, v) (c).ch.blue = (uint8_t)((v) & 0x1FU)
 137:c:\projects\paindrain\arduinolcd\test\pain drain\libraries\lvgl\src\misc\lv_color.h **** # define LV_COLOR_SET_A16(c, v) do {} while(0)
 138:c:\projects\paindrain\arduinolcd\test\pain drain\libraries\lvgl\src\misc\lv_color.h **** 
 139:c:\projects\paindrain\arduinolcd\test\pain drain\libraries\lvgl\src\misc\lv_color.h **** # define LV_COLOR_GET_R16(c) (c).ch.red
 140:c:\projects\paindrain\arduinolcd\test\pain drain\libraries\lvgl\src\misc\lv_color.h **** #if LV_COLOR_16_SWAP == 0
 141:c:\projects\paindrain\arduinolcd\test\pain drain\libraries\lvgl\src\misc\lv_color.h **** # define LV_COLOR_GET_G16(c) (c).ch.green
 142:c:\projects\paindrain\arduinolcd\test\pain drain\libraries\lvgl\src\misc\lv_color.h **** #else
 143:c:\projects\paindrain\arduinolcd\test\pain drain\libraries\lvgl\src\misc\lv_color.h **** # define LV_COLOR_GET_G16(c) (((c).ch.green_h << 3) + (c).ch.green_l)
 144:c:\projects\paindrain\arduinolcd\test\pain drain\libraries\lvgl\src\misc\lv_color.h **** #endif
 145:c:\projects\paindrain\arduinolcd\test\pain drain\libraries\lvgl\src\misc\lv_color.h **** # define LV_COLOR_GET_B16(c) (c).ch.blue
 146:c:\projects\paindrain\arduinolcd\test\pain drain\libraries\lvgl\src\misc\lv_color.h **** # define LV_COLOR_GET_A16(c) 0xFF
 147:c:\projects\paindrain\arduinolcd\test\pain drain\libraries\lvgl\src\misc\lv_color.h **** 
 148:c:\projects\paindrain\arduinolcd\test\pain drain\libraries\lvgl\src\misc\lv_color.h **** #if LV_COLOR_16_SWAP == 0
 149:c:\projects\paindrain\arduinolcd\test\pain drain\libraries\lvgl\src\misc\lv_color.h **** # define _LV_COLOR_ZERO_INITIALIZER16  {{0x00, 0x00, 0x00}}
 150:c:\projects\paindrain\arduinolcd\test\pain drain\libraries\lvgl\src\misc\lv_color.h **** # define LV_COLOR_MAKE16(r8, g8, b8) {{(uint8_t)((b8 >> 3) & 0x1FU), (uint8_t)((g8 >> 2) & 0x3FU), 
 151:c:\projects\paindrain\arduinolcd\test\pain drain\libraries\lvgl\src\misc\lv_color.h **** #else
 152:c:\projects\paindrain\arduinolcd\test\pain drain\libraries\lvgl\src\misc\lv_color.h **** # define _LV_COLOR_ZERO_INITIALIZER16 {{0x00, 0x00, 0x00, 0x00}}
 153:c:\projects\paindrain\arduinolcd\test\pain drain\libraries\lvgl\src\misc\lv_color.h **** # define LV_COLOR_MAKE16(r8, g8, b8) {{(uint8_t)((g8 >> 5) & 0x7U), (uint8_t)((r8 >> 3) & 0x1FU), (
 154:c:\projects\paindrain\arduinolcd\test\pain drain\libraries\lvgl\src\misc\lv_color.h **** #endif
 155:c:\projects\paindrain\arduinolcd\test\pain drain\libraries\lvgl\src\misc\lv_color.h **** 
 156:c:\projects\paindrain\arduinolcd\test\pain drain\libraries\lvgl\src\misc\lv_color.h **** # define LV_COLOR_SET_R32(c, v) (c).ch.red = (uint8_t)((v) & 0xFF)
 157:c:\projects\paindrain\arduinolcd\test\pain drain\libraries\lvgl\src\misc\lv_color.h **** # define LV_COLOR_SET_G32(c, v) (c).ch.green = (uint8_t)((v) & 0xFF)
 158:c:\projects\paindrain\arduinolcd\test\pain drain\libraries\lvgl\src\misc\lv_color.h **** # define LV_COLOR_SET_B32(c, v) (c).ch.blue = (uint8_t)((v) & 0xFF)
 159:c:\projects\paindrain\arduinolcd\test\pain drain\libraries\lvgl\src\misc\lv_color.h **** # define LV_COLOR_SET_A32(c, v) (c).ch.alpha = (uint8_t)((v) & 0xFF)
 160:c:\projects\paindrain\arduinolcd\test\pain drain\libraries\lvgl\src\misc\lv_color.h **** 
 161:c:\projects\paindrain\arduinolcd\test\pain drain\libraries\lvgl\src\misc\lv_color.h **** # define LV_COLOR_GET_R32(c) (c).ch.red
 162:c:\projects\paindrain\arduinolcd\test\pain drain\libraries\lvgl\src\misc\lv_color.h **** # define LV_COLOR_GET_G32(c) (c).ch.green
 163:c:\projects\paindrain\arduinolcd\test\pain drain\libraries\lvgl\src\misc\lv_color.h **** # define LV_COLOR_GET_B32(c) (c).ch.blue
 164:c:\projects\paindrain\arduinolcd\test\pain drain\libraries\lvgl\src\misc\lv_color.h **** # define LV_COLOR_GET_A32(c) (c).ch.alpha
 165:c:\projects\paindrain\arduinolcd\test\pain drain\libraries\lvgl\src\misc\lv_color.h **** 
 166:c:\projects\paindrain\arduinolcd\test\pain drain\libraries\lvgl\src\misc\lv_color.h **** # define _LV_COLOR_ZERO_INITIALIZER32  {{0x00, 0x00, 0x00, 0x00}}
 167:c:\projects\paindrain\arduinolcd\test\pain drain\libraries\lvgl\src\misc\lv_color.h **** # define LV_COLOR_MAKE32(r8, g8, b8) {{b8, g8, r8, 0xff}} /*Fix 0xff alpha*/
 168:c:\projects\paindrain\arduinolcd\test\pain drain\libraries\lvgl\src\misc\lv_color.h **** 
 169:c:\projects\paindrain\arduinolcd\test\pain drain\libraries\lvgl\src\misc\lv_color.h **** /*---------------------------------------
 170:c:\projects\paindrain\arduinolcd\test\pain drain\libraries\lvgl\src\misc\lv_color.h ****  * Macros for the current color depth
 171:c:\projects\paindrain\arduinolcd\test\pain drain\libraries\lvgl\src\misc\lv_color.h ****  * to set/get values of the color channels
 172:c:\projects\paindrain\arduinolcd\test\pain drain\libraries\lvgl\src\misc\lv_color.h ****  *------------------------------------------*/
 173:c:\projects\paindrain\arduinolcd\test\pain drain\libraries\lvgl\src\misc\lv_color.h **** #define LV_COLOR_SET_R(c, v) LV_CONCAT(LV_COLOR_SET_R, LV_COLOR_DEPTH)(c, v)
 174:c:\projects\paindrain\arduinolcd\test\pain drain\libraries\lvgl\src\misc\lv_color.h **** #define LV_COLOR_SET_G(c, v) LV_CONCAT(LV_COLOR_SET_G, LV_COLOR_DEPTH)(c, v)
 175:c:\projects\paindrain\arduinolcd\test\pain drain\libraries\lvgl\src\misc\lv_color.h **** #define LV_COLOR_SET_B(c, v) LV_CONCAT(LV_COLOR_SET_B, LV_COLOR_DEPTH)(c, v)
 176:c:\projects\paindrain\arduinolcd\test\pain drain\libraries\lvgl\src\misc\lv_color.h **** #define LV_COLOR_SET_A(c, v) LV_CONCAT(LV_COLOR_SET_A, LV_COLOR_DEPTH)(c, v)
 177:c:\projects\paindrain\arduinolcd\test\pain drain\libraries\lvgl\src\misc\lv_color.h **** 
 178:c:\projects\paindrain\arduinolcd\test\pain drain\libraries\lvgl\src\misc\lv_color.h **** #define LV_COLOR_GET_R(c) LV_CONCAT(LV_COLOR_GET_R, LV_COLOR_DEPTH)(c)
 179:c:\projects\paindrain\arduinolcd\test\pain drain\libraries\lvgl\src\misc\lv_color.h **** #define LV_COLOR_GET_G(c) LV_CONCAT(LV_COLOR_GET_G, LV_COLOR_DEPTH)(c)
ARM GAS  C:\Users\haske\AppData\Local\Temp\ccxUXv8a.s 			page 57


 180:c:\projects\paindrain\arduinolcd\test\pain drain\libraries\lvgl\src\misc\lv_color.h **** #define LV_COLOR_GET_B(c) LV_CONCAT(LV_COLOR_GET_B, LV_COLOR_DEPTH)(c)
 181:c:\projects\paindrain\arduinolcd\test\pain drain\libraries\lvgl\src\misc\lv_color.h **** #define LV_COLOR_GET_A(c) LV_CONCAT(LV_COLOR_GET_A, LV_COLOR_DEPTH)(c)
 182:c:\projects\paindrain\arduinolcd\test\pain drain\libraries\lvgl\src\misc\lv_color.h **** 
 183:c:\projects\paindrain\arduinolcd\test\pain drain\libraries\lvgl\src\misc\lv_color.h **** #define _LV_COLOR_ZERO_INITIALIZER LV_CONCAT(_LV_COLOR_ZERO_INITIALIZER, LV_COLOR_DEPTH)
 184:c:\projects\paindrain\arduinolcd\test\pain drain\libraries\lvgl\src\misc\lv_color.h **** #define LV_COLOR_MAKE(r8, g8, b8) LV_CONCAT(LV_COLOR_MAKE, LV_COLOR_DEPTH)(r8, g8, b8)
 185:c:\projects\paindrain\arduinolcd\test\pain drain\libraries\lvgl\src\misc\lv_color.h **** 
 186:c:\projects\paindrain\arduinolcd\test\pain drain\libraries\lvgl\src\misc\lv_color.h **** /**********************
 187:c:\projects\paindrain\arduinolcd\test\pain drain\libraries\lvgl\src\misc\lv_color.h ****  *      TYPEDEFS
 188:c:\projects\paindrain\arduinolcd\test\pain drain\libraries\lvgl\src\misc\lv_color.h ****  **********************/
 189:c:\projects\paindrain\arduinolcd\test\pain drain\libraries\lvgl\src\misc\lv_color.h **** 
 190:c:\projects\paindrain\arduinolcd\test\pain drain\libraries\lvgl\src\misc\lv_color.h **** typedef union {
 191:c:\projects\paindrain\arduinolcd\test\pain drain\libraries\lvgl\src\misc\lv_color.h ****     uint8_t full; /*must be declared first to set all bits of byte via initializer list*/
 192:c:\projects\paindrain\arduinolcd\test\pain drain\libraries\lvgl\src\misc\lv_color.h ****     union {
 193:c:\projects\paindrain\arduinolcd\test\pain drain\libraries\lvgl\src\misc\lv_color.h ****         uint8_t blue : 1;
 194:c:\projects\paindrain\arduinolcd\test\pain drain\libraries\lvgl\src\misc\lv_color.h ****         uint8_t green : 1;
 195:c:\projects\paindrain\arduinolcd\test\pain drain\libraries\lvgl\src\misc\lv_color.h ****         uint8_t red : 1;
 196:c:\projects\paindrain\arduinolcd\test\pain drain\libraries\lvgl\src\misc\lv_color.h ****     } ch;
 197:c:\projects\paindrain\arduinolcd\test\pain drain\libraries\lvgl\src\misc\lv_color.h **** } lv_color1_t;
 198:c:\projects\paindrain\arduinolcd\test\pain drain\libraries\lvgl\src\misc\lv_color.h **** 
 199:c:\projects\paindrain\arduinolcd\test\pain drain\libraries\lvgl\src\misc\lv_color.h **** typedef union {
 200:c:\projects\paindrain\arduinolcd\test\pain drain\libraries\lvgl\src\misc\lv_color.h ****     struct {
 201:c:\projects\paindrain\arduinolcd\test\pain drain\libraries\lvgl\src\misc\lv_color.h ****         uint8_t blue : 2;
 202:c:\projects\paindrain\arduinolcd\test\pain drain\libraries\lvgl\src\misc\lv_color.h ****         uint8_t green : 3;
 203:c:\projects\paindrain\arduinolcd\test\pain drain\libraries\lvgl\src\misc\lv_color.h ****         uint8_t red : 3;
 204:c:\projects\paindrain\arduinolcd\test\pain drain\libraries\lvgl\src\misc\lv_color.h ****     } ch;
 205:c:\projects\paindrain\arduinolcd\test\pain drain\libraries\lvgl\src\misc\lv_color.h ****     uint8_t full;
 206:c:\projects\paindrain\arduinolcd\test\pain drain\libraries\lvgl\src\misc\lv_color.h **** } lv_color8_t;
 207:c:\projects\paindrain\arduinolcd\test\pain drain\libraries\lvgl\src\misc\lv_color.h **** 
 208:c:\projects\paindrain\arduinolcd\test\pain drain\libraries\lvgl\src\misc\lv_color.h **** typedef union {
 209:c:\projects\paindrain\arduinolcd\test\pain drain\libraries\lvgl\src\misc\lv_color.h ****     struct {
 210:c:\projects\paindrain\arduinolcd\test\pain drain\libraries\lvgl\src\misc\lv_color.h **** #if LV_COLOR_16_SWAP == 0
 211:c:\projects\paindrain\arduinolcd\test\pain drain\libraries\lvgl\src\misc\lv_color.h ****         uint16_t blue : 5;
 212:c:\projects\paindrain\arduinolcd\test\pain drain\libraries\lvgl\src\misc\lv_color.h ****         uint16_t green : 6;
 213:c:\projects\paindrain\arduinolcd\test\pain drain\libraries\lvgl\src\misc\lv_color.h ****         uint16_t red : 5;
 214:c:\projects\paindrain\arduinolcd\test\pain drain\libraries\lvgl\src\misc\lv_color.h **** #else
 215:c:\projects\paindrain\arduinolcd\test\pain drain\libraries\lvgl\src\misc\lv_color.h ****         uint16_t green_h : 3;
 216:c:\projects\paindrain\arduinolcd\test\pain drain\libraries\lvgl\src\misc\lv_color.h ****         uint16_t red : 5;
 217:c:\projects\paindrain\arduinolcd\test\pain drain\libraries\lvgl\src\misc\lv_color.h ****         uint16_t blue : 5;
 218:c:\projects\paindrain\arduinolcd\test\pain drain\libraries\lvgl\src\misc\lv_color.h ****         uint16_t green_l : 3;
 219:c:\projects\paindrain\arduinolcd\test\pain drain\libraries\lvgl\src\misc\lv_color.h **** #endif
 220:c:\projects\paindrain\arduinolcd\test\pain drain\libraries\lvgl\src\misc\lv_color.h ****     } ch;
 221:c:\projects\paindrain\arduinolcd\test\pain drain\libraries\lvgl\src\misc\lv_color.h ****     uint16_t full;
 222:c:\projects\paindrain\arduinolcd\test\pain drain\libraries\lvgl\src\misc\lv_color.h **** } lv_color16_t;
 223:c:\projects\paindrain\arduinolcd\test\pain drain\libraries\lvgl\src\misc\lv_color.h **** 
 224:c:\projects\paindrain\arduinolcd\test\pain drain\libraries\lvgl\src\misc\lv_color.h **** typedef union {
 225:c:\projects\paindrain\arduinolcd\test\pain drain\libraries\lvgl\src\misc\lv_color.h ****     struct {
 226:c:\projects\paindrain\arduinolcd\test\pain drain\libraries\lvgl\src\misc\lv_color.h ****         uint8_t blue;
 227:c:\projects\paindrain\arduinolcd\test\pain drain\libraries\lvgl\src\misc\lv_color.h ****         uint8_t green;
 228:c:\projects\paindrain\arduinolcd\test\pain drain\libraries\lvgl\src\misc\lv_color.h ****         uint8_t red;
 229:c:\projects\paindrain\arduinolcd\test\pain drain\libraries\lvgl\src\misc\lv_color.h ****         uint8_t alpha;
 230:c:\projects\paindrain\arduinolcd\test\pain drain\libraries\lvgl\src\misc\lv_color.h ****     } ch;
 231:c:\projects\paindrain\arduinolcd\test\pain drain\libraries\lvgl\src\misc\lv_color.h ****     uint32_t full;
 232:c:\projects\paindrain\arduinolcd\test\pain drain\libraries\lvgl\src\misc\lv_color.h **** } lv_color32_t;
 233:c:\projects\paindrain\arduinolcd\test\pain drain\libraries\lvgl\src\misc\lv_color.h **** 
 234:c:\projects\paindrain\arduinolcd\test\pain drain\libraries\lvgl\src\misc\lv_color.h **** typedef LV_CONCAT3(uint, LV_COLOR_SIZE, _t) lv_color_int_t;
 235:c:\projects\paindrain\arduinolcd\test\pain drain\libraries\lvgl\src\misc\lv_color.h **** typedef LV_CONCAT3(lv_color, LV_COLOR_DEPTH, _t) lv_color_t;
 236:c:\projects\paindrain\arduinolcd\test\pain drain\libraries\lvgl\src\misc\lv_color.h **** 
ARM GAS  C:\Users\haske\AppData\Local\Temp\ccxUXv8a.s 			page 58


 237:c:\projects\paindrain\arduinolcd\test\pain drain\libraries\lvgl\src\misc\lv_color.h **** typedef struct {
 238:c:\projects\paindrain\arduinolcd\test\pain drain\libraries\lvgl\src\misc\lv_color.h ****     uint16_t h;
 239:c:\projects\paindrain\arduinolcd\test\pain drain\libraries\lvgl\src\misc\lv_color.h ****     uint8_t s;
 240:c:\projects\paindrain\arduinolcd\test\pain drain\libraries\lvgl\src\misc\lv_color.h ****     uint8_t v;
 241:c:\projects\paindrain\arduinolcd\test\pain drain\libraries\lvgl\src\misc\lv_color.h **** } lv_color_hsv_t;
 242:c:\projects\paindrain\arduinolcd\test\pain drain\libraries\lvgl\src\misc\lv_color.h **** 
 243:c:\projects\paindrain\arduinolcd\test\pain drain\libraries\lvgl\src\misc\lv_color.h **** //! @cond Doxygen_Suppress
 244:c:\projects\paindrain\arduinolcd\test\pain drain\libraries\lvgl\src\misc\lv_color.h **** /*No idea where the guard is required but else throws warnings in the docs*/
 245:c:\projects\paindrain\arduinolcd\test\pain drain\libraries\lvgl\src\misc\lv_color.h **** typedef uint8_t lv_opa_t;
 246:c:\projects\paindrain\arduinolcd\test\pain drain\libraries\lvgl\src\misc\lv_color.h **** //! @endcond
 247:c:\projects\paindrain\arduinolcd\test\pain drain\libraries\lvgl\src\misc\lv_color.h **** 
 248:c:\projects\paindrain\arduinolcd\test\pain drain\libraries\lvgl\src\misc\lv_color.h **** struct _lv_color_filter_dsc_t;
 249:c:\projects\paindrain\arduinolcd\test\pain drain\libraries\lvgl\src\misc\lv_color.h **** 
 250:c:\projects\paindrain\arduinolcd\test\pain drain\libraries\lvgl\src\misc\lv_color.h **** typedef lv_color_t (*lv_color_filter_cb_t)(const struct _lv_color_filter_dsc_t *, lv_color_t, lv_op
 251:c:\projects\paindrain\arduinolcd\test\pain drain\libraries\lvgl\src\misc\lv_color.h **** 
 252:c:\projects\paindrain\arduinolcd\test\pain drain\libraries\lvgl\src\misc\lv_color.h **** typedef struct _lv_color_filter_dsc_t {
 253:c:\projects\paindrain\arduinolcd\test\pain drain\libraries\lvgl\src\misc\lv_color.h ****     lv_color_filter_cb_t filter_cb;
 254:c:\projects\paindrain\arduinolcd\test\pain drain\libraries\lvgl\src\misc\lv_color.h ****     void * user_data;
 255:c:\projects\paindrain\arduinolcd\test\pain drain\libraries\lvgl\src\misc\lv_color.h **** } lv_color_filter_dsc_t;
 256:c:\projects\paindrain\arduinolcd\test\pain drain\libraries\lvgl\src\misc\lv_color.h **** 
 257:c:\projects\paindrain\arduinolcd\test\pain drain\libraries\lvgl\src\misc\lv_color.h **** 
 258:c:\projects\paindrain\arduinolcd\test\pain drain\libraries\lvgl\src\misc\lv_color.h **** typedef enum {
 259:c:\projects\paindrain\arduinolcd\test\pain drain\libraries\lvgl\src\misc\lv_color.h ****     LV_PALETTE_RED,
 260:c:\projects\paindrain\arduinolcd\test\pain drain\libraries\lvgl\src\misc\lv_color.h ****     LV_PALETTE_PINK,
 261:c:\projects\paindrain\arduinolcd\test\pain drain\libraries\lvgl\src\misc\lv_color.h ****     LV_PALETTE_PURPLE,
 262:c:\projects\paindrain\arduinolcd\test\pain drain\libraries\lvgl\src\misc\lv_color.h ****     LV_PALETTE_DEEP_PURPLE,
 263:c:\projects\paindrain\arduinolcd\test\pain drain\libraries\lvgl\src\misc\lv_color.h ****     LV_PALETTE_INDIGO,
 264:c:\projects\paindrain\arduinolcd\test\pain drain\libraries\lvgl\src\misc\lv_color.h ****     LV_PALETTE_BLUE,
 265:c:\projects\paindrain\arduinolcd\test\pain drain\libraries\lvgl\src\misc\lv_color.h ****     LV_PALETTE_LIGHT_BLUE,
 266:c:\projects\paindrain\arduinolcd\test\pain drain\libraries\lvgl\src\misc\lv_color.h ****     LV_PALETTE_CYAN,
 267:c:\projects\paindrain\arduinolcd\test\pain drain\libraries\lvgl\src\misc\lv_color.h ****     LV_PALETTE_TEAL,
 268:c:\projects\paindrain\arduinolcd\test\pain drain\libraries\lvgl\src\misc\lv_color.h ****     LV_PALETTE_GREEN,
 269:c:\projects\paindrain\arduinolcd\test\pain drain\libraries\lvgl\src\misc\lv_color.h ****     LV_PALETTE_LIGHT_GREEN,
 270:c:\projects\paindrain\arduinolcd\test\pain drain\libraries\lvgl\src\misc\lv_color.h ****     LV_PALETTE_LIME,
 271:c:\projects\paindrain\arduinolcd\test\pain drain\libraries\lvgl\src\misc\lv_color.h ****     LV_PALETTE_YELLOW,
 272:c:\projects\paindrain\arduinolcd\test\pain drain\libraries\lvgl\src\misc\lv_color.h ****     LV_PALETTE_AMBER,
 273:c:\projects\paindrain\arduinolcd\test\pain drain\libraries\lvgl\src\misc\lv_color.h ****     LV_PALETTE_ORANGE,
 274:c:\projects\paindrain\arduinolcd\test\pain drain\libraries\lvgl\src\misc\lv_color.h ****     LV_PALETTE_DEEP_ORANGE,
 275:c:\projects\paindrain\arduinolcd\test\pain drain\libraries\lvgl\src\misc\lv_color.h ****     LV_PALETTE_BROWN,
 276:c:\projects\paindrain\arduinolcd\test\pain drain\libraries\lvgl\src\misc\lv_color.h ****     LV_PALETTE_BLUE_GREY,
 277:c:\projects\paindrain\arduinolcd\test\pain drain\libraries\lvgl\src\misc\lv_color.h ****     LV_PALETTE_GREY,
 278:c:\projects\paindrain\arduinolcd\test\pain drain\libraries\lvgl\src\misc\lv_color.h ****     _LV_PALETTE_LAST,
 279:c:\projects\paindrain\arduinolcd\test\pain drain\libraries\lvgl\src\misc\lv_color.h ****     LV_PALETTE_NONE = 0xff,
 280:c:\projects\paindrain\arduinolcd\test\pain drain\libraries\lvgl\src\misc\lv_color.h **** } lv_palette_t;
 281:c:\projects\paindrain\arduinolcd\test\pain drain\libraries\lvgl\src\misc\lv_color.h **** 
 282:c:\projects\paindrain\arduinolcd\test\pain drain\libraries\lvgl\src\misc\lv_color.h **** /**********************
 283:c:\projects\paindrain\arduinolcd\test\pain drain\libraries\lvgl\src\misc\lv_color.h ****  * GLOBAL PROTOTYPES
 284:c:\projects\paindrain\arduinolcd\test\pain drain\libraries\lvgl\src\misc\lv_color.h ****  **********************/
 285:c:\projects\paindrain\arduinolcd\test\pain drain\libraries\lvgl\src\misc\lv_color.h **** 
 286:c:\projects\paindrain\arduinolcd\test\pain drain\libraries\lvgl\src\misc\lv_color.h **** /*In color conversations:
 287:c:\projects\paindrain\arduinolcd\test\pain drain\libraries\lvgl\src\misc\lv_color.h ****  * - When converting to bigger color type the LSB weight of 1 LSB is calculated
 288:c:\projects\paindrain\arduinolcd\test\pain drain\libraries\lvgl\src\misc\lv_color.h ****  *   E.g. 16 bit Red has 5 bits
 289:c:\projects\paindrain\arduinolcd\test\pain drain\libraries\lvgl\src\misc\lv_color.h ****  *         8 bit Red has 3 bits
 290:c:\projects\paindrain\arduinolcd\test\pain drain\libraries\lvgl\src\misc\lv_color.h ****  *        ----------------------
 291:c:\projects\paindrain\arduinolcd\test\pain drain\libraries\lvgl\src\misc\lv_color.h ****  *        8 bit red LSB = (2^5 - 1) / (2^3 - 1) = 31 / 7 = 4
 292:c:\projects\paindrain\arduinolcd\test\pain drain\libraries\lvgl\src\misc\lv_color.h ****  *
 293:c:\projects\paindrain\arduinolcd\test\pain drain\libraries\lvgl\src\misc\lv_color.h ****  * - When calculating to smaller color type simply shift out the LSBs
ARM GAS  C:\Users\haske\AppData\Local\Temp\ccxUXv8a.s 			page 59


 294:c:\projects\paindrain\arduinolcd\test\pain drain\libraries\lvgl\src\misc\lv_color.h ****  *   E.g.  8 bit Red has 3 bits
 295:c:\projects\paindrain\arduinolcd\test\pain drain\libraries\lvgl\src\misc\lv_color.h ****  *        16 bit Red has 5 bits
 296:c:\projects\paindrain\arduinolcd\test\pain drain\libraries\lvgl\src\misc\lv_color.h ****  *        ----------------------
 297:c:\projects\paindrain\arduinolcd\test\pain drain\libraries\lvgl\src\misc\lv_color.h ****  *         Shift right with 5 - 3 = 2
 298:c:\projects\paindrain\arduinolcd\test\pain drain\libraries\lvgl\src\misc\lv_color.h ****  */
 299:c:\projects\paindrain\arduinolcd\test\pain drain\libraries\lvgl\src\misc\lv_color.h **** static inline uint8_t lv_color_to1(lv_color_t color)
 300:c:\projects\paindrain\arduinolcd\test\pain drain\libraries\lvgl\src\misc\lv_color.h **** {
 301:c:\projects\paindrain\arduinolcd\test\pain drain\libraries\lvgl\src\misc\lv_color.h **** #if LV_COLOR_DEPTH == 1
 302:c:\projects\paindrain\arduinolcd\test\pain drain\libraries\lvgl\src\misc\lv_color.h ****     return color.full;
 303:c:\projects\paindrain\arduinolcd\test\pain drain\libraries\lvgl\src\misc\lv_color.h **** #elif LV_COLOR_DEPTH == 8
 304:c:\projects\paindrain\arduinolcd\test\pain drain\libraries\lvgl\src\misc\lv_color.h ****     if((LV_COLOR_GET_R(color) & 0x4) || (LV_COLOR_GET_G(color) & 0x4) || (LV_COLOR_GET_B(color) & 0
 305:c:\projects\paindrain\arduinolcd\test\pain drain\libraries\lvgl\src\misc\lv_color.h ****         return 1;
 306:c:\projects\paindrain\arduinolcd\test\pain drain\libraries\lvgl\src\misc\lv_color.h ****     }
 307:c:\projects\paindrain\arduinolcd\test\pain drain\libraries\lvgl\src\misc\lv_color.h ****     else {
 308:c:\projects\paindrain\arduinolcd\test\pain drain\libraries\lvgl\src\misc\lv_color.h ****         return 0;
 309:c:\projects\paindrain\arduinolcd\test\pain drain\libraries\lvgl\src\misc\lv_color.h ****     }
 310:c:\projects\paindrain\arduinolcd\test\pain drain\libraries\lvgl\src\misc\lv_color.h **** #elif LV_COLOR_DEPTH == 16
 311:c:\projects\paindrain\arduinolcd\test\pain drain\libraries\lvgl\src\misc\lv_color.h ****     if((LV_COLOR_GET_R(color) & 0x10) || (LV_COLOR_GET_G(color) & 0x20) || (LV_COLOR_GET_B(color) &
 312:c:\projects\paindrain\arduinolcd\test\pain drain\libraries\lvgl\src\misc\lv_color.h ****         return 1;
 313:c:\projects\paindrain\arduinolcd\test\pain drain\libraries\lvgl\src\misc\lv_color.h ****     }
 314:c:\projects\paindrain\arduinolcd\test\pain drain\libraries\lvgl\src\misc\lv_color.h ****     else {
 315:c:\projects\paindrain\arduinolcd\test\pain drain\libraries\lvgl\src\misc\lv_color.h ****         return 0;
 316:c:\projects\paindrain\arduinolcd\test\pain drain\libraries\lvgl\src\misc\lv_color.h ****     }
 317:c:\projects\paindrain\arduinolcd\test\pain drain\libraries\lvgl\src\misc\lv_color.h **** #elif LV_COLOR_DEPTH == 32
 318:c:\projects\paindrain\arduinolcd\test\pain drain\libraries\lvgl\src\misc\lv_color.h ****     if((LV_COLOR_GET_R(color) & 0x80) || (LV_COLOR_GET_G(color) & 0x80) || (LV_COLOR_GET_B(color) &
 319:c:\projects\paindrain\arduinolcd\test\pain drain\libraries\lvgl\src\misc\lv_color.h ****         return 1;
 320:c:\projects\paindrain\arduinolcd\test\pain drain\libraries\lvgl\src\misc\lv_color.h ****     }
 321:c:\projects\paindrain\arduinolcd\test\pain drain\libraries\lvgl\src\misc\lv_color.h ****     else {
 322:c:\projects\paindrain\arduinolcd\test\pain drain\libraries\lvgl\src\misc\lv_color.h ****         return 0;
 323:c:\projects\paindrain\arduinolcd\test\pain drain\libraries\lvgl\src\misc\lv_color.h ****     }
 324:c:\projects\paindrain\arduinolcd\test\pain drain\libraries\lvgl\src\misc\lv_color.h **** #endif
 325:c:\projects\paindrain\arduinolcd\test\pain drain\libraries\lvgl\src\misc\lv_color.h **** }
 326:c:\projects\paindrain\arduinolcd\test\pain drain\libraries\lvgl\src\misc\lv_color.h **** 
 327:c:\projects\paindrain\arduinolcd\test\pain drain\libraries\lvgl\src\misc\lv_color.h **** static inline uint8_t lv_color_to8(lv_color_t color)
 328:c:\projects\paindrain\arduinolcd\test\pain drain\libraries\lvgl\src\misc\lv_color.h **** {
 329:c:\projects\paindrain\arduinolcd\test\pain drain\libraries\lvgl\src\misc\lv_color.h **** #if LV_COLOR_DEPTH == 1
 330:c:\projects\paindrain\arduinolcd\test\pain drain\libraries\lvgl\src\misc\lv_color.h ****     if(color.full == 0)
 331:c:\projects\paindrain\arduinolcd\test\pain drain\libraries\lvgl\src\misc\lv_color.h ****         return 0;
 332:c:\projects\paindrain\arduinolcd\test\pain drain\libraries\lvgl\src\misc\lv_color.h ****     else
 333:c:\projects\paindrain\arduinolcd\test\pain drain\libraries\lvgl\src\misc\lv_color.h ****         return 0xFF;
 334:c:\projects\paindrain\arduinolcd\test\pain drain\libraries\lvgl\src\misc\lv_color.h **** #elif LV_COLOR_DEPTH == 8
 335:c:\projects\paindrain\arduinolcd\test\pain drain\libraries\lvgl\src\misc\lv_color.h ****     return color.full;
 336:c:\projects\paindrain\arduinolcd\test\pain drain\libraries\lvgl\src\misc\lv_color.h **** #elif LV_COLOR_DEPTH == 16
 337:c:\projects\paindrain\arduinolcd\test\pain drain\libraries\lvgl\src\misc\lv_color.h ****     lv_color8_t ret;
 338:c:\projects\paindrain\arduinolcd\test\pain drain\libraries\lvgl\src\misc\lv_color.h ****     LV_COLOR_SET_R8(ret, LV_COLOR_GET_R(color) >> 2); /*5 - 3  = 2*/
 339:c:\projects\paindrain\arduinolcd\test\pain drain\libraries\lvgl\src\misc\lv_color.h ****     LV_COLOR_SET_G8(ret, LV_COLOR_GET_G(color) >> 3); /*6 - 3  = 3*/
 340:c:\projects\paindrain\arduinolcd\test\pain drain\libraries\lvgl\src\misc\lv_color.h ****     LV_COLOR_SET_B8(ret, LV_COLOR_GET_B(color) >> 3); /*5 - 2  = 3*/
 341:c:\projects\paindrain\arduinolcd\test\pain drain\libraries\lvgl\src\misc\lv_color.h ****     return ret.full;
 342:c:\projects\paindrain\arduinolcd\test\pain drain\libraries\lvgl\src\misc\lv_color.h **** #elif LV_COLOR_DEPTH == 32
 343:c:\projects\paindrain\arduinolcd\test\pain drain\libraries\lvgl\src\misc\lv_color.h ****     lv_color8_t ret;
 344:c:\projects\paindrain\arduinolcd\test\pain drain\libraries\lvgl\src\misc\lv_color.h ****     LV_COLOR_SET_R8(ret, LV_COLOR_GET_R(color) >> 5); /*8 - 3  = 5*/
 345:c:\projects\paindrain\arduinolcd\test\pain drain\libraries\lvgl\src\misc\lv_color.h ****     LV_COLOR_SET_G8(ret, LV_COLOR_GET_G(color) >> 5); /*8 - 3  = 5*/
 346:c:\projects\paindrain\arduinolcd\test\pain drain\libraries\lvgl\src\misc\lv_color.h ****     LV_COLOR_SET_B8(ret, LV_COLOR_GET_B(color) >> 6); /*8 - 2  = 6*/
 347:c:\projects\paindrain\arduinolcd\test\pain drain\libraries\lvgl\src\misc\lv_color.h ****     return ret.full;
 348:c:\projects\paindrain\arduinolcd\test\pain drain\libraries\lvgl\src\misc\lv_color.h **** #endif
 349:c:\projects\paindrain\arduinolcd\test\pain drain\libraries\lvgl\src\misc\lv_color.h **** }
 350:c:\projects\paindrain\arduinolcd\test\pain drain\libraries\lvgl\src\misc\lv_color.h **** 
ARM GAS  C:\Users\haske\AppData\Local\Temp\ccxUXv8a.s 			page 60


 351:c:\projects\paindrain\arduinolcd\test\pain drain\libraries\lvgl\src\misc\lv_color.h **** static inline uint16_t lv_color_to16(lv_color_t color)
 352:c:\projects\paindrain\arduinolcd\test\pain drain\libraries\lvgl\src\misc\lv_color.h **** {
 353:c:\projects\paindrain\arduinolcd\test\pain drain\libraries\lvgl\src\misc\lv_color.h **** #if LV_COLOR_DEPTH == 1
 354:c:\projects\paindrain\arduinolcd\test\pain drain\libraries\lvgl\src\misc\lv_color.h ****     if(color.full == 0)
 355:c:\projects\paindrain\arduinolcd\test\pain drain\libraries\lvgl\src\misc\lv_color.h ****         return 0;
 356:c:\projects\paindrain\arduinolcd\test\pain drain\libraries\lvgl\src\misc\lv_color.h ****     else
 357:c:\projects\paindrain\arduinolcd\test\pain drain\libraries\lvgl\src\misc\lv_color.h ****         return 0xFFFF;
 358:c:\projects\paindrain\arduinolcd\test\pain drain\libraries\lvgl\src\misc\lv_color.h **** #elif LV_COLOR_DEPTH == 8
 359:c:\projects\paindrain\arduinolcd\test\pain drain\libraries\lvgl\src\misc\lv_color.h ****     lv_color16_t ret;
 360:c:\projects\paindrain\arduinolcd\test\pain drain\libraries\lvgl\src\misc\lv_color.h ****     LV_COLOR_SET_R16(ret, LV_COLOR_GET_R(color) * 4);  /*(2^5 - 1)/(2^3 - 1) = 31/7 = 4*/
 361:c:\projects\paindrain\arduinolcd\test\pain drain\libraries\lvgl\src\misc\lv_color.h ****     LV_COLOR_SET_G16(ret, LV_COLOR_GET_G(color) * 9);  /*(2^6 - 1)/(2^3 - 1) = 63/7 = 9*/
 362:c:\projects\paindrain\arduinolcd\test\pain drain\libraries\lvgl\src\misc\lv_color.h ****     LV_COLOR_SET_B16(ret, LV_COLOR_GET_B(color) * 10); /*(2^5 - 1)/(2^2 - 1) = 31/3 = 10*/
 363:c:\projects\paindrain\arduinolcd\test\pain drain\libraries\lvgl\src\misc\lv_color.h ****     return ret.full;
 364:c:\projects\paindrain\arduinolcd\test\pain drain\libraries\lvgl\src\misc\lv_color.h **** #elif LV_COLOR_DEPTH == 16
 365:c:\projects\paindrain\arduinolcd\test\pain drain\libraries\lvgl\src\misc\lv_color.h ****     return color.full;
 366:c:\projects\paindrain\arduinolcd\test\pain drain\libraries\lvgl\src\misc\lv_color.h **** #elif LV_COLOR_DEPTH == 32
 367:c:\projects\paindrain\arduinolcd\test\pain drain\libraries\lvgl\src\misc\lv_color.h ****     lv_color16_t ret;
 368:c:\projects\paindrain\arduinolcd\test\pain drain\libraries\lvgl\src\misc\lv_color.h ****     LV_COLOR_SET_R16(ret, LV_COLOR_GET_R(color) >> 3); /*8 - 5  = 3*/
 369:c:\projects\paindrain\arduinolcd\test\pain drain\libraries\lvgl\src\misc\lv_color.h ****     LV_COLOR_SET_G16(ret, LV_COLOR_GET_G(color) >> 2); /*8 - 6  = 2*/
 370:c:\projects\paindrain\arduinolcd\test\pain drain\libraries\lvgl\src\misc\lv_color.h ****     LV_COLOR_SET_B16(ret, LV_COLOR_GET_B(color) >> 3); /*8 - 5  = 3*/
 371:c:\projects\paindrain\arduinolcd\test\pain drain\libraries\lvgl\src\misc\lv_color.h ****     return ret.full;
 372:c:\projects\paindrain\arduinolcd\test\pain drain\libraries\lvgl\src\misc\lv_color.h **** #endif
 373:c:\projects\paindrain\arduinolcd\test\pain drain\libraries\lvgl\src\misc\lv_color.h **** }
 374:c:\projects\paindrain\arduinolcd\test\pain drain\libraries\lvgl\src\misc\lv_color.h **** 
 375:c:\projects\paindrain\arduinolcd\test\pain drain\libraries\lvgl\src\misc\lv_color.h **** static inline uint32_t lv_color_to32(lv_color_t color)
 376:c:\projects\paindrain\arduinolcd\test\pain drain\libraries\lvgl\src\misc\lv_color.h **** {
 377:c:\projects\paindrain\arduinolcd\test\pain drain\libraries\lvgl\src\misc\lv_color.h **** #if LV_COLOR_DEPTH == 1
 378:c:\projects\paindrain\arduinolcd\test\pain drain\libraries\lvgl\src\misc\lv_color.h ****     if(color.full == 0)
 379:c:\projects\paindrain\arduinolcd\test\pain drain\libraries\lvgl\src\misc\lv_color.h ****         return 0xFF000000;
 380:c:\projects\paindrain\arduinolcd\test\pain drain\libraries\lvgl\src\misc\lv_color.h ****     else
 381:c:\projects\paindrain\arduinolcd\test\pain drain\libraries\lvgl\src\misc\lv_color.h ****         return 0xFFFFFFFF;
 382:c:\projects\paindrain\arduinolcd\test\pain drain\libraries\lvgl\src\misc\lv_color.h **** #elif LV_COLOR_DEPTH == 8
 383:c:\projects\paindrain\arduinolcd\test\pain drain\libraries\lvgl\src\misc\lv_color.h ****     lv_color32_t ret;
 384:c:\projects\paindrain\arduinolcd\test\pain drain\libraries\lvgl\src\misc\lv_color.h ****     LV_COLOR_SET_R32(ret, LV_COLOR_GET_R(color) * 36); /*(2^8 - 1)/(2^3 - 1) = 255/7 = 36*/
 385:c:\projects\paindrain\arduinolcd\test\pain drain\libraries\lvgl\src\misc\lv_color.h ****     LV_COLOR_SET_G32(ret, LV_COLOR_GET_G(color) * 36); /*(2^8 - 1)/(2^3 - 1) = 255/7 = 36*/
 386:c:\projects\paindrain\arduinolcd\test\pain drain\libraries\lvgl\src\misc\lv_color.h ****     LV_COLOR_SET_B32(ret, LV_COLOR_GET_B(color) * 85); /*(2^8 - 1)/(2^2 - 1) = 255/3 = 85*/
 387:c:\projects\paindrain\arduinolcd\test\pain drain\libraries\lvgl\src\misc\lv_color.h ****     LV_COLOR_SET_A32(ret, 0xFF);
 388:c:\projects\paindrain\arduinolcd\test\pain drain\libraries\lvgl\src\misc\lv_color.h ****     return ret.full;
 389:c:\projects\paindrain\arduinolcd\test\pain drain\libraries\lvgl\src\misc\lv_color.h **** #elif LV_COLOR_DEPTH == 16
 390:c:\projects\paindrain\arduinolcd\test\pain drain\libraries\lvgl\src\misc\lv_color.h ****     /**
 391:c:\projects\paindrain\arduinolcd\test\pain drain\libraries\lvgl\src\misc\lv_color.h ****      * The floating point math for conversion is:
 392:c:\projects\paindrain\arduinolcd\test\pain drain\libraries\lvgl\src\misc\lv_color.h ****      *  valueto = valuefrom * ( (2^bitsto - 1) / (float)(2^bitsfrom - 1) )
 393:c:\projects\paindrain\arduinolcd\test\pain drain\libraries\lvgl\src\misc\lv_color.h ****      * The faster integer math for conversion is:
 394:c:\projects\paindrain\arduinolcd\test\pain drain\libraries\lvgl\src\misc\lv_color.h ****      *  valueto = ( valuefrom * multiplier + adder ) >> divisor
 395:c:\projects\paindrain\arduinolcd\test\pain drain\libraries\lvgl\src\misc\lv_color.h ****      *   multiplier = FLOOR( ( (2^bitsto - 1) << divisor ) / (float)(2^bitsfrom - 1) )
 396:c:\projects\paindrain\arduinolcd\test\pain drain\libraries\lvgl\src\misc\lv_color.h ****      *
 397:c:\projects\paindrain\arduinolcd\test\pain drain\libraries\lvgl\src\misc\lv_color.h ****      * Find the first divisor where ( adder >> divisor ) <= 0
 398:c:\projects\paindrain\arduinolcd\test\pain drain\libraries\lvgl\src\misc\lv_color.h ****      *
 399:c:\projects\paindrain\arduinolcd\test\pain drain\libraries\lvgl\src\misc\lv_color.h ****      * 5-bit to 8-bit: ( 31 * multiplier + adder ) >> divisor = 255
 400:c:\projects\paindrain\arduinolcd\test\pain drain\libraries\lvgl\src\misc\lv_color.h ****      * divisor  multiplier  adder  min (0)  max (31)
 401:c:\projects\paindrain\arduinolcd\test\pain drain\libraries\lvgl\src\misc\lv_color.h ****      *       0           8      7        7       255
 402:c:\projects\paindrain\arduinolcd\test\pain drain\libraries\lvgl\src\misc\lv_color.h ****      *       1          16     14        7       255
 403:c:\projects\paindrain\arduinolcd\test\pain drain\libraries\lvgl\src\misc\lv_color.h ****      *       2          32     28        7       255
 404:c:\projects\paindrain\arduinolcd\test\pain drain\libraries\lvgl\src\misc\lv_color.h ****      *       3          65     25        3       255
 405:c:\projects\paindrain\arduinolcd\test\pain drain\libraries\lvgl\src\misc\lv_color.h ****      *       4         131     19        1       255
 406:c:\projects\paindrain\arduinolcd\test\pain drain\libraries\lvgl\src\misc\lv_color.h ****      *       5         263      7        0       255
 407:c:\projects\paindrain\arduinolcd\test\pain drain\libraries\lvgl\src\misc\lv_color.h ****      *
ARM GAS  C:\Users\haske\AppData\Local\Temp\ccxUXv8a.s 			page 61


 408:c:\projects\paindrain\arduinolcd\test\pain drain\libraries\lvgl\src\misc\lv_color.h ****      * 6-bit to 8-bit: 255 = ( 63 * multiplier + adder ) >> divisor
 409:c:\projects\paindrain\arduinolcd\test\pain drain\libraries\lvgl\src\misc\lv_color.h ****      * divisor  multiplier  adder  min (0)  max (63)
 410:c:\projects\paindrain\arduinolcd\test\pain drain\libraries\lvgl\src\misc\lv_color.h ****      *       0           4      3        3       255
 411:c:\projects\paindrain\arduinolcd\test\pain drain\libraries\lvgl\src\misc\lv_color.h ****      *       1           8      6        3       255
 412:c:\projects\paindrain\arduinolcd\test\pain drain\libraries\lvgl\src\misc\lv_color.h ****      *       2          16     12        3       255
 413:c:\projects\paindrain\arduinolcd\test\pain drain\libraries\lvgl\src\misc\lv_color.h ****      *       3          32     24        3       255
 414:c:\projects\paindrain\arduinolcd\test\pain drain\libraries\lvgl\src\misc\lv_color.h ****      *       4          64     48        3       255
 415:c:\projects\paindrain\arduinolcd\test\pain drain\libraries\lvgl\src\misc\lv_color.h ****      *       5         129     33        1       255
 416:c:\projects\paindrain\arduinolcd\test\pain drain\libraries\lvgl\src\misc\lv_color.h ****      *       6         259      3        0       255
 417:c:\projects\paindrain\arduinolcd\test\pain drain\libraries\lvgl\src\misc\lv_color.h ****      */
 418:c:\projects\paindrain\arduinolcd\test\pain drain\libraries\lvgl\src\misc\lv_color.h **** 
 419:c:\projects\paindrain\arduinolcd\test\pain drain\libraries\lvgl\src\misc\lv_color.h ****     lv_color32_t ret;
 420:c:\projects\paindrain\arduinolcd\test\pain drain\libraries\lvgl\src\misc\lv_color.h ****     LV_COLOR_SET_R32(ret, (LV_COLOR_GET_R(color) * 263 + 7) >> 5);
 421:c:\projects\paindrain\arduinolcd\test\pain drain\libraries\lvgl\src\misc\lv_color.h ****     LV_COLOR_SET_G32(ret, (LV_COLOR_GET_G(color) * 259 + 3) >> 6);
 422:c:\projects\paindrain\arduinolcd\test\pain drain\libraries\lvgl\src\misc\lv_color.h ****     LV_COLOR_SET_B32(ret, (LV_COLOR_GET_B(color) * 263 + 7) >> 5);
 423:c:\projects\paindrain\arduinolcd\test\pain drain\libraries\lvgl\src\misc\lv_color.h ****     LV_COLOR_SET_A32(ret, 0xFF);
 424:c:\projects\paindrain\arduinolcd\test\pain drain\libraries\lvgl\src\misc\lv_color.h ****     return ret.full;
 425:c:\projects\paindrain\arduinolcd\test\pain drain\libraries\lvgl\src\misc\lv_color.h **** #elif LV_COLOR_DEPTH == 32
 426:c:\projects\paindrain\arduinolcd\test\pain drain\libraries\lvgl\src\misc\lv_color.h ****     return color.full;
 427:c:\projects\paindrain\arduinolcd\test\pain drain\libraries\lvgl\src\misc\lv_color.h **** #endif
 428:c:\projects\paindrain\arduinolcd\test\pain drain\libraries\lvgl\src\misc\lv_color.h **** }
 429:c:\projects\paindrain\arduinolcd\test\pain drain\libraries\lvgl\src\misc\lv_color.h **** 
 430:c:\projects\paindrain\arduinolcd\test\pain drain\libraries\lvgl\src\misc\lv_color.h **** //! @cond Doxygen_Suppress
 431:c:\projects\paindrain\arduinolcd\test\pain drain\libraries\lvgl\src\misc\lv_color.h **** 
 432:c:\projects\paindrain\arduinolcd\test\pain drain\libraries\lvgl\src\misc\lv_color.h **** /**
 433:c:\projects\paindrain\arduinolcd\test\pain drain\libraries\lvgl\src\misc\lv_color.h ****  * Mix two colors with a given ratio.
 434:c:\projects\paindrain\arduinolcd\test\pain drain\libraries\lvgl\src\misc\lv_color.h ****  * @param c1 the first color to mix (usually the foreground)
 435:c:\projects\paindrain\arduinolcd\test\pain drain\libraries\lvgl\src\misc\lv_color.h ****  * @param c2 the second color to mix (usually the background)
 436:c:\projects\paindrain\arduinolcd\test\pain drain\libraries\lvgl\src\misc\lv_color.h ****  * @param mix The ratio of the colors. 0: full `c2`, 255: full `c1`, 127: half `c1` and half`c2`
 437:c:\projects\paindrain\arduinolcd\test\pain drain\libraries\lvgl\src\misc\lv_color.h ****  * @return the mixed color
 438:c:\projects\paindrain\arduinolcd\test\pain drain\libraries\lvgl\src\misc\lv_color.h ****  */
 439:c:\projects\paindrain\arduinolcd\test\pain drain\libraries\lvgl\src\misc\lv_color.h **** LV_ATTRIBUTE_FAST_MEM static inline lv_color_t lv_color_mix(lv_color_t c1, lv_color_t c2, uint8_t m
 440:c:\projects\paindrain\arduinolcd\test\pain drain\libraries\lvgl\src\misc\lv_color.h **** {
 441:c:\projects\paindrain\arduinolcd\test\pain drain\libraries\lvgl\src\misc\lv_color.h ****     lv_color_t ret;
 442:c:\projects\paindrain\arduinolcd\test\pain drain\libraries\lvgl\src\misc\lv_color.h **** 
 443:c:\projects\paindrain\arduinolcd\test\pain drain\libraries\lvgl\src\misc\lv_color.h **** #if LV_COLOR_DEPTH == 16 && LV_COLOR_16_SWAP == 0 && LV_COLOR_MIX_ROUND_OFS == 0
 444:c:\projects\paindrain\arduinolcd\test\pain drain\libraries\lvgl\src\misc\lv_color.h ****     /*Source: https://stackoverflow.com/a/50012418/1999969*/
 445:c:\projects\paindrain\arduinolcd\test\pain drain\libraries\lvgl\src\misc\lv_color.h ****     mix = (uint32_t)((uint32_t)mix + 4) >> 3;
 446:c:\projects\paindrain\arduinolcd\test\pain drain\libraries\lvgl\src\misc\lv_color.h ****     uint32_t bg = (uint32_t)((uint32_t)c2.full | ((uint32_t)c2.full << 16)) &
 447:c:\projects\paindrain\arduinolcd\test\pain drain\libraries\lvgl\src\misc\lv_color.h ****                   0x7E0F81F; /*0b00000111111000001111100000011111*/
 448:c:\projects\paindrain\arduinolcd\test\pain drain\libraries\lvgl\src\misc\lv_color.h ****     uint32_t fg = (uint32_t)((uint32_t)c1.full | ((uint32_t)c1.full << 16)) & 0x7E0F81F;
 449:c:\projects\paindrain\arduinolcd\test\pain drain\libraries\lvgl\src\misc\lv_color.h ****     uint32_t result = ((((fg - bg) * mix) >> 5) + bg) & 0x7E0F81F;
 450:c:\projects\paindrain\arduinolcd\test\pain drain\libraries\lvgl\src\misc\lv_color.h ****     ret.full = (uint16_t)((result >> 16) | result);
 451:c:\projects\paindrain\arduinolcd\test\pain drain\libraries\lvgl\src\misc\lv_color.h **** #elif LV_COLOR_DEPTH != 1
 452:c:\projects\paindrain\arduinolcd\test\pain drain\libraries\lvgl\src\misc\lv_color.h ****     /*LV_COLOR_DEPTH == 8, 16 or 32*/
 453:c:\projects\paindrain\arduinolcd\test\pain drain\libraries\lvgl\src\misc\lv_color.h ****     LV_COLOR_SET_R(ret, LV_UDIV255((uint16_t)LV_COLOR_GET_R(c1) * mix + LV_COLOR_GET_R(c2) *
 454:c:\projects\paindrain\arduinolcd\test\pain drain\libraries\lvgl\src\misc\lv_color.h ****                                    (255 - mix) + LV_COLOR_MIX_ROUND_OFS));
 455:c:\projects\paindrain\arduinolcd\test\pain drain\libraries\lvgl\src\misc\lv_color.h ****     LV_COLOR_SET_G(ret, LV_UDIV255((uint16_t)LV_COLOR_GET_G(c1) * mix + LV_COLOR_GET_G(c2) *
 456:c:\projects\paindrain\arduinolcd\test\pain drain\libraries\lvgl\src\misc\lv_color.h ****                                    (255 - mix) + LV_COLOR_MIX_ROUND_OFS));
 457:c:\projects\paindrain\arduinolcd\test\pain drain\libraries\lvgl\src\misc\lv_color.h ****     LV_COLOR_SET_B(ret, LV_UDIV255((uint16_t)LV_COLOR_GET_B(c1) * mix + LV_COLOR_GET_B(c2) *
 458:c:\projects\paindrain\arduinolcd\test\pain drain\libraries\lvgl\src\misc\lv_color.h ****                                    (255 - mix) + LV_COLOR_MIX_ROUND_OFS));
 459:c:\projects\paindrain\arduinolcd\test\pain drain\libraries\lvgl\src\misc\lv_color.h ****     LV_COLOR_SET_A(ret, 0xFF);
 460:c:\projects\paindrain\arduinolcd\test\pain drain\libraries\lvgl\src\misc\lv_color.h **** #else
 461:c:\projects\paindrain\arduinolcd\test\pain drain\libraries\lvgl\src\misc\lv_color.h ****     /*LV_COLOR_DEPTH == 1*/
 462:c:\projects\paindrain\arduinolcd\test\pain drain\libraries\lvgl\src\misc\lv_color.h ****     ret.full = mix > LV_OPA_50 ? c1.full : c2.full;
 463:c:\projects\paindrain\arduinolcd\test\pain drain\libraries\lvgl\src\misc\lv_color.h **** #endif
 464:c:\projects\paindrain\arduinolcd\test\pain drain\libraries\lvgl\src\misc\lv_color.h **** 
ARM GAS  C:\Users\haske\AppData\Local\Temp\ccxUXv8a.s 			page 62


 465:c:\projects\paindrain\arduinolcd\test\pain drain\libraries\lvgl\src\misc\lv_color.h ****     return ret;
 466:c:\projects\paindrain\arduinolcd\test\pain drain\libraries\lvgl\src\misc\lv_color.h **** }
 467:c:\projects\paindrain\arduinolcd\test\pain drain\libraries\lvgl\src\misc\lv_color.h **** 
 468:c:\projects\paindrain\arduinolcd\test\pain drain\libraries\lvgl\src\misc\lv_color.h **** LV_ATTRIBUTE_FAST_MEM static inline void lv_color_premult(lv_color_t c, uint8_t mix, uint16_t * out
 469:c:\projects\paindrain\arduinolcd\test\pain drain\libraries\lvgl\src\misc\lv_color.h **** {
 470:c:\projects\paindrain\arduinolcd\test\pain drain\libraries\lvgl\src\misc\lv_color.h **** #if LV_COLOR_DEPTH != 1
 471:c:\projects\paindrain\arduinolcd\test\pain drain\libraries\lvgl\src\misc\lv_color.h ****     out[0] = (uint16_t)LV_COLOR_GET_R(c) * mix;
 472:c:\projects\paindrain\arduinolcd\test\pain drain\libraries\lvgl\src\misc\lv_color.h ****     out[1] = (uint16_t)LV_COLOR_GET_G(c) * mix;
 473:c:\projects\paindrain\arduinolcd\test\pain drain\libraries\lvgl\src\misc\lv_color.h ****     out[2] = (uint16_t)LV_COLOR_GET_B(c) * mix;
 474:c:\projects\paindrain\arduinolcd\test\pain drain\libraries\lvgl\src\misc\lv_color.h **** #else
 475:c:\projects\paindrain\arduinolcd\test\pain drain\libraries\lvgl\src\misc\lv_color.h ****     (void) mix;
 476:c:\projects\paindrain\arduinolcd\test\pain drain\libraries\lvgl\src\misc\lv_color.h ****     /*Pre-multiplication can't be used with 1 bpp*/
 477:c:\projects\paindrain\arduinolcd\test\pain drain\libraries\lvgl\src\misc\lv_color.h ****     out[0] = LV_COLOR_GET_R(c);
 478:c:\projects\paindrain\arduinolcd\test\pain drain\libraries\lvgl\src\misc\lv_color.h ****     out[1] = LV_COLOR_GET_G(c);
 479:c:\projects\paindrain\arduinolcd\test\pain drain\libraries\lvgl\src\misc\lv_color.h ****     out[2] = LV_COLOR_GET_B(c);
 480:c:\projects\paindrain\arduinolcd\test\pain drain\libraries\lvgl\src\misc\lv_color.h **** #endif
 481:c:\projects\paindrain\arduinolcd\test\pain drain\libraries\lvgl\src\misc\lv_color.h **** 
 482:c:\projects\paindrain\arduinolcd\test\pain drain\libraries\lvgl\src\misc\lv_color.h **** }
 483:c:\projects\paindrain\arduinolcd\test\pain drain\libraries\lvgl\src\misc\lv_color.h **** 
 484:c:\projects\paindrain\arduinolcd\test\pain drain\libraries\lvgl\src\misc\lv_color.h **** /**
 485:c:\projects\paindrain\arduinolcd\test\pain drain\libraries\lvgl\src\misc\lv_color.h ****  * Mix two colors with a given ratio. It runs faster then `lv_color_mix` but requires some pre comp
 486:c:\projects\paindrain\arduinolcd\test\pain drain\libraries\lvgl\src\misc\lv_color.h ****  * @param premult_c1 The first color. Should be preprocessed with `lv_color_premult(c1)`
 487:c:\projects\paindrain\arduinolcd\test\pain drain\libraries\lvgl\src\misc\lv_color.h ****  * @param c2 The second color. As it is no pre computation required on it
 488:c:\projects\paindrain\arduinolcd\test\pain drain\libraries\lvgl\src\misc\lv_color.h ****  * @param mix The ratio of the colors. 0: full `c1`, 255: full `c2`, 127: half `c1` and half `c2`.
 489:c:\projects\paindrain\arduinolcd\test\pain drain\libraries\lvgl\src\misc\lv_color.h ****  *            Should be modified like mix = `255 - mix`
 490:c:\projects\paindrain\arduinolcd\test\pain drain\libraries\lvgl\src\misc\lv_color.h ****  * @return the mixed color
 491:c:\projects\paindrain\arduinolcd\test\pain drain\libraries\lvgl\src\misc\lv_color.h ****  * @note 255 won't give clearly `c1`.
 492:c:\projects\paindrain\arduinolcd\test\pain drain\libraries\lvgl\src\misc\lv_color.h ****  */
 493:c:\projects\paindrain\arduinolcd\test\pain drain\libraries\lvgl\src\misc\lv_color.h **** LV_ATTRIBUTE_FAST_MEM static inline lv_color_t lv_color_mix_premult(uint16_t * premult_c1, lv_color
 494:c:\projects\paindrain\arduinolcd\test\pain drain\libraries\lvgl\src\misc\lv_color.h **** {
 495:c:\projects\paindrain\arduinolcd\test\pain drain\libraries\lvgl\src\misc\lv_color.h ****     lv_color_t ret;
 496:c:\projects\paindrain\arduinolcd\test\pain drain\libraries\lvgl\src\misc\lv_color.h **** #if LV_COLOR_DEPTH != 1
 497:c:\projects\paindrain\arduinolcd\test\pain drain\libraries\lvgl\src\misc\lv_color.h ****     /*LV_COLOR_DEPTH == 8 or 32*/
 498:c:\projects\paindrain\arduinolcd\test\pain drain\libraries\lvgl\src\misc\lv_color.h ****     LV_COLOR_SET_R(ret, LV_UDIV255(premult_c1[0] + LV_COLOR_GET_R(c2) * mix + LV_COLOR_MIX_ROUND_OF
 499:c:\projects\paindrain\arduinolcd\test\pain drain\libraries\lvgl\src\misc\lv_color.h ****     LV_COLOR_SET_G(ret, LV_UDIV255(premult_c1[1] + LV_COLOR_GET_G(c2) * mix + LV_COLOR_MIX_ROUND_OF
 500:c:\projects\paindrain\arduinolcd\test\pain drain\libraries\lvgl\src\misc\lv_color.h ****     LV_COLOR_SET_B(ret, LV_UDIV255(premult_c1[2] + LV_COLOR_GET_B(c2) * mix + LV_COLOR_MIX_ROUND_OF
 501:c:\projects\paindrain\arduinolcd\test\pain drain\libraries\lvgl\src\misc\lv_color.h ****     LV_COLOR_SET_A(ret, 0xFF);
 502:c:\projects\paindrain\arduinolcd\test\pain drain\libraries\lvgl\src\misc\lv_color.h **** #else
 503:c:\projects\paindrain\arduinolcd\test\pain drain\libraries\lvgl\src\misc\lv_color.h ****     /*LV_COLOR_DEPTH == 1*/
 504:c:\projects\paindrain\arduinolcd\test\pain drain\libraries\lvgl\src\misc\lv_color.h ****     /*Restore color1*/
 505:c:\projects\paindrain\arduinolcd\test\pain drain\libraries\lvgl\src\misc\lv_color.h ****     lv_color_t c1;
 506:c:\projects\paindrain\arduinolcd\test\pain drain\libraries\lvgl\src\misc\lv_color.h ****     LV_COLOR_SET_R(c1, premult_c1[0]);
 507:c:\projects\paindrain\arduinolcd\test\pain drain\libraries\lvgl\src\misc\lv_color.h ****     LV_COLOR_SET_G(c1, premult_c1[1]);
 508:c:\projects\paindrain\arduinolcd\test\pain drain\libraries\lvgl\src\misc\lv_color.h ****     LV_COLOR_SET_B(c1, premult_c1[2]);
 509:c:\projects\paindrain\arduinolcd\test\pain drain\libraries\lvgl\src\misc\lv_color.h ****     ret.full = mix > LV_OPA_50 ? c2.full : c1.full;
 510:c:\projects\paindrain\arduinolcd\test\pain drain\libraries\lvgl\src\misc\lv_color.h **** #endif
 511:c:\projects\paindrain\arduinolcd\test\pain drain\libraries\lvgl\src\misc\lv_color.h **** 
 512:c:\projects\paindrain\arduinolcd\test\pain drain\libraries\lvgl\src\misc\lv_color.h ****     return ret;
 513:c:\projects\paindrain\arduinolcd\test\pain drain\libraries\lvgl\src\misc\lv_color.h **** }
 514:c:\projects\paindrain\arduinolcd\test\pain drain\libraries\lvgl\src\misc\lv_color.h **** 
 515:c:\projects\paindrain\arduinolcd\test\pain drain\libraries\lvgl\src\misc\lv_color.h **** /**
 516:c:\projects\paindrain\arduinolcd\test\pain drain\libraries\lvgl\src\misc\lv_color.h ****  * Mix two colors. Both color can have alpha value.
 517:c:\projects\paindrain\arduinolcd\test\pain drain\libraries\lvgl\src\misc\lv_color.h ****  * @param bg_color background color
 518:c:\projects\paindrain\arduinolcd\test\pain drain\libraries\lvgl\src\misc\lv_color.h ****  * @param bg_opa alpha of the background color
 519:c:\projects\paindrain\arduinolcd\test\pain drain\libraries\lvgl\src\misc\lv_color.h ****  * @param fg_color foreground color
 520:c:\projects\paindrain\arduinolcd\test\pain drain\libraries\lvgl\src\misc\lv_color.h ****  * @param fg_opa alpha of the foreground color
 521:c:\projects\paindrain\arduinolcd\test\pain drain\libraries\lvgl\src\misc\lv_color.h ****  * @param res_color the result color
ARM GAS  C:\Users\haske\AppData\Local\Temp\ccxUXv8a.s 			page 63


 522:c:\projects\paindrain\arduinolcd\test\pain drain\libraries\lvgl\src\misc\lv_color.h ****  * @param res_opa the result opacity
 523:c:\projects\paindrain\arduinolcd\test\pain drain\libraries\lvgl\src\misc\lv_color.h ****  */
 524:c:\projects\paindrain\arduinolcd\test\pain drain\libraries\lvgl\src\misc\lv_color.h **** LV_ATTRIBUTE_FAST_MEM static inline void lv_color_mix_with_alpha(lv_color_t bg_color, lv_opa_t bg_o
 525:c:\projects\paindrain\arduinolcd\test\pain drain\libraries\lvgl\src\misc\lv_color.h ****                                                                  lv_color_t fg_color, lv_opa_t fg_o
 526:c:\projects\paindrain\arduinolcd\test\pain drain\libraries\lvgl\src\misc\lv_color.h ****                                                                  lv_color_t * res_color, lv_opa_t *
 527:c:\projects\paindrain\arduinolcd\test\pain drain\libraries\lvgl\src\misc\lv_color.h **** {
 528:c:\projects\paindrain\arduinolcd\test\pain drain\libraries\lvgl\src\misc\lv_color.h ****     /*Pick the foreground if it's fully opaque or the Background is fully transparent*/
 529:c:\projects\paindrain\arduinolcd\test\pain drain\libraries\lvgl\src\misc\lv_color.h ****     if(fg_opa >= LV_OPA_MAX || bg_opa <= LV_OPA_MIN) {
 530:c:\projects\paindrain\arduinolcd\test\pain drain\libraries\lvgl\src\misc\lv_color.h ****         res_color->full = fg_color.full;
 531:c:\projects\paindrain\arduinolcd\test\pain drain\libraries\lvgl\src\misc\lv_color.h ****         *res_opa = fg_opa;
 532:c:\projects\paindrain\arduinolcd\test\pain drain\libraries\lvgl\src\misc\lv_color.h ****     }
 533:c:\projects\paindrain\arduinolcd\test\pain drain\libraries\lvgl\src\misc\lv_color.h ****     /*Transparent foreground: use the Background*/
 534:c:\projects\paindrain\arduinolcd\test\pain drain\libraries\lvgl\src\misc\lv_color.h ****     else if(fg_opa <= LV_OPA_MIN) {
 535:c:\projects\paindrain\arduinolcd\test\pain drain\libraries\lvgl\src\misc\lv_color.h ****         res_color->full = bg_color.full;
 536:c:\projects\paindrain\arduinolcd\test\pain drain\libraries\lvgl\src\misc\lv_color.h ****         *res_opa = bg_opa;
 537:c:\projects\paindrain\arduinolcd\test\pain drain\libraries\lvgl\src\misc\lv_color.h ****     }
 538:c:\projects\paindrain\arduinolcd\test\pain drain\libraries\lvgl\src\misc\lv_color.h ****     /*Opaque background: use simple mix*/
 539:c:\projects\paindrain\arduinolcd\test\pain drain\libraries\lvgl\src\misc\lv_color.h ****     else if(bg_opa >= LV_OPA_MAX) {
 540:c:\projects\paindrain\arduinolcd\test\pain drain\libraries\lvgl\src\misc\lv_color.h ****         *res_color = lv_color_mix(fg_color, bg_color, fg_opa);
 541:c:\projects\paindrain\arduinolcd\test\pain drain\libraries\lvgl\src\misc\lv_color.h ****         *res_opa = LV_OPA_COVER;
 542:c:\projects\paindrain\arduinolcd\test\pain drain\libraries\lvgl\src\misc\lv_color.h ****     }
 543:c:\projects\paindrain\arduinolcd\test\pain drain\libraries\lvgl\src\misc\lv_color.h ****     /*Both colors have alpha. Expensive calculation need to be applied*/
 544:c:\projects\paindrain\arduinolcd\test\pain drain\libraries\lvgl\src\misc\lv_color.h ****     else {
 545:c:\projects\paindrain\arduinolcd\test\pain drain\libraries\lvgl\src\misc\lv_color.h ****         /*Save the parameters and the result. If they will be asked again don't compute again*/
 546:c:\projects\paindrain\arduinolcd\test\pain drain\libraries\lvgl\src\misc\lv_color.h ****         static lv_opa_t fg_opa_save     = 0;
 547:c:\projects\paindrain\arduinolcd\test\pain drain\libraries\lvgl\src\misc\lv_color.h ****         static lv_opa_t bg_opa_save     = 0;
 548:c:\projects\paindrain\arduinolcd\test\pain drain\libraries\lvgl\src\misc\lv_color.h ****         static lv_color_t fg_color_save = _LV_COLOR_ZERO_INITIALIZER;
 549:c:\projects\paindrain\arduinolcd\test\pain drain\libraries\lvgl\src\misc\lv_color.h ****         static lv_color_t bg_color_save = _LV_COLOR_ZERO_INITIALIZER;
 550:c:\projects\paindrain\arduinolcd\test\pain drain\libraries\lvgl\src\misc\lv_color.h ****         static lv_color_t res_color_saved = _LV_COLOR_ZERO_INITIALIZER;
 551:c:\projects\paindrain\arduinolcd\test\pain drain\libraries\lvgl\src\misc\lv_color.h ****         static lv_opa_t res_opa_saved = 0;
 552:c:\projects\paindrain\arduinolcd\test\pain drain\libraries\lvgl\src\misc\lv_color.h **** 
 553:c:\projects\paindrain\arduinolcd\test\pain drain\libraries\lvgl\src\misc\lv_color.h ****         if(fg_opa != fg_opa_save || bg_opa != bg_opa_save || fg_color.full != fg_color_save.full ||
 554:c:\projects\paindrain\arduinolcd\test\pain drain\libraries\lvgl\src\misc\lv_color.h ****            bg_color.full != bg_color_save.full) {
 555:c:\projects\paindrain\arduinolcd\test\pain drain\libraries\lvgl\src\misc\lv_color.h ****             fg_opa_save        = fg_opa;
 556:c:\projects\paindrain\arduinolcd\test\pain drain\libraries\lvgl\src\misc\lv_color.h ****             bg_opa_save        = bg_opa;
 557:c:\projects\paindrain\arduinolcd\test\pain drain\libraries\lvgl\src\misc\lv_color.h ****             fg_color_save.full = fg_color.full;
 558:c:\projects\paindrain\arduinolcd\test\pain drain\libraries\lvgl\src\misc\lv_color.h ****             bg_color_save.full = bg_color.full;
 559:c:\projects\paindrain\arduinolcd\test\pain drain\libraries\lvgl\src\misc\lv_color.h ****             /*Info:
 560:c:\projects\paindrain\arduinolcd\test\pain drain\libraries\lvgl\src\misc\lv_color.h ****              * https://en.wikipedia.org/wiki/Alpha_compositing#Analytical_derivation_of_the_over_op
 561:c:\projects\paindrain\arduinolcd\test\pain drain\libraries\lvgl\src\misc\lv_color.h ****             res_opa_saved = 255 - ((uint16_t)((uint16_t)(255 - fg_opa) * (255 - bg_opa)) >> 8);
 562:c:\projects\paindrain\arduinolcd\test\pain drain\libraries\lvgl\src\misc\lv_color.h ****             LV_ASSERT(res_opa_saved != 0);
 563:c:\projects\paindrain\arduinolcd\test\pain drain\libraries\lvgl\src\misc\lv_color.h ****             lv_opa_t ratio = (uint16_t)((uint16_t)fg_opa * 255) / res_opa_saved;
 564:c:\projects\paindrain\arduinolcd\test\pain drain\libraries\lvgl\src\misc\lv_color.h ****             res_color_saved = lv_color_mix(fg_color, bg_color, ratio);
 565:c:\projects\paindrain\arduinolcd\test\pain drain\libraries\lvgl\src\misc\lv_color.h **** 
 566:c:\projects\paindrain\arduinolcd\test\pain drain\libraries\lvgl\src\misc\lv_color.h ****         }
 567:c:\projects\paindrain\arduinolcd\test\pain drain\libraries\lvgl\src\misc\lv_color.h **** 
 568:c:\projects\paindrain\arduinolcd\test\pain drain\libraries\lvgl\src\misc\lv_color.h ****         res_color->full = res_color_saved.full;
 569:c:\projects\paindrain\arduinolcd\test\pain drain\libraries\lvgl\src\misc\lv_color.h ****         *res_opa = res_opa_saved;
 570:c:\projects\paindrain\arduinolcd\test\pain drain\libraries\lvgl\src\misc\lv_color.h ****     }
 571:c:\projects\paindrain\arduinolcd\test\pain drain\libraries\lvgl\src\misc\lv_color.h **** }
 572:c:\projects\paindrain\arduinolcd\test\pain drain\libraries\lvgl\src\misc\lv_color.h **** 
 573:c:\projects\paindrain\arduinolcd\test\pain drain\libraries\lvgl\src\misc\lv_color.h **** //! @endcond
 574:c:\projects\paindrain\arduinolcd\test\pain drain\libraries\lvgl\src\misc\lv_color.h **** 
 575:c:\projects\paindrain\arduinolcd\test\pain drain\libraries\lvgl\src\misc\lv_color.h **** /**
 576:c:\projects\paindrain\arduinolcd\test\pain drain\libraries\lvgl\src\misc\lv_color.h ****  * Get the brightness of a color
 577:c:\projects\paindrain\arduinolcd\test\pain drain\libraries\lvgl\src\misc\lv_color.h ****  * @param color a color
 578:c:\projects\paindrain\arduinolcd\test\pain drain\libraries\lvgl\src\misc\lv_color.h ****  * @return the brightness [0..255]
ARM GAS  C:\Users\haske\AppData\Local\Temp\ccxUXv8a.s 			page 64


 579:c:\projects\paindrain\arduinolcd\test\pain drain\libraries\lvgl\src\misc\lv_color.h ****  */
 580:c:\projects\paindrain\arduinolcd\test\pain drain\libraries\lvgl\src\misc\lv_color.h **** static inline uint8_t lv_color_brightness(lv_color_t color)
 581:c:\projects\paindrain\arduinolcd\test\pain drain\libraries\lvgl\src\misc\lv_color.h **** {
 582:c:\projects\paindrain\arduinolcd\test\pain drain\libraries\lvgl\src\misc\lv_color.h ****     lv_color32_t c32;
 583:c:\projects\paindrain\arduinolcd\test\pain drain\libraries\lvgl\src\misc\lv_color.h ****     c32.full        = lv_color_to32(color);
 584:c:\projects\paindrain\arduinolcd\test\pain drain\libraries\lvgl\src\misc\lv_color.h ****     uint16_t bright = (uint16_t)(3u * LV_COLOR_GET_R32(c32) + LV_COLOR_GET_B32(c32) + 4u * LV_COLOR
 585:c:\projects\paindrain\arduinolcd\test\pain drain\libraries\lvgl\src\misc\lv_color.h ****     return (uint8_t)(bright >> 3);
 586:c:\projects\paindrain\arduinolcd\test\pain drain\libraries\lvgl\src\misc\lv_color.h **** }
 587:c:\projects\paindrain\arduinolcd\test\pain drain\libraries\lvgl\src\misc\lv_color.h **** 
 588:c:\projects\paindrain\arduinolcd\test\pain drain\libraries\lvgl\src\misc\lv_color.h **** static inline lv_color_t lv_color_make(uint8_t r, uint8_t g, uint8_t b)
 589:c:\projects\paindrain\arduinolcd\test\pain drain\libraries\lvgl\src\misc\lv_color.h **** {
 590:c:\projects\paindrain\arduinolcd\test\pain drain\libraries\lvgl\src\misc\lv_color.h ****     return _LV_COLOR_MAKE_TYPE_HELPER LV_COLOR_MAKE(r, g, b);
 1540              		.loc 4 590 0
 1541 02d6 1F23     		movs	r3, #31
 1542 02d8 049A     		ldr	r2, [sp, #16]
 1543 02da 1A43     		orrs	r2, r3
 1544 02dc 1300     		movs	r3, r2
 1545 02de FC22     		movs	r2, #252
 1546 02e0 D200     		lsls	r2, r2, #3
 1547 02e2 1343     		orrs	r3, r2
 1548 02e4 244A     		ldr	r2, .L70+8
 1549 02e6 1343     		orrs	r3, r2
 1550 02e8 6A46     		mov	r2, sp
 1551 02ea 1382     		strh	r3, [r2, #16]
 1552              	.LVL217:
 1553              	.LBE35:
 1554              	.LBE34:
 1555              	.LBE33:
 336:..\..\..\arduinoLCD\test\Pain Drain\libraries\lvgl\src\widgets/lv_canvas.c ****             if(has_alpha) opa = lv_img_buf_get_px_alpha(&line_img, x_safe, 0);
 1556              		.loc 1 336 0
 1557 02ec 0022     		movs	r2, #0
 1558 02ee 0FA8     		add	r0, sp, #60
 1559 02f0 FFF7FEFF 		bl	lv_img_buf_get_px_color
 1560              	.LVL218:
 1561 02f4 061C     		adds	r6, r0, #0
 337:..\..\..\arduinoLCD\test\Pain Drain\libraries\lvgl\src\widgets/lv_canvas.c **** 
 1562              		.loc 1 337 0
 1563 02f6 4346     		mov	r3, r8
 1564 02f8 002B     		cmp	r3, #0
 1565 02fa 05D0     		beq	.L62
 1566              	.LVL219:
 337:..\..\..\arduinoLCD\test\Pain Drain\libraries\lvgl\src\widgets/lv_canvas.c **** 
 1567              		.loc 1 337 0 is_stmt 0 discriminator 1
 1568 02fc 0022     		movs	r2, #0
 1569 02fe 0799     		ldr	r1, [sp, #28]
 1570 0300 0FA8     		add	r0, sp, #60
 1571 0302 FFF7FEFF 		bl	lv_img_buf_get_px_alpha
 1572              	.LVL220:
 1573 0306 0190     		str	r0, [sp, #4]
 1574              	.LVL221:
 1575              	.L62:
 339:..\..\..\arduinoLCD\test\Pain Drain\libraries\lvgl\src\widgets/lv_canvas.c **** #if LV_COLOR_DEPTH == 16 && LV_COLOR_16_SWAP
 1576              		.loc 1 339 0 is_stmt 1
 1577 0308 3304     		lsls	r3, r6, #16
 1578 030a DB0E     		lsrs	r3, r3, #27
 1579 030c 9A44     		add	r10, r10, r3
 1580              	.LVL222:
ARM GAS  C:\Users\haske\AppData\Local\Temp\ccxUXv8a.s 			page 65


 343:..\..\..\arduinoLCD\test\Pain Drain\libraries\lvgl\src\widgets/lv_canvas.c **** #endif
 1581              		.loc 1 343 0
 1582 030e 7305     		lsls	r3, r6, #21
 1583 0310 9B0E     		lsrs	r3, r3, #26
 1584 0312 1C19     		adds	r4, r3, r4
 1585              	.LVL223:
 345:..\..\..\arduinoLCD\test\Pain Drain\libraries\lvgl\src\widgets/lv_canvas.c ****             if(has_alpha) asum += opa;
 1586              		.loc 1 345 0
 1587 0314 F306     		lsls	r3, r6, #27
 1588 0316 DB0E     		lsrs	r3, r3, #27
 1589 0318 DF19     		adds	r7, r3, r7
 1590              	.LVL224:
 346:..\..\..\arduinoLCD\test\Pain Drain\libraries\lvgl\src\widgets/lv_canvas.c ****         }
 1591              		.loc 1 346 0
 1592 031a 4346     		mov	r3, r8
 1593 031c 002B     		cmp	r3, #0
 1594 031e 02D0     		beq	.L63
 1595              	.LVL225:
 346:..\..\..\arduinoLCD\test\Pain Drain\libraries\lvgl\src\widgets/lv_canvas.c ****         }
 1596              		.loc 1 346 0 is_stmt 0 discriminator 1
 1597 0320 019B     		ldr	r3, [sp, #4]
 1598              	.LVL226:
 1599 0322 9C46     		mov	ip, r3
 1600 0324 E344     		add	fp, fp, ip
 1601              	.LVL227:
 1602              	.L63:
 302:..\..\..\arduinoLCD\test\Pain Drain\libraries\lvgl\src\widgets/lv_canvas.c **** 
 1603              		.loc 1 302 0 is_stmt 1 discriminator 2
 1604 0326 0135     		adds	r5, r5, #1
 1605              	.LVL228:
 1606 0328 2DB2     		sxth	r5, r5
 1607              	.LVL229:
 1608 032a 03E0     		b	.L54
 1609              	.LVL230:
 1610              	.L69:
 1611 032c 079D     		ldr	r5, [sp, #28]
 1612 032e 5B46     		mov	r3, fp
 1613              	.LVL231:
 1614 0330 D346     		mov	fp, r10
 1615              	.LVL232:
 1616 0332 9A46     		mov	r10, r3
 1617              	.LVL233:
 1618              	.L54:
 302:..\..\..\arduinoLCD\test\Pain Drain\libraries\lvgl\src\widgets/lv_canvas.c **** 
 1619              		.loc 1 302 0 is_stmt 0 discriminator 1
 1620 0334 12AB     		add	r3, sp, #72
 1621 0336 0422     		movs	r2, #4
 1622 0338 9B5E     		ldrsh	r3, [r3, r2]
 1623 033a 9D42     		cmp	r5, r3
 1624 033c 00DC     		bgt	.LCB1794
 1625 033e 56E7     		b	.L64	@long jump
 1626              	.LCB1794:
 1627              	.LBE32:
 272:..\..\..\arduinoLCD\test\Pain Drain\libraries\lvgl\src\widgets/lv_canvas.c ****         uint32_t asum = 0;
 1628              		.loc 1 272 0 is_stmt 1 discriminator 2
 1629 0340 089B     		ldr	r3, [sp, #32]
 1630 0342 0133     		adds	r3, r3, #1
ARM GAS  C:\Users\haske\AppData\Local\Temp\ccxUXv8a.s 			page 66


 1631 0344 1BB2     		sxth	r3, r3
 1632 0346 0893     		str	r3, [sp, #32]
 1633              	.LVL234:
 1634              	.L46:
 272:..\..\..\arduinoLCD\test\Pain Drain\libraries\lvgl\src\widgets/lv_canvas.c ****         uint32_t asum = 0;
 1635              		.loc 1 272 0 is_stmt 0 discriminator 1
 1636 0348 12AB     		add	r3, sp, #72
 1637 034a 0622     		movs	r2, #6
 1638 034c 9B5E     		ldrsh	r3, [r3, r2]
 1639 034e 089A     		ldr	r2, [sp, #32]
 1640 0350 9A42     		cmp	r2, r3
 1641 0352 00DC     		bgt	.LCB1823
 1642 0354 E8E6     		b	.L65	@long jump
 1643              	.LCB1823:
 349:..\..\..\arduinoLCD\test\Pain Drain\libraries\lvgl\src\widgets/lv_canvas.c **** 
 1644              		.loc 1 349 0 is_stmt 1
 1645 0356 4846     		mov	r0, r9
 1646 0358 FFF7FEFF 		bl	lv_obj_invalidate
 1647              	.LVL235:
 351:..\..\..\arduinoLCD\test\Pain Drain\libraries\lvgl\src\widgets/lv_canvas.c **** }
 1648              		.loc 1 351 0
 1649 035c 0B98     		ldr	r0, [sp, #44]
 1650 035e FFF7FEFF 		bl	lv_mem_buf_release
 1651              	.LVL236:
 1652              	.L38:
 352:..\..\..\arduinoLCD\test\Pain Drain\libraries\lvgl\src\widgets/lv_canvas.c **** 
 1653              		.loc 1 352 0
 1654 0362 15B0     		add	sp, sp, #84
 1655              		@ sp needed
 1656              	.LVL237:
 1657              	.LVL238:
 1658 0364 3CBC     		pop	{r2, r3, r4, r5}
 1659 0366 9046     		mov	r8, r2
 1660 0368 9946     		mov	r9, r3
 1661 036a A246     		mov	r10, r4
 1662 036c AB46     		mov	fp, r5
 1663 036e F0BD     		pop	{r4, r5, r6, r7, pc}
 1664              	.L71:
 1665              		.align	2
 1666              	.L70:
 1667 0370 FF03E0FF 		.word	-2096129
 1668 0374 1FF8FFFF 		.word	-2017
 1669 0378 00F8FFFF 		.word	-2048
 1670              		.cfi_endproc
 1671              	.LFE169:
 1672              		.size	lv_canvas_blur_hor, .-lv_canvas_blur_hor
 1673              		.section	.text.lv_canvas_blur_ver,"ax",%progbits
 1674              		.align	2
 1675              		.global	lv_canvas_blur_ver
 1676              		.code	16
 1677              		.thumb_func
 1678              		.type	lv_canvas_blur_ver, %function
 1679              	lv_canvas_blur_ver:
 1680              	.LFB170:
 355:..\..\..\arduinoLCD\test\Pain Drain\libraries\lvgl\src\widgets/lv_canvas.c ****     LV_ASSERT_OBJ(obj, MY_CLASS);
 1681              		.loc 1 355 0
 1682              		.cfi_startproc
ARM GAS  C:\Users\haske\AppData\Local\Temp\ccxUXv8a.s 			page 67


 1683              		@ args = 0, pretend = 0, frame = 64
 1684              		@ frame_needed = 0, uses_anonymous_args = 0
 1685              	.LVL239:
 1686 0000 F0B5     		push	{r4, r5, r6, r7, lr}
 1687              		.cfi_def_cfa_offset 20
 1688              		.cfi_offset 4, -20
 1689              		.cfi_offset 5, -16
 1690              		.cfi_offset 6, -12
 1691              		.cfi_offset 7, -8
 1692              		.cfi_offset 14, -4
 1693 0002 5F46     		mov	r7, fp
 1694 0004 5646     		mov	r6, r10
 1695 0006 4D46     		mov	r5, r9
 1696 0008 4446     		mov	r4, r8
 1697 000a F0B4     		push	{r4, r5, r6, r7}
 1698              		.cfi_def_cfa_offset 36
 1699              		.cfi_offset 8, -36
 1700              		.cfi_offset 9, -32
 1701              		.cfi_offset 10, -28
 1702              		.cfi_offset 11, -24
 1703 000c 91B0     		sub	sp, sp, #68
 1704              		.cfi_def_cfa_offset 104
 1705 000e 8346     		mov	fp, r0
 1706 0010 0592     		str	r2, [sp, #20]
 358:..\..\..\arduinoLCD\test\Pain Drain\libraries\lvgl\src\widgets/lv_canvas.c **** 
 1707              		.loc 1 358 0
 1708 0012 002A     		cmp	r2, #0
 1709 0014 00D1     		bne	.LCB1894
 1710 0016 B0E1     		b	.L72	@long jump
 1711              	.LCB1894:
 1712              	.LVL240:
 363:..\..\..\arduinoLCD\test\Pain Drain\libraries\lvgl\src\widgets/lv_canvas.c ****         lv_area_copy(&a, area);
 1713              		.loc 1 363 0
 1714 0018 0029     		cmp	r1, #0
 1715 001a 28D0     		beq	.L74
 1716              	.LVL241:
 1717              	.LBB36:
 1718              	.LBB37:
 112:c:\projects\paindrain\arduinolcd\test\pain drain\libraries\lvgl\src\misc\lv_area.h ****     dest->y1 = src->y1;
 1719              		.loc 3 112 0
 1720 001c 0023     		movs	r3, #0
 1721 001e CD5E     		ldrsh	r5, [r1, r3]
 1722 0020 0EAB     		add	r3, sp, #56
 1723              	.LVL242:
 1724 0022 1D80     		strh	r5, [r3]
 113:c:\projects\paindrain\arduinolcd\test\pain drain\libraries\lvgl\src\misc\lv_area.h ****     dest->x2 = src->x2;
 1725              		.loc 3 113 0
 1726 0024 0222     		movs	r2, #2
 1727 0026 8C5E     		ldrsh	r4, [r1, r2]
 1728              	.LVL243:
 1729 0028 5C80     		strh	r4, [r3, #2]
 114:c:\projects\paindrain\arduinolcd\test\pain drain\libraries\lvgl\src\misc\lv_area.h ****     dest->y2 = src->y2;
 1730              		.loc 3 114 0
 1731 002a 0422     		movs	r2, #4
 1732 002c 885E     		ldrsh	r0, [r1, r2]
 1733              	.LVL244:
 1734 002e 9880     		strh	r0, [r3, #4]
ARM GAS  C:\Users\haske\AppData\Local\Temp\ccxUXv8a.s 			page 68


 1735              		.loc 3 115 0
 1736 0030 0622     		movs	r2, #6
 1737 0032 8A5E     		ldrsh	r2, [r1, r2]
 1738              	.LVL245:
 1739 0034 DA80     		strh	r2, [r3, #6]
 1740              	.LVL246:
 1741              	.LBE37:
 1742              	.LBE36:
 365:..\..\..\arduinoLCD\test\Pain Drain\libraries\lvgl\src\widgets/lv_canvas.c ****         if(a.y1 < 0) a.y1 = 0;
 1743              		.loc 1 365 0
 1744 0036 002D     		cmp	r5, #0
 1745 0038 01DA     		bge	.L75
 365:..\..\..\arduinoLCD\test\Pain Drain\libraries\lvgl\src\widgets/lv_canvas.c ****         if(a.y1 < 0) a.y1 = 0;
 1746              		.loc 1 365 0 is_stmt 0 discriminator 1
 1747 003a 0021     		movs	r1, #0
 1748 003c 1980     		strh	r1, [r3]
 1749              	.L75:
 366:..\..\..\arduinoLCD\test\Pain Drain\libraries\lvgl\src\widgets/lv_canvas.c ****         if(a.x2 > canvas->dsc.header.w - 1) a.x2 = canvas->dsc.header.w - 1;
 1750              		.loc 1 366 0 is_stmt 1
 1751 003e 002C     		cmp	r4, #0
 1752 0040 02DA     		bge	.L76
 366:..\..\..\arduinoLCD\test\Pain Drain\libraries\lvgl\src\widgets/lv_canvas.c ****         if(a.x2 > canvas->dsc.header.w - 1) a.x2 = canvas->dsc.header.w - 1;
 1753              		.loc 1 366 0 is_stmt 0 discriminator 1
 1754 0042 0021     		movs	r1, #0
 1755 0044 0EAB     		add	r3, sp, #56
 1756 0046 5980     		strh	r1, [r3, #2]
 1757              	.L76:
 367:..\..\..\arduinoLCD\test\Pain Drain\libraries\lvgl\src\widgets/lv_canvas.c ****         if(a.y2 > canvas->dsc.header.h - 1) a.y2 = canvas->dsc.header.h - 1;
 1758              		.loc 1 367 0 is_stmt 1
 1759 0048 5B46     		mov	r3, fp
 1760 004a DB6B     		ldr	r3, [r3, #60]
 1761 004c DB02     		lsls	r3, r3, #11
 1762 004e 5B0D     		lsrs	r3, r3, #21
 1763 0050 591E     		subs	r1, r3, #1
 1764 0052 8842     		cmp	r0, r1
 1765 0054 02DD     		ble	.L77
 367:..\..\..\arduinoLCD\test\Pain Drain\libraries\lvgl\src\widgets/lv_canvas.c ****         if(a.y2 > canvas->dsc.header.h - 1) a.y2 = canvas->dsc.header.h - 1;
 1766              		.loc 1 367 0 is_stmt 0 discriminator 1
 1767 0056 0B00     		movs	r3, r1
 1768 0058 0EA9     		add	r1, sp, #56
 1769 005a 8B80     		strh	r3, [r1, #4]
 1770              	.L77:
 368:..\..\..\arduinoLCD\test\Pain Drain\libraries\lvgl\src\widgets/lv_canvas.c ****     }
 1771              		.loc 1 368 0 is_stmt 1
 1772 005c 5B46     		mov	r3, fp
 1773 005e DB8F     		ldrh	r3, [r3, #62]
 1774 0060 5B09     		lsrs	r3, r3, #5
 1775 0062 591E     		subs	r1, r3, #1
 1776 0064 8A42     		cmp	r2, r1
 1777 0066 0FDD     		ble	.L78
 368:..\..\..\arduinoLCD\test\Pain Drain\libraries\lvgl\src\widgets/lv_canvas.c ****     }
 1778              		.loc 1 368 0 is_stmt 0 discriminator 1
 1779 0068 0EAA     		add	r2, sp, #56
 1780 006a D180     		strh	r1, [r2, #6]
 1781 006c 0CE0     		b	.L78
 1782              	.LVL247:
 1783              	.L74:
ARM GAS  C:\Users\haske\AppData\Local\Temp\ccxUXv8a.s 			page 69


 371:..\..\..\arduinoLCD\test\Pain Drain\libraries\lvgl\src\widgets/lv_canvas.c ****         a.y1 = 0;
 1784              		.loc 1 371 0 is_stmt 1
 1785 006e 0EAA     		add	r2, sp, #56
 1786              	.LVL248:
 1787 0070 0023     		movs	r3, #0
 1788 0072 1380     		strh	r3, [r2]
 372:..\..\..\arduinoLCD\test\Pain Drain\libraries\lvgl\src\widgets/lv_canvas.c ****         a.x2 = canvas->dsc.header.w - 1;
 1789              		.loc 1 372 0
 1790 0074 5380     		strh	r3, [r2, #2]
 373:..\..\..\arduinoLCD\test\Pain Drain\libraries\lvgl\src\widgets/lv_canvas.c ****         a.y2 = canvas->dsc.header.h - 1;
 1791              		.loc 1 373 0
 1792 0076 C36B     		ldr	r3, [r0, #60]
 1793 0078 DB02     		lsls	r3, r3, #11
 1794 007a 5B0D     		lsrs	r3, r3, #21
 1795 007c 013B     		subs	r3, r3, #1
 1796 007e 9380     		strh	r3, [r2, #4]
 374:..\..\..\arduinoLCD\test\Pain Drain\libraries\lvgl\src\widgets/lv_canvas.c ****     }
 1797              		.loc 1 374 0
 1798 0080 C38F     		ldrh	r3, [r0, #62]
 1799 0082 5B09     		lsrs	r3, r3, #5
 1800 0084 013B     		subs	r3, r3, #1
 1801 0086 D380     		strh	r3, [r2, #6]
 1802              	.LVL249:
 1803              	.L78:
 1804              	.LBB38:
 1805              	.LBB39:
 1806              		.loc 2 351 0
 1807 0088 4722     		movs	r2, #71
 1808 008a 0021     		movs	r1, #0
 1809 008c 5846     		mov	r0, fp
 1810 008e FFF7FEFF 		bl	lv_obj_get_style_prop
 1811              	.LVL250:
 1812 0092 6B46     		mov	r3, sp
 1813              	.LVL251:
 1814 0094 5881     		strh	r0, [r3, #10]
 1815              	.LVL252:
 1816              	.LBE39:
 1817              	.LBE38:
 379:..\..\..\arduinoLCD\test\Pain Drain\libraries\lvgl\src\widgets/lv_canvas.c ****     uint16_t r_front = r / 2;
 1818              		.loc 1 379 0
 1819 0096 059B     		ldr	r3, [sp, #20]
 1820 0098 5A08     		lsrs	r2, r3, #1
 1821 009a 0392     		str	r2, [sp, #12]
 1822              	.LVL253:
 382:..\..\..\arduinoLCD\test\Pain Drain\libraries\lvgl\src\widgets/lv_canvas.c **** 
 1823              		.loc 1 382 0
 1824 009c DB07     		lsls	r3, r3, #31
 1825 009e 03D4     		bmi	.L103
 382:..\..\..\arduinoLCD\test\Pain Drain\libraries\lvgl\src\widgets/lv_canvas.c **** 
 1826              		.loc 1 382 0 is_stmt 0 discriminator 1
 1827 00a0 531E     		subs	r3, r2, #1
 1828 00a2 9BB2     		uxth	r3, r3
 1829 00a4 0893     		str	r3, [sp, #32]
 1830              	.LVL254:
 1831 00a6 01E0     		b	.L79
 1832              	.LVL255:
 1833              	.L103:
ARM GAS  C:\Users\haske\AppData\Local\Temp\ccxUXv8a.s 			page 70


 379:..\..\..\arduinoLCD\test\Pain Drain\libraries\lvgl\src\widgets/lv_canvas.c ****     uint16_t r_front = r / 2;
 1834              		.loc 1 379 0 is_stmt 1
 1835 00a8 039B     		ldr	r3, [sp, #12]
 1836 00aa 0893     		str	r3, [sp, #32]
 1837              	.LVL256:
 1838              	.L79:
 384:..\..\..\arduinoLCD\test\Pain Drain\libraries\lvgl\src\widgets/lv_canvas.c ****     lv_coord_t col_w = lv_img_buf_get_img_size(1, canvas->dsc.header.h, canvas->dsc.header.cf);
 1839              		.loc 1 384 0
 1840 00ac 3C24     		movs	r4, #60
 1841 00ae 5B46     		mov	r3, fp
 1842 00b0 185D     		ldrb	r0, [r3, r4]
 1843 00b2 C006     		lsls	r0, r0, #27
 1844 00b4 C00E     		lsrs	r0, r0, #27
 1845 00b6 FFF7FEFF 		bl	lv_img_cf_has_alpha
 1846              	.LVL257:
 1847 00ba 0500     		movs	r5, r0
 1848              	.LVL258:
 385:..\..\..\arduinoLCD\test\Pain Drain\libraries\lvgl\src\widgets/lv_canvas.c ****     uint8_t * col_buf = lv_mem_buf_get(col_w);
 1849              		.loc 1 385 0
 1850 00bc 5B46     		mov	r3, fp
 1851 00be D98F     		ldrh	r1, [r3, #62]
 1852 00c0 1A5D     		ldrb	r2, [r3, r4]
 1853 00c2 D206     		lsls	r2, r2, #27
 1854 00c4 D20E     		lsrs	r2, r2, #27
 1855 00c6 4909     		lsrs	r1, r1, #5
 1856 00c8 0120     		movs	r0, #1
 1857              	.LVL259:
 1858 00ca FFF7FEFF 		bl	lv_img_buf_get_img_size
 1859              	.LVL260:
 1860 00ce 00B2     		sxth	r0, r0
 1861              	.LVL261:
 386:..\..\..\arduinoLCD\test\Pain Drain\libraries\lvgl\src\widgets/lv_canvas.c ****     lv_img_dsc_t line_img;
 1862              		.loc 1 386 0
 1863 00d0 FFF7FEFF 		bl	lv_mem_buf_get
 1864              	.LVL262:
 1865 00d4 0990     		str	r0, [sp, #36]
 1866              	.LVL263:
 389:..\..\..\arduinoLCD\test\Pain Drain\libraries\lvgl\src\widgets/lv_canvas.c ****     line_img.header.always_zero = 0;
 1867              		.loc 1 389 0
 1868 00d6 0BAA     		add	r2, sp, #44
 1869 00d8 0D90     		str	r0, [sp, #52]
 390:..\..\..\arduinoLCD\test\Pain Drain\libraries\lvgl\src\widgets/lv_canvas.c ****     line_img.header.w = 1;
 1870              		.loc 1 390 0
 1871 00da 1378     		ldrb	r3, [r2]
 1872 00dc 1F21     		movs	r1, #31
 1873 00de 0B40     		ands	r3, r1
 1874 00e0 1370     		strb	r3, [r2]
 391:..\..\..\arduinoLCD\test\Pain Drain\libraries\lvgl\src\widgets/lv_canvas.c ****     line_img.header.h = canvas->dsc.header.h;
 1875              		.loc 1 391 0
 1876 00e2 A94B     		ldr	r3, .L106
 1877 00e4 0B99     		ldr	r1, [sp, #44]
 1878 00e6 0B40     		ands	r3, r1
 1879 00e8 8021     		movs	r1, #128
 1880 00ea C900     		lsls	r1, r1, #3
 1881 00ec 0B43     		orrs	r3, r1
 1882 00ee 0B93     		str	r3, [sp, #44]
 392:..\..\..\arduinoLCD\test\Pain Drain\libraries\lvgl\src\widgets/lv_canvas.c ****     line_img.header.cf = canvas->dsc.header.cf;
ARM GAS  C:\Users\haske\AppData\Local\Temp\ccxUXv8a.s 			page 71


 1883              		.loc 1 392 0
 1884 00f0 5946     		mov	r1, fp
 1885 00f2 C98F     		ldrh	r1, [r1, #62]
 1886 00f4 4909     		lsrs	r1, r1, #5
 1887 00f6 4901     		lsls	r1, r1, #5
 1888 00f8 5180     		strh	r1, [r2, #2]
 393:..\..\..\arduinoLCD\test\Pain Drain\libraries\lvgl\src\widgets/lv_canvas.c **** 
 1889              		.loc 1 393 0
 1890 00fa 5946     		mov	r1, fp
 1891 00fc 095D     		ldrb	r1, [r1, r4]
 1892 00fe C906     		lsls	r1, r1, #27
 1893 0100 C90E     		lsrs	r1, r1, #27
 1894 0102 DBB2     		uxtb	r3, r3
 1895 0104 1F20     		movs	r0, #31
 1896              	.LVL264:
 1897 0106 8343     		bics	r3, r0
 1898 0108 0B43     		orrs	r3, r1
 1899 010a 1370     		strb	r3, [r2]
 399:..\..\..\arduinoLCD\test\Pain Drain\libraries\lvgl\src\widgets/lv_canvas.c ****         uint32_t asum = 0;
 1900              		.loc 1 399 0
 1901 010c 0EAB     		add	r3, sp, #56
 1902 010e 0022     		movs	r2, #0
 1903 0110 9B5E     		ldrsh	r3, [r3, r2]
 1904 0112 0093     		str	r3, [sp]
 1905              	.LVL265:
 1906 0114 A946     		mov	r9, r5
 1907 0116 23E1     		b	.L80
 1908              	.LVL266:
 1909              	.L101:
 1910              	.LBB40:
 408:..\..\..\arduinoLCD\test\Pain Drain\libraries\lvgl\src\widgets/lv_canvas.c ****             y_safe = y < 0 ? 0 : y;
 1911              		.loc 1 408 0
 1912 0118 0EAB     		add	r3, sp, #56
 1913 011a 0222     		movs	r2, #2
 1914 011c 9B5E     		ldrsh	r3, [r3, r2]
 1915 011e 0493     		str	r3, [sp, #16]
 1916 0120 089A     		ldr	r2, [sp, #32]
 1917 0122 9B1A     		subs	r3, r3, r2
 1918 0124 1BB2     		sxth	r3, r3
 1919 0126 9A46     		mov	r10, r3
 1920              	.LVL267:
 406:..\..\..\arduinoLCD\test\Pain Drain\libraries\lvgl\src\widgets/lv_canvas.c **** 
 1921              		.loc 1 406 0
 1922 0128 FF23     		movs	r3, #255
 1923 012a 0193     		str	r3, [sp, #4]
 403:..\..\..\arduinoLCD\test\Pain Drain\libraries\lvgl\src\widgets/lv_canvas.c **** 
 1924              		.loc 1 403 0
 1925 012c 0026     		movs	r6, #0
 402:..\..\..\arduinoLCD\test\Pain Drain\libraries\lvgl\src\widgets/lv_canvas.c ****         uint32_t bsum = 0;
 1926              		.loc 1 402 0
 1927 012e 0024     		movs	r4, #0
 401:..\..\..\arduinoLCD\test\Pain Drain\libraries\lvgl\src\widgets/lv_canvas.c ****         uint32_t gsum = 0;
 1928              		.loc 1 401 0
 1929 0130 0023     		movs	r3, #0
 1930 0132 9846     		mov	r8, r3
 400:..\..\..\arduinoLCD\test\Pain Drain\libraries\lvgl\src\widgets/lv_canvas.c ****         uint32_t rsum = 0;
 1931              		.loc 1 400 0
ARM GAS  C:\Users\haske\AppData\Local\Temp\ccxUXv8a.s 			page 72


 1932 0134 0793     		str	r3, [sp, #28]
 1933 0136 4B46     		mov	r3, r9
 1934 0138 A146     		mov	r9, r4
 1935              	.LVL268:
 1936 013a 5446     		mov	r4, r10
 1937 013c B246     		mov	r10, r6
 1938              	.LVL269:
 1939 013e 1E00     		movs	r6, r3
 408:..\..\..\arduinoLCD\test\Pain Drain\libraries\lvgl\src\widgets/lv_canvas.c ****             y_safe = y < 0 ? 0 : y;
 1940              		.loc 1 408 0
 1941 0140 3FE0     		b	.L81
 1942              	.LVL270:
 1943              	.L87:
 409:..\..\..\arduinoLCD\test\Pain Drain\libraries\lvgl\src\widgets/lv_canvas.c ****             y_safe = y_safe > canvas->dsc.header.h - 1 ? canvas->dsc.header.h - 1 : y_safe;
 1944              		.loc 1 409 0
 1945 0142 251C     		adds	r5, r4, #0
 1946 0144 002C     		cmp	r4, #0
 1947 0146 00DA     		bge	.L82
 1948 0148 0025     		movs	r5, #0
 1949              	.L82:
 1950              	.LVL271:
 410:..\..\..\arduinoLCD\test\Pain Drain\libraries\lvgl\src\widgets/lv_canvas.c **** 
 1951              		.loc 1 410 0
 1952 014a 5B46     		mov	r3, fp
 1953 014c DB8F     		ldrh	r3, [r3, #62]
 1954 014e 5B09     		lsrs	r3, r3, #5
 1955 0150 013B     		subs	r3, r3, #1
 1956 0152 2DB2     		sxth	r5, r5
 1957 0154 9D42     		cmp	r5, r3
 1958 0156 00DD     		ble	.L83
 1959 0158 1D00     		movs	r5, r3
 1960              	.LVL272:
 1961              	.L83:
 1962 015a 2DB2     		sxth	r5, r5
 1963              	.LVL273:
 412:..\..\..\arduinoLCD\test\Pain Drain\libraries\lvgl\src\widgets/lv_canvas.c ****             if(has_alpha) opa = lv_img_buf_get_px_alpha(&canvas->dsc, x, y_safe);
 1964              		.loc 1 412 0
 1965 015c 3C23     		movs	r3, #60
 1966 015e 5B44     		add	r3, r3, fp
 1967 0160 1800     		movs	r0, r3
 1968 0162 0693     		str	r3, [sp, #24]
 1969 0164 6B46     		mov	r3, sp
 1970 0166 5B89     		ldrh	r3, [r3, #10]
 1971 0168 2A00     		movs	r2, r5
 1972 016a 0099     		ldr	r1, [sp]
 1973 016c FFF7FEFF 		bl	lv_img_buf_get_px_color
 1974              	.LVL274:
 1975 0170 071C     		adds	r7, r0, #0
 1976              	.LVL275:
 413:..\..\..\arduinoLCD\test\Pain Drain\libraries\lvgl\src\widgets/lv_canvas.c **** 
 1977              		.loc 1 413 0
 1978 0172 002E     		cmp	r6, #0
 1979 0174 05D0     		beq	.L84
 413:..\..\..\arduinoLCD\test\Pain Drain\libraries\lvgl\src\widgets/lv_canvas.c **** 
 1980              		.loc 1 413 0 is_stmt 0 discriminator 1
 1981 0176 2A00     		movs	r2, r5
 1982 0178 0099     		ldr	r1, [sp]
ARM GAS  C:\Users\haske\AppData\Local\Temp\ccxUXv8a.s 			page 73


 1983 017a 0698     		ldr	r0, [sp, #24]
 1984 017c FFF7FEFF 		bl	lv_img_buf_get_px_alpha
 1985              	.LVL276:
 1986 0180 0190     		str	r0, [sp, #4]
 1987              	.LVL277:
 1988              	.L84:
 415:..\..\..\arduinoLCD\test\Pain Drain\libraries\lvgl\src\widgets/lv_canvas.c ****             if(has_alpha) lv_img_buf_set_px_alpha(&line_img, 0, y_safe, opa);
 1989              		.loc 1 415 0 is_stmt 1
 1990 0182 3B1C     		adds	r3, r7, #0
 1991 0184 2A00     		movs	r2, r5
 1992 0186 0021     		movs	r1, #0
 1993 0188 0BA8     		add	r0, sp, #44
 1994 018a FFF7FEFF 		bl	lv_img_buf_set_px_color
 1995              	.LVL278:
 416:..\..\..\arduinoLCD\test\Pain Drain\libraries\lvgl\src\widgets/lv_canvas.c **** 
 1996              		.loc 1 416 0
 1997 018e 002E     		cmp	r6, #0
 1998 0190 05D0     		beq	.L85
 416:..\..\..\arduinoLCD\test\Pain Drain\libraries\lvgl\src\widgets/lv_canvas.c **** 
 1999              		.loc 1 416 0 is_stmt 0 discriminator 1
 2000 0192 019B     		ldr	r3, [sp, #4]
 2001 0194 2A00     		movs	r2, r5
 2002 0196 0021     		movs	r1, #0
 2003 0198 0BA8     		add	r0, sp, #44
 2004 019a FFF7FEFF 		bl	lv_img_buf_set_px_alpha
 2005              	.LVL279:
 2006              	.L85:
 418:..\..\..\arduinoLCD\test\Pain Drain\libraries\lvgl\src\widgets/lv_canvas.c **** #if LV_COLOR_DEPTH == 16 && LV_COLOR_16_SWAP
 2007              		.loc 1 418 0 is_stmt 1
 2008 019e 3B04     		lsls	r3, r7, #16
 2009 01a0 DB0E     		lsrs	r3, r3, #27
 2010 01a2 9844     		add	r8, r8, r3
 2011              	.LVL280:
 422:..\..\..\arduinoLCD\test\Pain Drain\libraries\lvgl\src\widgets/lv_canvas.c **** #endif
 2012              		.loc 1 422 0
 2013 01a4 7B05     		lsls	r3, r7, #21
 2014 01a6 9B0E     		lsrs	r3, r3, #26
 2015 01a8 9944     		add	r9, r9, r3
 2016              	.LVL281:
 424:..\..\..\arduinoLCD\test\Pain Drain\libraries\lvgl\src\widgets/lv_canvas.c ****             if(has_alpha) asum += opa;
 2017              		.loc 1 424 0
 2018 01aa FB06     		lsls	r3, r7, #27
 2019 01ac DB0E     		lsrs	r3, r3, #27
 2020 01ae 9A44     		add	r10, r10, r3
 2021              	.LVL282:
 425:..\..\..\arduinoLCD\test\Pain Drain\libraries\lvgl\src\widgets/lv_canvas.c ****         }
 2022              		.loc 1 425 0
 2023 01b0 002E     		cmp	r6, #0
 2024 01b2 04D0     		beq	.L86
 425:..\..\..\arduinoLCD\test\Pain Drain\libraries\lvgl\src\widgets/lv_canvas.c ****         }
 2025              		.loc 1 425 0 is_stmt 0 discriminator 1
 2026 01b4 079B     		ldr	r3, [sp, #28]
 2027 01b6 019A     		ldr	r2, [sp, #4]
 2028 01b8 9446     		mov	ip, r2
 2029 01ba 6344     		add	r3, r3, ip
 2030 01bc 0793     		str	r3, [sp, #28]
 2031              	.LVL283:
ARM GAS  C:\Users\haske\AppData\Local\Temp\ccxUXv8a.s 			page 74


 2032              	.L86:
 408:..\..\..\arduinoLCD\test\Pain Drain\libraries\lvgl\src\widgets/lv_canvas.c ****             y_safe = y < 0 ? 0 : y;
 2033              		.loc 1 408 0 is_stmt 1 discriminator 2
 2034 01be 0134     		adds	r4, r4, #1
 2035              	.LVL284:
 2036 01c0 24B2     		sxth	r4, r4
 2037              	.LVL285:
 2038              	.L81:
 408:..\..\..\arduinoLCD\test\Pain Drain\libraries\lvgl\src\widgets/lv_canvas.c ****             y_safe = y < 0 ? 0 : y;
 2039              		.loc 1 408 0 is_stmt 0 discriminator 1
 2040 01c2 049B     		ldr	r3, [sp, #16]
 2041 01c4 039A     		ldr	r2, [sp, #12]
 2042 01c6 9446     		mov	ip, r2
 2043 01c8 6344     		add	r3, r3, ip
 2044 01ca 9C42     		cmp	r4, r3
 2045 01cc B9DD     		ble	.L87
 2046 01ce 4C46     		mov	r4, r9
 2047              	.LVL286:
 2048 01d0 B146     		mov	r9, r6
 2049              	.LVL287:
 429:..\..\..\arduinoLCD\test\Pain Drain\libraries\lvgl\src\widgets/lv_canvas.c **** 
 2050              		.loc 1 429 0 is_stmt 1
 2051 01d2 4B46     		mov	r3, r9
 2052 01d4 002B     		cmp	r3, #0
 2053 01d6 00D0     		beq	.LCB2293
 2054 01d8 B0E0     		b	.L105	@long jump
 2055              	.LCB2293:
 2056              	.LVL288:
 2057 01da FF33     		adds	r3, r3, #255
 2058              	.LVL289:
 2059 01dc 4546     		mov	r5, r8
 2060 01de D046     		mov	r8, r10
 2061              	.LVL290:
 2062 01e0 2600     		movs	r6, r4
 2063              	.LVL291:
 2064 01e2 049C     		ldr	r4, [sp, #16]
 2065              	.LVL292:
 2066 01e4 DA46     		mov	r10, fp
 2067              	.LVL293:
 2068 01e6 9B46     		mov	fp, r3
 2069              	.LVL294:
 2070 01e8 AFE0     		b	.L89
 2071              	.LVL295:
 2072              	.L100:
 432:..\..\..\arduinoLCD\test\Pain Drain\libraries\lvgl\src\widgets/lv_canvas.c ****                 c.ch.red = rsum / r;
 2073              		.loc 1 432 0
 2074 01ea 5B46     		mov	r3, fp
 2075 01ec 002B     		cmp	r3, #0
 2076 01ee 2AD0     		beq	.L90
 2077              	.LVL296:
 433:..\..\..\arduinoLCD\test\Pain Drain\libraries\lvgl\src\widgets/lv_canvas.c **** #if LV_COLOR_DEPTH == 16 && LV_COLOR_16_SWAP
 2078              		.loc 1 433 0
 2079 01f0 0599     		ldr	r1, [sp, #20]
 2080 01f2 2800     		movs	r0, r5
 2081 01f4 FFF7FEFF 		bl	__aeabi_uidiv
 2082              	.LVL297:
 2083 01f8 C0B2     		uxtb	r0, r0
ARM GAS  C:\Users\haske\AppData\Local\Temp\ccxUXv8a.s 			page 75


 2084 01fa C002     		lsls	r0, r0, #11
 2085 01fc 7F05     		lsls	r7, r7, #21
 2086              	.LVL298:
 2087 01fe 7F0D     		lsrs	r7, r7, #21
 2088 0200 0743     		orrs	r7, r0
 439:..\..\..\arduinoLCD\test\Pain Drain\libraries\lvgl\src\widgets/lv_canvas.c **** #endif
 2089              		.loc 1 439 0
 2090 0202 0599     		ldr	r1, [sp, #20]
 2091 0204 3000     		movs	r0, r6
 2092 0206 FFF7FEFF 		bl	__aeabi_uidiv
 2093              	.LVL299:
 2094 020a 3F23     		movs	r3, #63
 2095 020c 1840     		ands	r0, r3
 2096 020e 4001     		lsls	r0, r0, #5
 2097 0210 5E4B     		ldr	r3, .L106+4
 2098 0212 1F40     		ands	r7, r3
 2099 0214 0743     		orrs	r7, r0
 441:..\..\..\arduinoLCD\test\Pain Drain\libraries\lvgl\src\widgets/lv_canvas.c ****                 if(has_alpha) opa = asum / r;
 2100              		.loc 1 441 0
 2101 0216 0599     		ldr	r1, [sp, #20]
 2102 0218 4046     		mov	r0, r8
 2103 021a FFF7FEFF 		bl	__aeabi_uidiv
 2104              	.LVL300:
 2105 021e 1F23     		movs	r3, #31
 2106 0220 1840     		ands	r0, r3
 2107 0222 9F43     		bics	r7, r3
 2108 0224 0743     		orrs	r7, r0
 442:..\..\..\arduinoLCD\test\Pain Drain\libraries\lvgl\src\widgets/lv_canvas.c **** 
 2109              		.loc 1 442 0
 2110 0226 4B46     		mov	r3, r9
 2111 0228 002B     		cmp	r3, #0
 2112 022a 05D0     		beq	.L91
 2113              	.LVL301:
 442:..\..\..\arduinoLCD\test\Pain Drain\libraries\lvgl\src\widgets/lv_canvas.c **** 
 2114              		.loc 1 442 0 is_stmt 0 discriminator 1
 2115 022c 0599     		ldr	r1, [sp, #20]
 2116 022e 5846     		mov	r0, fp
 2117 0230 FFF7FEFF 		bl	__aeabi_uidiv
 2118              	.LVL302:
 2119 0234 C3B2     		uxtb	r3, r0
 2120 0236 0193     		str	r3, [sp, #4]
 2121              	.LVL303:
 2122              	.L91:
 444:..\..\..\arduinoLCD\test\Pain Drain\libraries\lvgl\src\widgets/lv_canvas.c ****             }
 2123              		.loc 1 444 0 is_stmt 1
 2124 0238 5046     		mov	r0, r10
 2125 023a 3C30     		adds	r0, r0, #60
 2126 023c 3B1C     		adds	r3, r7, #0
 2127 023e 2200     		movs	r2, r4
 2128 0240 0099     		ldr	r1, [sp]
 2129 0242 FFF7FEFF 		bl	lv_img_buf_set_px_color
 2130              	.LVL304:
 2131              	.L90:
 446:..\..\..\arduinoLCD\test\Pain Drain\libraries\lvgl\src\widgets/lv_canvas.c **** 
 2132              		.loc 1 446 0
 2133 0246 4B46     		mov	r3, r9
 2134 0248 002B     		cmp	r3, #0
ARM GAS  C:\Users\haske\AppData\Local\Temp\ccxUXv8a.s 			page 76


 2135 024a 06D0     		beq	.L92
 2136              	.LVL305:
 446:..\..\..\arduinoLCD\test\Pain Drain\libraries\lvgl\src\widgets/lv_canvas.c **** 
 2137              		.loc 1 446 0 is_stmt 0 discriminator 1
 2138 024c 5046     		mov	r0, r10
 2139 024e 3C30     		adds	r0, r0, #60
 2140 0250 019B     		ldr	r3, [sp, #4]
 2141              	.LVL306:
 2142 0252 2200     		movs	r2, r4
 2143 0254 0099     		ldr	r1, [sp]
 2144 0256 FFF7FEFF 		bl	lv_img_buf_set_px_alpha
 2145              	.LVL307:
 2146              	.L92:
 448:..\..\..\arduinoLCD\test\Pain Drain\libraries\lvgl\src\widgets/lv_canvas.c ****             y_safe = y_safe < 0 ? 0 : y_safe;
 2147              		.loc 1 448 0 is_stmt 1
 2148 025a A4B2     		uxth	r4, r4
 2149 025c 089B     		ldr	r3, [sp, #32]
 2150 025e E31A     		subs	r3, r4, r3
 2151 0260 1BB2     		sxth	r3, r3
 2152              	.LVL308:
 449:..\..\..\arduinoLCD\test\Pain Drain\libraries\lvgl\src\widgets/lv_canvas.c ****             c = lv_img_buf_get_px_color(&line_img, 0, y_safe, color);
 2153              		.loc 1 449 0
 2154 0262 1A1C     		adds	r2, r3, #0
 2155 0264 002B     		cmp	r3, #0
 2156 0266 00DA     		bge	.L93
 2157 0268 0022     		movs	r2, #0
 2158              	.L93:
 2159 026a 13B2     		sxth	r3, r2
 2160              	.LVL309:
 2161 026c 1A00     		movs	r2, r3
 2162 026e 0493     		str	r3, [sp, #16]
 2163              	.LVL310:
 450:..\..\..\arduinoLCD\test\Pain Drain\libraries\lvgl\src\widgets/lv_canvas.c ****             if(has_alpha) opa = lv_img_buf_get_px_alpha(&line_img, 0, y_safe);
 2164              		.loc 1 450 0
 2165 0270 6B46     		mov	r3, sp
 2166 0272 5B89     		ldrh	r3, [r3, #10]
 2167 0274 0021     		movs	r1, #0
 2168 0276 0BA8     		add	r0, sp, #44
 2169 0278 FFF7FEFF 		bl	lv_img_buf_get_px_color
 2170              	.LVL311:
 2171 027c 071C     		adds	r7, r0, #0
 2172              	.LVL312:
 451:..\..\..\arduinoLCD\test\Pain Drain\libraries\lvgl\src\widgets/lv_canvas.c **** 
 2173              		.loc 1 451 0
 2174 027e 4B46     		mov	r3, r9
 2175 0280 002B     		cmp	r3, #0
 2176 0282 05D0     		beq	.L94
 2177              	.LVL313:
 451:..\..\..\arduinoLCD\test\Pain Drain\libraries\lvgl\src\widgets/lv_canvas.c **** 
 2178              		.loc 1 451 0 is_stmt 0 discriminator 1
 2179 0284 049A     		ldr	r2, [sp, #16]
 2180 0286 0021     		movs	r1, #0
 2181 0288 0BA8     		add	r0, sp, #44
 2182 028a FFF7FEFF 		bl	lv_img_buf_get_px_alpha
 2183              	.LVL314:
 2184 028e 0190     		str	r0, [sp, #4]
 2185              	.LVL315:
ARM GAS  C:\Users\haske\AppData\Local\Temp\ccxUXv8a.s 			page 77


 2186              	.L94:
 453:..\..\..\arduinoLCD\test\Pain Drain\libraries\lvgl\src\widgets/lv_canvas.c **** #if LV_COLOR_DEPTH == 16 && LV_COLOR_16_SWAP
 2187              		.loc 1 453 0 is_stmt 1
 2188 0290 3B04     		lsls	r3, r7, #16
 2189 0292 DB0E     		lsrs	r3, r3, #27
 2190 0294 EB1A     		subs	r3, r5, r3
 2191 0296 0493     		str	r3, [sp, #16]
 2192              	.LVL316:
 457:..\..\..\arduinoLCD\test\Pain Drain\libraries\lvgl\src\widgets/lv_canvas.c **** #endif
 2193              		.loc 1 457 0
 2194 0298 7B05     		lsls	r3, r7, #21
 2195              	.LVL317:
 2196 029a 9B0E     		lsrs	r3, r3, #26
 2197 029c F61A     		subs	r6, r6, r3
 2198              	.LVL318:
 459:..\..\..\arduinoLCD\test\Pain Drain\libraries\lvgl\src\widgets/lv_canvas.c ****             if(has_alpha) asum -= opa;
 2199              		.loc 1 459 0
 2200 029e FF06     		lsls	r7, r7, #27
 2201              	.LVL319:
 2202 02a0 FF0E     		lsrs	r7, r7, #27
 2203 02a2 4346     		mov	r3, r8
 2204 02a4 DB1B     		subs	r3, r3, r7
 2205 02a6 9846     		mov	r8, r3
 2206              	.LVL320:
 460:..\..\..\arduinoLCD\test\Pain Drain\libraries\lvgl\src\widgets/lv_canvas.c **** 
 2207              		.loc 1 460 0
 2208 02a8 4B46     		mov	r3, r9
 2209              	.LVL321:
 2210 02aa 002B     		cmp	r3, #0
 2211 02ac 03D0     		beq	.L95
 2212              	.LVL322:
 460:..\..\..\arduinoLCD\test\Pain Drain\libraries\lvgl\src\widgets/lv_canvas.c **** 
 2213              		.loc 1 460 0 is_stmt 0 discriminator 1
 2214 02ae 5B46     		mov	r3, fp
 2215              	.LVL323:
 2216 02b0 019A     		ldr	r2, [sp, #4]
 2217 02b2 9B1A     		subs	r3, r3, r2
 2218 02b4 9B46     		mov	fp, r3
 2219              	.LVL324:
 2220              	.L95:
 462:..\..\..\arduinoLCD\test\Pain Drain\libraries\lvgl\src\widgets/lv_canvas.c ****             y_safe = y_safe > canvas->dsc.header.h - 1 ? canvas->dsc.header.h - 1 : y_safe;
 2221              		.loc 1 462 0 is_stmt 1
 2222 02b6 039B     		ldr	r3, [sp, #12]
 2223 02b8 1D19     		adds	r5, r3, r4
 2224 02ba 0135     		adds	r5, r5, #1
 2225              	.LVL325:
 463:..\..\..\arduinoLCD\test\Pain Drain\libraries\lvgl\src\widgets/lv_canvas.c **** 
 2226              		.loc 1 463 0
 2227 02bc 5346     		mov	r3, r10
 2228 02be DB8F     		ldrh	r3, [r3, #62]
 2229 02c0 5B09     		lsrs	r3, r3, #5
 2230 02c2 013B     		subs	r3, r3, #1
 2231 02c4 2DB2     		sxth	r5, r5
 2232 02c6 9D42     		cmp	r5, r3
 2233 02c8 00DD     		ble	.L96
 2234 02ca 1D00     		movs	r5, r3
 2235              	.LVL326:
ARM GAS  C:\Users\haske\AppData\Local\Temp\ccxUXv8a.s 			page 78


 2236              	.L96:
 2237 02cc 2DB2     		sxth	r5, r5
 2238              	.LVL327:
 465:..\..\..\arduinoLCD\test\Pain Drain\libraries\lvgl\src\widgets/lv_canvas.c ****             if(has_alpha) opa = lv_img_buf_get_px_alpha(&canvas->dsc, x, y_safe);
 2239              		.loc 1 465 0
 2240 02ce 3C23     		movs	r3, #60
 2241 02d0 5344     		add	r3, r3, r10
 2242 02d2 1800     		movs	r0, r3
 2243 02d4 0693     		str	r3, [sp, #24]
 2244 02d6 6B46     		mov	r3, sp
 2245 02d8 5B89     		ldrh	r3, [r3, #10]
 2246 02da 2A00     		movs	r2, r5
 2247 02dc 0099     		ldr	r1, [sp]
 2248 02de FFF7FEFF 		bl	lv_img_buf_get_px_color
 2249              	.LVL328:
 2250 02e2 071C     		adds	r7, r0, #0
 466:..\..\..\arduinoLCD\test\Pain Drain\libraries\lvgl\src\widgets/lv_canvas.c **** 
 2251              		.loc 1 466 0
 2252 02e4 4B46     		mov	r3, r9
 2253 02e6 002B     		cmp	r3, #0
 2254 02e8 05D0     		beq	.L97
 2255              	.LVL329:
 466:..\..\..\arduinoLCD\test\Pain Drain\libraries\lvgl\src\widgets/lv_canvas.c **** 
 2256              		.loc 1 466 0 is_stmt 0 discriminator 1
 2257 02ea 2A00     		movs	r2, r5
 2258 02ec 0099     		ldr	r1, [sp]
 2259 02ee 0698     		ldr	r0, [sp, #24]
 2260 02f0 FFF7FEFF 		bl	lv_img_buf_get_px_alpha
 2261              	.LVL330:
 2262 02f4 0190     		str	r0, [sp, #4]
 2263              	.LVL331:
 2264              	.L97:
 468:..\..\..\arduinoLCD\test\Pain Drain\libraries\lvgl\src\widgets/lv_canvas.c ****             if(has_alpha) lv_img_buf_set_px_alpha(&line_img, 0, y_safe, opa);
 2265              		.loc 1 468 0 is_stmt 1
 2266 02f6 3B1C     		adds	r3, r7, #0
 2267 02f8 2A00     		movs	r2, r5
 2268 02fa 0021     		movs	r1, #0
 2269 02fc 0BA8     		add	r0, sp, #44
 2270 02fe FFF7FEFF 		bl	lv_img_buf_set_px_color
 2271              	.LVL332:
 469:..\..\..\arduinoLCD\test\Pain Drain\libraries\lvgl\src\widgets/lv_canvas.c **** 
 2272              		.loc 1 469 0
 2273 0302 4B46     		mov	r3, r9
 2274 0304 002B     		cmp	r3, #0
 2275 0306 05D0     		beq	.L98
 2276              	.LVL333:
 469:..\..\..\arduinoLCD\test\Pain Drain\libraries\lvgl\src\widgets/lv_canvas.c **** 
 2277              		.loc 1 469 0 is_stmt 0 discriminator 1
 2278 0308 019B     		ldr	r3, [sp, #4]
 2279              	.LVL334:
 2280 030a 2A00     		movs	r2, r5
 2281 030c 0021     		movs	r1, #0
 2282 030e 0BA8     		add	r0, sp, #44
 2283 0310 FFF7FEFF 		bl	lv_img_buf_set_px_alpha
 2284              	.LVL335:
 2285              	.L98:
 471:..\..\..\arduinoLCD\test\Pain Drain\libraries\lvgl\src\widgets/lv_canvas.c **** #if LV_COLOR_DEPTH == 16 && LV_COLOR_16_SWAP
ARM GAS  C:\Users\haske\AppData\Local\Temp\ccxUXv8a.s 			page 79


 2286              		.loc 1 471 0 is_stmt 1
 2287 0314 3D04     		lsls	r5, r7, #16
 2288              	.LVL336:
 2289 0316 ED0E     		lsrs	r5, r5, #27
 2290 0318 049B     		ldr	r3, [sp, #16]
 2291 031a 9C46     		mov	ip, r3
 2292 031c 6544     		add	r5, r5, ip
 2293              	.LVL337:
 475:..\..\..\arduinoLCD\test\Pain Drain\libraries\lvgl\src\widgets/lv_canvas.c **** #endif
 2294              		.loc 1 475 0
 2295 031e 7B05     		lsls	r3, r7, #21
 2296 0320 9B0E     		lsrs	r3, r3, #26
 2297 0322 9E19     		adds	r6, r3, r6
 2298              	.LVL338:
 477:..\..\..\arduinoLCD\test\Pain Drain\libraries\lvgl\src\widgets/lv_canvas.c ****             if(has_alpha) asum += opa;
 2299              		.loc 1 477 0
 2300 0324 FB06     		lsls	r3, r7, #27
 2301 0326 DB0E     		lsrs	r3, r3, #27
 2302 0328 9844     		add	r8, r8, r3
 2303              	.LVL339:
 478:..\..\..\arduinoLCD\test\Pain Drain\libraries\lvgl\src\widgets/lv_canvas.c ****         }
 2304              		.loc 1 478 0
 2305 032a 4B46     		mov	r3, r9
 2306 032c 002B     		cmp	r3, #0
 2307 032e 02D0     		beq	.L99
 2308              	.LVL340:
 478:..\..\..\arduinoLCD\test\Pain Drain\libraries\lvgl\src\widgets/lv_canvas.c ****         }
 2309              		.loc 1 478 0 is_stmt 0 discriminator 1
 2310 0330 019B     		ldr	r3, [sp, #4]
 2311              	.LVL341:
 2312 0332 9C46     		mov	ip, r3
 2313 0334 E344     		add	fp, fp, ip
 2314              	.LVL342:
 2315              	.L99:
 431:..\..\..\arduinoLCD\test\Pain Drain\libraries\lvgl\src\widgets/lv_canvas.c ****             if(asum) {
 2316              		.loc 1 431 0 is_stmt 1 discriminator 2
 2317 0336 0134     		adds	r4, r4, #1
 2318              	.LVL343:
 2319 0338 24B2     		sxth	r4, r4
 2320              	.LVL344:
 2321 033a 06E0     		b	.L89
 2322              	.LVL345:
 2323              	.L105:
 2324 033c 4546     		mov	r5, r8
 2325 033e D046     		mov	r8, r10
 2326              	.LVL346:
 2327 0340 2600     		movs	r6, r4
 2328 0342 049C     		ldr	r4, [sp, #16]
 2329              	.LVL347:
 2330 0344 DA46     		mov	r10, fp
 2331              	.LVL348:
 2332 0346 079B     		ldr	r3, [sp, #28]
 2333              	.LVL349:
 2334 0348 9B46     		mov	fp, r3
 2335              	.LVL350:
 2336              	.L89:
 431:..\..\..\arduinoLCD\test\Pain Drain\libraries\lvgl\src\widgets/lv_canvas.c ****             if(asum) {
ARM GAS  C:\Users\haske\AppData\Local\Temp\ccxUXv8a.s 			page 80


 2337              		.loc 1 431 0 is_stmt 0 discriminator 1
 2338 034a 0EAB     		add	r3, sp, #56
 2339 034c 0622     		movs	r2, #6
 2340 034e 9B5E     		ldrsh	r3, [r3, r2]
 2341 0350 9C42     		cmp	r4, r3
 2342 0352 00DC     		bgt	.LCB2659
 2343 0354 49E7     		b	.L100	@long jump
 2344              	.LCB2659:
 2345 0356 D346     		mov	fp, r10
 2346              	.LVL351:
 2347              	.LBE40:
 399:..\..\..\arduinoLCD\test\Pain Drain\libraries\lvgl\src\widgets/lv_canvas.c ****         uint32_t asum = 0;
 2348              		.loc 1 399 0 is_stmt 1 discriminator 2
 2349 0358 009B     		ldr	r3, [sp]
 2350 035a 0133     		adds	r3, r3, #1
 2351 035c 1BB2     		sxth	r3, r3
 2352 035e 0093     		str	r3, [sp]
 2353              	.LVL352:
 2354              	.L80:
 399:..\..\..\arduinoLCD\test\Pain Drain\libraries\lvgl\src\widgets/lv_canvas.c ****         uint32_t asum = 0;
 2355              		.loc 1 399 0 is_stmt 0 discriminator 1
 2356 0360 0EAB     		add	r3, sp, #56
 2357 0362 0422     		movs	r2, #4
 2358 0364 9B5E     		ldrsh	r3, [r3, r2]
 2359 0366 009A     		ldr	r2, [sp]
 2360 0368 9A42     		cmp	r2, r3
 2361 036a 00DC     		bgt	.LCB2690
 2362 036c D4E6     		b	.L101	@long jump
 2363              	.LCB2690:
 482:..\..\..\arduinoLCD\test\Pain Drain\libraries\lvgl\src\widgets/lv_canvas.c **** 
 2364              		.loc 1 482 0 is_stmt 1
 2365 036e 5846     		mov	r0, fp
 2366 0370 FFF7FEFF 		bl	lv_obj_invalidate
 2367              	.LVL353:
 484:..\..\..\arduinoLCD\test\Pain Drain\libraries\lvgl\src\widgets/lv_canvas.c **** }
 2368              		.loc 1 484 0
 2369 0374 0998     		ldr	r0, [sp, #36]
 2370 0376 FFF7FEFF 		bl	lv_mem_buf_release
 2371              	.LVL354:
 2372              	.L72:
 485:..\..\..\arduinoLCD\test\Pain Drain\libraries\lvgl\src\widgets/lv_canvas.c **** 
 2373              		.loc 1 485 0
 2374 037a 11B0     		add	sp, sp, #68
 2375              		@ sp needed
 2376              	.LVL355:
 2377              	.LVL356:
 2378 037c 3CBC     		pop	{r2, r3, r4, r5}
 2379 037e 9046     		mov	r8, r2
 2380 0380 9946     		mov	r9, r3
 2381 0382 A246     		mov	r10, r4
 2382 0384 AB46     		mov	fp, r5
 2383 0386 F0BD     		pop	{r4, r5, r6, r7, pc}
 2384              	.L107:
 2385              		.align	2
 2386              	.L106:
 2387 0388 FF03E0FF 		.word	-2096129
 2388 038c 1FF8FFFF 		.word	-2017
ARM GAS  C:\Users\haske\AppData\Local\Temp\ccxUXv8a.s 			page 81


 2389              		.cfi_endproc
 2390              	.LFE170:
 2391              		.size	lv_canvas_blur_ver, .-lv_canvas_blur_ver
 2392              		.section	.text.lv_canvas_fill_bg,"ax",%progbits
 2393              		.align	2
 2394              		.global	lv_canvas_fill_bg
 2395              		.code	16
 2396              		.thumb_func
 2397              		.type	lv_canvas_fill_bg, %function
 2398              	lv_canvas_fill_bg:
 2399              	.LFB171:
 488:..\..\..\arduinoLCD\test\Pain Drain\libraries\lvgl\src\widgets/lv_canvas.c ****     LV_ASSERT_OBJ(canvas, MY_CLASS);
 2400              		.loc 1 488 0
 2401              		.cfi_startproc
 2402              		@ args = 0, pretend = 0, frame = 16
 2403              		@ frame_needed = 0, uses_anonymous_args = 0
 2404              	.LVL357:
 2405 0000 F0B5     		push	{r4, r5, r6, r7, lr}
 2406              		.cfi_def_cfa_offset 20
 2407              		.cfi_offset 4, -20
 2408              		.cfi_offset 5, -16
 2409              		.cfi_offset 6, -12
 2410              		.cfi_offset 7, -8
 2411              		.cfi_offset 14, -4
 2412 0002 85B0     		sub	sp, sp, #20
 2413              		.cfi_def_cfa_offset 40
 2414 0004 0390     		str	r0, [sp, #12]
 2415 0006 6B46     		mov	r3, sp
 2416 0008 D980     		strh	r1, [r3, #6]
 2417 000a 0292     		str	r2, [sp, #8]
 491:..\..\..\arduinoLCD\test\Pain Drain\libraries\lvgl\src\widgets/lv_canvas.c **** 
 2418              		.loc 1 491 0
 2419 000c FFF7FEFF 		bl	lv_canvas_get_img
 2420              	.LVL358:
 2421 0010 0700     		movs	r7, r0
 2422              	.LVL359:
 493:..\..\..\arduinoLCD\test\Pain Drain\libraries\lvgl\src\widgets/lv_canvas.c ****         uint32_t row_byte_cnt = (dsc->header.w + 7) >> 3;
 2423              		.loc 1 493 0
 2424 0012 0378     		ldrb	r3, [r0]
 2425 0014 1F22     		movs	r2, #31
 2426 0016 1340     		ands	r3, r2
 2427 0018 072B     		cmp	r3, #7
 2428 001a 13D1     		bne	.L109
 2429              	.LBB41:
 494:..\..\..\arduinoLCD\test\Pain Drain\libraries\lvgl\src\widgets/lv_canvas.c ****         /*+8 skip the palette*/
 2430              		.loc 1 494 0
 2431 001c 0368     		ldr	r3, [r0]
 2432 001e DB02     		lsls	r3, r3, #11
 2433 0020 5B0D     		lsrs	r3, r3, #21
 2434 0022 0733     		adds	r3, r3, #7
 2435 0024 DB10     		asrs	r3, r3, #3
 2436              	.LVL360:
 496:..\..\..\arduinoLCD\test\Pain Drain\libraries\lvgl\src\widgets/lv_canvas.c ****     }
 2437              		.loc 1 496 0
 2438 0026 8068     		ldr	r0, [r0, #8]
 2439              	.LVL361:
 2440 0028 0830     		adds	r0, r0, #8
ARM GAS  C:\Users\haske\AppData\Local\Temp\ccxUXv8a.s 			page 82


 2441 002a 6A46     		mov	r2, sp
 2442 002c D288     		ldrh	r2, [r2, #6]
 2443 002e 002A     		cmp	r2, #0
 2444 0030 01D0     		beq	.L116
 2445 0032 FF21     		movs	r1, #255
 2446 0034 00E0     		b	.L110
 2447              	.L116:
 2448 0036 0021     		movs	r1, #0
 2449              	.L110:
 496:..\..\..\arduinoLCD\test\Pain Drain\libraries\lvgl\src\widgets/lv_canvas.c ****     }
 2450              		.loc 1 496 0 is_stmt 0 discriminator 4
 2451 0038 7A88     		ldrh	r2, [r7, #2]
 2452 003a 5209     		lsrs	r2, r2, #5
 2453 003c 5A43     		muls	r2, r3
 2454 003e FFF7FEFF 		bl	lv_memset
 2455              	.LVL362:
 2456              	.LBE41:
 2457 0042 39E0     		b	.L111
 2458              	.LVL363:
 2459              	.L109:
 498:..\..\..\arduinoLCD\test\Pain Drain\libraries\lvgl\src\widgets/lv_canvas.c ****         uint32_t row_byte_cnt = (dsc->header.w + 7) >> 3;
 2460              		.loc 1 498 0 is_stmt 1
 2461 0044 0B2B     		cmp	r3, #11
 2462 0046 30D1     		bne	.L117
 2463              	.LBB42:
 499:..\..\..\arduinoLCD\test\Pain Drain\libraries\lvgl\src\widgets/lv_canvas.c ****         lv_memset((uint8_t *)dsc->data, opa > LV_OPA_50 ? 0xff : 0x00, row_byte_cnt * dsc->header.h
 2464              		.loc 1 499 0
 2465 0048 0368     		ldr	r3, [r0]
 2466 004a DB02     		lsls	r3, r3, #11
 2467 004c 5B0D     		lsrs	r3, r3, #21
 2468 004e 0733     		adds	r3, r3, #7
 2469 0050 DB10     		asrs	r3, r3, #3
 2470              	.LVL364:
 500:..\..\..\arduinoLCD\test\Pain Drain\libraries\lvgl\src\widgets/lv_canvas.c ****     }
 2471              		.loc 1 500 0
 2472 0052 8068     		ldr	r0, [r0, #8]
 2473              	.LVL365:
 2474 0054 6A46     		mov	r2, sp
 2475 0056 127A     		ldrb	r2, [r2, #8]
 2476 0058 52B2     		sxtb	r2, r2
 2477 005a 002A     		cmp	r2, #0
 2478 005c 01DA     		bge	.L118
 2479 005e FF21     		movs	r1, #255
 2480 0060 00E0     		b	.L113
 2481              	.L118:
 2482 0062 0021     		movs	r1, #0
 2483              	.L113:
 500:..\..\..\arduinoLCD\test\Pain Drain\libraries\lvgl\src\widgets/lv_canvas.c ****     }
 2484              		.loc 1 500 0 is_stmt 0 discriminator 4
 2485 0064 7A88     		ldrh	r2, [r7, #2]
 2486 0066 5209     		lsrs	r2, r2, #5
 2487 0068 5A43     		muls	r2, r3
 2488 006a FFF7FEFF 		bl	lv_memset
 2489              	.LVL366:
 2490              	.LBE42:
 2491 006e 23E0     		b	.L111
 2492              	.LVL367:
ARM GAS  C:\Users\haske\AppData\Local\Temp\ccxUXv8a.s 			page 83


 2493              	.L114:
 2494              	.LBB43:
 507:..\..\..\arduinoLCD\test\Pain Drain\libraries\lvgl\src\widgets/lv_canvas.c ****                 lv_img_buf_set_px_alpha(dsc, x, y, opa);
 2495              		.loc 1 507 0 is_stmt 1 discriminator 3
 2496 0070 35B2     		sxth	r5, r6
 2497 0072 6B46     		mov	r3, sp
 2498 0074 0024     		movs	r4, #0
 2499 0076 1C5F     		ldrsh	r4, [r3, r4]
 2500 0078 6B46     		mov	r3, sp
 2501 007a DB88     		ldrh	r3, [r3, #6]
 2502 007c 2200     		movs	r2, r4
 2503 007e 2900     		movs	r1, r5
 2504 0080 3800     		movs	r0, r7
 2505 0082 FFF7FEFF 		bl	lv_img_buf_set_px_color
 2506              	.LVL368:
 508:..\..\..\arduinoLCD\test\Pain Drain\libraries\lvgl\src\widgets/lv_canvas.c ****             }
 2507              		.loc 1 508 0 discriminator 3
 2508 0086 029B     		ldr	r3, [sp, #8]
 2509 0088 2200     		movs	r2, r4
 2510 008a 2900     		movs	r1, r5
 2511 008c 3800     		movs	r0, r7
 2512 008e FFF7FEFF 		bl	lv_img_buf_set_px_alpha
 2513              	.LVL369:
 506:..\..\..\arduinoLCD\test\Pain Drain\libraries\lvgl\src\widgets/lv_canvas.c ****                 lv_img_buf_set_px_color(dsc, x, y, color);
 2514              		.loc 1 506 0 discriminator 3
 2515 0092 0136     		adds	r6, r6, #1
 2516              	.LVL370:
 2517 0094 00E0     		b	.L115
 2518              	.LVL371:
 2519              	.L119:
 2520 0096 0026     		movs	r6, #0
 2521              	.LVL372:
 2522              	.L115:
 506:..\..\..\arduinoLCD\test\Pain Drain\libraries\lvgl\src\widgets/lv_canvas.c ****                 lv_img_buf_set_px_color(dsc, x, y, color);
 2523              		.loc 1 506 0 is_stmt 0 discriminator 1
 2524 0098 3B68     		ldr	r3, [r7]
 2525 009a DB02     		lsls	r3, r3, #11
 2526 009c 5B0D     		lsrs	r3, r3, #21
 2527 009e 9E42     		cmp	r6, r3
 2528 00a0 E6D3     		bcc	.L114
 505:..\..\..\arduinoLCD\test\Pain Drain\libraries\lvgl\src\widgets/lv_canvas.c ****             for(x = 0; x < dsc->header.w; x++) {
 2529              		.loc 1 505 0 is_stmt 1 discriminator 2
 2530 00a2 009B     		ldr	r3, [sp]
 2531 00a4 0133     		adds	r3, r3, #1
 2532 00a6 0093     		str	r3, [sp]
 2533              	.LVL373:
 2534 00a8 01E0     		b	.L112
 2535              	.LVL374:
 2536              	.L117:
 2537              	.LBE43:
 2538 00aa 0023     		movs	r3, #0
 2539 00ac 0093     		str	r3, [sp]
 2540              	.LVL375:
 2541              	.L112:
 2542              	.LBB44:
 505:..\..\..\arduinoLCD\test\Pain Drain\libraries\lvgl\src\widgets/lv_canvas.c ****             for(x = 0; x < dsc->header.w; x++) {
 2543              		.loc 1 505 0 is_stmt 0 discriminator 1
ARM GAS  C:\Users\haske\AppData\Local\Temp\ccxUXv8a.s 			page 84


 2544 00ae 7B88     		ldrh	r3, [r7, #2]
 2545 00b0 5B09     		lsrs	r3, r3, #5
 2546 00b2 009A     		ldr	r2, [sp]
 2547 00b4 9A42     		cmp	r2, r3
 2548 00b6 EED3     		bcc	.L119
 2549              	.LVL376:
 2550              	.L111:
 2551              	.LBE44:
 513:..\..\..\arduinoLCD\test\Pain Drain\libraries\lvgl\src\widgets/lv_canvas.c **** }
 2552              		.loc 1 513 0 is_stmt 1
 2553 00b8 0398     		ldr	r0, [sp, #12]
 2554 00ba FFF7FEFF 		bl	lv_obj_invalidate
 2555              	.LVL377:
 514:..\..\..\arduinoLCD\test\Pain Drain\libraries\lvgl\src\widgets/lv_canvas.c **** 
 2556              		.loc 1 514 0
 2557 00be 05B0     		add	sp, sp, #20
 2558              		@ sp needed
 2559              	.LVL378:
 2560 00c0 F0BD     		pop	{r4, r5, r6, r7, pc}
 2561              		.cfi_endproc
 2562              	.LFE171:
 2563              		.size	lv_canvas_fill_bg, .-lv_canvas_fill_bg
 2564 00c2 C046     		.section	.text.lv_canvas_draw_rect,"ax",%progbits
 2565              		.align	2
 2566              		.global	lv_canvas_draw_rect
 2567              		.code	16
 2568              		.thumb_func
 2569              		.type	lv_canvas_draw_rect, %function
 2570              	lv_canvas_draw_rect:
 2571              	.LFB172:
 518:..\..\..\arduinoLCD\test\Pain Drain\libraries\lvgl\src\widgets/lv_canvas.c ****     LV_ASSERT_OBJ(canvas, MY_CLASS);
 2572              		.loc 1 518 0
 2573              		.cfi_startproc
 2574              		@ args = 8, pretend = 0, frame = 464
 2575              		@ frame_needed = 0, uses_anonymous_args = 0
 2576              	.LVL379:
 2577 0000 F0B5     		push	{r4, r5, r6, r7, lr}
 2578              		.cfi_def_cfa_offset 20
 2579              		.cfi_offset 4, -20
 2580              		.cfi_offset 5, -16
 2581              		.cfi_offset 6, -12
 2582              		.cfi_offset 7, -8
 2583              		.cfi_offset 14, -4
 2584 0002 F5B0     		sub	sp, sp, #468
 2585              		.cfi_def_cfa_offset 488
 2586 0004 0190     		str	r0, [sp, #4]
 2587 0006 0F00     		movs	r7, r1
 2588 0008 1600     		movs	r6, r2
 2589 000a 0293     		str	r3, [sp, #8]
 2590 000c 7AAB     		add	r3, sp, #488
 2591              	.LVL380:
 2592 000e 0024     		movs	r4, #0
 2593 0010 1C5F     		ldrsh	r4, [r3, r4]
 2594              	.LVL381:
 521:..\..\..\arduinoLCD\test\Pain Drain\libraries\lvgl\src\widgets/lv_canvas.c **** 
 2595              		.loc 1 521 0
 2596 0012 FFF7FEFF 		bl	lv_canvas_get_img
ARM GAS  C:\Users\haske\AppData\Local\Temp\ccxUXv8a.s 			page 85


 2597              	.LVL382:
 2598 0016 0500     		movs	r5, r0
 2599              	.LVL383:
 523:..\..\..\arduinoLCD\test\Pain Drain\libraries\lvgl\src\widgets/lv_canvas.c ****         LV_LOG_WARN("lv_canvas_draw_rect: can't draw to LV_IMG_CF_INDEXED canvas");
 2600              		.loc 1 523 0
 2601 0018 0378     		ldrb	r3, [r0]
 2602 001a DB06     		lsls	r3, r3, #27
 2603 001c DB0E     		lsrs	r3, r3, #27
 2604 001e 1933     		adds	r3, r3, #25
 2605 0020 1F22     		movs	r2, #31
 2606 0022 1340     		ands	r3, r2
 2607 0024 032B     		cmp	r3, #3
 2608 0026 35D9     		bls	.L120
 533:..\..\..\arduinoLCD\test\Pain Drain\libraries\lvgl\src\widgets/lv_canvas.c **** 
 2609              		.loc 1 533 0
 2610 0028 07AB     		add	r3, sp, #28
 2611 002a 09AA     		add	r2, sp, #36
 2612 002c 1DA9     		add	r1, sp, #116
 2613 002e 0198     		ldr	r0, [sp, #4]
 2614              	.LVL384:
 2615 0030 FFF7FEFF 		bl	init_fake_disp
 2616              	.LVL385:
 535:..\..\..\arduinoLCD\test\Pain Drain\libraries\lvgl\src\widgets/lv_canvas.c ****     _lv_refr_set_disp_refreshing(&fake_disp);
 2617              		.loc 1 535 0
 2618 0034 FFF7FEFF 		bl	_lv_refr_get_disp_refreshing
 2619              	.LVL386:
 2620 0038 0390     		str	r0, [sp, #12]
 2621              	.LVL387:
 536:..\..\..\arduinoLCD\test\Pain Drain\libraries\lvgl\src\widgets/lv_canvas.c **** 
 2622              		.loc 1 536 0
 2623 003a 1DA8     		add	r0, sp, #116
 2624              	.LVL388:
 2625 003c FFF7FEFF 		bl	_lv_refr_set_disp_refreshing
 2626              	.LVL389:
 540:..\..\..\arduinoLCD\test\Pain Drain\libraries\lvgl\src\widgets/lv_canvas.c ****        draw_dsc->bg_color.full == ctransp.full) {
 2627              		.loc 1 540 0
 2628 0040 2B78     		ldrb	r3, [r5]
 2629 0042 1F22     		movs	r2, #31
 2630 0044 1340     		ands	r3, r2
 2631 0046 062B     		cmp	r3, #6
 2632 0048 0AD1     		bne	.L122
 541:..\..\..\arduinoLCD\test\Pain Drain\libraries\lvgl\src\widgets/lv_canvas.c ****         fake_disp.driver->antialiasing = 0;
 2633              		.loc 1 541 0 discriminator 1
 2634 004a 7B9B     		ldr	r3, [sp, #492]
 2635 004c 9A88     		ldrh	r2, [r3, #4]
 540:..\..\..\arduinoLCD\test\Pain Drain\libraries\lvgl\src\widgets/lv_canvas.c ****        draw_dsc->bg_color.full == ctransp.full) {
 2636              		.loc 1 540 0 discriminator 1
 2637 004e FC23     		movs	r3, #252
 2638 0050 DB00     		lsls	r3, r3, #3
 2639 0052 9A42     		cmp	r2, r3
 2640 0054 04D1     		bne	.L122
 542:..\..\..\arduinoLCD\test\Pain Drain\libraries\lvgl\src\widgets/lv_canvas.c ****     }
 2641              		.loc 1 542 0
 2642 0056 1D9A     		ldr	r2, [sp, #116]
 2643 0058 137C     		ldrb	r3, [r2, #16]
 2644 005a 0821     		movs	r1, #8
 2645 005c 8B43     		bics	r3, r1
ARM GAS  C:\Users\haske\AppData\Local\Temp\ccxUXv8a.s 			page 86


 2646 005e 1374     		strb	r3, [r2, #16]
 2647              	.L122:
 546:..\..\..\arduinoLCD\test\Pain Drain\libraries\lvgl\src\widgets/lv_canvas.c ****     coords.y1 = y;
 2648              		.loc 1 546 0
 2649 0060 05AB     		add	r3, sp, #20
 2650 0062 1F80     		strh	r7, [r3]
 547:..\..\..\arduinoLCD\test\Pain Drain\libraries\lvgl\src\widgets/lv_canvas.c ****     coords.x2 = x + w - 1;
 2651              		.loc 1 547 0
 2652 0064 5E80     		strh	r6, [r3, #2]
 548:..\..\..\arduinoLCD\test\Pain Drain\libraries\lvgl\src\widgets/lv_canvas.c ****     coords.y2 = y + h - 1;
 2653              		.loc 1 548 0
 2654 0066 029A     		ldr	r2, [sp, #8]
 2655 0068 BD18     		adds	r5, r7, r2
 2656              	.LVL390:
 2657 006a 013D     		subs	r5, r5, #1
 2658 006c 9D80     		strh	r5, [r3, #4]
 549:..\..\..\arduinoLCD\test\Pain Drain\libraries\lvgl\src\widgets/lv_canvas.c **** 
 2659              		.loc 1 549 0
 2660 006e 3619     		adds	r6, r6, r4
 2661 0070 013E     		subs	r6, r6, #1
 2662 0072 DE80     		strh	r6, [r3, #6]
 551:..\..\..\arduinoLCD\test\Pain Drain\libraries\lvgl\src\widgets/lv_canvas.c **** 
 2663              		.loc 1 551 0
 2664 0074 1A00     		movs	r2, r3
 2665 0076 7B99     		ldr	r1, [sp, #492]
 2666 0078 1898     		ldr	r0, [sp, #96]
 2667 007a FFF7FEFF 		bl	lv_draw_rect
 2668              	.LVL391:
 553:..\..\..\arduinoLCD\test\Pain Drain\libraries\lvgl\src\widgets/lv_canvas.c **** 
 2669              		.loc 1 553 0
 2670 007e 0398     		ldr	r0, [sp, #12]
 2671 0080 FFF7FEFF 		bl	_lv_refr_set_disp_refreshing
 2672              	.LVL392:
 555:..\..\..\arduinoLCD\test\Pain Drain\libraries\lvgl\src\widgets/lv_canvas.c **** 
 2673              		.loc 1 555 0
 2674 0084 1DA9     		add	r1, sp, #116
 2675 0086 019C     		ldr	r4, [sp, #4]
 2676 0088 2000     		movs	r0, r4
 2677 008a FFF7FEFF 		bl	deinit_fake_disp
 2678              	.LVL393:
 557:..\..\..\arduinoLCD\test\Pain Drain\libraries\lvgl\src\widgets/lv_canvas.c **** }
 2679              		.loc 1 557 0
 2680 008e 2000     		movs	r0, r4
 2681 0090 FFF7FEFF 		bl	lv_obj_invalidate
 2682              	.LVL394:
 2683              	.L120:
 558:..\..\..\arduinoLCD\test\Pain Drain\libraries\lvgl\src\widgets/lv_canvas.c **** 
 2684              		.loc 1 558 0
 2685 0094 75B0     		add	sp, sp, #468
 2686              		@ sp needed
 2687 0096 F0BD     		pop	{r4, r5, r6, r7, pc}
 2688              		.cfi_endproc
 2689              	.LFE172:
 2690              		.size	lv_canvas_draw_rect, .-lv_canvas_draw_rect
 2691              		.section	.text.lv_canvas_draw_text,"ax",%progbits
 2692              		.align	2
 2693              		.global	lv_canvas_draw_text
ARM GAS  C:\Users\haske\AppData\Local\Temp\ccxUXv8a.s 			page 87


 2694              		.code	16
 2695              		.thumb_func
 2696              		.type	lv_canvas_draw_text, %function
 2697              	lv_canvas_draw_text:
 2698              	.LFB173:
 562:..\..\..\arduinoLCD\test\Pain Drain\libraries\lvgl\src\widgets/lv_canvas.c ****     LV_ASSERT_OBJ(canvas, MY_CLASS);
 2699              		.loc 1 562 0
 2700              		.cfi_startproc
 2701              		@ args = 8, pretend = 0, frame = 456
 2702              		@ frame_needed = 0, uses_anonymous_args = 0
 2703              	.LVL395:
 2704 0000 F0B5     		push	{r4, r5, r6, r7, lr}
 2705              		.cfi_def_cfa_offset 20
 2706              		.cfi_offset 4, -20
 2707              		.cfi_offset 5, -16
 2708              		.cfi_offset 6, -12
 2709              		.cfi_offset 7, -8
 2710              		.cfi_offset 14, -4
 2711 0002 F5B0     		sub	sp, sp, #468
 2712              		.cfi_def_cfa_offset 488
 2713 0004 0290     		str	r0, [sp, #8]
 2714 0006 0E00     		movs	r6, r1
 2715 0008 1700     		movs	r7, r2
 2716 000a 1D00     		movs	r5, r3
 565:..\..\..\arduinoLCD\test\Pain Drain\libraries\lvgl\src\widgets/lv_canvas.c **** 
 2717              		.loc 1 565 0
 2718 000c FFF7FEFF 		bl	lv_canvas_get_img
 2719              	.LVL396:
 2720 0010 0400     		movs	r4, r0
 2721              	.LVL397:
 567:..\..\..\arduinoLCD\test\Pain Drain\libraries\lvgl\src\widgets/lv_canvas.c ****         LV_LOG_WARN("lv_canvas_draw_text: can't draw to LV_IMG_CF_INDEXED canvas");
 2722              		.loc 1 567 0
 2723 0012 0378     		ldrb	r3, [r0]
 2724 0014 DB06     		lsls	r3, r3, #27
 2725 0016 DB0E     		lsrs	r3, r3, #27
 2726 0018 1933     		adds	r3, r3, #25
 2727 001a 1F22     		movs	r2, #31
 2728 001c 1340     		ands	r3, r2
 2729 001e 032B     		cmp	r3, #3
 2730 0020 28D9     		bls	.L124
 577:..\..\..\arduinoLCD\test\Pain Drain\libraries\lvgl\src\widgets/lv_canvas.c **** 
 2731              		.loc 1 577 0
 2732 0022 07AB     		add	r3, sp, #28
 2733 0024 09AA     		add	r2, sp, #36
 2734 0026 1DA9     		add	r1, sp, #116
 2735 0028 0298     		ldr	r0, [sp, #8]
 2736              	.LVL398:
 2737 002a FFF7FEFF 		bl	init_fake_disp
 2738              	.LVL399:
 579:..\..\..\arduinoLCD\test\Pain Drain\libraries\lvgl\src\widgets/lv_canvas.c ****     _lv_refr_set_disp_refreshing(&fake_disp);
 2739              		.loc 1 579 0
 2740 002e FFF7FEFF 		bl	_lv_refr_get_disp_refreshing
 2741              	.LVL400:
 2742 0032 0390     		str	r0, [sp, #12]
 2743              	.LVL401:
 580:..\..\..\arduinoLCD\test\Pain Drain\libraries\lvgl\src\widgets/lv_canvas.c **** 
 2744              		.loc 1 580 0
ARM GAS  C:\Users\haske\AppData\Local\Temp\ccxUXv8a.s 			page 88


 2745 0034 1DAB     		add	r3, sp, #116
 2746 0036 1800     		movs	r0, r3
 2747              	.LVL402:
 2748 0038 FFF7FEFF 		bl	_lv_refr_set_disp_refreshing
 2749              	.LVL403:
 583:..\..\..\arduinoLCD\test\Pain Drain\libraries\lvgl\src\widgets/lv_canvas.c ****     coords.y1 = y;
 2750              		.loc 1 583 0
 2751 003c 05AA     		add	r2, sp, #20
 2752 003e 1680     		strh	r6, [r2]
 584:..\..\..\arduinoLCD\test\Pain Drain\libraries\lvgl\src\widgets/lv_canvas.c ****     coords.x2 = x + max_w - 1;
 2753              		.loc 1 584 0
 2754 0040 5780     		strh	r7, [r2, #2]
 585:..\..\..\arduinoLCD\test\Pain Drain\libraries\lvgl\src\widgets/lv_canvas.c ****     coords.y2 = dsc->header.h - 1;
 2755              		.loc 1 585 0
 2756 0042 7519     		adds	r5, r6, r5
 2757 0044 013D     		subs	r5, r5, #1
 2758 0046 9580     		strh	r5, [r2, #4]
 586:..\..\..\arduinoLCD\test\Pain Drain\libraries\lvgl\src\widgets/lv_canvas.c ****     lv_draw_label(driver.draw_ctx, draw_dsc, &coords, txt, NULL);
 2759              		.loc 1 586 0
 2760 0048 6388     		ldrh	r3, [r4, #2]
 2761 004a 5B09     		lsrs	r3, r3, #5
 2762 004c 013B     		subs	r3, r3, #1
 2763 004e D380     		strh	r3, [r2, #6]
 587:..\..\..\arduinoLCD\test\Pain Drain\libraries\lvgl\src\widgets/lv_canvas.c **** 
 2764              		.loc 1 587 0
 2765 0050 0023     		movs	r3, #0
 2766 0052 0093     		str	r3, [sp]
 2767 0054 7B9B     		ldr	r3, [sp, #492]
 2768 0056 7A99     		ldr	r1, [sp, #488]
 2769 0058 1898     		ldr	r0, [sp, #96]
 2770 005a FFF7FEFF 		bl	lv_draw_label
 2771              	.LVL404:
 589:..\..\..\arduinoLCD\test\Pain Drain\libraries\lvgl\src\widgets/lv_canvas.c **** 
 2772              		.loc 1 589 0
 2773 005e 0398     		ldr	r0, [sp, #12]
 2774 0060 FFF7FEFF 		bl	_lv_refr_set_disp_refreshing
 2775              	.LVL405:
 591:..\..\..\arduinoLCD\test\Pain Drain\libraries\lvgl\src\widgets/lv_canvas.c **** 
 2776              		.loc 1 591 0
 2777 0064 1DA9     		add	r1, sp, #116
 2778 0066 029C     		ldr	r4, [sp, #8]
 2779              	.LVL406:
 2780 0068 2000     		movs	r0, r4
 2781 006a FFF7FEFF 		bl	deinit_fake_disp
 2782              	.LVL407:
 593:..\..\..\arduinoLCD\test\Pain Drain\libraries\lvgl\src\widgets/lv_canvas.c **** }
 2783              		.loc 1 593 0
 2784 006e 2000     		movs	r0, r4
 2785 0070 FFF7FEFF 		bl	lv_obj_invalidate
 2786              	.LVL408:
 2787              	.L124:
 594:..\..\..\arduinoLCD\test\Pain Drain\libraries\lvgl\src\widgets/lv_canvas.c **** 
 2788              		.loc 1 594 0
 2789 0074 75B0     		add	sp, sp, #468
 2790              		@ sp needed
 2791 0076 F0BD     		pop	{r4, r5, r6, r7, pc}
 2792              		.cfi_endproc
ARM GAS  C:\Users\haske\AppData\Local\Temp\ccxUXv8a.s 			page 89


 2793              	.LFE173:
 2794              		.size	lv_canvas_draw_text, .-lv_canvas_draw_text
 2795              		.section	.text.lv_canvas_draw_img,"ax",%progbits
 2796              		.align	2
 2797              		.global	lv_canvas_draw_img
 2798              		.code	16
 2799              		.thumb_func
 2800              		.type	lv_canvas_draw_img, %function
 2801              	lv_canvas_draw_img:
 2802              	.LFB174:
 598:..\..\..\arduinoLCD\test\Pain Drain\libraries\lvgl\src\widgets/lv_canvas.c ****     LV_ASSERT_OBJ(canvas, MY_CLASS);
 2803              		.loc 1 598 0
 2804              		.cfi_startproc
 2805              		@ args = 4, pretend = 0, frame = 456
 2806              		@ frame_needed = 0, uses_anonymous_args = 0
 2807              	.LVL409:
 2808 0000 F0B5     		push	{r4, r5, r6, r7, lr}
 2809              		.cfi_def_cfa_offset 20
 2810              		.cfi_offset 4, -20
 2811              		.cfi_offset 5, -16
 2812              		.cfi_offset 6, -12
 2813              		.cfi_offset 7, -8
 2814              		.cfi_offset 14, -4
 2815 0002 F3B0     		sub	sp, sp, #460
 2816              		.cfi_def_cfa_offset 480
 2817 0004 0400     		movs	r4, r0
 2818 0006 0F00     		movs	r7, r1
 2819 0008 1600     		movs	r6, r2
 2820 000a 1D00     		movs	r5, r3
 601:..\..\..\arduinoLCD\test\Pain Drain\libraries\lvgl\src\widgets/lv_canvas.c **** 
 2821              		.loc 1 601 0
 2822 000c FFF7FEFF 		bl	lv_canvas_get_img
 2823              	.LVL410:
 603:..\..\..\arduinoLCD\test\Pain Drain\libraries\lvgl\src\widgets/lv_canvas.c ****         LV_LOG_WARN("lv_canvas_draw_img: can't draw to LV_IMG_CF_INDEXED canvas");
 2824              		.loc 1 603 0
 2825 0010 0378     		ldrb	r3, [r0]
 2826 0012 DB06     		lsls	r3, r3, #27
 2827 0014 DB0E     		lsrs	r3, r3, #27
 2828 0016 1933     		adds	r3, r3, #25
 2829 0018 1F22     		movs	r2, #31
 2830 001a 1340     		ands	r3, r2
 2831 001c 032B     		cmp	r3, #3
 2832 001e 35D9     		bls	.L127
 609:..\..\..\arduinoLCD\test\Pain Drain\libraries\lvgl\src\widgets/lv_canvas.c ****     if(res != LV_RES_OK) {
 2833              		.loc 1 609 0
 2834 0020 71A9     		add	r1, sp, #452
 2835 0022 2800     		movs	r0, r5
 2836              	.LVL411:
 2837 0024 FFF7FEFF 		bl	lv_img_decoder_get_info
 2838              	.LVL412:
 610:..\..\..\arduinoLCD\test\Pain Drain\libraries\lvgl\src\widgets/lv_canvas.c ****         LV_LOG_WARN("lv_canvas_draw_img: Couldn't get the image data.");
 2839              		.loc 1 610 0
 2840 0028 0128     		cmp	r0, #1
 2841 002a 2FD1     		bne	.L127
 619:..\..\..\arduinoLCD\test\Pain Drain\libraries\lvgl\src\widgets/lv_canvas.c **** 
 2842              		.loc 1 619 0
 2843 002c 04AB     		add	r3, sp, #16
ARM GAS  C:\Users\haske\AppData\Local\Temp\ccxUXv8a.s 			page 90


 2844 002e 06AA     		add	r2, sp, #24
 2845 0030 1AA9     		add	r1, sp, #104
 2846 0032 2000     		movs	r0, r4
 2847              	.LVL413:
 2848 0034 FFF7FEFF 		bl	init_fake_disp
 2849              	.LVL414:
 621:..\..\..\arduinoLCD\test\Pain Drain\libraries\lvgl\src\widgets/lv_canvas.c ****     _lv_refr_set_disp_refreshing(&fake_disp);
 2850              		.loc 1 621 0
 2851 0038 FFF7FEFF 		bl	_lv_refr_get_disp_refreshing
 2852              	.LVL415:
 2853 003c 0190     		str	r0, [sp, #4]
 2854              	.LVL416:
 622:..\..\..\arduinoLCD\test\Pain Drain\libraries\lvgl\src\widgets/lv_canvas.c **** 
 2855              		.loc 1 622 0
 2856 003e 1AAB     		add	r3, sp, #104
 2857 0040 1800     		movs	r0, r3
 2858              	.LVL417:
 2859 0042 FFF7FEFF 		bl	_lv_refr_set_disp_refreshing
 2860              	.LVL418:
 625:..\..\..\arduinoLCD\test\Pain Drain\libraries\lvgl\src\widgets/lv_canvas.c ****     coords.y1 = y;
 2861              		.loc 1 625 0
 2862 0046 02AB     		add	r3, sp, #8
 2863 0048 1F80     		strh	r7, [r3]
 626:..\..\..\arduinoLCD\test\Pain Drain\libraries\lvgl\src\widgets/lv_canvas.c ****     coords.x2 = x + header.w - 1;
 2864              		.loc 1 626 0
 2865 004a 5E80     		strh	r6, [r3, #2]
 627:..\..\..\arduinoLCD\test\Pain Drain\libraries\lvgl\src\widgets/lv_canvas.c ****     coords.y2 = y + header.h - 1;
 2866              		.loc 1 627 0
 2867 004c 719B     		ldr	r3, [sp, #452]
 2868 004e DB02     		lsls	r3, r3, #11
 2869 0050 5B0D     		lsrs	r3, r3, #21
 2870 0052 DF19     		adds	r7, r3, r7
 2871 0054 013F     		subs	r7, r7, #1
 2872 0056 02AB     		add	r3, sp, #8
 2873 0058 9F80     		strh	r7, [r3, #4]
 628:..\..\..\arduinoLCD\test\Pain Drain\libraries\lvgl\src\widgets/lv_canvas.c **** 
 2874              		.loc 1 628 0
 2875 005a DF23     		movs	r3, #223
 2876 005c 5B00     		lsls	r3, r3, #1
 2877 005e 02AA     		add	r2, sp, #8
 2878 0060 9446     		mov	ip, r2
 2879 0062 6344     		add	r3, r3, ip
 2880 0064 1B88     		ldrh	r3, [r3]
 2881 0066 5B09     		lsrs	r3, r3, #5
 2882 0068 9E19     		adds	r6, r3, r6
 2883 006a 013E     		subs	r6, r6, #1
 2884 006c D680     		strh	r6, [r2, #6]
 630:..\..\..\arduinoLCD\test\Pain Drain\libraries\lvgl\src\widgets/lv_canvas.c **** 
 2885              		.loc 1 630 0
 2886 006e 2B00     		movs	r3, r5
 2887 0070 7899     		ldr	r1, [sp, #480]
 2888 0072 1598     		ldr	r0, [sp, #84]
 2889 0074 FFF7FEFF 		bl	lv_draw_img
 2890              	.LVL419:
 632:..\..\..\arduinoLCD\test\Pain Drain\libraries\lvgl\src\widgets/lv_canvas.c **** 
 2891              		.loc 1 632 0
 2892 0078 0198     		ldr	r0, [sp, #4]
ARM GAS  C:\Users\haske\AppData\Local\Temp\ccxUXv8a.s 			page 91


 2893 007a FFF7FEFF 		bl	_lv_refr_set_disp_refreshing
 2894              	.LVL420:
 634:..\..\..\arduinoLCD\test\Pain Drain\libraries\lvgl\src\widgets/lv_canvas.c **** 
 2895              		.loc 1 634 0
 2896 007e 1AA9     		add	r1, sp, #104
 2897 0080 2000     		movs	r0, r4
 2898 0082 FFF7FEFF 		bl	deinit_fake_disp
 2899              	.LVL421:
 636:..\..\..\arduinoLCD\test\Pain Drain\libraries\lvgl\src\widgets/lv_canvas.c **** }
 2900              		.loc 1 636 0
 2901 0086 2000     		movs	r0, r4
 2902 0088 FFF7FEFF 		bl	lv_obj_invalidate
 2903              	.LVL422:
 2904              	.L127:
 637:..\..\..\arduinoLCD\test\Pain Drain\libraries\lvgl\src\widgets/lv_canvas.c **** 
 2905              		.loc 1 637 0
 2906 008c 73B0     		add	sp, sp, #460
 2907              		@ sp needed
 2908              	.LVL423:
 2909              	.LVL424:
 2910 008e F0BD     		pop	{r4, r5, r6, r7, pc}
 2911              		.cfi_endproc
 2912              	.LFE174:
 2913              		.size	lv_canvas_draw_img, .-lv_canvas_draw_img
 2914              		.section	.text.lv_canvas_draw_line,"ax",%progbits
 2915              		.align	2
 2916              		.global	lv_canvas_draw_line
 2917              		.code	16
 2918              		.thumb_func
 2919              		.type	lv_canvas_draw_line, %function
 2920              	lv_canvas_draw_line:
 2921              	.LFB175:
 641:..\..\..\arduinoLCD\test\Pain Drain\libraries\lvgl\src\widgets/lv_canvas.c ****     LV_ASSERT_OBJ(canvas, MY_CLASS);
 2922              		.loc 1 641 0
 2923              		.cfi_startproc
 2924              		@ args = 0, pretend = 0, frame = 448
 2925              		@ frame_needed = 0, uses_anonymous_args = 0
 2926              	.LVL425:
 2927 0000 F0B5     		push	{r4, r5, r6, r7, lr}
 2928              		.cfi_def_cfa_offset 20
 2929              		.cfi_offset 4, -20
 2930              		.cfi_offset 5, -16
 2931              		.cfi_offset 6, -12
 2932              		.cfi_offset 7, -8
 2933              		.cfi_offset 14, -4
 2934 0002 F1B0     		sub	sp, sp, #452
 2935              		.cfi_def_cfa_offset 472
 2936 0004 0090     		str	r0, [sp]
 2937 0006 0F00     		movs	r7, r1
 2938 0008 1600     		movs	r6, r2
 2939 000a 1D00     		movs	r5, r3
 644:..\..\..\arduinoLCD\test\Pain Drain\libraries\lvgl\src\widgets/lv_canvas.c **** 
 2940              		.loc 1 644 0
 2941 000c FFF7FEFF 		bl	lv_canvas_get_img
 2942              	.LVL426:
 2943 0010 0400     		movs	r4, r0
 2944              	.LVL427:
ARM GAS  C:\Users\haske\AppData\Local\Temp\ccxUXv8a.s 			page 92


 646:..\..\..\arduinoLCD\test\Pain Drain\libraries\lvgl\src\widgets/lv_canvas.c ****         LV_LOG_WARN("lv_canvas_draw_line: can't draw to LV_IMG_CF_INDEXED canvas");
 2945              		.loc 1 646 0
 2946 0012 0378     		ldrb	r3, [r0]
 2947 0014 DB06     		lsls	r3, r3, #27
 2948 0016 DB0E     		lsrs	r3, r3, #27
 2949 0018 1933     		adds	r3, r3, #25
 2950 001a 1F22     		movs	r2, #31
 2951 001c 1340     		ands	r3, r2
 2952 001e 032B     		cmp	r3, #3
 2953 0020 33D9     		bls	.L130
 656:..\..\..\arduinoLCD\test\Pain Drain\libraries\lvgl\src\widgets/lv_canvas.c **** 
 2954              		.loc 1 656 0
 2955 0022 03AB     		add	r3, sp, #12
 2956 0024 05AA     		add	r2, sp, #20
 2957 0026 19A9     		add	r1, sp, #100
 2958 0028 0098     		ldr	r0, [sp]
 2959              	.LVL428:
 2960 002a FFF7FEFF 		bl	init_fake_disp
 2961              	.LVL429:
 658:..\..\..\arduinoLCD\test\Pain Drain\libraries\lvgl\src\widgets/lv_canvas.c ****     _lv_refr_set_disp_refreshing(&fake_disp);
 2962              		.loc 1 658 0
 2963 002e FFF7FEFF 		bl	_lv_refr_get_disp_refreshing
 2964              	.LVL430:
 2965 0032 0190     		str	r0, [sp, #4]
 2966              	.LVL431:
 659:..\..\..\arduinoLCD\test\Pain Drain\libraries\lvgl\src\widgets/lv_canvas.c **** 
 2967              		.loc 1 659 0
 2968 0034 19A8     		add	r0, sp, #100
 2969              	.LVL432:
 2970 0036 FFF7FEFF 		bl	_lv_refr_set_disp_refreshing
 2971              	.LVL433:
 664:..\..\..\arduinoLCD\test\Pain Drain\libraries\lvgl\src\widgets/lv_canvas.c ****        draw_dsc->color.full == ctransp.full) {
 2972              		.loc 1 664 0
 2973 003a 2378     		ldrb	r3, [r4]
 2974 003c 1F22     		movs	r2, #31
 2975 003e 1340     		ands	r3, r2
 2976 0040 062B     		cmp	r3, #6
 2977 0042 09D1     		bne	.L132
 665:..\..\..\arduinoLCD\test\Pain Drain\libraries\lvgl\src\widgets/lv_canvas.c ****         fake_disp.driver->antialiasing = 0;
 2978              		.loc 1 665 0 discriminator 1
 2979 0044 2A88     		ldrh	r2, [r5]
 664:..\..\..\arduinoLCD\test\Pain Drain\libraries\lvgl\src\widgets/lv_canvas.c ****        draw_dsc->color.full == ctransp.full) {
 2980              		.loc 1 664 0 discriminator 1
 2981 0046 FC23     		movs	r3, #252
 2982 0048 DB00     		lsls	r3, r3, #3
 2983 004a 9A42     		cmp	r2, r3
 2984 004c 04D1     		bne	.L132
 666:..\..\..\arduinoLCD\test\Pain Drain\libraries\lvgl\src\widgets/lv_canvas.c ****     }
 2985              		.loc 1 666 0
 2986 004e 199A     		ldr	r2, [sp, #100]
 2987 0050 137C     		ldrb	r3, [r2, #16]
 2988 0052 0821     		movs	r1, #8
 2989 0054 8B43     		bics	r3, r1
 2990 0056 1374     		strb	r3, [r2, #16]
 2991              	.L132:
 641:..\..\..\arduinoLCD\test\Pain Drain\libraries\lvgl\src\widgets/lv_canvas.c ****     LV_ASSERT_OBJ(canvas, MY_CLASS);
 2992              		.loc 1 641 0 discriminator 1
ARM GAS  C:\Users\haske\AppData\Local\Temp\ccxUXv8a.s 			page 93


 2993 0058 0024     		movs	r4, #0
 2994              	.LVL434:
 2995 005a 08E0     		b	.L133
 2996              	.LVL435:
 2997              	.L134:
 671:..\..\..\arduinoLCD\test\Pain Drain\libraries\lvgl\src\widgets/lv_canvas.c ****     }
 2998              		.loc 1 671 0 discriminator 3
 2999 005c A200     		lsls	r2, r4, #2
 3000 005e 0134     		adds	r4, r4, #1
 3001              	.LVL436:
 3002 0060 A300     		lsls	r3, r4, #2
 3003 0062 FB18     		adds	r3, r7, r3
 3004 0064 BA18     		adds	r2, r7, r2
 3005 0066 2900     		movs	r1, r5
 3006 0068 1498     		ldr	r0, [sp, #80]
 3007 006a FFF7FEFF 		bl	lv_draw_line
 3008              	.LVL437:
 3009              	.L133:
 670:..\..\..\arduinoLCD\test\Pain Drain\libraries\lvgl\src\widgets/lv_canvas.c ****         lv_draw_line(driver.draw_ctx, draw_dsc, &points[i], &points[i + 1]);
 3010              		.loc 1 670 0 discriminator 1
 3011 006e 731E     		subs	r3, r6, #1
 3012 0070 9C42     		cmp	r4, r3
 3013 0072 F3D3     		bcc	.L134
 674:..\..\..\arduinoLCD\test\Pain Drain\libraries\lvgl\src\widgets/lv_canvas.c **** 
 3014              		.loc 1 674 0
 3015 0074 0198     		ldr	r0, [sp, #4]
 3016 0076 FFF7FEFF 		bl	_lv_refr_set_disp_refreshing
 3017              	.LVL438:
 676:..\..\..\arduinoLCD\test\Pain Drain\libraries\lvgl\src\widgets/lv_canvas.c **** 
 3018              		.loc 1 676 0
 3019 007a 19A9     		add	r1, sp, #100
 3020 007c 009C     		ldr	r4, [sp]
 3021              	.LVL439:
 3022 007e 2000     		movs	r0, r4
 3023 0080 FFF7FEFF 		bl	deinit_fake_disp
 3024              	.LVL440:
 678:..\..\..\arduinoLCD\test\Pain Drain\libraries\lvgl\src\widgets/lv_canvas.c **** }
 3025              		.loc 1 678 0
 3026 0084 2000     		movs	r0, r4
 3027 0086 FFF7FEFF 		bl	lv_obj_invalidate
 3028              	.LVL441:
 3029              	.L130:
 679:..\..\..\arduinoLCD\test\Pain Drain\libraries\lvgl\src\widgets/lv_canvas.c **** 
 3030              		.loc 1 679 0
 3031 008a 71B0     		add	sp, sp, #452
 3032              	.LVL442:
 3033              		@ sp needed
 3034              	.LVL443:
 3035              	.LVL444:
 3036              	.LVL445:
 3037 008c F0BD     		pop	{r4, r5, r6, r7, pc}
 3038              		.cfi_endproc
 3039              	.LFE175:
 3040              		.size	lv_canvas_draw_line, .-lv_canvas_draw_line
 3041 008e C046     		.section	.text.lv_canvas_draw_polygon,"ax",%progbits
 3042              		.align	2
 3043              		.global	lv_canvas_draw_polygon
ARM GAS  C:\Users\haske\AppData\Local\Temp\ccxUXv8a.s 			page 94


 3044              		.code	16
 3045              		.thumb_func
 3046              		.type	lv_canvas_draw_polygon, %function
 3047              	lv_canvas_draw_polygon:
 3048              	.LFB176:
 683:..\..\..\arduinoLCD\test\Pain Drain\libraries\lvgl\src\widgets/lv_canvas.c ****     LV_ASSERT_OBJ(canvas, MY_CLASS);
 3049              		.loc 1 683 0
 3050              		.cfi_startproc
 3051              		@ args = 0, pretend = 0, frame = 448
 3052              		@ frame_needed = 0, uses_anonymous_args = 0
 3053              	.LVL446:
 3054 0000 F0B5     		push	{r4, r5, r6, r7, lr}
 3055              		.cfi_def_cfa_offset 20
 3056              		.cfi_offset 4, -20
 3057              		.cfi_offset 5, -16
 3058              		.cfi_offset 6, -12
 3059              		.cfi_offset 7, -8
 3060              		.cfi_offset 14, -4
 3061 0002 F1B0     		sub	sp, sp, #452
 3062              		.cfi_def_cfa_offset 472
 3063 0004 0400     		movs	r4, r0
 3064 0006 0F00     		movs	r7, r1
 3065 0008 0092     		str	r2, [sp]
 3066 000a 1E00     		movs	r6, r3
 686:..\..\..\arduinoLCD\test\Pain Drain\libraries\lvgl\src\widgets/lv_canvas.c **** 
 3067              		.loc 1 686 0
 3068 000c FFF7FEFF 		bl	lv_canvas_get_img
 3069              	.LVL447:
 3070 0010 0500     		movs	r5, r0
 3071              	.LVL448:
 688:..\..\..\arduinoLCD\test\Pain Drain\libraries\lvgl\src\widgets/lv_canvas.c ****         LV_LOG_WARN("lv_canvas_draw_polygon: can't draw to LV_IMG_CF_INDEXED canvas");
 3072              		.loc 1 688 0
 3073 0012 0378     		ldrb	r3, [r0]
 3074 0014 DB06     		lsls	r3, r3, #27
 3075 0016 DB0E     		lsrs	r3, r3, #27
 3076 0018 1933     		adds	r3, r3, #25
 3077 001a 1F22     		movs	r2, #31
 3078 001c 1340     		ands	r3, r2
 3079 001e 032B     		cmp	r3, #3
 3080 0020 2BD9     		bls	.L136
 698:..\..\..\arduinoLCD\test\Pain Drain\libraries\lvgl\src\widgets/lv_canvas.c **** 
 3081              		.loc 1 698 0
 3082 0022 03AB     		add	r3, sp, #12
 3083 0024 05AA     		add	r2, sp, #20
 3084 0026 19A9     		add	r1, sp, #100
 3085 0028 2000     		movs	r0, r4
 3086              	.LVL449:
 3087 002a FFF7FEFF 		bl	init_fake_disp
 3088              	.LVL450:
 700:..\..\..\arduinoLCD\test\Pain Drain\libraries\lvgl\src\widgets/lv_canvas.c ****     _lv_refr_set_disp_refreshing(&fake_disp);
 3089              		.loc 1 700 0
 3090 002e FFF7FEFF 		bl	_lv_refr_get_disp_refreshing
 3091              	.LVL451:
 3092 0032 0190     		str	r0, [sp, #4]
 3093              	.LVL452:
 701:..\..\..\arduinoLCD\test\Pain Drain\libraries\lvgl\src\widgets/lv_canvas.c **** 
 3094              		.loc 1 701 0
ARM GAS  C:\Users\haske\AppData\Local\Temp\ccxUXv8a.s 			page 95


 3095 0034 19A8     		add	r0, sp, #100
 3096              	.LVL453:
 3097 0036 FFF7FEFF 		bl	_lv_refr_set_disp_refreshing
 3098              	.LVL454:
 705:..\..\..\arduinoLCD\test\Pain Drain\libraries\lvgl\src\widgets/lv_canvas.c ****        draw_dsc->bg_color.full == ctransp.full) {
 3099              		.loc 1 705 0
 3100 003a 2B78     		ldrb	r3, [r5]
 3101 003c 1F22     		movs	r2, #31
 3102 003e 1340     		ands	r3, r2
 3103 0040 062B     		cmp	r3, #6
 3104 0042 09D1     		bne	.L138
 706:..\..\..\arduinoLCD\test\Pain Drain\libraries\lvgl\src\widgets/lv_canvas.c ****         fake_disp.driver->antialiasing = 0;
 3105              		.loc 1 706 0 discriminator 1
 3106 0044 B288     		ldrh	r2, [r6, #4]
 705:..\..\..\arduinoLCD\test\Pain Drain\libraries\lvgl\src\widgets/lv_canvas.c ****        draw_dsc->bg_color.full == ctransp.full) {
 3107              		.loc 1 705 0 discriminator 1
 3108 0046 FC23     		movs	r3, #252
 3109 0048 DB00     		lsls	r3, r3, #3
 3110 004a 9A42     		cmp	r2, r3
 3111 004c 04D1     		bne	.L138
 707:..\..\..\arduinoLCD\test\Pain Drain\libraries\lvgl\src\widgets/lv_canvas.c ****     }
 3112              		.loc 1 707 0
 3113 004e 199A     		ldr	r2, [sp, #100]
 3114 0050 137C     		ldrb	r3, [r2, #16]
 3115 0052 0821     		movs	r1, #8
 3116 0054 8B43     		bics	r3, r1
 3117 0056 1374     		strb	r3, [r2, #16]
 3118              	.L138:
 710:..\..\..\arduinoLCD\test\Pain Drain\libraries\lvgl\src\widgets/lv_canvas.c **** 
 3119              		.loc 1 710 0
 3120 0058 6B46     		mov	r3, sp
 3121 005a 1B88     		ldrh	r3, [r3]
 3122 005c 3A00     		movs	r2, r7
 3123 005e 3100     		movs	r1, r6
 3124 0060 1498     		ldr	r0, [sp, #80]
 3125 0062 FFF7FEFF 		bl	lv_draw_polygon
 3126              	.LVL455:
 712:..\..\..\arduinoLCD\test\Pain Drain\libraries\lvgl\src\widgets/lv_canvas.c **** 
 3127              		.loc 1 712 0
 3128 0066 0198     		ldr	r0, [sp, #4]
 3129 0068 FFF7FEFF 		bl	_lv_refr_set_disp_refreshing
 3130              	.LVL456:
 714:..\..\..\arduinoLCD\test\Pain Drain\libraries\lvgl\src\widgets/lv_canvas.c **** 
 3131              		.loc 1 714 0
 3132 006c 19A9     		add	r1, sp, #100
 3133 006e 2000     		movs	r0, r4
 3134 0070 FFF7FEFF 		bl	deinit_fake_disp
 3135              	.LVL457:
 716:..\..\..\arduinoLCD\test\Pain Drain\libraries\lvgl\src\widgets/lv_canvas.c **** }
 3136              		.loc 1 716 0
 3137 0074 2000     		movs	r0, r4
 3138 0076 FFF7FEFF 		bl	lv_obj_invalidate
 3139              	.LVL458:
 3140              	.L136:
 717:..\..\..\arduinoLCD\test\Pain Drain\libraries\lvgl\src\widgets/lv_canvas.c **** 
 3141              		.loc 1 717 0
 3142 007a 71B0     		add	sp, sp, #452
ARM GAS  C:\Users\haske\AppData\Local\Temp\ccxUXv8a.s 			page 96


 3143              	.LVL459:
 3144              		@ sp needed
 3145              	.LVL460:
 3146              	.LVL461:
 3147              	.LVL462:
 3148              	.LVL463:
 3149 007c F0BD     		pop	{r4, r5, r6, r7, pc}
 3150              		.cfi_endproc
 3151              	.LFE176:
 3152              		.size	lv_canvas_draw_polygon, .-lv_canvas_draw_polygon
 3153 007e C046     		.section	.text.lv_canvas_draw_arc,"ax",%progbits
 3154              		.align	2
 3155              		.global	lv_canvas_draw_arc
 3156              		.code	16
 3157              		.thumb_func
 3158              		.type	lv_canvas_draw_arc, %function
 3159              	lv_canvas_draw_arc:
 3160              	.LFB177:
 721:..\..\..\arduinoLCD\test\Pain Drain\libraries\lvgl\src\widgets/lv_canvas.c **** #if LV_DRAW_COMPLEX
 3161              		.loc 1 721 0
 3162              		.cfi_startproc
 3163              		@ args = 12, pretend = 0, frame = 448
 3164              		@ frame_needed = 0, uses_anonymous_args = 0
 3165              	.LVL464:
 3166 0000 F0B5     		push	{r4, r5, r6, r7, lr}
 3167              		.cfi_def_cfa_offset 20
 3168              		.cfi_offset 4, -20
 3169              		.cfi_offset 5, -16
 3170              		.cfi_offset 6, -12
 3171              		.cfi_offset 7, -8
 3172              		.cfi_offset 14, -4
 3173 0002 F3B0     		sub	sp, sp, #460
 3174              		.cfi_def_cfa_offset 480
 3175 0004 0400     		movs	r4, r0
 3176 0006 0F00     		movs	r7, r1
 3177 0008 1600     		movs	r6, r2
 3178 000a 1D00     		movs	r5, r3
 725:..\..\..\arduinoLCD\test\Pain Drain\libraries\lvgl\src\widgets/lv_canvas.c **** 
 3179              		.loc 1 725 0
 3180 000c FFF7FEFF 		bl	lv_canvas_get_img
 3181              	.LVL465:
 727:..\..\..\arduinoLCD\test\Pain Drain\libraries\lvgl\src\widgets/lv_canvas.c ****         LV_LOG_WARN("lv_canvas_draw_arc: can't draw to LV_IMG_CF_INDEXED canvas");
 3182              		.loc 1 727 0
 3183 0010 0378     		ldrb	r3, [r0]
 3184 0012 DB06     		lsls	r3, r3, #27
 3185 0014 DB0E     		lsrs	r3, r3, #27
 3186 0016 1933     		adds	r3, r3, #25
 3187 0018 1F22     		movs	r2, #31
 3188 001a 1340     		ands	r3, r2
 3189 001c 032B     		cmp	r3, #3
 3190 001e 25D9     		bls	.L140
 737:..\..\..\arduinoLCD\test\Pain Drain\libraries\lvgl\src\widgets/lv_canvas.c **** 
 3191              		.loc 1 737 0
 3192 0020 05AB     		add	r3, sp, #20
 3193 0022 07AA     		add	r2, sp, #28
 3194 0024 1BA9     		add	r1, sp, #108
 3195 0026 2000     		movs	r0, r4
ARM GAS  C:\Users\haske\AppData\Local\Temp\ccxUXv8a.s 			page 97


 3196              	.LVL466:
 3197 0028 FFF7FEFF 		bl	init_fake_disp
 3198              	.LVL467:
 739:..\..\..\arduinoLCD\test\Pain Drain\libraries\lvgl\src\widgets/lv_canvas.c ****     _lv_refr_set_disp_refreshing(&fake_disp);
 3199              		.loc 1 739 0
 3200 002c FFF7FEFF 		bl	_lv_refr_get_disp_refreshing
 3201              	.LVL468:
 3202 0030 0390     		str	r0, [sp, #12]
 3203              	.LVL469:
 740:..\..\..\arduinoLCD\test\Pain Drain\libraries\lvgl\src\widgets/lv_canvas.c **** 
 3204              		.loc 1 740 0
 3205 0032 1BAB     		add	r3, sp, #108
 3206 0034 1800     		movs	r0, r3
 3207              	.LVL470:
 3208 0036 FFF7FEFF 		bl	_lv_refr_set_disp_refreshing
 3209              	.LVL471:
 742:..\..\..\arduinoLCD\test\Pain Drain\libraries\lvgl\src\widgets/lv_canvas.c ****     lv_draw_arc(driver.draw_ctx, draw_dsc, &p, r,  start_angle, end_angle);
 3210              		.loc 1 742 0
 3211 003a 04AB     		add	r3, sp, #16
 3212 003c 1F80     		strh	r7, [r3]
 3213 003e 5E80     		strh	r6, [r3, #2]
 743:..\..\..\arduinoLCD\test\Pain Drain\libraries\lvgl\src\widgets/lv_canvas.c **** 
 3214              		.loc 1 743 0
 3215 0040 ABB2     		uxth	r3, r5
 3216 0042 799A     		ldr	r2, [sp, #484]
 3217 0044 92B2     		uxth	r2, r2
 3218 0046 0192     		str	r2, [sp, #4]
 3219 0048 789A     		ldr	r2, [sp, #480]
 3220 004a 92B2     		uxth	r2, r2
 3221 004c 0092     		str	r2, [sp]
 3222 004e 04AA     		add	r2, sp, #16
 3223 0050 7A99     		ldr	r1, [sp, #488]
 3224 0052 1698     		ldr	r0, [sp, #88]
 3225 0054 FFF7FEFF 		bl	lv_draw_arc
 3226              	.LVL472:
 745:..\..\..\arduinoLCD\test\Pain Drain\libraries\lvgl\src\widgets/lv_canvas.c **** 
 3227              		.loc 1 745 0
 3228 0058 0398     		ldr	r0, [sp, #12]
 3229 005a FFF7FEFF 		bl	_lv_refr_set_disp_refreshing
 3230              	.LVL473:
 747:..\..\..\arduinoLCD\test\Pain Drain\libraries\lvgl\src\widgets/lv_canvas.c **** 
 3231              		.loc 1 747 0
 3232 005e 1BA9     		add	r1, sp, #108
 3233 0060 2000     		movs	r0, r4
 3234 0062 FFF7FEFF 		bl	deinit_fake_disp
 3235              	.LVL474:
 749:..\..\..\arduinoLCD\test\Pain Drain\libraries\lvgl\src\widgets/lv_canvas.c **** #else
 3236              		.loc 1 749 0
 3237 0066 2000     		movs	r0, r4
 3238 0068 FFF7FEFF 		bl	lv_obj_invalidate
 3239              	.LVL475:
 3240              	.L140:
 760:..\..\..\arduinoLCD\test\Pain Drain\libraries\lvgl\src\widgets/lv_canvas.c **** 
 3241              		.loc 1 760 0
 3242 006c 73B0     		add	sp, sp, #460
 3243              		@ sp needed
 3244              	.LVL476:
ARM GAS  C:\Users\haske\AppData\Local\Temp\ccxUXv8a.s 			page 98


 3245 006e F0BD     		pop	{r4, r5, r6, r7, pc}
 3246              		.cfi_endproc
 3247              	.LFE177:
 3248              		.size	lv_canvas_draw_arc, .-lv_canvas_draw_arc
 3249              		.global	lv_canvas_class
 3250              		.section	.rodata
 3251              		.align	2
 3252              		.set	.LANCHOR0,. + 0
 3253              		.type	lv_canvas_class, %object
 3254              		.size	lv_canvas_class, 28
 3255              	lv_canvas_class:
 3256 0000 00000000 		.word	lv_img_class
 3257 0004 00000000 		.word	lv_canvas_constructor
 3258 0008 00000000 		.word	lv_canvas_destructor
 3259 000c 00000000 		.space	12
 3259      00000000 
 3259      00000000 
 3260 0018 80       		.byte	128
 3261 0019 04       		.byte	4
 3262 001a 00       		.byte	0
 3263 001b 00       		.space	1
 3264              		.text
 3265              	.Letext0:
 3266              		.file 5 "c:\\program files (x86)\\cypress\\psoc creator\\4.4\\psoc creator\\import\\gnu\\arm\\5.4.
 3267              		.file 6 "c:\\program files (x86)\\cypress\\psoc creator\\4.4\\psoc creator\\import\\gnu\\arm\\5.4.
 3268              		.file 7 "c:\\program files (x86)\\cypress\\psoc creator\\4.4\\psoc creator\\import\\gnu\\arm\\5.4.
 3269              		.file 8 "c:\\projects\\paindrain\\arduinolcd\\test\\pain drain\\libraries\\lvgl\\src\\font\\lv_fon
 3270              		.file 9 "c:\\projects\\paindrain\\arduinolcd\\test\\pain drain\\libraries\\lvgl\\src\\misc\\lv_typ
 3271              		.file 10 "c:\\projects\\paindrain\\arduinolcd\\test\\pain drain\\libraries\\lvgl\\src\\misc\\lv_tx
 3272              		.file 11 "c:\\projects\\paindrain\\arduinolcd\\test\\pain drain\\libraries\\lvgl\\src\\misc\\lv_bi
 3273              		.file 12 "c:\\projects\\paindrain\\arduinolcd\\test\\pain drain\\libraries\\lvgl\\src\\misc\\lv_st
 3274              		.file 13 "c:\\projects\\paindrain\\arduinolcd\\test\\pain drain\\libraries\\lvgl\\src\\draw\\lv_im
 3275              		.file 14 "..\\..\\..\\arduinoLCD\\test\\Pain Drain\\libraries\\lvgl\\src\\widgets\\../core/lv_obj.
 3276              		.file 15 "c:\\projects\\paindrain\\arduinolcd\\test\\pain drain\\libraries\\lvgl\\src\\draw\\lv_dr
 3277              		.file 16 "c:\\projects\\paindrain\\arduinolcd\\test\\pain drain\\libraries\\lvgl\\src\\draw\\lv_dr
 3278              		.file 17 "c:\\projects\\paindrain\\arduinolcd\\test\\pain drain\\libraries\\lvgl\\src\\draw\\lv_dr
 3279              		.file 18 "c:\\projects\\paindrain\\arduinolcd\\test\\pain drain\\libraries\\lvgl\\src\\draw\\lv_dr
 3280              		.file 19 "c:\\projects\\paindrain\\arduinolcd\\test\\pain drain\\libraries\\lvgl\\src\\draw\\lv_dr
 3281              		.file 20 "c:\\projects\\paindrain\\arduinolcd\\test\\pain drain\\libraries\\lvgl\\src\\draw\\lv_dr
 3282              		.file 21 "c:\\projects\\paindrain\\arduinolcd\\test\\pain drain\\libraries\\lvgl\\src\\draw\\lv_dr
 3283              		.file 22 "c:\\projects\\paindrain\\arduinolcd\\test\\pain drain\\libraries\\lvgl\\src\\misc\\lv_ll
 3284              		.file 23 "c:\\projects\\paindrain\\arduinolcd\\test\\pain drain\\libraries\\lvgl\\src\\misc\\lv_ti
 3285              		.file 24 "c:\\projects\\paindrain\\arduinolcd\\test\\pain drain\\libraries\\lvgl\\src\\hal\\lv_hal
 3286              		.file 25 "..\\..\\..\\arduinoLCD\\test\\Pain Drain\\libraries\\lvgl\\src\\widgets\\../core/lv_grou
 3287              		.file 26 "..\\..\\..\\arduinoLCD\\test\\Pain Drain\\libraries\\lvgl\\src\\widgets\\../core/lv_obj_
 3288              		.file 27 "..\\..\\..\\arduinoLCD\\test\\Pain Drain\\libraries\\lvgl\\src\\widgets\\../core/lv_obj_
 3289              		.file 28 "..\\..\\..\\arduinoLCD\\test\\Pain Drain\\libraries\\lvgl\\src\\widgets\\../core/lv_obj_
 3290              		.file 29 "..\\..\\..\\arduinoLCD\\test\\Pain Drain\\libraries\\lvgl\\src\\widgets\\../core/lv_even
 3291              		.file 30 "..\\..\\..\\arduinoLCD\\test\\Pain Drain\\libraries\\lvgl\\src\\widgets\\../widgets/lv_i
 3292              		.file 31 "..\\..\\..\\arduinoLCD\\test\\Pain Drain\\libraries\\lvgl\\src\\widgets\\lv_canvas.h"
 3293              		.file 32 "c:\\projects\\paindrain\\arduinolcd\\test\\pain drain\\libraries\\lvgl\\src\\draw\\lv_im
 3294              		.file 33 "..\\..\\..\\arduinoLCD\\test\\Pain Drain\\libraries\\lvgl\\src\\widgets\\../draw/sw/lv_d
 3295              		.file 34 "c:\\projects\\paindrain\\arduinolcd\\test\\pain drain\\libraries\\lvgl\\src\\misc\\lv_me
 3296              		.file 35 "c:\\projects\\paindrain\\arduinolcd\\test\\pain drain\\libraries\\lvgl\\src\\core\\lv_ob
 3297              		.file 36 "..\\..\\..\\arduinoLCD\\test\\Pain Drain\\libraries\\lvgl\\src\\widgets\\../core/lv_refr
 3298              		.file 37 "c:\\projects\\paindrain\\arduinolcd\\test\\pain drain\\libraries\\lvgl\\src\\draw\\lv_im
 3299              		.file 38 "c:\\projects\\paindrain\\arduinolcd\\test\\pain drain\\libraries\\lvgl\\src\\draw\\lv_dr
ARM GAS  C:\Users\haske\AppData\Local\Temp\ccxUXv8a.s 			page 99


 3300              		.section	.debug_info,"",%progbits
 3301              	.Ldebug_info0:
 3302 0000 903A0000 		.4byte	0x3a90
 3303 0004 0400     		.2byte	0x4
 3304 0006 00000000 		.4byte	.Ldebug_abbrev0
 3305 000a 04       		.byte	0x4
 3306 000b 01       		.uleb128 0x1
 3307 000c 4C090000 		.4byte	.LASF633
 3308 0010 0C       		.byte	0xc
 3309 0011 BE0F0000 		.4byte	.LASF634
 3310 0015 AD200000 		.4byte	.LASF635
 3311 0019 18000000 		.4byte	.Ldebug_ranges0+0x18
 3312 001d 00000000 		.4byte	0
 3313 0021 00000000 		.4byte	.Ldebug_line0
 3314 0025 02       		.uleb128 0x2
 3315 0026 C81A0000 		.4byte	.LASF0
 3316 002a 05       		.byte	0x5
 3317 002b 1B       		.byte	0x1b
 3318 002c 30000000 		.4byte	0x30
 3319 0030 03       		.uleb128 0x3
 3320 0031 01       		.byte	0x1
 3321 0032 06       		.byte	0x6
 3322 0033 2B070000 		.4byte	.LASF2
 3323 0037 02       		.uleb128 0x2
 3324 0038 B9040000 		.4byte	.LASF1
 3325 003c 05       		.byte	0x5
 3326 003d 1D       		.byte	0x1d
 3327 003e 42000000 		.4byte	0x42
 3328 0042 03       		.uleb128 0x3
 3329 0043 01       		.byte	0x1
 3330 0044 08       		.byte	0x8
 3331 0045 D3070000 		.4byte	.LASF3
 3332 0049 02       		.uleb128 0x2
 3333 004a 581D0000 		.4byte	.LASF4
 3334 004e 05       		.byte	0x5
 3335 004f 29       		.byte	0x29
 3336 0050 54000000 		.4byte	0x54
 3337 0054 03       		.uleb128 0x3
 3338 0055 02       		.byte	0x2
 3339 0056 05       		.byte	0x5
 3340 0057 341F0000 		.4byte	.LASF5
 3341 005b 02       		.uleb128 0x2
 3342 005c 5F0B0000 		.4byte	.LASF6
 3343 0060 05       		.byte	0x5
 3344 0061 2B       		.byte	0x2b
 3345 0062 66000000 		.4byte	0x66
 3346 0066 03       		.uleb128 0x3
 3347 0067 02       		.byte	0x2
 3348 0068 07       		.byte	0x7
 3349 0069 DE220000 		.4byte	.LASF7
 3350 006d 02       		.uleb128 0x2
 3351 006e A7230000 		.4byte	.LASF8
 3352 0072 05       		.byte	0x5
 3353 0073 3F       		.byte	0x3f
 3354 0074 78000000 		.4byte	0x78
 3355 0078 03       		.uleb128 0x3
 3356 0079 04       		.byte	0x4
ARM GAS  C:\Users\haske\AppData\Local\Temp\ccxUXv8a.s 			page 100


 3357 007a 05       		.byte	0x5
 3358 007b AF050000 		.4byte	.LASF9
 3359 007f 02       		.uleb128 0x2
 3360 0080 E2120000 		.4byte	.LASF10
 3361 0084 05       		.byte	0x5
 3362 0085 41       		.byte	0x41
 3363 0086 8A000000 		.4byte	0x8a
 3364 008a 03       		.uleb128 0x3
 3365 008b 04       		.byte	0x4
 3366 008c 07       		.byte	0x7
 3367 008d 52100000 		.4byte	.LASF11
 3368 0091 03       		.uleb128 0x3
 3369 0092 08       		.byte	0x8
 3370 0093 05       		.byte	0x5
 3371 0094 29130000 		.4byte	.LASF12
 3372 0098 03       		.uleb128 0x3
 3373 0099 08       		.byte	0x8
 3374 009a 07       		.byte	0x7
 3375 009b 141B0000 		.4byte	.LASF13
 3376 009f 04       		.uleb128 0x4
 3377 00a0 04       		.byte	0x4
 3378 00a1 05       		.byte	0x5
 3379 00a2 696E7400 		.ascii	"int\000"
 3380 00a6 03       		.uleb128 0x3
 3381 00a7 04       		.byte	0x4
 3382 00a8 07       		.byte	0x7
 3383 00a9 23150000 		.4byte	.LASF14
 3384 00ad 02       		.uleb128 0x2
 3385 00ae 09000000 		.4byte	.LASF15
 3386 00b2 06       		.byte	0x6
 3387 00b3 14       		.byte	0x14
 3388 00b4 25000000 		.4byte	0x25
 3389 00b8 02       		.uleb128 0x2
 3390 00b9 37070000 		.4byte	.LASF16
 3391 00bd 06       		.byte	0x6
 3392 00be 18       		.byte	0x18
 3393 00bf 37000000 		.4byte	0x37
 3394 00c3 02       		.uleb128 0x2
 3395 00c4 D61F0000 		.4byte	.LASF17
 3396 00c8 06       		.byte	0x6
 3397 00c9 20       		.byte	0x20
 3398 00ca 49000000 		.4byte	0x49
 3399 00ce 02       		.uleb128 0x2
 3400 00cf 971B0000 		.4byte	.LASF18
 3401 00d3 06       		.byte	0x6
 3402 00d4 24       		.byte	0x24
 3403 00d5 5B000000 		.4byte	0x5b
 3404 00d9 02       		.uleb128 0x2
 3405 00da 53010000 		.4byte	.LASF19
 3406 00de 06       		.byte	0x6
 3407 00df 2C       		.byte	0x2c
 3408 00e0 6D000000 		.4byte	0x6d
 3409 00e4 02       		.uleb128 0x2
 3410 00e5 49220000 		.4byte	.LASF20
 3411 00e9 06       		.byte	0x6
 3412 00ea 30       		.byte	0x30
 3413 00eb 7F000000 		.4byte	0x7f
ARM GAS  C:\Users\haske\AppData\Local\Temp\ccxUXv8a.s 			page 101


 3414 00ef 02       		.uleb128 0x2
 3415 00f0 83000000 		.4byte	.LASF21
 3416 00f4 07       		.byte	0x7
 3417 00f5 D8       		.byte	0xd8
 3418 00f6 A6000000 		.4byte	0xa6
 3419 00fa 03       		.uleb128 0x3
 3420 00fb 08       		.byte	0x8
 3421 00fc 04       		.byte	0x4
 3422 00fd 1E190000 		.4byte	.LASF22
 3423 0101 02       		.uleb128 0x2
 3424 0102 FE220000 		.4byte	.LASF23
 3425 0106 03       		.byte	0x3
 3426 0107 1B       		.byte	0x1b
 3427 0108 C3000000 		.4byte	0xc3
 3428 010c 05       		.uleb128 0x5
 3429 010d 04       		.byte	0x4
 3430 010e 03       		.byte	0x3
 3431 010f 25       		.byte	0x25
 3432 0110 29010000 		.4byte	0x129
 3433 0114 06       		.uleb128 0x6
 3434 0115 7800     		.ascii	"x\000"
 3435 0117 03       		.byte	0x3
 3436 0118 26       		.byte	0x26
 3437 0119 01010000 		.4byte	0x101
 3438 011d 00       		.byte	0
 3439 011e 06       		.uleb128 0x6
 3440 011f 7900     		.ascii	"y\000"
 3441 0121 03       		.byte	0x3
 3442 0122 27       		.byte	0x27
 3443 0123 01010000 		.4byte	0x101
 3444 0127 02       		.byte	0x2
 3445 0128 00       		.byte	0
 3446 0129 02       		.uleb128 0x2
 3447 012a B0010000 		.4byte	.LASF24
 3448 012e 03       		.byte	0x3
 3449 012f 28       		.byte	0x28
 3450 0130 0C010000 		.4byte	0x10c
 3451 0134 05       		.uleb128 0x5
 3452 0135 08       		.byte	0x8
 3453 0136 03       		.byte	0x3
 3454 0137 2B       		.byte	0x2b
 3455 0138 69010000 		.4byte	0x169
 3456 013c 06       		.uleb128 0x6
 3457 013d 783100   		.ascii	"x1\000"
 3458 0140 03       		.byte	0x3
 3459 0141 2C       		.byte	0x2c
 3460 0142 01010000 		.4byte	0x101
 3461 0146 00       		.byte	0
 3462 0147 06       		.uleb128 0x6
 3463 0148 793100   		.ascii	"y1\000"
 3464 014b 03       		.byte	0x3
 3465 014c 2D       		.byte	0x2d
 3466 014d 01010000 		.4byte	0x101
 3467 0151 02       		.byte	0x2
 3468 0152 06       		.uleb128 0x6
 3469 0153 783200   		.ascii	"x2\000"
 3470 0156 03       		.byte	0x3
ARM GAS  C:\Users\haske\AppData\Local\Temp\ccxUXv8a.s 			page 102


 3471 0157 2E       		.byte	0x2e
 3472 0158 01010000 		.4byte	0x101
 3473 015c 04       		.byte	0x4
 3474 015d 06       		.uleb128 0x6
 3475 015e 793200   		.ascii	"y2\000"
 3476 0161 03       		.byte	0x3
 3477 0162 2F       		.byte	0x2f
 3478 0163 01010000 		.4byte	0x101
 3479 0167 06       		.byte	0x6
 3480 0168 00       		.byte	0
 3481 0169 02       		.uleb128 0x2
 3482 016a 6B0D0000 		.4byte	.LASF25
 3483 016e 03       		.byte	0x3
 3484 016f 30       		.byte	0x30
 3485 0170 34010000 		.4byte	0x134
 3486 0174 02       		.uleb128 0x2
 3487 0175 E20B0000 		.4byte	.LASF26
 3488 0179 03       		.byte	0x3
 3489 017a 59       		.byte	0x59
 3490 017b B8000000 		.4byte	0xb8
 3491 017f 05       		.uleb128 0x5
 3492 0180 10       		.byte	0x10
 3493 0181 08       		.byte	0x8
 3494 0182 29       		.byte	0x29
 3495 0183 EE010000 		.4byte	0x1ee
 3496 0187 07       		.uleb128 0x7
 3497 0188 11110000 		.4byte	.LASF27
 3498 018c 08       		.byte	0x8
 3499 018d 2B       		.byte	0x2b
 3500 018e 76020000 		.4byte	0x276
 3501 0192 00       		.byte	0
 3502 0193 07       		.uleb128 0x7
 3503 0194 8A000000 		.4byte	.LASF28
 3504 0198 08       		.byte	0x8
 3505 0199 2C       		.byte	0x2c
 3506 019a CE000000 		.4byte	0xce
 3507 019e 04       		.byte	0x4
 3508 019f 07       		.uleb128 0x7
 3509 01a0 2E1F0000 		.4byte	.LASF29
 3510 01a4 08       		.byte	0x8
 3511 01a5 2D       		.byte	0x2d
 3512 01a6 CE000000 		.4byte	0xce
 3513 01aa 06       		.byte	0x6
 3514 01ab 07       		.uleb128 0x7
 3515 01ac 0C1F0000 		.4byte	.LASF30
 3516 01b0 08       		.byte	0x8
 3517 01b1 2E       		.byte	0x2e
 3518 01b2 CE000000 		.4byte	0xce
 3519 01b6 08       		.byte	0x8
 3520 01b7 07       		.uleb128 0x7
 3521 01b8 B6080000 		.4byte	.LASF31
 3522 01bc 08       		.byte	0x8
 3523 01bd 2F       		.byte	0x2f
 3524 01be C3000000 		.4byte	0xc3
 3525 01c2 0A       		.byte	0xa
 3526 01c3 07       		.uleb128 0x7
 3527 01c4 BC080000 		.4byte	.LASF32
ARM GAS  C:\Users\haske\AppData\Local\Temp\ccxUXv8a.s 			page 103


 3528 01c8 08       		.byte	0x8
 3529 01c9 30       		.byte	0x30
 3530 01ca C3000000 		.4byte	0xc3
 3531 01ce 0C       		.byte	0xc
 3532 01cf 08       		.uleb128 0x8
 3533 01d0 62707000 		.ascii	"bpp\000"
 3534 01d4 08       		.byte	0x8
 3535 01d5 31       		.byte	0x31
 3536 01d6 B8000000 		.4byte	0xb8
 3537 01da 01       		.byte	0x1
 3538 01db 04       		.byte	0x4
 3539 01dc 04       		.byte	0x4
 3540 01dd 0E       		.byte	0xe
 3541 01de 09       		.uleb128 0x9
 3542 01df 0F250000 		.4byte	.LASF33
 3543 01e3 08       		.byte	0x8
 3544 01e4 32       		.byte	0x32
 3545 01e5 B8000000 		.4byte	0xb8
 3546 01e9 01       		.byte	0x1
 3547 01ea 01       		.byte	0x1
 3548 01eb 03       		.byte	0x3
 3549 01ec 0E       		.byte	0xe
 3550 01ed 00       		.byte	0
 3551 01ee 0A       		.uleb128 0xa
 3552 01ef CF120000 		.4byte	.LASF232
 3553 01f3 1C       		.byte	0x1c
 3554 01f4 08       		.byte	0x8
 3555 01f5 40       		.byte	0x40
 3556 01f6 76020000 		.4byte	0x276
 3557 01fa 07       		.uleb128 0x7
 3558 01fb 99230000 		.4byte	.LASF34
 3559 01ff 08       		.byte	0x8
 3560 0200 42       		.byte	0x42
 3561 0201 B7020000 		.4byte	0x2b7
 3562 0205 00       		.byte	0
 3563 0206 07       		.uleb128 0x7
 3564 0207 82070000 		.4byte	.LASF35
 3565 020b 08       		.byte	0x8
 3566 020c 45       		.byte	0x45
 3567 020d DC020000 		.4byte	0x2dc
 3568 0211 04       		.byte	0x4
 3569 0212 07       		.uleb128 0x7
 3570 0213 17020000 		.4byte	.LASF36
 3571 0217 08       		.byte	0x8
 3572 0218 48       		.byte	0x48
 3573 0219 01010000 		.4byte	0x101
 3574 021d 08       		.byte	0x8
 3575 021e 07       		.uleb128 0x7
 3576 021f 3E1F0000 		.4byte	.LASF37
 3577 0223 08       		.byte	0x8
 3578 0224 49       		.byte	0x49
 3579 0225 01010000 		.4byte	0x101
 3580 0229 0A       		.byte	0xa
 3581 022a 09       		.uleb128 0x9
 3582 022b 60190000 		.4byte	.LASF38
 3583 022f 08       		.byte	0x8
 3584 0230 4A       		.byte	0x4a
ARM GAS  C:\Users\haske\AppData\Local\Temp\ccxUXv8a.s 			page 104


 3585 0231 B8000000 		.4byte	0xb8
 3586 0235 01       		.byte	0x1
 3587 0236 02       		.byte	0x2
 3588 0237 06       		.byte	0x6
 3589 0238 0C       		.byte	0xc
 3590 0239 07       		.uleb128 0x7
 3591 023a 720A0000 		.4byte	.LASF39
 3592 023e 08       		.byte	0x8
 3593 023f 4C       		.byte	0x4c
 3594 0240 AD000000 		.4byte	0xad
 3595 0244 0D       		.byte	0xd
 3596 0245 07       		.uleb128 0x7
 3597 0246 0C140000 		.4byte	.LASF40
 3598 024a 08       		.byte	0x8
 3599 024b 4D       		.byte	0x4d
 3600 024c AD000000 		.4byte	0xad
 3601 0250 0E       		.byte	0xe
 3602 0251 06       		.uleb128 0x6
 3603 0252 64736300 		.ascii	"dsc\000"
 3604 0256 08       		.byte	0x8
 3605 0257 4F       		.byte	0x4f
 3606 0258 E2020000 		.4byte	0x2e2
 3607 025c 10       		.byte	0x10
 3608 025d 07       		.uleb128 0x7
 3609 025e 140D0000 		.4byte	.LASF41
 3610 0262 08       		.byte	0x8
 3611 0263 50       		.byte	0x50
 3612 0264 76020000 		.4byte	0x276
 3613 0268 14       		.byte	0x14
 3614 0269 07       		.uleb128 0x7
 3615 026a 29230000 		.4byte	.LASF42
 3616 026e 08       		.byte	0x8
 3617 026f 52       		.byte	0x52
 3618 0270 E9020000 		.4byte	0x2e9
 3619 0274 18       		.byte	0x18
 3620 0275 00       		.byte	0
 3621 0276 0B       		.uleb128 0xb
 3622 0277 04       		.byte	0x4
 3623 0278 7C020000 		.4byte	0x27c
 3624 027c 0C       		.uleb128 0xc
 3625 027d EE010000 		.4byte	0x1ee
 3626 0281 02       		.uleb128 0x2
 3627 0282 F2160000 		.4byte	.LASF43
 3628 0286 08       		.byte	0x8
 3629 0287 33       		.byte	0x33
 3630 0288 7F010000 		.4byte	0x17f
 3631 028c 0D       		.uleb128 0xd
 3632 028d AA020000 		.4byte	0x2aa
 3633 0291 AA020000 		.4byte	0x2aa
 3634 0295 0E       		.uleb128 0xe
 3635 0296 76020000 		.4byte	0x276
 3636 029a 0E       		.uleb128 0xe
 3637 029b B1020000 		.4byte	0x2b1
 3638 029f 0E       		.uleb128 0xe
 3639 02a0 E4000000 		.4byte	0xe4
 3640 02a4 0E       		.uleb128 0xe
 3641 02a5 E4000000 		.4byte	0xe4
ARM GAS  C:\Users\haske\AppData\Local\Temp\ccxUXv8a.s 			page 105


 3642 02a9 00       		.byte	0
 3643 02aa 03       		.uleb128 0x3
 3644 02ab 01       		.byte	0x1
 3645 02ac 02       		.byte	0x2
 3646 02ad F3080000 		.4byte	.LASF44
 3647 02b1 0B       		.uleb128 0xb
 3648 02b2 04       		.byte	0x4
 3649 02b3 81020000 		.4byte	0x281
 3650 02b7 0B       		.uleb128 0xb
 3651 02b8 04       		.byte	0x4
 3652 02b9 8C020000 		.4byte	0x28c
 3653 02bd 0D       		.uleb128 0xd
 3654 02be D1020000 		.4byte	0x2d1
 3655 02c2 D1020000 		.4byte	0x2d1
 3656 02c6 0E       		.uleb128 0xe
 3657 02c7 76020000 		.4byte	0x276
 3658 02cb 0E       		.uleb128 0xe
 3659 02cc E4000000 		.4byte	0xe4
 3660 02d0 00       		.byte	0
 3661 02d1 0B       		.uleb128 0xb
 3662 02d2 04       		.byte	0x4
 3663 02d3 D7020000 		.4byte	0x2d7
 3664 02d7 0C       		.uleb128 0xc
 3665 02d8 B8000000 		.4byte	0xb8
 3666 02dc 0B       		.uleb128 0xb
 3667 02dd 04       		.byte	0x4
 3668 02de BD020000 		.4byte	0x2bd
 3669 02e2 0B       		.uleb128 0xb
 3670 02e3 04       		.byte	0x4
 3671 02e4 E8020000 		.4byte	0x2e8
 3672 02e8 0F       		.uleb128 0xf
 3673 02e9 10       		.uleb128 0x10
 3674 02ea 04       		.byte	0x4
 3675 02eb 02       		.uleb128 0x2
 3676 02ec A2220000 		.4byte	.LASF45
 3677 02f0 08       		.byte	0x8
 3678 02f1 54       		.byte	0x54
 3679 02f2 EE010000 		.4byte	0x1ee
 3680 02f6 11       		.uleb128 0x11
 3681 02f7 01       		.byte	0x1
 3682 02f8 42000000 		.4byte	0x42
 3683 02fc 09       		.byte	0x9
 3684 02fd 2A       		.byte	0x2a
 3685 02fe 0F030000 		.4byte	0x30f
 3686 0302 12       		.uleb128 0x12
 3687 0303 28030000 		.4byte	.LASF46
 3688 0307 00       		.byte	0
 3689 0308 12       		.uleb128 0x12
 3690 0309 A01B0000 		.4byte	.LASF47
 3691 030d 01       		.byte	0x1
 3692 030e 00       		.byte	0
 3693 030f 02       		.uleb128 0x2
 3694 0310 F3180000 		.4byte	.LASF48
 3695 0314 09       		.byte	0x9
 3696 0315 2F       		.byte	0x2f
 3697 0316 B8000000 		.4byte	0xb8
 3698 031a 03       		.uleb128 0x3
ARM GAS  C:\Users\haske\AppData\Local\Temp\ccxUXv8a.s 			page 106


 3699 031b 04       		.byte	0x4
 3700 031c 07       		.byte	0x7
 3701 031d 9C000000 		.4byte	.LASF49
 3702 0321 03       		.uleb128 0x3
 3703 0322 01       		.byte	0x1
 3704 0323 08       		.byte	0x8
 3705 0324 320A0000 		.4byte	.LASF50
 3706 0328 0B       		.uleb128 0xb
 3707 0329 04       		.byte	0x4
 3708 032a 2E030000 		.4byte	0x32e
 3709 032e 0C       		.uleb128 0xc
 3710 032f 21030000 		.4byte	0x321
 3711 0333 11       		.uleb128 0x11
 3712 0334 01       		.byte	0x1
 3713 0335 42000000 		.4byte	0x42
 3714 0339 04       		.byte	0x4
 3715 033a 29       		.byte	0x29
 3716 033b 8E030000 		.4byte	0x38e
 3717 033f 12       		.uleb128 0x12
 3718 0340 50140000 		.4byte	.LASF51
 3719 0344 00       		.byte	0
 3720 0345 12       		.uleb128 0x12
 3721 0346 52110000 		.4byte	.LASF52
 3722 034a 00       		.byte	0
 3723 034b 12       		.uleb128 0x12
 3724 034c BA1C0000 		.4byte	.LASF53
 3725 0350 19       		.byte	0x19
 3726 0351 12       		.uleb128 0x12
 3727 0352 F41D0000 		.4byte	.LASF54
 3728 0356 33       		.byte	0x33
 3729 0357 12       		.uleb128 0x12
 3730 0358 981E0000 		.4byte	.LASF55
 3731 035c 4C       		.byte	0x4c
 3732 035d 12       		.uleb128 0x12
 3733 035e CC1F0000 		.4byte	.LASF56
 3734 0362 66       		.byte	0x66
 3735 0363 12       		.uleb128 0x12
 3736 0364 A3200000 		.4byte	.LASF57
 3737 0368 7F       		.byte	0x7f
 3738 0369 12       		.uleb128 0x12
 3739 036a D2210000 		.4byte	.LASF58
 3740 036e 99       		.byte	0x99
 3741 036f 12       		.uleb128 0x12
 3742 0370 D4220000 		.4byte	.LASF59
 3743 0374 B2       		.byte	0xb2
 3744 0375 12       		.uleb128 0x12
 3745 0376 1B240000 		.4byte	.LASF60
 3746 037a CC       		.byte	0xcc
 3747 037b 12       		.uleb128 0x12
 3748 037c 47250000 		.4byte	.LASF61
 3749 0380 E5       		.byte	0xe5
 3750 0381 12       		.uleb128 0x12
 3751 0382 FA170000 		.4byte	.LASF62
 3752 0386 FF       		.byte	0xff
 3753 0387 12       		.uleb128 0x12
 3754 0388 66190000 		.4byte	.LASF63
 3755 038c FF       		.byte	0xff
ARM GAS  C:\Users\haske\AppData\Local\Temp\ccxUXv8a.s 			page 107


 3756 038d 00       		.byte	0
 3757 038e 05       		.uleb128 0x5
 3758 038f 02       		.byte	0x2
 3759 0390 04       		.byte	0x4
 3760 0391 D1       		.byte	0xd1
 3761 0392 C4030000 		.4byte	0x3c4
 3762 0396 09       		.uleb128 0x9
 3763 0397 B1070000 		.4byte	.LASF64
 3764 039b 04       		.byte	0x4
 3765 039c D3       		.byte	0xd3
 3766 039d CE000000 		.4byte	0xce
 3767 03a1 02       		.byte	0x2
 3768 03a2 05       		.byte	0x5
 3769 03a3 0B       		.byte	0xb
 3770 03a4 00       		.byte	0
 3771 03a5 09       		.uleb128 0x9
 3772 03a6 9C220000 		.4byte	.LASF65
 3773 03aa 04       		.byte	0x4
 3774 03ab D4       		.byte	0xd4
 3775 03ac CE000000 		.4byte	0xce
 3776 03b0 02       		.byte	0x2
 3777 03b1 06       		.byte	0x6
 3778 03b2 05       		.byte	0x5
 3779 03b3 00       		.byte	0
 3780 03b4 08       		.uleb128 0x8
 3781 03b5 72656400 		.ascii	"red\000"
 3782 03b9 04       		.byte	0x4
 3783 03ba D5       		.byte	0xd5
 3784 03bb CE000000 		.4byte	0xce
 3785 03bf 02       		.byte	0x2
 3786 03c0 05       		.byte	0x5
 3787 03c1 00       		.byte	0
 3788 03c2 00       		.byte	0
 3789 03c3 00       		.byte	0
 3790 03c4 13       		.uleb128 0x13
 3791 03c5 02       		.byte	0x2
 3792 03c6 04       		.byte	0x4
 3793 03c7 D0       		.byte	0xd0
 3794 03c8 E2030000 		.4byte	0x3e2
 3795 03cc 14       		.uleb128 0x14
 3796 03cd 636800   		.ascii	"ch\000"
 3797 03d0 04       		.byte	0x4
 3798 03d1 DC       		.byte	0xdc
 3799 03d2 8E030000 		.4byte	0x38e
 3800 03d6 15       		.uleb128 0x15
 3801 03d7 DB1D0000 		.4byte	.LASF66
 3802 03db 04       		.byte	0x4
 3803 03dc DD       		.byte	0xdd
 3804 03dd CE000000 		.4byte	0xce
 3805 03e1 00       		.byte	0
 3806 03e2 02       		.uleb128 0x2
 3807 03e3 211F0000 		.4byte	.LASF67
 3808 03e7 04       		.byte	0x4
 3809 03e8 DE       		.byte	0xde
 3810 03e9 C4030000 		.4byte	0x3c4
 3811 03ed 02       		.uleb128 0x2
 3812 03ee FE1B0000 		.4byte	.LASF68
ARM GAS  C:\Users\haske\AppData\Local\Temp\ccxUXv8a.s 			page 108


 3813 03f2 04       		.byte	0x4
 3814 03f3 EB       		.byte	0xeb
 3815 03f4 E2030000 		.4byte	0x3e2
 3816 03f8 02       		.uleb128 0x2
 3817 03f9 31010000 		.4byte	.LASF69
 3818 03fd 04       		.byte	0x4
 3819 03fe F5       		.byte	0xf5
 3820 03ff B8000000 		.4byte	0xb8
 3821 0403 02       		.uleb128 0x2
 3822 0404 6C1C0000 		.4byte	.LASF70
 3823 0408 0A       		.byte	0xa
 3824 0409 30       		.byte	0x30
 3825 040a B8000000 		.4byte	0xb8
 3826 040e 02       		.uleb128 0x2
 3827 040f E4130000 		.4byte	.LASF71
 3828 0413 0A       		.byte	0xa
 3829 0414 42       		.byte	0x42
 3830 0415 B8000000 		.4byte	0xb8
 3831 0419 02       		.uleb128 0x2
 3832 041a C7080000 		.4byte	.LASF72
 3833 041e 0B       		.byte	0xb
 3834 041f 2A       		.byte	0x2a
 3835 0420 B8000000 		.4byte	0xb8
 3836 0424 02       		.uleb128 0x2
 3837 0425 23020000 		.4byte	.LASF73
 3838 0429 0C       		.byte	0xc
 3839 042a 5E       		.byte	0x5e
 3840 042b B8000000 		.4byte	0xb8
 3841 042f 02       		.uleb128 0x2
 3842 0430 0D130000 		.4byte	.LASF74
 3843 0434 0C       		.byte	0xc
 3844 0435 6A       		.byte	0x6a
 3845 0436 B8000000 		.4byte	0xb8
 3846 043a 02       		.uleb128 0x2
 3847 043b 521E0000 		.4byte	.LASF75
 3848 043f 0C       		.byte	0xc
 3849 0440 79       		.byte	0x79
 3850 0441 B8000000 		.4byte	0xb8
 3851 0445 02       		.uleb128 0x2
 3852 0446 DC230000 		.4byte	.LASF76
 3853 044a 0C       		.byte	0xc
 3854 044b 84       		.byte	0x84
 3855 044c B8000000 		.4byte	0xb8
 3856 0450 02       		.uleb128 0x2
 3857 0451 30190000 		.4byte	.LASF77
 3858 0455 0C       		.byte	0xc
 3859 0456 90       		.byte	0x90
 3860 0457 B8000000 		.4byte	0xb8
 3861 045b 05       		.uleb128 0x5
 3862 045c 04       		.byte	0x4
 3863 045d 0C       		.byte	0xc
 3864 045e 95       		.byte	0x95
 3865 045f 7C040000 		.4byte	0x47c
 3866 0463 07       		.uleb128 0x7
 3867 0464 FE1D0000 		.4byte	.LASF78
 3868 0468 0C       		.byte	0xc
 3869 0469 96       		.byte	0x96
ARM GAS  C:\Users\haske\AppData\Local\Temp\ccxUXv8a.s 			page 109


 3870 046a ED030000 		.4byte	0x3ed
 3871 046e 00       		.byte	0
 3872 046f 07       		.uleb128 0x7
 3873 0470 631E0000 		.4byte	.LASF79
 3874 0474 0C       		.byte	0xc
 3875 0475 97       		.byte	0x97
 3876 0476 B8000000 		.4byte	0xb8
 3877 047a 02       		.byte	0x2
 3878 047b 00       		.byte	0
 3879 047c 02       		.uleb128 0x2
 3880 047d 9E210000 		.4byte	.LASF80
 3881 0481 0C       		.byte	0xc
 3882 0482 98       		.byte	0x98
 3883 0483 5B040000 		.4byte	0x45b
 3884 0487 05       		.uleb128 0x5
 3885 0488 0A       		.byte	0xa
 3886 0489 0C       		.byte	0xc
 3887 048a 9B       		.byte	0x9b
 3888 048b C6040000 		.4byte	0x4c6
 3889 048f 07       		.uleb128 0x7
 3890 0490 0A1E0000 		.4byte	.LASF81
 3891 0494 0C       		.byte	0xc
 3892 0495 9C       		.byte	0x9c
 3893 0496 C6040000 		.4byte	0x4c6
 3894 049a 00       		.byte	0
 3895 049b 07       		.uleb128 0x7
 3896 049c 370B0000 		.4byte	.LASF82
 3897 04a0 0C       		.byte	0xc
 3898 04a1 9D       		.byte	0x9d
 3899 04a2 B8000000 		.4byte	0xb8
 3900 04a6 08       		.byte	0x8
 3901 04a7 08       		.uleb128 0x8
 3902 04a8 64697200 		.ascii	"dir\000"
 3903 04ac 0C       		.byte	0xc
 3904 04ad 9E       		.byte	0x9e
 3905 04ae 45040000 		.4byte	0x445
 3906 04b2 01       		.byte	0x1
 3907 04b3 03       		.byte	0x3
 3908 04b4 05       		.byte	0x5
 3909 04b5 09       		.byte	0x9
 3910 04b6 09       		.uleb128 0x9
 3911 04b7 CD220000 		.4byte	.LASF83
 3912 04bb 0C       		.byte	0xc
 3913 04bc A0       		.byte	0xa0
 3914 04bd 50040000 		.4byte	0x450
 3915 04c1 01       		.byte	0x1
 3916 04c2 03       		.byte	0x3
 3917 04c3 02       		.byte	0x2
 3918 04c4 09       		.byte	0x9
 3919 04c5 00       		.byte	0
 3920 04c6 16       		.uleb128 0x16
 3921 04c7 7C040000 		.4byte	0x47c
 3922 04cb D6040000 		.4byte	0x4d6
 3923 04cf 17       		.uleb128 0x17
 3924 04d0 1A030000 		.4byte	0x31a
 3925 04d4 01       		.byte	0x1
 3926 04d5 00       		.byte	0
ARM GAS  C:\Users\haske\AppData\Local\Temp\ccxUXv8a.s 			page 110


 3927 04d6 02       		.uleb128 0x2
 3928 04d7 B8240000 		.4byte	.LASF84
 3929 04db 0C       		.byte	0xc
 3930 04dc A2       		.byte	0xa2
 3931 04dd 87040000 		.4byte	0x487
 3932 04e1 13       		.uleb128 0x13
 3933 04e2 04       		.byte	0x4
 3934 04e3 0C       		.byte	0xc
 3935 04e4 A7       		.byte	0xa7
 3936 04e5 0B050000 		.4byte	0x50b
 3937 04e9 14       		.uleb128 0x14
 3938 04ea 6E756D00 		.ascii	"num\000"
 3939 04ee 0C       		.byte	0xc
 3940 04ef A8       		.byte	0xa8
 3941 04f0 D9000000 		.4byte	0xd9
 3942 04f4 14       		.uleb128 0x14
 3943 04f5 70747200 		.ascii	"ptr\000"
 3944 04f9 0C       		.byte	0xc
 3945 04fa A9       		.byte	0xa9
 3946 04fb E2020000 		.4byte	0x2e2
 3947 04ff 15       		.uleb128 0x15
 3948 0500 FE1D0000 		.4byte	.LASF78
 3949 0504 0C       		.byte	0xc
 3950 0505 AA       		.byte	0xaa
 3951 0506 ED030000 		.4byte	0x3ed
 3952 050a 00       		.byte	0
 3953 050b 02       		.uleb128 0x2
 3954 050c 70150000 		.4byte	.LASF85
 3955 0510 0C       		.byte	0xc
 3956 0511 AB       		.byte	0xab
 3957 0512 E1040000 		.4byte	0x4e1
 3958 0516 11       		.uleb128 0x11
 3959 0517 02       		.byte	0x2
 3960 0518 66000000 		.4byte	0x66
 3961 051c 0C       		.byte	0xc
 3962 051d B2       		.byte	0xb2
 3963 051e 3B070000 		.4byte	0x73b
 3964 0522 12       		.uleb128 0x12
 3965 0523 0A0E0000 		.4byte	.LASF86
 3966 0527 00       		.byte	0
 3967 0528 12       		.uleb128 0x12
 3968 0529 3D1C0000 		.4byte	.LASF87
 3969 052d 01       		.byte	0x1
 3970 052e 12       		.uleb128 0x12
 3971 052f 591C0000 		.4byte	.LASF88
 3972 0533 02       		.byte	0x2
 3973 0534 12       		.uleb128 0x12
 3974 0535 FE040000 		.4byte	.LASF89
 3975 0539 03       		.byte	0x3
 3976 053a 12       		.uleb128 0x12
 3977 053b CC020000 		.4byte	.LASF90
 3978 053f 04       		.byte	0x4
 3979 0540 12       		.uleb128 0x12
 3980 0541 15210000 		.4byte	.LASF91
 3981 0545 05       		.byte	0x5
 3982 0546 12       		.uleb128 0x12
 3983 0547 841E0000 		.4byte	.LASF92
ARM GAS  C:\Users\haske\AppData\Local\Temp\ccxUXv8a.s 			page 111


 3984 054b 06       		.byte	0x6
 3985 054c 12       		.uleb128 0x12
 3986 054d 87120000 		.4byte	.LASF93
 3987 0551 07       		.byte	0x7
 3988 0552 12       		.uleb128 0x12
 3989 0553 B1210000 		.4byte	.LASF94
 3990 0557 08       		.byte	0x8
 3991 0558 12       		.uleb128 0x12
 3992 0559 C4070000 		.4byte	.LASF95
 3993 055d 09       		.byte	0x9
 3994 055e 12       		.uleb128 0x12
 3995 055f DB160000 		.4byte	.LASF96
 3996 0563 0A       		.byte	0xa
 3997 0564 12       		.uleb128 0x12
 3998 0565 D7040000 		.4byte	.LASF97
 3999 0569 0B       		.byte	0xb
 4000 056a 12       		.uleb128 0x12
 4001 056b 45200000 		.4byte	.LASF98
 4002 056f 10       		.byte	0x10
 4003 0570 12       		.uleb128 0x12
 4004 0571 F70E0000 		.4byte	.LASF99
 4005 0575 11       		.byte	0x11
 4006 0576 12       		.uleb128 0x12
 4007 0577 D5110000 		.4byte	.LASF100
 4008 057b 12       		.byte	0x12
 4009 057c 12       		.uleb128 0x12
 4010 057d 69050000 		.4byte	.LASF101
 4011 0581 13       		.byte	0x13
 4012 0582 12       		.uleb128 0x12
 4013 0583 69110000 		.4byte	.LASF102
 4014 0587 14       		.byte	0x14
 4015 0588 12       		.uleb128 0x12
 4016 0589 1E040000 		.4byte	.LASF103
 4017 058d 15       		.byte	0x15
 4018 058e 12       		.uleb128 0x12
 4019 058f E30A0000 		.4byte	.LASF104
 4020 0593 16       		.byte	0x16
 4021 0594 12       		.uleb128 0x12
 4022 0595 A4170000 		.4byte	.LASF105
 4023 0599 17       		.byte	0x17
 4024 059a 12       		.uleb128 0x12
 4025 059b 960B0000 		.4byte	.LASF106
 4026 059f 20       		.byte	0x20
 4027 05a0 12       		.uleb128 0x12
 4028 05a1 7B0F0000 		.4byte	.LASF107
 4029 05a5 21       		.byte	0x21
 4030 05a6 12       		.uleb128 0x12
 4031 05a7 EC1E0000 		.4byte	.LASF108
 4032 05ab 22       		.byte	0x22
 4033 05ac 12       		.uleb128 0x12
 4034 05ad 6D070000 		.4byte	.LASF109
 4035 05b1 23       		.byte	0x23
 4036 05b2 12       		.uleb128 0x12
 4037 05b3 A80F0000 		.4byte	.LASF110
 4038 05b7 24       		.byte	0x24
 4039 05b8 12       		.uleb128 0x12
 4040 05b9 351B0000 		.4byte	.LASF111
ARM GAS  C:\Users\haske\AppData\Local\Temp\ccxUXv8a.s 			page 112


 4041 05bd 25       		.byte	0x25
 4042 05be 12       		.uleb128 0x12
 4043 05bf EC240000 		.4byte	.LASF112
 4044 05c3 26       		.byte	0x26
 4045 05c4 12       		.uleb128 0x12
 4046 05c5 6C040000 		.4byte	.LASF113
 4047 05c9 27       		.byte	0x27
 4048 05ca 12       		.uleb128 0x12
 4049 05cb C41C0000 		.4byte	.LASF114
 4050 05cf 28       		.byte	0x28
 4051 05d0 12       		.uleb128 0x12
 4052 05d1 7B200000 		.4byte	.LASF115
 4053 05d5 29       		.byte	0x29
 4054 05d6 12       		.uleb128 0x12
 4055 05d7 19050000 		.4byte	.LASF116
 4056 05db 2A       		.byte	0x2a
 4057 05dc 12       		.uleb128 0x12
 4058 05dd F9050000 		.4byte	.LASF117
 4059 05e1 2B       		.byte	0x2b
 4060 05e2 12       		.uleb128 0x12
 4061 05e3 85060000 		.4byte	.LASF118
 4062 05e7 2C       		.byte	0x2c
 4063 05e8 12       		.uleb128 0x12
 4064 05e9 881A0000 		.4byte	.LASF119
 4065 05ed 30       		.byte	0x30
 4066 05ee 12       		.uleb128 0x12
 4067 05ef AC060000 		.4byte	.LASF120
 4068 05f3 31       		.byte	0x31
 4069 05f4 12       		.uleb128 0x12
 4070 05f5 C7030000 		.4byte	.LASF121
 4071 05f9 32       		.byte	0x32
 4072 05fa 12       		.uleb128 0x12
 4073 05fb 4B1B0000 		.4byte	.LASF122
 4074 05ff 33       		.byte	0x33
 4075 0600 12       		.uleb128 0x12
 4076 0601 77210000 		.4byte	.LASF123
 4077 0605 34       		.byte	0x34
 4078 0606 12       		.uleb128 0x12
 4079 0607 800D0000 		.4byte	.LASF124
 4080 060b 35       		.byte	0x35
 4081 060c 12       		.uleb128 0x12
 4082 060d 12230000 		.4byte	.LASF125
 4083 0611 36       		.byte	0x36
 4084 0612 12       		.uleb128 0x12
 4085 0613 F50A0000 		.4byte	.LASF126
 4086 0617 37       		.byte	0x37
 4087 0618 12       		.uleb128 0x12
 4088 0619 32250000 		.4byte	.LASF127
 4089 061d 38       		.byte	0x38
 4090 061e 12       		.uleb128 0x12
 4091 061f 4C170000 		.4byte	.LASF128
 4092 0623 40       		.byte	0x40
 4093 0624 12       		.uleb128 0x12
 4094 0625 811C0000 		.4byte	.LASF129
 4095 0629 41       		.byte	0x41
 4096 062a 12       		.uleb128 0x12
 4097 062b 971C0000 		.4byte	.LASF130
ARM GAS  C:\Users\haske\AppData\Local\Temp\ccxUXv8a.s 			page 113


 4098 062f 42       		.byte	0x42
 4099 0630 12       		.uleb128 0x12
 4100 0631 63230000 		.4byte	.LASF131
 4101 0635 43       		.byte	0x43
 4102 0636 12       		.uleb128 0x12
 4103 0637 FB060000 		.4byte	.LASF132
 4104 063b 44       		.byte	0x44
 4105 063c 12       		.uleb128 0x12
 4106 063d 31050000 		.4byte	.LASF133
 4107 0641 45       		.byte	0x45
 4108 0642 12       		.uleb128 0x12
 4109 0643 1A100000 		.4byte	.LASF134
 4110 0647 46       		.byte	0x46
 4111 0648 12       		.uleb128 0x12
 4112 0649 85080000 		.4byte	.LASF135
 4113 064d 47       		.byte	0x47
 4114 064e 12       		.uleb128 0x12
 4115 064f A80B0000 		.4byte	.LASF136
 4116 0653 48       		.byte	0x48
 4117 0654 12       		.uleb128 0x12
 4118 0655 8F200000 		.4byte	.LASF137
 4119 0659 49       		.byte	0x49
 4120 065a 12       		.uleb128 0x12
 4121 065b 830C0000 		.4byte	.LASF138
 4122 065f 4A       		.byte	0x4a
 4123 0660 12       		.uleb128 0x12
 4124 0661 D1000000 		.4byte	.LASF139
 4125 0665 4B       		.byte	0x4b
 4126 0666 12       		.uleb128 0x12
 4127 0667 BC210000 		.4byte	.LASF140
 4128 066b 4C       		.byte	0x4c
 4129 066c 12       		.uleb128 0x12
 4130 066d 3E110000 		.4byte	.LASF141
 4131 0671 4D       		.byte	0x4d
 4132 0672 12       		.uleb128 0x12
 4133 0673 8B0F0000 		.4byte	.LASF142
 4134 0677 4E       		.byte	0x4e
 4135 0678 12       		.uleb128 0x12
 4136 0679 A3080000 		.4byte	.LASF143
 4137 067d 50       		.byte	0x50
 4138 067e 12       		.uleb128 0x12
 4139 067f 5E140000 		.4byte	.LASF144
 4140 0683 51       		.byte	0x51
 4141 0684 12       		.uleb128 0x12
 4142 0685 B91F0000 		.4byte	.LASF145
 4143 0689 52       		.byte	0x52
 4144 068a 12       		.uleb128 0x12
 4145 068b 3A010000 		.4byte	.LASF146
 4146 068f 53       		.byte	0x53
 4147 0690 12       		.uleb128 0x12
 4148 0691 F51C0000 		.4byte	.LASF147
 4149 0695 54       		.byte	0x54
 4150 0696 12       		.uleb128 0x12
 4151 0697 DE140000 		.4byte	.LASF148
 4152 069b 55       		.byte	0x55
 4153 069c 12       		.uleb128 0x12
 4154 069d 7E100000 		.4byte	.LASF149
ARM GAS  C:\Users\haske\AppData\Local\Temp\ccxUXv8a.s 			page 114


 4155 06a1 56       		.byte	0x56
 4156 06a2 12       		.uleb128 0x12
 4157 06a3 6F1D0000 		.4byte	.LASF150
 4158 06a7 57       		.byte	0x57
 4159 06a8 12       		.uleb128 0x12
 4160 06a9 5B250000 		.4byte	.LASF151
 4161 06ad 58       		.byte	0x58
 4162 06ae 12       		.uleb128 0x12
 4163 06af 320E0000 		.4byte	.LASF152
 4164 06b3 59       		.byte	0x59
 4165 06b4 12       		.uleb128 0x12
 4166 06b5 20140000 		.4byte	.LASF153
 4167 06b9 5A       		.byte	0x5a
 4168 06ba 12       		.uleb128 0x12
 4169 06bb 9B120000 		.4byte	.LASF154
 4170 06bf 5B       		.byte	0x5b
 4171 06c0 12       		.uleb128 0x12
 4172 06c1 45000000 		.4byte	.LASF155
 4173 06c5 60       		.byte	0x60
 4174 06c6 12       		.uleb128 0x12
 4175 06c7 B3130000 		.4byte	.LASF156
 4176 06cb 61       		.byte	0x61
 4177 06cc 12       		.uleb128 0x12
 4178 06cd FC180000 		.4byte	.LASF157
 4179 06d1 62       		.byte	0x62
 4180 06d2 12       		.uleb128 0x12
 4181 06d3 79120000 		.4byte	.LASF158
 4182 06d7 63       		.byte	0x63
 4183 06d8 12       		.uleb128 0x12
 4184 06d9 E40E0000 		.4byte	.LASF159
 4185 06dd 64       		.byte	0x64
 4186 06de 12       		.uleb128 0x12
 4187 06df 570D0000 		.4byte	.LASF160
 4188 06e3 65       		.byte	0x65
 4189 06e4 12       		.uleb128 0x12
 4190 06e5 B8050000 		.4byte	.LASF161
 4191 06e9 66       		.byte	0x66
 4192 06ea 12       		.uleb128 0x12
 4193 06eb CE0B0000 		.4byte	.LASF162
 4194 06ef 67       		.byte	0x67
 4195 06f0 12       		.uleb128 0x12
 4196 06f1 C50C0000 		.4byte	.LASF163
 4197 06f5 68       		.byte	0x68
 4198 06f6 12       		.uleb128 0x12
 4199 06f7 4F050000 		.4byte	.LASF164
 4200 06fb 69       		.byte	0x69
 4201 06fc 12       		.uleb128 0x12
 4202 06fd 22090000 		.4byte	.LASF165
 4203 0701 6A       		.byte	0x6a
 4204 0702 12       		.uleb128 0x12
 4205 0703 37090000 		.4byte	.LASF166
 4206 0707 6B       		.byte	0x6b
 4207 0708 12       		.uleb128 0x12
 4208 0709 2B100000 		.4byte	.LASF167
 4209 070d 6C       		.byte	0x6c
 4210 070e 12       		.uleb128 0x12
 4211 070f 82130000 		.4byte	.LASF168
ARM GAS  C:\Users\haske\AppData\Local\Temp\ccxUXv8a.s 			page 115


 4212 0713 6D       		.byte	0x6d
 4213 0714 12       		.uleb128 0x12
 4214 0715 30080000 		.4byte	.LASF169
 4215 0719 6E       		.byte	0x6e
 4216 071a 12       		.uleb128 0x12
 4217 071b 4B080000 		.4byte	.LASF170
 4218 071f 6F       		.byte	0x6f
 4219 0720 12       		.uleb128 0x12
 4220 0721 53030000 		.4byte	.LASF171
 4221 0725 6F       		.byte	0x6f
 4222 0726 12       		.uleb128 0x12
 4223 0727 28200000 		.4byte	.LASF172
 4224 072b 70       		.byte	0x70
 4225 072c 18       		.uleb128 0x18
 4226 072d 9B1D0000 		.4byte	.LASF173
 4227 0731 FFFF     		.2byte	0xffff
 4228 0733 18       		.uleb128 0x18
 4229 0734 B6150000 		.4byte	.LASF174
 4230 0738 FFFF     		.2byte	0xffff
 4231 073a 00       		.byte	0
 4232 073b 19       		.uleb128 0x19
 4233 073c F10C0000 		.4byte	.LASF175
 4234 0740 0C       		.byte	0xc
 4235 0741 1C01     		.2byte	0x11c
 4236 0743 16050000 		.4byte	0x516
 4237 0747 1A       		.uleb128 0x1a
 4238 0748 08       		.byte	0x8
 4239 0749 0C       		.byte	0xc
 4240 074a 3601     		.2byte	0x136
 4241 074c 6B070000 		.4byte	0x76b
 4242 0750 1B       		.uleb128 0x1b
 4243 0751 020C0000 		.4byte	.LASF176
 4244 0755 0C       		.byte	0xc
 4245 0756 3701     		.2byte	0x137
 4246 0758 3B070000 		.4byte	0x73b
 4247 075c 00       		.byte	0
 4248 075d 1B       		.uleb128 0x1b
 4249 075e EE090000 		.4byte	.LASF177
 4250 0762 0C       		.byte	0xc
 4251 0763 3801     		.2byte	0x138
 4252 0765 0B050000 		.4byte	0x50b
 4253 0769 04       		.byte	0x4
 4254 076a 00       		.byte	0
 4255 076b 19       		.uleb128 0x19
 4256 076c 5A0E0000 		.4byte	.LASF178
 4257 0770 0C       		.byte	0xc
 4258 0771 3901     		.2byte	0x139
 4259 0773 47070000 		.4byte	0x747
 4260 0777 1C       		.uleb128 0x1c
 4261 0778 04       		.byte	0x4
 4262 0779 0C       		.byte	0xc
 4263 077a 4601     		.2byte	0x146
 4264 077c A5070000 		.4byte	0x7a5
 4265 0780 1D       		.uleb128 0x1d
 4266 0781 0A1D0000 		.4byte	.LASF179
 4267 0785 0C       		.byte	0xc
 4268 0786 4701     		.2byte	0x147
ARM GAS  C:\Users\haske\AppData\Local\Temp\ccxUXv8a.s 			page 116


 4269 0788 0B050000 		.4byte	0x50b
 4270 078c 1D       		.uleb128 0x1d
 4271 078d 310D0000 		.4byte	.LASF180
 4272 0791 0C       		.byte	0xc
 4273 0792 4801     		.2byte	0x148
 4274 0794 A5070000 		.4byte	0x7a5
 4275 0798 1D       		.uleb128 0x1d
 4276 0799 130C0000 		.4byte	.LASF181
 4277 079d 0C       		.byte	0xc
 4278 079e 4901     		.2byte	0x149
 4279 07a0 AB070000 		.4byte	0x7ab
 4280 07a4 00       		.byte	0
 4281 07a5 0B       		.uleb128 0xb
 4282 07a6 04       		.byte	0x4
 4283 07a7 B8000000 		.4byte	0xb8
 4284 07ab 0B       		.uleb128 0xb
 4285 07ac 04       		.byte	0x4
 4286 07ad B1070000 		.4byte	0x7b1
 4287 07b1 0C       		.uleb128 0xc
 4288 07b2 6B070000 		.4byte	0x76b
 4289 07b6 1A       		.uleb128 0x1a
 4290 07b7 08       		.byte	0x8
 4291 07b8 0C       		.byte	0xc
 4292 07b9 3E01     		.2byte	0x13e
 4293 07bb F4070000 		.4byte	0x7f4
 4294 07bf 1E       		.uleb128 0x1e
 4295 07c0 765F7000 		.ascii	"v_p\000"
 4296 07c4 0C       		.byte	0xc
 4297 07c5 4A01     		.2byte	0x14a
 4298 07c7 77070000 		.4byte	0x777
 4299 07cb 00       		.byte	0
 4300 07cc 1B       		.uleb128 0x1b
 4301 07cd E6200000 		.4byte	.LASF182
 4302 07d1 0C       		.byte	0xc
 4303 07d2 4C01     		.2byte	0x14c
 4304 07d4 CE000000 		.4byte	0xce
 4305 07d8 04       		.byte	0x4
 4306 07d9 1B       		.uleb128 0x1b
 4307 07da 8F010000 		.4byte	.LASF183
 4308 07de 0C       		.byte	0xc
 4309 07df 4D01     		.2byte	0x14d
 4310 07e1 B8000000 		.4byte	0xb8
 4311 07e5 06       		.byte	0x6
 4312 07e6 1B       		.uleb128 0x1b
 4313 07e7 00000000 		.4byte	.LASF184
 4314 07eb 0C       		.byte	0xc
 4315 07ec 4E01     		.2byte	0x14e
 4316 07ee B8000000 		.4byte	0xb8
 4317 07f2 07       		.byte	0x7
 4318 07f3 00       		.byte	0
 4319 07f4 19       		.uleb128 0x19
 4320 07f5 9D0F0000 		.4byte	.LASF185
 4321 07f9 0C       		.byte	0xc
 4322 07fa 4F01     		.2byte	0x14f
 4323 07fc B6070000 		.4byte	0x7b6
 4324 0800 11       		.uleb128 0x11
 4325 0801 01       		.byte	0x1
ARM GAS  C:\Users\haske\AppData\Local\Temp\ccxUXv8a.s 			page 117


 4326 0802 42000000 		.4byte	0x42
 4327 0806 0D       		.byte	0xd
 4328 0807 37       		.byte	0x37
 4329 0808 F1080000 		.4byte	0x8f1
 4330 080c 12       		.uleb128 0x12
 4331 080d 2B1C0000 		.4byte	.LASF186
 4332 0811 00       		.byte	0
 4333 0812 12       		.uleb128 0x12
 4334 0813 B6070000 		.4byte	.LASF187
 4335 0817 01       		.byte	0x1
 4336 0818 12       		.uleb128 0x12
 4337 0819 52210000 		.4byte	.LASF188
 4338 081d 02       		.byte	0x2
 4339 081e 12       		.uleb128 0x12
 4340 081f 79170000 		.4byte	.LASF189
 4341 0823 03       		.byte	0x3
 4342 0824 12       		.uleb128 0x12
 4343 0825 E01C0000 		.4byte	.LASF190
 4344 0829 04       		.byte	0x4
 4345 082a 12       		.uleb128 0x12
 4346 082b 35150000 		.4byte	.LASF191
 4347 082f 05       		.byte	0x5
 4348 0830 12       		.uleb128 0x12
 4349 0831 B9170000 		.4byte	.LASF192
 4350 0835 06       		.byte	0x6
 4351 0836 12       		.uleb128 0x12
 4352 0837 E9020000 		.4byte	.LASF193
 4353 083b 07       		.byte	0x7
 4354 083c 12       		.uleb128 0x12
 4355 083d D5150000 		.4byte	.LASF194
 4356 0841 08       		.byte	0x8
 4357 0842 12       		.uleb128 0x12
 4358 0843 4B160000 		.4byte	.LASF195
 4359 0847 09       		.byte	0x9
 4360 0848 12       		.uleb128 0x12
 4361 0849 62170000 		.4byte	.LASF196
 4362 084d 0A       		.byte	0xa
 4363 084e 12       		.uleb128 0x12
 4364 084f 5B010000 		.4byte	.LASF197
 4365 0853 0B       		.byte	0xb
 4366 0854 12       		.uleb128 0x12
 4367 0855 85140000 		.4byte	.LASF198
 4368 0859 0C       		.byte	0xc
 4369 085a 12       		.uleb128 0x12
 4370 085b C9140000 		.4byte	.LASF199
 4371 085f 0D       		.byte	0xd
 4372 0860 12       		.uleb128 0x12
 4373 0861 81150000 		.4byte	.LASF200
 4374 0865 0E       		.byte	0xe
 4375 0866 12       		.uleb128 0x12
 4376 0867 90240000 		.4byte	.LASF201
 4377 086b 0F       		.byte	0xf
 4378 086c 12       		.uleb128 0x12
 4379 086d 42060000 		.4byte	.LASF202
 4380 0871 10       		.byte	0x10
 4381 0872 12       		.uleb128 0x12
 4382 0873 A6160000 		.4byte	.LASF203
ARM GAS  C:\Users\haske\AppData\Local\Temp\ccxUXv8a.s 			page 118


 4383 0877 11       		.byte	0x11
 4384 0878 12       		.uleb128 0x12
 4385 0879 6C020000 		.4byte	.LASF204
 4386 087d 12       		.byte	0x12
 4387 087e 12       		.uleb128 0x12
 4388 087f 89050000 		.4byte	.LASF205
 4389 0883 13       		.byte	0x13
 4390 0884 12       		.uleb128 0x12
 4391 0885 C91B0000 		.4byte	.LASF206
 4392 0889 14       		.byte	0x14
 4393 088a 12       		.uleb128 0x12
 4394 088b DE0D0000 		.4byte	.LASF207
 4395 088f 15       		.byte	0x15
 4396 0890 12       		.uleb128 0x12
 4397 0891 F40D0000 		.4byte	.LASF208
 4398 0895 16       		.byte	0x16
 4399 0896 12       		.uleb128 0x12
 4400 0897 311A0000 		.4byte	.LASF209
 4401 089b 17       		.byte	0x17
 4402 089c 12       		.uleb128 0x12
 4403 089d 1C0E0000 		.4byte	.LASF210
 4404 08a1 18       		.byte	0x18
 4405 08a2 12       		.uleb128 0x12
 4406 08a3 641A0000 		.4byte	.LASF211
 4407 08a7 19       		.byte	0x19
 4408 08a8 12       		.uleb128 0x12
 4409 08a9 1A0F0000 		.4byte	.LASF212
 4410 08ad 1A       		.byte	0x1a
 4411 08ae 12       		.uleb128 0x12
 4412 08af 300F0000 		.4byte	.LASF213
 4413 08b3 1B       		.byte	0x1b
 4414 08b4 12       		.uleb128 0x12
 4415 08b5 460F0000 		.4byte	.LASF214
 4416 08b9 1C       		.byte	0x1c
 4417 08ba 12       		.uleb128 0x12
 4418 08bb 5C0F0000 		.4byte	.LASF215
 4419 08bf 1D       		.byte	0x1d
 4420 08c0 12       		.uleb128 0x12
 4421 08c1 2B180000 		.4byte	.LASF216
 4422 08c5 1E       		.byte	0x1e
 4423 08c6 12       		.uleb128 0x12
 4424 08c7 44180000 		.4byte	.LASF217
 4425 08cb 1F       		.byte	0x1f
 4426 08cc 12       		.uleb128 0x12
 4427 08cd 5D180000 		.4byte	.LASF218
 4428 08d1 20       		.byte	0x20
 4429 08d2 12       		.uleb128 0x12
 4430 08d3 76180000 		.4byte	.LASF219
 4431 08d7 21       		.byte	0x21
 4432 08d8 12       		.uleb128 0x12
 4433 08d9 8F180000 		.4byte	.LASF220
 4434 08dd 22       		.byte	0x22
 4435 08de 12       		.uleb128 0x12
 4436 08df A8180000 		.4byte	.LASF221
 4437 08e3 23       		.byte	0x23
 4438 08e4 12       		.uleb128 0x12
 4439 08e5 C1180000 		.4byte	.LASF222
ARM GAS  C:\Users\haske\AppData\Local\Temp\ccxUXv8a.s 			page 119


 4440 08e9 24       		.byte	0x24
 4441 08ea 12       		.uleb128 0x12
 4442 08eb DA180000 		.4byte	.LASF223
 4443 08ef 25       		.byte	0x25
 4444 08f0 00       		.byte	0
 4445 08f1 02       		.uleb128 0x2
 4446 08f2 72100000 		.4byte	.LASF224
 4447 08f6 0D       		.byte	0xd
 4448 08f7 69       		.byte	0x69
 4449 08f8 B8000000 		.4byte	0xb8
 4450 08fc 05       		.uleb128 0x5
 4451 08fd 04       		.byte	0x4
 4452 08fe 0D       		.byte	0xd
 4453 08ff 7E       		.byte	0x7e
 4454 0900 4B090000 		.4byte	0x94b
 4455 0904 08       		.uleb128 0x8
 4456 0905 636600   		.ascii	"cf\000"
 4457 0908 0D       		.byte	0xd
 4458 0909 80       		.byte	0x80
 4459 090a E4000000 		.4byte	0xe4
 4460 090e 04       		.byte	0x4
 4461 090f 05       		.byte	0x5
 4462 0910 1B       		.byte	0x1b
 4463 0911 00       		.byte	0
 4464 0912 09       		.uleb128 0x9
 4465 0913 47230000 		.4byte	.LASF225
 4466 0917 0D       		.byte	0xd
 4467 0918 81       		.byte	0x81
 4468 0919 E4000000 		.4byte	0xe4
 4469 091d 04       		.byte	0x4
 4470 091e 03       		.byte	0x3
 4471 091f 18       		.byte	0x18
 4472 0920 00       		.byte	0
 4473 0921 09       		.uleb128 0x9
 4474 0922 AC220000 		.4byte	.LASF226
 4475 0926 0D       		.byte	0xd
 4476 0927 84       		.byte	0x84
 4477 0928 E4000000 		.4byte	0xe4
 4478 092c 04       		.byte	0x4
 4479 092d 02       		.byte	0x2
 4480 092e 16       		.byte	0x16
 4481 092f 00       		.byte	0
 4482 0930 08       		.uleb128 0x8
 4483 0931 7700     		.ascii	"w\000"
 4484 0933 0D       		.byte	0xd
 4485 0934 86       		.byte	0x86
 4486 0935 E4000000 		.4byte	0xe4
 4487 0939 04       		.byte	0x4
 4488 093a 0B       		.byte	0xb
 4489 093b 0B       		.byte	0xb
 4490 093c 00       		.byte	0
 4491 093d 08       		.uleb128 0x8
 4492 093e 6800     		.ascii	"h\000"
 4493 0940 0D       		.byte	0xd
 4494 0941 87       		.byte	0x87
 4495 0942 E4000000 		.4byte	0xe4
 4496 0946 04       		.byte	0x4
ARM GAS  C:\Users\haske\AppData\Local\Temp\ccxUXv8a.s 			page 120


 4497 0947 0B       		.byte	0xb
 4498 0948 00       		.byte	0
 4499 0949 00       		.byte	0
 4500 094a 00       		.byte	0
 4501 094b 02       		.uleb128 0x2
 4502 094c E0010000 		.4byte	.LASF227
 4503 0950 0D       		.byte	0xd
 4504 0951 88       		.byte	0x88
 4505 0952 FC080000 		.4byte	0x8fc
 4506 0956 05       		.uleb128 0x5
 4507 0957 0C       		.byte	0xc
 4508 0958 0D       		.byte	0xd
 4509 0959 8D       		.byte	0x8d
 4510 095a 83090000 		.4byte	0x983
 4511 095e 07       		.uleb128 0x7
 4512 095f D5080000 		.4byte	.LASF228
 4513 0963 0D       		.byte	0xd
 4514 0964 8E       		.byte	0x8e
 4515 0965 4B090000 		.4byte	0x94b
 4516 0969 00       		.byte	0
 4517 096a 07       		.uleb128 0x7
 4518 096b A4110000 		.4byte	.LASF229
 4519 096f 0D       		.byte	0xd
 4520 0970 8F       		.byte	0x8f
 4521 0971 E4000000 		.4byte	0xe4
 4522 0975 04       		.byte	0x4
 4523 0976 07       		.uleb128 0x7
 4524 0977 82240000 		.4byte	.LASF230
 4525 097b 0D       		.byte	0xd
 4526 097c 90       		.byte	0x90
 4527 097d D1020000 		.4byte	0x2d1
 4528 0981 08       		.byte	0x8
 4529 0982 00       		.byte	0
 4530 0983 02       		.uleb128 0x2
 4531 0984 AD1C0000 		.4byte	.LASF231
 4532 0988 0D       		.byte	0xd
 4533 0989 91       		.byte	0x91
 4534 098a 56090000 		.4byte	0x956
 4535 098e 0B       		.uleb128 0xb
 4536 098f 04       		.byte	0x4
 4537 0990 94090000 		.4byte	0x994
 4538 0994 0A       		.uleb128 0xa
 4539 0995 681E0000 		.4byte	.LASF233
 4540 0999 24       		.byte	0x24
 4541 099a 0E       		.byte	0xe
 4542 099b AE       		.byte	0xae
 4543 099c 5B0A0000 		.4byte	0xa5b
 4544 09a0 07       		.uleb128 0x7
 4545 09a1 02150000 		.4byte	.LASF234
 4546 09a5 0E       		.byte	0xe
 4547 09a6 AF       		.byte	0xaf
 4548 09a7 5D1C0000 		.4byte	0x1c5d
 4549 09ab 00       		.byte	0
 4550 09ac 07       		.uleb128 0x7
 4551 09ad 870E0000 		.4byte	.LASF235
 4552 09b1 0E       		.byte	0xe
 4553 09b2 B0       		.byte	0xb0
ARM GAS  C:\Users\haske\AppData\Local\Temp\ccxUXv8a.s 			page 121


 4554 09b3 8E090000 		.4byte	0x98e
 4555 09b7 04       		.byte	0x4
 4556 09b8 07       		.uleb128 0x7
 4557 09b9 54020000 		.4byte	.LASF236
 4558 09bd 0E       		.byte	0xe
 4559 09be B1       		.byte	0xb1
 4560 09bf 681C0000 		.4byte	0x1c68
 4561 09c3 08       		.byte	0x8
 4562 09c4 07       		.uleb128 0x7
 4563 09c5 09100000 		.4byte	.LASF237
 4564 09c9 0E       		.byte	0xe
 4565 09ca B2       		.byte	0xb2
 4566 09cb 6E1C0000 		.4byte	0x1c6e
 4567 09cf 0C       		.byte	0xc
 4568 09d0 07       		.uleb128 0x7
 4569 09d1 29230000 		.4byte	.LASF42
 4570 09d5 0E       		.byte	0xe
 4571 09d6 B4       		.byte	0xb4
 4572 09d7 E9020000 		.4byte	0x2e9
 4573 09db 10       		.byte	0x10
 4574 09dc 07       		.uleb128 0x7
 4575 09dd 09200000 		.4byte	.LASF238
 4576 09e1 0E       		.byte	0xe
 4577 09e2 B6       		.byte	0xb6
 4578 09e3 69010000 		.4byte	0x169
 4579 09e7 14       		.byte	0x14
 4580 09e8 07       		.uleb128 0x7
 4581 09e9 010A0000 		.4byte	.LASF239
 4582 09ed 0E       		.byte	0xe
 4583 09ee B7       		.byte	0xb7
 4584 09ef 3E180000 		.4byte	0x183e
 4585 09f3 1C       		.byte	0x1c
 4586 09f4 07       		.uleb128 0x7
 4587 09f5 C6020000 		.4byte	.LASF240
 4588 09f9 0E       		.byte	0xe
 4589 09fa B8       		.byte	0xb8
 4590 09fb CF170000 		.4byte	0x17cf
 4591 09ff 20       		.byte	0x20
 4592 0a00 09       		.uleb128 0x9
 4593 0a01 20070000 		.4byte	.LASF241
 4594 0a05 0E       		.byte	0xe
 4595 0a06 B9       		.byte	0xb9
 4596 0a07 CE000000 		.4byte	0xce
 4597 0a0b 02       		.byte	0x2
 4598 0a0c 01       		.byte	0x1
 4599 0a0d 0F       		.byte	0xf
 4600 0a0e 22       		.byte	0x22
 4601 0a0f 09       		.uleb128 0x9
 4602 0a10 EF040000 		.4byte	.LASF242
 4603 0a14 0E       		.byte	0xe
 4604 0a15 BA       		.byte	0xba
 4605 0a16 CE000000 		.4byte	0xce
 4606 0a1a 02       		.byte	0x2
 4607 0a1b 01       		.byte	0x1
 4608 0a1c 0E       		.byte	0xe
 4609 0a1d 22       		.byte	0x22
 4610 0a1e 09       		.uleb128 0x9
ARM GAS  C:\Users\haske\AppData\Local\Temp\ccxUXv8a.s 			page 122


 4611 0a1f 9A140000 		.4byte	.LASF243
 4612 0a23 0E       		.byte	0xe
 4613 0a24 BB       		.byte	0xbb
 4614 0a25 CE000000 		.4byte	0xce
 4615 0a29 02       		.byte	0x2
 4616 0a2a 01       		.byte	0x1
 4617 0a2b 0D       		.byte	0xd
 4618 0a2c 22       		.byte	0x22
 4619 0a2d 09       		.uleb128 0x9
 4620 0a2e 16070000 		.4byte	.LASF244
 4621 0a32 0E       		.byte	0xe
 4622 0a33 BC       		.byte	0xbc
 4623 0a34 CE000000 		.4byte	0xce
 4624 0a38 02       		.byte	0x2
 4625 0a39 06       		.byte	0x6
 4626 0a3a 07       		.byte	0x7
 4627 0a3b 22       		.byte	0x22
 4628 0a3c 09       		.uleb128 0x9
 4629 0a3d DC080000 		.4byte	.LASF245
 4630 0a41 0E       		.byte	0xe
 4631 0a42 BD       		.byte	0xbd
 4632 0a43 CE000000 		.4byte	0xce
 4633 0a47 02       		.byte	0x2
 4634 0a48 01       		.byte	0x1
 4635 0a49 06       		.byte	0x6
 4636 0a4a 22       		.byte	0x22
 4637 0a4b 09       		.uleb128 0x9
 4638 0a4c C3040000 		.4byte	.LASF246
 4639 0a50 0E       		.byte	0xe
 4640 0a51 BE       		.byte	0xbe
 4641 0a52 CE000000 		.4byte	0xce
 4642 0a56 02       		.byte	0x2
 4643 0a57 01       		.byte	0x1
 4644 0a58 05       		.byte	0x5
 4645 0a59 22       		.byte	0x22
 4646 0a5a 00       		.byte	0
 4647 0a5b 0B       		.uleb128 0xb
 4648 0a5c 04       		.byte	0x4
 4649 0a5d ED030000 		.4byte	0x3ed
 4650 0a61 05       		.uleb128 0x5
 4651 0a62 38       		.byte	0x38
 4652 0a63 0F       		.byte	0xf
 4653 0a64 20       		.byte	0x20
 4654 0a65 A80B0000 		.4byte	0xba8
 4655 0a69 07       		.uleb128 0x7
 4656 0a6a F0010000 		.4byte	.LASF247
 4657 0a6e 0F       		.byte	0xf
 4658 0a6f 21       		.byte	0x21
 4659 0a70 01010000 		.4byte	0x101
 4660 0a74 00       		.byte	0
 4661 0a75 07       		.uleb128 0x7
 4662 0a76 CC040000 		.4byte	.LASF248
 4663 0a7a 0F       		.byte	0xf
 4664 0a7b 22       		.byte	0x22
 4665 0a7c 24040000 		.4byte	0x424
 4666 0a80 02       		.byte	0x2
 4667 0a81 07       		.uleb128 0x7
ARM GAS  C:\Users\haske\AppData\Local\Temp\ccxUXv8a.s 			page 123


 4668 0a82 1C060000 		.4byte	.LASF249
 4669 0a86 0F       		.byte	0xf
 4670 0a87 25       		.byte	0x25
 4671 0a88 F8030000 		.4byte	0x3f8
 4672 0a8c 03       		.byte	0x3
 4673 0a8d 07       		.uleb128 0x7
 4674 0a8e F7010000 		.4byte	.LASF250
 4675 0a92 0F       		.byte	0xf
 4676 0a93 26       		.byte	0x26
 4677 0a94 ED030000 		.4byte	0x3ed
 4678 0a98 04       		.byte	0x4
 4679 0a99 07       		.uleb128 0x7
 4680 0a9a 66210000 		.4byte	.LASF251
 4681 0a9e 0F       		.byte	0xf
 4682 0a9f 27       		.byte	0x27
 4683 0aa0 D6040000 		.4byte	0x4d6
 4684 0aa4 06       		.byte	0x6
 4685 0aa5 07       		.uleb128 0x7
 4686 0aa6 BC030000 		.4byte	.LASF252
 4687 0aaa 0F       		.byte	0xf
 4688 0aab 2A       		.byte	0x2a
 4689 0aac E2020000 		.4byte	0x2e2
 4690 0ab0 10       		.byte	0x10
 4691 0ab1 07       		.uleb128 0x7
 4692 0ab2 9A040000 		.4byte	.LASF253
 4693 0ab6 0F       		.byte	0xf
 4694 0ab7 2B       		.byte	0x2b
 4695 0ab8 E2020000 		.4byte	0x2e2
 4696 0abc 14       		.byte	0x14
 4697 0abd 07       		.uleb128 0x7
 4698 0abe 121F0000 		.4byte	.LASF254
 4699 0ac2 0F       		.byte	0xf
 4700 0ac3 2C       		.byte	0x2c
 4701 0ac4 ED030000 		.4byte	0x3ed
 4702 0ac8 18       		.byte	0x18
 4703 0ac9 07       		.uleb128 0x7
 4704 0aca A31F0000 		.4byte	.LASF255
 4705 0ace 0F       		.byte	0xf
 4706 0acf 2D       		.byte	0x2d
 4707 0ad0 F8030000 		.4byte	0x3f8
 4708 0ad4 1A       		.byte	0x1a
 4709 0ad5 07       		.uleb128 0x7
 4710 0ad6 A5190000 		.4byte	.LASF256
 4711 0ada 0F       		.byte	0xf
 4712 0adb 2E       		.byte	0x2e
 4713 0adc F8030000 		.4byte	0x3f8
 4714 0ae0 1B       		.byte	0x1b
 4715 0ae1 07       		.uleb128 0x7
 4716 0ae2 60070000 		.4byte	.LASF257
 4717 0ae6 0F       		.byte	0xf
 4718 0ae7 2F       		.byte	0x2f
 4719 0ae8 B8000000 		.4byte	0xb8
 4720 0aec 1C       		.byte	0x1c
 4721 0aed 07       		.uleb128 0x7
 4722 0aee C10B0000 		.4byte	.LASF258
 4723 0af2 0F       		.byte	0xf
 4724 0af3 32       		.byte	0x32
ARM GAS  C:\Users\haske\AppData\Local\Temp\ccxUXv8a.s 			page 124


 4725 0af4 ED030000 		.4byte	0x3ed
 4726 0af8 1E       		.byte	0x1e
 4727 0af9 07       		.uleb128 0x7
 4728 0afa 4C1C0000 		.4byte	.LASF259
 4729 0afe 0F       		.byte	0xf
 4730 0aff 33       		.byte	0x33
 4731 0b00 01010000 		.4byte	0x101
 4732 0b04 20       		.byte	0x20
 4733 0b05 07       		.uleb128 0x7
 4734 0b06 0A210000 		.4byte	.LASF260
 4735 0b0a 0F       		.byte	0xf
 4736 0b0b 34       		.byte	0x34
 4737 0b0c F8030000 		.4byte	0x3f8
 4738 0b10 22       		.byte	0x22
 4739 0b11 09       		.uleb128 0x9
 4740 0b12 520C0000 		.4byte	.LASF261
 4741 0b16 0F       		.byte	0xf
 4742 0b17 35       		.byte	0x35
 4743 0b18 B8000000 		.4byte	0xb8
 4744 0b1c 01       		.byte	0x1
 4745 0b1d 01       		.byte	0x1
 4746 0b1e 07       		.byte	0x7
 4747 0b1f 23       		.byte	0x23
 4748 0b20 09       		.uleb128 0x9
 4749 0b21 AD040000 		.4byte	.LASF262
 4750 0b25 0F       		.byte	0xf
 4751 0b26 36       		.byte	0x36
 4752 0b27 3A040000 		.4byte	0x43a
 4753 0b2b 01       		.byte	0x1
 4754 0b2c 05       		.byte	0x5
 4755 0b2d 02       		.byte	0x2
 4756 0b2e 23       		.byte	0x23
 4757 0b2f 07       		.uleb128 0x7
 4758 0b30 ED060000 		.4byte	.LASF263
 4759 0b34 0F       		.byte	0xf
 4760 0b35 39       		.byte	0x39
 4761 0b36 ED030000 		.4byte	0x3ed
 4762 0b3a 24       		.byte	0x24
 4763 0b3b 07       		.uleb128 0x7
 4764 0b3c 3E170000 		.4byte	.LASF264
 4765 0b40 0F       		.byte	0xf
 4766 0b41 3A       		.byte	0x3a
 4767 0b42 01010000 		.4byte	0x101
 4768 0b46 26       		.byte	0x26
 4769 0b47 07       		.uleb128 0x7
 4770 0b48 7C0B0000 		.4byte	.LASF265
 4771 0b4c 0F       		.byte	0xf
 4772 0b4d 3B       		.byte	0x3b
 4773 0b4e 01010000 		.4byte	0x101
 4774 0b52 28       		.byte	0x28
 4775 0b53 07       		.uleb128 0x7
 4776 0b54 35160000 		.4byte	.LASF266
 4777 0b58 0F       		.byte	0xf
 4778 0b59 3C       		.byte	0x3c
 4779 0b5a F8030000 		.4byte	0x3f8
 4780 0b5e 2A       		.byte	0x2a
 4781 0b5f 07       		.uleb128 0x7
ARM GAS  C:\Users\haske\AppData\Local\Temp\ccxUXv8a.s 			page 125


 4782 0b60 37130000 		.4byte	.LASF267
 4783 0b64 0F       		.byte	0xf
 4784 0b65 3F       		.byte	0x3f
 4785 0b66 ED030000 		.4byte	0x3ed
 4786 0b6a 2C       		.byte	0x2c
 4787 0b6b 07       		.uleb128 0x7
 4788 0b6c 85220000 		.4byte	.LASF268
 4789 0b70 0F       		.byte	0xf
 4790 0b71 40       		.byte	0x40
 4791 0b72 01010000 		.4byte	0x101
 4792 0b76 2E       		.byte	0x2e
 4793 0b77 07       		.uleb128 0x7
 4794 0b78 B80C0000 		.4byte	.LASF269
 4795 0b7c 0F       		.byte	0xf
 4796 0b7d 41       		.byte	0x41
 4797 0b7e 01010000 		.4byte	0x101
 4798 0b82 30       		.byte	0x30
 4799 0b83 07       		.uleb128 0x7
 4800 0b84 A1240000 		.4byte	.LASF270
 4801 0b88 0F       		.byte	0xf
 4802 0b89 42       		.byte	0x42
 4803 0b8a 01010000 		.4byte	0x101
 4804 0b8e 32       		.byte	0x32
 4805 0b8f 07       		.uleb128 0x7
 4806 0b90 D60E0000 		.4byte	.LASF271
 4807 0b94 0F       		.byte	0xf
 4808 0b95 43       		.byte	0x43
 4809 0b96 01010000 		.4byte	0x101
 4810 0b9a 34       		.byte	0x34
 4811 0b9b 07       		.uleb128 0x7
 4812 0b9c AE1F0000 		.4byte	.LASF272
 4813 0ba0 0F       		.byte	0xf
 4814 0ba1 44       		.byte	0x44
 4815 0ba2 F8030000 		.4byte	0x3f8
 4816 0ba6 36       		.byte	0x36
 4817 0ba7 00       		.byte	0
 4818 0ba8 02       		.uleb128 0x2
 4819 0ba9 841B0000 		.4byte	.LASF273
 4820 0bad 0F       		.byte	0xf
 4821 0bae 45       		.byte	0x45
 4822 0baf 610A0000 		.4byte	0xa61
 4823 0bb3 05       		.uleb128 0x5
 4824 0bb4 20       		.byte	0x20
 4825 0bb5 10       		.byte	0x10
 4826 0bb6 1E       		.byte	0x1e
 4827 0bb7 820C0000 		.4byte	0xc82
 4828 0bbb 07       		.uleb128 0x7
 4829 0bbc 721E0000 		.4byte	.LASF274
 4830 0bc0 10       		.byte	0x10
 4831 0bc1 1F       		.byte	0x1f
 4832 0bc2 820C0000 		.4byte	0xc82
 4833 0bc6 00       		.byte	0
 4834 0bc7 07       		.uleb128 0x7
 4835 0bc8 2C220000 		.4byte	.LASF275
 4836 0bcc 10       		.byte	0x10
 4837 0bcd 20       		.byte	0x20
 4838 0bce E4000000 		.4byte	0xe4
ARM GAS  C:\Users\haske\AppData\Local\Temp\ccxUXv8a.s 			page 126


 4839 0bd2 04       		.byte	0x4
 4840 0bd3 07       		.uleb128 0x7
 4841 0bd4 AE150000 		.4byte	.LASF276
 4842 0bd8 10       		.byte	0x10
 4843 0bd9 21       		.byte	0x21
 4844 0bda E4000000 		.4byte	0xe4
 4845 0bde 08       		.byte	0x8
 4846 0bdf 07       		.uleb128 0x7
 4847 0be0 FE1D0000 		.4byte	.LASF78
 4848 0be4 10       		.byte	0x10
 4849 0be5 22       		.byte	0x22
 4850 0be6 ED030000 		.4byte	0x3ed
 4851 0bea 0C       		.byte	0xc
 4852 0beb 07       		.uleb128 0x7
 4853 0bec 66240000 		.4byte	.LASF277
 4854 0bf0 10       		.byte	0x10
 4855 0bf1 23       		.byte	0x23
 4856 0bf2 ED030000 		.4byte	0x3ed
 4857 0bf6 0E       		.byte	0xe
 4858 0bf7 07       		.uleb128 0x7
 4859 0bf8 60060000 		.4byte	.LASF278
 4860 0bfc 10       		.byte	0x10
 4861 0bfd 24       		.byte	0x24
 4862 0bfe ED030000 		.4byte	0x3ed
 4863 0c02 10       		.byte	0x10
 4864 0c03 07       		.uleb128 0x7
 4865 0c04 101E0000 		.4byte	.LASF279
 4866 0c08 10       		.byte	0x10
 4867 0c09 25       		.byte	0x25
 4868 0c0a 01010000 		.4byte	0x101
 4869 0c0e 12       		.byte	0x12
 4870 0c0f 07       		.uleb128 0x7
 4871 0c10 771E0000 		.4byte	.LASF280
 4872 0c14 10       		.byte	0x10
 4873 0c15 26       		.byte	0x26
 4874 0c16 01010000 		.4byte	0x101
 4875 0c1a 14       		.byte	0x14
 4876 0c1b 07       		.uleb128 0x7
 4877 0c1c B6080000 		.4byte	.LASF31
 4878 0c20 10       		.byte	0x10
 4879 0c21 27       		.byte	0x27
 4880 0c22 01010000 		.4byte	0x101
 4881 0c26 16       		.byte	0x16
 4882 0c27 07       		.uleb128 0x7
 4883 0c28 BC080000 		.4byte	.LASF32
 4884 0c2c 10       		.byte	0x10
 4885 0c2d 28       		.byte	0x28
 4886 0c2e 01010000 		.4byte	0x101
 4887 0c32 18       		.byte	0x18
 4888 0c33 06       		.uleb128 0x6
 4889 0c34 6F706100 		.ascii	"opa\000"
 4890 0c38 10       		.byte	0x10
 4891 0c39 29       		.byte	0x29
 4892 0c3a F8030000 		.4byte	0x3f8
 4893 0c3e 1A       		.byte	0x1a
 4894 0c3f 07       		.uleb128 0x7
 4895 0c40 33020000 		.4byte	.LASF281
ARM GAS  C:\Users\haske\AppData\Local\Temp\ccxUXv8a.s 			page 127


 4896 0c44 10       		.byte	0x10
 4897 0c45 2A       		.byte	0x2a
 4898 0c46 19040000 		.4byte	0x419
 4899 0c4a 1B       		.byte	0x1b
 4900 0c4b 07       		.uleb128 0x7
 4901 0c4c 4A140000 		.4byte	.LASF282
 4902 0c50 10       		.byte	0x10
 4903 0c51 2B       		.byte	0x2b
 4904 0c52 0E040000 		.4byte	0x40e
 4905 0c56 1C       		.byte	0x1c
 4906 0c57 07       		.uleb128 0x7
 4907 0c58 F9150000 		.4byte	.LASF283
 4908 0c5c 10       		.byte	0x10
 4909 0c5d 2C       		.byte	0x2c
 4910 0c5e 03040000 		.4byte	0x403
 4911 0c62 1D       		.byte	0x1d
 4912 0c63 09       		.uleb128 0x9
 4913 0c64 3A1D0000 		.4byte	.LASF284
 4914 0c68 10       		.byte	0x10
 4915 0c69 2D       		.byte	0x2d
 4916 0c6a 2F040000 		.4byte	0x42f
 4917 0c6e 01       		.byte	0x1
 4918 0c6f 03       		.byte	0x3
 4919 0c70 05       		.byte	0x5
 4920 0c71 1E       		.byte	0x1e
 4921 0c72 09       		.uleb128 0x9
 4922 0c73 CC040000 		.4byte	.LASF248
 4923 0c77 10       		.byte	0x10
 4924 0c78 2E       		.byte	0x2e
 4925 0c79 24040000 		.4byte	0x424
 4926 0c7d 01       		.byte	0x1
 4927 0c7e 03       		.byte	0x3
 4928 0c7f 02       		.byte	0x2
 4929 0c80 1E       		.byte	0x1e
 4930 0c81 00       		.byte	0
 4931 0c82 0B       		.uleb128 0xb
 4932 0c83 04       		.byte	0x4
 4933 0c84 880C0000 		.4byte	0xc88
 4934 0c88 0C       		.uleb128 0xc
 4935 0c89 EB020000 		.4byte	0x2eb
 4936 0c8d 02       		.uleb128 0x2
 4937 0c8e 2E060000 		.4byte	.LASF285
 4938 0c92 10       		.byte	0x10
 4939 0c93 2F       		.byte	0x2f
 4940 0c94 B30B0000 		.4byte	0xbb3
 4941 0c98 05       		.uleb128 0x5
 4942 0c99 18       		.byte	0x18
 4943 0c9a 11       		.byte	0x11
 4944 0c9b 20       		.byte	0x20
 4945 0c9c 130D0000 		.4byte	0xd13
 4946 0ca0 07       		.uleb128 0x7
 4947 0ca1 CF110000 		.4byte	.LASF286
 4948 0ca5 11       		.byte	0x11
 4949 0ca6 22       		.byte	0x22
 4950 0ca7 C3000000 		.4byte	0xc3
 4951 0cab 00       		.byte	0
 4952 0cac 07       		.uleb128 0x7
ARM GAS  C:\Users\haske\AppData\Local\Temp\ccxUXv8a.s 			page 128


 4953 0cad 97110000 		.4byte	.LASF287
 4954 0cb1 11       		.byte	0x11
 4955 0cb2 23       		.byte	0x23
 4956 0cb3 CE000000 		.4byte	0xce
 4957 0cb7 02       		.byte	0x2
 4958 0cb8 07       		.uleb128 0x7
 4959 0cb9 041E0000 		.4byte	.LASF288
 4960 0cbd 11       		.byte	0x11
 4961 0cbe 24       		.byte	0x24
 4962 0cbf 29010000 		.4byte	0x129
 4963 0cc3 04       		.byte	0x4
 4964 0cc4 07       		.uleb128 0x7
 4965 0cc5 9C110000 		.4byte	.LASF289
 4966 0cc9 11       		.byte	0x11
 4967 0cca 26       		.byte	0x26
 4968 0ccb ED030000 		.4byte	0x3ed
 4969 0ccf 08       		.byte	0x8
 4970 0cd0 07       		.uleb128 0x7
 4971 0cd1 B9160000 		.4byte	.LASF290
 4972 0cd5 11       		.byte	0x11
 4973 0cd6 27       		.byte	0x27
 4974 0cd7 F8030000 		.4byte	0x3f8
 4975 0cdb 0A       		.byte	0xa
 4976 0cdc 06       		.uleb128 0x6
 4977 0cdd 6F706100 		.ascii	"opa\000"
 4978 0ce1 11       		.byte	0x11
 4979 0ce2 29       		.byte	0x29
 4980 0ce3 F8030000 		.4byte	0x3f8
 4981 0ce7 0B       		.byte	0xb
 4982 0ce8 09       		.uleb128 0x9
 4983 0ce9 CC040000 		.4byte	.LASF248
 4984 0ced 11       		.byte	0x11
 4985 0cee 2A       		.byte	0x2a
 4986 0cef 24040000 		.4byte	0x424
 4987 0cf3 01       		.byte	0x1
 4988 0cf4 04       		.byte	0x4
 4989 0cf5 04       		.byte	0x4
 4990 0cf6 0C       		.byte	0xc
 4991 0cf7 07       		.uleb128 0x7
 4992 0cf8 89160000 		.4byte	.LASF291
 4993 0cfc 11       		.byte	0x11
 4994 0cfd 2C       		.byte	0x2c
 4995 0cfe D9000000 		.4byte	0xd9
 4996 0d02 10       		.byte	0x10
 4997 0d03 09       		.uleb128 0x9
 4998 0d04 E5170000 		.4byte	.LASF292
 4999 0d08 11       		.byte	0x11
 5000 0d09 2D       		.byte	0x2d
 5001 0d0a B8000000 		.4byte	0xb8
 5002 0d0e 01       		.byte	0x1
 5003 0d0f 01       		.byte	0x1
 5004 0d10 07       		.byte	0x7
 5005 0d11 14       		.byte	0x14
 5006 0d12 00       		.byte	0
 5007 0d13 02       		.uleb128 0x2
 5008 0d14 370A0000 		.4byte	.LASF293
 5009 0d18 11       		.byte	0x11
ARM GAS  C:\Users\haske\AppData\Local\Temp\ccxUXv8a.s 			page 129


 5010 0d19 2E       		.byte	0x2e
 5011 0d1a 980C0000 		.4byte	0xc98
 5012 0d1e 05       		.uleb128 0x5
 5013 0d1f 0A       		.byte	0xa
 5014 0d20 12       		.byte	0x12
 5015 0d21 1C       		.byte	0x1c
 5016 0d22 9F0D0000 		.4byte	0xd9f
 5017 0d26 07       		.uleb128 0x7
 5018 0d27 FE1D0000 		.4byte	.LASF78
 5019 0d2b 12       		.byte	0x12
 5020 0d2c 1D       		.byte	0x1d
 5021 0d2d ED030000 		.4byte	0x3ed
 5022 0d31 00       		.byte	0
 5023 0d32 07       		.uleb128 0x7
 5024 0d33 4C130000 		.4byte	.LASF294
 5025 0d37 12       		.byte	0x12
 5026 0d38 1E       		.byte	0x1e
 5027 0d39 01010000 		.4byte	0x101
 5028 0d3d 02       		.byte	0x2
 5029 0d3e 07       		.uleb128 0x7
 5030 0d3f CA100000 		.4byte	.LASF295
 5031 0d43 12       		.byte	0x12
 5032 0d44 1F       		.byte	0x1f
 5033 0d45 01010000 		.4byte	0x101
 5034 0d49 04       		.byte	0x4
 5035 0d4a 07       		.uleb128 0x7
 5036 0d4b AA0A0000 		.4byte	.LASF296
 5037 0d4f 12       		.byte	0x12
 5038 0d50 20       		.byte	0x20
 5039 0d51 01010000 		.4byte	0x101
 5040 0d55 06       		.byte	0x6
 5041 0d56 06       		.uleb128 0x6
 5042 0d57 6F706100 		.ascii	"opa\000"
 5043 0d5b 12       		.byte	0x12
 5044 0d5c 21       		.byte	0x21
 5045 0d5d F8030000 		.4byte	0x3f8
 5046 0d61 08       		.byte	0x8
 5047 0d62 09       		.uleb128 0x9
 5048 0d63 CC040000 		.4byte	.LASF248
 5049 0d67 12       		.byte	0x12
 5050 0d68 22       		.byte	0x22
 5051 0d69 24040000 		.4byte	0x424
 5052 0d6d 01       		.byte	0x1
 5053 0d6e 02       		.byte	0x2
 5054 0d6f 06       		.byte	0x6
 5055 0d70 09       		.byte	0x9
 5056 0d71 09       		.uleb128 0x9
 5057 0d72 010D0000 		.4byte	.LASF297
 5058 0d76 12       		.byte	0x12
 5059 0d77 23       		.byte	0x23
 5060 0d78 B8000000 		.4byte	0xb8
 5061 0d7c 01       		.byte	0x1
 5062 0d7d 01       		.byte	0x1
 5063 0d7e 05       		.byte	0x5
 5064 0d7f 09       		.byte	0x9
 5065 0d80 09       		.uleb128 0x9
 5066 0d81 9B0E0000 		.4byte	.LASF298
ARM GAS  C:\Users\haske\AppData\Local\Temp\ccxUXv8a.s 			page 130


 5067 0d85 12       		.byte	0x12
 5068 0d86 24       		.byte	0x24
 5069 0d87 B8000000 		.4byte	0xb8
 5070 0d8b 01       		.byte	0x1
 5071 0d8c 01       		.byte	0x1
 5072 0d8d 04       		.byte	0x4
 5073 0d8e 09       		.byte	0x9
 5074 0d8f 09       		.uleb128 0x9
 5075 0d90 4B010000 		.4byte	.LASF299
 5076 0d94 12       		.byte	0x12
 5077 0d95 25       		.byte	0x25
 5078 0d96 B8000000 		.4byte	0xb8
 5079 0d9a 01       		.byte	0x1
 5080 0d9b 01       		.byte	0x1
 5081 0d9c 03       		.byte	0x3
 5082 0d9d 09       		.byte	0x9
 5083 0d9e 00       		.byte	0
 5084 0d9f 02       		.uleb128 0x2
 5085 0da0 1D080000 		.4byte	.LASF300
 5086 0da4 12       		.byte	0x12
 5087 0da5 26       		.byte	0x26
 5088 0da6 1E0D0000 		.4byte	0xd1e
 5089 0daa 05       		.uleb128 0x5
 5090 0dab 10       		.byte	0x10
 5091 0dac 13       		.byte	0x13
 5092 0dad 1C       		.byte	0x1c
 5093 0dae 190E0000 		.4byte	0xe19
 5094 0db2 07       		.uleb128 0x7
 5095 0db3 FE1D0000 		.4byte	.LASF78
 5096 0db7 13       		.byte	0x13
 5097 0db8 1D       		.byte	0x1d
 5098 0db9 ED030000 		.4byte	0x3ed
 5099 0dbd 00       		.byte	0
 5100 0dbe 07       		.uleb128 0x7
 5101 0dbf 4C130000 		.4byte	.LASF294
 5102 0dc3 13       		.byte	0x13
 5103 0dc4 1E       		.byte	0x1e
 5104 0dc5 01010000 		.4byte	0x101
 5105 0dc9 02       		.byte	0x2
 5106 0dca 07       		.uleb128 0x7
 5107 0dcb 90100000 		.4byte	.LASF301
 5108 0dcf 13       		.byte	0x13
 5109 0dd0 1F       		.byte	0x1f
 5110 0dd1 CE000000 		.4byte	0xce
 5111 0dd5 04       		.byte	0x4
 5112 0dd6 07       		.uleb128 0x7
 5113 0dd7 A7070000 		.4byte	.LASF302
 5114 0ddb 13       		.byte	0x13
 5115 0ddc 20       		.byte	0x20
 5116 0ddd CE000000 		.4byte	0xce
 5117 0de1 06       		.byte	0x6
 5118 0de2 07       		.uleb128 0x7
 5119 0de3 A50E0000 		.4byte	.LASF303
 5120 0de7 13       		.byte	0x13
 5121 0de8 21       		.byte	0x21
 5122 0de9 E2020000 		.4byte	0x2e2
 5123 0ded 08       		.byte	0x8
ARM GAS  C:\Users\haske\AppData\Local\Temp\ccxUXv8a.s 			page 131


 5124 0dee 06       		.uleb128 0x6
 5125 0def 6F706100 		.ascii	"opa\000"
 5126 0df3 13       		.byte	0x13
 5127 0df4 22       		.byte	0x22
 5128 0df5 F8030000 		.4byte	0x3f8
 5129 0df9 0C       		.byte	0xc
 5130 0dfa 09       		.uleb128 0x9
 5131 0dfb CC040000 		.4byte	.LASF248
 5132 0dff 13       		.byte	0x13
 5133 0e00 23       		.byte	0x23
 5134 0e01 24040000 		.4byte	0x424
 5135 0e05 01       		.byte	0x1
 5136 0e06 02       		.byte	0x2
 5137 0e07 06       		.byte	0x6
 5138 0e08 0D       		.byte	0xd
 5139 0e09 09       		.uleb128 0x9
 5140 0e0a 4B030000 		.4byte	.LASF304
 5141 0e0e 13       		.byte	0x13
 5142 0e0f 24       		.byte	0x24
 5143 0e10 B8000000 		.4byte	0xb8
 5144 0e14 01       		.byte	0x1
 5145 0e15 01       		.byte	0x1
 5146 0e16 05       		.byte	0x5
 5147 0e17 0D       		.byte	0xd
 5148 0e18 00       		.byte	0
 5149 0e19 02       		.uleb128 0x2
 5150 0e1a C51E0000 		.4byte	.LASF305
 5151 0e1e 13       		.byte	0x13
 5152 0e1f 25       		.byte	0x25
 5153 0e20 AA0D0000 		.4byte	0xdaa
 5154 0e24 0B       		.uleb128 0xb
 5155 0e25 04       		.byte	0x4
 5156 0e26 F8030000 		.4byte	0x3f8
 5157 0e2a 11       		.uleb128 0x11
 5158 0e2b 01       		.byte	0x1
 5159 0e2c 42000000 		.4byte	0x42
 5160 0e30 14       		.byte	0x14
 5161 0e31 1C       		.byte	0x1c
 5162 0e32 490E0000 		.4byte	0xe49
 5163 0e36 12       		.uleb128 0x12
 5164 0e37 9B130000 		.4byte	.LASF306
 5165 0e3b 00       		.byte	0
 5166 0e3c 12       		.uleb128 0x12
 5167 0e3d 7D020000 		.4byte	.LASF307
 5168 0e41 01       		.byte	0x1
 5169 0e42 12       		.uleb128 0x12
 5170 0e43 D0190000 		.4byte	.LASF308
 5171 0e47 02       		.byte	0x2
 5172 0e48 00       		.byte	0
 5173 0e49 02       		.uleb128 0x2
 5174 0e4a 070A0000 		.4byte	.LASF309
 5175 0e4e 14       		.byte	0x14
 5176 0e4f 20       		.byte	0x20
 5177 0e50 2A0E0000 		.4byte	0xe2a
 5178 0e54 05       		.uleb128 0x5
 5179 0e55 10       		.byte	0x10
 5180 0e56 15       		.byte	0x15
ARM GAS  C:\Users\haske\AppData\Local\Temp\ccxUXv8a.s 			page 132


 5181 0e57 33       		.byte	0x33
 5182 0e58 8D0E0000 		.4byte	0xe8d
 5183 0e5c 07       		.uleb128 0x7
 5184 0e5d 66150000 		.4byte	.LASF310
 5185 0e61 15       		.byte	0x15
 5186 0e62 34       		.byte	0x34
 5187 0e63 8D0E0000 		.4byte	0xe8d
 5188 0e67 00       		.byte	0
 5189 0e68 07       		.uleb128 0x7
 5190 0e69 8E110000 		.4byte	.LASF311
 5191 0e6d 15       		.byte	0x15
 5192 0e6e 35       		.byte	0x35
 5193 0e6f 980E0000 		.4byte	0xe98
 5194 0e73 04       		.byte	0x4
 5195 0e74 06       		.uleb128 0x6
 5196 0e75 62756600 		.ascii	"buf\000"
 5197 0e79 15       		.byte	0x15
 5198 0e7a 36       		.byte	0x36
 5199 0e7b E9020000 		.4byte	0x2e9
 5200 0e7f 08       		.byte	0x8
 5201 0e80 07       		.uleb128 0x7
 5202 0e81 FB1F0000 		.4byte	.LASF312
 5203 0e85 15       		.byte	0x15
 5204 0e86 37       		.byte	0x37
 5205 0e87 AA020000 		.4byte	0x2aa
 5206 0e8b 0C       		.byte	0xc
 5207 0e8c 00       		.byte	0
 5208 0e8d 0B       		.uleb128 0xb
 5209 0e8e 04       		.byte	0x4
 5210 0e8f 930E0000 		.4byte	0xe93
 5211 0e93 0C       		.uleb128 0xc
 5212 0e94 69010000 		.4byte	0x169
 5213 0e98 0B       		.uleb128 0xb
 5214 0e99 04       		.byte	0x4
 5215 0e9a 69010000 		.4byte	0x169
 5216 0e9e 0A       		.uleb128 0xa
 5217 0e9f 20160000 		.4byte	.LASF313
 5218 0ea3 28       		.byte	0x28
 5219 0ea4 15       		.byte	0x15
 5220 0ea5 2D       		.byte	0x2d
 5221 0ea6 F30E0000 		.4byte	0xef3
 5222 0eaa 07       		.uleb128 0x7
 5223 0eab CB150000 		.4byte	.LASF314
 5224 0eaf 15       		.byte	0x15
 5225 0eb0 2E       		.byte	0x2e
 5226 0eb1 69010000 		.4byte	0x169
 5227 0eb5 00       		.byte	0
 5228 0eb6 07       		.uleb128 0x7
 5229 0eb7 9A080000 		.4byte	.LASF315
 5230 0ebb 15       		.byte	0x15
 5231 0ebc 2F       		.byte	0x2f
 5232 0ebd 69010000 		.4byte	0x169
 5233 0ec1 08       		.byte	0x8
 5234 0ec2 07       		.uleb128 0x7
 5235 0ec3 62160000 		.4byte	.LASF316
 5236 0ec7 15       		.byte	0x15
 5237 0ec8 30       		.byte	0x30
ARM GAS  C:\Users\haske\AppData\Local\Temp\ccxUXv8a.s 			page 133


 5238 0ec9 01010000 		.4byte	0x101
 5239 0ecd 10       		.byte	0x10
 5240 0ece 07       		.uleb128 0x7
 5241 0ecf FE1A0000 		.4byte	.LASF317
 5242 0ed3 15       		.byte	0x15
 5243 0ed4 31       		.byte	0x31
 5244 0ed5 01010000 		.4byte	0x101
 5245 0ed9 12       		.byte	0x12
 5246 0eda 06       		.uleb128 0x6
 5247 0edb 62756600 		.ascii	"buf\000"
 5248 0edf 15       		.byte	0x15
 5249 0ee0 32       		.byte	0x32
 5250 0ee1 E9020000 		.4byte	0x2e9
 5251 0ee5 14       		.byte	0x14
 5252 0ee6 07       		.uleb128 0x7
 5253 0ee7 19090000 		.4byte	.LASF318
 5254 0eeb 15       		.byte	0x15
 5255 0eec 38       		.byte	0x38
 5256 0eed 540E0000 		.4byte	0xe54
 5257 0ef1 18       		.byte	0x18
 5258 0ef2 00       		.byte	0
 5259 0ef3 02       		.uleb128 0x2
 5260 0ef4 E01D0000 		.4byte	.LASF319
 5261 0ef8 15       		.byte	0x15
 5262 0ef9 39       		.byte	0x39
 5263 0efa 9E0E0000 		.4byte	0xe9e
 5264 0efe 0A       		.uleb128 0xa
 5265 0eff 81030000 		.4byte	.LASF320
 5266 0f03 54       		.byte	0x54
 5267 0f04 15       		.byte	0x15
 5268 0f05 3B       		.byte	0x3b
 5269 0f06 07100000 		.4byte	0x1007
 5270 0f0a 06       		.uleb128 0x6
 5271 0f0b 62756600 		.ascii	"buf\000"
 5272 0f0f 15       		.byte	0x15
 5273 0f10 3F       		.byte	0x3f
 5274 0f11 E9020000 		.4byte	0x2e9
 5275 0f15 00       		.byte	0
 5276 0f16 07       		.uleb128 0x7
 5277 0f17 8E110000 		.4byte	.LASF311
 5278 0f1b 15       		.byte	0x15
 5279 0f1c 44       		.byte	0x44
 5280 0f1d 980E0000 		.4byte	0xe98
 5281 0f21 04       		.byte	0x4
 5282 0f22 07       		.uleb128 0x7
 5283 0f23 66150000 		.4byte	.LASF310
 5284 0f27 15       		.byte	0x15
 5285 0f28 49       		.byte	0x49
 5286 0f29 8D0E0000 		.4byte	0xe8d
 5287 0f2d 08       		.byte	0x8
 5288 0f2e 07       		.uleb128 0x7
 5289 0f2f 33030000 		.4byte	.LASF321
 5290 0f33 15       		.byte	0x15
 5291 0f34 4B       		.byte	0x4b
 5292 0f35 18100000 		.4byte	0x1018
 5293 0f39 0C       		.byte	0xc
 5294 0f3a 07       		.uleb128 0x7
ARM GAS  C:\Users\haske\AppData\Local\Temp\ccxUXv8a.s 			page 134


 5295 0f3b 09030000 		.4byte	.LASF322
 5296 0f3f 15       		.byte	0x15
 5297 0f40 4D       		.byte	0x4d
 5298 0f41 3E100000 		.4byte	0x103e
 5299 0f45 10       		.byte	0x10
 5300 0f46 07       		.uleb128 0x7
 5301 0f47 35110000 		.4byte	.LASF323
 5302 0f4b 15       		.byte	0x15
 5303 0f4c 4F       		.byte	0x4f
 5304 0f4d 7E100000 		.4byte	0x107e
 5305 0f51 14       		.byte	0x14
 5306 0f52 07       		.uleb128 0x7
 5307 0f53 5A120000 		.4byte	.LASF324
 5308 0f57 15       		.byte	0x15
 5309 0f58 52       		.byte	0x52
 5310 0f59 AE100000 		.4byte	0x10ae
 5311 0f5d 18       		.byte	0x18
 5312 0f5e 07       		.uleb128 0x7
 5313 0f5f 95210000 		.4byte	.LASF325
 5314 0f63 15       		.byte	0x15
 5315 0f64 55       		.byte	0x55
 5316 0f65 D2100000 		.4byte	0x10d2
 5317 0f69 1C       		.byte	0x1c
 5318 0f6a 07       		.uleb128 0x7
 5319 0f6b 0E1C0000 		.4byte	.LASF326
 5320 0f6f 15       		.byte	0x15
 5321 0f70 58       		.byte	0x58
 5322 0f71 FD100000 		.4byte	0x10fd
 5323 0f75 20       		.byte	0x20
 5324 0f76 07       		.uleb128 0x7
 5325 0f77 3F070000 		.4byte	.LASF327
 5326 0f7b 15       		.byte	0x15
 5327 0f7c 5C       		.byte	0x5c
 5328 0f7d 28110000 		.4byte	0x1128
 5329 0f81 24       		.byte	0x24
 5330 0f82 07       		.uleb128 0x7
 5331 0f83 F9210000 		.4byte	.LASF328
 5332 0f87 15       		.byte	0x15
 5333 0f88 60       		.byte	0x60
 5334 0f89 48110000 		.4byte	0x1148
 5335 0f8d 28       		.byte	0x28
 5336 0f8e 07       		.uleb128 0x7
 5337 0f8f B30A0000 		.4byte	.LASF329
 5338 0f93 15       		.byte	0x15
 5339 0f94 71       		.byte	0x71
 5340 0f95 86110000 		.4byte	0x1186
 5341 0f99 2C       		.byte	0x2c
 5342 0f9a 07       		.uleb128 0x7
 5343 0f9b 1D010000 		.4byte	.LASF330
 5344 0f9f 15       		.byte	0x15
 5345 0fa0 78       		.byte	0x78
 5346 0fa1 3E100000 		.4byte	0x103e
 5347 0fa5 30       		.byte	0x30
 5348 0fa6 07       		.uleb128 0x7
 5349 0fa7 73190000 		.4byte	.LASF331
 5350 0fab 15       		.byte	0x15
 5351 0fac 7D       		.byte	0x7d
ARM GAS  C:\Users\haske\AppData\Local\Temp\ccxUXv8a.s 			page 135


 5352 0fad 18100000 		.4byte	0x1018
 5353 0fb1 34       		.byte	0x34
 5354 0fb2 07       		.uleb128 0x7
 5355 0fb3 E1060000 		.4byte	.LASF332
 5356 0fb7 15       		.byte	0x15
 5357 0fb8 8D       		.byte	0x8d
 5358 0fb9 B5110000 		.4byte	0x11b5
 5359 0fbd 38       		.byte	0x38
 5360 0fbe 07       		.uleb128 0x7
 5361 0fbf 750D0000 		.4byte	.LASF333
 5362 0fc3 15       		.byte	0x15
 5363 0fc4 99       		.byte	0x99
 5364 0fc5 DA110000 		.4byte	0x11da
 5365 0fc9 3C       		.byte	0x3c
 5366 0fca 07       		.uleb128 0x7
 5367 0fcb 621D0000 		.4byte	.LASF334
 5368 0fcf 15       		.byte	0x15
 5369 0fd0 A3       		.byte	0xa3
 5370 0fd1 F5110000 		.4byte	0x11f5
 5371 0fd5 40       		.byte	0x40
 5372 0fd6 07       		.uleb128 0x7
 5373 0fd7 311E0000 		.4byte	.LASF335
 5374 0fdb 15       		.byte	0x15
 5375 0fdc AC       		.byte	0xac
 5376 0fdd 10120000 		.4byte	0x1210
 5377 0fe1 44       		.byte	0x44
 5378 0fe2 07       		.uleb128 0x7
 5379 0fe3 BC100000 		.4byte	.LASF336
 5380 0fe7 15       		.byte	0x15
 5381 0fe8 B5       		.byte	0xb5
 5382 0fe9 2C120000 		.4byte	0x122c
 5383 0fed 48       		.byte	0x48
 5384 0fee 07       		.uleb128 0x7
 5385 0fef 850A0000 		.4byte	.LASF337
 5386 0ff3 15       		.byte	0x15
 5387 0ff4 BA       		.byte	0xba
 5388 0ff5 EF000000 		.4byte	0xef
 5389 0ff9 4C       		.byte	0x4c
 5390 0ffa 07       		.uleb128 0x7
 5391 0ffb 29230000 		.4byte	.LASF42
 5392 0fff 15       		.byte	0x15
 5393 1000 BD       		.byte	0xbd
 5394 1001 E9020000 		.4byte	0x2e9
 5395 1005 50       		.byte	0x50
 5396 1006 00       		.byte	0
 5397 1007 1F       		.uleb128 0x1f
 5398 1008 12100000 		.4byte	0x1012
 5399 100c 0E       		.uleb128 0xe
 5400 100d 12100000 		.4byte	0x1012
 5401 1011 00       		.byte	0
 5402 1012 0B       		.uleb128 0xb
 5403 1013 04       		.byte	0x4
 5404 1014 FE0E0000 		.4byte	0xefe
 5405 1018 0B       		.uleb128 0xb
 5406 1019 04       		.byte	0x4
 5407 101a 07100000 		.4byte	0x1007
 5408 101e 1F       		.uleb128 0x1f
ARM GAS  C:\Users\haske\AppData\Local\Temp\ccxUXv8a.s 			page 136


 5409 101f 33100000 		.4byte	0x1033
 5410 1023 0E       		.uleb128 0xe
 5411 1024 12100000 		.4byte	0x1012
 5412 1028 0E       		.uleb128 0xe
 5413 1029 33100000 		.4byte	0x1033
 5414 102d 0E       		.uleb128 0xe
 5415 102e 8D0E0000 		.4byte	0xe8d
 5416 1032 00       		.byte	0
 5417 1033 0B       		.uleb128 0xb
 5418 1034 04       		.byte	0x4
 5419 1035 39100000 		.4byte	0x1039
 5420 1039 0C       		.uleb128 0xc
 5421 103a A80B0000 		.4byte	0xba8
 5422 103e 0B       		.uleb128 0xb
 5423 103f 04       		.byte	0x4
 5424 1040 1E100000 		.4byte	0x101e
 5425 1044 1F       		.uleb128 0x1f
 5426 1045 68100000 		.4byte	0x1068
 5427 1049 0E       		.uleb128 0xe
 5428 104a 12100000 		.4byte	0x1012
 5429 104e 0E       		.uleb128 0xe
 5430 104f 68100000 		.4byte	0x1068
 5431 1053 0E       		.uleb128 0xe
 5432 1054 73100000 		.4byte	0x1073
 5433 1058 0E       		.uleb128 0xe
 5434 1059 CE000000 		.4byte	0xce
 5435 105d 0E       		.uleb128 0xe
 5436 105e CE000000 		.4byte	0xce
 5437 1062 0E       		.uleb128 0xe
 5438 1063 CE000000 		.4byte	0xce
 5439 1067 00       		.byte	0
 5440 1068 0B       		.uleb128 0xb
 5441 1069 04       		.byte	0x4
 5442 106a 6E100000 		.4byte	0x106e
 5443 106e 0C       		.uleb128 0xc
 5444 106f 190E0000 		.4byte	0xe19
 5445 1073 0B       		.uleb128 0xb
 5446 1074 04       		.byte	0x4
 5447 1075 79100000 		.4byte	0x1079
 5448 1079 0C       		.uleb128 0xc
 5449 107a 29010000 		.4byte	0x129
 5450 107e 0B       		.uleb128 0xb
 5451 107f 04       		.byte	0x4
 5452 1080 44100000 		.4byte	0x1044
 5453 1084 1F       		.uleb128 0x1f
 5454 1085 A3100000 		.4byte	0x10a3
 5455 1089 0E       		.uleb128 0xe
 5456 108a 12100000 		.4byte	0x1012
 5457 108e 0E       		.uleb128 0xe
 5458 108f A3100000 		.4byte	0x10a3
 5459 1093 0E       		.uleb128 0xe
 5460 1094 8D0E0000 		.4byte	0xe8d
 5461 1098 0E       		.uleb128 0xe
 5462 1099 D1020000 		.4byte	0x2d1
 5463 109d 0E       		.uleb128 0xe
 5464 109e F1080000 		.4byte	0x8f1
 5465 10a2 00       		.byte	0
ARM GAS  C:\Users\haske\AppData\Local\Temp\ccxUXv8a.s 			page 137


 5466 10a3 0B       		.uleb128 0xb
 5467 10a4 04       		.byte	0x4
 5468 10a5 A9100000 		.4byte	0x10a9
 5469 10a9 0C       		.uleb128 0xc
 5470 10aa 130D0000 		.4byte	0xd13
 5471 10ae 0B       		.uleb128 0xb
 5472 10af 04       		.byte	0x4
 5473 10b0 84100000 		.4byte	0x1084
 5474 10b4 0D       		.uleb128 0xd
 5475 10b5 0F030000 		.4byte	0x30f
 5476 10b9 D2100000 		.4byte	0x10d2
 5477 10bd 0E       		.uleb128 0xe
 5478 10be 12100000 		.4byte	0x1012
 5479 10c2 0E       		.uleb128 0xe
 5480 10c3 A3100000 		.4byte	0x10a3
 5481 10c7 0E       		.uleb128 0xe
 5482 10c8 8D0E0000 		.4byte	0xe8d
 5483 10cc 0E       		.uleb128 0xe
 5484 10cd E2020000 		.4byte	0x2e2
 5485 10d1 00       		.byte	0
 5486 10d2 0B       		.uleb128 0xb
 5487 10d3 04       		.byte	0x4
 5488 10d4 B4100000 		.4byte	0x10b4
 5489 10d8 1F       		.uleb128 0x1f
 5490 10d9 F2100000 		.4byte	0x10f2
 5491 10dd 0E       		.uleb128 0xe
 5492 10de 12100000 		.4byte	0x1012
 5493 10e2 0E       		.uleb128 0xe
 5494 10e3 F2100000 		.4byte	0x10f2
 5495 10e7 0E       		.uleb128 0xe
 5496 10e8 73100000 		.4byte	0x1073
 5497 10ec 0E       		.uleb128 0xe
 5498 10ed E4000000 		.4byte	0xe4
 5499 10f1 00       		.byte	0
 5500 10f2 0B       		.uleb128 0xb
 5501 10f3 04       		.byte	0x4
 5502 10f4 F8100000 		.4byte	0x10f8
 5503 10f8 0C       		.uleb128 0xc
 5504 10f9 8D0C0000 		.4byte	0xc8d
 5505 10fd 0B       		.uleb128 0xb
 5506 10fe 04       		.byte	0x4
 5507 10ff D8100000 		.4byte	0x10d8
 5508 1103 1F       		.uleb128 0x1f
 5509 1104 1D110000 		.4byte	0x111d
 5510 1108 0E       		.uleb128 0xe
 5511 1109 12100000 		.4byte	0x1012
 5512 110d 0E       		.uleb128 0xe
 5513 110e 1D110000 		.4byte	0x111d
 5514 1112 0E       		.uleb128 0xe
 5515 1113 73100000 		.4byte	0x1073
 5516 1117 0E       		.uleb128 0xe
 5517 1118 73100000 		.4byte	0x1073
 5518 111c 00       		.byte	0
 5519 111d 0B       		.uleb128 0xb
 5520 111e 04       		.byte	0x4
 5521 111f 23110000 		.4byte	0x1123
 5522 1123 0C       		.uleb128 0xc
ARM GAS  C:\Users\haske\AppData\Local\Temp\ccxUXv8a.s 			page 138


 5523 1124 9F0D0000 		.4byte	0xd9f
 5524 1128 0B       		.uleb128 0xb
 5525 1129 04       		.byte	0x4
 5526 112a 03110000 		.4byte	0x1103
 5527 112e 1F       		.uleb128 0x1f
 5528 112f 48110000 		.4byte	0x1148
 5529 1133 0E       		.uleb128 0xe
 5530 1134 12100000 		.4byte	0x1012
 5531 1138 0E       		.uleb128 0xe
 5532 1139 33100000 		.4byte	0x1033
 5533 113d 0E       		.uleb128 0xe
 5534 113e 73100000 		.4byte	0x1073
 5535 1142 0E       		.uleb128 0xe
 5536 1143 CE000000 		.4byte	0xce
 5537 1147 00       		.byte	0
 5538 1148 0B       		.uleb128 0xb
 5539 1149 04       		.byte	0x4
 5540 114a 2E110000 		.4byte	0x112e
 5541 114e 1F       		.uleb128 0x1f
 5542 114f 86110000 		.4byte	0x1186
 5543 1153 0E       		.uleb128 0xe
 5544 1154 12100000 		.4byte	0x1012
 5545 1158 0E       		.uleb128 0xe
 5546 1159 8D0E0000 		.4byte	0xe8d
 5547 115d 0E       		.uleb128 0xe
 5548 115e E2020000 		.4byte	0x2e2
 5549 1162 0E       		.uleb128 0xe
 5550 1163 01010000 		.4byte	0x101
 5551 1167 0E       		.uleb128 0xe
 5552 1168 01010000 		.4byte	0x101
 5553 116c 0E       		.uleb128 0xe
 5554 116d 01010000 		.4byte	0x101
 5555 1171 0E       		.uleb128 0xe
 5556 1172 A3100000 		.4byte	0x10a3
 5557 1176 0E       		.uleb128 0xe
 5558 1177 F1080000 		.4byte	0x8f1
 5559 117b 0E       		.uleb128 0xe
 5560 117c 5B0A0000 		.4byte	0xa5b
 5561 1180 0E       		.uleb128 0xe
 5562 1181 240E0000 		.4byte	0xe24
 5563 1185 00       		.byte	0
 5564 1186 0B       		.uleb128 0xb
 5565 1187 04       		.byte	0x4
 5566 1188 4E110000 		.4byte	0x114e
 5567 118c 1F       		.uleb128 0x1f
 5568 118d B5110000 		.4byte	0x11b5
 5569 1191 0E       		.uleb128 0xe
 5570 1192 12100000 		.4byte	0x1012
 5571 1196 0E       		.uleb128 0xe
 5572 1197 E9020000 		.4byte	0x2e9
 5573 119b 0E       		.uleb128 0xe
 5574 119c 01010000 		.4byte	0x101
 5575 11a0 0E       		.uleb128 0xe
 5576 11a1 8D0E0000 		.4byte	0xe8d
 5577 11a5 0E       		.uleb128 0xe
 5578 11a6 E9020000 		.4byte	0x2e9
 5579 11aa 0E       		.uleb128 0xe
ARM GAS  C:\Users\haske\AppData\Local\Temp\ccxUXv8a.s 			page 139


 5580 11ab 01010000 		.4byte	0x101
 5581 11af 0E       		.uleb128 0xe
 5582 11b0 8D0E0000 		.4byte	0xe8d
 5583 11b4 00       		.byte	0
 5584 11b5 0B       		.uleb128 0xb
 5585 11b6 04       		.byte	0x4
 5586 11b7 8C110000 		.4byte	0x118c
 5587 11bb 0D       		.uleb128 0xd
 5588 11bc D4110000 		.4byte	0x11d4
 5589 11c0 D4110000 		.4byte	0x11d4
 5590 11c4 0E       		.uleb128 0xe
 5591 11c5 12100000 		.4byte	0x1012
 5592 11c9 0E       		.uleb128 0xe
 5593 11ca D4110000 		.4byte	0x11d4
 5594 11ce 0E       		.uleb128 0xe
 5595 11cf 490E0000 		.4byte	0xe49
 5596 11d3 00       		.byte	0
 5597 11d4 0B       		.uleb128 0xb
 5598 11d5 04       		.byte	0x4
 5599 11d6 9E0E0000 		.4byte	0xe9e
 5600 11da 0B       		.uleb128 0xb
 5601 11db 04       		.byte	0x4
 5602 11dc BB110000 		.4byte	0x11bb
 5603 11e0 1F       		.uleb128 0x1f
 5604 11e1 F5110000 		.4byte	0x11f5
 5605 11e5 0E       		.uleb128 0xe
 5606 11e6 12100000 		.4byte	0x1012
 5607 11ea 0E       		.uleb128 0xe
 5608 11eb D4110000 		.4byte	0x11d4
 5609 11ef 0E       		.uleb128 0xe
 5610 11f0 490E0000 		.4byte	0xe49
 5611 11f4 00       		.byte	0
 5612 11f5 0B       		.uleb128 0xb
 5613 11f6 04       		.byte	0x4
 5614 11f7 E0110000 		.4byte	0x11e0
 5615 11fb 1F       		.uleb128 0x1f
 5616 11fc 10120000 		.4byte	0x1210
 5617 1200 0E       		.uleb128 0xe
 5618 1201 12100000 		.4byte	0x1012
 5619 1205 0E       		.uleb128 0xe
 5620 1206 D4110000 		.4byte	0x11d4
 5621 120a 0E       		.uleb128 0xe
 5622 120b A3100000 		.4byte	0x10a3
 5623 120f 00       		.byte	0
 5624 1210 0B       		.uleb128 0xb
 5625 1211 04       		.byte	0x4
 5626 1212 FB110000 		.4byte	0x11fb
 5627 1216 1F       		.uleb128 0x1f
 5628 1217 26120000 		.4byte	0x1226
 5629 121b 0E       		.uleb128 0xe
 5630 121c 12100000 		.4byte	0x1012
 5631 1220 0E       		.uleb128 0xe
 5632 1221 26120000 		.4byte	0x1226
 5633 1225 00       		.byte	0
 5634 1226 0B       		.uleb128 0xb
 5635 1227 04       		.byte	0x4
 5636 1228 F30E0000 		.4byte	0xef3
ARM GAS  C:\Users\haske\AppData\Local\Temp\ccxUXv8a.s 			page 140


 5637 122c 0B       		.uleb128 0xb
 5638 122d 04       		.byte	0x4
 5639 122e 16120000 		.4byte	0x1216
 5640 1232 02       		.uleb128 0x2
 5641 1233 880B0000 		.4byte	.LASF338
 5642 1237 15       		.byte	0x15
 5643 1238 C0       		.byte	0xc0
 5644 1239 FE0E0000 		.4byte	0xefe
 5645 123d 02       		.uleb128 0x2
 5646 123e 63000000 		.4byte	.LASF339
 5647 1242 16       		.byte	0x16
 5648 1243 1D       		.byte	0x1d
 5649 1244 B8000000 		.4byte	0xb8
 5650 1248 05       		.uleb128 0x5
 5651 1249 0C       		.byte	0xc
 5652 124a 16       		.byte	0x16
 5653 124b 20       		.byte	0x20
 5654 124c 75120000 		.4byte	0x1275
 5655 1250 07       		.uleb128 0x7
 5656 1251 C6240000 		.4byte	.LASF340
 5657 1255 16       		.byte	0x16
 5658 1256 21       		.byte	0x21
 5659 1257 E4000000 		.4byte	0xe4
 5660 125b 00       		.byte	0
 5661 125c 07       		.uleb128 0x7
 5662 125d A7060000 		.4byte	.LASF341
 5663 1261 16       		.byte	0x16
 5664 1262 22       		.byte	0x22
 5665 1263 75120000 		.4byte	0x1275
 5666 1267 04       		.byte	0x4
 5667 1268 07       		.uleb128 0x7
 5668 1269 ED000000 		.4byte	.LASF342
 5669 126d 16       		.byte	0x16
 5670 126e 23       		.byte	0x23
 5671 126f 75120000 		.4byte	0x1275
 5672 1273 08       		.byte	0x8
 5673 1274 00       		.byte	0
 5674 1275 0B       		.uleb128 0xb
 5675 1276 04       		.byte	0x4
 5676 1277 3D120000 		.4byte	0x123d
 5677 127b 02       		.uleb128 0x2
 5678 127c 4E1F0000 		.4byte	.LASF343
 5679 1280 16       		.byte	0x16
 5680 1281 24       		.byte	0x24
 5681 1282 48120000 		.4byte	0x1248
 5682 1286 02       		.uleb128 0x2
 5683 1287 6B120000 		.4byte	.LASF344
 5684 128b 17       		.byte	0x17
 5685 128c 27       		.byte	0x27
 5686 128d 91120000 		.4byte	0x1291
 5687 1291 0B       		.uleb128 0xb
 5688 1292 04       		.byte	0x4
 5689 1293 97120000 		.4byte	0x1297
 5690 1297 1F       		.uleb128 0x1f
 5691 1298 A2120000 		.4byte	0x12a2
 5692 129c 0E       		.uleb128 0xe
 5693 129d A2120000 		.4byte	0x12a2
ARM GAS  C:\Users\haske\AppData\Local\Temp\ccxUXv8a.s 			page 141


 5694 12a1 00       		.byte	0
 5695 12a2 0B       		.uleb128 0xb
 5696 12a3 04       		.byte	0x4
 5697 12a4 A8120000 		.4byte	0x12a8
 5698 12a8 0A       		.uleb128 0xa
 5699 12a9 1C030000 		.4byte	.LASF345
 5700 12ad 18       		.byte	0x18
 5701 12ae 17       		.byte	0x17
 5702 12af 2C       		.byte	0x2c
 5703 12b0 00130000 		.4byte	0x1300
 5704 12b4 07       		.uleb128 0x7
 5705 12b5 1A1D0000 		.4byte	.LASF346
 5706 12b9 17       		.byte	0x17
 5707 12ba 2D       		.byte	0x2d
 5708 12bb E4000000 		.4byte	0xe4
 5709 12bf 00       		.byte	0
 5710 12c0 07       		.uleb128 0x7
 5711 12c1 C01B0000 		.4byte	.LASF347
 5712 12c5 17       		.byte	0x17
 5713 12c6 2E       		.byte	0x2e
 5714 12c7 E4000000 		.4byte	0xe4
 5715 12cb 04       		.byte	0x4
 5716 12cc 07       		.uleb128 0x7
 5717 12cd 171A0000 		.4byte	.LASF348
 5718 12d1 17       		.byte	0x17
 5719 12d2 2F       		.byte	0x2f
 5720 12d3 86120000 		.4byte	0x1286
 5721 12d7 08       		.byte	0x8
 5722 12d8 07       		.uleb128 0x7
 5723 12d9 29230000 		.4byte	.LASF42
 5724 12dd 17       		.byte	0x17
 5725 12de 30       		.byte	0x30
 5726 12df E9020000 		.4byte	0x2e9
 5727 12e3 0C       		.byte	0xc
 5728 12e4 07       		.uleb128 0x7
 5729 12e5 DC020000 		.4byte	.LASF349
 5730 12e9 17       		.byte	0x17
 5731 12ea 31       		.byte	0x31
 5732 12eb D9000000 		.4byte	0xd9
 5733 12ef 10       		.byte	0x10
 5734 12f0 09       		.uleb128 0x9
 5735 12f1 B8120000 		.4byte	.LASF350
 5736 12f5 17       		.byte	0x17
 5737 12f6 32       		.byte	0x32
 5738 12f7 E4000000 		.4byte	0xe4
 5739 12fb 04       		.byte	0x4
 5740 12fc 01       		.byte	0x1
 5741 12fd 1F       		.byte	0x1f
 5742 12fe 14       		.byte	0x14
 5743 12ff 00       		.byte	0
 5744 1300 02       		.uleb128 0x2
 5745 1301 DE0C0000 		.4byte	.LASF351
 5746 1305 17       		.byte	0x17
 5747 1306 33       		.byte	0x33
 5748 1307 A8120000 		.4byte	0x12a8
 5749 130b 0A       		.uleb128 0xa
 5750 130c 7A110000 		.4byte	.LASF352
ARM GAS  C:\Users\haske\AppData\Local\Temp\ccxUXv8a.s 			page 142


 5751 1310 1C       		.byte	0x1c
 5752 1311 18       		.byte	0x18
 5753 1312 32       		.byte	0x32
 5754 1313 7E130000 		.4byte	0x137e
 5755 1317 07       		.uleb128 0x7
 5756 1318 6F130000 		.4byte	.LASF353
 5757 131c 18       		.byte	0x18
 5758 131d 33       		.byte	0x33
 5759 131e E9020000 		.4byte	0x2e9
 5760 1322 00       		.byte	0
 5761 1323 07       		.uleb128 0x7
 5762 1324 74130000 		.4byte	.LASF354
 5763 1328 18       		.byte	0x18
 5764 1329 34       		.byte	0x34
 5765 132a E9020000 		.4byte	0x2e9
 5766 132e 04       		.byte	0x4
 5767 132f 07       		.uleb128 0x7
 5768 1330 16190000 		.4byte	.LASF355
 5769 1334 18       		.byte	0x18
 5770 1335 37       		.byte	0x37
 5771 1336 E9020000 		.4byte	0x2e9
 5772 133a 08       		.byte	0x8
 5773 133b 07       		.uleb128 0x7
 5774 133c F91A0000 		.4byte	.LASF356
 5775 1340 18       		.byte	0x18
 5776 1341 38       		.byte	0x38
 5777 1342 E4000000 		.4byte	0xe4
 5778 1346 0C       		.byte	0xc
 5779 1347 07       		.uleb128 0x7
 5780 1348 680C0000 		.4byte	.LASF357
 5781 134c 18       		.byte	0x18
 5782 134d 3A       		.byte	0x3a
 5783 134e 7E130000 		.4byte	0x137e
 5784 1352 10       		.byte	0x10
 5785 1353 07       		.uleb128 0x7
 5786 1354 E5080000 		.4byte	.LASF358
 5787 1358 18       		.byte	0x18
 5788 1359 3C       		.byte	0x3c
 5789 135a 7E130000 		.4byte	0x137e
 5790 135e 14       		.byte	0x14
 5791 135f 09       		.uleb128 0x9
 5792 1360 D7060000 		.4byte	.LASF359
 5793 1364 18       		.byte	0x18
 5794 1365 3D       		.byte	0x3d
 5795 1366 83130000 		.4byte	0x1383
 5796 136a 04       		.byte	0x4
 5797 136b 01       		.byte	0x1
 5798 136c 1F       		.byte	0x1f
 5799 136d 18       		.byte	0x18
 5800 136e 09       		.uleb128 0x9
 5801 136f D5100000 		.4byte	.LASF360
 5802 1373 18       		.byte	0x18
 5803 1374 3E       		.byte	0x3e
 5804 1375 83130000 		.4byte	0x1383
 5805 1379 04       		.byte	0x4
 5806 137a 01       		.byte	0x1
 5807 137b 1E       		.byte	0x1e
ARM GAS  C:\Users\haske\AppData\Local\Temp\ccxUXv8a.s 			page 143


 5808 137c 18       		.byte	0x18
 5809 137d 00       		.byte	0
 5810 137e 20       		.uleb128 0x20
 5811 137f 9F000000 		.4byte	0x9f
 5812 1383 20       		.uleb128 0x20
 5813 1384 E4000000 		.4byte	0xe4
 5814 1388 02       		.uleb128 0x2
 5815 1389 70000000 		.4byte	.LASF361
 5816 138d 18       		.byte	0x18
 5817 138e 3F       		.byte	0x3f
 5818 138f 0B130000 		.4byte	0x130b
 5819 1393 0A       		.uleb128 0xa
 5820 1394 0C240000 		.4byte	.LASF362
 5821 1398 50       		.byte	0x50
 5822 1399 18       		.byte	0x18
 5823 139a 4D       		.byte	0x4d
 5824 139b 11150000 		.4byte	0x1511
 5825 139f 07       		.uleb128 0x7
 5826 13a0 49070000 		.4byte	.LASF363
 5827 13a4 18       		.byte	0x18
 5828 13a5 4F       		.byte	0x4f
 5829 13a6 01010000 		.4byte	0x101
 5830 13aa 00       		.byte	0
 5831 13ab 07       		.uleb128 0x7
 5832 13ac E7040000 		.4byte	.LASF364
 5833 13b0 18       		.byte	0x18
 5834 13b1 50       		.byte	0x50
 5835 13b2 01010000 		.4byte	0x101
 5836 13b6 02       		.byte	0x2
 5837 13b7 07       		.uleb128 0x7
 5838 13b8 E81A0000 		.4byte	.LASF365
 5839 13bc 18       		.byte	0x18
 5840 13bd 53       		.byte	0x53
 5841 13be 01010000 		.4byte	0x101
 5842 13c2 04       		.byte	0x4
 5843 13c3 07       		.uleb128 0x7
 5844 13c4 08090000 		.4byte	.LASF366
 5845 13c8 18       		.byte	0x18
 5846 13c9 55       		.byte	0x55
 5847 13ca 01010000 		.4byte	0x101
 5848 13ce 06       		.byte	0x6
 5849 13cf 07       		.uleb128 0x7
 5850 13d0 EE100000 		.4byte	.LASF367
 5851 13d4 18       		.byte	0x18
 5852 13d5 57       		.byte	0x57
 5853 13d6 01010000 		.4byte	0x101
 5854 13da 08       		.byte	0x8
 5855 13db 07       		.uleb128 0x7
 5856 13dc F7100000 		.4byte	.LASF368
 5857 13e0 18       		.byte	0x18
 5858 13e1 58       		.byte	0x58
 5859 13e2 01010000 		.4byte	0x101
 5860 13e6 0A       		.byte	0xa
 5861 13e7 07       		.uleb128 0x7
 5862 13e8 111D0000 		.4byte	.LASF369
 5863 13ec 18       		.byte	0x18
 5864 13ed 5C       		.byte	0x5c
ARM GAS  C:\Users\haske\AppData\Local\Temp\ccxUXv8a.s 			page 144


 5865 13ee 11150000 		.4byte	0x1511
 5866 13f2 0C       		.byte	0xc
 5867 13f3 09       		.uleb128 0x9
 5868 13f4 C20A0000 		.4byte	.LASF370
 5869 13f8 18       		.byte	0x18
 5870 13f9 5E       		.byte	0x5e
 5871 13fa E4000000 		.4byte	0xe4
 5872 13fe 04       		.byte	0x4
 5873 13ff 01       		.byte	0x1
 5874 1400 1F       		.byte	0x1f
 5875 1401 10       		.byte	0x10
 5876 1402 09       		.uleb128 0x9
 5877 1403 8E0E0000 		.4byte	.LASF371
 5878 1407 18       		.byte	0x18
 5879 1408 5F       		.byte	0x5f
 5880 1409 E4000000 		.4byte	0xe4
 5881 140d 04       		.byte	0x4
 5882 140e 01       		.byte	0x1
 5883 140f 1E       		.byte	0x1e
 5884 1410 10       		.byte	0x10
 5885 1411 09       		.uleb128 0x9
 5886 1412 420D0000 		.4byte	.LASF372
 5887 1416 18       		.byte	0x18
 5888 1417 60       		.byte	0x60
 5889 1418 E4000000 		.4byte	0xe4
 5890 141c 04       		.byte	0x4
 5891 141d 01       		.byte	0x1
 5892 141e 1D       		.byte	0x1d
 5893 141f 10       		.byte	0x10
 5894 1420 09       		.uleb128 0x9
 5895 1421 430B0000 		.4byte	.LASF373
 5896 1425 18       		.byte	0x18
 5897 1426 61       		.byte	0x61
 5898 1427 E4000000 		.4byte	0xe4
 5899 142b 04       		.byte	0x4
 5900 142c 01       		.byte	0x1
 5901 142d 1C       		.byte	0x1c
 5902 142e 10       		.byte	0x10
 5903 142f 09       		.uleb128 0x9
 5904 1430 CC050000 		.4byte	.LASF374
 5905 1434 18       		.byte	0x18
 5906 1435 62       		.byte	0x62
 5907 1436 E4000000 		.4byte	0xe4
 5908 143a 04       		.byte	0x4
 5909 143b 02       		.byte	0x2
 5910 143c 1A       		.byte	0x1a
 5911 143d 10       		.byte	0x10
 5912 143e 09       		.uleb128 0x9
 5913 143f FB1F0000 		.4byte	.LASF312
 5914 1443 18       		.byte	0x18
 5915 1444 63       		.byte	0x63
 5916 1445 E4000000 		.4byte	0xe4
 5917 1449 04       		.byte	0x4
 5918 144a 01       		.byte	0x1
 5919 144b 19       		.byte	0x19
 5920 144c 10       		.byte	0x10
 5921 144d 08       		.uleb128 0x8
ARM GAS  C:\Users\haske\AppData\Local\Temp\ccxUXv8a.s 			page 145


 5922 144e 64706900 		.ascii	"dpi\000"
 5923 1452 18       		.byte	0x18
 5924 1453 66       		.byte	0x66
 5925 1454 E4000000 		.4byte	0xe4
 5926 1458 04       		.byte	0x4
 5927 1459 0A       		.byte	0xa
 5928 145a 0F       		.byte	0xf
 5929 145b 10       		.byte	0x10
 5930 145c 07       		.uleb128 0x7
 5931 145d 09230000 		.4byte	.LASF375
 5932 1461 18       		.byte	0x18
 5933 1462 6A       		.byte	0x6a
 5934 1463 32150000 		.4byte	0x1532
 5935 1467 14       		.byte	0x14
 5936 1468 07       		.uleb128 0x7
 5937 1469 2F1D0000 		.4byte	.LASF376
 5938 146d 18       		.byte	0x18
 5939 146e 6E       		.byte	0x6e
 5940 146f 48150000 		.4byte	0x1548
 5941 1473 18       		.byte	0x18
 5942 1474 07       		.uleb128 0x7
 5943 1475 EC200000 		.4byte	.LASF377
 5944 1479 18       		.byte	0x18
 5945 147a 73       		.byte	0x73
 5946 147b 77150000 		.4byte	0x1577
 5947 147f 1C       		.byte	0x1c
 5948 1480 07       		.uleb128 0x7
 5949 1481 720F0000 		.4byte	.LASF378
 5950 1485 18       		.byte	0x18
 5951 1486 76       		.byte	0x76
 5952 1487 92150000 		.4byte	0x1592
 5953 148b 20       		.byte	0x20
 5954 148c 07       		.uleb128 0x7
 5955 148d 7A140000 		.4byte	.LASF379
 5956 1491 18       		.byte	0x18
 5957 1492 7B       		.byte	0x7b
 5958 1493 AD150000 		.4byte	0x15ad
 5959 1497 24       		.byte	0x24
 5960 1498 07       		.uleb128 0x7
 5961 1499 DA120000 		.4byte	.LASF380
 5962 149d 18       		.byte	0x18
 5963 149e 80       		.byte	0x80
 5964 149f BE150000 		.4byte	0x15be
 5965 14a3 28       		.byte	0x28
 5966 14a4 07       		.uleb128 0x7
 5967 14a5 56240000 		.4byte	.LASF381
 5968 14a9 18       		.byte	0x18
 5969 14aa 83       		.byte	0x83
 5970 14ab BE150000 		.4byte	0x15be
 5971 14af 2C       		.byte	0x2c
 5972 14b0 07       		.uleb128 0x7
 5973 14b1 AE1A0000 		.4byte	.LASF382
 5974 14b5 18       		.byte	0x18
 5975 14b6 86       		.byte	0x86
 5976 14b7 BE150000 		.4byte	0x15be
 5977 14bb 30       		.byte	0x30
 5978 14bc 07       		.uleb128 0x7
ARM GAS  C:\Users\haske\AppData\Local\Temp\ccxUXv8a.s 			page 146


 5979 14bd 9E1A0000 		.4byte	.LASF383
 5980 14c1 18       		.byte	0x18
 5981 14c2 89       		.byte	0x89
 5982 14c3 BE150000 		.4byte	0x15be
 5983 14c7 34       		.byte	0x34
 5984 14c8 07       		.uleb128 0x7
 5985 14c9 52000000 		.4byte	.LASF384
 5986 14cd 18       		.byte	0x18
 5987 14ce 8D       		.byte	0x8d
 5988 14cf ED030000 		.4byte	0x3ed
 5989 14d3 38       		.byte	0x38
 5990 14d4 07       		.uleb128 0x7
 5991 14d5 8C210000 		.4byte	.LASF385
 5992 14d9 18       		.byte	0x18
 5993 14da 8F       		.byte	0x8f
 5994 14db C4150000 		.4byte	0x15c4
 5995 14df 3C       		.byte	0x3c
 5996 14e0 07       		.uleb128 0x7
 5997 14e1 E7110000 		.4byte	.LASF386
 5998 14e5 18       		.byte	0x18
 5999 14e6 90       		.byte	0x90
 6000 14e7 DA150000 		.4byte	0x15da
 6001 14eb 40       		.byte	0x40
 6002 14ec 07       		.uleb128 0x7
 6003 14ed E9050000 		.4byte	.LASF387
 6004 14f1 18       		.byte	0x18
 6005 14f2 91       		.byte	0x91
 6006 14f3 DA150000 		.4byte	0x15da
 6007 14f7 44       		.byte	0x44
 6008 14f8 07       		.uleb128 0x7
 6009 14f9 3C020000 		.4byte	.LASF388
 6010 14fd 18       		.byte	0x18
 6011 14fe 92       		.byte	0x92
 6012 14ff EF000000 		.4byte	0xef
 6013 1503 48       		.byte	0x48
 6014 1504 07       		.uleb128 0x7
 6015 1505 29230000 		.4byte	.LASF42
 6016 1509 18       		.byte	0x18
 6017 150a 95       		.byte	0x95
 6018 150b E9020000 		.4byte	0x2e9
 6019 150f 4C       		.byte	0x4c
 6020 1510 00       		.byte	0
 6021 1511 0B       		.uleb128 0xb
 6022 1512 04       		.byte	0x4
 6023 1513 88130000 		.4byte	0x1388
 6024 1517 1F       		.uleb128 0x1f
 6025 1518 2C150000 		.4byte	0x152c
 6026 151c 0E       		.uleb128 0xe
 6027 151d 2C150000 		.4byte	0x152c
 6028 1521 0E       		.uleb128 0xe
 6029 1522 8D0E0000 		.4byte	0xe8d
 6030 1526 0E       		.uleb128 0xe
 6031 1527 5B0A0000 		.4byte	0xa5b
 6032 152b 00       		.byte	0
 6033 152c 0B       		.uleb128 0xb
 6034 152d 04       		.byte	0x4
 6035 152e 93130000 		.4byte	0x1393
ARM GAS  C:\Users\haske\AppData\Local\Temp\ccxUXv8a.s 			page 147


 6036 1532 0B       		.uleb128 0xb
 6037 1533 04       		.byte	0x4
 6038 1534 17150000 		.4byte	0x1517
 6039 1538 1F       		.uleb128 0x1f
 6040 1539 48150000 		.4byte	0x1548
 6041 153d 0E       		.uleb128 0xe
 6042 153e 2C150000 		.4byte	0x152c
 6043 1542 0E       		.uleb128 0xe
 6044 1543 980E0000 		.4byte	0xe98
 6045 1547 00       		.byte	0
 6046 1548 0B       		.uleb128 0xb
 6047 1549 04       		.byte	0x4
 6048 154a 38150000 		.4byte	0x1538
 6049 154e 1F       		.uleb128 0x1f
 6050 154f 77150000 		.4byte	0x1577
 6051 1553 0E       		.uleb128 0xe
 6052 1554 2C150000 		.4byte	0x152c
 6053 1558 0E       		.uleb128 0xe
 6054 1559 A5070000 		.4byte	0x7a5
 6055 155d 0E       		.uleb128 0xe
 6056 155e 01010000 		.4byte	0x101
 6057 1562 0E       		.uleb128 0xe
 6058 1563 01010000 		.4byte	0x101
 6059 1567 0E       		.uleb128 0xe
 6060 1568 01010000 		.4byte	0x101
 6061 156c 0E       		.uleb128 0xe
 6062 156d ED030000 		.4byte	0x3ed
 6063 1571 0E       		.uleb128 0xe
 6064 1572 F8030000 		.4byte	0x3f8
 6065 1576 00       		.byte	0
 6066 1577 0B       		.uleb128 0xb
 6067 1578 04       		.byte	0x4
 6068 1579 4E150000 		.4byte	0x154e
 6069 157d 1F       		.uleb128 0x1f
 6070 157e 92150000 		.4byte	0x1592
 6071 1582 0E       		.uleb128 0xe
 6072 1583 2C150000 		.4byte	0x152c
 6073 1587 0E       		.uleb128 0xe
 6074 1588 A5070000 		.4byte	0x7a5
 6075 158c 0E       		.uleb128 0xe
 6076 158d E4000000 		.4byte	0xe4
 6077 1591 00       		.byte	0
 6078 1592 0B       		.uleb128 0xb
 6079 1593 04       		.byte	0x4
 6080 1594 7D150000 		.4byte	0x157d
 6081 1598 1F       		.uleb128 0x1f
 6082 1599 AD150000 		.4byte	0x15ad
 6083 159d 0E       		.uleb128 0xe
 6084 159e 2C150000 		.4byte	0x152c
 6085 15a2 0E       		.uleb128 0xe
 6086 15a3 E4000000 		.4byte	0xe4
 6087 15a7 0E       		.uleb128 0xe
 6088 15a8 E4000000 		.4byte	0xe4
 6089 15ac 00       		.byte	0
 6090 15ad 0B       		.uleb128 0xb
 6091 15ae 04       		.byte	0x4
 6092 15af 98150000 		.4byte	0x1598
ARM GAS  C:\Users\haske\AppData\Local\Temp\ccxUXv8a.s 			page 148


 6093 15b3 1F       		.uleb128 0x1f
 6094 15b4 BE150000 		.4byte	0x15be
 6095 15b8 0E       		.uleb128 0xe
 6096 15b9 2C150000 		.4byte	0x152c
 6097 15bd 00       		.byte	0
 6098 15be 0B       		.uleb128 0xb
 6099 15bf 04       		.byte	0x4
 6100 15c0 B3150000 		.4byte	0x15b3
 6101 15c4 0B       		.uleb128 0xb
 6102 15c5 04       		.byte	0x4
 6103 15c6 32120000 		.4byte	0x1232
 6104 15ca 1F       		.uleb128 0x1f
 6105 15cb DA150000 		.4byte	0x15da
 6106 15cf 0E       		.uleb128 0xe
 6107 15d0 2C150000 		.4byte	0x152c
 6108 15d4 0E       		.uleb128 0xe
 6109 15d5 C4150000 		.4byte	0x15c4
 6110 15d9 00       		.byte	0
 6111 15da 0B       		.uleb128 0xb
 6112 15db 04       		.byte	0x4
 6113 15dc CA150000 		.4byte	0x15ca
 6114 15e0 02       		.uleb128 0x2
 6115 15e1 44210000 		.4byte	.LASF389
 6116 15e5 18       		.byte	0x18
 6117 15e6 98       		.byte	0x98
 6118 15e7 93130000 		.4byte	0x1393
 6119 15eb 21       		.uleb128 0x21
 6120 15ec FE150000 		.4byte	.LASF390
 6121 15f0 5C01     		.2byte	0x15c
 6122 15f2 18       		.byte	0x18
 6123 15f3 9E       		.byte	0x9e
 6124 15f4 02170000 		.4byte	0x1702
 6125 15f8 07       		.uleb128 0x7
 6126 15f9 580B0000 		.4byte	.LASF391
 6127 15fd 18       		.byte	0x18
 6128 15fe A0       		.byte	0xa0
 6129 15ff 2C150000 		.4byte	0x152c
 6130 1603 00       		.byte	0
 6131 1604 07       		.uleb128 0x7
 6132 1605 23060000 		.4byte	.LASF392
 6133 1609 18       		.byte	0x18
 6134 160a A3       		.byte	0xa3
 6135 160b 02170000 		.4byte	0x1702
 6136 160f 04       		.byte	0x4
 6137 1610 07       		.uleb128 0x7
 6138 1611 E8100000 		.4byte	.LASF393
 6139 1615 18       		.byte	0x18
 6140 1616 A6       		.byte	0xa6
 6141 1617 0D170000 		.4byte	0x170d
 6142 161b 08       		.byte	0x8
 6143 161c 07       		.uleb128 0x7
 6144 161d 11050000 		.4byte	.LASF394
 6145 1621 18       		.byte	0x18
 6146 1622 A9       		.byte	0xa9
 6147 1623 13170000 		.4byte	0x1713
 6148 1627 0C       		.byte	0xc
 6149 1628 07       		.uleb128 0x7
ARM GAS  C:\Users\haske\AppData\Local\Temp\ccxUXv8a.s 			page 149


 6150 1629 0A010000 		.4byte	.LASF395
 6151 162d 18       		.byte	0x18
 6152 162e AA       		.byte	0xaa
 6153 162f 8E090000 		.4byte	0x98e
 6154 1633 10       		.byte	0x10
 6155 1634 07       		.uleb128 0x7
 6156 1635 031F0000 		.4byte	.LASF396
 6157 1639 18       		.byte	0x18
 6158 163a AB       		.byte	0xab
 6159 163b 8E090000 		.4byte	0x98e
 6160 163f 14       		.byte	0x14
 6161 1640 07       		.uleb128 0x7
 6162 1641 9B060000 		.4byte	.LASF397
 6163 1645 18       		.byte	0x18
 6164 1646 AC       		.byte	0xac
 6165 1647 8E090000 		.4byte	0x98e
 6166 164b 18       		.byte	0x18
 6167 164c 07       		.uleb128 0x7
 6168 164d E1070000 		.4byte	.LASF398
 6169 1651 18       		.byte	0x18
 6170 1652 AD       		.byte	0xad
 6171 1653 8E090000 		.4byte	0x98e
 6172 1657 1C       		.byte	0x1c
 6173 1658 07       		.uleb128 0x7
 6174 1659 2B1B0000 		.4byte	.LASF399
 6175 165d 18       		.byte	0x18
 6176 165e AE       		.byte	0xae
 6177 165f 8E090000 		.4byte	0x98e
 6178 1663 20       		.byte	0x20
 6179 1664 07       		.uleb128 0x7
 6180 1665 12010000 		.4byte	.LASF400
 6181 1669 18       		.byte	0x18
 6182 166a AF       		.byte	0xaf
 6183 166b E4000000 		.4byte	0xe4
 6184 166f 24       		.byte	0x24
 6185 1670 09       		.uleb128 0x9
 6186 1671 A9100000 		.4byte	.LASF401
 6187 1675 18       		.byte	0x18
 6188 1676 B0       		.byte	0xb0
 6189 1677 B8000000 		.4byte	0xb8
 6190 167b 01       		.byte	0x1
 6191 167c 01       		.byte	0x1
 6192 167d 07       		.byte	0x7
 6193 167e 28       		.byte	0x28
 6194 167f 09       		.uleb128 0x9
 6195 1680 56200000 		.4byte	.LASF402
 6196 1684 18       		.byte	0x18
 6197 1685 B2       		.byte	0xb2
 6198 1686 B8000000 		.4byte	0xb8
 6199 168a 01       		.byte	0x1
 6200 168b 01       		.byte	0x1
 6201 168c 06       		.byte	0x6
 6202 168d 28       		.byte	0x28
 6203 168e 09       		.uleb128 0x9
 6204 168f C5160000 		.4byte	.LASF403
 6205 1693 18       		.byte	0x18
 6206 1694 B4       		.byte	0xb4
ARM GAS  C:\Users\haske\AppData\Local\Temp\ccxUXv8a.s 			page 150


 6207 1695 B8000000 		.4byte	0xb8
 6208 1699 01       		.byte	0x1
 6209 169a 01       		.byte	0x1
 6210 169b 05       		.byte	0x5
 6211 169c 28       		.byte	0x28
 6212 169d 07       		.uleb128 0x7
 6213 169e 1C060000 		.4byte	.LASF249
 6214 16a2 18       		.byte	0x18
 6215 16a3 B6       		.byte	0xb6
 6216 16a4 F8030000 		.4byte	0x3f8
 6217 16a8 29       		.byte	0x29
 6218 16a9 07       		.uleb128 0x7
 6219 16aa F7010000 		.4byte	.LASF250
 6220 16ae 18       		.byte	0x18
 6221 16af B7       		.byte	0xb7
 6222 16b0 ED030000 		.4byte	0x3ed
 6223 16b4 2A       		.byte	0x2a
 6224 16b5 07       		.uleb128 0x7
 6225 16b6 5F200000 		.4byte	.LASF404
 6226 16ba 18       		.byte	0x18
 6227 16bb B8       		.byte	0xb8
 6228 16bc E2020000 		.4byte	0x2e2
 6229 16c0 2C       		.byte	0x2c
 6230 16c1 07       		.uleb128 0x7
 6231 16c2 41160000 		.4byte	.LASF405
 6232 16c6 18       		.byte	0x18
 6233 16c7 BB       		.byte	0xbb
 6234 16c8 19170000 		.4byte	0x1719
 6235 16cc 30       		.byte	0x30
 6236 16cd 22       		.uleb128 0x22
 6237 16ce 75060000 		.4byte	.LASF406
 6238 16d2 18       		.byte	0x18
 6239 16d3 BC       		.byte	0xbc
 6240 16d4 29170000 		.4byte	0x1729
 6241 16d8 3001     		.2byte	0x130
 6242 16da 22       		.uleb128 0x22
 6243 16db 481F0000 		.4byte	.LASF407
 6244 16df 18       		.byte	0x18
 6245 16e0 BD       		.byte	0xbd
 6246 16e1 CE000000 		.4byte	0xce
 6247 16e5 5001     		.2byte	0x150
 6248 16e7 22       		.uleb128 0x22
 6249 16e8 DE1F0000 		.4byte	.LASF408
 6250 16ec 18       		.byte	0x18
 6251 16ed BE       		.byte	0xbe
 6252 16ee D9000000 		.4byte	0xd9
 6253 16f2 5401     		.2byte	0x154
 6254 16f4 22       		.uleb128 0x22
 6255 16f5 9C050000 		.4byte	.LASF409
 6256 16f9 18       		.byte	0x18
 6257 16fa C1       		.byte	0xc1
 6258 16fb E4000000 		.4byte	0xe4
 6259 16ff 5801     		.2byte	0x158
 6260 1701 00       		.byte	0
 6261 1702 0B       		.uleb128 0xb
 6262 1703 04       		.byte	0x4
 6263 1704 00130000 		.4byte	0x1300
ARM GAS  C:\Users\haske\AppData\Local\Temp\ccxUXv8a.s 			page 151


 6264 1708 23       		.uleb128 0x23
 6265 1709 B91E0000 		.4byte	.LASF523
 6266 170d 0B       		.uleb128 0xb
 6267 170e 04       		.byte	0x4
 6268 170f 08170000 		.4byte	0x1708
 6269 1713 0B       		.uleb128 0xb
 6270 1714 04       		.byte	0x4
 6271 1715 8E090000 		.4byte	0x98e
 6272 1719 16       		.uleb128 0x16
 6273 171a 69010000 		.4byte	0x169
 6274 171e 29170000 		.4byte	0x1729
 6275 1722 17       		.uleb128 0x17
 6276 1723 1A030000 		.4byte	0x31a
 6277 1727 1F       		.byte	0x1f
 6278 1728 00       		.byte	0
 6279 1729 16       		.uleb128 0x16
 6280 172a B8000000 		.4byte	0xb8
 6281 172e 39170000 		.4byte	0x1739
 6282 1732 17       		.uleb128 0x17
 6283 1733 1A030000 		.4byte	0x31a
 6284 1737 1F       		.byte	0x1f
 6285 1738 00       		.byte	0
 6286 1739 02       		.uleb128 0x2
 6287 173a A5000000 		.4byte	.LASF410
 6288 173e 18       		.byte	0x18
 6289 173f C2       		.byte	0xc2
 6290 1740 EB150000 		.4byte	0x15eb
 6291 1744 0A       		.uleb128 0xa
 6292 1745 E0240000 		.4byte	.LASF411
 6293 1749 20       		.byte	0x20
 6294 174a 19       		.byte	0x19
 6295 174b 3B       		.byte	0x3b
 6296 174c C9170000 		.4byte	0x17c9
 6297 1750 07       		.uleb128 0x7
 6298 1751 2E110000 		.4byte	.LASF412
 6299 1755 19       		.byte	0x19
 6300 1756 3C       		.byte	0x3c
 6301 1757 7B120000 		.4byte	0x127b
 6302 175b 00       		.byte	0
 6303 175c 07       		.uleb128 0x7
 6304 175d 51250000 		.4byte	.LASF413
 6305 1761 19       		.byte	0x19
 6306 1762 3D       		.byte	0x3d
 6307 1763 13170000 		.4byte	0x1713
 6308 1767 0C       		.byte	0xc
 6309 1768 07       		.uleb128 0x7
 6310 1769 22180000 		.4byte	.LASF414
 6311 176d 19       		.byte	0x19
 6312 176e 3F       		.byte	0x3f
 6313 176f 421B0000 		.4byte	0x1b42
 6314 1773 10       		.byte	0x10
 6315 1774 07       		.uleb128 0x7
 6316 1775 6D060000 		.4byte	.LASF415
 6317 1779 19       		.byte	0x19
 6318 177a 40       		.byte	0x40
 6319 177b 5E1B0000 		.4byte	0x1b5e
 6320 177f 14       		.byte	0x14
ARM GAS  C:\Users\haske\AppData\Local\Temp\ccxUXv8a.s 			page 152


 6321 1780 07       		.uleb128 0x7
 6322 1781 29230000 		.4byte	.LASF42
 6323 1785 19       		.byte	0x19
 6324 1786 45       		.byte	0x45
 6325 1787 E9020000 		.4byte	0x2e9
 6326 178b 18       		.byte	0x18
 6327 178c 09       		.uleb128 0x9
 6328 178d A9010000 		.4byte	.LASF416
 6329 1791 19       		.byte	0x19
 6330 1792 48       		.byte	0x48
 6331 1793 B8000000 		.4byte	0xb8
 6332 1797 01       		.byte	0x1
 6333 1798 01       		.byte	0x1
 6334 1799 07       		.byte	0x7
 6335 179a 1C       		.byte	0x1c
 6336 179b 09       		.uleb128 0x9
 6337 179c E01A0000 		.4byte	.LASF417
 6338 17a0 19       		.byte	0x19
 6339 17a1 49       		.byte	0x49
 6340 17a2 B8000000 		.4byte	0xb8
 6341 17a6 01       		.byte	0x1
 6342 17a7 01       		.byte	0x1
 6343 17a8 06       		.byte	0x6
 6344 17a9 1C       		.byte	0x1c
 6345 17aa 09       		.uleb128 0x9
 6346 17ab FD230000 		.4byte	.LASF418
 6347 17af 19       		.byte	0x19
 6348 17b0 4A       		.byte	0x4a
 6349 17b1 B8000000 		.4byte	0xb8
 6350 17b5 01       		.byte	0x1
 6351 17b6 01       		.byte	0x1
 6352 17b7 05       		.byte	0x5
 6353 17b8 1C       		.byte	0x1c
 6354 17b9 09       		.uleb128 0x9
 6355 17ba F91B0000 		.4byte	.LASF419
 6356 17be 19       		.byte	0x19
 6357 17bf 4C       		.byte	0x4c
 6358 17c0 B8000000 		.4byte	0xb8
 6359 17c4 01       		.byte	0x1
 6360 17c5 01       		.byte	0x1
 6361 17c6 04       		.byte	0x4
 6362 17c7 1C       		.byte	0x1c
 6363 17c8 00       		.byte	0
 6364 17c9 0B       		.uleb128 0xb
 6365 17ca 04       		.byte	0x4
 6366 17cb 44170000 		.4byte	0x1744
 6367 17cf 02       		.uleb128 0x2
 6368 17d0 55060000 		.4byte	.LASF420
 6369 17d4 0E       		.byte	0xe
 6370 17d5 3C       		.byte	0x3c
 6371 17d6 CE000000 		.4byte	0xce
 6372 17da 11       		.uleb128 0x11
 6373 17db 04       		.byte	0x4
 6374 17dc A6000000 		.4byte	0xa6
 6375 17e0 0E       		.byte	0xe
 6376 17e1 44       		.byte	0x44
 6377 17e2 3E180000 		.4byte	0x183e
ARM GAS  C:\Users\haske\AppData\Local\Temp\ccxUXv8a.s 			page 153


 6378 17e6 12       		.uleb128 0x12
 6379 17e7 83190000 		.4byte	.LASF421
 6380 17eb 00       		.byte	0
 6381 17ec 24       		.uleb128 0x24
 6382 17ed B7140000 		.4byte	.LASF422
 6383 17f1 00000100 		.4byte	0x10000
 6384 17f5 24       		.uleb128 0x24
 6385 17f6 A5140000 		.4byte	.LASF423
 6386 17fa 00000200 		.4byte	0x20000
 6387 17fe 24       		.uleb128 0x24
 6388 17ff 3A120000 		.4byte	.LASF424
 6389 1803 00000300 		.4byte	0x30000
 6390 1807 24       		.uleb128 0x24
 6391 1808 44040000 		.4byte	.LASF425
 6392 180c 00000400 		.4byte	0x40000
 6393 1810 24       		.uleb128 0x24
 6394 1811 7A1A0000 		.4byte	.LASF426
 6395 1815 00000500 		.4byte	0x50000
 6396 1819 24       		.uleb128 0x24
 6397 181a 7A230000 		.4byte	.LASF427
 6398 181e 00000600 		.4byte	0x60000
 6399 1822 24       		.uleb128 0x24
 6400 1823 52220000 		.4byte	.LASF428
 6401 1827 00000700 		.4byte	0x70000
 6402 182b 24       		.uleb128 0x24
 6403 182c 66200000 		.4byte	.LASF429
 6404 1830 00000800 		.4byte	0x80000
 6405 1834 24       		.uleb128 0x24
 6406 1835 070C0000 		.4byte	.LASF430
 6407 1839 00000F00 		.4byte	0xf0000
 6408 183d 00       		.byte	0
 6409 183e 02       		.uleb128 0x2
 6410 183f 61220000 		.4byte	.LASF431
 6411 1843 0E       		.byte	0xe
 6412 1844 7D       		.byte	0x7d
 6413 1845 E4000000 		.4byte	0xe4
 6414 1849 02       		.uleb128 0x2
 6415 184a 70010000 		.4byte	.LASF432
 6416 184e 1A       		.byte	0x1a
 6417 184f 26       		.byte	0x26
 6418 1850 B8000000 		.4byte	0xb8
 6419 1854 02       		.uleb128 0x2
 6420 1855 41190000 		.4byte	.LASF433
 6421 1859 1A       		.byte	0x1a
 6422 185a 30       		.byte	0x30
 6423 185b B8000000 		.4byte	0xb8
 6424 185f 05       		.uleb128 0x5
 6425 1860 08       		.byte	0x8
 6426 1861 1B       		.byte	0x1b
 6427 1862 27       		.byte	0x27
 6428 1863 A1180000 		.4byte	0x18a1
 6429 1867 07       		.uleb128 0x7
 6430 1868 2A190000 		.4byte	.LASF434
 6431 186c 1B       		.byte	0x1b
 6432 186d 28       		.byte	0x28
 6433 186e A1180000 		.4byte	0x18a1
 6434 1872 00       		.byte	0
ARM GAS  C:\Users\haske\AppData\Local\Temp\ccxUXv8a.s 			page 154


 6435 1873 09       		.uleb128 0x9
 6436 1874 B1230000 		.4byte	.LASF435
 6437 1878 1B       		.byte	0x1b
 6438 1879 29       		.byte	0x29
 6439 187a E4000000 		.4byte	0xe4
 6440 187e 04       		.byte	0x4
 6441 187f 18       		.byte	0x18
 6442 1880 08       		.byte	0x8
 6443 1881 04       		.byte	0x4
 6444 1882 09       		.uleb128 0x9
 6445 1883 00030000 		.4byte	.LASF436
 6446 1887 1B       		.byte	0x1b
 6447 1888 2A       		.byte	0x2a
 6448 1889 E4000000 		.4byte	0xe4
 6449 188d 04       		.byte	0x4
 6450 188e 01       		.byte	0x1
 6451 188f 07       		.byte	0x7
 6452 1890 04       		.byte	0x4
 6453 1891 09       		.uleb128 0x9
 6454 1892 AD0E0000 		.4byte	.LASF437
 6455 1896 1B       		.byte	0x1b
 6456 1897 2B       		.byte	0x2b
 6457 1898 E4000000 		.4byte	0xe4
 6458 189c 04       		.byte	0x4
 6459 189d 01       		.byte	0x1
 6460 189e 06       		.byte	0x6
 6461 189f 04       		.byte	0x4
 6462 18a0 00       		.byte	0
 6463 18a1 0B       		.uleb128 0xb
 6464 18a2 04       		.byte	0x4
 6465 18a3 F4070000 		.4byte	0x7f4
 6466 18a7 02       		.uleb128 0x2
 6467 18a8 420C0000 		.4byte	.LASF438
 6468 18ac 1B       		.byte	0x1b
 6469 18ad 2C       		.byte	0x2c
 6470 18ae 5F180000 		.4byte	0x185f
 6471 18b2 0A       		.uleb128 0xa
 6472 18b3 741B0000 		.4byte	.LASF439
 6473 18b7 1C       		.byte	0x1c
 6474 18b8 1C       		.byte	0x1c
 6475 18b9 31       		.byte	0x31
 6476 18ba 40190000 		.4byte	0x1940
 6477 18be 07       		.uleb128 0x7
 6478 18bf EF170000 		.4byte	.LASF440
 6479 18c3 1C       		.byte	0x1c
 6480 18c4 32       		.byte	0x32
 6481 18c5 40190000 		.4byte	0x1940
 6482 18c9 00       		.byte	0
 6483 18ca 07       		.uleb128 0x7
 6484 18cb 3C030000 		.4byte	.LASF441
 6485 18cf 1C       		.byte	0x1c
 6486 18d0 33       		.byte	0x33
 6487 18d1 E9190000 		.4byte	0x19e9
 6488 18d5 04       		.byte	0x4
 6489 18d6 07       		.uleb128 0x7
 6490 18d7 441E0000 		.4byte	.LASF442
 6491 18db 1C       		.byte	0x1c
ARM GAS  C:\Users\haske\AppData\Local\Temp\ccxUXv8a.s 			page 155


 6492 18dc 34       		.byte	0x34
 6493 18dd E9190000 		.4byte	0x19e9
 6494 18e1 08       		.byte	0x8
 6495 18e2 07       		.uleb128 0x7
 6496 18e3 29230000 		.4byte	.LASF42
 6497 18e7 1C       		.byte	0x1c
 6498 18e8 36       		.byte	0x36
 6499 18e9 E9020000 		.4byte	0x2e9
 6500 18ed 0C       		.byte	0xc
 6501 18ee 07       		.uleb128 0x7
 6502 18ef ED120000 		.4byte	.LASF443
 6503 18f3 1C       		.byte	0x1c
 6504 18f4 38       		.byte	0x38
 6505 18f5 FF190000 		.4byte	0x19ff
 6506 18f9 10       		.byte	0x10
 6507 18fa 07       		.uleb128 0x7
 6508 18fb 0B0F0000 		.4byte	.LASF444
 6509 18ff 1C       		.byte	0x1c
 6510 1900 3A       		.byte	0x3a
 6511 1901 01010000 		.4byte	0x101
 6512 1905 14       		.byte	0x14
 6513 1906 07       		.uleb128 0x7
 6514 1907 2E240000 		.4byte	.LASF445
 6515 190b 1C       		.byte	0x1c
 6516 190c 3B       		.byte	0x3b
 6517 190d 01010000 		.4byte	0x101
 6518 1911 16       		.byte	0x16
 6519 1912 09       		.uleb128 0x9
 6520 1913 DF100000 		.4byte	.LASF446
 6521 1917 1C       		.byte	0x1c
 6522 1918 3C       		.byte	0x3c
 6523 1919 E4000000 		.4byte	0xe4
 6524 191d 04       		.byte	0x4
 6525 191e 02       		.byte	0x2
 6526 191f 1E       		.byte	0x1e
 6527 1920 18       		.byte	0x18
 6528 1921 09       		.uleb128 0x9
 6529 1922 DF050000 		.4byte	.LASF447
 6530 1926 1C       		.byte	0x1c
 6531 1927 3D       		.byte	0x3d
 6532 1928 E4000000 		.4byte	0xe4
 6533 192c 04       		.byte	0x4
 6534 192d 02       		.byte	0x2
 6535 192e 1C       		.byte	0x1c
 6536 192f 18       		.byte	0x18
 6537 1930 09       		.uleb128 0x9
 6538 1931 AE110000 		.4byte	.LASF448
 6539 1935 1C       		.byte	0x1c
 6540 1936 3E       		.byte	0x3e
 6541 1937 E4000000 		.4byte	0xe4
 6542 193b 04       		.byte	0x4
 6543 193c 10       		.byte	0x10
 6544 193d 0C       		.byte	0xc
 6545 193e 18       		.byte	0x18
 6546 193f 00       		.byte	0
 6547 1940 0B       		.uleb128 0xb
 6548 1941 04       		.byte	0x4
ARM GAS  C:\Users\haske\AppData\Local\Temp\ccxUXv8a.s 			page 156


 6549 1942 46190000 		.4byte	0x1946
 6550 1946 0C       		.uleb128 0xc
 6551 1947 B2180000 		.4byte	0x18b2
 6552 194b 0B       		.uleb128 0xb
 6553 194c 04       		.byte	0x4
 6554 194d 8D0C0000 		.4byte	0xc8d
 6555 1951 0B       		.uleb128 0xb
 6556 1952 04       		.byte	0x4
 6557 1953 57190000 		.4byte	0x1957
 6558 1957 0A       		.uleb128 0xa
 6559 1958 1D130000 		.4byte	.LASF449
 6560 195c 1C       		.byte	0x1c
 6561 195d 1D       		.byte	0x1d
 6562 195e 5E       		.byte	0x5e
 6563 195f D9190000 		.4byte	0x19d9
 6564 1963 07       		.uleb128 0x7
 6565 1964 A2100000 		.4byte	.LASF450
 6566 1968 1D       		.byte	0x1d
 6567 1969 5F       		.byte	0x5f
 6568 196a 8E090000 		.4byte	0x98e
 6569 196e 00       		.byte	0
 6570 196f 07       		.uleb128 0x7
 6571 1970 F5110000 		.4byte	.LASF451
 6572 1974 1D       		.byte	0x1d
 6573 1975 60       		.byte	0x60
 6574 1976 8E090000 		.4byte	0x98e
 6575 197a 04       		.byte	0x4
 6576 197b 07       		.uleb128 0x7
 6577 197c 52190000 		.4byte	.LASF452
 6578 1980 1D       		.byte	0x1d
 6579 1981 61       		.byte	0x61
 6580 1982 371B0000 		.4byte	0x1b37
 6581 1986 08       		.byte	0x8
 6582 1987 07       		.uleb128 0x7
 6583 1988 29230000 		.4byte	.LASF42
 6584 198c 1D       		.byte	0x1d
 6585 198d 62       		.byte	0x62
 6586 198e E9020000 		.4byte	0x2e9
 6587 1992 0C       		.byte	0xc
 6588 1993 07       		.uleb128 0x7
 6589 1994 9C100000 		.4byte	.LASF453
 6590 1998 1D       		.byte	0x1d
 6591 1999 63       		.byte	0x63
 6592 199a E9020000 		.4byte	0x2e9
 6593 199e 10       		.byte	0x10
 6594 199f 07       		.uleb128 0x7
 6595 19a0 B3240000 		.4byte	.LASF454
 6596 19a4 1D       		.byte	0x1d
 6597 19a5 64       		.byte	0x64
 6598 19a6 51190000 		.4byte	0x1951
 6599 19aa 14       		.byte	0x14
 6600 19ab 09       		.uleb128 0x9
 6601 19ac 44130000 		.4byte	.LASF455
 6602 19b0 1D       		.byte	0x1d
 6603 19b1 65       		.byte	0x65
 6604 19b2 B8000000 		.4byte	0xb8
 6605 19b6 01       		.byte	0x1
ARM GAS  C:\Users\haske\AppData\Local\Temp\ccxUXv8a.s 			page 157


 6606 19b7 01       		.byte	0x1
 6607 19b8 07       		.byte	0x7
 6608 19b9 18       		.byte	0x18
 6609 19ba 09       		.uleb128 0x9
 6610 19bb DE090000 		.4byte	.LASF456
 6611 19bf 1D       		.byte	0x1d
 6612 19c0 66       		.byte	0x66
 6613 19c1 B8000000 		.4byte	0xb8
 6614 19c5 01       		.byte	0x1
 6615 19c6 01       		.byte	0x1
 6616 19c7 06       		.byte	0x6
 6617 19c8 18       		.byte	0x18
 6618 19c9 09       		.uleb128 0x9
 6619 19ca 30170000 		.4byte	.LASF457
 6620 19ce 1D       		.byte	0x1d
 6621 19cf 67       		.byte	0x67
 6622 19d0 B8000000 		.4byte	0xb8
 6623 19d4 01       		.byte	0x1
 6624 19d5 01       		.byte	0x1
 6625 19d6 05       		.byte	0x5
 6626 19d7 18       		.byte	0x18
 6627 19d8 00       		.byte	0
 6628 19d9 1F       		.uleb128 0x1f
 6629 19da E9190000 		.4byte	0x19e9
 6630 19de 0E       		.uleb128 0xe
 6631 19df 40190000 		.4byte	0x1940
 6632 19e3 0E       		.uleb128 0xe
 6633 19e4 8E090000 		.4byte	0x98e
 6634 19e8 00       		.byte	0
 6635 19e9 0B       		.uleb128 0xb
 6636 19ea 04       		.byte	0x4
 6637 19eb D9190000 		.4byte	0x19d9
 6638 19ef 1F       		.uleb128 0x1f
 6639 19f0 FF190000 		.4byte	0x19ff
 6640 19f4 0E       		.uleb128 0xe
 6641 19f5 40190000 		.4byte	0x1940
 6642 19f9 0E       		.uleb128 0xe
 6643 19fa 51190000 		.4byte	0x1951
 6644 19fe 00       		.byte	0
 6645 19ff 0B       		.uleb128 0xb
 6646 1a00 04       		.byte	0x4
 6647 1a01 EF190000 		.4byte	0x19ef
 6648 1a05 02       		.uleb128 0x2
 6649 1a06 4B0E0000 		.4byte	.LASF458
 6650 1a0a 1C       		.byte	0x1c
 6651 1a0b 3F       		.byte	0x3f
 6652 1a0c B2180000 		.4byte	0x18b2
 6653 1a10 11       		.uleb128 0x11
 6654 1a11 01       		.byte	0x1
 6655 1a12 42000000 		.4byte	0x42
 6656 1a16 1D       		.byte	0x1d
 6657 1a17 20       		.byte	0x20
 6658 1a18 371B0000 		.4byte	0x1b37
 6659 1a1c 12       		.uleb128 0x12
 6660 1a1d 7C050000 		.4byte	.LASF459
 6661 1a21 00       		.byte	0
 6662 1a22 12       		.uleb128 0x12
ARM GAS  C:\Users\haske\AppData\Local\Temp\ccxUXv8a.s 			page 158


 6663 1a23 201A0000 		.4byte	.LASF460
 6664 1a27 01       		.byte	0x1
 6665 1a28 12       		.uleb128 0x12
 6666 1a29 F1190000 		.4byte	.LASF461
 6667 1a2d 02       		.byte	0x2
 6668 1a2e 12       		.uleb128 0x12
 6669 1a2f 33230000 		.4byte	.LASF462
 6670 1a33 03       		.byte	0x3
 6671 1a34 12       		.uleb128 0x12
 6672 1a35 55040000 		.4byte	.LASF463
 6673 1a39 04       		.byte	0x4
 6674 1a3a 12       		.uleb128 0x12
 6675 1a3b A1030000 		.4byte	.LASF464
 6676 1a3f 05       		.byte	0x5
 6677 1a40 12       		.uleb128 0x12
 6678 1a41 05180000 		.4byte	.LASF465
 6679 1a45 06       		.byte	0x6
 6680 1a46 12       		.uleb128 0x12
 6681 1a47 88230000 		.4byte	.LASF466
 6682 1a4b 07       		.byte	0x7
 6683 1a4c 12       		.uleb128 0x12
 6684 1a4d FD240000 		.4byte	.LASF467
 6685 1a51 08       		.byte	0x8
 6686 1a52 12       		.uleb128 0x12
 6687 1a53 34140000 		.4byte	.LASF468
 6688 1a57 09       		.byte	0x9
 6689 1a58 12       		.uleb128 0x12
 6690 1a59 F6200000 		.4byte	.LASF469
 6691 1a5d 0A       		.byte	0xa
 6692 1a5e 12       		.uleb128 0x12
 6693 1a5f 52130000 		.4byte	.LASF470
 6694 1a63 0B       		.byte	0xb
 6695 1a64 12       		.uleb128 0x12
 6696 1a65 90030000 		.4byte	.LASF471
 6697 1a69 0C       		.byte	0xc
 6698 1a6a 12       		.uleb128 0x12
 6699 1a6b F1220000 		.4byte	.LASF472
 6700 1a6f 0D       		.byte	0xd
 6701 1a70 12       		.uleb128 0x12
 6702 1a71 CB230000 		.4byte	.LASF473
 6703 1a75 0E       		.byte	0xe
 6704 1a76 12       		.uleb128 0x12
 6705 1a77 29210000 		.4byte	.LASF474
 6706 1a7b 0F       		.byte	0xf
 6707 1a7c 12       		.uleb128 0x12
 6708 1a7d 43100000 		.4byte	.LASF475
 6709 1a81 10       		.byte	0x10
 6710 1a82 12       		.uleb128 0x12
 6711 1a83 6A0B0000 		.4byte	.LASF476
 6712 1a87 11       		.byte	0x11
 6713 1a88 12       		.uleb128 0x12
 6714 1a89 CE0A0000 		.4byte	.LASF477
 6715 1a8d 12       		.byte	0x12
 6716 1a8e 12       		.uleb128 0x12
 6717 1a8f 560A0000 		.4byte	.LASF478
 6718 1a93 13       		.byte	0x13
 6719 1a94 12       		.uleb128 0x12
ARM GAS  C:\Users\haske\AppData\Local\Temp\ccxUXv8a.s 			page 159


 6720 1a95 AF000000 		.4byte	.LASF479
 6721 1a99 14       		.byte	0x14
 6722 1a9a 12       		.uleb128 0x12
 6723 1a9b 0A080000 		.4byte	.LASF480
 6724 1a9f 15       		.byte	0x15
 6725 1aa0 12       		.uleb128 0x12
 6726 1aa1 700E0000 		.4byte	.LASF481
 6727 1aa5 16       		.byte	0x16
 6728 1aa6 12       		.uleb128 0x12
 6729 1aa7 0A150000 		.4byte	.LASF482
 6730 1aab 17       		.byte	0x17
 6731 1aac 12       		.uleb128 0x12
 6732 1aad 36220000 		.4byte	.LASF483
 6733 1ab1 18       		.byte	0x18
 6734 1ab2 12       		.uleb128 0x12
 6735 1ab3 6C1F0000 		.4byte	.LASF484
 6736 1ab7 19       		.byte	0x19
 6737 1ab8 12       		.uleb128 0x12
 6738 1ab9 831F0000 		.4byte	.LASF485
 6739 1abd 1A       		.byte	0x1a
 6740 1abe 12       		.uleb128 0x12
 6741 1abf C0060000 		.4byte	.LASF486
 6742 1ac3 1B       		.byte	0x1b
 6743 1ac4 12       		.uleb128 0x12
 6744 1ac5 09160000 		.4byte	.LASF487
 6745 1ac9 1C       		.byte	0x1c
 6746 1aca 12       		.uleb128 0x12
 6747 1acb 99010000 		.4byte	.LASF488
 6748 1acf 1D       		.byte	0x1d
 6749 1ad0 12       		.uleb128 0x12
 6750 1ad1 BA230000 		.4byte	.LASF489
 6751 1ad5 1E       		.byte	0x1e
 6752 1ad6 12       		.uleb128 0x12
 6753 1ad7 1D220000 		.4byte	.LASF490
 6754 1adb 1F       		.byte	0x1f
 6755 1adc 12       		.uleb128 0x12
 6756 1add 471A0000 		.4byte	.LASF491
 6757 1ae1 20       		.byte	0x20
 6758 1ae2 12       		.uleb128 0x12
 6759 1ae3 F2140000 		.4byte	.LASF492
 6760 1ae7 21       		.byte	0x21
 6761 1ae8 12       		.uleb128 0x12
 6762 1ae9 AF020000 		.4byte	.LASF493
 6763 1aed 22       		.byte	0x22
 6764 1aee 12       		.uleb128 0x12
 6765 1aef 07040000 		.4byte	.LASF494
 6766 1af3 23       		.byte	0x23
 6767 1af4 12       		.uleb128 0x12
 6768 1af5 04120000 		.4byte	.LASF495
 6769 1af9 24       		.byte	0x24
 6770 1afa 12       		.uleb128 0x12
 6771 1afb 39240000 		.4byte	.LASF496
 6772 1aff 25       		.byte	0x25
 6773 1b00 12       		.uleb128 0x12
 6774 1b01 15170000 		.4byte	.LASF497
 6775 1b05 26       		.byte	0x26
 6776 1b06 12       		.uleb128 0x12
ARM GAS  C:\Users\haske\AppData\Local\Temp\ccxUXv8a.s 			page 160


 6777 1b07 EB0B0000 		.4byte	.LASF498
 6778 1b0b 27       		.byte	0x27
 6779 1b0c 12       		.uleb128 0x12
 6780 1b0d 821D0000 		.4byte	.LASF499
 6781 1b11 28       		.byte	0x28
 6782 1b12 12       		.uleb128 0x12
 6783 1b13 6F220000 		.4byte	.LASF500
 6784 1b17 29       		.byte	0x29
 6785 1b18 12       		.uleb128 0x12
 6786 1b19 06220000 		.4byte	.LASF501
 6787 1b1d 2A       		.byte	0x2a
 6788 1b1e 12       		.uleb128 0x12
 6789 1b1f B5220000 		.4byte	.LASF502
 6790 1b23 2B       		.byte	0x2b
 6791 1b24 12       		.uleb128 0x12
 6792 1b25 F3070000 		.4byte	.LASF503
 6793 1b29 2C       		.byte	0x2c
 6794 1b2a 12       		.uleb128 0x12
 6795 1b2b D11A0000 		.4byte	.LASF504
 6796 1b2f 2D       		.byte	0x2d
 6797 1b30 12       		.uleb128 0x12
 6798 1b31 75160000 		.4byte	.LASF505
 6799 1b35 80       		.byte	0x80
 6800 1b36 00       		.byte	0
 6801 1b37 02       		.uleb128 0x2
 6802 1b38 F6120000 		.4byte	.LASF506
 6803 1b3c 1D       		.byte	0x1d
 6804 1b3d 5C       		.byte	0x5c
 6805 1b3e 101A0000 		.4byte	0x1a10
 6806 1b42 02       		.uleb128 0x2
 6807 1b43 601B0000 		.4byte	.LASF507
 6808 1b47 19       		.byte	0x19
 6809 1b48 34       		.byte	0x34
 6810 1b49 4D1B0000 		.4byte	0x1b4d
 6811 1b4d 0B       		.uleb128 0xb
 6812 1b4e 04       		.byte	0x4
 6813 1b4f 531B0000 		.4byte	0x1b53
 6814 1b53 1F       		.uleb128 0x1f
 6815 1b54 5E1B0000 		.4byte	0x1b5e
 6816 1b58 0E       		.uleb128 0xe
 6817 1b59 C9170000 		.4byte	0x17c9
 6818 1b5d 00       		.byte	0
 6819 1b5e 02       		.uleb128 0x2
 6820 1b5f A50D0000 		.4byte	.LASF508
 6821 1b63 19       		.byte	0x19
 6822 1b64 35       		.byte	0x35
 6823 1b65 691B0000 		.4byte	0x1b69
 6824 1b69 0B       		.uleb128 0xb
 6825 1b6a 04       		.byte	0x4
 6826 1b6b 6F1B0000 		.4byte	0x1b6f
 6827 1b6f 1F       		.uleb128 0x1f
 6828 1b70 7F1B0000 		.4byte	0x1b7f
 6829 1b74 0E       		.uleb128 0xe
 6830 1b75 C9170000 		.4byte	0x17c9
 6831 1b79 0E       		.uleb128 0xe
 6832 1b7a AA020000 		.4byte	0x2aa
 6833 1b7e 00       		.byte	0
ARM GAS  C:\Users\haske\AppData\Local\Temp\ccxUXv8a.s 			page 161


 6834 1b7f 02       		.uleb128 0x2
 6835 1b80 66080000 		.4byte	.LASF509
 6836 1b84 19       		.byte	0x19
 6837 1b85 4E       		.byte	0x4e
 6838 1b86 44170000 		.4byte	0x1744
 6839 1b8a 05       		.uleb128 0x5
 6840 1b8b 1C       		.byte	0x1c
 6841 1b8c 0E       		.byte	0xe
 6842 1b8d 9B       		.byte	0x9b
 6843 1b8e 411C0000 		.4byte	0x1c41
 6844 1b92 07       		.uleb128 0x7
 6845 1b93 79130000 		.4byte	.LASF510
 6846 1b97 0E       		.byte	0xe
 6847 1b98 9C       		.byte	0x9c
 6848 1b99 13170000 		.4byte	0x1713
 6849 1b9d 00       		.byte	0
 6850 1b9e 07       		.uleb128 0x7
 6851 1b9f 10100000 		.4byte	.LASF511
 6852 1ba3 0E       		.byte	0xe
 6853 1ba4 9D       		.byte	0x9d
 6854 1ba5 E4000000 		.4byte	0xe4
 6855 1ba9 04       		.byte	0x4
 6856 1baa 07       		.uleb128 0x7
 6857 1bab E90C0000 		.4byte	.LASF512
 6858 1baf 0E       		.byte	0xe
 6859 1bb0 9E       		.byte	0x9e
 6860 1bb1 411C0000 		.4byte	0x1c41
 6861 1bb5 08       		.byte	0x8
 6862 1bb6 07       		.uleb128 0x7
 6863 1bb7 5E0C0000 		.4byte	.LASF513
 6864 1bbb 0E       		.byte	0xe
 6865 1bbc A0       		.byte	0xa0
 6866 1bbd 4C1C0000 		.4byte	0x1c4c
 6867 1bc1 0C       		.byte	0xc
 6868 1bc2 07       		.uleb128 0x7
 6869 1bc3 0D0D0000 		.4byte	.LASF514
 6870 1bc7 0E       		.byte	0xe
 6871 1bc8 A1       		.byte	0xa1
 6872 1bc9 29010000 		.4byte	0x129
 6873 1bcd 10       		.byte	0x10
 6874 1bce 07       		.uleb128 0x7
 6875 1bcf 1A200000 		.4byte	.LASF515
 6876 1bd3 0E       		.byte	0xe
 6877 1bd4 A3       		.byte	0xa3
 6878 1bd5 01010000 		.4byte	0x101
 6879 1bd9 14       		.byte	0x14
 6880 1bda 07       		.uleb128 0x7
 6881 1bdb 970D0000 		.4byte	.LASF516
 6882 1bdf 0E       		.byte	0xe
 6883 1be0 A4       		.byte	0xa4
 6884 1be1 01010000 		.4byte	0x101
 6885 1be5 16       		.byte	0x16
 6886 1be6 09       		.uleb128 0x9
 6887 1be7 F9080000 		.4byte	.LASF517
 6888 1beb 0E       		.byte	0xe
 6889 1bec A6       		.byte	0xa6
 6890 1bed 49180000 		.4byte	0x1849
ARM GAS  C:\Users\haske\AppData\Local\Temp\ccxUXv8a.s 			page 162


 6891 1bf1 01       		.byte	0x1
 6892 1bf2 02       		.byte	0x2
 6893 1bf3 06       		.byte	0x6
 6894 1bf4 18       		.byte	0x18
 6895 1bf5 09       		.uleb128 0x9
 6896 1bf6 5E020000 		.4byte	.LASF518
 6897 1bfa 0E       		.byte	0xe
 6898 1bfb A7       		.byte	0xa7
 6899 1bfc 54180000 		.4byte	0x1854
 6900 1c00 01       		.byte	0x1
 6901 1c01 02       		.byte	0x2
 6902 1c02 04       		.byte	0x4
 6903 1c03 18       		.byte	0x18
 6904 1c04 09       		.uleb128 0x9
 6905 1c05 64100000 		.4byte	.LASF519
 6906 1c09 0E       		.byte	0xe
 6907 1c0a A8       		.byte	0xa8
 6908 1c0b 54180000 		.4byte	0x1854
 6909 1c0f 01       		.byte	0x1
 6910 1c10 02       		.byte	0x2
 6911 1c11 02       		.byte	0x2
 6912 1c12 18       		.byte	0x18
 6913 1c13 09       		.uleb128 0x9
 6914 1c14 D4050000 		.4byte	.LASF520
 6915 1c18 0E       		.byte	0xe
 6916 1c19 A9       		.byte	0xa9
 6917 1c1a 74010000 		.4byte	0x174
 6918 1c1e 01       		.byte	0x1
 6919 1c1f 04       		.byte	0x4
 6920 1c20 04       		.byte	0x4
 6921 1c21 19       		.byte	0x19
 6922 1c22 09       		.uleb128 0x9
 6923 1c23 76250000 		.4byte	.LASF521
 6924 1c27 0E       		.byte	0xe
 6925 1c28 AA       		.byte	0xaa
 6926 1c29 B8000000 		.4byte	0xb8
 6927 1c2d 01       		.byte	0x1
 6928 1c2e 06       		.byte	0x6
 6929 1c2f 02       		.byte	0x2
 6930 1c30 1A       		.byte	0x1a
 6931 1c31 09       		.uleb128 0x9
 6932 1c32 4C0D0000 		.4byte	.LASF522
 6933 1c36 0E       		.byte	0xe
 6934 1c37 AB       		.byte	0xab
 6935 1c38 B8000000 		.4byte	0xb8
 6936 1c3c 01       		.byte	0x1
 6937 1c3d 02       		.byte	0x2
 6938 1c3e 00       		.byte	0
 6939 1c3f 1A       		.byte	0x1a
 6940 1c40 00       		.byte	0
 6941 1c41 0B       		.uleb128 0xb
 6942 1c42 04       		.byte	0x4
 6943 1c43 7F1B0000 		.4byte	0x1b7f
 6944 1c47 23       		.uleb128 0x23
 6945 1c48 53230000 		.4byte	.LASF524
 6946 1c4c 0B       		.uleb128 0xb
 6947 1c4d 04       		.byte	0x4
ARM GAS  C:\Users\haske\AppData\Local\Temp\ccxUXv8a.s 			page 163


 6948 1c4e 471C0000 		.4byte	0x1c47
 6949 1c52 02       		.uleb128 0x2
 6950 1c53 71080000 		.4byte	.LASF525
 6951 1c57 0E       		.byte	0xe
 6952 1c58 AC       		.byte	0xac
 6953 1c59 8A1B0000 		.4byte	0x1b8a
 6954 1c5d 0B       		.uleb128 0xb
 6955 1c5e 04       		.byte	0x4
 6956 1c5f 631C0000 		.4byte	0x1c63
 6957 1c63 0C       		.uleb128 0xc
 6958 1c64 051A0000 		.4byte	0x1a05
 6959 1c68 0B       		.uleb128 0xb
 6960 1c69 04       		.byte	0x4
 6961 1c6a 521C0000 		.4byte	0x1c52
 6962 1c6e 0B       		.uleb128 0xb
 6963 1c6f 04       		.byte	0x4
 6964 1c70 A7180000 		.4byte	0x18a7
 6965 1c74 02       		.uleb128 0x2
 6966 1c75 6E210000 		.4byte	.LASF526
 6967 1c79 0E       		.byte	0xe
 6968 1c7a BF       		.byte	0xbf
 6969 1c7b 94090000 		.4byte	0x994
 6970 1c7f 05       		.uleb128 0x5
 6971 1c80 3C       		.byte	0x3c
 6972 1c81 1E       		.byte	0x1e
 6973 1c82 28       		.byte	0x28
 6974 1c83 1F1D0000 		.4byte	0x1d1f
 6975 1c87 06       		.uleb128 0x6
 6976 1c88 6F626A00 		.ascii	"obj\000"
 6977 1c8c 1E       		.byte	0x1e
 6978 1c8d 29       		.byte	0x29
 6979 1c8e 741C0000 		.4byte	0x1c74
 6980 1c92 00       		.byte	0
 6981 1c93 06       		.uleb128 0x6
 6982 1c94 73726300 		.ascii	"src\000"
 6983 1c98 1E       		.byte	0x1e
 6984 1c99 2A       		.byte	0x2a
 6985 1c9a E2020000 		.4byte	0x2e2
 6986 1c9e 24       		.byte	0x24
 6987 1c9f 07       		.uleb128 0x7
 6988 1ca0 EB160000 		.4byte	.LASF527
 6989 1ca4 1E       		.byte	0x1e
 6990 1ca5 2B       		.byte	0x2b
 6991 1ca6 29010000 		.4byte	0x129
 6992 1caa 28       		.byte	0x28
 6993 1cab 06       		.uleb128 0x6
 6994 1cac 7700     		.ascii	"w\000"
 6995 1cae 1E       		.byte	0x1e
 6996 1caf 2C       		.byte	0x2c
 6997 1cb0 01010000 		.4byte	0x101
 6998 1cb4 2C       		.byte	0x2c
 6999 1cb5 06       		.uleb128 0x6
 7000 1cb6 6800     		.ascii	"h\000"
 7001 1cb8 1E       		.byte	0x1e
 7002 1cb9 2D       		.byte	0x2d
 7003 1cba 01010000 		.4byte	0x101
 7004 1cbe 2E       		.byte	0x2e
ARM GAS  C:\Users\haske\AppData\Local\Temp\ccxUXv8a.s 			page 164


 7005 1cbf 07       		.uleb128 0x7
 7006 1cc0 CF110000 		.4byte	.LASF286
 7007 1cc4 1E       		.byte	0x1e
 7008 1cc5 2E       		.byte	0x2e
 7009 1cc6 CE000000 		.4byte	0xce
 7010 1cca 30       		.byte	0x30
 7011 1ccb 07       		.uleb128 0x7
 7012 1ccc 041E0000 		.4byte	.LASF288
 7013 1cd0 1E       		.byte	0x1e
 7014 1cd1 2F       		.byte	0x2f
 7015 1cd2 29010000 		.4byte	0x129
 7016 1cd6 32       		.byte	0x32
 7017 1cd7 07       		.uleb128 0x7
 7018 1cd8 97110000 		.4byte	.LASF287
 7019 1cdc 1E       		.byte	0x1e
 7020 1cdd 30       		.byte	0x30
 7021 1cde CE000000 		.4byte	0xce
 7022 1ce2 36       		.byte	0x36
 7023 1ce3 09       		.uleb128 0x9
 7024 1ce4 25240000 		.4byte	.LASF528
 7025 1ce8 1E       		.byte	0x1e
 7026 1ce9 31       		.byte	0x31
 7027 1cea B8000000 		.4byte	0xb8
 7028 1cee 01       		.byte	0x1
 7029 1cef 02       		.byte	0x2
 7030 1cf0 06       		.byte	0x6
 7031 1cf1 38       		.byte	0x38
 7032 1cf2 08       		.uleb128 0x8
 7033 1cf3 636600   		.ascii	"cf\000"
 7034 1cf6 1E       		.byte	0x1e
 7035 1cf7 32       		.byte	0x32
 7036 1cf8 B8000000 		.4byte	0xb8
 7037 1cfc 01       		.byte	0x1
 7038 1cfd 05       		.byte	0x5
 7039 1cfe 01       		.byte	0x1
 7040 1cff 38       		.byte	0x38
 7041 1d00 09       		.uleb128 0x9
 7042 1d01 E5170000 		.4byte	.LASF292
 7043 1d05 1E       		.byte	0x1e
 7044 1d06 33       		.byte	0x33
 7045 1d07 B8000000 		.4byte	0xb8
 7046 1d0b 01       		.byte	0x1
 7047 1d0c 01       		.byte	0x1
 7048 1d0d 00       		.byte	0
 7049 1d0e 38       		.byte	0x38
 7050 1d0f 09       		.uleb128 0x9
 7051 1d10 5B110000 		.4byte	.LASF529
 7052 1d14 1E       		.byte	0x1e
 7053 1d15 34       		.byte	0x34
 7054 1d16 B8000000 		.4byte	0xb8
 7055 1d1a 01       		.byte	0x1
 7056 1d1b 02       		.byte	0x2
 7057 1d1c 06       		.byte	0x6
 7058 1d1d 39       		.byte	0x39
 7059 1d1e 00       		.byte	0
 7060 1d1f 02       		.uleb128 0x2
 7061 1d20 57190000 		.4byte	.LASF530
ARM GAS  C:\Users\haske\AppData\Local\Temp\ccxUXv8a.s 			page 165


 7062 1d24 1E       		.byte	0x1e
 7063 1d25 35       		.byte	0x35
 7064 1d26 7F1C0000 		.4byte	0x1c7f
 7065 1d2a 05       		.uleb128 0x5
 7066 1d2b 48       		.byte	0x48
 7067 1d2c 1F       		.byte	0x1f
 7068 1d2d 22       		.byte	0x22
 7069 1d2e 4B1D0000 		.4byte	0x1d4b
 7070 1d32 06       		.uleb128 0x6
 7071 1d33 696D6700 		.ascii	"img\000"
 7072 1d37 1F       		.byte	0x1f
 7073 1d38 23       		.byte	0x23
 7074 1d39 1F1D0000 		.4byte	0x1d1f
 7075 1d3d 00       		.byte	0
 7076 1d3e 06       		.uleb128 0x6
 7077 1d3f 64736300 		.ascii	"dsc\000"
 7078 1d43 1F       		.byte	0x1f
 7079 1d44 24       		.byte	0x24
 7080 1d45 83090000 		.4byte	0x983
 7081 1d49 3C       		.byte	0x3c
 7082 1d4a 00       		.byte	0
 7083 1d4b 02       		.uleb128 0x2
 7084 1d4c BC1A0000 		.4byte	.LASF531
 7085 1d50 1F       		.byte	0x1f
 7086 1d51 25       		.byte	0x25
 7087 1d52 2A1D0000 		.4byte	0x1d2a
 7088 1d56 25       		.uleb128 0x25
 7089 1d57 211D0000 		.4byte	.LASF532
 7090 1d5b 04       		.byte	0x4
 7091 1d5c 4C02     		.2byte	0x24c
 7092 1d5e ED030000 		.4byte	0x3ed
 7093 1d62 03       		.byte	0x3
 7094 1d63 861D0000 		.4byte	0x1d86
 7095 1d67 26       		.uleb128 0x26
 7096 1d68 7200     		.ascii	"r\000"
 7097 1d6a 04       		.byte	0x4
 7098 1d6b 4C02     		.2byte	0x24c
 7099 1d6d B8000000 		.4byte	0xb8
 7100 1d71 26       		.uleb128 0x26
 7101 1d72 6700     		.ascii	"g\000"
 7102 1d74 04       		.byte	0x4
 7103 1d75 4C02     		.2byte	0x24c
 7104 1d77 B8000000 		.4byte	0xb8
 7105 1d7b 26       		.uleb128 0x26
 7106 1d7c 6200     		.ascii	"b\000"
 7107 1d7e 04       		.byte	0x4
 7108 1d7f 4C02     		.2byte	0x24c
 7109 1d81 B8000000 		.4byte	0xb8
 7110 1d85 00       		.byte	0
 7111 1d86 25       		.uleb128 0x25
 7112 1d87 DC1B0000 		.4byte	.LASF533
 7113 1d8b 02       		.byte	0x2
 7114 1d8c 5D01     		.2byte	0x15d
 7115 1d8e ED030000 		.4byte	0x3ed
 7116 1d92 03       		.byte	0x3
 7117 1d93 BA1D0000 		.4byte	0x1dba
 7118 1d97 26       		.uleb128 0x26
ARM GAS  C:\Users\haske\AppData\Local\Temp\ccxUXv8a.s 			page 166


 7119 1d98 6F626A00 		.ascii	"obj\000"
 7120 1d9c 02       		.byte	0x2
 7121 1d9d 5D01     		.2byte	0x15d
 7122 1d9f BA1D0000 		.4byte	0x1dba
 7123 1da3 27       		.uleb128 0x27
 7124 1da4 AE240000 		.4byte	.LASF534
 7125 1da8 02       		.byte	0x2
 7126 1da9 5D01     		.2byte	0x15d
 7127 1dab E4000000 		.4byte	0xe4
 7128 1daf 28       		.uleb128 0x28
 7129 1db0 7600     		.ascii	"v\000"
 7130 1db2 02       		.byte	0x2
 7131 1db3 5F01     		.2byte	0x15f
 7132 1db5 0B050000 		.4byte	0x50b
 7133 1db9 00       		.byte	0
 7134 1dba 0B       		.uleb128 0xb
 7135 1dbb 04       		.byte	0x4
 7136 1dbc C01D0000 		.4byte	0x1dc0
 7137 1dc0 0C       		.uleb128 0xc
 7138 1dc1 94090000 		.4byte	0x994
 7139 1dc5 29       		.uleb128 0x29
 7140 1dc6 490A0000 		.4byte	.LASF636
 7141 1dca 03       		.byte	0x3
 7142 1dcb 6E       		.byte	0x6e
 7143 1dcc 03       		.byte	0x3
 7144 1dcd E81D0000 		.4byte	0x1de8
 7145 1dd1 2A       		.uleb128 0x2a
 7146 1dd2 C91D0000 		.4byte	.LASF535
 7147 1dd6 03       		.byte	0x3
 7148 1dd7 6E       		.byte	0x6e
 7149 1dd8 980E0000 		.4byte	0xe98
 7150 1ddc 2B       		.uleb128 0x2b
 7151 1ddd 73726300 		.ascii	"src\000"
 7152 1de1 03       		.byte	0x3
 7153 1de2 6E       		.byte	0x6e
 7154 1de3 8D0E0000 		.4byte	0xe8d
 7155 1de7 00       		.byte	0
 7156 1de8 2C       		.uleb128 0x2c
 7157 1de9 9C0C0000 		.4byte	.LASF637
 7158 1ded 04       		.byte	0x4
 7159 1dee B102     		.2byte	0x2b1
 7160 1df0 ED030000 		.4byte	0x3ed
 7161 1df4 03       		.byte	0x3
 7162 1df5 25       		.uleb128 0x25
 7163 1df6 AB0C0000 		.4byte	.LASF536
 7164 1dfa 04       		.byte	0x4
 7165 1dfb 5102     		.2byte	0x251
 7166 1dfd ED030000 		.4byte	0x3ed
 7167 1e01 03       		.byte	0x3
 7168 1e02 1B1E0000 		.4byte	0x1e1b
 7169 1e06 26       		.uleb128 0x26
 7170 1e07 6300     		.ascii	"c\000"
 7171 1e09 04       		.byte	0x4
 7172 1e0a 5102     		.2byte	0x251
 7173 1e0c E4000000 		.4byte	0xe4
 7174 1e10 28       		.uleb128 0x28
 7175 1e11 7200     		.ascii	"r\000"
ARM GAS  C:\Users\haske\AppData\Local\Temp\ccxUXv8a.s 			page 167


 7176 1e13 04       		.byte	0x4
 7177 1e14 5402     		.2byte	0x254
 7178 1e16 ED030000 		.4byte	0x3ed
 7179 1e1a 00       		.byte	0
 7180 1e1b 2D       		.uleb128 0x2d
 7181 1e1c 220B0000 		.4byte	.LASF537
 7182 1e20 01       		.byte	0x1
 7183 1e21 1103     		.2byte	0x311
 7184 1e23 00000000 		.4byte	.LFB179
 7185 1e27 0C000000 		.4byte	.LFE179-.LFB179
 7186 1e2b 01       		.uleb128 0x1
 7187 1e2c 9C       		.byte	0x9c
 7188 1e2d 751E0000 		.4byte	0x1e75
 7189 1e31 2E       		.uleb128 0x2e
 7190 1e32 02150000 		.4byte	.LASF234
 7191 1e36 01       		.byte	0x1
 7192 1e37 1103     		.2byte	0x311
 7193 1e39 5D1C0000 		.4byte	0x1c5d
 7194 1e3d 00000000 		.4byte	.LLST0
 7195 1e41 2F       		.uleb128 0x2f
 7196 1e42 6F626A00 		.ascii	"obj\000"
 7197 1e46 01       		.byte	0x1
 7198 1e47 1103     		.2byte	0x311
 7199 1e49 751E0000 		.4byte	0x1e75
 7200 1e4d 21000000 		.4byte	.LLST1
 7201 1e51 30       		.uleb128 0x30
 7202 1e52 59070000 		.4byte	.LASF539
 7203 1e56 01       		.byte	0x1
 7204 1e57 1603     		.2byte	0x316
 7205 1e59 7B1E0000 		.4byte	0x1e7b
 7206 1e5d 4F000000 		.4byte	.LLST2
 7207 1e61 31       		.uleb128 0x31
 7208 1e62 0A000000 		.4byte	.LVL4
 7209 1e66 05390000 		.4byte	0x3905
 7210 1e6a 32       		.uleb128 0x32
 7211 1e6b 01       		.uleb128 0x1
 7212 1e6c 50       		.byte	0x50
 7213 1e6d 05       		.uleb128 0x5
 7214 1e6e F3       		.byte	0xf3
 7215 1e6f 01       		.uleb128 0x1
 7216 1e70 51       		.byte	0x51
 7217 1e71 23       		.byte	0x23
 7218 1e72 3C       		.uleb128 0x3c
 7219 1e73 00       		.byte	0
 7220 1e74 00       		.byte	0
 7221 1e75 0B       		.uleb128 0xb
 7222 1e76 04       		.byte	0x4
 7223 1e77 741C0000 		.4byte	0x1c74
 7224 1e7b 0B       		.uleb128 0xb
 7225 1e7c 04       		.byte	0x4
 7226 1e7d 4B1D0000 		.4byte	0x1d4b
 7227 1e81 2D       		.uleb128 0x2d
 7228 1e82 1B1E0000 		.4byte	.LASF538
 7229 1e86 01       		.byte	0x1
 7230 1e87 FE02     		.2byte	0x2fe
 7231 1e89 00000000 		.4byte	.LFB178
 7232 1e8d 2C000000 		.4byte	.LFE178-.LFB178
ARM GAS  C:\Users\haske\AppData\Local\Temp\ccxUXv8a.s 			page 168


 7233 1e91 01       		.uleb128 0x1
 7234 1e92 9C       		.byte	0x9c
 7235 1e93 E21E0000 		.4byte	0x1ee2
 7236 1e97 2E       		.uleb128 0x2e
 7237 1e98 02150000 		.4byte	.LASF234
 7238 1e9c 01       		.byte	0x1
 7239 1e9d FE02     		.2byte	0x2fe
 7240 1e9f 5D1C0000 		.4byte	0x1c5d
 7241 1ea3 7D000000 		.4byte	.LLST3
 7242 1ea7 2F       		.uleb128 0x2f
 7243 1ea8 6F626A00 		.ascii	"obj\000"
 7244 1eac 01       		.byte	0x1
 7245 1ead FE02     		.2byte	0x2fe
 7246 1eaf 751E0000 		.4byte	0x1e75
 7247 1eb3 9E000000 		.4byte	.LLST4
 7248 1eb7 30       		.uleb128 0x30
 7249 1eb8 59070000 		.4byte	.LASF539
 7250 1ebc 01       		.byte	0x1
 7251 1ebd 0303     		.2byte	0x303
 7252 1ebf 7B1E0000 		.4byte	0x1e7b
 7253 1ec3 CA000000 		.4byte	.LLST5
 7254 1ec7 31       		.uleb128 0x31
 7255 1ec8 26000000 		.4byte	.LVL8
 7256 1ecc 10390000 		.4byte	0x3910
 7257 1ed0 32       		.uleb128 0x32
 7258 1ed1 01       		.uleb128 0x1
 7259 1ed2 50       		.byte	0x50
 7260 1ed3 03       		.uleb128 0x3
 7261 1ed4 F3       		.byte	0xf3
 7262 1ed5 01       		.uleb128 0x1
 7263 1ed6 51       		.byte	0x51
 7264 1ed7 32       		.uleb128 0x32
 7265 1ed8 01       		.uleb128 0x1
 7266 1ed9 51       		.byte	0x51
 7267 1eda 05       		.uleb128 0x5
 7268 1edb F3       		.byte	0xf3
 7269 1edc 01       		.uleb128 0x1
 7270 1edd 51       		.byte	0x51
 7271 1ede 23       		.byte	0x23
 7272 1edf 3C       		.uleb128 0x3c
 7273 1ee0 00       		.byte	0
 7274 1ee1 00       		.byte	0
 7275 1ee2 2D       		.uleb128 0x2d
 7276 1ee3 1A1C0000 		.4byte	.LASF540
 7277 1ee7 01       		.byte	0x1
 7278 1ee8 3B03     		.2byte	0x33b
 7279 1eea 00000000 		.4byte	.LFB181
 7280 1eee 16000000 		.4byte	.LFE181-.LFB181
 7281 1ef2 01       		.uleb128 0x1
 7282 1ef3 9C       		.byte	0x9c
 7283 1ef4 2B1F0000 		.4byte	0x1f2b
 7284 1ef8 2E       		.uleb128 0x2e
 7285 1ef9 59070000 		.4byte	.LASF539
 7286 1efd 01       		.byte	0x1
 7287 1efe 3B03     		.2byte	0x33b
 7288 1f00 751E0000 		.4byte	0x1e75
 7289 1f04 F6000000 		.4byte	.LLST6
ARM GAS  C:\Users\haske\AppData\Local\Temp\ccxUXv8a.s 			page 169


 7290 1f08 2E       		.uleb128 0x2e
 7291 1f09 30150000 		.4byte	.LASF541
 7292 1f0d 01       		.byte	0x1
 7293 1f0e 3B03     		.2byte	0x33b
 7294 1f10 2B1F0000 		.4byte	0x1f2b
 7295 1f14 17010000 		.4byte	.LLST7
 7296 1f18 33       		.uleb128 0x33
 7297 1f19 0C000000 		.4byte	.LVL12
 7298 1f1d 1B390000 		.4byte	0x391b
 7299 1f21 33       		.uleb128 0x33
 7300 1f22 14000000 		.4byte	.LVL13
 7301 1f26 26390000 		.4byte	0x3926
 7302 1f2a 00       		.byte	0
 7303 1f2b 0B       		.uleb128 0xb
 7304 1f2c 04       		.byte	0x4
 7305 1f2d 39170000 		.4byte	0x1739
 7306 1f31 34       		.uleb128 0x34
 7307 1f32 00110000 		.4byte	.LASF546
 7308 1f36 01       		.byte	0x1
 7309 1f37 36       		.byte	0x36
 7310 1f38 751E0000 		.4byte	0x1e75
 7311 1f3c 00000000 		.4byte	.LFB160
 7312 1f40 18000000 		.4byte	.LFE160-.LFB160
 7313 1f44 01       		.uleb128 0x1
 7314 1f45 9C       		.byte	0x9c
 7315 1f46 971F0000 		.4byte	0x1f97
 7316 1f4a 35       		.uleb128 0x35
 7317 1f4b 870E0000 		.4byte	.LASF235
 7318 1f4f 01       		.byte	0x1
 7319 1f50 36       		.byte	0x36
 7320 1f51 751E0000 		.4byte	0x1e75
 7321 1f55 43010000 		.4byte	.LLST8
 7322 1f59 36       		.uleb128 0x36
 7323 1f5a 6F626A00 		.ascii	"obj\000"
 7324 1f5e 01       		.byte	0x1
 7325 1f5f 39       		.byte	0x39
 7326 1f60 751E0000 		.4byte	0x1e75
 7327 1f64 6F010000 		.4byte	.LLST9
 7328 1f68 37       		.uleb128 0x37
 7329 1f69 0A000000 		.4byte	.LVL17
 7330 1f6d 31390000 		.4byte	0x3931
 7331 1f71 861F0000 		.4byte	0x1f86
 7332 1f75 32       		.uleb128 0x32
 7333 1f76 01       		.uleb128 0x1
 7334 1f77 50       		.byte	0x50
 7335 1f78 05       		.uleb128 0x5
 7336 1f79 03       		.byte	0x3
 7337 1f7a 00000000 		.4byte	.LANCHOR0
 7338 1f7e 32       		.uleb128 0x32
 7339 1f7f 01       		.uleb128 0x1
 7340 1f80 51       		.byte	0x51
 7341 1f81 03       		.uleb128 0x3
 7342 1f82 F3       		.byte	0xf3
 7343 1f83 01       		.uleb128 0x1
 7344 1f84 50       		.byte	0x50
 7345 1f85 00       		.byte	0
 7346 1f86 31       		.uleb128 0x31
ARM GAS  C:\Users\haske\AppData\Local\Temp\ccxUXv8a.s 			page 170


 7347 1f87 10000000 		.4byte	.LVL19
 7348 1f8b 3C390000 		.4byte	0x393c
 7349 1f8f 32       		.uleb128 0x32
 7350 1f90 01       		.uleb128 0x1
 7351 1f91 50       		.byte	0x50
 7352 1f92 02       		.uleb128 0x2
 7353 1f93 74       		.byte	0x74
 7354 1f94 00       		.sleb128 0
 7355 1f95 00       		.byte	0
 7356 1f96 00       		.byte	0
 7357 1f97 38       		.uleb128 0x38
 7358 1f98 D71E0000 		.4byte	.LASF542
 7359 1f9c 01       		.byte	0x1
 7360 1f9d 42       		.byte	0x42
 7361 1f9e 00000000 		.4byte	.LFB161
 7362 1fa2 50000000 		.4byte	.LFE161-.LFB161
 7363 1fa6 01       		.uleb128 0x1
 7364 1fa7 9C       		.byte	0x9c
 7365 1fa8 2C200000 		.4byte	0x202c
 7366 1fac 39       		.uleb128 0x39
 7367 1fad 6F626A00 		.ascii	"obj\000"
 7368 1fb1 01       		.byte	0x1
 7369 1fb2 42       		.byte	0x42
 7370 1fb3 751E0000 		.4byte	0x1e75
 7371 1fb7 98010000 		.4byte	.LLST10
 7372 1fbb 39       		.uleb128 0x39
 7373 1fbc 62756600 		.ascii	"buf\000"
 7374 1fc0 01       		.byte	0x1
 7375 1fc1 42       		.byte	0x42
 7376 1fc2 E9020000 		.4byte	0x2e9
 7377 1fc6 B9010000 		.4byte	.LLST11
 7378 1fca 39       		.uleb128 0x39
 7379 1fcb 7700     		.ascii	"w\000"
 7380 1fcd 01       		.byte	0x1
 7381 1fce 42       		.byte	0x42
 7382 1fcf 01010000 		.4byte	0x101
 7383 1fd3 E7010000 		.4byte	.LLST12
 7384 1fd7 39       		.uleb128 0x39
 7385 1fd8 6800     		.ascii	"h\000"
 7386 1fda 01       		.byte	0x1
 7387 1fdb 42       		.byte	0x42
 7388 1fdc 01010000 		.4byte	0x101
 7389 1fe0 08020000 		.4byte	.LLST13
 7390 1fe4 39       		.uleb128 0x39
 7391 1fe5 636600   		.ascii	"cf\000"
 7392 1fe8 01       		.byte	0x1
 7393 1fe9 42       		.byte	0x42
 7394 1fea F1080000 		.4byte	0x8f1
 7395 1fee 29020000 		.4byte	.LLST14
 7396 1ff2 3A       		.uleb128 0x3a
 7397 1ff3 59070000 		.4byte	.LASF539
 7398 1ff7 01       		.byte	0x1
 7399 1ff8 47       		.byte	0x47
 7400 1ff9 7B1E0000 		.4byte	0x1e7b
 7401 1ffd 55020000 		.4byte	.LLST15
 7402 2001 37       		.uleb128 0x37
 7403 2002 42000000 		.4byte	.LVL29
ARM GAS  C:\Users\haske\AppData\Local\Temp\ccxUXv8a.s 			page 171


 7404 2006 10390000 		.4byte	0x3910
 7405 200a 1B200000 		.4byte	0x201b
 7406 200e 32       		.uleb128 0x32
 7407 200f 01       		.uleb128 0x1
 7408 2010 50       		.byte	0x50
 7409 2011 02       		.uleb128 0x2
 7410 2012 74       		.byte	0x74
 7411 2013 44       		.sleb128 -60
 7412 2014 32       		.uleb128 0x32
 7413 2015 01       		.uleb128 0x1
 7414 2016 51       		.byte	0x51
 7415 2017 02       		.uleb128 0x2
 7416 2018 74       		.byte	0x74
 7417 2019 00       		.sleb128 0
 7418 201a 00       		.byte	0
 7419 201b 31       		.uleb128 0x31
 7420 201c 48000000 		.4byte	.LVL30
 7421 2020 05390000 		.4byte	0x3905
 7422 2024 32       		.uleb128 0x32
 7423 2025 01       		.uleb128 0x1
 7424 2026 50       		.byte	0x50
 7425 2027 02       		.uleb128 0x2
 7426 2028 74       		.byte	0x74
 7427 2029 00       		.sleb128 0
 7428 202a 00       		.byte	0
 7429 202b 00       		.byte	0
 7430 202c 38       		.uleb128 0x38
 7431 202d A21E0000 		.4byte	.LASF543
 7432 2031 01       		.byte	0x1
 7433 2032 52       		.byte	0x52
 7434 2033 00000000 		.4byte	.LFB162
 7435 2037 12000000 		.4byte	.LFE162-.LFB162
 7436 203b 01       		.uleb128 0x1
 7437 203c 9C       		.byte	0x9c
 7438 203d AB200000 		.4byte	0x20ab
 7439 2041 39       		.uleb128 0x39
 7440 2042 6F626A00 		.ascii	"obj\000"
 7441 2046 01       		.byte	0x1
 7442 2047 52       		.byte	0x52
 7443 2048 751E0000 		.4byte	0x1e75
 7444 204c 83020000 		.4byte	.LLST16
 7445 2050 39       		.uleb128 0x39
 7446 2051 7800     		.ascii	"x\000"
 7447 2053 01       		.byte	0x1
 7448 2054 52       		.byte	0x52
 7449 2055 01010000 		.4byte	0x101
 7450 2059 AF020000 		.4byte	.LLST17
 7451 205d 39       		.uleb128 0x39
 7452 205e 7900     		.ascii	"y\000"
 7453 2060 01       		.byte	0x1
 7454 2061 52       		.byte	0x52
 7455 2062 01010000 		.4byte	0x101
 7456 2066 D0020000 		.4byte	.LLST18
 7457 206a 39       		.uleb128 0x39
 7458 206b 6300     		.ascii	"c\000"
 7459 206d 01       		.byte	0x1
 7460 206e 52       		.byte	0x52
ARM GAS  C:\Users\haske\AppData\Local\Temp\ccxUXv8a.s 			page 172


 7461 206f ED030000 		.4byte	0x3ed
 7462 2073 F1020000 		.4byte	.LLST19
 7463 2077 3A       		.uleb128 0x3a
 7464 2078 59070000 		.4byte	.LASF539
 7465 207c 01       		.byte	0x1
 7466 207d 56       		.byte	0x56
 7467 207e 7B1E0000 		.4byte	0x1e7b
 7468 2082 04030000 		.4byte	.LLST20
 7469 2086 37       		.uleb128 0x37
 7470 2087 0A000000 		.4byte	.LVL35
 7471 208b 47390000 		.4byte	0x3947
 7472 208f 9A200000 		.4byte	0x209a
 7473 2093 32       		.uleb128 0x32
 7474 2094 01       		.uleb128 0x1
 7475 2095 50       		.byte	0x50
 7476 2096 02       		.uleb128 0x2
 7477 2097 74       		.byte	0x74
 7478 2098 3C       		.sleb128 60
 7479 2099 00       		.byte	0
 7480 209a 31       		.uleb128 0x31
 7481 209b 10000000 		.4byte	.LVL36
 7482 209f 52390000 		.4byte	0x3952
 7483 20a3 32       		.uleb128 0x32
 7484 20a4 01       		.uleb128 0x1
 7485 20a5 50       		.byte	0x50
 7486 20a6 02       		.uleb128 0x2
 7487 20a7 74       		.byte	0x74
 7488 20a8 00       		.sleb128 0
 7489 20a9 00       		.byte	0
 7490 20aa 00       		.byte	0
 7491 20ab 38       		.uleb128 0x38
 7492 20ac 90190000 		.4byte	.LASF544
 7493 20b0 01       		.byte	0x1
 7494 20b1 5C       		.byte	0x5c
 7495 20b2 00000000 		.4byte	.LFB163
 7496 20b6 12000000 		.4byte	.LFE163-.LFB163
 7497 20ba 01       		.uleb128 0x1
 7498 20bb 9C       		.byte	0x9c
 7499 20bc 2C210000 		.4byte	0x212c
 7500 20c0 39       		.uleb128 0x39
 7501 20c1 6F626A00 		.ascii	"obj\000"
 7502 20c5 01       		.byte	0x1
 7503 20c6 5C       		.byte	0x5c
 7504 20c7 751E0000 		.4byte	0x1e75
 7505 20cb 30030000 		.4byte	.LLST21
 7506 20cf 39       		.uleb128 0x39
 7507 20d0 7800     		.ascii	"x\000"
 7508 20d2 01       		.byte	0x1
 7509 20d3 5C       		.byte	0x5c
 7510 20d4 01010000 		.4byte	0x101
 7511 20d8 5C030000 		.4byte	.LLST22
 7512 20dc 39       		.uleb128 0x39
 7513 20dd 7900     		.ascii	"y\000"
 7514 20df 01       		.byte	0x1
 7515 20e0 5C       		.byte	0x5c
 7516 20e1 01010000 		.4byte	0x101
 7517 20e5 7D030000 		.4byte	.LLST23
ARM GAS  C:\Users\haske\AppData\Local\Temp\ccxUXv8a.s 			page 173


 7518 20e9 39       		.uleb128 0x39
 7519 20ea 6F706100 		.ascii	"opa\000"
 7520 20ee 01       		.byte	0x1
 7521 20ef 5C       		.byte	0x5c
 7522 20f0 F8030000 		.4byte	0x3f8
 7523 20f4 9E030000 		.4byte	.LLST24
 7524 20f8 3A       		.uleb128 0x3a
 7525 20f9 59070000 		.4byte	.LASF539
 7526 20fd 01       		.byte	0x1
 7527 20fe 60       		.byte	0x60
 7528 20ff 7B1E0000 		.4byte	0x1e7b
 7529 2103 BF030000 		.4byte	.LLST25
 7530 2107 37       		.uleb128 0x37
 7531 2108 0A000000 		.4byte	.LVL41
 7532 210c 5E390000 		.4byte	0x395e
 7533 2110 1B210000 		.4byte	0x211b
 7534 2114 32       		.uleb128 0x32
 7535 2115 01       		.uleb128 0x1
 7536 2116 50       		.byte	0x50
 7537 2117 02       		.uleb128 0x2
 7538 2118 74       		.byte	0x74
 7539 2119 3C       		.sleb128 60
 7540 211a 00       		.byte	0
 7541 211b 31       		.uleb128 0x31
 7542 211c 10000000 		.4byte	.LVL42
 7543 2120 52390000 		.4byte	0x3952
 7544 2124 32       		.uleb128 0x32
 7545 2125 01       		.uleb128 0x1
 7546 2126 50       		.byte	0x50
 7547 2127 02       		.uleb128 0x2
 7548 2128 74       		.byte	0x74
 7549 2129 00       		.sleb128 0
 7550 212a 00       		.byte	0
 7551 212b 00       		.byte	0
 7552 212c 38       		.uleb128 0x38
 7553 212d F1030000 		.4byte	.LASF545
 7554 2131 01       		.byte	0x1
 7555 2132 66       		.byte	0x66
 7556 2133 00000000 		.4byte	.LFB164
 7557 2137 12000000 		.4byte	.LFE164-.LFB164
 7558 213b 01       		.uleb128 0x1
 7559 213c 9C       		.byte	0x9c
 7560 213d 9F210000 		.4byte	0x219f
 7561 2141 39       		.uleb128 0x39
 7562 2142 6F626A00 		.ascii	"obj\000"
 7563 2146 01       		.byte	0x1
 7564 2147 66       		.byte	0x66
 7565 2148 751E0000 		.4byte	0x1e75
 7566 214c EB030000 		.4byte	.LLST26
 7567 2150 39       		.uleb128 0x39
 7568 2151 696400   		.ascii	"id\000"
 7569 2154 01       		.byte	0x1
 7570 2155 66       		.byte	0x66
 7571 2156 B8000000 		.4byte	0xb8
 7572 215a 17040000 		.4byte	.LLST27
 7573 215e 39       		.uleb128 0x39
 7574 215f 6300     		.ascii	"c\000"
ARM GAS  C:\Users\haske\AppData\Local\Temp\ccxUXv8a.s 			page 174


 7575 2161 01       		.byte	0x1
 7576 2162 66       		.byte	0x66
 7577 2163 ED030000 		.4byte	0x3ed
 7578 2167 38040000 		.4byte	.LLST28
 7579 216b 3A       		.uleb128 0x3a
 7580 216c 59070000 		.4byte	.LASF539
 7581 2170 01       		.byte	0x1
 7582 2171 6A       		.byte	0x6a
 7583 2172 7B1E0000 		.4byte	0x1e7b
 7584 2176 4B040000 		.4byte	.LLST29
 7585 217a 37       		.uleb128 0x37
 7586 217b 0A000000 		.4byte	.LVL47
 7587 217f 69390000 		.4byte	0x3969
 7588 2183 8E210000 		.4byte	0x218e
 7589 2187 32       		.uleb128 0x32
 7590 2188 01       		.uleb128 0x1
 7591 2189 50       		.byte	0x50
 7592 218a 02       		.uleb128 0x2
 7593 218b 74       		.byte	0x74
 7594 218c 3C       		.sleb128 60
 7595 218d 00       		.byte	0
 7596 218e 31       		.uleb128 0x31
 7597 218f 10000000 		.4byte	.LVL48
 7598 2193 52390000 		.4byte	0x3952
 7599 2197 32       		.uleb128 0x32
 7600 2198 01       		.uleb128 0x1
 7601 2199 50       		.byte	0x50
 7602 219a 02       		.uleb128 0x2
 7603 219b 74       		.byte	0x74
 7604 219c 00       		.sleb128 0
 7605 219d 00       		.byte	0
 7606 219e 00       		.byte	0
 7607 219f 34       		.uleb128 0x34
 7608 21a0 70030000 		.4byte	.LASF547
 7609 21a4 01       		.byte	0x1
 7610 21a5 74       		.byte	0x74
 7611 21a6 ED030000 		.4byte	0x3ed
 7612 21aa 00000000 		.4byte	.LFB165
 7613 21ae 20000000 		.4byte	.LFE165-.LFB165
 7614 21b2 01       		.uleb128 0x1
 7615 21b3 9C       		.byte	0x9c
 7616 21b4 68220000 		.4byte	0x2268
 7617 21b8 39       		.uleb128 0x39
 7618 21b9 6F626A00 		.ascii	"obj\000"
 7619 21bd 01       		.byte	0x1
 7620 21be 74       		.byte	0x74
 7621 21bf 751E0000 		.4byte	0x1e75
 7622 21c3 77040000 		.4byte	.LLST30
 7623 21c7 39       		.uleb128 0x39
 7624 21c8 7800     		.ascii	"x\000"
 7625 21ca 01       		.byte	0x1
 7626 21cb 74       		.byte	0x74
 7627 21cc 01010000 		.4byte	0x101
 7628 21d0 A3040000 		.4byte	.LLST31
 7629 21d4 39       		.uleb128 0x39
 7630 21d5 7900     		.ascii	"y\000"
 7631 21d7 01       		.byte	0x1
ARM GAS  C:\Users\haske\AppData\Local\Temp\ccxUXv8a.s 			page 175


 7632 21d8 74       		.byte	0x74
 7633 21d9 01010000 		.4byte	0x101
 7634 21dd C4040000 		.4byte	.LLST32
 7635 21e1 3A       		.uleb128 0x3a
 7636 21e2 59070000 		.4byte	.LASF539
 7637 21e6 01       		.byte	0x1
 7638 21e7 78       		.byte	0x78
 7639 21e8 7B1E0000 		.4byte	0x1e7b
 7640 21ec E5040000 		.4byte	.LLST33
 7641 21f0 3B       		.uleb128 0x3b
 7642 21f1 FE1D0000 		.4byte	.LASF78
 7643 21f5 01       		.byte	0x1
 7644 21f6 79       		.byte	0x79
 7645 21f7 ED030000 		.4byte	0x3ed
 7646 21fb 3C       		.uleb128 0x3c
 7647 21fc 861D0000 		.4byte	0x1d86
 7648 2200 08000000 		.4byte	.LBB26
 7649 2204 0A000000 		.4byte	.LBE26-.LBB26
 7650 2208 01       		.byte	0x1
 7651 2209 79       		.byte	0x79
 7652 220a 4B220000 		.4byte	0x224b
 7653 220e 3D       		.uleb128 0x3d
 7654 220f A31D0000 		.4byte	0x1da3
 7655 2213 11050000 		.4byte	.LLST34
 7656 2217 3D       		.uleb128 0x3d
 7657 2218 971D0000 		.4byte	0x1d97
 7658 221c 25050000 		.4byte	.LLST35
 7659 2220 3E       		.uleb128 0x3e
 7660 2221 08000000 		.4byte	.LBB27
 7661 2225 0A000000 		.4byte	.LBE27-.LBB27
 7662 2229 3F       		.uleb128 0x3f
 7663 222a AF1D0000 		.4byte	0x1daf
 7664 222e 31       		.uleb128 0x31
 7665 222f 10000000 		.4byte	.LVL54
 7666 2233 74390000 		.4byte	0x3974
 7667 2237 32       		.uleb128 0x32
 7668 2238 01       		.uleb128 0x1
 7669 2239 50       		.byte	0x50
 7670 223a 02       		.uleb128 0x2
 7671 223b 74       		.byte	0x74
 7672 223c 00       		.sleb128 0
 7673 223d 32       		.uleb128 0x32
 7674 223e 01       		.uleb128 0x1
 7675 223f 51       		.byte	0x51
 7676 2240 01       		.uleb128 0x1
 7677 2241 30       		.byte	0x30
 7678 2242 32       		.uleb128 0x32
 7679 2243 01       		.uleb128 0x1
 7680 2244 52       		.byte	0x52
 7681 2245 02       		.uleb128 0x2
 7682 2246 08       		.byte	0x8
 7683 2247 47       		.byte	0x47
 7684 2248 00       		.byte	0
 7685 2249 00       		.byte	0
 7686 224a 00       		.byte	0
 7687 224b 31       		.uleb128 0x31
 7688 224c 1E000000 		.4byte	.LVL56
ARM GAS  C:\Users\haske\AppData\Local\Temp\ccxUXv8a.s 			page 176


 7689 2250 7F390000 		.4byte	0x397f
 7690 2254 32       		.uleb128 0x32
 7691 2255 01       		.uleb128 0x1
 7692 2256 50       		.byte	0x50
 7693 2257 02       		.uleb128 0x2
 7694 2258 74       		.byte	0x74
 7695 2259 3C       		.sleb128 60
 7696 225a 32       		.uleb128 0x32
 7697 225b 01       		.uleb128 0x1
 7698 225c 51       		.byte	0x51
 7699 225d 02       		.uleb128 0x2
 7700 225e 75       		.byte	0x75
 7701 225f 00       		.sleb128 0
 7702 2260 32       		.uleb128 0x32
 7703 2261 01       		.uleb128 0x1
 7704 2262 52       		.byte	0x52
 7705 2263 02       		.uleb128 0x2
 7706 2264 76       		.byte	0x76
 7707 2265 00       		.sleb128 0
 7708 2266 00       		.byte	0
 7709 2267 00       		.byte	0
 7710 2268 34       		.uleb128 0x34
 7711 2269 E91F0000 		.4byte	.LASF548
 7712 226d 01       		.byte	0x1
 7713 226e 7E       		.byte	0x7e
 7714 226f A0220000 		.4byte	0x22a0
 7715 2273 00000000 		.4byte	.LFB166
 7716 2277 04000000 		.4byte	.LFE166-.LFB166
 7717 227b 01       		.uleb128 0x1
 7718 227c 9C       		.byte	0x9c
 7719 227d A0220000 		.4byte	0x22a0
 7720 2281 39       		.uleb128 0x39
 7721 2282 6F626A00 		.ascii	"obj\000"
 7722 2286 01       		.byte	0x1
 7723 2287 7E       		.byte	0x7e
 7724 2288 751E0000 		.4byte	0x1e75
 7725 228c 43050000 		.4byte	.LLST36
 7726 2290 3A       		.uleb128 0x3a
 7727 2291 59070000 		.4byte	.LASF539
 7728 2295 01       		.byte	0x1
 7729 2296 82       		.byte	0x82
 7730 2297 7B1E0000 		.4byte	0x1e7b
 7731 229b 43050000 		.4byte	.LLST36
 7732 229f 00       		.byte	0
 7733 22a0 0B       		.uleb128 0xb
 7734 22a1 04       		.byte	0x4
 7735 22a2 83090000 		.4byte	0x983
 7736 22a6 2D       		.uleb128 0x2d
 7737 22a7 F2000000 		.4byte	.LASF549
 7738 22ab 01       		.byte	0x1
 7739 22ac 1B03     		.2byte	0x31b
 7740 22ae 00000000 		.4byte	.LFB180
 7741 22b2 82000000 		.4byte	.LFE180-.LFB180
 7742 22b6 01       		.uleb128 0x1
 7743 22b7 9C       		.byte	0x9c
 7744 22b8 99230000 		.4byte	0x2399
 7745 22bc 2E       		.uleb128 0x2e
ARM GAS  C:\Users\haske\AppData\Local\Temp\ccxUXv8a.s 			page 177


 7746 22bd 59070000 		.4byte	.LASF539
 7747 22c1 01       		.byte	0x1
 7748 22c2 1B03     		.2byte	0x31b
 7749 22c4 751E0000 		.4byte	0x1e75
 7750 22c8 63050000 		.4byte	.LLST38
 7751 22cc 2E       		.uleb128 0x2e
 7752 22cd 30150000 		.4byte	.LASF541
 7753 22d1 01       		.byte	0x1
 7754 22d2 1B03     		.2byte	0x31b
 7755 22d4 2B1F0000 		.4byte	0x1f2b
 7756 22d8 84050000 		.4byte	.LLST39
 7757 22dc 2F       		.uleb128 0x2f
 7758 22dd 64727600 		.ascii	"drv\000"
 7759 22e1 01       		.byte	0x1
 7760 22e2 1B03     		.2byte	0x31b
 7761 22e4 99230000 		.4byte	0x2399
 7762 22e8 B0050000 		.4byte	.LLST40
 7763 22ec 2E       		.uleb128 0x2e
 7764 22ed 66150000 		.4byte	.LASF310
 7765 22f1 01       		.byte	0x1
 7766 22f2 1B03     		.2byte	0x31b
 7767 22f4 980E0000 		.4byte	0xe98
 7768 22f8 DA050000 		.4byte	.LLST41
 7769 22fc 40       		.uleb128 0x40
 7770 22fd 64736300 		.ascii	"dsc\000"
 7771 2301 01       		.byte	0x1
 7772 2302 1D03     		.2byte	0x31d
 7773 2304 A0220000 		.4byte	0x22a0
 7774 2308 06060000 		.4byte	.LLST42
 7775 230c 30       		.uleb128 0x30
 7776 230d 8C210000 		.4byte	.LASF385
 7777 2311 01       		.byte	0x1
 7778 2312 2C03     		.2byte	0x32c
 7779 2314 C4150000 		.4byte	0x15c4
 7780 2318 24060000 		.4byte	.LLST43
 7781 231c 37       		.uleb128 0x37
 7782 231d 10000000 		.4byte	.LVL61
 7783 2321 68220000 		.4byte	0x2268
 7784 2325 31230000 		.4byte	0x2331
 7785 2329 32       		.uleb128 0x32
 7786 232a 01       		.uleb128 0x1
 7787 232b 50       		.byte	0x50
 7788 232c 03       		.uleb128 0x3
 7789 232d F3       		.byte	0xf3
 7790 232e 01       		.uleb128 0x1
 7791 232f 50       		.byte	0x50
 7792 2330 00       		.byte	0
 7793 2331 37       		.uleb128 0x37
 7794 2332 34000000 		.4byte	.LVL64
 7795 2336 8A390000 		.4byte	0x398a
 7796 233a 4C230000 		.4byte	0x234c
 7797 233e 32       		.uleb128 0x32
 7798 233f 01       		.uleb128 0x1
 7799 2340 50       		.byte	0x50
 7800 2341 02       		.uleb128 0x2
 7801 2342 77       		.byte	0x77
 7802 2343 00       		.sleb128 0
ARM GAS  C:\Users\haske\AppData\Local\Temp\ccxUXv8a.s 			page 178


 7803 2344 32       		.uleb128 0x32
 7804 2345 01       		.uleb128 0x1
 7805 2346 51       		.byte	0x51
 7806 2347 03       		.uleb128 0x3
 7807 2348 0A       		.byte	0xa
 7808 2349 5C01     		.2byte	0x15c
 7809 234b 00       		.byte	0
 7810 234c 37       		.uleb128 0x37
 7811 234d 3C000000 		.4byte	.LVL65
 7812 2351 95390000 		.4byte	0x3995
 7813 2355 60230000 		.4byte	0x2360
 7814 2359 32       		.uleb128 0x32
 7815 235a 01       		.uleb128 0x1
 7816 235b 50       		.byte	0x50
 7817 235c 02       		.uleb128 0x2
 7818 235d 74       		.byte	0x74
 7819 235e 00       		.sleb128 0
 7820 235f 00       		.byte	0
 7821 2360 37       		.uleb128 0x37
 7822 2361 54000000 		.4byte	.LVL66
 7823 2365 A0390000 		.4byte	0x39a0
 7824 2369 74230000 		.4byte	0x2374
 7825 236d 32       		.uleb128 0x32
 7826 236e 01       		.uleb128 0x1
 7827 236f 50       		.byte	0x50
 7828 2370 02       		.uleb128 0x2
 7829 2371 08       		.byte	0x8
 7830 2372 58       		.byte	0x58
 7831 2373 00       		.byte	0
 7832 2374 37       		.uleb128 0x37
 7833 2375 66000000 		.4byte	.LVL69
 7834 2379 AB390000 		.4byte	0x39ab
 7835 237d 8F230000 		.4byte	0x238f
 7836 2381 32       		.uleb128 0x32
 7837 2382 01       		.uleb128 0x1
 7838 2383 50       		.byte	0x50
 7839 2384 03       		.uleb128 0x3
 7840 2385 91       		.byte	0x91
 7841 2386 64       		.sleb128 -28
 7842 2387 06       		.byte	0x6
 7843 2388 32       		.uleb128 0x32
 7844 2389 01       		.uleb128 0x1
 7845 238a 51       		.byte	0x51
 7846 238b 02       		.uleb128 0x2
 7847 238c 74       		.byte	0x74
 7848 238d 00       		.sleb128 0
 7849 238e 00       		.byte	0
 7850 238f 33       		.uleb128 0x33
 7851 2390 7E000000 		.4byte	.LVL70
 7852 2394 B6390000 		.4byte	0x39b6
 7853 2398 00       		.byte	0
 7854 2399 0B       		.uleb128 0xb
 7855 239a 04       		.byte	0x4
 7856 239b E0150000 		.4byte	0x15e0
 7857 239f 38       		.uleb128 0x38
 7858 23a0 CD240000 		.4byte	.LASF550
 7859 23a4 01       		.byte	0x1
ARM GAS  C:\Users\haske\AppData\Local\Temp\ccxUXv8a.s 			page 179


 7860 23a5 8A       		.byte	0x8a
 7861 23a6 00000000 		.4byte	.LFB167
 7862 23aa 9E000000 		.4byte	.LFE167-.LFB167
 7863 23ae 01       		.uleb128 0x1
 7864 23af 9C       		.byte	0x9c
 7865 23b0 6F240000 		.4byte	0x246f
 7866 23b4 39       		.uleb128 0x39
 7867 23b5 6F626A00 		.ascii	"obj\000"
 7868 23b9 01       		.byte	0x1
 7869 23ba 8A       		.byte	0x8a
 7870 23bb 751E0000 		.4byte	0x1e75
 7871 23bf 42060000 		.4byte	.LLST44
 7872 23c3 35       		.uleb128 0x35
 7873 23c4 3C210000 		.4byte	.LASF551
 7874 23c8 01       		.byte	0x1
 7875 23c9 8A       		.byte	0x8a
 7876 23ca E2020000 		.4byte	0x2e2
 7877 23ce 6E060000 		.4byte	.LLST45
 7878 23d2 39       		.uleb128 0x39
 7879 23d3 7800     		.ascii	"x\000"
 7880 23d5 01       		.byte	0x1
 7881 23d6 8A       		.byte	0x8a
 7882 23d7 01010000 		.4byte	0x101
 7883 23db 9A060000 		.4byte	.LLST46
 7884 23df 39       		.uleb128 0x39
 7885 23e0 7900     		.ascii	"y\000"
 7886 23e2 01       		.byte	0x1
 7887 23e3 8A       		.byte	0x8a
 7888 23e4 01010000 		.4byte	0x101
 7889 23e8 BB060000 		.4byte	.LLST47
 7890 23ec 39       		.uleb128 0x39
 7891 23ed 7700     		.ascii	"w\000"
 7892 23ef 01       		.byte	0x1
 7893 23f0 8A       		.byte	0x8a
 7894 23f1 01010000 		.4byte	0x101
 7895 23f5 DC060000 		.4byte	.LLST48
 7896 23f9 39       		.uleb128 0x39
 7897 23fa 6800     		.ascii	"h\000"
 7898 23fc 01       		.byte	0x1
 7899 23fd 8A       		.byte	0x8a
 7900 23fe 01010000 		.4byte	0x101
 7901 2402 08070000 		.4byte	.LLST49
 7902 2406 3A       		.uleb128 0x3a
 7903 2407 59070000 		.4byte	.LASF539
 7904 240b 01       		.byte	0x1
 7905 240c 8F       		.byte	0x8f
 7906 240d 7B1E0000 		.4byte	0x1e7b
 7907 2411 4C070000 		.4byte	.LLST50
 7908 2415 3A       		.uleb128 0x3a
 7909 2416 CE0E0000 		.4byte	.LASF552
 7910 241a 01       		.byte	0x1
 7911 241b 96       		.byte	0x96
 7912 241c E4000000 		.4byte	0xe4
 7913 2420 78070000 		.4byte	.LLST51
 7914 2424 36       		.uleb128 0x36
 7915 2425 707800   		.ascii	"px\000"
 7916 2428 01       		.byte	0x1
ARM GAS  C:\Users\haske\AppData\Local\Temp\ccxUXv8a.s 			page 180


 7917 2429 97       		.byte	0x97
 7918 242a E4000000 		.4byte	0xe4
 7919 242e 8B070000 		.4byte	.LLST52
 7920 2432 3A       		.uleb128 0x3a
 7921 2433 87240000 		.4byte	.LASF553
 7922 2437 01       		.byte	0x1
 7923 2438 98       		.byte	0x98
 7924 2439 A5070000 		.4byte	0x7a5
 7925 243d 9E070000 		.4byte	.LLST53
 7926 2441 36       		.uleb128 0x36
 7927 2442 6900     		.ascii	"i\000"
 7928 2444 01       		.byte	0x1
 7929 2445 99       		.byte	0x99
 7930 2446 01010000 		.4byte	0x101
 7931 244a B1070000 		.4byte	.LLST54
 7932 244e 33       		.uleb128 0x33
 7933 244f 54000000 		.4byte	.LVL82
 7934 2453 C2390000 		.4byte	0x39c2
 7935 2457 31       		.uleb128 0x31
 7936 2458 7A000000 		.4byte	.LVL86
 7937 245c CD390000 		.4byte	0x39cd
 7938 2460 32       		.uleb128 0x32
 7939 2461 01       		.uleb128 0x1
 7940 2462 51       		.byte	0x51
 7941 2463 02       		.uleb128 0x2
 7942 2464 79       		.byte	0x79
 7943 2465 00       		.sleb128 0
 7944 2466 32       		.uleb128 0x32
 7945 2467 01       		.uleb128 0x1
 7946 2468 52       		.byte	0x52
 7947 2469 03       		.uleb128 0x3
 7948 246a 91       		.byte	0x91
 7949 246b 5C       		.sleb128 -36
 7950 246c 06       		.byte	0x6
 7951 246d 00       		.byte	0
 7952 246e 00       		.byte	0
 7953 246f 38       		.uleb128 0x38
 7954 2470 1D0D0000 		.4byte	.LASF554
 7955 2474 01       		.byte	0x1
 7956 2475 A1       		.byte	0xa1
 7957 2476 00000000 		.4byte	.LFB168
 7958 247a 5C010000 		.4byte	.LFE168-.LFB168
 7959 247e 01       		.uleb128 0x1
 7960 247f 9C       		.byte	0x9c
 7961 2480 5C260000 		.4byte	0x265c
 7962 2484 39       		.uleb128 0x39
 7963 2485 6F626A00 		.ascii	"obj\000"
 7964 2489 01       		.byte	0x1
 7965 248a A1       		.byte	0xa1
 7966 248b 751E0000 		.4byte	0x1e75
 7967 248f D0070000 		.4byte	.LLST55
 7968 2493 35       		.uleb128 0x35
 7969 2494 BB010000 		.4byte	.LASF555
 7970 2498 01       		.byte	0x1
 7971 2499 A1       		.byte	0xa1
 7972 249a A0220000 		.4byte	0x22a0
 7973 249e 28080000 		.4byte	.LLST56
ARM GAS  C:\Users\haske\AppData\Local\Temp\ccxUXv8a.s 			page 181


 7974 24a2 35       		.uleb128 0x35
 7975 24a3 CF110000 		.4byte	.LASF286
 7976 24a7 01       		.byte	0x1
 7977 24a8 A1       		.byte	0xa1
 7978 24a9 C3000000 		.4byte	0xc3
 7979 24ad 54080000 		.4byte	.LLST57
 7980 24b1 35       		.uleb128 0x35
 7981 24b2 97110000 		.4byte	.LASF287
 7982 24b6 01       		.byte	0x1
 7983 24b7 A1       		.byte	0xa1
 7984 24b8 CE000000 		.4byte	0xce
 7985 24bc 75080000 		.4byte	.LLST58
 7986 24c0 35       		.uleb128 0x35
 7987 24c1 EE100000 		.4byte	.LASF367
 7988 24c5 01       		.byte	0x1
 7989 24c6 A1       		.byte	0xa1
 7990 24c7 01010000 		.4byte	0x101
 7991 24cb 96080000 		.4byte	.LLST59
 7992 24cf 35       		.uleb128 0x35
 7993 24d0 F7100000 		.4byte	.LASF368
 7994 24d4 01       		.byte	0x1
 7995 24d5 A2       		.byte	0xa2
 7996 24d6 01010000 		.4byte	0x101
 7997 24da C2080000 		.4byte	.LLST60
 7998 24de 35       		.uleb128 0x35
 7999 24df 500B0000 		.4byte	.LASF556
 8000 24e3 01       		.byte	0x1
 8001 24e4 A3       		.byte	0xa3
 8002 24e5 D9000000 		.4byte	0xd9
 8003 24e9 06090000 		.4byte	.LLST61
 8004 24ed 35       		.uleb128 0x35
 8005 24ee 32040000 		.4byte	.LASF557
 8006 24f2 01       		.byte	0x1
 8007 24f3 A3       		.byte	0xa3
 8008 24f4 D9000000 		.4byte	0xd9
 8009 24f8 32090000 		.4byte	.LLST62
 8010 24fc 35       		.uleb128 0x35
 8011 24fd E5170000 		.4byte	.LASF292
 8012 2501 01       		.byte	0x1
 8013 2502 A3       		.byte	0xa3
 8014 2503 AA020000 		.4byte	0x2aa
 8015 2507 5E090000 		.4byte	.LLST63
 8016 250b 3A       		.uleb128 0x3a
 8017 250c 59070000 		.4byte	.LASF539
 8018 2510 01       		.byte	0x1
 8019 2511 A9       		.byte	0xa9
 8020 2512 7B1E0000 		.4byte	0x1e7b
 8021 2516 A2090000 		.4byte	.LLST64
 8022 251a 3A       		.uleb128 0x3a
 8023 251b C8000000 		.4byte	.LASF558
 8024 251f 01       		.byte	0x1
 8025 2520 AA       		.byte	0xaa
 8026 2521 A0220000 		.4byte	0x22a0
 8027 2525 FA090000 		.4byte	.LLST65
 8028 2529 36       		.uleb128 0x36
 8029 252a 7800     		.ascii	"x\000"
 8030 252c 01       		.byte	0x1
ARM GAS  C:\Users\haske\AppData\Local\Temp\ccxUXv8a.s 			page 182


 8031 252d AC       		.byte	0xac
 8032 252e D9000000 		.4byte	0xd9
 8033 2532 1A0A0000 		.4byte	.LLST66
 8034 2536 36       		.uleb128 0x36
 8035 2537 7900     		.ascii	"y\000"
 8036 2539 01       		.byte	0x1
 8037 253a AD       		.byte	0xad
 8038 253b D9000000 		.4byte	0xd9
 8039 253f 390A0000 		.4byte	.LLST67
 8040 2543 41       		.uleb128 0x41
 8041 2544 13030000 		.4byte	.LASF559
 8042 2548 01       		.byte	0x1
 8043 2549 AF       		.byte	0xaf
 8044 254a 130D0000 		.4byte	0xd13
 8045 254e 02       		.uleb128 0x2
 8046 254f 91       		.byte	0x91
 8047 2550 40       		.sleb128 -64
 8048 2551 41       		.uleb128 0x41
 8049 2552 DB170000 		.4byte	.LASF560
 8050 2556 01       		.byte	0x1
 8051 2557 B7       		.byte	0xb7
 8052 2558 69010000 		.4byte	0x169
 8053 255c 03       		.uleb128 0x3
 8054 255d 91       		.byte	0x91
 8055 255e B87F     		.sleb128 -72
 8056 2560 3A       		.uleb128 0x3a
 8057 2561 091C0000 		.4byte	.LASF561
 8058 2565 01       		.byte	0x1
 8059 2566 BD       		.byte	0xbd
 8060 2567 5B0A0000 		.4byte	0xa5b
 8061 256b 6E0A0000 		.4byte	.LLST68
 8062 256f 3A       		.uleb128 0x3a
 8063 2570 11070000 		.4byte	.LASF562
 8064 2574 01       		.byte	0x1
 8065 2575 BE       		.byte	0xbe
 8066 2576 240E0000 		.4byte	0xe24
 8067 257a 970A0000 		.4byte	.LLST69
 8068 257e 37       		.uleb128 0x37
 8069 257f 40000000 		.4byte	.LVL102
 8070 2583 D8390000 		.4byte	0x39d8
 8071 2587 92250000 		.4byte	0x2592
 8072 258b 32       		.uleb128 0x32
 8073 258c 01       		.uleb128 0x1
 8074 258d 50       		.byte	0x50
 8075 258e 02       		.uleb128 0x2
 8076 258f 74       		.byte	0x74
 8077 2590 00       		.sleb128 0
 8078 2591 00       		.byte	0
 8079 2592 33       		.uleb128 0x33
 8080 2593 82000000 		.4byte	.LVL103
 8081 2597 A0390000 		.4byte	0x39a0
 8082 259b 33       		.uleb128 0x33
 8083 259c 8E000000 		.4byte	.LVL106
 8084 25a0 A0390000 		.4byte	0x39a0
 8085 25a4 37       		.uleb128 0x37
 8086 25a5 DC000000 		.4byte	.LVL112
 8087 25a9 E3390000 		.4byte	0x39e3
ARM GAS  C:\Users\haske\AppData\Local\Temp\ccxUXv8a.s 			page 183


 8088 25ad D3250000 		.4byte	0x25d3
 8089 25b1 32       		.uleb128 0x32
 8090 25b2 01       		.uleb128 0x1
 8091 25b3 50       		.byte	0x50
 8092 25b4 01       		.uleb128 0x1
 8093 25b5 30       		.byte	0x30
 8094 25b6 32       		.uleb128 0x32
 8095 25b7 01       		.uleb128 0x1
 8096 25b8 51       		.byte	0x51
 8097 25b9 03       		.uleb128 0x3
 8098 25ba 91       		.byte	0x91
 8099 25bb B87F     		.sleb128 -72
 8100 25bd 32       		.uleb128 0x32
 8101 25be 02       		.uleb128 0x2
 8102 25bf 7D       		.byte	0x7d
 8103 25c0 08       		.sleb128 8
 8104 25c1 02       		.uleb128 0x2
 8105 25c2 91       		.byte	0x91
 8106 25c3 40       		.sleb128 -64
 8107 25c4 32       		.uleb128 0x32
 8108 25c5 02       		.uleb128 0x2
 8109 25c6 7D       		.byte	0x7d
 8110 25c7 10       		.sleb128 16
 8111 25c8 02       		.uleb128 0x2
 8112 25c9 7A       		.byte	0x7a
 8113 25ca 00       		.sleb128 0
 8114 25cb 32       		.uleb128 0x32
 8115 25cc 02       		.uleb128 0x2
 8116 25cd 7D       		.byte	0x7d
 8117 25ce 14       		.sleb128 20
 8118 25cf 02       		.uleb128 0x2
 8119 25d0 77       		.byte	0x77
 8120 25d1 00       		.sleb128 0
 8121 25d2 00       		.byte	0
 8122 25d3 37       		.uleb128 0x37
 8123 25d4 FE000000 		.4byte	.LVL114
 8124 25d8 47390000 		.4byte	0x3947
 8125 25dc FB250000 		.4byte	0x25fb
 8126 25e0 32       		.uleb128 0x32
 8127 25e1 01       		.uleb128 0x1
 8128 25e2 50       		.byte	0x50
 8129 25e3 04       		.uleb128 0x4
 8130 25e4 91       		.byte	0x91
 8131 25e5 AC7F     		.sleb128 -84
 8132 25e7 06       		.byte	0x6
 8133 25e8 32       		.uleb128 0x32
 8134 25e9 01       		.uleb128 0x1
 8135 25ea 51       		.byte	0x51
 8136 25eb 05       		.uleb128 0x5
 8137 25ec 91       		.byte	0x91
 8138 25ed B07F     		.sleb128 -80
 8139 25ef 94       		.byte	0x94
 8140 25f0 02       		.byte	0x2
 8141 25f1 32       		.uleb128 0x32
 8142 25f2 01       		.uleb128 0x1
 8143 25f3 52       		.byte	0x52
 8144 25f4 05       		.uleb128 0x5
ARM GAS  C:\Users\haske\AppData\Local\Temp\ccxUXv8a.s 			page 184


 8145 25f5 91       		.byte	0x91
 8146 25f6 B47F     		.sleb128 -76
 8147 25f8 94       		.byte	0x94
 8148 25f9 02       		.byte	0x2
 8149 25fa 00       		.byte	0
 8150 25fb 37       		.uleb128 0x37
 8151 25fc 0A010000 		.4byte	.LVL115
 8152 2600 5E390000 		.4byte	0x395e
 8153 2604 23260000 		.4byte	0x2623
 8154 2608 32       		.uleb128 0x32
 8155 2609 01       		.uleb128 0x1
 8156 260a 50       		.byte	0x50
 8157 260b 04       		.uleb128 0x4
 8158 260c 91       		.byte	0x91
 8159 260d AC7F     		.sleb128 -84
 8160 260f 06       		.byte	0x6
 8161 2610 32       		.uleb128 0x32
 8162 2611 01       		.uleb128 0x1
 8163 2612 51       		.byte	0x51
 8164 2613 05       		.uleb128 0x5
 8165 2614 91       		.byte	0x91
 8166 2615 B07F     		.sleb128 -80
 8167 2617 94       		.byte	0x94
 8168 2618 02       		.byte	0x2
 8169 2619 32       		.uleb128 0x32
 8170 261a 01       		.uleb128 0x1
 8171 261b 52       		.byte	0x52
 8172 261c 05       		.uleb128 0x5
 8173 261d 91       		.byte	0x91
 8174 261e B47F     		.sleb128 -76
 8175 2620 94       		.byte	0x94
 8176 2621 02       		.byte	0x2
 8177 2622 00       		.byte	0
 8178 2623 37       		.uleb128 0x37
 8179 2624 42010000 		.4byte	.LVL121
 8180 2628 26390000 		.4byte	0x3926
 8181 262c 37260000 		.4byte	0x2637
 8182 2630 32       		.uleb128 0x32
 8183 2631 01       		.uleb128 0x1
 8184 2632 50       		.byte	0x50
 8185 2633 02       		.uleb128 0x2
 8186 2634 7A       		.byte	0x7a
 8187 2635 00       		.sleb128 0
 8188 2636 00       		.byte	0
 8189 2637 37       		.uleb128 0x37
 8190 2638 48010000 		.4byte	.LVL122
 8191 263c 26390000 		.4byte	0x3926
 8192 2640 4B260000 		.4byte	0x264b
 8193 2644 32       		.uleb128 0x32
 8194 2645 01       		.uleb128 0x1
 8195 2646 50       		.byte	0x50
 8196 2647 02       		.uleb128 0x2
 8197 2648 76       		.byte	0x76
 8198 2649 00       		.sleb128 0
 8199 264a 00       		.byte	0
 8200 264b 31       		.uleb128 0x31
 8201 264c 4E010000 		.4byte	.LVL123
ARM GAS  C:\Users\haske\AppData\Local\Temp\ccxUXv8a.s 			page 185


 8202 2650 52390000 		.4byte	0x3952
 8203 2654 32       		.uleb128 0x32
 8204 2655 01       		.uleb128 0x1
 8205 2656 50       		.byte	0x50
 8206 2657 02       		.uleb128 0x2
 8207 2658 77       		.byte	0x77
 8208 2659 00       		.sleb128 0
 8209 265a 00       		.byte	0
 8210 265b 00       		.byte	0
 8211 265c 42       		.uleb128 0x42
 8212 265d 27120000 		.4byte	.LASF563
 8213 2661 01       		.byte	0x1
 8214 2662 E2       		.byte	0xe2
 8215 2663 00000000 		.4byte	.LFB169
 8216 2667 7C030000 		.4byte	.LFE169-.LFB169
 8217 266b 01       		.uleb128 0x1
 8218 266c 9C       		.byte	0x9c
 8219 266d 142A0000 		.4byte	0x2a14
 8220 2671 39       		.uleb128 0x39
 8221 2672 6F626A00 		.ascii	"obj\000"
 8222 2676 01       		.byte	0x1
 8223 2677 E2       		.byte	0xe2
 8224 2678 751E0000 		.4byte	0x1e75
 8225 267c C00A0000 		.4byte	.LLST70
 8226 2680 35       		.uleb128 0x35
 8227 2681 150F0000 		.4byte	.LASF564
 8228 2685 01       		.byte	0x1
 8229 2686 E2       		.byte	0xe2
 8230 2687 8D0E0000 		.4byte	0xe8d
 8231 268b 020B0000 		.4byte	.LLST71
 8232 268f 39       		.uleb128 0x39
 8233 2690 7200     		.ascii	"r\000"
 8234 2692 01       		.byte	0x1
 8235 2693 E2       		.byte	0xe2
 8236 2694 CE000000 		.4byte	0xce
 8237 2698 3C0B0000 		.4byte	.LLST72
 8238 269c 3A       		.uleb128 0x3a
 8239 269d 59070000 		.4byte	.LASF539
 8240 26a1 01       		.byte	0x1
 8241 26a2 E8       		.byte	0xe8
 8242 26a3 7B1E0000 		.4byte	0x1e7b
 8243 26a7 760B0000 		.4byte	.LLST73
 8244 26ab 43       		.uleb128 0x43
 8245 26ac 6100     		.ascii	"a\000"
 8246 26ae 01       		.byte	0x1
 8247 26af EA       		.byte	0xea
 8248 26b0 69010000 		.4byte	0x169
 8249 26b4 02       		.uleb128 0x2
 8250 26b5 91       		.byte	0x91
 8251 26b6 50       		.sleb128 -48
 8252 26b7 3B       		.uleb128 0x3b
 8253 26b8 FE1D0000 		.4byte	.LASF78
 8254 26bc 01       		.byte	0x1
 8255 26bd F9       		.byte	0xf9
 8256 26be ED030000 		.4byte	0x3ed
 8257 26c2 3A       		.uleb128 0x3a
 8258 26c3 73140000 		.4byte	.LASF565
ARM GAS  C:\Users\haske\AppData\Local\Temp\ccxUXv8a.s 			page 186


 8259 26c7 01       		.byte	0x1
 8260 26c8 FB       		.byte	0xfb
 8261 26c9 CE000000 		.4byte	0xce
 8262 26cd AA0B0000 		.4byte	.LLST74
 8263 26d1 3A       		.uleb128 0x3a
 8264 26d2 D81C0000 		.4byte	.LASF566
 8265 26d6 01       		.byte	0x1
 8266 26d7 FC       		.byte	0xfc
 8267 26d8 CE000000 		.4byte	0xce
 8268 26dc E20B0000 		.4byte	.LLST75
 8269 26e0 30       		.uleb128 0x30
 8270 26e1 10200000 		.4byte	.LASF567
 8271 26e5 01       		.byte	0x1
 8272 26e6 0001     		.2byte	0x100
 8273 26e8 AA020000 		.4byte	0x2aa
 8274 26ec 020C0000 		.4byte	.LLST76
 8275 26f0 30       		.uleb128 0x30
 8276 26f1 15060000 		.4byte	.LASF568
 8277 26f5 01       		.byte	0x1
 8278 26f6 0201     		.2byte	0x102
 8279 26f8 01010000 		.4byte	0x101
 8280 26fc FC0C0000 		.4byte	.LLST77
 8281 2700 30       		.uleb128 0x30
 8282 2701 92120000 		.4byte	.LASF569
 8283 2705 01       		.byte	0x1
 8284 2706 0301     		.2byte	0x103
 8285 2708 A5070000 		.4byte	0x7a5
 8286 270c 1C0D0000 		.4byte	.LLST78
 8287 2710 44       		.uleb128 0x44
 8288 2711 AF120000 		.4byte	.LASF570
 8289 2715 01       		.byte	0x1
 8290 2716 0501     		.2byte	0x105
 8291 2718 83090000 		.4byte	0x983
 8292 271c 02       		.uleb128 0x2
 8293 271d 91       		.byte	0x91
 8294 271e 44       		.sleb128 -60
 8295 271f 40       		.uleb128 0x40
 8296 2720 7800     		.ascii	"x\000"
 8297 2722 01       		.byte	0x1
 8298 2723 0C01     		.2byte	0x10c
 8299 2725 01010000 		.4byte	0x101
 8300 2729 3C0D0000 		.4byte	.LLST79
 8301 272d 40       		.uleb128 0x40
 8302 272e 7900     		.ascii	"y\000"
 8303 2730 01       		.byte	0x1
 8304 2731 0D01     		.2byte	0x10d
 8305 2733 01010000 		.4byte	0x101
 8306 2737 930D0000 		.4byte	.LLST80
 8307 273b 30       		.uleb128 0x30
 8308 273c 06130000 		.4byte	.LASF571
 8309 2740 01       		.byte	0x1
 8310 2741 0E01     		.2byte	0x10e
 8311 2743 01010000 		.4byte	0x101
 8312 2747 A80D0000 		.4byte	.LLST81
 8313 274b 3C       		.uleb128 0x3c
 8314 274c C51D0000 		.4byte	0x1dc5
 8315 2750 1C000000 		.4byte	.LBB28
ARM GAS  C:\Users\haske\AppData\Local\Temp\ccxUXv8a.s 			page 187


 8316 2754 1A000000 		.4byte	.LBE28-.LBB28
 8317 2758 01       		.byte	0x1
 8318 2759 EC       		.byte	0xec
 8319 275a 71270000 		.4byte	0x2771
 8320 275e 3D       		.uleb128 0x3d
 8321 275f DC1D0000 		.4byte	0x1ddc
 8322 2763 3D0E0000 		.4byte	.LLST82
 8323 2767 3D       		.uleb128 0x3d
 8324 2768 D11D0000 		.4byte	0x1dd1
 8325 276c 5E0E0000 		.4byte	.LLST83
 8326 2770 00       		.byte	0
 8327 2771 3C       		.uleb128 0x3c
 8328 2772 861D0000 		.4byte	0x1d86
 8329 2776 88000000 		.4byte	.LBB30
 8330 277a 0E000000 		.4byte	.LBE30-.LBB30
 8331 277e 01       		.byte	0x1
 8332 277f F9       		.byte	0xf9
 8333 2780 C1270000 		.4byte	0x27c1
 8334 2784 3D       		.uleb128 0x3d
 8335 2785 A31D0000 		.4byte	0x1da3
 8336 2789 7E0E0000 		.4byte	.LLST84
 8337 278d 3D       		.uleb128 0x3d
 8338 278e 971D0000 		.4byte	0x1d97
 8339 2792 920E0000 		.4byte	.LLST85
 8340 2796 3E       		.uleb128 0x3e
 8341 2797 88000000 		.4byte	.LBB31
 8342 279b 0E000000 		.4byte	.LBE31-.LBB31
 8343 279f 3F       		.uleb128 0x3f
 8344 27a0 AF1D0000 		.4byte	0x1daf
 8345 27a4 31       		.uleb128 0x31
 8346 27a5 92000000 		.4byte	.LVL140
 8347 27a9 74390000 		.4byte	0x3974
 8348 27ad 32       		.uleb128 0x32
 8349 27ae 01       		.uleb128 0x1
 8350 27af 50       		.byte	0x50
 8351 27b0 02       		.uleb128 0x2
 8352 27b1 79       		.byte	0x79
 8353 27b2 00       		.sleb128 0
 8354 27b3 32       		.uleb128 0x32
 8355 27b4 01       		.uleb128 0x1
 8356 27b5 51       		.byte	0x51
 8357 27b6 01       		.uleb128 0x1
 8358 27b7 30       		.byte	0x30
 8359 27b8 32       		.uleb128 0x32
 8360 27b9 01       		.uleb128 0x1
 8361 27ba 52       		.byte	0x52
 8362 27bb 02       		.uleb128 0x2
 8363 27bc 08       		.byte	0x8
 8364 27bd 47       		.byte	0x47
 8365 27be 00       		.byte	0
 8366 27bf 00       		.byte	0
 8367 27c0 00       		.byte	0
 8368 27c1 45       		.uleb128 0x45
 8369 27c2 28010000 		.4byte	.LBB32
 8370 27c6 18020000 		.4byte	.LBE32-.LBB32
 8371 27ca BB290000 		.4byte	0x29bb
 8372 27ce 30       		.uleb128 0x30
ARM GAS  C:\Users\haske\AppData\Local\Temp\ccxUXv8a.s 			page 188


 8373 27cf B7030000 		.4byte	.LASF572
 8374 27d3 01       		.byte	0x1
 8375 27d4 1101     		.2byte	0x111
 8376 27d6 E4000000 		.4byte	0xe4
 8377 27da A50E0000 		.4byte	.LLST86
 8378 27de 30       		.uleb128 0x30
 8379 27df 84010000 		.4byte	.LASF573
 8380 27e3 01       		.byte	0x1
 8381 27e4 1201     		.2byte	0x112
 8382 27e6 E4000000 		.4byte	0xe4
 8383 27ea FD0E0000 		.4byte	.LLST87
 8384 27ee 30       		.uleb128 0x30
 8385 27ef E8000000 		.4byte	.LASF574
 8386 27f3 01       		.byte	0x1
 8387 27f4 1301     		.2byte	0x113
 8388 27f6 E4000000 		.4byte	0xe4
 8389 27fa 740F0000 		.4byte	.LLST88
 8390 27fe 30       		.uleb128 0x30
 8391 27ff C2080000 		.4byte	.LASF575
 8392 2803 01       		.byte	0x1
 8393 2804 1401     		.2byte	0x114
 8394 2806 E4000000 		.4byte	0xe4
 8395 280a 9E0F0000 		.4byte	.LLST89
 8396 280e 40       		.uleb128 0x40
 8397 280f 6300     		.ascii	"c\000"
 8398 2811 01       		.byte	0x1
 8399 2812 1601     		.2byte	0x116
 8400 2814 ED030000 		.4byte	0x3ed
 8401 2818 D30F0000 		.4byte	.LLST90
 8402 281c 40       		.uleb128 0x40
 8403 281d 6F706100 		.ascii	"opa\000"
 8404 2821 01       		.byte	0x1
 8405 2822 1701     		.2byte	0x117
 8406 2824 F8030000 		.4byte	0x3f8
 8407 2828 12100000 		.4byte	.LLST91
 8408 282c 46       		.uleb128 0x46
 8409 282d E81D0000 		.4byte	0x1de8
 8410 2831 D6020000 		.4byte	.LBB33
 8411 2835 16000000 		.4byte	.LBE33-.LBB33
 8412 2839 01       		.byte	0x1
 8413 283a 5001     		.2byte	0x150
 8414 283c 6D280000 		.4byte	0x286d
 8415 2840 47       		.uleb128 0x47
 8416 2841 561D0000 		.4byte	0x1d56
 8417 2845 D6020000 		.4byte	.LBB34
 8418 2849 16000000 		.4byte	.LBE34-.LBB34
 8419 284d 04       		.byte	0x4
 8420 284e B302     		.2byte	0x2b3
 8421 2850 3D       		.uleb128 0x3d
 8422 2851 7B1D0000 		.4byte	0x1d7b
 8423 2855 33100000 		.4byte	.LLST92
 8424 2859 3D       		.uleb128 0x3d
 8425 285a 711D0000 		.4byte	0x1d71
 8426 285e 33100000 		.4byte	.LLST92
 8427 2862 3D       		.uleb128 0x3d
 8428 2863 671D0000 		.4byte	0x1d67
 8429 2867 33100000 		.4byte	.LLST92
ARM GAS  C:\Users\haske\AppData\Local\Temp\ccxUXv8a.s 			page 189


 8430 286b 00       		.byte	0
 8431 286c 00       		.byte	0
 8432 286d 37       		.uleb128 0x37
 8433 286e 3E010000 		.4byte	.LVL157
 8434 2872 CD390000 		.4byte	0x39cd
 8435 2876 8B280000 		.4byte	0x288b
 8436 287a 32       		.uleb128 0x32
 8437 287b 01       		.uleb128 0x1
 8438 287c 50       		.byte	0x50
 8439 287d 04       		.uleb128 0x4
 8440 287e 91       		.byte	0x91
 8441 287f B47F     		.sleb128 -76
 8442 2881 06       		.byte	0x6
 8443 2882 32       		.uleb128 0x32
 8444 2883 01       		.uleb128 0x1
 8445 2884 52       		.byte	0x52
 8446 2885 04       		.uleb128 0x4
 8447 2886 91       		.byte	0x91
 8448 2887 BC7F     		.sleb128 -68
 8449 2889 06       		.byte	0x6
 8450 288a 00       		.byte	0
 8451 288b 37       		.uleb128 0x37
 8452 288c 86010000 		.4byte	.LVL163
 8453 2890 7F390000 		.4byte	0x397f
 8454 2894 B2280000 		.4byte	0x28b2
 8455 2898 32       		.uleb128 0x32
 8456 2899 01       		.uleb128 0x1
 8457 289a 50       		.byte	0x50
 8458 289b 02       		.uleb128 0x2
 8459 289c 91       		.byte	0x91
 8460 289d 44       		.sleb128 -60
 8461 289e 32       		.uleb128 0x32
 8462 289f 01       		.uleb128 0x1
 8463 28a0 51       		.byte	0x51
 8464 28a1 02       		.uleb128 0x2
 8465 28a2 75       		.byte	0x75
 8466 28a3 00       		.sleb128 0
 8467 28a4 32       		.uleb128 0x32
 8468 28a5 01       		.uleb128 0x1
 8469 28a6 52       		.byte	0x52
 8470 28a7 01       		.uleb128 0x1
 8471 28a8 30       		.byte	0x30
 8472 28a9 32       		.uleb128 0x32
 8473 28aa 01       		.uleb128 0x1
 8474 28ab 53       		.byte	0x53
 8475 28ac 04       		.uleb128 0x4
 8476 28ad 7D       		.byte	0x7d
 8477 28ae 0E       		.sleb128 14
 8478 28af 94       		.byte	0x94
 8479 28b0 02       		.byte	0x2
 8480 28b1 00       		.byte	0
 8481 28b2 37       		.uleb128 0x37
 8482 28b3 98010000 		.4byte	.LVL166
 8483 28b7 EE390000 		.4byte	0x39ee
 8484 28bb D1280000 		.4byte	0x28d1
 8485 28bf 32       		.uleb128 0x32
 8486 28c0 01       		.uleb128 0x1
ARM GAS  C:\Users\haske\AppData\Local\Temp\ccxUXv8a.s 			page 190


 8487 28c1 50       		.byte	0x50
 8488 28c2 02       		.uleb128 0x2
 8489 28c3 91       		.byte	0x91
 8490 28c4 44       		.sleb128 -60
 8491 28c5 32       		.uleb128 0x32
 8492 28c6 01       		.uleb128 0x1
 8493 28c7 51       		.byte	0x51
 8494 28c8 02       		.uleb128 0x2
 8495 28c9 75       		.byte	0x75
 8496 28ca 00       		.sleb128 0
 8497 28cb 32       		.uleb128 0x32
 8498 28cc 01       		.uleb128 0x1
 8499 28cd 52       		.byte	0x52
 8500 28ce 01       		.uleb128 0x1
 8501 28cf 30       		.byte	0x30
 8502 28d0 00       		.byte	0
 8503 28d1 37       		.uleb128 0x37
 8504 28d2 4A020000 		.4byte	.LVL193
 8505 28d6 47390000 		.4byte	0x3947
 8506 28da FA280000 		.4byte	0x28fa
 8507 28de 32       		.uleb128 0x32
 8508 28df 01       		.uleb128 0x1
 8509 28e0 50       		.byte	0x50
 8510 28e1 02       		.uleb128 0x2
 8511 28e2 79       		.byte	0x79
 8512 28e3 3C       		.sleb128 60
 8513 28e4 32       		.uleb128 0x32
 8514 28e5 01       		.uleb128 0x1
 8515 28e6 51       		.byte	0x51
 8516 28e7 02       		.uleb128 0x2
 8517 28e8 75       		.byte	0x75
 8518 28e9 00       		.sleb128 0
 8519 28ea 32       		.uleb128 0x32
 8520 28eb 01       		.uleb128 0x1
 8521 28ec 52       		.byte	0x52
 8522 28ed 05       		.uleb128 0x5
 8523 28ee 91       		.byte	0x91
 8524 28ef A87F     		.sleb128 -88
 8525 28f1 94       		.byte	0x94
 8526 28f2 02       		.byte	0x2
 8527 28f3 32       		.uleb128 0x32
 8528 28f4 01       		.uleb128 0x1
 8529 28f5 53       		.byte	0x53
 8530 28f6 02       		.uleb128 0x2
 8531 28f7 76       		.byte	0x76
 8532 28f8 00       		.sleb128 0
 8533 28f9 00       		.byte	0
 8534 28fa 37       		.uleb128 0x37
 8535 28fb 5E020000 		.4byte	.LVL196
 8536 28ff 5E390000 		.4byte	0x395e
 8537 2903 26290000 		.4byte	0x2926
 8538 2907 32       		.uleb128 0x32
 8539 2908 01       		.uleb128 0x1
 8540 2909 50       		.byte	0x50
 8541 290a 02       		.uleb128 0x2
 8542 290b 79       		.byte	0x79
 8543 290c 3C       		.sleb128 60
ARM GAS  C:\Users\haske\AppData\Local\Temp\ccxUXv8a.s 			page 191


 8544 290d 32       		.uleb128 0x32
 8545 290e 01       		.uleb128 0x1
 8546 290f 51       		.byte	0x51
 8547 2910 02       		.uleb128 0x2
 8548 2911 75       		.byte	0x75
 8549 2912 00       		.sleb128 0
 8550 2913 32       		.uleb128 0x32
 8551 2914 01       		.uleb128 0x1
 8552 2915 52       		.byte	0x52
 8553 2916 05       		.uleb128 0x5
 8554 2917 91       		.byte	0x91
 8555 2918 A87F     		.sleb128 -88
 8556 291a 94       		.byte	0x94
 8557 291b 02       		.byte	0x2
 8558 291c 32       		.uleb128 0x32
 8559 291d 01       		.uleb128 0x1
 8560 291e 53       		.byte	0x53
 8561 291f 05       		.uleb128 0x5
 8562 2920 91       		.byte	0x91
 8563 2921 8C7F     		.sleb128 -116
 8564 2923 94       		.byte	0x94
 8565 2924 01       		.byte	0x1
 8566 2925 00       		.byte	0
 8567 2926 37       		.uleb128 0x37
 8568 2927 80020000 		.4byte	.LVL201
 8569 292b 7F390000 		.4byte	0x397f
 8570 292f 50290000 		.4byte	0x2950
 8571 2933 32       		.uleb128 0x32
 8572 2934 01       		.uleb128 0x1
 8573 2935 50       		.byte	0x50
 8574 2936 02       		.uleb128 0x2
 8575 2937 91       		.byte	0x91
 8576 2938 44       		.sleb128 -60
 8577 2939 32       		.uleb128 0x32
 8578 293a 01       		.uleb128 0x1
 8579 293b 51       		.byte	0x51
 8580 293c 05       		.uleb128 0x5
 8581 293d 91       		.byte	0x91
 8582 293e A47F     		.sleb128 -92
 8583 2940 94       		.byte	0x94
 8584 2941 02       		.byte	0x2
 8585 2942 32       		.uleb128 0x32
 8586 2943 01       		.uleb128 0x1
 8587 2944 52       		.byte	0x52
 8588 2945 01       		.uleb128 0x1
 8589 2946 30       		.byte	0x30
 8590 2947 32       		.uleb128 0x32
 8591 2948 01       		.uleb128 0x1
 8592 2949 53       		.byte	0x53
 8593 294a 04       		.uleb128 0x4
 8594 294b 7D       		.byte	0x7d
 8595 294c 0E       		.sleb128 14
 8596 294d 94       		.byte	0x94
 8597 294e 02       		.byte	0x2
 8598 294f 00       		.byte	0
 8599 2950 37       		.uleb128 0x37
 8600 2951 92020000 		.4byte	.LVL204
ARM GAS  C:\Users\haske\AppData\Local\Temp\ccxUXv8a.s 			page 192


 8601 2955 EE390000 		.4byte	0x39ee
 8602 2959 72290000 		.4byte	0x2972
 8603 295d 32       		.uleb128 0x32
 8604 295e 01       		.uleb128 0x1
 8605 295f 50       		.byte	0x50
 8606 2960 02       		.uleb128 0x2
 8607 2961 91       		.byte	0x91
 8608 2962 44       		.sleb128 -60
 8609 2963 32       		.uleb128 0x32
 8610 2964 01       		.uleb128 0x1
 8611 2965 51       		.byte	0x51
 8612 2966 05       		.uleb128 0x5
 8613 2967 91       		.byte	0x91
 8614 2968 A47F     		.sleb128 -92
 8615 296a 94       		.byte	0x94
 8616 296b 02       		.byte	0x2
 8617 296c 32       		.uleb128 0x32
 8618 296d 01       		.uleb128 0x1
 8619 296e 52       		.byte	0x52
 8620 296f 01       		.uleb128 0x1
 8621 2970 30       		.byte	0x30
 8622 2971 00       		.byte	0
 8623 2972 37       		.uleb128 0x37
 8624 2973 F4020000 		.4byte	.LVL218
 8625 2977 7F390000 		.4byte	0x397f
 8626 297b 9C290000 		.4byte	0x299c
 8627 297f 32       		.uleb128 0x32
 8628 2980 01       		.uleb128 0x1
 8629 2981 50       		.byte	0x50
 8630 2982 02       		.uleb128 0x2
 8631 2983 91       		.byte	0x91
 8632 2984 44       		.sleb128 -60
 8633 2985 32       		.uleb128 0x32
 8634 2986 01       		.uleb128 0x1
 8635 2987 51       		.byte	0x51
 8636 2988 05       		.uleb128 0x5
 8637 2989 91       		.byte	0x91
 8638 298a A47F     		.sleb128 -92
 8639 298c 94       		.byte	0x94
 8640 298d 02       		.byte	0x2
 8641 298e 32       		.uleb128 0x32
 8642 298f 01       		.uleb128 0x1
 8643 2990 52       		.byte	0x52
 8644 2991 01       		.uleb128 0x1
 8645 2992 30       		.byte	0x30
 8646 2993 32       		.uleb128 0x32
 8647 2994 01       		.uleb128 0x1
 8648 2995 53       		.byte	0x53
 8649 2996 04       		.uleb128 0x4
 8650 2997 7D       		.byte	0x7d
 8651 2998 10       		.sleb128 16
 8652 2999 94       		.byte	0x94
 8653 299a 02       		.byte	0x2
 8654 299b 00       		.byte	0
 8655 299c 31       		.uleb128 0x31
 8656 299d 06030000 		.4byte	.LVL220
 8657 29a1 EE390000 		.4byte	0x39ee
ARM GAS  C:\Users\haske\AppData\Local\Temp\ccxUXv8a.s 			page 193


 8658 29a5 32       		.uleb128 0x32
 8659 29a6 01       		.uleb128 0x1
 8660 29a7 50       		.byte	0x50
 8661 29a8 02       		.uleb128 0x2
 8662 29a9 91       		.byte	0x91
 8663 29aa 44       		.sleb128 -60
 8664 29ab 32       		.uleb128 0x32
 8665 29ac 01       		.uleb128 0x1
 8666 29ad 51       		.byte	0x51
 8667 29ae 05       		.uleb128 0x5
 8668 29af 91       		.byte	0x91
 8669 29b0 A47F     		.sleb128 -92
 8670 29b2 94       		.byte	0x94
 8671 29b3 02       		.byte	0x2
 8672 29b4 32       		.uleb128 0x32
 8673 29b5 01       		.uleb128 0x1
 8674 29b6 52       		.byte	0x52
 8675 29b7 01       		.uleb128 0x1
 8676 29b8 30       		.byte	0x30
 8677 29b9 00       		.byte	0
 8678 29ba 00       		.byte	0
 8679 29bb 33       		.uleb128 0x33
 8680 29bc BA000000 		.4byte	.LVL147
 8681 29c0 F9390000 		.4byte	0x39f9
 8682 29c4 37       		.uleb128 0x37
 8683 29c5 D2000000 		.4byte	.LVL150
 8684 29c9 043A0000 		.4byte	0x3a04
 8685 29cd D7290000 		.4byte	0x29d7
 8686 29d1 32       		.uleb128 0x32
 8687 29d2 01       		.uleb128 0x1
 8688 29d3 51       		.byte	0x51
 8689 29d4 01       		.uleb128 0x1
 8690 29d5 31       		.byte	0x31
 8691 29d6 00       		.byte	0
 8692 29d7 37       		.uleb128 0x37
 8693 29d8 DE000000 		.4byte	.LVL152
 8694 29dc 0F3A0000 		.4byte	0x3a0f
 8695 29e0 ED290000 		.4byte	0x29ed
 8696 29e4 32       		.uleb128 0x32
 8697 29e5 01       		.uleb128 0x1
 8698 29e6 50       		.byte	0x50
 8699 29e7 04       		.uleb128 0x4
 8700 29e8 91       		.byte	0x91
 8701 29e9 B87F     		.sleb128 -72
 8702 29eb 06       		.byte	0x6
 8703 29ec 00       		.byte	0
 8704 29ed 37       		.uleb128 0x37
 8705 29ee 5C030000 		.4byte	.LVL235
 8706 29f2 52390000 		.4byte	0x3952
 8707 29f6 012A0000 		.4byte	0x2a01
 8708 29fa 32       		.uleb128 0x32
 8709 29fb 01       		.uleb128 0x1
 8710 29fc 50       		.byte	0x50
 8711 29fd 02       		.uleb128 0x2
 8712 29fe 79       		.byte	0x79
 8713 29ff 00       		.sleb128 0
 8714 2a00 00       		.byte	0
ARM GAS  C:\Users\haske\AppData\Local\Temp\ccxUXv8a.s 			page 194


 8715 2a01 31       		.uleb128 0x31
 8716 2a02 62030000 		.4byte	.LVL236
 8717 2a06 1A3A0000 		.4byte	0x3a1a
 8718 2a0a 32       		.uleb128 0x32
 8719 2a0b 01       		.uleb128 0x1
 8720 2a0c 50       		.byte	0x50
 8721 2a0d 04       		.uleb128 0x4
 8722 2a0e 91       		.byte	0x91
 8723 2a0f B47F     		.sleb128 -76
 8724 2a11 06       		.byte	0x6
 8725 2a12 00       		.byte	0
 8726 2a13 00       		.byte	0
 8727 2a14 48       		.uleb128 0x48
 8728 2a15 EA230000 		.4byte	.LASF576
 8729 2a19 01       		.byte	0x1
 8730 2a1a 6201     		.2byte	0x162
 8731 2a1c 00000000 		.4byte	.LFB170
 8732 2a20 90030000 		.4byte	.LFE170-.LFB170
 8733 2a24 01       		.uleb128 0x1
 8734 2a25 9C       		.byte	0x9c
 8735 2a26 112E0000 		.4byte	0x2e11
 8736 2a2a 2F       		.uleb128 0x2f
 8737 2a2b 6F626A00 		.ascii	"obj\000"
 8738 2a2f 01       		.byte	0x1
 8739 2a30 6201     		.2byte	0x162
 8740 2a32 751E0000 		.4byte	0x1e75
 8741 2a36 48100000 		.4byte	.LLST95
 8742 2a3a 2E       		.uleb128 0x2e
 8743 2a3b 150F0000 		.4byte	.LASF564
 8744 2a3f 01       		.byte	0x1
 8745 2a40 6201     		.2byte	0x162
 8746 2a42 8D0E0000 		.4byte	0xe8d
 8747 2a46 B6100000 		.4byte	.LLST96
 8748 2a4a 2F       		.uleb128 0x2f
 8749 2a4b 7200     		.ascii	"r\000"
 8750 2a4d 01       		.byte	0x1
 8751 2a4e 6201     		.2byte	0x162
 8752 2a50 CE000000 		.4byte	0xce
 8753 2a54 F0100000 		.4byte	.LLST97
 8754 2a58 30       		.uleb128 0x30
 8755 2a59 59070000 		.4byte	.LASF539
 8756 2a5d 01       		.byte	0x1
 8757 2a5e 6801     		.2byte	0x168
 8758 2a60 7B1E0000 		.4byte	0x1e7b
 8759 2a64 2A110000 		.4byte	.LLST98
 8760 2a68 49       		.uleb128 0x49
 8761 2a69 6100     		.ascii	"a\000"
 8762 2a6b 01       		.byte	0x1
 8763 2a6c 6A01     		.2byte	0x16a
 8764 2a6e 69010000 		.4byte	0x169
 8765 2a72 02       		.uleb128 0x2
 8766 2a73 91       		.byte	0x91
 8767 2a74 50       		.sleb128 -48
 8768 2a75 4A       		.uleb128 0x4a
 8769 2a76 FE1D0000 		.4byte	.LASF78
 8770 2a7a 01       		.byte	0x1
 8771 2a7b 7901     		.2byte	0x179
ARM GAS  C:\Users\haske\AppData\Local\Temp\ccxUXv8a.s 			page 195


 8772 2a7d ED030000 		.4byte	0x3ed
 8773 2a81 30       		.uleb128 0x30
 8774 2a82 73140000 		.4byte	.LASF565
 8775 2a86 01       		.byte	0x1
 8776 2a87 7B01     		.2byte	0x17b
 8777 2a89 CE000000 		.4byte	0xce
 8778 2a8d 8A110000 		.4byte	.LLST99
 8779 2a91 30       		.uleb128 0x30
 8780 2a92 D81C0000 		.4byte	.LASF566
 8781 2a96 01       		.byte	0x1
 8782 2a97 7C01     		.2byte	0x17c
 8783 2a99 CE000000 		.4byte	0xce
 8784 2a9d C2110000 		.4byte	.LLST100
 8785 2aa1 30       		.uleb128 0x30
 8786 2aa2 10200000 		.4byte	.LASF567
 8787 2aa6 01       		.byte	0x1
 8788 2aa7 8001     		.2byte	0x180
 8789 2aa9 AA020000 		.4byte	0x2aa
 8790 2aad E2110000 		.4byte	.LLST101
 8791 2ab1 30       		.uleb128 0x30
 8792 2ab2 7B1C0000 		.4byte	.LASF577
 8793 2ab6 01       		.byte	0x1
 8794 2ab7 8101     		.2byte	0x181
 8795 2ab9 01010000 		.4byte	0x101
 8796 2abd F2120000 		.4byte	.LLST102
 8797 2ac1 30       		.uleb128 0x30
 8798 2ac2 51070000 		.4byte	.LASF578
 8799 2ac6 01       		.byte	0x1
 8800 2ac7 8201     		.2byte	0x182
 8801 2ac9 A5070000 		.4byte	0x7a5
 8802 2acd 05130000 		.4byte	.LLST103
 8803 2ad1 44       		.uleb128 0x44
 8804 2ad2 AF120000 		.4byte	.LASF570
 8805 2ad6 01       		.byte	0x1
 8806 2ad7 8301     		.2byte	0x183
 8807 2ad9 83090000 		.4byte	0x983
 8808 2add 02       		.uleb128 0x2
 8809 2ade 91       		.byte	0x91
 8810 2adf 44       		.sleb128 -60
 8811 2ae0 40       		.uleb128 0x40
 8812 2ae1 7800     		.ascii	"x\000"
 8813 2ae3 01       		.byte	0x1
 8814 2ae4 8B01     		.2byte	0x18b
 8815 2ae6 01010000 		.4byte	0x101
 8816 2aea 25130000 		.4byte	.LLST104
 8817 2aee 40       		.uleb128 0x40
 8818 2aef 7900     		.ascii	"y\000"
 8819 2af1 01       		.byte	0x1
 8820 2af2 8C01     		.2byte	0x18c
 8821 2af4 01010000 		.4byte	0x101
 8822 2af8 39130000 		.4byte	.LLST105
 8823 2afc 30       		.uleb128 0x30
 8824 2afd 3D1E0000 		.4byte	.LASF579
 8825 2b01 01       		.byte	0x1
 8826 2b02 8D01     		.2byte	0x18d
 8827 2b04 01010000 		.4byte	0x101
 8828 2b08 90130000 		.4byte	.LLST106
ARM GAS  C:\Users\haske\AppData\Local\Temp\ccxUXv8a.s 			page 196


 8829 2b0c 46       		.uleb128 0x46
 8830 2b0d C51D0000 		.4byte	0x1dc5
 8831 2b11 1C000000 		.4byte	.LBB36
 8832 2b15 1A000000 		.4byte	.LBE36-.LBB36
 8833 2b19 01       		.byte	0x1
 8834 2b1a 6C01     		.2byte	0x16c
 8835 2b1c 332B0000 		.4byte	0x2b33
 8836 2b20 3D       		.uleb128 0x3d
 8837 2b21 DC1D0000 		.4byte	0x1ddc
 8838 2b25 0D140000 		.4byte	.LLST107
 8839 2b29 3D       		.uleb128 0x3d
 8840 2b2a D11D0000 		.4byte	0x1dd1
 8841 2b2e 2E140000 		.4byte	.LLST108
 8842 2b32 00       		.byte	0
 8843 2b33 46       		.uleb128 0x46
 8844 2b34 861D0000 		.4byte	0x1d86
 8845 2b38 88000000 		.4byte	.LBB38
 8846 2b3c 0E000000 		.4byte	.LBE38-.LBB38
 8847 2b40 01       		.byte	0x1
 8848 2b41 7901     		.2byte	0x179
 8849 2b43 842B0000 		.4byte	0x2b84
 8850 2b47 3D       		.uleb128 0x3d
 8851 2b48 A31D0000 		.4byte	0x1da3
 8852 2b4c 4E140000 		.4byte	.LLST109
 8853 2b50 3D       		.uleb128 0x3d
 8854 2b51 971D0000 		.4byte	0x1d97
 8855 2b55 62140000 		.4byte	.LLST110
 8856 2b59 3E       		.uleb128 0x3e
 8857 2b5a 88000000 		.4byte	.LBB39
 8858 2b5e 0E000000 		.4byte	.LBE39-.LBB39
 8859 2b62 3F       		.uleb128 0x3f
 8860 2b63 AF1D0000 		.4byte	0x1daf
 8861 2b67 31       		.uleb128 0x31
 8862 2b68 92000000 		.4byte	.LVL250
 8863 2b6c 74390000 		.4byte	0x3974
 8864 2b70 32       		.uleb128 0x32
 8865 2b71 01       		.uleb128 0x1
 8866 2b72 50       		.byte	0x50
 8867 2b73 02       		.uleb128 0x2
 8868 2b74 7B       		.byte	0x7b
 8869 2b75 00       		.sleb128 0
 8870 2b76 32       		.uleb128 0x32
 8871 2b77 01       		.uleb128 0x1
 8872 2b78 51       		.byte	0x51
 8873 2b79 01       		.uleb128 0x1
 8874 2b7a 30       		.byte	0x30
 8875 2b7b 32       		.uleb128 0x32
 8876 2b7c 01       		.uleb128 0x1
 8877 2b7d 52       		.byte	0x52
 8878 2b7e 02       		.uleb128 0x2
 8879 2b7f 08       		.byte	0x8
 8880 2b80 47       		.byte	0x47
 8881 2b81 00       		.byte	0
 8882 2b82 00       		.byte	0
 8883 2b83 00       		.byte	0
 8884 2b84 45       		.uleb128 0x45
 8885 2b85 18010000 		.4byte	.LBB40
ARM GAS  C:\Users\haske\AppData\Local\Temp\ccxUXv8a.s 			page 197


 8886 2b89 40020000 		.4byte	.LBE40-.LBB40
 8887 2b8d C52D0000 		.4byte	0x2dc5
 8888 2b91 30       		.uleb128 0x30
 8889 2b92 B7030000 		.4byte	.LASF572
 8890 2b96 01       		.byte	0x1
 8891 2b97 9001     		.2byte	0x190
 8892 2b99 E4000000 		.4byte	0xe4
 8893 2b9d 75140000 		.4byte	.LLST111
 8894 2ba1 30       		.uleb128 0x30
 8895 2ba2 84010000 		.4byte	.LASF573
 8896 2ba6 01       		.byte	0x1
 8897 2ba7 9101     		.2byte	0x191
 8898 2ba9 E4000000 		.4byte	0xe4
 8899 2bad CF140000 		.4byte	.LLST112
 8900 2bb1 30       		.uleb128 0x30
 8901 2bb2 E8000000 		.4byte	.LASF574
 8902 2bb6 01       		.byte	0x1
 8903 2bb7 9201     		.2byte	0x192
 8904 2bb9 E4000000 		.4byte	0xe4
 8905 2bbd 32150000 		.4byte	.LLST113
 8906 2bc1 30       		.uleb128 0x30
 8907 2bc2 C2080000 		.4byte	.LASF575
 8908 2bc6 01       		.byte	0x1
 8909 2bc7 9301     		.2byte	0x193
 8910 2bc9 E4000000 		.4byte	0xe4
 8911 2bcd 7D150000 		.4byte	.LLST114
 8912 2bd1 40       		.uleb128 0x40
 8913 2bd2 6300     		.ascii	"c\000"
 8914 2bd4 01       		.byte	0x1
 8915 2bd5 9501     		.2byte	0x195
 8916 2bd7 ED030000 		.4byte	0x3ed
 8917 2bdb D3150000 		.4byte	.LLST115
 8918 2bdf 40       		.uleb128 0x40
 8919 2be0 6F706100 		.ascii	"opa\000"
 8920 2be4 01       		.byte	0x1
 8921 2be5 9601     		.2byte	0x196
 8922 2be7 F8030000 		.4byte	0x3f8
 8923 2beb 12160000 		.4byte	.LLST116
 8924 2bef 37       		.uleb128 0x37
 8925 2bf0 70010000 		.4byte	.LVL274
 8926 2bf4 7F390000 		.4byte	0x397f
 8927 2bf8 1B2C0000 		.4byte	0x2c1b
 8928 2bfc 32       		.uleb128 0x32
 8929 2bfd 01       		.uleb128 0x1
 8930 2bfe 50       		.byte	0x50
 8931 2bff 04       		.uleb128 0x4
 8932 2c00 91       		.byte	0x91
 8933 2c01 B07F     		.sleb128 -80
 8934 2c03 06       		.byte	0x6
 8935 2c04 32       		.uleb128 0x32
 8936 2c05 01       		.uleb128 0x1
 8937 2c06 51       		.byte	0x51
 8938 2c07 04       		.uleb128 0x4
 8939 2c08 7D       		.byte	0x7d
 8940 2c09 00       		.sleb128 0
 8941 2c0a 94       		.byte	0x94
 8942 2c0b 02       		.byte	0x2
ARM GAS  C:\Users\haske\AppData\Local\Temp\ccxUXv8a.s 			page 198


 8943 2c0c 32       		.uleb128 0x32
 8944 2c0d 01       		.uleb128 0x1
 8945 2c0e 52       		.byte	0x52
 8946 2c0f 02       		.uleb128 0x2
 8947 2c10 75       		.byte	0x75
 8948 2c11 00       		.sleb128 0
 8949 2c12 32       		.uleb128 0x32
 8950 2c13 01       		.uleb128 0x1
 8951 2c14 53       		.byte	0x53
 8952 2c15 04       		.uleb128 0x4
 8953 2c16 7D       		.byte	0x7d
 8954 2c17 0A       		.sleb128 10
 8955 2c18 94       		.byte	0x94
 8956 2c19 02       		.byte	0x2
 8957 2c1a 00       		.byte	0
 8958 2c1b 37       		.uleb128 0x37
 8959 2c1c 80010000 		.4byte	.LVL276
 8960 2c20 EE390000 		.4byte	0x39ee
 8961 2c24 3F2C0000 		.4byte	0x2c3f
 8962 2c28 32       		.uleb128 0x32
 8963 2c29 01       		.uleb128 0x1
 8964 2c2a 50       		.byte	0x50
 8965 2c2b 04       		.uleb128 0x4
 8966 2c2c 91       		.byte	0x91
 8967 2c2d B07F     		.sleb128 -80
 8968 2c2f 06       		.byte	0x6
 8969 2c30 32       		.uleb128 0x32
 8970 2c31 01       		.uleb128 0x1
 8971 2c32 51       		.byte	0x51
 8972 2c33 04       		.uleb128 0x4
 8973 2c34 7D       		.byte	0x7d
 8974 2c35 00       		.sleb128 0
 8975 2c36 94       		.byte	0x94
 8976 2c37 02       		.byte	0x2
 8977 2c38 32       		.uleb128 0x32
 8978 2c39 01       		.uleb128 0x1
 8979 2c3a 52       		.byte	0x52
 8980 2c3b 02       		.uleb128 0x2
 8981 2c3c 75       		.byte	0x75
 8982 2c3d 00       		.sleb128 0
 8983 2c3e 00       		.byte	0
 8984 2c3f 37       		.uleb128 0x37
 8985 2c40 8E010000 		.4byte	.LVL278
 8986 2c44 47390000 		.4byte	0x3947
 8987 2c48 642C0000 		.4byte	0x2c64
 8988 2c4c 32       		.uleb128 0x32
 8989 2c4d 01       		.uleb128 0x1
 8990 2c4e 50       		.byte	0x50
 8991 2c4f 02       		.uleb128 0x2
 8992 2c50 91       		.byte	0x91
 8993 2c51 44       		.sleb128 -60
 8994 2c52 32       		.uleb128 0x32
 8995 2c53 01       		.uleb128 0x1
 8996 2c54 51       		.byte	0x51
 8997 2c55 01       		.uleb128 0x1
 8998 2c56 30       		.byte	0x30
 8999 2c57 32       		.uleb128 0x32
ARM GAS  C:\Users\haske\AppData\Local\Temp\ccxUXv8a.s 			page 199


 9000 2c58 01       		.uleb128 0x1
 9001 2c59 52       		.byte	0x52
 9002 2c5a 02       		.uleb128 0x2
 9003 2c5b 75       		.byte	0x75
 9004 2c5c 00       		.sleb128 0
 9005 2c5d 32       		.uleb128 0x32
 9006 2c5e 01       		.uleb128 0x1
 9007 2c5f 53       		.byte	0x53
 9008 2c60 02       		.uleb128 0x2
 9009 2c61 77       		.byte	0x77
 9010 2c62 00       		.sleb128 0
 9011 2c63 00       		.byte	0
 9012 2c64 37       		.uleb128 0x37
 9013 2c65 9E010000 		.4byte	.LVL279
 9014 2c69 5E390000 		.4byte	0x395e
 9015 2c6d 8C2C0000 		.4byte	0x2c8c
 9016 2c71 32       		.uleb128 0x32
 9017 2c72 01       		.uleb128 0x1
 9018 2c73 50       		.byte	0x50
 9019 2c74 02       		.uleb128 0x2
 9020 2c75 91       		.byte	0x91
 9021 2c76 44       		.sleb128 -60
 9022 2c77 32       		.uleb128 0x32
 9023 2c78 01       		.uleb128 0x1
 9024 2c79 51       		.byte	0x51
 9025 2c7a 01       		.uleb128 0x1
 9026 2c7b 30       		.byte	0x30
 9027 2c7c 32       		.uleb128 0x32
 9028 2c7d 01       		.uleb128 0x1
 9029 2c7e 52       		.byte	0x52
 9030 2c7f 02       		.uleb128 0x2
 9031 2c80 75       		.byte	0x75
 9032 2c81 00       		.sleb128 0
 9033 2c82 32       		.uleb128 0x32
 9034 2c83 01       		.uleb128 0x1
 9035 2c84 53       		.byte	0x53
 9036 2c85 05       		.uleb128 0x5
 9037 2c86 91       		.byte	0x91
 9038 2c87 9C7F     		.sleb128 -100
 9039 2c89 94       		.byte	0x94
 9040 2c8a 01       		.byte	0x1
 9041 2c8b 00       		.byte	0
 9042 2c8c 37       		.uleb128 0x37
 9043 2c8d 46020000 		.4byte	.LVL304
 9044 2c91 47390000 		.4byte	0x3947
 9045 2c95 B42C0000 		.4byte	0x2cb4
 9046 2c99 32       		.uleb128 0x32
 9047 2c9a 01       		.uleb128 0x1
 9048 2c9b 50       		.byte	0x50
 9049 2c9c 02       		.uleb128 0x2
 9050 2c9d 7A       		.byte	0x7a
 9051 2c9e 3C       		.sleb128 60
 9052 2c9f 32       		.uleb128 0x32
 9053 2ca0 01       		.uleb128 0x1
 9054 2ca1 51       		.byte	0x51
 9055 2ca2 04       		.uleb128 0x4
 9056 2ca3 7D       		.byte	0x7d
ARM GAS  C:\Users\haske\AppData\Local\Temp\ccxUXv8a.s 			page 200


 9057 2ca4 00       		.sleb128 0
 9058 2ca5 94       		.byte	0x94
 9059 2ca6 02       		.byte	0x2
 9060 2ca7 32       		.uleb128 0x32
 9061 2ca8 01       		.uleb128 0x1
 9062 2ca9 52       		.byte	0x52
 9063 2caa 02       		.uleb128 0x2
 9064 2cab 74       		.byte	0x74
 9065 2cac 00       		.sleb128 0
 9066 2cad 32       		.uleb128 0x32
 9067 2cae 01       		.uleb128 0x1
 9068 2caf 53       		.byte	0x53
 9069 2cb0 02       		.uleb128 0x2
 9070 2cb1 77       		.byte	0x77
 9071 2cb2 00       		.sleb128 0
 9072 2cb3 00       		.byte	0
 9073 2cb4 37       		.uleb128 0x37
 9074 2cb5 5A020000 		.4byte	.LVL307
 9075 2cb9 5E390000 		.4byte	0x395e
 9076 2cbd DF2C0000 		.4byte	0x2cdf
 9077 2cc1 32       		.uleb128 0x32
 9078 2cc2 01       		.uleb128 0x1
 9079 2cc3 50       		.byte	0x50
 9080 2cc4 02       		.uleb128 0x2
 9081 2cc5 7A       		.byte	0x7a
 9082 2cc6 3C       		.sleb128 60
 9083 2cc7 32       		.uleb128 0x32
 9084 2cc8 01       		.uleb128 0x1
 9085 2cc9 51       		.byte	0x51
 9086 2cca 04       		.uleb128 0x4
 9087 2ccb 7D       		.byte	0x7d
 9088 2ccc 00       		.sleb128 0
 9089 2ccd 94       		.byte	0x94
 9090 2cce 02       		.byte	0x2
 9091 2ccf 32       		.uleb128 0x32
 9092 2cd0 01       		.uleb128 0x1
 9093 2cd1 52       		.byte	0x52
 9094 2cd2 02       		.uleb128 0x2
 9095 2cd3 74       		.byte	0x74
 9096 2cd4 00       		.sleb128 0
 9097 2cd5 32       		.uleb128 0x32
 9098 2cd6 01       		.uleb128 0x1
 9099 2cd7 53       		.byte	0x53
 9100 2cd8 05       		.uleb128 0x5
 9101 2cd9 91       		.byte	0x91
 9102 2cda 9C7F     		.sleb128 -100
 9103 2cdc 94       		.byte	0x94
 9104 2cdd 01       		.byte	0x1
 9105 2cde 00       		.byte	0
 9106 2cdf 37       		.uleb128 0x37
 9107 2ce0 7C020000 		.4byte	.LVL311
 9108 2ce4 7F390000 		.4byte	0x397f
 9109 2ce8 092D0000 		.4byte	0x2d09
 9110 2cec 32       		.uleb128 0x32
 9111 2ced 01       		.uleb128 0x1
 9112 2cee 50       		.byte	0x50
 9113 2cef 02       		.uleb128 0x2
ARM GAS  C:\Users\haske\AppData\Local\Temp\ccxUXv8a.s 			page 201


 9114 2cf0 91       		.byte	0x91
 9115 2cf1 44       		.sleb128 -60
 9116 2cf2 32       		.uleb128 0x32
 9117 2cf3 01       		.uleb128 0x1
 9118 2cf4 51       		.byte	0x51
 9119 2cf5 01       		.uleb128 0x1
 9120 2cf6 30       		.byte	0x30
 9121 2cf7 32       		.uleb128 0x32
 9122 2cf8 01       		.uleb128 0x1
 9123 2cf9 52       		.byte	0x52
 9124 2cfa 05       		.uleb128 0x5
 9125 2cfb 91       		.byte	0x91
 9126 2cfc A87F     		.sleb128 -88
 9127 2cfe 94       		.byte	0x94
 9128 2cff 02       		.byte	0x2
 9129 2d00 32       		.uleb128 0x32
 9130 2d01 01       		.uleb128 0x1
 9131 2d02 53       		.byte	0x53
 9132 2d03 04       		.uleb128 0x4
 9133 2d04 7D       		.byte	0x7d
 9134 2d05 0A       		.sleb128 10
 9135 2d06 94       		.byte	0x94
 9136 2d07 02       		.byte	0x2
 9137 2d08 00       		.byte	0
 9138 2d09 37       		.uleb128 0x37
 9139 2d0a 8E020000 		.4byte	.LVL314
 9140 2d0e EE390000 		.4byte	0x39ee
 9141 2d12 2B2D0000 		.4byte	0x2d2b
 9142 2d16 32       		.uleb128 0x32
 9143 2d17 01       		.uleb128 0x1
 9144 2d18 50       		.byte	0x50
 9145 2d19 02       		.uleb128 0x2
 9146 2d1a 91       		.byte	0x91
 9147 2d1b 44       		.sleb128 -60
 9148 2d1c 32       		.uleb128 0x32
 9149 2d1d 01       		.uleb128 0x1
 9150 2d1e 51       		.byte	0x51
 9151 2d1f 01       		.uleb128 0x1
 9152 2d20 30       		.byte	0x30
 9153 2d21 32       		.uleb128 0x32
 9154 2d22 01       		.uleb128 0x1
 9155 2d23 52       		.byte	0x52
 9156 2d24 05       		.uleb128 0x5
 9157 2d25 91       		.byte	0x91
 9158 2d26 A87F     		.sleb128 -88
 9159 2d28 94       		.byte	0x94
 9160 2d29 02       		.byte	0x2
 9161 2d2a 00       		.byte	0
 9162 2d2b 37       		.uleb128 0x37
 9163 2d2c E2020000 		.4byte	.LVL328
 9164 2d30 7F390000 		.4byte	0x397f
 9165 2d34 572D0000 		.4byte	0x2d57
 9166 2d38 32       		.uleb128 0x32
 9167 2d39 01       		.uleb128 0x1
 9168 2d3a 50       		.byte	0x50
 9169 2d3b 04       		.uleb128 0x4
 9170 2d3c 91       		.byte	0x91
ARM GAS  C:\Users\haske\AppData\Local\Temp\ccxUXv8a.s 			page 202


 9171 2d3d B07F     		.sleb128 -80
 9172 2d3f 06       		.byte	0x6
 9173 2d40 32       		.uleb128 0x32
 9174 2d41 01       		.uleb128 0x1
 9175 2d42 51       		.byte	0x51
 9176 2d43 04       		.uleb128 0x4
 9177 2d44 7D       		.byte	0x7d
 9178 2d45 00       		.sleb128 0
 9179 2d46 94       		.byte	0x94
 9180 2d47 02       		.byte	0x2
 9181 2d48 32       		.uleb128 0x32
 9182 2d49 01       		.uleb128 0x1
 9183 2d4a 52       		.byte	0x52
 9184 2d4b 02       		.uleb128 0x2
 9185 2d4c 75       		.byte	0x75
 9186 2d4d 00       		.sleb128 0
 9187 2d4e 32       		.uleb128 0x32
 9188 2d4f 01       		.uleb128 0x1
 9189 2d50 53       		.byte	0x53
 9190 2d51 04       		.uleb128 0x4
 9191 2d52 7D       		.byte	0x7d
 9192 2d53 0A       		.sleb128 10
 9193 2d54 94       		.byte	0x94
 9194 2d55 02       		.byte	0x2
 9195 2d56 00       		.byte	0
 9196 2d57 37       		.uleb128 0x37
 9197 2d58 F4020000 		.4byte	.LVL330
 9198 2d5c EE390000 		.4byte	0x39ee
 9199 2d60 7B2D0000 		.4byte	0x2d7b
 9200 2d64 32       		.uleb128 0x32
 9201 2d65 01       		.uleb128 0x1
 9202 2d66 50       		.byte	0x50
 9203 2d67 04       		.uleb128 0x4
 9204 2d68 91       		.byte	0x91
 9205 2d69 B07F     		.sleb128 -80
 9206 2d6b 06       		.byte	0x6
 9207 2d6c 32       		.uleb128 0x32
 9208 2d6d 01       		.uleb128 0x1
 9209 2d6e 51       		.byte	0x51
 9210 2d6f 04       		.uleb128 0x4
 9211 2d70 7D       		.byte	0x7d
 9212 2d71 00       		.sleb128 0
 9213 2d72 94       		.byte	0x94
 9214 2d73 02       		.byte	0x2
 9215 2d74 32       		.uleb128 0x32
 9216 2d75 01       		.uleb128 0x1
 9217 2d76 52       		.byte	0x52
 9218 2d77 02       		.uleb128 0x2
 9219 2d78 75       		.byte	0x75
 9220 2d79 00       		.sleb128 0
 9221 2d7a 00       		.byte	0
 9222 2d7b 37       		.uleb128 0x37
 9223 2d7c 02030000 		.4byte	.LVL332
 9224 2d80 47390000 		.4byte	0x3947
 9225 2d84 A02D0000 		.4byte	0x2da0
 9226 2d88 32       		.uleb128 0x32
 9227 2d89 01       		.uleb128 0x1
ARM GAS  C:\Users\haske\AppData\Local\Temp\ccxUXv8a.s 			page 203


 9228 2d8a 50       		.byte	0x50
 9229 2d8b 02       		.uleb128 0x2
 9230 2d8c 91       		.byte	0x91
 9231 2d8d 44       		.sleb128 -60
 9232 2d8e 32       		.uleb128 0x32
 9233 2d8f 01       		.uleb128 0x1
 9234 2d90 51       		.byte	0x51
 9235 2d91 01       		.uleb128 0x1
 9236 2d92 30       		.byte	0x30
 9237 2d93 32       		.uleb128 0x32
 9238 2d94 01       		.uleb128 0x1
 9239 2d95 52       		.byte	0x52
 9240 2d96 02       		.uleb128 0x2
 9241 2d97 75       		.byte	0x75
 9242 2d98 00       		.sleb128 0
 9243 2d99 32       		.uleb128 0x32
 9244 2d9a 01       		.uleb128 0x1
 9245 2d9b 53       		.byte	0x53
 9246 2d9c 02       		.uleb128 0x2
 9247 2d9d 77       		.byte	0x77
 9248 2d9e 00       		.sleb128 0
 9249 2d9f 00       		.byte	0
 9250 2da0 31       		.uleb128 0x31
 9251 2da1 14030000 		.4byte	.LVL335
 9252 2da5 5E390000 		.4byte	0x395e
 9253 2da9 32       		.uleb128 0x32
 9254 2daa 01       		.uleb128 0x1
 9255 2dab 50       		.byte	0x50
 9256 2dac 02       		.uleb128 0x2
 9257 2dad 91       		.byte	0x91
 9258 2dae 44       		.sleb128 -60
 9259 2daf 32       		.uleb128 0x32
 9260 2db0 01       		.uleb128 0x1
 9261 2db1 51       		.byte	0x51
 9262 2db2 01       		.uleb128 0x1
 9263 2db3 30       		.byte	0x30
 9264 2db4 32       		.uleb128 0x32
 9265 2db5 01       		.uleb128 0x1
 9266 2db6 52       		.byte	0x52
 9267 2db7 02       		.uleb128 0x2
 9268 2db8 75       		.byte	0x75
 9269 2db9 00       		.sleb128 0
 9270 2dba 32       		.uleb128 0x32
 9271 2dbb 01       		.uleb128 0x1
 9272 2dbc 53       		.byte	0x53
 9273 2dbd 05       		.uleb128 0x5
 9274 2dbe 91       		.byte	0x91
 9275 2dbf 9C7F     		.sleb128 -100
 9276 2dc1 94       		.byte	0x94
 9277 2dc2 01       		.byte	0x1
 9278 2dc3 00       		.byte	0
 9279 2dc4 00       		.byte	0
 9280 2dc5 33       		.uleb128 0x33
 9281 2dc6 BA000000 		.4byte	.LVL257
 9282 2dca F9390000 		.4byte	0x39f9
 9283 2dce 37       		.uleb128 0x37
 9284 2dcf CE000000 		.4byte	.LVL260
ARM GAS  C:\Users\haske\AppData\Local\Temp\ccxUXv8a.s 			page 204


 9285 2dd3 043A0000 		.4byte	0x3a04
 9286 2dd7 E12D0000 		.4byte	0x2de1
 9287 2ddb 32       		.uleb128 0x32
 9288 2ddc 01       		.uleb128 0x1
 9289 2ddd 50       		.byte	0x50
 9290 2dde 01       		.uleb128 0x1
 9291 2ddf 31       		.byte	0x31
 9292 2de0 00       		.byte	0
 9293 2de1 33       		.uleb128 0x33
 9294 2de2 D4000000 		.4byte	.LVL262
 9295 2de6 0F3A0000 		.4byte	0x3a0f
 9296 2dea 37       		.uleb128 0x37
 9297 2deb 74030000 		.4byte	.LVL353
 9298 2def 52390000 		.4byte	0x3952
 9299 2df3 FE2D0000 		.4byte	0x2dfe
 9300 2df7 32       		.uleb128 0x32
 9301 2df8 01       		.uleb128 0x1
 9302 2df9 50       		.byte	0x50
 9303 2dfa 02       		.uleb128 0x2
 9304 2dfb 7B       		.byte	0x7b
 9305 2dfc 00       		.sleb128 0
 9306 2dfd 00       		.byte	0
 9307 2dfe 31       		.uleb128 0x31
 9308 2dff 7A030000 		.4byte	.LVL354
 9309 2e03 1A3A0000 		.4byte	0x3a1a
 9310 2e07 32       		.uleb128 0x32
 9311 2e08 01       		.uleb128 0x1
 9312 2e09 50       		.byte	0x50
 9313 2e0a 04       		.uleb128 0x4
 9314 2e0b 91       		.byte	0x91
 9315 2e0c BC7F     		.sleb128 -68
 9316 2e0e 06       		.byte	0x6
 9317 2e0f 00       		.byte	0
 9318 2e10 00       		.byte	0
 9319 2e11 4B       		.uleb128 0x4b
 9320 2e12 710C0000 		.4byte	.LASF580
 9321 2e16 01       		.byte	0x1
 9322 2e17 E701     		.2byte	0x1e7
 9323 2e19 00000000 		.4byte	.LFB171
 9324 2e1d C2000000 		.4byte	.LFE171-.LFB171
 9325 2e21 01       		.uleb128 0x1
 9326 2e22 9C       		.byte	0x9c
 9327 2e23 4E2F0000 		.4byte	0x2f4e
 9328 2e27 2E       		.uleb128 0x2e
 9329 2e28 59070000 		.4byte	.LASF539
 9330 2e2c 01       		.byte	0x1
 9331 2e2d E701     		.2byte	0x1e7
 9332 2e2f 751E0000 		.4byte	0x1e75
 9333 2e33 34160000 		.4byte	.LLST117
 9334 2e37 2E       		.uleb128 0x2e
 9335 2e38 FE1D0000 		.4byte	.LASF78
 9336 2e3c 01       		.byte	0x1
 9337 2e3d E701     		.2byte	0x1e7
 9338 2e3f ED030000 		.4byte	0x3ed
 9339 2e43 53160000 		.4byte	.LLST118
 9340 2e47 2F       		.uleb128 0x2f
 9341 2e48 6F706100 		.ascii	"opa\000"
ARM GAS  C:\Users\haske\AppData\Local\Temp\ccxUXv8a.s 			page 205


 9342 2e4c 01       		.byte	0x1
 9343 2e4d E701     		.2byte	0x1e7
 9344 2e4f F8030000 		.4byte	0x3f8
 9345 2e53 66160000 		.4byte	.LLST119
 9346 2e57 40       		.uleb128 0x40
 9347 2e58 64736300 		.ascii	"dsc\000"
 9348 2e5c 01       		.byte	0x1
 9349 2e5d EB01     		.2byte	0x1eb
 9350 2e5f A0220000 		.4byte	0x22a0
 9351 2e63 87160000 		.4byte	.LLST120
 9352 2e67 45       		.uleb128 0x45
 9353 2e68 1C000000 		.4byte	.LBB41
 9354 2e6c 26000000 		.4byte	.LBE41-.LBB41
 9355 2e70 8E2E0000 		.4byte	0x2e8e
 9356 2e74 30       		.uleb128 0x30
 9357 2e75 1F0C0000 		.4byte	.LASF581
 9358 2e79 01       		.byte	0x1
 9359 2e7a EE01     		.2byte	0x1ee
 9360 2e7c E4000000 		.4byte	0xe4
 9361 2e80 D1160000 		.4byte	.LLST121
 9362 2e84 33       		.uleb128 0x33
 9363 2e85 42000000 		.4byte	.LVL362
 9364 2e89 253A0000 		.4byte	0x3a25
 9365 2e8d 00       		.byte	0
 9366 2e8e 45       		.uleb128 0x45
 9367 2e8f 48000000 		.4byte	.LBB42
 9368 2e93 26000000 		.4byte	.LBE42-.LBB42
 9369 2e97 B52E0000 		.4byte	0x2eb5
 9370 2e9b 30       		.uleb128 0x30
 9371 2e9c 1F0C0000 		.4byte	.LASF581
 9372 2ea0 01       		.byte	0x1
 9373 2ea1 F301     		.2byte	0x1f3
 9374 2ea3 E4000000 		.4byte	0xe4
 9375 2ea7 E4160000 		.4byte	.LLST122
 9376 2eab 33       		.uleb128 0x33
 9377 2eac 6E000000 		.4byte	.LVL366
 9378 2eb0 253A0000 		.4byte	0x3a25
 9379 2eb4 00       		.byte	0
 9380 2eb5 4C       		.uleb128 0x4c
 9381 2eb6 00000000 		.4byte	.Ldebug_ranges0+0
 9382 2eba 272F0000 		.4byte	0x2f27
 9383 2ebe 40       		.uleb128 0x40
 9384 2ebf 7800     		.ascii	"x\000"
 9385 2ec1 01       		.byte	0x1
 9386 2ec2 F701     		.2byte	0x1f7
 9387 2ec4 E4000000 		.4byte	0xe4
 9388 2ec8 F7160000 		.4byte	.LLST123
 9389 2ecc 40       		.uleb128 0x40
 9390 2ecd 7900     		.ascii	"y\000"
 9391 2ecf 01       		.byte	0x1
 9392 2ed0 F801     		.2byte	0x1f8
 9393 2ed2 E4000000 		.4byte	0xe4
 9394 2ed6 15170000 		.4byte	.LLST124
 9395 2eda 37       		.uleb128 0x37
 9396 2edb 86000000 		.4byte	.LVL368
 9397 2edf 47390000 		.4byte	0x3947
 9398 2ee3 022F0000 		.4byte	0x2f02
ARM GAS  C:\Users\haske\AppData\Local\Temp\ccxUXv8a.s 			page 206


 9399 2ee7 32       		.uleb128 0x32
 9400 2ee8 01       		.uleb128 0x1
 9401 2ee9 50       		.byte	0x50
 9402 2eea 02       		.uleb128 0x2
 9403 2eeb 77       		.byte	0x77
 9404 2eec 00       		.sleb128 0
 9405 2eed 32       		.uleb128 0x32
 9406 2eee 01       		.uleb128 0x1
 9407 2eef 51       		.byte	0x51
 9408 2ef0 02       		.uleb128 0x2
 9409 2ef1 75       		.byte	0x75
 9410 2ef2 00       		.sleb128 0
 9411 2ef3 32       		.uleb128 0x32
 9412 2ef4 01       		.uleb128 0x1
 9413 2ef5 52       		.byte	0x52
 9414 2ef6 02       		.uleb128 0x2
 9415 2ef7 74       		.byte	0x74
 9416 2ef8 00       		.sleb128 0
 9417 2ef9 32       		.uleb128 0x32
 9418 2efa 01       		.uleb128 0x1
 9419 2efb 53       		.byte	0x53
 9420 2efc 04       		.uleb128 0x4
 9421 2efd 7D       		.byte	0x7d
 9422 2efe 06       		.sleb128 6
 9423 2eff 94       		.byte	0x94
 9424 2f00 02       		.byte	0x2
 9425 2f01 00       		.byte	0
 9426 2f02 31       		.uleb128 0x31
 9427 2f03 92000000 		.4byte	.LVL369
 9428 2f07 5E390000 		.4byte	0x395e
 9429 2f0b 32       		.uleb128 0x32
 9430 2f0c 01       		.uleb128 0x1
 9431 2f0d 50       		.byte	0x50
 9432 2f0e 02       		.uleb128 0x2
 9433 2f0f 77       		.byte	0x77
 9434 2f10 00       		.sleb128 0
 9435 2f11 32       		.uleb128 0x32
 9436 2f12 01       		.uleb128 0x1
 9437 2f13 51       		.byte	0x51
 9438 2f14 02       		.uleb128 0x2
 9439 2f15 75       		.byte	0x75
 9440 2f16 00       		.sleb128 0
 9441 2f17 32       		.uleb128 0x32
 9442 2f18 01       		.uleb128 0x1
 9443 2f19 52       		.byte	0x52
 9444 2f1a 02       		.uleb128 0x2
 9445 2f1b 74       		.byte	0x74
 9446 2f1c 00       		.sleb128 0
 9447 2f1d 32       		.uleb128 0x32
 9448 2f1e 01       		.uleb128 0x1
 9449 2f1f 53       		.byte	0x53
 9450 2f20 04       		.uleb128 0x4
 9451 2f21 91       		.byte	0x91
 9452 2f22 60       		.sleb128 -32
 9453 2f23 94       		.byte	0x94
 9454 2f24 01       		.byte	0x1
 9455 2f25 00       		.byte	0
ARM GAS  C:\Users\haske\AppData\Local\Temp\ccxUXv8a.s 			page 207


 9456 2f26 00       		.byte	0
 9457 2f27 37       		.uleb128 0x37
 9458 2f28 10000000 		.4byte	.LVL358
 9459 2f2c 68220000 		.4byte	0x2268
 9460 2f30 3C2F0000 		.4byte	0x2f3c
 9461 2f34 32       		.uleb128 0x32
 9462 2f35 01       		.uleb128 0x1
 9463 2f36 50       		.byte	0x50
 9464 2f37 03       		.uleb128 0x3
 9465 2f38 91       		.byte	0x91
 9466 2f39 64       		.sleb128 -28
 9467 2f3a 06       		.byte	0x6
 9468 2f3b 00       		.byte	0
 9469 2f3c 31       		.uleb128 0x31
 9470 2f3d BE000000 		.4byte	.LVL377
 9471 2f41 52390000 		.4byte	0x3952
 9472 2f45 32       		.uleb128 0x32
 9473 2f46 01       		.uleb128 0x1
 9474 2f47 50       		.byte	0x50
 9475 2f48 03       		.uleb128 0x3
 9476 2f49 91       		.byte	0x91
 9477 2f4a 64       		.sleb128 -28
 9478 2f4b 06       		.byte	0x6
 9479 2f4c 00       		.byte	0
 9480 2f4d 00       		.byte	0
 9481 2f4e 4B       		.uleb128 0x4b
 9482 2f4f 1E250000 		.4byte	.LASF582
 9483 2f53 01       		.byte	0x1
 9484 2f54 0402     		.2byte	0x204
 9485 2f56 00000000 		.4byte	.LFB172
 9486 2f5a 98000000 		.4byte	.LFE172-.LFB172
 9487 2f5e 01       		.uleb128 0x1
 9488 2f5f 9C       		.byte	0x9c
 9489 2f60 E5300000 		.4byte	0x30e5
 9490 2f64 2E       		.uleb128 0x2e
 9491 2f65 59070000 		.4byte	.LASF539
 9492 2f69 01       		.byte	0x1
 9493 2f6a 0402     		.2byte	0x204
 9494 2f6c 751E0000 		.4byte	0x1e75
 9495 2f70 57170000 		.4byte	.LLST125
 9496 2f74 2F       		.uleb128 0x2f
 9497 2f75 7800     		.ascii	"x\000"
 9498 2f77 01       		.byte	0x1
 9499 2f78 0402     		.2byte	0x204
 9500 2f7a 01010000 		.4byte	0x101
 9501 2f7e 77170000 		.4byte	.LLST126
 9502 2f82 2F       		.uleb128 0x2f
 9503 2f83 7900     		.ascii	"y\000"
 9504 2f85 01       		.byte	0x1
 9505 2f86 0402     		.2byte	0x204
 9506 2f88 01010000 		.4byte	0x101
 9507 2f8c 98170000 		.4byte	.LLST127
 9508 2f90 2F       		.uleb128 0x2f
 9509 2f91 7700     		.ascii	"w\000"
 9510 2f93 01       		.byte	0x1
 9511 2f94 0402     		.2byte	0x204
 9512 2f96 01010000 		.4byte	0x101
ARM GAS  C:\Users\haske\AppData\Local\Temp\ccxUXv8a.s 			page 208


 9513 2f9a B9170000 		.4byte	.LLST128
 9514 2f9e 2F       		.uleb128 0x2f
 9515 2f9f 6800     		.ascii	"h\000"
 9516 2fa1 01       		.byte	0x1
 9517 2fa2 0402     		.2byte	0x204
 9518 2fa4 01010000 		.4byte	0x101
 9519 2fa8 DA170000 		.4byte	.LLST129
 9520 2fac 2E       		.uleb128 0x2e
 9521 2fad 13030000 		.4byte	.LASF559
 9522 2fb1 01       		.byte	0x1
 9523 2fb2 0502     		.2byte	0x205
 9524 2fb4 33100000 		.4byte	0x1033
 9525 2fb8 06180000 		.4byte	.LLST130
 9526 2fbc 40       		.uleb128 0x40
 9527 2fbd 64736300 		.ascii	"dsc\000"
 9528 2fc1 01       		.byte	0x1
 9529 2fc2 0902     		.2byte	0x209
 9530 2fc4 A0220000 		.4byte	0x22a0
 9531 2fc8 32180000 		.4byte	.LLST131
 9532 2fcc 44       		.uleb128 0x44
 9533 2fcd 3A040000 		.4byte	.LASF583
 9534 2fd1 01       		.byte	0x1
 9535 2fd2 1202     		.2byte	0x212
 9536 2fd4 39170000 		.4byte	0x1739
 9537 2fd8 03       		.uleb128 0x3
 9538 2fd9 91       		.byte	0x91
 9539 2fda 8C7D     		.sleb128 -372
 9540 2fdc 44       		.uleb128 0x44
 9541 2fdd 580B0000 		.4byte	.LASF391
 9542 2fe1 01       		.byte	0x1
 9543 2fe2 1302     		.2byte	0x213
 9544 2fe4 E0150000 		.4byte	0x15e0
 9545 2fe8 03       		.uleb128 0x3
 9546 2fe9 91       		.byte	0x91
 9547 2fea BC7C     		.sleb128 -452
 9548 2fec 44       		.uleb128 0x44
 9549 2fed 66150000 		.4byte	.LASF310
 9550 2ff1 01       		.byte	0x1
 9551 2ff2 1402     		.2byte	0x214
 9552 2ff4 69010000 		.4byte	0x169
 9553 2ff8 03       		.uleb128 0x3
 9554 2ff9 91       		.byte	0x91
 9555 2ffa B47C     		.sleb128 -460
 9556 2ffc 30       		.uleb128 0x30
 9557 2ffd 01010000 		.4byte	.LASF584
 9558 3001 01       		.byte	0x1
 9559 3002 1702     		.2byte	0x217
 9560 3004 2B1F0000 		.4byte	0x1f2b
 9561 3008 50180000 		.4byte	.LLST132
 9562 300c 4A       		.uleb128 0x4a
 9563 300d EB070000 		.4byte	.LASF585
 9564 3011 01       		.byte	0x1
 9565 3012 1B02     		.2byte	0x21b
 9566 3014 ED030000 		.4byte	0x3ed
 9567 3018 44       		.uleb128 0x44
 9568 3019 09200000 		.4byte	.LASF238
 9569 301d 01       		.byte	0x1
ARM GAS  C:\Users\haske\AppData\Local\Temp\ccxUXv8a.s 			page 209


 9570 301e 2102     		.2byte	0x221
 9571 3020 69010000 		.4byte	0x169
 9572 3024 03       		.uleb128 0x3
 9573 3025 91       		.byte	0x91
 9574 3026 AC7C     		.sleb128 -468
 9575 3028 37       		.uleb128 0x37
 9576 3029 16000000 		.4byte	.LVL382
 9577 302d 68220000 		.4byte	0x2268
 9578 3031 3E300000 		.4byte	0x303e
 9579 3035 32       		.uleb128 0x32
 9580 3036 01       		.uleb128 0x1
 9581 3037 50       		.byte	0x50
 9582 3038 04       		.uleb128 0x4
 9583 3039 91       		.byte	0x91
 9584 303a 9C7C     		.sleb128 -484
 9585 303c 06       		.byte	0x6
 9586 303d 00       		.byte	0
 9587 303e 37       		.uleb128 0x37
 9588 303f 34000000 		.4byte	.LVL385
 9589 3043 A6220000 		.4byte	0x22a6
 9590 3047 69300000 		.4byte	0x3069
 9591 304b 32       		.uleb128 0x32
 9592 304c 01       		.uleb128 0x1
 9593 304d 50       		.byte	0x50
 9594 304e 04       		.uleb128 0x4
 9595 304f 91       		.byte	0x91
 9596 3050 9C7C     		.sleb128 -484
 9597 3052 06       		.byte	0x6
 9598 3053 32       		.uleb128 0x32
 9599 3054 01       		.uleb128 0x1
 9600 3055 51       		.byte	0x51
 9601 3056 03       		.uleb128 0x3
 9602 3057 91       		.byte	0x91
 9603 3058 8C7D     		.sleb128 -372
 9604 305a 32       		.uleb128 0x32
 9605 305b 01       		.uleb128 0x1
 9606 305c 52       		.byte	0x52
 9607 305d 03       		.uleb128 0x3
 9608 305e 91       		.byte	0x91
 9609 305f BC7C     		.sleb128 -452
 9610 3061 32       		.uleb128 0x32
 9611 3062 01       		.uleb128 0x1
 9612 3063 53       		.byte	0x53
 9613 3064 03       		.uleb128 0x3
 9614 3065 91       		.byte	0x91
 9615 3066 B47C     		.sleb128 -460
 9616 3068 00       		.byte	0
 9617 3069 33       		.uleb128 0x33
 9618 306a 38000000 		.4byte	.LVL386
 9619 306e 303A0000 		.4byte	0x3a30
 9620 3072 37       		.uleb128 0x37
 9621 3073 40000000 		.4byte	.LVL389
 9622 3077 3B3A0000 		.4byte	0x3a3b
 9623 307b 87300000 		.4byte	0x3087
 9624 307f 32       		.uleb128 0x32
 9625 3080 01       		.uleb128 0x1
 9626 3081 50       		.byte	0x50
ARM GAS  C:\Users\haske\AppData\Local\Temp\ccxUXv8a.s 			page 210


 9627 3082 03       		.uleb128 0x3
 9628 3083 91       		.byte	0x91
 9629 3084 8C7D     		.sleb128 -372
 9630 3086 00       		.byte	0
 9631 3087 37       		.uleb128 0x37
 9632 3088 7E000000 		.4byte	.LVL391
 9633 308c 463A0000 		.4byte	0x3a46
 9634 3090 A3300000 		.4byte	0x30a3
 9635 3094 32       		.uleb128 0x32
 9636 3095 01       		.uleb128 0x1
 9637 3096 51       		.byte	0x51
 9638 3097 03       		.uleb128 0x3
 9639 3098 91       		.byte	0x91
 9640 3099 04       		.sleb128 4
 9641 309a 06       		.byte	0x6
 9642 309b 32       		.uleb128 0x32
 9643 309c 01       		.uleb128 0x1
 9644 309d 52       		.byte	0x52
 9645 309e 03       		.uleb128 0x3
 9646 309f 91       		.byte	0x91
 9647 30a0 AC7C     		.sleb128 -468
 9648 30a2 00       		.byte	0
 9649 30a3 37       		.uleb128 0x37
 9650 30a4 84000000 		.4byte	.LVL392
 9651 30a8 3B3A0000 		.4byte	0x3a3b
 9652 30ac B9300000 		.4byte	0x30b9
 9653 30b0 32       		.uleb128 0x32
 9654 30b1 01       		.uleb128 0x1
 9655 30b2 50       		.byte	0x50
 9656 30b3 04       		.uleb128 0x4
 9657 30b4 91       		.byte	0x91
 9658 30b5 A47C     		.sleb128 -476
 9659 30b7 06       		.byte	0x6
 9660 30b8 00       		.byte	0
 9661 30b9 37       		.uleb128 0x37
 9662 30ba 8E000000 		.4byte	.LVL393
 9663 30be E21E0000 		.4byte	0x1ee2
 9664 30c2 D4300000 		.4byte	0x30d4
 9665 30c6 32       		.uleb128 0x32
 9666 30c7 01       		.uleb128 0x1
 9667 30c8 50       		.byte	0x50
 9668 30c9 02       		.uleb128 0x2
 9669 30ca 74       		.byte	0x74
 9670 30cb 00       		.sleb128 0
 9671 30cc 32       		.uleb128 0x32
 9672 30cd 01       		.uleb128 0x1
 9673 30ce 51       		.byte	0x51
 9674 30cf 03       		.uleb128 0x3
 9675 30d0 91       		.byte	0x91
 9676 30d1 8C7D     		.sleb128 -372
 9677 30d3 00       		.byte	0
 9678 30d4 31       		.uleb128 0x31
 9679 30d5 94000000 		.4byte	.LVL394
 9680 30d9 52390000 		.4byte	0x3952
 9681 30dd 32       		.uleb128 0x32
 9682 30de 01       		.uleb128 0x1
 9683 30df 50       		.byte	0x50
ARM GAS  C:\Users\haske\AppData\Local\Temp\ccxUXv8a.s 			page 211


 9684 30e0 02       		.uleb128 0x2
 9685 30e1 74       		.byte	0x74
 9686 30e2 00       		.sleb128 0
 9687 30e3 00       		.byte	0
 9688 30e4 00       		.byte	0
 9689 30e5 4B       		.uleb128 0x4b
 9690 30e6 031A0000 		.4byte	.LASF586
 9691 30ea 01       		.byte	0x1
 9692 30eb 3002     		.2byte	0x230
 9693 30ed 00000000 		.4byte	.LFB173
 9694 30f1 78000000 		.4byte	.LFE173-.LFB173
 9695 30f5 01       		.uleb128 0x1
 9696 30f6 9C       		.byte	0x9c
 9697 30f7 7F320000 		.4byte	0x327f
 9698 30fb 2E       		.uleb128 0x2e
 9699 30fc 59070000 		.4byte	.LASF539
 9700 3100 01       		.byte	0x1
 9701 3101 3002     		.2byte	0x230
 9702 3103 751E0000 		.4byte	0x1e75
 9703 3107 70180000 		.4byte	.LLST133
 9704 310b 2F       		.uleb128 0x2f
 9705 310c 7800     		.ascii	"x\000"
 9706 310e 01       		.byte	0x1
 9707 310f 3002     		.2byte	0x230
 9708 3111 01010000 		.4byte	0x101
 9709 3115 90180000 		.4byte	.LLST134
 9710 3119 2F       		.uleb128 0x2f
 9711 311a 7900     		.ascii	"y\000"
 9712 311c 01       		.byte	0x1
 9713 311d 3002     		.2byte	0x230
 9714 311f 01010000 		.4byte	0x101
 9715 3123 B1180000 		.4byte	.LLST135
 9716 3127 2E       		.uleb128 0x2e
 9717 3128 89010000 		.4byte	.LASF587
 9718 312c 01       		.byte	0x1
 9719 312d 3002     		.2byte	0x230
 9720 312f 01010000 		.4byte	0x101
 9721 3133 D2180000 		.4byte	.LLST136
 9722 3137 4D       		.uleb128 0x4d
 9723 3138 13030000 		.4byte	.LASF559
 9724 313c 01       		.byte	0x1
 9725 313d 3102     		.2byte	0x231
 9726 313f 4B190000 		.4byte	0x194b
 9727 3143 02       		.uleb128 0x2
 9728 3144 91       		.byte	0x91
 9729 3145 00       		.sleb128 0
 9730 3146 4E       		.uleb128 0x4e
 9731 3147 74787400 		.ascii	"txt\000"
 9732 314b 01       		.byte	0x1
 9733 314c 3102     		.2byte	0x231
 9734 314e 28030000 		.4byte	0x328
 9735 3152 02       		.uleb128 0x2
 9736 3153 91       		.byte	0x91
 9737 3154 04       		.sleb128 4
 9738 3155 40       		.uleb128 0x40
 9739 3156 64736300 		.ascii	"dsc\000"
 9740 315a 01       		.byte	0x1
ARM GAS  C:\Users\haske\AppData\Local\Temp\ccxUXv8a.s 			page 212


 9741 315b 3502     		.2byte	0x235
 9742 315d A0220000 		.4byte	0x22a0
 9743 3161 F3180000 		.4byte	.LLST137
 9744 3165 44       		.uleb128 0x44
 9745 3166 3A040000 		.4byte	.LASF583
 9746 316a 01       		.byte	0x1
 9747 316b 3E02     		.2byte	0x23e
 9748 316d 39170000 		.4byte	0x1739
 9749 3171 03       		.uleb128 0x3
 9750 3172 91       		.byte	0x91
 9751 3173 8C7D     		.sleb128 -372
 9752 3175 44       		.uleb128 0x44
 9753 3176 580B0000 		.4byte	.LASF391
 9754 317a 01       		.byte	0x1
 9755 317b 3F02     		.2byte	0x23f
 9756 317d E0150000 		.4byte	0x15e0
 9757 3181 03       		.uleb128 0x3
 9758 3182 91       		.byte	0x91
 9759 3183 BC7C     		.sleb128 -452
 9760 3185 44       		.uleb128 0x44
 9761 3186 66150000 		.4byte	.LASF310
 9762 318a 01       		.byte	0x1
 9763 318b 4002     		.2byte	0x240
 9764 318d 69010000 		.4byte	0x169
 9765 3191 03       		.uleb128 0x3
 9766 3192 91       		.byte	0x91
 9767 3193 B47C     		.sleb128 -460
 9768 3195 30       		.uleb128 0x30
 9769 3196 01010000 		.4byte	.LASF584
 9770 319a 01       		.byte	0x1
 9771 319b 4302     		.2byte	0x243
 9772 319d 2B1F0000 		.4byte	0x1f2b
 9773 31a1 11190000 		.4byte	.LLST138
 9774 31a5 44       		.uleb128 0x44
 9775 31a6 09200000 		.4byte	.LASF238
 9776 31aa 01       		.byte	0x1
 9777 31ab 4602     		.2byte	0x246
 9778 31ad 69010000 		.4byte	0x169
 9779 31b1 03       		.uleb128 0x3
 9780 31b2 91       		.byte	0x91
 9781 31b3 AC7C     		.sleb128 -468
 9782 31b5 37       		.uleb128 0x37
 9783 31b6 10000000 		.4byte	.LVL396
 9784 31ba 68220000 		.4byte	0x2268
 9785 31be CB310000 		.4byte	0x31cb
 9786 31c2 32       		.uleb128 0x32
 9787 31c3 01       		.uleb128 0x1
 9788 31c4 50       		.byte	0x50
 9789 31c5 04       		.uleb128 0x4
 9790 31c6 91       		.byte	0x91
 9791 31c7 A07C     		.sleb128 -480
 9792 31c9 06       		.byte	0x6
 9793 31ca 00       		.byte	0
 9794 31cb 37       		.uleb128 0x37
 9795 31cc 2E000000 		.4byte	.LVL399
 9796 31d0 A6220000 		.4byte	0x22a6
 9797 31d4 F6310000 		.4byte	0x31f6
ARM GAS  C:\Users\haske\AppData\Local\Temp\ccxUXv8a.s 			page 213


 9798 31d8 32       		.uleb128 0x32
 9799 31d9 01       		.uleb128 0x1
 9800 31da 50       		.byte	0x50
 9801 31db 04       		.uleb128 0x4
 9802 31dc 91       		.byte	0x91
 9803 31dd A07C     		.sleb128 -480
 9804 31df 06       		.byte	0x6
 9805 31e0 32       		.uleb128 0x32
 9806 31e1 01       		.uleb128 0x1
 9807 31e2 51       		.byte	0x51
 9808 31e3 03       		.uleb128 0x3
 9809 31e4 91       		.byte	0x91
 9810 31e5 8C7D     		.sleb128 -372
 9811 31e7 32       		.uleb128 0x32
 9812 31e8 01       		.uleb128 0x1
 9813 31e9 52       		.byte	0x52
 9814 31ea 03       		.uleb128 0x3
 9815 31eb 91       		.byte	0x91
 9816 31ec BC7C     		.sleb128 -452
 9817 31ee 32       		.uleb128 0x32
 9818 31ef 01       		.uleb128 0x1
 9819 31f0 53       		.byte	0x53
 9820 31f1 03       		.uleb128 0x3
 9821 31f2 91       		.byte	0x91
 9822 31f3 B47C     		.sleb128 -460
 9823 31f5 00       		.byte	0
 9824 31f6 33       		.uleb128 0x33
 9825 31f7 32000000 		.4byte	.LVL400
 9826 31fb 303A0000 		.4byte	0x3a30
 9827 31ff 37       		.uleb128 0x37
 9828 3200 3C000000 		.4byte	.LVL403
 9829 3204 3B3A0000 		.4byte	0x3a3b
 9830 3208 14320000 		.4byte	0x3214
 9831 320c 32       		.uleb128 0x32
 9832 320d 01       		.uleb128 0x1
 9833 320e 50       		.byte	0x50
 9834 320f 03       		.uleb128 0x3
 9835 3210 91       		.byte	0x91
 9836 3211 8C7D     		.sleb128 -372
 9837 3213 00       		.byte	0
 9838 3214 37       		.uleb128 0x37
 9839 3215 5E000000 		.4byte	.LVL404
 9840 3219 513A0000 		.4byte	0x3a51
 9841 321d 3D320000 		.4byte	0x323d
 9842 3221 32       		.uleb128 0x32
 9843 3222 01       		.uleb128 0x1
 9844 3223 51       		.byte	0x51
 9845 3224 03       		.uleb128 0x3
 9846 3225 91       		.byte	0x91
 9847 3226 00       		.sleb128 0
 9848 3227 06       		.byte	0x6
 9849 3228 32       		.uleb128 0x32
 9850 3229 01       		.uleb128 0x1
 9851 322a 52       		.byte	0x52
 9852 322b 03       		.uleb128 0x3
 9853 322c 91       		.byte	0x91
 9854 322d AC7C     		.sleb128 -468
ARM GAS  C:\Users\haske\AppData\Local\Temp\ccxUXv8a.s 			page 214


 9855 322f 32       		.uleb128 0x32
 9856 3230 01       		.uleb128 0x1
 9857 3231 53       		.byte	0x53
 9858 3232 03       		.uleb128 0x3
 9859 3233 91       		.byte	0x91
 9860 3234 04       		.sleb128 4
 9861 3235 06       		.byte	0x6
 9862 3236 32       		.uleb128 0x32
 9863 3237 02       		.uleb128 0x2
 9864 3238 7D       		.byte	0x7d
 9865 3239 00       		.sleb128 0
 9866 323a 01       		.uleb128 0x1
 9867 323b 30       		.byte	0x30
 9868 323c 00       		.byte	0
 9869 323d 37       		.uleb128 0x37
 9870 323e 64000000 		.4byte	.LVL405
 9871 3242 3B3A0000 		.4byte	0x3a3b
 9872 3246 53320000 		.4byte	0x3253
 9873 324a 32       		.uleb128 0x32
 9874 324b 01       		.uleb128 0x1
 9875 324c 50       		.byte	0x50
 9876 324d 04       		.uleb128 0x4
 9877 324e 91       		.byte	0x91
 9878 324f A47C     		.sleb128 -476
 9879 3251 06       		.byte	0x6
 9880 3252 00       		.byte	0
 9881 3253 37       		.uleb128 0x37
 9882 3254 6E000000 		.4byte	.LVL407
 9883 3258 E21E0000 		.4byte	0x1ee2
 9884 325c 6E320000 		.4byte	0x326e
 9885 3260 32       		.uleb128 0x32
 9886 3261 01       		.uleb128 0x1
 9887 3262 50       		.byte	0x50
 9888 3263 02       		.uleb128 0x2
 9889 3264 74       		.byte	0x74
 9890 3265 00       		.sleb128 0
 9891 3266 32       		.uleb128 0x32
 9892 3267 01       		.uleb128 0x1
 9893 3268 51       		.byte	0x51
 9894 3269 03       		.uleb128 0x3
 9895 326a 91       		.byte	0x91
 9896 326b 8C7D     		.sleb128 -372
 9897 326d 00       		.byte	0
 9898 326e 31       		.uleb128 0x31
 9899 326f 74000000 		.4byte	.LVL408
 9900 3273 52390000 		.4byte	0x3952
 9901 3277 32       		.uleb128 0x32
 9902 3278 01       		.uleb128 0x1
 9903 3279 50       		.byte	0x50
 9904 327a 02       		.uleb128 0x2
 9905 327b 74       		.byte	0x74
 9906 327c 00       		.sleb128 0
 9907 327d 00       		.byte	0
 9908 327e 00       		.byte	0
 9909 327f 4B       		.uleb128 0x4b
 9910 3280 BC110000 		.4byte	.LASF588
 9911 3284 01       		.byte	0x1
ARM GAS  C:\Users\haske\AppData\Local\Temp\ccxUXv8a.s 			page 215


 9912 3285 5402     		.2byte	0x254
 9913 3287 00000000 		.4byte	.LFB174
 9914 328b 90000000 		.4byte	.LFE174-.LFB174
 9915 328f 01       		.uleb128 0x1
 9916 3290 9C       		.byte	0x9c
 9917 3291 38340000 		.4byte	0x3438
 9918 3295 2E       		.uleb128 0x2e
 9919 3296 59070000 		.4byte	.LASF539
 9920 329a 01       		.byte	0x1
 9921 329b 5402     		.2byte	0x254
 9922 329d 751E0000 		.4byte	0x1e75
 9923 32a1 31190000 		.4byte	.LLST139
 9924 32a5 2F       		.uleb128 0x2f
 9925 32a6 7800     		.ascii	"x\000"
 9926 32a8 01       		.byte	0x1
 9927 32a9 5402     		.2byte	0x254
 9928 32ab 01010000 		.4byte	0x101
 9929 32af 5D190000 		.4byte	.LLST140
 9930 32b3 2F       		.uleb128 0x2f
 9931 32b4 7900     		.ascii	"y\000"
 9932 32b6 01       		.byte	0x1
 9933 32b7 5402     		.2byte	0x254
 9934 32b9 01010000 		.4byte	0x101
 9935 32bd 7E190000 		.4byte	.LLST141
 9936 32c1 2F       		.uleb128 0x2f
 9937 32c2 73726300 		.ascii	"src\000"
 9938 32c6 01       		.byte	0x1
 9939 32c7 5402     		.2byte	0x254
 9940 32c9 E2020000 		.4byte	0x2e2
 9941 32cd 9F190000 		.4byte	.LLST142
 9942 32d1 4D       		.uleb128 0x4d
 9943 32d2 13030000 		.4byte	.LASF559
 9944 32d6 01       		.byte	0x1
 9945 32d7 5502     		.2byte	0x255
 9946 32d9 A3100000 		.4byte	0x10a3
 9947 32dd 02       		.uleb128 0x2
 9948 32de 91       		.byte	0x91
 9949 32df 00       		.sleb128 0
 9950 32e0 40       		.uleb128 0x40
 9951 32e1 64736300 		.ascii	"dsc\000"
 9952 32e5 01       		.byte	0x1
 9953 32e6 5902     		.2byte	0x259
 9954 32e8 A0220000 		.4byte	0x22a0
 9955 32ec CB190000 		.4byte	.LLST143
 9956 32f0 44       		.uleb128 0x44
 9957 32f1 D5080000 		.4byte	.LASF228
 9958 32f5 01       		.byte	0x1
 9959 32f6 6002     		.2byte	0x260
 9960 32f8 4B090000 		.4byte	0x94b
 9961 32fc 02       		.uleb128 0x2
 9962 32fd 91       		.byte	0x91
 9963 32fe 64       		.sleb128 -28
 9964 32ff 40       		.uleb128 0x40
 9965 3300 72657300 		.ascii	"res\000"
 9966 3304 01       		.byte	0x1
 9967 3305 6102     		.2byte	0x261
 9968 3307 0F030000 		.4byte	0x30f
ARM GAS  C:\Users\haske\AppData\Local\Temp\ccxUXv8a.s 			page 216


 9969 330b DE190000 		.4byte	.LLST144
 9970 330f 44       		.uleb128 0x44
 9971 3310 3A040000 		.4byte	.LASF583
 9972 3314 01       		.byte	0x1
 9973 3315 6802     		.2byte	0x268
 9974 3317 39170000 		.4byte	0x1739
 9975 331b 03       		.uleb128 0x3
 9976 331c 91       		.byte	0x91
 9977 331d 887D     		.sleb128 -376
 9978 331f 44       		.uleb128 0x44
 9979 3320 580B0000 		.4byte	.LASF391
 9980 3324 01       		.byte	0x1
 9981 3325 6902     		.2byte	0x269
 9982 3327 E0150000 		.4byte	0x15e0
 9983 332b 03       		.uleb128 0x3
 9984 332c 91       		.byte	0x91
 9985 332d B87C     		.sleb128 -456
 9986 332f 44       		.uleb128 0x44
 9987 3330 66150000 		.4byte	.LASF310
 9988 3334 01       		.byte	0x1
 9989 3335 6A02     		.2byte	0x26a
 9990 3337 69010000 		.4byte	0x169
 9991 333b 03       		.uleb128 0x3
 9992 333c 91       		.byte	0x91
 9993 333d B07C     		.sleb128 -464
 9994 333f 30       		.uleb128 0x30
 9995 3340 01010000 		.4byte	.LASF584
 9996 3344 01       		.byte	0x1
 9997 3345 6D02     		.2byte	0x26d
 9998 3347 2B1F0000 		.4byte	0x1f2b
 9999 334b F1190000 		.4byte	.LLST145
 10000 334f 44       		.uleb128 0x44
 10001 3350 09200000 		.4byte	.LASF238
 10002 3354 01       		.byte	0x1
 10003 3355 7002     		.2byte	0x270
 10004 3357 69010000 		.4byte	0x169
 10005 335b 03       		.uleb128 0x3
 10006 335c 91       		.byte	0x91
 10007 335d A87C     		.sleb128 -472
 10008 335f 37       		.uleb128 0x37
 10009 3360 10000000 		.4byte	.LVL410
 10010 3364 68220000 		.4byte	0x2268
 10011 3368 73330000 		.4byte	0x3373
 10012 336c 32       		.uleb128 0x32
 10013 336d 01       		.uleb128 0x1
 10014 336e 50       		.byte	0x50
 10015 336f 02       		.uleb128 0x2
 10016 3370 74       		.byte	0x74
 10017 3371 00       		.sleb128 0
 10018 3372 00       		.byte	0
 10019 3373 37       		.uleb128 0x37
 10020 3374 28000000 		.4byte	.LVL412
 10021 3378 5C3A0000 		.4byte	0x3a5c
 10022 337c 8D330000 		.4byte	0x338d
 10023 3380 32       		.uleb128 0x32
 10024 3381 01       		.uleb128 0x1
 10025 3382 50       		.byte	0x50
ARM GAS  C:\Users\haske\AppData\Local\Temp\ccxUXv8a.s 			page 217


 10026 3383 02       		.uleb128 0x2
 10027 3384 75       		.byte	0x75
 10028 3385 00       		.sleb128 0
 10029 3386 32       		.uleb128 0x32
 10030 3387 01       		.uleb128 0x1
 10031 3388 51       		.byte	0x51
 10032 3389 02       		.uleb128 0x2
 10033 338a 91       		.byte	0x91
 10034 338b 64       		.sleb128 -28
 10035 338c 00       		.byte	0
 10036 338d 37       		.uleb128 0x37
 10037 338e 38000000 		.4byte	.LVL414
 10038 3392 A6220000 		.4byte	0x22a6
 10039 3396 B6330000 		.4byte	0x33b6
 10040 339a 32       		.uleb128 0x32
 10041 339b 01       		.uleb128 0x1
 10042 339c 50       		.byte	0x50
 10043 339d 02       		.uleb128 0x2
 10044 339e 74       		.byte	0x74
 10045 339f 00       		.sleb128 0
 10046 33a0 32       		.uleb128 0x32
 10047 33a1 01       		.uleb128 0x1
 10048 33a2 51       		.byte	0x51
 10049 33a3 03       		.uleb128 0x3
 10050 33a4 91       		.byte	0x91
 10051 33a5 887D     		.sleb128 -376
 10052 33a7 32       		.uleb128 0x32
 10053 33a8 01       		.uleb128 0x1
 10054 33a9 52       		.byte	0x52
 10055 33aa 03       		.uleb128 0x3
 10056 33ab 91       		.byte	0x91
 10057 33ac B87C     		.sleb128 -456
 10058 33ae 32       		.uleb128 0x32
 10059 33af 01       		.uleb128 0x1
 10060 33b0 53       		.byte	0x53
 10061 33b1 03       		.uleb128 0x3
 10062 33b2 91       		.byte	0x91
 10063 33b3 B07C     		.sleb128 -464
 10064 33b5 00       		.byte	0
 10065 33b6 33       		.uleb128 0x33
 10066 33b7 3C000000 		.4byte	.LVL415
 10067 33bb 303A0000 		.4byte	0x3a30
 10068 33bf 37       		.uleb128 0x37
 10069 33c0 46000000 		.4byte	.LVL418
 10070 33c4 3B3A0000 		.4byte	0x3a3b
 10071 33c8 D4330000 		.4byte	0x33d4
 10072 33cc 32       		.uleb128 0x32
 10073 33cd 01       		.uleb128 0x1
 10074 33ce 50       		.byte	0x50
 10075 33cf 03       		.uleb128 0x3
 10076 33d0 91       		.byte	0x91
 10077 33d1 887D     		.sleb128 -376
 10078 33d3 00       		.byte	0
 10079 33d4 37       		.uleb128 0x37
 10080 33d5 78000000 		.4byte	.LVL419
 10081 33d9 673A0000 		.4byte	0x3a67
 10082 33dd F6330000 		.4byte	0x33f6
ARM GAS  C:\Users\haske\AppData\Local\Temp\ccxUXv8a.s 			page 218


 10083 33e1 32       		.uleb128 0x32
 10084 33e2 01       		.uleb128 0x1
 10085 33e3 51       		.byte	0x51
 10086 33e4 03       		.uleb128 0x3
 10087 33e5 91       		.byte	0x91
 10088 33e6 00       		.sleb128 0
 10089 33e7 06       		.byte	0x6
 10090 33e8 32       		.uleb128 0x32
 10091 33e9 01       		.uleb128 0x1
 10092 33ea 52       		.byte	0x52
 10093 33eb 03       		.uleb128 0x3
 10094 33ec 91       		.byte	0x91
 10095 33ed A87C     		.sleb128 -472
 10096 33ef 32       		.uleb128 0x32
 10097 33f0 01       		.uleb128 0x1
 10098 33f1 53       		.byte	0x53
 10099 33f2 02       		.uleb128 0x2
 10100 33f3 75       		.byte	0x75
 10101 33f4 00       		.sleb128 0
 10102 33f5 00       		.byte	0
 10103 33f6 37       		.uleb128 0x37
 10104 33f7 7E000000 		.4byte	.LVL420
 10105 33fb 3B3A0000 		.4byte	0x3a3b
 10106 33ff 0C340000 		.4byte	0x340c
 10107 3403 32       		.uleb128 0x32
 10108 3404 01       		.uleb128 0x1
 10109 3405 50       		.byte	0x50
 10110 3406 04       		.uleb128 0x4
 10111 3407 91       		.byte	0x91
 10112 3408 A47C     		.sleb128 -476
 10113 340a 06       		.byte	0x6
 10114 340b 00       		.byte	0
 10115 340c 37       		.uleb128 0x37
 10116 340d 86000000 		.4byte	.LVL421
 10117 3411 E21E0000 		.4byte	0x1ee2
 10118 3415 27340000 		.4byte	0x3427
 10119 3419 32       		.uleb128 0x32
 10120 341a 01       		.uleb128 0x1
 10121 341b 50       		.byte	0x50
 10122 341c 02       		.uleb128 0x2
 10123 341d 74       		.byte	0x74
 10124 341e 00       		.sleb128 0
 10125 341f 32       		.uleb128 0x32
 10126 3420 01       		.uleb128 0x1
 10127 3421 51       		.byte	0x51
 10128 3422 03       		.uleb128 0x3
 10129 3423 91       		.byte	0x91
 10130 3424 887D     		.sleb128 -376
 10131 3426 00       		.byte	0
 10132 3427 31       		.uleb128 0x31
 10133 3428 8C000000 		.4byte	.LVL422
 10134 342c 52390000 		.4byte	0x3952
 10135 3430 32       		.uleb128 0x32
 10136 3431 01       		.uleb128 0x1
 10137 3432 50       		.byte	0x50
 10138 3433 02       		.uleb128 0x2
 10139 3434 74       		.byte	0x74
ARM GAS  C:\Users\haske\AppData\Local\Temp\ccxUXv8a.s 			page 219


 10140 3435 00       		.sleb128 0
 10141 3436 00       		.byte	0
 10142 3437 00       		.byte	0
 10143 3438 4B       		.uleb128 0x4b
 10144 3439 DD030000 		.4byte	.LASF589
 10145 343d 01       		.byte	0x1
 10146 343e 7F02     		.2byte	0x27f
 10147 3440 00000000 		.4byte	.LFB175
 10148 3444 8E000000 		.4byte	.LFE175-.LFB175
 10149 3448 01       		.uleb128 0x1
 10150 3449 9C       		.byte	0x9c
 10151 344a C1350000 		.4byte	0x35c1
 10152 344e 2E       		.uleb128 0x2e
 10153 344f 59070000 		.4byte	.LASF539
 10154 3453 01       		.byte	0x1
 10155 3454 7F02     		.2byte	0x27f
 10156 3456 751E0000 		.4byte	0x1e75
 10157 345a 111A0000 		.4byte	.LLST146
 10158 345e 2E       		.uleb128 0x2e
 10159 345f 9C1F0000 		.4byte	.LASF590
 10160 3463 01       		.byte	0x1
 10161 3464 7F02     		.2byte	0x27f
 10162 3466 73100000 		.4byte	0x1073
 10163 346a 3D1A0000 		.4byte	.LLST147
 10164 346e 2E       		.uleb128 0x2e
 10165 346f 45050000 		.4byte	.LASF591
 10166 3473 01       		.byte	0x1
 10167 3474 7F02     		.2byte	0x27f
 10168 3476 E4000000 		.4byte	0xe4
 10169 347a 691A0000 		.4byte	.LLST148
 10170 347e 2E       		.uleb128 0x2e
 10171 347f 13030000 		.4byte	.LASF559
 10172 3483 01       		.byte	0x1
 10173 3484 8002     		.2byte	0x280
 10174 3486 1D110000 		.4byte	0x111d
 10175 348a 951A0000 		.4byte	.LLST149
 10176 348e 40       		.uleb128 0x40
 10177 348f 64736300 		.ascii	"dsc\000"
 10178 3493 01       		.byte	0x1
 10179 3494 8402     		.2byte	0x284
 10180 3496 A0220000 		.4byte	0x22a0
 10181 349a C11A0000 		.4byte	.LLST150
 10182 349e 44       		.uleb128 0x44
 10183 349f 3A040000 		.4byte	.LASF583
 10184 34a3 01       		.byte	0x1
 10185 34a4 8D02     		.2byte	0x28d
 10186 34a6 39170000 		.4byte	0x1739
 10187 34aa 03       		.uleb128 0x3
 10188 34ab 91       		.byte	0x91
 10189 34ac 8C7D     		.sleb128 -372
 10190 34ae 44       		.uleb128 0x44
 10191 34af 580B0000 		.4byte	.LASF391
 10192 34b3 01       		.byte	0x1
 10193 34b4 8E02     		.2byte	0x28e
 10194 34b6 E0150000 		.4byte	0x15e0
 10195 34ba 03       		.uleb128 0x3
 10196 34bb 91       		.byte	0x91
ARM GAS  C:\Users\haske\AppData\Local\Temp\ccxUXv8a.s 			page 220


 10197 34bc BC7C     		.sleb128 -452
 10198 34be 44       		.uleb128 0x44
 10199 34bf 66150000 		.4byte	.LASF310
 10200 34c3 01       		.byte	0x1
 10201 34c4 8F02     		.2byte	0x28f
 10202 34c6 69010000 		.4byte	0x169
 10203 34ca 03       		.uleb128 0x3
 10204 34cb 91       		.byte	0x91
 10205 34cc B47C     		.sleb128 -460
 10206 34ce 30       		.uleb128 0x30
 10207 34cf 01010000 		.4byte	.LASF584
 10208 34d3 01       		.byte	0x1
 10209 34d4 9202     		.2byte	0x292
 10210 34d6 2B1F0000 		.4byte	0x1f2b
 10211 34da DF1A0000 		.4byte	.LLST151
 10212 34de 4A       		.uleb128 0x4a
 10213 34df EB070000 		.4byte	.LASF585
 10214 34e3 01       		.byte	0x1
 10215 34e4 9702     		.2byte	0x297
 10216 34e6 ED030000 		.4byte	0x3ed
 10217 34ea 40       		.uleb128 0x40
 10218 34eb 6900     		.ascii	"i\000"
 10219 34ed 01       		.byte	0x1
 10220 34ee 9D02     		.2byte	0x29d
 10221 34f0 E4000000 		.4byte	0xe4
 10222 34f4 FF1A0000 		.4byte	.LLST152
 10223 34f8 37       		.uleb128 0x37
 10224 34f9 10000000 		.4byte	.LVL426
 10225 34fd 68220000 		.4byte	0x2268
 10226 3501 0D350000 		.4byte	0x350d
 10227 3505 32       		.uleb128 0x32
 10228 3506 01       		.uleb128 0x1
 10229 3507 50       		.byte	0x50
 10230 3508 03       		.uleb128 0x3
 10231 3509 7D       		.byte	0x7d
 10232 350a 00       		.sleb128 0
 10233 350b 06       		.byte	0x6
 10234 350c 00       		.byte	0
 10235 350d 37       		.uleb128 0x37
 10236 350e 2E000000 		.4byte	.LVL429
 10237 3512 A6220000 		.4byte	0x22a6
 10238 3516 37350000 		.4byte	0x3537
 10239 351a 32       		.uleb128 0x32
 10240 351b 01       		.uleb128 0x1
 10241 351c 50       		.byte	0x50
 10242 351d 03       		.uleb128 0x3
 10243 351e 7D       		.byte	0x7d
 10244 351f 00       		.sleb128 0
 10245 3520 06       		.byte	0x6
 10246 3521 32       		.uleb128 0x32
 10247 3522 01       		.uleb128 0x1
 10248 3523 51       		.byte	0x51
 10249 3524 03       		.uleb128 0x3
 10250 3525 91       		.byte	0x91
 10251 3526 8C7D     		.sleb128 -372
 10252 3528 32       		.uleb128 0x32
 10253 3529 01       		.uleb128 0x1
ARM GAS  C:\Users\haske\AppData\Local\Temp\ccxUXv8a.s 			page 221


 10254 352a 52       		.byte	0x52
 10255 352b 03       		.uleb128 0x3
 10256 352c 91       		.byte	0x91
 10257 352d BC7C     		.sleb128 -452
 10258 352f 32       		.uleb128 0x32
 10259 3530 01       		.uleb128 0x1
 10260 3531 53       		.byte	0x53
 10261 3532 03       		.uleb128 0x3
 10262 3533 91       		.byte	0x91
 10263 3534 B47C     		.sleb128 -460
 10264 3536 00       		.byte	0
 10265 3537 33       		.uleb128 0x33
 10266 3538 32000000 		.4byte	.LVL430
 10267 353c 303A0000 		.4byte	0x3a30
 10268 3540 37       		.uleb128 0x37
 10269 3541 3A000000 		.4byte	.LVL433
 10270 3545 3B3A0000 		.4byte	0x3a3b
 10271 3549 55350000 		.4byte	0x3555
 10272 354d 32       		.uleb128 0x32
 10273 354e 01       		.uleb128 0x1
 10274 354f 50       		.byte	0x50
 10275 3550 03       		.uleb128 0x3
 10276 3551 91       		.byte	0x91
 10277 3552 8C7D     		.sleb128 -372
 10278 3554 00       		.byte	0
 10279 3555 37       		.uleb128 0x37
 10280 3556 6E000000 		.4byte	.LVL437
 10281 355a 723A0000 		.4byte	0x3a72
 10282 355e 7F350000 		.4byte	0x357f
 10283 3562 32       		.uleb128 0x32
 10284 3563 01       		.uleb128 0x1
 10285 3564 51       		.byte	0x51
 10286 3565 02       		.uleb128 0x2
 10287 3566 75       		.byte	0x75
 10288 3567 00       		.sleb128 0
 10289 3568 32       		.uleb128 0x32
 10290 3569 01       		.uleb128 0x1
 10291 356a 52       		.byte	0x52
 10292 356b 07       		.uleb128 0x7
 10293 356c 74       		.byte	0x74
 10294 356d 7F       		.sleb128 -1
 10295 356e 32       		.byte	0x32
 10296 356f 24       		.byte	0x24
 10297 3570 77       		.byte	0x77
 10298 3571 00       		.sleb128 0
 10299 3572 22       		.byte	0x22
 10300 3573 32       		.uleb128 0x32
 10301 3574 01       		.uleb128 0x1
 10302 3575 53       		.byte	0x53
 10303 3576 07       		.uleb128 0x7
 10304 3577 74       		.byte	0x74
 10305 3578 00       		.sleb128 0
 10306 3579 32       		.byte	0x32
 10307 357a 24       		.byte	0x24
 10308 357b 77       		.byte	0x77
 10309 357c 00       		.sleb128 0
 10310 357d 22       		.byte	0x22
ARM GAS  C:\Users\haske\AppData\Local\Temp\ccxUXv8a.s 			page 222


 10311 357e 00       		.byte	0
 10312 357f 37       		.uleb128 0x37
 10313 3580 7A000000 		.4byte	.LVL438
 10314 3584 3B3A0000 		.4byte	0x3a3b
 10315 3588 95350000 		.4byte	0x3595
 10316 358c 32       		.uleb128 0x32
 10317 358d 01       		.uleb128 0x1
 10318 358e 50       		.byte	0x50
 10319 358f 04       		.uleb128 0x4
 10320 3590 91       		.byte	0x91
 10321 3591 AC7C     		.sleb128 -468
 10322 3593 06       		.byte	0x6
 10323 3594 00       		.byte	0
 10324 3595 37       		.uleb128 0x37
 10325 3596 84000000 		.4byte	.LVL440
 10326 359a E21E0000 		.4byte	0x1ee2
 10327 359e B0350000 		.4byte	0x35b0
 10328 35a2 32       		.uleb128 0x32
 10329 35a3 01       		.uleb128 0x1
 10330 35a4 50       		.byte	0x50
 10331 35a5 02       		.uleb128 0x2
 10332 35a6 74       		.byte	0x74
 10333 35a7 00       		.sleb128 0
 10334 35a8 32       		.uleb128 0x32
 10335 35a9 01       		.uleb128 0x1
 10336 35aa 51       		.byte	0x51
 10337 35ab 03       		.uleb128 0x3
 10338 35ac 91       		.byte	0x91
 10339 35ad 8C7D     		.sleb128 -372
 10340 35af 00       		.byte	0
 10341 35b0 31       		.uleb128 0x31
 10342 35b1 8A000000 		.4byte	.LVL441
 10343 35b5 52390000 		.4byte	0x3952
 10344 35b9 32       		.uleb128 0x32
 10345 35ba 01       		.uleb128 0x1
 10346 35bb 50       		.byte	0x50
 10347 35bc 02       		.uleb128 0x2
 10348 35bd 74       		.byte	0x74
 10349 35be 00       		.sleb128 0
 10350 35bf 00       		.byte	0
 10351 35c0 00       		.byte	0
 10352 35c1 4B       		.uleb128 0x4b
 10353 35c2 00020000 		.4byte	.LASF592
 10354 35c6 01       		.byte	0x1
 10355 35c7 A902     		.2byte	0x2a9
 10356 35c9 00000000 		.4byte	.LFB176
 10357 35cd 7E000000 		.4byte	.LFE176-.LFB176
 10358 35d1 01       		.uleb128 0x1
 10359 35d2 9C       		.byte	0x9c
 10360 35d3 32370000 		.4byte	0x3732
 10361 35d7 2E       		.uleb128 0x2e
 10362 35d8 59070000 		.4byte	.LASF539
 10363 35dc 01       		.byte	0x1
 10364 35dd A902     		.2byte	0x2a9
 10365 35df 751E0000 		.4byte	0x1e75
 10366 35e3 2A1B0000 		.4byte	.LLST153
 10367 35e7 2E       		.uleb128 0x2e
ARM GAS  C:\Users\haske\AppData\Local\Temp\ccxUXv8a.s 			page 223


 10368 35e8 9C1F0000 		.4byte	.LASF590
 10369 35ec 01       		.byte	0x1
 10370 35ed A902     		.2byte	0x2a9
 10371 35ef 73100000 		.4byte	0x1073
 10372 35f3 561B0000 		.4byte	.LLST154
 10373 35f7 2E       		.uleb128 0x2e
 10374 35f8 45050000 		.4byte	.LASF591
 10375 35fc 01       		.byte	0x1
 10376 35fd A902     		.2byte	0x2a9
 10377 35ff E4000000 		.4byte	0xe4
 10378 3603 821B0000 		.4byte	.LLST155
 10379 3607 2E       		.uleb128 0x2e
 10380 3608 13030000 		.4byte	.LASF559
 10381 360c 01       		.byte	0x1
 10382 360d AA02     		.2byte	0x2aa
 10383 360f 33100000 		.4byte	0x1033
 10384 3613 AE1B0000 		.4byte	.LLST156
 10385 3617 40       		.uleb128 0x40
 10386 3618 64736300 		.ascii	"dsc\000"
 10387 361c 01       		.byte	0x1
 10388 361d AE02     		.2byte	0x2ae
 10389 361f A0220000 		.4byte	0x22a0
 10390 3623 DA1B0000 		.4byte	.LLST157
 10391 3627 44       		.uleb128 0x44
 10392 3628 3A040000 		.4byte	.LASF583
 10393 362c 01       		.byte	0x1
 10394 362d B702     		.2byte	0x2b7
 10395 362f 39170000 		.4byte	0x1739
 10396 3633 03       		.uleb128 0x3
 10397 3634 91       		.byte	0x91
 10398 3635 8C7D     		.sleb128 -372
 10399 3637 44       		.uleb128 0x44
 10400 3638 580B0000 		.4byte	.LASF391
 10401 363c 01       		.byte	0x1
 10402 363d B802     		.2byte	0x2b8
 10403 363f E0150000 		.4byte	0x15e0
 10404 3643 03       		.uleb128 0x3
 10405 3644 91       		.byte	0x91
 10406 3645 BC7C     		.sleb128 -452
 10407 3647 44       		.uleb128 0x44
 10408 3648 66150000 		.4byte	.LASF310
 10409 364c 01       		.byte	0x1
 10410 364d B902     		.2byte	0x2b9
 10411 364f 69010000 		.4byte	0x169
 10412 3653 03       		.uleb128 0x3
 10413 3654 91       		.byte	0x91
 10414 3655 B47C     		.sleb128 -460
 10415 3657 30       		.uleb128 0x30
 10416 3658 01010000 		.4byte	.LASF584
 10417 365c 01       		.byte	0x1
 10418 365d BC02     		.2byte	0x2bc
 10419 365f 2B1F0000 		.4byte	0x1f2b
 10420 3663 F81B0000 		.4byte	.LLST158
 10421 3667 4A       		.uleb128 0x4a
 10422 3668 EB070000 		.4byte	.LASF585
 10423 366c 01       		.byte	0x1
 10424 366d C002     		.2byte	0x2c0
ARM GAS  C:\Users\haske\AppData\Local\Temp\ccxUXv8a.s 			page 224


 10425 366f ED030000 		.4byte	0x3ed
 10426 3673 37       		.uleb128 0x37
 10427 3674 10000000 		.4byte	.LVL447
 10428 3678 68220000 		.4byte	0x2268
 10429 367c 87360000 		.4byte	0x3687
 10430 3680 32       		.uleb128 0x32
 10431 3681 01       		.uleb128 0x1
 10432 3682 50       		.byte	0x50
 10433 3683 02       		.uleb128 0x2
 10434 3684 74       		.byte	0x74
 10435 3685 00       		.sleb128 0
 10436 3686 00       		.byte	0
 10437 3687 37       		.uleb128 0x37
 10438 3688 2E000000 		.4byte	.LVL450
 10439 368c A6220000 		.4byte	0x22a6
 10440 3690 B0360000 		.4byte	0x36b0
 10441 3694 32       		.uleb128 0x32
 10442 3695 01       		.uleb128 0x1
 10443 3696 50       		.byte	0x50
 10444 3697 02       		.uleb128 0x2
 10445 3698 74       		.byte	0x74
 10446 3699 00       		.sleb128 0
 10447 369a 32       		.uleb128 0x32
 10448 369b 01       		.uleb128 0x1
 10449 369c 51       		.byte	0x51
 10450 369d 03       		.uleb128 0x3
 10451 369e 91       		.byte	0x91
 10452 369f 8C7D     		.sleb128 -372
 10453 36a1 32       		.uleb128 0x32
 10454 36a2 01       		.uleb128 0x1
 10455 36a3 52       		.byte	0x52
 10456 36a4 03       		.uleb128 0x3
 10457 36a5 91       		.byte	0x91
 10458 36a6 BC7C     		.sleb128 -452
 10459 36a8 32       		.uleb128 0x32
 10460 36a9 01       		.uleb128 0x1
 10461 36aa 53       		.byte	0x53
 10462 36ab 03       		.uleb128 0x3
 10463 36ac 91       		.byte	0x91
 10464 36ad B47C     		.sleb128 -460
 10465 36af 00       		.byte	0
 10466 36b0 33       		.uleb128 0x33
 10467 36b1 32000000 		.4byte	.LVL451
 10468 36b5 303A0000 		.4byte	0x3a30
 10469 36b9 37       		.uleb128 0x37
 10470 36ba 3A000000 		.4byte	.LVL454
 10471 36be 3B3A0000 		.4byte	0x3a3b
 10472 36c2 CE360000 		.4byte	0x36ce
 10473 36c6 32       		.uleb128 0x32
 10474 36c7 01       		.uleb128 0x1
 10475 36c8 50       		.byte	0x50
 10476 36c9 03       		.uleb128 0x3
 10477 36ca 91       		.byte	0x91
 10478 36cb 8C7D     		.sleb128 -372
 10479 36cd 00       		.byte	0
 10480 36ce 37       		.uleb128 0x37
 10481 36cf 66000000 		.4byte	.LVL455
ARM GAS  C:\Users\haske\AppData\Local\Temp\ccxUXv8a.s 			page 225


 10482 36d3 7D3A0000 		.4byte	0x3a7d
 10483 36d7 F0360000 		.4byte	0x36f0
 10484 36db 32       		.uleb128 0x32
 10485 36dc 01       		.uleb128 0x1
 10486 36dd 51       		.byte	0x51
 10487 36de 02       		.uleb128 0x2
 10488 36df 76       		.byte	0x76
 10489 36e0 00       		.sleb128 0
 10490 36e1 32       		.uleb128 0x32
 10491 36e2 01       		.uleb128 0x1
 10492 36e3 52       		.byte	0x52
 10493 36e4 02       		.uleb128 0x2
 10494 36e5 77       		.byte	0x77
 10495 36e6 00       		.sleb128 0
 10496 36e7 32       		.uleb128 0x32
 10497 36e8 01       		.uleb128 0x1
 10498 36e9 53       		.byte	0x53
 10499 36ea 04       		.uleb128 0x4
 10500 36eb 7D       		.byte	0x7d
 10501 36ec 00       		.sleb128 0
 10502 36ed 94       		.byte	0x94
 10503 36ee 02       		.byte	0x2
 10504 36ef 00       		.byte	0
 10505 36f0 37       		.uleb128 0x37
 10506 36f1 6C000000 		.4byte	.LVL456
 10507 36f5 3B3A0000 		.4byte	0x3a3b
 10508 36f9 06370000 		.4byte	0x3706
 10509 36fd 32       		.uleb128 0x32
 10510 36fe 01       		.uleb128 0x1
 10511 36ff 50       		.byte	0x50
 10512 3700 04       		.uleb128 0x4
 10513 3701 91       		.byte	0x91
 10514 3702 AC7C     		.sleb128 -468
 10515 3704 06       		.byte	0x6
 10516 3705 00       		.byte	0
 10517 3706 37       		.uleb128 0x37
 10518 3707 74000000 		.4byte	.LVL457
 10519 370b E21E0000 		.4byte	0x1ee2
 10520 370f 21370000 		.4byte	0x3721
 10521 3713 32       		.uleb128 0x32
 10522 3714 01       		.uleb128 0x1
 10523 3715 50       		.byte	0x50
 10524 3716 02       		.uleb128 0x2
 10525 3717 74       		.byte	0x74
 10526 3718 00       		.sleb128 0
 10527 3719 32       		.uleb128 0x32
 10528 371a 01       		.uleb128 0x1
 10529 371b 51       		.byte	0x51
 10530 371c 03       		.uleb128 0x3
 10531 371d 91       		.byte	0x91
 10532 371e 8C7D     		.sleb128 -372
 10533 3720 00       		.byte	0
 10534 3721 31       		.uleb128 0x31
 10535 3722 7A000000 		.4byte	.LVL458
 10536 3726 52390000 		.4byte	0x3952
 10537 372a 32       		.uleb128 0x32
 10538 372b 01       		.uleb128 0x1
ARM GAS  C:\Users\haske\AppData\Local\Temp\ccxUXv8a.s 			page 226


 10539 372c 50       		.byte	0x50
 10540 372d 02       		.uleb128 0x2
 10541 372e 74       		.byte	0x74
 10542 372f 00       		.sleb128 0
 10543 3730 00       		.byte	0
 10544 3731 00       		.byte	0
 10545 3732 4B       		.uleb128 0x4b
 10546 3733 10000000 		.4byte	.LASF593
 10547 3737 01       		.byte	0x1
 10548 3738 CF02     		.2byte	0x2cf
 10549 373a 00000000 		.4byte	.LFB177
 10550 373e 70000000 		.4byte	.LFE177-.LFB177
 10551 3742 01       		.uleb128 0x1
 10552 3743 9C       		.byte	0x9c
 10553 3744 DE380000 		.4byte	0x38de
 10554 3748 2E       		.uleb128 0x2e
 10555 3749 59070000 		.4byte	.LASF539
 10556 374d 01       		.byte	0x1
 10557 374e CF02     		.2byte	0x2cf
 10558 3750 751E0000 		.4byte	0x1e75
 10559 3754 181C0000 		.4byte	.LLST159
 10560 3758 2F       		.uleb128 0x2f
 10561 3759 7800     		.ascii	"x\000"
 10562 375b 01       		.byte	0x1
 10563 375c CF02     		.2byte	0x2cf
 10564 375e 01010000 		.4byte	0x101
 10565 3762 441C0000 		.4byte	.LLST160
 10566 3766 2F       		.uleb128 0x2f
 10567 3767 7900     		.ascii	"y\000"
 10568 3769 01       		.byte	0x1
 10569 376a CF02     		.2byte	0x2cf
 10570 376c 01010000 		.4byte	0x101
 10571 3770 651C0000 		.4byte	.LLST161
 10572 3774 2F       		.uleb128 0x2f
 10573 3775 7200     		.ascii	"r\000"
 10574 3777 01       		.byte	0x1
 10575 3778 CF02     		.2byte	0x2cf
 10576 377a 01010000 		.4byte	0x101
 10577 377e 861C0000 		.4byte	.LLST162
 10578 3782 4D       		.uleb128 0x4d
 10579 3783 90100000 		.4byte	.LASF301
 10580 3787 01       		.byte	0x1
 10581 3788 CF02     		.2byte	0x2cf
 10582 378a D9000000 		.4byte	0xd9
 10583 378e 02       		.uleb128 0x2
 10584 378f 91       		.byte	0x91
 10585 3790 00       		.sleb128 0
 10586 3791 4D       		.uleb128 0x4d
 10587 3792 A7070000 		.4byte	.LASF302
 10588 3796 01       		.byte	0x1
 10589 3797 D002     		.2byte	0x2d0
 10590 3799 D9000000 		.4byte	0xd9
 10591 379d 02       		.uleb128 0x2
 10592 379e 91       		.byte	0x91
 10593 379f 04       		.sleb128 4
 10594 37a0 4D       		.uleb128 0x4d
 10595 37a1 13030000 		.4byte	.LASF559
ARM GAS  C:\Users\haske\AppData\Local\Temp\ccxUXv8a.s 			page 227


 10596 37a5 01       		.byte	0x1
 10597 37a6 D002     		.2byte	0x2d0
 10598 37a8 68100000 		.4byte	0x1068
 10599 37ac 02       		.uleb128 0x2
 10600 37ad 91       		.byte	0x91
 10601 37ae 08       		.sleb128 8
 10602 37af 40       		.uleb128 0x40
 10603 37b0 64736300 		.ascii	"dsc\000"
 10604 37b4 01       		.byte	0x1
 10605 37b5 D502     		.2byte	0x2d5
 10606 37b7 A0220000 		.4byte	0x22a0
 10607 37bb A71C0000 		.4byte	.LLST163
 10608 37bf 44       		.uleb128 0x44
 10609 37c0 3A040000 		.4byte	.LASF583
 10610 37c4 01       		.byte	0x1
 10611 37c5 DE02     		.2byte	0x2de
 10612 37c7 39170000 		.4byte	0x1739
 10613 37cb 03       		.uleb128 0x3
 10614 37cc 91       		.byte	0x91
 10615 37cd 8C7D     		.sleb128 -372
 10616 37cf 44       		.uleb128 0x44
 10617 37d0 580B0000 		.4byte	.LASF391
 10618 37d4 01       		.byte	0x1
 10619 37d5 DF02     		.2byte	0x2df
 10620 37d7 E0150000 		.4byte	0x15e0
 10621 37db 03       		.uleb128 0x3
 10622 37dc 91       		.byte	0x91
 10623 37dd BC7C     		.sleb128 -452
 10624 37df 44       		.uleb128 0x44
 10625 37e0 66150000 		.4byte	.LASF310
 10626 37e4 01       		.byte	0x1
 10627 37e5 E002     		.2byte	0x2e0
 10628 37e7 69010000 		.4byte	0x169
 10629 37eb 03       		.uleb128 0x3
 10630 37ec 91       		.byte	0x91
 10631 37ed B47C     		.sleb128 -460
 10632 37ef 30       		.uleb128 0x30
 10633 37f0 01010000 		.4byte	.LASF584
 10634 37f4 01       		.byte	0x1
 10635 37f5 E302     		.2byte	0x2e3
 10636 37f7 2B1F0000 		.4byte	0x1f2b
 10637 37fb BA1C0000 		.4byte	.LLST164
 10638 37ff 49       		.uleb128 0x49
 10639 3800 7000     		.ascii	"p\000"
 10640 3802 01       		.byte	0x1
 10641 3803 E602     		.2byte	0x2e6
 10642 3805 29010000 		.4byte	0x129
 10643 3809 03       		.uleb128 0x3
 10644 380a 91       		.byte	0x91
 10645 380b B07C     		.sleb128 -464
 10646 380d 37       		.uleb128 0x37
 10647 380e 10000000 		.4byte	.LVL465
 10648 3812 68220000 		.4byte	0x2268
 10649 3816 21380000 		.4byte	0x3821
 10650 381a 32       		.uleb128 0x32
 10651 381b 01       		.uleb128 0x1
 10652 381c 50       		.byte	0x50
ARM GAS  C:\Users\haske\AppData\Local\Temp\ccxUXv8a.s 			page 228


 10653 381d 02       		.uleb128 0x2
 10654 381e 74       		.byte	0x74
 10655 381f 00       		.sleb128 0
 10656 3820 00       		.byte	0
 10657 3821 37       		.uleb128 0x37
 10658 3822 2C000000 		.4byte	.LVL467
 10659 3826 A6220000 		.4byte	0x22a6
 10660 382a 4A380000 		.4byte	0x384a
 10661 382e 32       		.uleb128 0x32
 10662 382f 01       		.uleb128 0x1
 10663 3830 50       		.byte	0x50
 10664 3831 02       		.uleb128 0x2
 10665 3832 74       		.byte	0x74
 10666 3833 00       		.sleb128 0
 10667 3834 32       		.uleb128 0x32
 10668 3835 01       		.uleb128 0x1
 10669 3836 51       		.byte	0x51
 10670 3837 03       		.uleb128 0x3
 10671 3838 91       		.byte	0x91
 10672 3839 8C7D     		.sleb128 -372
 10673 383b 32       		.uleb128 0x32
 10674 383c 01       		.uleb128 0x1
 10675 383d 52       		.byte	0x52
 10676 383e 03       		.uleb128 0x3
 10677 383f 91       		.byte	0x91
 10678 3840 BC7C     		.sleb128 -452
 10679 3842 32       		.uleb128 0x32
 10680 3843 01       		.uleb128 0x1
 10681 3844 53       		.byte	0x53
 10682 3845 03       		.uleb128 0x3
 10683 3846 91       		.byte	0x91
 10684 3847 B47C     		.sleb128 -460
 10685 3849 00       		.byte	0
 10686 384a 33       		.uleb128 0x33
 10687 384b 30000000 		.4byte	.LVL468
 10688 384f 303A0000 		.4byte	0x3a30
 10689 3853 37       		.uleb128 0x37
 10690 3854 3A000000 		.4byte	.LVL471
 10691 3858 3B3A0000 		.4byte	0x3a3b
 10692 385c 68380000 		.4byte	0x3868
 10693 3860 32       		.uleb128 0x32
 10694 3861 01       		.uleb128 0x1
 10695 3862 50       		.byte	0x50
 10696 3863 03       		.uleb128 0x3
 10697 3864 91       		.byte	0x91
 10698 3865 8C7D     		.sleb128 -372
 10699 3867 00       		.byte	0
 10700 3868 37       		.uleb128 0x37
 10701 3869 58000000 		.4byte	.LVL472
 10702 386d 883A0000 		.4byte	0x3a88
 10703 3871 9C380000 		.4byte	0x389c
 10704 3875 32       		.uleb128 0x32
 10705 3876 01       		.uleb128 0x1
 10706 3877 51       		.byte	0x51
 10707 3878 03       		.uleb128 0x3
 10708 3879 91       		.byte	0x91
 10709 387a 08       		.sleb128 8
ARM GAS  C:\Users\haske\AppData\Local\Temp\ccxUXv8a.s 			page 229


 10710 387b 06       		.byte	0x6
 10711 387c 32       		.uleb128 0x32
 10712 387d 01       		.uleb128 0x1
 10713 387e 52       		.byte	0x52
 10714 387f 03       		.uleb128 0x3
 10715 3880 91       		.byte	0x91
 10716 3881 B07C     		.sleb128 -464
 10717 3883 32       		.uleb128 0x32
 10718 3884 01       		.uleb128 0x1
 10719 3885 53       		.byte	0x53
 10720 3886 02       		.uleb128 0x2
 10721 3887 75       		.byte	0x75
 10722 3888 00       		.sleb128 0
 10723 3889 32       		.uleb128 0x32
 10724 388a 02       		.uleb128 0x2
 10725 388b 7D       		.byte	0x7d
 10726 388c 00       		.sleb128 0
 10727 388d 04       		.uleb128 0x4
 10728 388e 91       		.byte	0x91
 10729 388f 00       		.sleb128 0
 10730 3890 94       		.byte	0x94
 10731 3891 02       		.byte	0x2
 10732 3892 32       		.uleb128 0x32
 10733 3893 02       		.uleb128 0x2
 10734 3894 7D       		.byte	0x7d
 10735 3895 04       		.sleb128 4
 10736 3896 04       		.uleb128 0x4
 10737 3897 91       		.byte	0x91
 10738 3898 04       		.sleb128 4
 10739 3899 94       		.byte	0x94
 10740 389a 02       		.byte	0x2
 10741 389b 00       		.byte	0
 10742 389c 37       		.uleb128 0x37
 10743 389d 5E000000 		.4byte	.LVL473
 10744 38a1 3B3A0000 		.4byte	0x3a3b
 10745 38a5 B2380000 		.4byte	0x38b2
 10746 38a9 32       		.uleb128 0x32
 10747 38aa 01       		.uleb128 0x1
 10748 38ab 50       		.byte	0x50
 10749 38ac 04       		.uleb128 0x4
 10750 38ad 91       		.byte	0x91
 10751 38ae AC7C     		.sleb128 -468
 10752 38b0 06       		.byte	0x6
 10753 38b1 00       		.byte	0
 10754 38b2 37       		.uleb128 0x37
 10755 38b3 66000000 		.4byte	.LVL474
 10756 38b7 E21E0000 		.4byte	0x1ee2
 10757 38bb CD380000 		.4byte	0x38cd
 10758 38bf 32       		.uleb128 0x32
 10759 38c0 01       		.uleb128 0x1
 10760 38c1 50       		.byte	0x50
 10761 38c2 02       		.uleb128 0x2
 10762 38c3 74       		.byte	0x74
 10763 38c4 00       		.sleb128 0
 10764 38c5 32       		.uleb128 0x32
 10765 38c6 01       		.uleb128 0x1
 10766 38c7 51       		.byte	0x51
ARM GAS  C:\Users\haske\AppData\Local\Temp\ccxUXv8a.s 			page 230


 10767 38c8 03       		.uleb128 0x3
 10768 38c9 91       		.byte	0x91
 10769 38ca 8C7D     		.sleb128 -372
 10770 38cc 00       		.byte	0
 10771 38cd 31       		.uleb128 0x31
 10772 38ce 6C000000 		.4byte	.LVL475
 10773 38d2 52390000 		.4byte	0x3952
 10774 38d6 32       		.uleb128 0x32
 10775 38d7 01       		.uleb128 0x1
 10776 38d8 50       		.byte	0x50
 10777 38d9 02       		.uleb128 0x2
 10778 38da 74       		.byte	0x74
 10779 38db 00       		.sleb128 0
 10780 38dc 00       		.byte	0
 10781 38dd 00       		.byte	0
 10782 38de 4F       		.uleb128 0x4f
 10783 38df 561F0000 		.4byte	.LASF594
 10784 38e3 08       		.byte	0x8
 10785 38e4 94       		.byte	0x94
 10786 38e5 880C0000 		.4byte	0xc88
 10787 38e9 4F       		.uleb128 0x4f
 10788 38ea 62130000 		.4byte	.LASF595
 10789 38ee 1E       		.byte	0x1e
 10790 38ef 37       		.byte	0x37
 10791 38f0 631C0000 		.4byte	0x1c63
 10792 38f4 50       		.uleb128 0x50
 10793 38f5 BF120000 		.4byte	.LASF596
 10794 38f9 01       		.byte	0x1
 10795 38fa 27       		.byte	0x27
 10796 38fb 631C0000 		.4byte	0x1c63
 10797 38ff 05       		.uleb128 0x5
 10798 3900 03       		.byte	0x3
 10799 3901 00000000 		.4byte	lv_canvas_class
 10800 3905 51       		.uleb128 0x51
 10801 3906 AD1D0000 		.4byte	.LASF597
 10802 390a AD1D0000 		.4byte	.LASF597
 10803 390e 20       		.byte	0x20
 10804 390f 44       		.byte	0x44
 10805 3910 51       		.uleb128 0x51
 10806 3911 06170000 		.4byte	.LASF598
 10807 3915 06170000 		.4byte	.LASF598
 10808 3919 1E       		.byte	0x1e
 10809 391a 60       		.byte	0x60
 10810 391b 51       		.uleb128 0x51
 10811 391c 84040000 		.4byte	.LASF599
 10812 3920 84040000 		.4byte	.LASF599
 10813 3924 21       		.byte	0x21
 10814 3925 33       		.byte	0x33
 10815 3926 51       		.uleb128 0x51
 10816 3927 25010000 		.4byte	.LASF600
 10817 392b 25010000 		.4byte	.LASF600
 10818 392f 22       		.byte	0x22
 10819 3930 50       		.byte	0x50
 10820 3931 51       		.uleb128 0x51
 10821 3932 96150000 		.4byte	.LASF601
 10822 3936 96150000 		.4byte	.LASF601
 10823 393a 1C       		.byte	0x1c
ARM GAS  C:\Users\haske\AppData\Local\Temp\ccxUXv8a.s 			page 231


 10824 393b 4B       		.byte	0x4b
 10825 393c 51       		.uleb128 0x51
 10826 393d 2C0C0000 		.4byte	.LASF602
 10827 3941 2C0C0000 		.4byte	.LASF602
 10828 3945 1C       		.byte	0x1c
 10829 3946 4D       		.byte	0x4d
 10830 3947 51       		.uleb128 0x51
 10831 3948 B8190000 		.4byte	.LASF603
 10832 394c B8190000 		.4byte	.LASF603
 10833 3950 0D       		.byte	0xd
 10834 3951 BE       		.byte	0xbe
 10835 3952 52       		.uleb128 0x52
 10836 3953 70240000 		.4byte	.LASF604
 10837 3957 70240000 		.4byte	.LASF604
 10838 395b 23       		.byte	0x23
 10839 395c 7D01     		.2byte	0x17d
 10840 395e 51       		.uleb128 0x51
 10841 395f 0A0B0000 		.4byte	.LASF605
 10842 3963 0A0B0000 		.4byte	.LASF605
 10843 3967 0D       		.byte	0xd
 10844 3968 C8       		.byte	0xc8
 10845 3969 51       		.uleb128 0x51
 10846 396a CD130000 		.4byte	.LASF606
 10847 396e CD130000 		.4byte	.LASF606
 10848 3972 0D       		.byte	0xd
 10849 3973 D4       		.byte	0xd4
 10850 3974 51       		.uleb128 0x51
 10851 3975 AA1B0000 		.4byte	.LASF607
 10852 3979 AA1B0000 		.4byte	.LASF607
 10853 397d 1B       		.byte	0x1b
 10854 397e 83       		.byte	0x83
 10855 397f 51       		.uleb128 0x51
 10856 3980 B60E0000 		.4byte	.LASF608
 10857 3984 B60E0000 		.4byte	.LASF608
 10858 3988 0D       		.byte	0xd
 10859 3989 AA       		.byte	0xaa
 10860 398a 51       		.uleb128 0x51
 10861 398b F4090000 		.4byte	.LASF609
 10862 398f F4090000 		.4byte	.LASF609
 10863 3993 22       		.byte	0x22
 10864 3994 DE       		.byte	0xde
 10865 3995 51       		.uleb128 0x51
 10866 3996 990A0000 		.4byte	.LASF610
 10867 399a 990A0000 		.4byte	.LASF610
 10868 399e 18       		.byte	0x18
 10869 399f CE       		.byte	0xce
 10870 39a0 51       		.uleb128 0x51
 10871 39a1 CE1D0000 		.4byte	.LASF611
 10872 39a5 CE1D0000 		.4byte	.LASF611
 10873 39a9 22       		.byte	0x22
 10874 39aa 4A       		.byte	0x4a
 10875 39ab 51       		.uleb128 0x51
 10876 39ac 92160000 		.4byte	.LASF612
 10877 39b0 92160000 		.4byte	.LASF612
 10878 39b4 21       		.byte	0x21
 10879 39b5 32       		.byte	0x32
 10880 39b6 52       		.uleb128 0x52
ARM GAS  C:\Users\haske\AppData\Local\Temp\ccxUXv8a.s 			page 232


 10881 39b7 23000000 		.4byte	.LASF613
 10882 39bb 23000000 		.4byte	.LASF613
 10883 39bf 18       		.byte	0x18
 10884 39c0 6901     		.2byte	0x169
 10885 39c2 51       		.uleb128 0x51
 10886 39c3 50150000 		.4byte	.LASF614
 10887 39c7 50150000 		.4byte	.LASF614
 10888 39cb 11       		.byte	0x11
 10889 39cc 54       		.byte	0x54
 10890 39cd 51       		.uleb128 0x51
 10891 39ce 4A020000 		.4byte	.LASF615
 10892 39d2 4A020000 		.4byte	.LASF615
 10893 39d6 22       		.byte	0x22
 10894 39d7 BA       		.byte	0xba
 10895 39d8 51       		.uleb128 0x51
 10896 39d9 1D0A0000 		.4byte	.LASF616
 10897 39dd 1D0A0000 		.4byte	.LASF616
 10898 39e1 11       		.byte	0x11
 10899 39e2 36       		.byte	0x36
 10900 39e3 51       		.uleb128 0x51
 10901 39e4 9A020000 		.4byte	.LASF617
 10902 39e8 9A020000 		.4byte	.LASF617
 10903 39ec 21       		.byte	0x21
 10904 39ed 4D       		.byte	0x4d
 10905 39ee 51       		.uleb128 0x51
 10906 39ef 401D0000 		.4byte	.LASF618
 10907 39f3 401D0000 		.4byte	.LASF618
 10908 39f7 0D       		.byte	0xd
 10909 39f8 B4       		.byte	0xb4
 10910 39f9 51       		.uleb128 0x51
 10911 39fa 93070000 		.4byte	.LASF619
 10912 39fe 93070000 		.4byte	.LASF619
 10913 3a02 11       		.byte	0x11
 10914 3a03 62       		.byte	0x62
 10915 3a04 51       		.uleb128 0x51
 10916 3a05 B80D0000 		.4byte	.LASF620
 10917 3a09 B80D0000 		.4byte	.LASF620
 10918 3a0d 0D       		.byte	0xd
 10919 3a0e E3       		.byte	0xe3
 10920 3a0f 51       		.uleb128 0x51
 10921 3a10 1F110000 		.4byte	.LASF621
 10922 3a14 1F110000 		.4byte	.LASF621
 10923 3a18 22       		.byte	0x22
 10924 3a19 6D       		.byte	0x6d
 10925 3a1a 51       		.uleb128 0x51
 10926 3a1b 47120000 		.4byte	.LASF622
 10927 3a1f 47120000 		.4byte	.LASF622
 10928 3a23 22       		.byte	0x22
 10929 3a24 73       		.byte	0x73
 10930 3a25 51       		.uleb128 0x51
 10931 3a26 92220000 		.4byte	.LASF623
 10932 3a2a 92220000 		.4byte	.LASF623
 10933 3a2e 22       		.byte	0x22
 10934 3a2f D7       		.byte	0xd7
 10935 3a30 51       		.uleb128 0x51
 10936 3a31 DC210000 		.4byte	.LASF624
 10937 3a35 DC210000 		.4byte	.LASF624
ARM GAS  C:\Users\haske\AppData\Local\Temp\ccxUXv8a.s 			page 233


 10938 3a39 24       		.byte	0x24
 10939 3a3a 4E       		.byte	0x4e
 10940 3a3b 51       		.uleb128 0x51
 10941 3a3c C3010000 		.4byte	.LASF625
 10942 3a40 C3010000 		.4byte	.LASF625
 10943 3a44 24       		.byte	0x24
 10944 3a45 56       		.byte	0x56
 10945 3a46 51       		.uleb128 0x51
 10946 3a47 571A0000 		.4byte	.LASF626
 10947 3a4b 571A0000 		.4byte	.LASF626
 10948 3a4f 0F       		.byte	0xf
 10949 3a50 56       		.byte	0x56
 10950 3a51 51       		.uleb128 0x51
 10951 3a52 D00D0000 		.4byte	.LASF627
 10952 3a56 D00D0000 		.4byte	.LASF627
 10953 3a5a 10       		.byte	0x10
 10954 3a5b 52       		.byte	0x52
 10955 3a5c 51       		.uleb128 0x51
 10956 3a5d F4130000 		.4byte	.LASF628
 10957 3a61 F4130000 		.4byte	.LASF628
 10958 3a65 25       		.byte	0x25
 10959 3a66 99       		.byte	0x99
 10960 3a67 51       		.uleb128 0x51
 10961 3a68 1B120000 		.4byte	.LASF629
 10962 3a6c 1B120000 		.4byte	.LASF629
 10963 3a70 11       		.byte	0x11
 10964 3a71 3E       		.byte	0x3e
 10965 3a72 51       		.uleb128 0x51
 10966 3a73 EC150000 		.4byte	.LASF630
 10967 3a77 EC150000 		.4byte	.LASF630
 10968 3a7b 12       		.byte	0x12
 10969 3a7c 37       		.byte	0x37
 10970 3a7d 51       		.uleb128 0x51
 10971 3a7e 94170000 		.4byte	.LASF631
 10972 3a82 94170000 		.4byte	.LASF631
 10973 3a86 26       		.byte	0x26
 10974 3a87 1E       		.byte	0x1e
 10975 3a88 51       		.uleb128 0x51
 10976 3a89 90000000 		.4byte	.LASF632
 10977 3a8d 90000000 		.4byte	.LASF632
 10978 3a91 13       		.byte	0x13
 10979 3a92 3A       		.byte	0x3a
 10980 3a93 00       		.byte	0
 10981              		.section	.debug_abbrev,"",%progbits
 10982              	.Ldebug_abbrev0:
 10983 0000 01       		.uleb128 0x1
 10984 0001 11       		.uleb128 0x11
 10985 0002 01       		.byte	0x1
 10986 0003 25       		.uleb128 0x25
 10987 0004 0E       		.uleb128 0xe
 10988 0005 13       		.uleb128 0x13
 10989 0006 0B       		.uleb128 0xb
 10990 0007 03       		.uleb128 0x3
 10991 0008 0E       		.uleb128 0xe
 10992 0009 1B       		.uleb128 0x1b
 10993 000a 0E       		.uleb128 0xe
 10994 000b 55       		.uleb128 0x55
ARM GAS  C:\Users\haske\AppData\Local\Temp\ccxUXv8a.s 			page 234


 10995 000c 17       		.uleb128 0x17
 10996 000d 11       		.uleb128 0x11
 10997 000e 01       		.uleb128 0x1
 10998 000f 10       		.uleb128 0x10
 10999 0010 17       		.uleb128 0x17
 11000 0011 00       		.byte	0
 11001 0012 00       		.byte	0
 11002 0013 02       		.uleb128 0x2
 11003 0014 16       		.uleb128 0x16
 11004 0015 00       		.byte	0
 11005 0016 03       		.uleb128 0x3
 11006 0017 0E       		.uleb128 0xe
 11007 0018 3A       		.uleb128 0x3a
 11008 0019 0B       		.uleb128 0xb
 11009 001a 3B       		.uleb128 0x3b
 11010 001b 0B       		.uleb128 0xb
 11011 001c 49       		.uleb128 0x49
 11012 001d 13       		.uleb128 0x13
 11013 001e 00       		.byte	0
 11014 001f 00       		.byte	0
 11015 0020 03       		.uleb128 0x3
 11016 0021 24       		.uleb128 0x24
 11017 0022 00       		.byte	0
 11018 0023 0B       		.uleb128 0xb
 11019 0024 0B       		.uleb128 0xb
 11020 0025 3E       		.uleb128 0x3e
 11021 0026 0B       		.uleb128 0xb
 11022 0027 03       		.uleb128 0x3
 11023 0028 0E       		.uleb128 0xe
 11024 0029 00       		.byte	0
 11025 002a 00       		.byte	0
 11026 002b 04       		.uleb128 0x4
 11027 002c 24       		.uleb128 0x24
 11028 002d 00       		.byte	0
 11029 002e 0B       		.uleb128 0xb
 11030 002f 0B       		.uleb128 0xb
 11031 0030 3E       		.uleb128 0x3e
 11032 0031 0B       		.uleb128 0xb
 11033 0032 03       		.uleb128 0x3
 11034 0033 08       		.uleb128 0x8
 11035 0034 00       		.byte	0
 11036 0035 00       		.byte	0
 11037 0036 05       		.uleb128 0x5
 11038 0037 13       		.uleb128 0x13
 11039 0038 01       		.byte	0x1
 11040 0039 0B       		.uleb128 0xb
 11041 003a 0B       		.uleb128 0xb
 11042 003b 3A       		.uleb128 0x3a
 11043 003c 0B       		.uleb128 0xb
 11044 003d 3B       		.uleb128 0x3b
 11045 003e 0B       		.uleb128 0xb
 11046 003f 01       		.uleb128 0x1
 11047 0040 13       		.uleb128 0x13
 11048 0041 00       		.byte	0
 11049 0042 00       		.byte	0
 11050 0043 06       		.uleb128 0x6
 11051 0044 0D       		.uleb128 0xd
ARM GAS  C:\Users\haske\AppData\Local\Temp\ccxUXv8a.s 			page 235


 11052 0045 00       		.byte	0
 11053 0046 03       		.uleb128 0x3
 11054 0047 08       		.uleb128 0x8
 11055 0048 3A       		.uleb128 0x3a
 11056 0049 0B       		.uleb128 0xb
 11057 004a 3B       		.uleb128 0x3b
 11058 004b 0B       		.uleb128 0xb
 11059 004c 49       		.uleb128 0x49
 11060 004d 13       		.uleb128 0x13
 11061 004e 38       		.uleb128 0x38
 11062 004f 0B       		.uleb128 0xb
 11063 0050 00       		.byte	0
 11064 0051 00       		.byte	0
 11065 0052 07       		.uleb128 0x7
 11066 0053 0D       		.uleb128 0xd
 11067 0054 00       		.byte	0
 11068 0055 03       		.uleb128 0x3
 11069 0056 0E       		.uleb128 0xe
 11070 0057 3A       		.uleb128 0x3a
 11071 0058 0B       		.uleb128 0xb
 11072 0059 3B       		.uleb128 0x3b
 11073 005a 0B       		.uleb128 0xb
 11074 005b 49       		.uleb128 0x49
 11075 005c 13       		.uleb128 0x13
 11076 005d 38       		.uleb128 0x38
 11077 005e 0B       		.uleb128 0xb
 11078 005f 00       		.byte	0
 11079 0060 00       		.byte	0
 11080 0061 08       		.uleb128 0x8
 11081 0062 0D       		.uleb128 0xd
 11082 0063 00       		.byte	0
 11083 0064 03       		.uleb128 0x3
 11084 0065 08       		.uleb128 0x8
 11085 0066 3A       		.uleb128 0x3a
 11086 0067 0B       		.uleb128 0xb
 11087 0068 3B       		.uleb128 0x3b
 11088 0069 0B       		.uleb128 0xb
 11089 006a 49       		.uleb128 0x49
 11090 006b 13       		.uleb128 0x13
 11091 006c 0B       		.uleb128 0xb
 11092 006d 0B       		.uleb128 0xb
 11093 006e 0D       		.uleb128 0xd
 11094 006f 0B       		.uleb128 0xb
 11095 0070 0C       		.uleb128 0xc
 11096 0071 0B       		.uleb128 0xb
 11097 0072 38       		.uleb128 0x38
 11098 0073 0B       		.uleb128 0xb
 11099 0074 00       		.byte	0
 11100 0075 00       		.byte	0
 11101 0076 09       		.uleb128 0x9
 11102 0077 0D       		.uleb128 0xd
 11103 0078 00       		.byte	0
 11104 0079 03       		.uleb128 0x3
 11105 007a 0E       		.uleb128 0xe
 11106 007b 3A       		.uleb128 0x3a
 11107 007c 0B       		.uleb128 0xb
 11108 007d 3B       		.uleb128 0x3b
ARM GAS  C:\Users\haske\AppData\Local\Temp\ccxUXv8a.s 			page 236


 11109 007e 0B       		.uleb128 0xb
 11110 007f 49       		.uleb128 0x49
 11111 0080 13       		.uleb128 0x13
 11112 0081 0B       		.uleb128 0xb
 11113 0082 0B       		.uleb128 0xb
 11114 0083 0D       		.uleb128 0xd
 11115 0084 0B       		.uleb128 0xb
 11116 0085 0C       		.uleb128 0xc
 11117 0086 0B       		.uleb128 0xb
 11118 0087 38       		.uleb128 0x38
 11119 0088 0B       		.uleb128 0xb
 11120 0089 00       		.byte	0
 11121 008a 00       		.byte	0
 11122 008b 0A       		.uleb128 0xa
 11123 008c 13       		.uleb128 0x13
 11124 008d 01       		.byte	0x1
 11125 008e 03       		.uleb128 0x3
 11126 008f 0E       		.uleb128 0xe
 11127 0090 0B       		.uleb128 0xb
 11128 0091 0B       		.uleb128 0xb
 11129 0092 3A       		.uleb128 0x3a
 11130 0093 0B       		.uleb128 0xb
 11131 0094 3B       		.uleb128 0x3b
 11132 0095 0B       		.uleb128 0xb
 11133 0096 01       		.uleb128 0x1
 11134 0097 13       		.uleb128 0x13
 11135 0098 00       		.byte	0
 11136 0099 00       		.byte	0
 11137 009a 0B       		.uleb128 0xb
 11138 009b 0F       		.uleb128 0xf
 11139 009c 00       		.byte	0
 11140 009d 0B       		.uleb128 0xb
 11141 009e 0B       		.uleb128 0xb
 11142 009f 49       		.uleb128 0x49
 11143 00a0 13       		.uleb128 0x13
 11144 00a1 00       		.byte	0
 11145 00a2 00       		.byte	0
 11146 00a3 0C       		.uleb128 0xc
 11147 00a4 26       		.uleb128 0x26
 11148 00a5 00       		.byte	0
 11149 00a6 49       		.uleb128 0x49
 11150 00a7 13       		.uleb128 0x13
 11151 00a8 00       		.byte	0
 11152 00a9 00       		.byte	0
 11153 00aa 0D       		.uleb128 0xd
 11154 00ab 15       		.uleb128 0x15
 11155 00ac 01       		.byte	0x1
 11156 00ad 27       		.uleb128 0x27
 11157 00ae 19       		.uleb128 0x19
 11158 00af 49       		.uleb128 0x49
 11159 00b0 13       		.uleb128 0x13
 11160 00b1 01       		.uleb128 0x1
 11161 00b2 13       		.uleb128 0x13
 11162 00b3 00       		.byte	0
 11163 00b4 00       		.byte	0
 11164 00b5 0E       		.uleb128 0xe
 11165 00b6 05       		.uleb128 0x5
ARM GAS  C:\Users\haske\AppData\Local\Temp\ccxUXv8a.s 			page 237


 11166 00b7 00       		.byte	0
 11167 00b8 49       		.uleb128 0x49
 11168 00b9 13       		.uleb128 0x13
 11169 00ba 00       		.byte	0
 11170 00bb 00       		.byte	0
 11171 00bc 0F       		.uleb128 0xf
 11172 00bd 26       		.uleb128 0x26
 11173 00be 00       		.byte	0
 11174 00bf 00       		.byte	0
 11175 00c0 00       		.byte	0
 11176 00c1 10       		.uleb128 0x10
 11177 00c2 0F       		.uleb128 0xf
 11178 00c3 00       		.byte	0
 11179 00c4 0B       		.uleb128 0xb
 11180 00c5 0B       		.uleb128 0xb
 11181 00c6 00       		.byte	0
 11182 00c7 00       		.byte	0
 11183 00c8 11       		.uleb128 0x11
 11184 00c9 04       		.uleb128 0x4
 11185 00ca 01       		.byte	0x1
 11186 00cb 0B       		.uleb128 0xb
 11187 00cc 0B       		.uleb128 0xb
 11188 00cd 49       		.uleb128 0x49
 11189 00ce 13       		.uleb128 0x13
 11190 00cf 3A       		.uleb128 0x3a
 11191 00d0 0B       		.uleb128 0xb
 11192 00d1 3B       		.uleb128 0x3b
 11193 00d2 0B       		.uleb128 0xb
 11194 00d3 01       		.uleb128 0x1
 11195 00d4 13       		.uleb128 0x13
 11196 00d5 00       		.byte	0
 11197 00d6 00       		.byte	0
 11198 00d7 12       		.uleb128 0x12
 11199 00d8 28       		.uleb128 0x28
 11200 00d9 00       		.byte	0
 11201 00da 03       		.uleb128 0x3
 11202 00db 0E       		.uleb128 0xe
 11203 00dc 1C       		.uleb128 0x1c
 11204 00dd 0B       		.uleb128 0xb
 11205 00de 00       		.byte	0
 11206 00df 00       		.byte	0
 11207 00e0 13       		.uleb128 0x13
 11208 00e1 17       		.uleb128 0x17
 11209 00e2 01       		.byte	0x1
 11210 00e3 0B       		.uleb128 0xb
 11211 00e4 0B       		.uleb128 0xb
 11212 00e5 3A       		.uleb128 0x3a
 11213 00e6 0B       		.uleb128 0xb
 11214 00e7 3B       		.uleb128 0x3b
 11215 00e8 0B       		.uleb128 0xb
 11216 00e9 01       		.uleb128 0x1
 11217 00ea 13       		.uleb128 0x13
 11218 00eb 00       		.byte	0
 11219 00ec 00       		.byte	0
 11220 00ed 14       		.uleb128 0x14
 11221 00ee 0D       		.uleb128 0xd
 11222 00ef 00       		.byte	0
ARM GAS  C:\Users\haske\AppData\Local\Temp\ccxUXv8a.s 			page 238


 11223 00f0 03       		.uleb128 0x3
 11224 00f1 08       		.uleb128 0x8
 11225 00f2 3A       		.uleb128 0x3a
 11226 00f3 0B       		.uleb128 0xb
 11227 00f4 3B       		.uleb128 0x3b
 11228 00f5 0B       		.uleb128 0xb
 11229 00f6 49       		.uleb128 0x49
 11230 00f7 13       		.uleb128 0x13
 11231 00f8 00       		.byte	0
 11232 00f9 00       		.byte	0
 11233 00fa 15       		.uleb128 0x15
 11234 00fb 0D       		.uleb128 0xd
 11235 00fc 00       		.byte	0
 11236 00fd 03       		.uleb128 0x3
 11237 00fe 0E       		.uleb128 0xe
 11238 00ff 3A       		.uleb128 0x3a
 11239 0100 0B       		.uleb128 0xb
 11240 0101 3B       		.uleb128 0x3b
 11241 0102 0B       		.uleb128 0xb
 11242 0103 49       		.uleb128 0x49
 11243 0104 13       		.uleb128 0x13
 11244 0105 00       		.byte	0
 11245 0106 00       		.byte	0
 11246 0107 16       		.uleb128 0x16
 11247 0108 01       		.uleb128 0x1
 11248 0109 01       		.byte	0x1
 11249 010a 49       		.uleb128 0x49
 11250 010b 13       		.uleb128 0x13
 11251 010c 01       		.uleb128 0x1
 11252 010d 13       		.uleb128 0x13
 11253 010e 00       		.byte	0
 11254 010f 00       		.byte	0
 11255 0110 17       		.uleb128 0x17
 11256 0111 21       		.uleb128 0x21
 11257 0112 00       		.byte	0
 11258 0113 49       		.uleb128 0x49
 11259 0114 13       		.uleb128 0x13
 11260 0115 2F       		.uleb128 0x2f
 11261 0116 0B       		.uleb128 0xb
 11262 0117 00       		.byte	0
 11263 0118 00       		.byte	0
 11264 0119 18       		.uleb128 0x18
 11265 011a 28       		.uleb128 0x28
 11266 011b 00       		.byte	0
 11267 011c 03       		.uleb128 0x3
 11268 011d 0E       		.uleb128 0xe
 11269 011e 1C       		.uleb128 0x1c
 11270 011f 05       		.uleb128 0x5
 11271 0120 00       		.byte	0
 11272 0121 00       		.byte	0
 11273 0122 19       		.uleb128 0x19
 11274 0123 16       		.uleb128 0x16
 11275 0124 00       		.byte	0
 11276 0125 03       		.uleb128 0x3
 11277 0126 0E       		.uleb128 0xe
 11278 0127 3A       		.uleb128 0x3a
 11279 0128 0B       		.uleb128 0xb
ARM GAS  C:\Users\haske\AppData\Local\Temp\ccxUXv8a.s 			page 239


 11280 0129 3B       		.uleb128 0x3b
 11281 012a 05       		.uleb128 0x5
 11282 012b 49       		.uleb128 0x49
 11283 012c 13       		.uleb128 0x13
 11284 012d 00       		.byte	0
 11285 012e 00       		.byte	0
 11286 012f 1A       		.uleb128 0x1a
 11287 0130 13       		.uleb128 0x13
 11288 0131 01       		.byte	0x1
 11289 0132 0B       		.uleb128 0xb
 11290 0133 0B       		.uleb128 0xb
 11291 0134 3A       		.uleb128 0x3a
 11292 0135 0B       		.uleb128 0xb
 11293 0136 3B       		.uleb128 0x3b
 11294 0137 05       		.uleb128 0x5
 11295 0138 01       		.uleb128 0x1
 11296 0139 13       		.uleb128 0x13
 11297 013a 00       		.byte	0
 11298 013b 00       		.byte	0
 11299 013c 1B       		.uleb128 0x1b
 11300 013d 0D       		.uleb128 0xd
 11301 013e 00       		.byte	0
 11302 013f 03       		.uleb128 0x3
 11303 0140 0E       		.uleb128 0xe
 11304 0141 3A       		.uleb128 0x3a
 11305 0142 0B       		.uleb128 0xb
 11306 0143 3B       		.uleb128 0x3b
 11307 0144 05       		.uleb128 0x5
 11308 0145 49       		.uleb128 0x49
 11309 0146 13       		.uleb128 0x13
 11310 0147 38       		.uleb128 0x38
 11311 0148 0B       		.uleb128 0xb
 11312 0149 00       		.byte	0
 11313 014a 00       		.byte	0
 11314 014b 1C       		.uleb128 0x1c
 11315 014c 17       		.uleb128 0x17
 11316 014d 01       		.byte	0x1
 11317 014e 0B       		.uleb128 0xb
 11318 014f 0B       		.uleb128 0xb
 11319 0150 3A       		.uleb128 0x3a
 11320 0151 0B       		.uleb128 0xb
 11321 0152 3B       		.uleb128 0x3b
 11322 0153 05       		.uleb128 0x5
 11323 0154 01       		.uleb128 0x1
 11324 0155 13       		.uleb128 0x13
 11325 0156 00       		.byte	0
 11326 0157 00       		.byte	0
 11327 0158 1D       		.uleb128 0x1d
 11328 0159 0D       		.uleb128 0xd
 11329 015a 00       		.byte	0
 11330 015b 03       		.uleb128 0x3
 11331 015c 0E       		.uleb128 0xe
 11332 015d 3A       		.uleb128 0x3a
 11333 015e 0B       		.uleb128 0xb
 11334 015f 3B       		.uleb128 0x3b
 11335 0160 05       		.uleb128 0x5
 11336 0161 49       		.uleb128 0x49
ARM GAS  C:\Users\haske\AppData\Local\Temp\ccxUXv8a.s 			page 240


 11337 0162 13       		.uleb128 0x13
 11338 0163 00       		.byte	0
 11339 0164 00       		.byte	0
 11340 0165 1E       		.uleb128 0x1e
 11341 0166 0D       		.uleb128 0xd
 11342 0167 00       		.byte	0
 11343 0168 03       		.uleb128 0x3
 11344 0169 08       		.uleb128 0x8
 11345 016a 3A       		.uleb128 0x3a
 11346 016b 0B       		.uleb128 0xb
 11347 016c 3B       		.uleb128 0x3b
 11348 016d 05       		.uleb128 0x5
 11349 016e 49       		.uleb128 0x49
 11350 016f 13       		.uleb128 0x13
 11351 0170 38       		.uleb128 0x38
 11352 0171 0B       		.uleb128 0xb
 11353 0172 00       		.byte	0
 11354 0173 00       		.byte	0
 11355 0174 1F       		.uleb128 0x1f
 11356 0175 15       		.uleb128 0x15
 11357 0176 01       		.byte	0x1
 11358 0177 27       		.uleb128 0x27
 11359 0178 19       		.uleb128 0x19
 11360 0179 01       		.uleb128 0x1
 11361 017a 13       		.uleb128 0x13
 11362 017b 00       		.byte	0
 11363 017c 00       		.byte	0
 11364 017d 20       		.uleb128 0x20
 11365 017e 35       		.uleb128 0x35
 11366 017f 00       		.byte	0
 11367 0180 49       		.uleb128 0x49
 11368 0181 13       		.uleb128 0x13
 11369 0182 00       		.byte	0
 11370 0183 00       		.byte	0
 11371 0184 21       		.uleb128 0x21
 11372 0185 13       		.uleb128 0x13
 11373 0186 01       		.byte	0x1
 11374 0187 03       		.uleb128 0x3
 11375 0188 0E       		.uleb128 0xe
 11376 0189 0B       		.uleb128 0xb
 11377 018a 05       		.uleb128 0x5
 11378 018b 3A       		.uleb128 0x3a
 11379 018c 0B       		.uleb128 0xb
 11380 018d 3B       		.uleb128 0x3b
 11381 018e 0B       		.uleb128 0xb
 11382 018f 01       		.uleb128 0x1
 11383 0190 13       		.uleb128 0x13
 11384 0191 00       		.byte	0
 11385 0192 00       		.byte	0
 11386 0193 22       		.uleb128 0x22
 11387 0194 0D       		.uleb128 0xd
 11388 0195 00       		.byte	0
 11389 0196 03       		.uleb128 0x3
 11390 0197 0E       		.uleb128 0xe
 11391 0198 3A       		.uleb128 0x3a
 11392 0199 0B       		.uleb128 0xb
 11393 019a 3B       		.uleb128 0x3b
ARM GAS  C:\Users\haske\AppData\Local\Temp\ccxUXv8a.s 			page 241


 11394 019b 0B       		.uleb128 0xb
 11395 019c 49       		.uleb128 0x49
 11396 019d 13       		.uleb128 0x13
 11397 019e 38       		.uleb128 0x38
 11398 019f 05       		.uleb128 0x5
 11399 01a0 00       		.byte	0
 11400 01a1 00       		.byte	0
 11401 01a2 23       		.uleb128 0x23
 11402 01a3 13       		.uleb128 0x13
 11403 01a4 00       		.byte	0
 11404 01a5 03       		.uleb128 0x3
 11405 01a6 0E       		.uleb128 0xe
 11406 01a7 3C       		.uleb128 0x3c
 11407 01a8 19       		.uleb128 0x19
 11408 01a9 00       		.byte	0
 11409 01aa 00       		.byte	0
 11410 01ab 24       		.uleb128 0x24
 11411 01ac 28       		.uleb128 0x28
 11412 01ad 00       		.byte	0
 11413 01ae 03       		.uleb128 0x3
 11414 01af 0E       		.uleb128 0xe
 11415 01b0 1C       		.uleb128 0x1c
 11416 01b1 06       		.uleb128 0x6
 11417 01b2 00       		.byte	0
 11418 01b3 00       		.byte	0
 11419 01b4 25       		.uleb128 0x25
 11420 01b5 2E       		.uleb128 0x2e
 11421 01b6 01       		.byte	0x1
 11422 01b7 03       		.uleb128 0x3
 11423 01b8 0E       		.uleb128 0xe
 11424 01b9 3A       		.uleb128 0x3a
 11425 01ba 0B       		.uleb128 0xb
 11426 01bb 3B       		.uleb128 0x3b
 11427 01bc 05       		.uleb128 0x5
 11428 01bd 27       		.uleb128 0x27
 11429 01be 19       		.uleb128 0x19
 11430 01bf 49       		.uleb128 0x49
 11431 01c0 13       		.uleb128 0x13
 11432 01c1 20       		.uleb128 0x20
 11433 01c2 0B       		.uleb128 0xb
 11434 01c3 01       		.uleb128 0x1
 11435 01c4 13       		.uleb128 0x13
 11436 01c5 00       		.byte	0
 11437 01c6 00       		.byte	0
 11438 01c7 26       		.uleb128 0x26
 11439 01c8 05       		.uleb128 0x5
 11440 01c9 00       		.byte	0
 11441 01ca 03       		.uleb128 0x3
 11442 01cb 08       		.uleb128 0x8
 11443 01cc 3A       		.uleb128 0x3a
 11444 01cd 0B       		.uleb128 0xb
 11445 01ce 3B       		.uleb128 0x3b
 11446 01cf 05       		.uleb128 0x5
 11447 01d0 49       		.uleb128 0x49
 11448 01d1 13       		.uleb128 0x13
 11449 01d2 00       		.byte	0
 11450 01d3 00       		.byte	0
ARM GAS  C:\Users\haske\AppData\Local\Temp\ccxUXv8a.s 			page 242


 11451 01d4 27       		.uleb128 0x27
 11452 01d5 05       		.uleb128 0x5
 11453 01d6 00       		.byte	0
 11454 01d7 03       		.uleb128 0x3
 11455 01d8 0E       		.uleb128 0xe
 11456 01d9 3A       		.uleb128 0x3a
 11457 01da 0B       		.uleb128 0xb
 11458 01db 3B       		.uleb128 0x3b
 11459 01dc 05       		.uleb128 0x5
 11460 01dd 49       		.uleb128 0x49
 11461 01de 13       		.uleb128 0x13
 11462 01df 00       		.byte	0
 11463 01e0 00       		.byte	0
 11464 01e1 28       		.uleb128 0x28
 11465 01e2 34       		.uleb128 0x34
 11466 01e3 00       		.byte	0
 11467 01e4 03       		.uleb128 0x3
 11468 01e5 08       		.uleb128 0x8
 11469 01e6 3A       		.uleb128 0x3a
 11470 01e7 0B       		.uleb128 0xb
 11471 01e8 3B       		.uleb128 0x3b
 11472 01e9 05       		.uleb128 0x5
 11473 01ea 49       		.uleb128 0x49
 11474 01eb 13       		.uleb128 0x13
 11475 01ec 00       		.byte	0
 11476 01ed 00       		.byte	0
 11477 01ee 29       		.uleb128 0x29
 11478 01ef 2E       		.uleb128 0x2e
 11479 01f0 01       		.byte	0x1
 11480 01f1 03       		.uleb128 0x3
 11481 01f2 0E       		.uleb128 0xe
 11482 01f3 3A       		.uleb128 0x3a
 11483 01f4 0B       		.uleb128 0xb
 11484 01f5 3B       		.uleb128 0x3b
 11485 01f6 0B       		.uleb128 0xb
 11486 01f7 27       		.uleb128 0x27
 11487 01f8 19       		.uleb128 0x19
 11488 01f9 20       		.uleb128 0x20
 11489 01fa 0B       		.uleb128 0xb
 11490 01fb 01       		.uleb128 0x1
 11491 01fc 13       		.uleb128 0x13
 11492 01fd 00       		.byte	0
 11493 01fe 00       		.byte	0
 11494 01ff 2A       		.uleb128 0x2a
 11495 0200 05       		.uleb128 0x5
 11496 0201 00       		.byte	0
 11497 0202 03       		.uleb128 0x3
 11498 0203 0E       		.uleb128 0xe
 11499 0204 3A       		.uleb128 0x3a
 11500 0205 0B       		.uleb128 0xb
 11501 0206 3B       		.uleb128 0x3b
 11502 0207 0B       		.uleb128 0xb
 11503 0208 49       		.uleb128 0x49
 11504 0209 13       		.uleb128 0x13
 11505 020a 00       		.byte	0
 11506 020b 00       		.byte	0
 11507 020c 2B       		.uleb128 0x2b
ARM GAS  C:\Users\haske\AppData\Local\Temp\ccxUXv8a.s 			page 243


 11508 020d 05       		.uleb128 0x5
 11509 020e 00       		.byte	0
 11510 020f 03       		.uleb128 0x3
 11511 0210 08       		.uleb128 0x8
 11512 0211 3A       		.uleb128 0x3a
 11513 0212 0B       		.uleb128 0xb
 11514 0213 3B       		.uleb128 0x3b
 11515 0214 0B       		.uleb128 0xb
 11516 0215 49       		.uleb128 0x49
 11517 0216 13       		.uleb128 0x13
 11518 0217 00       		.byte	0
 11519 0218 00       		.byte	0
 11520 0219 2C       		.uleb128 0x2c
 11521 021a 2E       		.uleb128 0x2e
 11522 021b 00       		.byte	0
 11523 021c 03       		.uleb128 0x3
 11524 021d 0E       		.uleb128 0xe
 11525 021e 3A       		.uleb128 0x3a
 11526 021f 0B       		.uleb128 0xb
 11527 0220 3B       		.uleb128 0x3b
 11528 0221 05       		.uleb128 0x5
 11529 0222 27       		.uleb128 0x27
 11530 0223 19       		.uleb128 0x19
 11531 0224 49       		.uleb128 0x49
 11532 0225 13       		.uleb128 0x13
 11533 0226 20       		.uleb128 0x20
 11534 0227 0B       		.uleb128 0xb
 11535 0228 00       		.byte	0
 11536 0229 00       		.byte	0
 11537 022a 2D       		.uleb128 0x2d
 11538 022b 2E       		.uleb128 0x2e
 11539 022c 01       		.byte	0x1
 11540 022d 03       		.uleb128 0x3
 11541 022e 0E       		.uleb128 0xe
 11542 022f 3A       		.uleb128 0x3a
 11543 0230 0B       		.uleb128 0xb
 11544 0231 3B       		.uleb128 0x3b
 11545 0232 05       		.uleb128 0x5
 11546 0233 27       		.uleb128 0x27
 11547 0234 19       		.uleb128 0x19
 11548 0235 11       		.uleb128 0x11
 11549 0236 01       		.uleb128 0x1
 11550 0237 12       		.uleb128 0x12
 11551 0238 06       		.uleb128 0x6
 11552 0239 40       		.uleb128 0x40
 11553 023a 18       		.uleb128 0x18
 11554 023b 9742     		.uleb128 0x2117
 11555 023d 19       		.uleb128 0x19
 11556 023e 01       		.uleb128 0x1
 11557 023f 13       		.uleb128 0x13
 11558 0240 00       		.byte	0
 11559 0241 00       		.byte	0
 11560 0242 2E       		.uleb128 0x2e
 11561 0243 05       		.uleb128 0x5
 11562 0244 00       		.byte	0
 11563 0245 03       		.uleb128 0x3
 11564 0246 0E       		.uleb128 0xe
ARM GAS  C:\Users\haske\AppData\Local\Temp\ccxUXv8a.s 			page 244


 11565 0247 3A       		.uleb128 0x3a
 11566 0248 0B       		.uleb128 0xb
 11567 0249 3B       		.uleb128 0x3b
 11568 024a 05       		.uleb128 0x5
 11569 024b 49       		.uleb128 0x49
 11570 024c 13       		.uleb128 0x13
 11571 024d 02       		.uleb128 0x2
 11572 024e 17       		.uleb128 0x17
 11573 024f 00       		.byte	0
 11574 0250 00       		.byte	0
 11575 0251 2F       		.uleb128 0x2f
 11576 0252 05       		.uleb128 0x5
 11577 0253 00       		.byte	0
 11578 0254 03       		.uleb128 0x3
 11579 0255 08       		.uleb128 0x8
 11580 0256 3A       		.uleb128 0x3a
 11581 0257 0B       		.uleb128 0xb
 11582 0258 3B       		.uleb128 0x3b
 11583 0259 05       		.uleb128 0x5
 11584 025a 49       		.uleb128 0x49
 11585 025b 13       		.uleb128 0x13
 11586 025c 02       		.uleb128 0x2
 11587 025d 17       		.uleb128 0x17
 11588 025e 00       		.byte	0
 11589 025f 00       		.byte	0
 11590 0260 30       		.uleb128 0x30
 11591 0261 34       		.uleb128 0x34
 11592 0262 00       		.byte	0
 11593 0263 03       		.uleb128 0x3
 11594 0264 0E       		.uleb128 0xe
 11595 0265 3A       		.uleb128 0x3a
 11596 0266 0B       		.uleb128 0xb
 11597 0267 3B       		.uleb128 0x3b
 11598 0268 05       		.uleb128 0x5
 11599 0269 49       		.uleb128 0x49
 11600 026a 13       		.uleb128 0x13
 11601 026b 02       		.uleb128 0x2
 11602 026c 17       		.uleb128 0x17
 11603 026d 00       		.byte	0
 11604 026e 00       		.byte	0
 11605 026f 31       		.uleb128 0x31
 11606 0270 898201   		.uleb128 0x4109
 11607 0273 01       		.byte	0x1
 11608 0274 11       		.uleb128 0x11
 11609 0275 01       		.uleb128 0x1
 11610 0276 31       		.uleb128 0x31
 11611 0277 13       		.uleb128 0x13
 11612 0278 00       		.byte	0
 11613 0279 00       		.byte	0
 11614 027a 32       		.uleb128 0x32
 11615 027b 8A8201   		.uleb128 0x410a
 11616 027e 00       		.byte	0
 11617 027f 02       		.uleb128 0x2
 11618 0280 18       		.uleb128 0x18
 11619 0281 9142     		.uleb128 0x2111
 11620 0283 18       		.uleb128 0x18
 11621 0284 00       		.byte	0
ARM GAS  C:\Users\haske\AppData\Local\Temp\ccxUXv8a.s 			page 245


 11622 0285 00       		.byte	0
 11623 0286 33       		.uleb128 0x33
 11624 0287 898201   		.uleb128 0x4109
 11625 028a 00       		.byte	0
 11626 028b 11       		.uleb128 0x11
 11627 028c 01       		.uleb128 0x1
 11628 028d 31       		.uleb128 0x31
 11629 028e 13       		.uleb128 0x13
 11630 028f 00       		.byte	0
 11631 0290 00       		.byte	0
 11632 0291 34       		.uleb128 0x34
 11633 0292 2E       		.uleb128 0x2e
 11634 0293 01       		.byte	0x1
 11635 0294 3F       		.uleb128 0x3f
 11636 0295 19       		.uleb128 0x19
 11637 0296 03       		.uleb128 0x3
 11638 0297 0E       		.uleb128 0xe
 11639 0298 3A       		.uleb128 0x3a
 11640 0299 0B       		.uleb128 0xb
 11641 029a 3B       		.uleb128 0x3b
 11642 029b 0B       		.uleb128 0xb
 11643 029c 27       		.uleb128 0x27
 11644 029d 19       		.uleb128 0x19
 11645 029e 49       		.uleb128 0x49
 11646 029f 13       		.uleb128 0x13
 11647 02a0 11       		.uleb128 0x11
 11648 02a1 01       		.uleb128 0x1
 11649 02a2 12       		.uleb128 0x12
 11650 02a3 06       		.uleb128 0x6
 11651 02a4 40       		.uleb128 0x40
 11652 02a5 18       		.uleb128 0x18
 11653 02a6 9742     		.uleb128 0x2117
 11654 02a8 19       		.uleb128 0x19
 11655 02a9 01       		.uleb128 0x1
 11656 02aa 13       		.uleb128 0x13
 11657 02ab 00       		.byte	0
 11658 02ac 00       		.byte	0
 11659 02ad 35       		.uleb128 0x35
 11660 02ae 05       		.uleb128 0x5
 11661 02af 00       		.byte	0
 11662 02b0 03       		.uleb128 0x3
 11663 02b1 0E       		.uleb128 0xe
 11664 02b2 3A       		.uleb128 0x3a
 11665 02b3 0B       		.uleb128 0xb
 11666 02b4 3B       		.uleb128 0x3b
 11667 02b5 0B       		.uleb128 0xb
 11668 02b6 49       		.uleb128 0x49
 11669 02b7 13       		.uleb128 0x13
 11670 02b8 02       		.uleb128 0x2
 11671 02b9 17       		.uleb128 0x17
 11672 02ba 00       		.byte	0
 11673 02bb 00       		.byte	0
 11674 02bc 36       		.uleb128 0x36
 11675 02bd 34       		.uleb128 0x34
 11676 02be 00       		.byte	0
 11677 02bf 03       		.uleb128 0x3
 11678 02c0 08       		.uleb128 0x8
ARM GAS  C:\Users\haske\AppData\Local\Temp\ccxUXv8a.s 			page 246


 11679 02c1 3A       		.uleb128 0x3a
 11680 02c2 0B       		.uleb128 0xb
 11681 02c3 3B       		.uleb128 0x3b
 11682 02c4 0B       		.uleb128 0xb
 11683 02c5 49       		.uleb128 0x49
 11684 02c6 13       		.uleb128 0x13
 11685 02c7 02       		.uleb128 0x2
 11686 02c8 17       		.uleb128 0x17
 11687 02c9 00       		.byte	0
 11688 02ca 00       		.byte	0
 11689 02cb 37       		.uleb128 0x37
 11690 02cc 898201   		.uleb128 0x4109
 11691 02cf 01       		.byte	0x1
 11692 02d0 11       		.uleb128 0x11
 11693 02d1 01       		.uleb128 0x1
 11694 02d2 31       		.uleb128 0x31
 11695 02d3 13       		.uleb128 0x13
 11696 02d4 01       		.uleb128 0x1
 11697 02d5 13       		.uleb128 0x13
 11698 02d6 00       		.byte	0
 11699 02d7 00       		.byte	0
 11700 02d8 38       		.uleb128 0x38
 11701 02d9 2E       		.uleb128 0x2e
 11702 02da 01       		.byte	0x1
 11703 02db 3F       		.uleb128 0x3f
 11704 02dc 19       		.uleb128 0x19
 11705 02dd 03       		.uleb128 0x3
 11706 02de 0E       		.uleb128 0xe
 11707 02df 3A       		.uleb128 0x3a
 11708 02e0 0B       		.uleb128 0xb
 11709 02e1 3B       		.uleb128 0x3b
 11710 02e2 0B       		.uleb128 0xb
 11711 02e3 27       		.uleb128 0x27
 11712 02e4 19       		.uleb128 0x19
 11713 02e5 11       		.uleb128 0x11
 11714 02e6 01       		.uleb128 0x1
 11715 02e7 12       		.uleb128 0x12
 11716 02e8 06       		.uleb128 0x6
 11717 02e9 40       		.uleb128 0x40
 11718 02ea 18       		.uleb128 0x18
 11719 02eb 9742     		.uleb128 0x2117
 11720 02ed 19       		.uleb128 0x19
 11721 02ee 01       		.uleb128 0x1
 11722 02ef 13       		.uleb128 0x13
 11723 02f0 00       		.byte	0
 11724 02f1 00       		.byte	0
 11725 02f2 39       		.uleb128 0x39
 11726 02f3 05       		.uleb128 0x5
 11727 02f4 00       		.byte	0
 11728 02f5 03       		.uleb128 0x3
 11729 02f6 08       		.uleb128 0x8
 11730 02f7 3A       		.uleb128 0x3a
 11731 02f8 0B       		.uleb128 0xb
 11732 02f9 3B       		.uleb128 0x3b
 11733 02fa 0B       		.uleb128 0xb
 11734 02fb 49       		.uleb128 0x49
 11735 02fc 13       		.uleb128 0x13
ARM GAS  C:\Users\haske\AppData\Local\Temp\ccxUXv8a.s 			page 247


 11736 02fd 02       		.uleb128 0x2
 11737 02fe 17       		.uleb128 0x17
 11738 02ff 00       		.byte	0
 11739 0300 00       		.byte	0
 11740 0301 3A       		.uleb128 0x3a
 11741 0302 34       		.uleb128 0x34
 11742 0303 00       		.byte	0
 11743 0304 03       		.uleb128 0x3
 11744 0305 0E       		.uleb128 0xe
 11745 0306 3A       		.uleb128 0x3a
 11746 0307 0B       		.uleb128 0xb
 11747 0308 3B       		.uleb128 0x3b
 11748 0309 0B       		.uleb128 0xb
 11749 030a 49       		.uleb128 0x49
 11750 030b 13       		.uleb128 0x13
 11751 030c 02       		.uleb128 0x2
 11752 030d 17       		.uleb128 0x17
 11753 030e 00       		.byte	0
 11754 030f 00       		.byte	0
 11755 0310 3B       		.uleb128 0x3b
 11756 0311 34       		.uleb128 0x34
 11757 0312 00       		.byte	0
 11758 0313 03       		.uleb128 0x3
 11759 0314 0E       		.uleb128 0xe
 11760 0315 3A       		.uleb128 0x3a
 11761 0316 0B       		.uleb128 0xb
 11762 0317 3B       		.uleb128 0x3b
 11763 0318 0B       		.uleb128 0xb
 11764 0319 49       		.uleb128 0x49
 11765 031a 13       		.uleb128 0x13
 11766 031b 00       		.byte	0
 11767 031c 00       		.byte	0
 11768 031d 3C       		.uleb128 0x3c
 11769 031e 1D       		.uleb128 0x1d
 11770 031f 01       		.byte	0x1
 11771 0320 31       		.uleb128 0x31
 11772 0321 13       		.uleb128 0x13
 11773 0322 11       		.uleb128 0x11
 11774 0323 01       		.uleb128 0x1
 11775 0324 12       		.uleb128 0x12
 11776 0325 06       		.uleb128 0x6
 11777 0326 58       		.uleb128 0x58
 11778 0327 0B       		.uleb128 0xb
 11779 0328 59       		.uleb128 0x59
 11780 0329 0B       		.uleb128 0xb
 11781 032a 01       		.uleb128 0x1
 11782 032b 13       		.uleb128 0x13
 11783 032c 00       		.byte	0
 11784 032d 00       		.byte	0
 11785 032e 3D       		.uleb128 0x3d
 11786 032f 05       		.uleb128 0x5
 11787 0330 00       		.byte	0
 11788 0331 31       		.uleb128 0x31
 11789 0332 13       		.uleb128 0x13
 11790 0333 02       		.uleb128 0x2
 11791 0334 17       		.uleb128 0x17
 11792 0335 00       		.byte	0
ARM GAS  C:\Users\haske\AppData\Local\Temp\ccxUXv8a.s 			page 248


 11793 0336 00       		.byte	0
 11794 0337 3E       		.uleb128 0x3e
 11795 0338 0B       		.uleb128 0xb
 11796 0339 01       		.byte	0x1
 11797 033a 11       		.uleb128 0x11
 11798 033b 01       		.uleb128 0x1
 11799 033c 12       		.uleb128 0x12
 11800 033d 06       		.uleb128 0x6
 11801 033e 00       		.byte	0
 11802 033f 00       		.byte	0
 11803 0340 3F       		.uleb128 0x3f
 11804 0341 34       		.uleb128 0x34
 11805 0342 00       		.byte	0
 11806 0343 31       		.uleb128 0x31
 11807 0344 13       		.uleb128 0x13
 11808 0345 00       		.byte	0
 11809 0346 00       		.byte	0
 11810 0347 40       		.uleb128 0x40
 11811 0348 34       		.uleb128 0x34
 11812 0349 00       		.byte	0
 11813 034a 03       		.uleb128 0x3
 11814 034b 08       		.uleb128 0x8
 11815 034c 3A       		.uleb128 0x3a
 11816 034d 0B       		.uleb128 0xb
 11817 034e 3B       		.uleb128 0x3b
 11818 034f 05       		.uleb128 0x5
 11819 0350 49       		.uleb128 0x49
 11820 0351 13       		.uleb128 0x13
 11821 0352 02       		.uleb128 0x2
 11822 0353 17       		.uleb128 0x17
 11823 0354 00       		.byte	0
 11824 0355 00       		.byte	0
 11825 0356 41       		.uleb128 0x41
 11826 0357 34       		.uleb128 0x34
 11827 0358 00       		.byte	0
 11828 0359 03       		.uleb128 0x3
 11829 035a 0E       		.uleb128 0xe
 11830 035b 3A       		.uleb128 0x3a
 11831 035c 0B       		.uleb128 0xb
 11832 035d 3B       		.uleb128 0x3b
 11833 035e 0B       		.uleb128 0xb
 11834 035f 49       		.uleb128 0x49
 11835 0360 13       		.uleb128 0x13
 11836 0361 02       		.uleb128 0x2
 11837 0362 18       		.uleb128 0x18
 11838 0363 00       		.byte	0
 11839 0364 00       		.byte	0
 11840 0365 42       		.uleb128 0x42
 11841 0366 2E       		.uleb128 0x2e
 11842 0367 01       		.byte	0x1
 11843 0368 3F       		.uleb128 0x3f
 11844 0369 19       		.uleb128 0x19
 11845 036a 03       		.uleb128 0x3
 11846 036b 0E       		.uleb128 0xe
 11847 036c 3A       		.uleb128 0x3a
 11848 036d 0B       		.uleb128 0xb
 11849 036e 3B       		.uleb128 0x3b
ARM GAS  C:\Users\haske\AppData\Local\Temp\ccxUXv8a.s 			page 249


 11850 036f 0B       		.uleb128 0xb
 11851 0370 27       		.uleb128 0x27
 11852 0371 19       		.uleb128 0x19
 11853 0372 11       		.uleb128 0x11
 11854 0373 01       		.uleb128 0x1
 11855 0374 12       		.uleb128 0x12
 11856 0375 06       		.uleb128 0x6
 11857 0376 40       		.uleb128 0x40
 11858 0377 18       		.uleb128 0x18
 11859 0378 9642     		.uleb128 0x2116
 11860 037a 19       		.uleb128 0x19
 11861 037b 01       		.uleb128 0x1
 11862 037c 13       		.uleb128 0x13
 11863 037d 00       		.byte	0
 11864 037e 00       		.byte	0
 11865 037f 43       		.uleb128 0x43
 11866 0380 34       		.uleb128 0x34
 11867 0381 00       		.byte	0
 11868 0382 03       		.uleb128 0x3
 11869 0383 08       		.uleb128 0x8
 11870 0384 3A       		.uleb128 0x3a
 11871 0385 0B       		.uleb128 0xb
 11872 0386 3B       		.uleb128 0x3b
 11873 0387 0B       		.uleb128 0xb
 11874 0388 49       		.uleb128 0x49
 11875 0389 13       		.uleb128 0x13
 11876 038a 02       		.uleb128 0x2
 11877 038b 18       		.uleb128 0x18
 11878 038c 00       		.byte	0
 11879 038d 00       		.byte	0
 11880 038e 44       		.uleb128 0x44
 11881 038f 34       		.uleb128 0x34
 11882 0390 00       		.byte	0
 11883 0391 03       		.uleb128 0x3
 11884 0392 0E       		.uleb128 0xe
 11885 0393 3A       		.uleb128 0x3a
 11886 0394 0B       		.uleb128 0xb
 11887 0395 3B       		.uleb128 0x3b
 11888 0396 05       		.uleb128 0x5
 11889 0397 49       		.uleb128 0x49
 11890 0398 13       		.uleb128 0x13
 11891 0399 02       		.uleb128 0x2
 11892 039a 18       		.uleb128 0x18
 11893 039b 00       		.byte	0
 11894 039c 00       		.byte	0
 11895 039d 45       		.uleb128 0x45
 11896 039e 0B       		.uleb128 0xb
 11897 039f 01       		.byte	0x1
 11898 03a0 11       		.uleb128 0x11
 11899 03a1 01       		.uleb128 0x1
 11900 03a2 12       		.uleb128 0x12
 11901 03a3 06       		.uleb128 0x6
 11902 03a4 01       		.uleb128 0x1
 11903 03a5 13       		.uleb128 0x13
 11904 03a6 00       		.byte	0
 11905 03a7 00       		.byte	0
 11906 03a8 46       		.uleb128 0x46
ARM GAS  C:\Users\haske\AppData\Local\Temp\ccxUXv8a.s 			page 250


 11907 03a9 1D       		.uleb128 0x1d
 11908 03aa 01       		.byte	0x1
 11909 03ab 31       		.uleb128 0x31
 11910 03ac 13       		.uleb128 0x13
 11911 03ad 11       		.uleb128 0x11
 11912 03ae 01       		.uleb128 0x1
 11913 03af 12       		.uleb128 0x12
 11914 03b0 06       		.uleb128 0x6
 11915 03b1 58       		.uleb128 0x58
 11916 03b2 0B       		.uleb128 0xb
 11917 03b3 59       		.uleb128 0x59
 11918 03b4 05       		.uleb128 0x5
 11919 03b5 01       		.uleb128 0x1
 11920 03b6 13       		.uleb128 0x13
 11921 03b7 00       		.byte	0
 11922 03b8 00       		.byte	0
 11923 03b9 47       		.uleb128 0x47
 11924 03ba 1D       		.uleb128 0x1d
 11925 03bb 01       		.byte	0x1
 11926 03bc 31       		.uleb128 0x31
 11927 03bd 13       		.uleb128 0x13
 11928 03be 11       		.uleb128 0x11
 11929 03bf 01       		.uleb128 0x1
 11930 03c0 12       		.uleb128 0x12
 11931 03c1 06       		.uleb128 0x6
 11932 03c2 58       		.uleb128 0x58
 11933 03c3 0B       		.uleb128 0xb
 11934 03c4 59       		.uleb128 0x59
 11935 03c5 05       		.uleb128 0x5
 11936 03c6 00       		.byte	0
 11937 03c7 00       		.byte	0
 11938 03c8 48       		.uleb128 0x48
 11939 03c9 2E       		.uleb128 0x2e
 11940 03ca 01       		.byte	0x1
 11941 03cb 3F       		.uleb128 0x3f
 11942 03cc 19       		.uleb128 0x19
 11943 03cd 03       		.uleb128 0x3
 11944 03ce 0E       		.uleb128 0xe
 11945 03cf 3A       		.uleb128 0x3a
 11946 03d0 0B       		.uleb128 0xb
 11947 03d1 3B       		.uleb128 0x3b
 11948 03d2 05       		.uleb128 0x5
 11949 03d3 27       		.uleb128 0x27
 11950 03d4 19       		.uleb128 0x19
 11951 03d5 11       		.uleb128 0x11
 11952 03d6 01       		.uleb128 0x1
 11953 03d7 12       		.uleb128 0x12
 11954 03d8 06       		.uleb128 0x6
 11955 03d9 40       		.uleb128 0x40
 11956 03da 18       		.uleb128 0x18
 11957 03db 9642     		.uleb128 0x2116
 11958 03dd 19       		.uleb128 0x19
 11959 03de 01       		.uleb128 0x1
 11960 03df 13       		.uleb128 0x13
 11961 03e0 00       		.byte	0
 11962 03e1 00       		.byte	0
 11963 03e2 49       		.uleb128 0x49
ARM GAS  C:\Users\haske\AppData\Local\Temp\ccxUXv8a.s 			page 251


 11964 03e3 34       		.uleb128 0x34
 11965 03e4 00       		.byte	0
 11966 03e5 03       		.uleb128 0x3
 11967 03e6 08       		.uleb128 0x8
 11968 03e7 3A       		.uleb128 0x3a
 11969 03e8 0B       		.uleb128 0xb
 11970 03e9 3B       		.uleb128 0x3b
 11971 03ea 05       		.uleb128 0x5
 11972 03eb 49       		.uleb128 0x49
 11973 03ec 13       		.uleb128 0x13
 11974 03ed 02       		.uleb128 0x2
 11975 03ee 18       		.uleb128 0x18
 11976 03ef 00       		.byte	0
 11977 03f0 00       		.byte	0
 11978 03f1 4A       		.uleb128 0x4a
 11979 03f2 34       		.uleb128 0x34
 11980 03f3 00       		.byte	0
 11981 03f4 03       		.uleb128 0x3
 11982 03f5 0E       		.uleb128 0xe
 11983 03f6 3A       		.uleb128 0x3a
 11984 03f7 0B       		.uleb128 0xb
 11985 03f8 3B       		.uleb128 0x3b
 11986 03f9 05       		.uleb128 0x5
 11987 03fa 49       		.uleb128 0x49
 11988 03fb 13       		.uleb128 0x13
 11989 03fc 00       		.byte	0
 11990 03fd 00       		.byte	0
 11991 03fe 4B       		.uleb128 0x4b
 11992 03ff 2E       		.uleb128 0x2e
 11993 0400 01       		.byte	0x1
 11994 0401 3F       		.uleb128 0x3f
 11995 0402 19       		.uleb128 0x19
 11996 0403 03       		.uleb128 0x3
 11997 0404 0E       		.uleb128 0xe
 11998 0405 3A       		.uleb128 0x3a
 11999 0406 0B       		.uleb128 0xb
 12000 0407 3B       		.uleb128 0x3b
 12001 0408 05       		.uleb128 0x5
 12002 0409 27       		.uleb128 0x27
 12003 040a 19       		.uleb128 0x19
 12004 040b 11       		.uleb128 0x11
 12005 040c 01       		.uleb128 0x1
 12006 040d 12       		.uleb128 0x12
 12007 040e 06       		.uleb128 0x6
 12008 040f 40       		.uleb128 0x40
 12009 0410 18       		.uleb128 0x18
 12010 0411 9742     		.uleb128 0x2117
 12011 0413 19       		.uleb128 0x19
 12012 0414 01       		.uleb128 0x1
 12013 0415 13       		.uleb128 0x13
 12014 0416 00       		.byte	0
 12015 0417 00       		.byte	0
 12016 0418 4C       		.uleb128 0x4c
 12017 0419 0B       		.uleb128 0xb
 12018 041a 01       		.byte	0x1
 12019 041b 55       		.uleb128 0x55
 12020 041c 17       		.uleb128 0x17
ARM GAS  C:\Users\haske\AppData\Local\Temp\ccxUXv8a.s 			page 252


 12021 041d 01       		.uleb128 0x1
 12022 041e 13       		.uleb128 0x13
 12023 041f 00       		.byte	0
 12024 0420 00       		.byte	0
 12025 0421 4D       		.uleb128 0x4d
 12026 0422 05       		.uleb128 0x5
 12027 0423 00       		.byte	0
 12028 0424 03       		.uleb128 0x3
 12029 0425 0E       		.uleb128 0xe
 12030 0426 3A       		.uleb128 0x3a
 12031 0427 0B       		.uleb128 0xb
 12032 0428 3B       		.uleb128 0x3b
 12033 0429 05       		.uleb128 0x5
 12034 042a 49       		.uleb128 0x49
 12035 042b 13       		.uleb128 0x13
 12036 042c 02       		.uleb128 0x2
 12037 042d 18       		.uleb128 0x18
 12038 042e 00       		.byte	0
 12039 042f 00       		.byte	0
 12040 0430 4E       		.uleb128 0x4e
 12041 0431 05       		.uleb128 0x5
 12042 0432 00       		.byte	0
 12043 0433 03       		.uleb128 0x3
 12044 0434 08       		.uleb128 0x8
 12045 0435 3A       		.uleb128 0x3a
 12046 0436 0B       		.uleb128 0xb
 12047 0437 3B       		.uleb128 0x3b
 12048 0438 05       		.uleb128 0x5
 12049 0439 49       		.uleb128 0x49
 12050 043a 13       		.uleb128 0x13
 12051 043b 02       		.uleb128 0x2
 12052 043c 18       		.uleb128 0x18
 12053 043d 00       		.byte	0
 12054 043e 00       		.byte	0
 12055 043f 4F       		.uleb128 0x4f
 12056 0440 34       		.uleb128 0x34
 12057 0441 00       		.byte	0
 12058 0442 03       		.uleb128 0x3
 12059 0443 0E       		.uleb128 0xe
 12060 0444 3A       		.uleb128 0x3a
 12061 0445 0B       		.uleb128 0xb
 12062 0446 3B       		.uleb128 0x3b
 12063 0447 0B       		.uleb128 0xb
 12064 0448 49       		.uleb128 0x49
 12065 0449 13       		.uleb128 0x13
 12066 044a 3F       		.uleb128 0x3f
 12067 044b 19       		.uleb128 0x19
 12068 044c 3C       		.uleb128 0x3c
 12069 044d 19       		.uleb128 0x19
 12070 044e 00       		.byte	0
 12071 044f 00       		.byte	0
 12072 0450 50       		.uleb128 0x50
 12073 0451 34       		.uleb128 0x34
 12074 0452 00       		.byte	0
 12075 0453 03       		.uleb128 0x3
 12076 0454 0E       		.uleb128 0xe
 12077 0455 3A       		.uleb128 0x3a
ARM GAS  C:\Users\haske\AppData\Local\Temp\ccxUXv8a.s 			page 253


 12078 0456 0B       		.uleb128 0xb
 12079 0457 3B       		.uleb128 0x3b
 12080 0458 0B       		.uleb128 0xb
 12081 0459 49       		.uleb128 0x49
 12082 045a 13       		.uleb128 0x13
 12083 045b 3F       		.uleb128 0x3f
 12084 045c 19       		.uleb128 0x19
 12085 045d 02       		.uleb128 0x2
 12086 045e 18       		.uleb128 0x18
 12087 045f 00       		.byte	0
 12088 0460 00       		.byte	0
 12089 0461 51       		.uleb128 0x51
 12090 0462 2E       		.uleb128 0x2e
 12091 0463 00       		.byte	0
 12092 0464 3F       		.uleb128 0x3f
 12093 0465 19       		.uleb128 0x19
 12094 0466 3C       		.uleb128 0x3c
 12095 0467 19       		.uleb128 0x19
 12096 0468 6E       		.uleb128 0x6e
 12097 0469 0E       		.uleb128 0xe
 12098 046a 03       		.uleb128 0x3
 12099 046b 0E       		.uleb128 0xe
 12100 046c 3A       		.uleb128 0x3a
 12101 046d 0B       		.uleb128 0xb
 12102 046e 3B       		.uleb128 0x3b
 12103 046f 0B       		.uleb128 0xb
 12104 0470 00       		.byte	0
 12105 0471 00       		.byte	0
 12106 0472 52       		.uleb128 0x52
 12107 0473 2E       		.uleb128 0x2e
 12108 0474 00       		.byte	0
 12109 0475 3F       		.uleb128 0x3f
 12110 0476 19       		.uleb128 0x19
 12111 0477 3C       		.uleb128 0x3c
 12112 0478 19       		.uleb128 0x19
 12113 0479 6E       		.uleb128 0x6e
 12114 047a 0E       		.uleb128 0xe
 12115 047b 03       		.uleb128 0x3
 12116 047c 0E       		.uleb128 0xe
 12117 047d 3A       		.uleb128 0x3a
 12118 047e 0B       		.uleb128 0xb
 12119 047f 3B       		.uleb128 0x3b
 12120 0480 05       		.uleb128 0x5
 12121 0481 00       		.byte	0
 12122 0482 00       		.byte	0
 12123 0483 00       		.byte	0
 12124              		.section	.debug_loc,"",%progbits
 12125              	.Ldebug_loc0:
 12126              	.LLST0:
 12127 0000 00000000 		.4byte	.LVL0
 12128 0004 06000000 		.4byte	.LVL3
 12129 0008 0100     		.2byte	0x1
 12130 000a 50       		.byte	0x50
 12131 000b 06000000 		.4byte	.LVL3
 12132 000f 0C000000 		.4byte	.LFE179
 12133 0013 0400     		.2byte	0x4
 12134 0015 F3       		.byte	0xf3
ARM GAS  C:\Users\haske\AppData\Local\Temp\ccxUXv8a.s 			page 254


 12135 0016 01       		.uleb128 0x1
 12136 0017 50       		.byte	0x50
 12137 0018 9F       		.byte	0x9f
 12138 0019 00000000 		.4byte	0
 12139 001d 00000000 		.4byte	0
 12140              	.LLST1:
 12141 0021 00000000 		.4byte	.LVL0
 12142 0025 04000000 		.4byte	.LVL2
 12143 0029 0100     		.2byte	0x1
 12144 002b 51       		.byte	0x51
 12145 002c 04000000 		.4byte	.LVL2
 12146 0030 09000000 		.4byte	.LVL4-1
 12147 0034 0300     		.2byte	0x3
 12148 0036 71       		.byte	0x71
 12149 0037 44       		.sleb128 -60
 12150 0038 9F       		.byte	0x9f
 12151 0039 09000000 		.4byte	.LVL4-1
 12152 003d 0C000000 		.4byte	.LFE179
 12153 0041 0400     		.2byte	0x4
 12154 0043 F3       		.byte	0xf3
 12155 0044 01       		.uleb128 0x1
 12156 0045 51       		.byte	0x51
 12157 0046 9F       		.byte	0x9f
 12158 0047 00000000 		.4byte	0
 12159 004b 00000000 		.4byte	0
 12160              	.LLST2:
 12161 004f 02000000 		.4byte	.LVL1
 12162 0053 04000000 		.4byte	.LVL2
 12163 0057 0100     		.2byte	0x1
 12164 0059 51       		.byte	0x51
 12165 005a 04000000 		.4byte	.LVL2
 12166 005e 09000000 		.4byte	.LVL4-1
 12167 0062 0300     		.2byte	0x3
 12168 0064 71       		.byte	0x71
 12169 0065 44       		.sleb128 -60
 12170 0066 9F       		.byte	0x9f
 12171 0067 09000000 		.4byte	.LVL4-1
 12172 006b 0C000000 		.4byte	.LFE179
 12173 006f 0400     		.2byte	0x4
 12174 0071 F3       		.byte	0xf3
 12175 0072 01       		.uleb128 0x1
 12176 0073 51       		.byte	0x51
 12177 0074 9F       		.byte	0x9f
 12178 0075 00000000 		.4byte	0
 12179 0079 00000000 		.4byte	0
 12180              	.LLST3:
 12181 007d 00000000 		.4byte	.LVL5
 12182 0081 04000000 		.4byte	.LVL6
 12183 0085 0100     		.2byte	0x1
 12184 0087 50       		.byte	0x50
 12185 0088 04000000 		.4byte	.LVL6
 12186 008c 2C000000 		.4byte	.LFE178
 12187 0090 0400     		.2byte	0x4
 12188 0092 F3       		.byte	0xf3
 12189 0093 01       		.uleb128 0x1
 12190 0094 50       		.byte	0x50
 12191 0095 9F       		.byte	0x9f
ARM GAS  C:\Users\haske\AppData\Local\Temp\ccxUXv8a.s 			page 255


 12192 0096 00000000 		.4byte	0
 12193 009a 00000000 		.4byte	0
 12194              	.LLST4:
 12195 009e 00000000 		.4byte	.LVL5
 12196 00a2 22000000 		.4byte	.LVL7
 12197 00a6 0100     		.2byte	0x1
 12198 00a8 51       		.byte	0x51
 12199 00a9 22000000 		.4byte	.LVL7
 12200 00ad 25000000 		.4byte	.LVL8-1
 12201 00b1 0100     		.2byte	0x1
 12202 00b3 50       		.byte	0x50
 12203 00b4 25000000 		.4byte	.LVL8-1
 12204 00b8 2C000000 		.4byte	.LFE178
 12205 00bc 0400     		.2byte	0x4
 12206 00be F3       		.byte	0xf3
 12207 00bf 01       		.uleb128 0x1
 12208 00c0 51       		.byte	0x51
 12209 00c1 9F       		.byte	0x9f
 12210 00c2 00000000 		.4byte	0
 12211 00c6 00000000 		.4byte	0
 12212              	.LLST5:
 12213 00ca 04000000 		.4byte	.LVL6
 12214 00ce 22000000 		.4byte	.LVL7
 12215 00d2 0100     		.2byte	0x1
 12216 00d4 51       		.byte	0x51
 12217 00d5 22000000 		.4byte	.LVL7
 12218 00d9 25000000 		.4byte	.LVL8-1
 12219 00dd 0100     		.2byte	0x1
 12220 00df 50       		.byte	0x50
 12221 00e0 25000000 		.4byte	.LVL8-1
 12222 00e4 2C000000 		.4byte	.LFE178
 12223 00e8 0400     		.2byte	0x4
 12224 00ea F3       		.byte	0xf3
 12225 00eb 01       		.uleb128 0x1
 12226 00ec 51       		.byte	0x51
 12227 00ed 9F       		.byte	0x9f
 12228 00ee 00000000 		.4byte	0
 12229 00f2 00000000 		.4byte	0
 12230              	.LLST6:
 12231 00f6 00000000 		.4byte	.LVL9
 12232 00fa 06000000 		.4byte	.LVL10
 12233 00fe 0100     		.2byte	0x1
 12234 0100 50       		.byte	0x50
 12235 0101 06000000 		.4byte	.LVL10
 12236 0105 16000000 		.4byte	.LFE181
 12237 0109 0400     		.2byte	0x4
 12238 010b F3       		.byte	0xf3
 12239 010c 01       		.uleb128 0x1
 12240 010d 50       		.byte	0x50
 12241 010e 9F       		.byte	0x9f
 12242 010f 00000000 		.4byte	0
 12243 0113 00000000 		.4byte	0
 12244              	.LLST7:
 12245 0117 00000000 		.4byte	.LVL9
 12246 011b 08000000 		.4byte	.LVL11
 12247 011f 0100     		.2byte	0x1
 12248 0121 51       		.byte	0x51
ARM GAS  C:\Users\haske\AppData\Local\Temp\ccxUXv8a.s 			page 256


 12249 0122 08000000 		.4byte	.LVL11
 12250 0126 14000000 		.4byte	.LVL14
 12251 012a 0100     		.2byte	0x1
 12252 012c 54       		.byte	0x54
 12253 012d 14000000 		.4byte	.LVL14
 12254 0131 16000000 		.4byte	.LFE181
 12255 0135 0400     		.2byte	0x4
 12256 0137 F3       		.byte	0xf3
 12257 0138 01       		.uleb128 0x1
 12258 0139 51       		.byte	0x51
 12259 013a 9F       		.byte	0x9f
 12260 013b 00000000 		.4byte	0
 12261 013f 00000000 		.4byte	0
 12262              	.LLST8:
 12263 0143 00000000 		.4byte	.LVL15
 12264 0147 06000000 		.4byte	.LVL16
 12265 014b 0100     		.2byte	0x1
 12266 014d 50       		.byte	0x50
 12267 014e 06000000 		.4byte	.LVL16
 12268 0152 09000000 		.4byte	.LVL17-1
 12269 0156 0100     		.2byte	0x1
 12270 0158 51       		.byte	0x51
 12271 0159 09000000 		.4byte	.LVL17-1
 12272 015d 18000000 		.4byte	.LFE160
 12273 0161 0400     		.2byte	0x4
 12274 0163 F3       		.byte	0xf3
 12275 0164 01       		.uleb128 0x1
 12276 0165 50       		.byte	0x50
 12277 0166 9F       		.byte	0x9f
 12278 0167 00000000 		.4byte	0
 12279 016b 00000000 		.4byte	0
 12280              	.LLST9:
 12281 016f 0C000000 		.4byte	.LVL18
 12282 0173 0F000000 		.4byte	.LVL19-1
 12283 0177 0100     		.2byte	0x1
 12284 0179 50       		.byte	0x50
 12285 017a 0F000000 		.4byte	.LVL19-1
 12286 017e 12000000 		.4byte	.LVL20
 12287 0182 0100     		.2byte	0x1
 12288 0184 54       		.byte	0x54
 12289 0185 12000000 		.4byte	.LVL20
 12290 0189 18000000 		.4byte	.LFE160
 12291 018d 0100     		.2byte	0x1
 12292 018f 50       		.byte	0x50
 12293 0190 00000000 		.4byte	0
 12294 0194 00000000 		.4byte	0
 12295              	.LLST10:
 12296 0198 00000000 		.4byte	.LVL21
 12297 019c 41000000 		.4byte	.LVL29-1
 12298 01a0 0100     		.2byte	0x1
 12299 01a2 50       		.byte	0x50
 12300 01a3 41000000 		.4byte	.LVL29-1
 12301 01a7 50000000 		.4byte	.LFE161
 12302 01ab 0400     		.2byte	0x4
 12303 01ad F3       		.byte	0xf3
 12304 01ae 01       		.uleb128 0x1
 12305 01af 50       		.byte	0x50
ARM GAS  C:\Users\haske\AppData\Local\Temp\ccxUXv8a.s 			page 257


 12306 01b0 9F       		.byte	0x9f
 12307 01b1 00000000 		.4byte	0
 12308 01b5 00000000 		.4byte	0
 12309              	.LLST11:
 12310 01b9 00000000 		.4byte	.LVL21
 12311 01bd 3E000000 		.4byte	.LVL28
 12312 01c1 0100     		.2byte	0x1
 12313 01c3 51       		.byte	0x51
 12314 01c4 3E000000 		.4byte	.LVL28
 12315 01c8 41000000 		.4byte	.LVL29-1
 12316 01cc 0300     		.2byte	0x3
 12317 01ce 70       		.byte	0x70
 12318 01cf C400     		.sleb128 68
 12319 01d1 41000000 		.4byte	.LVL29-1
 12320 01d5 50000000 		.4byte	.LFE161
 12321 01d9 0400     		.2byte	0x4
 12322 01db F3       		.byte	0xf3
 12323 01dc 01       		.uleb128 0x1
 12324 01dd 51       		.byte	0x51
 12325 01de 9F       		.byte	0x9f
 12326 01df 00000000 		.4byte	0
 12327 01e3 00000000 		.4byte	0
 12328              	.LLST12:
 12329 01e7 00000000 		.4byte	.LVL21
 12330 01eb 1E000000 		.4byte	.LVL25
 12331 01ef 0100     		.2byte	0x1
 12332 01f1 52       		.byte	0x52
 12333 01f2 1E000000 		.4byte	.LVL25
 12334 01f6 50000000 		.4byte	.LFE161
 12335 01fa 0400     		.2byte	0x4
 12336 01fc F3       		.byte	0xf3
 12337 01fd 01       		.uleb128 0x1
 12338 01fe 52       		.byte	0x52
 12339 01ff 9F       		.byte	0x9f
 12340 0200 00000000 		.4byte	0
 12341 0204 00000000 		.4byte	0
 12342              	.LLST13:
 12343 0208 00000000 		.4byte	.LVL21
 12344 020c 2C000000 		.4byte	.LVL27
 12345 0210 0100     		.2byte	0x1
 12346 0212 53       		.byte	0x53
 12347 0213 2C000000 		.4byte	.LVL27
 12348 0217 50000000 		.4byte	.LFE161
 12349 021b 0400     		.2byte	0x4
 12350 021d F3       		.byte	0xf3
 12351 021e 01       		.uleb128 0x1
 12352 021f 53       		.byte	0x53
 12353 0220 9F       		.byte	0x9f
 12354 0221 00000000 		.4byte	0
 12355 0225 00000000 		.4byte	0
 12356              	.LLST14:
 12357 0229 00000000 		.4byte	.LVL21
 12358 022d 04000000 		.4byte	.LVL22
 12359 0231 0200     		.2byte	0x2
 12360 0233 91       		.byte	0x91
 12361 0234 00       		.sleb128 0
 12362 0235 04000000 		.4byte	.LVL22
ARM GAS  C:\Users\haske\AppData\Local\Temp\ccxUXv8a.s 			page 258


 12363 0239 06000000 		.4byte	.LVL23
 12364 023d 0200     		.2byte	0x2
 12365 023f 74       		.byte	0x74
 12366 0240 00       		.sleb128 0
 12367 0241 06000000 		.4byte	.LVL23
 12368 0245 2A000000 		.4byte	.LVL26
 12369 0249 0200     		.2byte	0x2
 12370 024b 91       		.byte	0x91
 12371 024c 00       		.sleb128 0
 12372 024d 00000000 		.4byte	0
 12373 0251 00000000 		.4byte	0
 12374              	.LLST15:
 12375 0255 0C000000 		.4byte	.LVL24
 12376 0259 41000000 		.4byte	.LVL29-1
 12377 025d 0100     		.2byte	0x1
 12378 025f 50       		.byte	0x50
 12379 0260 41000000 		.4byte	.LVL29-1
 12380 0264 48000000 		.4byte	.LVL31
 12381 0268 0300     		.2byte	0x3
 12382 026a 74       		.byte	0x74
 12383 026b 44       		.sleb128 -60
 12384 026c 9F       		.byte	0x9f
 12385 026d 48000000 		.4byte	.LVL31
 12386 0271 50000000 		.4byte	.LFE161
 12387 0275 0400     		.2byte	0x4
 12388 0277 F3       		.byte	0xf3
 12389 0278 01       		.uleb128 0x1
 12390 0279 50       		.byte	0x50
 12391 027a 9F       		.byte	0x9f
 12392 027b 00000000 		.4byte	0
 12393 027f 00000000 		.4byte	0
 12394              	.LLST16:
 12395 0283 00000000 		.4byte	.LVL32
 12396 0287 06000000 		.4byte	.LVL34
 12397 028b 0100     		.2byte	0x1
 12398 028d 50       		.byte	0x50
 12399 028e 06000000 		.4byte	.LVL34
 12400 0292 10000000 		.4byte	.LVL37
 12401 0296 0100     		.2byte	0x1
 12402 0298 54       		.byte	0x54
 12403 0299 10000000 		.4byte	.LVL37
 12404 029d 12000000 		.4byte	.LFE162
 12405 02a1 0400     		.2byte	0x4
 12406 02a3 F3       		.byte	0xf3
 12407 02a4 01       		.uleb128 0x1
 12408 02a5 50       		.byte	0x50
 12409 02a6 9F       		.byte	0x9f
 12410 02a7 00000000 		.4byte	0
 12411 02ab 00000000 		.4byte	0
 12412              	.LLST17:
 12413 02af 00000000 		.4byte	.LVL32
 12414 02b3 09000000 		.4byte	.LVL35-1
 12415 02b7 0100     		.2byte	0x1
 12416 02b9 51       		.byte	0x51
 12417 02ba 09000000 		.4byte	.LVL35-1
 12418 02be 12000000 		.4byte	.LFE162
 12419 02c2 0400     		.2byte	0x4
ARM GAS  C:\Users\haske\AppData\Local\Temp\ccxUXv8a.s 			page 259


 12420 02c4 F3       		.byte	0xf3
 12421 02c5 01       		.uleb128 0x1
 12422 02c6 51       		.byte	0x51
 12423 02c7 9F       		.byte	0x9f
 12424 02c8 00000000 		.4byte	0
 12425 02cc 00000000 		.4byte	0
 12426              	.LLST18:
 12427 02d0 00000000 		.4byte	.LVL32
 12428 02d4 09000000 		.4byte	.LVL35-1
 12429 02d8 0100     		.2byte	0x1
 12430 02da 52       		.byte	0x52
 12431 02db 09000000 		.4byte	.LVL35-1
 12432 02df 12000000 		.4byte	.LFE162
 12433 02e3 0400     		.2byte	0x4
 12434 02e5 F3       		.byte	0xf3
 12435 02e6 01       		.uleb128 0x1
 12436 02e7 52       		.byte	0x52
 12437 02e8 9F       		.byte	0x9f
 12438 02e9 00000000 		.4byte	0
 12439 02ed 00000000 		.4byte	0
 12440              	.LLST19:
 12441 02f1 00000000 		.4byte	.LVL32
 12442 02f5 09000000 		.4byte	.LVL35-1
 12443 02f9 0100     		.2byte	0x1
 12444 02fb 53       		.byte	0x53
 12445 02fc 00000000 		.4byte	0
 12446 0300 00000000 		.4byte	0
 12447              	.LLST20:
 12448 0304 04000000 		.4byte	.LVL33
 12449 0308 06000000 		.4byte	.LVL34
 12450 030c 0100     		.2byte	0x1
 12451 030e 50       		.byte	0x50
 12452 030f 06000000 		.4byte	.LVL34
 12453 0313 10000000 		.4byte	.LVL37
 12454 0317 0100     		.2byte	0x1
 12455 0319 54       		.byte	0x54
 12456 031a 10000000 		.4byte	.LVL37
 12457 031e 12000000 		.4byte	.LFE162
 12458 0322 0400     		.2byte	0x4
 12459 0324 F3       		.byte	0xf3
 12460 0325 01       		.uleb128 0x1
 12461 0326 50       		.byte	0x50
 12462 0327 9F       		.byte	0x9f
 12463 0328 00000000 		.4byte	0
 12464 032c 00000000 		.4byte	0
 12465              	.LLST21:
 12466 0330 00000000 		.4byte	.LVL38
 12467 0334 06000000 		.4byte	.LVL40
 12468 0338 0100     		.2byte	0x1
 12469 033a 50       		.byte	0x50
 12470 033b 06000000 		.4byte	.LVL40
 12471 033f 10000000 		.4byte	.LVL43
 12472 0343 0100     		.2byte	0x1
 12473 0345 54       		.byte	0x54
 12474 0346 10000000 		.4byte	.LVL43
 12475 034a 12000000 		.4byte	.LFE163
 12476 034e 0400     		.2byte	0x4
ARM GAS  C:\Users\haske\AppData\Local\Temp\ccxUXv8a.s 			page 260


 12477 0350 F3       		.byte	0xf3
 12478 0351 01       		.uleb128 0x1
 12479 0352 50       		.byte	0x50
 12480 0353 9F       		.byte	0x9f
 12481 0354 00000000 		.4byte	0
 12482 0358 00000000 		.4byte	0
 12483              	.LLST22:
 12484 035c 00000000 		.4byte	.LVL38
 12485 0360 09000000 		.4byte	.LVL41-1
 12486 0364 0100     		.2byte	0x1
 12487 0366 51       		.byte	0x51
 12488 0367 09000000 		.4byte	.LVL41-1
 12489 036b 12000000 		.4byte	.LFE163
 12490 036f 0400     		.2byte	0x4
 12491 0371 F3       		.byte	0xf3
 12492 0372 01       		.uleb128 0x1
 12493 0373 51       		.byte	0x51
 12494 0374 9F       		.byte	0x9f
 12495 0375 00000000 		.4byte	0
 12496 0379 00000000 		.4byte	0
 12497              	.LLST23:
 12498 037d 00000000 		.4byte	.LVL38
 12499 0381 09000000 		.4byte	.LVL41-1
 12500 0385 0100     		.2byte	0x1
 12501 0387 52       		.byte	0x52
 12502 0388 09000000 		.4byte	.LVL41-1
 12503 038c 12000000 		.4byte	.LFE163
 12504 0390 0400     		.2byte	0x4
 12505 0392 F3       		.byte	0xf3
 12506 0393 01       		.uleb128 0x1
 12507 0394 52       		.byte	0x52
 12508 0395 9F       		.byte	0x9f
 12509 0396 00000000 		.4byte	0
 12510 039a 00000000 		.4byte	0
 12511              	.LLST24:
 12512 039e 00000000 		.4byte	.LVL38
 12513 03a2 09000000 		.4byte	.LVL41-1
 12514 03a6 0100     		.2byte	0x1
 12515 03a8 53       		.byte	0x53
 12516 03a9 09000000 		.4byte	.LVL41-1
 12517 03ad 12000000 		.4byte	.LFE163
 12518 03b1 0400     		.2byte	0x4
 12519 03b3 F3       		.byte	0xf3
 12520 03b4 01       		.uleb128 0x1
 12521 03b5 53       		.byte	0x53
 12522 03b6 9F       		.byte	0x9f
 12523 03b7 00000000 		.4byte	0
 12524 03bb 00000000 		.4byte	0
 12525              	.LLST25:
 12526 03bf 04000000 		.4byte	.LVL39
 12527 03c3 06000000 		.4byte	.LVL40
 12528 03c7 0100     		.2byte	0x1
 12529 03c9 50       		.byte	0x50
 12530 03ca 06000000 		.4byte	.LVL40
 12531 03ce 10000000 		.4byte	.LVL43
 12532 03d2 0100     		.2byte	0x1
 12533 03d4 54       		.byte	0x54
ARM GAS  C:\Users\haske\AppData\Local\Temp\ccxUXv8a.s 			page 261


 12534 03d5 10000000 		.4byte	.LVL43
 12535 03d9 12000000 		.4byte	.LFE163
 12536 03dd 0400     		.2byte	0x4
 12537 03df F3       		.byte	0xf3
 12538 03e0 01       		.uleb128 0x1
 12539 03e1 50       		.byte	0x50
 12540 03e2 9F       		.byte	0x9f
 12541 03e3 00000000 		.4byte	0
 12542 03e7 00000000 		.4byte	0
 12543              	.LLST26:
 12544 03eb 00000000 		.4byte	.LVL44
 12545 03ef 06000000 		.4byte	.LVL46
 12546 03f3 0100     		.2byte	0x1
 12547 03f5 50       		.byte	0x50
 12548 03f6 06000000 		.4byte	.LVL46
 12549 03fa 10000000 		.4byte	.LVL49
 12550 03fe 0100     		.2byte	0x1
 12551 0400 54       		.byte	0x54
 12552 0401 10000000 		.4byte	.LVL49
 12553 0405 12000000 		.4byte	.LFE164
 12554 0409 0400     		.2byte	0x4
 12555 040b F3       		.byte	0xf3
 12556 040c 01       		.uleb128 0x1
 12557 040d 50       		.byte	0x50
 12558 040e 9F       		.byte	0x9f
 12559 040f 00000000 		.4byte	0
 12560 0413 00000000 		.4byte	0
 12561              	.LLST27:
 12562 0417 00000000 		.4byte	.LVL44
 12563 041b 09000000 		.4byte	.LVL47-1
 12564 041f 0100     		.2byte	0x1
 12565 0421 51       		.byte	0x51
 12566 0422 09000000 		.4byte	.LVL47-1
 12567 0426 12000000 		.4byte	.LFE164
 12568 042a 0400     		.2byte	0x4
 12569 042c F3       		.byte	0xf3
 12570 042d 01       		.uleb128 0x1
 12571 042e 51       		.byte	0x51
 12572 042f 9F       		.byte	0x9f
 12573 0430 00000000 		.4byte	0
 12574 0434 00000000 		.4byte	0
 12575              	.LLST28:
 12576 0438 00000000 		.4byte	.LVL44
 12577 043c 09000000 		.4byte	.LVL47-1
 12578 0440 0100     		.2byte	0x1
 12579 0442 52       		.byte	0x52
 12580 0443 00000000 		.4byte	0
 12581 0447 00000000 		.4byte	0
 12582              	.LLST29:
 12583 044b 04000000 		.4byte	.LVL45
 12584 044f 06000000 		.4byte	.LVL46
 12585 0453 0100     		.2byte	0x1
 12586 0455 50       		.byte	0x50
 12587 0456 06000000 		.4byte	.LVL46
 12588 045a 10000000 		.4byte	.LVL49
 12589 045e 0100     		.2byte	0x1
 12590 0460 54       		.byte	0x54
ARM GAS  C:\Users\haske\AppData\Local\Temp\ccxUXv8a.s 			page 262


 12591 0461 10000000 		.4byte	.LVL49
 12592 0465 12000000 		.4byte	.LFE164
 12593 0469 0400     		.2byte	0x4
 12594 046b F3       		.byte	0xf3
 12595 046c 01       		.uleb128 0x1
 12596 046d 50       		.byte	0x50
 12597 046e 9F       		.byte	0x9f
 12598 046f 00000000 		.4byte	0
 12599 0473 00000000 		.4byte	0
 12600              	.LLST30:
 12601 0477 00000000 		.4byte	.LVL50
 12602 047b 0F000000 		.4byte	.LVL54-1
 12603 047f 0100     		.2byte	0x1
 12604 0481 50       		.byte	0x50
 12605 0482 0F000000 		.4byte	.LVL54-1
 12606 0486 1E000000 		.4byte	.LVL57
 12607 048a 0100     		.2byte	0x1
 12608 048c 54       		.byte	0x54
 12609 048d 1E000000 		.4byte	.LVL57
 12610 0491 20000000 		.4byte	.LFE165
 12611 0495 0400     		.2byte	0x4
 12612 0497 F3       		.byte	0xf3
 12613 0498 01       		.uleb128 0x1
 12614 0499 50       		.byte	0x50
 12615 049a 9F       		.byte	0x9f
 12616 049b 00000000 		.4byte	0
 12617 049f 00000000 		.4byte	0
 12618              	.LLST31:
 12619 04a3 00000000 		.4byte	.LVL50
 12620 04a7 0C000000 		.4byte	.LVL53
 12621 04ab 0100     		.2byte	0x1
 12622 04ad 51       		.byte	0x51
 12623 04ae 0C000000 		.4byte	.LVL53
 12624 04b2 20000000 		.4byte	.LFE165
 12625 04b6 0400     		.2byte	0x4
 12626 04b8 F3       		.byte	0xf3
 12627 04b9 01       		.uleb128 0x1
 12628 04ba 51       		.byte	0x51
 12629 04bb 9F       		.byte	0x9f
 12630 04bc 00000000 		.4byte	0
 12631 04c0 00000000 		.4byte	0
 12632              	.LLST32:
 12633 04c4 00000000 		.4byte	.LVL50
 12634 04c8 0A000000 		.4byte	.LVL52
 12635 04cc 0100     		.2byte	0x1
 12636 04ce 52       		.byte	0x52
 12637 04cf 0A000000 		.4byte	.LVL52
 12638 04d3 20000000 		.4byte	.LFE165
 12639 04d7 0400     		.2byte	0x4
 12640 04d9 F3       		.byte	0xf3
 12641 04da 01       		.uleb128 0x1
 12642 04db 52       		.byte	0x52
 12643 04dc 9F       		.byte	0x9f
 12644 04dd 00000000 		.4byte	0
 12645 04e1 00000000 		.4byte	0
 12646              	.LLST33:
 12647 04e5 08000000 		.4byte	.LVL51
ARM GAS  C:\Users\haske\AppData\Local\Temp\ccxUXv8a.s 			page 263


 12648 04e9 0F000000 		.4byte	.LVL54-1
 12649 04ed 0100     		.2byte	0x1
 12650 04ef 50       		.byte	0x50
 12651 04f0 0F000000 		.4byte	.LVL54-1
 12652 04f4 1E000000 		.4byte	.LVL57
 12653 04f8 0100     		.2byte	0x1
 12654 04fa 54       		.byte	0x54
 12655 04fb 1E000000 		.4byte	.LVL57
 12656 04ff 20000000 		.4byte	.LFE165
 12657 0503 0400     		.2byte	0x4
 12658 0505 F3       		.byte	0xf3
 12659 0506 01       		.uleb128 0x1
 12660 0507 50       		.byte	0x50
 12661 0508 9F       		.byte	0x9f
 12662 0509 00000000 		.4byte	0
 12663 050d 00000000 		.4byte	0
 12664              	.LLST34:
 12665 0511 08000000 		.4byte	.LVL51
 12666 0515 12000000 		.4byte	.LVL55
 12667 0519 0200     		.2byte	0x2
 12668 051b 30       		.byte	0x30
 12669 051c 9F       		.byte	0x9f
 12670 051d 00000000 		.4byte	0
 12671 0521 00000000 		.4byte	0
 12672              	.LLST35:
 12673 0525 08000000 		.4byte	.LVL51
 12674 0529 0F000000 		.4byte	.LVL54-1
 12675 052d 0100     		.2byte	0x1
 12676 052f 50       		.byte	0x50
 12677 0530 0F000000 		.4byte	.LVL54-1
 12678 0534 12000000 		.4byte	.LVL55
 12679 0538 0100     		.2byte	0x1
 12680 053a 54       		.byte	0x54
 12681 053b 00000000 		.4byte	0
 12682 053f 00000000 		.4byte	0
 12683              	.LLST36:
 12684 0543 00000000 		.4byte	.LVL58
 12685 0547 02000000 		.4byte	.LVL59
 12686 054b 0100     		.2byte	0x1
 12687 054d 50       		.byte	0x50
 12688 054e 02000000 		.4byte	.LVL59
 12689 0552 04000000 		.4byte	.LFE166
 12690 0556 0300     		.2byte	0x3
 12691 0558 70       		.byte	0x70
 12692 0559 44       		.sleb128 -60
 12693 055a 9F       		.byte	0x9f
 12694 055b 00000000 		.4byte	0
 12695 055f 00000000 		.4byte	0
 12696              	.LLST38:
 12697 0563 00000000 		.4byte	.LVL60
 12698 0567 0F000000 		.4byte	.LVL61-1
 12699 056b 0100     		.2byte	0x1
 12700 056d 50       		.byte	0x50
 12701 056e 0F000000 		.4byte	.LVL61-1
 12702 0572 82000000 		.4byte	.LFE180
 12703 0576 0400     		.2byte	0x4
 12704 0578 F3       		.byte	0xf3
ARM GAS  C:\Users\haske\AppData\Local\Temp\ccxUXv8a.s 			page 264


 12705 0579 01       		.uleb128 0x1
 12706 057a 50       		.byte	0x50
 12707 057b 9F       		.byte	0x9f
 12708 057c 00000000 		.4byte	0
 12709 0580 00000000 		.4byte	0
 12710              	.LLST39:
 12711 0584 00000000 		.4byte	.LVL60
 12712 0588 0F000000 		.4byte	.LVL61-1
 12713 058c 0100     		.2byte	0x1
 12714 058e 51       		.byte	0x51
 12715 058f 0F000000 		.4byte	.LVL61-1
 12716 0593 80000000 		.4byte	.LVL74
 12717 0597 0100     		.2byte	0x1
 12718 0599 57       		.byte	0x57
 12719 059a 80000000 		.4byte	.LVL74
 12720 059e 82000000 		.4byte	.LFE180
 12721 05a2 0400     		.2byte	0x4
 12722 05a4 F3       		.byte	0xf3
 12723 05a5 01       		.uleb128 0x1
 12724 05a6 51       		.byte	0x51
 12725 05a7 9F       		.byte	0x9f
 12726 05a8 00000000 		.4byte	0
 12727 05ac 00000000 		.4byte	0
 12728              	.LLST40:
 12729 05b0 00000000 		.4byte	.LVL60
 12730 05b4 0F000000 		.4byte	.LVL61-1
 12731 05b8 0100     		.2byte	0x1
 12732 05ba 52       		.byte	0x52
 12733 05bb 0F000000 		.4byte	.LVL61-1
 12734 05bf 56000000 		.4byte	.LVL67
 12735 05c3 0100     		.2byte	0x1
 12736 05c5 54       		.byte	0x54
 12737 05c6 56000000 		.4byte	.LVL67
 12738 05ca 82000000 		.4byte	.LFE180
 12739 05ce 0200     		.2byte	0x2
 12740 05d0 91       		.byte	0x91
 12741 05d1 64       		.sleb128 -28
 12742 05d2 00000000 		.4byte	0
 12743 05d6 00000000 		.4byte	0
 12744              	.LLST41:
 12745 05da 00000000 		.4byte	.LVL60
 12746 05de 0F000000 		.4byte	.LVL61-1
 12747 05e2 0100     		.2byte	0x1
 12748 05e4 53       		.byte	0x53
 12749 05e5 0F000000 		.4byte	.LVL61-1
 12750 05e9 80000000 		.4byte	.LVL72
 12751 05ed 0100     		.2byte	0x1
 12752 05ef 55       		.byte	0x55
 12753 05f0 80000000 		.4byte	.LVL72
 12754 05f4 82000000 		.4byte	.LFE180
 12755 05f8 0400     		.2byte	0x4
 12756 05fa F3       		.byte	0xf3
 12757 05fb 01       		.uleb128 0x1
 12758 05fc 53       		.byte	0x53
 12759 05fd 9F       		.byte	0x9f
 12760 05fe 00000000 		.4byte	0
 12761 0602 00000000 		.4byte	0
ARM GAS  C:\Users\haske\AppData\Local\Temp\ccxUXv8a.s 			page 265


 12762              	.LLST42:
 12763 0606 12000000 		.4byte	.LVL62
 12764 060a 30000000 		.4byte	.LVL63
 12765 060e 0100     		.2byte	0x1
 12766 0610 50       		.byte	0x50
 12767 0611 30000000 		.4byte	.LVL63
 12768 0615 80000000 		.4byte	.LVL73
 12769 0619 0100     		.2byte	0x1
 12770 061b 56       		.byte	0x56
 12771 061c 00000000 		.4byte	0
 12772 0620 00000000 		.4byte	0
 12773              	.LLST43:
 12774 0624 56000000 		.4byte	.LVL67
 12775 0628 62000000 		.4byte	.LVL68
 12776 062c 0100     		.2byte	0x1
 12777 062e 50       		.byte	0x50
 12778 062f 62000000 		.4byte	.LVL68
 12779 0633 80000000 		.4byte	.LVL71
 12780 0637 0100     		.2byte	0x1
 12781 0639 54       		.byte	0x54
 12782 063a 00000000 		.4byte	0
 12783 063e 00000000 		.4byte	0
 12784              	.LLST44:
 12785 0642 00000000 		.4byte	.LVL75
 12786 0646 4C000000 		.4byte	.LVL81
 12787 064a 0100     		.2byte	0x1
 12788 064c 50       		.byte	0x50
 12789 064d 4C000000 		.4byte	.LVL81
 12790 0651 94000000 		.4byte	.LVL91
 12791 0655 0100     		.2byte	0x1
 12792 0657 56       		.byte	0x56
 12793 0658 94000000 		.4byte	.LVL91
 12794 065c 9E000000 		.4byte	.LFE167
 12795 0660 0400     		.2byte	0x4
 12796 0662 F3       		.byte	0xf3
 12797 0663 01       		.uleb128 0x1
 12798 0664 50       		.byte	0x50
 12799 0665 9F       		.byte	0x9f
 12800 0666 00000000 		.4byte	0
 12801 066a 00000000 		.4byte	0
 12802              	.LLST45:
 12803 066e 00000000 		.4byte	.LVL75
 12804 0672 53000000 		.4byte	.LVL82-1
 12805 0676 0100     		.2byte	0x1
 12806 0678 51       		.byte	0x51
 12807 0679 53000000 		.4byte	.LVL82-1
 12808 067d 68000000 		.4byte	.LVL85
 12809 0681 0100     		.2byte	0x1
 12810 0683 59       		.byte	0x59
 12811 0684 68000000 		.4byte	.LVL85
 12812 0688 9E000000 		.4byte	.LFE167
 12813 068c 0400     		.2byte	0x4
 12814 068e F3       		.byte	0xf3
 12815 068f 01       		.uleb128 0x1
 12816 0690 51       		.byte	0x51
 12817 0691 9F       		.byte	0x9f
 12818 0692 00000000 		.4byte	0
ARM GAS  C:\Users\haske\AppData\Local\Temp\ccxUXv8a.s 			page 266


 12819 0696 00000000 		.4byte	0
 12820              	.LLST46:
 12821 069a 00000000 		.4byte	.LVL75
 12822 069e 1A000000 		.4byte	.LVL77
 12823 06a2 0100     		.2byte	0x1
 12824 06a4 52       		.byte	0x52
 12825 06a5 1A000000 		.4byte	.LVL77
 12826 06a9 9E000000 		.4byte	.LFE167
 12827 06ad 0400     		.2byte	0x4
 12828 06af F3       		.byte	0xf3
 12829 06b0 01       		.uleb128 0x1
 12830 06b1 52       		.byte	0x52
 12831 06b2 9F       		.byte	0x9f
 12832 06b3 00000000 		.4byte	0
 12833 06b7 00000000 		.4byte	0
 12834              	.LLST47:
 12835 06bb 00000000 		.4byte	.LVL75
 12836 06bf 16000000 		.4byte	.LVL76
 12837 06c3 0100     		.2byte	0x1
 12838 06c5 53       		.byte	0x53
 12839 06c6 16000000 		.4byte	.LVL76
 12840 06ca 9E000000 		.4byte	.LFE167
 12841 06ce 0400     		.2byte	0x4
 12842 06d0 F3       		.byte	0xf3
 12843 06d1 01       		.uleb128 0x1
 12844 06d2 53       		.byte	0x53
 12845 06d3 9F       		.byte	0x9f
 12846 06d4 00000000 		.4byte	0
 12847 06d8 00000000 		.4byte	0
 12848              	.LLST48:
 12849 06dc 00000000 		.4byte	.LVL75
 12850 06e0 16000000 		.4byte	.LVL76
 12851 06e4 0200     		.2byte	0x2
 12852 06e6 91       		.byte	0x91
 12853 06e7 00       		.sleb128 0
 12854 06e8 16000000 		.4byte	.LVL76
 12855 06ec 1A000000 		.4byte	.LVL77
 12856 06f0 0200     		.2byte	0x2
 12857 06f2 73       		.byte	0x73
 12858 06f3 00       		.sleb128 0
 12859 06f4 1A000000 		.4byte	.LVL77
 12860 06f8 9E000000 		.4byte	.LFE167
 12861 06fc 0200     		.2byte	0x2
 12862 06fe 91       		.byte	0x91
 12863 06ff 00       		.sleb128 0
 12864 0700 00000000 		.4byte	0
 12865 0704 00000000 		.4byte	0
 12866              	.LLST49:
 12867 0708 00000000 		.4byte	.LVL75
 12868 070c 16000000 		.4byte	.LVL76
 12869 0710 0200     		.2byte	0x2
 12870 0712 91       		.byte	0x91
 12871 0713 04       		.sleb128 4
 12872 0714 16000000 		.4byte	.LVL76
 12873 0718 1A000000 		.4byte	.LVL77
 12874 071c 0200     		.2byte	0x2
 12875 071e 73       		.byte	0x73
ARM GAS  C:\Users\haske\AppData\Local\Temp\ccxUXv8a.s 			page 267


 12876 071f 04       		.sleb128 4
 12877 0720 1A000000 		.4byte	.LVL77
 12878 0724 1E000000 		.4byte	.LVL78
 12879 0728 0200     		.2byte	0x2
 12880 072a 91       		.byte	0x91
 12881 072b 04       		.sleb128 4
 12882 072c 1E000000 		.4byte	.LVL78
 12883 0730 22000000 		.4byte	.LVL79
 12884 0734 0200     		.2byte	0x2
 12885 0736 73       		.byte	0x73
 12886 0737 00       		.sleb128 0
 12887 0738 22000000 		.4byte	.LVL79
 12888 073c 9E000000 		.4byte	.LFE167
 12889 0740 0200     		.2byte	0x2
 12890 0742 91       		.byte	0x91
 12891 0743 04       		.sleb128 4
 12892 0744 00000000 		.4byte	0
 12893 0748 00000000 		.4byte	0
 12894              	.LLST50:
 12895 074c 2A000000 		.4byte	.LVL80
 12896 0750 4C000000 		.4byte	.LVL81
 12897 0754 0100     		.2byte	0x1
 12898 0756 50       		.byte	0x50
 12899 0757 4C000000 		.4byte	.LVL81
 12900 075b 94000000 		.4byte	.LVL91
 12901 075f 0100     		.2byte	0x1
 12902 0761 56       		.byte	0x56
 12903 0762 94000000 		.4byte	.LVL91
 12904 0766 9E000000 		.4byte	.LFE167
 12905 076a 0400     		.2byte	0x4
 12906 076c F3       		.byte	0xf3
 12907 076d 01       		.uleb128 0x1
 12908 076e 50       		.byte	0x50
 12909 076f 9F       		.byte	0x9f
 12910 0770 00000000 		.4byte	0
 12911 0774 00000000 		.4byte	0
 12912              	.LLST51:
 12913 0778 58000000 		.4byte	.LVL83
 12914 077c 92000000 		.4byte	.LVL90
 12915 0780 0100     		.2byte	0x1
 12916 0782 55       		.byte	0x55
 12917 0783 00000000 		.4byte	0
 12918 0787 00000000 		.4byte	0
 12919              	.LLST52:
 12920 078b 64000000 		.4byte	.LVL84
 12921 078f 92000000 		.4byte	.LVL90
 12922 0793 0100     		.2byte	0x1
 12923 0795 54       		.byte	0x54
 12924 0796 00000000 		.4byte	0
 12925 079a 00000000 		.4byte	0
 12926              	.LLST53:
 12927 079e 64000000 		.4byte	.LVL84
 12928 07a2 92000000 		.4byte	.LVL90
 12929 07a6 0100     		.2byte	0x1
 12930 07a8 59       		.byte	0x59
 12931 07a9 00000000 		.4byte	0
 12932 07ad 00000000 		.4byte	0
ARM GAS  C:\Users\haske\AppData\Local\Temp\ccxUXv8a.s 			page 268


 12933              	.LLST54:
 12934 07b1 64000000 		.4byte	.LVL84
 12935 07b5 68000000 		.4byte	.LVL85
 12936 07b9 0200     		.2byte	0x2
 12937 07bb 30       		.byte	0x30
 12938 07bc 9F       		.byte	0x9f
 12939 07bd 68000000 		.4byte	.LVL85
 12940 07c1 92000000 		.4byte	.LVL90
 12941 07c5 0100     		.2byte	0x1
 12942 07c7 57       		.byte	0x57
 12943 07c8 00000000 		.4byte	0
 12944 07cc 00000000 		.4byte	0
 12945              	.LLST55:
 12946 07d0 00000000 		.4byte	.LVL92
 12947 07d4 3C000000 		.4byte	.LVL101
 12948 07d8 0100     		.2byte	0x1
 12949 07da 50       		.byte	0x50
 12950 07db 3C000000 		.4byte	.LVL101
 12951 07df 96000000 		.4byte	.LVL107
 12952 07e3 0100     		.2byte	0x1
 12953 07e5 57       		.byte	0x57
 12954 07e6 96000000 		.4byte	.LVL107
 12955 07ea A2000000 		.4byte	.LVL109
 12956 07ee 0100     		.2byte	0x1
 12957 07f0 52       		.byte	0x52
 12958 07f1 A2000000 		.4byte	.LVL109
 12959 07f5 3A010000 		.4byte	.LVL119
 12960 07f9 0100     		.2byte	0x1
 12961 07fb 56       		.byte	0x56
 12962 07fc 3A010000 		.4byte	.LVL119
 12963 0800 41010000 		.4byte	.LVL121-1
 12964 0804 0100     		.2byte	0x1
 12965 0806 53       		.byte	0x53
 12966 0807 41010000 		.4byte	.LVL121-1
 12967 080b 50010000 		.4byte	.LVL125
 12968 080f 0100     		.2byte	0x1
 12969 0811 57       		.byte	0x57
 12970 0812 50010000 		.4byte	.LVL125
 12971 0816 5C010000 		.4byte	.LFE168
 12972 081a 0400     		.2byte	0x4
 12973 081c F3       		.byte	0xf3
 12974 081d 01       		.uleb128 0x1
 12975 081e 50       		.byte	0x50
 12976 081f 9F       		.byte	0x9f
 12977 0820 00000000 		.4byte	0
 12978 0824 00000000 		.4byte	0
 12979              	.LLST56:
 12980 0828 00000000 		.4byte	.LVL92
 12981 082c 3F000000 		.4byte	.LVL102-1
 12982 0830 0100     		.2byte	0x1
 12983 0832 51       		.byte	0x51
 12984 0833 3F000000 		.4byte	.LVL102-1
 12985 0837 50010000 		.4byte	.LVL128
 12986 083b 0100     		.2byte	0x1
 12987 083d 5B       		.byte	0x5b
 12988 083e 50010000 		.4byte	.LVL128
 12989 0842 5C010000 		.4byte	.LFE168
ARM GAS  C:\Users\haske\AppData\Local\Temp\ccxUXv8a.s 			page 269


 12990 0846 0400     		.2byte	0x4
 12991 0848 F3       		.byte	0xf3
 12992 0849 01       		.uleb128 0x1
 12993 084a 51       		.byte	0x51
 12994 084b 9F       		.byte	0x9f
 12995 084c 00000000 		.4byte	0
 12996 0850 00000000 		.4byte	0
 12997              	.LLST57:
 12998 0854 00000000 		.4byte	.LVL92
 12999 0858 22000000 		.4byte	.LVL96
 13000 085c 0100     		.2byte	0x1
 13001 085e 52       		.byte	0x52
 13002 085f 22000000 		.4byte	.LVL96
 13003 0863 5C010000 		.4byte	.LFE168
 13004 0867 0400     		.2byte	0x4
 13005 0869 F3       		.byte	0xf3
 13006 086a 01       		.uleb128 0x1
 13007 086b 52       		.byte	0x52
 13008 086c 9F       		.byte	0x9f
 13009 086d 00000000 		.4byte	0
 13010 0871 00000000 		.4byte	0
 13011              	.LLST58:
 13012 0875 00000000 		.4byte	.LVL92
 13013 0879 18000000 		.4byte	.LVL93
 13014 087d 0100     		.2byte	0x1
 13015 087f 53       		.byte	0x53
 13016 0880 18000000 		.4byte	.LVL93
 13017 0884 5C010000 		.4byte	.LFE168
 13018 0888 0400     		.2byte	0x4
 13019 088a F3       		.byte	0xf3
 13020 088b 01       		.uleb128 0x1
 13021 088c 53       		.byte	0x53
 13022 088d 9F       		.byte	0x9f
 13023 088e 00000000 		.4byte	0
 13024 0892 00000000 		.4byte	0
 13025              	.LLST59:
 13026 0896 00000000 		.4byte	.LVL92
 13027 089a 18000000 		.4byte	.LVL93
 13028 089e 0200     		.2byte	0x2
 13029 08a0 91       		.byte	0x91
 13030 08a1 00       		.sleb128 0
 13031 08a2 18000000 		.4byte	.LVL93
 13032 08a6 1C000000 		.4byte	.LVL94
 13033 08aa 0200     		.2byte	0x2
 13034 08ac 73       		.byte	0x73
 13035 08ad 00       		.sleb128 0
 13036 08ae 1C000000 		.4byte	.LVL94
 13037 08b2 5C010000 		.4byte	.LFE168
 13038 08b6 0200     		.2byte	0x2
 13039 08b8 91       		.byte	0x91
 13040 08b9 00       		.sleb128 0
 13041 08ba 00000000 		.4byte	0
 13042 08be 00000000 		.4byte	0
 13043              	.LLST60:
 13044 08c2 00000000 		.4byte	.LVL92
 13045 08c6 18000000 		.4byte	.LVL93
 13046 08ca 0200     		.2byte	0x2
ARM GAS  C:\Users\haske\AppData\Local\Temp\ccxUXv8a.s 			page 270


 13047 08cc 91       		.byte	0x91
 13048 08cd 04       		.sleb128 4
 13049 08ce 18000000 		.4byte	.LVL93
 13050 08d2 1C000000 		.4byte	.LVL94
 13051 08d6 0200     		.2byte	0x2
 13052 08d8 73       		.byte	0x73
 13053 08d9 04       		.sleb128 4
 13054 08da 1C000000 		.4byte	.LVL94
 13055 08de 1E000000 		.4byte	.LVL95
 13056 08e2 0200     		.2byte	0x2
 13057 08e4 91       		.byte	0x91
 13058 08e5 04       		.sleb128 4
 13059 08e6 1E000000 		.4byte	.LVL95
 13060 08ea 22000000 		.4byte	.LVL96
 13061 08ee 0200     		.2byte	0x2
 13062 08f0 73       		.byte	0x73
 13063 08f1 00       		.sleb128 0
 13064 08f2 22000000 		.4byte	.LVL96
 13065 08f6 5C010000 		.4byte	.LFE168
 13066 08fa 0200     		.2byte	0x2
 13067 08fc 91       		.byte	0x91
 13068 08fd 04       		.sleb128 4
 13069 08fe 00000000 		.4byte	0
 13070 0902 00000000 		.4byte	0
 13071              	.LLST61:
 13072 0906 00000000 		.4byte	.LVL92
 13073 090a 18000000 		.4byte	.LVL93
 13074 090e 0200     		.2byte	0x2
 13075 0910 91       		.byte	0x91
 13076 0911 08       		.sleb128 8
 13077 0912 18000000 		.4byte	.LVL93
 13078 0916 1C000000 		.4byte	.LVL94
 13079 091a 0200     		.2byte	0x2
 13080 091c 73       		.byte	0x73
 13081 091d 08       		.sleb128 8
 13082 091e 1C000000 		.4byte	.LVL94
 13083 0922 5C010000 		.4byte	.LFE168
 13084 0926 0200     		.2byte	0x2
 13085 0928 91       		.byte	0x91
 13086 0929 08       		.sleb128 8
 13087 092a 00000000 		.4byte	0
 13088 092e 00000000 		.4byte	0
 13089              	.LLST62:
 13090 0932 00000000 		.4byte	.LVL92
 13091 0936 18000000 		.4byte	.LVL93
 13092 093a 0200     		.2byte	0x2
 13093 093c 91       		.byte	0x91
 13094 093d 0C       		.sleb128 12
 13095 093e 18000000 		.4byte	.LVL93
 13096 0942 1C000000 		.4byte	.LVL94
 13097 0946 0200     		.2byte	0x2
 13098 0948 73       		.byte	0x73
 13099 0949 0C       		.sleb128 12
 13100 094a 1C000000 		.4byte	.LVL94
 13101 094e 5C010000 		.4byte	.LFE168
 13102 0952 0200     		.2byte	0x2
 13103 0954 91       		.byte	0x91
ARM GAS  C:\Users\haske\AppData\Local\Temp\ccxUXv8a.s 			page 271


 13104 0955 0C       		.sleb128 12
 13105 0956 00000000 		.4byte	0
 13106 095a 00000000 		.4byte	0
 13107              	.LLST63:
 13108 095e 00000000 		.4byte	.LVL92
 13109 0962 18000000 		.4byte	.LVL93
 13110 0966 0200     		.2byte	0x2
 13111 0968 91       		.byte	0x91
 13112 0969 10       		.sleb128 16
 13113 096a 18000000 		.4byte	.LVL93
 13114 096e 1C000000 		.4byte	.LVL94
 13115 0972 0200     		.2byte	0x2
 13116 0974 73       		.byte	0x73
 13117 0975 10       		.sleb128 16
 13118 0976 1C000000 		.4byte	.LVL94
 13119 097a 26000000 		.4byte	.LVL97
 13120 097e 0200     		.2byte	0x2
 13121 0980 91       		.byte	0x91
 13122 0981 10       		.sleb128 16
 13123 0982 26000000 		.4byte	.LVL97
 13124 0986 30000000 		.4byte	.LVL99
 13125 098a 0200     		.2byte	0x2
 13126 098c 73       		.byte	0x73
 13127 098d 00       		.sleb128 0
 13128 098e 30000000 		.4byte	.LVL99
 13129 0992 5C010000 		.4byte	.LFE168
 13130 0996 0200     		.2byte	0x2
 13131 0998 91       		.byte	0x91
 13132 0999 10       		.sleb128 16
 13133 099a 00000000 		.4byte	0
 13134 099e 00000000 		.4byte	0
 13135              	.LLST64:
 13136 09a2 2E000000 		.4byte	.LVL98
 13137 09a6 3C000000 		.4byte	.LVL101
 13138 09aa 0100     		.2byte	0x1
 13139 09ac 50       		.byte	0x50
 13140 09ad 3C000000 		.4byte	.LVL101
 13141 09b1 96000000 		.4byte	.LVL107
 13142 09b5 0100     		.2byte	0x1
 13143 09b7 57       		.byte	0x57
 13144 09b8 96000000 		.4byte	.LVL107
 13145 09bc A2000000 		.4byte	.LVL109
 13146 09c0 0100     		.2byte	0x1
 13147 09c2 52       		.byte	0x52
 13148 09c3 A2000000 		.4byte	.LVL109
 13149 09c7 3A010000 		.4byte	.LVL119
 13150 09cb 0100     		.2byte	0x1
 13151 09cd 56       		.byte	0x56
 13152 09ce 3A010000 		.4byte	.LVL119
 13153 09d2 41010000 		.4byte	.LVL121-1
 13154 09d6 0100     		.2byte	0x1
 13155 09d8 53       		.byte	0x53
 13156 09d9 41010000 		.4byte	.LVL121-1
 13157 09dd 50010000 		.4byte	.LVL125
 13158 09e1 0100     		.2byte	0x1
 13159 09e3 57       		.byte	0x57
 13160 09e4 50010000 		.4byte	.LVL125
ARM GAS  C:\Users\haske\AppData\Local\Temp\ccxUXv8a.s 			page 272


 13161 09e8 5C010000 		.4byte	.LFE168
 13162 09ec 0400     		.2byte	0x4
 13163 09ee F3       		.byte	0xf3
 13164 09ef 01       		.uleb128 0x1
 13165 09f0 50       		.byte	0x50
 13166 09f1 9F       		.byte	0x9f
 13167 09f2 00000000 		.4byte	0
 13168 09f6 00000000 		.4byte	0
 13169              	.LLST65:
 13170 09fa 38000000 		.4byte	.LVL100
 13171 09fe 3F000000 		.4byte	.LVL102-1
 13172 0a02 0100     		.2byte	0x1
 13173 0a04 53       		.byte	0x53
 13174 0a05 3F000000 		.4byte	.LVL102-1
 13175 0a09 5C010000 		.4byte	.LFE168
 13176 0a0d 0300     		.2byte	0x3
 13177 0a0f 91       		.byte	0x91
 13178 0a10 AC7F     		.sleb128 -84
 13179 0a12 00000000 		.4byte	0
 13180 0a16 00000000 		.4byte	0
 13181              	.LLST66:
 13182 0a1a DC000000 		.4byte	.LVL112
 13183 0a1e E0000000 		.4byte	.LVL113
 13184 0a22 0200     		.2byte	0x2
 13185 0a24 30       		.byte	0x30
 13186 0a25 9F       		.byte	0x9f
 13187 0a26 E0000000 		.4byte	.LVL113
 13188 0a2a 28010000 		.4byte	.LVL117
 13189 0a2e 0100     		.2byte	0x1
 13190 0a30 54       		.byte	0x54
 13191 0a31 00000000 		.4byte	0
 13192 0a35 00000000 		.4byte	0
 13193              	.LLST67:
 13194 0a39 8E000000 		.4byte	.LVL106
 13195 0a3d A2000000 		.4byte	.LVL109
 13196 0a41 0200     		.2byte	0x2
 13197 0a43 30       		.byte	0x30
 13198 0a44 9F       		.byte	0x9f
 13199 0a45 A2000000 		.4byte	.LVL109
 13200 0a49 AA000000 		.4byte	.LVL110
 13201 0a4d 0100     		.2byte	0x1
 13202 0a4f 59       		.byte	0x59
 13203 0a50 AA000000 		.4byte	.LVL110
 13204 0a54 B2000000 		.4byte	.LVL111
 13205 0a58 0100     		.2byte	0x1
 13206 0a5a 52       		.byte	0x52
 13207 0a5b B2000000 		.4byte	.LVL111
 13208 0a5f 50010000 		.4byte	.LVL126
 13209 0a63 0100     		.2byte	0x1
 13210 0a65 59       		.byte	0x59
 13211 0a66 00000000 		.4byte	0
 13212 0a6a 00000000 		.4byte	0
 13213              	.LLST68:
 13214 0a6e 84000000 		.4byte	.LVL104
 13215 0a72 88000000 		.4byte	.LVL105
 13216 0a76 0100     		.2byte	0x1
 13217 0a78 50       		.byte	0x50
ARM GAS  C:\Users\haske\AppData\Local\Temp\ccxUXv8a.s 			page 273


 13218 0a79 88000000 		.4byte	.LVL105
 13219 0a7d 9E000000 		.4byte	.LVL108
 13220 0a81 0100     		.2byte	0x1
 13221 0a83 58       		.byte	0x58
 13222 0a84 9E000000 		.4byte	.LVL108
 13223 0a88 50010000 		.4byte	.LVL127
 13224 0a8c 0100     		.2byte	0x1
 13225 0a8e 5A       		.byte	0x5a
 13226 0a8f 00000000 		.4byte	0
 13227 0a93 00000000 		.4byte	0
 13228              	.LLST69:
 13229 0a97 8E000000 		.4byte	.LVL106
 13230 0a9b A2000000 		.4byte	.LVL109
 13231 0a9f 0100     		.2byte	0x1
 13232 0aa1 50       		.byte	0x50
 13233 0aa2 A2000000 		.4byte	.LVL109
 13234 0aa6 3C010000 		.4byte	.LVL120
 13235 0aaa 0100     		.2byte	0x1
 13236 0aac 57       		.byte	0x57
 13237 0aad 3C010000 		.4byte	.LVL120
 13238 0ab1 50010000 		.4byte	.LVL124
 13239 0ab5 0100     		.2byte	0x1
 13240 0ab7 56       		.byte	0x56
 13241 0ab8 00000000 		.4byte	0
 13242 0abc 00000000 		.4byte	0
 13243              	.LLST70:
 13244 0ac0 00000000 		.4byte	.LVL129
 13245 0ac4 2E000000 		.4byte	.LVL134
 13246 0ac8 0100     		.2byte	0x1
 13247 0aca 50       		.byte	0x50
 13248 0acb 2E000000 		.4byte	.LVL134
 13249 0acf 6E000000 		.4byte	.LVL137
 13250 0ad3 0100     		.2byte	0x1
 13251 0ad5 59       		.byte	0x59
 13252 0ad6 6E000000 		.4byte	.LVL137
 13253 0ada 88000000 		.4byte	.LVL139
 13254 0ade 0100     		.2byte	0x1
 13255 0ae0 50       		.byte	0x50
 13256 0ae1 88000000 		.4byte	.LVL139
 13257 0ae5 64030000 		.4byte	.LVL238
 13258 0ae9 0100     		.2byte	0x1
 13259 0aeb 59       		.byte	0x59
 13260 0aec 64030000 		.4byte	.LVL238
 13261 0af0 7C030000 		.4byte	.LFE169
 13262 0af4 0400     		.2byte	0x4
 13263 0af6 F3       		.byte	0xf3
 13264 0af7 01       		.uleb128 0x1
 13265 0af8 50       		.byte	0x50
 13266 0af9 9F       		.byte	0x9f
 13267 0afa 00000000 		.4byte	0
 13268 0afe 00000000 		.4byte	0
 13269              	.LLST71:
 13270 0b02 00000000 		.4byte	.LVL129
 13271 0b06 34000000 		.4byte	.LVL135
 13272 0b0a 0100     		.2byte	0x1
 13273 0b0c 51       		.byte	0x51
 13274 0b0d 34000000 		.4byte	.LVL135
ARM GAS  C:\Users\haske\AppData\Local\Temp\ccxUXv8a.s 			page 274


 13275 0b11 6E000000 		.4byte	.LVL137
 13276 0b15 0400     		.2byte	0x4
 13277 0b17 F3       		.byte	0xf3
 13278 0b18 01       		.uleb128 0x1
 13279 0b19 51       		.byte	0x51
 13280 0b1a 9F       		.byte	0x9f
 13281 0b1b 6E000000 		.4byte	.LVL137
 13282 0b1f 88000000 		.4byte	.LVL139
 13283 0b23 0100     		.2byte	0x1
 13284 0b25 51       		.byte	0x51
 13285 0b26 88000000 		.4byte	.LVL139
 13286 0b2a 7C030000 		.4byte	.LFE169
 13287 0b2e 0400     		.2byte	0x4
 13288 0b30 F3       		.byte	0xf3
 13289 0b31 01       		.uleb128 0x1
 13290 0b32 51       		.byte	0x51
 13291 0b33 9F       		.byte	0x9f
 13292 0b34 00000000 		.4byte	0
 13293 0b38 00000000 		.4byte	0
 13294              	.LLST72:
 13295 0b3c 00000000 		.4byte	.LVL129
 13296 0b40 28000000 		.4byte	.LVL133
 13297 0b44 0100     		.2byte	0x1
 13298 0b46 52       		.byte	0x52
 13299 0b47 28000000 		.4byte	.LVL133
 13300 0b4b 6E000000 		.4byte	.LVL137
 13301 0b4f 0400     		.2byte	0x4
 13302 0b51 F3       		.byte	0xf3
 13303 0b52 01       		.uleb128 0x1
 13304 0b53 52       		.byte	0x52
 13305 0b54 9F       		.byte	0x9f
 13306 0b55 6E000000 		.4byte	.LVL137
 13307 0b59 70000000 		.4byte	.LVL138
 13308 0b5d 0100     		.2byte	0x1
 13309 0b5f 52       		.byte	0x52
 13310 0b60 70000000 		.4byte	.LVL138
 13311 0b64 7C030000 		.4byte	.LFE169
 13312 0b68 0400     		.2byte	0x4
 13313 0b6a F3       		.byte	0xf3
 13314 0b6b 01       		.uleb128 0x1
 13315 0b6c 52       		.byte	0x52
 13316 0b6d 9F       		.byte	0x9f
 13317 0b6e 00000000 		.4byte	0
 13318 0b72 00000000 		.4byte	0
 13319              	.LLST73:
 13320 0b76 18000000 		.4byte	.LVL130
 13321 0b7a 2E000000 		.4byte	.LVL134
 13322 0b7e 0100     		.2byte	0x1
 13323 0b80 50       		.byte	0x50
 13324 0b81 2E000000 		.4byte	.LVL134
 13325 0b85 6E000000 		.4byte	.LVL137
 13326 0b89 0100     		.2byte	0x1
 13327 0b8b 59       		.byte	0x59
 13328 0b8c 6E000000 		.4byte	.LVL137
 13329 0b90 88000000 		.4byte	.LVL139
 13330 0b94 0100     		.2byte	0x1
 13331 0b96 50       		.byte	0x50
ARM GAS  C:\Users\haske\AppData\Local\Temp\ccxUXv8a.s 			page 275


 13332 0b97 88000000 		.4byte	.LVL139
 13333 0b9b 62030000 		.4byte	.LVL236
 13334 0b9f 0100     		.2byte	0x1
 13335 0ba1 59       		.byte	0x59
 13336 0ba2 00000000 		.4byte	0
 13337 0ba6 00000000 		.4byte	0
 13338              	.LLST74:
 13339 0baa 9C000000 		.4byte	.LVL143
 13340 0bae A6000000 		.4byte	.LVL144
 13341 0bb2 0100     		.2byte	0x1
 13342 0bb4 52       		.byte	0x52
 13343 0bb5 A6000000 		.4byte	.LVL144
 13344 0bb9 A8000000 		.4byte	.LVL145
 13345 0bbd 0300     		.2byte	0x3
 13346 0bbf 91       		.byte	0x91
 13347 0bc0 B07F     		.sleb128 -80
 13348 0bc2 A8000000 		.4byte	.LVL145
 13349 0bc6 AC000000 		.4byte	.LVL146
 13350 0bca 0100     		.2byte	0x1
 13351 0bcc 52       		.byte	0x52
 13352 0bcd AC000000 		.4byte	.LVL146
 13353 0bd1 62030000 		.4byte	.LVL236
 13354 0bd5 0300     		.2byte	0x3
 13355 0bd7 91       		.byte	0x91
 13356 0bd8 B07F     		.sleb128 -80
 13357 0bda 00000000 		.4byte	0
 13358 0bde 00000000 		.4byte	0
 13359              	.LLST75:
 13360 0be2 9C000000 		.4byte	.LVL143
 13361 0be6 B9000000 		.4byte	.LVL147-1
 13362 0bea 0100     		.2byte	0x1
 13363 0bec 52       		.byte	0x52
 13364 0bed B9000000 		.4byte	.LVL147-1
 13365 0bf1 62030000 		.4byte	.LVL236
 13366 0bf5 0300     		.2byte	0x3
 13367 0bf7 91       		.byte	0x91
 13368 0bf8 907F     		.sleb128 -112
 13369 0bfa 00000000 		.4byte	0
 13370 0bfe 00000000 		.4byte	0
 13371              	.LLST76:
 13372 0c02 BC000000 		.4byte	.LVL148
 13373 0c06 C2000000 		.4byte	.LVL149
 13374 0c0a 0100     		.2byte	0x1
 13375 0c0c 50       		.byte	0x50
 13376 0c0d C2000000 		.4byte	.LVL149
 13377 0c11 8E010000 		.4byte	.LVL165
 13378 0c15 0100     		.2byte	0x1
 13379 0c17 58       		.byte	0x58
 13380 0c18 8E010000 		.4byte	.LVL165
 13381 0c1c 97010000 		.4byte	.LVL166-1
 13382 0c20 0100     		.2byte	0x1
 13383 0c22 53       		.byte	0x53
 13384 0c23 97010000 		.4byte	.LVL166-1
 13385 0c27 B2010000 		.4byte	.LVL171
 13386 0c2b 0100     		.2byte	0x1
 13387 0c2d 58       		.byte	0x58
 13388 0c2e B2010000 		.4byte	.LVL171
ARM GAS  C:\Users\haske\AppData\Local\Temp\ccxUXv8a.s 			page 276


 13389 0c32 B4010000 		.4byte	.LVL172
 13390 0c36 0100     		.2byte	0x1
 13391 0c38 53       		.byte	0x53
 13392 0c39 B4010000 		.4byte	.LVL172
 13393 0c3d E0010000 		.4byte	.LVL181
 13394 0c41 0100     		.2byte	0x1
 13395 0c43 58       		.byte	0x58
 13396 0c44 E0010000 		.4byte	.LVL181
 13397 0c48 E2010000 		.4byte	.LVL182
 13398 0c4c 0100     		.2byte	0x1
 13399 0c4e 53       		.byte	0x53
 13400 0c4f E2010000 		.4byte	.LVL182
 13401 0c53 30020000 		.4byte	.LVL190
 13402 0c57 0100     		.2byte	0x1
 13403 0c59 58       		.byte	0x58
 13404 0c5a 30020000 		.4byte	.LVL190
 13405 0c5e 37020000 		.4byte	.LVL191-1
 13406 0c62 0100     		.2byte	0x1
 13407 0c64 53       		.byte	0x53
 13408 0c65 37020000 		.4byte	.LVL191-1
 13409 0c69 50020000 		.4byte	.LVL194
 13410 0c6d 0100     		.2byte	0x1
 13411 0c6f 58       		.byte	0x58
 13412 0c70 50020000 		.4byte	.LVL194
 13413 0c74 56020000 		.4byte	.LVL195
 13414 0c78 0100     		.2byte	0x1
 13415 0c7a 53       		.byte	0x53
 13416 0c7b 56020000 		.4byte	.LVL195
 13417 0c7f 88020000 		.4byte	.LVL203
 13418 0c83 0100     		.2byte	0x1
 13419 0c85 58       		.byte	0x58
 13420 0c86 88020000 		.4byte	.LVL203
 13421 0c8a 91020000 		.4byte	.LVL204-1
 13422 0c8e 0100     		.2byte	0x1
 13423 0c90 53       		.byte	0x53
 13424 0c91 91020000 		.4byte	.LVL204-1
 13425 0c95 B0020000 		.4byte	.LVL211
 13426 0c99 0100     		.2byte	0x1
 13427 0c9b 58       		.byte	0x58
 13428 0c9c B0020000 		.4byte	.LVL211
 13429 0ca0 B2020000 		.4byte	.LVL212
 13430 0ca4 0100     		.2byte	0x1
 13431 0ca6 53       		.byte	0x53
 13432 0ca7 B2020000 		.4byte	.LVL212
 13433 0cab FC020000 		.4byte	.LVL219
 13434 0caf 0100     		.2byte	0x1
 13435 0cb1 58       		.byte	0x58
 13436 0cb2 FC020000 		.4byte	.LVL219
 13437 0cb6 05030000 		.4byte	.LVL220-1
 13438 0cba 0100     		.2byte	0x1
 13439 0cbc 53       		.byte	0x53
 13440 0cbd 05030000 		.4byte	.LVL220-1
 13441 0cc1 20030000 		.4byte	.LVL225
 13442 0cc5 0100     		.2byte	0x1
 13443 0cc7 58       		.byte	0x58
 13444 0cc8 20030000 		.4byte	.LVL225
 13445 0ccc 22030000 		.4byte	.LVL226
ARM GAS  C:\Users\haske\AppData\Local\Temp\ccxUXv8a.s 			page 277


 13446 0cd0 0100     		.2byte	0x1
 13447 0cd2 53       		.byte	0x53
 13448 0cd3 22030000 		.4byte	.LVL226
 13449 0cd7 2C030000 		.4byte	.LVL230
 13450 0cdb 0100     		.2byte	0x1
 13451 0cdd 58       		.byte	0x58
 13452 0cde 2C030000 		.4byte	.LVL230
 13453 0ce2 30030000 		.4byte	.LVL231
 13454 0ce6 0100     		.2byte	0x1
 13455 0ce8 53       		.byte	0x53
 13456 0ce9 30030000 		.4byte	.LVL231
 13457 0ced 62030000 		.4byte	.LVL236
 13458 0cf1 0100     		.2byte	0x1
 13459 0cf3 58       		.byte	0x58
 13460 0cf4 00000000 		.4byte	0
 13461 0cf8 00000000 		.4byte	0
 13462              	.LLST77:
 13463 0cfc D6000000 		.4byte	.LVL151
 13464 0d00 DD000000 		.4byte	.LVL152-1
 13465 0d04 0100     		.2byte	0x1
 13466 0d06 53       		.byte	0x53
 13467 0d07 DD000000 		.4byte	.LVL152-1
 13468 0d0b 62030000 		.4byte	.LVL236
 13469 0d0f 0300     		.2byte	0x3
 13470 0d11 91       		.byte	0x91
 13471 0d12 B87F     		.sleb128 -72
 13472 0d14 00000000 		.4byte	0
 13473 0d18 00000000 		.4byte	0
 13474              	.LLST78:
 13475 0d1c E0000000 		.4byte	.LVL153
 13476 0d20 FA000000 		.4byte	.LVL154
 13477 0d24 0100     		.2byte	0x1
 13478 0d26 50       		.byte	0x50
 13479 0d27 FA000000 		.4byte	.LVL154
 13480 0d2b 62030000 		.4byte	.LVL236
 13481 0d2f 0300     		.2byte	0x3
 13482 0d31 91       		.byte	0x91
 13483 0d32 B47F     		.sleb128 -76
 13484 0d34 00000000 		.4byte	0
 13485 0d38 00000000 		.4byte	0
 13486              	.LLST79:
 13487 0d3c 4C010000 		.4byte	.LVL158
 13488 0d40 5C010000 		.4byte	.LVL159
 13489 0d44 0100     		.2byte	0x1
 13490 0d46 55       		.byte	0x55
 13491 0d47 5C010000 		.4byte	.LVL159
 13492 0d4b BE010000 		.4byte	.LVL174
 13493 0d4f 0100     		.2byte	0x1
 13494 0d51 54       		.byte	0x54
 13495 0d52 C0010000 		.4byte	.LVL175
 13496 0d56 CE010000 		.4byte	.LVL176
 13497 0d5a 0100     		.2byte	0x1
 13498 0d5c 54       		.byte	0x54
 13499 0d5d EE010000 		.4byte	.LVL184
 13500 0d61 28030000 		.4byte	.LVL228
 13501 0d65 0100     		.2byte	0x1
 13502 0d67 55       		.byte	0x55
ARM GAS  C:\Users\haske\AppData\Local\Temp\ccxUXv8a.s 			page 278


 13503 0d68 28030000 		.4byte	.LVL228
 13504 0d6c 2A030000 		.4byte	.LVL229
 13505 0d70 0300     		.2byte	0x3
 13506 0d72 75       		.byte	0x75
 13507 0d73 7F       		.sleb128 -1
 13508 0d74 9F       		.byte	0x9f
 13509 0d75 2A030000 		.4byte	.LVL229
 13510 0d79 2C030000 		.4byte	.LVL230
 13511 0d7d 0100     		.2byte	0x1
 13512 0d7f 55       		.byte	0x55
 13513 0d80 34030000 		.4byte	.LVL233
 13514 0d84 48030000 		.4byte	.LVL234
 13515 0d88 0100     		.2byte	0x1
 13516 0d8a 55       		.byte	0x55
 13517 0d8b 00000000 		.4byte	0
 13518 0d8f 00000000 		.4byte	0
 13519              	.LLST80:
 13520 0d93 26010000 		.4byte	.LVL155
 13521 0d97 62030000 		.4byte	.LVL236
 13522 0d9b 0300     		.2byte	0x3
 13523 0d9d 91       		.byte	0x91
 13524 0d9e A87F     		.sleb128 -88
 13525 0da0 00000000 		.4byte	0
 13526 0da4 00000000 		.4byte	0
 13527              	.LLST81:
 13528 0da8 64010000 		.4byte	.LVL160
 13529 0dac 76010000 		.4byte	.LVL161
 13530 0db0 0100     		.2byte	0x1
 13531 0db2 55       		.byte	0x55
 13532 0db3 78010000 		.4byte	.LVL162
 13533 0db7 C0010000 		.4byte	.LVL175
 13534 0dbb 0100     		.2byte	0x1
 13535 0dbd 55       		.byte	0x55
 13536 0dbe 66020000 		.4byte	.LVL197
 13537 0dc2 70020000 		.4byte	.LVL198
 13538 0dc6 0100     		.2byte	0x1
 13539 0dc8 53       		.byte	0x53
 13540 0dc9 70020000 		.4byte	.LVL198
 13541 0dcd 74020000 		.4byte	.LVL199
 13542 0dd1 0800     		.2byte	0x8
 13543 0dd3 75       		.byte	0x75
 13544 0dd4 00       		.sleb128 0
 13545 0dd5 91       		.byte	0x91
 13546 0dd6 B07F     		.sleb128 -80
 13547 0dd8 06       		.byte	0x6
 13548 0dd9 1C       		.byte	0x1c
 13549 0dda 9F       		.byte	0x9f
 13550 0ddb 74020000 		.4byte	.LVL199
 13551 0ddf 7A020000 		.4byte	.LVL200
 13552 0de3 0100     		.2byte	0x1
 13553 0de5 52       		.byte	0x52
 13554 0de6 7A020000 		.4byte	.LVL200
 13555 0dea 7F020000 		.4byte	.LVL201-1
 13556 0dee 0100     		.2byte	0x1
 13557 0df0 51       		.byte	0x51
 13558 0df1 7F020000 		.4byte	.LVL201-1
 13559 0df5 BE020000 		.4byte	.LVL214
ARM GAS  C:\Users\haske\AppData\Local\Temp\ccxUXv8a.s 			page 279


 13560 0df9 0300     		.2byte	0x3
 13561 0dfb 91       		.byte	0x91
 13562 0dfc A47F     		.sleb128 -92
 13563 0dfe BE020000 		.4byte	.LVL214
 13564 0e02 D0020000 		.4byte	.LVL215
 13565 0e06 0100     		.2byte	0x1
 13566 0e08 52       		.byte	0x52
 13567 0e09 D0020000 		.4byte	.LVL215
 13568 0e0d D6020000 		.4byte	.LVL216
 13569 0e11 0A00     		.2byte	0xa
 13570 0e13 91       		.byte	0x91
 13571 0e14 907F     		.sleb128 -112
 13572 0e16 06       		.byte	0x6
 13573 0e17 75       		.byte	0x75
 13574 0e18 00       		.sleb128 0
 13575 0e19 22       		.byte	0x22
 13576 0e1a 23       		.byte	0x23
 13577 0e1b 01       		.uleb128 0x1
 13578 0e1c 9F       		.byte	0x9f
 13579 0e1d D6020000 		.4byte	.LVL216
 13580 0e21 F3020000 		.4byte	.LVL218-1
 13581 0e25 0100     		.2byte	0x1
 13582 0e27 51       		.byte	0x51
 13583 0e28 F3020000 		.4byte	.LVL218-1
 13584 0e2c 2C030000 		.4byte	.LVL230
 13585 0e30 0300     		.2byte	0x3
 13586 0e32 91       		.byte	0x91
 13587 0e33 A47F     		.sleb128 -92
 13588 0e35 00000000 		.4byte	0
 13589 0e39 00000000 		.4byte	0
 13590              	.LLST82:
 13591 0e3d 1C000000 		.4byte	.LVL131
 13592 0e41 34000000 		.4byte	.LVL135
 13593 0e45 0100     		.2byte	0x1
 13594 0e47 51       		.byte	0x51
 13595 0e48 34000000 		.4byte	.LVL135
 13596 0e4c 36000000 		.4byte	.LVL136
 13597 0e50 0400     		.2byte	0x4
 13598 0e52 F3       		.byte	0xf3
 13599 0e53 01       		.uleb128 0x1
 13600 0e54 51       		.byte	0x51
 13601 0e55 9F       		.byte	0x9f
 13602 0e56 00000000 		.4byte	0
 13603 0e5a 00000000 		.4byte	0
 13604              	.LLST83:
 13605 0e5e 1C000000 		.4byte	.LVL131
 13606 0e62 22000000 		.4byte	.LVL132
 13607 0e66 0300     		.2byte	0x3
 13608 0e68 91       		.byte	0x91
 13609 0e69 50       		.sleb128 -48
 13610 0e6a 9F       		.byte	0x9f
 13611 0e6b 22000000 		.4byte	.LVL132
 13612 0e6f 36000000 		.4byte	.LVL136
 13613 0e73 0100     		.2byte	0x1
 13614 0e75 53       		.byte	0x53
 13615 0e76 00000000 		.4byte	0
 13616 0e7a 00000000 		.4byte	0
ARM GAS  C:\Users\haske\AppData\Local\Temp\ccxUXv8a.s 			page 280


 13617              	.LLST84:
 13618 0e7e 88000000 		.4byte	.LVL139
 13619 0e82 96000000 		.4byte	.LVL142
 13620 0e86 0200     		.2byte	0x2
 13621 0e88 30       		.byte	0x30
 13622 0e89 9F       		.byte	0x9f
 13623 0e8a 00000000 		.4byte	0
 13624 0e8e 00000000 		.4byte	0
 13625              	.LLST85:
 13626 0e92 88000000 		.4byte	.LVL139
 13627 0e96 96000000 		.4byte	.LVL142
 13628 0e9a 0100     		.2byte	0x1
 13629 0e9c 59       		.byte	0x59
 13630 0e9d 00000000 		.4byte	0
 13631 0ea1 00000000 		.4byte	0
 13632              	.LLST86:
 13633 0ea5 28010000 		.4byte	.LVL156
 13634 0ea9 5C010000 		.4byte	.LVL159
 13635 0ead 0200     		.2byte	0x2
 13636 0eaf 30       		.byte	0x30
 13637 0eb0 9F       		.byte	0x9f
 13638 0eb1 5C010000 		.4byte	.LVL159
 13639 0eb5 EE010000 		.4byte	.LVL184
 13640 0eb9 0300     		.2byte	0x3
 13641 0ebb 91       		.byte	0x91
 13642 0ebc AC7F     		.sleb128 -84
 13643 0ebe EE010000 		.4byte	.LVL184
 13644 0ec2 F4010000 		.4byte	.LVL185
 13645 0ec6 0100     		.2byte	0x1
 13646 0ec8 5B       		.byte	0x5b
 13647 0ec9 F4010000 		.4byte	.LVL185
 13648 0ecd FB010000 		.4byte	.LVL186-1
 13649 0ed1 0100     		.2byte	0x1
 13650 0ed3 53       		.byte	0x53
 13651 0ed4 FB010000 		.4byte	.LVL186-1
 13652 0ed8 2C030000 		.4byte	.LVL230
 13653 0edc 0100     		.2byte	0x1
 13654 0ede 5B       		.byte	0x5b
 13655 0edf 2C030000 		.4byte	.LVL230
 13656 0ee3 34030000 		.4byte	.LVL233
 13657 0ee7 0100     		.2byte	0x1
 13658 0ee9 5A       		.byte	0x5a
 13659 0eea 34030000 		.4byte	.LVL233
 13660 0eee 48030000 		.4byte	.LVL234
 13661 0ef2 0100     		.2byte	0x1
 13662 0ef4 5B       		.byte	0x5b
 13663 0ef5 00000000 		.4byte	0
 13664 0ef9 00000000 		.4byte	0
 13665              	.LLST87:
 13666 0efd 28010000 		.4byte	.LVL156
 13667 0f01 5C010000 		.4byte	.LVL159
 13668 0f05 0200     		.2byte	0x2
 13669 0f07 30       		.byte	0x30
 13670 0f08 9F       		.byte	0x9f
 13671 0f09 5C010000 		.4byte	.LVL159
 13672 0f0d D8010000 		.4byte	.LVL179
 13673 0f11 0100     		.2byte	0x1
ARM GAS  C:\Users\haske\AppData\Local\Temp\ccxUXv8a.s 			page 281


 13674 0f13 57       		.byte	0x57
 13675 0f14 D8010000 		.4byte	.LVL179
 13676 0f18 EA010000 		.4byte	.LVL183
 13677 0f1c 0100     		.2byte	0x1
 13678 0f1e 5B       		.byte	0x5b
 13679 0f1f EA010000 		.4byte	.LVL183
 13680 0f23 EE010000 		.4byte	.LVL184
 13681 0f27 0100     		.2byte	0x1
 13682 0f29 53       		.byte	0x53
 13683 0f2a EE010000 		.4byte	.LVL184
 13684 0f2e 9E020000 		.4byte	.LVL206
 13685 0f32 0100     		.2byte	0x1
 13686 0f34 5A       		.byte	0x5a
 13687 0f35 9E020000 		.4byte	.LVL206
 13688 0f39 A0020000 		.4byte	.LVL207
 13689 0f3d 0100     		.2byte	0x1
 13690 0f3f 53       		.byte	0x53
 13691 0f40 A0020000 		.4byte	.LVL207
 13692 0f44 2C030000 		.4byte	.LVL230
 13693 0f48 0100     		.2byte	0x1
 13694 0f4a 5A       		.byte	0x5a
 13695 0f4b 2C030000 		.4byte	.LVL230
 13696 0f4f 32030000 		.4byte	.LVL232
 13697 0f53 0100     		.2byte	0x1
 13698 0f55 5B       		.byte	0x5b
 13699 0f56 32030000 		.4byte	.LVL232
 13700 0f5a 34030000 		.4byte	.LVL233
 13701 0f5e 0100     		.2byte	0x1
 13702 0f60 53       		.byte	0x53
 13703 0f61 34030000 		.4byte	.LVL233
 13704 0f65 48030000 		.4byte	.LVL234
 13705 0f69 0100     		.2byte	0x1
 13706 0f6b 5A       		.byte	0x5a
 13707 0f6c 00000000 		.4byte	0
 13708 0f70 00000000 		.4byte	0
 13709              	.LLST88:
 13710 0f74 28010000 		.4byte	.LVL156
 13711 0f78 5C010000 		.4byte	.LVL159
 13712 0f7c 0200     		.2byte	0x2
 13713 0f7e 30       		.byte	0x30
 13714 0f7f 9F       		.byte	0x9f
 13715 0f80 5C010000 		.4byte	.LVL159
 13716 0f84 D2010000 		.4byte	.LVL177
 13717 0f88 0100     		.2byte	0x1
 13718 0f8a 5A       		.byte	0x5a
 13719 0f8b D2010000 		.4byte	.LVL177
 13720 0f8f 48030000 		.4byte	.LVL234
 13721 0f93 0100     		.2byte	0x1
 13722 0f95 54       		.byte	0x54
 13723 0f96 00000000 		.4byte	0
 13724 0f9a 00000000 		.4byte	0
 13725              	.LLST89:
 13726 0f9e 28010000 		.4byte	.LVL156
 13727 0fa2 5C010000 		.4byte	.LVL159
 13728 0fa6 0200     		.2byte	0x2
 13729 0fa8 30       		.byte	0x30
 13730 0fa9 9F       		.byte	0x9f
ARM GAS  C:\Users\haske\AppData\Local\Temp\ccxUXv8a.s 			page 282


 13731 0faa 5C010000 		.4byte	.LVL159
 13732 0fae D6010000 		.4byte	.LVL178
 13733 0fb2 0100     		.2byte	0x1
 13734 0fb4 5B       		.byte	0x5b
 13735 0fb5 D6010000 		.4byte	.LVL178
 13736 0fb9 DA010000 		.4byte	.LVL180
 13737 0fbd 0100     		.2byte	0x1
 13738 0fbf 53       		.byte	0x53
 13739 0fc0 DA010000 		.4byte	.LVL180
 13740 0fc4 48030000 		.4byte	.LVL234
 13741 0fc8 0100     		.2byte	0x1
 13742 0fca 57       		.byte	0x57
 13743 0fcb 00000000 		.4byte	0
 13744 0fcf 00000000 		.4byte	0
 13745              	.LLST90:
 13746 0fd3 28010000 		.4byte	.LVL156
 13747 0fd7 88010000 		.4byte	.LVL164
 13748 0fdb 0100     		.2byte	0x1
 13749 0fdd 56       		.byte	0x56
 13750 0fde 9A010000 		.4byte	.LVL167
 13751 0fe2 02020000 		.4byte	.LVL187
 13752 0fe6 0100     		.2byte	0x1
 13753 0fe8 56       		.byte	0x56
 13754 0fe9 4A020000 		.4byte	.LVL193
 13755 0fed 82020000 		.4byte	.LVL202
 13756 0ff1 0100     		.2byte	0x1
 13757 0ff3 56       		.byte	0x56
 13758 0ff4 94020000 		.4byte	.LVL205
 13759 0ff8 A6020000 		.4byte	.LVL209
 13760 0ffc 0100     		.2byte	0x1
 13761 0ffe 56       		.byte	0x56
 13762 0fff 08030000 		.4byte	.LVL221
 13763 1003 64030000 		.4byte	.LVL237
 13764 1007 0100     		.2byte	0x1
 13765 1009 56       		.byte	0x56
 13766 100a 00000000 		.4byte	0
 13767 100e 00000000 		.4byte	0
 13768              	.LLST91:
 13769 1012 28010000 		.4byte	.LVL156
 13770 1016 5C010000 		.4byte	.LVL159
 13771 101a 0200     		.2byte	0x2
 13772 101c 30       		.byte	0x30
 13773 101d 9F       		.byte	0x9f
 13774 101e 5C010000 		.4byte	.LVL159
 13775 1022 48030000 		.4byte	.LVL234
 13776 1026 0300     		.2byte	0x3
 13777 1028 91       		.byte	0x91
 13778 1029 8C7F     		.sleb128 -116
 13779 102b 00000000 		.4byte	0
 13780 102f 00000000 		.4byte	0
 13781              	.LLST92:
 13782 1033 D6020000 		.4byte	.LVL216
 13783 1037 EC020000 		.4byte	.LVL217
 13784 103b 0300     		.2byte	0x3
 13785 103d 09       		.byte	0x9
 13786 103e FF       		.byte	0xff
 13787 103f 9F       		.byte	0x9f
ARM GAS  C:\Users\haske\AppData\Local\Temp\ccxUXv8a.s 			page 283


 13788 1040 00000000 		.4byte	0
 13789 1044 00000000 		.4byte	0
 13790              	.LLST95:
 13791 1048 00000000 		.4byte	.LVL239
 13792 104c 2E000000 		.4byte	.LVL244
 13793 1050 0100     		.2byte	0x1
 13794 1052 50       		.byte	0x50
 13795 1053 2E000000 		.4byte	.LVL244
 13796 1057 6E000000 		.4byte	.LVL247
 13797 105b 0100     		.2byte	0x1
 13798 105d 5B       		.byte	0x5b
 13799 105e 6E000000 		.4byte	.LVL247
 13800 1062 88000000 		.4byte	.LVL249
 13801 1066 0100     		.2byte	0x1
 13802 1068 50       		.byte	0x50
 13803 1069 88000000 		.4byte	.LVL249
 13804 106d E8010000 		.4byte	.LVL294
 13805 1071 0100     		.2byte	0x1
 13806 1073 5B       		.byte	0x5b
 13807 1074 E8010000 		.4byte	.LVL294
 13808 1078 3C030000 		.4byte	.LVL345
 13809 107c 0100     		.2byte	0x1
 13810 107e 5A       		.byte	0x5a
 13811 107f 3C030000 		.4byte	.LVL345
 13812 1083 4A030000 		.4byte	.LVL350
 13813 1087 0100     		.2byte	0x1
 13814 1089 5B       		.byte	0x5b
 13815 108a 4A030000 		.4byte	.LVL350
 13816 108e 60030000 		.4byte	.LVL352
 13817 1092 0100     		.2byte	0x1
 13818 1094 5A       		.byte	0x5a
 13819 1095 60030000 		.4byte	.LVL352
 13820 1099 7C030000 		.4byte	.LVL356
 13821 109d 0100     		.2byte	0x1
 13822 109f 5B       		.byte	0x5b
 13823 10a0 7C030000 		.4byte	.LVL356
 13824 10a4 90030000 		.4byte	.LFE170
 13825 10a8 0400     		.2byte	0x4
 13826 10aa F3       		.byte	0xf3
 13827 10ab 01       		.uleb128 0x1
 13828 10ac 50       		.byte	0x50
 13829 10ad 9F       		.byte	0x9f
 13830 10ae 00000000 		.4byte	0
 13831 10b2 00000000 		.4byte	0
 13832              	.LLST96:
 13833 10b6 00000000 		.4byte	.LVL239
 13834 10ba 34000000 		.4byte	.LVL245
 13835 10be 0100     		.2byte	0x1
 13836 10c0 51       		.byte	0x51
 13837 10c1 34000000 		.4byte	.LVL245
 13838 10c5 6E000000 		.4byte	.LVL247
 13839 10c9 0400     		.2byte	0x4
 13840 10cb F3       		.byte	0xf3
 13841 10cc 01       		.uleb128 0x1
 13842 10cd 51       		.byte	0x51
 13843 10ce 9F       		.byte	0x9f
 13844 10cf 6E000000 		.4byte	.LVL247
ARM GAS  C:\Users\haske\AppData\Local\Temp\ccxUXv8a.s 			page 284


 13845 10d3 88000000 		.4byte	.LVL249
 13846 10d7 0100     		.2byte	0x1
 13847 10d9 51       		.byte	0x51
 13848 10da 88000000 		.4byte	.LVL249
 13849 10de 90030000 		.4byte	.LFE170
 13850 10e2 0400     		.2byte	0x4
 13851 10e4 F3       		.byte	0xf3
 13852 10e5 01       		.uleb128 0x1
 13853 10e6 51       		.byte	0x51
 13854 10e7 9F       		.byte	0x9f
 13855 10e8 00000000 		.4byte	0
 13856 10ec 00000000 		.4byte	0
 13857              	.LLST97:
 13858 10f0 00000000 		.4byte	.LVL239
 13859 10f4 28000000 		.4byte	.LVL243
 13860 10f8 0100     		.2byte	0x1
 13861 10fa 52       		.byte	0x52
 13862 10fb 28000000 		.4byte	.LVL243
 13863 10ff 6E000000 		.4byte	.LVL247
 13864 1103 0400     		.2byte	0x4
 13865 1105 F3       		.byte	0xf3
 13866 1106 01       		.uleb128 0x1
 13867 1107 52       		.byte	0x52
 13868 1108 9F       		.byte	0x9f
 13869 1109 6E000000 		.4byte	.LVL247
 13870 110d 70000000 		.4byte	.LVL248
 13871 1111 0100     		.2byte	0x1
 13872 1113 52       		.byte	0x52
 13873 1114 70000000 		.4byte	.LVL248
 13874 1118 90030000 		.4byte	.LFE170
 13875 111c 0400     		.2byte	0x4
 13876 111e F3       		.byte	0xf3
 13877 111f 01       		.uleb128 0x1
 13878 1120 52       		.byte	0x52
 13879 1121 9F       		.byte	0x9f
 13880 1122 00000000 		.4byte	0
 13881 1126 00000000 		.4byte	0
 13882              	.LLST98:
 13883 112a 18000000 		.4byte	.LVL240
 13884 112e 2E000000 		.4byte	.LVL244
 13885 1132 0100     		.2byte	0x1
 13886 1134 50       		.byte	0x50
 13887 1135 2E000000 		.4byte	.LVL244
 13888 1139 6E000000 		.4byte	.LVL247
 13889 113d 0100     		.2byte	0x1
 13890 113f 5B       		.byte	0x5b
 13891 1140 6E000000 		.4byte	.LVL247
 13892 1144 88000000 		.4byte	.LVL249
 13893 1148 0100     		.2byte	0x1
 13894 114a 50       		.byte	0x50
 13895 114b 88000000 		.4byte	.LVL249
 13896 114f E8010000 		.4byte	.LVL294
 13897 1153 0100     		.2byte	0x1
 13898 1155 5B       		.byte	0x5b
 13899 1156 E8010000 		.4byte	.LVL294
 13900 115a 3C030000 		.4byte	.LVL345
 13901 115e 0100     		.2byte	0x1
ARM GAS  C:\Users\haske\AppData\Local\Temp\ccxUXv8a.s 			page 285


 13902 1160 5A       		.byte	0x5a
 13903 1161 3C030000 		.4byte	.LVL345
 13904 1165 4A030000 		.4byte	.LVL350
 13905 1169 0100     		.2byte	0x1
 13906 116b 5B       		.byte	0x5b
 13907 116c 4A030000 		.4byte	.LVL350
 13908 1170 60030000 		.4byte	.LVL352
 13909 1174 0100     		.2byte	0x1
 13910 1176 5A       		.byte	0x5a
 13911 1177 60030000 		.4byte	.LVL352
 13912 117b 7A030000 		.4byte	.LVL354
 13913 117f 0100     		.2byte	0x1
 13914 1181 5B       		.byte	0x5b
 13915 1182 00000000 		.4byte	0
 13916 1186 00000000 		.4byte	0
 13917              	.LLST99:
 13918 118a 9C000000 		.4byte	.LVL253
 13919 118e A6000000 		.4byte	.LVL254
 13920 1192 0100     		.2byte	0x1
 13921 1194 52       		.byte	0x52
 13922 1195 A6000000 		.4byte	.LVL254
 13923 1199 A8000000 		.4byte	.LVL255
 13924 119d 0300     		.2byte	0x3
 13925 119f 91       		.byte	0x91
 13926 11a0 B87F     		.sleb128 -72
 13927 11a2 A8000000 		.4byte	.LVL255
 13928 11a6 AC000000 		.4byte	.LVL256
 13929 11aa 0100     		.2byte	0x1
 13930 11ac 52       		.byte	0x52
 13931 11ad AC000000 		.4byte	.LVL256
 13932 11b1 7A030000 		.4byte	.LVL354
 13933 11b5 0300     		.2byte	0x3
 13934 11b7 91       		.byte	0x91
 13935 11b8 B87F     		.sleb128 -72
 13936 11ba 00000000 		.4byte	0
 13937 11be 00000000 		.4byte	0
 13938              	.LLST100:
 13939 11c2 9C000000 		.4byte	.LVL253
 13940 11c6 B9000000 		.4byte	.LVL257-1
 13941 11ca 0100     		.2byte	0x1
 13942 11cc 52       		.byte	0x52
 13943 11cd B9000000 		.4byte	.LVL257-1
 13944 11d1 7A030000 		.4byte	.LVL354
 13945 11d5 0300     		.2byte	0x3
 13946 11d7 91       		.byte	0x91
 13947 11d8 A47F     		.sleb128 -92
 13948 11da 00000000 		.4byte	0
 13949 11de 00000000 		.4byte	0
 13950              	.LLST101:
 13951 11e2 BC000000 		.4byte	.LVL258
 13952 11e6 CA000000 		.4byte	.LVL259
 13953 11ea 0100     		.2byte	0x1
 13954 11ec 50       		.byte	0x50
 13955 11ed CA000000 		.4byte	.LVL259
 13956 11f1 18010000 		.4byte	.LVL266
 13957 11f5 0100     		.2byte	0x1
 13958 11f7 55       		.byte	0x55
ARM GAS  C:\Users\haske\AppData\Local\Temp\ccxUXv8a.s 			page 286


 13959 11f8 18010000 		.4byte	.LVL266
 13960 11fc 3A010000 		.4byte	.LVL268
 13961 1200 0100     		.2byte	0x1
 13962 1202 59       		.byte	0x59
 13963 1203 3A010000 		.4byte	.LVL268
 13964 1207 42010000 		.4byte	.LVL270
 13965 120b 0100     		.2byte	0x1
 13966 120d 53       		.byte	0x53
 13967 120e 42010000 		.4byte	.LVL270
 13968 1212 DA010000 		.4byte	.LVL288
 13969 1216 0100     		.2byte	0x1
 13970 1218 56       		.byte	0x56
 13971 1219 DA010000 		.4byte	.LVL288
 13972 121d DC010000 		.4byte	.LVL289
 13973 1221 0100     		.2byte	0x1
 13974 1223 53       		.byte	0x53
 13975 1224 DC010000 		.4byte	.LVL289
 13976 1228 E2010000 		.4byte	.LVL291
 13977 122c 0100     		.2byte	0x1
 13978 122e 56       		.byte	0x56
 13979 122f E2010000 		.4byte	.LVL291
 13980 1233 2C020000 		.4byte	.LVL301
 13981 1237 0100     		.2byte	0x1
 13982 1239 59       		.byte	0x59
 13983 123a 2C020000 		.4byte	.LVL301
 13984 123e 33020000 		.4byte	.LVL302-1
 13985 1242 0100     		.2byte	0x1
 13986 1244 53       		.byte	0x53
 13987 1245 33020000 		.4byte	.LVL302-1
 13988 1249 4C020000 		.4byte	.LVL305
 13989 124d 0100     		.2byte	0x1
 13990 124f 59       		.byte	0x59
 13991 1250 4C020000 		.4byte	.LVL305
 13992 1254 52020000 		.4byte	.LVL306
 13993 1258 0100     		.2byte	0x1
 13994 125a 53       		.byte	0x53
 13995 125b 52020000 		.4byte	.LVL306
 13996 125f 84020000 		.4byte	.LVL313
 13997 1263 0100     		.2byte	0x1
 13998 1265 59       		.byte	0x59
 13999 1266 84020000 		.4byte	.LVL313
 14000 126a 8D020000 		.4byte	.LVL314-1
 14001 126e 0100     		.2byte	0x1
 14002 1270 53       		.byte	0x53
 14003 1271 8D020000 		.4byte	.LVL314-1
 14004 1275 AE020000 		.4byte	.LVL322
 14005 1279 0100     		.2byte	0x1
 14006 127b 59       		.byte	0x59
 14007 127c AE020000 		.4byte	.LVL322
 14008 1280 B0020000 		.4byte	.LVL323
 14009 1284 0100     		.2byte	0x1
 14010 1286 53       		.byte	0x53
 14011 1287 B0020000 		.4byte	.LVL323
 14012 128b EA020000 		.4byte	.LVL329
 14013 128f 0100     		.2byte	0x1
 14014 1291 59       		.byte	0x59
 14015 1292 EA020000 		.4byte	.LVL329
ARM GAS  C:\Users\haske\AppData\Local\Temp\ccxUXv8a.s 			page 287


 14016 1296 F3020000 		.4byte	.LVL330-1
 14017 129a 0100     		.2byte	0x1
 14018 129c 53       		.byte	0x53
 14019 129d F3020000 		.4byte	.LVL330-1
 14020 12a1 08030000 		.4byte	.LVL333
 14021 12a5 0100     		.2byte	0x1
 14022 12a7 59       		.byte	0x59
 14023 12a8 08030000 		.4byte	.LVL333
 14024 12ac 0A030000 		.4byte	.LVL334
 14025 12b0 0100     		.2byte	0x1
 14026 12b2 53       		.byte	0x53
 14027 12b3 0A030000 		.4byte	.LVL334
 14028 12b7 30030000 		.4byte	.LVL340
 14029 12bb 0100     		.2byte	0x1
 14030 12bd 59       		.byte	0x59
 14031 12be 30030000 		.4byte	.LVL340
 14032 12c2 32030000 		.4byte	.LVL341
 14033 12c6 0100     		.2byte	0x1
 14034 12c8 53       		.byte	0x53
 14035 12c9 32030000 		.4byte	.LVL341
 14036 12cd 3C030000 		.4byte	.LVL345
 14037 12d1 0100     		.2byte	0x1
 14038 12d3 59       		.byte	0x59
 14039 12d4 3C030000 		.4byte	.LVL345
 14040 12d8 48030000 		.4byte	.LVL349
 14041 12dc 0100     		.2byte	0x1
 14042 12de 53       		.byte	0x53
 14043 12df 48030000 		.4byte	.LVL349
 14044 12e3 7A030000 		.4byte	.LVL354
 14045 12e7 0100     		.2byte	0x1
 14046 12e9 59       		.byte	0x59
 14047 12ea 00000000 		.4byte	0
 14048 12ee 00000000 		.4byte	0
 14049              	.LLST102:
 14050 12f2 D0000000 		.4byte	.LVL261
 14051 12f6 D3000000 		.4byte	.LVL262-1
 14052 12fa 0100     		.2byte	0x1
 14053 12fc 50       		.byte	0x50
 14054 12fd 00000000 		.4byte	0
 14055 1301 00000000 		.4byte	0
 14056              	.LLST103:
 14057 1305 D6000000 		.4byte	.LVL263
 14058 1309 06010000 		.4byte	.LVL264
 14059 130d 0100     		.2byte	0x1
 14060 130f 50       		.byte	0x50
 14061 1310 06010000 		.4byte	.LVL264
 14062 1314 7A030000 		.4byte	.LVL354
 14063 1318 0300     		.2byte	0x3
 14064 131a 91       		.byte	0x91
 14065 131b BC7F     		.sleb128 -68
 14066 131d 00000000 		.4byte	0
 14067 1321 00000000 		.4byte	0
 14068              	.LLST104:
 14069 1325 14010000 		.4byte	.LVL265
 14070 1329 7A030000 		.4byte	.LVL354
 14071 132d 0200     		.2byte	0x2
 14072 132f 7D       		.byte	0x7d
ARM GAS  C:\Users\haske\AppData\Local\Temp\ccxUXv8a.s 			page 288


 14073 1330 00       		.sleb128 0
 14074 1331 00000000 		.4byte	0
 14075 1335 00000000 		.4byte	0
 14076              	.LLST105:
 14077 1339 28010000 		.4byte	.LVL267
 14078 133d 3E010000 		.4byte	.LVL269
 14079 1341 0100     		.2byte	0x1
 14080 1343 5A       		.byte	0x5a
 14081 1344 3E010000 		.4byte	.LVL269
 14082 1348 C0010000 		.4byte	.LVL284
 14083 134c 0100     		.2byte	0x1
 14084 134e 54       		.byte	0x54
 14085 134f C2010000 		.4byte	.LVL285
 14086 1353 D0010000 		.4byte	.LVL286
 14087 1357 0100     		.2byte	0x1
 14088 1359 54       		.byte	0x54
 14089 135a EA010000 		.4byte	.LVL295
 14090 135e 38030000 		.4byte	.LVL343
 14091 1362 0100     		.2byte	0x1
 14092 1364 54       		.byte	0x54
 14093 1365 38030000 		.4byte	.LVL343
 14094 1369 3A030000 		.4byte	.LVL344
 14095 136d 0300     		.2byte	0x3
 14096 136f 74       		.byte	0x74
 14097 1370 7F       		.sleb128 -1
 14098 1371 9F       		.byte	0x9f
 14099 1372 3A030000 		.4byte	.LVL344
 14100 1376 3C030000 		.4byte	.LVL345
 14101 137a 0100     		.2byte	0x1
 14102 137c 54       		.byte	0x54
 14103 137d 4A030000 		.4byte	.LVL350
 14104 1381 60030000 		.4byte	.LVL352
 14105 1385 0100     		.2byte	0x1
 14106 1387 54       		.byte	0x54
 14107 1388 00000000 		.4byte	0
 14108 138c 00000000 		.4byte	0
 14109              	.LLST106:
 14110 1390 4A010000 		.4byte	.LVL271
 14111 1394 5A010000 		.4byte	.LVL272
 14112 1398 0100     		.2byte	0x1
 14113 139a 55       		.byte	0x55
 14114 139b 5C010000 		.4byte	.LVL273
 14115 139f C2010000 		.4byte	.LVL285
 14116 13a3 0100     		.2byte	0x1
 14117 13a5 55       		.byte	0x55
 14118 13a6 62020000 		.4byte	.LVL308
 14119 13aa 6C020000 		.4byte	.LVL309
 14120 13ae 0100     		.2byte	0x1
 14121 13b0 53       		.byte	0x53
 14122 13b1 6C020000 		.4byte	.LVL309
 14123 13b5 70020000 		.4byte	.LVL310
 14124 13b9 0800     		.2byte	0x8
 14125 13bb 74       		.byte	0x74
 14126 13bc 00       		.sleb128 0
 14127 13bd 91       		.byte	0x91
 14128 13be B87F     		.sleb128 -72
 14129 13c0 06       		.byte	0x6
ARM GAS  C:\Users\haske\AppData\Local\Temp\ccxUXv8a.s 			page 289


 14130 13c1 1C       		.byte	0x1c
 14131 13c2 9F       		.byte	0x9f
 14132 13c3 70020000 		.4byte	.LVL310
 14133 13c7 7B020000 		.4byte	.LVL311-1
 14134 13cb 0100     		.2byte	0x1
 14135 13cd 52       		.byte	0x52
 14136 13ce 7B020000 		.4byte	.LVL311-1
 14137 13d2 98020000 		.4byte	.LVL316
 14138 13d6 0300     		.2byte	0x3
 14139 13d8 91       		.byte	0x91
 14140 13d9 A87F     		.sleb128 -88
 14141 13db BC020000 		.4byte	.LVL325
 14142 13df CC020000 		.4byte	.LVL326
 14143 13e3 0100     		.2byte	0x1
 14144 13e5 55       		.byte	0x55
 14145 13e6 CC020000 		.4byte	.LVL326
 14146 13ea CE020000 		.4byte	.LVL327
 14147 13ee 0A00     		.2byte	0xa
 14148 13f0 91       		.byte	0x91
 14149 13f1 A47F     		.sleb128 -92
 14150 13f3 06       		.byte	0x6
 14151 13f4 74       		.byte	0x74
 14152 13f5 00       		.sleb128 0
 14153 13f6 22       		.byte	0x22
 14154 13f7 23       		.byte	0x23
 14155 13f8 01       		.uleb128 0x1
 14156 13f9 9F       		.byte	0x9f
 14157 13fa CE020000 		.4byte	.LVL327
 14158 13fe 16030000 		.4byte	.LVL336
 14159 1402 0100     		.2byte	0x1
 14160 1404 55       		.byte	0x55
 14161 1405 00000000 		.4byte	0
 14162 1409 00000000 		.4byte	0
 14163              	.LLST107:
 14164 140d 1C000000 		.4byte	.LVL241
 14165 1411 34000000 		.4byte	.LVL245
 14166 1415 0100     		.2byte	0x1
 14167 1417 51       		.byte	0x51
 14168 1418 34000000 		.4byte	.LVL245
 14169 141c 36000000 		.4byte	.LVL246
 14170 1420 0400     		.2byte	0x4
 14171 1422 F3       		.byte	0xf3
 14172 1423 01       		.uleb128 0x1
 14173 1424 51       		.byte	0x51
 14174 1425 9F       		.byte	0x9f
 14175 1426 00000000 		.4byte	0
 14176 142a 00000000 		.4byte	0
 14177              	.LLST108:
 14178 142e 1C000000 		.4byte	.LVL241
 14179 1432 22000000 		.4byte	.LVL242
 14180 1436 0300     		.2byte	0x3
 14181 1438 91       		.byte	0x91
 14182 1439 50       		.sleb128 -48
 14183 143a 9F       		.byte	0x9f
 14184 143b 22000000 		.4byte	.LVL242
 14185 143f 36000000 		.4byte	.LVL246
 14186 1443 0100     		.2byte	0x1
ARM GAS  C:\Users\haske\AppData\Local\Temp\ccxUXv8a.s 			page 290


 14187 1445 53       		.byte	0x53
 14188 1446 00000000 		.4byte	0
 14189 144a 00000000 		.4byte	0
 14190              	.LLST109:
 14191 144e 88000000 		.4byte	.LVL249
 14192 1452 96000000 		.4byte	.LVL252
 14193 1456 0200     		.2byte	0x2
 14194 1458 30       		.byte	0x30
 14195 1459 9F       		.byte	0x9f
 14196 145a 00000000 		.4byte	0
 14197 145e 00000000 		.4byte	0
 14198              	.LLST110:
 14199 1462 88000000 		.4byte	.LVL249
 14200 1466 96000000 		.4byte	.LVL252
 14201 146a 0100     		.2byte	0x1
 14202 146c 5B       		.byte	0x5b
 14203 146d 00000000 		.4byte	0
 14204 1471 00000000 		.4byte	0
 14205              	.LLST111:
 14206 1475 18010000 		.4byte	.LVL266
 14207 1479 42010000 		.4byte	.LVL270
 14208 147d 0200     		.2byte	0x2
 14209 147f 30       		.byte	0x30
 14210 1480 9F       		.byte	0x9f
 14211 1481 42010000 		.4byte	.LVL270
 14212 1485 EA010000 		.4byte	.LVL295
 14213 1489 0300     		.2byte	0x3
 14214 148b 91       		.byte	0x91
 14215 148c B47F     		.sleb128 -76
 14216 148e EA010000 		.4byte	.LVL295
 14217 1492 F0010000 		.4byte	.LVL296
 14218 1496 0100     		.2byte	0x1
 14219 1498 5B       		.byte	0x5b
 14220 1499 F0010000 		.4byte	.LVL296
 14221 149d F7010000 		.4byte	.LVL297-1
 14222 14a1 0100     		.2byte	0x1
 14223 14a3 53       		.byte	0x53
 14224 14a4 F7010000 		.4byte	.LVL297-1
 14225 14a8 3C030000 		.4byte	.LVL345
 14226 14ac 0100     		.2byte	0x1
 14227 14ae 5B       		.byte	0x5b
 14228 14af 3C030000 		.4byte	.LVL345
 14229 14b3 4A030000 		.4byte	.LVL350
 14230 14b7 0300     		.2byte	0x3
 14231 14b9 91       		.byte	0x91
 14232 14ba B47F     		.sleb128 -76
 14233 14bc 4A030000 		.4byte	.LVL350
 14234 14c0 58030000 		.4byte	.LVL351
 14235 14c4 0100     		.2byte	0x1
 14236 14c6 5B       		.byte	0x5b
 14237 14c7 00000000 		.4byte	0
 14238 14cb 00000000 		.4byte	0
 14239              	.LLST112:
 14240 14cf 18010000 		.4byte	.LVL266
 14241 14d3 42010000 		.4byte	.LVL270
 14242 14d7 0200     		.2byte	0x2
 14243 14d9 30       		.byte	0x30
ARM GAS  C:\Users\haske\AppData\Local\Temp\ccxUXv8a.s 			page 291


 14244 14da 9F       		.byte	0x9f
 14245 14db 42010000 		.4byte	.LVL270
 14246 14df E0010000 		.4byte	.LVL290
 14247 14e3 0100     		.2byte	0x1
 14248 14e5 58       		.byte	0x58
 14249 14e6 E0010000 		.4byte	.LVL290
 14250 14ea 98020000 		.4byte	.LVL316
 14251 14ee 0100     		.2byte	0x1
 14252 14f0 55       		.byte	0x55
 14253 14f1 98020000 		.4byte	.LVL316
 14254 14f5 9A020000 		.4byte	.LVL317
 14255 14f9 0100     		.2byte	0x1
 14256 14fb 53       		.byte	0x53
 14257 14fc 9A020000 		.4byte	.LVL317
 14258 1500 1E030000 		.4byte	.LVL337
 14259 1504 0300     		.2byte	0x3
 14260 1506 91       		.byte	0x91
 14261 1507 A87F     		.sleb128 -88
 14262 1509 1E030000 		.4byte	.LVL337
 14263 150d 3C030000 		.4byte	.LVL345
 14264 1511 0100     		.2byte	0x1
 14265 1513 55       		.byte	0x55
 14266 1514 3C030000 		.4byte	.LVL345
 14267 1518 40030000 		.4byte	.LVL346
 14268 151c 0100     		.2byte	0x1
 14269 151e 58       		.byte	0x58
 14270 151f 40030000 		.4byte	.LVL346
 14271 1523 60030000 		.4byte	.LVL352
 14272 1527 0100     		.2byte	0x1
 14273 1529 55       		.byte	0x55
 14274 152a 00000000 		.4byte	0
 14275 152e 00000000 		.4byte	0
 14276              	.LLST113:
 14277 1532 18010000 		.4byte	.LVL266
 14278 1536 42010000 		.4byte	.LVL270
 14279 153a 0200     		.2byte	0x2
 14280 153c 30       		.byte	0x30
 14281 153d 9F       		.byte	0x9f
 14282 153e 42010000 		.4byte	.LVL270
 14283 1542 D2010000 		.4byte	.LVL287
 14284 1546 0100     		.2byte	0x1
 14285 1548 59       		.byte	0x59
 14286 1549 D2010000 		.4byte	.LVL287
 14287 154d E4010000 		.4byte	.LVL292
 14288 1551 0100     		.2byte	0x1
 14289 1553 54       		.byte	0x54
 14290 1554 E4010000 		.4byte	.LVL292
 14291 1558 3C030000 		.4byte	.LVL345
 14292 155c 0100     		.2byte	0x1
 14293 155e 56       		.byte	0x56
 14294 155f 3C030000 		.4byte	.LVL345
 14295 1563 44030000 		.4byte	.LVL347
 14296 1567 0100     		.2byte	0x1
 14297 1569 54       		.byte	0x54
 14298 156a 44030000 		.4byte	.LVL347
 14299 156e 60030000 		.4byte	.LVL352
 14300 1572 0100     		.2byte	0x1
ARM GAS  C:\Users\haske\AppData\Local\Temp\ccxUXv8a.s 			page 292


 14301 1574 56       		.byte	0x56
 14302 1575 00000000 		.4byte	0
 14303 1579 00000000 		.4byte	0
 14304              	.LLST114:
 14305 157d 18010000 		.4byte	.LVL266
 14306 1581 42010000 		.4byte	.LVL270
 14307 1585 0200     		.2byte	0x2
 14308 1587 30       		.byte	0x30
 14309 1588 9F       		.byte	0x9f
 14310 1589 42010000 		.4byte	.LVL270
 14311 158d E6010000 		.4byte	.LVL293
 14312 1591 0100     		.2byte	0x1
 14313 1593 5A       		.byte	0x5a
 14314 1594 E6010000 		.4byte	.LVL293
 14315 1598 A8020000 		.4byte	.LVL320
 14316 159c 0100     		.2byte	0x1
 14317 159e 58       		.byte	0x58
 14318 159f A8020000 		.4byte	.LVL320
 14319 15a3 AA020000 		.4byte	.LVL321
 14320 15a7 0100     		.2byte	0x1
 14321 15a9 53       		.byte	0x53
 14322 15aa AA020000 		.4byte	.LVL321
 14323 15ae 3C030000 		.4byte	.LVL345
 14324 15b2 0100     		.2byte	0x1
 14325 15b4 58       		.byte	0x58
 14326 15b5 3C030000 		.4byte	.LVL345
 14327 15b9 46030000 		.4byte	.LVL348
 14328 15bd 0100     		.2byte	0x1
 14329 15bf 5A       		.byte	0x5a
 14330 15c0 46030000 		.4byte	.LVL348
 14331 15c4 60030000 		.4byte	.LVL352
 14332 15c8 0100     		.2byte	0x1
 14333 15ca 58       		.byte	0x58
 14334 15cb 00000000 		.4byte	0
 14335 15cf 00000000 		.4byte	0
 14336              	.LLST115:
 14337 15d3 18010000 		.4byte	.LVL266
 14338 15d7 72010000 		.4byte	.LVL275
 14339 15db 0100     		.2byte	0x1
 14340 15dd 57       		.byte	0x57
 14341 15de 82010000 		.4byte	.LVL277
 14342 15e2 FE010000 		.4byte	.LVL298
 14343 15e6 0100     		.2byte	0x1
 14344 15e8 57       		.byte	0x57
 14345 15e9 46020000 		.4byte	.LVL304
 14346 15ed 7E020000 		.4byte	.LVL312
 14347 15f1 0100     		.2byte	0x1
 14348 15f3 57       		.byte	0x57
 14349 15f4 90020000 		.4byte	.LVL315
 14350 15f8 A0020000 		.4byte	.LVL319
 14351 15fc 0100     		.2byte	0x1
 14352 15fe 57       		.byte	0x57
 14353 15ff F6020000 		.4byte	.LVL331
 14354 1603 7C030000 		.4byte	.LVL355
 14355 1607 0100     		.2byte	0x1
 14356 1609 57       		.byte	0x57
 14357 160a 00000000 		.4byte	0
ARM GAS  C:\Users\haske\AppData\Local\Temp\ccxUXv8a.s 			page 293


 14358 160e 00000000 		.4byte	0
 14359              	.LLST116:
 14360 1612 18010000 		.4byte	.LVL266
 14361 1616 42010000 		.4byte	.LVL270
 14362 161a 0300     		.2byte	0x3
 14363 161c 09       		.byte	0x9
 14364 161d FF       		.byte	0xff
 14365 161e 9F       		.byte	0x9f
 14366 161f 42010000 		.4byte	.LVL270
 14367 1623 60030000 		.4byte	.LVL352
 14368 1627 0300     		.2byte	0x3
 14369 1629 91       		.byte	0x91
 14370 162a 9C7F     		.sleb128 -100
 14371 162c 00000000 		.4byte	0
 14372 1630 00000000 		.4byte	0
 14373              	.LLST117:
 14374 1634 00000000 		.4byte	.LVL357
 14375 1638 0F000000 		.4byte	.LVL358-1
 14376 163c 0100     		.2byte	0x1
 14377 163e 50       		.byte	0x50
 14378 163f 0F000000 		.4byte	.LVL358-1
 14379 1643 C2000000 		.4byte	.LFE171
 14380 1647 0200     		.2byte	0x2
 14381 1649 91       		.byte	0x91
 14382 164a 64       		.sleb128 -28
 14383 164b 00000000 		.4byte	0
 14384 164f 00000000 		.4byte	0
 14385              	.LLST118:
 14386 1653 00000000 		.4byte	.LVL357
 14387 1657 0F000000 		.4byte	.LVL358-1
 14388 165b 0100     		.2byte	0x1
 14389 165d 51       		.byte	0x51
 14390 165e 00000000 		.4byte	0
 14391 1662 00000000 		.4byte	0
 14392              	.LLST119:
 14393 1666 00000000 		.4byte	.LVL357
 14394 166a 0F000000 		.4byte	.LVL358-1
 14395 166e 0100     		.2byte	0x1
 14396 1670 52       		.byte	0x52
 14397 1671 0F000000 		.4byte	.LVL358-1
 14398 1675 C2000000 		.4byte	.LFE171
 14399 1679 0400     		.2byte	0x4
 14400 167b F3       		.byte	0xf3
 14401 167c 01       		.uleb128 0x1
 14402 167d 52       		.byte	0x52
 14403 167e 9F       		.byte	0x9f
 14404 167f 00000000 		.4byte	0
 14405 1683 00000000 		.4byte	0
 14406              	.LLST120:
 14407 1687 12000000 		.4byte	.LVL359
 14408 168b 28000000 		.4byte	.LVL361
 14409 168f 0100     		.2byte	0x1
 14410 1691 50       		.byte	0x50
 14411 1692 28000000 		.4byte	.LVL361
 14412 1696 44000000 		.4byte	.LVL363
 14413 169a 0100     		.2byte	0x1
 14414 169c 57       		.byte	0x57
ARM GAS  C:\Users\haske\AppData\Local\Temp\ccxUXv8a.s 			page 294


 14415 169d 44000000 		.4byte	.LVL363
 14416 16a1 54000000 		.4byte	.LVL365
 14417 16a5 0100     		.2byte	0x1
 14418 16a7 50       		.byte	0x50
 14419 16a8 54000000 		.4byte	.LVL365
 14420 16ac AA000000 		.4byte	.LVL374
 14421 16b0 0100     		.2byte	0x1
 14422 16b2 57       		.byte	0x57
 14423 16b3 AA000000 		.4byte	.LVL374
 14424 16b7 AE000000 		.4byte	.LVL375
 14425 16bb 0100     		.2byte	0x1
 14426 16bd 50       		.byte	0x50
 14427 16be AE000000 		.4byte	.LVL375
 14428 16c2 C0000000 		.4byte	.LVL378
 14429 16c6 0100     		.2byte	0x1
 14430 16c8 57       		.byte	0x57
 14431 16c9 00000000 		.4byte	0
 14432 16cd 00000000 		.4byte	0
 14433              	.LLST121:
 14434 16d1 26000000 		.4byte	.LVL360
 14435 16d5 41000000 		.4byte	.LVL362-1
 14436 16d9 0100     		.2byte	0x1
 14437 16db 53       		.byte	0x53
 14438 16dc 00000000 		.4byte	0
 14439 16e0 00000000 		.4byte	0
 14440              	.LLST122:
 14441 16e4 52000000 		.4byte	.LVL364
 14442 16e8 6D000000 		.4byte	.LVL366-1
 14443 16ec 0100     		.2byte	0x1
 14444 16ee 53       		.byte	0x53
 14445 16ef 00000000 		.4byte	0
 14446 16f3 00000000 		.4byte	0
 14447              	.LLST123:
 14448 16f7 70000000 		.4byte	.LVL367
 14449 16fb 96000000 		.4byte	.LVL371
 14450 16ff 0100     		.2byte	0x1
 14451 1701 56       		.byte	0x56
 14452 1702 98000000 		.4byte	.LVL372
 14453 1706 AA000000 		.4byte	.LVL374
 14454 170a 0100     		.2byte	0x1
 14455 170c 56       		.byte	0x56
 14456 170d 00000000 		.4byte	0
 14457 1711 00000000 		.4byte	0
 14458              	.LLST124:
 14459 1715 70000000 		.4byte	.LVL367
 14460 1719 96000000 		.4byte	.LVL371
 14461 171d 0200     		.2byte	0x2
 14462 171f 7D       		.byte	0x7d
 14463 1720 00       		.sleb128 0
 14464 1721 96000000 		.4byte	.LVL371
 14465 1725 98000000 		.4byte	.LVL372
 14466 1729 0100     		.2byte	0x1
 14467 172b 52       		.byte	0x52
 14468 172c 98000000 		.4byte	.LVL372
 14469 1730 A8000000 		.4byte	.LVL373
 14470 1734 0200     		.2byte	0x2
 14471 1736 7D       		.byte	0x7d
ARM GAS  C:\Users\haske\AppData\Local\Temp\ccxUXv8a.s 			page 295


 14472 1737 00       		.sleb128 0
 14473 1738 A8000000 		.4byte	.LVL373
 14474 173c AA000000 		.4byte	.LVL374
 14475 1740 0100     		.2byte	0x1
 14476 1742 53       		.byte	0x53
 14477 1743 AE000000 		.4byte	.LVL375
 14478 1747 B8000000 		.4byte	.LVL376
 14479 174b 0200     		.2byte	0x2
 14480 174d 7D       		.byte	0x7d
 14481 174e 00       		.sleb128 0
 14482 174f 00000000 		.4byte	0
 14483 1753 00000000 		.4byte	0
 14484              	.LLST125:
 14485 1757 00000000 		.4byte	.LVL379
 14486 175b 15000000 		.4byte	.LVL382-1
 14487 175f 0100     		.2byte	0x1
 14488 1761 50       		.byte	0x50
 14489 1762 15000000 		.4byte	.LVL382-1
 14490 1766 98000000 		.4byte	.LFE172
 14491 176a 0300     		.2byte	0x3
 14492 176c 91       		.byte	0x91
 14493 176d 9C7C     		.sleb128 -484
 14494 176f 00000000 		.4byte	0
 14495 1773 00000000 		.4byte	0
 14496              	.LLST126:
 14497 1777 00000000 		.4byte	.LVL379
 14498 177b 15000000 		.4byte	.LVL382-1
 14499 177f 0100     		.2byte	0x1
 14500 1781 51       		.byte	0x51
 14501 1782 15000000 		.4byte	.LVL382-1
 14502 1786 98000000 		.4byte	.LFE172
 14503 178a 0400     		.2byte	0x4
 14504 178c F3       		.byte	0xf3
 14505 178d 01       		.uleb128 0x1
 14506 178e 51       		.byte	0x51
 14507 178f 9F       		.byte	0x9f
 14508 1790 00000000 		.4byte	0
 14509 1794 00000000 		.4byte	0
 14510              	.LLST127:
 14511 1798 00000000 		.4byte	.LVL379
 14512 179c 15000000 		.4byte	.LVL382-1
 14513 17a0 0100     		.2byte	0x1
 14514 17a2 52       		.byte	0x52
 14515 17a3 15000000 		.4byte	.LVL382-1
 14516 17a7 98000000 		.4byte	.LFE172
 14517 17ab 0400     		.2byte	0x4
 14518 17ad F3       		.byte	0xf3
 14519 17ae 01       		.uleb128 0x1
 14520 17af 52       		.byte	0x52
 14521 17b0 9F       		.byte	0x9f
 14522 17b1 00000000 		.4byte	0
 14523 17b5 00000000 		.4byte	0
 14524              	.LLST128:
 14525 17b9 00000000 		.4byte	.LVL379
 14526 17bd 0E000000 		.4byte	.LVL380
 14527 17c1 0100     		.2byte	0x1
 14528 17c3 53       		.byte	0x53
ARM GAS  C:\Users\haske\AppData\Local\Temp\ccxUXv8a.s 			page 296


 14529 17c4 0E000000 		.4byte	.LVL380
 14530 17c8 98000000 		.4byte	.LFE172
 14531 17cc 0400     		.2byte	0x4
 14532 17ce F3       		.byte	0xf3
 14533 17cf 01       		.uleb128 0x1
 14534 17d0 53       		.byte	0x53
 14535 17d1 9F       		.byte	0x9f
 14536 17d2 00000000 		.4byte	0
 14537 17d6 00000000 		.4byte	0
 14538              	.LLST129:
 14539 17da 00000000 		.4byte	.LVL379
 14540 17de 0E000000 		.4byte	.LVL380
 14541 17e2 0200     		.2byte	0x2
 14542 17e4 91       		.byte	0x91
 14543 17e5 00       		.sleb128 0
 14544 17e6 0E000000 		.4byte	.LVL380
 14545 17ea 12000000 		.4byte	.LVL381
 14546 17ee 0200     		.2byte	0x2
 14547 17f0 73       		.byte	0x73
 14548 17f1 00       		.sleb128 0
 14549 17f2 12000000 		.4byte	.LVL381
 14550 17f6 98000000 		.4byte	.LFE172
 14551 17fa 0200     		.2byte	0x2
 14552 17fc 91       		.byte	0x91
 14553 17fd 00       		.sleb128 0
 14554 17fe 00000000 		.4byte	0
 14555 1802 00000000 		.4byte	0
 14556              	.LLST130:
 14557 1806 00000000 		.4byte	.LVL379
 14558 180a 0E000000 		.4byte	.LVL380
 14559 180e 0200     		.2byte	0x2
 14560 1810 91       		.byte	0x91
 14561 1811 04       		.sleb128 4
 14562 1812 0E000000 		.4byte	.LVL380
 14563 1816 12000000 		.4byte	.LVL381
 14564 181a 0200     		.2byte	0x2
 14565 181c 73       		.byte	0x73
 14566 181d 04       		.sleb128 4
 14567 181e 12000000 		.4byte	.LVL381
 14568 1822 98000000 		.4byte	.LFE172
 14569 1826 0200     		.2byte	0x2
 14570 1828 91       		.byte	0x91
 14571 1829 04       		.sleb128 4
 14572 182a 00000000 		.4byte	0
 14573 182e 00000000 		.4byte	0
 14574              	.LLST131:
 14575 1832 18000000 		.4byte	.LVL383
 14576 1836 30000000 		.4byte	.LVL384
 14577 183a 0100     		.2byte	0x1
 14578 183c 50       		.byte	0x50
 14579 183d 30000000 		.4byte	.LVL384
 14580 1841 6A000000 		.4byte	.LVL390
 14581 1845 0100     		.2byte	0x1
 14582 1847 55       		.byte	0x55
 14583 1848 00000000 		.4byte	0
 14584 184c 00000000 		.4byte	0
 14585              	.LLST132:
ARM GAS  C:\Users\haske\AppData\Local\Temp\ccxUXv8a.s 			page 297


 14586 1850 3A000000 		.4byte	.LVL387
 14587 1854 3C000000 		.4byte	.LVL388
 14588 1858 0100     		.2byte	0x1
 14589 185a 50       		.byte	0x50
 14590 185b 3C000000 		.4byte	.LVL388
 14591 185f 94000000 		.4byte	.LVL394
 14592 1863 0300     		.2byte	0x3
 14593 1865 91       		.byte	0x91
 14594 1866 A47C     		.sleb128 -476
 14595 1868 00000000 		.4byte	0
 14596 186c 00000000 		.4byte	0
 14597              	.LLST133:
 14598 1870 00000000 		.4byte	.LVL395
 14599 1874 0F000000 		.4byte	.LVL396-1
 14600 1878 0100     		.2byte	0x1
 14601 187a 50       		.byte	0x50
 14602 187b 0F000000 		.4byte	.LVL396-1
 14603 187f 78000000 		.4byte	.LFE173
 14604 1883 0300     		.2byte	0x3
 14605 1885 91       		.byte	0x91
 14606 1886 A07C     		.sleb128 -480
 14607 1888 00000000 		.4byte	0
 14608 188c 00000000 		.4byte	0
 14609              	.LLST134:
 14610 1890 00000000 		.4byte	.LVL395
 14611 1894 0F000000 		.4byte	.LVL396-1
 14612 1898 0100     		.2byte	0x1
 14613 189a 51       		.byte	0x51
 14614 189b 0F000000 		.4byte	.LVL396-1
 14615 189f 78000000 		.4byte	.LFE173
 14616 18a3 0400     		.2byte	0x4
 14617 18a5 F3       		.byte	0xf3
 14618 18a6 01       		.uleb128 0x1
 14619 18a7 51       		.byte	0x51
 14620 18a8 9F       		.byte	0x9f
 14621 18a9 00000000 		.4byte	0
 14622 18ad 00000000 		.4byte	0
 14623              	.LLST135:
 14624 18b1 00000000 		.4byte	.LVL395
 14625 18b5 0F000000 		.4byte	.LVL396-1
 14626 18b9 0100     		.2byte	0x1
 14627 18bb 52       		.byte	0x52
 14628 18bc 0F000000 		.4byte	.LVL396-1
 14629 18c0 78000000 		.4byte	.LFE173
 14630 18c4 0400     		.2byte	0x4
 14631 18c6 F3       		.byte	0xf3
 14632 18c7 01       		.uleb128 0x1
 14633 18c8 52       		.byte	0x52
 14634 18c9 9F       		.byte	0x9f
 14635 18ca 00000000 		.4byte	0
 14636 18ce 00000000 		.4byte	0
 14637              	.LLST136:
 14638 18d2 00000000 		.4byte	.LVL395
 14639 18d6 0F000000 		.4byte	.LVL396-1
 14640 18da 0100     		.2byte	0x1
 14641 18dc 53       		.byte	0x53
 14642 18dd 0F000000 		.4byte	.LVL396-1
ARM GAS  C:\Users\haske\AppData\Local\Temp\ccxUXv8a.s 			page 298


 14643 18e1 78000000 		.4byte	.LFE173
 14644 18e5 0400     		.2byte	0x4
 14645 18e7 F3       		.byte	0xf3
 14646 18e8 01       		.uleb128 0x1
 14647 18e9 53       		.byte	0x53
 14648 18ea 9F       		.byte	0x9f
 14649 18eb 00000000 		.4byte	0
 14650 18ef 00000000 		.4byte	0
 14651              	.LLST137:
 14652 18f3 12000000 		.4byte	.LVL397
 14653 18f7 2A000000 		.4byte	.LVL398
 14654 18fb 0100     		.2byte	0x1
 14655 18fd 50       		.byte	0x50
 14656 18fe 2A000000 		.4byte	.LVL398
 14657 1902 68000000 		.4byte	.LVL406
 14658 1906 0100     		.2byte	0x1
 14659 1908 54       		.byte	0x54
 14660 1909 00000000 		.4byte	0
 14661 190d 00000000 		.4byte	0
 14662              	.LLST138:
 14663 1911 34000000 		.4byte	.LVL401
 14664 1915 38000000 		.4byte	.LVL402
 14665 1919 0100     		.2byte	0x1
 14666 191b 50       		.byte	0x50
 14667 191c 38000000 		.4byte	.LVL402
 14668 1920 74000000 		.4byte	.LVL408
 14669 1924 0300     		.2byte	0x3
 14670 1926 91       		.byte	0x91
 14671 1927 A47C     		.sleb128 -476
 14672 1929 00000000 		.4byte	0
 14673 192d 00000000 		.4byte	0
 14674              	.LLST139:
 14675 1931 00000000 		.4byte	.LVL409
 14676 1935 0F000000 		.4byte	.LVL410-1
 14677 1939 0100     		.2byte	0x1
 14678 193b 50       		.byte	0x50
 14679 193c 0F000000 		.4byte	.LVL410-1
 14680 1940 8E000000 		.4byte	.LVL423
 14681 1944 0100     		.2byte	0x1
 14682 1946 54       		.byte	0x54
 14683 1947 8E000000 		.4byte	.LVL423
 14684 194b 90000000 		.4byte	.LFE174
 14685 194f 0400     		.2byte	0x4
 14686 1951 F3       		.byte	0xf3
 14687 1952 01       		.uleb128 0x1
 14688 1953 50       		.byte	0x50
 14689 1954 9F       		.byte	0x9f
 14690 1955 00000000 		.4byte	0
 14691 1959 00000000 		.4byte	0
 14692              	.LLST140:
 14693 195d 00000000 		.4byte	.LVL409
 14694 1961 0F000000 		.4byte	.LVL410-1
 14695 1965 0100     		.2byte	0x1
 14696 1967 51       		.byte	0x51
 14697 1968 0F000000 		.4byte	.LVL410-1
 14698 196c 90000000 		.4byte	.LFE174
 14699 1970 0400     		.2byte	0x4
ARM GAS  C:\Users\haske\AppData\Local\Temp\ccxUXv8a.s 			page 299


 14700 1972 F3       		.byte	0xf3
 14701 1973 01       		.uleb128 0x1
 14702 1974 51       		.byte	0x51
 14703 1975 9F       		.byte	0x9f
 14704 1976 00000000 		.4byte	0
 14705 197a 00000000 		.4byte	0
 14706              	.LLST141:
 14707 197e 00000000 		.4byte	.LVL409
 14708 1982 0F000000 		.4byte	.LVL410-1
 14709 1986 0100     		.2byte	0x1
 14710 1988 52       		.byte	0x52
 14711 1989 0F000000 		.4byte	.LVL410-1
 14712 198d 90000000 		.4byte	.LFE174
 14713 1991 0400     		.2byte	0x4
 14714 1993 F3       		.byte	0xf3
 14715 1994 01       		.uleb128 0x1
 14716 1995 52       		.byte	0x52
 14717 1996 9F       		.byte	0x9f
 14718 1997 00000000 		.4byte	0
 14719 199b 00000000 		.4byte	0
 14720              	.LLST142:
 14721 199f 00000000 		.4byte	.LVL409
 14722 19a3 0F000000 		.4byte	.LVL410-1
 14723 19a7 0100     		.2byte	0x1
 14724 19a9 53       		.byte	0x53
 14725 19aa 0F000000 		.4byte	.LVL410-1
 14726 19ae 8E000000 		.4byte	.LVL424
 14727 19b2 0100     		.2byte	0x1
 14728 19b4 55       		.byte	0x55
 14729 19b5 8E000000 		.4byte	.LVL424
 14730 19b9 90000000 		.4byte	.LFE174
 14731 19bd 0400     		.2byte	0x4
 14732 19bf F3       		.byte	0xf3
 14733 19c0 01       		.uleb128 0x1
 14734 19c1 53       		.byte	0x53
 14735 19c2 9F       		.byte	0x9f
 14736 19c3 00000000 		.4byte	0
 14737 19c7 00000000 		.4byte	0
 14738              	.LLST143:
 14739 19cb 10000000 		.4byte	.LVL410
 14740 19cf 24000000 		.4byte	.LVL411
 14741 19d3 0100     		.2byte	0x1
 14742 19d5 50       		.byte	0x50
 14743 19d6 00000000 		.4byte	0
 14744 19da 00000000 		.4byte	0
 14745              	.LLST144:
 14746 19de 28000000 		.4byte	.LVL412
 14747 19e2 34000000 		.4byte	.LVL413
 14748 19e6 0100     		.2byte	0x1
 14749 19e8 50       		.byte	0x50
 14750 19e9 00000000 		.4byte	0
 14751 19ed 00000000 		.4byte	0
 14752              	.LLST145:
 14753 19f1 3E000000 		.4byte	.LVL416
 14754 19f5 42000000 		.4byte	.LVL417
 14755 19f9 0100     		.2byte	0x1
 14756 19fb 50       		.byte	0x50
ARM GAS  C:\Users\haske\AppData\Local\Temp\ccxUXv8a.s 			page 300


 14757 19fc 42000000 		.4byte	.LVL417
 14758 1a00 8C000000 		.4byte	.LVL422
 14759 1a04 0300     		.2byte	0x3
 14760 1a06 91       		.byte	0x91
 14761 1a07 A47C     		.sleb128 -476
 14762 1a09 00000000 		.4byte	0
 14763 1a0d 00000000 		.4byte	0
 14764              	.LLST146:
 14765 1a11 00000000 		.4byte	.LVL425
 14766 1a15 0F000000 		.4byte	.LVL426-1
 14767 1a19 0100     		.2byte	0x1
 14768 1a1b 50       		.byte	0x50
 14769 1a1c 0F000000 		.4byte	.LVL426-1
 14770 1a20 8C000000 		.4byte	.LVL442
 14771 1a24 0200     		.2byte	0x2
 14772 1a26 7D       		.byte	0x7d
 14773 1a27 00       		.sleb128 0
 14774 1a28 8C000000 		.4byte	.LVL442
 14775 1a2c 8E000000 		.4byte	.LFE175
 14776 1a30 0300     		.2byte	0x3
 14777 1a32 91       		.byte	0x91
 14778 1a33 A87C     		.sleb128 -472
 14779 1a35 00000000 		.4byte	0
 14780 1a39 00000000 		.4byte	0
 14781              	.LLST147:
 14782 1a3d 00000000 		.4byte	.LVL425
 14783 1a41 0F000000 		.4byte	.LVL426-1
 14784 1a45 0100     		.2byte	0x1
 14785 1a47 51       		.byte	0x51
 14786 1a48 0F000000 		.4byte	.LVL426-1
 14787 1a4c 8C000000 		.4byte	.LVL445
 14788 1a50 0100     		.2byte	0x1
 14789 1a52 57       		.byte	0x57
 14790 1a53 8C000000 		.4byte	.LVL445
 14791 1a57 8E000000 		.4byte	.LFE175
 14792 1a5b 0400     		.2byte	0x4
 14793 1a5d F3       		.byte	0xf3
 14794 1a5e 01       		.uleb128 0x1
 14795 1a5f 51       		.byte	0x51
 14796 1a60 9F       		.byte	0x9f
 14797 1a61 00000000 		.4byte	0
 14798 1a65 00000000 		.4byte	0
 14799              	.LLST148:
 14800 1a69 00000000 		.4byte	.LVL425
 14801 1a6d 0F000000 		.4byte	.LVL426-1
 14802 1a71 0100     		.2byte	0x1
 14803 1a73 52       		.byte	0x52
 14804 1a74 0F000000 		.4byte	.LVL426-1
 14805 1a78 8C000000 		.4byte	.LVL444
 14806 1a7c 0100     		.2byte	0x1
 14807 1a7e 56       		.byte	0x56
 14808 1a7f 8C000000 		.4byte	.LVL444
 14809 1a83 8E000000 		.4byte	.LFE175
 14810 1a87 0400     		.2byte	0x4
 14811 1a89 F3       		.byte	0xf3
 14812 1a8a 01       		.uleb128 0x1
 14813 1a8b 52       		.byte	0x52
ARM GAS  C:\Users\haske\AppData\Local\Temp\ccxUXv8a.s 			page 301


 14814 1a8c 9F       		.byte	0x9f
 14815 1a8d 00000000 		.4byte	0
 14816 1a91 00000000 		.4byte	0
 14817              	.LLST149:
 14818 1a95 00000000 		.4byte	.LVL425
 14819 1a99 0F000000 		.4byte	.LVL426-1
 14820 1a9d 0100     		.2byte	0x1
 14821 1a9f 53       		.byte	0x53
 14822 1aa0 0F000000 		.4byte	.LVL426-1
 14823 1aa4 8C000000 		.4byte	.LVL443
 14824 1aa8 0100     		.2byte	0x1
 14825 1aaa 55       		.byte	0x55
 14826 1aab 8C000000 		.4byte	.LVL443
 14827 1aaf 8E000000 		.4byte	.LFE175
 14828 1ab3 0400     		.2byte	0x4
 14829 1ab5 F3       		.byte	0xf3
 14830 1ab6 01       		.uleb128 0x1
 14831 1ab7 53       		.byte	0x53
 14832 1ab8 9F       		.byte	0x9f
 14833 1ab9 00000000 		.4byte	0
 14834 1abd 00000000 		.4byte	0
 14835              	.LLST150:
 14836 1ac1 12000000 		.4byte	.LVL427
 14837 1ac5 2A000000 		.4byte	.LVL428
 14838 1ac9 0100     		.2byte	0x1
 14839 1acb 50       		.byte	0x50
 14840 1acc 2A000000 		.4byte	.LVL428
 14841 1ad0 5A000000 		.4byte	.LVL434
 14842 1ad4 0100     		.2byte	0x1
 14843 1ad6 54       		.byte	0x54
 14844 1ad7 00000000 		.4byte	0
 14845 1adb 00000000 		.4byte	0
 14846              	.LLST151:
 14847 1adf 34000000 		.4byte	.LVL431
 14848 1ae3 36000000 		.4byte	.LVL432
 14849 1ae7 0100     		.2byte	0x1
 14850 1ae9 50       		.byte	0x50
 14851 1aea 36000000 		.4byte	.LVL432
 14852 1aee 8A000000 		.4byte	.LVL441
 14853 1af2 0300     		.2byte	0x3
 14854 1af4 91       		.byte	0x91
 14855 1af5 AC7C     		.sleb128 -468
 14856 1af7 00000000 		.4byte	0
 14857 1afb 00000000 		.4byte	0
 14858              	.LLST152:
 14859 1aff 5C000000 		.4byte	.LVL435
 14860 1b03 60000000 		.4byte	.LVL436
 14861 1b07 0100     		.2byte	0x1
 14862 1b09 54       		.byte	0x54
 14863 1b0a 60000000 		.4byte	.LVL436
 14864 1b0e 6E000000 		.4byte	.LVL437
 14865 1b12 0300     		.2byte	0x3
 14866 1b14 74       		.byte	0x74
 14867 1b15 7F       		.sleb128 -1
 14868 1b16 9F       		.byte	0x9f
 14869 1b17 6E000000 		.4byte	.LVL437
 14870 1b1b 7E000000 		.4byte	.LVL439
ARM GAS  C:\Users\haske\AppData\Local\Temp\ccxUXv8a.s 			page 302


 14871 1b1f 0100     		.2byte	0x1
 14872 1b21 54       		.byte	0x54
 14873 1b22 00000000 		.4byte	0
 14874 1b26 00000000 		.4byte	0
 14875              	.LLST153:
 14876 1b2a 00000000 		.4byte	.LVL446
 14877 1b2e 0F000000 		.4byte	.LVL447-1
 14878 1b32 0100     		.2byte	0x1
 14879 1b34 50       		.byte	0x50
 14880 1b35 0F000000 		.4byte	.LVL447-1
 14881 1b39 7C000000 		.4byte	.LVL460
 14882 1b3d 0100     		.2byte	0x1
 14883 1b3f 54       		.byte	0x54
 14884 1b40 7C000000 		.4byte	.LVL460
 14885 1b44 7E000000 		.4byte	.LFE176
 14886 1b48 0400     		.2byte	0x4
 14887 1b4a F3       		.byte	0xf3
 14888 1b4b 01       		.uleb128 0x1
 14889 1b4c 50       		.byte	0x50
 14890 1b4d 9F       		.byte	0x9f
 14891 1b4e 00000000 		.4byte	0
 14892 1b52 00000000 		.4byte	0
 14893              	.LLST154:
 14894 1b56 00000000 		.4byte	.LVL446
 14895 1b5a 0F000000 		.4byte	.LVL447-1
 14896 1b5e 0100     		.2byte	0x1
 14897 1b60 51       		.byte	0x51
 14898 1b61 0F000000 		.4byte	.LVL447-1
 14899 1b65 7C000000 		.4byte	.LVL463
 14900 1b69 0100     		.2byte	0x1
 14901 1b6b 57       		.byte	0x57
 14902 1b6c 7C000000 		.4byte	.LVL463
 14903 1b70 7E000000 		.4byte	.LFE176
 14904 1b74 0400     		.2byte	0x4
 14905 1b76 F3       		.byte	0xf3
 14906 1b77 01       		.uleb128 0x1
 14907 1b78 51       		.byte	0x51
 14908 1b79 9F       		.byte	0x9f
 14909 1b7a 00000000 		.4byte	0
 14910 1b7e 00000000 		.4byte	0
 14911              	.LLST155:
 14912 1b82 00000000 		.4byte	.LVL446
 14913 1b86 0F000000 		.4byte	.LVL447-1
 14914 1b8a 0100     		.2byte	0x1
 14915 1b8c 52       		.byte	0x52
 14916 1b8d 0F000000 		.4byte	.LVL447-1
 14917 1b91 7C000000 		.4byte	.LVL459
 14918 1b95 0200     		.2byte	0x2
 14919 1b97 7D       		.byte	0x7d
 14920 1b98 00       		.sleb128 0
 14921 1b99 7C000000 		.4byte	.LVL459
 14922 1b9d 7E000000 		.4byte	.LFE176
 14923 1ba1 0300     		.2byte	0x3
 14924 1ba3 91       		.byte	0x91
 14925 1ba4 A87C     		.sleb128 -472
 14926 1ba6 00000000 		.4byte	0
 14927 1baa 00000000 		.4byte	0
ARM GAS  C:\Users\haske\AppData\Local\Temp\ccxUXv8a.s 			page 303


 14928              	.LLST156:
 14929 1bae 00000000 		.4byte	.LVL446
 14930 1bb2 0F000000 		.4byte	.LVL447-1
 14931 1bb6 0100     		.2byte	0x1
 14932 1bb8 53       		.byte	0x53
 14933 1bb9 0F000000 		.4byte	.LVL447-1
 14934 1bbd 7C000000 		.4byte	.LVL462
 14935 1bc1 0100     		.2byte	0x1
 14936 1bc3 56       		.byte	0x56
 14937 1bc4 7C000000 		.4byte	.LVL462
 14938 1bc8 7E000000 		.4byte	.LFE176
 14939 1bcc 0400     		.2byte	0x4
 14940 1bce F3       		.byte	0xf3
 14941 1bcf 01       		.uleb128 0x1
 14942 1bd0 53       		.byte	0x53
 14943 1bd1 9F       		.byte	0x9f
 14944 1bd2 00000000 		.4byte	0
 14945 1bd6 00000000 		.4byte	0
 14946              	.LLST157:
 14947 1bda 12000000 		.4byte	.LVL448
 14948 1bde 2A000000 		.4byte	.LVL449
 14949 1be2 0100     		.2byte	0x1
 14950 1be4 50       		.byte	0x50
 14951 1be5 2A000000 		.4byte	.LVL449
 14952 1be9 7C000000 		.4byte	.LVL461
 14953 1bed 0100     		.2byte	0x1
 14954 1bef 55       		.byte	0x55
 14955 1bf0 00000000 		.4byte	0
 14956 1bf4 00000000 		.4byte	0
 14957              	.LLST158:
 14958 1bf8 34000000 		.4byte	.LVL452
 14959 1bfc 36000000 		.4byte	.LVL453
 14960 1c00 0100     		.2byte	0x1
 14961 1c02 50       		.byte	0x50
 14962 1c03 36000000 		.4byte	.LVL453
 14963 1c07 7A000000 		.4byte	.LVL458
 14964 1c0b 0300     		.2byte	0x3
 14965 1c0d 91       		.byte	0x91
 14966 1c0e AC7C     		.sleb128 -468
 14967 1c10 00000000 		.4byte	0
 14968 1c14 00000000 		.4byte	0
 14969              	.LLST159:
 14970 1c18 00000000 		.4byte	.LVL464
 14971 1c1c 0F000000 		.4byte	.LVL465-1
 14972 1c20 0100     		.2byte	0x1
 14973 1c22 50       		.byte	0x50
 14974 1c23 0F000000 		.4byte	.LVL465-1
 14975 1c27 6E000000 		.4byte	.LVL476
 14976 1c2b 0100     		.2byte	0x1
 14977 1c2d 54       		.byte	0x54
 14978 1c2e 6E000000 		.4byte	.LVL476
 14979 1c32 70000000 		.4byte	.LFE177
 14980 1c36 0400     		.2byte	0x4
 14981 1c38 F3       		.byte	0xf3
 14982 1c39 01       		.uleb128 0x1
 14983 1c3a 50       		.byte	0x50
 14984 1c3b 9F       		.byte	0x9f
ARM GAS  C:\Users\haske\AppData\Local\Temp\ccxUXv8a.s 			page 304


 14985 1c3c 00000000 		.4byte	0
 14986 1c40 00000000 		.4byte	0
 14987              	.LLST160:
 14988 1c44 00000000 		.4byte	.LVL464
 14989 1c48 0F000000 		.4byte	.LVL465-1
 14990 1c4c 0100     		.2byte	0x1
 14991 1c4e 51       		.byte	0x51
 14992 1c4f 0F000000 		.4byte	.LVL465-1
 14993 1c53 70000000 		.4byte	.LFE177
 14994 1c57 0400     		.2byte	0x4
 14995 1c59 F3       		.byte	0xf3
 14996 1c5a 01       		.uleb128 0x1
 14997 1c5b 51       		.byte	0x51
 14998 1c5c 9F       		.byte	0x9f
 14999 1c5d 00000000 		.4byte	0
 15000 1c61 00000000 		.4byte	0
 15001              	.LLST161:
 15002 1c65 00000000 		.4byte	.LVL464
 15003 1c69 0F000000 		.4byte	.LVL465-1
 15004 1c6d 0100     		.2byte	0x1
 15005 1c6f 52       		.byte	0x52
 15006 1c70 0F000000 		.4byte	.LVL465-1
 15007 1c74 70000000 		.4byte	.LFE177
 15008 1c78 0400     		.2byte	0x4
 15009 1c7a F3       		.byte	0xf3
 15010 1c7b 01       		.uleb128 0x1
 15011 1c7c 52       		.byte	0x52
 15012 1c7d 9F       		.byte	0x9f
 15013 1c7e 00000000 		.4byte	0
 15014 1c82 00000000 		.4byte	0
 15015              	.LLST162:
 15016 1c86 00000000 		.4byte	.LVL464
 15017 1c8a 0F000000 		.4byte	.LVL465-1
 15018 1c8e 0100     		.2byte	0x1
 15019 1c90 53       		.byte	0x53
 15020 1c91 0F000000 		.4byte	.LVL465-1
 15021 1c95 70000000 		.4byte	.LFE177
 15022 1c99 0400     		.2byte	0x4
 15023 1c9b F3       		.byte	0xf3
 15024 1c9c 01       		.uleb128 0x1
 15025 1c9d 53       		.byte	0x53
 15026 1c9e 9F       		.byte	0x9f
 15027 1c9f 00000000 		.4byte	0
 15028 1ca3 00000000 		.4byte	0
 15029              	.LLST163:
 15030 1ca7 10000000 		.4byte	.LVL465
 15031 1cab 28000000 		.4byte	.LVL466
 15032 1caf 0100     		.2byte	0x1
 15033 1cb1 50       		.byte	0x50
 15034 1cb2 00000000 		.4byte	0
 15035 1cb6 00000000 		.4byte	0
 15036              	.LLST164:
 15037 1cba 32000000 		.4byte	.LVL469
 15038 1cbe 36000000 		.4byte	.LVL470
 15039 1cc2 0100     		.2byte	0x1
 15040 1cc4 50       		.byte	0x50
 15041 1cc5 36000000 		.4byte	.LVL470
ARM GAS  C:\Users\haske\AppData\Local\Temp\ccxUXv8a.s 			page 305


 15042 1cc9 6C000000 		.4byte	.LVL475
 15043 1ccd 0300     		.2byte	0x3
 15044 1ccf 91       		.byte	0x91
 15045 1cd0 AC7C     		.sleb128 -468
 15046 1cd2 00000000 		.4byte	0
 15047 1cd6 00000000 		.4byte	0
 15048              		.section	.debug_aranges,"",%progbits
 15049 0000 C4000000 		.4byte	0xc4
 15050 0004 0200     		.2byte	0x2
 15051 0006 00000000 		.4byte	.Ldebug_info0
 15052 000a 04       		.byte	0x4
 15053 000b 00       		.byte	0
 15054 000c 0000     		.2byte	0
 15055 000e 0000     		.2byte	0
 15056 0010 00000000 		.4byte	.LFB179
 15057 0014 0C000000 		.4byte	.LFE179-.LFB179
 15058 0018 00000000 		.4byte	.LFB178
 15059 001c 2C000000 		.4byte	.LFE178-.LFB178
 15060 0020 00000000 		.4byte	.LFB181
 15061 0024 16000000 		.4byte	.LFE181-.LFB181
 15062 0028 00000000 		.4byte	.LFB160
 15063 002c 18000000 		.4byte	.LFE160-.LFB160
 15064 0030 00000000 		.4byte	.LFB161
 15065 0034 50000000 		.4byte	.LFE161-.LFB161
 15066 0038 00000000 		.4byte	.LFB162
 15067 003c 12000000 		.4byte	.LFE162-.LFB162
 15068 0040 00000000 		.4byte	.LFB163
 15069 0044 12000000 		.4byte	.LFE163-.LFB163
 15070 0048 00000000 		.4byte	.LFB164
 15071 004c 12000000 		.4byte	.LFE164-.LFB164
 15072 0050 00000000 		.4byte	.LFB165
 15073 0054 20000000 		.4byte	.LFE165-.LFB165
 15074 0058 00000000 		.4byte	.LFB166
 15075 005c 04000000 		.4byte	.LFE166-.LFB166
 15076 0060 00000000 		.4byte	.LFB180
 15077 0064 82000000 		.4byte	.LFE180-.LFB180
 15078 0068 00000000 		.4byte	.LFB167
 15079 006c 9E000000 		.4byte	.LFE167-.LFB167
 15080 0070 00000000 		.4byte	.LFB168
 15081 0074 5C010000 		.4byte	.LFE168-.LFB168
 15082 0078 00000000 		.4byte	.LFB169
 15083 007c 7C030000 		.4byte	.LFE169-.LFB169
 15084 0080 00000000 		.4byte	.LFB170
 15085 0084 90030000 		.4byte	.LFE170-.LFB170
 15086 0088 00000000 		.4byte	.LFB171
 15087 008c C2000000 		.4byte	.LFE171-.LFB171
 15088 0090 00000000 		.4byte	.LFB172
 15089 0094 98000000 		.4byte	.LFE172-.LFB172
 15090 0098 00000000 		.4byte	.LFB173
 15091 009c 78000000 		.4byte	.LFE173-.LFB173
 15092 00a0 00000000 		.4byte	.LFB174
 15093 00a4 90000000 		.4byte	.LFE174-.LFB174
 15094 00a8 00000000 		.4byte	.LFB175
 15095 00ac 8E000000 		.4byte	.LFE175-.LFB175
 15096 00b0 00000000 		.4byte	.LFB176
 15097 00b4 7E000000 		.4byte	.LFE176-.LFB176
 15098 00b8 00000000 		.4byte	.LFB177
ARM GAS  C:\Users\haske\AppData\Local\Temp\ccxUXv8a.s 			page 306


 15099 00bc 70000000 		.4byte	.LFE177-.LFB177
 15100 00c0 00000000 		.4byte	0
 15101 00c4 00000000 		.4byte	0
 15102              		.section	.debug_ranges,"",%progbits
 15103              	.Ldebug_ranges0:
 15104 0000 70000000 		.4byte	.LBB43
 15105 0004 AA000000 		.4byte	.LBE43
 15106 0008 AE000000 		.4byte	.LBB44
 15107 000c B8000000 		.4byte	.LBE44
 15108 0010 00000000 		.4byte	0
 15109 0014 00000000 		.4byte	0
 15110 0018 00000000 		.4byte	.LFB179
 15111 001c 0C000000 		.4byte	.LFE179
 15112 0020 00000000 		.4byte	.LFB178
 15113 0024 2C000000 		.4byte	.LFE178
 15114 0028 00000000 		.4byte	.LFB181
 15115 002c 16000000 		.4byte	.LFE181
 15116 0030 00000000 		.4byte	.LFB160
 15117 0034 18000000 		.4byte	.LFE160
 15118 0038 00000000 		.4byte	.LFB161
 15119 003c 50000000 		.4byte	.LFE161
 15120 0040 00000000 		.4byte	.LFB162
 15121 0044 12000000 		.4byte	.LFE162
 15122 0048 00000000 		.4byte	.LFB163
 15123 004c 12000000 		.4byte	.LFE163
 15124 0050 00000000 		.4byte	.LFB164
 15125 0054 12000000 		.4byte	.LFE164
 15126 0058 00000000 		.4byte	.LFB165
 15127 005c 20000000 		.4byte	.LFE165
 15128 0060 00000000 		.4byte	.LFB166
 15129 0064 04000000 		.4byte	.LFE166
 15130 0068 00000000 		.4byte	.LFB180
 15131 006c 82000000 		.4byte	.LFE180
 15132 0070 00000000 		.4byte	.LFB167
 15133 0074 9E000000 		.4byte	.LFE167
 15134 0078 00000000 		.4byte	.LFB168
 15135 007c 5C010000 		.4byte	.LFE168
 15136 0080 00000000 		.4byte	.LFB169
 15137 0084 7C030000 		.4byte	.LFE169
 15138 0088 00000000 		.4byte	.LFB170
 15139 008c 90030000 		.4byte	.LFE170
 15140 0090 00000000 		.4byte	.LFB171
 15141 0094 C2000000 		.4byte	.LFE171
 15142 0098 00000000 		.4byte	.LFB172
 15143 009c 98000000 		.4byte	.LFE172
 15144 00a0 00000000 		.4byte	.LFB173
 15145 00a4 78000000 		.4byte	.LFE173
 15146 00a8 00000000 		.4byte	.LFB174
 15147 00ac 90000000 		.4byte	.LFE174
 15148 00b0 00000000 		.4byte	.LFB175
 15149 00b4 8E000000 		.4byte	.LFE175
 15150 00b8 00000000 		.4byte	.LFB176
 15151 00bc 7E000000 		.4byte	.LFE176
 15152 00c0 00000000 		.4byte	.LFB177
 15153 00c4 70000000 		.4byte	.LFE177
 15154 00c8 00000000 		.4byte	0
 15155 00cc 00000000 		.4byte	0
ARM GAS  C:\Users\haske\AppData\Local\Temp\ccxUXv8a.s 			page 307


 15156              		.section	.debug_line,"",%progbits
 15157              	.Ldebug_line0:
 15158 0000 F60A0000 		.section	.debug_str,"MS",%progbits,1
 15158      02003C06 
 15158      00000201 
 15158      FB0E0D00 
 15158      01010101 
 15159              	.LASF184:
 15160 0000 70726F70 		.ascii	"prop_cnt\000"
 15160      5F636E74 
 15160      00
 15161              	.LASF15:
 15162 0009 696E7438 		.ascii	"int8_t\000"
 15162      5F7400
 15163              	.LASF593:
 15164 0010 6C765F63 		.ascii	"lv_canvas_draw_arc\000"
 15164      616E7661 
 15164      735F6472 
 15164      61775F61 
 15164      726300
 15165              	.LASF613:
 15166 0023 6C765F64 		.ascii	"lv_disp_drv_use_generic_set_px_cb\000"
 15166      6973705F 
 15166      6472765F 
 15166      7573655F 
 15166      67656E65 
 15167              	.LASF155:
 15168 0045 4C565F53 		.ascii	"LV_STYLE_OPA\000"
 15168      54594C45 
 15168      5F4F5041 
 15168      00
 15169              	.LASF384:
 15170 0052 636F6C6F 		.ascii	"color_chroma_key\000"
 15170      725F6368 
 15170      726F6D61 
 15170      5F6B6579 
 15170      00
 15171              	.LASF339:
 15172 0063 6C765F6C 		.ascii	"lv_ll_node_t\000"
 15172      6C5F6E6F 
 15172      64655F74 
 15172      00
 15173              	.LASF361:
 15174 0070 6C765F64 		.ascii	"lv_disp_draw_buf_t\000"
 15174      6973705F 
 15174      64726177 
 15174      5F627566 
 15174      5F7400
 15175              	.LASF21:
 15176 0083 73697A65 		.ascii	"size_t\000"
 15176      5F7400
 15177              	.LASF28:
 15178 008a 6164765F 		.ascii	"adv_w\000"
 15178      7700
 15179              	.LASF632:
 15180 0090 6C765F64 		.ascii	"lv_draw_arc\000"
 15180      7261775F 
ARM GAS  C:\Users\haske\AppData\Local\Temp\ccxUXv8a.s 			page 308


 15180      61726300 
 15181              	.LASF49:
 15182 009c 73697A65 		.ascii	"sizetype\000"
 15182      74797065 
 15182      00
 15183              	.LASF410:
 15184 00a5 6C765F64 		.ascii	"lv_disp_t\000"
 15184      6973705F 
 15184      7400
 15185              	.LASF479:
 15186 00af 4C565F45 		.ascii	"LV_EVENT_DRAW_MAIN_BEGIN\000"
 15186      56454E54 
 15186      5F445241 
 15186      575F4D41 
 15186      494E5F42 
 15187              	.LASF558:
 15188 00c8 64657374 		.ascii	"dest_img\000"
 15188      5F696D67 
 15188      00
 15189              	.LASF139:
 15190 00d1 4C565F53 		.ascii	"LV_STYLE_LINE_DASH_GAP\000"
 15190      54594C45 
 15190      5F4C494E 
 15190      455F4441 
 15190      53485F47 
 15191              	.LASF574:
 15192 00e8 6773756D 		.ascii	"gsum\000"
 15192      00
 15193              	.LASF342:
 15194 00ed 7461696C 		.ascii	"tail\000"
 15194      00
 15195              	.LASF549:
 15196 00f2 696E6974 		.ascii	"init_fake_disp\000"
 15196      5F66616B 
 15196      655F6469 
 15196      737000
 15197              	.LASF584:
 15198 0101 72656672 		.ascii	"refr_ori\000"
 15198      5F6F7269 
 15198      00
 15199              	.LASF395:
 15200 010a 6163745F 		.ascii	"act_scr\000"
 15200      73637200 
 15201              	.LASF400:
 15202 0112 73637265 		.ascii	"screen_cnt\000"
 15202      656E5F63 
 15202      6E7400
 15203              	.LASF330:
 15204 011d 64726177 		.ascii	"draw_bg\000"
 15204      5F626700 
 15205              	.LASF600:
 15206 0125 6C765F6D 		.ascii	"lv_mem_free\000"
 15206      656D5F66 
 15206      72656500 
 15207              	.LASF69:
 15208 0131 6C765F6F 		.ascii	"lv_opa_t\000"
 15208      70615F74 
ARM GAS  C:\Users\haske\AppData\Local\Temp\ccxUXv8a.s 			page 309


 15208      00
 15209              	.LASF146:
 15210 013a 4C565F53 		.ascii	"LV_STYLE_ARC_OPA\000"
 15210      54594C45 
 15210      5F415243 
 15210      5F4F5041 
 15210      00
 15211              	.LASF299:
 15212 014b 7261775F 		.ascii	"raw_end\000"
 15212      656E6400 
 15213              	.LASF19:
 15214 0153 696E7433 		.ascii	"int32_t\000"
 15214      325F7400 
 15215              	.LASF197:
 15216 015b 4C565F49 		.ascii	"LV_IMG_CF_ALPHA_1BIT\000"
 15216      4D475F43 
 15216      465F414C 
 15216      5048415F 
 15216      31424954 
 15217              	.LASF432:
 15218 0170 6C765F73 		.ascii	"lv_scrollbar_mode_t\000"
 15218      63726F6C 
 15218      6C626172 
 15218      5F6D6F64 
 15218      655F7400 
 15219              	.LASF573:
 15220 0184 7273756D 		.ascii	"rsum\000"
 15220      00
 15221              	.LASF587:
 15222 0189 6D61785F 		.ascii	"max_w\000"
 15222      7700
 15223              	.LASF183:
 15224 018f 6861735F 		.ascii	"has_group\000"
 15224      67726F75 
 15224      7000
 15225              	.LASF488:
 15226 0199 4C565F45 		.ascii	"LV_EVENT_INSERT\000"
 15226      56454E54 
 15226      5F494E53 
 15226      45525400 
 15227              	.LASF416:
 15228 01a9 66726F7A 		.ascii	"frozen\000"
 15228      656E00
 15229              	.LASF24:
 15230 01b0 6C765F70 		.ascii	"lv_point_t\000"
 15230      6F696E74 
 15230      5F7400
 15231              	.LASF555:
 15232 01bb 7372635F 		.ascii	"src_img\000"
 15232      696D6700 
 15233              	.LASF625:
 15234 01c3 5F6C765F 		.ascii	"_lv_refr_set_disp_refreshing\000"
 15234      72656672 
 15234      5F736574 
 15234      5F646973 
 15234      705F7265 
 15235              	.LASF227:
ARM GAS  C:\Users\haske\AppData\Local\Temp\ccxUXv8a.s 			page 310


 15236 01e0 6C765F69 		.ascii	"lv_img_header_t\000"
 15236      6D675F68 
 15236      65616465 
 15236      725F7400 
 15237              	.LASF247:
 15238 01f0 72616469 		.ascii	"radius\000"
 15238      757300
 15239              	.LASF250:
 15240 01f7 62675F63 		.ascii	"bg_color\000"
 15240      6F6C6F72 
 15240      00
 15241              	.LASF592:
 15242 0200 6C765F63 		.ascii	"lv_canvas_draw_polygon\000"
 15242      616E7661 
 15242      735F6472 
 15242      61775F70 
 15242      6F6C7967 
 15243              	.LASF36:
 15244 0217 6C696E65 		.ascii	"line_height\000"
 15244      5F686569 
 15244      67687400 
 15245              	.LASF73:
 15246 0223 6C765F62 		.ascii	"lv_blend_mode_t\000"
 15246      6C656E64 
 15246      5F6D6F64 
 15246      655F7400 
 15247              	.LASF281:
 15248 0233 62696469 		.ascii	"bidi_dir\000"
 15248      5F646972 
 15248      00
 15249              	.LASF388:
 15250 023c 64726177 		.ascii	"draw_ctx_size\000"
 15250      5F637478 
 15250      5F73697A 
 15250      6500
 15251              	.LASF615:
 15252 024a 6C765F6D 		.ascii	"lv_memcpy\000"
 15252      656D6370 
 15252      7900
 15253              	.LASF236:
 15254 0254 73706563 		.ascii	"spec_attr\000"
 15254      5F617474 
 15254      7200
 15255              	.LASF518:
 15256 025e 7363726F 		.ascii	"scroll_snap_x\000"
 15256      6C6C5F73 
 15256      6E61705F 
 15256      7800
 15257              	.LASF204:
 15258 026c 4C565F49 		.ascii	"LV_IMG_CF_RGB565\000"
 15258      4D475F43 
 15258      465F5247 
 15258      42353635 
 15258      00
 15259              	.LASF307:
 15260 027d 4C565F44 		.ascii	"LV_DRAW_LAYER_FLAG_HAS_ALPHA\000"
 15260      5241575F 
ARM GAS  C:\Users\haske\AppData\Local\Temp\ccxUXv8a.s 			page 311


 15260      4C415945 
 15260      525F464C 
 15260      41475F48 
 15261              	.LASF617:
 15262 029a 6C765F64 		.ascii	"lv_draw_sw_transform\000"
 15262      7261775F 
 15262      73775F74 
 15262      72616E73 
 15262      666F726D 
 15263              	.LASF493:
 15264 02af 4C565F45 		.ascii	"LV_EVENT_CHILD_CHANGED\000"
 15264      56454E54 
 15264      5F434849 
 15264      4C445F43 
 15264      48414E47 
 15265              	.LASF240:
 15266 02c6 73746174 		.ascii	"state\000"
 15266      6500
 15267              	.LASF90:
 15268 02cc 4C565F53 		.ascii	"LV_STYLE_HEIGHT\000"
 15268      54594C45 
 15268      5F484549 
 15268      47485400 
 15269              	.LASF349:
 15270 02dc 72657065 		.ascii	"repeat_count\000"
 15270      61745F63 
 15270      6F756E74 
 15270      00
 15271              	.LASF193:
 15272 02e9 4C565F49 		.ascii	"LV_IMG_CF_INDEXED_1BIT\000"
 15272      4D475F43 
 15272      465F494E 
 15272      44455845 
 15272      445F3142 
 15273              	.LASF436:
 15274 0300 69735F6C 		.ascii	"is_local\000"
 15274      6F63616C 
 15274      00
 15275              	.LASF322:
 15276 0309 64726177 		.ascii	"draw_rect\000"
 15276      5F726563 
 15276      7400
 15277              	.LASF559:
 15278 0313 64726177 		.ascii	"draw_dsc\000"
 15278      5F647363 
 15278      00
 15279              	.LASF345:
 15280 031c 5F6C765F 		.ascii	"_lv_timer_t\000"
 15280      74696D65 
 15280      725F7400 
 15281              	.LASF46:
 15282 0328 4C565F52 		.ascii	"LV_RES_INV\000"
 15282      45535F49 
 15282      4E5600
 15283              	.LASF321:
 15284 0333 696E6974 		.ascii	"init_buf\000"
 15284      5F627566 
ARM GAS  C:\Users\haske\AppData\Local\Temp\ccxUXv8a.s 			page 312


 15284      00
 15285              	.LASF441:
 15286 033c 636F6E73 		.ascii	"constructor_cb\000"
 15286      74727563 
 15286      746F725F 
 15286      636200
 15287              	.LASF304:
 15288 034b 726F756E 		.ascii	"rounded\000"
 15288      64656400 
 15289              	.LASF171:
 15290 0353 5F4C565F 		.ascii	"_LV_STYLE_LAST_BUILT_IN_PROP\000"
 15290      5354594C 
 15290      455F4C41 
 15290      53545F42 
 15290      55494C54 
 15291              	.LASF547:
 15292 0370 6C765F63 		.ascii	"lv_canvas_get_px\000"
 15292      616E7661 
 15292      735F6765 
 15292      745F7078 
 15292      00
 15293              	.LASF320:
 15294 0381 5F6C765F 		.ascii	"_lv_draw_ctx_t\000"
 15294      64726177 
 15294      5F637478 
 15294      5F7400
 15295              	.LASF471:
 15296 0390 4C565F45 		.ascii	"LV_EVENT_GESTURE\000"
 15296      56454E54 
 15296      5F474553 
 15296      54555245 
 15296      00
 15297              	.LASF464:
 15298 03a1 4C565F45 		.ascii	"LV_EVENT_LONG_PRESSED\000"
 15298      56454E54 
 15298      5F4C4F4E 
 15298      475F5052 
 15298      45535345 
 15299              	.LASF572:
 15300 03b7 6173756D 		.ascii	"asum\000"
 15300      00
 15301              	.LASF252:
 15302 03bc 62675F69 		.ascii	"bg_img_src\000"
 15302      6D675F73 
 15302      726300
 15303              	.LASF121:
 15304 03c7 4C565F53 		.ascii	"LV_STYLE_BORDER_WIDTH\000"
 15304      54594C45 
 15304      5F424F52 
 15304      4445525F 
 15304      57494454 
 15305              	.LASF589:
 15306 03dd 6C765F63 		.ascii	"lv_canvas_draw_line\000"
 15306      616E7661 
 15306      735F6472 
 15306      61775F6C 
 15306      696E6500 
ARM GAS  C:\Users\haske\AppData\Local\Temp\ccxUXv8a.s 			page 313


 15307              	.LASF545:
 15308 03f1 6C765F63 		.ascii	"lv_canvas_set_palette\000"
 15308      616E7661 
 15308      735F7365 
 15308      745F7061 
 15308      6C657474 
 15309              	.LASF494:
 15310 0407 4C565F45 		.ascii	"LV_EVENT_CHILD_CREATED\000"
 15310      56454E54 
 15310      5F434849 
 15310      4C445F43 
 15310      52454154 
 15311              	.LASF103:
 15312 041e 4C565F53 		.ascii	"LV_STYLE_PAD_COLUMN\000"
 15312      54594C45 
 15312      5F504144 
 15312      5F434F4C 
 15312      554D4E00 
 15313              	.LASF557:
 15314 0432 7069766F 		.ascii	"pivot_y\000"
 15314      745F7900 
 15315              	.LASF583:
 15316 043a 66616B65 		.ascii	"fake_disp\000"
 15316      5F646973 
 15316      7000
 15317              	.LASF425:
 15318 0444 4C565F50 		.ascii	"LV_PART_SELECTED\000"
 15318      4152545F 
 15318      53454C45 
 15318      43544544 
 15318      00
 15319              	.LASF463:
 15320 0455 4C565F45 		.ascii	"LV_EVENT_SHORT_CLICKED\000"
 15320      56454E54 
 15320      5F53484F 
 15320      52545F43 
 15320      4C49434B 
 15321              	.LASF113:
 15322 046c 4C565F53 		.ascii	"LV_STYLE_BG_DITHER_MODE\000"
 15322      54594C45 
 15322      5F42475F 
 15322      44495448 
 15322      45525F4D 
 15323              	.LASF599:
 15324 0484 6C765F64 		.ascii	"lv_draw_sw_deinit_ctx\000"
 15324      7261775F 
 15324      73775F64 
 15324      65696E69 
 15324      745F6374 
 15325              	.LASF253:
 15326 049a 62675F69 		.ascii	"bg_img_symbol_font\000"
 15326      6D675F73 
 15326      796D626F 
 15326      6C5F666F 
 15326      6E7400
 15327              	.LASF262:
 15328 04ad 626F7264 		.ascii	"border_side\000"
ARM GAS  C:\Users\haske\AppData\Local\Temp\ccxUXv8a.s 			page 314


 15328      65725F73 
 15328      69646500 
 15329              	.LASF1:
 15330 04b9 5F5F7569 		.ascii	"__uint8_t\000"
 15330      6E74385F 
 15330      7400
 15331              	.LASF246:
 15332 04c3 775F6C61 		.ascii	"w_layout\000"
 15332      796F7574 
 15332      00
 15333              	.LASF248:
 15334 04cc 626C656E 		.ascii	"blend_mode\000"
 15334      645F6D6F 
 15334      646500
 15335              	.LASF97:
 15336 04d7 4C565F53 		.ascii	"LV_STYLE_RADIUS\000"
 15336      54594C45 
 15336      5F524144 
 15336      49555300 
 15337              	.LASF364:
 15338 04e7 7665725F 		.ascii	"ver_res\000"
 15338      72657300 
 15339              	.LASF242:
 15340 04ef 7363725F 		.ascii	"scr_layout_inv\000"
 15340      6C61796F 
 15340      75745F69 
 15340      6E7600
 15341              	.LASF89:
 15342 04fe 4C565F53 		.ascii	"LV_STYLE_MAX_WIDTH\000"
 15342      54594C45 
 15342      5F4D4158 
 15342      5F574944 
 15342      544800
 15343              	.LASF394:
 15344 0511 73637265 		.ascii	"screens\000"
 15344      656E7300 
 15345              	.LASF116:
 15346 0519 4C565F53 		.ascii	"LV_STYLE_BG_IMG_RECOLOR\000"
 15346      54594C45 
 15346      5F42475F 
 15346      494D475F 
 15346      5245434F 
 15347              	.LASF133:
 15348 0531 4C565F53 		.ascii	"LV_STYLE_SHADOW_OPA\000"
 15348      54594C45 
 15348      5F534841 
 15348      444F575F 
 15348      4F504100 
 15349              	.LASF591:
 15350 0545 706F696E 		.ascii	"point_cnt\000"
 15350      745F636E 
 15350      7400
 15351              	.LASF164:
 15352 054f 4C565F53 		.ascii	"LV_STYLE_TRANSFORM_HEIGHT\000"
 15352      54594C45 
 15352      5F545241 
 15352      4E53464F 
ARM GAS  C:\Users\haske\AppData\Local\Temp\ccxUXv8a.s 			page 315


 15352      524D5F48 
 15353              	.LASF101:
 15354 0569 4C565F53 		.ascii	"LV_STYLE_PAD_RIGHT\000"
 15354      54594C45 
 15354      5F504144 
 15354      5F524947 
 15354      485400
 15355              	.LASF459:
 15356 057c 4C565F45 		.ascii	"LV_EVENT_ALL\000"
 15356      56454E54 
 15356      5F414C4C 
 15356      00
 15357              	.LASF205:
 15358 0589 4C565F49 		.ascii	"LV_IMG_CF_RGBA5658\000"
 15358      4D475F43 
 15358      465F5247 
 15358      42413536 
 15358      353800
 15359              	.LASF409:
 15360 059c 6C617374 		.ascii	"last_activity_time\000"
 15360      5F616374 
 15360      69766974 
 15360      795F7469 
 15360      6D6500
 15361              	.LASF9:
 15362 05af 6C6F6E67 		.ascii	"long int\000"
 15362      20696E74 
 15362      00
 15363              	.LASF161:
 15364 05b8 4C565F53 		.ascii	"LV_STYLE_TRANSITION\000"
 15364      54594C45 
 15364      5F545241 
 15364      4E534954 
 15364      494F4E00 
 15365              	.LASF374:
 15366 05cc 726F7461 		.ascii	"rotated\000"
 15366      74656400 
 15367              	.LASF520:
 15368 05d4 7363726F 		.ascii	"scroll_dir\000"
 15368      6C6C5F64 
 15368      697200
 15369              	.LASF447:
 15370 05df 67726F75 		.ascii	"group_def\000"
 15370      705F6465 
 15370      6600
 15371              	.LASF387:
 15372 05e9 64726177 		.ascii	"draw_ctx_deinit\000"
 15372      5F637478 
 15372      5F646569 
 15372      6E697400 
 15373              	.LASF117:
 15374 05f9 4C565F53 		.ascii	"LV_STYLE_BG_IMG_RECOLOR_OPA\000"
 15374      54594C45 
 15374      5F42475F 
 15374      494D475F 
 15374      5245434F 
 15375              	.LASF568:
ARM GAS  C:\Users\haske\AppData\Local\Temp\ccxUXv8a.s 			page 316


 15376 0615 6C696E65 		.ascii	"line_w\000"
 15376      5F7700
 15377              	.LASF249:
 15378 061c 62675F6F 		.ascii	"bg_opa\000"
 15378      706100
 15379              	.LASF392:
 15380 0623 72656672 		.ascii	"refr_timer\000"
 15380      5F74696D 
 15380      657200
 15381              	.LASF285:
 15382 062e 6C765F64 		.ascii	"lv_draw_label_dsc_t\000"
 15382      7261775F 
 15382      6C616265 
 15382      6C5F6473 
 15382      635F7400 
 15383              	.LASF202:
 15384 0642 4C565F49 		.ascii	"LV_IMG_CF_RGBA8888\000"
 15384      4D475F43 
 15384      465F5247 
 15384      42413838 
 15384      383800
 15385              	.LASF420:
 15386 0655 6C765F73 		.ascii	"lv_state_t\000"
 15386      74617465 
 15386      5F7400
 15387              	.LASF278:
 15388 0660 73656C5F 		.ascii	"sel_bg_color\000"
 15388      62675F63 
 15388      6F6C6F72 
 15388      00
 15389              	.LASF415:
 15390 066d 65646765 		.ascii	"edge_cb\000"
 15390      5F636200 
 15391              	.LASF406:
 15392 0675 696E765F 		.ascii	"inv_area_joined\000"
 15392      61726561 
 15392      5F6A6F69 
 15392      6E656400 
 15393              	.LASF118:
 15394 0685 4C565F53 		.ascii	"LV_STYLE_BG_IMG_TILED\000"
 15394      54594C45 
 15394      5F42475F 
 15394      494D475F 
 15394      54494C45 
 15395              	.LASF397:
 15396 069b 7363725F 		.ascii	"scr_to_load\000"
 15396      746F5F6C 
 15396      6F616400 
 15397              	.LASF341:
 15398 06a7 68656164 		.ascii	"head\000"
 15398      00
 15399              	.LASF120:
 15400 06ac 4C565F53 		.ascii	"LV_STYLE_BORDER_OPA\000"
 15400      54594C45 
 15400      5F424F52 
 15400      4445525F 
 15400      4F504100 
ARM GAS  C:\Users\haske\AppData\Local\Temp\ccxUXv8a.s 			page 317


 15401              	.LASF486:
 15402 06c0 4C565F45 		.ascii	"LV_EVENT_DRAW_PART_END\000"
 15402      56454E54 
 15402      5F445241 
 15402      575F5041 
 15402      52545F45 
 15403              	.LASF359:
 15404 06d7 6C617374 		.ascii	"last_area\000"
 15404      5F617265 
 15404      6100
 15405              	.LASF332:
 15406 06e1 62756666 		.ascii	"buffer_copy\000"
 15406      65725F63 
 15406      6F707900 
 15407              	.LASF263:
 15408 06ed 6F75746C 		.ascii	"outline_color\000"
 15408      696E655F 
 15408      636F6C6F 
 15408      7200
 15409              	.LASF132:
 15410 06fb 4C565F53 		.ascii	"LV_STYLE_SHADOW_COLOR\000"
 15410      54594C45 
 15410      5F534841 
 15410      444F575F 
 15410      434F4C4F 
 15411              	.LASF562:
 15412 0711 61627566 		.ascii	"abuf\000"
 15412      00
 15413              	.LASF244:
 15414 0716 7374796C 		.ascii	"style_cnt\000"
 15414      655F636E 
 15414      7400
 15415              	.LASF241:
 15416 0720 6C61796F 		.ascii	"layout_inv\000"
 15416      75745F69 
 15416      6E7600
 15417              	.LASF2:
 15418 072b 7369676E 		.ascii	"signed char\000"
 15418      65642063 
 15418      68617200 
 15419              	.LASF16:
 15420 0737 75696E74 		.ascii	"uint8_t\000"
 15420      385F7400 
 15421              	.LASF327:
 15422 073f 64726177 		.ascii	"draw_line\000"
 15422      5F6C696E 
 15422      6500
 15423              	.LASF363:
 15424 0749 686F725F 		.ascii	"hor_res\000"
 15424      72657300 
 15425              	.LASF578:
 15426 0751 636F6C5F 		.ascii	"col_buf\000"
 15426      62756600 
 15427              	.LASF539:
 15428 0759 63616E76 		.ascii	"canvas\000"
 15428      617300
 15429              	.LASF257:
ARM GAS  C:\Users\haske\AppData\Local\Temp\ccxUXv8a.s 			page 318


 15430 0760 62675F69 		.ascii	"bg_img_tiled\000"
 15430      6D675F74 
 15430      696C6564 
 15430      00
 15431              	.LASF109:
 15432 076d 4C565F53 		.ascii	"LV_STYLE_BG_GRAD_DIR\000"
 15432      54594C45 
 15432      5F42475F 
 15432      47524144 
 15432      5F444952 
 15433              	.LASF35:
 15434 0782 6765745F 		.ascii	"get_glyph_bitmap\000"
 15434      676C7970 
 15434      685F6269 
 15434      746D6170 
 15434      00
 15435              	.LASF619:
 15436 0793 6C765F69 		.ascii	"lv_img_cf_has_alpha\000"
 15436      6D675F63 
 15436      665F6861 
 15436      735F616C 
 15436      70686100 
 15437              	.LASF302:
 15438 07a7 656E645F 		.ascii	"end_angle\000"
 15438      616E676C 
 15438      6500
 15439              	.LASF64:
 15440 07b1 626C7565 		.ascii	"blue\000"
 15440      00
 15441              	.LASF187:
 15442 07b6 4C565F49 		.ascii	"LV_IMG_CF_RAW\000"
 15442      4D475F43 
 15442      465F5241 
 15442      5700
 15443              	.LASF95:
 15444 07c4 4C565F53 		.ascii	"LV_STYLE_ALIGN\000"
 15444      54594C45 
 15444      5F414C49 
 15444      474E00
 15445              	.LASF3:
 15446 07d3 756E7369 		.ascii	"unsigned char\000"
 15446      676E6564 
 15446      20636861 
 15446      7200
 15447              	.LASF398:
 15448 07e1 746F705F 		.ascii	"top_layer\000"
 15448      6C617965 
 15448      7200
 15449              	.LASF585:
 15450 07eb 63747261 		.ascii	"ctransp\000"
 15450      6E737000 
 15451              	.LASF503:
 15452 07f3 4C565F45 		.ascii	"LV_EVENT_GET_SELF_SIZE\000"
 15452      56454E54 
 15452      5F474554 
 15452      5F53454C 
 15452      465F5349 
ARM GAS  C:\Users\haske\AppData\Local\Temp\ccxUXv8a.s 			page 319


 15453              	.LASF480:
 15454 080a 4C565F45 		.ascii	"LV_EVENT_DRAW_MAIN\000"
 15454      56454E54 
 15454      5F445241 
 15454      575F4D41 
 15454      494E00
 15455              	.LASF300:
 15456 081d 6C765F64 		.ascii	"lv_draw_line_dsc_t\000"
 15456      7261775F 
 15456      6C696E65 
 15456      5F647363 
 15456      5F7400
 15457              	.LASF169:
 15458 0830 4C565F53 		.ascii	"LV_STYLE_TRANSFORM_PIVOT_X\000"
 15458      54594C45 
 15458      5F545241 
 15458      4E53464F 
 15458      524D5F50 
 15459              	.LASF170:
 15460 084b 4C565F53 		.ascii	"LV_STYLE_TRANSFORM_PIVOT_Y\000"
 15460      54594C45 
 15460      5F545241 
 15460      4E53464F 
 15460      524D5F50 
 15461              	.LASF509:
 15462 0866 6C765F67 		.ascii	"lv_group_t\000"
 15462      726F7570 
 15462      5F7400
 15463              	.LASF525:
 15464 0871 5F6C765F 		.ascii	"_lv_obj_spec_attr_t\000"
 15464      6F626A5F 
 15464      73706563 
 15464      5F617474 
 15464      725F7400 
 15465              	.LASF135:
 15466 0885 4C565F53 		.ascii	"LV_STYLE_IMG_RECOLOR\000"
 15466      54594C45 
 15466      5F494D47 
 15466      5F524543 
 15466      4F4C4F52 
 15467              	.LASF315:
 15468 089a 61726561 		.ascii	"area_act\000"
 15468      5F616374 
 15468      00
 15469              	.LASF143:
 15470 08a3 4C565F53 		.ascii	"LV_STYLE_ARC_WIDTH\000"
 15470      54594C45 
 15470      5F415243 
 15470      5F574944 
 15470      544800
 15471              	.LASF31:
 15472 08b6 6F66735F 		.ascii	"ofs_x\000"
 15472      7800
 15473              	.LASF32:
 15474 08bc 6F66735F 		.ascii	"ofs_y\000"
 15474      7900
 15475              	.LASF575:
ARM GAS  C:\Users\haske\AppData\Local\Temp\ccxUXv8a.s 			page 320


 15476 08c2 6273756D 		.ascii	"bsum\000"
 15476      00
 15477              	.LASF72:
 15478 08c7 6C765F62 		.ascii	"lv_base_dir_t\000"
 15478      6173655F 
 15478      6469725F 
 15478      7400
 15479              	.LASF228:
 15480 08d5 68656164 		.ascii	"header\000"
 15480      657200
 15481              	.LASF245:
 15482 08dc 685F6C61 		.ascii	"h_layout\000"
 15482      796F7574 
 15482      00
 15483              	.LASF358:
 15484 08e5 666C7573 		.ascii	"flushing_last\000"
 15484      68696E67 
 15484      5F6C6173 
 15484      7400
 15485              	.LASF44:
 15486 08f3 5F426F6F 		.ascii	"_Bool\000"
 15486      6C00
 15487              	.LASF517:
 15488 08f9 7363726F 		.ascii	"scrollbar_mode\000"
 15488      6C6C6261 
 15488      725F6D6F 
 15488      646500
 15489              	.LASF366:
 15490 0908 70687973 		.ascii	"physical_ver_res\000"
 15490      6963616C 
 15490      5F766572 
 15490      5F726573 
 15490      00
 15491              	.LASF318:
 15492 0919 6F726967 		.ascii	"original\000"
 15492      696E616C 
 15492      00
 15493              	.LASF165:
 15494 0922 4C565F53 		.ascii	"LV_STYLE_TRANSLATE_X\000"
 15494      54594C45 
 15494      5F545241 
 15494      4E534C41 
 15494      54455F58 
 15495              	.LASF166:
 15496 0937 4C565F53 		.ascii	"LV_STYLE_TRANSLATE_Y\000"
 15496      54594C45 
 15496      5F545241 
 15496      4E534C41 
 15496      54455F59 
 15497              	.LASF633:
 15498 094c 474E5520 		.ascii	"GNU C11 5.4.1 20160609 (release) [ARM/embedded-5-br"
 15498      43313120 
 15498      352E342E 
 15498      31203230 
 15498      31363036 
 15499 097f 616E6368 		.ascii	"anch revision 237715] -mcpu=cortex-m0plus -mthumb -"
 15499      20726576 
ARM GAS  C:\Users\haske\AppData\Local\Temp\ccxUXv8a.s 			page 321


 15499      6973696F 
 15499      6E203233 
 15499      37373135 
 15500 09b2 67202D4F 		.ascii	"g -Og -ffunction-sections -ffat-lto-objects\000"
 15500      67202D66 
 15500      66756E63 
 15500      74696F6E 
 15500      2D736563 
 15501              	.LASF456:
 15502 09de 73746F70 		.ascii	"stop_processing\000"
 15502      5F70726F 
 15502      63657373 
 15502      696E6700 
 15503              	.LASF177:
 15504 09ee 76616C75 		.ascii	"value\000"
 15504      6500
 15505              	.LASF609:
 15506 09f4 6C765F6D 		.ascii	"lv_memset_00\000"
 15506      656D7365 
 15506      745F3030 
 15506      00
 15507              	.LASF239:
 15508 0a01 666C6167 		.ascii	"flags\000"
 15508      7300
 15509              	.LASF309:
 15510 0a07 6C765F64 		.ascii	"lv_draw_layer_flags_t\000"
 15510      7261775F 
 15510      6C617965 
 15510      725F666C 
 15510      6167735F 
 15511              	.LASF616:
 15512 0a1d 6C765F64 		.ascii	"lv_draw_img_dsc_init\000"
 15512      7261775F 
 15512      696D675F 
 15512      6473635F 
 15512      696E6974 
 15513              	.LASF50:
 15514 0a32 63686172 		.ascii	"char\000"
 15514      00
 15515              	.LASF293:
 15516 0a37 6C765F64 		.ascii	"lv_draw_img_dsc_t\000"
 15516      7261775F 
 15516      696D675F 
 15516      6473635F 
 15516      7400
 15517              	.LASF636:
 15518 0a49 6C765F61 		.ascii	"lv_area_copy\000"
 15518      7265615F 
 15518      636F7079 
 15518      00
 15519              	.LASF478:
 15520 0a56 4C565F45 		.ascii	"LV_EVENT_REFR_EXT_DRAW_SIZE\000"
 15520      56454E54 
 15520      5F524546 
 15520      525F4558 
 15520      545F4452 
 15521              	.LASF39:
ARM GAS  C:\Users\haske\AppData\Local\Temp\ccxUXv8a.s 			page 322


 15522 0a72 756E6465 		.ascii	"underline_position\000"
 15522      726C696E 
 15522      655F706F 
 15522      73697469 
 15522      6F6E00
 15523              	.LASF337:
 15524 0a85 6C617965 		.ascii	"layer_instance_size\000"
 15524      725F696E 
 15524      7374616E 
 15524      63655F73 
 15524      697A6500 
 15525              	.LASF610:
 15526 0a99 6C765F64 		.ascii	"lv_disp_drv_init\000"
 15526      6973705F 
 15526      6472765F 
 15526      696E6974 
 15526      00
 15527              	.LASF296:
 15528 0aaa 64617368 		.ascii	"dash_gap\000"
 15528      5F676170 
 15528      00
 15529              	.LASF329:
 15530 0ab3 64726177 		.ascii	"draw_transform\000"
 15530      5F747261 
 15530      6E73666F 
 15530      726D00
 15531              	.LASF370:
 15532 0ac2 64697265 		.ascii	"direct_mode\000"
 15532      63745F6D 
 15532      6F646500 
 15533              	.LASF477:
 15534 0ace 4C565F45 		.ascii	"LV_EVENT_COVER_CHECK\000"
 15534      56454E54 
 15534      5F434F56 
 15534      45525F43 
 15534      4845434B 
 15535              	.LASF104:
 15536 0ae3 4C565F53 		.ascii	"LV_STYLE_BASE_DIR\000"
 15536      54594C45 
 15536      5F424153 
 15536      455F4449 
 15536      5200
 15537              	.LASF126:
 15538 0af5 4C565F53 		.ascii	"LV_STYLE_OUTLINE_OPA\000"
 15538      54594C45 
 15538      5F4F5554 
 15538      4C494E45 
 15538      5F4F5041 
 15539              	.LASF605:
 15540 0b0a 6C765F69 		.ascii	"lv_img_buf_set_px_alpha\000"
 15540      6D675F62 
 15540      75665F73 
 15540      65745F70 
 15540      785F616C 
 15541              	.LASF537:
 15542 0b22 6C765F63 		.ascii	"lv_canvas_destructor\000"
 15542      616E7661 
ARM GAS  C:\Users\haske\AppData\Local\Temp\ccxUXv8a.s 			page 323


 15542      735F6465 
 15542      73747275 
 15542      63746F72 
 15543              	.LASF82:
 15544 0b37 73746F70 		.ascii	"stops_count\000"
 15544      735F636F 
 15544      756E7400 
 15545              	.LASF373:
 15546 0b43 616E7469 		.ascii	"antialiasing\000"
 15546      616C6961 
 15546      73696E67 
 15546      00
 15547              	.LASF556:
 15548 0b50 7069766F 		.ascii	"pivot_x\000"
 15548      745F7800 
 15549              	.LASF391:
 15550 0b58 64726976 		.ascii	"driver\000"
 15550      657200
 15551              	.LASF6:
 15552 0b5f 5F5F7569 		.ascii	"__uint16_t\000"
 15552      6E743136 
 15552      5F7400
 15553              	.LASF476:
 15554 0b6a 4C565F45 		.ascii	"LV_EVENT_HIT_TEST\000"
 15554      56454E54 
 15554      5F484954 
 15554      5F544553 
 15554      5400
 15555              	.LASF265:
 15556 0b7c 6F75746C 		.ascii	"outline_pad\000"
 15556      696E655F 
 15556      70616400 
 15557              	.LASF338:
 15558 0b88 6C765F64 		.ascii	"lv_draw_ctx_t\000"
 15558      7261775F 
 15558      6374785F 
 15558      7400
 15559              	.LASF106:
 15560 0b96 4C565F53 		.ascii	"LV_STYLE_BG_COLOR\000"
 15560      54594C45 
 15560      5F42475F 
 15560      434F4C4F 
 15560      5200
 15561              	.LASF136:
 15562 0ba8 4C565F53 		.ascii	"LV_STYLE_IMG_RECOLOR_OPA\000"
 15562      54594C45 
 15562      5F494D47 
 15562      5F524543 
 15562      4F4C4F52 
 15563              	.LASF258:
 15564 0bc1 626F7264 		.ascii	"border_color\000"
 15564      65725F63 
 15564      6F6C6F72 
 15564      00
 15565              	.LASF162:
 15566 0bce 4C565F53 		.ascii	"LV_STYLE_BLEND_MODE\000"
 15566      54594C45 
ARM GAS  C:\Users\haske\AppData\Local\Temp\ccxUXv8a.s 			page 324


 15566      5F424C45 
 15566      4E445F4D 
 15566      4F444500 
 15567              	.LASF26:
 15568 0be2 6C765F64 		.ascii	"lv_dir_t\000"
 15568      69725F74 
 15568      00
 15569              	.LASF498:
 15570 0beb 4C565F45 		.ascii	"LV_EVENT_SCREEN_LOADED\000"
 15570      56454E54 
 15570      5F534352 
 15570      45454E5F 
 15570      4C4F4144 
 15571              	.LASF176:
 15572 0c02 70726F70 		.ascii	"prop\000"
 15572      00
 15573              	.LASF430:
 15574 0c07 4C565F50 		.ascii	"LV_PART_ANY\000"
 15574      4152545F 
 15574      414E5900 
 15575              	.LASF181:
 15576 0c13 636F6E73 		.ascii	"const_props\000"
 15576      745F7072 
 15576      6F707300 
 15577              	.LASF581:
 15578 0c1f 726F775F 		.ascii	"row_byte_cnt\000"
 15578      62797465 
 15578      5F636E74 
 15578      00
 15579              	.LASF602:
 15580 0c2c 6C765F6F 		.ascii	"lv_obj_class_init_obj\000"
 15580      626A5F63 
 15580      6C617373 
 15580      5F696E69 
 15580      745F6F62 
 15581              	.LASF438:
 15582 0c42 5F6C765F 		.ascii	"_lv_obj_style_t\000"
 15582      6F626A5F 
 15582      7374796C 
 15582      655F7400 
 15583              	.LASF261:
 15584 0c52 626F7264 		.ascii	"border_post\000"
 15584      65725F70 
 15584      6F737400 
 15585              	.LASF513:
 15586 0c5e 6576656E 		.ascii	"event_dsc\000"
 15586      745F6473 
 15586      6300
 15587              	.LASF357:
 15588 0c68 666C7573 		.ascii	"flushing\000"
 15588      68696E67 
 15588      00
 15589              	.LASF580:
 15590 0c71 6C765F63 		.ascii	"lv_canvas_fill_bg\000"
 15590      616E7661 
 15590      735F6669 
 15590      6C6C5F62 
ARM GAS  C:\Users\haske\AppData\Local\Temp\ccxUXv8a.s 			page 325


 15590      6700
 15591              	.LASF138:
 15592 0c83 4C565F53 		.ascii	"LV_STYLE_LINE_DASH_WIDTH\000"
 15592      54594C45 
 15592      5F4C494E 
 15592      455F4441 
 15592      53485F57 
 15593              	.LASF637:
 15594 0c9c 6C765F63 		.ascii	"lv_color_white\000"
 15594      6F6C6F72 
 15594      5F776869 
 15594      746500
 15595              	.LASF536:
 15596 0cab 6C765F63 		.ascii	"lv_color_hex\000"
 15596      6F6C6F72 
 15596      5F686578 
 15596      00
 15597              	.LASF269:
 15598 0cb8 73686164 		.ascii	"shadow_ofs_x\000"
 15598      6F775F6F 
 15598      66735F78 
 15598      00
 15599              	.LASF163:
 15600 0cc5 4C565F53 		.ascii	"LV_STYLE_TRANSFORM_WIDTH\000"
 15600      54594C45 
 15600      5F545241 
 15600      4E53464F 
 15600      524D5F57 
 15601              	.LASF351:
 15602 0cde 6C765F74 		.ascii	"lv_timer_t\000"
 15602      696D6572 
 15602      5F7400
 15603              	.LASF512:
 15604 0ce9 67726F75 		.ascii	"group_p\000"
 15604      705F7000 
 15605              	.LASF175:
 15606 0cf1 6C765F73 		.ascii	"lv_style_prop_t\000"
 15606      74796C65 
 15606      5F70726F 
 15606      705F7400 
 15607              	.LASF297:
 15608 0d01 726F756E 		.ascii	"round_start\000"
 15608      645F7374 
 15608      61727400 
 15609              	.LASF514:
 15610 0d0d 7363726F 		.ascii	"scroll\000"
 15610      6C6C00
 15611              	.LASF41:
 15612 0d14 66616C6C 		.ascii	"fallback\000"
 15612      6261636B 
 15612      00
 15613              	.LASF554:
 15614 0d1d 6C765F63 		.ascii	"lv_canvas_transform\000"
 15614      616E7661 
 15614      735F7472 
 15614      616E7366 
 15614      6F726D00 
ARM GAS  C:\Users\haske\AppData\Local\Temp\ccxUXv8a.s 			page 326


 15615              	.LASF180:
 15616 0d31 76616C75 		.ascii	"values_and_props\000"
 15616      65735F61 
 15616      6E645F70 
 15616      726F7073 
 15616      00
 15617              	.LASF372:
 15618 0d42 73775F72 		.ascii	"sw_rotate\000"
 15618      6F746174 
 15618      6500
 15619              	.LASF522:
 15620 0d4c 6C617965 		.ascii	"layer_type\000"
 15620      725F7479 
 15620      706500
 15621              	.LASF160:
 15622 0d57 4C565F53 		.ascii	"LV_STYLE_ANIM_SPEED\000"
 15622      54594C45 
 15622      5F414E49 
 15622      4D5F5350 
 15622      45454400 
 15623              	.LASF25:
 15624 0d6b 6C765F61 		.ascii	"lv_area_t\000"
 15624      7265615F 
 15624      7400
 15625              	.LASF333:
 15626 0d75 6C617965 		.ascii	"layer_init\000"
 15626      725F696E 
 15626      697400
 15627              	.LASF124:
 15628 0d80 4C565F53 		.ascii	"LV_STYLE_OUTLINE_WIDTH\000"
 15628      54594C45 
 15628      5F4F5554 
 15628      4C494E45 
 15628      5F574944 
 15629              	.LASF516:
 15630 0d97 6578745F 		.ascii	"ext_draw_size\000"
 15630      64726177 
 15630      5F73697A 
 15630      6500
 15631              	.LASF508:
 15632 0da5 6C765F67 		.ascii	"lv_group_edge_cb_t\000"
 15632      726F7570 
 15632      5F656467 
 15632      655F6362 
 15632      5F7400
 15633              	.LASF620:
 15634 0db8 6C765F69 		.ascii	"lv_img_buf_get_img_size\000"
 15634      6D675F62 
 15634      75665F67 
 15634      65745F69 
 15634      6D675F73 
 15635              	.LASF627:
 15636 0dd0 6C765F64 		.ascii	"lv_draw_label\000"
 15636      7261775F 
 15636      6C616265 
 15636      6C00
 15637              	.LASF207:
ARM GAS  C:\Users\haske\AppData\Local\Temp\ccxUXv8a.s 			page 327


 15638 0dde 4C565F49 		.ascii	"LV_IMG_CF_RESERVED_15\000"
 15638      4D475F43 
 15638      465F5245 
 15638      53455256 
 15638      45445F31 
 15639              	.LASF208:
 15640 0df4 4C565F49 		.ascii	"LV_IMG_CF_RESERVED_16\000"
 15640      4D475F43 
 15640      465F5245 
 15640      53455256 
 15640      45445F31 
 15641              	.LASF86:
 15642 0e0a 4C565F53 		.ascii	"LV_STYLE_PROP_INV\000"
 15642      54594C45 
 15642      5F50524F 
 15642      505F494E 
 15642      5600
 15643              	.LASF210:
 15644 0e1c 4C565F49 		.ascii	"LV_IMG_CF_RESERVED_18\000"
 15644      4D475F43 
 15644      465F5245 
 15644      53455256 
 15644      45445F31 
 15645              	.LASF152:
 15646 0e32 4C565F53 		.ascii	"LV_STYLE_TEXT_LINE_SPACE\000"
 15646      54594C45 
 15646      5F544558 
 15646      545F4C49 
 15646      4E455F53 
 15647              	.LASF458:
 15648 0e4b 6C765F6F 		.ascii	"lv_obj_class_t\000"
 15648      626A5F63 
 15648      6C617373 
 15648      5F7400
 15649              	.LASF178:
 15650 0e5a 6C765F73 		.ascii	"lv_style_const_prop_t\000"
 15650      74796C65 
 15650      5F636F6E 
 15650      73745F70 
 15650      726F705F 
 15651              	.LASF481:
 15652 0e70 4C565F45 		.ascii	"LV_EVENT_DRAW_MAIN_END\000"
 15652      56454E54 
 15652      5F445241 
 15652      575F4D41 
 15652      494E5F45 
 15653              	.LASF235:
 15654 0e87 70617265 		.ascii	"parent\000"
 15654      6E7400
 15655              	.LASF371:
 15656 0e8e 66756C6C 		.ascii	"full_refresh\000"
 15656      5F726566 
 15656      72657368 
 15656      00
 15657              	.LASF298:
 15658 0e9b 726F756E 		.ascii	"round_end\000"
 15658      645F656E 
ARM GAS  C:\Users\haske\AppData\Local\Temp\ccxUXv8a.s 			page 328


 15658      6400
 15659              	.LASF303:
 15660 0ea5 696D675F 		.ascii	"img_src\000"
 15660      73726300 
 15661              	.LASF437:
 15662 0ead 69735F74 		.ascii	"is_trans\000"
 15662      72616E73 
 15662      00
 15663              	.LASF608:
 15664 0eb6 6C765F69 		.ascii	"lv_img_buf_get_px_color\000"
 15664      6D675F62 
 15664      75665F67 
 15664      65745F70 
 15664      785F636F 
 15665              	.LASF552:
 15666 0ece 70785F73 		.ascii	"px_size\000"
 15666      697A6500 
 15667              	.LASF271:
 15668 0ed6 73686164 		.ascii	"shadow_spread\000"
 15668      6F775F73 
 15668      70726561 
 15668      6400
 15669              	.LASF159:
 15670 0ee4 4C565F53 		.ascii	"LV_STYLE_ANIM_TIME\000"
 15670      54594C45 
 15670      5F414E49 
 15670      4D5F5449 
 15670      4D4500
 15671              	.LASF99:
 15672 0ef7 4C565F53 		.ascii	"LV_STYLE_PAD_BOTTOM\000"
 15672      54594C45 
 15672      5F504144 
 15672      5F424F54 
 15672      544F4D00 
 15673              	.LASF444:
 15674 0f0b 77696474 		.ascii	"width_def\000"
 15674      685F6465 
 15674      6600
 15675              	.LASF564:
 15676 0f15 61726561 		.ascii	"area\000"
 15676      00
 15677              	.LASF212:
 15678 0f1a 4C565F49 		.ascii	"LV_IMG_CF_RESERVED_20\000"
 15678      4D475F43 
 15678      465F5245 
 15678      53455256 
 15678      45445F32 
 15679              	.LASF213:
 15680 0f30 4C565F49 		.ascii	"LV_IMG_CF_RESERVED_21\000"
 15680      4D475F43 
 15680      465F5245 
 15680      53455256 
 15680      45445F32 
 15681              	.LASF214:
 15682 0f46 4C565F49 		.ascii	"LV_IMG_CF_RESERVED_22\000"
 15682      4D475F43 
 15682      465F5245 
ARM GAS  C:\Users\haske\AppData\Local\Temp\ccxUXv8a.s 			page 329


 15682      53455256 
 15682      45445F32 
 15683              	.LASF215:
 15684 0f5c 4C565F49 		.ascii	"LV_IMG_CF_RESERVED_23\000"
 15684      4D475F43 
 15684      465F5245 
 15684      53455256 
 15684      45445F32 
 15685              	.LASF378:
 15686 0f72 636C6561 		.ascii	"clear_cb\000"
 15686      725F6362 
 15686      00
 15687              	.LASF107:
 15688 0f7b 4C565F53 		.ascii	"LV_STYLE_BG_OPA\000"
 15688      54594C45 
 15688      5F42475F 
 15688      4F504100 
 15689              	.LASF142:
 15690 0f8b 4C565F53 		.ascii	"LV_STYLE_LINE_OPA\000"
 15690      54594C45 
 15690      5F4C494E 
 15690      455F4F50 
 15690      4100
 15691              	.LASF185:
 15692 0f9d 6C765F73 		.ascii	"lv_style_t\000"
 15692      74796C65 
 15692      5F7400
 15693              	.LASF110:
 15694 0fa8 4C565F53 		.ascii	"LV_STYLE_BG_MAIN_STOP\000"
 15694      54594C45 
 15694      5F42475F 
 15694      4D41494E 
 15694      5F53544F 
 15695              	.LASF634:
 15696 0fbe 2E2E5C2E 		.ascii	"..\\..\\..\\arduinoLCD\\test\\Pain Drain\\libraries"
 15696      2E5C2E2E 
 15696      5C617264 
 15696      75696E6F 
 15696      4C43445C 
 15697 0feb 5C6C7667 		.ascii	"\\lvgl\\src\\widgets\\lv_canvas.c\000"
 15697      6C5C7372 
 15697      635C7769 
 15697      64676574 
 15697      735C6C76 
 15698              	.LASF237:
 15699 1009 7374796C 		.ascii	"styles\000"
 15699      657300
 15700              	.LASF511:
 15701 1010 6368696C 		.ascii	"child_cnt\000"
 15701      645F636E 
 15701      7400
 15702              	.LASF134:
 15703 101a 4C565F53 		.ascii	"LV_STYLE_IMG_OPA\000"
 15703      54594C45 
 15703      5F494D47 
 15703      5F4F5041 
 15703      00
ARM GAS  C:\Users\haske\AppData\Local\Temp\ccxUXv8a.s 			page 330


 15704              	.LASF167:
 15705 102b 4C565F53 		.ascii	"LV_STYLE_TRANSFORM_ZOOM\000"
 15705      54594C45 
 15705      5F545241 
 15705      4E53464F 
 15705      524D5F5A 
 15706              	.LASF475:
 15707 1043 4C565F45 		.ascii	"LV_EVENT_LEAVE\000"
 15707      56454E54 
 15707      5F4C4541 
 15707      564500
 15708              	.LASF11:
 15709 1052 6C6F6E67 		.ascii	"long unsigned int\000"
 15709      20756E73 
 15709      69676E65 
 15709      6420696E 
 15709      7400
 15710              	.LASF519:
 15711 1064 7363726F 		.ascii	"scroll_snap_y\000"
 15711      6C6C5F73 
 15711      6E61705F 
 15711      7900
 15712              	.LASF224:
 15713 1072 6C765F69 		.ascii	"lv_img_cf_t\000"
 15713      6D675F63 
 15713      665F7400 
 15714              	.LASF149:
 15715 107e 4C565F53 		.ascii	"LV_STYLE_TEXT_OPA\000"
 15715      54594C45 
 15715      5F544558 
 15715      545F4F50 
 15715      4100
 15716              	.LASF301:
 15717 1090 73746172 		.ascii	"start_angle\000"
 15717      745F616E 
 15717      676C6500 
 15718              	.LASF453:
 15719 109c 70617261 		.ascii	"param\000"
 15719      6D00
 15720              	.LASF450:
 15721 10a2 74617267 		.ascii	"target\000"
 15721      657400
 15722              	.LASF401:
 15723 10a9 64726177 		.ascii	"draw_prev_over_act\000"
 15723      5F707265 
 15723      765F6F76 
 15723      65725F61 
 15723      637400
 15724              	.LASF336:
 15725 10bc 6C617965 		.ascii	"layer_destroy\000"
 15725      725F6465 
 15725      7374726F 
 15725      7900
 15726              	.LASF295:
 15727 10ca 64617368 		.ascii	"dash_width\000"
 15727      5F776964 
 15727      746800
ARM GAS  C:\Users\haske\AppData\Local\Temp\ccxUXv8a.s 			page 331


 15728              	.LASF360:
 15729 10d5 6C617374 		.ascii	"last_part\000"
 15729      5F706172 
 15729      7400
 15730              	.LASF446:
 15731 10df 65646974 		.ascii	"editable\000"
 15731      61626C65 
 15731      00
 15732              	.LASF393:
 15733 10e8 7468656D 		.ascii	"theme\000"
 15733      6500
 15734              	.LASF367:
 15735 10ee 6F666673 		.ascii	"offset_x\000"
 15735      65745F78 
 15735      00
 15736              	.LASF368:
 15737 10f7 6F666673 		.ascii	"offset_y\000"
 15737      65745F79 
 15737      00
 15738              	.LASF546:
 15739 1100 6C765F63 		.ascii	"lv_canvas_create\000"
 15739      616E7661 
 15739      735F6372 
 15739      65617465 
 15739      00
 15740              	.LASF27:
 15741 1111 7265736F 		.ascii	"resolved_font\000"
 15741      6C766564 
 15741      5F666F6E 
 15741      7400
 15742              	.LASF621:
 15743 111f 6C765F6D 		.ascii	"lv_mem_buf_get\000"
 15743      656D5F62 
 15743      75665F67 
 15743      657400
 15744              	.LASF412:
 15745 112e 6F626A5F 		.ascii	"obj_ll\000"
 15745      6C6C00
 15746              	.LASF323:
 15747 1135 64726177 		.ascii	"draw_arc\000"
 15747      5F617263 
 15747      00
 15748              	.LASF141:
 15749 113e 4C565F53 		.ascii	"LV_STYLE_LINE_COLOR\000"
 15749      54594C45 
 15749      5F4C494E 
 15749      455F434F 
 15749      4C4F5200 
 15750              	.LASF52:
 15751 1152 4C565F4F 		.ascii	"LV_OPA_0\000"
 15751      50415F30 
 15751      00
 15752              	.LASF529:
 15753 115b 6F626A5F 		.ascii	"obj_size_mode\000"
 15753      73697A65 
 15753      5F6D6F64 
 15753      6500
ARM GAS  C:\Users\haske\AppData\Local\Temp\ccxUXv8a.s 			page 332


 15754              	.LASF102:
 15755 1169 4C565F53 		.ascii	"LV_STYLE_PAD_ROW\000"
 15755      54594C45 
 15755      5F504144 
 15755      5F524F57 
 15755      00
 15756              	.LASF352:
 15757 117a 5F6C765F 		.ascii	"_lv_disp_draw_buf_t\000"
 15757      64697370 
 15757      5F647261 
 15757      775F6275 
 15757      665F7400 
 15758              	.LASF311:
 15759 118e 6275665F 		.ascii	"buf_area\000"
 15759      61726561 
 15759      00
 15760              	.LASF287:
 15761 1197 7A6F6F6D 		.ascii	"zoom\000"
 15761      00
 15762              	.LASF289:
 15763 119c 7265636F 		.ascii	"recolor\000"
 15763      6C6F7200 
 15764              	.LASF229:
 15765 11a4 64617461 		.ascii	"data_size\000"
 15765      5F73697A 
 15765      6500
 15766              	.LASF448:
 15767 11ae 696E7374 		.ascii	"instance_size\000"
 15767      616E6365 
 15767      5F73697A 
 15767      6500
 15768              	.LASF588:
 15769 11bc 6C765F63 		.ascii	"lv_canvas_draw_img\000"
 15769      616E7661 
 15769      735F6472 
 15769      61775F69 
 15769      6D6700
 15770              	.LASF286:
 15771 11cf 616E676C 		.ascii	"angle\000"
 15771      6500
 15772              	.LASF100:
 15773 11d5 4C565F53 		.ascii	"LV_STYLE_PAD_LEFT\000"
 15773      54594C45 
 15773      5F504144 
 15773      5F4C4546 
 15773      5400
 15774              	.LASF386:
 15775 11e7 64726177 		.ascii	"draw_ctx_init\000"
 15775      5F637478 
 15775      5F696E69 
 15775      7400
 15776              	.LASF451:
 15777 11f5 63757272 		.ascii	"current_target\000"
 15777      656E745F 
 15777      74617267 
 15777      657400
 15778              	.LASF495:
ARM GAS  C:\Users\haske\AppData\Local\Temp\ccxUXv8a.s 			page 333


 15779 1204 4C565F45 		.ascii	"LV_EVENT_CHILD_DELETED\000"
 15779      56454E54 
 15779      5F434849 
 15779      4C445F44 
 15779      454C4554 
 15780              	.LASF629:
 15781 121b 6C765F64 		.ascii	"lv_draw_img\000"
 15781      7261775F 
 15781      696D6700 
 15782              	.LASF563:
 15783 1227 6C765F63 		.ascii	"lv_canvas_blur_hor\000"
 15783      616E7661 
 15783      735F626C 
 15783      75725F68 
 15783      6F7200
 15784              	.LASF424:
 15785 123a 4C565F50 		.ascii	"LV_PART_KNOB\000"
 15785      4152545F 
 15785      4B4E4F42 
 15785      00
 15786              	.LASF622:
 15787 1247 6C765F6D 		.ascii	"lv_mem_buf_release\000"
 15787      656D5F62 
 15787      75665F72 
 15787      656C6561 
 15787      736500
 15788              	.LASF324:
 15789 125a 64726177 		.ascii	"draw_img_decoded\000"
 15789      5F696D67 
 15789      5F646563 
 15789      6F646564 
 15789      00
 15790              	.LASF344:
 15791 126b 6C765F74 		.ascii	"lv_timer_cb_t\000"
 15791      696D6572 
 15791      5F63625F 
 15791      7400
 15792              	.LASF158:
 15793 1279 4C565F53 		.ascii	"LV_STYLE_ANIM\000"
 15793      54594C45 
 15793      5F414E49 
 15793      4D00
 15794              	.LASF93:
 15795 1287 4C565F53 		.ascii	"LV_STYLE_X\000"
 15795      54594C45 
 15795      5F5800
 15796              	.LASF569:
 15797 1292 6C696E65 		.ascii	"line_buf\000"
 15797      5F627566 
 15797      00
 15798              	.LASF154:
 15799 129b 4C565F53 		.ascii	"LV_STYLE_TEXT_ALIGN\000"
 15799      54594C45 
 15799      5F544558 
 15799      545F414C 
 15799      49474E00 
 15800              	.LASF570:
ARM GAS  C:\Users\haske\AppData\Local\Temp\ccxUXv8a.s 			page 334


 15801 12af 6C696E65 		.ascii	"line_img\000"
 15801      5F696D67 
 15801      00
 15802              	.LASF350:
 15803 12b8 70617573 		.ascii	"paused\000"
 15803      656400
 15804              	.LASF596:
 15805 12bf 6C765F63 		.ascii	"lv_canvas_class\000"
 15805      616E7661 
 15805      735F636C 
 15805      61737300 
 15806              	.LASF232:
 15807 12cf 5F6C765F 		.ascii	"_lv_font_t\000"
 15807      666F6E74 
 15807      5F7400
 15808              	.LASF380:
 15809 12da 77616974 		.ascii	"wait_cb\000"
 15809      5F636200 
 15810              	.LASF10:
 15811 12e2 5F5F7569 		.ascii	"__uint32_t\000"
 15811      6E743332 
 15811      5F7400
 15812              	.LASF443:
 15813 12ed 6576656E 		.ascii	"event_cb\000"
 15813      745F6362 
 15813      00
 15814              	.LASF506:
 15815 12f6 6C765F65 		.ascii	"lv_event_code_t\000"
 15815      76656E74 
 15815      5F636F64 
 15815      655F7400 
 15816              	.LASF571:
 15817 1306 785F7361 		.ascii	"x_safe\000"
 15817      666500
 15818              	.LASF74:
 15819 130d 6C765F74 		.ascii	"lv_text_decor_t\000"
 15819      6578745F 
 15819      6465636F 
 15819      725F7400 
 15820              	.LASF449:
 15821 131d 5F6C765F 		.ascii	"_lv_event_t\000"
 15821      6576656E 
 15821      745F7400 
 15822              	.LASF12:
 15823 1329 6C6F6E67 		.ascii	"long long int\000"
 15823      206C6F6E 
 15823      6720696E 
 15823      7400
 15824              	.LASF267:
 15825 1337 73686164 		.ascii	"shadow_color\000"
 15825      6F775F63 
 15825      6F6C6F72 
 15825      00
 15826              	.LASF455:
 15827 1344 64656C65 		.ascii	"deleted\000"
 15827      74656400 
 15828              	.LASF294:
ARM GAS  C:\Users\haske\AppData\Local\Temp\ccxUXv8a.s 			page 335


 15829 134c 77696474 		.ascii	"width\000"
 15829      6800
 15830              	.LASF470:
 15831 1352 4C565F45 		.ascii	"LV_EVENT_SCROLL\000"
 15831      56454E54 
 15831      5F534352 
 15831      4F4C4C00 
 15832              	.LASF595:
 15833 1362 6C765F69 		.ascii	"lv_img_class\000"
 15833      6D675F63 
 15833      6C617373 
 15833      00
 15834              	.LASF353:
 15835 136f 62756631 		.ascii	"buf1\000"
 15835      00
 15836              	.LASF354:
 15837 1374 62756632 		.ascii	"buf2\000"
 15837      00
 15838              	.LASF510:
 15839 1379 6368696C 		.ascii	"children\000"
 15839      6472656E 
 15839      00
 15840              	.LASF168:
 15841 1382 4C565F53 		.ascii	"LV_STYLE_TRANSFORM_ANGLE\000"
 15841      54594C45 
 15841      5F545241 
 15841      4E53464F 
 15841      524D5F41 
 15842              	.LASF306:
 15843 139b 4C565F44 		.ascii	"LV_DRAW_LAYER_FLAG_NONE\000"
 15843      5241575F 
 15843      4C415945 
 15843      525F464C 
 15843      41475F4E 
 15844              	.LASF156:
 15845 13b3 4C565F53 		.ascii	"LV_STYLE_COLOR_FILTER_DSC\000"
 15845      54594C45 
 15845      5F434F4C 
 15845      4F525F46 
 15845      494C5445 
 15846              	.LASF606:
 15847 13cd 6C765F69 		.ascii	"lv_img_buf_set_palette\000"
 15847      6D675F62 
 15847      75665F73 
 15847      65745F70 
 15847      616C6574 
 15848              	.LASF71:
 15849 13e4 6C765F74 		.ascii	"lv_text_align_t\000"
 15849      6578745F 
 15849      616C6967 
 15849      6E5F7400 
 15850              	.LASF628:
 15851 13f4 6C765F69 		.ascii	"lv_img_decoder_get_info\000"
 15851      6D675F64 
 15851      65636F64 
 15851      65725F67 
 15851      65745F69 
ARM GAS  C:\Users\haske\AppData\Local\Temp\ccxUXv8a.s 			page 336


 15852              	.LASF40:
 15853 140c 756E6465 		.ascii	"underline_thickness\000"
 15853      726C696E 
 15853      655F7468 
 15853      69636B6E 
 15853      65737300 
 15854              	.LASF153:
 15855 1420 4C565F53 		.ascii	"LV_STYLE_TEXT_DECOR\000"
 15855      54594C45 
 15855      5F544558 
 15855      545F4445 
 15855      434F5200 
 15856              	.LASF468:
 15857 1434 4C565F45 		.ascii	"LV_EVENT_SCROLL_BEGIN\000"
 15857      56454E54 
 15857      5F534352 
 15857      4F4C4C5F 
 15857      42454749 
 15858              	.LASF282:
 15859 144a 616C6967 		.ascii	"align\000"
 15859      6E00
 15860              	.LASF51:
 15861 1450 4C565F4F 		.ascii	"LV_OPA_TRANSP\000"
 15861      50415F54 
 15861      52414E53 
 15861      5000
 15862              	.LASF144:
 15863 145e 4C565F53 		.ascii	"LV_STYLE_ARC_ROUNDED\000"
 15863      54594C45 
 15863      5F415243 
 15863      5F524F55 
 15863      4E444544 
 15864              	.LASF565:
 15865 1473 725F6261 		.ascii	"r_back\000"
 15865      636B00
 15866              	.LASF379:
 15867 147a 6D6F6E69 		.ascii	"monitor_cb\000"
 15867      746F725F 
 15867      636200
 15868              	.LASF198:
 15869 1485 4C565F49 		.ascii	"LV_IMG_CF_ALPHA_2BIT\000"
 15869      4D475F43 
 15869      465F414C 
 15869      5048415F 
 15869      32424954 
 15870              	.LASF243:
 15871 149a 736B6970 		.ascii	"skip_trans\000"
 15871      5F747261 
 15871      6E7300
 15872              	.LASF423:
 15873 14a5 4C565F50 		.ascii	"LV_PART_INDICATOR\000"
 15873      4152545F 
 15873      494E4449 
 15873      4341544F 
 15873      5200
 15874              	.LASF422:
 15875 14b7 4C565F50 		.ascii	"LV_PART_SCROLLBAR\000"
ARM GAS  C:\Users\haske\AppData\Local\Temp\ccxUXv8a.s 			page 337


 15875      4152545F 
 15875      5343524F 
 15875      4C4C4241 
 15875      5200
 15876              	.LASF199:
 15877 14c9 4C565F49 		.ascii	"LV_IMG_CF_ALPHA_4BIT\000"
 15877      4D475F43 
 15877      465F414C 
 15877      5048415F 
 15877      34424954 
 15878              	.LASF148:
 15879 14de 4C565F53 		.ascii	"LV_STYLE_TEXT_COLOR\000"
 15879      54594C45 
 15879      5F544558 
 15879      545F434F 
 15879      4C4F5200 
 15880              	.LASF492:
 15881 14f2 4C565F45 		.ascii	"LV_EVENT_DELETE\000"
 15881      56454E54 
 15881      5F44454C 
 15881      45544500 
 15882              	.LASF234:
 15883 1502 636C6173 		.ascii	"class_p\000"
 15883      735F7000 
 15884              	.LASF482:
 15885 150a 4C565F45 		.ascii	"LV_EVENT_DRAW_POST_BEGIN\000"
 15885      56454E54 
 15885      5F445241 
 15885      575F504F 
 15885      53545F42 
 15886              	.LASF14:
 15887 1523 756E7369 		.ascii	"unsigned int\000"
 15887      676E6564 
 15887      20696E74 
 15887      00
 15888              	.LASF541:
 15889 1530 64697370 		.ascii	"disp\000"
 15889      00
 15890              	.LASF191:
 15891 1535 4C565F49 		.ascii	"LV_IMG_CF_TRUE_COLOR_ALPHA\000"
 15891      4D475F43 
 15891      465F5452 
 15891      55455F43 
 15891      4F4C4F52 
 15892              	.LASF614:
 15893 1550 6C765F69 		.ascii	"lv_img_cf_get_px_size\000"
 15893      6D675F63 
 15893      665F6765 
 15893      745F7078 
 15893      5F73697A 
 15894              	.LASF310:
 15895 1566 636C6970 		.ascii	"clip_area\000"
 15895      5F617265 
 15895      6100
 15896              	.LASF85:
 15897 1570 6C765F73 		.ascii	"lv_style_value_t\000"
 15897      74796C65 
ARM GAS  C:\Users\haske\AppData\Local\Temp\ccxUXv8a.s 			page 338


 15897      5F76616C 
 15897      75655F74 
 15897      00
 15898              	.LASF200:
 15899 1581 4C565F49 		.ascii	"LV_IMG_CF_ALPHA_8BIT\000"
 15899      4D475F43 
 15899      465F414C 
 15899      5048415F 
 15899      38424954 
 15900              	.LASF601:
 15901 1596 6C765F6F 		.ascii	"lv_obj_class_create_obj\000"
 15901      626A5F63 
 15901      6C617373 
 15901      5F637265 
 15901      6174655F 
 15902              	.LASF276:
 15903 15ae 73656C5F 		.ascii	"sel_end\000"
 15903      656E6400 
 15904              	.LASF174:
 15905 15b6 5F4C565F 		.ascii	"_LV_STYLE_PROP_CONST\000"
 15905      5354594C 
 15905      455F5052 
 15905      4F505F43 
 15905      4F4E5354 
 15906              	.LASF314:
 15907 15cb 61726561 		.ascii	"area_full\000"
 15907      5F66756C 
 15907      6C00
 15908              	.LASF194:
 15909 15d5 4C565F49 		.ascii	"LV_IMG_CF_INDEXED_2BIT\000"
 15909      4D475F43 
 15909      465F494E 
 15909      44455845 
 15909      445F3242 
 15910              	.LASF630:
 15911 15ec 6C765F64 		.ascii	"lv_draw_line\000"
 15911      7261775F 
 15911      6C696E65 
 15911      00
 15912              	.LASF283:
 15913 15f9 666C6167 		.ascii	"flag\000"
 15913      00
 15914              	.LASF390:
 15915 15fe 5F6C765F 		.ascii	"_lv_disp_t\000"
 15915      64697370 
 15915      5F7400
 15916              	.LASF487:
 15917 1609 4C565F45 		.ascii	"LV_EVENT_VALUE_CHANGED\000"
 15917      56454E54 
 15917      5F56414C 
 15917      55455F43 
 15917      48414E47 
 15918              	.LASF313:
 15919 1620 5F6C765F 		.ascii	"_lv_draw_layer_ctx_t\000"
 15919      64726177 
 15919      5F6C6179 
 15919      65725F63 
ARM GAS  C:\Users\haske\AppData\Local\Temp\ccxUXv8a.s 			page 339


 15919      74785F74 
 15920              	.LASF266:
 15921 1635 6F75746C 		.ascii	"outline_opa\000"
 15921      696E655F 
 15921      6F706100 
 15922              	.LASF405:
 15923 1641 696E765F 		.ascii	"inv_areas\000"
 15923      61726561 
 15923      7300
 15924              	.LASF195:
 15925 164b 4C565F49 		.ascii	"LV_IMG_CF_INDEXED_4BIT\000"
 15925      4D475F43 
 15925      465F494E 
 15925      44455845 
 15925      445F3442 
 15926              	.LASF316:
 15927 1662 6D61785F 		.ascii	"max_row_with_alpha\000"
 15927      726F775F 
 15927      77697468 
 15927      5F616C70 
 15927      686100
 15928              	.LASF505:
 15929 1675 4C565F45 		.ascii	"LV_EVENT_PREPROCESS\000"
 15929      56454E54 
 15929      5F505245 
 15929      50524F43 
 15929      45535300 
 15930              	.LASF291:
 15931 1689 6672616D 		.ascii	"frame_id\000"
 15931      655F6964 
 15931      00
 15932              	.LASF612:
 15933 1692 6C765F64 		.ascii	"lv_draw_sw_init_ctx\000"
 15933      7261775F 
 15933      73775F69 
 15933      6E69745F 
 15933      63747800 
 15934              	.LASF203:
 15935 16a6 4C565F49 		.ascii	"LV_IMG_CF_RGBX8888\000"
 15935      4D475F43 
 15935      465F5247 
 15935      42583838 
 15935      383800
 15936              	.LASF290:
 15937 16b9 7265636F 		.ascii	"recolor_opa\000"
 15937      6C6F725F 
 15937      6F706100 
 15938              	.LASF403:
 15939 16c5 72656E64 		.ascii	"rendering_in_progress\000"
 15939      6572696E 
 15939      675F696E 
 15939      5F70726F 
 15939      67726573 
 15940              	.LASF96:
 15941 16db 4C565F53 		.ascii	"LV_STYLE_LAYOUT\000"
 15941      54594C45 
 15941      5F4C4159 
ARM GAS  C:\Users\haske\AppData\Local\Temp\ccxUXv8a.s 			page 340


 15941      4F555400 
 15942              	.LASF527:
 15943 16eb 6F666673 		.ascii	"offset\000"
 15943      657400
 15944              	.LASF43:
 15945 16f2 6C765F66 		.ascii	"lv_font_glyph_dsc_t\000"
 15945      6F6E745F 
 15945      676C7970 
 15945      685F6473 
 15945      635F7400 
 15946              	.LASF598:
 15947 1706 6C765F69 		.ascii	"lv_img_set_src\000"
 15947      6D675F73 
 15947      65745F73 
 15947      726300
 15948              	.LASF497:
 15949 1715 4C565F45 		.ascii	"LV_EVENT_SCREEN_LOAD_START\000"
 15949      56454E54 
 15949      5F534352 
 15949      45454E5F 
 15949      4C4F4144 
 15950              	.LASF457:
 15951 1730 73746F70 		.ascii	"stop_bubbling\000"
 15951      5F627562 
 15951      626C696E 
 15951      6700
 15952              	.LASF264:
 15953 173e 6F75746C 		.ascii	"outline_width\000"
 15953      696E655F 
 15953      77696474 
 15953      6800
 15954              	.LASF128:
 15955 174c 4C565F53 		.ascii	"LV_STYLE_SHADOW_WIDTH\000"
 15955      54594C45 
 15955      5F534841 
 15955      444F575F 
 15955      57494454 
 15956              	.LASF196:
 15957 1762 4C565F49 		.ascii	"LV_IMG_CF_INDEXED_8BIT\000"
 15957      4D475F43 
 15957      465F494E 
 15957      44455845 
 15957      445F3842 
 15958              	.LASF189:
 15959 1779 4C565F49 		.ascii	"LV_IMG_CF_RAW_CHROMA_KEYED\000"
 15959      4D475F43 
 15959      465F5241 
 15959      575F4348 
 15959      524F4D41 
 15960              	.LASF631:
 15961 1794 6C765F64 		.ascii	"lv_draw_polygon\000"
 15961      7261775F 
 15961      706F6C79 
 15961      676F6E00 
 15962              	.LASF105:
 15963 17a4 4C565F53 		.ascii	"LV_STYLE_CLIP_CORNER\000"
 15963      54594C45 
ARM GAS  C:\Users\haske\AppData\Local\Temp\ccxUXv8a.s 			page 341


 15963      5F434C49 
 15963      505F434F 
 15963      524E4552 
 15964              	.LASF192:
 15965 17b9 4C565F49 		.ascii	"LV_IMG_CF_TRUE_COLOR_CHROMA_KEYED\000"
 15965      4D475F43 
 15965      465F5452 
 15965      55455F43 
 15965      4F4C4F52 
 15966              	.LASF560:
 15967 17db 64657374 		.ascii	"dest_area\000"
 15967      5F617265 
 15967      6100
 15968              	.LASF292:
 15969 17e5 616E7469 		.ascii	"antialias\000"
 15969      616C6961 
 15969      7300
 15970              	.LASF440:
 15971 17ef 62617365 		.ascii	"base_class\000"
 15971      5F636C61 
 15971      737300
 15972              	.LASF62:
 15973 17fa 4C565F4F 		.ascii	"LV_OPA_100\000"
 15973      50415F31 
 15973      303000
 15974              	.LASF465:
 15975 1805 4C565F45 		.ascii	"LV_EVENT_LONG_PRESSED_REPEAT\000"
 15975      56454E54 
 15975      5F4C4F4E 
 15975      475F5052 
 15975      45535345 
 15976              	.LASF414:
 15977 1822 666F6375 		.ascii	"focus_cb\000"
 15977      735F6362 
 15977      00
 15978              	.LASF216:
 15979 182b 4C565F49 		.ascii	"LV_IMG_CF_USER_ENCODED_0\000"
 15979      4D475F43 
 15979      465F5553 
 15979      45525F45 
 15979      4E434F44 
 15980              	.LASF217:
 15981 1844 4C565F49 		.ascii	"LV_IMG_CF_USER_ENCODED_1\000"
 15981      4D475F43 
 15981      465F5553 
 15981      45525F45 
 15981      4E434F44 
 15982              	.LASF218:
 15983 185d 4C565F49 		.ascii	"LV_IMG_CF_USER_ENCODED_2\000"
 15983      4D475F43 
 15983      465F5553 
 15983      45525F45 
 15983      4E434F44 
 15984              	.LASF219:
 15985 1876 4C565F49 		.ascii	"LV_IMG_CF_USER_ENCODED_3\000"
 15985      4D475F43 
 15985      465F5553 
ARM GAS  C:\Users\haske\AppData\Local\Temp\ccxUXv8a.s 			page 342


 15985      45525F45 
 15985      4E434F44 
 15986              	.LASF220:
 15987 188f 4C565F49 		.ascii	"LV_IMG_CF_USER_ENCODED_4\000"
 15987      4D475F43 
 15987      465F5553 
 15987      45525F45 
 15987      4E434F44 
 15988              	.LASF221:
 15989 18a8 4C565F49 		.ascii	"LV_IMG_CF_USER_ENCODED_5\000"
 15989      4D475F43 
 15989      465F5553 
 15989      45525F45 
 15989      4E434F44 
 15990              	.LASF222:
 15991 18c1 4C565F49 		.ascii	"LV_IMG_CF_USER_ENCODED_6\000"
 15991      4D475F43 
 15991      465F5553 
 15991      45525F45 
 15991      4E434F44 
 15992              	.LASF223:
 15993 18da 4C565F49 		.ascii	"LV_IMG_CF_USER_ENCODED_7\000"
 15993      4D475F43 
 15993      465F5553 
 15993      45525F45 
 15993      4E434F44 
 15994              	.LASF48:
 15995 18f3 6C765F72 		.ascii	"lv_res_t\000"
 15995      65735F74 
 15995      00
 15996              	.LASF157:
 15997 18fc 4C565F53 		.ascii	"LV_STYLE_COLOR_FILTER_OPA\000"
 15997      54594C45 
 15997      5F434F4C 
 15997      4F525F46 
 15997      494C5445 
 15998              	.LASF355:
 15999 1916 6275665F 		.ascii	"buf_act\000"
 15999      61637400 
 16000              	.LASF22:
 16001 191e 6C6F6E67 		.ascii	"long double\000"
 16001      20646F75 
 16001      626C6500 
 16002              	.LASF434:
 16003 192a 7374796C 		.ascii	"style\000"
 16003      6500
 16004              	.LASF77:
 16005 1930 6C765F64 		.ascii	"lv_dither_mode_t\000"
 16005      69746865 
 16005      725F6D6F 
 16005      64655F74 
 16005      00
 16006              	.LASF433:
 16007 1941 6C765F73 		.ascii	"lv_scroll_snap_t\000"
 16007      63726F6C 
 16007      6C5F736E 
 16007      61705F74 
ARM GAS  C:\Users\haske\AppData\Local\Temp\ccxUXv8a.s 			page 343


 16007      00
 16008              	.LASF452:
 16009 1952 636F6465 		.ascii	"code\000"
 16009      00
 16010              	.LASF530:
 16011 1957 6C765F69 		.ascii	"lv_img_t\000"
 16011      6D675F74 
 16011      00
 16012              	.LASF38:
 16013 1960 73756270 		.ascii	"subpx\000"
 16013      7800
 16014              	.LASF63:
 16015 1966 4C565F4F 		.ascii	"LV_OPA_COVER\000"
 16015      50415F43 
 16015      4F564552 
 16015      00
 16016              	.LASF331:
 16017 1973 77616974 		.ascii	"wait_for_finish\000"
 16017      5F666F72 
 16017      5F66696E 
 16017      69736800 
 16018              	.LASF421:
 16019 1983 4C565F50 		.ascii	"LV_PART_MAIN\000"
 16019      4152545F 
 16019      4D41494E 
 16019      00
 16020              	.LASF544:
 16021 1990 6C765F63 		.ascii	"lv_canvas_set_px_opa\000"
 16021      616E7661 
 16021      735F7365 
 16021      745F7078 
 16021      5F6F7061 
 16022              	.LASF256:
 16023 19a5 62675F69 		.ascii	"bg_img_recolor_opa\000"
 16023      6D675F72 
 16023      65636F6C 
 16023      6F725F6F 
 16023      706100
 16024              	.LASF603:
 16025 19b8 6C765F69 		.ascii	"lv_img_buf_set_px_color\000"
 16025      6D675F62 
 16025      75665F73 
 16025      65745F70 
 16025      785F636F 
 16026              	.LASF308:
 16027 19d0 4C565F44 		.ascii	"LV_DRAW_LAYER_FLAG_CAN_SUBDIVIDE\000"
 16027      5241575F 
 16027      4C415945 
 16027      525F464C 
 16027      41475F43 
 16028              	.LASF461:
 16029 19f1 4C565F45 		.ascii	"LV_EVENT_PRESSING\000"
 16029      56454E54 
 16029      5F505245 
 16029      5353494E 
 16029      4700
 16030              	.LASF586:
ARM GAS  C:\Users\haske\AppData\Local\Temp\ccxUXv8a.s 			page 344


 16031 1a03 6C765F63 		.ascii	"lv_canvas_draw_text\000"
 16031      616E7661 
 16031      735F6472 
 16031      61775F74 
 16031      65787400 
 16032              	.LASF348:
 16033 1a17 74696D65 		.ascii	"timer_cb\000"
 16033      725F6362 
 16033      00
 16034              	.LASF460:
 16035 1a20 4C565F45 		.ascii	"LV_EVENT_PRESSED\000"
 16035      56454E54 
 16035      5F505245 
 16035      53534544 
 16035      00
 16036              	.LASF209:
 16037 1a31 4C565F49 		.ascii	"LV_IMG_CF_RESERVED_17\000"
 16037      4D475F43 
 16037      465F5245 
 16037      53455256 
 16037      45445F31 
 16038              	.LASF491:
 16039 1a47 4C565F45 		.ascii	"LV_EVENT_CANCEL\000"
 16039      56454E54 
 16039      5F43414E 
 16039      43454C00 
 16040              	.LASF626:
 16041 1a57 6C765F64 		.ascii	"lv_draw_rect\000"
 16041      7261775F 
 16041      72656374 
 16041      00
 16042              	.LASF211:
 16043 1a64 4C565F49 		.ascii	"LV_IMG_CF_RESERVED_19\000"
 16043      4D475F43 
 16043      465F5245 
 16043      53455256 
 16043      45445F31 
 16044              	.LASF426:
 16045 1a7a 4C565F50 		.ascii	"LV_PART_ITEMS\000"
 16045      4152545F 
 16045      4954454D 
 16045      5300
 16046              	.LASF119:
 16047 1a88 4C565F53 		.ascii	"LV_STYLE_BORDER_COLOR\000"
 16047      54594C45 
 16047      5F424F52 
 16047      4445525F 
 16047      434F4C4F 
 16048              	.LASF383:
 16049 1a9e 72656E64 		.ascii	"render_start_cb\000"
 16049      65725F73 
 16049      74617274 
 16049      5F636200 
 16050              	.LASF382:
 16051 1aae 6472765F 		.ascii	"drv_update_cb\000"
 16051      75706461 
 16051      74655F63 
ARM GAS  C:\Users\haske\AppData\Local\Temp\ccxUXv8a.s 			page 345


 16051      6200
 16052              	.LASF531:
 16053 1abc 6C765F63 		.ascii	"lv_canvas_t\000"
 16053      616E7661 
 16053      735F7400 
 16054              	.LASF0:
 16055 1ac8 5F5F696E 		.ascii	"__int8_t\000"
 16055      74385F74 
 16055      00
 16056              	.LASF504:
 16057 1ad1 5F4C565F 		.ascii	"_LV_EVENT_LAST\000"
 16057      4556454E 
 16057      545F4C41 
 16057      535400
 16058              	.LASF417:
 16059 1ae0 65646974 		.ascii	"editing\000"
 16059      696E6700 
 16060              	.LASF365:
 16061 1ae8 70687973 		.ascii	"physical_hor_res\000"
 16061      6963616C 
 16061      5F686F72 
 16061      5F726573 
 16061      00
 16062              	.LASF356:
 16063 1af9 73697A65 		.ascii	"size\000"
 16063      00
 16064              	.LASF317:
 16065 1afe 6D61785F 		.ascii	"max_row_with_no_alpha\000"
 16065      726F775F 
 16065      77697468 
 16065      5F6E6F5F 
 16065      616C7068 
 16066              	.LASF13:
 16067 1b14 6C6F6E67 		.ascii	"long long unsigned int\000"
 16067      206C6F6E 
 16067      6720756E 
 16067      7369676E 
 16067      65642069 
 16068              	.LASF399:
 16069 1b2b 7379735F 		.ascii	"sys_layer\000"
 16069      6C617965 
 16069      7200
 16070              	.LASF111:
 16071 1b35 4C565F53 		.ascii	"LV_STYLE_BG_GRAD_STOP\000"
 16071      54594C45 
 16071      5F42475F 
 16071      47524144 
 16071      5F53544F 
 16072              	.LASF122:
 16073 1b4b 4C565F53 		.ascii	"LV_STYLE_BORDER_SIDE\000"
 16073      54594C45 
 16073      5F424F52 
 16073      4445525F 
 16073      53494445 
 16074              	.LASF507:
 16075 1b60 6C765F67 		.ascii	"lv_group_focus_cb_t\000"
 16075      726F7570 
ARM GAS  C:\Users\haske\AppData\Local\Temp\ccxUXv8a.s 			page 346


 16075      5F666F63 
 16075      75735F63 
 16075      625F7400 
 16076              	.LASF439:
 16077 1b74 5F6C765F 		.ascii	"_lv_obj_class_t\000"
 16077      6F626A5F 
 16077      636C6173 
 16077      735F7400 
 16078              	.LASF273:
 16079 1b84 6C765F64 		.ascii	"lv_draw_rect_dsc_t\000"
 16079      7261775F 
 16079      72656374 
 16079      5F647363 
 16079      5F7400
 16080              	.LASF18:
 16081 1b97 75696E74 		.ascii	"uint16_t\000"
 16081      31365F74 
 16081      00
 16082              	.LASF47:
 16083 1ba0 4C565F52 		.ascii	"LV_RES_OK\000"
 16083      45535F4F 
 16083      4B00
 16084              	.LASF607:
 16085 1baa 6C765F6F 		.ascii	"lv_obj_get_style_prop\000"
 16085      626A5F67 
 16085      65745F73 
 16085      74796C65 
 16085      5F70726F 
 16086              	.LASF347:
 16087 1bc0 6C617374 		.ascii	"last_run\000"
 16087      5F72756E 
 16087      00
 16088              	.LASF206:
 16089 1bc9 4C565F49 		.ascii	"LV_IMG_CF_RGB565A8\000"
 16089      4D475F43 
 16089      465F5247 
 16089      42353635 
 16089      413800
 16090              	.LASF533:
 16091 1bdc 6C765F6F 		.ascii	"lv_obj_get_style_img_recolor\000"
 16091      626A5F67 
 16091      65745F73 
 16091      74796C65 
 16091      5F696D67 
 16092              	.LASF419:
 16093 1bf9 77726170 		.ascii	"wrap\000"
 16093      00
 16094              	.LASF68:
 16095 1bfe 6C765F63 		.ascii	"lv_color_t\000"
 16095      6F6C6F72 
 16095      5F7400
 16096              	.LASF561:
 16097 1c09 63627566 		.ascii	"cbuf\000"
 16097      00
 16098              	.LASF326:
 16099 1c0e 64726177 		.ascii	"draw_letter\000"
 16099      5F6C6574 
ARM GAS  C:\Users\haske\AppData\Local\Temp\ccxUXv8a.s 			page 347


 16099      74657200 
 16100              	.LASF540:
 16101 1c1a 6465696E 		.ascii	"deinit_fake_disp\000"
 16101      69745F66 
 16101      616B655F 
 16101      64697370 
 16101      00
 16102              	.LASF186:
 16103 1c2b 4C565F49 		.ascii	"LV_IMG_CF_UNKNOWN\000"
 16103      4D475F43 
 16103      465F554E 
 16103      4B4E4F57 
 16103      4E00
 16104              	.LASF87:
 16105 1c3d 4C565F53 		.ascii	"LV_STYLE_WIDTH\000"
 16105      54594C45 
 16105      5F574944 
 16105      544800
 16106              	.LASF259:
 16107 1c4c 626F7264 		.ascii	"border_width\000"
 16107      65725F77 
 16107      69647468 
 16107      00
 16108              	.LASF88:
 16109 1c59 4C565F53 		.ascii	"LV_STYLE_MIN_WIDTH\000"
 16109      54594C45 
 16109      5F4D494E 
 16109      5F574944 
 16109      544800
 16110              	.LASF70:
 16111 1c6c 6C765F74 		.ascii	"lv_text_flag_t\000"
 16111      6578745F 
 16111      666C6167 
 16111      5F7400
 16112              	.LASF577:
 16113 1c7b 636F6C5F 		.ascii	"col_w\000"
 16113      7700
 16114              	.LASF129:
 16115 1c81 4C565F53 		.ascii	"LV_STYLE_SHADOW_OFS_X\000"
 16115      54594C45 
 16115      5F534841 
 16115      444F575F 
 16115      4F46535F 
 16116              	.LASF130:
 16117 1c97 4C565F53 		.ascii	"LV_STYLE_SHADOW_OFS_Y\000"
 16117      54594C45 
 16117      5F534841 
 16117      444F575F 
 16117      4F46535F 
 16118              	.LASF231:
 16119 1cad 6C765F69 		.ascii	"lv_img_dsc_t\000"
 16119      6D675F64 
 16119      73635F74 
 16119      00
 16120              	.LASF53:
 16121 1cba 4C565F4F 		.ascii	"LV_OPA_10\000"
 16121      50415F31 
ARM GAS  C:\Users\haske\AppData\Local\Temp\ccxUXv8a.s 			page 348


 16121      3000
 16122              	.LASF114:
 16123 1cc4 4C565F53 		.ascii	"LV_STYLE_BG_IMG_SRC\000"
 16123      54594C45 
 16123      5F42475F 
 16123      494D475F 
 16123      53524300 
 16124              	.LASF566:
 16125 1cd8 725F6672 		.ascii	"r_front\000"
 16125      6F6E7400 
 16126              	.LASF190:
 16127 1ce0 4C565F49 		.ascii	"LV_IMG_CF_TRUE_COLOR\000"
 16127      4D475F43 
 16127      465F5452 
 16127      55455F43 
 16127      4F4C4F52 
 16128              	.LASF147:
 16129 1cf5 4C565F53 		.ascii	"LV_STYLE_ARC_IMG_SRC\000"
 16129      54594C45 
 16129      5F415243 
 16129      5F494D47 
 16129      5F535243 
 16130              	.LASF179:
 16131 1d0a 76616C75 		.ascii	"value1\000"
 16131      653100
 16132              	.LASF369:
 16133 1d11 64726177 		.ascii	"draw_buf\000"
 16133      5F627566 
 16133      00
 16134              	.LASF346:
 16135 1d1a 70657269 		.ascii	"period\000"
 16135      6F6400
 16136              	.LASF532:
 16137 1d21 6C765F63 		.ascii	"lv_color_make\000"
 16137      6F6C6F72 
 16137      5F6D616B 
 16137      6500
 16138              	.LASF376:
 16139 1d2f 726F756E 		.ascii	"rounder_cb\000"
 16139      6465725F 
 16139      636200
 16140              	.LASF284:
 16141 1d3a 6465636F 		.ascii	"decor\000"
 16141      7200
 16142              	.LASF618:
 16143 1d40 6C765F69 		.ascii	"lv_img_buf_get_px_alpha\000"
 16143      6D675F62 
 16143      75665F67 
 16143      65745F70 
 16143      785F616C 
 16144              	.LASF4:
 16145 1d58 5F5F696E 		.ascii	"__int16_t\000"
 16145      7431365F 
 16145      7400
 16146              	.LASF334:
 16147 1d62 6C617965 		.ascii	"layer_adjust\000"
 16147      725F6164 
ARM GAS  C:\Users\haske\AppData\Local\Temp\ccxUXv8a.s 			page 349


 16147      6A757374 
 16147      00
 16148              	.LASF150:
 16149 1d6f 4C565F53 		.ascii	"LV_STYLE_TEXT_FONT\000"
 16149      54594C45 
 16149      5F544558 
 16149      545F464F 
 16149      4E5400
 16150              	.LASF499:
 16151 1d82 4C565F45 		.ascii	"LV_EVENT_SCREEN_UNLOADED\000"
 16151      56454E54 
 16151      5F534352 
 16151      45454E5F 
 16151      554E4C4F 
 16152              	.LASF173:
 16153 1d9b 4C565F53 		.ascii	"LV_STYLE_PROP_ANY\000"
 16153      54594C45 
 16153      5F50524F 
 16153      505F414E 
 16153      5900
 16154              	.LASF597:
 16155 1dad 6C765F69 		.ascii	"lv_img_cache_invalidate_src\000"
 16155      6D675F63 
 16155      61636865 
 16155      5F696E76 
 16155      616C6964 
 16156              	.LASF535:
 16157 1dc9 64657374 		.ascii	"dest\000"
 16157      00
 16158              	.LASF611:
 16159 1dce 6C765F6D 		.ascii	"lv_mem_alloc\000"
 16159      656D5F61 
 16159      6C6C6F63 
 16159      00
 16160              	.LASF66:
 16161 1ddb 66756C6C 		.ascii	"full\000"
 16161      00
 16162              	.LASF319:
 16163 1de0 6C765F64 		.ascii	"lv_draw_layer_ctx_t\000"
 16163      7261775F 
 16163      6C617965 
 16163      725F6374 
 16163      785F7400 
 16164              	.LASF54:
 16165 1df4 4C565F4F 		.ascii	"LV_OPA_20\000"
 16165      50415F32 
 16165      3000
 16166              	.LASF78:
 16167 1dfe 636F6C6F 		.ascii	"color\000"
 16167      7200
 16168              	.LASF288:
 16169 1e04 7069766F 		.ascii	"pivot\000"
 16169      7400
 16170              	.LASF81:
 16171 1e0a 73746F70 		.ascii	"stops\000"
 16171      7300
 16172              	.LASF279:
ARM GAS  C:\Users\haske\AppData\Local\Temp\ccxUXv8a.s 			page 350


 16173 1e10 6C696E65 		.ascii	"line_space\000"
 16173      5F737061 
 16173      636500
 16174              	.LASF538:
 16175 1e1b 6C765F63 		.ascii	"lv_canvas_constructor\000"
 16175      616E7661 
 16175      735F636F 
 16175      6E737472 
 16175      7563746F 
 16176              	.LASF335:
 16177 1e31 6C617965 		.ascii	"layer_blend\000"
 16177      725F626C 
 16177      656E6400 
 16178              	.LASF579:
 16179 1e3d 795F7361 		.ascii	"y_safe\000"
 16179      666500
 16180              	.LASF442:
 16181 1e44 64657374 		.ascii	"destructor_cb\000"
 16181      72756374 
 16181      6F725F63 
 16181      6200
 16182              	.LASF75:
 16183 1e52 6C765F62 		.ascii	"lv_border_side_t\000"
 16183      6F726465 
 16183      725F7369 
 16183      64655F74 
 16183      00
 16184              	.LASF79:
 16185 1e63 66726163 		.ascii	"frac\000"
 16185      00
 16186              	.LASF233:
 16187 1e68 5F6C765F 		.ascii	"_lv_obj_t\000"
 16187      6F626A5F 
 16187      7400
 16188              	.LASF274:
 16189 1e72 666F6E74 		.ascii	"font\000"
 16189      00
 16190              	.LASF280:
 16191 1e77 6C657474 		.ascii	"letter_space\000"
 16191      65725F73 
 16191      70616365 
 16191      00
 16192              	.LASF92:
 16193 1e84 4C565F53 		.ascii	"LV_STYLE_MAX_HEIGHT\000"
 16193      54594C45 
 16193      5F4D4158 
 16193      5F484549 
 16193      47485400 
 16194              	.LASF55:
 16195 1e98 4C565F4F 		.ascii	"LV_OPA_30\000"
 16195      50415F33 
 16195      3000
 16196              	.LASF543:
 16197 1ea2 6C765F63 		.ascii	"lv_canvas_set_px_color\000"
 16197      616E7661 
 16197      735F7365 
 16197      745F7078 
ARM GAS  C:\Users\haske\AppData\Local\Temp\ccxUXv8a.s 			page 351


 16197      5F636F6C 
 16198              	.LASF523:
 16199 1eb9 5F6C765F 		.ascii	"_lv_theme_t\000"
 16199      7468656D 
 16199      655F7400 
 16200              	.LASF305:
 16201 1ec5 6C765F64 		.ascii	"lv_draw_arc_dsc_t\000"
 16201      7261775F 
 16201      6172635F 
 16201      6473635F 
 16201      7400
 16202              	.LASF542:
 16203 1ed7 6C765F63 		.ascii	"lv_canvas_set_buffer\000"
 16203      616E7661 
 16203      735F7365 
 16203      745F6275 
 16203      66666572 
 16204              	.LASF108:
 16205 1eec 4C565F53 		.ascii	"LV_STYLE_BG_GRAD_COLOR\000"
 16205      54594C45 
 16205      5F42475F 
 16205      47524144 
 16205      5F434F4C 
 16206              	.LASF396:
 16207 1f03 70726576 		.ascii	"prev_scr\000"
 16207      5F736372 
 16207      00
 16208              	.LASF30:
 16209 1f0c 626F785F 		.ascii	"box_h\000"
 16209      6800
 16210              	.LASF254:
 16211 1f12 62675F69 		.ascii	"bg_img_recolor\000"
 16211      6D675F72 
 16211      65636F6C 
 16211      6F7200
 16212              	.LASF67:
 16213 1f21 6C765F63 		.ascii	"lv_color16_t\000"
 16213      6F6C6F72 
 16213      31365F74 
 16213      00
 16214              	.LASF29:
 16215 1f2e 626F785F 		.ascii	"box_w\000"
 16215      7700
 16216              	.LASF5:
 16217 1f34 73686F72 		.ascii	"short int\000"
 16217      7420696E 
 16217      7400
 16218              	.LASF37:
 16219 1f3e 62617365 		.ascii	"base_line\000"
 16219      5F6C696E 
 16219      6500
 16220              	.LASF407:
 16221 1f48 696E765F 		.ascii	"inv_p\000"
 16221      7000
 16222              	.LASF343:
 16223 1f4e 6C765F6C 		.ascii	"lv_ll_t\000"
 16223      6C5F7400 
ARM GAS  C:\Users\haske\AppData\Local\Temp\ccxUXv8a.s 			page 352


 16224              	.LASF594:
 16225 1f56 6C765F66 		.ascii	"lv_font_montserrat_14\000"
 16225      6F6E745F 
 16225      6D6F6E74 
 16225      73657272 
 16225      61745F31 
 16226              	.LASF484:
 16227 1f6c 4C565F45 		.ascii	"LV_EVENT_DRAW_POST_END\000"
 16227      56454E54 
 16227      5F445241 
 16227      575F504F 
 16227      53545F45 
 16228              	.LASF485:
 16229 1f83 4C565F45 		.ascii	"LV_EVENT_DRAW_PART_BEGIN\000"
 16229      56454E54 
 16229      5F445241 
 16229      575F5041 
 16229      52545F42 
 16230              	.LASF590:
 16231 1f9c 706F696E 		.ascii	"points\000"
 16231      747300
 16232              	.LASF255:
 16233 1fa3 62675F69 		.ascii	"bg_img_opa\000"
 16233      6D675F6F 
 16233      706100
 16234              	.LASF272:
 16235 1fae 73686164 		.ascii	"shadow_opa\000"
 16235      6F775F6F 
 16235      706100
 16236              	.LASF145:
 16237 1fb9 4C565F53 		.ascii	"LV_STYLE_ARC_COLOR\000"
 16237      54594C45 
 16237      5F415243 
 16237      5F434F4C 
 16237      4F5200
 16238              	.LASF56:
 16239 1fcc 4C565F4F 		.ascii	"LV_OPA_40\000"
 16239      50415F34 
 16239      3000
 16240              	.LASF17:
 16241 1fd6 696E7431 		.ascii	"int16_t\000"
 16241      365F7400 
 16242              	.LASF408:
 16243 1fde 696E765F 		.ascii	"inv_en_cnt\000"
 16243      656E5F63 
 16243      6E7400
 16244              	.LASF548:
 16245 1fe9 6C765F63 		.ascii	"lv_canvas_get_img\000"
 16245      616E7661 
 16245      735F6765 
 16245      745F696D 
 16245      6700
 16246              	.LASF312:
 16247 1ffb 73637265 		.ascii	"screen_transp\000"
 16247      656E5F74 
 16247      72616E73 
 16247      7000
ARM GAS  C:\Users\haske\AppData\Local\Temp\ccxUXv8a.s 			page 353


 16248              	.LASF238:
 16249 2009 636F6F72 		.ascii	"coords\000"
 16249      647300
 16250              	.LASF567:
 16251 2010 6861735F 		.ascii	"has_alpha\000"
 16251      616C7068 
 16251      6100
 16252              	.LASF515:
 16253 201a 6578745F 		.ascii	"ext_click_pad\000"
 16253      636C6963 
 16253      6B5F7061 
 16253      6400
 16254              	.LASF172:
 16255 2028 5F4C565F 		.ascii	"_LV_STYLE_NUM_BUILT_IN_PROPS\000"
 16255      5354594C 
 16255      455F4E55 
 16255      4D5F4255 
 16255      494C545F 
 16256              	.LASF98:
 16257 2045 4C565F53 		.ascii	"LV_STYLE_PAD_TOP\000"
 16257      54594C45 
 16257      5F504144 
 16257      5F544F50 
 16257      00
 16258              	.LASF402:
 16259 2056 64656C5F 		.ascii	"del_prev\000"
 16259      70726576 
 16259      00
 16260              	.LASF404:
 16261 205f 62675F69 		.ascii	"bg_img\000"
 16261      6D6700
 16262              	.LASF429:
 16263 2066 4C565F50 		.ascii	"LV_PART_CUSTOM_FIRST\000"
 16263      4152545F 
 16263      43555354 
 16263      4F4D5F46 
 16263      49525354 
 16264              	.LASF115:
 16265 207b 4C565F53 		.ascii	"LV_STYLE_BG_IMG_OPA\000"
 16265      54594C45 
 16265      5F42475F 
 16265      494D475F 
 16265      4F504100 
 16266              	.LASF137:
 16267 208f 4C565F53 		.ascii	"LV_STYLE_LINE_WIDTH\000"
 16267      54594C45 
 16267      5F4C494E 
 16267      455F5749 
 16267      44544800 
 16268              	.LASF57:
 16269 20a3 4C565F4F 		.ascii	"LV_OPA_50\000"
 16269      50415F35 
 16269      3000
 16270              	.LASF635:
 16271 20ad 433A5C50 		.ascii	"C:\\Projects\\PainDrain\\firmware\\PainDrain\\PainD"
 16271      726F6A65 
 16271      6374735C 
ARM GAS  C:\Users\haske\AppData\Local\Temp\ccxUXv8a.s 			page 354


 16271      5061696E 
 16271      44726169 
 16272 20db 7261696E 		.ascii	"rain.cydsn\000"
 16272      2E637964 
 16272      736E00
 16273              	.LASF182:
 16274 20e6 70726F70 		.ascii	"prop1\000"
 16274      3100
 16275              	.LASF377:
 16276 20ec 7365745F 		.ascii	"set_px_cb\000"
 16276      70785F63 
 16276      6200
 16277              	.LASF469:
 16278 20f6 4C565F45 		.ascii	"LV_EVENT_SCROLL_END\000"
 16278      56454E54 
 16278      5F534352 
 16278      4F4C4C5F 
 16278      454E4400 
 16279              	.LASF260:
 16280 210a 626F7264 		.ascii	"border_opa\000"
 16280      65725F6F 
 16280      706100
 16281              	.LASF91:
 16282 2115 4C565F53 		.ascii	"LV_STYLE_MIN_HEIGHT\000"
 16282      54594C45 
 16282      5F4D494E 
 16282      5F484549 
 16282      47485400 
 16283              	.LASF474:
 16284 2129 4C565F45 		.ascii	"LV_EVENT_DEFOCUSED\000"
 16284      56454E54 
 16284      5F444546 
 16284      4F435553 
 16284      454400
 16285              	.LASF551:
 16286 213c 746F5F63 		.ascii	"to_copy\000"
 16286      6F707900 
 16287              	.LASF389:
 16288 2144 6C765F64 		.ascii	"lv_disp_drv_t\000"
 16288      6973705F 
 16288      6472765F 
 16288      7400
 16289              	.LASF188:
 16290 2152 4C565F49 		.ascii	"LV_IMG_CF_RAW_ALPHA\000"
 16290      4D475F43 
 16290      465F5241 
 16290      575F414C 
 16290      50484100 
 16291              	.LASF251:
 16292 2166 62675F67 		.ascii	"bg_grad\000"
 16292      72616400 
 16293              	.LASF526:
 16294 216e 6C765F6F 		.ascii	"lv_obj_t\000"
 16294      626A5F74 
 16294      00
 16295              	.LASF123:
 16296 2177 4C565F53 		.ascii	"LV_STYLE_BORDER_POST\000"
ARM GAS  C:\Users\haske\AppData\Local\Temp\ccxUXv8a.s 			page 355


 16296      54594C45 
 16296      5F424F52 
 16296      4445525F 
 16296      504F5354 
 16297              	.LASF385:
 16298 218c 64726177 		.ascii	"draw_ctx\000"
 16298      5F637478 
 16298      00
 16299              	.LASF325:
 16300 2195 64726177 		.ascii	"draw_img\000"
 16300      5F696D67 
 16300      00
 16301              	.LASF80:
 16302 219e 6C765F67 		.ascii	"lv_gradient_stop_t\000"
 16302      72616469 
 16302      656E745F 
 16302      73746F70 
 16302      5F7400
 16303              	.LASF94:
 16304 21b1 4C565F53 		.ascii	"LV_STYLE_Y\000"
 16304      54594C45 
 16304      5F5900
 16305              	.LASF140:
 16306 21bc 4C565F53 		.ascii	"LV_STYLE_LINE_ROUNDED\000"
 16306      54594C45 
 16306      5F4C494E 
 16306      455F524F 
 16306      554E4445 
 16307              	.LASF58:
 16308 21d2 4C565F4F 		.ascii	"LV_OPA_60\000"
 16308      50415F36 
 16308      3000
 16309              	.LASF624:
 16310 21dc 5F6C765F 		.ascii	"_lv_refr_get_disp_refreshing\000"
 16310      72656672 
 16310      5F676574 
 16310      5F646973 
 16310      705F7265 
 16311              	.LASF328:
 16312 21f9 64726177 		.ascii	"draw_polygon\000"
 16312      5F706F6C 
 16312      79676F6E 
 16312      00
 16313              	.LASF501:
 16314 2206 4C565F45 		.ascii	"LV_EVENT_STYLE_CHANGED\000"
 16314      56454E54 
 16314      5F535459 
 16314      4C455F43 
 16314      48414E47 
 16315              	.LASF490:
 16316 221d 4C565F45 		.ascii	"LV_EVENT_READY\000"
 16316      56454E54 
 16316      5F524541 
 16316      445900
 16317              	.LASF275:
 16318 222c 73656C5F 		.ascii	"sel_start\000"
 16318      73746172 
ARM GAS  C:\Users\haske\AppData\Local\Temp\ccxUXv8a.s 			page 356


 16318      7400
 16319              	.LASF483:
 16320 2236 4C565F45 		.ascii	"LV_EVENT_DRAW_POST\000"
 16320      56454E54 
 16320      5F445241 
 16320      575F504F 
 16320      535400
 16321              	.LASF20:
 16322 2249 75696E74 		.ascii	"uint32_t\000"
 16322      33325F74 
 16322      00
 16323              	.LASF428:
 16324 2252 4C565F50 		.ascii	"LV_PART_CURSOR\000"
 16324      4152545F 
 16324      43555253 
 16324      4F5200
 16325              	.LASF431:
 16326 2261 6C765F6F 		.ascii	"lv_obj_flag_t\000"
 16326      626A5F66 
 16326      6C61675F 
 16326      7400
 16327              	.LASF500:
 16328 226f 4C565F45 		.ascii	"LV_EVENT_SIZE_CHANGED\000"
 16328      56454E54 
 16328      5F53495A 
 16328      455F4348 
 16328      414E4745 
 16329              	.LASF268:
 16330 2285 73686164 		.ascii	"shadow_width\000"
 16330      6F775F77 
 16330      69647468 
 16330      00
 16331              	.LASF623:
 16332 2292 6C765F6D 		.ascii	"lv_memset\000"
 16332      656D7365 
 16332      7400
 16333              	.LASF65:
 16334 229c 67726565 		.ascii	"green\000"
 16334      6E00
 16335              	.LASF45:
 16336 22a2 6C765F66 		.ascii	"lv_font_t\000"
 16336      6F6E745F 
 16336      7400
 16337              	.LASF226:
 16338 22ac 72657365 		.ascii	"reserved\000"
 16338      72766564 
 16338      00
 16339              	.LASF502:
 16340 22b5 4C565F45 		.ascii	"LV_EVENT_LAYOUT_CHANGED\000"
 16340      56454E54 
 16340      5F4C4159 
 16340      4F55545F 
 16340      4348414E 
 16341              	.LASF83:
 16342 22cd 64697468 		.ascii	"dither\000"
 16342      657200
 16343              	.LASF59:
ARM GAS  C:\Users\haske\AppData\Local\Temp\ccxUXv8a.s 			page 357


 16344 22d4 4C565F4F 		.ascii	"LV_OPA_70\000"
 16344      50415F37 
 16344      3000
 16345              	.LASF7:
 16346 22de 73686F72 		.ascii	"short unsigned int\000"
 16346      7420756E 
 16346      7369676E 
 16346      65642069 
 16346      6E7400
 16347              	.LASF472:
 16348 22f1 4C565F45 		.ascii	"LV_EVENT_KEY\000"
 16348      56454E54 
 16348      5F4B4559 
 16348      00
 16349              	.LASF23:
 16350 22fe 6C765F63 		.ascii	"lv_coord_t\000"
 16350      6F6F7264 
 16350      5F7400
 16351              	.LASF375:
 16352 2309 666C7573 		.ascii	"flush_cb\000"
 16352      685F6362 
 16352      00
 16353              	.LASF125:
 16354 2312 4C565F53 		.ascii	"LV_STYLE_OUTLINE_COLOR\000"
 16354      54594C45 
 16354      5F4F5554 
 16354      4C494E45 
 16354      5F434F4C 
 16355              	.LASF42:
 16356 2329 75736572 		.ascii	"user_data\000"
 16356      5F646174 
 16356      6100
 16357              	.LASF462:
 16358 2333 4C565F45 		.ascii	"LV_EVENT_PRESS_LOST\000"
 16358      56454E54 
 16358      5F505245 
 16358      53535F4C 
 16358      4F535400 
 16359              	.LASF225:
 16360 2347 616C7761 		.ascii	"always_zero\000"
 16360      79735F7A 
 16360      65726F00 
 16361              	.LASF524:
 16362 2353 5F6C765F 		.ascii	"_lv_event_dsc_t\000"
 16362      6576656E 
 16362      745F6473 
 16362      635F7400 
 16363              	.LASF131:
 16364 2363 4C565F53 		.ascii	"LV_STYLE_SHADOW_SPREAD\000"
 16364      54594C45 
 16364      5F534841 
 16364      444F575F 
 16364      53505245 
 16365              	.LASF427:
 16366 237a 4C565F50 		.ascii	"LV_PART_TICKS\000"
 16366      4152545F 
 16366      5449434B 
ARM GAS  C:\Users\haske\AppData\Local\Temp\ccxUXv8a.s 			page 358


 16366      5300
 16367              	.LASF466:
 16368 2388 4C565F45 		.ascii	"LV_EVENT_CLICKED\000"
 16368      56454E54 
 16368      5F434C49 
 16368      434B4544 
 16368      00
 16369              	.LASF34:
 16370 2399 6765745F 		.ascii	"get_glyph_dsc\000"
 16370      676C7970 
 16370      685F6473 
 16370      6300
 16371              	.LASF8:
 16372 23a7 5F5F696E 		.ascii	"__int32_t\000"
 16372      7433325F 
 16372      7400
 16373              	.LASF435:
 16374 23b1 73656C65 		.ascii	"selector\000"
 16374      63746F72 
 16374      00
 16375              	.LASF489:
 16376 23ba 4C565F45 		.ascii	"LV_EVENT_REFRESH\000"
 16376      56454E54 
 16376      5F524546 
 16376      52455348 
 16376      00
 16377              	.LASF473:
 16378 23cb 4C565F45 		.ascii	"LV_EVENT_FOCUSED\000"
 16378      56454E54 
 16378      5F464F43 
 16378      55534544 
 16378      00
 16379              	.LASF76:
 16380 23dc 6C765F67 		.ascii	"lv_grad_dir_t\000"
 16380      7261645F 
 16380      6469725F 
 16380      7400
 16381              	.LASF576:
 16382 23ea 6C765F63 		.ascii	"lv_canvas_blur_ver\000"
 16382      616E7661 
 16382      735F626C 
 16382      75725F76 
 16382      657200
 16383              	.LASF418:
 16384 23fd 7265666F 		.ascii	"refocus_policy\000"
 16384      6375735F 
 16384      706F6C69 
 16384      637900
 16385              	.LASF362:
 16386 240c 5F6C765F 		.ascii	"_lv_disp_drv_t\000"
 16386      64697370 
 16386      5F647276 
 16386      5F7400
 16387              	.LASF60:
 16388 241b 4C565F4F 		.ascii	"LV_OPA_80\000"
 16388      50415F38 
 16388      3000
ARM GAS  C:\Users\haske\AppData\Local\Temp\ccxUXv8a.s 			page 359


 16389              	.LASF528:
 16390 2425 7372635F 		.ascii	"src_type\000"
 16390      74797065 
 16390      00
 16391              	.LASF445:
 16392 242e 68656967 		.ascii	"height_def\000"
 16392      68745F64 
 16392      656600
 16393              	.LASF496:
 16394 2439 4C565F45 		.ascii	"LV_EVENT_SCREEN_UNLOAD_START\000"
 16394      56454E54 
 16394      5F534352 
 16394      45454E5F 
 16394      554E4C4F 
 16395              	.LASF381:
 16396 2456 636C6561 		.ascii	"clean_dcache_cb\000"
 16396      6E5F6463 
 16396      61636865 
 16396      5F636200 
 16397              	.LASF277:
 16398 2466 73656C5F 		.ascii	"sel_color\000"
 16398      636F6C6F 
 16398      7200
 16399              	.LASF604:
 16400 2470 6C765F6F 		.ascii	"lv_obj_invalidate\000"
 16400      626A5F69 
 16400      6E76616C 
 16400      69646174 
 16400      6500
 16401              	.LASF230:
 16402 2482 64617461 		.ascii	"data\000"
 16402      00
 16403              	.LASF553:
 16404 2487 746F5F63 		.ascii	"to_copy8\000"
 16404      6F707938 
 16404      00
 16405              	.LASF201:
 16406 2490 4C565F49 		.ascii	"LV_IMG_CF_RGB888\000"
 16406      4D475F43 
 16406      465F5247 
 16406      42383838 
 16406      00
 16407              	.LASF270:
 16408 24a1 73686164 		.ascii	"shadow_ofs_y\000"
 16408      6F775F6F 
 16408      66735F79 
 16408      00
 16409              	.LASF534:
 16410 24ae 70617274 		.ascii	"part\000"
 16410      00
 16411              	.LASF454:
 16412 24b3 70726576 		.ascii	"prev\000"
 16412      00
 16413              	.LASF84:
 16414 24b8 6C765F67 		.ascii	"lv_grad_dsc_t\000"
 16414      7261645F 
 16414      6473635F 
ARM GAS  C:\Users\haske\AppData\Local\Temp\ccxUXv8a.s 			page 360


 16414      7400
 16415              	.LASF340:
 16416 24c6 6E5F7369 		.ascii	"n_size\000"
 16416      7A6500
 16417              	.LASF550:
 16418 24cd 6C765F63 		.ascii	"lv_canvas_copy_buf\000"
 16418      616E7661 
 16418      735F636F 
 16418      70795F62 
 16418      756600
 16419              	.LASF411:
 16420 24e0 5F6C765F 		.ascii	"_lv_group_t\000"
 16420      67726F75 
 16420      705F7400 
 16421              	.LASF112:
 16422 24ec 4C565F53 		.ascii	"LV_STYLE_BG_GRAD\000"
 16422      54594C45 
 16422      5F42475F 
 16422      47524144 
 16422      00
 16423              	.LASF467:
 16424 24fd 4C565F45 		.ascii	"LV_EVENT_RELEASED\000"
 16424      56454E54 
 16424      5F52454C 
 16424      45415345 
 16424      4400
 16425              	.LASF33:
 16426 250f 69735F70 		.ascii	"is_placeholder\000"
 16426      6C616365 
 16426      686F6C64 
 16426      657200
 16427              	.LASF582:
 16428 251e 6C765F63 		.ascii	"lv_canvas_draw_rect\000"
 16428      616E7661 
 16428      735F6472 
 16428      61775F72 
 16428      65637400 
 16429              	.LASF127:
 16430 2532 4C565F53 		.ascii	"LV_STYLE_OUTLINE_PAD\000"
 16430      54594C45 
 16430      5F4F5554 
 16430      4C494E45 
 16430      5F504144 
 16431              	.LASF61:
 16432 2547 4C565F4F 		.ascii	"LV_OPA_90\000"
 16432      50415F39 
 16432      3000
 16433              	.LASF413:
 16434 2551 6F626A5F 		.ascii	"obj_focus\000"
 16434      666F6375 
 16434      7300
 16435              	.LASF151:
 16436 255b 4C565F53 		.ascii	"LV_STYLE_TEXT_LETTER_SPACE\000"
 16436      54594C45 
 16436      5F544558 
 16436      545F4C45 
 16436      54544552 
ARM GAS  C:\Users\haske\AppData\Local\Temp\ccxUXv8a.s 			page 361


 16437              	.LASF521:
 16438 2576 6576656E 		.ascii	"event_dsc_cnt\000"
 16438      745F6473 
 16438      635F636E 
 16438      7400
 16439              		.ident	"GCC: (GNU Tools for ARM Embedded Processors) 5.4.1 20160609 (release) [ARM/embedded-5-bran
