ARM GAS  C:\Users\haske\AppData\Local\Temp\ccxUXv8a.s 			page 1


   1              		.syntax unified
   2              		.cpu cortex-m0plus
   3              		.fpu softvfp
   4              		.eabi_attribute 20, 1
   5              		.eabi_attribute 21, 1
   6              		.eabi_attribute 23, 3
   7              		.eabi_attribute 24, 1
   8              		.eabi_attribute 25, 1
   9              		.eabi_attribute 26, 1
  10              		.eabi_attribute 30, 1
  11              		.eabi_attribute 34, 0
  12              		.eabi_attribute 18, 4
  13              		.thumb
  14              		.syntax unified
  15              		.file	"lv_canvas.c"
  16              		.text
  17              	.Ltext0:
  18              		.cfi_sections	.debug_frame
  19              		.section	.text.lv_canvas_destructor,"ax",%progbits
  20              		.align	2
  21              		.code	16
  22              		.thumb_func
  23              		.type	lv_canvas_destructor, %function
  24              	lv_canvas_destructor:
  25              	.LFB179:
  26              		.file 1 "..\\..\\..\\arduinoLCD\\test\\Pain Drain\\libraries\\lvgl\\src\\widgets\\lv_canvas.c"
   1:..\..\..\arduinoLCD\test\Pain Drain\libraries\lvgl\src\widgets/lv_canvas.c **** /**
   2:..\..\..\arduinoLCD\test\Pain Drain\libraries\lvgl\src\widgets/lv_canvas.c ****  * @file lv_canvas.c
   3:..\..\..\arduinoLCD\test\Pain Drain\libraries\lvgl\src\widgets/lv_canvas.c ****  *
   4:..\..\..\arduinoLCD\test\Pain Drain\libraries\lvgl\src\widgets/lv_canvas.c ****  */
   5:..\..\..\arduinoLCD\test\Pain Drain\libraries\lvgl\src\widgets/lv_canvas.c **** 
   6:..\..\..\arduinoLCD\test\Pain Drain\libraries\lvgl\src\widgets/lv_canvas.c **** /*********************
   7:..\..\..\arduinoLCD\test\Pain Drain\libraries\lvgl\src\widgets/lv_canvas.c ****  *      INCLUDES
   8:..\..\..\arduinoLCD\test\Pain Drain\libraries\lvgl\src\widgets/lv_canvas.c ****  *********************/
   9:..\..\..\arduinoLCD\test\Pain Drain\libraries\lvgl\src\widgets/lv_canvas.c **** #include "lv_canvas.h"
  10:..\..\..\arduinoLCD\test\Pain Drain\libraries\lvgl\src\widgets/lv_canvas.c **** #include "../misc/lv_assert.h"
  11:..\..\..\arduinoLCD\test\Pain Drain\libraries\lvgl\src\widgets/lv_canvas.c **** #include "../misc/lv_math.h"
  12:..\..\..\arduinoLCD\test\Pain Drain\libraries\lvgl\src\widgets/lv_canvas.c **** #include "../draw/lv_draw.h"
  13:..\..\..\arduinoLCD\test\Pain Drain\libraries\lvgl\src\widgets/lv_canvas.c **** #include "../core/lv_refr.h"
  14:..\..\..\arduinoLCD\test\Pain Drain\libraries\lvgl\src\widgets/lv_canvas.c **** 
  15:..\..\..\arduinoLCD\test\Pain Drain\libraries\lvgl\src\widgets/lv_canvas.c **** #if LV_USE_CANVAS != 0
  16:..\..\..\arduinoLCD\test\Pain Drain\libraries\lvgl\src\widgets/lv_canvas.c **** 
  17:..\..\..\arduinoLCD\test\Pain Drain\libraries\lvgl\src\widgets/lv_canvas.c **** #include "../draw/sw/lv_draw_sw.h"
  18:..\..\..\arduinoLCD\test\Pain Drain\libraries\lvgl\src\widgets/lv_canvas.c **** 
  19:..\..\..\arduinoLCD\test\Pain Drain\libraries\lvgl\src\widgets/lv_canvas.c **** /*********************
  20:..\..\..\arduinoLCD\test\Pain Drain\libraries\lvgl\src\widgets/lv_canvas.c ****  *      DEFINES
  21:..\..\..\arduinoLCD\test\Pain Drain\libraries\lvgl\src\widgets/lv_canvas.c ****  *********************/
  22:..\..\..\arduinoLCD\test\Pain Drain\libraries\lvgl\src\widgets/lv_canvas.c **** #define MY_CLASS &lv_canvas_class
  23:..\..\..\arduinoLCD\test\Pain Drain\libraries\lvgl\src\widgets/lv_canvas.c **** 
  24:..\..\..\arduinoLCD\test\Pain Drain\libraries\lvgl\src\widgets/lv_canvas.c **** /**********************
  25:..\..\..\arduinoLCD\test\Pain Drain\libraries\lvgl\src\widgets/lv_canvas.c ****  *      TYPEDEFS
  26:..\..\..\arduinoLCD\test\Pain Drain\libraries\lvgl\src\widgets/lv_canvas.c ****  **********************/
  27:..\..\..\arduinoLCD\test\Pain Drain\libraries\lvgl\src\widgets/lv_canvas.c **** 
  28:..\..\..\arduinoLCD\test\Pain Drain\libraries\lvgl\src\widgets/lv_canvas.c **** /**********************
  29:..\..\..\arduinoLCD\test\Pain Drain\libraries\lvgl\src\widgets/lv_canvas.c ****  *  STATIC PROTOTYPES
  30:..\..\..\arduinoLCD\test\Pain Drain\libraries\lvgl\src\widgets/lv_canvas.c ****  **********************/
  31:..\..\..\arduinoLCD\test\Pain Drain\libraries\lvgl\src\widgets/lv_canvas.c **** static void lv_canvas_constructor(const lv_obj_class_t * class_p, lv_obj_t * obj);
ARM GAS  C:\Users\haske\AppData\Local\Temp\ccxUXv8a.s 			page 2


  32:..\..\..\arduinoLCD\test\Pain Drain\libraries\lvgl\src\widgets/lv_canvas.c **** static void lv_canvas_destructor(const lv_obj_class_t * class_p, lv_obj_t * obj);
  33:..\..\..\arduinoLCD\test\Pain Drain\libraries\lvgl\src\widgets/lv_canvas.c **** static void init_fake_disp(lv_obj_t * canvas, lv_disp_t * disp, lv_disp_drv_t * drv, lv_area_t * cl
  34:..\..\..\arduinoLCD\test\Pain Drain\libraries\lvgl\src\widgets/lv_canvas.c **** static void deinit_fake_disp(lv_obj_t * canvas, lv_disp_t * disp);
  35:..\..\..\arduinoLCD\test\Pain Drain\libraries\lvgl\src\widgets/lv_canvas.c **** 
  36:..\..\..\arduinoLCD\test\Pain Drain\libraries\lvgl\src\widgets/lv_canvas.c **** /**********************
  37:..\..\..\arduinoLCD\test\Pain Drain\libraries\lvgl\src\widgets/lv_canvas.c ****  *  STATIC VARIABLES
  38:..\..\..\arduinoLCD\test\Pain Drain\libraries\lvgl\src\widgets/lv_canvas.c ****  **********************/
  39:..\..\..\arduinoLCD\test\Pain Drain\libraries\lvgl\src\widgets/lv_canvas.c **** const lv_obj_class_t lv_canvas_class = {
  40:..\..\..\arduinoLCD\test\Pain Drain\libraries\lvgl\src\widgets/lv_canvas.c ****     .constructor_cb = lv_canvas_constructor,
  41:..\..\..\arduinoLCD\test\Pain Drain\libraries\lvgl\src\widgets/lv_canvas.c ****     .destructor_cb = lv_canvas_destructor,
  42:..\..\..\arduinoLCD\test\Pain Drain\libraries\lvgl\src\widgets/lv_canvas.c ****     .instance_size = sizeof(lv_canvas_t),
  43:..\..\..\arduinoLCD\test\Pain Drain\libraries\lvgl\src\widgets/lv_canvas.c ****     .base_class = &lv_img_class
  44:..\..\..\arduinoLCD\test\Pain Drain\libraries\lvgl\src\widgets/lv_canvas.c **** };
  45:..\..\..\arduinoLCD\test\Pain Drain\libraries\lvgl\src\widgets/lv_canvas.c **** 
  46:..\..\..\arduinoLCD\test\Pain Drain\libraries\lvgl\src\widgets/lv_canvas.c **** /**********************
  47:..\..\..\arduinoLCD\test\Pain Drain\libraries\lvgl\src\widgets/lv_canvas.c ****  *      MACROS
  48:..\..\..\arduinoLCD\test\Pain Drain\libraries\lvgl\src\widgets/lv_canvas.c ****  **********************/
  49:..\..\..\arduinoLCD\test\Pain Drain\libraries\lvgl\src\widgets/lv_canvas.c **** 
  50:..\..\..\arduinoLCD\test\Pain Drain\libraries\lvgl\src\widgets/lv_canvas.c **** /**********************
  51:..\..\..\arduinoLCD\test\Pain Drain\libraries\lvgl\src\widgets/lv_canvas.c ****  *   GLOBAL FUNCTIONS
  52:..\..\..\arduinoLCD\test\Pain Drain\libraries\lvgl\src\widgets/lv_canvas.c ****  **********************/
  53:..\..\..\arduinoLCD\test\Pain Drain\libraries\lvgl\src\widgets/lv_canvas.c **** 
  54:..\..\..\arduinoLCD\test\Pain Drain\libraries\lvgl\src\widgets/lv_canvas.c **** lv_obj_t * lv_canvas_create(lv_obj_t * parent)
  55:..\..\..\arduinoLCD\test\Pain Drain\libraries\lvgl\src\widgets/lv_canvas.c **** {
  56:..\..\..\arduinoLCD\test\Pain Drain\libraries\lvgl\src\widgets/lv_canvas.c ****     LV_LOG_INFO("begin");
  57:..\..\..\arduinoLCD\test\Pain Drain\libraries\lvgl\src\widgets/lv_canvas.c ****     lv_obj_t * obj = lv_obj_class_create_obj(MY_CLASS, parent);
  58:..\..\..\arduinoLCD\test\Pain Drain\libraries\lvgl\src\widgets/lv_canvas.c ****     lv_obj_class_init_obj(obj);
  59:..\..\..\arduinoLCD\test\Pain Drain\libraries\lvgl\src\widgets/lv_canvas.c ****     return obj;
  60:..\..\..\arduinoLCD\test\Pain Drain\libraries\lvgl\src\widgets/lv_canvas.c **** }
  61:..\..\..\arduinoLCD\test\Pain Drain\libraries\lvgl\src\widgets/lv_canvas.c **** 
  62:..\..\..\arduinoLCD\test\Pain Drain\libraries\lvgl\src\widgets/lv_canvas.c **** /*=====================
  63:..\..\..\arduinoLCD\test\Pain Drain\libraries\lvgl\src\widgets/lv_canvas.c ****  * Setter functions
  64:..\..\..\arduinoLCD\test\Pain Drain\libraries\lvgl\src\widgets/lv_canvas.c ****  *====================*/
  65:..\..\..\arduinoLCD\test\Pain Drain\libraries\lvgl\src\widgets/lv_canvas.c **** 
  66:..\..\..\arduinoLCD\test\Pain Drain\libraries\lvgl\src\widgets/lv_canvas.c **** void lv_canvas_set_buffer(lv_obj_t * obj, void * buf, lv_coord_t w, lv_coord_t h, lv_img_cf_t cf)
  67:..\..\..\arduinoLCD\test\Pain Drain\libraries\lvgl\src\widgets/lv_canvas.c **** {
  68:..\..\..\arduinoLCD\test\Pain Drain\libraries\lvgl\src\widgets/lv_canvas.c ****     LV_ASSERT_OBJ(obj, MY_CLASS);
  69:..\..\..\arduinoLCD\test\Pain Drain\libraries\lvgl\src\widgets/lv_canvas.c ****     LV_ASSERT_NULL(buf);
  70:..\..\..\arduinoLCD\test\Pain Drain\libraries\lvgl\src\widgets/lv_canvas.c **** 
  71:..\..\..\arduinoLCD\test\Pain Drain\libraries\lvgl\src\widgets/lv_canvas.c ****     lv_canvas_t * canvas = (lv_canvas_t *)obj;
  72:..\..\..\arduinoLCD\test\Pain Drain\libraries\lvgl\src\widgets/lv_canvas.c **** 
  73:..\..\..\arduinoLCD\test\Pain Drain\libraries\lvgl\src\widgets/lv_canvas.c ****     canvas->dsc.header.cf = cf;
  74:..\..\..\arduinoLCD\test\Pain Drain\libraries\lvgl\src\widgets/lv_canvas.c ****     canvas->dsc.header.w  = w;
  75:..\..\..\arduinoLCD\test\Pain Drain\libraries\lvgl\src\widgets/lv_canvas.c ****     canvas->dsc.header.h  = h;
  76:..\..\..\arduinoLCD\test\Pain Drain\libraries\lvgl\src\widgets/lv_canvas.c ****     canvas->dsc.data      = buf;
  77:..\..\..\arduinoLCD\test\Pain Drain\libraries\lvgl\src\widgets/lv_canvas.c **** 
  78:..\..\..\arduinoLCD\test\Pain Drain\libraries\lvgl\src\widgets/lv_canvas.c ****     lv_img_set_src(obj, &canvas->dsc);
  79:..\..\..\arduinoLCD\test\Pain Drain\libraries\lvgl\src\widgets/lv_canvas.c ****     lv_img_cache_invalidate_src(&canvas->dsc);
  80:..\..\..\arduinoLCD\test\Pain Drain\libraries\lvgl\src\widgets/lv_canvas.c **** }
  81:..\..\..\arduinoLCD\test\Pain Drain\libraries\lvgl\src\widgets/lv_canvas.c **** 
  82:..\..\..\arduinoLCD\test\Pain Drain\libraries\lvgl\src\widgets/lv_canvas.c **** void lv_canvas_set_px_color(lv_obj_t * obj, lv_coord_t x, lv_coord_t y, lv_color_t c)
  83:..\..\..\arduinoLCD\test\Pain Drain\libraries\lvgl\src\widgets/lv_canvas.c **** {
  84:..\..\..\arduinoLCD\test\Pain Drain\libraries\lvgl\src\widgets/lv_canvas.c ****     LV_ASSERT_OBJ(obj, MY_CLASS);
  85:..\..\..\arduinoLCD\test\Pain Drain\libraries\lvgl\src\widgets/lv_canvas.c **** 
  86:..\..\..\arduinoLCD\test\Pain Drain\libraries\lvgl\src\widgets/lv_canvas.c ****     lv_canvas_t * canvas = (lv_canvas_t *)obj;
  87:..\..\..\arduinoLCD\test\Pain Drain\libraries\lvgl\src\widgets/lv_canvas.c **** 
  88:..\..\..\arduinoLCD\test\Pain Drain\libraries\lvgl\src\widgets/lv_canvas.c ****     lv_img_buf_set_px_color(&canvas->dsc, x, y, c);
ARM GAS  C:\Users\haske\AppData\Local\Temp\ccxUXv8a.s 			page 3


  89:..\..\..\arduinoLCD\test\Pain Drain\libraries\lvgl\src\widgets/lv_canvas.c ****     lv_obj_invalidate(obj);
  90:..\..\..\arduinoLCD\test\Pain Drain\libraries\lvgl\src\widgets/lv_canvas.c **** }
  91:..\..\..\arduinoLCD\test\Pain Drain\libraries\lvgl\src\widgets/lv_canvas.c **** 
  92:..\..\..\arduinoLCD\test\Pain Drain\libraries\lvgl\src\widgets/lv_canvas.c **** void lv_canvas_set_px_opa(lv_obj_t * obj, lv_coord_t x, lv_coord_t y, lv_opa_t opa)
  93:..\..\..\arduinoLCD\test\Pain Drain\libraries\lvgl\src\widgets/lv_canvas.c **** {
  94:..\..\..\arduinoLCD\test\Pain Drain\libraries\lvgl\src\widgets/lv_canvas.c ****     LV_ASSERT_OBJ(obj, MY_CLASS);
  95:..\..\..\arduinoLCD\test\Pain Drain\libraries\lvgl\src\widgets/lv_canvas.c **** 
  96:..\..\..\arduinoLCD\test\Pain Drain\libraries\lvgl\src\widgets/lv_canvas.c ****     lv_canvas_t * canvas = (lv_canvas_t *)obj;
  97:..\..\..\arduinoLCD\test\Pain Drain\libraries\lvgl\src\widgets/lv_canvas.c **** 
  98:..\..\..\arduinoLCD\test\Pain Drain\libraries\lvgl\src\widgets/lv_canvas.c ****     lv_img_buf_set_px_alpha(&canvas->dsc, x, y, opa);
  99:..\..\..\arduinoLCD\test\Pain Drain\libraries\lvgl\src\widgets/lv_canvas.c ****     lv_obj_invalidate(obj);
 100:..\..\..\arduinoLCD\test\Pain Drain\libraries\lvgl\src\widgets/lv_canvas.c **** }
 101:..\..\..\arduinoLCD\test\Pain Drain\libraries\lvgl\src\widgets/lv_canvas.c **** 
 102:..\..\..\arduinoLCD\test\Pain Drain\libraries\lvgl\src\widgets/lv_canvas.c **** void lv_canvas_set_palette(lv_obj_t * obj, uint8_t id, lv_color_t c)
 103:..\..\..\arduinoLCD\test\Pain Drain\libraries\lvgl\src\widgets/lv_canvas.c **** {
 104:..\..\..\arduinoLCD\test\Pain Drain\libraries\lvgl\src\widgets/lv_canvas.c ****     LV_ASSERT_OBJ(obj, MY_CLASS);
 105:..\..\..\arduinoLCD\test\Pain Drain\libraries\lvgl\src\widgets/lv_canvas.c **** 
 106:..\..\..\arduinoLCD\test\Pain Drain\libraries\lvgl\src\widgets/lv_canvas.c ****     lv_canvas_t * canvas = (lv_canvas_t *)obj;
 107:..\..\..\arduinoLCD\test\Pain Drain\libraries\lvgl\src\widgets/lv_canvas.c **** 
 108:..\..\..\arduinoLCD\test\Pain Drain\libraries\lvgl\src\widgets/lv_canvas.c ****     lv_img_buf_set_palette(&canvas->dsc, id, c);
 109:..\..\..\arduinoLCD\test\Pain Drain\libraries\lvgl\src\widgets/lv_canvas.c ****     lv_obj_invalidate(obj);
 110:..\..\..\arduinoLCD\test\Pain Drain\libraries\lvgl\src\widgets/lv_canvas.c **** }
 111:..\..\..\arduinoLCD\test\Pain Drain\libraries\lvgl\src\widgets/lv_canvas.c **** 
 112:..\..\..\arduinoLCD\test\Pain Drain\libraries\lvgl\src\widgets/lv_canvas.c **** /*=====================
 113:..\..\..\arduinoLCD\test\Pain Drain\libraries\lvgl\src\widgets/lv_canvas.c ****  * Getter functions
 114:..\..\..\arduinoLCD\test\Pain Drain\libraries\lvgl\src\widgets/lv_canvas.c ****  *====================*/
 115:..\..\..\arduinoLCD\test\Pain Drain\libraries\lvgl\src\widgets/lv_canvas.c **** 
 116:..\..\..\arduinoLCD\test\Pain Drain\libraries\lvgl\src\widgets/lv_canvas.c **** lv_color_t lv_canvas_get_px(lv_obj_t * obj, lv_coord_t x, lv_coord_t y)
 117:..\..\..\arduinoLCD\test\Pain Drain\libraries\lvgl\src\widgets/lv_canvas.c **** {
 118:..\..\..\arduinoLCD\test\Pain Drain\libraries\lvgl\src\widgets/lv_canvas.c ****     LV_ASSERT_OBJ(obj, MY_CLASS);
 119:..\..\..\arduinoLCD\test\Pain Drain\libraries\lvgl\src\widgets/lv_canvas.c **** 
 120:..\..\..\arduinoLCD\test\Pain Drain\libraries\lvgl\src\widgets/lv_canvas.c ****     lv_canvas_t * canvas = (lv_canvas_t *)obj;
 121:..\..\..\arduinoLCD\test\Pain Drain\libraries\lvgl\src\widgets/lv_canvas.c ****     lv_color_t color = lv_obj_get_style_img_recolor(obj, LV_PART_MAIN);
 122:..\..\..\arduinoLCD\test\Pain Drain\libraries\lvgl\src\widgets/lv_canvas.c **** 
 123:..\..\..\arduinoLCD\test\Pain Drain\libraries\lvgl\src\widgets/lv_canvas.c ****     return lv_img_buf_get_px_color(&canvas->dsc, x, y, color);
 124:..\..\..\arduinoLCD\test\Pain Drain\libraries\lvgl\src\widgets/lv_canvas.c **** }
 125:..\..\..\arduinoLCD\test\Pain Drain\libraries\lvgl\src\widgets/lv_canvas.c **** 
 126:..\..\..\arduinoLCD\test\Pain Drain\libraries\lvgl\src\widgets/lv_canvas.c **** lv_img_dsc_t * lv_canvas_get_img(lv_obj_t * obj)
 127:..\..\..\arduinoLCD\test\Pain Drain\libraries\lvgl\src\widgets/lv_canvas.c **** {
 128:..\..\..\arduinoLCD\test\Pain Drain\libraries\lvgl\src\widgets/lv_canvas.c ****     LV_ASSERT_OBJ(obj, MY_CLASS);
 129:..\..\..\arduinoLCD\test\Pain Drain\libraries\lvgl\src\widgets/lv_canvas.c **** 
 130:..\..\..\arduinoLCD\test\Pain Drain\libraries\lvgl\src\widgets/lv_canvas.c ****     lv_canvas_t * canvas = (lv_canvas_t *)obj;
 131:..\..\..\arduinoLCD\test\Pain Drain\libraries\lvgl\src\widgets/lv_canvas.c ****     return &canvas->dsc;
 132:..\..\..\arduinoLCD\test\Pain Drain\libraries\lvgl\src\widgets/lv_canvas.c **** }
 133:..\..\..\arduinoLCD\test\Pain Drain\libraries\lvgl\src\widgets/lv_canvas.c **** 
 134:..\..\..\arduinoLCD\test\Pain Drain\libraries\lvgl\src\widgets/lv_canvas.c **** /*=====================
 135:..\..\..\arduinoLCD\test\Pain Drain\libraries\lvgl\src\widgets/lv_canvas.c ****  * Other functions
 136:..\..\..\arduinoLCD\test\Pain Drain\libraries\lvgl\src\widgets/lv_canvas.c ****  *====================*/
 137:..\..\..\arduinoLCD\test\Pain Drain\libraries\lvgl\src\widgets/lv_canvas.c **** 
 138:..\..\..\arduinoLCD\test\Pain Drain\libraries\lvgl\src\widgets/lv_canvas.c **** void lv_canvas_copy_buf(lv_obj_t * obj, const void * to_copy, lv_coord_t x, lv_coord_t y, lv_coord_
 139:..\..\..\arduinoLCD\test\Pain Drain\libraries\lvgl\src\widgets/lv_canvas.c **** {
 140:..\..\..\arduinoLCD\test\Pain Drain\libraries\lvgl\src\widgets/lv_canvas.c ****     LV_ASSERT_OBJ(obj, MY_CLASS);
 141:..\..\..\arduinoLCD\test\Pain Drain\libraries\lvgl\src\widgets/lv_canvas.c ****     LV_ASSERT_NULL(to_copy);
 142:..\..\..\arduinoLCD\test\Pain Drain\libraries\lvgl\src\widgets/lv_canvas.c **** 
 143:..\..\..\arduinoLCD\test\Pain Drain\libraries\lvgl\src\widgets/lv_canvas.c ****     lv_canvas_t * canvas = (lv_canvas_t *)obj;
 144:..\..\..\arduinoLCD\test\Pain Drain\libraries\lvgl\src\widgets/lv_canvas.c **** 
 145:..\..\..\arduinoLCD\test\Pain Drain\libraries\lvgl\src\widgets/lv_canvas.c ****     if(x + w - 1 >= (lv_coord_t)canvas->dsc.header.w || y + h - 1 >= (lv_coord_t)canvas->dsc.header
ARM GAS  C:\Users\haske\AppData\Local\Temp\ccxUXv8a.s 			page 4


 146:..\..\..\arduinoLCD\test\Pain Drain\libraries\lvgl\src\widgets/lv_canvas.c ****         LV_LOG_WARN("lv_canvas_copy_buf: x or y out of the canvas");
 147:..\..\..\arduinoLCD\test\Pain Drain\libraries\lvgl\src\widgets/lv_canvas.c ****         return;
 148:..\..\..\arduinoLCD\test\Pain Drain\libraries\lvgl\src\widgets/lv_canvas.c ****     }
 149:..\..\..\arduinoLCD\test\Pain Drain\libraries\lvgl\src\widgets/lv_canvas.c **** 
 150:..\..\..\arduinoLCD\test\Pain Drain\libraries\lvgl\src\widgets/lv_canvas.c ****     uint32_t px_size   = lv_img_cf_get_px_size(canvas->dsc.header.cf) >> 3;
 151:..\..\..\arduinoLCD\test\Pain Drain\libraries\lvgl\src\widgets/lv_canvas.c ****     uint32_t px        = canvas->dsc.header.w * y * px_size + x * px_size;
 152:..\..\..\arduinoLCD\test\Pain Drain\libraries\lvgl\src\widgets/lv_canvas.c ****     uint8_t * to_copy8 = (uint8_t *)to_copy;
 153:..\..\..\arduinoLCD\test\Pain Drain\libraries\lvgl\src\widgets/lv_canvas.c ****     lv_coord_t i;
 154:..\..\..\arduinoLCD\test\Pain Drain\libraries\lvgl\src\widgets/lv_canvas.c ****     for(i = 0; i < h; i++) {
 155:..\..\..\arduinoLCD\test\Pain Drain\libraries\lvgl\src\widgets/lv_canvas.c ****         lv_memcpy((void *)&canvas->dsc.data[px], to_copy8, w * px_size);
 156:..\..\..\arduinoLCD\test\Pain Drain\libraries\lvgl\src\widgets/lv_canvas.c ****         px += canvas->dsc.header.w * px_size;
 157:..\..\..\arduinoLCD\test\Pain Drain\libraries\lvgl\src\widgets/lv_canvas.c ****         to_copy8 += w * px_size;
 158:..\..\..\arduinoLCD\test\Pain Drain\libraries\lvgl\src\widgets/lv_canvas.c ****     }
 159:..\..\..\arduinoLCD\test\Pain Drain\libraries\lvgl\src\widgets/lv_canvas.c **** }
 160:..\..\..\arduinoLCD\test\Pain Drain\libraries\lvgl\src\widgets/lv_canvas.c **** 
 161:..\..\..\arduinoLCD\test\Pain Drain\libraries\lvgl\src\widgets/lv_canvas.c **** void lv_canvas_transform(lv_obj_t * obj, lv_img_dsc_t * src_img, int16_t angle, uint16_t zoom, lv_c
 162:..\..\..\arduinoLCD\test\Pain Drain\libraries\lvgl\src\widgets/lv_canvas.c ****                          lv_coord_t offset_y,
 163:..\..\..\arduinoLCD\test\Pain Drain\libraries\lvgl\src\widgets/lv_canvas.c ****                          int32_t pivot_x, int32_t pivot_y, bool antialias)
 164:..\..\..\arduinoLCD\test\Pain Drain\libraries\lvgl\src\widgets/lv_canvas.c **** {
 165:..\..\..\arduinoLCD\test\Pain Drain\libraries\lvgl\src\widgets/lv_canvas.c **** #if LV_DRAW_COMPLEX
 166:..\..\..\arduinoLCD\test\Pain Drain\libraries\lvgl\src\widgets/lv_canvas.c ****     LV_ASSERT_OBJ(obj, MY_CLASS);
 167:..\..\..\arduinoLCD\test\Pain Drain\libraries\lvgl\src\widgets/lv_canvas.c ****     LV_ASSERT_NULL(src_img);
 168:..\..\..\arduinoLCD\test\Pain Drain\libraries\lvgl\src\widgets/lv_canvas.c **** 
 169:..\..\..\arduinoLCD\test\Pain Drain\libraries\lvgl\src\widgets/lv_canvas.c ****     lv_canvas_t * canvas = (lv_canvas_t *)obj;
 170:..\..\..\arduinoLCD\test\Pain Drain\libraries\lvgl\src\widgets/lv_canvas.c ****     lv_img_dsc_t * dest_img = &canvas->dsc;
 171:..\..\..\arduinoLCD\test\Pain Drain\libraries\lvgl\src\widgets/lv_canvas.c **** 
 172:..\..\..\arduinoLCD\test\Pain Drain\libraries\lvgl\src\widgets/lv_canvas.c ****     int32_t x;
 173:..\..\..\arduinoLCD\test\Pain Drain\libraries\lvgl\src\widgets/lv_canvas.c ****     int32_t y;
 174:..\..\..\arduinoLCD\test\Pain Drain\libraries\lvgl\src\widgets/lv_canvas.c **** 
 175:..\..\..\arduinoLCD\test\Pain Drain\libraries\lvgl\src\widgets/lv_canvas.c ****     lv_draw_img_dsc_t draw_dsc;
 176:..\..\..\arduinoLCD\test\Pain Drain\libraries\lvgl\src\widgets/lv_canvas.c ****     lv_draw_img_dsc_init(&draw_dsc);
 177:..\..\..\arduinoLCD\test\Pain Drain\libraries\lvgl\src\widgets/lv_canvas.c ****     draw_dsc.angle = angle;
 178:..\..\..\arduinoLCD\test\Pain Drain\libraries\lvgl\src\widgets/lv_canvas.c ****     draw_dsc.zoom = zoom;
 179:..\..\..\arduinoLCD\test\Pain Drain\libraries\lvgl\src\widgets/lv_canvas.c ****     draw_dsc.pivot.x = pivot_x;
 180:..\..\..\arduinoLCD\test\Pain Drain\libraries\lvgl\src\widgets/lv_canvas.c ****     draw_dsc.pivot.y = pivot_y;
 181:..\..\..\arduinoLCD\test\Pain Drain\libraries\lvgl\src\widgets/lv_canvas.c ****     draw_dsc.antialias = antialias;
 182:..\..\..\arduinoLCD\test\Pain Drain\libraries\lvgl\src\widgets/lv_canvas.c **** 
 183:..\..\..\arduinoLCD\test\Pain Drain\libraries\lvgl\src\widgets/lv_canvas.c ****     lv_area_t dest_area;
 184:..\..\..\arduinoLCD\test\Pain Drain\libraries\lvgl\src\widgets/lv_canvas.c ****     dest_area.x1 = -offset_x;
 185:..\..\..\arduinoLCD\test\Pain Drain\libraries\lvgl\src\widgets/lv_canvas.c ****     dest_area.x2 = dest_area.x1 + dest_img->header.w - 1;
 186:..\..\..\arduinoLCD\test\Pain Drain\libraries\lvgl\src\widgets/lv_canvas.c ****     dest_area.y1 = -offset_y;
 187:..\..\..\arduinoLCD\test\Pain Drain\libraries\lvgl\src\widgets/lv_canvas.c ****     dest_area.y2 = -offset_y;
 188:..\..\..\arduinoLCD\test\Pain Drain\libraries\lvgl\src\widgets/lv_canvas.c **** 
 189:..\..\..\arduinoLCD\test\Pain Drain\libraries\lvgl\src\widgets/lv_canvas.c ****     lv_color_t * cbuf = lv_mem_alloc(dest_img->header.w * sizeof(lv_color_t));
 190:..\..\..\arduinoLCD\test\Pain Drain\libraries\lvgl\src\widgets/lv_canvas.c ****     lv_opa_t * abuf = lv_mem_alloc(dest_img->header.w * sizeof(lv_opa_t));
 191:..\..\..\arduinoLCD\test\Pain Drain\libraries\lvgl\src\widgets/lv_canvas.c ****     for(y = 0; y < dest_img->header.h; y++) {
 192:..\..\..\arduinoLCD\test\Pain Drain\libraries\lvgl\src\widgets/lv_canvas.c ****         if(y + offset_y >= 0) {
 193:..\..\..\arduinoLCD\test\Pain Drain\libraries\lvgl\src\widgets/lv_canvas.c ****             lv_draw_sw_transform(NULL, &dest_area, src_img->data, src_img->header.w, src_img->heade
 194:..\..\..\arduinoLCD\test\Pain Drain\libraries\lvgl\src\widgets/lv_canvas.c ****                                  &draw_dsc, canvas->dsc.header.cf, cbuf, abuf);
 195:..\..\..\arduinoLCD\test\Pain Drain\libraries\lvgl\src\widgets/lv_canvas.c **** 
 196:..\..\..\arduinoLCD\test\Pain Drain\libraries\lvgl\src\widgets/lv_canvas.c ****             for(x = 0; x < dest_img->header.w; x++) {
 197:..\..\..\arduinoLCD\test\Pain Drain\libraries\lvgl\src\widgets/lv_canvas.c ****                 if(abuf[x]) {
 198:..\..\..\arduinoLCD\test\Pain Drain\libraries\lvgl\src\widgets/lv_canvas.c ****                     lv_img_buf_set_px_color(dest_img, x, y, cbuf[x]);
 199:..\..\..\arduinoLCD\test\Pain Drain\libraries\lvgl\src\widgets/lv_canvas.c ****                     lv_img_buf_set_px_alpha(dest_img, x, y, abuf[x]);
 200:..\..\..\arduinoLCD\test\Pain Drain\libraries\lvgl\src\widgets/lv_canvas.c ****                 }
 201:..\..\..\arduinoLCD\test\Pain Drain\libraries\lvgl\src\widgets/lv_canvas.c ****             }
 202:..\..\..\arduinoLCD\test\Pain Drain\libraries\lvgl\src\widgets/lv_canvas.c **** 
ARM GAS  C:\Users\haske\AppData\Local\Temp\ccxUXv8a.s 			page 5


 203:..\..\..\arduinoLCD\test\Pain Drain\libraries\lvgl\src\widgets/lv_canvas.c ****             dest_area.y1++;
 204:..\..\..\arduinoLCD\test\Pain Drain\libraries\lvgl\src\widgets/lv_canvas.c ****             dest_area.y2++;
 205:..\..\..\arduinoLCD\test\Pain Drain\libraries\lvgl\src\widgets/lv_canvas.c ****         }
 206:..\..\..\arduinoLCD\test\Pain Drain\libraries\lvgl\src\widgets/lv_canvas.c ****     }
 207:..\..\..\arduinoLCD\test\Pain Drain\libraries\lvgl\src\widgets/lv_canvas.c ****     lv_mem_free(cbuf);
 208:..\..\..\arduinoLCD\test\Pain Drain\libraries\lvgl\src\widgets/lv_canvas.c ****     lv_mem_free(abuf);
 209:..\..\..\arduinoLCD\test\Pain Drain\libraries\lvgl\src\widgets/lv_canvas.c **** 
 210:..\..\..\arduinoLCD\test\Pain Drain\libraries\lvgl\src\widgets/lv_canvas.c ****     lv_obj_invalidate(obj);
 211:..\..\..\arduinoLCD\test\Pain Drain\libraries\lvgl\src\widgets/lv_canvas.c **** 
 212:..\..\..\arduinoLCD\test\Pain Drain\libraries\lvgl\src\widgets/lv_canvas.c **** #else
 213:..\..\..\arduinoLCD\test\Pain Drain\libraries\lvgl\src\widgets/lv_canvas.c ****     LV_UNUSED(obj);
 214:..\..\..\arduinoLCD\test\Pain Drain\libraries\lvgl\src\widgets/lv_canvas.c ****     LV_UNUSED(src_img);
 215:..\..\..\arduinoLCD\test\Pain Drain\libraries\lvgl\src\widgets/lv_canvas.c ****     LV_UNUSED(angle);
 216:..\..\..\arduinoLCD\test\Pain Drain\libraries\lvgl\src\widgets/lv_canvas.c ****     LV_UNUSED(zoom);
 217:..\..\..\arduinoLCD\test\Pain Drain\libraries\lvgl\src\widgets/lv_canvas.c ****     LV_UNUSED(offset_x);
 218:..\..\..\arduinoLCD\test\Pain Drain\libraries\lvgl\src\widgets/lv_canvas.c ****     LV_UNUSED(offset_y);
 219:..\..\..\arduinoLCD\test\Pain Drain\libraries\lvgl\src\widgets/lv_canvas.c ****     LV_UNUSED(pivot_x);
 220:..\..\..\arduinoLCD\test\Pain Drain\libraries\lvgl\src\widgets/lv_canvas.c ****     LV_UNUSED(pivot_y);
 221:..\..\..\arduinoLCD\test\Pain Drain\libraries\lvgl\src\widgets/lv_canvas.c ****     LV_UNUSED(antialias);
 222:..\..\..\arduinoLCD\test\Pain Drain\libraries\lvgl\src\widgets/lv_canvas.c ****     LV_LOG_WARN("Can't transform canvas with LV_DRAW_COMPLEX == 0");
 223:..\..\..\arduinoLCD\test\Pain Drain\libraries\lvgl\src\widgets/lv_canvas.c **** #endif
 224:..\..\..\arduinoLCD\test\Pain Drain\libraries\lvgl\src\widgets/lv_canvas.c **** }
 225:..\..\..\arduinoLCD\test\Pain Drain\libraries\lvgl\src\widgets/lv_canvas.c **** 
 226:..\..\..\arduinoLCD\test\Pain Drain\libraries\lvgl\src\widgets/lv_canvas.c **** void lv_canvas_blur_hor(lv_obj_t * obj, const lv_area_t * area, uint16_t r)
 227:..\..\..\arduinoLCD\test\Pain Drain\libraries\lvgl\src\widgets/lv_canvas.c **** {
 228:..\..\..\arduinoLCD\test\Pain Drain\libraries\lvgl\src\widgets/lv_canvas.c ****     LV_ASSERT_OBJ(obj, MY_CLASS);
 229:..\..\..\arduinoLCD\test\Pain Drain\libraries\lvgl\src\widgets/lv_canvas.c **** 
 230:..\..\..\arduinoLCD\test\Pain Drain\libraries\lvgl\src\widgets/lv_canvas.c ****     if(r == 0) return;
 231:..\..\..\arduinoLCD\test\Pain Drain\libraries\lvgl\src\widgets/lv_canvas.c **** 
 232:..\..\..\arduinoLCD\test\Pain Drain\libraries\lvgl\src\widgets/lv_canvas.c ****     lv_canvas_t * canvas = (lv_canvas_t *)obj;
 233:..\..\..\arduinoLCD\test\Pain Drain\libraries\lvgl\src\widgets/lv_canvas.c **** 
 234:..\..\..\arduinoLCD\test\Pain Drain\libraries\lvgl\src\widgets/lv_canvas.c ****     lv_area_t a;
 235:..\..\..\arduinoLCD\test\Pain Drain\libraries\lvgl\src\widgets/lv_canvas.c ****     if(area) {
 236:..\..\..\arduinoLCD\test\Pain Drain\libraries\lvgl\src\widgets/lv_canvas.c ****         lv_area_copy(&a, area);
 237:..\..\..\arduinoLCD\test\Pain Drain\libraries\lvgl\src\widgets/lv_canvas.c ****         if(a.x1 < 0) a.x1 = 0;
 238:..\..\..\arduinoLCD\test\Pain Drain\libraries\lvgl\src\widgets/lv_canvas.c ****         if(a.y1 < 0) a.y1 = 0;
 239:..\..\..\arduinoLCD\test\Pain Drain\libraries\lvgl\src\widgets/lv_canvas.c ****         if(a.x2 > canvas->dsc.header.w - 1) a.x2 = canvas->dsc.header.w - 1;
 240:..\..\..\arduinoLCD\test\Pain Drain\libraries\lvgl\src\widgets/lv_canvas.c ****         if(a.y2 > canvas->dsc.header.h - 1) a.y2 = canvas->dsc.header.h - 1;
 241:..\..\..\arduinoLCD\test\Pain Drain\libraries\lvgl\src\widgets/lv_canvas.c ****     }
 242:..\..\..\arduinoLCD\test\Pain Drain\libraries\lvgl\src\widgets/lv_canvas.c ****     else {
 243:..\..\..\arduinoLCD\test\Pain Drain\libraries\lvgl\src\widgets/lv_canvas.c ****         a.x1 = 0;
 244:..\..\..\arduinoLCD\test\Pain Drain\libraries\lvgl\src\widgets/lv_canvas.c ****         a.y1 = 0;
 245:..\..\..\arduinoLCD\test\Pain Drain\libraries\lvgl\src\widgets/lv_canvas.c ****         a.x2 = canvas->dsc.header.w - 1;
 246:..\..\..\arduinoLCD\test\Pain Drain\libraries\lvgl\src\widgets/lv_canvas.c ****         a.y2 = canvas->dsc.header.h - 1;
 247:..\..\..\arduinoLCD\test\Pain Drain\libraries\lvgl\src\widgets/lv_canvas.c ****     }
 248:..\..\..\arduinoLCD\test\Pain Drain\libraries\lvgl\src\widgets/lv_canvas.c **** 
 249:..\..\..\arduinoLCD\test\Pain Drain\libraries\lvgl\src\widgets/lv_canvas.c ****     lv_color_t color = lv_obj_get_style_img_recolor(obj, LV_PART_MAIN);
 250:..\..\..\arduinoLCD\test\Pain Drain\libraries\lvgl\src\widgets/lv_canvas.c **** 
 251:..\..\..\arduinoLCD\test\Pain Drain\libraries\lvgl\src\widgets/lv_canvas.c ****     uint16_t r_back = r / 2;
 252:..\..\..\arduinoLCD\test\Pain Drain\libraries\lvgl\src\widgets/lv_canvas.c ****     uint16_t r_front = r / 2;
 253:..\..\..\arduinoLCD\test\Pain Drain\libraries\lvgl\src\widgets/lv_canvas.c **** 
 254:..\..\..\arduinoLCD\test\Pain Drain\libraries\lvgl\src\widgets/lv_canvas.c ****     if((r & 0x1) == 0) r_back--;
 255:..\..\..\arduinoLCD\test\Pain Drain\libraries\lvgl\src\widgets/lv_canvas.c **** 
 256:..\..\..\arduinoLCD\test\Pain Drain\libraries\lvgl\src\widgets/lv_canvas.c ****     bool has_alpha = lv_img_cf_has_alpha(canvas->dsc.header.cf);
 257:..\..\..\arduinoLCD\test\Pain Drain\libraries\lvgl\src\widgets/lv_canvas.c **** 
 258:..\..\..\arduinoLCD\test\Pain Drain\libraries\lvgl\src\widgets/lv_canvas.c ****     lv_coord_t line_w = lv_img_buf_get_img_size(canvas->dsc.header.w, 1, canvas->dsc.header.cf);
 259:..\..\..\arduinoLCD\test\Pain Drain\libraries\lvgl\src\widgets/lv_canvas.c ****     uint8_t * line_buf = lv_mem_buf_get(line_w);
ARM GAS  C:\Users\haske\AppData\Local\Temp\ccxUXv8a.s 			page 6


 260:..\..\..\arduinoLCD\test\Pain Drain\libraries\lvgl\src\widgets/lv_canvas.c **** 
 261:..\..\..\arduinoLCD\test\Pain Drain\libraries\lvgl\src\widgets/lv_canvas.c ****     lv_img_dsc_t line_img;
 262:..\..\..\arduinoLCD\test\Pain Drain\libraries\lvgl\src\widgets/lv_canvas.c ****     line_img.data = line_buf;
 263:..\..\..\arduinoLCD\test\Pain Drain\libraries\lvgl\src\widgets/lv_canvas.c ****     line_img.header.always_zero = 0;
 264:..\..\..\arduinoLCD\test\Pain Drain\libraries\lvgl\src\widgets/lv_canvas.c ****     line_img.header.w = canvas->dsc.header.w;
 265:..\..\..\arduinoLCD\test\Pain Drain\libraries\lvgl\src\widgets/lv_canvas.c ****     line_img.header.h = 1;
 266:..\..\..\arduinoLCD\test\Pain Drain\libraries\lvgl\src\widgets/lv_canvas.c ****     line_img.header.cf = canvas->dsc.header.cf;
 267:..\..\..\arduinoLCD\test\Pain Drain\libraries\lvgl\src\widgets/lv_canvas.c **** 
 268:..\..\..\arduinoLCD\test\Pain Drain\libraries\lvgl\src\widgets/lv_canvas.c ****     lv_coord_t x;
 269:..\..\..\arduinoLCD\test\Pain Drain\libraries\lvgl\src\widgets/lv_canvas.c ****     lv_coord_t y;
 270:..\..\..\arduinoLCD\test\Pain Drain\libraries\lvgl\src\widgets/lv_canvas.c ****     lv_coord_t x_safe;
 271:..\..\..\arduinoLCD\test\Pain Drain\libraries\lvgl\src\widgets/lv_canvas.c **** 
 272:..\..\..\arduinoLCD\test\Pain Drain\libraries\lvgl\src\widgets/lv_canvas.c ****     for(y = a.y1; y <= a.y2; y++) {
 273:..\..\..\arduinoLCD\test\Pain Drain\libraries\lvgl\src\widgets/lv_canvas.c ****         uint32_t asum = 0;
 274:..\..\..\arduinoLCD\test\Pain Drain\libraries\lvgl\src\widgets/lv_canvas.c ****         uint32_t rsum = 0;
 275:..\..\..\arduinoLCD\test\Pain Drain\libraries\lvgl\src\widgets/lv_canvas.c ****         uint32_t gsum = 0;
 276:..\..\..\arduinoLCD\test\Pain Drain\libraries\lvgl\src\widgets/lv_canvas.c ****         uint32_t bsum = 0;
 277:..\..\..\arduinoLCD\test\Pain Drain\libraries\lvgl\src\widgets/lv_canvas.c **** 
 278:..\..\..\arduinoLCD\test\Pain Drain\libraries\lvgl\src\widgets/lv_canvas.c ****         lv_color_t c;
 279:..\..\..\arduinoLCD\test\Pain Drain\libraries\lvgl\src\widgets/lv_canvas.c ****         lv_opa_t opa = LV_OPA_TRANSP;
 280:..\..\..\arduinoLCD\test\Pain Drain\libraries\lvgl\src\widgets/lv_canvas.c ****         lv_memcpy(line_buf, &canvas->dsc.data[y * line_w], line_w);
 281:..\..\..\arduinoLCD\test\Pain Drain\libraries\lvgl\src\widgets/lv_canvas.c **** 
 282:..\..\..\arduinoLCD\test\Pain Drain\libraries\lvgl\src\widgets/lv_canvas.c ****         for(x = a.x1 - r_back; x <= a.x1 + r_front; x++) {
 283:..\..\..\arduinoLCD\test\Pain Drain\libraries\lvgl\src\widgets/lv_canvas.c ****             x_safe = x < 0 ? 0 : x;
 284:..\..\..\arduinoLCD\test\Pain Drain\libraries\lvgl\src\widgets/lv_canvas.c ****             x_safe = x_safe > canvas->dsc.header.w - 1 ? canvas->dsc.header.w - 1 : x_safe;
 285:..\..\..\arduinoLCD\test\Pain Drain\libraries\lvgl\src\widgets/lv_canvas.c **** 
 286:..\..\..\arduinoLCD\test\Pain Drain\libraries\lvgl\src\widgets/lv_canvas.c ****             c = lv_img_buf_get_px_color(&line_img, x_safe, 0, color);
 287:..\..\..\arduinoLCD\test\Pain Drain\libraries\lvgl\src\widgets/lv_canvas.c ****             if(has_alpha) opa = lv_img_buf_get_px_alpha(&line_img, x_safe, 0);
 288:..\..\..\arduinoLCD\test\Pain Drain\libraries\lvgl\src\widgets/lv_canvas.c **** 
 289:..\..\..\arduinoLCD\test\Pain Drain\libraries\lvgl\src\widgets/lv_canvas.c ****             rsum += c.ch.red;
 290:..\..\..\arduinoLCD\test\Pain Drain\libraries\lvgl\src\widgets/lv_canvas.c **** #if LV_COLOR_DEPTH == 16 && LV_COLOR_16_SWAP
 291:..\..\..\arduinoLCD\test\Pain Drain\libraries\lvgl\src\widgets/lv_canvas.c ****             gsum += (c.ch.green_h << 3) + c.ch.green_l;
 292:..\..\..\arduinoLCD\test\Pain Drain\libraries\lvgl\src\widgets/lv_canvas.c **** #else
 293:..\..\..\arduinoLCD\test\Pain Drain\libraries\lvgl\src\widgets/lv_canvas.c ****             gsum += c.ch.green;
 294:..\..\..\arduinoLCD\test\Pain Drain\libraries\lvgl\src\widgets/lv_canvas.c **** #endif
 295:..\..\..\arduinoLCD\test\Pain Drain\libraries\lvgl\src\widgets/lv_canvas.c ****             bsum += c.ch.blue;
 296:..\..\..\arduinoLCD\test\Pain Drain\libraries\lvgl\src\widgets/lv_canvas.c ****             if(has_alpha) asum += opa;
 297:..\..\..\arduinoLCD\test\Pain Drain\libraries\lvgl\src\widgets/lv_canvas.c ****         }
 298:..\..\..\arduinoLCD\test\Pain Drain\libraries\lvgl\src\widgets/lv_canvas.c **** 
 299:..\..\..\arduinoLCD\test\Pain Drain\libraries\lvgl\src\widgets/lv_canvas.c ****         /*Just to indicate that the px is visible*/
 300:..\..\..\arduinoLCD\test\Pain Drain\libraries\lvgl\src\widgets/lv_canvas.c ****         if(has_alpha == false) asum = LV_OPA_COVER;
 301:..\..\..\arduinoLCD\test\Pain Drain\libraries\lvgl\src\widgets/lv_canvas.c **** 
 302:..\..\..\arduinoLCD\test\Pain Drain\libraries\lvgl\src\widgets/lv_canvas.c ****         for(x = a.x1; x <= a.x2; x++) {
 303:..\..\..\arduinoLCD\test\Pain Drain\libraries\lvgl\src\widgets/lv_canvas.c **** 
 304:..\..\..\arduinoLCD\test\Pain Drain\libraries\lvgl\src\widgets/lv_canvas.c ****             if(asum) {
 305:..\..\..\arduinoLCD\test\Pain Drain\libraries\lvgl\src\widgets/lv_canvas.c ****                 c.ch.red = rsum / r;
 306:..\..\..\arduinoLCD\test\Pain Drain\libraries\lvgl\src\widgets/lv_canvas.c **** #if LV_COLOR_DEPTH == 16 && LV_COLOR_16_SWAP
 307:..\..\..\arduinoLCD\test\Pain Drain\libraries\lvgl\src\widgets/lv_canvas.c ****                 uint8_t gtmp = gsum / r;
 308:..\..\..\arduinoLCD\test\Pain Drain\libraries\lvgl\src\widgets/lv_canvas.c ****                 c.ch.green_h = gtmp >> 3;
 309:..\..\..\arduinoLCD\test\Pain Drain\libraries\lvgl\src\widgets/lv_canvas.c ****                 c.ch.green_l = gtmp & 0x7;
 310:..\..\..\arduinoLCD\test\Pain Drain\libraries\lvgl\src\widgets/lv_canvas.c **** #else
 311:..\..\..\arduinoLCD\test\Pain Drain\libraries\lvgl\src\widgets/lv_canvas.c ****                 c.ch.green = gsum / r;
 312:..\..\..\arduinoLCD\test\Pain Drain\libraries\lvgl\src\widgets/lv_canvas.c **** #endif
 313:..\..\..\arduinoLCD\test\Pain Drain\libraries\lvgl\src\widgets/lv_canvas.c ****                 c.ch.blue = bsum / r;
 314:..\..\..\arduinoLCD\test\Pain Drain\libraries\lvgl\src\widgets/lv_canvas.c ****                 if(has_alpha) opa = asum / r;
 315:..\..\..\arduinoLCD\test\Pain Drain\libraries\lvgl\src\widgets/lv_canvas.c **** 
 316:..\..\..\arduinoLCD\test\Pain Drain\libraries\lvgl\src\widgets/lv_canvas.c ****                 lv_img_buf_set_px_color(&canvas->dsc, x, y, c);
ARM GAS  C:\Users\haske\AppData\Local\Temp\ccxUXv8a.s 			page 7


 317:..\..\..\arduinoLCD\test\Pain Drain\libraries\lvgl\src\widgets/lv_canvas.c ****             }
 318:..\..\..\arduinoLCD\test\Pain Drain\libraries\lvgl\src\widgets/lv_canvas.c ****             if(has_alpha) lv_img_buf_set_px_alpha(&canvas->dsc, x, y, opa);
 319:..\..\..\arduinoLCD\test\Pain Drain\libraries\lvgl\src\widgets/lv_canvas.c **** 
 320:..\..\..\arduinoLCD\test\Pain Drain\libraries\lvgl\src\widgets/lv_canvas.c ****             x_safe = x - r_back;
 321:..\..\..\arduinoLCD\test\Pain Drain\libraries\lvgl\src\widgets/lv_canvas.c ****             x_safe = x_safe < 0 ? 0 : x_safe;
 322:..\..\..\arduinoLCD\test\Pain Drain\libraries\lvgl\src\widgets/lv_canvas.c ****             c = lv_img_buf_get_px_color(&line_img, x_safe, 0, color);
 323:..\..\..\arduinoLCD\test\Pain Drain\libraries\lvgl\src\widgets/lv_canvas.c ****             if(has_alpha) opa = lv_img_buf_get_px_alpha(&line_img, x_safe, 0);
 324:..\..\..\arduinoLCD\test\Pain Drain\libraries\lvgl\src\widgets/lv_canvas.c **** 
 325:..\..\..\arduinoLCD\test\Pain Drain\libraries\lvgl\src\widgets/lv_canvas.c ****             rsum -= c.ch.red;
 326:..\..\..\arduinoLCD\test\Pain Drain\libraries\lvgl\src\widgets/lv_canvas.c **** #if LV_COLOR_DEPTH == 16 && LV_COLOR_16_SWAP
 327:..\..\..\arduinoLCD\test\Pain Drain\libraries\lvgl\src\widgets/lv_canvas.c ****             gsum -= (c.ch.green_h << 3) + c.ch.green_l;
 328:..\..\..\arduinoLCD\test\Pain Drain\libraries\lvgl\src\widgets/lv_canvas.c **** #else
 329:..\..\..\arduinoLCD\test\Pain Drain\libraries\lvgl\src\widgets/lv_canvas.c ****             gsum -= c.ch.green;
 330:..\..\..\arduinoLCD\test\Pain Drain\libraries\lvgl\src\widgets/lv_canvas.c **** #endif
 331:..\..\..\arduinoLCD\test\Pain Drain\libraries\lvgl\src\widgets/lv_canvas.c ****             bsum -= c.ch.blue;
 332:..\..\..\arduinoLCD\test\Pain Drain\libraries\lvgl\src\widgets/lv_canvas.c ****             if(has_alpha) asum -= opa;
 333:..\..\..\arduinoLCD\test\Pain Drain\libraries\lvgl\src\widgets/lv_canvas.c **** 
 334:..\..\..\arduinoLCD\test\Pain Drain\libraries\lvgl\src\widgets/lv_canvas.c ****             x_safe = x + 1 + r_front;
 335:..\..\..\arduinoLCD\test\Pain Drain\libraries\lvgl\src\widgets/lv_canvas.c ****             x_safe = x_safe > canvas->dsc.header.w - 1 ? canvas->dsc.header.w - 1 : x_safe;
 336:..\..\..\arduinoLCD\test\Pain Drain\libraries\lvgl\src\widgets/lv_canvas.c ****             c = lv_img_buf_get_px_color(&line_img, x_safe, 0, lv_color_white());
 337:..\..\..\arduinoLCD\test\Pain Drain\libraries\lvgl\src\widgets/lv_canvas.c ****             if(has_alpha) opa = lv_img_buf_get_px_alpha(&line_img, x_safe, 0);
 338:..\..\..\arduinoLCD\test\Pain Drain\libraries\lvgl\src\widgets/lv_canvas.c **** 
 339:..\..\..\arduinoLCD\test\Pain Drain\libraries\lvgl\src\widgets/lv_canvas.c ****             rsum += c.ch.red;
 340:..\..\..\arduinoLCD\test\Pain Drain\libraries\lvgl\src\widgets/lv_canvas.c **** #if LV_COLOR_DEPTH == 16 && LV_COLOR_16_SWAP
 341:..\..\..\arduinoLCD\test\Pain Drain\libraries\lvgl\src\widgets/lv_canvas.c ****             gsum += (c.ch.green_h << 3) + c.ch.green_l;
 342:..\..\..\arduinoLCD\test\Pain Drain\libraries\lvgl\src\widgets/lv_canvas.c **** #else
 343:..\..\..\arduinoLCD\test\Pain Drain\libraries\lvgl\src\widgets/lv_canvas.c ****             gsum += c.ch.green;
 344:..\..\..\arduinoLCD\test\Pain Drain\libraries\lvgl\src\widgets/lv_canvas.c **** #endif
 345:..\..\..\arduinoLCD\test\Pain Drain\libraries\lvgl\src\widgets/lv_canvas.c ****             bsum += c.ch.blue;
 346:..\..\..\arduinoLCD\test\Pain Drain\libraries\lvgl\src\widgets/lv_canvas.c ****             if(has_alpha) asum += opa;
 347:..\..\..\arduinoLCD\test\Pain Drain\libraries\lvgl\src\widgets/lv_canvas.c ****         }
 348:..\..\..\arduinoLCD\test\Pain Drain\libraries\lvgl\src\widgets/lv_canvas.c ****     }
 349:..\..\..\arduinoLCD\test\Pain Drain\libraries\lvgl\src\widgets/lv_canvas.c ****     lv_obj_invalidate(obj);
 350:..\..\..\arduinoLCD\test\Pain Drain\libraries\lvgl\src\widgets/lv_canvas.c **** 
 351:..\..\..\arduinoLCD\test\Pain Drain\libraries\lvgl\src\widgets/lv_canvas.c ****     lv_mem_buf_release(line_buf);
 352:..\..\..\arduinoLCD\test\Pain Drain\libraries\lvgl\src\widgets/lv_canvas.c **** }
 353:..\..\..\arduinoLCD\test\Pain Drain\libraries\lvgl\src\widgets/lv_canvas.c **** 
 354:..\..\..\arduinoLCD\test\Pain Drain\libraries\lvgl\src\widgets/lv_canvas.c **** void lv_canvas_blur_ver(lv_obj_t * obj, const lv_area_t * area, uint16_t r)
 355:..\..\..\arduinoLCD\test\Pain Drain\libraries\lvgl\src\widgets/lv_canvas.c **** {
 356:..\..\..\arduinoLCD\test\Pain Drain\libraries\lvgl\src\widgets/lv_canvas.c ****     LV_ASSERT_OBJ(obj, MY_CLASS);
 357:..\..\..\arduinoLCD\test\Pain Drain\libraries\lvgl\src\widgets/lv_canvas.c **** 
 358:..\..\..\arduinoLCD\test\Pain Drain\libraries\lvgl\src\widgets/lv_canvas.c ****     if(r == 0) return;
 359:..\..\..\arduinoLCD\test\Pain Drain\libraries\lvgl\src\widgets/lv_canvas.c **** 
 360:..\..\..\arduinoLCD\test\Pain Drain\libraries\lvgl\src\widgets/lv_canvas.c ****     lv_canvas_t * canvas = (lv_canvas_t *)obj;
 361:..\..\..\arduinoLCD\test\Pain Drain\libraries\lvgl\src\widgets/lv_canvas.c **** 
 362:..\..\..\arduinoLCD\test\Pain Drain\libraries\lvgl\src\widgets/lv_canvas.c ****     lv_area_t a;
 363:..\..\..\arduinoLCD\test\Pain Drain\libraries\lvgl\src\widgets/lv_canvas.c ****     if(area) {
 364:..\..\..\arduinoLCD\test\Pain Drain\libraries\lvgl\src\widgets/lv_canvas.c ****         lv_area_copy(&a, area);
 365:..\..\..\arduinoLCD\test\Pain Drain\libraries\lvgl\src\widgets/lv_canvas.c ****         if(a.x1 < 0) a.x1 = 0;
 366:..\..\..\arduinoLCD\test\Pain Drain\libraries\lvgl\src\widgets/lv_canvas.c ****         if(a.y1 < 0) a.y1 = 0;
 367:..\..\..\arduinoLCD\test\Pain Drain\libraries\lvgl\src\widgets/lv_canvas.c ****         if(a.x2 > canvas->dsc.header.w - 1) a.x2 = canvas->dsc.header.w - 1;
 368:..\..\..\arduinoLCD\test\Pain Drain\libraries\lvgl\src\widgets/lv_canvas.c ****         if(a.y2 > canvas->dsc.header.h - 1) a.y2 = canvas->dsc.header.h - 1;
 369:..\..\..\arduinoLCD\test\Pain Drain\libraries\lvgl\src\widgets/lv_canvas.c ****     }
 370:..\..\..\arduinoLCD\test\Pain Drain\libraries\lvgl\src\widgets/lv_canvas.c ****     else {
 371:..\..\..\arduinoLCD\test\Pain Drain\libraries\lvgl\src\widgets/lv_canvas.c ****         a.x1 = 0;
 372:..\..\..\arduinoLCD\test\Pain Drain\libraries\lvgl\src\widgets/lv_canvas.c ****         a.y1 = 0;
 373:..\..\..\arduinoLCD\test\Pain Drain\libraries\lvgl\src\widgets/lv_canvas.c ****         a.x2 = canvas->dsc.header.w - 1;
ARM GAS  C:\Users\haske\AppData\Local\Temp\ccxUXv8a.s 			page 8


 374:..\..\..\arduinoLCD\test\Pain Drain\libraries\lvgl\src\widgets/lv_canvas.c ****         a.y2 = canvas->dsc.header.h - 1;
 375:..\..\..\arduinoLCD\test\Pain Drain\libraries\lvgl\src\widgets/lv_canvas.c ****     }
 376:..\..\..\arduinoLCD\test\Pain Drain\libraries\lvgl\src\widgets/lv_canvas.c **** 
 377:..\..\..\arduinoLCD\test\Pain Drain\libraries\lvgl\src\widgets/lv_canvas.c ****     lv_color_t color = lv_obj_get_style_img_recolor(obj, LV_PART_MAIN);
 378:..\..\..\arduinoLCD\test\Pain Drain\libraries\lvgl\src\widgets/lv_canvas.c **** 
 379:..\..\..\arduinoLCD\test\Pain Drain\libraries\lvgl\src\widgets/lv_canvas.c ****     uint16_t r_back = r / 2;
 380:..\..\..\arduinoLCD\test\Pain Drain\libraries\lvgl\src\widgets/lv_canvas.c ****     uint16_t r_front = r / 2;
 381:..\..\..\arduinoLCD\test\Pain Drain\libraries\lvgl\src\widgets/lv_canvas.c **** 
 382:..\..\..\arduinoLCD\test\Pain Drain\libraries\lvgl\src\widgets/lv_canvas.c ****     if((r & 0x1) == 0) r_back--;
 383:..\..\..\arduinoLCD\test\Pain Drain\libraries\lvgl\src\widgets/lv_canvas.c **** 
 384:..\..\..\arduinoLCD\test\Pain Drain\libraries\lvgl\src\widgets/lv_canvas.c ****     bool has_alpha = lv_img_cf_has_alpha(canvas->dsc.header.cf);
 385:..\..\..\arduinoLCD\test\Pain Drain\libraries\lvgl\src\widgets/lv_canvas.c ****     lv_coord_t col_w = lv_img_buf_get_img_size(1, canvas->dsc.header.h, canvas->dsc.header.cf);
 386:..\..\..\arduinoLCD\test\Pain Drain\libraries\lvgl\src\widgets/lv_canvas.c ****     uint8_t * col_buf = lv_mem_buf_get(col_w);
 387:..\..\..\arduinoLCD\test\Pain Drain\libraries\lvgl\src\widgets/lv_canvas.c ****     lv_img_dsc_t line_img;
 388:..\..\..\arduinoLCD\test\Pain Drain\libraries\lvgl\src\widgets/lv_canvas.c **** 
 389:..\..\..\arduinoLCD\test\Pain Drain\libraries\lvgl\src\widgets/lv_canvas.c ****     line_img.data = col_buf;
 390:..\..\..\arduinoLCD\test\Pain Drain\libraries\lvgl\src\widgets/lv_canvas.c ****     line_img.header.always_zero = 0;
 391:..\..\..\arduinoLCD\test\Pain Drain\libraries\lvgl\src\widgets/lv_canvas.c ****     line_img.header.w = 1;
 392:..\..\..\arduinoLCD\test\Pain Drain\libraries\lvgl\src\widgets/lv_canvas.c ****     line_img.header.h = canvas->dsc.header.h;
 393:..\..\..\arduinoLCD\test\Pain Drain\libraries\lvgl\src\widgets/lv_canvas.c ****     line_img.header.cf = canvas->dsc.header.cf;
 394:..\..\..\arduinoLCD\test\Pain Drain\libraries\lvgl\src\widgets/lv_canvas.c **** 
 395:..\..\..\arduinoLCD\test\Pain Drain\libraries\lvgl\src\widgets/lv_canvas.c ****     lv_coord_t x;
 396:..\..\..\arduinoLCD\test\Pain Drain\libraries\lvgl\src\widgets/lv_canvas.c ****     lv_coord_t y;
 397:..\..\..\arduinoLCD\test\Pain Drain\libraries\lvgl\src\widgets/lv_canvas.c ****     lv_coord_t y_safe;
 398:..\..\..\arduinoLCD\test\Pain Drain\libraries\lvgl\src\widgets/lv_canvas.c **** 
 399:..\..\..\arduinoLCD\test\Pain Drain\libraries\lvgl\src\widgets/lv_canvas.c ****     for(x = a.x1; x <= a.x2; x++) {
 400:..\..\..\arduinoLCD\test\Pain Drain\libraries\lvgl\src\widgets/lv_canvas.c ****         uint32_t asum = 0;
 401:..\..\..\arduinoLCD\test\Pain Drain\libraries\lvgl\src\widgets/lv_canvas.c ****         uint32_t rsum = 0;
 402:..\..\..\arduinoLCD\test\Pain Drain\libraries\lvgl\src\widgets/lv_canvas.c ****         uint32_t gsum = 0;
 403:..\..\..\arduinoLCD\test\Pain Drain\libraries\lvgl\src\widgets/lv_canvas.c ****         uint32_t bsum = 0;
 404:..\..\..\arduinoLCD\test\Pain Drain\libraries\lvgl\src\widgets/lv_canvas.c **** 
 405:..\..\..\arduinoLCD\test\Pain Drain\libraries\lvgl\src\widgets/lv_canvas.c ****         lv_color_t c;
 406:..\..\..\arduinoLCD\test\Pain Drain\libraries\lvgl\src\widgets/lv_canvas.c ****         lv_opa_t opa = LV_OPA_COVER;
 407:..\..\..\arduinoLCD\test\Pain Drain\libraries\lvgl\src\widgets/lv_canvas.c **** 
 408:..\..\..\arduinoLCD\test\Pain Drain\libraries\lvgl\src\widgets/lv_canvas.c ****         for(y = a.y1 - r_back; y <= a.y1 + r_front; y++) {
 409:..\..\..\arduinoLCD\test\Pain Drain\libraries\lvgl\src\widgets/lv_canvas.c ****             y_safe = y < 0 ? 0 : y;
 410:..\..\..\arduinoLCD\test\Pain Drain\libraries\lvgl\src\widgets/lv_canvas.c ****             y_safe = y_safe > canvas->dsc.header.h - 1 ? canvas->dsc.header.h - 1 : y_safe;
 411:..\..\..\arduinoLCD\test\Pain Drain\libraries\lvgl\src\widgets/lv_canvas.c **** 
 412:..\..\..\arduinoLCD\test\Pain Drain\libraries\lvgl\src\widgets/lv_canvas.c ****             c = lv_img_buf_get_px_color(&canvas->dsc, x, y_safe, color);
 413:..\..\..\arduinoLCD\test\Pain Drain\libraries\lvgl\src\widgets/lv_canvas.c ****             if(has_alpha) opa = lv_img_buf_get_px_alpha(&canvas->dsc, x, y_safe);
 414:..\..\..\arduinoLCD\test\Pain Drain\libraries\lvgl\src\widgets/lv_canvas.c **** 
 415:..\..\..\arduinoLCD\test\Pain Drain\libraries\lvgl\src\widgets/lv_canvas.c ****             lv_img_buf_set_px_color(&line_img, 0, y_safe, c);
 416:..\..\..\arduinoLCD\test\Pain Drain\libraries\lvgl\src\widgets/lv_canvas.c ****             if(has_alpha) lv_img_buf_set_px_alpha(&line_img, 0, y_safe, opa);
 417:..\..\..\arduinoLCD\test\Pain Drain\libraries\lvgl\src\widgets/lv_canvas.c **** 
 418:..\..\..\arduinoLCD\test\Pain Drain\libraries\lvgl\src\widgets/lv_canvas.c ****             rsum += c.ch.red;
 419:..\..\..\arduinoLCD\test\Pain Drain\libraries\lvgl\src\widgets/lv_canvas.c **** #if LV_COLOR_DEPTH == 16 && LV_COLOR_16_SWAP
 420:..\..\..\arduinoLCD\test\Pain Drain\libraries\lvgl\src\widgets/lv_canvas.c ****             gsum += (c.ch.green_h << 3) + c.ch.green_l;
 421:..\..\..\arduinoLCD\test\Pain Drain\libraries\lvgl\src\widgets/lv_canvas.c **** #else
 422:..\..\..\arduinoLCD\test\Pain Drain\libraries\lvgl\src\widgets/lv_canvas.c ****             gsum += c.ch.green;
 423:..\..\..\arduinoLCD\test\Pain Drain\libraries\lvgl\src\widgets/lv_canvas.c **** #endif
 424:..\..\..\arduinoLCD\test\Pain Drain\libraries\lvgl\src\widgets/lv_canvas.c ****             bsum += c.ch.blue;
 425:..\..\..\arduinoLCD\test\Pain Drain\libraries\lvgl\src\widgets/lv_canvas.c ****             if(has_alpha) asum += opa;
 426:..\..\..\arduinoLCD\test\Pain Drain\libraries\lvgl\src\widgets/lv_canvas.c ****         }
 427:..\..\..\arduinoLCD\test\Pain Drain\libraries\lvgl\src\widgets/lv_canvas.c **** 
 428:..\..\..\arduinoLCD\test\Pain Drain\libraries\lvgl\src\widgets/lv_canvas.c ****         /*Just to indicate that the px is visible*/
 429:..\..\..\arduinoLCD\test\Pain Drain\libraries\lvgl\src\widgets/lv_canvas.c ****         if(has_alpha == false) asum = LV_OPA_COVER;
 430:..\..\..\arduinoLCD\test\Pain Drain\libraries\lvgl\src\widgets/lv_canvas.c **** 
ARM GAS  C:\Users\haske\AppData\Local\Temp\ccxUXv8a.s 			page 9


 431:..\..\..\arduinoLCD\test\Pain Drain\libraries\lvgl\src\widgets/lv_canvas.c ****         for(y = a.y1; y <= a.y2; y++) {
 432:..\..\..\arduinoLCD\test\Pain Drain\libraries\lvgl\src\widgets/lv_canvas.c ****             if(asum) {
 433:..\..\..\arduinoLCD\test\Pain Drain\libraries\lvgl\src\widgets/lv_canvas.c ****                 c.ch.red = rsum / r;
 434:..\..\..\arduinoLCD\test\Pain Drain\libraries\lvgl\src\widgets/lv_canvas.c **** #if LV_COLOR_DEPTH == 16 && LV_COLOR_16_SWAP
 435:..\..\..\arduinoLCD\test\Pain Drain\libraries\lvgl\src\widgets/lv_canvas.c ****                 uint8_t gtmp = gsum / r;
 436:..\..\..\arduinoLCD\test\Pain Drain\libraries\lvgl\src\widgets/lv_canvas.c ****                 c.ch.green_h = gtmp >> 3;
 437:..\..\..\arduinoLCD\test\Pain Drain\libraries\lvgl\src\widgets/lv_canvas.c ****                 c.ch.green_l = gtmp & 0x7;
 438:..\..\..\arduinoLCD\test\Pain Drain\libraries\lvgl\src\widgets/lv_canvas.c **** #else
 439:..\..\..\arduinoLCD\test\Pain Drain\libraries\lvgl\src\widgets/lv_canvas.c ****                 c.ch.green = gsum / r;
 440:..\..\..\arduinoLCD\test\Pain Drain\libraries\lvgl\src\widgets/lv_canvas.c **** #endif
 441:..\..\..\arduinoLCD\test\Pain Drain\libraries\lvgl\src\widgets/lv_canvas.c ****                 c.ch.blue = bsum / r;
 442:..\..\..\arduinoLCD\test\Pain Drain\libraries\lvgl\src\widgets/lv_canvas.c ****                 if(has_alpha) opa = asum / r;
 443:..\..\..\arduinoLCD\test\Pain Drain\libraries\lvgl\src\widgets/lv_canvas.c **** 
 444:..\..\..\arduinoLCD\test\Pain Drain\libraries\lvgl\src\widgets/lv_canvas.c ****                 lv_img_buf_set_px_color(&canvas->dsc, x, y, c);
 445:..\..\..\arduinoLCD\test\Pain Drain\libraries\lvgl\src\widgets/lv_canvas.c ****             }
 446:..\..\..\arduinoLCD\test\Pain Drain\libraries\lvgl\src\widgets/lv_canvas.c ****             if(has_alpha) lv_img_buf_set_px_alpha(&canvas->dsc, x, y, opa);
 447:..\..\..\arduinoLCD\test\Pain Drain\libraries\lvgl\src\widgets/lv_canvas.c **** 
 448:..\..\..\arduinoLCD\test\Pain Drain\libraries\lvgl\src\widgets/lv_canvas.c ****             y_safe = y - r_back;
 449:..\..\..\arduinoLCD\test\Pain Drain\libraries\lvgl\src\widgets/lv_canvas.c ****             y_safe = y_safe < 0 ? 0 : y_safe;
 450:..\..\..\arduinoLCD\test\Pain Drain\libraries\lvgl\src\widgets/lv_canvas.c ****             c = lv_img_buf_get_px_color(&line_img, 0, y_safe, color);
 451:..\..\..\arduinoLCD\test\Pain Drain\libraries\lvgl\src\widgets/lv_canvas.c ****             if(has_alpha) opa = lv_img_buf_get_px_alpha(&line_img, 0, y_safe);
 452:..\..\..\arduinoLCD\test\Pain Drain\libraries\lvgl\src\widgets/lv_canvas.c **** 
 453:..\..\..\arduinoLCD\test\Pain Drain\libraries\lvgl\src\widgets/lv_canvas.c ****             rsum -= c.ch.red;
 454:..\..\..\arduinoLCD\test\Pain Drain\libraries\lvgl\src\widgets/lv_canvas.c **** #if LV_COLOR_DEPTH == 16 && LV_COLOR_16_SWAP
 455:..\..\..\arduinoLCD\test\Pain Drain\libraries\lvgl\src\widgets/lv_canvas.c ****             gsum -= (c.ch.green_h << 3) + c.ch.green_l;
 456:..\..\..\arduinoLCD\test\Pain Drain\libraries\lvgl\src\widgets/lv_canvas.c **** #else
 457:..\..\..\arduinoLCD\test\Pain Drain\libraries\lvgl\src\widgets/lv_canvas.c ****             gsum -= c.ch.green;
 458:..\..\..\arduinoLCD\test\Pain Drain\libraries\lvgl\src\widgets/lv_canvas.c **** #endif
 459:..\..\..\arduinoLCD\test\Pain Drain\libraries\lvgl\src\widgets/lv_canvas.c ****             bsum -= c.ch.blue;
 460:..\..\..\arduinoLCD\test\Pain Drain\libraries\lvgl\src\widgets/lv_canvas.c ****             if(has_alpha) asum -= opa;
 461:..\..\..\arduinoLCD\test\Pain Drain\libraries\lvgl\src\widgets/lv_canvas.c **** 
 462:..\..\..\arduinoLCD\test\Pain Drain\libraries\lvgl\src\widgets/lv_canvas.c ****             y_safe = y + 1 + r_front;
 463:..\..\..\arduinoLCD\test\Pain Drain\libraries\lvgl\src\widgets/lv_canvas.c ****             y_safe = y_safe > canvas->dsc.header.h - 1 ? canvas->dsc.header.h - 1 : y_safe;
 464:..\..\..\arduinoLCD\test\Pain Drain\libraries\lvgl\src\widgets/lv_canvas.c **** 
 465:..\..\..\arduinoLCD\test\Pain Drain\libraries\lvgl\src\widgets/lv_canvas.c ****             c = lv_img_buf_get_px_color(&canvas->dsc, x, y_safe, color);
 466:..\..\..\arduinoLCD\test\Pain Drain\libraries\lvgl\src\widgets/lv_canvas.c ****             if(has_alpha) opa = lv_img_buf_get_px_alpha(&canvas->dsc, x, y_safe);
 467:..\..\..\arduinoLCD\test\Pain Drain\libraries\lvgl\src\widgets/lv_canvas.c **** 
 468:..\..\..\arduinoLCD\test\Pain Drain\libraries\lvgl\src\widgets/lv_canvas.c ****             lv_img_buf_set_px_color(&line_img, 0, y_safe, c);
 469:..\..\..\arduinoLCD\test\Pain Drain\libraries\lvgl\src\widgets/lv_canvas.c ****             if(has_alpha) lv_img_buf_set_px_alpha(&line_img, 0, y_safe, opa);
 470:..\..\..\arduinoLCD\test\Pain Drain\libraries\lvgl\src\widgets/lv_canvas.c **** 
 471:..\..\..\arduinoLCD\test\Pain Drain\libraries\lvgl\src\widgets/lv_canvas.c ****             rsum += c.ch.red;
 472:..\..\..\arduinoLCD\test\Pain Drain\libraries\lvgl\src\widgets/lv_canvas.c **** #if LV_COLOR_DEPTH == 16 && LV_COLOR_16_SWAP
 473:..\..\..\arduinoLCD\test\Pain Drain\libraries\lvgl\src\widgets/lv_canvas.c ****             gsum += (c.ch.green_h << 3) + c.ch.green_l;
 474:..\..\..\arduinoLCD\test\Pain Drain\libraries\lvgl\src\widgets/lv_canvas.c **** #else
 475:..\..\..\arduinoLCD\test\Pain Drain\libraries\lvgl\src\widgets/lv_canvas.c ****             gsum += c.ch.green;
 476:..\..\..\arduinoLCD\test\Pain Drain\libraries\lvgl\src\widgets/lv_canvas.c **** #endif
 477:..\..\..\arduinoLCD\test\Pain Drain\libraries\lvgl\src\widgets/lv_canvas.c ****             bsum += c.ch.blue;
 478:..\..\..\arduinoLCD\test\Pain Drain\libraries\lvgl\src\widgets/lv_canvas.c ****             if(has_alpha) asum += opa;
 479:..\..\..\arduinoLCD\test\Pain Drain\libraries\lvgl\src\widgets/lv_canvas.c ****         }
 480:..\..\..\arduinoLCD\test\Pain Drain\libraries\lvgl\src\widgets/lv_canvas.c ****     }
 481:..\..\..\arduinoLCD\test\Pain Drain\libraries\lvgl\src\widgets/lv_canvas.c **** 
 482:..\..\..\arduinoLCD\test\Pain Drain\libraries\lvgl\src\widgets/lv_canvas.c ****     lv_obj_invalidate(obj);
 483:..\..\..\arduinoLCD\test\Pain Drain\libraries\lvgl\src\widgets/lv_canvas.c **** 
 484:..\..\..\arduinoLCD\test\Pain Drain\libraries\lvgl\src\widgets/lv_canvas.c ****     lv_mem_buf_release(col_buf);
 485:..\..\..\arduinoLCD\test\Pain Drain\libraries\lvgl\src\widgets/lv_canvas.c **** }
 486:..\..\..\arduinoLCD\test\Pain Drain\libraries\lvgl\src\widgets/lv_canvas.c **** 
 487:..\..\..\arduinoLCD\test\Pain Drain\libraries\lvgl\src\widgets/lv_canvas.c **** void lv_canvas_fill_bg(lv_obj_t * canvas, lv_color_t color, lv_opa_t opa)
ARM GAS  C:\Users\haske\AppData\Local\Temp\ccxUXv8a.s 			page 10


 488:..\..\..\arduinoLCD\test\Pain Drain\libraries\lvgl\src\widgets/lv_canvas.c **** {
 489:..\..\..\arduinoLCD\test\Pain Drain\libraries\lvgl\src\widgets/lv_canvas.c ****     LV_ASSERT_OBJ(canvas, MY_CLASS);
 490:..\..\..\arduinoLCD\test\Pain Drain\libraries\lvgl\src\widgets/lv_canvas.c **** 
 491:..\..\..\arduinoLCD\test\Pain Drain\libraries\lvgl\src\widgets/lv_canvas.c ****     lv_img_dsc_t * dsc = lv_canvas_get_img(canvas);
 492:..\..\..\arduinoLCD\test\Pain Drain\libraries\lvgl\src\widgets/lv_canvas.c **** 
 493:..\..\..\arduinoLCD\test\Pain Drain\libraries\lvgl\src\widgets/lv_canvas.c ****     if(dsc->header.cf == LV_IMG_CF_INDEXED_1BIT) {
 494:..\..\..\arduinoLCD\test\Pain Drain\libraries\lvgl\src\widgets/lv_canvas.c ****         uint32_t row_byte_cnt = (dsc->header.w + 7) >> 3;
 495:..\..\..\arduinoLCD\test\Pain Drain\libraries\lvgl\src\widgets/lv_canvas.c ****         /*+8 skip the palette*/
 496:..\..\..\arduinoLCD\test\Pain Drain\libraries\lvgl\src\widgets/lv_canvas.c ****         lv_memset((uint8_t *)dsc->data + 8, color.full ? 0xff : 0x00, row_byte_cnt * dsc->header.h)
 497:..\..\..\arduinoLCD\test\Pain Drain\libraries\lvgl\src\widgets/lv_canvas.c ****     }
 498:..\..\..\arduinoLCD\test\Pain Drain\libraries\lvgl\src\widgets/lv_canvas.c ****     else if(dsc->header.cf == LV_IMG_CF_ALPHA_1BIT) {
 499:..\..\..\arduinoLCD\test\Pain Drain\libraries\lvgl\src\widgets/lv_canvas.c ****         uint32_t row_byte_cnt = (dsc->header.w + 7) >> 3;
 500:..\..\..\arduinoLCD\test\Pain Drain\libraries\lvgl\src\widgets/lv_canvas.c ****         lv_memset((uint8_t *)dsc->data, opa > LV_OPA_50 ? 0xff : 0x00, row_byte_cnt * dsc->header.h
 501:..\..\..\arduinoLCD\test\Pain Drain\libraries\lvgl\src\widgets/lv_canvas.c ****     }
 502:..\..\..\arduinoLCD\test\Pain Drain\libraries\lvgl\src\widgets/lv_canvas.c ****     else {
 503:..\..\..\arduinoLCD\test\Pain Drain\libraries\lvgl\src\widgets/lv_canvas.c ****         uint32_t x;
 504:..\..\..\arduinoLCD\test\Pain Drain\libraries\lvgl\src\widgets/lv_canvas.c ****         uint32_t y;
 505:..\..\..\arduinoLCD\test\Pain Drain\libraries\lvgl\src\widgets/lv_canvas.c ****         for(y = 0; y < dsc->header.h; y++) {
 506:..\..\..\arduinoLCD\test\Pain Drain\libraries\lvgl\src\widgets/lv_canvas.c ****             for(x = 0; x < dsc->header.w; x++) {
 507:..\..\..\arduinoLCD\test\Pain Drain\libraries\lvgl\src\widgets/lv_canvas.c ****                 lv_img_buf_set_px_color(dsc, x, y, color);
 508:..\..\..\arduinoLCD\test\Pain Drain\libraries\lvgl\src\widgets/lv_canvas.c ****                 lv_img_buf_set_px_alpha(dsc, x, y, opa);
 509:..\..\..\arduinoLCD\test\Pain Drain\libraries\lvgl\src\widgets/lv_canvas.c ****             }
 510:..\..\..\arduinoLCD\test\Pain Drain\libraries\lvgl\src\widgets/lv_canvas.c ****         }
 511:..\..\..\arduinoLCD\test\Pain Drain\libraries\lvgl\src\widgets/lv_canvas.c ****     }
 512:..\..\..\arduinoLCD\test\Pain Drain\libraries\lvgl\src\widgets/lv_canvas.c **** 
 513:..\..\..\arduinoLCD\test\Pain Drain\libraries\lvgl\src\widgets/lv_canvas.c ****     lv_obj_invalidate(canvas);
 514:..\..\..\arduinoLCD\test\Pain Drain\libraries\lvgl\src\widgets/lv_canvas.c **** }
 515:..\..\..\arduinoLCD\test\Pain Drain\libraries\lvgl\src\widgets/lv_canvas.c **** 
 516:..\..\..\arduinoLCD\test\Pain Drain\libraries\lvgl\src\widgets/lv_canvas.c **** void lv_canvas_draw_rect(lv_obj_t * canvas, lv_coord_t x, lv_coord_t y, lv_coord_t w, lv_coord_t h,
 517:..\..\..\arduinoLCD\test\Pain Drain\libraries\lvgl\src\widgets/lv_canvas.c ****                          const lv_draw_rect_dsc_t * draw_dsc)
 518:..\..\..\arduinoLCD\test\Pain Drain\libraries\lvgl\src\widgets/lv_canvas.c **** {
 519:..\..\..\arduinoLCD\test\Pain Drain\libraries\lvgl\src\widgets/lv_canvas.c ****     LV_ASSERT_OBJ(canvas, MY_CLASS);
 520:..\..\..\arduinoLCD\test\Pain Drain\libraries\lvgl\src\widgets/lv_canvas.c **** 
 521:..\..\..\arduinoLCD\test\Pain Drain\libraries\lvgl\src\widgets/lv_canvas.c ****     lv_img_dsc_t * dsc = lv_canvas_get_img(canvas);
 522:..\..\..\arduinoLCD\test\Pain Drain\libraries\lvgl\src\widgets/lv_canvas.c **** 
 523:..\..\..\arduinoLCD\test\Pain Drain\libraries\lvgl\src\widgets/lv_canvas.c ****     if(dsc->header.cf >= LV_IMG_CF_INDEXED_1BIT && dsc->header.cf <= LV_IMG_CF_INDEXED_8BIT) {
 524:..\..\..\arduinoLCD\test\Pain Drain\libraries\lvgl\src\widgets/lv_canvas.c ****         LV_LOG_WARN("lv_canvas_draw_rect: can't draw to LV_IMG_CF_INDEXED canvas");
 525:..\..\..\arduinoLCD\test\Pain Drain\libraries\lvgl\src\widgets/lv_canvas.c ****         return;
 526:..\..\..\arduinoLCD\test\Pain Drain\libraries\lvgl\src\widgets/lv_canvas.c ****     }
 527:..\..\..\arduinoLCD\test\Pain Drain\libraries\lvgl\src\widgets/lv_canvas.c **** 
 528:..\..\..\arduinoLCD\test\Pain Drain\libraries\lvgl\src\widgets/lv_canvas.c ****     /*Create a dummy display to fool the lv_draw function.
 529:..\..\..\arduinoLCD\test\Pain Drain\libraries\lvgl\src\widgets/lv_canvas.c ****      *It will think it draws to real screen.*/
 530:..\..\..\arduinoLCD\test\Pain Drain\libraries\lvgl\src\widgets/lv_canvas.c ****     lv_disp_t fake_disp;
 531:..\..\..\arduinoLCD\test\Pain Drain\libraries\lvgl\src\widgets/lv_canvas.c ****     lv_disp_drv_t driver;
 532:..\..\..\arduinoLCD\test\Pain Drain\libraries\lvgl\src\widgets/lv_canvas.c ****     lv_area_t clip_area;
 533:..\..\..\arduinoLCD\test\Pain Drain\libraries\lvgl\src\widgets/lv_canvas.c ****     init_fake_disp(canvas, &fake_disp, &driver, &clip_area);
 534:..\..\..\arduinoLCD\test\Pain Drain\libraries\lvgl\src\widgets/lv_canvas.c **** 
 535:..\..\..\arduinoLCD\test\Pain Drain\libraries\lvgl\src\widgets/lv_canvas.c ****     lv_disp_t * refr_ori = _lv_refr_get_disp_refreshing();
 536:..\..\..\arduinoLCD\test\Pain Drain\libraries\lvgl\src\widgets/lv_canvas.c ****     _lv_refr_set_disp_refreshing(&fake_disp);
 537:..\..\..\arduinoLCD\test\Pain Drain\libraries\lvgl\src\widgets/lv_canvas.c **** 
 538:..\..\..\arduinoLCD\test\Pain Drain\libraries\lvgl\src\widgets/lv_canvas.c ****     /*Disable anti-aliasing if drawing with transparent color to chroma keyed canvas*/
 539:..\..\..\arduinoLCD\test\Pain Drain\libraries\lvgl\src\widgets/lv_canvas.c ****     lv_color_t ctransp = LV_COLOR_CHROMA_KEY;
 540:..\..\..\arduinoLCD\test\Pain Drain\libraries\lvgl\src\widgets/lv_canvas.c ****     if(dsc->header.cf == LV_IMG_CF_TRUE_COLOR_CHROMA_KEYED &&
 541:..\..\..\arduinoLCD\test\Pain Drain\libraries\lvgl\src\widgets/lv_canvas.c ****        draw_dsc->bg_color.full == ctransp.full) {
 542:..\..\..\arduinoLCD\test\Pain Drain\libraries\lvgl\src\widgets/lv_canvas.c ****         fake_disp.driver->antialiasing = 0;
 543:..\..\..\arduinoLCD\test\Pain Drain\libraries\lvgl\src\widgets/lv_canvas.c ****     }
 544:..\..\..\arduinoLCD\test\Pain Drain\libraries\lvgl\src\widgets/lv_canvas.c **** 
ARM GAS  C:\Users\haske\AppData\Local\Temp\ccxUXv8a.s 			page 11


 545:..\..\..\arduinoLCD\test\Pain Drain\libraries\lvgl\src\widgets/lv_canvas.c ****     lv_area_t coords;
 546:..\..\..\arduinoLCD\test\Pain Drain\libraries\lvgl\src\widgets/lv_canvas.c ****     coords.x1 = x;
 547:..\..\..\arduinoLCD\test\Pain Drain\libraries\lvgl\src\widgets/lv_canvas.c ****     coords.y1 = y;
 548:..\..\..\arduinoLCD\test\Pain Drain\libraries\lvgl\src\widgets/lv_canvas.c ****     coords.x2 = x + w - 1;
 549:..\..\..\arduinoLCD\test\Pain Drain\libraries\lvgl\src\widgets/lv_canvas.c ****     coords.y2 = y + h - 1;
 550:..\..\..\arduinoLCD\test\Pain Drain\libraries\lvgl\src\widgets/lv_canvas.c **** 
 551:..\..\..\arduinoLCD\test\Pain Drain\libraries\lvgl\src\widgets/lv_canvas.c ****     lv_draw_rect(driver.draw_ctx, draw_dsc, &coords);
 552:..\..\..\arduinoLCD\test\Pain Drain\libraries\lvgl\src\widgets/lv_canvas.c **** 
 553:..\..\..\arduinoLCD\test\Pain Drain\libraries\lvgl\src\widgets/lv_canvas.c ****     _lv_refr_set_disp_refreshing(refr_ori);
 554:..\..\..\arduinoLCD\test\Pain Drain\libraries\lvgl\src\widgets/lv_canvas.c **** 
 555:..\..\..\arduinoLCD\test\Pain Drain\libraries\lvgl\src\widgets/lv_canvas.c ****     deinit_fake_disp(canvas, &fake_disp);
 556:..\..\..\arduinoLCD\test\Pain Drain\libraries\lvgl\src\widgets/lv_canvas.c **** 
 557:..\..\..\arduinoLCD\test\Pain Drain\libraries\lvgl\src\widgets/lv_canvas.c ****     lv_obj_invalidate(canvas);
 558:..\..\..\arduinoLCD\test\Pain Drain\libraries\lvgl\src\widgets/lv_canvas.c **** }
 559:..\..\..\arduinoLCD\test\Pain Drain\libraries\lvgl\src\widgets/lv_canvas.c **** 
 560:..\..\..\arduinoLCD\test\Pain Drain\libraries\lvgl\src\widgets/lv_canvas.c **** void lv_canvas_draw_text(lv_obj_t * canvas, lv_coord_t x, lv_coord_t y, lv_coord_t max_w,
 561:..\..\..\arduinoLCD\test\Pain Drain\libraries\lvgl\src\widgets/lv_canvas.c ****                          lv_draw_label_dsc_t * draw_dsc, const char * txt)
 562:..\..\..\arduinoLCD\test\Pain Drain\libraries\lvgl\src\widgets/lv_canvas.c **** {
 563:..\..\..\arduinoLCD\test\Pain Drain\libraries\lvgl\src\widgets/lv_canvas.c ****     LV_ASSERT_OBJ(canvas, MY_CLASS);
 564:..\..\..\arduinoLCD\test\Pain Drain\libraries\lvgl\src\widgets/lv_canvas.c **** 
 565:..\..\..\arduinoLCD\test\Pain Drain\libraries\lvgl\src\widgets/lv_canvas.c ****     lv_img_dsc_t * dsc = lv_canvas_get_img(canvas);
 566:..\..\..\arduinoLCD\test\Pain Drain\libraries\lvgl\src\widgets/lv_canvas.c **** 
 567:..\..\..\arduinoLCD\test\Pain Drain\libraries\lvgl\src\widgets/lv_canvas.c ****     if(dsc->header.cf >= LV_IMG_CF_INDEXED_1BIT && dsc->header.cf <= LV_IMG_CF_INDEXED_8BIT) {
 568:..\..\..\arduinoLCD\test\Pain Drain\libraries\lvgl\src\widgets/lv_canvas.c ****         LV_LOG_WARN("lv_canvas_draw_text: can't draw to LV_IMG_CF_INDEXED canvas");
 569:..\..\..\arduinoLCD\test\Pain Drain\libraries\lvgl\src\widgets/lv_canvas.c ****         return;
 570:..\..\..\arduinoLCD\test\Pain Drain\libraries\lvgl\src\widgets/lv_canvas.c ****     }
 571:..\..\..\arduinoLCD\test\Pain Drain\libraries\lvgl\src\widgets/lv_canvas.c **** 
 572:..\..\..\arduinoLCD\test\Pain Drain\libraries\lvgl\src\widgets/lv_canvas.c ****     /*Create a dummy display to fool the lv_draw function.
 573:..\..\..\arduinoLCD\test\Pain Drain\libraries\lvgl\src\widgets/lv_canvas.c ****      *It will think it draws to real screen.*/
 574:..\..\..\arduinoLCD\test\Pain Drain\libraries\lvgl\src\widgets/lv_canvas.c ****     lv_disp_t fake_disp;
 575:..\..\..\arduinoLCD\test\Pain Drain\libraries\lvgl\src\widgets/lv_canvas.c ****     lv_disp_drv_t driver;
 576:..\..\..\arduinoLCD\test\Pain Drain\libraries\lvgl\src\widgets/lv_canvas.c ****     lv_area_t clip_area;
 577:..\..\..\arduinoLCD\test\Pain Drain\libraries\lvgl\src\widgets/lv_canvas.c ****     init_fake_disp(canvas, &fake_disp, &driver, &clip_area);
 578:..\..\..\arduinoLCD\test\Pain Drain\libraries\lvgl\src\widgets/lv_canvas.c **** 
 579:..\..\..\arduinoLCD\test\Pain Drain\libraries\lvgl\src\widgets/lv_canvas.c ****     lv_disp_t * refr_ori = _lv_refr_get_disp_refreshing();
 580:..\..\..\arduinoLCD\test\Pain Drain\libraries\lvgl\src\widgets/lv_canvas.c ****     _lv_refr_set_disp_refreshing(&fake_disp);
 581:..\..\..\arduinoLCD\test\Pain Drain\libraries\lvgl\src\widgets/lv_canvas.c **** 
 582:..\..\..\arduinoLCD\test\Pain Drain\libraries\lvgl\src\widgets/lv_canvas.c ****     lv_area_t coords;
 583:..\..\..\arduinoLCD\test\Pain Drain\libraries\lvgl\src\widgets/lv_canvas.c ****     coords.x1 = x;
 584:..\..\..\arduinoLCD\test\Pain Drain\libraries\lvgl\src\widgets/lv_canvas.c ****     coords.y1 = y;
 585:..\..\..\arduinoLCD\test\Pain Drain\libraries\lvgl\src\widgets/lv_canvas.c ****     coords.x2 = x + max_w - 1;
 586:..\..\..\arduinoLCD\test\Pain Drain\libraries\lvgl\src\widgets/lv_canvas.c ****     coords.y2 = dsc->header.h - 1;
 587:..\..\..\arduinoLCD\test\Pain Drain\libraries\lvgl\src\widgets/lv_canvas.c ****     lv_draw_label(driver.draw_ctx, draw_dsc, &coords, txt, NULL);
 588:..\..\..\arduinoLCD\test\Pain Drain\libraries\lvgl\src\widgets/lv_canvas.c **** 
 589:..\..\..\arduinoLCD\test\Pain Drain\libraries\lvgl\src\widgets/lv_canvas.c ****     _lv_refr_set_disp_refreshing(refr_ori);
 590:..\..\..\arduinoLCD\test\Pain Drain\libraries\lvgl\src\widgets/lv_canvas.c **** 
 591:..\..\..\arduinoLCD\test\Pain Drain\libraries\lvgl\src\widgets/lv_canvas.c ****     deinit_fake_disp(canvas, &fake_disp);
 592:..\..\..\arduinoLCD\test\Pain Drain\libraries\lvgl\src\widgets/lv_canvas.c **** 
 593:..\..\..\arduinoLCD\test\Pain Drain\libraries\lvgl\src\widgets/lv_canvas.c ****     lv_obj_invalidate(canvas);
 594:..\..\..\arduinoLCD\test\Pain Drain\libraries\lvgl\src\widgets/lv_canvas.c **** }
 595:..\..\..\arduinoLCD\test\Pain Drain\libraries\lvgl\src\widgets/lv_canvas.c **** 
 596:..\..\..\arduinoLCD\test\Pain Drain\libraries\lvgl\src\widgets/lv_canvas.c **** void lv_canvas_draw_img(lv_obj_t * canvas, lv_coord_t x, lv_coord_t y, const void * src,
 597:..\..\..\arduinoLCD\test\Pain Drain\libraries\lvgl\src\widgets/lv_canvas.c ****                         const lv_draw_img_dsc_t * draw_dsc)
 598:..\..\..\arduinoLCD\test\Pain Drain\libraries\lvgl\src\widgets/lv_canvas.c **** {
 599:..\..\..\arduinoLCD\test\Pain Drain\libraries\lvgl\src\widgets/lv_canvas.c ****     LV_ASSERT_OBJ(canvas, MY_CLASS);
 600:..\..\..\arduinoLCD\test\Pain Drain\libraries\lvgl\src\widgets/lv_canvas.c **** 
 601:..\..\..\arduinoLCD\test\Pain Drain\libraries\lvgl\src\widgets/lv_canvas.c ****     lv_img_dsc_t * dsc = lv_canvas_get_img(canvas);
ARM GAS  C:\Users\haske\AppData\Local\Temp\ccxUXv8a.s 			page 12


 602:..\..\..\arduinoLCD\test\Pain Drain\libraries\lvgl\src\widgets/lv_canvas.c **** 
 603:..\..\..\arduinoLCD\test\Pain Drain\libraries\lvgl\src\widgets/lv_canvas.c ****     if(dsc->header.cf >= LV_IMG_CF_INDEXED_1BIT && dsc->header.cf <= LV_IMG_CF_INDEXED_8BIT) {
 604:..\..\..\arduinoLCD\test\Pain Drain\libraries\lvgl\src\widgets/lv_canvas.c ****         LV_LOG_WARN("lv_canvas_draw_img: can't draw to LV_IMG_CF_INDEXED canvas");
 605:..\..\..\arduinoLCD\test\Pain Drain\libraries\lvgl\src\widgets/lv_canvas.c ****         return;
 606:..\..\..\arduinoLCD\test\Pain Drain\libraries\lvgl\src\widgets/lv_canvas.c ****     }
 607:..\..\..\arduinoLCD\test\Pain Drain\libraries\lvgl\src\widgets/lv_canvas.c **** 
 608:..\..\..\arduinoLCD\test\Pain Drain\libraries\lvgl\src\widgets/lv_canvas.c ****     lv_img_header_t header;
 609:..\..\..\arduinoLCD\test\Pain Drain\libraries\lvgl\src\widgets/lv_canvas.c ****     lv_res_t res = lv_img_decoder_get_info(src, &header);
 610:..\..\..\arduinoLCD\test\Pain Drain\libraries\lvgl\src\widgets/lv_canvas.c ****     if(res != LV_RES_OK) {
 611:..\..\..\arduinoLCD\test\Pain Drain\libraries\lvgl\src\widgets/lv_canvas.c ****         LV_LOG_WARN("lv_canvas_draw_img: Couldn't get the image data.");
 612:..\..\..\arduinoLCD\test\Pain Drain\libraries\lvgl\src\widgets/lv_canvas.c ****         return;
 613:..\..\..\arduinoLCD\test\Pain Drain\libraries\lvgl\src\widgets/lv_canvas.c ****     }
 614:..\..\..\arduinoLCD\test\Pain Drain\libraries\lvgl\src\widgets/lv_canvas.c ****     /*Create a dummy display to fool the lv_draw function.
 615:..\..\..\arduinoLCD\test\Pain Drain\libraries\lvgl\src\widgets/lv_canvas.c ****      *It will think it draws to real screen.*/
 616:..\..\..\arduinoLCD\test\Pain Drain\libraries\lvgl\src\widgets/lv_canvas.c ****     lv_disp_t fake_disp;
 617:..\..\..\arduinoLCD\test\Pain Drain\libraries\lvgl\src\widgets/lv_canvas.c ****     lv_disp_drv_t driver;
 618:..\..\..\arduinoLCD\test\Pain Drain\libraries\lvgl\src\widgets/lv_canvas.c ****     lv_area_t clip_area;
 619:..\..\..\arduinoLCD\test\Pain Drain\libraries\lvgl\src\widgets/lv_canvas.c ****     init_fake_disp(canvas, &fake_disp, &driver, &clip_area);
 620:..\..\..\arduinoLCD\test\Pain Drain\libraries\lvgl\src\widgets/lv_canvas.c **** 
 621:..\..\..\arduinoLCD\test\Pain Drain\libraries\lvgl\src\widgets/lv_canvas.c ****     lv_disp_t * refr_ori = _lv_refr_get_disp_refreshing();
 622:..\..\..\arduinoLCD\test\Pain Drain\libraries\lvgl\src\widgets/lv_canvas.c ****     _lv_refr_set_disp_refreshing(&fake_disp);
 623:..\..\..\arduinoLCD\test\Pain Drain\libraries\lvgl\src\widgets/lv_canvas.c **** 
 624:..\..\..\arduinoLCD\test\Pain Drain\libraries\lvgl\src\widgets/lv_canvas.c ****     lv_area_t coords;
 625:..\..\..\arduinoLCD\test\Pain Drain\libraries\lvgl\src\widgets/lv_canvas.c ****     coords.x1 = x;
 626:..\..\..\arduinoLCD\test\Pain Drain\libraries\lvgl\src\widgets/lv_canvas.c ****     coords.y1 = y;
 627:..\..\..\arduinoLCD\test\Pain Drain\libraries\lvgl\src\widgets/lv_canvas.c ****     coords.x2 = x + header.w - 1;
 628:..\..\..\arduinoLCD\test\Pain Drain\libraries\lvgl\src\widgets/lv_canvas.c ****     coords.y2 = y + header.h - 1;
 629:..\..\..\arduinoLCD\test\Pain Drain\libraries\lvgl\src\widgets/lv_canvas.c **** 
 630:..\..\..\arduinoLCD\test\Pain Drain\libraries\lvgl\src\widgets/lv_canvas.c ****     lv_draw_img(driver.draw_ctx, draw_dsc, &coords, src);
 631:..\..\..\arduinoLCD\test\Pain Drain\libraries\lvgl\src\widgets/lv_canvas.c **** 
 632:..\..\..\arduinoLCD\test\Pain Drain\libraries\lvgl\src\widgets/lv_canvas.c ****     _lv_refr_set_disp_refreshing(refr_ori);
 633:..\..\..\arduinoLCD\test\Pain Drain\libraries\lvgl\src\widgets/lv_canvas.c **** 
 634:..\..\..\arduinoLCD\test\Pain Drain\libraries\lvgl\src\widgets/lv_canvas.c ****     deinit_fake_disp(canvas, &fake_disp);
 635:..\..\..\arduinoLCD\test\Pain Drain\libraries\lvgl\src\widgets/lv_canvas.c **** 
 636:..\..\..\arduinoLCD\test\Pain Drain\libraries\lvgl\src\widgets/lv_canvas.c ****     lv_obj_invalidate(canvas);
 637:..\..\..\arduinoLCD\test\Pain Drain\libraries\lvgl\src\widgets/lv_canvas.c **** }
 638:..\..\..\arduinoLCD\test\Pain Drain\libraries\lvgl\src\widgets/lv_canvas.c **** 
 639:..\..\..\arduinoLCD\test\Pain Drain\libraries\lvgl\src\widgets/lv_canvas.c **** void lv_canvas_draw_line(lv_obj_t * canvas, const lv_point_t points[], uint32_t point_cnt,
 640:..\..\..\arduinoLCD\test\Pain Drain\libraries\lvgl\src\widgets/lv_canvas.c ****                          const lv_draw_line_dsc_t * draw_dsc)
 641:..\..\..\arduinoLCD\test\Pain Drain\libraries\lvgl\src\widgets/lv_canvas.c **** {
 642:..\..\..\arduinoLCD\test\Pain Drain\libraries\lvgl\src\widgets/lv_canvas.c ****     LV_ASSERT_OBJ(canvas, MY_CLASS);
 643:..\..\..\arduinoLCD\test\Pain Drain\libraries\lvgl\src\widgets/lv_canvas.c **** 
 644:..\..\..\arduinoLCD\test\Pain Drain\libraries\lvgl\src\widgets/lv_canvas.c ****     lv_img_dsc_t * dsc = lv_canvas_get_img(canvas);
 645:..\..\..\arduinoLCD\test\Pain Drain\libraries\lvgl\src\widgets/lv_canvas.c **** 
 646:..\..\..\arduinoLCD\test\Pain Drain\libraries\lvgl\src\widgets/lv_canvas.c ****     if(dsc->header.cf >= LV_IMG_CF_INDEXED_1BIT && dsc->header.cf <= LV_IMG_CF_INDEXED_8BIT) {
 647:..\..\..\arduinoLCD\test\Pain Drain\libraries\lvgl\src\widgets/lv_canvas.c ****         LV_LOG_WARN("lv_canvas_draw_line: can't draw to LV_IMG_CF_INDEXED canvas");
 648:..\..\..\arduinoLCD\test\Pain Drain\libraries\lvgl\src\widgets/lv_canvas.c ****         return;
 649:..\..\..\arduinoLCD\test\Pain Drain\libraries\lvgl\src\widgets/lv_canvas.c ****     }
 650:..\..\..\arduinoLCD\test\Pain Drain\libraries\lvgl\src\widgets/lv_canvas.c **** 
 651:..\..\..\arduinoLCD\test\Pain Drain\libraries\lvgl\src\widgets/lv_canvas.c ****     /*Create a dummy display to fool the lv_draw function.
 652:..\..\..\arduinoLCD\test\Pain Drain\libraries\lvgl\src\widgets/lv_canvas.c ****      *It will think it draws to real screen.*/
 653:..\..\..\arduinoLCD\test\Pain Drain\libraries\lvgl\src\widgets/lv_canvas.c ****     lv_disp_t fake_disp;
 654:..\..\..\arduinoLCD\test\Pain Drain\libraries\lvgl\src\widgets/lv_canvas.c ****     lv_disp_drv_t driver;
 655:..\..\..\arduinoLCD\test\Pain Drain\libraries\lvgl\src\widgets/lv_canvas.c ****     lv_area_t clip_area;
 656:..\..\..\arduinoLCD\test\Pain Drain\libraries\lvgl\src\widgets/lv_canvas.c ****     init_fake_disp(canvas, &fake_disp, &driver, &clip_area);
 657:..\..\..\arduinoLCD\test\Pain Drain\libraries\lvgl\src\widgets/lv_canvas.c **** 
 658:..\..\..\arduinoLCD\test\Pain Drain\libraries\lvgl\src\widgets/lv_canvas.c ****     lv_disp_t * refr_ori = _lv_refr_get_disp_refreshing();
ARM GAS  C:\Users\haske\AppData\Local\Temp\ccxUXv8a.s 			page 13


 659:..\..\..\arduinoLCD\test\Pain Drain\libraries\lvgl\src\widgets/lv_canvas.c ****     _lv_refr_set_disp_refreshing(&fake_disp);
 660:..\..\..\arduinoLCD\test\Pain Drain\libraries\lvgl\src\widgets/lv_canvas.c **** 
 661:..\..\..\arduinoLCD\test\Pain Drain\libraries\lvgl\src\widgets/lv_canvas.c **** 
 662:..\..\..\arduinoLCD\test\Pain Drain\libraries\lvgl\src\widgets/lv_canvas.c ****     /*Disable anti-aliasing if drawing with transparent color to chroma keyed canvas*/
 663:..\..\..\arduinoLCD\test\Pain Drain\libraries\lvgl\src\widgets/lv_canvas.c ****     lv_color_t ctransp = LV_COLOR_CHROMA_KEY;
 664:..\..\..\arduinoLCD\test\Pain Drain\libraries\lvgl\src\widgets/lv_canvas.c ****     if(dsc->header.cf == LV_IMG_CF_TRUE_COLOR_CHROMA_KEYED &&
 665:..\..\..\arduinoLCD\test\Pain Drain\libraries\lvgl\src\widgets/lv_canvas.c ****        draw_dsc->color.full == ctransp.full) {
 666:..\..\..\arduinoLCD\test\Pain Drain\libraries\lvgl\src\widgets/lv_canvas.c ****         fake_disp.driver->antialiasing = 0;
 667:..\..\..\arduinoLCD\test\Pain Drain\libraries\lvgl\src\widgets/lv_canvas.c ****     }
 668:..\..\..\arduinoLCD\test\Pain Drain\libraries\lvgl\src\widgets/lv_canvas.c **** 
 669:..\..\..\arduinoLCD\test\Pain Drain\libraries\lvgl\src\widgets/lv_canvas.c ****     uint32_t i;
 670:..\..\..\arduinoLCD\test\Pain Drain\libraries\lvgl\src\widgets/lv_canvas.c ****     for(i = 0; i < point_cnt - 1; i++) {
 671:..\..\..\arduinoLCD\test\Pain Drain\libraries\lvgl\src\widgets/lv_canvas.c ****         lv_draw_line(driver.draw_ctx, draw_dsc, &points[i], &points[i + 1]);
 672:..\..\..\arduinoLCD\test\Pain Drain\libraries\lvgl\src\widgets/lv_canvas.c ****     }
 673:..\..\..\arduinoLCD\test\Pain Drain\libraries\lvgl\src\widgets/lv_canvas.c **** 
 674:..\..\..\arduinoLCD\test\Pain Drain\libraries\lvgl\src\widgets/lv_canvas.c ****     _lv_refr_set_disp_refreshing(refr_ori);
 675:..\..\..\arduinoLCD\test\Pain Drain\libraries\lvgl\src\widgets/lv_canvas.c **** 
 676:..\..\..\arduinoLCD\test\Pain Drain\libraries\lvgl\src\widgets/lv_canvas.c ****     deinit_fake_disp(canvas, &fake_disp);
 677:..\..\..\arduinoLCD\test\Pain Drain\libraries\lvgl\src\widgets/lv_canvas.c **** 
 678:..\..\..\arduinoLCD\test\Pain Drain\libraries\lvgl\src\widgets/lv_canvas.c ****     lv_obj_invalidate(canvas);
 679:..\..\..\arduinoLCD\test\Pain Drain\libraries\lvgl\src\widgets/lv_canvas.c **** }
 680:..\..\..\arduinoLCD\test\Pain Drain\libraries\lvgl\src\widgets/lv_canvas.c **** 
 681:..\..\..\arduinoLCD\test\Pain Drain\libraries\lvgl\src\widgets/lv_canvas.c **** void lv_canvas_draw_polygon(lv_obj_t * canvas, const lv_point_t points[], uint32_t point_cnt,
 682:..\..\..\arduinoLCD\test\Pain Drain\libraries\lvgl\src\widgets/lv_canvas.c ****                             const lv_draw_rect_dsc_t * draw_dsc)
 683:..\..\..\arduinoLCD\test\Pain Drain\libraries\lvgl\src\widgets/lv_canvas.c **** {
 684:..\..\..\arduinoLCD\test\Pain Drain\libraries\lvgl\src\widgets/lv_canvas.c ****     LV_ASSERT_OBJ(canvas, MY_CLASS);
 685:..\..\..\arduinoLCD\test\Pain Drain\libraries\lvgl\src\widgets/lv_canvas.c **** 
 686:..\..\..\arduinoLCD\test\Pain Drain\libraries\lvgl\src\widgets/lv_canvas.c ****     lv_img_dsc_t * dsc = lv_canvas_get_img(canvas);
 687:..\..\..\arduinoLCD\test\Pain Drain\libraries\lvgl\src\widgets/lv_canvas.c **** 
 688:..\..\..\arduinoLCD\test\Pain Drain\libraries\lvgl\src\widgets/lv_canvas.c ****     if(dsc->header.cf >= LV_IMG_CF_INDEXED_1BIT && dsc->header.cf <= LV_IMG_CF_INDEXED_8BIT) {
 689:..\..\..\arduinoLCD\test\Pain Drain\libraries\lvgl\src\widgets/lv_canvas.c ****         LV_LOG_WARN("lv_canvas_draw_polygon: can't draw to LV_IMG_CF_INDEXED canvas");
 690:..\..\..\arduinoLCD\test\Pain Drain\libraries\lvgl\src\widgets/lv_canvas.c ****         return;
 691:..\..\..\arduinoLCD\test\Pain Drain\libraries\lvgl\src\widgets/lv_canvas.c ****     }
 692:..\..\..\arduinoLCD\test\Pain Drain\libraries\lvgl\src\widgets/lv_canvas.c **** 
 693:..\..\..\arduinoLCD\test\Pain Drain\libraries\lvgl\src\widgets/lv_canvas.c ****     /*Create a dummy display to fool the lv_draw function.
 694:..\..\..\arduinoLCD\test\Pain Drain\libraries\lvgl\src\widgets/lv_canvas.c ****      *It will think it draws to real screen.*/
 695:..\..\..\arduinoLCD\test\Pain Drain\libraries\lvgl\src\widgets/lv_canvas.c ****     lv_disp_t fake_disp;
 696:..\..\..\arduinoLCD\test\Pain Drain\libraries\lvgl\src\widgets/lv_canvas.c ****     lv_disp_drv_t driver;
 697:..\..\..\arduinoLCD\test\Pain Drain\libraries\lvgl\src\widgets/lv_canvas.c ****     lv_area_t clip_area;
 698:..\..\..\arduinoLCD\test\Pain Drain\libraries\lvgl\src\widgets/lv_canvas.c ****     init_fake_disp(canvas, &fake_disp, &driver, &clip_area);
 699:..\..\..\arduinoLCD\test\Pain Drain\libraries\lvgl\src\widgets/lv_canvas.c **** 
 700:..\..\..\arduinoLCD\test\Pain Drain\libraries\lvgl\src\widgets/lv_canvas.c ****     lv_disp_t * refr_ori = _lv_refr_get_disp_refreshing();
 701:..\..\..\arduinoLCD\test\Pain Drain\libraries\lvgl\src\widgets/lv_canvas.c ****     _lv_refr_set_disp_refreshing(&fake_disp);
 702:..\..\..\arduinoLCD\test\Pain Drain\libraries\lvgl\src\widgets/lv_canvas.c **** 
 703:..\..\..\arduinoLCD\test\Pain Drain\libraries\lvgl\src\widgets/lv_canvas.c ****     /*Disable anti-aliasing if drawing with transparent color to chroma keyed canvas*/
 704:..\..\..\arduinoLCD\test\Pain Drain\libraries\lvgl\src\widgets/lv_canvas.c ****     lv_color_t ctransp = LV_COLOR_CHROMA_KEY;
 705:..\..\..\arduinoLCD\test\Pain Drain\libraries\lvgl\src\widgets/lv_canvas.c ****     if(dsc->header.cf == LV_IMG_CF_TRUE_COLOR_CHROMA_KEYED &&
 706:..\..\..\arduinoLCD\test\Pain Drain\libraries\lvgl\src\widgets/lv_canvas.c ****        draw_dsc->bg_color.full == ctransp.full) {
 707:..\..\..\arduinoLCD\test\Pain Drain\libraries\lvgl\src\widgets/lv_canvas.c ****         fake_disp.driver->antialiasing = 0;
 708:..\..\..\arduinoLCD\test\Pain Drain\libraries\lvgl\src\widgets/lv_canvas.c ****     }
 709:..\..\..\arduinoLCD\test\Pain Drain\libraries\lvgl\src\widgets/lv_canvas.c **** 
 710:..\..\..\arduinoLCD\test\Pain Drain\libraries\lvgl\src\widgets/lv_canvas.c ****     lv_draw_polygon(driver.draw_ctx, draw_dsc, points, point_cnt);
 711:..\..\..\arduinoLCD\test\Pain Drain\libraries\lvgl\src\widgets/lv_canvas.c **** 
 712:..\..\..\arduinoLCD\test\Pain Drain\libraries\lvgl\src\widgets/lv_canvas.c ****     _lv_refr_set_disp_refreshing(refr_ori);
 713:..\..\..\arduinoLCD\test\Pain Drain\libraries\lvgl\src\widgets/lv_canvas.c **** 
 714:..\..\..\arduinoLCD\test\Pain Drain\libraries\lvgl\src\widgets/lv_canvas.c ****     deinit_fake_disp(canvas, &fake_disp);
 715:..\..\..\arduinoLCD\test\Pain Drain\libraries\lvgl\src\widgets/lv_canvas.c **** 
ARM GAS  C:\Users\haske\AppData\Local\Temp\ccxUXv8a.s 			page 14


 716:..\..\..\arduinoLCD\test\Pain Drain\libraries\lvgl\src\widgets/lv_canvas.c ****     lv_obj_invalidate(canvas);
 717:..\..\..\arduinoLCD\test\Pain Drain\libraries\lvgl\src\widgets/lv_canvas.c **** }
 718:..\..\..\arduinoLCD\test\Pain Drain\libraries\lvgl\src\widgets/lv_canvas.c **** 
 719:..\..\..\arduinoLCD\test\Pain Drain\libraries\lvgl\src\widgets/lv_canvas.c **** void lv_canvas_draw_arc(lv_obj_t * canvas, lv_coord_t x, lv_coord_t y, lv_coord_t r, int32_t start_
 720:..\..\..\arduinoLCD\test\Pain Drain\libraries\lvgl\src\widgets/lv_canvas.c ****                         int32_t end_angle, const lv_draw_arc_dsc_t * draw_dsc)
 721:..\..\..\arduinoLCD\test\Pain Drain\libraries\lvgl\src\widgets/lv_canvas.c **** {
 722:..\..\..\arduinoLCD\test\Pain Drain\libraries\lvgl\src\widgets/lv_canvas.c **** #if LV_DRAW_COMPLEX
 723:..\..\..\arduinoLCD\test\Pain Drain\libraries\lvgl\src\widgets/lv_canvas.c ****     LV_ASSERT_OBJ(canvas, MY_CLASS);
 724:..\..\..\arduinoLCD\test\Pain Drain\libraries\lvgl\src\widgets/lv_canvas.c **** 
 725:..\..\..\arduinoLCD\test\Pain Drain\libraries\lvgl\src\widgets/lv_canvas.c ****     lv_img_dsc_t * dsc = lv_canvas_get_img(canvas);
 726:..\..\..\arduinoLCD\test\Pain Drain\libraries\lvgl\src\widgets/lv_canvas.c **** 
 727:..\..\..\arduinoLCD\test\Pain Drain\libraries\lvgl\src\widgets/lv_canvas.c ****     if(dsc->header.cf >= LV_IMG_CF_INDEXED_1BIT && dsc->header.cf <= LV_IMG_CF_INDEXED_8BIT) {
 728:..\..\..\arduinoLCD\test\Pain Drain\libraries\lvgl\src\widgets/lv_canvas.c ****         LV_LOG_WARN("lv_canvas_draw_arc: can't draw to LV_IMG_CF_INDEXED canvas");
 729:..\..\..\arduinoLCD\test\Pain Drain\libraries\lvgl\src\widgets/lv_canvas.c ****         return;
 730:..\..\..\arduinoLCD\test\Pain Drain\libraries\lvgl\src\widgets/lv_canvas.c ****     }
 731:..\..\..\arduinoLCD\test\Pain Drain\libraries\lvgl\src\widgets/lv_canvas.c **** 
 732:..\..\..\arduinoLCD\test\Pain Drain\libraries\lvgl\src\widgets/lv_canvas.c ****     /*Create a dummy display to fool the lv_draw function.
 733:..\..\..\arduinoLCD\test\Pain Drain\libraries\lvgl\src\widgets/lv_canvas.c ****      *It will think it draws to real screen.*/
 734:..\..\..\arduinoLCD\test\Pain Drain\libraries\lvgl\src\widgets/lv_canvas.c ****     lv_disp_t fake_disp;
 735:..\..\..\arduinoLCD\test\Pain Drain\libraries\lvgl\src\widgets/lv_canvas.c ****     lv_disp_drv_t driver;
 736:..\..\..\arduinoLCD\test\Pain Drain\libraries\lvgl\src\widgets/lv_canvas.c ****     lv_area_t clip_area;
 737:..\..\..\arduinoLCD\test\Pain Drain\libraries\lvgl\src\widgets/lv_canvas.c ****     init_fake_disp(canvas, &fake_disp, &driver, &clip_area);
 738:..\..\..\arduinoLCD\test\Pain Drain\libraries\lvgl\src\widgets/lv_canvas.c **** 
 739:..\..\..\arduinoLCD\test\Pain Drain\libraries\lvgl\src\widgets/lv_canvas.c ****     lv_disp_t * refr_ori = _lv_refr_get_disp_refreshing();
 740:..\..\..\arduinoLCD\test\Pain Drain\libraries\lvgl\src\widgets/lv_canvas.c ****     _lv_refr_set_disp_refreshing(&fake_disp);
 741:..\..\..\arduinoLCD\test\Pain Drain\libraries\lvgl\src\widgets/lv_canvas.c **** 
 742:..\..\..\arduinoLCD\test\Pain Drain\libraries\lvgl\src\widgets/lv_canvas.c ****     lv_point_t p = {x, y};
 743:..\..\..\arduinoLCD\test\Pain Drain\libraries\lvgl\src\widgets/lv_canvas.c ****     lv_draw_arc(driver.draw_ctx, draw_dsc, &p, r,  start_angle, end_angle);
 744:..\..\..\arduinoLCD\test\Pain Drain\libraries\lvgl\src\widgets/lv_canvas.c **** 
 745:..\..\..\arduinoLCD\test\Pain Drain\libraries\lvgl\src\widgets/lv_canvas.c ****     _lv_refr_set_disp_refreshing(refr_ori);
 746:..\..\..\arduinoLCD\test\Pain Drain\libraries\lvgl\src\widgets/lv_canvas.c **** 
 747:..\..\..\arduinoLCD\test\Pain Drain\libraries\lvgl\src\widgets/lv_canvas.c ****     deinit_fake_disp(canvas, &fake_disp);
 748:..\..\..\arduinoLCD\test\Pain Drain\libraries\lvgl\src\widgets/lv_canvas.c **** 
 749:..\..\..\arduinoLCD\test\Pain Drain\libraries\lvgl\src\widgets/lv_canvas.c ****     lv_obj_invalidate(canvas);
 750:..\..\..\arduinoLCD\test\Pain Drain\libraries\lvgl\src\widgets/lv_canvas.c **** #else
 751:..\..\..\arduinoLCD\test\Pain Drain\libraries\lvgl\src\widgets/lv_canvas.c ****     LV_UNUSED(canvas);
 752:..\..\..\arduinoLCD\test\Pain Drain\libraries\lvgl\src\widgets/lv_canvas.c ****     LV_UNUSED(x);
 753:..\..\..\arduinoLCD\test\Pain Drain\libraries\lvgl\src\widgets/lv_canvas.c ****     LV_UNUSED(y);
 754:..\..\..\arduinoLCD\test\Pain Drain\libraries\lvgl\src\widgets/lv_canvas.c ****     LV_UNUSED(r);
 755:..\..\..\arduinoLCD\test\Pain Drain\libraries\lvgl\src\widgets/lv_canvas.c ****     LV_UNUSED(start_angle);
 756:..\..\..\arduinoLCD\test\Pain Drain\libraries\lvgl\src\widgets/lv_canvas.c ****     LV_UNUSED(end_angle);
 757:..\..\..\arduinoLCD\test\Pain Drain\libraries\lvgl\src\widgets/lv_canvas.c ****     LV_UNUSED(draw_dsc);
 758:..\..\..\arduinoLCD\test\Pain Drain\libraries\lvgl\src\widgets/lv_canvas.c ****     LV_LOG_WARN("Can't draw arc with LV_DRAW_COMPLEX == 0");
 759:..\..\..\arduinoLCD\test\Pain Drain\libraries\lvgl\src\widgets/lv_canvas.c **** #endif
 760:..\..\..\arduinoLCD\test\Pain Drain\libraries\lvgl\src\widgets/lv_canvas.c **** }
 761:..\..\..\arduinoLCD\test\Pain Drain\libraries\lvgl\src\widgets/lv_canvas.c **** 
 762:..\..\..\arduinoLCD\test\Pain Drain\libraries\lvgl\src\widgets/lv_canvas.c **** /**********************
 763:..\..\..\arduinoLCD\test\Pain Drain\libraries\lvgl\src\widgets/lv_canvas.c ****  *   STATIC FUNCTIONS
 764:..\..\..\arduinoLCD\test\Pain Drain\libraries\lvgl\src\widgets/lv_canvas.c ****  **********************/
 765:..\..\..\arduinoLCD\test\Pain Drain\libraries\lvgl\src\widgets/lv_canvas.c **** 
 766:..\..\..\arduinoLCD\test\Pain Drain\libraries\lvgl\src\widgets/lv_canvas.c **** static void lv_canvas_constructor(const lv_obj_class_t * class_p, lv_obj_t * obj)
 767:..\..\..\arduinoLCD\test\Pain Drain\libraries\lvgl\src\widgets/lv_canvas.c **** {
 768:..\..\..\arduinoLCD\test\Pain Drain\libraries\lvgl\src\widgets/lv_canvas.c ****     LV_UNUSED(class_p);
 769:..\..\..\arduinoLCD\test\Pain Drain\libraries\lvgl\src\widgets/lv_canvas.c ****     LV_TRACE_OBJ_CREATE("begin");
 770:..\..\..\arduinoLCD\test\Pain Drain\libraries\lvgl\src\widgets/lv_canvas.c **** 
 771:..\..\..\arduinoLCD\test\Pain Drain\libraries\lvgl\src\widgets/lv_canvas.c ****     lv_canvas_t * canvas = (lv_canvas_t *)obj;
 772:..\..\..\arduinoLCD\test\Pain Drain\libraries\lvgl\src\widgets/lv_canvas.c **** 
ARM GAS  C:\Users\haske\AppData\Local\Temp\ccxUXv8a.s 			page 15


 773:..\..\..\arduinoLCD\test\Pain Drain\libraries\lvgl\src\widgets/lv_canvas.c ****     canvas->dsc.header.always_zero = 0;
 774:..\..\..\arduinoLCD\test\Pain Drain\libraries\lvgl\src\widgets/lv_canvas.c ****     canvas->dsc.header.cf          = LV_IMG_CF_TRUE_COLOR;
 775:..\..\..\arduinoLCD\test\Pain Drain\libraries\lvgl\src\widgets/lv_canvas.c ****     canvas->dsc.header.h           = 0;
 776:..\..\..\arduinoLCD\test\Pain Drain\libraries\lvgl\src\widgets/lv_canvas.c ****     canvas->dsc.header.w           = 0;
 777:..\..\..\arduinoLCD\test\Pain Drain\libraries\lvgl\src\widgets/lv_canvas.c ****     canvas->dsc.data_size          = 0;
 778:..\..\..\arduinoLCD\test\Pain Drain\libraries\lvgl\src\widgets/lv_canvas.c ****     canvas->dsc.data               = NULL;
 779:..\..\..\arduinoLCD\test\Pain Drain\libraries\lvgl\src\widgets/lv_canvas.c **** 
 780:..\..\..\arduinoLCD\test\Pain Drain\libraries\lvgl\src\widgets/lv_canvas.c ****     lv_img_set_src(obj, &canvas->dsc);
 781:..\..\..\arduinoLCD\test\Pain Drain\libraries\lvgl\src\widgets/lv_canvas.c **** 
 782:..\..\..\arduinoLCD\test\Pain Drain\libraries\lvgl\src\widgets/lv_canvas.c ****     LV_TRACE_OBJ_CREATE("finished");
 783:..\..\..\arduinoLCD\test\Pain Drain\libraries\lvgl\src\widgets/lv_canvas.c **** }
 784:..\..\..\arduinoLCD\test\Pain Drain\libraries\lvgl\src\widgets/lv_canvas.c **** 
 785:..\..\..\arduinoLCD\test\Pain Drain\libraries\lvgl\src\widgets/lv_canvas.c **** static void lv_canvas_destructor(const lv_obj_class_t * class_p, lv_obj_t * obj)
 786:..\..\..\arduinoLCD\test\Pain Drain\libraries\lvgl\src\widgets/lv_canvas.c **** {
  27              		.loc 1 786 0
  28              		.cfi_startproc
  29              		@ args = 0, pretend = 0, frame = 0
  30              		@ frame_needed = 0, uses_anonymous_args = 0
  31              	.LVL0:
  32 0000 10B5     		push	{r4, lr}
  33              		.cfi_def_cfa_offset 8
  34              		.cfi_offset 4, -8
  35              		.cfi_offset 14, -4
  36              	.LVL1:
 787:..\..\..\arduinoLCD\test\Pain Drain\libraries\lvgl\src\widgets/lv_canvas.c ****     LV_UNUSED(class_p);
 788:..\..\..\arduinoLCD\test\Pain Drain\libraries\lvgl\src\widgets/lv_canvas.c ****     LV_TRACE_OBJ_CREATE("begin");
 789:..\..\..\arduinoLCD\test\Pain Drain\libraries\lvgl\src\widgets/lv_canvas.c **** 
 790:..\..\..\arduinoLCD\test\Pain Drain\libraries\lvgl\src\widgets/lv_canvas.c ****     lv_canvas_t * canvas = (lv_canvas_t *)obj;
 791:..\..\..\arduinoLCD\test\Pain Drain\libraries\lvgl\src\widgets/lv_canvas.c ****     lv_img_cache_invalidate_src(&canvas->dsc);
  37              		.loc 1 791 0
  38 0002 3C31     		adds	r1, r1, #60
  39              	.LVL2:
  40 0004 0800     		movs	r0, r1
  41              	.LVL3:
  42 0006 FFF7FEFF 		bl	lv_img_cache_invalidate_src
  43              	.LVL4:
 792:..\..\..\arduinoLCD\test\Pain Drain\libraries\lvgl\src\widgets/lv_canvas.c **** }
  44              		.loc 1 792 0
  45              		@ sp needed
  46 000a 10BD     		pop	{r4, pc}
  47              		.cfi_endproc
  48              	.LFE179:
  49              		.size	lv_canvas_destructor, .-lv_canvas_destructor
  50              		.section	.text.lv_canvas_constructor,"ax",%progbits
  51              		.align	2
  52              		.code	16
  53              		.thumb_func
  54              		.type	lv_canvas_constructor, %function
  55              	lv_canvas_constructor:
  56              	.LFB178:
 767:..\..\..\arduinoLCD\test\Pain Drain\libraries\lvgl\src\widgets/lv_canvas.c ****     LV_UNUSED(class_p);
  57              		.loc 1 767 0
  58              		.cfi_startproc
  59              		@ args = 0, pretend = 0, frame = 0
  60              		@ frame_needed = 0, uses_anonymous_args = 0
  61              	.LVL5:
  62 0000 10B5     		push	{r4, lr}
ARM GAS  C:\Users\haske\AppData\Local\Temp\ccxUXv8a.s 			page 16


  63              		.cfi_def_cfa_offset 8
  64              		.cfi_offset 4, -8
  65              		.cfi_offset 14, -4
  66 0002 0800     		movs	r0, r1
  67              	.LVL6:
 774:..\..\..\arduinoLCD\test\Pain Drain\libraries\lvgl\src\widgets/lv_canvas.c ****     canvas->dsc.header.h           = 0;
  68              		.loc 1 774 0
  69 0004 0422     		movs	r2, #4
  70 0006 3C23     		movs	r3, #60
  71 0008 CA54     		strb	r2, [r1, r3]
 775:..\..\..\arduinoLCD\test\Pain Drain\libraries\lvgl\src\widgets/lv_canvas.c ****     canvas->dsc.header.w           = 0;
  72              		.loc 1 775 0
  73 000a CB8F     		ldrh	r3, [r1, #62]
  74 000c 1B32     		adds	r2, r2, #27
  75 000e 1340     		ands	r3, r2
  76 0010 CB87     		strh	r3, [r1, #62]
 776:..\..\..\arduinoLCD\test\Pain Drain\libraries\lvgl\src\widgets/lv_canvas.c ****     canvas->dsc.data_size          = 0;
  77              		.loc 1 776 0
  78 0012 054B     		ldr	r3, .L3
  79 0014 CA6B     		ldr	r2, [r1, #60]
  80 0016 1340     		ands	r3, r2
  81 0018 CB63     		str	r3, [r1, #60]
 777:..\..\..\arduinoLCD\test\Pain Drain\libraries\lvgl\src\widgets/lv_canvas.c ****     canvas->dsc.data               = NULL;
  82              		.loc 1 777 0
  83 001a 0023     		movs	r3, #0
  84 001c 0B64     		str	r3, [r1, #64]
 778:..\..\..\arduinoLCD\test\Pain Drain\libraries\lvgl\src\widgets/lv_canvas.c **** 
  85              		.loc 1 778 0
  86 001e 4B64     		str	r3, [r1, #68]
 780:..\..\..\arduinoLCD\test\Pain Drain\libraries\lvgl\src\widgets/lv_canvas.c **** 
  87              		.loc 1 780 0
  88 0020 3C31     		adds	r1, r1, #60
  89              	.LVL7:
  90 0022 FFF7FEFF 		bl	lv_img_set_src
  91              	.LVL8:
 783:..\..\..\arduinoLCD\test\Pain Drain\libraries\lvgl\src\widgets/lv_canvas.c **** 
  92              		.loc 1 783 0
  93              		@ sp needed
  94 0026 10BD     		pop	{r4, pc}
  95              	.L4:
  96              		.align	2
  97              	.L3:
  98 0028 FF03E0FF 		.word	-2096129
  99              		.cfi_endproc
 100              	.LFE178:
 101              		.size	lv_canvas_constructor, .-lv_canvas_constructor
 102              		.section	.text.deinit_fake_disp,"ax",%progbits
 103              		.align	2
 104              		.code	16
 105              		.thumb_func
 106              		.type	deinit_fake_disp, %function
 107              	deinit_fake_disp:
 108              	.LFB181:
 793:..\..\..\arduinoLCD\test\Pain Drain\libraries\lvgl\src\widgets/lv_canvas.c **** 
 794:..\..\..\arduinoLCD\test\Pain Drain\libraries\lvgl\src\widgets/lv_canvas.c **** 
 795:..\..\..\arduinoLCD\test\Pain Drain\libraries\lvgl\src\widgets/lv_canvas.c **** static void init_fake_disp(lv_obj_t * canvas, lv_disp_t * disp, lv_disp_drv_t * drv, lv_area_t * cl
 796:..\..\..\arduinoLCD\test\Pain Drain\libraries\lvgl\src\widgets/lv_canvas.c **** {
ARM GAS  C:\Users\haske\AppData\Local\Temp\ccxUXv8a.s 			page 17


 797:..\..\..\arduinoLCD\test\Pain Drain\libraries\lvgl\src\widgets/lv_canvas.c ****     lv_img_dsc_t * dsc = lv_canvas_get_img(canvas);
 798:..\..\..\arduinoLCD\test\Pain Drain\libraries\lvgl\src\widgets/lv_canvas.c **** 
 799:..\..\..\arduinoLCD\test\Pain Drain\libraries\lvgl\src\widgets/lv_canvas.c ****     clip_area->x1 = 0;
 800:..\..\..\arduinoLCD\test\Pain Drain\libraries\lvgl\src\widgets/lv_canvas.c ****     clip_area->x2 = dsc->header.w - 1;
 801:..\..\..\arduinoLCD\test\Pain Drain\libraries\lvgl\src\widgets/lv_canvas.c ****     clip_area->y1 = 0;
 802:..\..\..\arduinoLCD\test\Pain Drain\libraries\lvgl\src\widgets/lv_canvas.c ****     clip_area->y2 = dsc->header.h - 1;
 803:..\..\..\arduinoLCD\test\Pain Drain\libraries\lvgl\src\widgets/lv_canvas.c **** 
 804:..\..\..\arduinoLCD\test\Pain Drain\libraries\lvgl\src\widgets/lv_canvas.c ****     /*Allocate the fake driver on the stack as the entire display doesn't outlive this function*/
 805:..\..\..\arduinoLCD\test\Pain Drain\libraries\lvgl\src\widgets/lv_canvas.c ****     lv_memset_00(disp, sizeof(lv_disp_t));
 806:..\..\..\arduinoLCD\test\Pain Drain\libraries\lvgl\src\widgets/lv_canvas.c ****     disp->driver = drv;
 807:..\..\..\arduinoLCD\test\Pain Drain\libraries\lvgl\src\widgets/lv_canvas.c **** 
 808:..\..\..\arduinoLCD\test\Pain Drain\libraries\lvgl\src\widgets/lv_canvas.c ****     lv_disp_drv_init(disp->driver);
 809:..\..\..\arduinoLCD\test\Pain Drain\libraries\lvgl\src\widgets/lv_canvas.c ****     disp->driver->hor_res = dsc->header.w;
 810:..\..\..\arduinoLCD\test\Pain Drain\libraries\lvgl\src\widgets/lv_canvas.c ****     disp->driver->ver_res = dsc->header.h;
 811:..\..\..\arduinoLCD\test\Pain Drain\libraries\lvgl\src\widgets/lv_canvas.c **** 
 812:..\..\..\arduinoLCD\test\Pain Drain\libraries\lvgl\src\widgets/lv_canvas.c ****     lv_draw_ctx_t * draw_ctx = lv_mem_alloc(sizeof(lv_draw_sw_ctx_t));
 813:..\..\..\arduinoLCD\test\Pain Drain\libraries\lvgl\src\widgets/lv_canvas.c ****     LV_ASSERT_MALLOC(draw_ctx);
 814:..\..\..\arduinoLCD\test\Pain Drain\libraries\lvgl\src\widgets/lv_canvas.c ****     if(draw_ctx == NULL)  return;
 815:..\..\..\arduinoLCD\test\Pain Drain\libraries\lvgl\src\widgets/lv_canvas.c ****     lv_draw_sw_init_ctx(drv, draw_ctx);
 816:..\..\..\arduinoLCD\test\Pain Drain\libraries\lvgl\src\widgets/lv_canvas.c ****     disp->driver->draw_ctx = draw_ctx;
 817:..\..\..\arduinoLCD\test\Pain Drain\libraries\lvgl\src\widgets/lv_canvas.c ****     draw_ctx->clip_area = clip_area;
 818:..\..\..\arduinoLCD\test\Pain Drain\libraries\lvgl\src\widgets/lv_canvas.c ****     draw_ctx->buf_area = clip_area;
 819:..\..\..\arduinoLCD\test\Pain Drain\libraries\lvgl\src\widgets/lv_canvas.c ****     draw_ctx->buf = (void *)dsc->data;
 820:..\..\..\arduinoLCD\test\Pain Drain\libraries\lvgl\src\widgets/lv_canvas.c **** 
 821:..\..\..\arduinoLCD\test\Pain Drain\libraries\lvgl\src\widgets/lv_canvas.c ****     lv_disp_drv_use_generic_set_px_cb(disp->driver, dsc->header.cf);
 822:..\..\..\arduinoLCD\test\Pain Drain\libraries\lvgl\src\widgets/lv_canvas.c ****     if(LV_COLOR_SCREEN_TRANSP && dsc->header.cf != LV_IMG_CF_TRUE_COLOR_ALPHA) {
 823:..\..\..\arduinoLCD\test\Pain Drain\libraries\lvgl\src\widgets/lv_canvas.c ****         drv->screen_transp = 0;
 824:..\..\..\arduinoLCD\test\Pain Drain\libraries\lvgl\src\widgets/lv_canvas.c ****     }
 825:..\..\..\arduinoLCD\test\Pain Drain\libraries\lvgl\src\widgets/lv_canvas.c **** }
 826:..\..\..\arduinoLCD\test\Pain Drain\libraries\lvgl\src\widgets/lv_canvas.c **** 
 827:..\..\..\arduinoLCD\test\Pain Drain\libraries\lvgl\src\widgets/lv_canvas.c **** static void deinit_fake_disp(lv_obj_t * canvas, lv_disp_t * disp)
 828:..\..\..\arduinoLCD\test\Pain Drain\libraries\lvgl\src\widgets/lv_canvas.c **** {
 109              		.loc 1 828 0
 110              		.cfi_startproc
 111              		@ args = 0, pretend = 0, frame = 0
 112              		@ frame_needed = 0, uses_anonymous_args = 0
 113              	.LVL9:
 114 0000 10B5     		push	{r4, lr}
 115              		.cfi_def_cfa_offset 8
 116              		.cfi_offset 4, -8
 117              		.cfi_offset 14, -4
 118 0002 0C00     		movs	r4, r1
 829:..\..\..\arduinoLCD\test\Pain Drain\libraries\lvgl\src\widgets/lv_canvas.c ****     LV_UNUSED(canvas);
 830:..\..\..\arduinoLCD\test\Pain Drain\libraries\lvgl\src\widgets/lv_canvas.c ****     lv_draw_sw_deinit_ctx(disp->driver, disp->driver->draw_ctx);
 119              		.loc 1 830 0
 120 0004 0868     		ldr	r0, [r1]
 121              	.LVL10:
 122 0006 C16B     		ldr	r1, [r0, #60]
 123              	.LVL11:
 124 0008 FFF7FEFF 		bl	lv_draw_sw_deinit_ctx
 125              	.LVL12:
 831:..\..\..\arduinoLCD\test\Pain Drain\libraries\lvgl\src\widgets/lv_canvas.c ****     lv_mem_free(disp->driver->draw_ctx);
 126              		.loc 1 831 0
 127 000c 2368     		ldr	r3, [r4]
 128 000e D86B     		ldr	r0, [r3, #60]
 129 0010 FFF7FEFF 		bl	lv_mem_free
 130              	.LVL13:
ARM GAS  C:\Users\haske\AppData\Local\Temp\ccxUXv8a.s 			page 18


 832:..\..\..\arduinoLCD\test\Pain Drain\libraries\lvgl\src\widgets/lv_canvas.c **** }
 131              		.loc 1 832 0
 132              		@ sp needed
 133              	.LVL14:
 134 0014 10BD     		pop	{r4, pc}
 135              		.cfi_endproc
 136              	.LFE181:
 137              		.size	deinit_fake_disp, .-deinit_fake_disp
 138 0016 C046     		.section	.text.lv_canvas_create,"ax",%progbits
 139              		.align	2
 140              		.global	lv_canvas_create
 141              		.code	16
 142              		.thumb_func
 143              		.type	lv_canvas_create, %function
 144              	lv_canvas_create:
 145              	.LFB160:
  55:..\..\..\arduinoLCD\test\Pain Drain\libraries\lvgl\src\widgets/lv_canvas.c ****     LV_LOG_INFO("begin");
 146              		.loc 1 55 0
 147              		.cfi_startproc
 148              		@ args = 0, pretend = 0, frame = 0
 149              		@ frame_needed = 0, uses_anonymous_args = 0
 150              	.LVL15:
 151 0000 10B5     		push	{r4, lr}
 152              		.cfi_def_cfa_offset 8
 153              		.cfi_offset 4, -8
 154              		.cfi_offset 14, -4
 155 0002 0100     		movs	r1, r0
  57:..\..\..\arduinoLCD\test\Pain Drain\libraries\lvgl\src\widgets/lv_canvas.c ****     lv_obj_class_init_obj(obj);
 156              		.loc 1 57 0
 157 0004 0348     		ldr	r0, .L7
 158              	.LVL16:
 159 0006 FFF7FEFF 		bl	lv_obj_class_create_obj
 160              	.LVL17:
 161 000a 0400     		movs	r4, r0
 162              	.LVL18:
  58:..\..\..\arduinoLCD\test\Pain Drain\libraries\lvgl\src\widgets/lv_canvas.c ****     return obj;
 163              		.loc 1 58 0
 164 000c FFF7FEFF 		bl	lv_obj_class_init_obj
 165              	.LVL19:
  60:..\..\..\arduinoLCD\test\Pain Drain\libraries\lvgl\src\widgets/lv_canvas.c **** 
 166              		.loc 1 60 0
 167 0010 2000     		movs	r0, r4
 168              		@ sp needed
 169              	.LVL20:
 170 0012 10BD     		pop	{r4, pc}
 171              	.L8:
 172              		.align	2
 173              	.L7:
 174 0014 00000000 		.word	.LANCHOR0
 175              		.cfi_endproc
 176              	.LFE160:
 177              		.size	lv_canvas_create, .-lv_canvas_create
 178              		.section	.text.lv_canvas_set_buffer,"ax",%progbits
 179              		.align	2
 180              		.global	lv_canvas_set_buffer
 181              		.code	16
 182              		.thumb_func
ARM GAS  C:\Users\haske\AppData\Local\Temp\ccxUXv8a.s 			page 19


 183              		.type	lv_canvas_set_buffer, %function
 184              	lv_canvas_set_buffer:
 185              	.LFB161:
  67:..\..\..\arduinoLCD\test\Pain Drain\libraries\lvgl\src\widgets/lv_canvas.c ****     LV_ASSERT_OBJ(obj, MY_CLASS);
 186              		.loc 1 67 0
 187              		.cfi_startproc
 188              		@ args = 4, pretend = 0, frame = 0
 189              		@ frame_needed = 0, uses_anonymous_args = 0
 190              	.LVL21:
 191 0000 F8B5     		push	{r3, r4, r5, r6, r7, lr}
 192              		.cfi_def_cfa_offset 24
 193              		.cfi_offset 3, -24
 194              		.cfi_offset 4, -20
 195              		.cfi_offset 5, -16
 196              		.cfi_offset 6, -12
 197              		.cfi_offset 7, -8
 198              		.cfi_offset 14, -4
 199 0002 06AC     		add	r4, sp, #24
 200              	.LVL22:
 201 0004 2478     		ldrb	r4, [r4]
 202              	.LVL23:
  69:..\..\..\arduinoLCD\test\Pain Drain\libraries\lvgl\src\widgets/lv_canvas.c **** 
 203              		.loc 1 69 0
 204 0006 0029     		cmp	r1, #0
 205 0008 00D1     		bne	.L10
 206              	.L11:
 207 000a FEE7     		b	.L11
 208              	.L10:
 209              	.LVL24:
  73:..\..\..\arduinoLCD\test\Pain Drain\libraries\lvgl\src\widgets/lv_canvas.c ****     canvas->dsc.header.w  = w;
 210              		.loc 1 73 0
 211 000c 3C26     		movs	r6, #60
 212 000e 1F25     		movs	r5, #31
 213 0010 2540     		ands	r5, r4
 214 0012 845D     		ldrb	r4, [r0, r6]
 215 0014 1F27     		movs	r7, #31
 216 0016 BC43     		bics	r4, r7
 217 0018 2C43     		orrs	r4, r5
 218 001a 8455     		strb	r4, [r0, r6]
  74:..\..\..\arduinoLCD\test\Pain Drain\libraries\lvgl\src\widgets/lv_canvas.c ****     canvas->dsc.header.h  = h;
 219              		.loc 1 74 0
 220 001c 5205     		lsls	r2, r2, #21
 221              	.LVL25:
 222 001e D20A     		lsrs	r2, r2, #11
 223 0020 0A4C     		ldr	r4, .L12
 224 0022 C56B     		ldr	r5, [r0, #60]
 225 0024 2C40     		ands	r4, r5
 226 0026 2243     		orrs	r2, r4
 227 0028 C263     		str	r2, [r0, #60]
 228              	.LVL26:
  75:..\..\..\arduinoLCD\test\Pain Drain\libraries\lvgl\src\widgets/lv_canvas.c ****     canvas->dsc.data      = buf;
 229              		.loc 1 75 0
 230 002a 5B01     		lsls	r3, r3, #5
 231              	.LVL27:
 232 002c 120C     		lsrs	r2, r2, #16
 233 002e 1F24     		movs	r4, #31
 234 0030 2240     		ands	r2, r4
ARM GAS  C:\Users\haske\AppData\Local\Temp\ccxUXv8a.s 			page 20


 235 0032 1A43     		orrs	r2, r3
 236 0034 C287     		strh	r2, [r0, #62]
  76:..\..\..\arduinoLCD\test\Pain Drain\libraries\lvgl\src\widgets/lv_canvas.c **** 
 237              		.loc 1 76 0
 238 0036 4164     		str	r1, [r0, #68]
  78:..\..\..\arduinoLCD\test\Pain Drain\libraries\lvgl\src\widgets/lv_canvas.c ****     lv_img_cache_invalidate_src(&canvas->dsc);
 239              		.loc 1 78 0
 240 0038 0400     		movs	r4, r0
 241 003a 3C34     		adds	r4, r4, #60
 242 003c 2100     		movs	r1, r4
 243              	.LVL28:
 244 003e FFF7FEFF 		bl	lv_img_set_src
 245              	.LVL29:
  79:..\..\..\arduinoLCD\test\Pain Drain\libraries\lvgl\src\widgets/lv_canvas.c **** }
 246              		.loc 1 79 0
 247 0042 2000     		movs	r0, r4
 248 0044 FFF7FEFF 		bl	lv_img_cache_invalidate_src
 249              	.LVL30:
  80:..\..\..\arduinoLCD\test\Pain Drain\libraries\lvgl\src\widgets/lv_canvas.c **** 
 250              		.loc 1 80 0
 251              		@ sp needed
 252              	.LVL31:
 253 0048 F8BD     		pop	{r3, r4, r5, r6, r7, pc}
 254              	.L13:
 255 004a C046     		.align	2
 256              	.L12:
 257 004c FF03E0FF 		.word	-2096129
 258              		.cfi_endproc
 259              	.LFE161:
 260              		.size	lv_canvas_set_buffer, .-lv_canvas_set_buffer
 261              		.section	.text.lv_canvas_set_px_color,"ax",%progbits
 262              		.align	2
 263              		.global	lv_canvas_set_px_color
 264              		.code	16
 265              		.thumb_func
 266              		.type	lv_canvas_set_px_color, %function
 267              	lv_canvas_set_px_color:
 268              	.LFB162:
  83:..\..\..\arduinoLCD\test\Pain Drain\libraries\lvgl\src\widgets/lv_canvas.c ****     LV_ASSERT_OBJ(obj, MY_CLASS);
 269              		.loc 1 83 0
 270              		.cfi_startproc
 271              		@ args = 0, pretend = 0, frame = 0
 272              		@ frame_needed = 0, uses_anonymous_args = 0
 273              	.LVL32:
 274 0000 10B5     		push	{r4, lr}
 275              		.cfi_def_cfa_offset 8
 276              		.cfi_offset 4, -8
 277              		.cfi_offset 14, -4
 278 0002 0400     		movs	r4, r0
 279              	.LVL33:
  88:..\..\..\arduinoLCD\test\Pain Drain\libraries\lvgl\src\widgets/lv_canvas.c ****     lv_obj_invalidate(obj);
 280              		.loc 1 88 0
 281 0004 3C30     		adds	r0, r0, #60
 282              	.LVL34:
 283 0006 FFF7FEFF 		bl	lv_img_buf_set_px_color
 284              	.LVL35:
  89:..\..\..\arduinoLCD\test\Pain Drain\libraries\lvgl\src\widgets/lv_canvas.c **** }
ARM GAS  C:\Users\haske\AppData\Local\Temp\ccxUXv8a.s 			page 21


 285              		.loc 1 89 0
 286 000a 2000     		movs	r0, r4
 287 000c FFF7FEFF 		bl	lv_obj_invalidate
 288              	.LVL36:
  90:..\..\..\arduinoLCD\test\Pain Drain\libraries\lvgl\src\widgets/lv_canvas.c **** 
 289              		.loc 1 90 0
 290              		@ sp needed
 291              	.LVL37:
 292 0010 10BD     		pop	{r4, pc}
 293              		.cfi_endproc
 294              	.LFE162:
 295              		.size	lv_canvas_set_px_color, .-lv_canvas_set_px_color
 296 0012 C046     		.section	.text.lv_canvas_set_px_opa,"ax",%progbits
 297              		.align	2
 298              		.global	lv_canvas_set_px_opa
 299              		.code	16
 300              		.thumb_func
 301              		.type	lv_canvas_set_px_opa, %function
 302              	lv_canvas_set_px_opa:
 303              	.LFB163:
  93:..\..\..\arduinoLCD\test\Pain Drain\libraries\lvgl\src\widgets/lv_canvas.c ****     LV_ASSERT_OBJ(obj, MY_CLASS);
 304              		.loc 1 93 0
 305              		.cfi_startproc
 306              		@ args = 0, pretend = 0, frame = 0
 307              		@ frame_needed = 0, uses_anonymous_args = 0
 308              	.LVL38:
 309 0000 10B5     		push	{r4, lr}
 310              		.cfi_def_cfa_offset 8
 311              		.cfi_offset 4, -8
 312              		.cfi_offset 14, -4
 313 0002 0400     		movs	r4, r0
 314              	.LVL39:
  98:..\..\..\arduinoLCD\test\Pain Drain\libraries\lvgl\src\widgets/lv_canvas.c ****     lv_obj_invalidate(obj);
 315              		.loc 1 98 0
 316 0004 3C30     		adds	r0, r0, #60
 317              	.LVL40:
 318 0006 FFF7FEFF 		bl	lv_img_buf_set_px_alpha
 319              	.LVL41:
  99:..\..\..\arduinoLCD\test\Pain Drain\libraries\lvgl\src\widgets/lv_canvas.c **** }
 320              		.loc 1 99 0
 321 000a 2000     		movs	r0, r4
 322 000c FFF7FEFF 		bl	lv_obj_invalidate
 323              	.LVL42:
 100:..\..\..\arduinoLCD\test\Pain Drain\libraries\lvgl\src\widgets/lv_canvas.c **** 
 324              		.loc 1 100 0
 325              		@ sp needed
 326              	.LVL43:
 327 0010 10BD     		pop	{r4, pc}
 328              		.cfi_endproc
 329              	.LFE163:
 330              		.size	lv_canvas_set_px_opa, .-lv_canvas_set_px_opa
 331 0012 C046     		.section	.text.lv_canvas_set_palette,"ax",%progbits
 332              		.align	2
 333              		.global	lv_canvas_set_palette
 334              		.code	16
 335              		.thumb_func
 336              		.type	lv_canvas_set_palette, %function
ARM GAS  C:\Users\haske\AppData\Local\Temp\ccxUXv8a.s 			page 22


 337              	lv_canvas_set_palette:
 338              	.LFB164:
 103:..\..\..\arduinoLCD\test\Pain Drain\libraries\lvgl\src\widgets/lv_canvas.c ****     LV_ASSERT_OBJ(obj, MY_CLASS);
 339              		.loc 1 103 0
 340              		.cfi_startproc
 341              		@ args = 0, pretend = 0, frame = 0
 342              		@ frame_needed = 0, uses_anonymous_args = 0
 343              	.LVL44:
 344 0000 10B5     		push	{r4, lr}
 345              		.cfi_def_cfa_offset 8
 346              		.cfi_offset 4, -8
 347              		.cfi_offset 14, -4
 348 0002 0400     		movs	r4, r0
 349              	.LVL45:
 108:..\..\..\arduinoLCD\test\Pain Drain\libraries\lvgl\src\widgets/lv_canvas.c ****     lv_obj_invalidate(obj);
 350              		.loc 1 108 0
 351 0004 3C30     		adds	r0, r0, #60
 352              	.LVL46:
 353 0006 FFF7FEFF 		bl	lv_img_buf_set_palette
 354              	.LVL47:
 109:..\..\..\arduinoLCD\test\Pain Drain\libraries\lvgl\src\widgets/lv_canvas.c **** }
 355              		.loc 1 109 0
 356 000a 2000     		movs	r0, r4
 357 000c FFF7FEFF 		bl	lv_obj_invalidate
 358              	.LVL48:
 110:..\..\..\arduinoLCD\test\Pain Drain\libraries\lvgl\src\widgets/lv_canvas.c **** 
 359              		.loc 1 110 0
 360              		@ sp needed
 361              	.LVL49:
 362 0010 10BD     		pop	{r4, pc}
 363              		.cfi_endproc
 364              	.LFE164:
 365              		.size	lv_canvas_set_palette, .-lv_canvas_set_palette
 366 0012 C046     		.section	.text.lv_canvas_get_px,"ax",%progbits
 367              		.align	2
 368              		.global	lv_canvas_get_px
 369              		.code	16
 370              		.thumb_func
 371              		.type	lv_canvas_get_px, %function
 372              	lv_canvas_get_px:
 373              	.LFB165:
 117:..\..\..\arduinoLCD\test\Pain Drain\libraries\lvgl\src\widgets/lv_canvas.c ****     LV_ASSERT_OBJ(obj, MY_CLASS);
 374              		.loc 1 117 0
 375              		.cfi_startproc
 376              		@ args = 0, pretend = 0, frame = 0
 377              		@ frame_needed = 0, uses_anonymous_args = 0
 378              	.LVL50:
 379 0000 70B5     		push	{r4, r5, r6, lr}
 380              		.cfi_def_cfa_offset 16
 381              		.cfi_offset 4, -16
 382              		.cfi_offset 5, -12
 383              		.cfi_offset 6, -8
 384              		.cfi_offset 14, -4
 385 0002 0400     		movs	r4, r0
 386 0004 0D00     		movs	r5, r1
 387 0006 1600     		movs	r6, r2
 388              	.LVL51:
ARM GAS  C:\Users\haske\AppData\Local\Temp\ccxUXv8a.s 			page 23


 389              	.LBB26:
 390              	.LBB27:
 391              		.file 2 "..\\..\\..\\arduinoLCD\\test\\Pain Drain\\libraries\\lvgl\\src\\widgets\\../core/lv_obj_s
   1:..\..\..\arduinoLCD\test\Pain Drain\libraries\lvgl\src\widgets\../core/lv_obj_style_gen.h **** static inline lv_coord_t lv_obj_get_style_width(const struct _lv_obj_t * obj, uint32_t part)
   2:..\..\..\arduinoLCD\test\Pain Drain\libraries\lvgl\src\widgets\../core/lv_obj_style_gen.h **** {
   3:..\..\..\arduinoLCD\test\Pain Drain\libraries\lvgl\src\widgets\../core/lv_obj_style_gen.h ****     lv_style_value_t v = lv_obj_get_style_prop(obj, part, LV_STYLE_WIDTH);
   4:..\..\..\arduinoLCD\test\Pain Drain\libraries\lvgl\src\widgets\../core/lv_obj_style_gen.h ****     return (lv_coord_t)v.num;
   5:..\..\..\arduinoLCD\test\Pain Drain\libraries\lvgl\src\widgets\../core/lv_obj_style_gen.h **** }
   6:..\..\..\arduinoLCD\test\Pain Drain\libraries\lvgl\src\widgets\../core/lv_obj_style_gen.h **** 
   7:..\..\..\arduinoLCD\test\Pain Drain\libraries\lvgl\src\widgets\../core/lv_obj_style_gen.h **** static inline lv_coord_t lv_obj_get_style_min_width(const struct _lv_obj_t * obj, uint32_t part)
   8:..\..\..\arduinoLCD\test\Pain Drain\libraries\lvgl\src\widgets\../core/lv_obj_style_gen.h **** {
   9:..\..\..\arduinoLCD\test\Pain Drain\libraries\lvgl\src\widgets\../core/lv_obj_style_gen.h ****     lv_style_value_t v = lv_obj_get_style_prop(obj, part, LV_STYLE_MIN_WIDTH);
  10:..\..\..\arduinoLCD\test\Pain Drain\libraries\lvgl\src\widgets\../core/lv_obj_style_gen.h ****     return (lv_coord_t)v.num;
  11:..\..\..\arduinoLCD\test\Pain Drain\libraries\lvgl\src\widgets\../core/lv_obj_style_gen.h **** }
  12:..\..\..\arduinoLCD\test\Pain Drain\libraries\lvgl\src\widgets\../core/lv_obj_style_gen.h **** 
  13:..\..\..\arduinoLCD\test\Pain Drain\libraries\lvgl\src\widgets\../core/lv_obj_style_gen.h **** static inline lv_coord_t lv_obj_get_style_max_width(const struct _lv_obj_t * obj, uint32_t part)
  14:..\..\..\arduinoLCD\test\Pain Drain\libraries\lvgl\src\widgets\../core/lv_obj_style_gen.h **** {
  15:..\..\..\arduinoLCD\test\Pain Drain\libraries\lvgl\src\widgets\../core/lv_obj_style_gen.h ****     lv_style_value_t v = lv_obj_get_style_prop(obj, part, LV_STYLE_MAX_WIDTH);
  16:..\..\..\arduinoLCD\test\Pain Drain\libraries\lvgl\src\widgets\../core/lv_obj_style_gen.h ****     return (lv_coord_t)v.num;
  17:..\..\..\arduinoLCD\test\Pain Drain\libraries\lvgl\src\widgets\../core/lv_obj_style_gen.h **** }
  18:..\..\..\arduinoLCD\test\Pain Drain\libraries\lvgl\src\widgets\../core/lv_obj_style_gen.h **** 
  19:..\..\..\arduinoLCD\test\Pain Drain\libraries\lvgl\src\widgets\../core/lv_obj_style_gen.h **** static inline lv_coord_t lv_obj_get_style_height(const struct _lv_obj_t * obj, uint32_t part)
  20:..\..\..\arduinoLCD\test\Pain Drain\libraries\lvgl\src\widgets\../core/lv_obj_style_gen.h **** {
  21:..\..\..\arduinoLCD\test\Pain Drain\libraries\lvgl\src\widgets\../core/lv_obj_style_gen.h ****     lv_style_value_t v = lv_obj_get_style_prop(obj, part, LV_STYLE_HEIGHT);
  22:..\..\..\arduinoLCD\test\Pain Drain\libraries\lvgl\src\widgets\../core/lv_obj_style_gen.h ****     return (lv_coord_t)v.num;
  23:..\..\..\arduinoLCD\test\Pain Drain\libraries\lvgl\src\widgets\../core/lv_obj_style_gen.h **** }
  24:..\..\..\arduinoLCD\test\Pain Drain\libraries\lvgl\src\widgets\../core/lv_obj_style_gen.h **** 
  25:..\..\..\arduinoLCD\test\Pain Drain\libraries\lvgl\src\widgets\../core/lv_obj_style_gen.h **** static inline lv_coord_t lv_obj_get_style_min_height(const struct _lv_obj_t * obj, uint32_t part)
  26:..\..\..\arduinoLCD\test\Pain Drain\libraries\lvgl\src\widgets\../core/lv_obj_style_gen.h **** {
  27:..\..\..\arduinoLCD\test\Pain Drain\libraries\lvgl\src\widgets\../core/lv_obj_style_gen.h ****     lv_style_value_t v = lv_obj_get_style_prop(obj, part, LV_STYLE_MIN_HEIGHT);
  28:..\..\..\arduinoLCD\test\Pain Drain\libraries\lvgl\src\widgets\../core/lv_obj_style_gen.h ****     return (lv_coord_t)v.num;
  29:..\..\..\arduinoLCD\test\Pain Drain\libraries\lvgl\src\widgets\../core/lv_obj_style_gen.h **** }
  30:..\..\..\arduinoLCD\test\Pain Drain\libraries\lvgl\src\widgets\../core/lv_obj_style_gen.h **** 
  31:..\..\..\arduinoLCD\test\Pain Drain\libraries\lvgl\src\widgets\../core/lv_obj_style_gen.h **** static inline lv_coord_t lv_obj_get_style_max_height(const struct _lv_obj_t * obj, uint32_t part)
  32:..\..\..\arduinoLCD\test\Pain Drain\libraries\lvgl\src\widgets\../core/lv_obj_style_gen.h **** {
  33:..\..\..\arduinoLCD\test\Pain Drain\libraries\lvgl\src\widgets\../core/lv_obj_style_gen.h ****     lv_style_value_t v = lv_obj_get_style_prop(obj, part, LV_STYLE_MAX_HEIGHT);
  34:..\..\..\arduinoLCD\test\Pain Drain\libraries\lvgl\src\widgets\../core/lv_obj_style_gen.h ****     return (lv_coord_t)v.num;
  35:..\..\..\arduinoLCD\test\Pain Drain\libraries\lvgl\src\widgets\../core/lv_obj_style_gen.h **** }
  36:..\..\..\arduinoLCD\test\Pain Drain\libraries\lvgl\src\widgets\../core/lv_obj_style_gen.h **** 
  37:..\..\..\arduinoLCD\test\Pain Drain\libraries\lvgl\src\widgets\../core/lv_obj_style_gen.h **** static inline lv_coord_t lv_obj_get_style_x(const struct _lv_obj_t * obj, uint32_t part)
  38:..\..\..\arduinoLCD\test\Pain Drain\libraries\lvgl\src\widgets\../core/lv_obj_style_gen.h **** {
  39:..\..\..\arduinoLCD\test\Pain Drain\libraries\lvgl\src\widgets\../core/lv_obj_style_gen.h ****     lv_style_value_t v = lv_obj_get_style_prop(obj, part, LV_STYLE_X);
  40:..\..\..\arduinoLCD\test\Pain Drain\libraries\lvgl\src\widgets\../core/lv_obj_style_gen.h ****     return (lv_coord_t)v.num;
  41:..\..\..\arduinoLCD\test\Pain Drain\libraries\lvgl\src\widgets\../core/lv_obj_style_gen.h **** }
  42:..\..\..\arduinoLCD\test\Pain Drain\libraries\lvgl\src\widgets\../core/lv_obj_style_gen.h **** 
  43:..\..\..\arduinoLCD\test\Pain Drain\libraries\lvgl\src\widgets\../core/lv_obj_style_gen.h **** static inline lv_coord_t lv_obj_get_style_y(const struct _lv_obj_t * obj, uint32_t part)
  44:..\..\..\arduinoLCD\test\Pain Drain\libraries\lvgl\src\widgets\../core/lv_obj_style_gen.h **** {
  45:..\..\..\arduinoLCD\test\Pain Drain\libraries\lvgl\src\widgets\../core/lv_obj_style_gen.h ****     lv_style_value_t v = lv_obj_get_style_prop(obj, part, LV_STYLE_Y);
  46:..\..\..\arduinoLCD\test\Pain Drain\libraries\lvgl\src\widgets\../core/lv_obj_style_gen.h ****     return (lv_coord_t)v.num;
  47:..\..\..\arduinoLCD\test\Pain Drain\libraries\lvgl\src\widgets\../core/lv_obj_style_gen.h **** }
  48:..\..\..\arduinoLCD\test\Pain Drain\libraries\lvgl\src\widgets\../core/lv_obj_style_gen.h **** 
  49:..\..\..\arduinoLCD\test\Pain Drain\libraries\lvgl\src\widgets\../core/lv_obj_style_gen.h **** static inline lv_align_t lv_obj_get_style_align(const struct _lv_obj_t * obj, uint32_t part)
  50:..\..\..\arduinoLCD\test\Pain Drain\libraries\lvgl\src\widgets\../core/lv_obj_style_gen.h **** {
  51:..\..\..\arduinoLCD\test\Pain Drain\libraries\lvgl\src\widgets\../core/lv_obj_style_gen.h ****     lv_style_value_t v = lv_obj_get_style_prop(obj, part, LV_STYLE_ALIGN);
  52:..\..\..\arduinoLCD\test\Pain Drain\libraries\lvgl\src\widgets\../core/lv_obj_style_gen.h ****     return (lv_align_t)v.num;
  53:..\..\..\arduinoLCD\test\Pain Drain\libraries\lvgl\src\widgets\../core/lv_obj_style_gen.h **** }
  54:..\..\..\arduinoLCD\test\Pain Drain\libraries\lvgl\src\widgets\../core/lv_obj_style_gen.h **** 
ARM GAS  C:\Users\haske\AppData\Local\Temp\ccxUXv8a.s 			page 24


  55:..\..\..\arduinoLCD\test\Pain Drain\libraries\lvgl\src\widgets\../core/lv_obj_style_gen.h **** static inline lv_coord_t lv_obj_get_style_transform_width(const struct _lv_obj_t * obj, uint32_t pa
  56:..\..\..\arduinoLCD\test\Pain Drain\libraries\lvgl\src\widgets\../core/lv_obj_style_gen.h **** {
  57:..\..\..\arduinoLCD\test\Pain Drain\libraries\lvgl\src\widgets\../core/lv_obj_style_gen.h ****     lv_style_value_t v = lv_obj_get_style_prop(obj, part, LV_STYLE_TRANSFORM_WIDTH);
  58:..\..\..\arduinoLCD\test\Pain Drain\libraries\lvgl\src\widgets\../core/lv_obj_style_gen.h ****     return (lv_coord_t)v.num;
  59:..\..\..\arduinoLCD\test\Pain Drain\libraries\lvgl\src\widgets\../core/lv_obj_style_gen.h **** }
  60:..\..\..\arduinoLCD\test\Pain Drain\libraries\lvgl\src\widgets\../core/lv_obj_style_gen.h **** 
  61:..\..\..\arduinoLCD\test\Pain Drain\libraries\lvgl\src\widgets\../core/lv_obj_style_gen.h **** static inline lv_coord_t lv_obj_get_style_transform_height(const struct _lv_obj_t * obj, uint32_t p
  62:..\..\..\arduinoLCD\test\Pain Drain\libraries\lvgl\src\widgets\../core/lv_obj_style_gen.h **** {
  63:..\..\..\arduinoLCD\test\Pain Drain\libraries\lvgl\src\widgets\../core/lv_obj_style_gen.h ****     lv_style_value_t v = lv_obj_get_style_prop(obj, part, LV_STYLE_TRANSFORM_HEIGHT);
  64:..\..\..\arduinoLCD\test\Pain Drain\libraries\lvgl\src\widgets\../core/lv_obj_style_gen.h ****     return (lv_coord_t)v.num;
  65:..\..\..\arduinoLCD\test\Pain Drain\libraries\lvgl\src\widgets\../core/lv_obj_style_gen.h **** }
  66:..\..\..\arduinoLCD\test\Pain Drain\libraries\lvgl\src\widgets\../core/lv_obj_style_gen.h **** 
  67:..\..\..\arduinoLCD\test\Pain Drain\libraries\lvgl\src\widgets\../core/lv_obj_style_gen.h **** static inline lv_coord_t lv_obj_get_style_translate_x(const struct _lv_obj_t * obj, uint32_t part)
  68:..\..\..\arduinoLCD\test\Pain Drain\libraries\lvgl\src\widgets\../core/lv_obj_style_gen.h **** {
  69:..\..\..\arduinoLCD\test\Pain Drain\libraries\lvgl\src\widgets\../core/lv_obj_style_gen.h ****     lv_style_value_t v = lv_obj_get_style_prop(obj, part, LV_STYLE_TRANSLATE_X);
  70:..\..\..\arduinoLCD\test\Pain Drain\libraries\lvgl\src\widgets\../core/lv_obj_style_gen.h ****     return (lv_coord_t)v.num;
  71:..\..\..\arduinoLCD\test\Pain Drain\libraries\lvgl\src\widgets\../core/lv_obj_style_gen.h **** }
  72:..\..\..\arduinoLCD\test\Pain Drain\libraries\lvgl\src\widgets\../core/lv_obj_style_gen.h **** 
  73:..\..\..\arduinoLCD\test\Pain Drain\libraries\lvgl\src\widgets\../core/lv_obj_style_gen.h **** static inline lv_coord_t lv_obj_get_style_translate_y(const struct _lv_obj_t * obj, uint32_t part)
  74:..\..\..\arduinoLCD\test\Pain Drain\libraries\lvgl\src\widgets\../core/lv_obj_style_gen.h **** {
  75:..\..\..\arduinoLCD\test\Pain Drain\libraries\lvgl\src\widgets\../core/lv_obj_style_gen.h ****     lv_style_value_t v = lv_obj_get_style_prop(obj, part, LV_STYLE_TRANSLATE_Y);
  76:..\..\..\arduinoLCD\test\Pain Drain\libraries\lvgl\src\widgets\../core/lv_obj_style_gen.h ****     return (lv_coord_t)v.num;
  77:..\..\..\arduinoLCD\test\Pain Drain\libraries\lvgl\src\widgets\../core/lv_obj_style_gen.h **** }
  78:..\..\..\arduinoLCD\test\Pain Drain\libraries\lvgl\src\widgets\../core/lv_obj_style_gen.h **** 
  79:..\..\..\arduinoLCD\test\Pain Drain\libraries\lvgl\src\widgets\../core/lv_obj_style_gen.h **** static inline lv_coord_t lv_obj_get_style_transform_zoom(const struct _lv_obj_t * obj, uint32_t par
  80:..\..\..\arduinoLCD\test\Pain Drain\libraries\lvgl\src\widgets\../core/lv_obj_style_gen.h **** {
  81:..\..\..\arduinoLCD\test\Pain Drain\libraries\lvgl\src\widgets\../core/lv_obj_style_gen.h ****     lv_style_value_t v = lv_obj_get_style_prop(obj, part, LV_STYLE_TRANSFORM_ZOOM);
  82:..\..\..\arduinoLCD\test\Pain Drain\libraries\lvgl\src\widgets\../core/lv_obj_style_gen.h ****     return (lv_coord_t)v.num;
  83:..\..\..\arduinoLCD\test\Pain Drain\libraries\lvgl\src\widgets\../core/lv_obj_style_gen.h **** }
  84:..\..\..\arduinoLCD\test\Pain Drain\libraries\lvgl\src\widgets\../core/lv_obj_style_gen.h **** 
  85:..\..\..\arduinoLCD\test\Pain Drain\libraries\lvgl\src\widgets\../core/lv_obj_style_gen.h **** static inline lv_coord_t lv_obj_get_style_transform_angle(const struct _lv_obj_t * obj, uint32_t pa
  86:..\..\..\arduinoLCD\test\Pain Drain\libraries\lvgl\src\widgets\../core/lv_obj_style_gen.h **** {
  87:..\..\..\arduinoLCD\test\Pain Drain\libraries\lvgl\src\widgets\../core/lv_obj_style_gen.h ****     lv_style_value_t v = lv_obj_get_style_prop(obj, part, LV_STYLE_TRANSFORM_ANGLE);
  88:..\..\..\arduinoLCD\test\Pain Drain\libraries\lvgl\src\widgets\../core/lv_obj_style_gen.h ****     return (lv_coord_t)v.num;
  89:..\..\..\arduinoLCD\test\Pain Drain\libraries\lvgl\src\widgets\../core/lv_obj_style_gen.h **** }
  90:..\..\..\arduinoLCD\test\Pain Drain\libraries\lvgl\src\widgets\../core/lv_obj_style_gen.h **** 
  91:..\..\..\arduinoLCD\test\Pain Drain\libraries\lvgl\src\widgets\../core/lv_obj_style_gen.h **** static inline lv_coord_t lv_obj_get_style_transform_pivot_x(const struct _lv_obj_t * obj, uint32_t 
  92:..\..\..\arduinoLCD\test\Pain Drain\libraries\lvgl\src\widgets\../core/lv_obj_style_gen.h **** {
  93:..\..\..\arduinoLCD\test\Pain Drain\libraries\lvgl\src\widgets\../core/lv_obj_style_gen.h ****     lv_style_value_t v = lv_obj_get_style_prop(obj, part, LV_STYLE_TRANSFORM_PIVOT_X);
  94:..\..\..\arduinoLCD\test\Pain Drain\libraries\lvgl\src\widgets\../core/lv_obj_style_gen.h ****     return (lv_coord_t)v.num;
  95:..\..\..\arduinoLCD\test\Pain Drain\libraries\lvgl\src\widgets\../core/lv_obj_style_gen.h **** }
  96:..\..\..\arduinoLCD\test\Pain Drain\libraries\lvgl\src\widgets\../core/lv_obj_style_gen.h **** 
  97:..\..\..\arduinoLCD\test\Pain Drain\libraries\lvgl\src\widgets\../core/lv_obj_style_gen.h **** static inline lv_coord_t lv_obj_get_style_transform_pivot_y(const struct _lv_obj_t * obj, uint32_t 
  98:..\..\..\arduinoLCD\test\Pain Drain\libraries\lvgl\src\widgets\../core/lv_obj_style_gen.h **** {
  99:..\..\..\arduinoLCD\test\Pain Drain\libraries\lvgl\src\widgets\../core/lv_obj_style_gen.h ****     lv_style_value_t v = lv_obj_get_style_prop(obj, part, LV_STYLE_TRANSFORM_PIVOT_Y);
 100:..\..\..\arduinoLCD\test\Pain Drain\libraries\lvgl\src\widgets\../core/lv_obj_style_gen.h ****     return (lv_coord_t)v.num;
 101:..\..\..\arduinoLCD\test\Pain Drain\libraries\lvgl\src\widgets\../core/lv_obj_style_gen.h **** }
 102:..\..\..\arduinoLCD\test\Pain Drain\libraries\lvgl\src\widgets\../core/lv_obj_style_gen.h **** 
 103:..\..\..\arduinoLCD\test\Pain Drain\libraries\lvgl\src\widgets\../core/lv_obj_style_gen.h **** static inline lv_coord_t lv_obj_get_style_pad_top(const struct _lv_obj_t * obj, uint32_t part)
 104:..\..\..\arduinoLCD\test\Pain Drain\libraries\lvgl\src\widgets\../core/lv_obj_style_gen.h **** {
 105:..\..\..\arduinoLCD\test\Pain Drain\libraries\lvgl\src\widgets\../core/lv_obj_style_gen.h ****     lv_style_value_t v = lv_obj_get_style_prop(obj, part, LV_STYLE_PAD_TOP);
 106:..\..\..\arduinoLCD\test\Pain Drain\libraries\lvgl\src\widgets\../core/lv_obj_style_gen.h ****     return (lv_coord_t)v.num;
 107:..\..\..\arduinoLCD\test\Pain Drain\libraries\lvgl\src\widgets\../core/lv_obj_style_gen.h **** }
 108:..\..\..\arduinoLCD\test\Pain Drain\libraries\lvgl\src\widgets\../core/lv_obj_style_gen.h **** 
 109:..\..\..\arduinoLCD\test\Pain Drain\libraries\lvgl\src\widgets\../core/lv_obj_style_gen.h **** static inline lv_coord_t lv_obj_get_style_pad_bottom(const struct _lv_obj_t * obj, uint32_t part)
 110:..\..\..\arduinoLCD\test\Pain Drain\libraries\lvgl\src\widgets\../core/lv_obj_style_gen.h **** {
 111:..\..\..\arduinoLCD\test\Pain Drain\libraries\lvgl\src\widgets\../core/lv_obj_style_gen.h ****     lv_style_value_t v = lv_obj_get_style_prop(obj, part, LV_STYLE_PAD_BOTTOM);
ARM GAS  C:\Users\haske\AppData\Local\Temp\ccxUXv8a.s 			page 25


 112:..\..\..\arduinoLCD\test\Pain Drain\libraries\lvgl\src\widgets\../core/lv_obj_style_gen.h ****     return (lv_coord_t)v.num;
 113:..\..\..\arduinoLCD\test\Pain Drain\libraries\lvgl\src\widgets\../core/lv_obj_style_gen.h **** }
 114:..\..\..\arduinoLCD\test\Pain Drain\libraries\lvgl\src\widgets\../core/lv_obj_style_gen.h **** 
 115:..\..\..\arduinoLCD\test\Pain Drain\libraries\lvgl\src\widgets\../core/lv_obj_style_gen.h **** static inline lv_coord_t lv_obj_get_style_pad_left(const struct _lv_obj_t * obj, uint32_t part)
 116:..\..\..\arduinoLCD\test\Pain Drain\libraries\lvgl\src\widgets\../core/lv_obj_style_gen.h **** {
 117:..\..\..\arduinoLCD\test\Pain Drain\libraries\lvgl\src\widgets\../core/lv_obj_style_gen.h ****     lv_style_value_t v = lv_obj_get_style_prop(obj, part, LV_STYLE_PAD_LEFT);
 118:..\..\..\arduinoLCD\test\Pain Drain\libraries\lvgl\src\widgets\../core/lv_obj_style_gen.h ****     return (lv_coord_t)v.num;
 119:..\..\..\arduinoLCD\test\Pain Drain\libraries\lvgl\src\widgets\../core/lv_obj_style_gen.h **** }
 120:..\..\..\arduinoLCD\test\Pain Drain\libraries\lvgl\src\widgets\../core/lv_obj_style_gen.h **** 
 121:..\..\..\arduinoLCD\test\Pain Drain\libraries\lvgl\src\widgets\../core/lv_obj_style_gen.h **** static inline lv_coord_t lv_obj_get_style_pad_right(const struct _lv_obj_t * obj, uint32_t part)
 122:..\..\..\arduinoLCD\test\Pain Drain\libraries\lvgl\src\widgets\../core/lv_obj_style_gen.h **** {
 123:..\..\..\arduinoLCD\test\Pain Drain\libraries\lvgl\src\widgets\../core/lv_obj_style_gen.h ****     lv_style_value_t v = lv_obj_get_style_prop(obj, part, LV_STYLE_PAD_RIGHT);
 124:..\..\..\arduinoLCD\test\Pain Drain\libraries\lvgl\src\widgets\../core/lv_obj_style_gen.h ****     return (lv_coord_t)v.num;
 125:..\..\..\arduinoLCD\test\Pain Drain\libraries\lvgl\src\widgets\../core/lv_obj_style_gen.h **** }
 126:..\..\..\arduinoLCD\test\Pain Drain\libraries\lvgl\src\widgets\../core/lv_obj_style_gen.h **** 
 127:..\..\..\arduinoLCD\test\Pain Drain\libraries\lvgl\src\widgets\../core/lv_obj_style_gen.h **** static inline lv_coord_t lv_obj_get_style_pad_row(const struct _lv_obj_t * obj, uint32_t part)
 128:..\..\..\arduinoLCD\test\Pain Drain\libraries\lvgl\src\widgets\../core/lv_obj_style_gen.h **** {
 129:..\..\..\arduinoLCD\test\Pain Drain\libraries\lvgl\src\widgets\../core/lv_obj_style_gen.h ****     lv_style_value_t v = lv_obj_get_style_prop(obj, part, LV_STYLE_PAD_ROW);
 130:..\..\..\arduinoLCD\test\Pain Drain\libraries\lvgl\src\widgets\../core/lv_obj_style_gen.h ****     return (lv_coord_t)v.num;
 131:..\..\..\arduinoLCD\test\Pain Drain\libraries\lvgl\src\widgets\../core/lv_obj_style_gen.h **** }
 132:..\..\..\arduinoLCD\test\Pain Drain\libraries\lvgl\src\widgets\../core/lv_obj_style_gen.h **** 
 133:..\..\..\arduinoLCD\test\Pain Drain\libraries\lvgl\src\widgets\../core/lv_obj_style_gen.h **** static inline lv_coord_t lv_obj_get_style_pad_column(const struct _lv_obj_t * obj, uint32_t part)
 134:..\..\..\arduinoLCD\test\Pain Drain\libraries\lvgl\src\widgets\../core/lv_obj_style_gen.h **** {
 135:..\..\..\arduinoLCD\test\Pain Drain\libraries\lvgl\src\widgets\../core/lv_obj_style_gen.h ****     lv_style_value_t v = lv_obj_get_style_prop(obj, part, LV_STYLE_PAD_COLUMN);
 136:..\..\..\arduinoLCD\test\Pain Drain\libraries\lvgl\src\widgets\../core/lv_obj_style_gen.h ****     return (lv_coord_t)v.num;
 137:..\..\..\arduinoLCD\test\Pain Drain\libraries\lvgl\src\widgets\../core/lv_obj_style_gen.h **** }
 138:..\..\..\arduinoLCD\test\Pain Drain\libraries\lvgl\src\widgets\../core/lv_obj_style_gen.h **** 
 139:..\..\..\arduinoLCD\test\Pain Drain\libraries\lvgl\src\widgets\../core/lv_obj_style_gen.h **** static inline lv_color_t lv_obj_get_style_bg_color(const struct _lv_obj_t * obj, uint32_t part)
 140:..\..\..\arduinoLCD\test\Pain Drain\libraries\lvgl\src\widgets\../core/lv_obj_style_gen.h **** {
 141:..\..\..\arduinoLCD\test\Pain Drain\libraries\lvgl\src\widgets\../core/lv_obj_style_gen.h ****     lv_style_value_t v = lv_obj_get_style_prop(obj, part, LV_STYLE_BG_COLOR);
 142:..\..\..\arduinoLCD\test\Pain Drain\libraries\lvgl\src\widgets\../core/lv_obj_style_gen.h ****     return v.color;
 143:..\..\..\arduinoLCD\test\Pain Drain\libraries\lvgl\src\widgets\../core/lv_obj_style_gen.h **** }
 144:..\..\..\arduinoLCD\test\Pain Drain\libraries\lvgl\src\widgets\../core/lv_obj_style_gen.h **** 
 145:..\..\..\arduinoLCD\test\Pain Drain\libraries\lvgl\src\widgets\../core/lv_obj_style_gen.h **** static inline lv_color_t lv_obj_get_style_bg_color_filtered(const struct _lv_obj_t * obj, uint32_t 
 146:..\..\..\arduinoLCD\test\Pain Drain\libraries\lvgl\src\widgets\../core/lv_obj_style_gen.h **** {
 147:..\..\..\arduinoLCD\test\Pain Drain\libraries\lvgl\src\widgets\../core/lv_obj_style_gen.h ****     lv_style_value_t v = _lv_obj_style_apply_color_filter(obj, part, lv_obj_get_style_prop(obj, par
 148:..\..\..\arduinoLCD\test\Pain Drain\libraries\lvgl\src\widgets\../core/lv_obj_style_gen.h ****     return v.color;
 149:..\..\..\arduinoLCD\test\Pain Drain\libraries\lvgl\src\widgets\../core/lv_obj_style_gen.h **** }
 150:..\..\..\arduinoLCD\test\Pain Drain\libraries\lvgl\src\widgets\../core/lv_obj_style_gen.h **** 
 151:..\..\..\arduinoLCD\test\Pain Drain\libraries\lvgl\src\widgets\../core/lv_obj_style_gen.h **** static inline lv_opa_t lv_obj_get_style_bg_opa(const struct _lv_obj_t * obj, uint32_t part)
 152:..\..\..\arduinoLCD\test\Pain Drain\libraries\lvgl\src\widgets\../core/lv_obj_style_gen.h **** {
 153:..\..\..\arduinoLCD\test\Pain Drain\libraries\lvgl\src\widgets\../core/lv_obj_style_gen.h ****     lv_style_value_t v = lv_obj_get_style_prop(obj, part, LV_STYLE_BG_OPA);
 154:..\..\..\arduinoLCD\test\Pain Drain\libraries\lvgl\src\widgets\../core/lv_obj_style_gen.h ****     return (lv_opa_t)v.num;
 155:..\..\..\arduinoLCD\test\Pain Drain\libraries\lvgl\src\widgets\../core/lv_obj_style_gen.h **** }
 156:..\..\..\arduinoLCD\test\Pain Drain\libraries\lvgl\src\widgets\../core/lv_obj_style_gen.h **** 
 157:..\..\..\arduinoLCD\test\Pain Drain\libraries\lvgl\src\widgets\../core/lv_obj_style_gen.h **** static inline lv_color_t lv_obj_get_style_bg_grad_color(const struct _lv_obj_t * obj, uint32_t part
 158:..\..\..\arduinoLCD\test\Pain Drain\libraries\lvgl\src\widgets\../core/lv_obj_style_gen.h **** {
 159:..\..\..\arduinoLCD\test\Pain Drain\libraries\lvgl\src\widgets\../core/lv_obj_style_gen.h ****     lv_style_value_t v = lv_obj_get_style_prop(obj, part, LV_STYLE_BG_GRAD_COLOR);
 160:..\..\..\arduinoLCD\test\Pain Drain\libraries\lvgl\src\widgets\../core/lv_obj_style_gen.h ****     return v.color;
 161:..\..\..\arduinoLCD\test\Pain Drain\libraries\lvgl\src\widgets\../core/lv_obj_style_gen.h **** }
 162:..\..\..\arduinoLCD\test\Pain Drain\libraries\lvgl\src\widgets\../core/lv_obj_style_gen.h **** 
 163:..\..\..\arduinoLCD\test\Pain Drain\libraries\lvgl\src\widgets\../core/lv_obj_style_gen.h **** static inline lv_color_t lv_obj_get_style_bg_grad_color_filtered(const struct _lv_obj_t * obj, uint
 164:..\..\..\arduinoLCD\test\Pain Drain\libraries\lvgl\src\widgets\../core/lv_obj_style_gen.h **** {
 165:..\..\..\arduinoLCD\test\Pain Drain\libraries\lvgl\src\widgets\../core/lv_obj_style_gen.h ****     lv_style_value_t v = _lv_obj_style_apply_color_filter(obj, part, lv_obj_get_style_prop(obj, par
 166:..\..\..\arduinoLCD\test\Pain Drain\libraries\lvgl\src\widgets\../core/lv_obj_style_gen.h ****     return v.color;
 167:..\..\..\arduinoLCD\test\Pain Drain\libraries\lvgl\src\widgets\../core/lv_obj_style_gen.h **** }
 168:..\..\..\arduinoLCD\test\Pain Drain\libraries\lvgl\src\widgets\../core/lv_obj_style_gen.h **** 
ARM GAS  C:\Users\haske\AppData\Local\Temp\ccxUXv8a.s 			page 26


 169:..\..\..\arduinoLCD\test\Pain Drain\libraries\lvgl\src\widgets\../core/lv_obj_style_gen.h **** static inline lv_grad_dir_t lv_obj_get_style_bg_grad_dir(const struct _lv_obj_t * obj, uint32_t par
 170:..\..\..\arduinoLCD\test\Pain Drain\libraries\lvgl\src\widgets\../core/lv_obj_style_gen.h **** {
 171:..\..\..\arduinoLCD\test\Pain Drain\libraries\lvgl\src\widgets\../core/lv_obj_style_gen.h ****     lv_style_value_t v = lv_obj_get_style_prop(obj, part, LV_STYLE_BG_GRAD_DIR);
 172:..\..\..\arduinoLCD\test\Pain Drain\libraries\lvgl\src\widgets\../core/lv_obj_style_gen.h ****     return (lv_grad_dir_t)v.num;
 173:..\..\..\arduinoLCD\test\Pain Drain\libraries\lvgl\src\widgets\../core/lv_obj_style_gen.h **** }
 174:..\..\..\arduinoLCD\test\Pain Drain\libraries\lvgl\src\widgets\../core/lv_obj_style_gen.h **** 
 175:..\..\..\arduinoLCD\test\Pain Drain\libraries\lvgl\src\widgets\../core/lv_obj_style_gen.h **** static inline lv_coord_t lv_obj_get_style_bg_main_stop(const struct _lv_obj_t * obj, uint32_t part)
 176:..\..\..\arduinoLCD\test\Pain Drain\libraries\lvgl\src\widgets\../core/lv_obj_style_gen.h **** {
 177:..\..\..\arduinoLCD\test\Pain Drain\libraries\lvgl\src\widgets\../core/lv_obj_style_gen.h ****     lv_style_value_t v = lv_obj_get_style_prop(obj, part, LV_STYLE_BG_MAIN_STOP);
 178:..\..\..\arduinoLCD\test\Pain Drain\libraries\lvgl\src\widgets\../core/lv_obj_style_gen.h ****     return (lv_coord_t)v.num;
 179:..\..\..\arduinoLCD\test\Pain Drain\libraries\lvgl\src\widgets\../core/lv_obj_style_gen.h **** }
 180:..\..\..\arduinoLCD\test\Pain Drain\libraries\lvgl\src\widgets\../core/lv_obj_style_gen.h **** 
 181:..\..\..\arduinoLCD\test\Pain Drain\libraries\lvgl\src\widgets\../core/lv_obj_style_gen.h **** static inline lv_coord_t lv_obj_get_style_bg_grad_stop(const struct _lv_obj_t * obj, uint32_t part)
 182:..\..\..\arduinoLCD\test\Pain Drain\libraries\lvgl\src\widgets\../core/lv_obj_style_gen.h **** {
 183:..\..\..\arduinoLCD\test\Pain Drain\libraries\lvgl\src\widgets\../core/lv_obj_style_gen.h ****     lv_style_value_t v = lv_obj_get_style_prop(obj, part, LV_STYLE_BG_GRAD_STOP);
 184:..\..\..\arduinoLCD\test\Pain Drain\libraries\lvgl\src\widgets\../core/lv_obj_style_gen.h ****     return (lv_coord_t)v.num;
 185:..\..\..\arduinoLCD\test\Pain Drain\libraries\lvgl\src\widgets\../core/lv_obj_style_gen.h **** }
 186:..\..\..\arduinoLCD\test\Pain Drain\libraries\lvgl\src\widgets\../core/lv_obj_style_gen.h **** 
 187:..\..\..\arduinoLCD\test\Pain Drain\libraries\lvgl\src\widgets\../core/lv_obj_style_gen.h **** static inline const lv_grad_dsc_t * lv_obj_get_style_bg_grad(const struct _lv_obj_t * obj, uint32_t
 188:..\..\..\arduinoLCD\test\Pain Drain\libraries\lvgl\src\widgets\../core/lv_obj_style_gen.h **** {
 189:..\..\..\arduinoLCD\test\Pain Drain\libraries\lvgl\src\widgets\../core/lv_obj_style_gen.h ****     lv_style_value_t v = lv_obj_get_style_prop(obj, part, LV_STYLE_BG_GRAD);
 190:..\..\..\arduinoLCD\test\Pain Drain\libraries\lvgl\src\widgets\../core/lv_obj_style_gen.h ****     return (const lv_grad_dsc_t *)v.ptr;
 191:..\..\..\arduinoLCD\test\Pain Drain\libraries\lvgl\src\widgets\../core/lv_obj_style_gen.h **** }
 192:..\..\..\arduinoLCD\test\Pain Drain\libraries\lvgl\src\widgets\../core/lv_obj_style_gen.h **** 
 193:..\..\..\arduinoLCD\test\Pain Drain\libraries\lvgl\src\widgets\../core/lv_obj_style_gen.h **** static inline lv_dither_mode_t lv_obj_get_style_bg_dither_mode(const struct _lv_obj_t * obj, uint32
 194:..\..\..\arduinoLCD\test\Pain Drain\libraries\lvgl\src\widgets\../core/lv_obj_style_gen.h **** {
 195:..\..\..\arduinoLCD\test\Pain Drain\libraries\lvgl\src\widgets\../core/lv_obj_style_gen.h ****     lv_style_value_t v = lv_obj_get_style_prop(obj, part, LV_STYLE_BG_DITHER_MODE);
 196:..\..\..\arduinoLCD\test\Pain Drain\libraries\lvgl\src\widgets\../core/lv_obj_style_gen.h ****     return (lv_dither_mode_t)v.num;
 197:..\..\..\arduinoLCD\test\Pain Drain\libraries\lvgl\src\widgets\../core/lv_obj_style_gen.h **** }
 198:..\..\..\arduinoLCD\test\Pain Drain\libraries\lvgl\src\widgets\../core/lv_obj_style_gen.h **** 
 199:..\..\..\arduinoLCD\test\Pain Drain\libraries\lvgl\src\widgets\../core/lv_obj_style_gen.h **** static inline const void * lv_obj_get_style_bg_img_src(const struct _lv_obj_t * obj, uint32_t part)
 200:..\..\..\arduinoLCD\test\Pain Drain\libraries\lvgl\src\widgets\../core/lv_obj_style_gen.h **** {
 201:..\..\..\arduinoLCD\test\Pain Drain\libraries\lvgl\src\widgets\../core/lv_obj_style_gen.h ****     lv_style_value_t v = lv_obj_get_style_prop(obj, part, LV_STYLE_BG_IMG_SRC);
 202:..\..\..\arduinoLCD\test\Pain Drain\libraries\lvgl\src\widgets\../core/lv_obj_style_gen.h ****     return (const void *)v.ptr;
 203:..\..\..\arduinoLCD\test\Pain Drain\libraries\lvgl\src\widgets\../core/lv_obj_style_gen.h **** }
 204:..\..\..\arduinoLCD\test\Pain Drain\libraries\lvgl\src\widgets\../core/lv_obj_style_gen.h **** 
 205:..\..\..\arduinoLCD\test\Pain Drain\libraries\lvgl\src\widgets\../core/lv_obj_style_gen.h **** static inline lv_opa_t lv_obj_get_style_bg_img_opa(const struct _lv_obj_t * obj, uint32_t part)
 206:..\..\..\arduinoLCD\test\Pain Drain\libraries\lvgl\src\widgets\../core/lv_obj_style_gen.h **** {
 207:..\..\..\arduinoLCD\test\Pain Drain\libraries\lvgl\src\widgets\../core/lv_obj_style_gen.h ****     lv_style_value_t v = lv_obj_get_style_prop(obj, part, LV_STYLE_BG_IMG_OPA);
 208:..\..\..\arduinoLCD\test\Pain Drain\libraries\lvgl\src\widgets\../core/lv_obj_style_gen.h ****     return (lv_opa_t)v.num;
 209:..\..\..\arduinoLCD\test\Pain Drain\libraries\lvgl\src\widgets\../core/lv_obj_style_gen.h **** }
 210:..\..\..\arduinoLCD\test\Pain Drain\libraries\lvgl\src\widgets\../core/lv_obj_style_gen.h **** 
 211:..\..\..\arduinoLCD\test\Pain Drain\libraries\lvgl\src\widgets\../core/lv_obj_style_gen.h **** static inline lv_color_t lv_obj_get_style_bg_img_recolor(const struct _lv_obj_t * obj, uint32_t par
 212:..\..\..\arduinoLCD\test\Pain Drain\libraries\lvgl\src\widgets\../core/lv_obj_style_gen.h **** {
 213:..\..\..\arduinoLCD\test\Pain Drain\libraries\lvgl\src\widgets\../core/lv_obj_style_gen.h ****     lv_style_value_t v = lv_obj_get_style_prop(obj, part, LV_STYLE_BG_IMG_RECOLOR);
 214:..\..\..\arduinoLCD\test\Pain Drain\libraries\lvgl\src\widgets\../core/lv_obj_style_gen.h ****     return v.color;
 215:..\..\..\arduinoLCD\test\Pain Drain\libraries\lvgl\src\widgets\../core/lv_obj_style_gen.h **** }
 216:..\..\..\arduinoLCD\test\Pain Drain\libraries\lvgl\src\widgets\../core/lv_obj_style_gen.h **** 
 217:..\..\..\arduinoLCD\test\Pain Drain\libraries\lvgl\src\widgets\../core/lv_obj_style_gen.h **** static inline lv_color_t lv_obj_get_style_bg_img_recolor_filtered(const struct _lv_obj_t * obj, uin
 218:..\..\..\arduinoLCD\test\Pain Drain\libraries\lvgl\src\widgets\../core/lv_obj_style_gen.h **** {
 219:..\..\..\arduinoLCD\test\Pain Drain\libraries\lvgl\src\widgets\../core/lv_obj_style_gen.h ****     lv_style_value_t v = _lv_obj_style_apply_color_filter(obj, part, lv_obj_get_style_prop(obj, par
 220:..\..\..\arduinoLCD\test\Pain Drain\libraries\lvgl\src\widgets\../core/lv_obj_style_gen.h ****     return v.color;
 221:..\..\..\arduinoLCD\test\Pain Drain\libraries\lvgl\src\widgets\../core/lv_obj_style_gen.h **** }
 222:..\..\..\arduinoLCD\test\Pain Drain\libraries\lvgl\src\widgets\../core/lv_obj_style_gen.h **** 
 223:..\..\..\arduinoLCD\test\Pain Drain\libraries\lvgl\src\widgets\../core/lv_obj_style_gen.h **** static inline lv_opa_t lv_obj_get_style_bg_img_recolor_opa(const struct _lv_obj_t * obj, uint32_t p
 224:..\..\..\arduinoLCD\test\Pain Drain\libraries\lvgl\src\widgets\../core/lv_obj_style_gen.h **** {
 225:..\..\..\arduinoLCD\test\Pain Drain\libraries\lvgl\src\widgets\../core/lv_obj_style_gen.h ****     lv_style_value_t v = lv_obj_get_style_prop(obj, part, LV_STYLE_BG_IMG_RECOLOR_OPA);
ARM GAS  C:\Users\haske\AppData\Local\Temp\ccxUXv8a.s 			page 27


 226:..\..\..\arduinoLCD\test\Pain Drain\libraries\lvgl\src\widgets\../core/lv_obj_style_gen.h ****     return (lv_opa_t)v.num;
 227:..\..\..\arduinoLCD\test\Pain Drain\libraries\lvgl\src\widgets\../core/lv_obj_style_gen.h **** }
 228:..\..\..\arduinoLCD\test\Pain Drain\libraries\lvgl\src\widgets\../core/lv_obj_style_gen.h **** 
 229:..\..\..\arduinoLCD\test\Pain Drain\libraries\lvgl\src\widgets\../core/lv_obj_style_gen.h **** static inline bool lv_obj_get_style_bg_img_tiled(const struct _lv_obj_t * obj, uint32_t part)
 230:..\..\..\arduinoLCD\test\Pain Drain\libraries\lvgl\src\widgets\../core/lv_obj_style_gen.h **** {
 231:..\..\..\arduinoLCD\test\Pain Drain\libraries\lvgl\src\widgets\../core/lv_obj_style_gen.h ****     lv_style_value_t v = lv_obj_get_style_prop(obj, part, LV_STYLE_BG_IMG_TILED);
 232:..\..\..\arduinoLCD\test\Pain Drain\libraries\lvgl\src\widgets\../core/lv_obj_style_gen.h ****     return (bool)v.num;
 233:..\..\..\arduinoLCD\test\Pain Drain\libraries\lvgl\src\widgets\../core/lv_obj_style_gen.h **** }
 234:..\..\..\arduinoLCD\test\Pain Drain\libraries\lvgl\src\widgets\../core/lv_obj_style_gen.h **** 
 235:..\..\..\arduinoLCD\test\Pain Drain\libraries\lvgl\src\widgets\../core/lv_obj_style_gen.h **** static inline lv_color_t lv_obj_get_style_border_color(const struct _lv_obj_t * obj, uint32_t part)
 236:..\..\..\arduinoLCD\test\Pain Drain\libraries\lvgl\src\widgets\../core/lv_obj_style_gen.h **** {
 237:..\..\..\arduinoLCD\test\Pain Drain\libraries\lvgl\src\widgets\../core/lv_obj_style_gen.h ****     lv_style_value_t v = lv_obj_get_style_prop(obj, part, LV_STYLE_BORDER_COLOR);
 238:..\..\..\arduinoLCD\test\Pain Drain\libraries\lvgl\src\widgets\../core/lv_obj_style_gen.h ****     return v.color;
 239:..\..\..\arduinoLCD\test\Pain Drain\libraries\lvgl\src\widgets\../core/lv_obj_style_gen.h **** }
 240:..\..\..\arduinoLCD\test\Pain Drain\libraries\lvgl\src\widgets\../core/lv_obj_style_gen.h **** 
 241:..\..\..\arduinoLCD\test\Pain Drain\libraries\lvgl\src\widgets\../core/lv_obj_style_gen.h **** static inline lv_color_t lv_obj_get_style_border_color_filtered(const struct _lv_obj_t * obj, uint3
 242:..\..\..\arduinoLCD\test\Pain Drain\libraries\lvgl\src\widgets\../core/lv_obj_style_gen.h **** {
 243:..\..\..\arduinoLCD\test\Pain Drain\libraries\lvgl\src\widgets\../core/lv_obj_style_gen.h ****     lv_style_value_t v = _lv_obj_style_apply_color_filter(obj, part, lv_obj_get_style_prop(obj, par
 244:..\..\..\arduinoLCD\test\Pain Drain\libraries\lvgl\src\widgets\../core/lv_obj_style_gen.h ****     return v.color;
 245:..\..\..\arduinoLCD\test\Pain Drain\libraries\lvgl\src\widgets\../core/lv_obj_style_gen.h **** }
 246:..\..\..\arduinoLCD\test\Pain Drain\libraries\lvgl\src\widgets\../core/lv_obj_style_gen.h **** 
 247:..\..\..\arduinoLCD\test\Pain Drain\libraries\lvgl\src\widgets\../core/lv_obj_style_gen.h **** static inline lv_opa_t lv_obj_get_style_border_opa(const struct _lv_obj_t * obj, uint32_t part)
 248:..\..\..\arduinoLCD\test\Pain Drain\libraries\lvgl\src\widgets\../core/lv_obj_style_gen.h **** {
 249:..\..\..\arduinoLCD\test\Pain Drain\libraries\lvgl\src\widgets\../core/lv_obj_style_gen.h ****     lv_style_value_t v = lv_obj_get_style_prop(obj, part, LV_STYLE_BORDER_OPA);
 250:..\..\..\arduinoLCD\test\Pain Drain\libraries\lvgl\src\widgets\../core/lv_obj_style_gen.h ****     return (lv_opa_t)v.num;
 251:..\..\..\arduinoLCD\test\Pain Drain\libraries\lvgl\src\widgets\../core/lv_obj_style_gen.h **** }
 252:..\..\..\arduinoLCD\test\Pain Drain\libraries\lvgl\src\widgets\../core/lv_obj_style_gen.h **** 
 253:..\..\..\arduinoLCD\test\Pain Drain\libraries\lvgl\src\widgets\../core/lv_obj_style_gen.h **** static inline lv_coord_t lv_obj_get_style_border_width(const struct _lv_obj_t * obj, uint32_t part)
 254:..\..\..\arduinoLCD\test\Pain Drain\libraries\lvgl\src\widgets\../core/lv_obj_style_gen.h **** {
 255:..\..\..\arduinoLCD\test\Pain Drain\libraries\lvgl\src\widgets\../core/lv_obj_style_gen.h ****     lv_style_value_t v = lv_obj_get_style_prop(obj, part, LV_STYLE_BORDER_WIDTH);
 256:..\..\..\arduinoLCD\test\Pain Drain\libraries\lvgl\src\widgets\../core/lv_obj_style_gen.h ****     return (lv_coord_t)v.num;
 257:..\..\..\arduinoLCD\test\Pain Drain\libraries\lvgl\src\widgets\../core/lv_obj_style_gen.h **** }
 258:..\..\..\arduinoLCD\test\Pain Drain\libraries\lvgl\src\widgets\../core/lv_obj_style_gen.h **** 
 259:..\..\..\arduinoLCD\test\Pain Drain\libraries\lvgl\src\widgets\../core/lv_obj_style_gen.h **** static inline lv_border_side_t lv_obj_get_style_border_side(const struct _lv_obj_t * obj, uint32_t 
 260:..\..\..\arduinoLCD\test\Pain Drain\libraries\lvgl\src\widgets\../core/lv_obj_style_gen.h **** {
 261:..\..\..\arduinoLCD\test\Pain Drain\libraries\lvgl\src\widgets\../core/lv_obj_style_gen.h ****     lv_style_value_t v = lv_obj_get_style_prop(obj, part, LV_STYLE_BORDER_SIDE);
 262:..\..\..\arduinoLCD\test\Pain Drain\libraries\lvgl\src\widgets\../core/lv_obj_style_gen.h ****     return (lv_border_side_t)v.num;
 263:..\..\..\arduinoLCD\test\Pain Drain\libraries\lvgl\src\widgets\../core/lv_obj_style_gen.h **** }
 264:..\..\..\arduinoLCD\test\Pain Drain\libraries\lvgl\src\widgets\../core/lv_obj_style_gen.h **** 
 265:..\..\..\arduinoLCD\test\Pain Drain\libraries\lvgl\src\widgets\../core/lv_obj_style_gen.h **** static inline bool lv_obj_get_style_border_post(const struct _lv_obj_t * obj, uint32_t part)
 266:..\..\..\arduinoLCD\test\Pain Drain\libraries\lvgl\src\widgets\../core/lv_obj_style_gen.h **** {
 267:..\..\..\arduinoLCD\test\Pain Drain\libraries\lvgl\src\widgets\../core/lv_obj_style_gen.h ****     lv_style_value_t v = lv_obj_get_style_prop(obj, part, LV_STYLE_BORDER_POST);
 268:..\..\..\arduinoLCD\test\Pain Drain\libraries\lvgl\src\widgets\../core/lv_obj_style_gen.h ****     return (bool)v.num;
 269:..\..\..\arduinoLCD\test\Pain Drain\libraries\lvgl\src\widgets\../core/lv_obj_style_gen.h **** }
 270:..\..\..\arduinoLCD\test\Pain Drain\libraries\lvgl\src\widgets\../core/lv_obj_style_gen.h **** 
 271:..\..\..\arduinoLCD\test\Pain Drain\libraries\lvgl\src\widgets\../core/lv_obj_style_gen.h **** static inline lv_coord_t lv_obj_get_style_outline_width(const struct _lv_obj_t * obj, uint32_t part
 272:..\..\..\arduinoLCD\test\Pain Drain\libraries\lvgl\src\widgets\../core/lv_obj_style_gen.h **** {
 273:..\..\..\arduinoLCD\test\Pain Drain\libraries\lvgl\src\widgets\../core/lv_obj_style_gen.h ****     lv_style_value_t v = lv_obj_get_style_prop(obj, part, LV_STYLE_OUTLINE_WIDTH);
 274:..\..\..\arduinoLCD\test\Pain Drain\libraries\lvgl\src\widgets\../core/lv_obj_style_gen.h ****     return (lv_coord_t)v.num;
 275:..\..\..\arduinoLCD\test\Pain Drain\libraries\lvgl\src\widgets\../core/lv_obj_style_gen.h **** }
 276:..\..\..\arduinoLCD\test\Pain Drain\libraries\lvgl\src\widgets\../core/lv_obj_style_gen.h **** 
 277:..\..\..\arduinoLCD\test\Pain Drain\libraries\lvgl\src\widgets\../core/lv_obj_style_gen.h **** static inline lv_color_t lv_obj_get_style_outline_color(const struct _lv_obj_t * obj, uint32_t part
 278:..\..\..\arduinoLCD\test\Pain Drain\libraries\lvgl\src\widgets\../core/lv_obj_style_gen.h **** {
 279:..\..\..\arduinoLCD\test\Pain Drain\libraries\lvgl\src\widgets\../core/lv_obj_style_gen.h ****     lv_style_value_t v = lv_obj_get_style_prop(obj, part, LV_STYLE_OUTLINE_COLOR);
 280:..\..\..\arduinoLCD\test\Pain Drain\libraries\lvgl\src\widgets\../core/lv_obj_style_gen.h ****     return v.color;
 281:..\..\..\arduinoLCD\test\Pain Drain\libraries\lvgl\src\widgets\../core/lv_obj_style_gen.h **** }
 282:..\..\..\arduinoLCD\test\Pain Drain\libraries\lvgl\src\widgets\../core/lv_obj_style_gen.h **** 
ARM GAS  C:\Users\haske\AppData\Local\Temp\ccxUXv8a.s 			page 28


 283:..\..\..\arduinoLCD\test\Pain Drain\libraries\lvgl\src\widgets\../core/lv_obj_style_gen.h **** static inline lv_color_t lv_obj_get_style_outline_color_filtered(const struct _lv_obj_t * obj, uint
 284:..\..\..\arduinoLCD\test\Pain Drain\libraries\lvgl\src\widgets\../core/lv_obj_style_gen.h **** {
 285:..\..\..\arduinoLCD\test\Pain Drain\libraries\lvgl\src\widgets\../core/lv_obj_style_gen.h ****     lv_style_value_t v = _lv_obj_style_apply_color_filter(obj, part, lv_obj_get_style_prop(obj, par
 286:..\..\..\arduinoLCD\test\Pain Drain\libraries\lvgl\src\widgets\../core/lv_obj_style_gen.h ****     return v.color;
 287:..\..\..\arduinoLCD\test\Pain Drain\libraries\lvgl\src\widgets\../core/lv_obj_style_gen.h **** }
 288:..\..\..\arduinoLCD\test\Pain Drain\libraries\lvgl\src\widgets\../core/lv_obj_style_gen.h **** 
 289:..\..\..\arduinoLCD\test\Pain Drain\libraries\lvgl\src\widgets\../core/lv_obj_style_gen.h **** static inline lv_opa_t lv_obj_get_style_outline_opa(const struct _lv_obj_t * obj, uint32_t part)
 290:..\..\..\arduinoLCD\test\Pain Drain\libraries\lvgl\src\widgets\../core/lv_obj_style_gen.h **** {
 291:..\..\..\arduinoLCD\test\Pain Drain\libraries\lvgl\src\widgets\../core/lv_obj_style_gen.h ****     lv_style_value_t v = lv_obj_get_style_prop(obj, part, LV_STYLE_OUTLINE_OPA);
 292:..\..\..\arduinoLCD\test\Pain Drain\libraries\lvgl\src\widgets\../core/lv_obj_style_gen.h ****     return (lv_opa_t)v.num;
 293:..\..\..\arduinoLCD\test\Pain Drain\libraries\lvgl\src\widgets\../core/lv_obj_style_gen.h **** }
 294:..\..\..\arduinoLCD\test\Pain Drain\libraries\lvgl\src\widgets\../core/lv_obj_style_gen.h **** 
 295:..\..\..\arduinoLCD\test\Pain Drain\libraries\lvgl\src\widgets\../core/lv_obj_style_gen.h **** static inline lv_coord_t lv_obj_get_style_outline_pad(const struct _lv_obj_t * obj, uint32_t part)
 296:..\..\..\arduinoLCD\test\Pain Drain\libraries\lvgl\src\widgets\../core/lv_obj_style_gen.h **** {
 297:..\..\..\arduinoLCD\test\Pain Drain\libraries\lvgl\src\widgets\../core/lv_obj_style_gen.h ****     lv_style_value_t v = lv_obj_get_style_prop(obj, part, LV_STYLE_OUTLINE_PAD);
 298:..\..\..\arduinoLCD\test\Pain Drain\libraries\lvgl\src\widgets\../core/lv_obj_style_gen.h ****     return (lv_coord_t)v.num;
 299:..\..\..\arduinoLCD\test\Pain Drain\libraries\lvgl\src\widgets\../core/lv_obj_style_gen.h **** }
 300:..\..\..\arduinoLCD\test\Pain Drain\libraries\lvgl\src\widgets\../core/lv_obj_style_gen.h **** 
 301:..\..\..\arduinoLCD\test\Pain Drain\libraries\lvgl\src\widgets\../core/lv_obj_style_gen.h **** static inline lv_coord_t lv_obj_get_style_shadow_width(const struct _lv_obj_t * obj, uint32_t part)
 302:..\..\..\arduinoLCD\test\Pain Drain\libraries\lvgl\src\widgets\../core/lv_obj_style_gen.h **** {
 303:..\..\..\arduinoLCD\test\Pain Drain\libraries\lvgl\src\widgets\../core/lv_obj_style_gen.h ****     lv_style_value_t v = lv_obj_get_style_prop(obj, part, LV_STYLE_SHADOW_WIDTH);
 304:..\..\..\arduinoLCD\test\Pain Drain\libraries\lvgl\src\widgets\../core/lv_obj_style_gen.h ****     return (lv_coord_t)v.num;
 305:..\..\..\arduinoLCD\test\Pain Drain\libraries\lvgl\src\widgets\../core/lv_obj_style_gen.h **** }
 306:..\..\..\arduinoLCD\test\Pain Drain\libraries\lvgl\src\widgets\../core/lv_obj_style_gen.h **** 
 307:..\..\..\arduinoLCD\test\Pain Drain\libraries\lvgl\src\widgets\../core/lv_obj_style_gen.h **** static inline lv_coord_t lv_obj_get_style_shadow_ofs_x(const struct _lv_obj_t * obj, uint32_t part)
 308:..\..\..\arduinoLCD\test\Pain Drain\libraries\lvgl\src\widgets\../core/lv_obj_style_gen.h **** {
 309:..\..\..\arduinoLCD\test\Pain Drain\libraries\lvgl\src\widgets\../core/lv_obj_style_gen.h ****     lv_style_value_t v = lv_obj_get_style_prop(obj, part, LV_STYLE_SHADOW_OFS_X);
 310:..\..\..\arduinoLCD\test\Pain Drain\libraries\lvgl\src\widgets\../core/lv_obj_style_gen.h ****     return (lv_coord_t)v.num;
 311:..\..\..\arduinoLCD\test\Pain Drain\libraries\lvgl\src\widgets\../core/lv_obj_style_gen.h **** }
 312:..\..\..\arduinoLCD\test\Pain Drain\libraries\lvgl\src\widgets\../core/lv_obj_style_gen.h **** 
 313:..\..\..\arduinoLCD\test\Pain Drain\libraries\lvgl\src\widgets\../core/lv_obj_style_gen.h **** static inline lv_coord_t lv_obj_get_style_shadow_ofs_y(const struct _lv_obj_t * obj, uint32_t part)
 314:..\..\..\arduinoLCD\test\Pain Drain\libraries\lvgl\src\widgets\../core/lv_obj_style_gen.h **** {
 315:..\..\..\arduinoLCD\test\Pain Drain\libraries\lvgl\src\widgets\../core/lv_obj_style_gen.h ****     lv_style_value_t v = lv_obj_get_style_prop(obj, part, LV_STYLE_SHADOW_OFS_Y);
 316:..\..\..\arduinoLCD\test\Pain Drain\libraries\lvgl\src\widgets\../core/lv_obj_style_gen.h ****     return (lv_coord_t)v.num;
 317:..\..\..\arduinoLCD\test\Pain Drain\libraries\lvgl\src\widgets\../core/lv_obj_style_gen.h **** }
 318:..\..\..\arduinoLCD\test\Pain Drain\libraries\lvgl\src\widgets\../core/lv_obj_style_gen.h **** 
 319:..\..\..\arduinoLCD\test\Pain Drain\libraries\lvgl\src\widgets\../core/lv_obj_style_gen.h **** static inline lv_coord_t lv_obj_get_style_shadow_spread(const struct _lv_obj_t * obj, uint32_t part
 320:..\..\..\arduinoLCD\test\Pain Drain\libraries\lvgl\src\widgets\../core/lv_obj_style_gen.h **** {
 321:..\..\..\arduinoLCD\test\Pain Drain\libraries\lvgl\src\widgets\../core/lv_obj_style_gen.h ****     lv_style_value_t v = lv_obj_get_style_prop(obj, part, LV_STYLE_SHADOW_SPREAD);
 322:..\..\..\arduinoLCD\test\Pain Drain\libraries\lvgl\src\widgets\../core/lv_obj_style_gen.h ****     return (lv_coord_t)v.num;
 323:..\..\..\arduinoLCD\test\Pain Drain\libraries\lvgl\src\widgets\../core/lv_obj_style_gen.h **** }
 324:..\..\..\arduinoLCD\test\Pain Drain\libraries\lvgl\src\widgets\../core/lv_obj_style_gen.h **** 
 325:..\..\..\arduinoLCD\test\Pain Drain\libraries\lvgl\src\widgets\../core/lv_obj_style_gen.h **** static inline lv_color_t lv_obj_get_style_shadow_color(const struct _lv_obj_t * obj, uint32_t part)
 326:..\..\..\arduinoLCD\test\Pain Drain\libraries\lvgl\src\widgets\../core/lv_obj_style_gen.h **** {
 327:..\..\..\arduinoLCD\test\Pain Drain\libraries\lvgl\src\widgets\../core/lv_obj_style_gen.h ****     lv_style_value_t v = lv_obj_get_style_prop(obj, part, LV_STYLE_SHADOW_COLOR);
 328:..\..\..\arduinoLCD\test\Pain Drain\libraries\lvgl\src\widgets\../core/lv_obj_style_gen.h ****     return v.color;
 329:..\..\..\arduinoLCD\test\Pain Drain\libraries\lvgl\src\widgets\../core/lv_obj_style_gen.h **** }
 330:..\..\..\arduinoLCD\test\Pain Drain\libraries\lvgl\src\widgets\../core/lv_obj_style_gen.h **** 
 331:..\..\..\arduinoLCD\test\Pain Drain\libraries\lvgl\src\widgets\../core/lv_obj_style_gen.h **** static inline lv_color_t lv_obj_get_style_shadow_color_filtered(const struct _lv_obj_t * obj, uint3
 332:..\..\..\arduinoLCD\test\Pain Drain\libraries\lvgl\src\widgets\../core/lv_obj_style_gen.h **** {
 333:..\..\..\arduinoLCD\test\Pain Drain\libraries\lvgl\src\widgets\../core/lv_obj_style_gen.h ****     lv_style_value_t v = _lv_obj_style_apply_color_filter(obj, part, lv_obj_get_style_prop(obj, par
 334:..\..\..\arduinoLCD\test\Pain Drain\libraries\lvgl\src\widgets\../core/lv_obj_style_gen.h ****     return v.color;
 335:..\..\..\arduinoLCD\test\Pain Drain\libraries\lvgl\src\widgets\../core/lv_obj_style_gen.h **** }
 336:..\..\..\arduinoLCD\test\Pain Drain\libraries\lvgl\src\widgets\../core/lv_obj_style_gen.h **** 
 337:..\..\..\arduinoLCD\test\Pain Drain\libraries\lvgl\src\widgets\../core/lv_obj_style_gen.h **** static inline lv_opa_t lv_obj_get_style_shadow_opa(const struct _lv_obj_t * obj, uint32_t part)
 338:..\..\..\arduinoLCD\test\Pain Drain\libraries\lvgl\src\widgets\../core/lv_obj_style_gen.h **** {
 339:..\..\..\arduinoLCD\test\Pain Drain\libraries\lvgl\src\widgets\../core/lv_obj_style_gen.h ****     lv_style_value_t v = lv_obj_get_style_prop(obj, part, LV_STYLE_SHADOW_OPA);
ARM GAS  C:\Users\haske\AppData\Local\Temp\ccxUXv8a.s 			page 29


 340:..\..\..\arduinoLCD\test\Pain Drain\libraries\lvgl\src\widgets\../core/lv_obj_style_gen.h ****     return (lv_opa_t)v.num;
 341:..\..\..\arduinoLCD\test\Pain Drain\libraries\lvgl\src\widgets\../core/lv_obj_style_gen.h **** }
 342:..\..\..\arduinoLCD\test\Pain Drain\libraries\lvgl\src\widgets\../core/lv_obj_style_gen.h **** 
 343:..\..\..\arduinoLCD\test\Pain Drain\libraries\lvgl\src\widgets\../core/lv_obj_style_gen.h **** static inline lv_opa_t lv_obj_get_style_img_opa(const struct _lv_obj_t * obj, uint32_t part)
 344:..\..\..\arduinoLCD\test\Pain Drain\libraries\lvgl\src\widgets\../core/lv_obj_style_gen.h **** {
 345:..\..\..\arduinoLCD\test\Pain Drain\libraries\lvgl\src\widgets\../core/lv_obj_style_gen.h ****     lv_style_value_t v = lv_obj_get_style_prop(obj, part, LV_STYLE_IMG_OPA);
 346:..\..\..\arduinoLCD\test\Pain Drain\libraries\lvgl\src\widgets\../core/lv_obj_style_gen.h ****     return (lv_opa_t)v.num;
 347:..\..\..\arduinoLCD\test\Pain Drain\libraries\lvgl\src\widgets\../core/lv_obj_style_gen.h **** }
 348:..\..\..\arduinoLCD\test\Pain Drain\libraries\lvgl\src\widgets\../core/lv_obj_style_gen.h **** 
 349:..\..\..\arduinoLCD\test\Pain Drain\libraries\lvgl\src\widgets\../core/lv_obj_style_gen.h **** static inline lv_color_t lv_obj_get_style_img_recolor(const struct _lv_obj_t * obj, uint32_t part)
 350:..\..\..\arduinoLCD\test\Pain Drain\libraries\lvgl\src\widgets\../core/lv_obj_style_gen.h **** {
 351:..\..\..\arduinoLCD\test\Pain Drain\libraries\lvgl\src\widgets\../core/lv_obj_style_gen.h ****     lv_style_value_t v = lv_obj_get_style_prop(obj, part, LV_STYLE_IMG_RECOLOR);
 392              		.loc 2 351 0
 393 0008 4722     		movs	r2, #71
 394              	.LVL52:
 395 000a 0021     		movs	r1, #0
 396              	.LVL53:
 397 000c FFF7FEFF 		bl	lv_obj_get_style_prop
 398              	.LVL54:
 399 0010 0300     		movs	r3, r0
 400              	.LVL55:
 401              	.LBE27:
 402              	.LBE26:
 123:..\..\..\arduinoLCD\test\Pain Drain\libraries\lvgl\src\widgets/lv_canvas.c **** }
 403              		.loc 1 123 0
 404 0012 2000     		movs	r0, r4
 405 0014 3C30     		adds	r0, r0, #60
 406 0016 3200     		movs	r2, r6
 407 0018 2900     		movs	r1, r5
 408 001a FFF7FEFF 		bl	lv_img_buf_get_px_color
 409              	.LVL56:
 124:..\..\..\arduinoLCD\test\Pain Drain\libraries\lvgl\src\widgets/lv_canvas.c **** 
 410              		.loc 1 124 0
 411              		@ sp needed
 412              	.LVL57:
 413 001e 70BD     		pop	{r4, r5, r6, pc}
 414              		.cfi_endproc
 415              	.LFE165:
 416              		.size	lv_canvas_get_px, .-lv_canvas_get_px
 417              		.section	.text.lv_canvas_get_img,"ax",%progbits
 418              		.align	2
 419              		.global	lv_canvas_get_img
 420              		.code	16
 421              		.thumb_func
 422              		.type	lv_canvas_get_img, %function
 423              	lv_canvas_get_img:
 424              	.LFB166:
 127:..\..\..\arduinoLCD\test\Pain Drain\libraries\lvgl\src\widgets/lv_canvas.c ****     LV_ASSERT_OBJ(obj, MY_CLASS);
 425              		.loc 1 127 0
 426              		.cfi_startproc
 427              		@ args = 0, pretend = 0, frame = 0
 428              		@ frame_needed = 0, uses_anonymous_args = 0
 429              		@ link register save eliminated.
 430              	.LVL58:
 131:..\..\..\arduinoLCD\test\Pain Drain\libraries\lvgl\src\widgets/lv_canvas.c **** }
 431              		.loc 1 131 0
 432 0000 3C30     		adds	r0, r0, #60
ARM GAS  C:\Users\haske\AppData\Local\Temp\ccxUXv8a.s 			page 30


 433              	.LVL59:
 132:..\..\..\arduinoLCD\test\Pain Drain\libraries\lvgl\src\widgets/lv_canvas.c **** 
 434              		.loc 1 132 0
 435              		@ sp needed
 436 0002 7047     		bx	lr
 437              		.cfi_endproc
 438              	.LFE166:
 439              		.size	lv_canvas_get_img, .-lv_canvas_get_img
 440              		.section	.text.init_fake_disp,"ax",%progbits
 441              		.align	2
 442              		.code	16
 443              		.thumb_func
 444              		.type	init_fake_disp, %function
 445              	init_fake_disp:
 446              	.LFB180:
 796:..\..\..\arduinoLCD\test\Pain Drain\libraries\lvgl\src\widgets/lv_canvas.c ****     lv_img_dsc_t * dsc = lv_canvas_get_img(canvas);
 447              		.loc 1 796 0
 448              		.cfi_startproc
 449              		@ args = 0, pretend = 0, frame = 8
 450              		@ frame_needed = 0, uses_anonymous_args = 0
 451              	.LVL60:
 452 0000 F0B5     		push	{r4, r5, r6, r7, lr}
 453              		.cfi_def_cfa_offset 20
 454              		.cfi_offset 4, -20
 455              		.cfi_offset 5, -16
 456              		.cfi_offset 6, -12
 457              		.cfi_offset 7, -8
 458              		.cfi_offset 14, -4
 459 0002 83B0     		sub	sp, sp, #12
 460              		.cfi_def_cfa_offset 32
 461 0004 0F00     		movs	r7, r1
 462 0006 1400     		movs	r4, r2
 463 0008 0192     		str	r2, [sp, #4]
 464 000a 1D00     		movs	r5, r3
 797:..\..\..\arduinoLCD\test\Pain Drain\libraries\lvgl\src\widgets/lv_canvas.c **** 
 465              		.loc 1 797 0
 466 000c FFF7FEFF 		bl	lv_canvas_get_img
 467              	.LVL61:
 468 0010 0600     		movs	r6, r0
 469              	.LVL62:
 799:..\..\..\arduinoLCD\test\Pain Drain\libraries\lvgl\src\widgets/lv_canvas.c ****     clip_area->x2 = dsc->header.w - 1;
 470              		.loc 1 799 0
 471 0012 0022     		movs	r2, #0
 472 0014 2A80     		strh	r2, [r5]
 800:..\..\..\arduinoLCD\test\Pain Drain\libraries\lvgl\src\widgets/lv_canvas.c ****     clip_area->y1 = 0;
 473              		.loc 1 800 0
 474 0016 0368     		ldr	r3, [r0]
 475 0018 DB02     		lsls	r3, r3, #11
 476 001a 5B0D     		lsrs	r3, r3, #21
 477 001c 013B     		subs	r3, r3, #1
 478 001e AB80     		strh	r3, [r5, #4]
 801:..\..\..\arduinoLCD\test\Pain Drain\libraries\lvgl\src\widgets/lv_canvas.c ****     clip_area->y2 = dsc->header.h - 1;
 479              		.loc 1 801 0
 480 0020 6A80     		strh	r2, [r5, #2]
 802:..\..\..\arduinoLCD\test\Pain Drain\libraries\lvgl\src\widgets/lv_canvas.c **** 
 481              		.loc 1 802 0
 482 0022 4388     		ldrh	r3, [r0, #2]
ARM GAS  C:\Users\haske\AppData\Local\Temp\ccxUXv8a.s 			page 31


 483 0024 5B09     		lsrs	r3, r3, #5
 484 0026 013B     		subs	r3, r3, #1
 485 0028 EB80     		strh	r3, [r5, #6]
 805:..\..\..\arduinoLCD\test\Pain Drain\libraries\lvgl\src\widgets/lv_canvas.c ****     disp->driver = drv;
 486              		.loc 1 805 0
 487 002a AE21     		movs	r1, #174
 488 002c 4900     		lsls	r1, r1, #1
 489 002e 3800     		movs	r0, r7
 490              	.LVL63:
 491 0030 FFF7FEFF 		bl	lv_memset_00
 492              	.LVL64:
 806:..\..\..\arduinoLCD\test\Pain Drain\libraries\lvgl\src\widgets/lv_canvas.c **** 
 493              		.loc 1 806 0
 494 0034 3C60     		str	r4, [r7]
 808:..\..\..\arduinoLCD\test\Pain Drain\libraries\lvgl\src\widgets/lv_canvas.c ****     disp->driver->hor_res = dsc->header.w;
 495              		.loc 1 808 0
 496 0036 2000     		movs	r0, r4
 497 0038 FFF7FEFF 		bl	lv_disp_drv_init
 498              	.LVL65:
 809:..\..\..\arduinoLCD\test\Pain Drain\libraries\lvgl\src\widgets/lv_canvas.c ****     disp->driver->ver_res = dsc->header.h;
 499              		.loc 1 809 0
 500 003c 3368     		ldr	r3, [r6]
 501 003e DB02     		lsls	r3, r3, #11
 502 0040 5B0D     		lsrs	r3, r3, #21
 503 0042 3A68     		ldr	r2, [r7]
 504 0044 1380     		strh	r3, [r2]
 810:..\..\..\arduinoLCD\test\Pain Drain\libraries\lvgl\src\widgets/lv_canvas.c **** 
 505              		.loc 1 810 0
 506 0046 7388     		ldrh	r3, [r6, #2]
 507 0048 5B09     		lsrs	r3, r3, #5
 508 004a 3A68     		ldr	r2, [r7]
 509 004c 5380     		strh	r3, [r2, #2]
 812:..\..\..\arduinoLCD\test\Pain Drain\libraries\lvgl\src\widgets/lv_canvas.c ****     LV_ASSERT_MALLOC(draw_ctx);
 510              		.loc 1 812 0
 511 004e 5820     		movs	r0, #88
 512 0050 FFF7FEFF 		bl	lv_mem_alloc
 513              	.LVL66:
 514 0054 041E     		subs	r4, r0, #0
 515              	.LVL67:
 813:..\..\..\arduinoLCD\test\Pain Drain\libraries\lvgl\src\widgets/lv_canvas.c ****     if(draw_ctx == NULL)  return;
 516              		.loc 1 813 0
 517 0056 00D1     		bne	.L20
 518              	.L21:
 519 0058 FEE7     		b	.L21
 520              	.L20:
 814:..\..\..\arduinoLCD\test\Pain Drain\libraries\lvgl\src\widgets/lv_canvas.c ****     lv_draw_sw_init_ctx(drv, draw_ctx);
 521              		.loc 1 814 0
 522 005a 0028     		cmp	r0, #0
 523 005c 0FD0     		beq	.L19
 815:..\..\..\arduinoLCD\test\Pain Drain\libraries\lvgl\src\widgets/lv_canvas.c ****     disp->driver->draw_ctx = draw_ctx;
 524              		.loc 1 815 0
 525 005e 0100     		movs	r1, r0
 526 0060 0198     		ldr	r0, [sp, #4]
 527              	.LVL68:
 528 0062 FFF7FEFF 		bl	lv_draw_sw_init_ctx
 529              	.LVL69:
 816:..\..\..\arduinoLCD\test\Pain Drain\libraries\lvgl\src\widgets/lv_canvas.c ****     draw_ctx->clip_area = clip_area;
ARM GAS  C:\Users\haske\AppData\Local\Temp\ccxUXv8a.s 			page 32


 530              		.loc 1 816 0
 531 0066 3B68     		ldr	r3, [r7]
 532 0068 DC63     		str	r4, [r3, #60]
 817:..\..\..\arduinoLCD\test\Pain Drain\libraries\lvgl\src\widgets/lv_canvas.c ****     draw_ctx->buf_area = clip_area;
 533              		.loc 1 817 0
 534 006a A560     		str	r5, [r4, #8]
 818:..\..\..\arduinoLCD\test\Pain Drain\libraries\lvgl\src\widgets/lv_canvas.c ****     draw_ctx->buf = (void *)dsc->data;
 535              		.loc 1 818 0
 536 006c 6560     		str	r5, [r4, #4]
 819:..\..\..\arduinoLCD\test\Pain Drain\libraries\lvgl\src\widgets/lv_canvas.c **** 
 537              		.loc 1 819 0
 538 006e B368     		ldr	r3, [r6, #8]
 539 0070 2360     		str	r3, [r4]
 821:..\..\..\arduinoLCD\test\Pain Drain\libraries\lvgl\src\widgets/lv_canvas.c ****     if(LV_COLOR_SCREEN_TRANSP && dsc->header.cf != LV_IMG_CF_TRUE_COLOR_ALPHA) {
 540              		.loc 1 821 0
 541 0072 3868     		ldr	r0, [r7]
 542 0074 3178     		ldrb	r1, [r6]
 543 0076 C906     		lsls	r1, r1, #27
 544 0078 C90E     		lsrs	r1, r1, #27
 545 007a FFF7FEFF 		bl	lv_disp_drv_use_generic_set_px_cb
 546              	.LVL70:
 547              	.L19:
 825:..\..\..\arduinoLCD\test\Pain Drain\libraries\lvgl\src\widgets/lv_canvas.c **** 
 548              		.loc 1 825 0
 549 007e 03B0     		add	sp, sp, #12
 550              		@ sp needed
 551              	.LVL71:
 552              	.LVL72:
 553              	.LVL73:
 554              	.LVL74:
 555 0080 F0BD     		pop	{r4, r5, r6, r7, pc}
 556              		.cfi_endproc
 557              	.LFE180:
 558              		.size	init_fake_disp, .-init_fake_disp
 559 0082 C046     		.section	.text.lv_canvas_copy_buf,"ax",%progbits
 560              		.align	2
 561              		.global	lv_canvas_copy_buf
 562              		.code	16
 563              		.thumb_func
 564              		.type	lv_canvas_copy_buf, %function
 565              	lv_canvas_copy_buf:
 566              	.LFB167:
 139:..\..\..\arduinoLCD\test\Pain Drain\libraries\lvgl\src\widgets/lv_canvas.c ****     LV_ASSERT_OBJ(obj, MY_CLASS);
 567              		.loc 1 139 0
 568              		.cfi_startproc
 569              		@ args = 8, pretend = 0, frame = 8
 570              		@ frame_needed = 0, uses_anonymous_args = 0
 571              	.LVL75:
 572 0000 F0B5     		push	{r4, r5, r6, r7, lr}
 573              		.cfi_def_cfa_offset 20
 574              		.cfi_offset 4, -20
 575              		.cfi_offset 5, -16
 576              		.cfi_offset 6, -12
 577              		.cfi_offset 7, -8
 578              		.cfi_offset 14, -4
 579 0002 5F46     		mov	r7, fp
 580 0004 5646     		mov	r6, r10
ARM GAS  C:\Users\haske\AppData\Local\Temp\ccxUXv8a.s 			page 33


 581 0006 4D46     		mov	r5, r9
 582 0008 E0B4     		push	{r5, r6, r7}
 583              		.cfi_def_cfa_offset 32
 584              		.cfi_offset 9, -32
 585              		.cfi_offset 10, -28
 586              		.cfi_offset 11, -24
 587 000a 82B0     		sub	sp, sp, #8
 588              		.cfi_def_cfa_offset 40
 589 000c 0600     		movs	r6, r0
 590 000e 8946     		mov	r9, r1
 591 0010 1400     		movs	r4, r2
 592 0012 1F00     		movs	r7, r3
 593 0014 0AAB     		add	r3, sp, #40
 594              	.LVL76:
 595 0016 0022     		movs	r2, #0
 596 0018 9B5E     		ldrsh	r3, [r3, r2]
 597              	.LVL77:
 598 001a 9A46     		mov	r10, r3
 599 001c 0BAB     		add	r3, sp, #44
 600              	.LVL78:
 601 001e 0022     		movs	r2, #0
 602 0020 9B5E     		ldrsh	r3, [r3, r2]
 603              	.LVL79:
 604 0022 9B46     		mov	fp, r3
 141:..\..\..\arduinoLCD\test\Pain Drain\libraries\lvgl\src\widgets/lv_canvas.c **** 
 605              		.loc 1 141 0
 606 0024 0029     		cmp	r1, #0
 607 0026 00D1     		bne	.L24
 608              	.L25:
 609 0028 FEE7     		b	.L25
 610              	.L24:
 611              	.LVL80:
 145:..\..\..\arduinoLCD\test\Pain Drain\libraries\lvgl\src\widgets/lv_canvas.c ****         LV_LOG_WARN("lv_canvas_copy_buf: x or y out of the canvas");
 612              		.loc 1 145 0
 613 002a 5346     		mov	r3, r10
 614 002c E218     		adds	r2, r4, r3
 615 002e 013A     		subs	r2, r2, #1
 616 0030 C36B     		ldr	r3, [r0, #60]
 617 0032 DB02     		lsls	r3, r3, #11
 618 0034 5B0D     		lsrs	r3, r3, #21
 619 0036 9A42     		cmp	r2, r3
 620 0038 2BDA     		bge	.L23
 145:..\..\..\arduinoLCD\test\Pain Drain\libraries\lvgl\src\widgets/lv_canvas.c ****         LV_LOG_WARN("lv_canvas_copy_buf: x or y out of the canvas");
 621              		.loc 1 145 0 is_stmt 0 discriminator 1
 622 003a 5B46     		mov	r3, fp
 623 003c DA19     		adds	r2, r3, r7
 624 003e 013A     		subs	r2, r2, #1
 625 0040 C38F     		ldrh	r3, [r0, #62]
 626 0042 5B09     		lsrs	r3, r3, #5
 627 0044 9A42     		cmp	r2, r3
 628 0046 24DA     		bge	.L23
 150:..\..\..\arduinoLCD\test\Pain Drain\libraries\lvgl\src\widgets/lv_canvas.c ****     uint32_t px        = canvas->dsc.header.w * y * px_size + x * px_size;
 629              		.loc 1 150 0 is_stmt 1
 630 0048 3C23     		movs	r3, #60
 631 004a C05C     		ldrb	r0, [r0, r3]
 632              	.LVL81:
 633 004c C006     		lsls	r0, r0, #27
ARM GAS  C:\Users\haske\AppData\Local\Temp\ccxUXv8a.s 			page 34


 634 004e C00E     		lsrs	r0, r0, #27
 635 0050 FFF7FEFF 		bl	lv_img_cf_get_px_size
 636              	.LVL82:
 637 0054 C508     		lsrs	r5, r0, #3
 638 0056 EDB2     		uxtb	r5, r5
 639              	.LVL83:
 151:..\..\..\arduinoLCD\test\Pain Drain\libraries\lvgl\src\widgets/lv_canvas.c ****     uint8_t * to_copy8 = (uint8_t *)to_copy;
 640              		.loc 1 151 0
 641 0058 F36B     		ldr	r3, [r6, #60]
 642 005a DB02     		lsls	r3, r3, #11
 643 005c 5B0D     		lsrs	r3, r3, #21
 644 005e 7B43     		muls	r3, r7
 645 0060 1C19     		adds	r4, r3, r4
 646 0062 6C43     		muls	r4, r5
 647              	.LVL84:
 154:..\..\..\arduinoLCD\test\Pain Drain\libraries\lvgl\src\widgets/lv_canvas.c ****         lv_memcpy((void *)&canvas->dsc.data[px], to_copy8, w * px_size);
 648              		.loc 1 154 0
 649 0064 0027     		movs	r7, #0
 650 0066 12E0     		b	.L27
 651              	.LVL85:
 652              	.L28:
 155:..\..\..\arduinoLCD\test\Pain Drain\libraries\lvgl\src\widgets/lv_canvas.c ****         px += canvas->dsc.header.w * px_size;
 653              		.loc 1 155 0 discriminator 3
 654 0068 736C     		ldr	r3, [r6, #68]
 655 006a 1819     		adds	r0, r3, r4
 656 006c 5346     		mov	r3, r10
 657 006e 6B43     		muls	r3, r5
 658 0070 0193     		str	r3, [sp, #4]
 659 0072 1A00     		movs	r2, r3
 660 0074 4946     		mov	r1, r9
 661 0076 FFF7FEFF 		bl	lv_memcpy
 662              	.LVL86:
 156:..\..\..\arduinoLCD\test\Pain Drain\libraries\lvgl\src\widgets/lv_canvas.c ****         to_copy8 += w * px_size;
 663              		.loc 1 156 0 discriminator 3
 664 007a F26B     		ldr	r2, [r6, #60]
 665 007c D302     		lsls	r3, r2, #11
 666 007e 5B0D     		lsrs	r3, r3, #21
 667 0080 6B43     		muls	r3, r5
 668 0082 E418     		adds	r4, r4, r3
 669              	.LVL87:
 157:..\..\..\arduinoLCD\test\Pain Drain\libraries\lvgl\src\widgets/lv_canvas.c ****     }
 670              		.loc 1 157 0 discriminator 3
 671 0084 019B     		ldr	r3, [sp, #4]
 672 0086 9C46     		mov	ip, r3
 673 0088 E144     		add	r9, r9, ip
 674              	.LVL88:
 154:..\..\..\arduinoLCD\test\Pain Drain\libraries\lvgl\src\widgets/lv_canvas.c ****         lv_memcpy((void *)&canvas->dsc.data[px], to_copy8, w * px_size);
 675              		.loc 1 154 0 discriminator 3
 676 008a 7B1C     		adds	r3, r7, #1
 677 008c 1FB2     		sxth	r7, r3
 678              	.LVL89:
 679              	.L27:
 154:..\..\..\arduinoLCD\test\Pain Drain\libraries\lvgl\src\widgets/lv_canvas.c ****         lv_memcpy((void *)&canvas->dsc.data[px], to_copy8, w * px_size);
 680              		.loc 1 154 0 is_stmt 0 discriminator 1
 681 008e 5F45     		cmp	r7, fp
 682 0090 EADB     		blt	.L28
 683              	.LVL90:
ARM GAS  C:\Users\haske\AppData\Local\Temp\ccxUXv8a.s 			page 35


 684              	.L23:
 159:..\..\..\arduinoLCD\test\Pain Drain\libraries\lvgl\src\widgets/lv_canvas.c **** 
 685              		.loc 1 159 0 is_stmt 1
 686 0092 02B0     		add	sp, sp, #8
 687              		@ sp needed
 688              	.LVL91:
 689 0094 1CBC     		pop	{r2, r3, r4}
 690 0096 9146     		mov	r9, r2
 691 0098 9A46     		mov	r10, r3
 692 009a A346     		mov	fp, r4
 693 009c F0BD     		pop	{r4, r5, r6, r7, pc}
 694              		.cfi_endproc
 695              	.LFE167:
 696              		.size	lv_canvas_copy_buf, .-lv_canvas_copy_buf
 697 009e C046     		.section	.text.lv_canvas_transform,"ax",%progbits
 698              		.align	2
 699              		.global	lv_canvas_transform
 700              		.code	16
 701              		.thumb_func
 702              		.type	lv_canvas_transform, %function
 703              	lv_canvas_transform:
 704              	.LFB168:
 164:..\..\..\arduinoLCD\test\Pain Drain\libraries\lvgl\src\widgets/lv_canvas.c **** #if LV_DRAW_COMPLEX
 705              		.loc 1 164 0
 706              		.cfi_startproc
 707              		@ args = 20, pretend = 0, frame = 48
 708              		@ frame_needed = 0, uses_anonymous_args = 0
 709              	.LVL92:
 710 0000 F0B5     		push	{r4, r5, r6, r7, lr}
 711              		.cfi_def_cfa_offset 20
 712              		.cfi_offset 4, -20
 713              		.cfi_offset 5, -16
 714              		.cfi_offset 6, -12
 715              		.cfi_offset 7, -8
 716              		.cfi_offset 14, -4
 717 0002 5F46     		mov	r7, fp
 718 0004 5646     		mov	r6, r10
 719 0006 4D46     		mov	r5, r9
 720 0008 4446     		mov	r4, r8
 721 000a F0B4     		push	{r4, r5, r6, r7}
 722              		.cfi_def_cfa_offset 36
 723              		.cfi_offset 8, -36
 724              		.cfi_offset 9, -32
 725              		.cfi_offset 10, -28
 726              		.cfi_offset 11, -24
 727 000c 93B0     		sub	sp, sp, #76
 728              		.cfi_def_cfa_offset 112
 729 000e 0700     		movs	r7, r0
 730 0010 8B46     		mov	fp, r1
 731 0012 9246     		mov	r10, r2
 732 0014 9846     		mov	r8, r3
 733 0016 1CAB     		add	r3, sp, #112
 734              	.LVL93:
 735 0018 0025     		movs	r5, #0
 736 001a 5D5F     		ldrsh	r5, [r3, r5]
 737              	.LVL94:
 738 001c 1DAB     		add	r3, sp, #116
ARM GAS  C:\Users\haske\AppData\Local\Temp\ccxUXv8a.s 			page 36


 739              	.LVL95:
 740 001e 0022     		movs	r2, #0
 741 0020 9B5E     		ldrsh	r3, [r3, r2]
 742              	.LVL96:
 743 0022 9946     		mov	r9, r3
 744 0024 20AB     		add	r3, sp, #128
 745              	.LVL97:
 746 0026 1E78     		ldrb	r6, [r3]
 167:..\..\..\arduinoLCD\test\Pain Drain\libraries\lvgl\src\widgets/lv_canvas.c **** 
 747              		.loc 1 167 0
 748 0028 0029     		cmp	r1, #0
 749 002a 00D1     		bne	.L30
 750              	.L31:
 751 002c FEE7     		b	.L31
 752              	.L30:
 753              	.LVL98:
 170:..\..\..\arduinoLCD\test\Pain Drain\libraries\lvgl\src\widgets/lv_canvas.c **** 
 754              		.loc 1 170 0
 755 002e 3C23     		movs	r3, #60
 756              	.LVL99:
 757 0030 9C46     		mov	ip, r3
 758 0032 8444     		add	ip, ip, r0
 759 0034 6346     		mov	r3, ip
 760 0036 0793     		str	r3, [sp, #28]
 761              	.LVL100:
 176:..\..\..\arduinoLCD\test\Pain Drain\libraries\lvgl\src\widgets/lv_canvas.c ****     draw_dsc.angle = angle;
 762              		.loc 1 176 0
 763 0038 0CAC     		add	r4, sp, #48
 764 003a 2000     		movs	r0, r4
 765              	.LVL101:
 766 003c FFF7FEFF 		bl	lv_draw_img_dsc_init
 767              	.LVL102:
 177:..\..\..\arduinoLCD\test\Pain Drain\libraries\lvgl\src\widgets/lv_canvas.c ****     draw_dsc.zoom = zoom;
 768              		.loc 1 177 0
 769 0040 5346     		mov	r3, r10
 770 0042 2380     		strh	r3, [r4]
 178:..\..\..\arduinoLCD\test\Pain Drain\libraries\lvgl\src\widgets/lv_canvas.c ****     draw_dsc.pivot.x = pivot_x;
 771              		.loc 1 178 0
 772 0044 4346     		mov	r3, r8
 773 0046 6380     		strh	r3, [r4, #2]
 179:..\..\..\arduinoLCD\test\Pain Drain\libraries\lvgl\src\widgets/lv_canvas.c ****     draw_dsc.pivot.y = pivot_y;
 774              		.loc 1 179 0
 775 0048 1E9B     		ldr	r3, [sp, #120]
 776 004a A380     		strh	r3, [r4, #4]
 180:..\..\..\arduinoLCD\test\Pain Drain\libraries\lvgl\src\widgets/lv_canvas.c ****     draw_dsc.antialias = antialias;
 777              		.loc 1 180 0
 778 004c 1F9B     		ldr	r3, [sp, #124]
 779 004e E380     		strh	r3, [r4, #6]
 181:..\..\..\arduinoLCD\test\Pain Drain\libraries\lvgl\src\widgets/lv_canvas.c **** 
 780              		.loc 1 181 0
 781 0050 0123     		movs	r3, #1
 782 0052 1E40     		ands	r6, r3
 783 0054 237D     		ldrb	r3, [r4, #20]
 784 0056 0122     		movs	r2, #1
 785 0058 9343     		bics	r3, r2
 786 005a 1E43     		orrs	r6, r3
 787 005c 2675     		strb	r6, [r4, #20]
ARM GAS  C:\Users\haske\AppData\Local\Temp\ccxUXv8a.s 			page 37


 184:..\..\..\arduinoLCD\test\Pain Drain\libraries\lvgl\src\widgets/lv_canvas.c ****     dest_area.x2 = dest_area.x1 + dest_img->header.w - 1;
 788              		.loc 1 184 0
 789 005e 6D42     		rsbs	r5, r5, #0
 790 0060 ADB2     		uxth	r5, r5
 791 0062 0AAB     		add	r3, sp, #40
 792 0064 1D80     		strh	r5, [r3]
 185:..\..\..\arduinoLCD\test\Pain Drain\libraries\lvgl\src\widgets/lv_canvas.c ****     dest_area.y1 = -offset_y;
 793              		.loc 1 185 0
 794 0066 FA6B     		ldr	r2, [r7, #60]
 795 0068 D002     		lsls	r0, r2, #11
 796 006a 400D     		lsrs	r0, r0, #21
 797 006c 4519     		adds	r5, r0, r5
 798 006e 013D     		subs	r5, r5, #1
 799 0070 9D80     		strh	r5, [r3, #4]
 186:..\..\..\arduinoLCD\test\Pain Drain\libraries\lvgl\src\widgets/lv_canvas.c ****     dest_area.y2 = -offset_y;
 800              		.loc 1 186 0
 801 0072 4A46     		mov	r2, r9
 802 0074 5242     		rsbs	r2, r2, #0
 803 0076 12B2     		sxth	r2, r2
 804 0078 5A80     		strh	r2, [r3, #2]
 187:..\..\..\arduinoLCD\test\Pain Drain\libraries\lvgl\src\widgets/lv_canvas.c **** 
 805              		.loc 1 187 0
 806 007a DA80     		strh	r2, [r3, #6]
 189:..\..\..\arduinoLCD\test\Pain Drain\libraries\lvgl\src\widgets/lv_canvas.c ****     lv_opa_t * abuf = lv_mem_alloc(dest_img->header.w * sizeof(lv_opa_t));
 807              		.loc 1 189 0
 808 007c 4000     		lsls	r0, r0, #1
 809 007e FFF7FEFF 		bl	lv_mem_alloc
 810              	.LVL103:
 811 0082 8046     		mov	r8, r0
 812              	.LVL104:
 190:..\..\..\arduinoLCD\test\Pain Drain\libraries\lvgl\src\widgets/lv_canvas.c ****     for(y = 0; y < dest_img->header.h; y++) {
 813              		.loc 1 190 0
 814 0084 FB6B     		ldr	r3, [r7, #60]
 815 0086 D802     		lsls	r0, r3, #11
 816              	.LVL105:
 817 0088 400D     		lsrs	r0, r0, #21
 818 008a FFF7FEFF 		bl	lv_mem_alloc
 819              	.LVL106:
 191:..\..\..\arduinoLCD\test\Pain Drain\libraries\lvgl\src\widgets/lv_canvas.c ****         if(y + offset_y >= 0) {
 820              		.loc 1 191 0
 821 008e 0023     		movs	r3, #0
 822 0090 9A46     		mov	r10, r3
 823 0092 3A00     		movs	r2, r7
 824 0094 0700     		movs	r7, r0
 825              	.LVL107:
 826 0096 4B46     		mov	r3, r9
 827 0098 D146     		mov	r9, r10
 828 009a C246     		mov	r10, r8
 829 009c 9846     		mov	r8, r3
 830              	.LVL108:
 831 009e 1600     		movs	r6, r2
 832 00a0 45E0     		b	.L32
 833              	.LVL109:
 834              	.L37:
 192:..\..\..\arduinoLCD\test\Pain Drain\libraries\lvgl\src\widgets/lv_canvas.c ****             lv_draw_sw_transform(NULL, &dest_area, src_img->data, src_img->header.w, src_img->heade
 835              		.loc 1 192 0
 836 00a2 4346     		mov	r3, r8
ARM GAS  C:\Users\haske\AppData\Local\Temp\ccxUXv8a.s 			page 38


 837 00a4 4A46     		mov	r2, r9
 838 00a6 D342     		cmn	r3, r2
 839 00a8 3ED4     		bmi	.L33
 840              	.LVL110:
 193:..\..\..\arduinoLCD\test\Pain Drain\libraries\lvgl\src\widgets/lv_canvas.c ****                                  &draw_dsc, canvas->dsc.header.cf, cbuf, abuf);
 841              		.loc 1 193 0
 842 00aa 5B46     		mov	r3, fp
 843 00ac 1B68     		ldr	r3, [r3]
 844 00ae DB02     		lsls	r3, r3, #11
 845 00b0 5A46     		mov	r2, fp
 846              	.LVL111:
 847 00b2 5188     		ldrh	r1, [r2, #2]
 848 00b4 5B0D     		lsrs	r3, r3, #21
 194:..\..\..\arduinoLCD\test\Pain Drain\libraries\lvgl\src\widgets/lv_canvas.c **** 
 849              		.loc 1 194 0
 850 00b6 3C22     		movs	r2, #60
 851 00b8 B25C     		ldrb	r2, [r6, r2]
 852 00ba D206     		lsls	r2, r2, #27
 853 00bc D20E     		lsrs	r2, r2, #27
 193:..\..\..\arduinoLCD\test\Pain Drain\libraries\lvgl\src\widgets/lv_canvas.c ****                                  &draw_dsc, canvas->dsc.header.cf, cbuf, abuf);
 854              		.loc 1 193 0
 855 00be 0597     		str	r7, [sp, #20]
 856 00c0 5046     		mov	r0, r10
 857 00c2 0490     		str	r0, [sp, #16]
 858 00c4 0392     		str	r2, [sp, #12]
 859 00c6 0CAA     		add	r2, sp, #48
 860 00c8 0292     		str	r2, [sp, #8]
 861 00ca 0193     		str	r3, [sp, #4]
 862 00cc 4A09     		lsrs	r2, r1, #5
 863 00ce 0092     		str	r2, [sp]
 864 00d0 5A46     		mov	r2, fp
 865 00d2 9268     		ldr	r2, [r2, #8]
 866 00d4 0AA9     		add	r1, sp, #40
 867 00d6 0020     		movs	r0, #0
 868 00d8 FFF7FEFF 		bl	lv_draw_sw_transform
 869              	.LVL112:
 196:..\..\..\arduinoLCD\test\Pain Drain\libraries\lvgl\src\widgets/lv_canvas.c ****                 if(abuf[x]) {
 870              		.loc 1 196 0
 871 00dc 0024     		movs	r4, #0
 872 00de 15E0     		b	.L34
 873              	.LVL113:
 874              	.L36:
 197:..\..\..\arduinoLCD\test\Pain Drain\libraries\lvgl\src\widgets/lv_canvas.c ****                     lv_img_buf_set_px_color(dest_img, x, y, cbuf[x]);
 875              		.loc 1 197 0
 876 00e0 3D19     		adds	r5, r7, r4
 877 00e2 2B78     		ldrb	r3, [r5]
 878 00e4 002B     		cmp	r3, #0
 879 00e6 10D0     		beq	.L35
 198:..\..\..\arduinoLCD\test\Pain Drain\libraries\lvgl\src\widgets/lv_canvas.c ****                     lv_img_buf_set_px_alpha(dest_img, x, y, abuf[x]);
 880              		.loc 1 198 0
 881 00e8 21B2     		sxth	r1, r4
 882 00ea 4B46     		mov	r3, r9
 883 00ec 1AB2     		sxth	r2, r3
 884 00ee 6300     		lsls	r3, r4, #1
 885 00f0 5046     		mov	r0, r10
 886 00f2 C35A     		ldrh	r3, [r0, r3]
 887 00f4 0992     		str	r2, [sp, #36]
ARM GAS  C:\Users\haske\AppData\Local\Temp\ccxUXv8a.s 			page 39


 888 00f6 0891     		str	r1, [sp, #32]
 889 00f8 0798     		ldr	r0, [sp, #28]
 890 00fa FFF7FEFF 		bl	lv_img_buf_set_px_color
 891              	.LVL114:
 199:..\..\..\arduinoLCD\test\Pain Drain\libraries\lvgl\src\widgets/lv_canvas.c ****                 }
 892              		.loc 1 199 0
 893 00fe 2B78     		ldrb	r3, [r5]
 894 0100 099A     		ldr	r2, [sp, #36]
 895 0102 0899     		ldr	r1, [sp, #32]
 896 0104 0798     		ldr	r0, [sp, #28]
 897 0106 FFF7FEFF 		bl	lv_img_buf_set_px_alpha
 898              	.LVL115:
 899              	.L35:
 196:..\..\..\arduinoLCD\test\Pain Drain\libraries\lvgl\src\widgets/lv_canvas.c ****                 if(abuf[x]) {
 900              		.loc 1 196 0 discriminator 2
 901 010a 0134     		adds	r4, r4, #1
 902              	.LVL116:
 903              	.L34:
 196:..\..\..\arduinoLCD\test\Pain Drain\libraries\lvgl\src\widgets/lv_canvas.c ****                 if(abuf[x]) {
 904              		.loc 1 196 0 is_stmt 0 discriminator 1
 905 010c F36B     		ldr	r3, [r6, #60]
 906 010e DB02     		lsls	r3, r3, #11
 907 0110 5B0D     		lsrs	r3, r3, #21
 908 0112 9C42     		cmp	r4, r3
 909 0114 E4DB     		blt	.L36
 203:..\..\..\arduinoLCD\test\Pain Drain\libraries\lvgl\src\widgets/lv_canvas.c ****             dest_area.y2++;
 910              		.loc 1 203 0 is_stmt 1
 911 0116 0AAB     		add	r3, sp, #40
 912 0118 0221     		movs	r1, #2
 913 011a 5A5E     		ldrsh	r2, [r3, r1]
 914 011c 0132     		adds	r2, r2, #1
 915 011e 5A80     		strh	r2, [r3, #2]
 204:..\..\..\arduinoLCD\test\Pain Drain\libraries\lvgl\src\widgets/lv_canvas.c ****         }
 916              		.loc 1 204 0
 917 0120 0621     		movs	r1, #6
 918 0122 5A5E     		ldrsh	r2, [r3, r1]
 919 0124 0132     		adds	r2, r2, #1
 920 0126 DA80     		strh	r2, [r3, #6]
 921              	.LVL117:
 922              	.L33:
 191:..\..\..\arduinoLCD\test\Pain Drain\libraries\lvgl\src\widgets/lv_canvas.c ****         if(y + offset_y >= 0) {
 923              		.loc 1 191 0 discriminator 2
 924 0128 0123     		movs	r3, #1
 925 012a 9C46     		mov	ip, r3
 926 012c E144     		add	r9, r9, ip
 927              	.LVL118:
 928              	.L32:
 191:..\..\..\arduinoLCD\test\Pain Drain\libraries\lvgl\src\widgets/lv_canvas.c ****         if(y + offset_y >= 0) {
 929              		.loc 1 191 0 is_stmt 0 discriminator 1
 930 012e F38F     		ldrh	r3, [r6, #62]
 931 0130 5B09     		lsrs	r3, r3, #5
 932 0132 9945     		cmp	r9, r3
 933 0134 B5DB     		blt	.L37
 934 0136 3300     		movs	r3, r6
 935 0138 3E00     		movs	r6, r7
 936              	.LVL119:
 937 013a 1F00     		movs	r7, r3
ARM GAS  C:\Users\haske\AppData\Local\Temp\ccxUXv8a.s 			page 40


 938              	.LVL120:
 207:..\..\..\arduinoLCD\test\Pain Drain\libraries\lvgl\src\widgets/lv_canvas.c ****     lv_mem_free(abuf);
 939              		.loc 1 207 0 is_stmt 1
 940 013c 5046     		mov	r0, r10
 941 013e FFF7FEFF 		bl	lv_mem_free
 942              	.LVL121:
 208:..\..\..\arduinoLCD\test\Pain Drain\libraries\lvgl\src\widgets/lv_canvas.c **** 
 943              		.loc 1 208 0
 944 0142 3000     		movs	r0, r6
 945 0144 FFF7FEFF 		bl	lv_mem_free
 946              	.LVL122:
 210:..\..\..\arduinoLCD\test\Pain Drain\libraries\lvgl\src\widgets/lv_canvas.c **** 
 947              		.loc 1 210 0
 948 0148 3800     		movs	r0, r7
 949 014a FFF7FEFF 		bl	lv_obj_invalidate
 950              	.LVL123:
 224:..\..\..\arduinoLCD\test\Pain Drain\libraries\lvgl\src\widgets/lv_canvas.c **** 
 951              		.loc 1 224 0
 952 014e 13B0     		add	sp, sp, #76
 953              		@ sp needed
 954              	.LVL124:
 955              	.LVL125:
 956              	.LVL126:
 957              	.LVL127:
 958              	.LVL128:
 959 0150 3CBC     		pop	{r2, r3, r4, r5}
 960 0152 9046     		mov	r8, r2
 961 0154 9946     		mov	r9, r3
 962 0156 A246     		mov	r10, r4
 963 0158 AB46     		mov	fp, r5
 964 015a F0BD     		pop	{r4, r5, r6, r7, pc}
 965              		.cfi_endproc
 966              	.LFE168:
 967              		.size	lv_canvas_transform, .-lv_canvas_transform
 968              		.global	__aeabi_uidiv
 969              		.section	.text.lv_canvas_blur_hor,"ax",%progbits
 970              		.align	2
 971              		.global	lv_canvas_blur_hor
 972              		.code	16
 973              		.thumb_func
 974              		.type	lv_canvas_blur_hor, %function
 975              	lv_canvas_blur_hor:
 976              	.LFB169:
 227:..\..\..\arduinoLCD\test\Pain Drain\libraries\lvgl\src\widgets/lv_canvas.c ****     LV_ASSERT_OBJ(obj, MY_CLASS);
 977              		.loc 1 227 0
 978              		.cfi_startproc
 979              		@ args = 0, pretend = 0, frame = 80
 980              		@ frame_needed = 0, uses_anonymous_args = 0
 981              	.LVL129:
 982 0000 F0B5     		push	{r4, r5, r6, r7, lr}
 983              		.cfi_def_cfa_offset 20
 984              		.cfi_offset 4, -20
 985              		.cfi_offset 5, -16
 986              		.cfi_offset 6, -12
 987              		.cfi_offset 7, -8
 988              		.cfi_offset 14, -4
 989 0002 5F46     		mov	r7, fp
ARM GAS  C:\Users\haske\AppData\Local\Temp\ccxUXv8a.s 			page 41


 990 0004 5646     		mov	r6, r10
 991 0006 4D46     		mov	r5, r9
 992 0008 4446     		mov	r4, r8
 993 000a F0B4     		push	{r4, r5, r6, r7}
 994              		.cfi_def_cfa_offset 36
 995              		.cfi_offset 8, -36
 996              		.cfi_offset 9, -32
 997              		.cfi_offset 10, -28
 998              		.cfi_offset 11, -24
 999 000c 95B0     		sub	sp, sp, #84
 1000              		.cfi_def_cfa_offset 120
 1001 000e 8146     		mov	r9, r0
 1002 0010 0692     		str	r2, [sp, #24]
 230:..\..\..\arduinoLCD\test\Pain Drain\libraries\lvgl\src\widgets/lv_canvas.c **** 
 1003              		.loc 1 230 0
 1004 0012 002A     		cmp	r2, #0
 1005 0014 00D1     		bne	.LCB1040
 1006 0016 A4E1     		b	.L38	@long jump
 1007              	.LCB1040:
 1008              	.LVL130:
 235:..\..\..\arduinoLCD\test\Pain Drain\libraries\lvgl\src\widgets/lv_canvas.c ****         lv_area_copy(&a, area);
 1009              		.loc 1 235 0
 1010 0018 0029     		cmp	r1, #0
 1011 001a 28D0     		beq	.L40
 1012              	.LVL131:
 1013              	.LBB28:
 1014              	.LBB29:
 1015              		.file 3 "c:\\projects\\paindrain\\arduinolcd\\test\\pain drain\\libraries\\lvgl\\src\\misc\\lv_are
   1:c:\projects\paindrain\arduinolcd\test\pain drain\libraries\lvgl\src\misc\lv_area.h **** /**
   2:c:\projects\paindrain\arduinolcd\test\pain drain\libraries\lvgl\src\misc\lv_area.h ****  * @file lv_area.h
   3:c:\projects\paindrain\arduinolcd\test\pain drain\libraries\lvgl\src\misc\lv_area.h ****  *
   4:c:\projects\paindrain\arduinolcd\test\pain drain\libraries\lvgl\src\misc\lv_area.h ****  */
   5:c:\projects\paindrain\arduinolcd\test\pain drain\libraries\lvgl\src\misc\lv_area.h **** 
   6:c:\projects\paindrain\arduinolcd\test\pain drain\libraries\lvgl\src\misc\lv_area.h **** #ifndef LV_AREA_H
   7:c:\projects\paindrain\arduinolcd\test\pain drain\libraries\lvgl\src\misc\lv_area.h **** #define LV_AREA_H
   8:c:\projects\paindrain\arduinolcd\test\pain drain\libraries\lvgl\src\misc\lv_area.h **** 
   9:c:\projects\paindrain\arduinolcd\test\pain drain\libraries\lvgl\src\misc\lv_area.h **** #ifdef __cplusplus
  10:c:\projects\paindrain\arduinolcd\test\pain drain\libraries\lvgl\src\misc\lv_area.h **** extern "C" {
  11:c:\projects\paindrain\arduinolcd\test\pain drain\libraries\lvgl\src\misc\lv_area.h **** #endif
  12:c:\projects\paindrain\arduinolcd\test\pain drain\libraries\lvgl\src\misc\lv_area.h **** 
  13:c:\projects\paindrain\arduinolcd\test\pain drain\libraries\lvgl\src\misc\lv_area.h **** /*********************
  14:c:\projects\paindrain\arduinolcd\test\pain drain\libraries\lvgl\src\misc\lv_area.h ****  *      INCLUDES
  15:c:\projects\paindrain\arduinolcd\test\pain drain\libraries\lvgl\src\misc\lv_area.h ****  *********************/
  16:c:\projects\paindrain\arduinolcd\test\pain drain\libraries\lvgl\src\misc\lv_area.h **** #include "../lv_conf_internal.h"
  17:c:\projects\paindrain\arduinolcd\test\pain drain\libraries\lvgl\src\misc\lv_area.h **** #include <stdbool.h>
  18:c:\projects\paindrain\arduinolcd\test\pain drain\libraries\lvgl\src\misc\lv_area.h **** #include <stdint.h>
  19:c:\projects\paindrain\arduinolcd\test\pain drain\libraries\lvgl\src\misc\lv_area.h **** 
  20:c:\projects\paindrain\arduinolcd\test\pain drain\libraries\lvgl\src\misc\lv_area.h **** /*********************
  21:c:\projects\paindrain\arduinolcd\test\pain drain\libraries\lvgl\src\misc\lv_area.h ****  *      DEFINES
  22:c:\projects\paindrain\arduinolcd\test\pain drain\libraries\lvgl\src\misc\lv_area.h ****  *********************/
  23:c:\projects\paindrain\arduinolcd\test\pain drain\libraries\lvgl\src\misc\lv_area.h **** 
  24:c:\projects\paindrain\arduinolcd\test\pain drain\libraries\lvgl\src\misc\lv_area.h **** #if LV_USE_LARGE_COORD
  25:c:\projects\paindrain\arduinolcd\test\pain drain\libraries\lvgl\src\misc\lv_area.h **** typedef int32_t lv_coord_t;
  26:c:\projects\paindrain\arduinolcd\test\pain drain\libraries\lvgl\src\misc\lv_area.h **** #else
  27:c:\projects\paindrain\arduinolcd\test\pain drain\libraries\lvgl\src\misc\lv_area.h **** typedef int16_t lv_coord_t;
  28:c:\projects\paindrain\arduinolcd\test\pain drain\libraries\lvgl\src\misc\lv_area.h **** #endif
  29:c:\projects\paindrain\arduinolcd\test\pain drain\libraries\lvgl\src\misc\lv_area.h **** 
ARM GAS  C:\Users\haske\AppData\Local\Temp\ccxUXv8a.s 			page 42


  30:c:\projects\paindrain\arduinolcd\test\pain drain\libraries\lvgl\src\misc\lv_area.h **** /**********************
  31:c:\projects\paindrain\arduinolcd\test\pain drain\libraries\lvgl\src\misc\lv_area.h ****  *      TYPEDEFS
  32:c:\projects\paindrain\arduinolcd\test\pain drain\libraries\lvgl\src\misc\lv_area.h ****  **********************/
  33:c:\projects\paindrain\arduinolcd\test\pain drain\libraries\lvgl\src\misc\lv_area.h **** 
  34:c:\projects\paindrain\arduinolcd\test\pain drain\libraries\lvgl\src\misc\lv_area.h **** /**
  35:c:\projects\paindrain\arduinolcd\test\pain drain\libraries\lvgl\src\misc\lv_area.h ****  * Represents a point on the screen.
  36:c:\projects\paindrain\arduinolcd\test\pain drain\libraries\lvgl\src\misc\lv_area.h ****  */
  37:c:\projects\paindrain\arduinolcd\test\pain drain\libraries\lvgl\src\misc\lv_area.h **** typedef struct {
  38:c:\projects\paindrain\arduinolcd\test\pain drain\libraries\lvgl\src\misc\lv_area.h ****     lv_coord_t x;
  39:c:\projects\paindrain\arduinolcd\test\pain drain\libraries\lvgl\src\misc\lv_area.h ****     lv_coord_t y;
  40:c:\projects\paindrain\arduinolcd\test\pain drain\libraries\lvgl\src\misc\lv_area.h **** } lv_point_t;
  41:c:\projects\paindrain\arduinolcd\test\pain drain\libraries\lvgl\src\misc\lv_area.h **** 
  42:c:\projects\paindrain\arduinolcd\test\pain drain\libraries\lvgl\src\misc\lv_area.h **** /** Represents an area of the screen.*/
  43:c:\projects\paindrain\arduinolcd\test\pain drain\libraries\lvgl\src\misc\lv_area.h **** typedef struct {
  44:c:\projects\paindrain\arduinolcd\test\pain drain\libraries\lvgl\src\misc\lv_area.h ****     lv_coord_t x1;
  45:c:\projects\paindrain\arduinolcd\test\pain drain\libraries\lvgl\src\misc\lv_area.h ****     lv_coord_t y1;
  46:c:\projects\paindrain\arduinolcd\test\pain drain\libraries\lvgl\src\misc\lv_area.h ****     lv_coord_t x2;
  47:c:\projects\paindrain\arduinolcd\test\pain drain\libraries\lvgl\src\misc\lv_area.h ****     lv_coord_t y2;
  48:c:\projects\paindrain\arduinolcd\test\pain drain\libraries\lvgl\src\misc\lv_area.h **** } lv_area_t;
  49:c:\projects\paindrain\arduinolcd\test\pain drain\libraries\lvgl\src\misc\lv_area.h **** 
  50:c:\projects\paindrain\arduinolcd\test\pain drain\libraries\lvgl\src\misc\lv_area.h **** /** Alignments*/
  51:c:\projects\paindrain\arduinolcd\test\pain drain\libraries\lvgl\src\misc\lv_area.h **** enum {
  52:c:\projects\paindrain\arduinolcd\test\pain drain\libraries\lvgl\src\misc\lv_area.h ****     LV_ALIGN_DEFAULT = 0,
  53:c:\projects\paindrain\arduinolcd\test\pain drain\libraries\lvgl\src\misc\lv_area.h ****     LV_ALIGN_TOP_LEFT,
  54:c:\projects\paindrain\arduinolcd\test\pain drain\libraries\lvgl\src\misc\lv_area.h ****     LV_ALIGN_TOP_MID,
  55:c:\projects\paindrain\arduinolcd\test\pain drain\libraries\lvgl\src\misc\lv_area.h ****     LV_ALIGN_TOP_RIGHT,
  56:c:\projects\paindrain\arduinolcd\test\pain drain\libraries\lvgl\src\misc\lv_area.h ****     LV_ALIGN_BOTTOM_LEFT,
  57:c:\projects\paindrain\arduinolcd\test\pain drain\libraries\lvgl\src\misc\lv_area.h ****     LV_ALIGN_BOTTOM_MID,
  58:c:\projects\paindrain\arduinolcd\test\pain drain\libraries\lvgl\src\misc\lv_area.h ****     LV_ALIGN_BOTTOM_RIGHT,
  59:c:\projects\paindrain\arduinolcd\test\pain drain\libraries\lvgl\src\misc\lv_area.h ****     LV_ALIGN_LEFT_MID,
  60:c:\projects\paindrain\arduinolcd\test\pain drain\libraries\lvgl\src\misc\lv_area.h ****     LV_ALIGN_RIGHT_MID,
  61:c:\projects\paindrain\arduinolcd\test\pain drain\libraries\lvgl\src\misc\lv_area.h ****     LV_ALIGN_CENTER,
  62:c:\projects\paindrain\arduinolcd\test\pain drain\libraries\lvgl\src\misc\lv_area.h **** 
  63:c:\projects\paindrain\arduinolcd\test\pain drain\libraries\lvgl\src\misc\lv_area.h ****     LV_ALIGN_OUT_TOP_LEFT,
  64:c:\projects\paindrain\arduinolcd\test\pain drain\libraries\lvgl\src\misc\lv_area.h ****     LV_ALIGN_OUT_TOP_MID,
  65:c:\projects\paindrain\arduinolcd\test\pain drain\libraries\lvgl\src\misc\lv_area.h ****     LV_ALIGN_OUT_TOP_RIGHT,
  66:c:\projects\paindrain\arduinolcd\test\pain drain\libraries\lvgl\src\misc\lv_area.h ****     LV_ALIGN_OUT_BOTTOM_LEFT,
  67:c:\projects\paindrain\arduinolcd\test\pain drain\libraries\lvgl\src\misc\lv_area.h ****     LV_ALIGN_OUT_BOTTOM_MID,
  68:c:\projects\paindrain\arduinolcd\test\pain drain\libraries\lvgl\src\misc\lv_area.h ****     LV_ALIGN_OUT_BOTTOM_RIGHT,
  69:c:\projects\paindrain\arduinolcd\test\pain drain\libraries\lvgl\src\misc\lv_area.h ****     LV_ALIGN_OUT_LEFT_TOP,
  70:c:\projects\paindrain\arduinolcd\test\pain drain\libraries\lvgl\src\misc\lv_area.h ****     LV_ALIGN_OUT_LEFT_MID,
  71:c:\projects\paindrain\arduinolcd\test\pain drain\libraries\lvgl\src\misc\lv_area.h ****     LV_ALIGN_OUT_LEFT_BOTTOM,
  72:c:\projects\paindrain\arduinolcd\test\pain drain\libraries\lvgl\src\misc\lv_area.h ****     LV_ALIGN_OUT_RIGHT_TOP,
  73:c:\projects\paindrain\arduinolcd\test\pain drain\libraries\lvgl\src\misc\lv_area.h ****     LV_ALIGN_OUT_RIGHT_MID,
  74:c:\projects\paindrain\arduinolcd\test\pain drain\libraries\lvgl\src\misc\lv_area.h ****     LV_ALIGN_OUT_RIGHT_BOTTOM,
  75:c:\projects\paindrain\arduinolcd\test\pain drain\libraries\lvgl\src\misc\lv_area.h **** };
  76:c:\projects\paindrain\arduinolcd\test\pain drain\libraries\lvgl\src\misc\lv_area.h **** typedef uint8_t lv_align_t;
  77:c:\projects\paindrain\arduinolcd\test\pain drain\libraries\lvgl\src\misc\lv_area.h **** 
  78:c:\projects\paindrain\arduinolcd\test\pain drain\libraries\lvgl\src\misc\lv_area.h **** enum {
  79:c:\projects\paindrain\arduinolcd\test\pain drain\libraries\lvgl\src\misc\lv_area.h ****     LV_DIR_NONE     = 0x00,
  80:c:\projects\paindrain\arduinolcd\test\pain drain\libraries\lvgl\src\misc\lv_area.h ****     LV_DIR_LEFT     = (1 << 0),
  81:c:\projects\paindrain\arduinolcd\test\pain drain\libraries\lvgl\src\misc\lv_area.h ****     LV_DIR_RIGHT    = (1 << 1),
  82:c:\projects\paindrain\arduinolcd\test\pain drain\libraries\lvgl\src\misc\lv_area.h ****     LV_DIR_TOP      = (1 << 2),
  83:c:\projects\paindrain\arduinolcd\test\pain drain\libraries\lvgl\src\misc\lv_area.h ****     LV_DIR_BOTTOM   = (1 << 3),
  84:c:\projects\paindrain\arduinolcd\test\pain drain\libraries\lvgl\src\misc\lv_area.h ****     LV_DIR_HOR      = LV_DIR_LEFT | LV_DIR_RIGHT,
  85:c:\projects\paindrain\arduinolcd\test\pain drain\libraries\lvgl\src\misc\lv_area.h ****     LV_DIR_VER      = LV_DIR_TOP | LV_DIR_BOTTOM,
  86:c:\projects\paindrain\arduinolcd\test\pain drain\libraries\lvgl\src\misc\lv_area.h ****     LV_DIR_ALL      = LV_DIR_HOR | LV_DIR_VER,
ARM GAS  C:\Users\haske\AppData\Local\Temp\ccxUXv8a.s 			page 43


  87:c:\projects\paindrain\arduinolcd\test\pain drain\libraries\lvgl\src\misc\lv_area.h **** };
  88:c:\projects\paindrain\arduinolcd\test\pain drain\libraries\lvgl\src\misc\lv_area.h **** 
  89:c:\projects\paindrain\arduinolcd\test\pain drain\libraries\lvgl\src\misc\lv_area.h **** typedef uint8_t lv_dir_t;
  90:c:\projects\paindrain\arduinolcd\test\pain drain\libraries\lvgl\src\misc\lv_area.h **** 
  91:c:\projects\paindrain\arduinolcd\test\pain drain\libraries\lvgl\src\misc\lv_area.h **** /**********************
  92:c:\projects\paindrain\arduinolcd\test\pain drain\libraries\lvgl\src\misc\lv_area.h ****  * GLOBAL PROTOTYPES
  93:c:\projects\paindrain\arduinolcd\test\pain drain\libraries\lvgl\src\misc\lv_area.h ****  **********************/
  94:c:\projects\paindrain\arduinolcd\test\pain drain\libraries\lvgl\src\misc\lv_area.h **** 
  95:c:\projects\paindrain\arduinolcd\test\pain drain\libraries\lvgl\src\misc\lv_area.h **** /**
  96:c:\projects\paindrain\arduinolcd\test\pain drain\libraries\lvgl\src\misc\lv_area.h ****  * Initialize an area
  97:c:\projects\paindrain\arduinolcd\test\pain drain\libraries\lvgl\src\misc\lv_area.h ****  * @param area_p pointer to an area
  98:c:\projects\paindrain\arduinolcd\test\pain drain\libraries\lvgl\src\misc\lv_area.h ****  * @param x1 left coordinate of the area
  99:c:\projects\paindrain\arduinolcd\test\pain drain\libraries\lvgl\src\misc\lv_area.h ****  * @param y1 top coordinate of the area
 100:c:\projects\paindrain\arduinolcd\test\pain drain\libraries\lvgl\src\misc\lv_area.h ****  * @param x2 right coordinate of the area
 101:c:\projects\paindrain\arduinolcd\test\pain drain\libraries\lvgl\src\misc\lv_area.h ****  * @param y2 bottom coordinate of the area
 102:c:\projects\paindrain\arduinolcd\test\pain drain\libraries\lvgl\src\misc\lv_area.h ****  */
 103:c:\projects\paindrain\arduinolcd\test\pain drain\libraries\lvgl\src\misc\lv_area.h **** void lv_area_set(lv_area_t * area_p, lv_coord_t x1, lv_coord_t y1, lv_coord_t x2, lv_coord_t y2);
 104:c:\projects\paindrain\arduinolcd\test\pain drain\libraries\lvgl\src\misc\lv_area.h **** 
 105:c:\projects\paindrain\arduinolcd\test\pain drain\libraries\lvgl\src\misc\lv_area.h **** /**
 106:c:\projects\paindrain\arduinolcd\test\pain drain\libraries\lvgl\src\misc\lv_area.h ****  * Copy an area
 107:c:\projects\paindrain\arduinolcd\test\pain drain\libraries\lvgl\src\misc\lv_area.h ****  * @param dest pointer to the destination area
 108:c:\projects\paindrain\arduinolcd\test\pain drain\libraries\lvgl\src\misc\lv_area.h ****  * @param src pointer to the source area
 109:c:\projects\paindrain\arduinolcd\test\pain drain\libraries\lvgl\src\misc\lv_area.h ****  */
 110:c:\projects\paindrain\arduinolcd\test\pain drain\libraries\lvgl\src\misc\lv_area.h **** inline static void lv_area_copy(lv_area_t * dest, const lv_area_t * src)
 111:c:\projects\paindrain\arduinolcd\test\pain drain\libraries\lvgl\src\misc\lv_area.h **** {
 112:c:\projects\paindrain\arduinolcd\test\pain drain\libraries\lvgl\src\misc\lv_area.h ****     dest->x1 = src->x1;
 1016              		.loc 3 112 0
 1017 001c 0023     		movs	r3, #0
 1018 001e CD5E     		ldrsh	r5, [r1, r3]
 1019 0020 12AB     		add	r3, sp, #72
 1020              	.LVL132:
 1021 0022 1D80     		strh	r5, [r3]
 113:c:\projects\paindrain\arduinolcd\test\pain drain\libraries\lvgl\src\misc\lv_area.h ****     dest->y1 = src->y1;
 1022              		.loc 3 113 0
 1023 0024 0222     		movs	r2, #2
 1024 0026 8C5E     		ldrsh	r4, [r1, r2]
 1025              	.LVL133:
 1026 0028 5C80     		strh	r4, [r3, #2]
 114:c:\projects\paindrain\arduinolcd\test\pain drain\libraries\lvgl\src\misc\lv_area.h ****     dest->x2 = src->x2;
 1027              		.loc 3 114 0
 1028 002a 0422     		movs	r2, #4
 1029 002c 885E     		ldrsh	r0, [r1, r2]
 1030              	.LVL134:
 1031 002e 9880     		strh	r0, [r3, #4]
 115:c:\projects\paindrain\arduinolcd\test\pain drain\libraries\lvgl\src\misc\lv_area.h ****     dest->y2 = src->y2;
 1032              		.loc 3 115 0
 1033 0030 0622     		movs	r2, #6
 1034 0032 8A5E     		ldrsh	r2, [r1, r2]
 1035              	.LVL135:
 1036 0034 DA80     		strh	r2, [r3, #6]
 1037              	.LVL136:
 1038              	.LBE29:
 1039              	.LBE28:
 237:..\..\..\arduinoLCD\test\Pain Drain\libraries\lvgl\src\widgets/lv_canvas.c ****         if(a.y1 < 0) a.y1 = 0;
 1040              		.loc 1 237 0
 1041 0036 002D     		cmp	r5, #0
 1042 0038 01DA     		bge	.L41
ARM GAS  C:\Users\haske\AppData\Local\Temp\ccxUXv8a.s 			page 44


 237:..\..\..\arduinoLCD\test\Pain Drain\libraries\lvgl\src\widgets/lv_canvas.c ****         if(a.y1 < 0) a.y1 = 0;
 1043              		.loc 1 237 0 is_stmt 0 discriminator 1
 1044 003a 0021     		movs	r1, #0
 1045 003c 1980     		strh	r1, [r3]
 1046              	.L41:
 238:..\..\..\arduinoLCD\test\Pain Drain\libraries\lvgl\src\widgets/lv_canvas.c ****         if(a.x2 > canvas->dsc.header.w - 1) a.x2 = canvas->dsc.header.w - 1;
 1047              		.loc 1 238 0 is_stmt 1
 1048 003e 002C     		cmp	r4, #0
 1049 0040 02DA     		bge	.L42
 238:..\..\..\arduinoLCD\test\Pain Drain\libraries\lvgl\src\widgets/lv_canvas.c ****         if(a.x2 > canvas->dsc.header.w - 1) a.x2 = canvas->dsc.header.w - 1;
 1050              		.loc 1 238 0 is_stmt 0 discriminator 1
 1051 0042 0021     		movs	r1, #0
 1052 0044 12AB     		add	r3, sp, #72
 1053 0046 5980     		strh	r1, [r3, #2]
 1054              	.L42:
 239:..\..\..\arduinoLCD\test\Pain Drain\libraries\lvgl\src\widgets/lv_canvas.c ****         if(a.y2 > canvas->dsc.header.h - 1) a.y2 = canvas->dsc.header.h - 1;
 1055              		.loc 1 239 0 is_stmt 1
 1056 0048 4B46     		mov	r3, r9
 1057 004a DB6B     		ldr	r3, [r3, #60]
 1058 004c DB02     		lsls	r3, r3, #11
 1059 004e 5B0D     		lsrs	r3, r3, #21
 1060 0050 591E     		subs	r1, r3, #1
 1061 0052 8842     		cmp	r0, r1
 1062 0054 02DD     		ble	.L43
 239:..\..\..\arduinoLCD\test\Pain Drain\libraries\lvgl\src\widgets/lv_canvas.c ****         if(a.y2 > canvas->dsc.header.h - 1) a.y2 = canvas->dsc.header.h - 1;
 1063              		.loc 1 239 0 is_stmt 0 discriminator 1
 1064 0056 0B00     		movs	r3, r1
 1065 0058 12A9     		add	r1, sp, #72
 1066 005a 8B80     		strh	r3, [r1, #4]
 1067              	.L43:
 240:..\..\..\arduinoLCD\test\Pain Drain\libraries\lvgl\src\widgets/lv_canvas.c ****     }
 1068              		.loc 1 240 0 is_stmt 1
 1069 005c 4B46     		mov	r3, r9
 1070 005e DB8F     		ldrh	r3, [r3, #62]
 1071 0060 5B09     		lsrs	r3, r3, #5
 1072 0062 591E     		subs	r1, r3, #1
 1073 0064 8A42     		cmp	r2, r1
 1074 0066 0FDD     		ble	.L44
 240:..\..\..\arduinoLCD\test\Pain Drain\libraries\lvgl\src\widgets/lv_canvas.c ****     }
 1075              		.loc 1 240 0 is_stmt 0 discriminator 1
 1076 0068 12AA     		add	r2, sp, #72
 1077 006a D180     		strh	r1, [r2, #6]
 1078 006c 0CE0     		b	.L44
 1079              	.LVL137:
 1080              	.L40:
 243:..\..\..\arduinoLCD\test\Pain Drain\libraries\lvgl\src\widgets/lv_canvas.c ****         a.y1 = 0;
 1081              		.loc 1 243 0 is_stmt 1
 1082 006e 12AA     		add	r2, sp, #72
 1083              	.LVL138:
 1084 0070 0023     		movs	r3, #0
 1085 0072 1380     		strh	r3, [r2]
 244:..\..\..\arduinoLCD\test\Pain Drain\libraries\lvgl\src\widgets/lv_canvas.c ****         a.x2 = canvas->dsc.header.w - 1;
 1086              		.loc 1 244 0
 1087 0074 5380     		strh	r3, [r2, #2]
 245:..\..\..\arduinoLCD\test\Pain Drain\libraries\lvgl\src\widgets/lv_canvas.c ****         a.y2 = canvas->dsc.header.h - 1;
 1088              		.loc 1 245 0
 1089 0076 C36B     		ldr	r3, [r0, #60]
ARM GAS  C:\Users\haske\AppData\Local\Temp\ccxUXv8a.s 			page 45


 1090 0078 DB02     		lsls	r3, r3, #11
 1091 007a 5B0D     		lsrs	r3, r3, #21
 1092 007c 013B     		subs	r3, r3, #1
 1093 007e 9380     		strh	r3, [r2, #4]
 246:..\..\..\arduinoLCD\test\Pain Drain\libraries\lvgl\src\widgets/lv_canvas.c ****     }
 1094              		.loc 1 246 0
 1095 0080 C38F     		ldrh	r3, [r0, #62]
 1096 0082 5B09     		lsrs	r3, r3, #5
 1097 0084 013B     		subs	r3, r3, #1
 1098 0086 D380     		strh	r3, [r2, #6]
 1099              	.LVL139:
 1100              	.L44:
 1101              	.LBB30:
 1102              	.LBB31:
 1103              		.loc 2 351 0
 1104 0088 4722     		movs	r2, #71
 1105 008a 0021     		movs	r1, #0
 1106 008c 4846     		mov	r0, r9
 1107 008e FFF7FEFF 		bl	lv_obj_get_style_prop
 1108              	.LVL140:
 1109 0092 6B46     		mov	r3, sp
 1110              	.LVL141:
 1111 0094 D881     		strh	r0, [r3, #14]
 1112              	.LVL142:
 1113              	.LBE31:
 1114              	.LBE30:
 251:..\..\..\arduinoLCD\test\Pain Drain\libraries\lvgl\src\widgets/lv_canvas.c ****     uint16_t r_front = r / 2;
 1115              		.loc 1 251 0
 1116 0096 069B     		ldr	r3, [sp, #24]
 1117 0098 5A08     		lsrs	r2, r3, #1
 1118 009a 0292     		str	r2, [sp, #8]
 1119              	.LVL143:
 254:..\..\..\arduinoLCD\test\Pain Drain\libraries\lvgl\src\widgets/lv_canvas.c **** 
 1120              		.loc 1 254 0
 1121 009c DB07     		lsls	r3, r3, #31
 1122 009e 03D4     		bmi	.L67
 254:..\..\..\arduinoLCD\test\Pain Drain\libraries\lvgl\src\widgets/lv_canvas.c **** 
 1123              		.loc 1 254 0 is_stmt 0 discriminator 1
 1124 00a0 531E     		subs	r3, r2, #1
 1125 00a2 9BB2     		uxth	r3, r3
 1126 00a4 0A93     		str	r3, [sp, #40]
 1127              	.LVL144:
 1128 00a6 01E0     		b	.L45
 1129              	.LVL145:
 1130              	.L67:
 251:..\..\..\arduinoLCD\test\Pain Drain\libraries\lvgl\src\widgets/lv_canvas.c ****     uint16_t r_front = r / 2;
 1131              		.loc 1 251 0 is_stmt 1
 1132 00a8 029B     		ldr	r3, [sp, #8]
 1133 00aa 0A93     		str	r3, [sp, #40]
 1134              	.LVL146:
 1135              	.L45:
 256:..\..\..\arduinoLCD\test\Pain Drain\libraries\lvgl\src\widgets/lv_canvas.c **** 
 1136              		.loc 1 256 0
 1137 00ac 3C24     		movs	r4, #60
 1138 00ae 4B46     		mov	r3, r9
 1139 00b0 185D     		ldrb	r0, [r3, r4]
 1140 00b2 C006     		lsls	r0, r0, #27
ARM GAS  C:\Users\haske\AppData\Local\Temp\ccxUXv8a.s 			page 46


 1141 00b4 C00E     		lsrs	r0, r0, #27
 1142 00b6 FFF7FEFF 		bl	lv_img_cf_has_alpha
 1143              	.LVL147:
 1144 00ba 8046     		mov	r8, r0
 1145              	.LVL148:
 258:..\..\..\arduinoLCD\test\Pain Drain\libraries\lvgl\src\widgets/lv_canvas.c ****     uint8_t * line_buf = lv_mem_buf_get(line_w);
 1146              		.loc 1 258 0
 1147 00bc 4B46     		mov	r3, r9
 1148 00be DB6B     		ldr	r3, [r3, #60]
 1149 00c0 D802     		lsls	r0, r3, #11
 1150              	.LVL149:
 1151 00c2 4B46     		mov	r3, r9
 1152 00c4 1A5D     		ldrb	r2, [r3, r4]
 1153 00c6 D206     		lsls	r2, r2, #27
 1154 00c8 D20E     		lsrs	r2, r2, #27
 1155 00ca 400D     		lsrs	r0, r0, #21
 1156 00cc 0121     		movs	r1, #1
 1157 00ce FFF7FEFF 		bl	lv_img_buf_get_img_size
 1158              	.LVL150:
 1159 00d2 03B2     		sxth	r3, r0
 1160 00d4 0C93     		str	r3, [sp, #48]
 1161              	.LVL151:
 259:..\..\..\arduinoLCD\test\Pain Drain\libraries\lvgl\src\widgets/lv_canvas.c **** 
 1162              		.loc 1 259 0
 1163 00d6 0D93     		str	r3, [sp, #52]
 1164 00d8 1800     		movs	r0, r3
 1165 00da FFF7FEFF 		bl	lv_mem_buf_get
 1166              	.LVL152:
 1167 00de 0B90     		str	r0, [sp, #44]
 1168              	.LVL153:
 262:..\..\..\arduinoLCD\test\Pain Drain\libraries\lvgl\src\widgets/lv_canvas.c ****     line_img.header.always_zero = 0;
 1169              		.loc 1 262 0
 1170 00e0 0FAA     		add	r2, sp, #60
 1171 00e2 1190     		str	r0, [sp, #68]
 263:..\..\..\arduinoLCD\test\Pain Drain\libraries\lvgl\src\widgets/lv_canvas.c ****     line_img.header.w = canvas->dsc.header.w;
 1172              		.loc 1 263 0
 1173 00e4 1378     		ldrb	r3, [r2]
 1174 00e6 1F21     		movs	r1, #31
 1175 00e8 0B40     		ands	r3, r1
 1176 00ea 1370     		strb	r3, [r2]
 264:..\..\..\arduinoLCD\test\Pain Drain\libraries\lvgl\src\widgets/lv_canvas.c ****     line_img.header.h = 1;
 1177              		.loc 1 264 0
 1178 00ec 4B46     		mov	r3, r9
 1179 00ee DB6B     		ldr	r3, [r3, #60]
 1180 00f0 DB02     		lsls	r3, r3, #11
 1181 00f2 5B0D     		lsrs	r3, r3, #21
 1182 00f4 9902     		lsls	r1, r3, #10
 1183 00f6 9E4B     		ldr	r3, .L70
 1184 00f8 0F98     		ldr	r0, [sp, #60]
 1185              	.LVL154:
 1186 00fa 0340     		ands	r3, r0
 1187 00fc 0B43     		orrs	r3, r1
 1188 00fe 0F93     		str	r3, [sp, #60]
 265:..\..\..\arduinoLCD\test\Pain Drain\libraries\lvgl\src\widgets/lv_canvas.c ****     line_img.header.cf = canvas->dsc.header.cf;
 1189              		.loc 1 265 0
 1190 0100 190C     		lsrs	r1, r3, #16
 1191 0102 1F20     		movs	r0, #31
ARM GAS  C:\Users\haske\AppData\Local\Temp\ccxUXv8a.s 			page 47


 1192 0104 0140     		ands	r1, r0
 1193 0106 2020     		movs	r0, #32
 1194 0108 0143     		orrs	r1, r0
 1195 010a 5180     		strh	r1, [r2, #2]
 266:..\..\..\arduinoLCD\test\Pain Drain\libraries\lvgl\src\widgets/lv_canvas.c **** 
 1196              		.loc 1 266 0
 1197 010c 4946     		mov	r1, r9
 1198 010e 095D     		ldrb	r1, [r1, r4]
 1199 0110 C906     		lsls	r1, r1, #27
 1200 0112 C90E     		lsrs	r1, r1, #27
 1201 0114 DBB2     		uxtb	r3, r3
 1202 0116 1F20     		movs	r0, #31
 1203 0118 8343     		bics	r3, r0
 1204 011a 0B43     		orrs	r3, r1
 1205 011c 1370     		strb	r3, [r2]
 272:..\..\..\arduinoLCD\test\Pain Drain\libraries\lvgl\src\widgets/lv_canvas.c ****         uint32_t asum = 0;
 1206              		.loc 1 272 0
 1207 011e 12AB     		add	r3, sp, #72
 1208 0120 0222     		movs	r2, #2
 1209 0122 9B5E     		ldrsh	r3, [r3, r2]
 1210 0124 0893     		str	r3, [sp, #32]
 1211              	.LVL155:
 1212 0126 0FE1     		b	.L46
 1213              	.LVL156:
 1214              	.L65:
 1215              	.LBB32:
 280:..\..\..\arduinoLCD\test\Pain Drain\libraries\lvgl\src\widgets/lv_canvas.c **** 
 1216              		.loc 1 280 0
 1217 0128 0C99     		ldr	r1, [sp, #48]
 1218 012a 089B     		ldr	r3, [sp, #32]
 1219 012c 5943     		muls	r1, r3
 1220 012e 4B46     		mov	r3, r9
 1221 0130 5B6C     		ldr	r3, [r3, #68]
 1222 0132 9C46     		mov	ip, r3
 1223 0134 6144     		add	r1, r1, ip
 1224 0136 0D9A     		ldr	r2, [sp, #52]
 1225 0138 0B98     		ldr	r0, [sp, #44]
 1226 013a FFF7FEFF 		bl	lv_memcpy
 1227              	.LVL157:
 282:..\..\..\arduinoLCD\test\Pain Drain\libraries\lvgl\src\widgets/lv_canvas.c ****             x_safe = x < 0 ? 0 : x;
 1228              		.loc 1 282 0
 1229 013e 12AB     		add	r3, sp, #72
 1230 0140 0022     		movs	r2, #0
 1231 0142 9B5E     		ldrsh	r3, [r3, r2]
 1232 0144 0793     		str	r3, [sp, #28]
 1233 0146 0A9A     		ldr	r2, [sp, #40]
 1234 0148 9B1A     		subs	r3, r3, r2
 1235 014a 1DB2     		sxth	r5, r3
 1236              	.LVL158:
 279:..\..\..\arduinoLCD\test\Pain Drain\libraries\lvgl\src\widgets/lv_canvas.c ****         lv_memcpy(line_buf, &canvas->dsc.data[y * line_w], line_w);
 1237              		.loc 1 279 0
 1238 014c 0023     		movs	r3, #0
 1239 014e 0193     		str	r3, [sp, #4]
 276:..\..\..\arduinoLCD\test\Pain Drain\libraries\lvgl\src\widgets/lv_canvas.c **** 
 1240              		.loc 1 276 0
 1241 0150 0027     		movs	r7, #0
 274:..\..\..\arduinoLCD\test\Pain Drain\libraries\lvgl\src\widgets/lv_canvas.c ****         uint32_t gsum = 0;
ARM GAS  C:\Users\haske\AppData\Local\Temp\ccxUXv8a.s 			page 48


 1242              		.loc 1 274 0
 1243 0152 9B46     		mov	fp, r3
 273:..\..\..\arduinoLCD\test\Pain Drain\libraries\lvgl\src\widgets/lv_canvas.c ****         uint32_t rsum = 0;
 1244              		.loc 1 273 0
 1245 0154 9A46     		mov	r10, r3
 1246 0156 0993     		str	r3, [sp, #36]
 1247 0158 2C00     		movs	r4, r5
 282:..\..\..\arduinoLCD\test\Pain Drain\libraries\lvgl\src\widgets/lv_canvas.c ****             x_safe = x < 0 ? 0 : x;
 1248              		.loc 1 282 0
 1249 015a 31E0     		b	.L47
 1250              	.LVL159:
 1251              	.L52:
 283:..\..\..\arduinoLCD\test\Pain Drain\libraries\lvgl\src\widgets/lv_canvas.c ****             x_safe = x_safe > canvas->dsc.header.w - 1 ? canvas->dsc.header.w - 1 : x_safe;
 1252              		.loc 1 283 0
 1253 015c 251C     		adds	r5, r4, #0
 1254 015e 002C     		cmp	r4, #0
 1255 0160 00DA     		bge	.L48
 1256 0162 0025     		movs	r5, #0
 1257              	.L48:
 1258              	.LVL160:
 284:..\..\..\arduinoLCD\test\Pain Drain\libraries\lvgl\src\widgets/lv_canvas.c **** 
 1259              		.loc 1 284 0
 1260 0164 4B46     		mov	r3, r9
 1261 0166 DB6B     		ldr	r3, [r3, #60]
 1262 0168 DB02     		lsls	r3, r3, #11
 1263 016a 5B0D     		lsrs	r3, r3, #21
 1264 016c 013B     		subs	r3, r3, #1
 1265 016e 2DB2     		sxth	r5, r5
 1266 0170 9D42     		cmp	r5, r3
 1267 0172 00DD     		ble	.L49
 1268 0174 1D00     		movs	r5, r3
 1269              	.LVL161:
 1270              	.L49:
 1271 0176 2DB2     		sxth	r5, r5
 1272              	.LVL162:
 286:..\..\..\arduinoLCD\test\Pain Drain\libraries\lvgl\src\widgets/lv_canvas.c ****             if(has_alpha) opa = lv_img_buf_get_px_alpha(&line_img, x_safe, 0);
 1273              		.loc 1 286 0
 1274 0178 6B46     		mov	r3, sp
 1275 017a DB89     		ldrh	r3, [r3, #14]
 1276 017c 0022     		movs	r2, #0
 1277 017e 2900     		movs	r1, r5
 1278 0180 0FA8     		add	r0, sp, #60
 1279 0182 FFF7FEFF 		bl	lv_img_buf_get_px_color
 1280              	.LVL163:
 1281 0186 061C     		adds	r6, r0, #0
 1282              	.LVL164:
 287:..\..\..\arduinoLCD\test\Pain Drain\libraries\lvgl\src\widgets/lv_canvas.c **** 
 1283              		.loc 1 287 0
 1284 0188 4346     		mov	r3, r8
 1285 018a 002B     		cmp	r3, #0
 1286 018c 05D0     		beq	.L50
 1287              	.LVL165:
 287:..\..\..\arduinoLCD\test\Pain Drain\libraries\lvgl\src\widgets/lv_canvas.c **** 
 1288              		.loc 1 287 0 is_stmt 0 discriminator 1
 1289 018e 0022     		movs	r2, #0
 1290 0190 2900     		movs	r1, r5
 1291 0192 0FA8     		add	r0, sp, #60
ARM GAS  C:\Users\haske\AppData\Local\Temp\ccxUXv8a.s 			page 49


 1292 0194 FFF7FEFF 		bl	lv_img_buf_get_px_alpha
 1293              	.LVL166:
 1294 0198 0190     		str	r0, [sp, #4]
 1295              	.LVL167:
 1296              	.L50:
 289:..\..\..\arduinoLCD\test\Pain Drain\libraries\lvgl\src\widgets/lv_canvas.c **** #if LV_COLOR_DEPTH == 16 && LV_COLOR_16_SWAP
 1297              		.loc 1 289 0 is_stmt 1
 1298 019a 3304     		lsls	r3, r6, #16
 1299 019c DB0E     		lsrs	r3, r3, #27
 1300 019e FF18     		adds	r7, r7, r3
 1301              	.LVL168:
 293:..\..\..\arduinoLCD\test\Pain Drain\libraries\lvgl\src\widgets/lv_canvas.c **** #endif
 1302              		.loc 1 293 0
 1303 01a0 7305     		lsls	r3, r6, #21
 1304 01a2 9B0E     		lsrs	r3, r3, #26
 1305 01a4 9A44     		add	r10, r10, r3
 1306              	.LVL169:
 295:..\..\..\arduinoLCD\test\Pain Drain\libraries\lvgl\src\widgets/lv_canvas.c ****             if(has_alpha) asum += opa;
 1307              		.loc 1 295 0
 1308 01a6 F306     		lsls	r3, r6, #27
 1309 01a8 DB0E     		lsrs	r3, r3, #27
 1310 01aa 9B44     		add	fp, fp, r3
 1311              	.LVL170:
 296:..\..\..\arduinoLCD\test\Pain Drain\libraries\lvgl\src\widgets/lv_canvas.c ****         }
 1312              		.loc 1 296 0
 1313 01ac 4346     		mov	r3, r8
 1314 01ae 002B     		cmp	r3, #0
 1315 01b0 04D0     		beq	.L51
 1316              	.LVL171:
 296:..\..\..\arduinoLCD\test\Pain Drain\libraries\lvgl\src\widgets/lv_canvas.c ****         }
 1317              		.loc 1 296 0 is_stmt 0 discriminator 1
 1318 01b2 099B     		ldr	r3, [sp, #36]
 1319              	.LVL172:
 1320 01b4 019A     		ldr	r2, [sp, #4]
 1321 01b6 9446     		mov	ip, r2
 1322 01b8 6344     		add	r3, r3, ip
 1323 01ba 0993     		str	r3, [sp, #36]
 1324              	.LVL173:
 1325              	.L51:
 282:..\..\..\arduinoLCD\test\Pain Drain\libraries\lvgl\src\widgets/lv_canvas.c ****             x_safe = x < 0 ? 0 : x;
 1326              		.loc 1 282 0 is_stmt 1 discriminator 2
 1327 01bc 0134     		adds	r4, r4, #1
 1328              	.LVL174:
 1329 01be 24B2     		sxth	r4, r4
 1330              	.LVL175:
 1331              	.L47:
 282:..\..\..\arduinoLCD\test\Pain Drain\libraries\lvgl\src\widgets/lv_canvas.c ****             x_safe = x < 0 ? 0 : x;
 1332              		.loc 1 282 0 is_stmt 0 discriminator 1
 1333 01c0 079B     		ldr	r3, [sp, #28]
 1334 01c2 029A     		ldr	r2, [sp, #8]
 1335 01c4 9446     		mov	ip, r2
 1336 01c6 6344     		add	r3, r3, ip
 1337 01c8 9C42     		cmp	r4, r3
 1338 01ca C7DD     		ble	.L52
 1339 01cc 5446     		mov	r4, r10
 1340              	.LVL176:
 1341 01ce 099B     		ldr	r3, [sp, #36]
ARM GAS  C:\Users\haske\AppData\Local\Temp\ccxUXv8a.s 			page 50


 1342 01d0 9A46     		mov	r10, r3
 1343              	.LVL177:
 1344 01d2 5B46     		mov	r3, fp
 1345 01d4 BB46     		mov	fp, r7
 1346              	.LVL178:
 1347 01d6 1F00     		movs	r7, r3
 1348              	.LVL179:
 300:..\..\..\arduinoLCD\test\Pain Drain\libraries\lvgl\src\widgets/lv_canvas.c **** 
 1349              		.loc 1 300 0 is_stmt 1
 1350 01d8 4346     		mov	r3, r8
 1351              	.LVL180:
 1352 01da 002B     		cmp	r3, #0
 1353 01dc 00D0     		beq	.LCB1444
 1354 01de A5E0     		b	.L69	@long jump
 1355              	.LCB1444:
 1356              	.LVL181:
 1357 01e0 FF33     		adds	r3, r3, #255
 1358              	.LVL182:
 1359 01e2 9A46     		mov	r10, r3
 1360 01e4 079D     		ldr	r5, [sp, #28]
 1361 01e6 5B46     		mov	r3, fp
 1362 01e8 D346     		mov	fp, r10
 1363              	.LVL183:
 1364 01ea 9A46     		mov	r10, r3
 1365 01ec A2E0     		b	.L54
 1366              	.LVL184:
 1367              	.L64:
 304:..\..\..\arduinoLCD\test\Pain Drain\libraries\lvgl\src\widgets/lv_canvas.c ****                 c.ch.red = rsum / r;
 1368              		.loc 1 304 0
 1369 01ee 5B46     		mov	r3, fp
 1370 01f0 002B     		cmp	r3, #0
 1371 01f2 2AD0     		beq	.L55
 1372              	.LVL185:
 305:..\..\..\arduinoLCD\test\Pain Drain\libraries\lvgl\src\widgets/lv_canvas.c **** #if LV_COLOR_DEPTH == 16 && LV_COLOR_16_SWAP
 1373              		.loc 1 305 0
 1374 01f4 0699     		ldr	r1, [sp, #24]
 1375 01f6 5046     		mov	r0, r10
 1376 01f8 FFF7FEFF 		bl	__aeabi_uidiv
 1377              	.LVL186:
 1378 01fc C0B2     		uxtb	r0, r0
 1379 01fe C002     		lsls	r0, r0, #11
 1380 0200 7605     		lsls	r6, r6, #21
 1381              	.LVL187:
 1382 0202 760D     		lsrs	r6, r6, #21
 1383 0204 0643     		orrs	r6, r0
 311:..\..\..\arduinoLCD\test\Pain Drain\libraries\lvgl\src\widgets/lv_canvas.c **** #endif
 1384              		.loc 1 311 0
 1385 0206 0699     		ldr	r1, [sp, #24]
 1386 0208 2000     		movs	r0, r4
 1387 020a FFF7FEFF 		bl	__aeabi_uidiv
 1388              	.LVL188:
 1389 020e 3F23     		movs	r3, #63
 1390 0210 1840     		ands	r0, r3
 1391 0212 4001     		lsls	r0, r0, #5
 1392 0214 574B     		ldr	r3, .L70+4
 1393 0216 1E40     		ands	r6, r3
 1394 0218 0643     		orrs	r6, r0
ARM GAS  C:\Users\haske\AppData\Local\Temp\ccxUXv8a.s 			page 51


 313:..\..\..\arduinoLCD\test\Pain Drain\libraries\lvgl\src\widgets/lv_canvas.c ****                 if(has_alpha) opa = asum / r;
 1395              		.loc 1 313 0
 1396 021a 0699     		ldr	r1, [sp, #24]
 1397 021c 3800     		movs	r0, r7
 1398 021e FFF7FEFF 		bl	__aeabi_uidiv
 1399              	.LVL189:
 1400 0222 1F23     		movs	r3, #31
 1401 0224 1840     		ands	r0, r3
 1402 0226 9E43     		bics	r6, r3
 1403 0228 0643     		orrs	r6, r0
 314:..\..\..\arduinoLCD\test\Pain Drain\libraries\lvgl\src\widgets/lv_canvas.c **** 
 1404              		.loc 1 314 0
 1405 022a 4346     		mov	r3, r8
 1406 022c 002B     		cmp	r3, #0
 1407 022e 05D0     		beq	.L56
 1408              	.LVL190:
 314:..\..\..\arduinoLCD\test\Pain Drain\libraries\lvgl\src\widgets/lv_canvas.c **** 
 1409              		.loc 1 314 0 is_stmt 0 discriminator 1
 1410 0230 0699     		ldr	r1, [sp, #24]
 1411 0232 5846     		mov	r0, fp
 1412 0234 FFF7FEFF 		bl	__aeabi_uidiv
 1413              	.LVL191:
 1414 0238 C3B2     		uxtb	r3, r0
 1415 023a 0193     		str	r3, [sp, #4]
 1416              	.LVL192:
 1417              	.L56:
 316:..\..\..\arduinoLCD\test\Pain Drain\libraries\lvgl\src\widgets/lv_canvas.c ****             }
 1418              		.loc 1 316 0 is_stmt 1
 1419 023c 4846     		mov	r0, r9
 1420 023e 3C30     		adds	r0, r0, #60
 1421 0240 331C     		adds	r3, r6, #0
 1422 0242 089A     		ldr	r2, [sp, #32]
 1423 0244 2900     		movs	r1, r5
 1424 0246 FFF7FEFF 		bl	lv_img_buf_set_px_color
 1425              	.LVL193:
 1426              	.L55:
 318:..\..\..\arduinoLCD\test\Pain Drain\libraries\lvgl\src\widgets/lv_canvas.c **** 
 1427              		.loc 1 318 0
 1428 024a 4346     		mov	r3, r8
 1429 024c 002B     		cmp	r3, #0
 1430 024e 06D0     		beq	.L57
 1431              	.LVL194:
 318:..\..\..\arduinoLCD\test\Pain Drain\libraries\lvgl\src\widgets/lv_canvas.c **** 
 1432              		.loc 1 318 0 is_stmt 0 discriminator 1
 1433 0250 4846     		mov	r0, r9
 1434 0252 3C30     		adds	r0, r0, #60
 1435 0254 019B     		ldr	r3, [sp, #4]
 1436              	.LVL195:
 1437 0256 089A     		ldr	r2, [sp, #32]
 1438 0258 2900     		movs	r1, r5
 1439 025a FFF7FEFF 		bl	lv_img_buf_set_px_alpha
 1440              	.LVL196:
 1441              	.L57:
 320:..\..\..\arduinoLCD\test\Pain Drain\libraries\lvgl\src\widgets/lv_canvas.c ****             x_safe = x_safe < 0 ? 0 : x_safe;
 1442              		.loc 1 320 0 is_stmt 1
 1443 025e ADB2     		uxth	r5, r5
 1444 0260 0A9B     		ldr	r3, [sp, #40]
ARM GAS  C:\Users\haske\AppData\Local\Temp\ccxUXv8a.s 			page 52


 1445 0262 EB1A     		subs	r3, r5, r3
 1446 0264 1BB2     		sxth	r3, r3
 1447              	.LVL197:
 321:..\..\..\arduinoLCD\test\Pain Drain\libraries\lvgl\src\widgets/lv_canvas.c ****             c = lv_img_buf_get_px_color(&line_img, x_safe, 0, color);
 1448              		.loc 1 321 0
 1449 0266 1A1C     		adds	r2, r3, #0
 1450 0268 002B     		cmp	r3, #0
 1451 026a 00DA     		bge	.L58
 1452 026c 0022     		movs	r2, #0
 1453              	.L58:
 1454 026e 13B2     		sxth	r3, r2
 1455              	.LVL198:
 1456 0270 1900     		movs	r1, r3
 1457 0272 0793     		str	r3, [sp, #28]
 1458              	.LVL199:
 322:..\..\..\arduinoLCD\test\Pain Drain\libraries\lvgl\src\widgets/lv_canvas.c ****             if(has_alpha) opa = lv_img_buf_get_px_alpha(&line_img, x_safe, 0);
 1459              		.loc 1 322 0
 1460 0274 6B46     		mov	r3, sp
 1461 0276 DB89     		ldrh	r3, [r3, #14]
 1462 0278 0022     		movs	r2, #0
 1463              	.LVL200:
 1464 027a 0FA8     		add	r0, sp, #60
 1465 027c FFF7FEFF 		bl	lv_img_buf_get_px_color
 1466              	.LVL201:
 1467 0280 061C     		adds	r6, r0, #0
 1468              	.LVL202:
 323:..\..\..\arduinoLCD\test\Pain Drain\libraries\lvgl\src\widgets/lv_canvas.c **** 
 1469              		.loc 1 323 0
 1470 0282 4346     		mov	r3, r8
 1471 0284 002B     		cmp	r3, #0
 1472 0286 05D0     		beq	.L59
 1473              	.LVL203:
 323:..\..\..\arduinoLCD\test\Pain Drain\libraries\lvgl\src\widgets/lv_canvas.c **** 
 1474              		.loc 1 323 0 is_stmt 0 discriminator 1
 1475 0288 0022     		movs	r2, #0
 1476 028a 0799     		ldr	r1, [sp, #28]
 1477 028c 0FA8     		add	r0, sp, #60
 1478 028e FFF7FEFF 		bl	lv_img_buf_get_px_alpha
 1479              	.LVL204:
 1480 0292 0190     		str	r0, [sp, #4]
 1481              	.LVL205:
 1482              	.L59:
 325:..\..\..\arduinoLCD\test\Pain Drain\libraries\lvgl\src\widgets/lv_canvas.c **** #if LV_COLOR_DEPTH == 16 && LV_COLOR_16_SWAP
 1483              		.loc 1 325 0 is_stmt 1
 1484 0294 3304     		lsls	r3, r6, #16
 1485 0296 DB0E     		lsrs	r3, r3, #27
 1486 0298 5246     		mov	r2, r10
 1487 029a D31A     		subs	r3, r2, r3
 1488 029c 9A46     		mov	r10, r3
 1489              	.LVL206:
 329:..\..\..\arduinoLCD\test\Pain Drain\libraries\lvgl\src\widgets/lv_canvas.c **** #endif
 1490              		.loc 1 329 0
 1491 029e 7305     		lsls	r3, r6, #21
 1492              	.LVL207:
 1493 02a0 9B0E     		lsrs	r3, r3, #26
 1494 02a2 E41A     		subs	r4, r4, r3
 1495              	.LVL208:
ARM GAS  C:\Users\haske\AppData\Local\Temp\ccxUXv8a.s 			page 53


 331:..\..\..\arduinoLCD\test\Pain Drain\libraries\lvgl\src\widgets/lv_canvas.c ****             if(has_alpha) asum -= opa;
 1496              		.loc 1 331 0
 1497 02a4 F606     		lsls	r6, r6, #27
 1498              	.LVL209:
 1499 02a6 F60E     		lsrs	r6, r6, #27
 1500 02a8 BF1B     		subs	r7, r7, r6
 1501              	.LVL210:
 332:..\..\..\arduinoLCD\test\Pain Drain\libraries\lvgl\src\widgets/lv_canvas.c **** 
 1502              		.loc 1 332 0
 1503 02aa 4346     		mov	r3, r8
 1504 02ac 002B     		cmp	r3, #0
 1505 02ae 03D0     		beq	.L60
 1506              	.LVL211:
 332:..\..\..\arduinoLCD\test\Pain Drain\libraries\lvgl\src\widgets/lv_canvas.c **** 
 1507              		.loc 1 332 0 is_stmt 0 discriminator 1
 1508 02b0 5B46     		mov	r3, fp
 1509              	.LVL212:
 1510 02b2 019A     		ldr	r2, [sp, #4]
 1511 02b4 9B1A     		subs	r3, r3, r2
 1512 02b6 9B46     		mov	fp, r3
 1513              	.LVL213:
 1514              	.L60:
 334:..\..\..\arduinoLCD\test\Pain Drain\libraries\lvgl\src\widgets/lv_canvas.c ****             x_safe = x_safe > canvas->dsc.header.w - 1 ? canvas->dsc.header.w - 1 : x_safe;
 1515              		.loc 1 334 0 is_stmt 1
 1516 02b8 029B     		ldr	r3, [sp, #8]
 1517 02ba 5A19     		adds	r2, r3, r5
 1518 02bc 0132     		adds	r2, r2, #1
 1519              	.LVL214:
 335:..\..\..\arduinoLCD\test\Pain Drain\libraries\lvgl\src\widgets/lv_canvas.c ****             c = lv_img_buf_get_px_color(&line_img, x_safe, 0, lv_color_white());
 1520              		.loc 1 335 0
 1521 02be 4B46     		mov	r3, r9
 1522 02c0 DB6B     		ldr	r3, [r3, #60]
 1523 02c2 DB02     		lsls	r3, r3, #11
 1524 02c4 5B0D     		lsrs	r3, r3, #21
 1525 02c6 013B     		subs	r3, r3, #1
 1526 02c8 12B2     		sxth	r2, r2
 1527 02ca 9A42     		cmp	r2, r3
 1528 02cc 00DD     		ble	.L61
 1529 02ce 1A00     		movs	r2, r3
 1530              	.LVL215:
 1531              	.L61:
 1532 02d0 13B2     		sxth	r3, r2
 1533 02d2 1900     		movs	r1, r3
 1534 02d4 0793     		str	r3, [sp, #28]
 1535              	.LVL216:
 1536              	.LBB33:
 1537              	.LBB34:
 1538              	.LBB35:
 1539              		.file 4 "c:\\projects\\paindrain\\arduinolcd\\test\\pain drain\\libraries\\lvgl\\src\\misc\\lv_col
   1:c:\projects\paindrain\arduinolcd\test\pain drain\libraries\lvgl\src\misc\lv_color.h **** /**
   2:c:\projects\paindrain\arduinolcd\test\pain drain\libraries\lvgl\src\misc\lv_color.h ****  * @file lv_color.h
   3:c:\projects\paindrain\arduinolcd\test\pain drain\libraries\lvgl\src\misc\lv_color.h ****  *
   4:c:\projects\paindrain\arduinolcd\test\pain drain\libraries\lvgl\src\misc\lv_color.h ****  */
   5:c:\projects\paindrain\arduinolcd\test\pain drain\libraries\lvgl\src\misc\lv_color.h **** 
   6:c:\projects\paindrain\arduinolcd\test\pain drain\libraries\lvgl\src\misc\lv_color.h **** #ifndef LV_COLOR_H
   7:c:\projects\paindrain\arduinolcd\test\pain drain\libraries\lvgl\src\misc\lv_color.h **** #define LV_COLOR_H
   8:c:\projects\paindrain\arduinolcd\test\pain drain\libraries\lvgl\src\misc\lv_color.h **** 
ARM GAS  C:\Users\haske\AppData\Local\Temp\ccxUXv8a.s 			page 54


   9:c:\projects\paindrain\arduinolcd\test\pain drain\libraries\lvgl\src\misc\lv_color.h **** #ifdef __cplusplus
  10:c:\projects\paindrain\arduinolcd\test\pain drain\libraries\lvgl\src\misc\lv_color.h **** extern "C" {
  11:c:\projects\paindrain\arduinolcd\test\pain drain\libraries\lvgl\src\misc\lv_color.h **** #endif
  12:c:\projects\paindrain\arduinolcd\test\pain drain\libraries\lvgl\src\misc\lv_color.h **** 
  13:c:\projects\paindrain\arduinolcd\test\pain drain\libraries\lvgl\src\misc\lv_color.h **** /*********************
  14:c:\projects\paindrain\arduinolcd\test\pain drain\libraries\lvgl\src\misc\lv_color.h ****  *      INCLUDES
  15:c:\projects\paindrain\arduinolcd\test\pain drain\libraries\lvgl\src\misc\lv_color.h ****  *********************/
  16:c:\projects\paindrain\arduinolcd\test\pain drain\libraries\lvgl\src\misc\lv_color.h **** #include "../lv_conf_internal.h"
  17:c:\projects\paindrain\arduinolcd\test\pain drain\libraries\lvgl\src\misc\lv_color.h **** #include "lv_assert.h"
  18:c:\projects\paindrain\arduinolcd\test\pain drain\libraries\lvgl\src\misc\lv_color.h **** #include "lv_math.h"
  19:c:\projects\paindrain\arduinolcd\test\pain drain\libraries\lvgl\src\misc\lv_color.h **** #include "lv_types.h"
  20:c:\projects\paindrain\arduinolcd\test\pain drain\libraries\lvgl\src\misc\lv_color.h **** 
  21:c:\projects\paindrain\arduinolcd\test\pain drain\libraries\lvgl\src\misc\lv_color.h **** /*Error checking*/
  22:c:\projects\paindrain\arduinolcd\test\pain drain\libraries\lvgl\src\misc\lv_color.h **** #if LV_COLOR_DEPTH == 24
  23:c:\projects\paindrain\arduinolcd\test\pain drain\libraries\lvgl\src\misc\lv_color.h **** #error "LV_COLOR_DEPTH 24 is deprecated. Use LV_COLOR_DEPTH 32 instead (lv_conf.h)"
  24:c:\projects\paindrain\arduinolcd\test\pain drain\libraries\lvgl\src\misc\lv_color.h **** #endif
  25:c:\projects\paindrain\arduinolcd\test\pain drain\libraries\lvgl\src\misc\lv_color.h **** 
  26:c:\projects\paindrain\arduinolcd\test\pain drain\libraries\lvgl\src\misc\lv_color.h **** #if LV_COLOR_DEPTH != 16 && LV_COLOR_16_SWAP != 0
  27:c:\projects\paindrain\arduinolcd\test\pain drain\libraries\lvgl\src\misc\lv_color.h **** #error "LV_COLOR_16_SWAP requires LV_COLOR_DEPTH == 16. Set it in lv_conf.h"
  28:c:\projects\paindrain\arduinolcd\test\pain drain\libraries\lvgl\src\misc\lv_color.h **** #endif
  29:c:\projects\paindrain\arduinolcd\test\pain drain\libraries\lvgl\src\misc\lv_color.h **** 
  30:c:\projects\paindrain\arduinolcd\test\pain drain\libraries\lvgl\src\misc\lv_color.h **** #include <stdint.h>
  31:c:\projects\paindrain\arduinolcd\test\pain drain\libraries\lvgl\src\misc\lv_color.h **** 
  32:c:\projects\paindrain\arduinolcd\test\pain drain\libraries\lvgl\src\misc\lv_color.h **** /*********************
  33:c:\projects\paindrain\arduinolcd\test\pain drain\libraries\lvgl\src\misc\lv_color.h ****  *      DEFINES
  34:c:\projects\paindrain\arduinolcd\test\pain drain\libraries\lvgl\src\misc\lv_color.h ****  *********************/
  35:c:\projects\paindrain\arduinolcd\test\pain drain\libraries\lvgl\src\misc\lv_color.h **** LV_EXPORT_CONST_INT(LV_COLOR_DEPTH);
  36:c:\projects\paindrain\arduinolcd\test\pain drain\libraries\lvgl\src\misc\lv_color.h **** LV_EXPORT_CONST_INT(LV_COLOR_16_SWAP);
  37:c:\projects\paindrain\arduinolcd\test\pain drain\libraries\lvgl\src\misc\lv_color.h **** 
  38:c:\projects\paindrain\arduinolcd\test\pain drain\libraries\lvgl\src\misc\lv_color.h **** /**
  39:c:\projects\paindrain\arduinolcd\test\pain drain\libraries\lvgl\src\misc\lv_color.h ****  * Opacity percentages.
  40:c:\projects\paindrain\arduinolcd\test\pain drain\libraries\lvgl\src\misc\lv_color.h ****  */
  41:c:\projects\paindrain\arduinolcd\test\pain drain\libraries\lvgl\src\misc\lv_color.h **** enum {
  42:c:\projects\paindrain\arduinolcd\test\pain drain\libraries\lvgl\src\misc\lv_color.h ****     LV_OPA_TRANSP = 0,
  43:c:\projects\paindrain\arduinolcd\test\pain drain\libraries\lvgl\src\misc\lv_color.h ****     LV_OPA_0      = 0,
  44:c:\projects\paindrain\arduinolcd\test\pain drain\libraries\lvgl\src\misc\lv_color.h ****     LV_OPA_10     = 25,
  45:c:\projects\paindrain\arduinolcd\test\pain drain\libraries\lvgl\src\misc\lv_color.h ****     LV_OPA_20     = 51,
  46:c:\projects\paindrain\arduinolcd\test\pain drain\libraries\lvgl\src\misc\lv_color.h ****     LV_OPA_30     = 76,
  47:c:\projects\paindrain\arduinolcd\test\pain drain\libraries\lvgl\src\misc\lv_color.h ****     LV_OPA_40     = 102,
  48:c:\projects\paindrain\arduinolcd\test\pain drain\libraries\lvgl\src\misc\lv_color.h ****     LV_OPA_50     = 127,
  49:c:\projects\paindrain\arduinolcd\test\pain drain\libraries\lvgl\src\misc\lv_color.h ****     LV_OPA_60     = 153,
  50:c:\projects\paindrain\arduinolcd\test\pain drain\libraries\lvgl\src\misc\lv_color.h ****     LV_OPA_70     = 178,
  51:c:\projects\paindrain\arduinolcd\test\pain drain\libraries\lvgl\src\misc\lv_color.h ****     LV_OPA_80     = 204,
  52:c:\projects\paindrain\arduinolcd\test\pain drain\libraries\lvgl\src\misc\lv_color.h ****     LV_OPA_90     = 229,
  53:c:\projects\paindrain\arduinolcd\test\pain drain\libraries\lvgl\src\misc\lv_color.h ****     LV_OPA_100    = 255,
  54:c:\projects\paindrain\arduinolcd\test\pain drain\libraries\lvgl\src\misc\lv_color.h ****     LV_OPA_COVER  = 255,
  55:c:\projects\paindrain\arduinolcd\test\pain drain\libraries\lvgl\src\misc\lv_color.h **** };
  56:c:\projects\paindrain\arduinolcd\test\pain drain\libraries\lvgl\src\misc\lv_color.h **** 
  57:c:\projects\paindrain\arduinolcd\test\pain drain\libraries\lvgl\src\misc\lv_color.h **** #define LV_OPA_MIN 2    /*Opacities below this will be transparent*/
  58:c:\projects\paindrain\arduinolcd\test\pain drain\libraries\lvgl\src\misc\lv_color.h **** #define LV_OPA_MAX 253  /*Opacities above this will fully cover*/
  59:c:\projects\paindrain\arduinolcd\test\pain drain\libraries\lvgl\src\misc\lv_color.h **** 
  60:c:\projects\paindrain\arduinolcd\test\pain drain\libraries\lvgl\src\misc\lv_color.h **** #if LV_COLOR_DEPTH == 1
  61:c:\projects\paindrain\arduinolcd\test\pain drain\libraries\lvgl\src\misc\lv_color.h **** #define LV_COLOR_SIZE 8
  62:c:\projects\paindrain\arduinolcd\test\pain drain\libraries\lvgl\src\misc\lv_color.h **** #elif LV_COLOR_DEPTH == 8
  63:c:\projects\paindrain\arduinolcd\test\pain drain\libraries\lvgl\src\misc\lv_color.h **** #define LV_COLOR_SIZE 8
  64:c:\projects\paindrain\arduinolcd\test\pain drain\libraries\lvgl\src\misc\lv_color.h **** #elif LV_COLOR_DEPTH == 16
  65:c:\projects\paindrain\arduinolcd\test\pain drain\libraries\lvgl\src\misc\lv_color.h **** #define LV_COLOR_SIZE 16
ARM GAS  C:\Users\haske\AppData\Local\Temp\ccxUXv8a.s 			page 55


  66:c:\projects\paindrain\arduinolcd\test\pain drain\libraries\lvgl\src\misc\lv_color.h **** #elif LV_COLOR_DEPTH == 32
  67:c:\projects\paindrain\arduinolcd\test\pain drain\libraries\lvgl\src\misc\lv_color.h **** #define LV_COLOR_SIZE 32
  68:c:\projects\paindrain\arduinolcd\test\pain drain\libraries\lvgl\src\misc\lv_color.h **** #else
  69:c:\projects\paindrain\arduinolcd\test\pain drain\libraries\lvgl\src\misc\lv_color.h **** #error "Invalid LV_COLOR_DEPTH in lv_conf.h! Set it to 1, 8, 16 or 32!"
  70:c:\projects\paindrain\arduinolcd\test\pain drain\libraries\lvgl\src\misc\lv_color.h **** #endif
  71:c:\projects\paindrain\arduinolcd\test\pain drain\libraries\lvgl\src\misc\lv_color.h **** 
  72:c:\projects\paindrain\arduinolcd\test\pain drain\libraries\lvgl\src\misc\lv_color.h **** #if defined(__cplusplus) && !defined(_LV_COLOR_HAS_MODERN_CPP)
  73:c:\projects\paindrain\arduinolcd\test\pain drain\libraries\lvgl\src\misc\lv_color.h **** /**
  74:c:\projects\paindrain\arduinolcd\test\pain drain\libraries\lvgl\src\misc\lv_color.h **** * MSVC compiler's definition of the __cplusplus indicating 199711L regardless to C++ standard versi
  75:c:\projects\paindrain\arduinolcd\test\pain drain\libraries\lvgl\src\misc\lv_color.h **** * see https://devblogs.microsoft.com/cppblog/msvc-now-correctly-reports-cplusplus
  76:c:\projects\paindrain\arduinolcd\test\pain drain\libraries\lvgl\src\misc\lv_color.h **** * so we use _MSC_VER macro instead of __cplusplus
  77:c:\projects\paindrain\arduinolcd\test\pain drain\libraries\lvgl\src\misc\lv_color.h **** */
  78:c:\projects\paindrain\arduinolcd\test\pain drain\libraries\lvgl\src\misc\lv_color.h **** #ifdef _MSC_VER
  79:c:\projects\paindrain\arduinolcd\test\pain drain\libraries\lvgl\src\misc\lv_color.h **** #if _MSC_VER >= 1900 /*Visual Studio 2015*/
  80:c:\projects\paindrain\arduinolcd\test\pain drain\libraries\lvgl\src\misc\lv_color.h **** #define _LV_COLOR_HAS_MODERN_CPP 1
  81:c:\projects\paindrain\arduinolcd\test\pain drain\libraries\lvgl\src\misc\lv_color.h **** #endif
  82:c:\projects\paindrain\arduinolcd\test\pain drain\libraries\lvgl\src\misc\lv_color.h **** #else
  83:c:\projects\paindrain\arduinolcd\test\pain drain\libraries\lvgl\src\misc\lv_color.h **** #if __cplusplus >= 201103L
  84:c:\projects\paindrain\arduinolcd\test\pain drain\libraries\lvgl\src\misc\lv_color.h **** #define _LV_COLOR_HAS_MODERN_CPP 1
  85:c:\projects\paindrain\arduinolcd\test\pain drain\libraries\lvgl\src\misc\lv_color.h **** #endif
  86:c:\projects\paindrain\arduinolcd\test\pain drain\libraries\lvgl\src\misc\lv_color.h **** #endif
  87:c:\projects\paindrain\arduinolcd\test\pain drain\libraries\lvgl\src\misc\lv_color.h **** #endif /*__cplusplus*/
  88:c:\projects\paindrain\arduinolcd\test\pain drain\libraries\lvgl\src\misc\lv_color.h **** 
  89:c:\projects\paindrain\arduinolcd\test\pain drain\libraries\lvgl\src\misc\lv_color.h **** #ifndef _LV_COLOR_HAS_MODERN_CPP
  90:c:\projects\paindrain\arduinolcd\test\pain drain\libraries\lvgl\src\misc\lv_color.h **** #define _LV_COLOR_HAS_MODERN_CPP 0
  91:c:\projects\paindrain\arduinolcd\test\pain drain\libraries\lvgl\src\misc\lv_color.h **** #endif
  92:c:\projects\paindrain\arduinolcd\test\pain drain\libraries\lvgl\src\misc\lv_color.h **** 
  93:c:\projects\paindrain\arduinolcd\test\pain drain\libraries\lvgl\src\misc\lv_color.h **** #if _LV_COLOR_HAS_MODERN_CPP
  94:c:\projects\paindrain\arduinolcd\test\pain drain\libraries\lvgl\src\misc\lv_color.h **** /*Fix msvc compiler error C4576 inside C++ code*/
  95:c:\projects\paindrain\arduinolcd\test\pain drain\libraries\lvgl\src\misc\lv_color.h **** #define _LV_COLOR_MAKE_TYPE_HELPER lv_color_t
  96:c:\projects\paindrain\arduinolcd\test\pain drain\libraries\lvgl\src\misc\lv_color.h **** #else
  97:c:\projects\paindrain\arduinolcd\test\pain drain\libraries\lvgl\src\misc\lv_color.h **** #define _LV_COLOR_MAKE_TYPE_HELPER (lv_color_t)
  98:c:\projects\paindrain\arduinolcd\test\pain drain\libraries\lvgl\src\misc\lv_color.h **** #endif
  99:c:\projects\paindrain\arduinolcd\test\pain drain\libraries\lvgl\src\misc\lv_color.h **** 
 100:c:\projects\paindrain\arduinolcd\test\pain drain\libraries\lvgl\src\misc\lv_color.h **** /*---------------------------------------
 101:c:\projects\paindrain\arduinolcd\test\pain drain\libraries\lvgl\src\misc\lv_color.h ****  * Macros for all existing color depths
 102:c:\projects\paindrain\arduinolcd\test\pain drain\libraries\lvgl\src\misc\lv_color.h ****  * to set/get values of the color channels
 103:c:\projects\paindrain\arduinolcd\test\pain drain\libraries\lvgl\src\misc\lv_color.h ****  *------------------------------------------*/
 104:c:\projects\paindrain\arduinolcd\test\pain drain\libraries\lvgl\src\misc\lv_color.h **** # define LV_COLOR_SET_R1(c, v) (c).ch.red = (uint8_t)((v) & 0x1)
 105:c:\projects\paindrain\arduinolcd\test\pain drain\libraries\lvgl\src\misc\lv_color.h **** # define LV_COLOR_SET_G1(c, v) (c).ch.green = (uint8_t)((v) & 0x1)
 106:c:\projects\paindrain\arduinolcd\test\pain drain\libraries\lvgl\src\misc\lv_color.h **** # define LV_COLOR_SET_B1(c, v) (c).ch.blue = (uint8_t)((v) & 0x1)
 107:c:\projects\paindrain\arduinolcd\test\pain drain\libraries\lvgl\src\misc\lv_color.h **** # define LV_COLOR_SET_A1(c, v) do {} while(0)
 108:c:\projects\paindrain\arduinolcd\test\pain drain\libraries\lvgl\src\misc\lv_color.h **** 
 109:c:\projects\paindrain\arduinolcd\test\pain drain\libraries\lvgl\src\misc\lv_color.h **** # define LV_COLOR_GET_R1(c) (c).ch.red
 110:c:\projects\paindrain\arduinolcd\test\pain drain\libraries\lvgl\src\misc\lv_color.h **** # define LV_COLOR_GET_G1(c) (c).ch.green
 111:c:\projects\paindrain\arduinolcd\test\pain drain\libraries\lvgl\src\misc\lv_color.h **** # define LV_COLOR_GET_B1(c) (c).ch.blue
 112:c:\projects\paindrain\arduinolcd\test\pain drain\libraries\lvgl\src\misc\lv_color.h **** # define LV_COLOR_GET_A1(c) 0xFF
 113:c:\projects\paindrain\arduinolcd\test\pain drain\libraries\lvgl\src\misc\lv_color.h **** 
 114:c:\projects\paindrain\arduinolcd\test\pain drain\libraries\lvgl\src\misc\lv_color.h **** # define _LV_COLOR_ZERO_INITIALIZER1 {0x00}
 115:c:\projects\paindrain\arduinolcd\test\pain drain\libraries\lvgl\src\misc\lv_color.h **** # define LV_COLOR_MAKE1(r8, g8, b8)  {(uint8_t)((b8 >> 7) | (g8 >> 7) | (r8 >> 7))}
 116:c:\projects\paindrain\arduinolcd\test\pain drain\libraries\lvgl\src\misc\lv_color.h **** 
 117:c:\projects\paindrain\arduinolcd\test\pain drain\libraries\lvgl\src\misc\lv_color.h **** # define LV_COLOR_SET_R8(c, v) (c).ch.red = (uint8_t)((v) & 0x7U)
 118:c:\projects\paindrain\arduinolcd\test\pain drain\libraries\lvgl\src\misc\lv_color.h **** # define LV_COLOR_SET_G8(c, v) (c).ch.green = (uint8_t)((v) & 0x7U)
 119:c:\projects\paindrain\arduinolcd\test\pain drain\libraries\lvgl\src\misc\lv_color.h **** # define LV_COLOR_SET_B8(c, v) (c).ch.blue = (uint8_t)((v) & 0x3U)
