ARM GAS  C:\Users\haske\AppData\Local\Temp\ccOknJt1.s 			page 1


   1              		.syntax unified
   2              		.cpu cortex-m0plus
   3              		.fpu softvfp
   4              		.eabi_attribute 20, 1
   5              		.eabi_attribute 21, 1
   6              		.eabi_attribute 23, 3
   7              		.eabi_attribute 24, 1
   8              		.eabi_attribute 25, 1
   9              		.eabi_attribute 26, 1
  10              		.eabi_attribute 30, 1
  11              		.eabi_attribute 34, 0
  12              		.eabi_attribute 18, 4
  13              		.thumb
  14              		.syntax unified
  15              		.file	"lv_draw_sw_transform.c"
  16              		.text
  17              	.Ltext0:
  18              		.cfi_sections	.debug_frame
  19              		.section	.text.argb_no_aa,"ax",%progbits
  20              		.align	2
  21              		.code	16
  22              		.thumb_func
  23              		.type	argb_no_aa, %function
  24              	argb_no_aa:
  25              	.LFB161:
  26              		.file 1 "..\\..\\..\\arduinoLCD\\test\\Pain Drain\\libraries\\lvgl\\src\\draw\\sw\\lv_draw_sw_tran
   1:..\..\..\arduinoLCD\test\Pain Drain\libraries\lvgl\src\draw\sw/lv_draw_sw_transform.c **** /**
   2:..\..\..\arduinoLCD\test\Pain Drain\libraries\lvgl\src\draw\sw/lv_draw_sw_transform.c ****  * @file lv_draw_sw_tranform.c
   3:..\..\..\arduinoLCD\test\Pain Drain\libraries\lvgl\src\draw\sw/lv_draw_sw_transform.c ****  *
   4:..\..\..\arduinoLCD\test\Pain Drain\libraries\lvgl\src\draw\sw/lv_draw_sw_transform.c ****  */
   5:..\..\..\arduinoLCD\test\Pain Drain\libraries\lvgl\src\draw\sw/lv_draw_sw_transform.c **** 
   6:..\..\..\arduinoLCD\test\Pain Drain\libraries\lvgl\src\draw\sw/lv_draw_sw_transform.c **** /*********************
   7:..\..\..\arduinoLCD\test\Pain Drain\libraries\lvgl\src\draw\sw/lv_draw_sw_transform.c ****  *      INCLUDES
   8:..\..\..\arduinoLCD\test\Pain Drain\libraries\lvgl\src\draw\sw/lv_draw_sw_transform.c ****  *********************/
   9:..\..\..\arduinoLCD\test\Pain Drain\libraries\lvgl\src\draw\sw/lv_draw_sw_transform.c **** #include "lv_draw_sw.h"
  10:..\..\..\arduinoLCD\test\Pain Drain\libraries\lvgl\src\draw\sw/lv_draw_sw_transform.c **** #include "../../misc/lv_assert.h"
  11:..\..\..\arduinoLCD\test\Pain Drain\libraries\lvgl\src\draw\sw/lv_draw_sw_transform.c **** #include "../../misc/lv_area.h"
  12:..\..\..\arduinoLCD\test\Pain Drain\libraries\lvgl\src\draw\sw/lv_draw_sw_transform.c **** #include "../../core/lv_refr.h"
  13:..\..\..\arduinoLCD\test\Pain Drain\libraries\lvgl\src\draw\sw/lv_draw_sw_transform.c **** 
  14:..\..\..\arduinoLCD\test\Pain Drain\libraries\lvgl\src\draw\sw/lv_draw_sw_transform.c **** #if LV_DRAW_COMPLEX
  15:..\..\..\arduinoLCD\test\Pain Drain\libraries\lvgl\src\draw\sw/lv_draw_sw_transform.c **** /*********************
  16:..\..\..\arduinoLCD\test\Pain Drain\libraries\lvgl\src\draw\sw/lv_draw_sw_transform.c ****  *      DEFINES
  17:..\..\..\arduinoLCD\test\Pain Drain\libraries\lvgl\src\draw\sw/lv_draw_sw_transform.c ****  *********************/
  18:..\..\..\arduinoLCD\test\Pain Drain\libraries\lvgl\src\draw\sw/lv_draw_sw_transform.c **** 
  19:..\..\..\arduinoLCD\test\Pain Drain\libraries\lvgl\src\draw\sw/lv_draw_sw_transform.c **** /**********************
  20:..\..\..\arduinoLCD\test\Pain Drain\libraries\lvgl\src\draw\sw/lv_draw_sw_transform.c ****  *      TYPEDEFS
  21:..\..\..\arduinoLCD\test\Pain Drain\libraries\lvgl\src\draw\sw/lv_draw_sw_transform.c ****  **********************/
  22:..\..\..\arduinoLCD\test\Pain Drain\libraries\lvgl\src\draw\sw/lv_draw_sw_transform.c **** typedef struct {
  23:..\..\..\arduinoLCD\test\Pain Drain\libraries\lvgl\src\draw\sw/lv_draw_sw_transform.c ****     int32_t x_in;
  24:..\..\..\arduinoLCD\test\Pain Drain\libraries\lvgl\src\draw\sw/lv_draw_sw_transform.c ****     int32_t y_in;
  25:..\..\..\arduinoLCD\test\Pain Drain\libraries\lvgl\src\draw\sw/lv_draw_sw_transform.c ****     int32_t x_out;
  26:..\..\..\arduinoLCD\test\Pain Drain\libraries\lvgl\src\draw\sw/lv_draw_sw_transform.c ****     int32_t y_out;
  27:..\..\..\arduinoLCD\test\Pain Drain\libraries\lvgl\src\draw\sw/lv_draw_sw_transform.c ****     int32_t sinma;
  28:..\..\..\arduinoLCD\test\Pain Drain\libraries\lvgl\src\draw\sw/lv_draw_sw_transform.c ****     int32_t cosma;
  29:..\..\..\arduinoLCD\test\Pain Drain\libraries\lvgl\src\draw\sw/lv_draw_sw_transform.c ****     int32_t zoom;
  30:..\..\..\arduinoLCD\test\Pain Drain\libraries\lvgl\src\draw\sw/lv_draw_sw_transform.c ****     int32_t angle;
  31:..\..\..\arduinoLCD\test\Pain Drain\libraries\lvgl\src\draw\sw/lv_draw_sw_transform.c ****     int32_t pivot_x_256;
ARM GAS  C:\Users\haske\AppData\Local\Temp\ccOknJt1.s 			page 2


  32:..\..\..\arduinoLCD\test\Pain Drain\libraries\lvgl\src\draw\sw/lv_draw_sw_transform.c ****     int32_t pivot_y_256;
  33:..\..\..\arduinoLCD\test\Pain Drain\libraries\lvgl\src\draw\sw/lv_draw_sw_transform.c ****     lv_point_t pivot;
  34:..\..\..\arduinoLCD\test\Pain Drain\libraries\lvgl\src\draw\sw/lv_draw_sw_transform.c **** } point_transform_dsc_t;
  35:..\..\..\arduinoLCD\test\Pain Drain\libraries\lvgl\src\draw\sw/lv_draw_sw_transform.c **** 
  36:..\..\..\arduinoLCD\test\Pain Drain\libraries\lvgl\src\draw\sw/lv_draw_sw_transform.c **** /**********************
  37:..\..\..\arduinoLCD\test\Pain Drain\libraries\lvgl\src\draw\sw/lv_draw_sw_transform.c ****  *  STATIC PROTOTYPES
  38:..\..\..\arduinoLCD\test\Pain Drain\libraries\lvgl\src\draw\sw/lv_draw_sw_transform.c ****  **********************/
  39:..\..\..\arduinoLCD\test\Pain Drain\libraries\lvgl\src\draw\sw/lv_draw_sw_transform.c **** /**
  40:..\..\..\arduinoLCD\test\Pain Drain\libraries\lvgl\src\draw\sw/lv_draw_sw_transform.c ****  * Transform a point with 1/256 precision (the output coordinates are upscaled by 256)
  41:..\..\..\arduinoLCD\test\Pain Drain\libraries\lvgl\src\draw\sw/lv_draw_sw_transform.c ****  * @param t         pointer to n initialized `point_transform_dsc_t` structure
  42:..\..\..\arduinoLCD\test\Pain Drain\libraries\lvgl\src\draw\sw/lv_draw_sw_transform.c ****  * @param xin       X coordinate to rotate
  43:..\..\..\arduinoLCD\test\Pain Drain\libraries\lvgl\src\draw\sw/lv_draw_sw_transform.c ****  * @param yin       Y coordinate to rotate
  44:..\..\..\arduinoLCD\test\Pain Drain\libraries\lvgl\src\draw\sw/lv_draw_sw_transform.c ****  * @param xout      upscaled, transformed X
  45:..\..\..\arduinoLCD\test\Pain Drain\libraries\lvgl\src\draw\sw/lv_draw_sw_transform.c ****  * @param yout      upscaled, transformed Y
  46:..\..\..\arduinoLCD\test\Pain Drain\libraries\lvgl\src\draw\sw/lv_draw_sw_transform.c ****  */
  47:..\..\..\arduinoLCD\test\Pain Drain\libraries\lvgl\src\draw\sw/lv_draw_sw_transform.c **** static void transform_point_upscaled(point_transform_dsc_t * t, int32_t xin, int32_t yin, int32_t *
  48:..\..\..\arduinoLCD\test\Pain Drain\libraries\lvgl\src\draw\sw/lv_draw_sw_transform.c ****                                      int32_t * yout);
  49:..\..\..\arduinoLCD\test\Pain Drain\libraries\lvgl\src\draw\sw/lv_draw_sw_transform.c **** 
  50:..\..\..\arduinoLCD\test\Pain Drain\libraries\lvgl\src\draw\sw/lv_draw_sw_transform.c **** static void argb_no_aa(const uint8_t * src, lv_coord_t src_w, lv_coord_t src_h, lv_coord_t src_stri
  51:..\..\..\arduinoLCD\test\Pain Drain\libraries\lvgl\src\draw\sw/lv_draw_sw_transform.c ****                        int32_t xs_ups, int32_t ys_ups, int32_t xs_step, int32_t ys_step,
  52:..\..\..\arduinoLCD\test\Pain Drain\libraries\lvgl\src\draw\sw/lv_draw_sw_transform.c ****                        int32_t x_end, lv_color_t * cbuf, uint8_t * abuf);
  53:..\..\..\arduinoLCD\test\Pain Drain\libraries\lvgl\src\draw\sw/lv_draw_sw_transform.c **** 
  54:..\..\..\arduinoLCD\test\Pain Drain\libraries\lvgl\src\draw\sw/lv_draw_sw_transform.c **** static void rgb_no_aa(const uint8_t * src, lv_coord_t src_w, lv_coord_t src_h, lv_coord_t src_strid
  55:..\..\..\arduinoLCD\test\Pain Drain\libraries\lvgl\src\draw\sw/lv_draw_sw_transform.c ****                       int32_t xs_ups, int32_t ys_ups, int32_t xs_step, int32_t ys_step,
  56:..\..\..\arduinoLCD\test\Pain Drain\libraries\lvgl\src\draw\sw/lv_draw_sw_transform.c ****                       int32_t x_end, lv_color_t * cbuf, uint8_t * abuf, lv_img_cf_t cf);
  57:..\..\..\arduinoLCD\test\Pain Drain\libraries\lvgl\src\draw\sw/lv_draw_sw_transform.c **** 
  58:..\..\..\arduinoLCD\test\Pain Drain\libraries\lvgl\src\draw\sw/lv_draw_sw_transform.c **** #if LV_COLOR_DEPTH == 16
  59:..\..\..\arduinoLCD\test\Pain Drain\libraries\lvgl\src\draw\sw/lv_draw_sw_transform.c **** static void rgb565a8_no_aa(const uint8_t * src, lv_coord_t src_w, lv_coord_t src_h, lv_coord_t src_
  60:..\..\..\arduinoLCD\test\Pain Drain\libraries\lvgl\src\draw\sw/lv_draw_sw_transform.c ****                            int32_t xs_ups, int32_t ys_ups, int32_t xs_step, int32_t ys_step,
  61:..\..\..\arduinoLCD\test\Pain Drain\libraries\lvgl\src\draw\sw/lv_draw_sw_transform.c ****                            int32_t x_end, lv_color_t * cbuf, uint8_t * abuf);
  62:..\..\..\arduinoLCD\test\Pain Drain\libraries\lvgl\src\draw\sw/lv_draw_sw_transform.c **** #endif
  63:..\..\..\arduinoLCD\test\Pain Drain\libraries\lvgl\src\draw\sw/lv_draw_sw_transform.c **** 
  64:..\..\..\arduinoLCD\test\Pain Drain\libraries\lvgl\src\draw\sw/lv_draw_sw_transform.c **** static void argb_and_rgb_aa(const uint8_t * src, lv_coord_t src_w, lv_coord_t src_h, lv_coord_t src
  65:..\..\..\arduinoLCD\test\Pain Drain\libraries\lvgl\src\draw\sw/lv_draw_sw_transform.c ****                             int32_t xs_ups, int32_t ys_ups, int32_t xs_step, int32_t ys_step,
  66:..\..\..\arduinoLCD\test\Pain Drain\libraries\lvgl\src\draw\sw/lv_draw_sw_transform.c ****                             int32_t x_end, lv_color_t * cbuf, uint8_t * abuf, lv_img_cf_t cf);
  67:..\..\..\arduinoLCD\test\Pain Drain\libraries\lvgl\src\draw\sw/lv_draw_sw_transform.c **** 
  68:..\..\..\arduinoLCD\test\Pain Drain\libraries\lvgl\src\draw\sw/lv_draw_sw_transform.c **** /**********************
  69:..\..\..\arduinoLCD\test\Pain Drain\libraries\lvgl\src\draw\sw/lv_draw_sw_transform.c ****  *  STATIC VARIABLES
  70:..\..\..\arduinoLCD\test\Pain Drain\libraries\lvgl\src\draw\sw/lv_draw_sw_transform.c ****  **********************/
  71:..\..\..\arduinoLCD\test\Pain Drain\libraries\lvgl\src\draw\sw/lv_draw_sw_transform.c **** 
  72:..\..\..\arduinoLCD\test\Pain Drain\libraries\lvgl\src\draw\sw/lv_draw_sw_transform.c **** /**********************
  73:..\..\..\arduinoLCD\test\Pain Drain\libraries\lvgl\src\draw\sw/lv_draw_sw_transform.c ****  *      MACROS
  74:..\..\..\arduinoLCD\test\Pain Drain\libraries\lvgl\src\draw\sw/lv_draw_sw_transform.c ****  **********************/
  75:..\..\..\arduinoLCD\test\Pain Drain\libraries\lvgl\src\draw\sw/lv_draw_sw_transform.c **** 
  76:..\..\..\arduinoLCD\test\Pain Drain\libraries\lvgl\src\draw\sw/lv_draw_sw_transform.c **** /**********************
  77:..\..\..\arduinoLCD\test\Pain Drain\libraries\lvgl\src\draw\sw/lv_draw_sw_transform.c ****  *   GLOBAL FUNCTIONS
  78:..\..\..\arduinoLCD\test\Pain Drain\libraries\lvgl\src\draw\sw/lv_draw_sw_transform.c ****  **********************/
  79:..\..\..\arduinoLCD\test\Pain Drain\libraries\lvgl\src\draw\sw/lv_draw_sw_transform.c **** 
  80:..\..\..\arduinoLCD\test\Pain Drain\libraries\lvgl\src\draw\sw/lv_draw_sw_transform.c **** void lv_draw_sw_transform(lv_draw_ctx_t * draw_ctx, const lv_area_t * dest_area, const void * src_b
  81:..\..\..\arduinoLCD\test\Pain Drain\libraries\lvgl\src\draw\sw/lv_draw_sw_transform.c ****                           lv_coord_t src_w, lv_coord_t src_h, lv_coord_t src_stride,
  82:..\..\..\arduinoLCD\test\Pain Drain\libraries\lvgl\src\draw\sw/lv_draw_sw_transform.c ****                           const lv_draw_img_dsc_t * draw_dsc, lv_img_cf_t cf, lv_color_t * cbuf, lv
  83:..\..\..\arduinoLCD\test\Pain Drain\libraries\lvgl\src\draw\sw/lv_draw_sw_transform.c **** {
  84:..\..\..\arduinoLCD\test\Pain Drain\libraries\lvgl\src\draw\sw/lv_draw_sw_transform.c ****     LV_UNUSED(draw_ctx);
  85:..\..\..\arduinoLCD\test\Pain Drain\libraries\lvgl\src\draw\sw/lv_draw_sw_transform.c **** 
  86:..\..\..\arduinoLCD\test\Pain Drain\libraries\lvgl\src\draw\sw/lv_draw_sw_transform.c ****     point_transform_dsc_t tr_dsc;
  87:..\..\..\arduinoLCD\test\Pain Drain\libraries\lvgl\src\draw\sw/lv_draw_sw_transform.c ****     tr_dsc.angle = -draw_dsc->angle;
  88:..\..\..\arduinoLCD\test\Pain Drain\libraries\lvgl\src\draw\sw/lv_draw_sw_transform.c ****     tr_dsc.zoom = (256 * 256) / draw_dsc->zoom;
ARM GAS  C:\Users\haske\AppData\Local\Temp\ccOknJt1.s 			page 3


  89:..\..\..\arduinoLCD\test\Pain Drain\libraries\lvgl\src\draw\sw/lv_draw_sw_transform.c ****     tr_dsc.pivot = draw_dsc->pivot;
  90:..\..\..\arduinoLCD\test\Pain Drain\libraries\lvgl\src\draw\sw/lv_draw_sw_transform.c **** 
  91:..\..\..\arduinoLCD\test\Pain Drain\libraries\lvgl\src\draw\sw/lv_draw_sw_transform.c ****     int32_t angle_low = tr_dsc.angle / 10;
  92:..\..\..\arduinoLCD\test\Pain Drain\libraries\lvgl\src\draw\sw/lv_draw_sw_transform.c ****     int32_t angle_high = angle_low + 1;
  93:..\..\..\arduinoLCD\test\Pain Drain\libraries\lvgl\src\draw\sw/lv_draw_sw_transform.c ****     int32_t angle_rem = tr_dsc.angle  - (angle_low * 10);
  94:..\..\..\arduinoLCD\test\Pain Drain\libraries\lvgl\src\draw\sw/lv_draw_sw_transform.c **** 
  95:..\..\..\arduinoLCD\test\Pain Drain\libraries\lvgl\src\draw\sw/lv_draw_sw_transform.c ****     int32_t s1 = lv_trigo_sin(angle_low);
  96:..\..\..\arduinoLCD\test\Pain Drain\libraries\lvgl\src\draw\sw/lv_draw_sw_transform.c ****     int32_t s2 = lv_trigo_sin(angle_high);
  97:..\..\..\arduinoLCD\test\Pain Drain\libraries\lvgl\src\draw\sw/lv_draw_sw_transform.c **** 
  98:..\..\..\arduinoLCD\test\Pain Drain\libraries\lvgl\src\draw\sw/lv_draw_sw_transform.c ****     int32_t c1 = lv_trigo_sin(angle_low + 90);
  99:..\..\..\arduinoLCD\test\Pain Drain\libraries\lvgl\src\draw\sw/lv_draw_sw_transform.c ****     int32_t c2 = lv_trigo_sin(angle_high + 90);
 100:..\..\..\arduinoLCD\test\Pain Drain\libraries\lvgl\src\draw\sw/lv_draw_sw_transform.c **** 
 101:..\..\..\arduinoLCD\test\Pain Drain\libraries\lvgl\src\draw\sw/lv_draw_sw_transform.c ****     tr_dsc.sinma = (s1 * (10 - angle_rem) + s2 * angle_rem) / 10;
 102:..\..\..\arduinoLCD\test\Pain Drain\libraries\lvgl\src\draw\sw/lv_draw_sw_transform.c ****     tr_dsc.cosma = (c1 * (10 - angle_rem) + c2 * angle_rem) / 10;
 103:..\..\..\arduinoLCD\test\Pain Drain\libraries\lvgl\src\draw\sw/lv_draw_sw_transform.c ****     tr_dsc.sinma = tr_dsc.sinma >> (LV_TRIGO_SHIFT - 10);
 104:..\..\..\arduinoLCD\test\Pain Drain\libraries\lvgl\src\draw\sw/lv_draw_sw_transform.c ****     tr_dsc.cosma = tr_dsc.cosma >> (LV_TRIGO_SHIFT - 10);
 105:..\..\..\arduinoLCD\test\Pain Drain\libraries\lvgl\src\draw\sw/lv_draw_sw_transform.c ****     tr_dsc.pivot_x_256 = tr_dsc.pivot.x * 256;
 106:..\..\..\arduinoLCD\test\Pain Drain\libraries\lvgl\src\draw\sw/lv_draw_sw_transform.c ****     tr_dsc.pivot_y_256 = tr_dsc.pivot.y * 256;
 107:..\..\..\arduinoLCD\test\Pain Drain\libraries\lvgl\src\draw\sw/lv_draw_sw_transform.c **** 
 108:..\..\..\arduinoLCD\test\Pain Drain\libraries\lvgl\src\draw\sw/lv_draw_sw_transform.c ****     lv_coord_t dest_w = lv_area_get_width(dest_area);
 109:..\..\..\arduinoLCD\test\Pain Drain\libraries\lvgl\src\draw\sw/lv_draw_sw_transform.c ****     lv_coord_t dest_h = lv_area_get_height(dest_area);
 110:..\..\..\arduinoLCD\test\Pain Drain\libraries\lvgl\src\draw\sw/lv_draw_sw_transform.c ****     lv_coord_t y;
 111:..\..\..\arduinoLCD\test\Pain Drain\libraries\lvgl\src\draw\sw/lv_draw_sw_transform.c ****     for(y = 0; y < dest_h; y++) {
 112:..\..\..\arduinoLCD\test\Pain Drain\libraries\lvgl\src\draw\sw/lv_draw_sw_transform.c ****         int32_t xs1_ups, ys1_ups, xs2_ups, ys2_ups;
 113:..\..\..\arduinoLCD\test\Pain Drain\libraries\lvgl\src\draw\sw/lv_draw_sw_transform.c **** 
 114:..\..\..\arduinoLCD\test\Pain Drain\libraries\lvgl\src\draw\sw/lv_draw_sw_transform.c ****         transform_point_upscaled(&tr_dsc, dest_area->x1, dest_area->y1 + y, &xs1_ups, &ys1_ups);
 115:..\..\..\arduinoLCD\test\Pain Drain\libraries\lvgl\src\draw\sw/lv_draw_sw_transform.c ****         transform_point_upscaled(&tr_dsc, dest_area->x2, dest_area->y1 + y, &xs2_ups, &ys2_ups);
 116:..\..\..\arduinoLCD\test\Pain Drain\libraries\lvgl\src\draw\sw/lv_draw_sw_transform.c **** 
 117:..\..\..\arduinoLCD\test\Pain Drain\libraries\lvgl\src\draw\sw/lv_draw_sw_transform.c ****         int32_t xs_diff = xs2_ups - xs1_ups;
 118:..\..\..\arduinoLCD\test\Pain Drain\libraries\lvgl\src\draw\sw/lv_draw_sw_transform.c ****         int32_t ys_diff = ys2_ups - ys1_ups;
 119:..\..\..\arduinoLCD\test\Pain Drain\libraries\lvgl\src\draw\sw/lv_draw_sw_transform.c ****         int32_t xs_step_256 = 0;
 120:..\..\..\arduinoLCD\test\Pain Drain\libraries\lvgl\src\draw\sw/lv_draw_sw_transform.c ****         int32_t ys_step_256 = 0;
 121:..\..\..\arduinoLCD\test\Pain Drain\libraries\lvgl\src\draw\sw/lv_draw_sw_transform.c ****         if(dest_w > 1) {
 122:..\..\..\arduinoLCD\test\Pain Drain\libraries\lvgl\src\draw\sw/lv_draw_sw_transform.c ****             xs_step_256 = (256 * xs_diff) / (dest_w - 1);
 123:..\..\..\arduinoLCD\test\Pain Drain\libraries\lvgl\src\draw\sw/lv_draw_sw_transform.c ****             ys_step_256 = (256 * ys_diff) / (dest_w - 1);
 124:..\..\..\arduinoLCD\test\Pain Drain\libraries\lvgl\src\draw\sw/lv_draw_sw_transform.c ****         }
 125:..\..\..\arduinoLCD\test\Pain Drain\libraries\lvgl\src\draw\sw/lv_draw_sw_transform.c ****         int32_t xs_ups = xs1_ups + 0x80;
 126:..\..\..\arduinoLCD\test\Pain Drain\libraries\lvgl\src\draw\sw/lv_draw_sw_transform.c ****         int32_t ys_ups = ys1_ups + 0x80;
 127:..\..\..\arduinoLCD\test\Pain Drain\libraries\lvgl\src\draw\sw/lv_draw_sw_transform.c **** 
 128:..\..\..\arduinoLCD\test\Pain Drain\libraries\lvgl\src\draw\sw/lv_draw_sw_transform.c ****         if(draw_dsc->antialias == 0) {
 129:..\..\..\arduinoLCD\test\Pain Drain\libraries\lvgl\src\draw\sw/lv_draw_sw_transform.c ****             switch(cf) {
 130:..\..\..\arduinoLCD\test\Pain Drain\libraries\lvgl\src\draw\sw/lv_draw_sw_transform.c ****                 case LV_IMG_CF_TRUE_COLOR_ALPHA:
 131:..\..\..\arduinoLCD\test\Pain Drain\libraries\lvgl\src\draw\sw/lv_draw_sw_transform.c ****                     argb_no_aa(src_buf, src_w, src_h, src_stride, xs_ups, ys_ups, xs_step_256, ys_s
 132:..\..\..\arduinoLCD\test\Pain Drain\libraries\lvgl\src\draw\sw/lv_draw_sw_transform.c ****                     break;
 133:..\..\..\arduinoLCD\test\Pain Drain\libraries\lvgl\src\draw\sw/lv_draw_sw_transform.c ****                 case LV_IMG_CF_TRUE_COLOR:
 134:..\..\..\arduinoLCD\test\Pain Drain\libraries\lvgl\src\draw\sw/lv_draw_sw_transform.c ****                 case LV_IMG_CF_TRUE_COLOR_CHROMA_KEYED:
 135:..\..\..\arduinoLCD\test\Pain Drain\libraries\lvgl\src\draw\sw/lv_draw_sw_transform.c ****                     rgb_no_aa(src_buf, src_w, src_h, src_stride, xs_ups, ys_ups, xs_step_256, ys_st
 136:..\..\..\arduinoLCD\test\Pain Drain\libraries\lvgl\src\draw\sw/lv_draw_sw_transform.c ****                     break;
 137:..\..\..\arduinoLCD\test\Pain Drain\libraries\lvgl\src\draw\sw/lv_draw_sw_transform.c **** 
 138:..\..\..\arduinoLCD\test\Pain Drain\libraries\lvgl\src\draw\sw/lv_draw_sw_transform.c **** #if LV_COLOR_DEPTH == 16
 139:..\..\..\arduinoLCD\test\Pain Drain\libraries\lvgl\src\draw\sw/lv_draw_sw_transform.c ****                 case LV_IMG_CF_RGB565A8:
 140:..\..\..\arduinoLCD\test\Pain Drain\libraries\lvgl\src\draw\sw/lv_draw_sw_transform.c ****                     rgb565a8_no_aa(src_buf, src_w, src_h, src_stride, xs_ups, ys_ups, xs_step_256, 
 141:..\..\..\arduinoLCD\test\Pain Drain\libraries\lvgl\src\draw\sw/lv_draw_sw_transform.c ****                     break;
 142:..\..\..\arduinoLCD\test\Pain Drain\libraries\lvgl\src\draw\sw/lv_draw_sw_transform.c **** #endif
 143:..\..\..\arduinoLCD\test\Pain Drain\libraries\lvgl\src\draw\sw/lv_draw_sw_transform.c ****                 default:
 144:..\..\..\arduinoLCD\test\Pain Drain\libraries\lvgl\src\draw\sw/lv_draw_sw_transform.c ****                     break;
 145:..\..\..\arduinoLCD\test\Pain Drain\libraries\lvgl\src\draw\sw/lv_draw_sw_transform.c ****             }
ARM GAS  C:\Users\haske\AppData\Local\Temp\ccOknJt1.s 			page 4


 146:..\..\..\arduinoLCD\test\Pain Drain\libraries\lvgl\src\draw\sw/lv_draw_sw_transform.c ****         }
 147:..\..\..\arduinoLCD\test\Pain Drain\libraries\lvgl\src\draw\sw/lv_draw_sw_transform.c ****         else {
 148:..\..\..\arduinoLCD\test\Pain Drain\libraries\lvgl\src\draw\sw/lv_draw_sw_transform.c ****             argb_and_rgb_aa(src_buf, src_w, src_h, src_stride, xs_ups, ys_ups, xs_step_256, ys_step
 149:..\..\..\arduinoLCD\test\Pain Drain\libraries\lvgl\src\draw\sw/lv_draw_sw_transform.c ****         }
 150:..\..\..\arduinoLCD\test\Pain Drain\libraries\lvgl\src\draw\sw/lv_draw_sw_transform.c **** 
 151:..\..\..\arduinoLCD\test\Pain Drain\libraries\lvgl\src\draw\sw/lv_draw_sw_transform.c ****         cbuf += dest_w;
 152:..\..\..\arduinoLCD\test\Pain Drain\libraries\lvgl\src\draw\sw/lv_draw_sw_transform.c ****         abuf += dest_w;
 153:..\..\..\arduinoLCD\test\Pain Drain\libraries\lvgl\src\draw\sw/lv_draw_sw_transform.c ****     }
 154:..\..\..\arduinoLCD\test\Pain Drain\libraries\lvgl\src\draw\sw/lv_draw_sw_transform.c **** }
 155:..\..\..\arduinoLCD\test\Pain Drain\libraries\lvgl\src\draw\sw/lv_draw_sw_transform.c **** 
 156:..\..\..\arduinoLCD\test\Pain Drain\libraries\lvgl\src\draw\sw/lv_draw_sw_transform.c **** /**********************
 157:..\..\..\arduinoLCD\test\Pain Drain\libraries\lvgl\src\draw\sw/lv_draw_sw_transform.c ****  *   STATIC FUNCTIONS
 158:..\..\..\arduinoLCD\test\Pain Drain\libraries\lvgl\src\draw\sw/lv_draw_sw_transform.c ****  **********************/
 159:..\..\..\arduinoLCD\test\Pain Drain\libraries\lvgl\src\draw\sw/lv_draw_sw_transform.c **** 
 160:..\..\..\arduinoLCD\test\Pain Drain\libraries\lvgl\src\draw\sw/lv_draw_sw_transform.c **** static void rgb_no_aa(const uint8_t * src, lv_coord_t src_w, lv_coord_t src_h, lv_coord_t src_strid
 161:..\..\..\arduinoLCD\test\Pain Drain\libraries\lvgl\src\draw\sw/lv_draw_sw_transform.c ****                       int32_t xs_ups, int32_t ys_ups, int32_t xs_step, int32_t ys_step,
 162:..\..\..\arduinoLCD\test\Pain Drain\libraries\lvgl\src\draw\sw/lv_draw_sw_transform.c ****                       int32_t x_end, lv_color_t * cbuf, uint8_t * abuf, lv_img_cf_t cf)
 163:..\..\..\arduinoLCD\test\Pain Drain\libraries\lvgl\src\draw\sw/lv_draw_sw_transform.c **** {
 164:..\..\..\arduinoLCD\test\Pain Drain\libraries\lvgl\src\draw\sw/lv_draw_sw_transform.c ****     int32_t xs_ups_start = xs_ups;
 165:..\..\..\arduinoLCD\test\Pain Drain\libraries\lvgl\src\draw\sw/lv_draw_sw_transform.c ****     int32_t ys_ups_start = ys_ups;
 166:..\..\..\arduinoLCD\test\Pain Drain\libraries\lvgl\src\draw\sw/lv_draw_sw_transform.c ****     lv_disp_t * d = _lv_refr_get_disp_refreshing();
 167:..\..\..\arduinoLCD\test\Pain Drain\libraries\lvgl\src\draw\sw/lv_draw_sw_transform.c ****     lv_color_t ck = d->driver->color_chroma_key;
 168:..\..\..\arduinoLCD\test\Pain Drain\libraries\lvgl\src\draw\sw/lv_draw_sw_transform.c **** 
 169:..\..\..\arduinoLCD\test\Pain Drain\libraries\lvgl\src\draw\sw/lv_draw_sw_transform.c ****     lv_memset_ff(abuf, x_end);
 170:..\..\..\arduinoLCD\test\Pain Drain\libraries\lvgl\src\draw\sw/lv_draw_sw_transform.c **** 
 171:..\..\..\arduinoLCD\test\Pain Drain\libraries\lvgl\src\draw\sw/lv_draw_sw_transform.c ****     lv_coord_t x;
 172:..\..\..\arduinoLCD\test\Pain Drain\libraries\lvgl\src\draw\sw/lv_draw_sw_transform.c ****     for(x = 0; x < x_end; x++) {
 173:..\..\..\arduinoLCD\test\Pain Drain\libraries\lvgl\src\draw\sw/lv_draw_sw_transform.c ****         xs_ups = xs_ups_start + ((xs_step * x) >> 8);
 174:..\..\..\arduinoLCD\test\Pain Drain\libraries\lvgl\src\draw\sw/lv_draw_sw_transform.c ****         ys_ups = ys_ups_start + ((ys_step * x) >> 8);
 175:..\..\..\arduinoLCD\test\Pain Drain\libraries\lvgl\src\draw\sw/lv_draw_sw_transform.c **** 
 176:..\..\..\arduinoLCD\test\Pain Drain\libraries\lvgl\src\draw\sw/lv_draw_sw_transform.c ****         int32_t xs_int = xs_ups >> 8;
 177:..\..\..\arduinoLCD\test\Pain Drain\libraries\lvgl\src\draw\sw/lv_draw_sw_transform.c ****         int32_t ys_int = ys_ups >> 8;
 178:..\..\..\arduinoLCD\test\Pain Drain\libraries\lvgl\src\draw\sw/lv_draw_sw_transform.c ****         if(xs_int < 0 || xs_int >= src_w || ys_int < 0 || ys_int >= src_h) {
 179:..\..\..\arduinoLCD\test\Pain Drain\libraries\lvgl\src\draw\sw/lv_draw_sw_transform.c ****             abuf[x] = 0x00;
 180:..\..\..\arduinoLCD\test\Pain Drain\libraries\lvgl\src\draw\sw/lv_draw_sw_transform.c ****         }
 181:..\..\..\arduinoLCD\test\Pain Drain\libraries\lvgl\src\draw\sw/lv_draw_sw_transform.c ****         else {
 182:..\..\..\arduinoLCD\test\Pain Drain\libraries\lvgl\src\draw\sw/lv_draw_sw_transform.c **** 
 183:..\..\..\arduinoLCD\test\Pain Drain\libraries\lvgl\src\draw\sw/lv_draw_sw_transform.c **** #if LV_COLOR_DEPTH == 1 || LV_COLOR_DEPTH == 8
 184:..\..\..\arduinoLCD\test\Pain Drain\libraries\lvgl\src\draw\sw/lv_draw_sw_transform.c ****             const uint8_t * src_tmp = src;
 185:..\..\..\arduinoLCD\test\Pain Drain\libraries\lvgl\src\draw\sw/lv_draw_sw_transform.c ****             src_tmp += ys_int * src_stride + xs_int;
 186:..\..\..\arduinoLCD\test\Pain Drain\libraries\lvgl\src\draw\sw/lv_draw_sw_transform.c ****             cbuf[x].full = src_tmp[0];
 187:..\..\..\arduinoLCD\test\Pain Drain\libraries\lvgl\src\draw\sw/lv_draw_sw_transform.c **** #elif LV_COLOR_DEPTH == 16
 188:..\..\..\arduinoLCD\test\Pain Drain\libraries\lvgl\src\draw\sw/lv_draw_sw_transform.c ****             const lv_color_t * src_tmp = (const lv_color_t *)src;
 189:..\..\..\arduinoLCD\test\Pain Drain\libraries\lvgl\src\draw\sw/lv_draw_sw_transform.c ****             src_tmp += ys_int * src_stride + xs_int;
 190:..\..\..\arduinoLCD\test\Pain Drain\libraries\lvgl\src\draw\sw/lv_draw_sw_transform.c ****             cbuf[x] = *src_tmp;
 191:..\..\..\arduinoLCD\test\Pain Drain\libraries\lvgl\src\draw\sw/lv_draw_sw_transform.c **** #elif LV_COLOR_DEPTH == 32
 192:..\..\..\arduinoLCD\test\Pain Drain\libraries\lvgl\src\draw\sw/lv_draw_sw_transform.c ****             const uint8_t * src_tmp = src;
 193:..\..\..\arduinoLCD\test\Pain Drain\libraries\lvgl\src\draw\sw/lv_draw_sw_transform.c ****             src_tmp += (ys_int * src_stride * sizeof(lv_color_t)) + xs_int * sizeof(lv_color_t);
 194:..\..\..\arduinoLCD\test\Pain Drain\libraries\lvgl\src\draw\sw/lv_draw_sw_transform.c ****             cbuf[x].full = *((uint32_t *)src_tmp);
 195:..\..\..\arduinoLCD\test\Pain Drain\libraries\lvgl\src\draw\sw/lv_draw_sw_transform.c **** #endif
 196:..\..\..\arduinoLCD\test\Pain Drain\libraries\lvgl\src\draw\sw/lv_draw_sw_transform.c ****         }
 197:..\..\..\arduinoLCD\test\Pain Drain\libraries\lvgl\src\draw\sw/lv_draw_sw_transform.c ****         if(cf == LV_IMG_CF_TRUE_COLOR_CHROMA_KEYED && cbuf[x].full == ck.full) {
 198:..\..\..\arduinoLCD\test\Pain Drain\libraries\lvgl\src\draw\sw/lv_draw_sw_transform.c ****             abuf[x] = 0x00;
 199:..\..\..\arduinoLCD\test\Pain Drain\libraries\lvgl\src\draw\sw/lv_draw_sw_transform.c ****         }
 200:..\..\..\arduinoLCD\test\Pain Drain\libraries\lvgl\src\draw\sw/lv_draw_sw_transform.c ****     }
 201:..\..\..\arduinoLCD\test\Pain Drain\libraries\lvgl\src\draw\sw/lv_draw_sw_transform.c **** }
 202:..\..\..\arduinoLCD\test\Pain Drain\libraries\lvgl\src\draw\sw/lv_draw_sw_transform.c **** 
ARM GAS  C:\Users\haske\AppData\Local\Temp\ccOknJt1.s 			page 5


 203:..\..\..\arduinoLCD\test\Pain Drain\libraries\lvgl\src\draw\sw/lv_draw_sw_transform.c **** static void argb_no_aa(const uint8_t * src, lv_coord_t src_w, lv_coord_t src_h, lv_coord_t src_stri
 204:..\..\..\arduinoLCD\test\Pain Drain\libraries\lvgl\src\draw\sw/lv_draw_sw_transform.c ****                        int32_t xs_ups, int32_t ys_ups, int32_t xs_step, int32_t ys_step,
 205:..\..\..\arduinoLCD\test\Pain Drain\libraries\lvgl\src\draw\sw/lv_draw_sw_transform.c ****                        int32_t x_end, lv_color_t * cbuf, uint8_t * abuf)
 206:..\..\..\arduinoLCD\test\Pain Drain\libraries\lvgl\src\draw\sw/lv_draw_sw_transform.c **** {
  27              		.loc 1 206 0
  28              		.cfi_startproc
  29              		@ args = 28, pretend = 0, frame = 8
  30              		@ frame_needed = 0, uses_anonymous_args = 0
  31              	.LVL0:
  32 0000 F0B5     		push	{r4, r5, r6, r7, lr}
  33              		.cfi_def_cfa_offset 20
  34              		.cfi_offset 4, -20
  35              		.cfi_offset 5, -16
  36              		.cfi_offset 6, -12
  37              		.cfi_offset 7, -8
  38              		.cfi_offset 14, -4
  39 0002 5F46     		mov	r7, fp
  40 0004 5646     		mov	r6, r10
  41 0006 4D46     		mov	r5, r9
  42 0008 4446     		mov	r4, r8
  43 000a F0B4     		push	{r4, r5, r6, r7}
  44              		.cfi_def_cfa_offset 36
  45              		.cfi_offset 8, -36
  46              		.cfi_offset 9, -32
  47              		.cfi_offset 10, -28
  48              		.cfi_offset 11, -24
  49 000c 83B0     		sub	sp, sp, #12
  50              		.cfi_def_cfa_offset 48
  51 000e 0090     		str	r0, [sp]
  52 0010 8946     		mov	r9, r1
  53 0012 9246     		mov	r10, r2
  54 0014 0193     		str	r3, [sp, #4]
  55 0016 0D9F     		ldr	r7, [sp, #52]
  56 0018 0E9E     		ldr	r6, [sp, #56]
  57 001a 0F9D     		ldr	r5, [sp, #60]
  58 001c 109C     		ldr	r4, [sp, #64]
  59              	.LVL1:
 207:..\..\..\arduinoLCD\test\Pain Drain\libraries\lvgl\src\draw\sw/lv_draw_sw_transform.c ****     int32_t xs_ups_start = xs_ups;
 208:..\..\..\arduinoLCD\test\Pain Drain\libraries\lvgl\src\draw\sw/lv_draw_sw_transform.c ****     int32_t ys_ups_start = ys_ups;
 209:..\..\..\arduinoLCD\test\Pain Drain\libraries\lvgl\src\draw\sw/lv_draw_sw_transform.c **** 
 210:..\..\..\arduinoLCD\test\Pain Drain\libraries\lvgl\src\draw\sw/lv_draw_sw_transform.c ****     lv_coord_t x;
 211:..\..\..\arduinoLCD\test\Pain Drain\libraries\lvgl\src\draw\sw/lv_draw_sw_transform.c ****     for(x = 0; x < x_end; x++) {
  60              		.loc 1 211 0
  61 001e 0020     		movs	r0, #0
  62              	.LVL2:
  63 0020 36E0     		b	.L2
  64              	.LVL3:
  65              	.L6:
  66              	.LBB19:
 212:..\..\..\arduinoLCD\test\Pain Drain\libraries\lvgl\src\draw\sw/lv_draw_sw_transform.c ****         xs_ups = xs_ups_start + ((xs_step * x) >> 8);
  67              		.loc 1 212 0
  68 0022 3300     		movs	r3, r6
  69 0024 4343     		muls	r3, r0
  70 0026 1B12     		asrs	r3, r3, #8
  71 0028 0C9A     		ldr	r2, [sp, #48]
  72 002a 9446     		mov	ip, r2
  73 002c 6344     		add	r3, r3, ip
ARM GAS  C:\Users\haske\AppData\Local\Temp\ccOknJt1.s 			page 6


  74              	.LVL4:
 213:..\..\..\arduinoLCD\test\Pain Drain\libraries\lvgl\src\draw\sw/lv_draw_sw_transform.c ****         ys_ups = ys_ups_start + ((ys_step * x) >> 8);
  75              		.loc 1 213 0
  76 002e 2900     		movs	r1, r5
  77 0030 4143     		muls	r1, r0
  78 0032 0912     		asrs	r1, r1, #8
  79 0034 8C46     		mov	ip, r1
  80 0036 BC44     		add	ip, ip, r7
  81              	.LVL5:
 214:..\..\..\arduinoLCD\test\Pain Drain\libraries\lvgl\src\draw\sw/lv_draw_sw_transform.c **** 
 215:..\..\..\arduinoLCD\test\Pain Drain\libraries\lvgl\src\draw\sw/lv_draw_sw_transform.c ****         int32_t xs_int = xs_ups >> 8;
  82              		.loc 1 215 0
  83 0038 1B12     		asrs	r3, r3, #8
  84              	.LVL6:
 216:..\..\..\arduinoLCD\test\Pain Drain\libraries\lvgl\src\draw\sw/lv_draw_sw_transform.c ****         int32_t ys_int = ys_ups >> 8;
  85              		.loc 1 216 0
  86 003a 6146     		mov	r1, ip
  87 003c 0912     		asrs	r1, r1, #8
  88              	.LVL7:
 217:..\..\..\arduinoLCD\test\Pain Drain\libraries\lvgl\src\draw\sw/lv_draw_sw_transform.c ****         if(xs_int < 0 || xs_int >= src_w || ys_int < 0 || ys_int >= src_h) {
  89              		.loc 1 217 0
  90 003e 002B     		cmp	r3, #0
  91 0040 05DB     		blt	.L3
  92              		.loc 1 217 0 is_stmt 0 discriminator 1
  93 0042 4B45     		cmp	r3, r9
  94 0044 03DA     		bge	.L3
  95              		.loc 1 217 0 discriminator 2
  96 0046 0029     		cmp	r1, #0
  97 0048 01DB     		blt	.L3
  98              		.loc 1 217 0 discriminator 3
  99 004a 5145     		cmp	r1, r10
 100 004c 04DB     		blt	.L4
 101              	.L3:
 218:..\..\..\arduinoLCD\test\Pain Drain\libraries\lvgl\src\draw\sw/lv_draw_sw_transform.c ****             abuf[x] = 0;
 102              		.loc 1 218 0 is_stmt 1
 103 004e 129B     		ldr	r3, [sp, #72]
 104              	.LVL8:
 105 0050 1B18     		adds	r3, r3, r0
 106 0052 0021     		movs	r1, #0
 107              	.LVL9:
 108 0054 1970     		strb	r1, [r3]
 109 0056 19E0     		b	.L5
 110              	.LVL10:
 111              	.L4:
 112              	.LBB20:
 219:..\..\..\arduinoLCD\test\Pain Drain\libraries\lvgl\src\draw\sw/lv_draw_sw_transform.c ****         }
 220:..\..\..\arduinoLCD\test\Pain Drain\libraries\lvgl\src\draw\sw/lv_draw_sw_transform.c ****         else {
 221:..\..\..\arduinoLCD\test\Pain Drain\libraries\lvgl\src\draw\sw/lv_draw_sw_transform.c ****             const uint8_t * src_tmp = src;
 222:..\..\..\arduinoLCD\test\Pain Drain\libraries\lvgl\src\draw\sw/lv_draw_sw_transform.c ****             src_tmp += (ys_int * src_stride * LV_IMG_PX_SIZE_ALPHA_BYTE) + xs_int * LV_IMG_PX_SIZE_
 113              		.loc 1 222 0
 114 0058 019A     		ldr	r2, [sp, #4]
 115              	.LVL11:
 116 005a 5143     		muls	r1, r2
 117              	.LVL12:
 118 005c 8C46     		mov	ip, r1
 119              	.LVL13:
 120 005e 6344     		add	r3, r3, ip
ARM GAS  C:\Users\haske\AppData\Local\Temp\ccOknJt1.s 			page 7


 121              	.LVL14:
 122 0060 5A00     		lsls	r2, r3, #1
 123 0062 9446     		mov	ip, r2
 124 0064 6344     		add	r3, r3, ip
 125 0066 009A     		ldr	r2, [sp]
 126 0068 9446     		mov	ip, r2
 127 006a 9C44     		add	ip, ip, r3
 128              	.LVL15:
 223:..\..\..\arduinoLCD\test\Pain Drain\libraries\lvgl\src\draw\sw/lv_draw_sw_transform.c **** 
 224:..\..\..\arduinoLCD\test\Pain Drain\libraries\lvgl\src\draw\sw/lv_draw_sw_transform.c **** #if LV_COLOR_DEPTH == 1 || LV_COLOR_DEPTH == 8
 225:..\..\..\arduinoLCD\test\Pain Drain\libraries\lvgl\src\draw\sw/lv_draw_sw_transform.c ****             cbuf[x].full = src_tmp[0];
 226:..\..\..\arduinoLCD\test\Pain Drain\libraries\lvgl\src\draw\sw/lv_draw_sw_transform.c **** #elif LV_COLOR_DEPTH == 16
 227:..\..\..\arduinoLCD\test\Pain Drain\libraries\lvgl\src\draw\sw/lv_draw_sw_transform.c ****             cbuf[x].full = src_tmp[0] + (src_tmp[1] << 8);
 129              		.loc 1 227 0
 130 006c 4300     		lsls	r3, r0, #1
 131 006e 6246     		mov	r2, ip
 132 0070 1278     		ldrb	r2, [r2]
 133 0072 9346     		mov	fp, r2
 134 0074 6246     		mov	r2, ip
 135 0076 5278     		ldrb	r2, [r2, #1]
 136 0078 1202     		lsls	r2, r2, #8
 137 007a 9046     		mov	r8, r2
 138 007c D844     		add	r8, r8, fp
 139 007e 119A     		ldr	r2, [sp, #68]
 140 0080 4146     		mov	r1, r8
 141 0082 D152     		strh	r1, [r2, r3]
 228:..\..\..\arduinoLCD\test\Pain Drain\libraries\lvgl\src\draw\sw/lv_draw_sw_transform.c **** #elif LV_COLOR_DEPTH == 32
 229:..\..\..\arduinoLCD\test\Pain Drain\libraries\lvgl\src\draw\sw/lv_draw_sw_transform.c ****             cbuf[x].full = *((uint32_t *)src_tmp);
 230:..\..\..\arduinoLCD\test\Pain Drain\libraries\lvgl\src\draw\sw/lv_draw_sw_transform.c **** #endif
 231:..\..\..\arduinoLCD\test\Pain Drain\libraries\lvgl\src\draw\sw/lv_draw_sw_transform.c ****             abuf[x] = src_tmp[LV_IMG_PX_SIZE_ALPHA_BYTE - 1];
 142              		.loc 1 231 0
 143 0084 6346     		mov	r3, ip
 144 0086 9B78     		ldrb	r3, [r3, #2]
 145 0088 129A     		ldr	r2, [sp, #72]
 146 008a 1354     		strb	r3, [r2, r0]
 147              	.LVL16:
 148              	.L5:
 149              	.LBE20:
 150              	.LBE19:
 211:..\..\..\arduinoLCD\test\Pain Drain\libraries\lvgl\src\draw\sw/lv_draw_sw_transform.c ****         xs_ups = xs_ups_start + ((xs_step * x) >> 8);
 151              		.loc 1 211 0 discriminator 2
 152 008c 0130     		adds	r0, r0, #1
 153              	.LVL17:
 154 008e 00B2     		sxth	r0, r0
 155              	.LVL18:
 156              	.L2:
 211:..\..\..\arduinoLCD\test\Pain Drain\libraries\lvgl\src\draw\sw/lv_draw_sw_transform.c ****         xs_ups = xs_ups_start + ((xs_step * x) >> 8);
 157              		.loc 1 211 0 is_stmt 0 discriminator 1
 158 0090 A042     		cmp	r0, r4
 159 0092 C6DB     		blt	.L6
 232:..\..\..\arduinoLCD\test\Pain Drain\libraries\lvgl\src\draw\sw/lv_draw_sw_transform.c ****         }
 233:..\..\..\arduinoLCD\test\Pain Drain\libraries\lvgl\src\draw\sw/lv_draw_sw_transform.c ****     }
 234:..\..\..\arduinoLCD\test\Pain Drain\libraries\lvgl\src\draw\sw/lv_draw_sw_transform.c **** }
 160              		.loc 1 234 0 is_stmt 1
 161 0094 03B0     		add	sp, sp, #12
 162              	.LVL19:
 163              		@ sp needed
ARM GAS  C:\Users\haske\AppData\Local\Temp\ccOknJt1.s 			page 8


 164              	.LVL20:
 165 0096 3CBC     		pop	{r2, r3, r4, r5}
 166 0098 9046     		mov	r8, r2
 167 009a 9946     		mov	r9, r3
 168 009c A246     		mov	r10, r4
 169 009e AB46     		mov	fp, r5
 170 00a0 F0BD     		pop	{r4, r5, r6, r7, pc}
 171              		.cfi_endproc
 172              	.LFE161:
 173              		.size	argb_no_aa, .-argb_no_aa
 174 00a2 C046     		.section	.text.rgb565a8_no_aa,"ax",%progbits
 175              		.align	2
 176              		.code	16
 177              		.thumb_func
 178              		.type	rgb565a8_no_aa, %function
 179              	rgb565a8_no_aa:
 180              	.LFB162:
 235:..\..\..\arduinoLCD\test\Pain Drain\libraries\lvgl\src\draw\sw/lv_draw_sw_transform.c **** 
 236:..\..\..\arduinoLCD\test\Pain Drain\libraries\lvgl\src\draw\sw/lv_draw_sw_transform.c **** #if LV_COLOR_DEPTH == 16
 237:..\..\..\arduinoLCD\test\Pain Drain\libraries\lvgl\src\draw\sw/lv_draw_sw_transform.c **** static void rgb565a8_no_aa(const uint8_t * src, lv_coord_t src_w, lv_coord_t src_h, lv_coord_t src_
 238:..\..\..\arduinoLCD\test\Pain Drain\libraries\lvgl\src\draw\sw/lv_draw_sw_transform.c ****                            int32_t xs_ups, int32_t ys_ups, int32_t xs_step, int32_t ys_step,
 239:..\..\..\arduinoLCD\test\Pain Drain\libraries\lvgl\src\draw\sw/lv_draw_sw_transform.c ****                            int32_t x_end, lv_color_t * cbuf, uint8_t * abuf)
 240:..\..\..\arduinoLCD\test\Pain Drain\libraries\lvgl\src\draw\sw/lv_draw_sw_transform.c **** {
 181              		.loc 1 240 0
 182              		.cfi_startproc
 183              		@ args = 28, pretend = 0, frame = 8
 184              		@ frame_needed = 0, uses_anonymous_args = 0
 185              	.LVL21:
 186 0000 F0B5     		push	{r4, r5, r6, r7, lr}
 187              		.cfi_def_cfa_offset 20
 188              		.cfi_offset 4, -20
 189              		.cfi_offset 5, -16
 190              		.cfi_offset 6, -12
 191              		.cfi_offset 7, -8
 192              		.cfi_offset 14, -4
 193 0002 5F46     		mov	r7, fp
 194 0004 5646     		mov	r6, r10
 195 0006 4D46     		mov	r5, r9
 196 0008 4446     		mov	r4, r8
 197 000a F0B4     		push	{r4, r5, r6, r7}
 198              		.cfi_def_cfa_offset 36
 199              		.cfi_offset 8, -36
 200              		.cfi_offset 9, -32
 201              		.cfi_offset 10, -28
 202              		.cfi_offset 11, -24
 203 000c 83B0     		sub	sp, sp, #12
 204              		.cfi_def_cfa_offset 48
 205 000e 8046     		mov	r8, r0
 206 0010 8946     		mov	r9, r1
 207 0012 9246     		mov	r10, r2
 208 0014 0093     		str	r3, [sp]
 209 0016 0C99     		ldr	r1, [sp, #48]
 210              	.LVL22:
 211 0018 0E9F     		ldr	r7, [sp, #56]
 212 001a 0F9E     		ldr	r6, [sp, #60]
 213 001c 109D     		ldr	r5, [sp, #64]
 214 001e 129B     		ldr	r3, [sp, #72]
ARM GAS  C:\Users\haske\AppData\Local\Temp\ccOknJt1.s 			page 9


 215              	.LVL23:
 216 0020 9C46     		mov	ip, r3
 217              	.LVL24:
 241:..\..\..\arduinoLCD\test\Pain Drain\libraries\lvgl\src\draw\sw/lv_draw_sw_transform.c ****     int32_t xs_ups_start = xs_ups;
 242:..\..\..\arduinoLCD\test\Pain Drain\libraries\lvgl\src\draw\sw/lv_draw_sw_transform.c ****     int32_t ys_ups_start = ys_ups;
 243:..\..\..\arduinoLCD\test\Pain Drain\libraries\lvgl\src\draw\sw/lv_draw_sw_transform.c **** 
 244:..\..\..\arduinoLCD\test\Pain Drain\libraries\lvgl\src\draw\sw/lv_draw_sw_transform.c ****     lv_coord_t x;
 245:..\..\..\arduinoLCD\test\Pain Drain\libraries\lvgl\src\draw\sw/lv_draw_sw_transform.c ****     for(x = 0; x < x_end; x++) {
 218              		.loc 1 245 0
 219 0022 0024     		movs	r4, #0
 220 0024 31E0     		b	.L8
 221              	.LVL25:
 222              	.L12:
 223              	.LBB21:
 246:..\..\..\arduinoLCD\test\Pain Drain\libraries\lvgl\src\draw\sw/lv_draw_sw_transform.c ****         xs_ups = xs_ups_start + ((xs_step * x) >> 8);
 224              		.loc 1 246 0
 225 0026 3800     		movs	r0, r7
 226 0028 6043     		muls	r0, r4
 227 002a 0012     		asrs	r0, r0, #8
 228 002c 0818     		adds	r0, r1, r0
 229              	.LVL26:
 247:..\..\..\arduinoLCD\test\Pain Drain\libraries\lvgl\src\draw\sw/lv_draw_sw_transform.c ****         ys_ups = ys_ups_start + ((ys_step * x) >> 8);
 230              		.loc 1 247 0
 231 002e 3300     		movs	r3, r6
 232 0030 6343     		muls	r3, r4
 233 0032 1B12     		asrs	r3, r3, #8
 234 0034 0D9A     		ldr	r2, [sp, #52]
 235 0036 9346     		mov	fp, r2
 236 0038 5B44     		add	r3, r3, fp
 237              	.LVL27:
 248:..\..\..\arduinoLCD\test\Pain Drain\libraries\lvgl\src\draw\sw/lv_draw_sw_transform.c **** 
 249:..\..\..\arduinoLCD\test\Pain Drain\libraries\lvgl\src\draw\sw/lv_draw_sw_transform.c ****         int32_t xs_int = xs_ups >> 8;
 238              		.loc 1 249 0
 239 003a 0012     		asrs	r0, r0, #8
 240              	.LVL28:
 250:..\..\..\arduinoLCD\test\Pain Drain\libraries\lvgl\src\draw\sw/lv_draw_sw_transform.c ****         int32_t ys_int = ys_ups >> 8;
 241              		.loc 1 250 0
 242 003c 1B12     		asrs	r3, r3, #8
 243              	.LVL29:
 251:..\..\..\arduinoLCD\test\Pain Drain\libraries\lvgl\src\draw\sw/lv_draw_sw_transform.c ****         if(xs_int < 0 || xs_int >= src_w || ys_int < 0 || ys_int >= src_h) {
 244              		.loc 1 251 0
 245 003e 0028     		cmp	r0, #0
 246 0040 05DB     		blt	.L9
 247              		.loc 1 251 0 is_stmt 0 discriminator 1
 248 0042 4845     		cmp	r0, r9
 249 0044 03DA     		bge	.L9
 250              		.loc 1 251 0 discriminator 2
 251 0046 002B     		cmp	r3, #0
 252 0048 01DB     		blt	.L9
 253              		.loc 1 251 0 discriminator 3
 254 004a 5345     		cmp	r3, r10
 255 004c 04DB     		blt	.L10
 256              	.L9:
 252:..\..\..\arduinoLCD\test\Pain Drain\libraries\lvgl\src\draw\sw/lv_draw_sw_transform.c ****             abuf[x] = 0;
 257              		.loc 1 252 0 is_stmt 1
 258 004e 6346     		mov	r3, ip
 259              	.LVL30:
ARM GAS  C:\Users\haske\AppData\Local\Temp\ccOknJt1.s 			page 10


 260 0050 1B19     		adds	r3, r3, r4
 261 0052 0020     		movs	r0, #0
 262              	.LVL31:
 263 0054 1870     		strb	r0, [r3]
 264 0056 16E0     		b	.L11
 265              	.LVL32:
 266              	.L10:
 267              	.LBB22:
 253:..\..\..\arduinoLCD\test\Pain Drain\libraries\lvgl\src\draw\sw/lv_draw_sw_transform.c ****         }
 254:..\..\..\arduinoLCD\test\Pain Drain\libraries\lvgl\src\draw\sw/lv_draw_sw_transform.c ****         else {
 255:..\..\..\arduinoLCD\test\Pain Drain\libraries\lvgl\src\draw\sw/lv_draw_sw_transform.c ****             const lv_color_t * src_tmp = (const lv_color_t *)src;
 256:..\..\..\arduinoLCD\test\Pain Drain\libraries\lvgl\src\draw\sw/lv_draw_sw_transform.c ****             src_tmp += ys_int * src_stride + xs_int;
 268              		.loc 1 256 0
 269 0058 009A     		ldr	r2, [sp]
 270              	.LVL33:
 271 005a 5343     		muls	r3, r2
 272              	.LVL34:
 273 005c C318     		adds	r3, r0, r3
 274 005e 0193     		str	r3, [sp, #4]
 275 0060 5800     		lsls	r0, r3, #1
 276              	.LVL35:
 257:..\..\..\arduinoLCD\test\Pain Drain\libraries\lvgl\src\draw\sw/lv_draw_sw_transform.c ****             cbuf[x] = *src_tmp;
 277              		.loc 1 257 0
 278 0062 6200     		lsls	r2, r4, #1
 279 0064 4346     		mov	r3, r8
 280 0066 1B5A     		ldrh	r3, [r3, r0]
 281 0068 9B46     		mov	fp, r3
 282              	.LVL36:
 283 006a 1000     		movs	r0, r2
 284              	.LVL37:
 285 006c 119B     		ldr	r3, [sp, #68]
 286 006e 5A46     		mov	r2, fp
 287 0070 1A52     		strh	r2, [r3, r0]
 258:..\..\..\arduinoLCD\test\Pain Drain\libraries\lvgl\src\draw\sw/lv_draw_sw_transform.c **** 
 259:..\..\..\arduinoLCD\test\Pain Drain\libraries\lvgl\src\draw\sw/lv_draw_sw_transform.c ****             const lv_opa_t * a_tmp = src + src_stride * src_h * sizeof(lv_color_t);
 288              		.loc 1 259 0
 289 0072 5046     		mov	r0, r10
 290 0074 009A     		ldr	r2, [sp]
 291 0076 5043     		muls	r0, r2
 292 0078 4000     		lsls	r0, r0, #1
 293              	.LVL38:
 260:..\..\..\arduinoLCD\test\Pain Drain\libraries\lvgl\src\draw\sw/lv_draw_sw_transform.c ****             a_tmp += ys_int * src_stride + xs_int;
 294              		.loc 1 260 0
 295 007a 019B     		ldr	r3, [sp, #4]
 296 007c 1B18     		adds	r3, r3, r0
 297              	.LVL39:
 261:..\..\..\arduinoLCD\test\Pain Drain\libraries\lvgl\src\draw\sw/lv_draw_sw_transform.c ****             abuf[x] = *a_tmp;
 298              		.loc 1 261 0
 299 007e 4246     		mov	r2, r8
 300 0080 D35C     		ldrb	r3, [r2, r3]
 301              	.LVL40:
 302 0082 6246     		mov	r2, ip
 303 0084 1355     		strb	r3, [r2, r4]
 304              	.LVL41:
 305              	.L11:
 306              	.LBE22:
 307              	.LBE21:
ARM GAS  C:\Users\haske\AppData\Local\Temp\ccOknJt1.s 			page 11


 245:..\..\..\arduinoLCD\test\Pain Drain\libraries\lvgl\src\draw\sw/lv_draw_sw_transform.c ****         xs_ups = xs_ups_start + ((xs_step * x) >> 8);
 308              		.loc 1 245 0 discriminator 2
 309 0086 0134     		adds	r4, r4, #1
 310              	.LVL42:
 311 0088 24B2     		sxth	r4, r4
 312              	.LVL43:
 313              	.L8:
 245:..\..\..\arduinoLCD\test\Pain Drain\libraries\lvgl\src\draw\sw/lv_draw_sw_transform.c ****         xs_ups = xs_ups_start + ((xs_step * x) >> 8);
 314              		.loc 1 245 0 is_stmt 0 discriminator 1
 315 008a AC42     		cmp	r4, r5
 316 008c CBDB     		blt	.L12
 262:..\..\..\arduinoLCD\test\Pain Drain\libraries\lvgl\src\draw\sw/lv_draw_sw_transform.c ****         }
 263:..\..\..\arduinoLCD\test\Pain Drain\libraries\lvgl\src\draw\sw/lv_draw_sw_transform.c ****     }
 264:..\..\..\arduinoLCD\test\Pain Drain\libraries\lvgl\src\draw\sw/lv_draw_sw_transform.c **** }
 317              		.loc 1 264 0 is_stmt 1
 318 008e 03B0     		add	sp, sp, #12
 319              		@ sp needed
 320              	.LVL44:
 321              	.LVL45:
 322 0090 3CBC     		pop	{r2, r3, r4, r5}
 323 0092 9046     		mov	r8, r2
 324 0094 9946     		mov	r9, r3
 325 0096 A246     		mov	r10, r4
 326 0098 AB46     		mov	fp, r5
 327 009a F0BD     		pop	{r4, r5, r6, r7, pc}
 328              		.cfi_endproc
 329              	.LFE162:
 330              		.size	rgb565a8_no_aa, .-rgb565a8_no_aa
 331              		.section	.text.transform_point_upscaled,"ax",%progbits
 332              		.align	2
 333              		.code	16
 334              		.thumb_func
 335              		.type	transform_point_upscaled, %function
 336              	transform_point_upscaled:
 337              	.LFB164:
 265:..\..\..\arduinoLCD\test\Pain Drain\libraries\lvgl\src\draw\sw/lv_draw_sw_transform.c **** #endif
 266:..\..\..\arduinoLCD\test\Pain Drain\libraries\lvgl\src\draw\sw/lv_draw_sw_transform.c **** 
 267:..\..\..\arduinoLCD\test\Pain Drain\libraries\lvgl\src\draw\sw/lv_draw_sw_transform.c **** 
 268:..\..\..\arduinoLCD\test\Pain Drain\libraries\lvgl\src\draw\sw/lv_draw_sw_transform.c **** static void argb_and_rgb_aa(const uint8_t * src, lv_coord_t src_w, lv_coord_t src_h, lv_coord_t src
 269:..\..\..\arduinoLCD\test\Pain Drain\libraries\lvgl\src\draw\sw/lv_draw_sw_transform.c ****                             int32_t xs_ups, int32_t ys_ups, int32_t xs_step, int32_t ys_step,
 270:..\..\..\arduinoLCD\test\Pain Drain\libraries\lvgl\src\draw\sw/lv_draw_sw_transform.c ****                             int32_t x_end, lv_color_t * cbuf, uint8_t * abuf, lv_img_cf_t cf)
 271:..\..\..\arduinoLCD\test\Pain Drain\libraries\lvgl\src\draw\sw/lv_draw_sw_transform.c **** {
 272:..\..\..\arduinoLCD\test\Pain Drain\libraries\lvgl\src\draw\sw/lv_draw_sw_transform.c ****     int32_t xs_ups_start = xs_ups;
 273:..\..\..\arduinoLCD\test\Pain Drain\libraries\lvgl\src\draw\sw/lv_draw_sw_transform.c ****     int32_t ys_ups_start = ys_ups;
 274:..\..\..\arduinoLCD\test\Pain Drain\libraries\lvgl\src\draw\sw/lv_draw_sw_transform.c ****     bool has_alpha;
 275:..\..\..\arduinoLCD\test\Pain Drain\libraries\lvgl\src\draw\sw/lv_draw_sw_transform.c ****     int32_t px_size;
 276:..\..\..\arduinoLCD\test\Pain Drain\libraries\lvgl\src\draw\sw/lv_draw_sw_transform.c ****     lv_color_t ck = {0};
 277:..\..\..\arduinoLCD\test\Pain Drain\libraries\lvgl\src\draw\sw/lv_draw_sw_transform.c ****     switch(cf) {
 278:..\..\..\arduinoLCD\test\Pain Drain\libraries\lvgl\src\draw\sw/lv_draw_sw_transform.c ****         case LV_IMG_CF_TRUE_COLOR:
 279:..\..\..\arduinoLCD\test\Pain Drain\libraries\lvgl\src\draw\sw/lv_draw_sw_transform.c ****             has_alpha = false;
 280:..\..\..\arduinoLCD\test\Pain Drain\libraries\lvgl\src\draw\sw/lv_draw_sw_transform.c ****             px_size = sizeof(lv_color_t);
 281:..\..\..\arduinoLCD\test\Pain Drain\libraries\lvgl\src\draw\sw/lv_draw_sw_transform.c ****             break;
 282:..\..\..\arduinoLCD\test\Pain Drain\libraries\lvgl\src\draw\sw/lv_draw_sw_transform.c ****         case LV_IMG_CF_TRUE_COLOR_ALPHA:
 283:..\..\..\arduinoLCD\test\Pain Drain\libraries\lvgl\src\draw\sw/lv_draw_sw_transform.c ****             has_alpha = true;
 284:..\..\..\arduinoLCD\test\Pain Drain\libraries\lvgl\src\draw\sw/lv_draw_sw_transform.c ****             px_size = LV_IMG_PX_SIZE_ALPHA_BYTE;
 285:..\..\..\arduinoLCD\test\Pain Drain\libraries\lvgl\src\draw\sw/lv_draw_sw_transform.c ****             break;
 286:..\..\..\arduinoLCD\test\Pain Drain\libraries\lvgl\src\draw\sw/lv_draw_sw_transform.c ****         case LV_IMG_CF_TRUE_COLOR_CHROMA_KEYED: {
ARM GAS  C:\Users\haske\AppData\Local\Temp\ccOknJt1.s 			page 12


 287:..\..\..\arduinoLCD\test\Pain Drain\libraries\lvgl\src\draw\sw/lv_draw_sw_transform.c ****                 has_alpha = true;
 288:..\..\..\arduinoLCD\test\Pain Drain\libraries\lvgl\src\draw\sw/lv_draw_sw_transform.c ****                 px_size = sizeof(lv_color_t);
 289:..\..\..\arduinoLCD\test\Pain Drain\libraries\lvgl\src\draw\sw/lv_draw_sw_transform.c ****                 lv_disp_t * d = _lv_refr_get_disp_refreshing();
 290:..\..\..\arduinoLCD\test\Pain Drain\libraries\lvgl\src\draw\sw/lv_draw_sw_transform.c ****                 ck = d->driver->color_chroma_key;
 291:..\..\..\arduinoLCD\test\Pain Drain\libraries\lvgl\src\draw\sw/lv_draw_sw_transform.c ****                 break;
 292:..\..\..\arduinoLCD\test\Pain Drain\libraries\lvgl\src\draw\sw/lv_draw_sw_transform.c ****             }
 293:..\..\..\arduinoLCD\test\Pain Drain\libraries\lvgl\src\draw\sw/lv_draw_sw_transform.c **** #if LV_COLOR_DEPTH == 16
 294:..\..\..\arduinoLCD\test\Pain Drain\libraries\lvgl\src\draw\sw/lv_draw_sw_transform.c ****         case LV_IMG_CF_RGB565A8:
 295:..\..\..\arduinoLCD\test\Pain Drain\libraries\lvgl\src\draw\sw/lv_draw_sw_transform.c ****             has_alpha = true;
 296:..\..\..\arduinoLCD\test\Pain Drain\libraries\lvgl\src\draw\sw/lv_draw_sw_transform.c ****             px_size = sizeof(lv_color_t);
 297:..\..\..\arduinoLCD\test\Pain Drain\libraries\lvgl\src\draw\sw/lv_draw_sw_transform.c ****             break;
 298:..\..\..\arduinoLCD\test\Pain Drain\libraries\lvgl\src\draw\sw/lv_draw_sw_transform.c **** #endif
 299:..\..\..\arduinoLCD\test\Pain Drain\libraries\lvgl\src\draw\sw/lv_draw_sw_transform.c ****         default:
 300:..\..\..\arduinoLCD\test\Pain Drain\libraries\lvgl\src\draw\sw/lv_draw_sw_transform.c ****             return;
 301:..\..\..\arduinoLCD\test\Pain Drain\libraries\lvgl\src\draw\sw/lv_draw_sw_transform.c ****     }
 302:..\..\..\arduinoLCD\test\Pain Drain\libraries\lvgl\src\draw\sw/lv_draw_sw_transform.c **** 
 303:..\..\..\arduinoLCD\test\Pain Drain\libraries\lvgl\src\draw\sw/lv_draw_sw_transform.c ****     lv_coord_t x;
 304:..\..\..\arduinoLCD\test\Pain Drain\libraries\lvgl\src\draw\sw/lv_draw_sw_transform.c ****     for(x = 0; x < x_end; x++) {
 305:..\..\..\arduinoLCD\test\Pain Drain\libraries\lvgl\src\draw\sw/lv_draw_sw_transform.c ****         xs_ups = xs_ups_start + ((xs_step * x) >> 8);
 306:..\..\..\arduinoLCD\test\Pain Drain\libraries\lvgl\src\draw\sw/lv_draw_sw_transform.c ****         ys_ups = ys_ups_start + ((ys_step * x) >> 8);
 307:..\..\..\arduinoLCD\test\Pain Drain\libraries\lvgl\src\draw\sw/lv_draw_sw_transform.c **** 
 308:..\..\..\arduinoLCD\test\Pain Drain\libraries\lvgl\src\draw\sw/lv_draw_sw_transform.c ****         int32_t xs_int = xs_ups >> 8;
 309:..\..\..\arduinoLCD\test\Pain Drain\libraries\lvgl\src\draw\sw/lv_draw_sw_transform.c ****         int32_t ys_int = ys_ups >> 8;
 310:..\..\..\arduinoLCD\test\Pain Drain\libraries\lvgl\src\draw\sw/lv_draw_sw_transform.c **** 
 311:..\..\..\arduinoLCD\test\Pain Drain\libraries\lvgl\src\draw\sw/lv_draw_sw_transform.c ****         /*Fully out of the image*/
 312:..\..\..\arduinoLCD\test\Pain Drain\libraries\lvgl\src\draw\sw/lv_draw_sw_transform.c ****         if(xs_int < 0 || xs_int >= src_w || ys_int < 0 || ys_int >= src_h) {
 313:..\..\..\arduinoLCD\test\Pain Drain\libraries\lvgl\src\draw\sw/lv_draw_sw_transform.c ****             abuf[x] = 0x00;
 314:..\..\..\arduinoLCD\test\Pain Drain\libraries\lvgl\src\draw\sw/lv_draw_sw_transform.c ****             continue;
 315:..\..\..\arduinoLCD\test\Pain Drain\libraries\lvgl\src\draw\sw/lv_draw_sw_transform.c ****         }
 316:..\..\..\arduinoLCD\test\Pain Drain\libraries\lvgl\src\draw\sw/lv_draw_sw_transform.c **** 
 317:..\..\..\arduinoLCD\test\Pain Drain\libraries\lvgl\src\draw\sw/lv_draw_sw_transform.c ****         /*Get the direction the hor and ver neighbor
 318:..\..\..\arduinoLCD\test\Pain Drain\libraries\lvgl\src\draw\sw/lv_draw_sw_transform.c ****          *`fract` will be in range of 0x00..0xFF and `next` (+/-1) indicates the direction*/
 319:..\..\..\arduinoLCD\test\Pain Drain\libraries\lvgl\src\draw\sw/lv_draw_sw_transform.c ****         int32_t xs_fract = xs_ups & 0xFF;
 320:..\..\..\arduinoLCD\test\Pain Drain\libraries\lvgl\src\draw\sw/lv_draw_sw_transform.c ****         int32_t ys_fract = ys_ups & 0xFF;
 321:..\..\..\arduinoLCD\test\Pain Drain\libraries\lvgl\src\draw\sw/lv_draw_sw_transform.c **** 
 322:..\..\..\arduinoLCD\test\Pain Drain\libraries\lvgl\src\draw\sw/lv_draw_sw_transform.c ****         int32_t x_next;
 323:..\..\..\arduinoLCD\test\Pain Drain\libraries\lvgl\src\draw\sw/lv_draw_sw_transform.c ****         int32_t y_next;
 324:..\..\..\arduinoLCD\test\Pain Drain\libraries\lvgl\src\draw\sw/lv_draw_sw_transform.c ****         if(xs_fract < 0x80) {
 325:..\..\..\arduinoLCD\test\Pain Drain\libraries\lvgl\src\draw\sw/lv_draw_sw_transform.c ****             x_next = -1;
 326:..\..\..\arduinoLCD\test\Pain Drain\libraries\lvgl\src\draw\sw/lv_draw_sw_transform.c ****             xs_fract = (0x7F - xs_fract) * 2;
 327:..\..\..\arduinoLCD\test\Pain Drain\libraries\lvgl\src\draw\sw/lv_draw_sw_transform.c ****         }
 328:..\..\..\arduinoLCD\test\Pain Drain\libraries\lvgl\src\draw\sw/lv_draw_sw_transform.c ****         else {
 329:..\..\..\arduinoLCD\test\Pain Drain\libraries\lvgl\src\draw\sw/lv_draw_sw_transform.c ****             x_next = 1;
 330:..\..\..\arduinoLCD\test\Pain Drain\libraries\lvgl\src\draw\sw/lv_draw_sw_transform.c ****             xs_fract = (xs_fract - 0x80) * 2;
 331:..\..\..\arduinoLCD\test\Pain Drain\libraries\lvgl\src\draw\sw/lv_draw_sw_transform.c ****         }
 332:..\..\..\arduinoLCD\test\Pain Drain\libraries\lvgl\src\draw\sw/lv_draw_sw_transform.c ****         if(ys_fract < 0x80) {
 333:..\..\..\arduinoLCD\test\Pain Drain\libraries\lvgl\src\draw\sw/lv_draw_sw_transform.c ****             y_next = -1;
 334:..\..\..\arduinoLCD\test\Pain Drain\libraries\lvgl\src\draw\sw/lv_draw_sw_transform.c ****             ys_fract = (0x7F - ys_fract) * 2;
 335:..\..\..\arduinoLCD\test\Pain Drain\libraries\lvgl\src\draw\sw/lv_draw_sw_transform.c ****         }
 336:..\..\..\arduinoLCD\test\Pain Drain\libraries\lvgl\src\draw\sw/lv_draw_sw_transform.c ****         else {
 337:..\..\..\arduinoLCD\test\Pain Drain\libraries\lvgl\src\draw\sw/lv_draw_sw_transform.c ****             y_next = 1;
 338:..\..\..\arduinoLCD\test\Pain Drain\libraries\lvgl\src\draw\sw/lv_draw_sw_transform.c ****             ys_fract = (ys_fract - 0x80) * 2;
 339:..\..\..\arduinoLCD\test\Pain Drain\libraries\lvgl\src\draw\sw/lv_draw_sw_transform.c ****         }
 340:..\..\..\arduinoLCD\test\Pain Drain\libraries\lvgl\src\draw\sw/lv_draw_sw_transform.c **** 
 341:..\..\..\arduinoLCD\test\Pain Drain\libraries\lvgl\src\draw\sw/lv_draw_sw_transform.c ****         const uint8_t * src_tmp = src;
 342:..\..\..\arduinoLCD\test\Pain Drain\libraries\lvgl\src\draw\sw/lv_draw_sw_transform.c ****         src_tmp += (ys_int * src_stride * px_size) + xs_int * px_size;
 343:..\..\..\arduinoLCD\test\Pain Drain\libraries\lvgl\src\draw\sw/lv_draw_sw_transform.c **** 
ARM GAS  C:\Users\haske\AppData\Local\Temp\ccOknJt1.s 			page 13


 344:..\..\..\arduinoLCD\test\Pain Drain\libraries\lvgl\src\draw\sw/lv_draw_sw_transform.c **** 
 345:..\..\..\arduinoLCD\test\Pain Drain\libraries\lvgl\src\draw\sw/lv_draw_sw_transform.c ****         if(xs_int + x_next >= 0 &&
 346:..\..\..\arduinoLCD\test\Pain Drain\libraries\lvgl\src\draw\sw/lv_draw_sw_transform.c ****            xs_int + x_next <= src_w - 1 &&
 347:..\..\..\arduinoLCD\test\Pain Drain\libraries\lvgl\src\draw\sw/lv_draw_sw_transform.c ****            ys_int + y_next >= 0 &&
 348:..\..\..\arduinoLCD\test\Pain Drain\libraries\lvgl\src\draw\sw/lv_draw_sw_transform.c ****            ys_int + y_next <= src_h - 1) {
 349:..\..\..\arduinoLCD\test\Pain Drain\libraries\lvgl\src\draw\sw/lv_draw_sw_transform.c **** 
 350:..\..\..\arduinoLCD\test\Pain Drain\libraries\lvgl\src\draw\sw/lv_draw_sw_transform.c ****             const uint8_t * px_base = src_tmp;
 351:..\..\..\arduinoLCD\test\Pain Drain\libraries\lvgl\src\draw\sw/lv_draw_sw_transform.c ****             const uint8_t * px_hor = src_tmp + x_next * px_size;
 352:..\..\..\arduinoLCD\test\Pain Drain\libraries\lvgl\src\draw\sw/lv_draw_sw_transform.c ****             const uint8_t * px_ver = src_tmp + y_next * src_stride * px_size;
 353:..\..\..\arduinoLCD\test\Pain Drain\libraries\lvgl\src\draw\sw/lv_draw_sw_transform.c ****             lv_color_t c_base;
 354:..\..\..\arduinoLCD\test\Pain Drain\libraries\lvgl\src\draw\sw/lv_draw_sw_transform.c ****             lv_color_t c_ver;
 355:..\..\..\arduinoLCD\test\Pain Drain\libraries\lvgl\src\draw\sw/lv_draw_sw_transform.c ****             lv_color_t c_hor;
 356:..\..\..\arduinoLCD\test\Pain Drain\libraries\lvgl\src\draw\sw/lv_draw_sw_transform.c **** 
 357:..\..\..\arduinoLCD\test\Pain Drain\libraries\lvgl\src\draw\sw/lv_draw_sw_transform.c ****             if(has_alpha) {
 358:..\..\..\arduinoLCD\test\Pain Drain\libraries\lvgl\src\draw\sw/lv_draw_sw_transform.c ****                 lv_opa_t a_base;
 359:..\..\..\arduinoLCD\test\Pain Drain\libraries\lvgl\src\draw\sw/lv_draw_sw_transform.c ****                 lv_opa_t a_ver;
 360:..\..\..\arduinoLCD\test\Pain Drain\libraries\lvgl\src\draw\sw/lv_draw_sw_transform.c ****                 lv_opa_t a_hor;
 361:..\..\..\arduinoLCD\test\Pain Drain\libraries\lvgl\src\draw\sw/lv_draw_sw_transform.c ****                 if(cf == LV_IMG_CF_TRUE_COLOR_ALPHA) {
 362:..\..\..\arduinoLCD\test\Pain Drain\libraries\lvgl\src\draw\sw/lv_draw_sw_transform.c ****                     a_base = px_base[LV_IMG_PX_SIZE_ALPHA_BYTE - 1];
 363:..\..\..\arduinoLCD\test\Pain Drain\libraries\lvgl\src\draw\sw/lv_draw_sw_transform.c ****                     a_ver = px_ver[LV_IMG_PX_SIZE_ALPHA_BYTE - 1];
 364:..\..\..\arduinoLCD\test\Pain Drain\libraries\lvgl\src\draw\sw/lv_draw_sw_transform.c ****                     a_hor = px_hor[LV_IMG_PX_SIZE_ALPHA_BYTE - 1];
 365:..\..\..\arduinoLCD\test\Pain Drain\libraries\lvgl\src\draw\sw/lv_draw_sw_transform.c ****                 }
 366:..\..\..\arduinoLCD\test\Pain Drain\libraries\lvgl\src\draw\sw/lv_draw_sw_transform.c **** #if LV_COLOR_DEPTH == 16
 367:..\..\..\arduinoLCD\test\Pain Drain\libraries\lvgl\src\draw\sw/lv_draw_sw_transform.c ****                 else if(cf == LV_IMG_CF_RGB565A8) {
 368:..\..\..\arduinoLCD\test\Pain Drain\libraries\lvgl\src\draw\sw/lv_draw_sw_transform.c ****                     const lv_opa_t * a_tmp = src + src_stride * src_h * sizeof(lv_color_t);
 369:..\..\..\arduinoLCD\test\Pain Drain\libraries\lvgl\src\draw\sw/lv_draw_sw_transform.c ****                     a_base = *(a_tmp + (ys_int * src_stride) + xs_int);
 370:..\..\..\arduinoLCD\test\Pain Drain\libraries\lvgl\src\draw\sw/lv_draw_sw_transform.c ****                     a_hor = *(a_tmp + (ys_int * src_stride) + xs_int + x_next);
 371:..\..\..\arduinoLCD\test\Pain Drain\libraries\lvgl\src\draw\sw/lv_draw_sw_transform.c ****                     a_ver = *(a_tmp + ((ys_int + y_next) * src_stride) + xs_int);
 372:..\..\..\arduinoLCD\test\Pain Drain\libraries\lvgl\src\draw\sw/lv_draw_sw_transform.c ****                 }
 373:..\..\..\arduinoLCD\test\Pain Drain\libraries\lvgl\src\draw\sw/lv_draw_sw_transform.c **** #endif
 374:..\..\..\arduinoLCD\test\Pain Drain\libraries\lvgl\src\draw\sw/lv_draw_sw_transform.c ****                 else if(cf == LV_IMG_CF_TRUE_COLOR_CHROMA_KEYED) {
 375:..\..\..\arduinoLCD\test\Pain Drain\libraries\lvgl\src\draw\sw/lv_draw_sw_transform.c ****                     if(((lv_color_t *)px_base)->full == ck.full ||
 376:..\..\..\arduinoLCD\test\Pain Drain\libraries\lvgl\src\draw\sw/lv_draw_sw_transform.c ****                        ((lv_color_t *)px_ver)->full == ck.full ||
 377:..\..\..\arduinoLCD\test\Pain Drain\libraries\lvgl\src\draw\sw/lv_draw_sw_transform.c ****                        ((lv_color_t *)px_hor)->full == ck.full) {
 378:..\..\..\arduinoLCD\test\Pain Drain\libraries\lvgl\src\draw\sw/lv_draw_sw_transform.c ****                         abuf[x] = 0x00;
 379:..\..\..\arduinoLCD\test\Pain Drain\libraries\lvgl\src\draw\sw/lv_draw_sw_transform.c ****                         continue;
 380:..\..\..\arduinoLCD\test\Pain Drain\libraries\lvgl\src\draw\sw/lv_draw_sw_transform.c ****                     }
 381:..\..\..\arduinoLCD\test\Pain Drain\libraries\lvgl\src\draw\sw/lv_draw_sw_transform.c ****                     else {
 382:..\..\..\arduinoLCD\test\Pain Drain\libraries\lvgl\src\draw\sw/lv_draw_sw_transform.c ****                         a_base = 0xff;
 383:..\..\..\arduinoLCD\test\Pain Drain\libraries\lvgl\src\draw\sw/lv_draw_sw_transform.c ****                         a_ver = 0xff;
 384:..\..\..\arduinoLCD\test\Pain Drain\libraries\lvgl\src\draw\sw/lv_draw_sw_transform.c ****                         a_hor = 0xff;
 385:..\..\..\arduinoLCD\test\Pain Drain\libraries\lvgl\src\draw\sw/lv_draw_sw_transform.c ****                     }
 386:..\..\..\arduinoLCD\test\Pain Drain\libraries\lvgl\src\draw\sw/lv_draw_sw_transform.c ****                 }
 387:..\..\..\arduinoLCD\test\Pain Drain\libraries\lvgl\src\draw\sw/lv_draw_sw_transform.c ****                 else {
 388:..\..\..\arduinoLCD\test\Pain Drain\libraries\lvgl\src\draw\sw/lv_draw_sw_transform.c ****                     a_base = 0xff;
 389:..\..\..\arduinoLCD\test\Pain Drain\libraries\lvgl\src\draw\sw/lv_draw_sw_transform.c ****                     a_ver = 0xff;
 390:..\..\..\arduinoLCD\test\Pain Drain\libraries\lvgl\src\draw\sw/lv_draw_sw_transform.c ****                     a_hor = 0xff;
 391:..\..\..\arduinoLCD\test\Pain Drain\libraries\lvgl\src\draw\sw/lv_draw_sw_transform.c ****                 }
 392:..\..\..\arduinoLCD\test\Pain Drain\libraries\lvgl\src\draw\sw/lv_draw_sw_transform.c **** 
 393:..\..\..\arduinoLCD\test\Pain Drain\libraries\lvgl\src\draw\sw/lv_draw_sw_transform.c ****                 if(a_ver != a_base) a_ver = ((a_ver * ys_fract) + (a_base * (0x100 - ys_fract))) >>
 394:..\..\..\arduinoLCD\test\Pain Drain\libraries\lvgl\src\draw\sw/lv_draw_sw_transform.c ****                 if(a_hor != a_base) a_hor = ((a_hor * xs_fract) + (a_base * (0x100 - xs_fract))) >>
 395:..\..\..\arduinoLCD\test\Pain Drain\libraries\lvgl\src\draw\sw/lv_draw_sw_transform.c ****                 abuf[x] = (a_ver + a_hor) >> 1;
 396:..\..\..\arduinoLCD\test\Pain Drain\libraries\lvgl\src\draw\sw/lv_draw_sw_transform.c **** 
 397:..\..\..\arduinoLCD\test\Pain Drain\libraries\lvgl\src\draw\sw/lv_draw_sw_transform.c ****                 if(abuf[x] == 0x00) continue;
 398:..\..\..\arduinoLCD\test\Pain Drain\libraries\lvgl\src\draw\sw/lv_draw_sw_transform.c **** 
 399:..\..\..\arduinoLCD\test\Pain Drain\libraries\lvgl\src\draw\sw/lv_draw_sw_transform.c **** #if LV_COLOR_DEPTH == 1 || LV_COLOR_DEPTH == 8
 400:..\..\..\arduinoLCD\test\Pain Drain\libraries\lvgl\src\draw\sw/lv_draw_sw_transform.c ****                 c_base.full = px_base[0];
ARM GAS  C:\Users\haske\AppData\Local\Temp\ccOknJt1.s 			page 14


 401:..\..\..\arduinoLCD\test\Pain Drain\libraries\lvgl\src\draw\sw/lv_draw_sw_transform.c ****                 c_ver.full = px_ver[0];
 402:..\..\..\arduinoLCD\test\Pain Drain\libraries\lvgl\src\draw\sw/lv_draw_sw_transform.c ****                 c_hor.full = px_hor[0];
 403:..\..\..\arduinoLCD\test\Pain Drain\libraries\lvgl\src\draw\sw/lv_draw_sw_transform.c **** #elif LV_COLOR_DEPTH == 16
 404:..\..\..\arduinoLCD\test\Pain Drain\libraries\lvgl\src\draw\sw/lv_draw_sw_transform.c ****                 c_base.full = px_base[0] + (px_base[1] << 8);
 405:..\..\..\arduinoLCD\test\Pain Drain\libraries\lvgl\src\draw\sw/lv_draw_sw_transform.c ****                 c_ver.full = px_ver[0] + (px_ver[1] << 8);
 406:..\..\..\arduinoLCD\test\Pain Drain\libraries\lvgl\src\draw\sw/lv_draw_sw_transform.c ****                 c_hor.full = px_hor[0] + (px_hor[1] << 8);
 407:..\..\..\arduinoLCD\test\Pain Drain\libraries\lvgl\src\draw\sw/lv_draw_sw_transform.c **** #elif LV_COLOR_DEPTH == 32
 408:..\..\..\arduinoLCD\test\Pain Drain\libraries\lvgl\src\draw\sw/lv_draw_sw_transform.c ****                 c_base.full = *((uint32_t *)px_base);
 409:..\..\..\arduinoLCD\test\Pain Drain\libraries\lvgl\src\draw\sw/lv_draw_sw_transform.c ****                 c_ver.full = *((uint32_t *)px_ver);
 410:..\..\..\arduinoLCD\test\Pain Drain\libraries\lvgl\src\draw\sw/lv_draw_sw_transform.c ****                 c_hor.full = *((uint32_t *)px_hor);
 411:..\..\..\arduinoLCD\test\Pain Drain\libraries\lvgl\src\draw\sw/lv_draw_sw_transform.c **** #endif
 412:..\..\..\arduinoLCD\test\Pain Drain\libraries\lvgl\src\draw\sw/lv_draw_sw_transform.c ****             }
 413:..\..\..\arduinoLCD\test\Pain Drain\libraries\lvgl\src\draw\sw/lv_draw_sw_transform.c ****             /*No alpha channel -> RGB*/
 414:..\..\..\arduinoLCD\test\Pain Drain\libraries\lvgl\src\draw\sw/lv_draw_sw_transform.c ****             else {
 415:..\..\..\arduinoLCD\test\Pain Drain\libraries\lvgl\src\draw\sw/lv_draw_sw_transform.c ****                 c_base = *((const lv_color_t *) px_base);
 416:..\..\..\arduinoLCD\test\Pain Drain\libraries\lvgl\src\draw\sw/lv_draw_sw_transform.c ****                 c_hor = *((const lv_color_t *) px_hor);
 417:..\..\..\arduinoLCD\test\Pain Drain\libraries\lvgl\src\draw\sw/lv_draw_sw_transform.c ****                 c_ver = *((const lv_color_t *) px_ver);
 418:..\..\..\arduinoLCD\test\Pain Drain\libraries\lvgl\src\draw\sw/lv_draw_sw_transform.c ****                 abuf[x] = 0xff;
 419:..\..\..\arduinoLCD\test\Pain Drain\libraries\lvgl\src\draw\sw/lv_draw_sw_transform.c ****             }
 420:..\..\..\arduinoLCD\test\Pain Drain\libraries\lvgl\src\draw\sw/lv_draw_sw_transform.c **** 
 421:..\..\..\arduinoLCD\test\Pain Drain\libraries\lvgl\src\draw\sw/lv_draw_sw_transform.c ****             if(c_base.full == c_ver.full && c_base.full == c_hor.full) {
 422:..\..\..\arduinoLCD\test\Pain Drain\libraries\lvgl\src\draw\sw/lv_draw_sw_transform.c ****                 cbuf[x] = c_base;
 423:..\..\..\arduinoLCD\test\Pain Drain\libraries\lvgl\src\draw\sw/lv_draw_sw_transform.c ****             }
 424:..\..\..\arduinoLCD\test\Pain Drain\libraries\lvgl\src\draw\sw/lv_draw_sw_transform.c ****             else {
 425:..\..\..\arduinoLCD\test\Pain Drain\libraries\lvgl\src\draw\sw/lv_draw_sw_transform.c ****                 c_ver = lv_color_mix(c_ver, c_base, ys_fract);
 426:..\..\..\arduinoLCD\test\Pain Drain\libraries\lvgl\src\draw\sw/lv_draw_sw_transform.c ****                 c_hor = lv_color_mix(c_hor, c_base, xs_fract);
 427:..\..\..\arduinoLCD\test\Pain Drain\libraries\lvgl\src\draw\sw/lv_draw_sw_transform.c ****                 cbuf[x] = lv_color_mix(c_hor, c_ver, LV_OPA_50);
 428:..\..\..\arduinoLCD\test\Pain Drain\libraries\lvgl\src\draw\sw/lv_draw_sw_transform.c ****             }
 429:..\..\..\arduinoLCD\test\Pain Drain\libraries\lvgl\src\draw\sw/lv_draw_sw_transform.c ****         }
 430:..\..\..\arduinoLCD\test\Pain Drain\libraries\lvgl\src\draw\sw/lv_draw_sw_transform.c ****         /*Partially out of the image*/
 431:..\..\..\arduinoLCD\test\Pain Drain\libraries\lvgl\src\draw\sw/lv_draw_sw_transform.c ****         else {
 432:..\..\..\arduinoLCD\test\Pain Drain\libraries\lvgl\src\draw\sw/lv_draw_sw_transform.c **** #if LV_COLOR_DEPTH == 1 || LV_COLOR_DEPTH == 8
 433:..\..\..\arduinoLCD\test\Pain Drain\libraries\lvgl\src\draw\sw/lv_draw_sw_transform.c ****             cbuf[x].full = src_tmp[0];
 434:..\..\..\arduinoLCD\test\Pain Drain\libraries\lvgl\src\draw\sw/lv_draw_sw_transform.c **** #elif LV_COLOR_DEPTH == 16
 435:..\..\..\arduinoLCD\test\Pain Drain\libraries\lvgl\src\draw\sw/lv_draw_sw_transform.c ****             cbuf[x].full = src_tmp[0] + (src_tmp[1] << 8);
 436:..\..\..\arduinoLCD\test\Pain Drain\libraries\lvgl\src\draw\sw/lv_draw_sw_transform.c **** #elif LV_COLOR_DEPTH == 32
 437:..\..\..\arduinoLCD\test\Pain Drain\libraries\lvgl\src\draw\sw/lv_draw_sw_transform.c ****             cbuf[x].full = *((uint32_t *)src_tmp);
 438:..\..\..\arduinoLCD\test\Pain Drain\libraries\lvgl\src\draw\sw/lv_draw_sw_transform.c **** #endif
 439:..\..\..\arduinoLCD\test\Pain Drain\libraries\lvgl\src\draw\sw/lv_draw_sw_transform.c ****             lv_opa_t a;
 440:..\..\..\arduinoLCD\test\Pain Drain\libraries\lvgl\src\draw\sw/lv_draw_sw_transform.c ****             switch(cf) {
 441:..\..\..\arduinoLCD\test\Pain Drain\libraries\lvgl\src\draw\sw/lv_draw_sw_transform.c ****                 case LV_IMG_CF_TRUE_COLOR_ALPHA:
 442:..\..\..\arduinoLCD\test\Pain Drain\libraries\lvgl\src\draw\sw/lv_draw_sw_transform.c ****                     a = src_tmp[LV_IMG_PX_SIZE_ALPHA_BYTE - 1];
 443:..\..\..\arduinoLCD\test\Pain Drain\libraries\lvgl\src\draw\sw/lv_draw_sw_transform.c ****                     break;
 444:..\..\..\arduinoLCD\test\Pain Drain\libraries\lvgl\src\draw\sw/lv_draw_sw_transform.c ****                 case LV_IMG_CF_TRUE_COLOR_CHROMA_KEYED:
 445:..\..\..\arduinoLCD\test\Pain Drain\libraries\lvgl\src\draw\sw/lv_draw_sw_transform.c ****                     a = cbuf[x].full == ck.full ? 0x00 : 0xff;
 446:..\..\..\arduinoLCD\test\Pain Drain\libraries\lvgl\src\draw\sw/lv_draw_sw_transform.c ****                     break;
 447:..\..\..\arduinoLCD\test\Pain Drain\libraries\lvgl\src\draw\sw/lv_draw_sw_transform.c **** #if LV_COLOR_DEPTH == 16
 448:..\..\..\arduinoLCD\test\Pain Drain\libraries\lvgl\src\draw\sw/lv_draw_sw_transform.c ****                 case LV_IMG_CF_RGB565A8:
 449:..\..\..\arduinoLCD\test\Pain Drain\libraries\lvgl\src\draw\sw/lv_draw_sw_transform.c ****                     a = *(src + src_stride * src_h * sizeof(lv_color_t) + (ys_int * src_stride) + x
 450:..\..\..\arduinoLCD\test\Pain Drain\libraries\lvgl\src\draw\sw/lv_draw_sw_transform.c ****                     break;
 451:..\..\..\arduinoLCD\test\Pain Drain\libraries\lvgl\src\draw\sw/lv_draw_sw_transform.c **** #endif
 452:..\..\..\arduinoLCD\test\Pain Drain\libraries\lvgl\src\draw\sw/lv_draw_sw_transform.c ****                 default:
 453:..\..\..\arduinoLCD\test\Pain Drain\libraries\lvgl\src\draw\sw/lv_draw_sw_transform.c ****                     a = 0xff;
 454:..\..\..\arduinoLCD\test\Pain Drain\libraries\lvgl\src\draw\sw/lv_draw_sw_transform.c ****             }
 455:..\..\..\arduinoLCD\test\Pain Drain\libraries\lvgl\src\draw\sw/lv_draw_sw_transform.c **** 
 456:..\..\..\arduinoLCD\test\Pain Drain\libraries\lvgl\src\draw\sw/lv_draw_sw_transform.c ****             if((xs_int == 0 && x_next < 0) || (xs_int == src_w - 1 && x_next > 0))  {
 457:..\..\..\arduinoLCD\test\Pain Drain\libraries\lvgl\src\draw\sw/lv_draw_sw_transform.c ****                 abuf[x] = (a * (0xFF - xs_fract)) >> 8;
ARM GAS  C:\Users\haske\AppData\Local\Temp\ccOknJt1.s 			page 15


 458:..\..\..\arduinoLCD\test\Pain Drain\libraries\lvgl\src\draw\sw/lv_draw_sw_transform.c ****             }
 459:..\..\..\arduinoLCD\test\Pain Drain\libraries\lvgl\src\draw\sw/lv_draw_sw_transform.c ****             else if((ys_int == 0 && y_next < 0) || (ys_int == src_h - 1 && y_next > 0))  {
 460:..\..\..\arduinoLCD\test\Pain Drain\libraries\lvgl\src\draw\sw/lv_draw_sw_transform.c ****                 abuf[x] = (a * (0xFF - ys_fract)) >> 8;
 461:..\..\..\arduinoLCD\test\Pain Drain\libraries\lvgl\src\draw\sw/lv_draw_sw_transform.c ****             }
 462:..\..\..\arduinoLCD\test\Pain Drain\libraries\lvgl\src\draw\sw/lv_draw_sw_transform.c ****             else {
 463:..\..\..\arduinoLCD\test\Pain Drain\libraries\lvgl\src\draw\sw/lv_draw_sw_transform.c ****                 abuf[x] = 0x00;
 464:..\..\..\arduinoLCD\test\Pain Drain\libraries\lvgl\src\draw\sw/lv_draw_sw_transform.c ****             }
 465:..\..\..\arduinoLCD\test\Pain Drain\libraries\lvgl\src\draw\sw/lv_draw_sw_transform.c ****         }
 466:..\..\..\arduinoLCD\test\Pain Drain\libraries\lvgl\src\draw\sw/lv_draw_sw_transform.c ****     }
 467:..\..\..\arduinoLCD\test\Pain Drain\libraries\lvgl\src\draw\sw/lv_draw_sw_transform.c **** }
 468:..\..\..\arduinoLCD\test\Pain Drain\libraries\lvgl\src\draw\sw/lv_draw_sw_transform.c **** 
 469:..\..\..\arduinoLCD\test\Pain Drain\libraries\lvgl\src\draw\sw/lv_draw_sw_transform.c **** static void transform_point_upscaled(point_transform_dsc_t * t, int32_t xin, int32_t yin, int32_t *
 470:..\..\..\arduinoLCD\test\Pain Drain\libraries\lvgl\src\draw\sw/lv_draw_sw_transform.c ****                                      int32_t * yout)
 471:..\..\..\arduinoLCD\test\Pain Drain\libraries\lvgl\src\draw\sw/lv_draw_sw_transform.c **** {
 338              		.loc 1 471 0
 339              		.cfi_startproc
 340              		@ args = 4, pretend = 0, frame = 0
 341              		@ frame_needed = 0, uses_anonymous_args = 0
 342              	.LVL46:
 343 0000 F0B5     		push	{r4, r5, r6, r7, lr}
 344              		.cfi_def_cfa_offset 20
 345              		.cfi_offset 4, -20
 346              		.cfi_offset 5, -16
 347              		.cfi_offset 6, -12
 348              		.cfi_offset 7, -8
 349              		.cfi_offset 14, -4
 472:..\..\..\arduinoLCD\test\Pain Drain\libraries\lvgl\src\draw\sw/lv_draw_sw_transform.c ****     if(t->angle == 0 && t->zoom == LV_IMG_ZOOM_NONE) {
 350              		.loc 1 472 0
 351 0002 C469     		ldr	r4, [r0, #28]
 352 0004 002C     		cmp	r4, #0
 353 0006 0AD1     		bne	.L14
 354              		.loc 1 472 0 is_stmt 0 discriminator 1
 355 0008 8025     		movs	r5, #128
 356 000a 6D00     		lsls	r5, r5, #1
 357 000c 8669     		ldr	r6, [r0, #24]
 358 000e AE42     		cmp	r6, r5
 359 0010 05D1     		bne	.L14
 473:..\..\..\arduinoLCD\test\Pain Drain\libraries\lvgl\src\draw\sw/lv_draw_sw_transform.c ****         *xout = xin * 256;
 360              		.loc 1 473 0 is_stmt 1
 361 0012 0902     		lsls	r1, r1, #8
 362              	.LVL47:
 363 0014 1960     		str	r1, [r3]
 474:..\..\..\arduinoLCD\test\Pain Drain\libraries\lvgl\src\draw\sw/lv_draw_sw_transform.c ****         *yout = yin * 256;
 364              		.loc 1 474 0
 365 0016 1202     		lsls	r2, r2, #8
 366              	.LVL48:
 367 0018 059B     		ldr	r3, [sp, #20]
 368              	.LVL49:
 369 001a 1A60     		str	r2, [r3]
 475:..\..\..\arduinoLCD\test\Pain Drain\libraries\lvgl\src\draw\sw/lv_draw_sw_transform.c ****         return;
 370              		.loc 1 475 0
 371 001c 45E0     		b	.L13
 372              	.LVL50:
 373              	.L14:
 476:..\..\..\arduinoLCD\test\Pain Drain\libraries\lvgl\src\draw\sw/lv_draw_sw_transform.c ****     }
 477:..\..\..\arduinoLCD\test\Pain Drain\libraries\lvgl\src\draw\sw/lv_draw_sw_transform.c **** 
 478:..\..\..\arduinoLCD\test\Pain Drain\libraries\lvgl\src\draw\sw/lv_draw_sw_transform.c ****     xin -= t->pivot.x;
ARM GAS  C:\Users\haske\AppData\Local\Temp\ccOknJt1.s 			page 16


 374              		.loc 1 478 0
 375 001e 2826     		movs	r6, #40
 376 0020 855F     		ldrsh	r5, [r0, r6]
 377 0022 491B     		subs	r1, r1, r5
 378              	.LVL51:
 479:..\..\..\arduinoLCD\test\Pain Drain\libraries\lvgl\src\draw\sw/lv_draw_sw_transform.c ****     yin -= t->pivot.y;
 379              		.loc 1 479 0
 380 0024 2A26     		movs	r6, #42
 381 0026 855F     		ldrsh	r5, [r0, r6]
 382 0028 521B     		subs	r2, r2, r5
 383              	.LVL52:
 480:..\..\..\arduinoLCD\test\Pain Drain\libraries\lvgl\src\draw\sw/lv_draw_sw_transform.c **** 
 481:..\..\..\arduinoLCD\test\Pain Drain\libraries\lvgl\src\draw\sw/lv_draw_sw_transform.c ****     if(t->angle == 0) {
 384              		.loc 1 481 0
 385 002a 002C     		cmp	r4, #0
 386 002c 0CD1     		bne	.L16
 482:..\..\..\arduinoLCD\test\Pain Drain\libraries\lvgl\src\draw\sw/lv_draw_sw_transform.c ****         *xout = ((int32_t)(xin * t->zoom)) + (t->pivot_x_256);
 387              		.loc 1 482 0
 388 002e 8469     		ldr	r4, [r0, #24]
 389 0030 6143     		muls	r1, r4
 390              	.LVL53:
 391 0032 046A     		ldr	r4, [r0, #32]
 392 0034 A446     		mov	ip, r4
 393 0036 6144     		add	r1, r1, ip
 394 0038 1960     		str	r1, [r3]
 395              	.LVL54:
 483:..\..\..\arduinoLCD\test\Pain Drain\libraries\lvgl\src\draw\sw/lv_draw_sw_transform.c ****         *yout = ((int32_t)(yin * t->zoom)) + (t->pivot_y_256);
 396              		.loc 1 483 0
 397 003a 8369     		ldr	r3, [r0, #24]
 398              	.LVL55:
 399 003c 5A43     		muls	r2, r3
 400              	.LVL56:
 401 003e 436A     		ldr	r3, [r0, #36]
 402 0040 D218     		adds	r2, r2, r3
 403 0042 059B     		ldr	r3, [sp, #20]
 404 0044 1A60     		str	r2, [r3]
 405 0046 30E0     		b	.L13
 406              	.LVL57:
 407              	.L16:
 484:..\..\..\arduinoLCD\test\Pain Drain\libraries\lvgl\src\draw\sw/lv_draw_sw_transform.c ****     }
 485:..\..\..\arduinoLCD\test\Pain Drain\libraries\lvgl\src\draw\sw/lv_draw_sw_transform.c ****     else if(t->zoom == LV_IMG_ZOOM_NONE) {
 408              		.loc 1 485 0
 409 0048 8769     		ldr	r7, [r0, #24]
 410 004a 8024     		movs	r4, #128
 411 004c 6400     		lsls	r4, r4, #1
 412 004e A742     		cmp	r7, r4
 413 0050 14D1     		bne	.L17
 486:..\..\..\arduinoLCD\test\Pain Drain\libraries\lvgl\src\draw\sw/lv_draw_sw_transform.c ****         *xout = ((t->cosma * xin - t->sinma * yin) >> 2) + (t->pivot_x_256);
 414              		.loc 1 486 0
 415 0052 4469     		ldr	r4, [r0, #20]
 416 0054 4C43     		muls	r4, r1
 417 0056 0569     		ldr	r5, [r0, #16]
 418 0058 5543     		muls	r5, r2
 419 005a 641B     		subs	r4, r4, r5
 420 005c A410     		asrs	r4, r4, #2
 421 005e 056A     		ldr	r5, [r0, #32]
 422 0060 AC46     		mov	ip, r5
ARM GAS  C:\Users\haske\AppData\Local\Temp\ccOknJt1.s 			page 17


 423 0062 6444     		add	r4, r4, ip
 424 0064 1C60     		str	r4, [r3]
 487:..\..\..\arduinoLCD\test\Pain Drain\libraries\lvgl\src\draw\sw/lv_draw_sw_transform.c ****         *yout = ((t->sinma * xin + t->cosma * yin) >> 2) + (t->pivot_y_256);
 425              		.loc 1 487 0
 426 0066 0369     		ldr	r3, [r0, #16]
 427              	.LVL58:
 428 0068 5943     		muls	r1, r3
 429              	.LVL59:
 430 006a 4369     		ldr	r3, [r0, #20]
 431 006c 5A43     		muls	r2, r3
 432              	.LVL60:
 433 006e 8A18     		adds	r2, r1, r2
 434 0070 9210     		asrs	r2, r2, #2
 435 0072 416A     		ldr	r1, [r0, #36]
 436 0074 5218     		adds	r2, r2, r1
 437 0076 059B     		ldr	r3, [sp, #20]
 438 0078 1A60     		str	r2, [r3]
 439 007a 16E0     		b	.L13
 440              	.LVL61:
 441              	.L17:
 488:..\..\..\arduinoLCD\test\Pain Drain\libraries\lvgl\src\draw\sw/lv_draw_sw_transform.c ****     }
 489:..\..\..\arduinoLCD\test\Pain Drain\libraries\lvgl\src\draw\sw/lv_draw_sw_transform.c ****     else {
 490:..\..\..\arduinoLCD\test\Pain Drain\libraries\lvgl\src\draw\sw/lv_draw_sw_transform.c ****         *xout = (((t->cosma * xin - t->sinma * yin) * t->zoom) >> 10) + (t->pivot_x_256);
 442              		.loc 1 490 0
 443 007c 4569     		ldr	r5, [r0, #20]
 444 007e 4D43     		muls	r5, r1
 445 0080 0669     		ldr	r6, [r0, #16]
 446 0082 5643     		muls	r6, r2
 447 0084 AC1B     		subs	r4, r5, r6
 448 0086 7C43     		muls	r4, r7
 449 0088 A412     		asrs	r4, r4, #10
 450 008a 056A     		ldr	r5, [r0, #32]
 451 008c AC46     		mov	ip, r5
 452 008e 6444     		add	r4, r4, ip
 453 0090 1C60     		str	r4, [r3]
 491:..\..\..\arduinoLCD\test\Pain Drain\libraries\lvgl\src\draw\sw/lv_draw_sw_transform.c ****         *yout = (((t->sinma * xin + t->cosma * yin) * t->zoom) >> 10) + (t->pivot_y_256);
 454              		.loc 1 491 0
 455 0092 0369     		ldr	r3, [r0, #16]
 456              	.LVL62:
 457 0094 5943     		muls	r1, r3
 458              	.LVL63:
 459 0096 4369     		ldr	r3, [r0, #20]
 460 0098 5A43     		muls	r2, r3
 461              	.LVL64:
 462 009a 8A18     		adds	r2, r1, r2
 463 009c 8369     		ldr	r3, [r0, #24]
 464 009e 5A43     		muls	r2, r3
 465 00a0 9212     		asrs	r2, r2, #10
 466 00a2 436A     		ldr	r3, [r0, #36]
 467 00a4 D218     		adds	r2, r2, r3
 468 00a6 059B     		ldr	r3, [sp, #20]
 469 00a8 1A60     		str	r2, [r3]
 470              	.L13:
 492:..\..\..\arduinoLCD\test\Pain Drain\libraries\lvgl\src\draw\sw/lv_draw_sw_transform.c ****     }
 493:..\..\..\arduinoLCD\test\Pain Drain\libraries\lvgl\src\draw\sw/lv_draw_sw_transform.c **** }
 471              		.loc 1 493 0
 472              		@ sp needed
ARM GAS  C:\Users\haske\AppData\Local\Temp\ccOknJt1.s 			page 18


 473 00aa F0BD     		pop	{r4, r5, r6, r7, pc}
 474              		.cfi_endproc
 475              	.LFE164:
 476              		.size	transform_point_upscaled, .-transform_point_upscaled
 477              		.section	.text.argb_and_rgb_aa,"ax",%progbits
 478              		.align	2
 479              		.code	16
 480              		.thumb_func
 481              		.type	argb_and_rgb_aa, %function
 482              	argb_and_rgb_aa:
 483              	.LFB163:
 271:..\..\..\arduinoLCD\test\Pain Drain\libraries\lvgl\src\draw\sw/lv_draw_sw_transform.c ****     int32_t xs_ups_start = xs_ups;
 484              		.loc 1 271 0
 485              		.cfi_startproc
 486              		@ args = 32, pretend = 0, frame = 56
 487              		@ frame_needed = 0, uses_anonymous_args = 0
 488              	.LVL65:
 489 0000 F0B5     		push	{r4, r5, r6, r7, lr}
 490              		.cfi_def_cfa_offset 20
 491              		.cfi_offset 4, -20
 492              		.cfi_offset 5, -16
 493              		.cfi_offset 6, -12
 494              		.cfi_offset 7, -8
 495              		.cfi_offset 14, -4
 496 0002 5F46     		mov	r7, fp
 497 0004 5646     		mov	r6, r10
 498 0006 4D46     		mov	r5, r9
 499 0008 4446     		mov	r4, r8
 500 000a F0B4     		push	{r4, r5, r6, r7}
 501              		.cfi_def_cfa_offset 36
 502              		.cfi_offset 8, -36
 503              		.cfi_offset 9, -32
 504              		.cfi_offset 10, -28
 505              		.cfi_offset 11, -24
 506 000c 8FB0     		sub	sp, sp, #60
 507              		.cfi_def_cfa_offset 96
 508 000e 0490     		str	r0, [sp, #16]
 509 0010 0F00     		movs	r7, r1
 510 0012 0092     		str	r2, [sp]
 511 0014 0393     		str	r3, [sp, #12]
 512 0016 189B     		ldr	r3, [sp, #96]
 513              	.LVL66:
 514 0018 9B46     		mov	fp, r3
 515 001a 1A9B     		ldr	r3, [sp, #104]
 516 001c 9A46     		mov	r10, r3
 517 001e 1C9B     		ldr	r3, [sp, #112]
 518 0020 9846     		mov	r8, r3
 519 0022 1FAB     		add	r3, sp, #124
 520              	.LVL67:
 521 0024 1B78     		ldrb	r3, [r3]
 522              	.LVL68:
 523 0026 9946     		mov	r9, r3
 524              	.LVL69:
 276:..\..\..\arduinoLCD\test\Pain Drain\libraries\lvgl\src\draw\sw/lv_draw_sw_transform.c ****     switch(cf) {
 525              		.loc 1 276 0
 526 0028 0023     		movs	r3, #0
 527              	.LVL70:
ARM GAS  C:\Users\haske\AppData\Local\Temp\ccOknJt1.s 			page 19


 528 002a 6A46     		mov	r2, sp
 529              	.LVL71:
 530 002c 5385     		strh	r3, [r2, #42]
 277:..\..\..\arduinoLCD\test\Pain Drain\libraries\lvgl\src\draw\sw/lv_draw_sw_transform.c ****         case LV_IMG_CF_TRUE_COLOR:
 531              		.loc 1 277 0
 532 002e 4B46     		mov	r3, r9
 533              	.LVL72:
 534 0030 052B     		cmp	r3, #5
 535 0032 1ED0     		beq	.L57
 536 0034 02D8     		bhi	.L21
 537 0036 042B     		cmp	r3, #4
 538 0038 06D0     		beq	.L22
 539 003a C6E1     		b	.L18
 540              	.L21:
 541 003c 4B46     		mov	r3, r9
 542 003e 062B     		cmp	r3, #6
 543 0040 07D0     		beq	.L23
 544 0042 142B     		cmp	r3, #20
 545 0044 10D0     		beq	.L24
 546 0046 C0E1     		b	.L18
 547              	.L22:
 280:..\..\..\arduinoLCD\test\Pain Drain\libraries\lvgl\src\draw\sw/lv_draw_sw_transform.c ****             break;
 548              		.loc 1 280 0
 549 0048 0223     		movs	r3, #2
 550 004a 0793     		str	r3, [sp, #28]
 279:..\..\..\arduinoLCD\test\Pain Drain\libraries\lvgl\src\draw\sw/lv_draw_sw_transform.c ****             px_size = sizeof(lv_color_t);
 551              		.loc 1 279 0
 552 004c 0023     		movs	r3, #0
 553 004e 0D93     		str	r3, [sp, #52]
 554 0050 13E0     		b	.L20
 555              	.L23:
 556              	.LVL73:
 557              	.LBB23:
 289:..\..\..\arduinoLCD\test\Pain Drain\libraries\lvgl\src\draw\sw/lv_draw_sw_transform.c ****                 ck = d->driver->color_chroma_key;
 558              		.loc 1 289 0
 559 0052 FFF7FEFF 		bl	_lv_refr_get_disp_refreshing
 560              	.LVL74:
 290:..\..\..\arduinoLCD\test\Pain Drain\libraries\lvgl\src\draw\sw/lv_draw_sw_transform.c ****                 break;
 561              		.loc 1 290 0
 562 0056 0368     		ldr	r3, [r0]
 563 0058 1B8F     		ldrh	r3, [r3, #56]
 564 005a 6A46     		mov	r2, sp
 565              	.LVL75:
 566 005c 5385     		strh	r3, [r2, #42]
 288:..\..\..\arduinoLCD\test\Pain Drain\libraries\lvgl\src\draw\sw/lv_draw_sw_transform.c ****                 lv_disp_t * d = _lv_refr_get_disp_refreshing();
 567              		.loc 1 288 0
 568 005e 0223     		movs	r3, #2
 569              	.LVL76:
 570 0060 0793     		str	r3, [sp, #28]
 287:..\..\..\arduinoLCD\test\Pain Drain\libraries\lvgl\src\draw\sw/lv_draw_sw_transform.c ****                 px_size = sizeof(lv_color_t);
 571              		.loc 1 287 0
 572 0062 013B     		subs	r3, r3, #1
 573 0064 0D93     		str	r3, [sp, #52]
 291:..\..\..\arduinoLCD\test\Pain Drain\libraries\lvgl\src\draw\sw/lv_draw_sw_transform.c ****             }
 574              		.loc 1 291 0
 575 0066 08E0     		b	.L20
 576              	.LVL77:
ARM GAS  C:\Users\haske\AppData\Local\Temp\ccOknJt1.s 			page 20


 577              	.L24:
 578              	.LBE23:
 296:..\..\..\arduinoLCD\test\Pain Drain\libraries\lvgl\src\draw\sw/lv_draw_sw_transform.c ****             break;
 579              		.loc 1 296 0
 580 0068 0223     		movs	r3, #2
 581 006a 0793     		str	r3, [sp, #28]
 295:..\..\..\arduinoLCD\test\Pain Drain\libraries\lvgl\src\draw\sw/lv_draw_sw_transform.c ****             px_size = sizeof(lv_color_t);
 582              		.loc 1 295 0
 583 006c 013B     		subs	r3, r3, #1
 584 006e 0D93     		str	r3, [sp, #52]
 297:..\..\..\arduinoLCD\test\Pain Drain\libraries\lvgl\src\draw\sw/lv_draw_sw_transform.c **** #endif
 585              		.loc 1 297 0
 586 0070 03E0     		b	.L20
 587              	.LVL78:
 588              	.L57:
 284:..\..\..\arduinoLCD\test\Pain Drain\libraries\lvgl\src\draw\sw/lv_draw_sw_transform.c ****             break;
 589              		.loc 1 284 0
 590 0072 0323     		movs	r3, #3
 591 0074 0793     		str	r3, [sp, #28]
 283:..\..\..\arduinoLCD\test\Pain Drain\libraries\lvgl\src\draw\sw/lv_draw_sw_transform.c ****             px_size = LV_IMG_PX_SIZE_ALPHA_BYTE;
 592              		.loc 1 283 0
 593 0076 023B     		subs	r3, r3, #2
 594 0078 0D93     		str	r3, [sp, #52]
 595              	.LVL79:
 596              	.L20:
 304:..\..\..\arduinoLCD\test\Pain Drain\libraries\lvgl\src\draw\sw/lv_draw_sw_transform.c ****         xs_ups = xs_ups_start + ((xs_step * x) >> 8);
 597              		.loc 1 304 0
 598 007a 0021     		movs	r1, #0
 599 007c BC46     		mov	ip, r7
 600 007e 5B46     		mov	r3, fp
 601 0080 1893     		str	r3, [sp, #96]
 602 0082 199B     		ldr	r3, [sp, #100]
 603 0084 9B46     		mov	fp, r3
 604              	.LVL80:
 605 0086 5546     		mov	r5, r10
 606 0088 4046     		mov	r0, r8
 607 008a CA46     		mov	r10, r9
 608 008c 1B9B     		ldr	r3, [sp, #108]
 609 008e 9946     		mov	r9, r3
 610 0090 98E1     		b	.L25
 611              	.LVL81:
 612              	.L55:
 613              	.LBB24:
 305:..\..\..\arduinoLCD\test\Pain Drain\libraries\lvgl\src\draw\sw/lv_draw_sw_transform.c ****         ys_ups = ys_ups_start + ((ys_step * x) >> 8);
 614              		.loc 1 305 0
 615 0092 2F00     		movs	r7, r5
 616 0094 4F43     		muls	r7, r1
 617 0096 3F12     		asrs	r7, r7, #8
 618 0098 189B     		ldr	r3, [sp, #96]
 619 009a 9846     		mov	r8, r3
 620 009c 4744     		add	r7, r7, r8
 621              	.LVL82:
 306:..\..\..\arduinoLCD\test\Pain Drain\libraries\lvgl\src\draw\sw/lv_draw_sw_transform.c **** 
 622              		.loc 1 306 0
 623 009e 4E46     		mov	r6, r9
 624 00a0 4E43     		muls	r6, r1
 625 00a2 3612     		asrs	r6, r6, #8
ARM GAS  C:\Users\haske\AppData\Local\Temp\ccOknJt1.s 			page 21


 626 00a4 5E44     		add	r6, r6, fp
 627              	.LVL83:
 308:..\..\..\arduinoLCD\test\Pain Drain\libraries\lvgl\src\draw\sw/lv_draw_sw_transform.c ****         int32_t ys_int = ys_ups >> 8;
 628              		.loc 1 308 0
 629 00a6 3B12     		asrs	r3, r7, #8
 630              	.LVL84:
 309:..\..\..\arduinoLCD\test\Pain Drain\libraries\lvgl\src\draw\sw/lv_draw_sw_transform.c **** 
 631              		.loc 1 309 0
 632 00a8 3212     		asrs	r2, r6, #8
 633              	.LVL85:
 312:..\..\..\arduinoLCD\test\Pain Drain\libraries\lvgl\src\draw\sw/lv_draw_sw_transform.c ****             abuf[x] = 0x00;
 634              		.loc 1 312 0
 635 00aa 002B     		cmp	r3, #0
 636 00ac 06DB     		blt	.L26
 312:..\..\..\arduinoLCD\test\Pain Drain\libraries\lvgl\src\draw\sw/lv_draw_sw_transform.c ****             abuf[x] = 0x00;
 637              		.loc 1 312 0 is_stmt 0 discriminator 1
 638 00ae 6345     		cmp	r3, ip
 639 00b0 04DA     		bge	.L26
 312:..\..\..\arduinoLCD\test\Pain Drain\libraries\lvgl\src\draw\sw/lv_draw_sw_transform.c ****             abuf[x] = 0x00;
 640              		.loc 1 312 0 discriminator 2
 641 00b2 002A     		cmp	r2, #0
 642 00b4 02DB     		blt	.L26
 312:..\..\..\arduinoLCD\test\Pain Drain\libraries\lvgl\src\draw\sw/lv_draw_sw_transform.c ****             abuf[x] = 0x00;
 643              		.loc 1 312 0 discriminator 3
 644 00b6 009C     		ldr	r4, [sp]
 645              	.LVL86:
 646 00b8 A242     		cmp	r2, r4
 647 00ba 04DB     		blt	.L27
 648              	.LVL87:
 649              	.L26:
 313:..\..\..\arduinoLCD\test\Pain Drain\libraries\lvgl\src\draw\sw/lv_draw_sw_transform.c ****             continue;
 650              		.loc 1 313 0 is_stmt 1
 651 00bc 1E9B     		ldr	r3, [sp, #120]
 652              	.LVL88:
 653 00be 5B18     		adds	r3, r3, r1
 654 00c0 0022     		movs	r2, #0
 655              	.LVL89:
 656 00c2 1A70     		strb	r2, [r3]
 314:..\..\..\arduinoLCD\test\Pain Drain\libraries\lvgl\src\draw\sw/lv_draw_sw_transform.c ****         }
 657              		.loc 1 314 0
 658 00c4 7CE1     		b	.L28
 659              	.LVL90:
 660              	.L27:
 319:..\..\..\arduinoLCD\test\Pain Drain\libraries\lvgl\src\draw\sw/lv_draw_sw_transform.c ****         int32_t ys_fract = ys_ups & 0xFF;
 661              		.loc 1 319 0
 662 00c6 FF24     		movs	r4, #255
 663 00c8 2740     		ands	r7, r4
 664              	.LVL91:
 320:..\..\..\arduinoLCD\test\Pain Drain\libraries\lvgl\src\draw\sw/lv_draw_sw_transform.c **** 
 665              		.loc 1 320 0
 666 00ca 2640     		ands	r6, r4
 667              	.LVL92:
 324:..\..\..\arduinoLCD\test\Pain Drain\libraries\lvgl\src\draw\sw/lv_draw_sw_transform.c ****             x_next = -1;
 668              		.loc 1 324 0
 669 00cc 7F2F     		cmp	r7, #127
 670 00ce 07DC     		bgt	.L29
 671              	.LVL93:
ARM GAS  C:\Users\haske\AppData\Local\Temp\ccOknJt1.s 			page 22


 326:..\..\..\arduinoLCD\test\Pain Drain\libraries\lvgl\src\draw\sw/lv_draw_sw_transform.c ****         }
 672              		.loc 1 326 0
 673 00d0 803C     		subs	r4, r4, #128
 674 00d2 E71B     		subs	r7, r4, r7
 675              	.LVL94:
 676 00d4 7C00     		lsls	r4, r7, #1
 677 00d6 0994     		str	r4, [sp, #36]
 678              	.LVL95:
 325:..\..\..\arduinoLCD\test\Pain Drain\libraries\lvgl\src\draw\sw/lv_draw_sw_transform.c ****             xs_fract = (0x7F - xs_fract) * 2;
 679              		.loc 1 325 0
 680 00d8 0124     		movs	r4, #1
 681              	.LVL96:
 682 00da 6442     		rsbs	r4, r4, #0
 683 00dc 0194     		str	r4, [sp, #4]
 684 00de 04E0     		b	.L30
 685              	.LVL97:
 686              	.L29:
 330:..\..\..\arduinoLCD\test\Pain Drain\libraries\lvgl\src\draw\sw/lv_draw_sw_transform.c ****         }
 687              		.loc 1 330 0
 688 00e0 803F     		subs	r7, r7, #128
 689              	.LVL98:
 690 00e2 7C00     		lsls	r4, r7, #1
 691 00e4 0994     		str	r4, [sp, #36]
 692              	.LVL99:
 329:..\..\..\arduinoLCD\test\Pain Drain\libraries\lvgl\src\draw\sw/lv_draw_sw_transform.c ****             xs_fract = (xs_fract - 0x80) * 2;
 693              		.loc 1 329 0
 694 00e6 0124     		movs	r4, #1
 695              	.LVL100:
 696 00e8 0194     		str	r4, [sp, #4]
 697              	.LVL101:
 698              	.L30:
 332:..\..\..\arduinoLCD\test\Pain Drain\libraries\lvgl\src\draw\sw/lv_draw_sw_transform.c ****             y_next = -1;
 699              		.loc 1 332 0
 700 00ea 7F2E     		cmp	r6, #127
 701 00ec 07DC     		bgt	.L31
 702              	.LVL102:
 334:..\..\..\arduinoLCD\test\Pain Drain\libraries\lvgl\src\draw\sw/lv_draw_sw_transform.c ****         }
 703              		.loc 1 334 0
 704 00ee 7F27     		movs	r7, #127
 705 00f0 BE1B     		subs	r6, r7, r6
 706              	.LVL103:
 707 00f2 7400     		lsls	r4, r6, #1
 708 00f4 0B94     		str	r4, [sp, #44]
 709              	.LVL104:
 333:..\..\..\arduinoLCD\test\Pain Drain\libraries\lvgl\src\draw\sw/lv_draw_sw_transform.c ****             ys_fract = (0x7F - ys_fract) * 2;
 710              		.loc 1 333 0
 711 00f6 0124     		movs	r4, #1
 712              	.LVL105:
 713 00f8 6442     		rsbs	r4, r4, #0
 714 00fa 0594     		str	r4, [sp, #20]
 715 00fc 04E0     		b	.L32
 716              	.LVL106:
 717              	.L31:
 338:..\..\..\arduinoLCD\test\Pain Drain\libraries\lvgl\src\draw\sw/lv_draw_sw_transform.c ****         }
 718              		.loc 1 338 0
 719 00fe 803E     		subs	r6, r6, #128
 720              	.LVL107:
ARM GAS  C:\Users\haske\AppData\Local\Temp\ccOknJt1.s 			page 23


 721 0100 7400     		lsls	r4, r6, #1
 722 0102 0B94     		str	r4, [sp, #44]
 723              	.LVL108:
 337:..\..\..\arduinoLCD\test\Pain Drain\libraries\lvgl\src\draw\sw/lv_draw_sw_transform.c ****             ys_fract = (ys_fract - 0x80) * 2;
 724              		.loc 1 337 0
 725 0104 0124     		movs	r4, #1
 726              	.LVL109:
 727 0106 0594     		str	r4, [sp, #20]
 728              	.LVL110:
 729              	.L32:
 342:..\..\..\arduinoLCD\test\Pain Drain\libraries\lvgl\src\draw\sw/lv_draw_sw_transform.c **** 
 730              		.loc 1 342 0
 731 0108 039E     		ldr	r6, [sp, #12]
 732 010a 5643     		muls	r6, r2
 733 010c 0C96     		str	r6, [sp, #48]
 734 010e 9E19     		adds	r6, r3, r6
 735 0110 079C     		ldr	r4, [sp, #28]
 736 0112 6643     		muls	r6, r4
 737 0114 049F     		ldr	r7, [sp, #16]
 738 0116 B846     		mov	r8, r7
 739              	.LVL111:
 740 0118 4644     		add	r6, r6, r8
 741 011a 0296     		str	r6, [sp, #8]
 742              	.LVL112:
 345:..\..\..\arduinoLCD\test\Pain Drain\libraries\lvgl\src\draw\sw/lv_draw_sw_transform.c ****            xs_int + x_next <= src_w - 1 &&
 743              		.loc 1 345 0
 744 011c 019F     		ldr	r7, [sp, #4]
 745 011e FE18     		adds	r6, r7, r3
 746 0120 00D5     		bpl	.LCB868
 747 0122 EFE0     		b	.L33	@long jump
 748              	.LCB868:
 749              	.LVL113:
 346:..\..\..\arduinoLCD\test\Pain Drain\libraries\lvgl\src\draw\sw/lv_draw_sw_transform.c ****            ys_int + y_next >= 0 &&
 750              		.loc 1 346 0 discriminator 1
 751 0124 0127     		movs	r7, #1
 752 0126 7F42     		rsbs	r7, r7, #0
 753 0128 6744     		add	r7, r7, ip
 345:..\..\..\arduinoLCD\test\Pain Drain\libraries\lvgl\src\draw\sw/lv_draw_sw_transform.c ****            xs_int + x_next <= src_w - 1 &&
 754              		.loc 1 345 0 discriminator 1
 755 012a BE42     		cmp	r6, r7
 756 012c 00DD     		ble	.LCB874
 757 012e E9E0     		b	.L33	@long jump
 758              	.LCB874:
 346:..\..\..\arduinoLCD\test\Pain Drain\libraries\lvgl\src\draw\sw/lv_draw_sw_transform.c ****            ys_int + y_next >= 0 &&
 759              		.loc 1 346 0
 760 0130 059E     		ldr	r6, [sp, #20]
 761 0132 B618     		adds	r6, r6, r2
 762 0134 0696     		str	r6, [sp, #24]
 763 0136 00D5     		bpl	.LCB880
 764 0138 E4E0     		b	.L33	@long jump
 765              	.LCB880:
 348:..\..\..\arduinoLCD\test\Pain Drain\libraries\lvgl\src\draw\sw/lv_draw_sw_transform.c **** 
 766              		.loc 1 348 0
 767 013a 009F     		ldr	r7, [sp]
 768 013c 013F     		subs	r7, r7, #1
 347:..\..\..\arduinoLCD\test\Pain Drain\libraries\lvgl\src\draw\sw/lv_draw_sw_transform.c ****            ys_int + y_next <= src_h - 1) {
 769              		.loc 1 347 0
ARM GAS  C:\Users\haske\AppData\Local\Temp\ccOknJt1.s 			page 24


 770 013e 069E     		ldr	r6, [sp, #24]
 771 0140 BE42     		cmp	r6, r7
 772 0142 00DD     		ble	.LCB885
 773 0144 DEE0     		b	.L33	@long jump
 774              	.LCB885:
 775              	.LVL114:
 776              	.LBB25:
 351:..\..\..\arduinoLCD\test\Pain Drain\libraries\lvgl\src\draw\sw/lv_draw_sw_transform.c ****             const uint8_t * px_ver = src_tmp + y_next * src_stride * px_size;
 777              		.loc 1 351 0
 778 0146 019A     		ldr	r2, [sp, #4]
 779              	.LVL115:
 780 0148 6243     		muls	r2, r4
 781 014a 029E     		ldr	r6, [sp, #8]
 782 014c B046     		mov	r8, r6
 783 014e 4244     		add	r2, r2, r8
 784 0150 0892     		str	r2, [sp, #32]
 785              	.LVL116:
 352:..\..\..\arduinoLCD\test\Pain Drain\libraries\lvgl\src\draw\sw/lv_draw_sw_transform.c ****             lv_color_t c_base;
 786              		.loc 1 352 0
 787 0152 059A     		ldr	r2, [sp, #20]
 788              	.LVL117:
 789 0154 039F     		ldr	r7, [sp, #12]
 790 0156 7A43     		muls	r2, r7
 791 0158 6243     		muls	r2, r4
 792 015a 4244     		add	r2, r2, r8
 793 015c 0592     		str	r2, [sp, #20]
 794              	.LVL118:
 357:..\..\..\arduinoLCD\test\Pain Drain\libraries\lvgl\src\draw\sw/lv_draw_sw_transform.c ****                 lv_opa_t a_base;
 795              		.loc 1 357 0
 796 015e 0D9A     		ldr	r2, [sp, #52]
 797              	.LVL119:
 798 0160 002A     		cmp	r2, #0
 799 0162 72D0     		beq	.L34
 800              	.LBB26:
 361:..\..\..\arduinoLCD\test\Pain Drain\libraries\lvgl\src\draw\sw/lv_draw_sw_transform.c ****                     a_base = px_base[LV_IMG_PX_SIZE_ALPHA_BYTE - 1];
 801              		.loc 1 361 0
 802 0164 5246     		mov	r2, r10
 803 0166 052A     		cmp	r2, #5
 804 0168 06D1     		bne	.L35
 362:..\..\..\arduinoLCD\test\Pain Drain\libraries\lvgl\src\draw\sw/lv_draw_sw_transform.c ****                     a_ver = px_ver[LV_IMG_PX_SIZE_ALPHA_BYTE - 1];
 805              		.loc 1 362 0
 806 016a B378     		ldrb	r3, [r6, #2]
 807              	.LVL120:
 808 016c 0C93     		str	r3, [sp, #48]
 809              	.LVL121:
 363:..\..\..\arduinoLCD\test\Pain Drain\libraries\lvgl\src\draw\sw/lv_draw_sw_transform.c ****                     a_hor = px_hor[LV_IMG_PX_SIZE_ALPHA_BYTE - 1];
 810              		.loc 1 363 0
 811 016e 059B     		ldr	r3, [sp, #20]
 812 0170 9A78     		ldrb	r2, [r3, #2]
 813              	.LVL122:
 364:..\..\..\arduinoLCD\test\Pain Drain\libraries\lvgl\src\draw\sw/lv_draw_sw_transform.c ****                 }
 814              		.loc 1 364 0
 815 0172 089B     		ldr	r3, [sp, #32]
 816 0174 9F78     		ldrb	r7, [r3, #2]
 817              	.LVL123:
 818 0176 36E0     		b	.L36
 819              	.LVL124:
ARM GAS  C:\Users\haske\AppData\Local\Temp\ccOknJt1.s 			page 25


 820              	.L35:
 367:..\..\..\arduinoLCD\test\Pain Drain\libraries\lvgl\src\draw\sw/lv_draw_sw_transform.c ****                     const lv_opa_t * a_tmp = src + src_stride * src_h * sizeof(lv_color_t);
 821              		.loc 1 367 0
 822 0178 5246     		mov	r2, r10
 823 017a 142A     		cmp	r2, #20
 824 017c 15D1     		bne	.L37
 825              	.LBB27:
 368:..\..\..\arduinoLCD\test\Pain Drain\libraries\lvgl\src\draw\sw/lv_draw_sw_transform.c ****                     a_base = *(a_tmp + (ys_int * src_stride) + xs_int);
 826              		.loc 1 368 0
 827 017e 039A     		ldr	r2, [sp, #12]
 828 0180 009C     		ldr	r4, [sp]
 829 0182 6243     		muls	r2, r4
 830 0184 5200     		lsls	r2, r2, #1
 831 0186 049C     		ldr	r4, [sp, #16]
 832 0188 A046     		mov	r8, r4
 833 018a 4244     		add	r2, r2, r8
 834 018c 1600     		movs	r6, r2
 835              	.LVL125:
 369:..\..\..\arduinoLCD\test\Pain Drain\libraries\lvgl\src\draw\sw/lv_draw_sw_transform.c ****                     a_hor = *(a_tmp + (ys_int * src_stride) + xs_int + x_next);
 836              		.loc 1 369 0
 837 018e 0C9C     		ldr	r4, [sp, #48]
 838 0190 E218     		adds	r2, r4, r3
 839              	.LVL126:
 840 0192 B45C     		ldrb	r4, [r6, r2]
 841 0194 0C94     		str	r4, [sp, #48]
 842              	.LVL127:
 370:..\..\..\arduinoLCD\test\Pain Drain\libraries\lvgl\src\draw\sw/lv_draw_sw_transform.c ****                     a_ver = *(a_tmp + ((ys_int + y_next) * src_stride) + xs_int);
 843              		.loc 1 370 0
 844 0196 019C     		ldr	r4, [sp, #4]
 845 0198 A046     		mov	r8, r4
 846 019a 4244     		add	r2, r2, r8
 847 019c B75C     		ldrb	r7, [r6, r2]
 848              	.LVL128:
 371:..\..\..\arduinoLCD\test\Pain Drain\libraries\lvgl\src\draw\sw/lv_draw_sw_transform.c ****                 }
 849              		.loc 1 371 0
 850 019e 069C     		ldr	r4, [sp, #24]
 851 01a0 039A     		ldr	r2, [sp, #12]
 852 01a2 5443     		muls	r4, r2
 853 01a4 E318     		adds	r3, r4, r3
 854              	.LVL129:
 855 01a6 F25C     		ldrb	r2, [r6, r3]
 856              	.LVL130:
 857              	.LBE27:
 858 01a8 1DE0     		b	.L36
 859              	.LVL131:
 860              	.L37:
 374:..\..\..\arduinoLCD\test\Pain Drain\libraries\lvgl\src\draw\sw/lv_draw_sw_transform.c ****                     if(((lv_color_t *)px_base)->full == ck.full ||
 861              		.loc 1 374 0
 862 01aa 062A     		cmp	r2, #6
 863 01ac 12D1     		bne	.L58
 375:..\..\..\arduinoLCD\test\Pain Drain\libraries\lvgl\src\draw\sw/lv_draw_sw_transform.c ****                        ((lv_color_t *)px_ver)->full == ck.full ||
 864              		.loc 1 375 0
 865 01ae 029B     		ldr	r3, [sp, #8]
 866              	.LVL132:
 867 01b0 1B88     		ldrh	r3, [r3]
 868 01b2 6A46     		mov	r2, sp
 869 01b4 528D     		ldrh	r2, [r2, #42]
ARM GAS  C:\Users\haske\AppData\Local\Temp\ccOknJt1.s 			page 26


 870 01b6 9342     		cmp	r3, r2
 871 01b8 07D0     		beq	.L38
 376:..\..\..\arduinoLCD\test\Pain Drain\libraries\lvgl\src\draw\sw/lv_draw_sw_transform.c ****                        ((lv_color_t *)px_hor)->full == ck.full) {
 872              		.loc 1 376 0 discriminator 1
 873 01ba 059B     		ldr	r3, [sp, #20]
 874 01bc 1B88     		ldrh	r3, [r3]
 375:..\..\..\arduinoLCD\test\Pain Drain\libraries\lvgl\src\draw\sw/lv_draw_sw_transform.c ****                        ((lv_color_t *)px_ver)->full == ck.full ||
 875              		.loc 1 375 0 discriminator 1
 876 01be 9A42     		cmp	r2, r3
 877 01c0 03D0     		beq	.L38
 377:..\..\..\arduinoLCD\test\Pain Drain\libraries\lvgl\src\draw\sw/lv_draw_sw_transform.c ****                         abuf[x] = 0x00;
 878              		.loc 1 377 0
 879 01c2 089B     		ldr	r3, [sp, #32]
 880 01c4 1B88     		ldrh	r3, [r3]
 376:..\..\..\arduinoLCD\test\Pain Drain\libraries\lvgl\src\draw\sw/lv_draw_sw_transform.c ****                        ((lv_color_t *)px_hor)->full == ck.full) {
 881              		.loc 1 376 0
 882 01c6 9A42     		cmp	r2, r3
 883 01c8 09D1     		bne	.L59
 884              	.L38:
 378:..\..\..\arduinoLCD\test\Pain Drain\libraries\lvgl\src\draw\sw/lv_draw_sw_transform.c ****                         continue;
 885              		.loc 1 378 0
 886 01ca 1E9B     		ldr	r3, [sp, #120]
 887 01cc 5B18     		adds	r3, r3, r1
 888 01ce 0022     		movs	r2, #0
 889 01d0 1A70     		strb	r2, [r3]
 379:..\..\..\arduinoLCD\test\Pain Drain\libraries\lvgl\src\draw\sw/lv_draw_sw_transform.c ****                     }
 890              		.loc 1 379 0
 891 01d2 F5E0     		b	.L28
 892              	.LVL133:
 893              	.L58:
 390:..\..\..\arduinoLCD\test\Pain Drain\libraries\lvgl\src\draw\sw/lv_draw_sw_transform.c ****                 }
 894              		.loc 1 390 0
 895 01d4 FF27     		movs	r7, #255
 389:..\..\..\arduinoLCD\test\Pain Drain\libraries\lvgl\src\draw\sw/lv_draw_sw_transform.c ****                     a_hor = 0xff;
 896              		.loc 1 389 0
 897 01d6 FF22     		movs	r2, #255
 388:..\..\..\arduinoLCD\test\Pain Drain\libraries\lvgl\src\draw\sw/lv_draw_sw_transform.c ****                     a_ver = 0xff;
 898              		.loc 1 388 0
 899 01d8 FF23     		movs	r3, #255
 900              	.LVL134:
 901 01da 0C93     		str	r3, [sp, #48]
 902 01dc 03E0     		b	.L36
 903              	.L59:
 384:..\..\..\arduinoLCD\test\Pain Drain\libraries\lvgl\src\draw\sw/lv_draw_sw_transform.c ****                     }
 904              		.loc 1 384 0
 905 01de FF27     		movs	r7, #255
 383:..\..\..\arduinoLCD\test\Pain Drain\libraries\lvgl\src\draw\sw/lv_draw_sw_transform.c ****                         a_hor = 0xff;
 906              		.loc 1 383 0
 907 01e0 FF22     		movs	r2, #255
 382:..\..\..\arduinoLCD\test\Pain Drain\libraries\lvgl\src\draw\sw/lv_draw_sw_transform.c ****                         a_ver = 0xff;
 908              		.loc 1 382 0
 909 01e2 FF23     		movs	r3, #255
 910 01e4 0C93     		str	r3, [sp, #48]
 911              	.LVL135:
 912              	.L36:
 393:..\..\..\arduinoLCD\test\Pain Drain\libraries\lvgl\src\draw\sw/lv_draw_sw_transform.c ****                 if(a_hor != a_base) a_hor = ((a_hor * xs_fract) + (a_base * (0x100 - xs_fract))) >>
 913              		.loc 1 393 0
ARM GAS  C:\Users\haske\AppData\Local\Temp\ccOknJt1.s 			page 27


 914 01e6 0C9C     		ldr	r4, [sp, #48]
 915 01e8 9442     		cmp	r4, r2
 916 01ea 08D0     		beq	.L40
 393:..\..\..\arduinoLCD\test\Pain Drain\libraries\lvgl\src\draw\sw/lv_draw_sw_transform.c ****                 if(a_hor != a_base) a_hor = ((a_hor * xs_fract) + (a_base * (0x100 - xs_fract))) >>
 917              		.loc 1 393 0 is_stmt 0 discriminator 1
 918 01ec 0B9E     		ldr	r6, [sp, #44]
 919 01ee 7243     		muls	r2, r6
 920              	.LVL136:
 921 01f0 8023     		movs	r3, #128
 922 01f2 5B00     		lsls	r3, r3, #1
 923 01f4 9B1B     		subs	r3, r3, r6
 924 01f6 6343     		muls	r3, r4
 925 01f8 D218     		adds	r2, r2, r3
 926 01fa 1212     		asrs	r2, r2, #8
 927 01fc D2B2     		uxtb	r2, r2
 928              	.LVL137:
 929              	.L40:
 394:..\..\..\arduinoLCD\test\Pain Drain\libraries\lvgl\src\draw\sw/lv_draw_sw_transform.c ****                 abuf[x] = (a_ver + a_hor) >> 1;
 930              		.loc 1 394 0 is_stmt 1
 931 01fe 0C9C     		ldr	r4, [sp, #48]
 932 0200 BC42     		cmp	r4, r7
 933 0202 08D0     		beq	.L41
 394:..\..\..\arduinoLCD\test\Pain Drain\libraries\lvgl\src\draw\sw/lv_draw_sw_transform.c ****                 abuf[x] = (a_ver + a_hor) >> 1;
 934              		.loc 1 394 0 is_stmt 0 discriminator 1
 935 0204 099E     		ldr	r6, [sp, #36]
 936 0206 7743     		muls	r7, r6
 937              	.LVL138:
 938 0208 8023     		movs	r3, #128
 939 020a 5B00     		lsls	r3, r3, #1
 940 020c 9B1B     		subs	r3, r3, r6
 941 020e 6343     		muls	r3, r4
 942 0210 FF18     		adds	r7, r7, r3
 943 0212 3F12     		asrs	r7, r7, #8
 944 0214 FFB2     		uxtb	r7, r7
 945              	.LVL139:
 946              	.L41:
 395:..\..\..\arduinoLCD\test\Pain Drain\libraries\lvgl\src\draw\sw/lv_draw_sw_transform.c **** 
 947              		.loc 1 395 0 is_stmt 1
 948 0216 D719     		adds	r7, r2, r7
 949              	.LVL140:
 950 0218 7F10     		asrs	r7, r7, #1
 951 021a FBB2     		uxtb	r3, r7
 952 021c 1E9A     		ldr	r2, [sp, #120]
 953              	.LVL141:
 954 021e 5354     		strb	r3, [r2, r1]
 397:..\..\..\arduinoLCD\test\Pain Drain\libraries\lvgl\src\draw\sw/lv_draw_sw_transform.c **** 
 955              		.loc 1 397 0
 956 0220 002B     		cmp	r3, #0
 957 0222 00D1     		bne	.LCB1078
 958 0224 CCE0     		b	.L28	@long jump
 959              	.LCB1078:
 404:..\..\..\arduinoLCD\test\Pain Drain\libraries\lvgl\src\draw\sw/lv_draw_sw_transform.c ****                 c_ver.full = px_ver[0] + (px_ver[1] << 8);
 960              		.loc 1 404 0
 961 0226 029A     		ldr	r2, [sp, #8]
 962 0228 1378     		ldrb	r3, [r2]
 963 022a 5278     		ldrb	r2, [r2, #1]
 964 022c 1202     		lsls	r2, r2, #8
ARM GAS  C:\Users\haske\AppData\Local\Temp\ccOknJt1.s 			page 28


 965 022e D318     		adds	r3, r2, r3
 966 0230 0193     		str	r3, [sp, #4]
 967              	.LVL142:
 405:..\..\..\arduinoLCD\test\Pain Drain\libraries\lvgl\src\draw\sw/lv_draw_sw_transform.c ****                 c_hor.full = px_hor[0] + (px_hor[1] << 8);
 968              		.loc 1 405 0
 969 0232 059B     		ldr	r3, [sp, #20]
 970 0234 1A78     		ldrb	r2, [r3]
 971 0236 5B78     		ldrb	r3, [r3, #1]
 972 0238 1B02     		lsls	r3, r3, #8
 973 023a 9B18     		adds	r3, r3, r2
 974              	.LVL143:
 406:..\..\..\arduinoLCD\test\Pain Drain\libraries\lvgl\src\draw\sw/lv_draw_sw_transform.c **** #elif LV_COLOR_DEPTH == 32
 975              		.loc 1 406 0
 976 023c 089A     		ldr	r2, [sp, #32]
 977 023e 1678     		ldrb	r6, [r2]
 978 0240 5278     		ldrb	r2, [r2, #1]
 979 0242 1202     		lsls	r2, r2, #8
 980 0244 9219     		adds	r2, r2, r6
 981 0246 0292     		str	r2, [sp, #8]
 982              	.LVL144:
 983              	.LBE26:
 984 0248 0BE0     		b	.L42
 985              	.LVL145:
 986              	.L34:
 415:..\..\..\arduinoLCD\test\Pain Drain\libraries\lvgl\src\draw\sw/lv_draw_sw_transform.c ****                 c_hor = *((const lv_color_t *) px_hor);
 987              		.loc 1 415 0
 988 024a 029B     		ldr	r3, [sp, #8]
 989              	.LVL146:
 990 024c 1B88     		ldrh	r3, [r3]
 991 024e 6A46     		mov	r2, sp
 992              	.LVL147:
 993 0250 9380     		strh	r3, [r2, #4]
 994              	.LVL148:
 416:..\..\..\arduinoLCD\test\Pain Drain\libraries\lvgl\src\draw\sw/lv_draw_sw_transform.c ****                 c_ver = *((const lv_color_t *) px_ver);
 995              		.loc 1 416 0
 996 0252 089B     		ldr	r3, [sp, #32]
 997              	.LVL149:
 998 0254 1B88     		ldrh	r3, [r3]
 999              	.LVL150:
 1000 0256 1381     		strh	r3, [r2, #8]
 417:..\..\..\arduinoLCD\test\Pain Drain\libraries\lvgl\src\draw\sw/lv_draw_sw_transform.c ****                 abuf[x] = 0xff;
 1001              		.loc 1 417 0
 1002 0258 059B     		ldr	r3, [sp, #20]
 1003              	.LVL151:
 1004 025a 1B88     		ldrh	r3, [r3]
 418:..\..\..\arduinoLCD\test\Pain Drain\libraries\lvgl\src\draw\sw/lv_draw_sw_transform.c ****             }
 1005              		.loc 1 418 0
 1006 025c FF22     		movs	r2, #255
 1007 025e 1E9C     		ldr	r4, [sp, #120]
 1008 0260 6254     		strb	r2, [r4, r1]
 1009              	.LVL152:
 1010              	.L42:
 421:..\..\..\arduinoLCD\test\Pain Drain\libraries\lvgl\src\draw\sw/lv_draw_sw_transform.c ****                 cbuf[x] = c_base;
 1011              		.loc 1 421 0
 1012 0262 6A46     		mov	r2, sp
 1013 0264 9288     		ldrh	r2, [r2, #4]
 1014              	.LVL153:
ARM GAS  C:\Users\haske\AppData\Local\Temp\ccOknJt1.s 			page 29


 1015 0266 9EB2     		uxth	r6, r3
 1016 0268 B242     		cmp	r2, r6
 1017 026a 08D1     		bne	.L43
 421:..\..\..\arduinoLCD\test\Pain Drain\libraries\lvgl\src\draw\sw/lv_draw_sw_transform.c ****                 cbuf[x] = c_base;
 1018              		.loc 1 421 0 is_stmt 0 discriminator 1
 1019 026c 6C46     		mov	r4, sp
 1020 026e 2689     		ldrh	r6, [r4, #8]
 1021 0270 B242     		cmp	r2, r6
 1022 0272 04D1     		bne	.L43
 422:..\..\..\arduinoLCD\test\Pain Drain\libraries\lvgl\src\draw\sw/lv_draw_sw_transform.c ****             }
 1023              		.loc 1 422 0 is_stmt 1
 1024 0274 4B00     		lsls	r3, r1, #1
 1025              	.LVL154:
 1026 0276 1D9A     		ldr	r2, [sp, #116]
 1027 0278 A488     		ldrh	r4, [r4, #4]
 1028              	.LVL155:
 1029 027a D452     		strh	r4, [r2, r3]
 1030 027c A0E0     		b	.L28
 1031              	.LVL156:
 1032              	.L43:
 1033              	.LBB28:
 1034              	.LBB29:
 1035              		.file 2 "c:\\projects\\paindrain\\arduinolcd\\test\\pain drain\\libraries\\lvgl\\src\\misc\\lv_col
   1:c:\projects\paindrain\arduinolcd\test\pain drain\libraries\lvgl\src\misc\lv_color.h **** /**
   2:c:\projects\paindrain\arduinolcd\test\pain drain\libraries\lvgl\src\misc\lv_color.h ****  * @file lv_color.h
   3:c:\projects\paindrain\arduinolcd\test\pain drain\libraries\lvgl\src\misc\lv_color.h ****  *
   4:c:\projects\paindrain\arduinolcd\test\pain drain\libraries\lvgl\src\misc\lv_color.h ****  */
   5:c:\projects\paindrain\arduinolcd\test\pain drain\libraries\lvgl\src\misc\lv_color.h **** 
   6:c:\projects\paindrain\arduinolcd\test\pain drain\libraries\lvgl\src\misc\lv_color.h **** #ifndef LV_COLOR_H
   7:c:\projects\paindrain\arduinolcd\test\pain drain\libraries\lvgl\src\misc\lv_color.h **** #define LV_COLOR_H
   8:c:\projects\paindrain\arduinolcd\test\pain drain\libraries\lvgl\src\misc\lv_color.h **** 
   9:c:\projects\paindrain\arduinolcd\test\pain drain\libraries\lvgl\src\misc\lv_color.h **** #ifdef __cplusplus
  10:c:\projects\paindrain\arduinolcd\test\pain drain\libraries\lvgl\src\misc\lv_color.h **** extern "C" {
  11:c:\projects\paindrain\arduinolcd\test\pain drain\libraries\lvgl\src\misc\lv_color.h **** #endif
  12:c:\projects\paindrain\arduinolcd\test\pain drain\libraries\lvgl\src\misc\lv_color.h **** 
  13:c:\projects\paindrain\arduinolcd\test\pain drain\libraries\lvgl\src\misc\lv_color.h **** /*********************
  14:c:\projects\paindrain\arduinolcd\test\pain drain\libraries\lvgl\src\misc\lv_color.h ****  *      INCLUDES
  15:c:\projects\paindrain\arduinolcd\test\pain drain\libraries\lvgl\src\misc\lv_color.h ****  *********************/
  16:c:\projects\paindrain\arduinolcd\test\pain drain\libraries\lvgl\src\misc\lv_color.h **** #include "../lv_conf_internal.h"
  17:c:\projects\paindrain\arduinolcd\test\pain drain\libraries\lvgl\src\misc\lv_color.h **** #include "lv_assert.h"
  18:c:\projects\paindrain\arduinolcd\test\pain drain\libraries\lvgl\src\misc\lv_color.h **** #include "lv_math.h"
  19:c:\projects\paindrain\arduinolcd\test\pain drain\libraries\lvgl\src\misc\lv_color.h **** #include "lv_types.h"
  20:c:\projects\paindrain\arduinolcd\test\pain drain\libraries\lvgl\src\misc\lv_color.h **** 
  21:c:\projects\paindrain\arduinolcd\test\pain drain\libraries\lvgl\src\misc\lv_color.h **** /*Error checking*/
  22:c:\projects\paindrain\arduinolcd\test\pain drain\libraries\lvgl\src\misc\lv_color.h **** #if LV_COLOR_DEPTH == 24
  23:c:\projects\paindrain\arduinolcd\test\pain drain\libraries\lvgl\src\misc\lv_color.h **** #error "LV_COLOR_DEPTH 24 is deprecated. Use LV_COLOR_DEPTH 32 instead (lv_conf.h)"
  24:c:\projects\paindrain\arduinolcd\test\pain drain\libraries\lvgl\src\misc\lv_color.h **** #endif
  25:c:\projects\paindrain\arduinolcd\test\pain drain\libraries\lvgl\src\misc\lv_color.h **** 
  26:c:\projects\paindrain\arduinolcd\test\pain drain\libraries\lvgl\src\misc\lv_color.h **** #if LV_COLOR_DEPTH != 16 && LV_COLOR_16_SWAP != 0
  27:c:\projects\paindrain\arduinolcd\test\pain drain\libraries\lvgl\src\misc\lv_color.h **** #error "LV_COLOR_16_SWAP requires LV_COLOR_DEPTH == 16. Set it in lv_conf.h"
  28:c:\projects\paindrain\arduinolcd\test\pain drain\libraries\lvgl\src\misc\lv_color.h **** #endif
  29:c:\projects\paindrain\arduinolcd\test\pain drain\libraries\lvgl\src\misc\lv_color.h **** 
  30:c:\projects\paindrain\arduinolcd\test\pain drain\libraries\lvgl\src\misc\lv_color.h **** #include <stdint.h>
  31:c:\projects\paindrain\arduinolcd\test\pain drain\libraries\lvgl\src\misc\lv_color.h **** 
  32:c:\projects\paindrain\arduinolcd\test\pain drain\libraries\lvgl\src\misc\lv_color.h **** /*********************
  33:c:\projects\paindrain\arduinolcd\test\pain drain\libraries\lvgl\src\misc\lv_color.h ****  *      DEFINES
  34:c:\projects\paindrain\arduinolcd\test\pain drain\libraries\lvgl\src\misc\lv_color.h ****  *********************/
ARM GAS  C:\Users\haske\AppData\Local\Temp\ccOknJt1.s 			page 30


  35:c:\projects\paindrain\arduinolcd\test\pain drain\libraries\lvgl\src\misc\lv_color.h **** LV_EXPORT_CONST_INT(LV_COLOR_DEPTH);
  36:c:\projects\paindrain\arduinolcd\test\pain drain\libraries\lvgl\src\misc\lv_color.h **** LV_EXPORT_CONST_INT(LV_COLOR_16_SWAP);
  37:c:\projects\paindrain\arduinolcd\test\pain drain\libraries\lvgl\src\misc\lv_color.h **** 
  38:c:\projects\paindrain\arduinolcd\test\pain drain\libraries\lvgl\src\misc\lv_color.h **** /**
  39:c:\projects\paindrain\arduinolcd\test\pain drain\libraries\lvgl\src\misc\lv_color.h ****  * Opacity percentages.
  40:c:\projects\paindrain\arduinolcd\test\pain drain\libraries\lvgl\src\misc\lv_color.h ****  */
  41:c:\projects\paindrain\arduinolcd\test\pain drain\libraries\lvgl\src\misc\lv_color.h **** enum {
  42:c:\projects\paindrain\arduinolcd\test\pain drain\libraries\lvgl\src\misc\lv_color.h ****     LV_OPA_TRANSP = 0,
  43:c:\projects\paindrain\arduinolcd\test\pain drain\libraries\lvgl\src\misc\lv_color.h ****     LV_OPA_0      = 0,
  44:c:\projects\paindrain\arduinolcd\test\pain drain\libraries\lvgl\src\misc\lv_color.h ****     LV_OPA_10     = 25,
  45:c:\projects\paindrain\arduinolcd\test\pain drain\libraries\lvgl\src\misc\lv_color.h ****     LV_OPA_20     = 51,
  46:c:\projects\paindrain\arduinolcd\test\pain drain\libraries\lvgl\src\misc\lv_color.h ****     LV_OPA_30     = 76,
  47:c:\projects\paindrain\arduinolcd\test\pain drain\libraries\lvgl\src\misc\lv_color.h ****     LV_OPA_40     = 102,
  48:c:\projects\paindrain\arduinolcd\test\pain drain\libraries\lvgl\src\misc\lv_color.h ****     LV_OPA_50     = 127,
  49:c:\projects\paindrain\arduinolcd\test\pain drain\libraries\lvgl\src\misc\lv_color.h ****     LV_OPA_60     = 153,
  50:c:\projects\paindrain\arduinolcd\test\pain drain\libraries\lvgl\src\misc\lv_color.h ****     LV_OPA_70     = 178,
  51:c:\projects\paindrain\arduinolcd\test\pain drain\libraries\lvgl\src\misc\lv_color.h ****     LV_OPA_80     = 204,
  52:c:\projects\paindrain\arduinolcd\test\pain drain\libraries\lvgl\src\misc\lv_color.h ****     LV_OPA_90     = 229,
  53:c:\projects\paindrain\arduinolcd\test\pain drain\libraries\lvgl\src\misc\lv_color.h ****     LV_OPA_100    = 255,
  54:c:\projects\paindrain\arduinolcd\test\pain drain\libraries\lvgl\src\misc\lv_color.h ****     LV_OPA_COVER  = 255,
  55:c:\projects\paindrain\arduinolcd\test\pain drain\libraries\lvgl\src\misc\lv_color.h **** };
  56:c:\projects\paindrain\arduinolcd\test\pain drain\libraries\lvgl\src\misc\lv_color.h **** 
  57:c:\projects\paindrain\arduinolcd\test\pain drain\libraries\lvgl\src\misc\lv_color.h **** #define LV_OPA_MIN 2    /*Opacities below this will be transparent*/
  58:c:\projects\paindrain\arduinolcd\test\pain drain\libraries\lvgl\src\misc\lv_color.h **** #define LV_OPA_MAX 253  /*Opacities above this will fully cover*/
  59:c:\projects\paindrain\arduinolcd\test\pain drain\libraries\lvgl\src\misc\lv_color.h **** 
  60:c:\projects\paindrain\arduinolcd\test\pain drain\libraries\lvgl\src\misc\lv_color.h **** #if LV_COLOR_DEPTH == 1
  61:c:\projects\paindrain\arduinolcd\test\pain drain\libraries\lvgl\src\misc\lv_color.h **** #define LV_COLOR_SIZE 8
  62:c:\projects\paindrain\arduinolcd\test\pain drain\libraries\lvgl\src\misc\lv_color.h **** #elif LV_COLOR_DEPTH == 8
  63:c:\projects\paindrain\arduinolcd\test\pain drain\libraries\lvgl\src\misc\lv_color.h **** #define LV_COLOR_SIZE 8
  64:c:\projects\paindrain\arduinolcd\test\pain drain\libraries\lvgl\src\misc\lv_color.h **** #elif LV_COLOR_DEPTH == 16
  65:c:\projects\paindrain\arduinolcd\test\pain drain\libraries\lvgl\src\misc\lv_color.h **** #define LV_COLOR_SIZE 16
  66:c:\projects\paindrain\arduinolcd\test\pain drain\libraries\lvgl\src\misc\lv_color.h **** #elif LV_COLOR_DEPTH == 32
  67:c:\projects\paindrain\arduinolcd\test\pain drain\libraries\lvgl\src\misc\lv_color.h **** #define LV_COLOR_SIZE 32
  68:c:\projects\paindrain\arduinolcd\test\pain drain\libraries\lvgl\src\misc\lv_color.h **** #else
  69:c:\projects\paindrain\arduinolcd\test\pain drain\libraries\lvgl\src\misc\lv_color.h **** #error "Invalid LV_COLOR_DEPTH in lv_conf.h! Set it to 1, 8, 16 or 32!"
  70:c:\projects\paindrain\arduinolcd\test\pain drain\libraries\lvgl\src\misc\lv_color.h **** #endif
  71:c:\projects\paindrain\arduinolcd\test\pain drain\libraries\lvgl\src\misc\lv_color.h **** 
  72:c:\projects\paindrain\arduinolcd\test\pain drain\libraries\lvgl\src\misc\lv_color.h **** #if defined(__cplusplus) && !defined(_LV_COLOR_HAS_MODERN_CPP)
  73:c:\projects\paindrain\arduinolcd\test\pain drain\libraries\lvgl\src\misc\lv_color.h **** /**
  74:c:\projects\paindrain\arduinolcd\test\pain drain\libraries\lvgl\src\misc\lv_color.h **** * MSVC compiler's definition of the __cplusplus indicating 199711L regardless to C++ standard versi
  75:c:\projects\paindrain\arduinolcd\test\pain drain\libraries\lvgl\src\misc\lv_color.h **** * see https://devblogs.microsoft.com/cppblog/msvc-now-correctly-reports-cplusplus
  76:c:\projects\paindrain\arduinolcd\test\pain drain\libraries\lvgl\src\misc\lv_color.h **** * so we use _MSC_VER macro instead of __cplusplus
  77:c:\projects\paindrain\arduinolcd\test\pain drain\libraries\lvgl\src\misc\lv_color.h **** */
  78:c:\projects\paindrain\arduinolcd\test\pain drain\libraries\lvgl\src\misc\lv_color.h **** #ifdef _MSC_VER
  79:c:\projects\paindrain\arduinolcd\test\pain drain\libraries\lvgl\src\misc\lv_color.h **** #if _MSC_VER >= 1900 /*Visual Studio 2015*/
  80:c:\projects\paindrain\arduinolcd\test\pain drain\libraries\lvgl\src\misc\lv_color.h **** #define _LV_COLOR_HAS_MODERN_CPP 1
  81:c:\projects\paindrain\arduinolcd\test\pain drain\libraries\lvgl\src\misc\lv_color.h **** #endif
  82:c:\projects\paindrain\arduinolcd\test\pain drain\libraries\lvgl\src\misc\lv_color.h **** #else
  83:c:\projects\paindrain\arduinolcd\test\pain drain\libraries\lvgl\src\misc\lv_color.h **** #if __cplusplus >= 201103L
  84:c:\projects\paindrain\arduinolcd\test\pain drain\libraries\lvgl\src\misc\lv_color.h **** #define _LV_COLOR_HAS_MODERN_CPP 1
  85:c:\projects\paindrain\arduinolcd\test\pain drain\libraries\lvgl\src\misc\lv_color.h **** #endif
  86:c:\projects\paindrain\arduinolcd\test\pain drain\libraries\lvgl\src\misc\lv_color.h **** #endif
  87:c:\projects\paindrain\arduinolcd\test\pain drain\libraries\lvgl\src\misc\lv_color.h **** #endif /*__cplusplus*/
  88:c:\projects\paindrain\arduinolcd\test\pain drain\libraries\lvgl\src\misc\lv_color.h **** 
  89:c:\projects\paindrain\arduinolcd\test\pain drain\libraries\lvgl\src\misc\lv_color.h **** #ifndef _LV_COLOR_HAS_MODERN_CPP
  90:c:\projects\paindrain\arduinolcd\test\pain drain\libraries\lvgl\src\misc\lv_color.h **** #define _LV_COLOR_HAS_MODERN_CPP 0
  91:c:\projects\paindrain\arduinolcd\test\pain drain\libraries\lvgl\src\misc\lv_color.h **** #endif
ARM GAS  C:\Users\haske\AppData\Local\Temp\ccOknJt1.s 			page 31


  92:c:\projects\paindrain\arduinolcd\test\pain drain\libraries\lvgl\src\misc\lv_color.h **** 
  93:c:\projects\paindrain\arduinolcd\test\pain drain\libraries\lvgl\src\misc\lv_color.h **** #if _LV_COLOR_HAS_MODERN_CPP
  94:c:\projects\paindrain\arduinolcd\test\pain drain\libraries\lvgl\src\misc\lv_color.h **** /*Fix msvc compiler error C4576 inside C++ code*/
  95:c:\projects\paindrain\arduinolcd\test\pain drain\libraries\lvgl\src\misc\lv_color.h **** #define _LV_COLOR_MAKE_TYPE_HELPER lv_color_t
  96:c:\projects\paindrain\arduinolcd\test\pain drain\libraries\lvgl\src\misc\lv_color.h **** #else
  97:c:\projects\paindrain\arduinolcd\test\pain drain\libraries\lvgl\src\misc\lv_color.h **** #define _LV_COLOR_MAKE_TYPE_HELPER (lv_color_t)
  98:c:\projects\paindrain\arduinolcd\test\pain drain\libraries\lvgl\src\misc\lv_color.h **** #endif
  99:c:\projects\paindrain\arduinolcd\test\pain drain\libraries\lvgl\src\misc\lv_color.h **** 
 100:c:\projects\paindrain\arduinolcd\test\pain drain\libraries\lvgl\src\misc\lv_color.h **** /*---------------------------------------
 101:c:\projects\paindrain\arduinolcd\test\pain drain\libraries\lvgl\src\misc\lv_color.h ****  * Macros for all existing color depths
 102:c:\projects\paindrain\arduinolcd\test\pain drain\libraries\lvgl\src\misc\lv_color.h ****  * to set/get values of the color channels
 103:c:\projects\paindrain\arduinolcd\test\pain drain\libraries\lvgl\src\misc\lv_color.h ****  *------------------------------------------*/
 104:c:\projects\paindrain\arduinolcd\test\pain drain\libraries\lvgl\src\misc\lv_color.h **** # define LV_COLOR_SET_R1(c, v) (c).ch.red = (uint8_t)((v) & 0x1)
 105:c:\projects\paindrain\arduinolcd\test\pain drain\libraries\lvgl\src\misc\lv_color.h **** # define LV_COLOR_SET_G1(c, v) (c).ch.green = (uint8_t)((v) & 0x1)
 106:c:\projects\paindrain\arduinolcd\test\pain drain\libraries\lvgl\src\misc\lv_color.h **** # define LV_COLOR_SET_B1(c, v) (c).ch.blue = (uint8_t)((v) & 0x1)
 107:c:\projects\paindrain\arduinolcd\test\pain drain\libraries\lvgl\src\misc\lv_color.h **** # define LV_COLOR_SET_A1(c, v) do {} while(0)
 108:c:\projects\paindrain\arduinolcd\test\pain drain\libraries\lvgl\src\misc\lv_color.h **** 
 109:c:\projects\paindrain\arduinolcd\test\pain drain\libraries\lvgl\src\misc\lv_color.h **** # define LV_COLOR_GET_R1(c) (c).ch.red
 110:c:\projects\paindrain\arduinolcd\test\pain drain\libraries\lvgl\src\misc\lv_color.h **** # define LV_COLOR_GET_G1(c) (c).ch.green
 111:c:\projects\paindrain\arduinolcd\test\pain drain\libraries\lvgl\src\misc\lv_color.h **** # define LV_COLOR_GET_B1(c) (c).ch.blue
 112:c:\projects\paindrain\arduinolcd\test\pain drain\libraries\lvgl\src\misc\lv_color.h **** # define LV_COLOR_GET_A1(c) 0xFF
 113:c:\projects\paindrain\arduinolcd\test\pain drain\libraries\lvgl\src\misc\lv_color.h **** 
 114:c:\projects\paindrain\arduinolcd\test\pain drain\libraries\lvgl\src\misc\lv_color.h **** # define _LV_COLOR_ZERO_INITIALIZER1 {0x00}
 115:c:\projects\paindrain\arduinolcd\test\pain drain\libraries\lvgl\src\misc\lv_color.h **** # define LV_COLOR_MAKE1(r8, g8, b8)  {(uint8_t)((b8 >> 7) | (g8 >> 7) | (r8 >> 7))}
 116:c:\projects\paindrain\arduinolcd\test\pain drain\libraries\lvgl\src\misc\lv_color.h **** 
 117:c:\projects\paindrain\arduinolcd\test\pain drain\libraries\lvgl\src\misc\lv_color.h **** # define LV_COLOR_SET_R8(c, v) (c).ch.red = (uint8_t)((v) & 0x7U)
 118:c:\projects\paindrain\arduinolcd\test\pain drain\libraries\lvgl\src\misc\lv_color.h **** # define LV_COLOR_SET_G8(c, v) (c).ch.green = (uint8_t)((v) & 0x7U)
 119:c:\projects\paindrain\arduinolcd\test\pain drain\libraries\lvgl\src\misc\lv_color.h **** # define LV_COLOR_SET_B8(c, v) (c).ch.blue = (uint8_t)((v) & 0x3U)
 120:c:\projects\paindrain\arduinolcd\test\pain drain\libraries\lvgl\src\misc\lv_color.h **** # define LV_COLOR_SET_A8(c, v) do {} while(0)
 121:c:\projects\paindrain\arduinolcd\test\pain drain\libraries\lvgl\src\misc\lv_color.h **** 
 122:c:\projects\paindrain\arduinolcd\test\pain drain\libraries\lvgl\src\misc\lv_color.h **** # define LV_COLOR_GET_R8(c) (c).ch.red
 123:c:\projects\paindrain\arduinolcd\test\pain drain\libraries\lvgl\src\misc\lv_color.h **** # define LV_COLOR_GET_G8(c) (c).ch.green
 124:c:\projects\paindrain\arduinolcd\test\pain drain\libraries\lvgl\src\misc\lv_color.h **** # define LV_COLOR_GET_B8(c) (c).ch.blue
 125:c:\projects\paindrain\arduinolcd\test\pain drain\libraries\lvgl\src\misc\lv_color.h **** # define LV_COLOR_GET_A8(c) 0xFF
 126:c:\projects\paindrain\arduinolcd\test\pain drain\libraries\lvgl\src\misc\lv_color.h **** 
 127:c:\projects\paindrain\arduinolcd\test\pain drain\libraries\lvgl\src\misc\lv_color.h **** # define _LV_COLOR_ZERO_INITIALIZER8 {{0x00, 0x00, 0x00}}
 128:c:\projects\paindrain\arduinolcd\test\pain drain\libraries\lvgl\src\misc\lv_color.h **** # define LV_COLOR_MAKE8(r8, g8, b8) {{(uint8_t)((b8 >> 6) & 0x3U), (uint8_t)((g8 >> 5) & 0x7U), (ui
 129:c:\projects\paindrain\arduinolcd\test\pain drain\libraries\lvgl\src\misc\lv_color.h **** 
 130:c:\projects\paindrain\arduinolcd\test\pain drain\libraries\lvgl\src\misc\lv_color.h **** # define LV_COLOR_SET_R16(c, v) (c).ch.red = (uint8_t)((v) & 0x1FU)
 131:c:\projects\paindrain\arduinolcd\test\pain drain\libraries\lvgl\src\misc\lv_color.h **** #if LV_COLOR_16_SWAP == 0
 132:c:\projects\paindrain\arduinolcd\test\pain drain\libraries\lvgl\src\misc\lv_color.h **** # define LV_COLOR_SET_G16(c, v) (c).ch.green = (uint8_t)((v) & 0x3FU)
 133:c:\projects\paindrain\arduinolcd\test\pain drain\libraries\lvgl\src\misc\lv_color.h **** #else
 134:c:\projects\paindrain\arduinolcd\test\pain drain\libraries\lvgl\src\misc\lv_color.h **** # define LV_COLOR_SET_G16(c, v) {(c).ch.green_h = (uint8_t)(((v) >> 3) & 0x7); (c).ch.green_l = (ui
 135:c:\projects\paindrain\arduinolcd\test\pain drain\libraries\lvgl\src\misc\lv_color.h **** #endif
 136:c:\projects\paindrain\arduinolcd\test\pain drain\libraries\lvgl\src\misc\lv_color.h **** # define LV_COLOR_SET_B16(c, v) (c).ch.blue = (uint8_t)((v) & 0x1FU)
 137:c:\projects\paindrain\arduinolcd\test\pain drain\libraries\lvgl\src\misc\lv_color.h **** # define LV_COLOR_SET_A16(c, v) do {} while(0)
 138:c:\projects\paindrain\arduinolcd\test\pain drain\libraries\lvgl\src\misc\lv_color.h **** 
 139:c:\projects\paindrain\arduinolcd\test\pain drain\libraries\lvgl\src\misc\lv_color.h **** # define LV_COLOR_GET_R16(c) (c).ch.red
 140:c:\projects\paindrain\arduinolcd\test\pain drain\libraries\lvgl\src\misc\lv_color.h **** #if LV_COLOR_16_SWAP == 0
 141:c:\projects\paindrain\arduinolcd\test\pain drain\libraries\lvgl\src\misc\lv_color.h **** # define LV_COLOR_GET_G16(c) (c).ch.green
 142:c:\projects\paindrain\arduinolcd\test\pain drain\libraries\lvgl\src\misc\lv_color.h **** #else
 143:c:\projects\paindrain\arduinolcd\test\pain drain\libraries\lvgl\src\misc\lv_color.h **** # define LV_COLOR_GET_G16(c) (((c).ch.green_h << 3) + (c).ch.green_l)
 144:c:\projects\paindrain\arduinolcd\test\pain drain\libraries\lvgl\src\misc\lv_color.h **** #endif
 145:c:\projects\paindrain\arduinolcd\test\pain drain\libraries\lvgl\src\misc\lv_color.h **** # define LV_COLOR_GET_B16(c) (c).ch.blue
 146:c:\projects\paindrain\arduinolcd\test\pain drain\libraries\lvgl\src\misc\lv_color.h **** # define LV_COLOR_GET_A16(c) 0xFF
 147:c:\projects\paindrain\arduinolcd\test\pain drain\libraries\lvgl\src\misc\lv_color.h **** 
 148:c:\projects\paindrain\arduinolcd\test\pain drain\libraries\lvgl\src\misc\lv_color.h **** #if LV_COLOR_16_SWAP == 0
ARM GAS  C:\Users\haske\AppData\Local\Temp\ccOknJt1.s 			page 32


 149:c:\projects\paindrain\arduinolcd\test\pain drain\libraries\lvgl\src\misc\lv_color.h **** # define _LV_COLOR_ZERO_INITIALIZER16  {{0x00, 0x00, 0x00}}
 150:c:\projects\paindrain\arduinolcd\test\pain drain\libraries\lvgl\src\misc\lv_color.h **** # define LV_COLOR_MAKE16(r8, g8, b8) {{(uint8_t)((b8 >> 3) & 0x1FU), (uint8_t)((g8 >> 2) & 0x3FU), 
 151:c:\projects\paindrain\arduinolcd\test\pain drain\libraries\lvgl\src\misc\lv_color.h **** #else
 152:c:\projects\paindrain\arduinolcd\test\pain drain\libraries\lvgl\src\misc\lv_color.h **** # define _LV_COLOR_ZERO_INITIALIZER16 {{0x00, 0x00, 0x00, 0x00}}
 153:c:\projects\paindrain\arduinolcd\test\pain drain\libraries\lvgl\src\misc\lv_color.h **** # define LV_COLOR_MAKE16(r8, g8, b8) {{(uint8_t)((g8 >> 5) & 0x7U), (uint8_t)((r8 >> 3) & 0x1FU), (
 154:c:\projects\paindrain\arduinolcd\test\pain drain\libraries\lvgl\src\misc\lv_color.h **** #endif
 155:c:\projects\paindrain\arduinolcd\test\pain drain\libraries\lvgl\src\misc\lv_color.h **** 
 156:c:\projects\paindrain\arduinolcd\test\pain drain\libraries\lvgl\src\misc\lv_color.h **** # define LV_COLOR_SET_R32(c, v) (c).ch.red = (uint8_t)((v) & 0xFF)
 157:c:\projects\paindrain\arduinolcd\test\pain drain\libraries\lvgl\src\misc\lv_color.h **** # define LV_COLOR_SET_G32(c, v) (c).ch.green = (uint8_t)((v) & 0xFF)
 158:c:\projects\paindrain\arduinolcd\test\pain drain\libraries\lvgl\src\misc\lv_color.h **** # define LV_COLOR_SET_B32(c, v) (c).ch.blue = (uint8_t)((v) & 0xFF)
 159:c:\projects\paindrain\arduinolcd\test\pain drain\libraries\lvgl\src\misc\lv_color.h **** # define LV_COLOR_SET_A32(c, v) (c).ch.alpha = (uint8_t)((v) & 0xFF)
 160:c:\projects\paindrain\arduinolcd\test\pain drain\libraries\lvgl\src\misc\lv_color.h **** 
 161:c:\projects\paindrain\arduinolcd\test\pain drain\libraries\lvgl\src\misc\lv_color.h **** # define LV_COLOR_GET_R32(c) (c).ch.red
 162:c:\projects\paindrain\arduinolcd\test\pain drain\libraries\lvgl\src\misc\lv_color.h **** # define LV_COLOR_GET_G32(c) (c).ch.green
 163:c:\projects\paindrain\arduinolcd\test\pain drain\libraries\lvgl\src\misc\lv_color.h **** # define LV_COLOR_GET_B32(c) (c).ch.blue
 164:c:\projects\paindrain\arduinolcd\test\pain drain\libraries\lvgl\src\misc\lv_color.h **** # define LV_COLOR_GET_A32(c) (c).ch.alpha
 165:c:\projects\paindrain\arduinolcd\test\pain drain\libraries\lvgl\src\misc\lv_color.h **** 
 166:c:\projects\paindrain\arduinolcd\test\pain drain\libraries\lvgl\src\misc\lv_color.h **** # define _LV_COLOR_ZERO_INITIALIZER32  {{0x00, 0x00, 0x00, 0x00}}
 167:c:\projects\paindrain\arduinolcd\test\pain drain\libraries\lvgl\src\misc\lv_color.h **** # define LV_COLOR_MAKE32(r8, g8, b8) {{b8, g8, r8, 0xff}} /*Fix 0xff alpha*/
 168:c:\projects\paindrain\arduinolcd\test\pain drain\libraries\lvgl\src\misc\lv_color.h **** 
 169:c:\projects\paindrain\arduinolcd\test\pain drain\libraries\lvgl\src\misc\lv_color.h **** /*---------------------------------------
 170:c:\projects\paindrain\arduinolcd\test\pain drain\libraries\lvgl\src\misc\lv_color.h ****  * Macros for the current color depth
 171:c:\projects\paindrain\arduinolcd\test\pain drain\libraries\lvgl\src\misc\lv_color.h ****  * to set/get values of the color channels
 172:c:\projects\paindrain\arduinolcd\test\pain drain\libraries\lvgl\src\misc\lv_color.h ****  *------------------------------------------*/
 173:c:\projects\paindrain\arduinolcd\test\pain drain\libraries\lvgl\src\misc\lv_color.h **** #define LV_COLOR_SET_R(c, v) LV_CONCAT(LV_COLOR_SET_R, LV_COLOR_DEPTH)(c, v)
 174:c:\projects\paindrain\arduinolcd\test\pain drain\libraries\lvgl\src\misc\lv_color.h **** #define LV_COLOR_SET_G(c, v) LV_CONCAT(LV_COLOR_SET_G, LV_COLOR_DEPTH)(c, v)
 175:c:\projects\paindrain\arduinolcd\test\pain drain\libraries\lvgl\src\misc\lv_color.h **** #define LV_COLOR_SET_B(c, v) LV_CONCAT(LV_COLOR_SET_B, LV_COLOR_DEPTH)(c, v)
 176:c:\projects\paindrain\arduinolcd\test\pain drain\libraries\lvgl\src\misc\lv_color.h **** #define LV_COLOR_SET_A(c, v) LV_CONCAT(LV_COLOR_SET_A, LV_COLOR_DEPTH)(c, v)
 177:c:\projects\paindrain\arduinolcd\test\pain drain\libraries\lvgl\src\misc\lv_color.h **** 
 178:c:\projects\paindrain\arduinolcd\test\pain drain\libraries\lvgl\src\misc\lv_color.h **** #define LV_COLOR_GET_R(c) LV_CONCAT(LV_COLOR_GET_R, LV_COLOR_DEPTH)(c)
 179:c:\projects\paindrain\arduinolcd\test\pain drain\libraries\lvgl\src\misc\lv_color.h **** #define LV_COLOR_GET_G(c) LV_CONCAT(LV_COLOR_GET_G, LV_COLOR_DEPTH)(c)
 180:c:\projects\paindrain\arduinolcd\test\pain drain\libraries\lvgl\src\misc\lv_color.h **** #define LV_COLOR_GET_B(c) LV_CONCAT(LV_COLOR_GET_B, LV_COLOR_DEPTH)(c)
 181:c:\projects\paindrain\arduinolcd\test\pain drain\libraries\lvgl\src\misc\lv_color.h **** #define LV_COLOR_GET_A(c) LV_CONCAT(LV_COLOR_GET_A, LV_COLOR_DEPTH)(c)
 182:c:\projects\paindrain\arduinolcd\test\pain drain\libraries\lvgl\src\misc\lv_color.h **** 
 183:c:\projects\paindrain\arduinolcd\test\pain drain\libraries\lvgl\src\misc\lv_color.h **** #define _LV_COLOR_ZERO_INITIALIZER LV_CONCAT(_LV_COLOR_ZERO_INITIALIZER, LV_COLOR_DEPTH)
 184:c:\projects\paindrain\arduinolcd\test\pain drain\libraries\lvgl\src\misc\lv_color.h **** #define LV_COLOR_MAKE(r8, g8, b8) LV_CONCAT(LV_COLOR_MAKE, LV_COLOR_DEPTH)(r8, g8, b8)
 185:c:\projects\paindrain\arduinolcd\test\pain drain\libraries\lvgl\src\misc\lv_color.h **** 
 186:c:\projects\paindrain\arduinolcd\test\pain drain\libraries\lvgl\src\misc\lv_color.h **** /**********************
 187:c:\projects\paindrain\arduinolcd\test\pain drain\libraries\lvgl\src\misc\lv_color.h ****  *      TYPEDEFS
 188:c:\projects\paindrain\arduinolcd\test\pain drain\libraries\lvgl\src\misc\lv_color.h ****  **********************/
 189:c:\projects\paindrain\arduinolcd\test\pain drain\libraries\lvgl\src\misc\lv_color.h **** 
 190:c:\projects\paindrain\arduinolcd\test\pain drain\libraries\lvgl\src\misc\lv_color.h **** typedef union {
 191:c:\projects\paindrain\arduinolcd\test\pain drain\libraries\lvgl\src\misc\lv_color.h ****     uint8_t full; /*must be declared first to set all bits of byte via initializer list*/
 192:c:\projects\paindrain\arduinolcd\test\pain drain\libraries\lvgl\src\misc\lv_color.h ****     union {
 193:c:\projects\paindrain\arduinolcd\test\pain drain\libraries\lvgl\src\misc\lv_color.h ****         uint8_t blue : 1;
 194:c:\projects\paindrain\arduinolcd\test\pain drain\libraries\lvgl\src\misc\lv_color.h ****         uint8_t green : 1;
 195:c:\projects\paindrain\arduinolcd\test\pain drain\libraries\lvgl\src\misc\lv_color.h ****         uint8_t red : 1;
 196:c:\projects\paindrain\arduinolcd\test\pain drain\libraries\lvgl\src\misc\lv_color.h ****     } ch;
 197:c:\projects\paindrain\arduinolcd\test\pain drain\libraries\lvgl\src\misc\lv_color.h **** } lv_color1_t;
 198:c:\projects\paindrain\arduinolcd\test\pain drain\libraries\lvgl\src\misc\lv_color.h **** 
 199:c:\projects\paindrain\arduinolcd\test\pain drain\libraries\lvgl\src\misc\lv_color.h **** typedef union {
 200:c:\projects\paindrain\arduinolcd\test\pain drain\libraries\lvgl\src\misc\lv_color.h ****     struct {
 201:c:\projects\paindrain\arduinolcd\test\pain drain\libraries\lvgl\src\misc\lv_color.h ****         uint8_t blue : 2;
 202:c:\projects\paindrain\arduinolcd\test\pain drain\libraries\lvgl\src\misc\lv_color.h ****         uint8_t green : 3;
 203:c:\projects\paindrain\arduinolcd\test\pain drain\libraries\lvgl\src\misc\lv_color.h ****         uint8_t red : 3;
 204:c:\projects\paindrain\arduinolcd\test\pain drain\libraries\lvgl\src\misc\lv_color.h ****     } ch;
 205:c:\projects\paindrain\arduinolcd\test\pain drain\libraries\lvgl\src\misc\lv_color.h ****     uint8_t full;
ARM GAS  C:\Users\haske\AppData\Local\Temp\ccOknJt1.s 			page 33


 206:c:\projects\paindrain\arduinolcd\test\pain drain\libraries\lvgl\src\misc\lv_color.h **** } lv_color8_t;
 207:c:\projects\paindrain\arduinolcd\test\pain drain\libraries\lvgl\src\misc\lv_color.h **** 
 208:c:\projects\paindrain\arduinolcd\test\pain drain\libraries\lvgl\src\misc\lv_color.h **** typedef union {
 209:c:\projects\paindrain\arduinolcd\test\pain drain\libraries\lvgl\src\misc\lv_color.h ****     struct {
 210:c:\projects\paindrain\arduinolcd\test\pain drain\libraries\lvgl\src\misc\lv_color.h **** #if LV_COLOR_16_SWAP == 0
 211:c:\projects\paindrain\arduinolcd\test\pain drain\libraries\lvgl\src\misc\lv_color.h ****         uint16_t blue : 5;
 212:c:\projects\paindrain\arduinolcd\test\pain drain\libraries\lvgl\src\misc\lv_color.h ****         uint16_t green : 6;
 213:c:\projects\paindrain\arduinolcd\test\pain drain\libraries\lvgl\src\misc\lv_color.h ****         uint16_t red : 5;
 214:c:\projects\paindrain\arduinolcd\test\pain drain\libraries\lvgl\src\misc\lv_color.h **** #else
 215:c:\projects\paindrain\arduinolcd\test\pain drain\libraries\lvgl\src\misc\lv_color.h ****         uint16_t green_h : 3;
 216:c:\projects\paindrain\arduinolcd\test\pain drain\libraries\lvgl\src\misc\lv_color.h ****         uint16_t red : 5;
 217:c:\projects\paindrain\arduinolcd\test\pain drain\libraries\lvgl\src\misc\lv_color.h ****         uint16_t blue : 5;
 218:c:\projects\paindrain\arduinolcd\test\pain drain\libraries\lvgl\src\misc\lv_color.h ****         uint16_t green_l : 3;
 219:c:\projects\paindrain\arduinolcd\test\pain drain\libraries\lvgl\src\misc\lv_color.h **** #endif
 220:c:\projects\paindrain\arduinolcd\test\pain drain\libraries\lvgl\src\misc\lv_color.h ****     } ch;
 221:c:\projects\paindrain\arduinolcd\test\pain drain\libraries\lvgl\src\misc\lv_color.h ****     uint16_t full;
 222:c:\projects\paindrain\arduinolcd\test\pain drain\libraries\lvgl\src\misc\lv_color.h **** } lv_color16_t;
 223:c:\projects\paindrain\arduinolcd\test\pain drain\libraries\lvgl\src\misc\lv_color.h **** 
 224:c:\projects\paindrain\arduinolcd\test\pain drain\libraries\lvgl\src\misc\lv_color.h **** typedef union {
 225:c:\projects\paindrain\arduinolcd\test\pain drain\libraries\lvgl\src\misc\lv_color.h ****     struct {
 226:c:\projects\paindrain\arduinolcd\test\pain drain\libraries\lvgl\src\misc\lv_color.h ****         uint8_t blue;
 227:c:\projects\paindrain\arduinolcd\test\pain drain\libraries\lvgl\src\misc\lv_color.h ****         uint8_t green;
 228:c:\projects\paindrain\arduinolcd\test\pain drain\libraries\lvgl\src\misc\lv_color.h ****         uint8_t red;
 229:c:\projects\paindrain\arduinolcd\test\pain drain\libraries\lvgl\src\misc\lv_color.h ****         uint8_t alpha;
 230:c:\projects\paindrain\arduinolcd\test\pain drain\libraries\lvgl\src\misc\lv_color.h ****     } ch;
 231:c:\projects\paindrain\arduinolcd\test\pain drain\libraries\lvgl\src\misc\lv_color.h ****     uint32_t full;
 232:c:\projects\paindrain\arduinolcd\test\pain drain\libraries\lvgl\src\misc\lv_color.h **** } lv_color32_t;
 233:c:\projects\paindrain\arduinolcd\test\pain drain\libraries\lvgl\src\misc\lv_color.h **** 
 234:c:\projects\paindrain\arduinolcd\test\pain drain\libraries\lvgl\src\misc\lv_color.h **** typedef LV_CONCAT3(uint, LV_COLOR_SIZE, _t) lv_color_int_t;
 235:c:\projects\paindrain\arduinolcd\test\pain drain\libraries\lvgl\src\misc\lv_color.h **** typedef LV_CONCAT3(lv_color, LV_COLOR_DEPTH, _t) lv_color_t;
 236:c:\projects\paindrain\arduinolcd\test\pain drain\libraries\lvgl\src\misc\lv_color.h **** 
 237:c:\projects\paindrain\arduinolcd\test\pain drain\libraries\lvgl\src\misc\lv_color.h **** typedef struct {
 238:c:\projects\paindrain\arduinolcd\test\pain drain\libraries\lvgl\src\misc\lv_color.h ****     uint16_t h;
 239:c:\projects\paindrain\arduinolcd\test\pain drain\libraries\lvgl\src\misc\lv_color.h ****     uint8_t s;
 240:c:\projects\paindrain\arduinolcd\test\pain drain\libraries\lvgl\src\misc\lv_color.h ****     uint8_t v;
 241:c:\projects\paindrain\arduinolcd\test\pain drain\libraries\lvgl\src\misc\lv_color.h **** } lv_color_hsv_t;
 242:c:\projects\paindrain\arduinolcd\test\pain drain\libraries\lvgl\src\misc\lv_color.h **** 
 243:c:\projects\paindrain\arduinolcd\test\pain drain\libraries\lvgl\src\misc\lv_color.h **** //! @cond Doxygen_Suppress
 244:c:\projects\paindrain\arduinolcd\test\pain drain\libraries\lvgl\src\misc\lv_color.h **** /*No idea where the guard is required but else throws warnings in the docs*/
 245:c:\projects\paindrain\arduinolcd\test\pain drain\libraries\lvgl\src\misc\lv_color.h **** typedef uint8_t lv_opa_t;
 246:c:\projects\paindrain\arduinolcd\test\pain drain\libraries\lvgl\src\misc\lv_color.h **** //! @endcond
 247:c:\projects\paindrain\arduinolcd\test\pain drain\libraries\lvgl\src\misc\lv_color.h **** 
 248:c:\projects\paindrain\arduinolcd\test\pain drain\libraries\lvgl\src\misc\lv_color.h **** struct _lv_color_filter_dsc_t;
 249:c:\projects\paindrain\arduinolcd\test\pain drain\libraries\lvgl\src\misc\lv_color.h **** 
 250:c:\projects\paindrain\arduinolcd\test\pain drain\libraries\lvgl\src\misc\lv_color.h **** typedef lv_color_t (*lv_color_filter_cb_t)(const struct _lv_color_filter_dsc_t *, lv_color_t, lv_op
 251:c:\projects\paindrain\arduinolcd\test\pain drain\libraries\lvgl\src\misc\lv_color.h **** 
 252:c:\projects\paindrain\arduinolcd\test\pain drain\libraries\lvgl\src\misc\lv_color.h **** typedef struct _lv_color_filter_dsc_t {
 253:c:\projects\paindrain\arduinolcd\test\pain drain\libraries\lvgl\src\misc\lv_color.h ****     lv_color_filter_cb_t filter_cb;
 254:c:\projects\paindrain\arduinolcd\test\pain drain\libraries\lvgl\src\misc\lv_color.h ****     void * user_data;
 255:c:\projects\paindrain\arduinolcd\test\pain drain\libraries\lvgl\src\misc\lv_color.h **** } lv_color_filter_dsc_t;
 256:c:\projects\paindrain\arduinolcd\test\pain drain\libraries\lvgl\src\misc\lv_color.h **** 
 257:c:\projects\paindrain\arduinolcd\test\pain drain\libraries\lvgl\src\misc\lv_color.h **** 
 258:c:\projects\paindrain\arduinolcd\test\pain drain\libraries\lvgl\src\misc\lv_color.h **** typedef enum {
 259:c:\projects\paindrain\arduinolcd\test\pain drain\libraries\lvgl\src\misc\lv_color.h ****     LV_PALETTE_RED,
 260:c:\projects\paindrain\arduinolcd\test\pain drain\libraries\lvgl\src\misc\lv_color.h ****     LV_PALETTE_PINK,
 261:c:\projects\paindrain\arduinolcd\test\pain drain\libraries\lvgl\src\misc\lv_color.h ****     LV_PALETTE_PURPLE,
 262:c:\projects\paindrain\arduinolcd\test\pain drain\libraries\lvgl\src\misc\lv_color.h ****     LV_PALETTE_DEEP_PURPLE,
ARM GAS  C:\Users\haske\AppData\Local\Temp\ccOknJt1.s 			page 34


 263:c:\projects\paindrain\arduinolcd\test\pain drain\libraries\lvgl\src\misc\lv_color.h ****     LV_PALETTE_INDIGO,
 264:c:\projects\paindrain\arduinolcd\test\pain drain\libraries\lvgl\src\misc\lv_color.h ****     LV_PALETTE_BLUE,
 265:c:\projects\paindrain\arduinolcd\test\pain drain\libraries\lvgl\src\misc\lv_color.h ****     LV_PALETTE_LIGHT_BLUE,
 266:c:\projects\paindrain\arduinolcd\test\pain drain\libraries\lvgl\src\misc\lv_color.h ****     LV_PALETTE_CYAN,
 267:c:\projects\paindrain\arduinolcd\test\pain drain\libraries\lvgl\src\misc\lv_color.h ****     LV_PALETTE_TEAL,
 268:c:\projects\paindrain\arduinolcd\test\pain drain\libraries\lvgl\src\misc\lv_color.h ****     LV_PALETTE_GREEN,
 269:c:\projects\paindrain\arduinolcd\test\pain drain\libraries\lvgl\src\misc\lv_color.h ****     LV_PALETTE_LIGHT_GREEN,
 270:c:\projects\paindrain\arduinolcd\test\pain drain\libraries\lvgl\src\misc\lv_color.h ****     LV_PALETTE_LIME,
 271:c:\projects\paindrain\arduinolcd\test\pain drain\libraries\lvgl\src\misc\lv_color.h ****     LV_PALETTE_YELLOW,
 272:c:\projects\paindrain\arduinolcd\test\pain drain\libraries\lvgl\src\misc\lv_color.h ****     LV_PALETTE_AMBER,
 273:c:\projects\paindrain\arduinolcd\test\pain drain\libraries\lvgl\src\misc\lv_color.h ****     LV_PALETTE_ORANGE,
 274:c:\projects\paindrain\arduinolcd\test\pain drain\libraries\lvgl\src\misc\lv_color.h ****     LV_PALETTE_DEEP_ORANGE,
 275:c:\projects\paindrain\arduinolcd\test\pain drain\libraries\lvgl\src\misc\lv_color.h ****     LV_PALETTE_BROWN,
 276:c:\projects\paindrain\arduinolcd\test\pain drain\libraries\lvgl\src\misc\lv_color.h ****     LV_PALETTE_BLUE_GREY,
 277:c:\projects\paindrain\arduinolcd\test\pain drain\libraries\lvgl\src\misc\lv_color.h ****     LV_PALETTE_GREY,
 278:c:\projects\paindrain\arduinolcd\test\pain drain\libraries\lvgl\src\misc\lv_color.h ****     _LV_PALETTE_LAST,
 279:c:\projects\paindrain\arduinolcd\test\pain drain\libraries\lvgl\src\misc\lv_color.h ****     LV_PALETTE_NONE = 0xff,
 280:c:\projects\paindrain\arduinolcd\test\pain drain\libraries\lvgl\src\misc\lv_color.h **** } lv_palette_t;
 281:c:\projects\paindrain\arduinolcd\test\pain drain\libraries\lvgl\src\misc\lv_color.h **** 
 282:c:\projects\paindrain\arduinolcd\test\pain drain\libraries\lvgl\src\misc\lv_color.h **** /**********************
 283:c:\projects\paindrain\arduinolcd\test\pain drain\libraries\lvgl\src\misc\lv_color.h ****  * GLOBAL PROTOTYPES
 284:c:\projects\paindrain\arduinolcd\test\pain drain\libraries\lvgl\src\misc\lv_color.h ****  **********************/
 285:c:\projects\paindrain\arduinolcd\test\pain drain\libraries\lvgl\src\misc\lv_color.h **** 
 286:c:\projects\paindrain\arduinolcd\test\pain drain\libraries\lvgl\src\misc\lv_color.h **** /*In color conversations:
 287:c:\projects\paindrain\arduinolcd\test\pain drain\libraries\lvgl\src\misc\lv_color.h ****  * - When converting to bigger color type the LSB weight of 1 LSB is calculated
 288:c:\projects\paindrain\arduinolcd\test\pain drain\libraries\lvgl\src\misc\lv_color.h ****  *   E.g. 16 bit Red has 5 bits
 289:c:\projects\paindrain\arduinolcd\test\pain drain\libraries\lvgl\src\misc\lv_color.h ****  *         8 bit Red has 3 bits
 290:c:\projects\paindrain\arduinolcd\test\pain drain\libraries\lvgl\src\misc\lv_color.h ****  *        ----------------------
 291:c:\projects\paindrain\arduinolcd\test\pain drain\libraries\lvgl\src\misc\lv_color.h ****  *        8 bit red LSB = (2^5 - 1) / (2^3 - 1) = 31 / 7 = 4
 292:c:\projects\paindrain\arduinolcd\test\pain drain\libraries\lvgl\src\misc\lv_color.h ****  *
 293:c:\projects\paindrain\arduinolcd\test\pain drain\libraries\lvgl\src\misc\lv_color.h ****  * - When calculating to smaller color type simply shift out the LSBs
 294:c:\projects\paindrain\arduinolcd\test\pain drain\libraries\lvgl\src\misc\lv_color.h ****  *   E.g.  8 bit Red has 3 bits
 295:c:\projects\paindrain\arduinolcd\test\pain drain\libraries\lvgl\src\misc\lv_color.h ****  *        16 bit Red has 5 bits
 296:c:\projects\paindrain\arduinolcd\test\pain drain\libraries\lvgl\src\misc\lv_color.h ****  *        ----------------------
 297:c:\projects\paindrain\arduinolcd\test\pain drain\libraries\lvgl\src\misc\lv_color.h ****  *         Shift right with 5 - 3 = 2
 298:c:\projects\paindrain\arduinolcd\test\pain drain\libraries\lvgl\src\misc\lv_color.h ****  */
 299:c:\projects\paindrain\arduinolcd\test\pain drain\libraries\lvgl\src\misc\lv_color.h **** static inline uint8_t lv_color_to1(lv_color_t color)
 300:c:\projects\paindrain\arduinolcd\test\pain drain\libraries\lvgl\src\misc\lv_color.h **** {
 301:c:\projects\paindrain\arduinolcd\test\pain drain\libraries\lvgl\src\misc\lv_color.h **** #if LV_COLOR_DEPTH == 1
 302:c:\projects\paindrain\arduinolcd\test\pain drain\libraries\lvgl\src\misc\lv_color.h ****     return color.full;
 303:c:\projects\paindrain\arduinolcd\test\pain drain\libraries\lvgl\src\misc\lv_color.h **** #elif LV_COLOR_DEPTH == 8
 304:c:\projects\paindrain\arduinolcd\test\pain drain\libraries\lvgl\src\misc\lv_color.h ****     if((LV_COLOR_GET_R(color) & 0x4) || (LV_COLOR_GET_G(color) & 0x4) || (LV_COLOR_GET_B(color) & 0
 305:c:\projects\paindrain\arduinolcd\test\pain drain\libraries\lvgl\src\misc\lv_color.h ****         return 1;
 306:c:\projects\paindrain\arduinolcd\test\pain drain\libraries\lvgl\src\misc\lv_color.h ****     }
 307:c:\projects\paindrain\arduinolcd\test\pain drain\libraries\lvgl\src\misc\lv_color.h ****     else {
 308:c:\projects\paindrain\arduinolcd\test\pain drain\libraries\lvgl\src\misc\lv_color.h ****         return 0;
 309:c:\projects\paindrain\arduinolcd\test\pain drain\libraries\lvgl\src\misc\lv_color.h ****     }
 310:c:\projects\paindrain\arduinolcd\test\pain drain\libraries\lvgl\src\misc\lv_color.h **** #elif LV_COLOR_DEPTH == 16
 311:c:\projects\paindrain\arduinolcd\test\pain drain\libraries\lvgl\src\misc\lv_color.h ****     if((LV_COLOR_GET_R(color) & 0x10) || (LV_COLOR_GET_G(color) & 0x20) || (LV_COLOR_GET_B(color) &
 312:c:\projects\paindrain\arduinolcd\test\pain drain\libraries\lvgl\src\misc\lv_color.h ****         return 1;
 313:c:\projects\paindrain\arduinolcd\test\pain drain\libraries\lvgl\src\misc\lv_color.h ****     }
 314:c:\projects\paindrain\arduinolcd\test\pain drain\libraries\lvgl\src\misc\lv_color.h ****     else {
 315:c:\projects\paindrain\arduinolcd\test\pain drain\libraries\lvgl\src\misc\lv_color.h ****         return 0;
 316:c:\projects\paindrain\arduinolcd\test\pain drain\libraries\lvgl\src\misc\lv_color.h ****     }
 317:c:\projects\paindrain\arduinolcd\test\pain drain\libraries\lvgl\src\misc\lv_color.h **** #elif LV_COLOR_DEPTH == 32
 318:c:\projects\paindrain\arduinolcd\test\pain drain\libraries\lvgl\src\misc\lv_color.h ****     if((LV_COLOR_GET_R(color) & 0x80) || (LV_COLOR_GET_G(color) & 0x80) || (LV_COLOR_GET_B(color) &
 319:c:\projects\paindrain\arduinolcd\test\pain drain\libraries\lvgl\src\misc\lv_color.h ****         return 1;
ARM GAS  C:\Users\haske\AppData\Local\Temp\ccOknJt1.s 			page 35


 320:c:\projects\paindrain\arduinolcd\test\pain drain\libraries\lvgl\src\misc\lv_color.h ****     }
 321:c:\projects\paindrain\arduinolcd\test\pain drain\libraries\lvgl\src\misc\lv_color.h ****     else {
 322:c:\projects\paindrain\arduinolcd\test\pain drain\libraries\lvgl\src\misc\lv_color.h ****         return 0;
 323:c:\projects\paindrain\arduinolcd\test\pain drain\libraries\lvgl\src\misc\lv_color.h ****     }
 324:c:\projects\paindrain\arduinolcd\test\pain drain\libraries\lvgl\src\misc\lv_color.h **** #endif
 325:c:\projects\paindrain\arduinolcd\test\pain drain\libraries\lvgl\src\misc\lv_color.h **** }
 326:c:\projects\paindrain\arduinolcd\test\pain drain\libraries\lvgl\src\misc\lv_color.h **** 
 327:c:\projects\paindrain\arduinolcd\test\pain drain\libraries\lvgl\src\misc\lv_color.h **** static inline uint8_t lv_color_to8(lv_color_t color)
 328:c:\projects\paindrain\arduinolcd\test\pain drain\libraries\lvgl\src\misc\lv_color.h **** {
 329:c:\projects\paindrain\arduinolcd\test\pain drain\libraries\lvgl\src\misc\lv_color.h **** #if LV_COLOR_DEPTH == 1
 330:c:\projects\paindrain\arduinolcd\test\pain drain\libraries\lvgl\src\misc\lv_color.h ****     if(color.full == 0)
 331:c:\projects\paindrain\arduinolcd\test\pain drain\libraries\lvgl\src\misc\lv_color.h ****         return 0;
 332:c:\projects\paindrain\arduinolcd\test\pain drain\libraries\lvgl\src\misc\lv_color.h ****     else
 333:c:\projects\paindrain\arduinolcd\test\pain drain\libraries\lvgl\src\misc\lv_color.h ****         return 0xFF;
 334:c:\projects\paindrain\arduinolcd\test\pain drain\libraries\lvgl\src\misc\lv_color.h **** #elif LV_COLOR_DEPTH == 8
 335:c:\projects\paindrain\arduinolcd\test\pain drain\libraries\lvgl\src\misc\lv_color.h ****     return color.full;
 336:c:\projects\paindrain\arduinolcd\test\pain drain\libraries\lvgl\src\misc\lv_color.h **** #elif LV_COLOR_DEPTH == 16
 337:c:\projects\paindrain\arduinolcd\test\pain drain\libraries\lvgl\src\misc\lv_color.h ****     lv_color8_t ret;
 338:c:\projects\paindrain\arduinolcd\test\pain drain\libraries\lvgl\src\misc\lv_color.h ****     LV_COLOR_SET_R8(ret, LV_COLOR_GET_R(color) >> 2); /*5 - 3  = 2*/
 339:c:\projects\paindrain\arduinolcd\test\pain drain\libraries\lvgl\src\misc\lv_color.h ****     LV_COLOR_SET_G8(ret, LV_COLOR_GET_G(color) >> 3); /*6 - 3  = 3*/
 340:c:\projects\paindrain\arduinolcd\test\pain drain\libraries\lvgl\src\misc\lv_color.h ****     LV_COLOR_SET_B8(ret, LV_COLOR_GET_B(color) >> 3); /*5 - 2  = 3*/
 341:c:\projects\paindrain\arduinolcd\test\pain drain\libraries\lvgl\src\misc\lv_color.h ****     return ret.full;
 342:c:\projects\paindrain\arduinolcd\test\pain drain\libraries\lvgl\src\misc\lv_color.h **** #elif LV_COLOR_DEPTH == 32
 343:c:\projects\paindrain\arduinolcd\test\pain drain\libraries\lvgl\src\misc\lv_color.h ****     lv_color8_t ret;
 344:c:\projects\paindrain\arduinolcd\test\pain drain\libraries\lvgl\src\misc\lv_color.h ****     LV_COLOR_SET_R8(ret, LV_COLOR_GET_R(color) >> 5); /*8 - 3  = 5*/
 345:c:\projects\paindrain\arduinolcd\test\pain drain\libraries\lvgl\src\misc\lv_color.h ****     LV_COLOR_SET_G8(ret, LV_COLOR_GET_G(color) >> 5); /*8 - 3  = 5*/
 346:c:\projects\paindrain\arduinolcd\test\pain drain\libraries\lvgl\src\misc\lv_color.h ****     LV_COLOR_SET_B8(ret, LV_COLOR_GET_B(color) >> 6); /*8 - 2  = 6*/
 347:c:\projects\paindrain\arduinolcd\test\pain drain\libraries\lvgl\src\misc\lv_color.h ****     return ret.full;
 348:c:\projects\paindrain\arduinolcd\test\pain drain\libraries\lvgl\src\misc\lv_color.h **** #endif
 349:c:\projects\paindrain\arduinolcd\test\pain drain\libraries\lvgl\src\misc\lv_color.h **** }
 350:c:\projects\paindrain\arduinolcd\test\pain drain\libraries\lvgl\src\misc\lv_color.h **** 
 351:c:\projects\paindrain\arduinolcd\test\pain drain\libraries\lvgl\src\misc\lv_color.h **** static inline uint16_t lv_color_to16(lv_color_t color)
 352:c:\projects\paindrain\arduinolcd\test\pain drain\libraries\lvgl\src\misc\lv_color.h **** {
 353:c:\projects\paindrain\arduinolcd\test\pain drain\libraries\lvgl\src\misc\lv_color.h **** #if LV_COLOR_DEPTH == 1
 354:c:\projects\paindrain\arduinolcd\test\pain drain\libraries\lvgl\src\misc\lv_color.h ****     if(color.full == 0)
 355:c:\projects\paindrain\arduinolcd\test\pain drain\libraries\lvgl\src\misc\lv_color.h ****         return 0;
 356:c:\projects\paindrain\arduinolcd\test\pain drain\libraries\lvgl\src\misc\lv_color.h ****     else
 357:c:\projects\paindrain\arduinolcd\test\pain drain\libraries\lvgl\src\misc\lv_color.h ****         return 0xFFFF;
 358:c:\projects\paindrain\arduinolcd\test\pain drain\libraries\lvgl\src\misc\lv_color.h **** #elif LV_COLOR_DEPTH == 8
 359:c:\projects\paindrain\arduinolcd\test\pain drain\libraries\lvgl\src\misc\lv_color.h ****     lv_color16_t ret;
 360:c:\projects\paindrain\arduinolcd\test\pain drain\libraries\lvgl\src\misc\lv_color.h ****     LV_COLOR_SET_R16(ret, LV_COLOR_GET_R(color) * 4);  /*(2^5 - 1)/(2^3 - 1) = 31/7 = 4*/
 361:c:\projects\paindrain\arduinolcd\test\pain drain\libraries\lvgl\src\misc\lv_color.h ****     LV_COLOR_SET_G16(ret, LV_COLOR_GET_G(color) * 9);  /*(2^6 - 1)/(2^3 - 1) = 63/7 = 9*/
 362:c:\projects\paindrain\arduinolcd\test\pain drain\libraries\lvgl\src\misc\lv_color.h ****     LV_COLOR_SET_B16(ret, LV_COLOR_GET_B(color) * 10); /*(2^5 - 1)/(2^2 - 1) = 31/3 = 10*/
 363:c:\projects\paindrain\arduinolcd\test\pain drain\libraries\lvgl\src\misc\lv_color.h ****     return ret.full;
 364:c:\projects\paindrain\arduinolcd\test\pain drain\libraries\lvgl\src\misc\lv_color.h **** #elif LV_COLOR_DEPTH == 16
 365:c:\projects\paindrain\arduinolcd\test\pain drain\libraries\lvgl\src\misc\lv_color.h ****     return color.full;
 366:c:\projects\paindrain\arduinolcd\test\pain drain\libraries\lvgl\src\misc\lv_color.h **** #elif LV_COLOR_DEPTH == 32
 367:c:\projects\paindrain\arduinolcd\test\pain drain\libraries\lvgl\src\misc\lv_color.h ****     lv_color16_t ret;
 368:c:\projects\paindrain\arduinolcd\test\pain drain\libraries\lvgl\src\misc\lv_color.h ****     LV_COLOR_SET_R16(ret, LV_COLOR_GET_R(color) >> 3); /*8 - 5  = 3*/
 369:c:\projects\paindrain\arduinolcd\test\pain drain\libraries\lvgl\src\misc\lv_color.h ****     LV_COLOR_SET_G16(ret, LV_COLOR_GET_G(color) >> 2); /*8 - 6  = 2*/
 370:c:\projects\paindrain\arduinolcd\test\pain drain\libraries\lvgl\src\misc\lv_color.h ****     LV_COLOR_SET_B16(ret, LV_COLOR_GET_B(color) >> 3); /*8 - 5  = 3*/
 371:c:\projects\paindrain\arduinolcd\test\pain drain\libraries\lvgl\src\misc\lv_color.h ****     return ret.full;
 372:c:\projects\paindrain\arduinolcd\test\pain drain\libraries\lvgl\src\misc\lv_color.h **** #endif
 373:c:\projects\paindrain\arduinolcd\test\pain drain\libraries\lvgl\src\misc\lv_color.h **** }
 374:c:\projects\paindrain\arduinolcd\test\pain drain\libraries\lvgl\src\misc\lv_color.h **** 
 375:c:\projects\paindrain\arduinolcd\test\pain drain\libraries\lvgl\src\misc\lv_color.h **** static inline uint32_t lv_color_to32(lv_color_t color)
 376:c:\projects\paindrain\arduinolcd\test\pain drain\libraries\lvgl\src\misc\lv_color.h **** {
ARM GAS  C:\Users\haske\AppData\Local\Temp\ccOknJt1.s 			page 36


 377:c:\projects\paindrain\arduinolcd\test\pain drain\libraries\lvgl\src\misc\lv_color.h **** #if LV_COLOR_DEPTH == 1
 378:c:\projects\paindrain\arduinolcd\test\pain drain\libraries\lvgl\src\misc\lv_color.h ****     if(color.full == 0)
 379:c:\projects\paindrain\arduinolcd\test\pain drain\libraries\lvgl\src\misc\lv_color.h ****         return 0xFF000000;
 380:c:\projects\paindrain\arduinolcd\test\pain drain\libraries\lvgl\src\misc\lv_color.h ****     else
 381:c:\projects\paindrain\arduinolcd\test\pain drain\libraries\lvgl\src\misc\lv_color.h ****         return 0xFFFFFFFF;
 382:c:\projects\paindrain\arduinolcd\test\pain drain\libraries\lvgl\src\misc\lv_color.h **** #elif LV_COLOR_DEPTH == 8
 383:c:\projects\paindrain\arduinolcd\test\pain drain\libraries\lvgl\src\misc\lv_color.h ****     lv_color32_t ret;
 384:c:\projects\paindrain\arduinolcd\test\pain drain\libraries\lvgl\src\misc\lv_color.h ****     LV_COLOR_SET_R32(ret, LV_COLOR_GET_R(color) * 36); /*(2^8 - 1)/(2^3 - 1) = 255/7 = 36*/
 385:c:\projects\paindrain\arduinolcd\test\pain drain\libraries\lvgl\src\misc\lv_color.h ****     LV_COLOR_SET_G32(ret, LV_COLOR_GET_G(color) * 36); /*(2^8 - 1)/(2^3 - 1) = 255/7 = 36*/
 386:c:\projects\paindrain\arduinolcd\test\pain drain\libraries\lvgl\src\misc\lv_color.h ****     LV_COLOR_SET_B32(ret, LV_COLOR_GET_B(color) * 85); /*(2^8 - 1)/(2^2 - 1) = 255/3 = 85*/
 387:c:\projects\paindrain\arduinolcd\test\pain drain\libraries\lvgl\src\misc\lv_color.h ****     LV_COLOR_SET_A32(ret, 0xFF);
 388:c:\projects\paindrain\arduinolcd\test\pain drain\libraries\lvgl\src\misc\lv_color.h ****     return ret.full;
 389:c:\projects\paindrain\arduinolcd\test\pain drain\libraries\lvgl\src\misc\lv_color.h **** #elif LV_COLOR_DEPTH == 16
 390:c:\projects\paindrain\arduinolcd\test\pain drain\libraries\lvgl\src\misc\lv_color.h ****     /**
 391:c:\projects\paindrain\arduinolcd\test\pain drain\libraries\lvgl\src\misc\lv_color.h ****      * The floating point math for conversion is:
 392:c:\projects\paindrain\arduinolcd\test\pain drain\libraries\lvgl\src\misc\lv_color.h ****      *  valueto = valuefrom * ( (2^bitsto - 1) / (float)(2^bitsfrom - 1) )
 393:c:\projects\paindrain\arduinolcd\test\pain drain\libraries\lvgl\src\misc\lv_color.h ****      * The faster integer math for conversion is:
 394:c:\projects\paindrain\arduinolcd\test\pain drain\libraries\lvgl\src\misc\lv_color.h ****      *  valueto = ( valuefrom * multiplier + adder ) >> divisor
 395:c:\projects\paindrain\arduinolcd\test\pain drain\libraries\lvgl\src\misc\lv_color.h ****      *   multiplier = FLOOR( ( (2^bitsto - 1) << divisor ) / (float)(2^bitsfrom - 1) )
 396:c:\projects\paindrain\arduinolcd\test\pain drain\libraries\lvgl\src\misc\lv_color.h ****      *
 397:c:\projects\paindrain\arduinolcd\test\pain drain\libraries\lvgl\src\misc\lv_color.h ****      * Find the first divisor where ( adder >> divisor ) <= 0
 398:c:\projects\paindrain\arduinolcd\test\pain drain\libraries\lvgl\src\misc\lv_color.h ****      *
 399:c:\projects\paindrain\arduinolcd\test\pain drain\libraries\lvgl\src\misc\lv_color.h ****      * 5-bit to 8-bit: ( 31 * multiplier + adder ) >> divisor = 255
 400:c:\projects\paindrain\arduinolcd\test\pain drain\libraries\lvgl\src\misc\lv_color.h ****      * divisor  multiplier  adder  min (0)  max (31)
 401:c:\projects\paindrain\arduinolcd\test\pain drain\libraries\lvgl\src\misc\lv_color.h ****      *       0           8      7        7       255
 402:c:\projects\paindrain\arduinolcd\test\pain drain\libraries\lvgl\src\misc\lv_color.h ****      *       1          16     14        7       255
 403:c:\projects\paindrain\arduinolcd\test\pain drain\libraries\lvgl\src\misc\lv_color.h ****      *       2          32     28        7       255
 404:c:\projects\paindrain\arduinolcd\test\pain drain\libraries\lvgl\src\misc\lv_color.h ****      *       3          65     25        3       255
 405:c:\projects\paindrain\arduinolcd\test\pain drain\libraries\lvgl\src\misc\lv_color.h ****      *       4         131     19        1       255
 406:c:\projects\paindrain\arduinolcd\test\pain drain\libraries\lvgl\src\misc\lv_color.h ****      *       5         263      7        0       255
 407:c:\projects\paindrain\arduinolcd\test\pain drain\libraries\lvgl\src\misc\lv_color.h ****      *
 408:c:\projects\paindrain\arduinolcd\test\pain drain\libraries\lvgl\src\misc\lv_color.h ****      * 6-bit to 8-bit: 255 = ( 63 * multiplier + adder ) >> divisor
 409:c:\projects\paindrain\arduinolcd\test\pain drain\libraries\lvgl\src\misc\lv_color.h ****      * divisor  multiplier  adder  min (0)  max (63)
 410:c:\projects\paindrain\arduinolcd\test\pain drain\libraries\lvgl\src\misc\lv_color.h ****      *       0           4      3        3       255
 411:c:\projects\paindrain\arduinolcd\test\pain drain\libraries\lvgl\src\misc\lv_color.h ****      *       1           8      6        3       255
 412:c:\projects\paindrain\arduinolcd\test\pain drain\libraries\lvgl\src\misc\lv_color.h ****      *       2          16     12        3       255
 413:c:\projects\paindrain\arduinolcd\test\pain drain\libraries\lvgl\src\misc\lv_color.h ****      *       3          32     24        3       255
 414:c:\projects\paindrain\arduinolcd\test\pain drain\libraries\lvgl\src\misc\lv_color.h ****      *       4          64     48        3       255
 415:c:\projects\paindrain\arduinolcd\test\pain drain\libraries\lvgl\src\misc\lv_color.h ****      *       5         129     33        1       255
 416:c:\projects\paindrain\arduinolcd\test\pain drain\libraries\lvgl\src\misc\lv_color.h ****      *       6         259      3        0       255
 417:c:\projects\paindrain\arduinolcd\test\pain drain\libraries\lvgl\src\misc\lv_color.h ****      */
 418:c:\projects\paindrain\arduinolcd\test\pain drain\libraries\lvgl\src\misc\lv_color.h **** 
 419:c:\projects\paindrain\arduinolcd\test\pain drain\libraries\lvgl\src\misc\lv_color.h ****     lv_color32_t ret;
 420:c:\projects\paindrain\arduinolcd\test\pain drain\libraries\lvgl\src\misc\lv_color.h ****     LV_COLOR_SET_R32(ret, (LV_COLOR_GET_R(color) * 263 + 7) >> 5);
 421:c:\projects\paindrain\arduinolcd\test\pain drain\libraries\lvgl\src\misc\lv_color.h ****     LV_COLOR_SET_G32(ret, (LV_COLOR_GET_G(color) * 259 + 3) >> 6);
 422:c:\projects\paindrain\arduinolcd\test\pain drain\libraries\lvgl\src\misc\lv_color.h ****     LV_COLOR_SET_B32(ret, (LV_COLOR_GET_B(color) * 263 + 7) >> 5);
 423:c:\projects\paindrain\arduinolcd\test\pain drain\libraries\lvgl\src\misc\lv_color.h ****     LV_COLOR_SET_A32(ret, 0xFF);
 424:c:\projects\paindrain\arduinolcd\test\pain drain\libraries\lvgl\src\misc\lv_color.h ****     return ret.full;
 425:c:\projects\paindrain\arduinolcd\test\pain drain\libraries\lvgl\src\misc\lv_color.h **** #elif LV_COLOR_DEPTH == 32
 426:c:\projects\paindrain\arduinolcd\test\pain drain\libraries\lvgl\src\misc\lv_color.h ****     return color.full;
 427:c:\projects\paindrain\arduinolcd\test\pain drain\libraries\lvgl\src\misc\lv_color.h **** #endif
 428:c:\projects\paindrain\arduinolcd\test\pain drain\libraries\lvgl\src\misc\lv_color.h **** }
 429:c:\projects\paindrain\arduinolcd\test\pain drain\libraries\lvgl\src\misc\lv_color.h **** 
 430:c:\projects\paindrain\arduinolcd\test\pain drain\libraries\lvgl\src\misc\lv_color.h **** //! @cond Doxygen_Suppress
 431:c:\projects\paindrain\arduinolcd\test\pain drain\libraries\lvgl\src\misc\lv_color.h **** 
 432:c:\projects\paindrain\arduinolcd\test\pain drain\libraries\lvgl\src\misc\lv_color.h **** /**
 433:c:\projects\paindrain\arduinolcd\test\pain drain\libraries\lvgl\src\misc\lv_color.h ****  * Mix two colors with a given ratio.
ARM GAS  C:\Users\haske\AppData\Local\Temp\ccOknJt1.s 			page 37


 434:c:\projects\paindrain\arduinolcd\test\pain drain\libraries\lvgl\src\misc\lv_color.h ****  * @param c1 the first color to mix (usually the foreground)
 435:c:\projects\paindrain\arduinolcd\test\pain drain\libraries\lvgl\src\misc\lv_color.h ****  * @param c2 the second color to mix (usually the background)
 436:c:\projects\paindrain\arduinolcd\test\pain drain\libraries\lvgl\src\misc\lv_color.h ****  * @param mix The ratio of the colors. 0: full `c2`, 255: full `c1`, 127: half `c1` and half`c2`
 437:c:\projects\paindrain\arduinolcd\test\pain drain\libraries\lvgl\src\misc\lv_color.h ****  * @return the mixed color
 438:c:\projects\paindrain\arduinolcd\test\pain drain\libraries\lvgl\src\misc\lv_color.h ****  */
 439:c:\projects\paindrain\arduinolcd\test\pain drain\libraries\lvgl\src\misc\lv_color.h **** LV_ATTRIBUTE_FAST_MEM static inline lv_color_t lv_color_mix(lv_color_t c1, lv_color_t c2, uint8_t m
 440:c:\projects\paindrain\arduinolcd\test\pain drain\libraries\lvgl\src\misc\lv_color.h **** {
 441:c:\projects\paindrain\arduinolcd\test\pain drain\libraries\lvgl\src\misc\lv_color.h ****     lv_color_t ret;
 442:c:\projects\paindrain\arduinolcd\test\pain drain\libraries\lvgl\src\misc\lv_color.h **** 
 443:c:\projects\paindrain\arduinolcd\test\pain drain\libraries\lvgl\src\misc\lv_color.h **** #if LV_COLOR_DEPTH == 16 && LV_COLOR_16_SWAP == 0 && LV_COLOR_MIX_ROUND_OFS == 0
 444:c:\projects\paindrain\arduinolcd\test\pain drain\libraries\lvgl\src\misc\lv_color.h ****     /*Source: https://stackoverflow.com/a/50012418/1999969*/
 445:c:\projects\paindrain\arduinolcd\test\pain drain\libraries\lvgl\src\misc\lv_color.h ****     mix = (uint32_t)((uint32_t)mix + 4) >> 3;
 1036              		.loc 2 445 0
 1037 027e 0B9E     		ldr	r6, [sp, #44]
 1038 0280 FF22     		movs	r2, #255
 1039 0282 1640     		ands	r6, r2
 1040 0284 321D     		adds	r2, r6, #4
 1041 0286 D708     		lsrs	r7, r2, #3
 1042              	.LVL157:
 446:c:\projects\paindrain\arduinolcd\test\pain drain\libraries\lvgl\src\misc\lv_color.h ****     uint32_t bg = (uint32_t)((uint32_t)c2.full | ((uint32_t)c2.full << 16)) &
 1043              		.loc 2 446 0
 1044 0288 6A46     		mov	r2, sp
 1045 028a 9288     		ldrh	r2, [r2, #4]
 1046 028c 1604     		lsls	r6, r2, #16
 1047 028e 3243     		orrs	r2, r6
 1048 0290 514E     		ldr	r6, .L63
 1049 0292 3240     		ands	r2, r6
 1050 0294 9046     		mov	r8, r2
 1051              	.LVL158:
 447:c:\projects\paindrain\arduinolcd\test\pain drain\libraries\lvgl\src\misc\lv_color.h ****                   0x7E0F81F; /*0b00000111111000001111100000011111*/
 448:c:\projects\paindrain\arduinolcd\test\pain drain\libraries\lvgl\src\misc\lv_color.h ****     uint32_t fg = (uint32_t)((uint32_t)c1.full | ((uint32_t)c1.full << 16)) & 0x7E0F81F;
 1052              		.loc 2 448 0
 1053 0296 9BB2     		uxth	r3, r3
 1054              	.LVL159:
 1055 0298 1A04     		lsls	r2, r3, #16
 1056              	.LVL160:
 1057 029a 1343     		orrs	r3, r2
 1058 029c 3340     		ands	r3, r6
 1059              	.LVL161:
 449:c:\projects\paindrain\arduinolcd\test\pain drain\libraries\lvgl\src\misc\lv_color.h ****     uint32_t result = ((((fg - bg) * mix) >> 5) + bg) & 0x7E0F81F;
 1060              		.loc 2 449 0
 1061 029e 4246     		mov	r2, r8
 1062 02a0 9B1A     		subs	r3, r3, r2
 1063              	.LVL162:
 1064 02a2 FF22     		movs	r2, #255
 1065 02a4 3A40     		ands	r2, r7
 1066 02a6 5343     		muls	r3, r2
 1067 02a8 5B09     		lsrs	r3, r3, #5
 1068 02aa 4344     		add	r3, r3, r8
 1069 02ac 3340     		ands	r3, r6
 1070              	.LVL163:
 450:c:\projects\paindrain\arduinolcd\test\pain drain\libraries\lvgl\src\misc\lv_color.h ****     ret.full = (uint16_t)((result >> 16) | result);
 1071              		.loc 2 450 0
 1072 02ae 1A0C     		lsrs	r2, r3, #16
 1073 02b0 1343     		orrs	r3, r2
 1074              	.LVL164:
 1075 02b2 9BB2     		uxth	r3, r3
ARM GAS  C:\Users\haske\AppData\Local\Temp\ccOknJt1.s 			page 38


 1076 02b4 1C00     		movs	r4, r3
 1077              	.LVL165:
 1078              	.LBE29:
 1079              	.LBE28:
 1080              	.LBB30:
 1081              	.LBB31:
 445:c:\projects\paindrain\arduinolcd\test\pain drain\libraries\lvgl\src\misc\lv_color.h ****     uint32_t bg = (uint32_t)((uint32_t)c2.full | ((uint32_t)c2.full << 16)) &
 1082              		.loc 2 445 0
 1083 02b6 099A     		ldr	r2, [sp, #36]
 1084 02b8 FF23     		movs	r3, #255
 1085 02ba 1A40     		ands	r2, r3
 1086 02bc 0432     		adds	r2, r2, #4
 1087 02be D208     		lsrs	r2, r2, #3
 1088              	.LVL166:
 448:c:\projects\paindrain\arduinolcd\test\pain drain\libraries\lvgl\src\misc\lv_color.h ****     uint32_t result = ((((fg - bg) * mix) >> 5) + bg) & 0x7E0F81F;
 1089              		.loc 2 448 0
 1090 02c0 6B46     		mov	r3, sp
 1091 02c2 1F89     		ldrh	r7, [r3, #8]
 1092 02c4 3B04     		lsls	r3, r7, #16
 1093 02c6 3B43     		orrs	r3, r7
 1094 02c8 3340     		ands	r3, r6
 1095              	.LVL167:
 449:c:\projects\paindrain\arduinolcd\test\pain drain\libraries\lvgl\src\misc\lv_color.h ****     ret.full = (uint16_t)((result >> 16) | result);
 1096              		.loc 2 449 0
 1097 02ca 4746     		mov	r7, r8
 1098 02cc DB1B     		subs	r3, r3, r7
 1099              	.LVL168:
 1100 02ce FF27     		movs	r7, #255
 1101 02d0 3A40     		ands	r2, r7
 1102              	.LVL169:
 1103 02d2 5343     		muls	r3, r2
 1104 02d4 5B09     		lsrs	r3, r3, #5
 1105 02d6 4344     		add	r3, r3, r8
 1106 02d8 3340     		ands	r3, r6
 1107              	.LVL170:
 1108              		.loc 2 450 0
 1109 02da 1A0C     		lsrs	r2, r3, #16
 1110 02dc 1A43     		orrs	r2, r3
 1111 02de 92B2     		uxth	r2, r2
 1112              	.LVL171:
 1113              	.LBE31:
 1114              	.LBE30:
 1115              	.LBB32:
 1116              	.LBB33:
 446:c:\projects\paindrain\arduinolcd\test\pain drain\libraries\lvgl\src\misc\lv_color.h ****                   0x7E0F81F; /*0b00000111111000001111100000011111*/
 1117              		.loc 2 446 0
 1118 02e0 2704     		lsls	r7, r4, #16
 1119 02e2 2743     		orrs	r7, r4
 1120 02e4 3B00     		movs	r3, r7
 1121 02e6 3340     		ands	r3, r6
 1122              	.LVL172:
 448:c:\projects\paindrain\arduinolcd\test\pain drain\libraries\lvgl\src\misc\lv_color.h ****     uint32_t result = ((((fg - bg) * mix) >> 5) + bg) & 0x7E0F81F;
 1123              		.loc 2 448 0
 1124 02e8 1704     		lsls	r7, r2, #16
 1125 02ea 3A43     		orrs	r2, r7
 1126 02ec 3240     		ands	r2, r6
 1127              	.LVL173:
ARM GAS  C:\Users\haske\AppData\Local\Temp\ccOknJt1.s 			page 39


 449:c:\projects\paindrain\arduinolcd\test\pain drain\libraries\lvgl\src\misc\lv_color.h ****     ret.full = (uint16_t)((result >> 16) | result);
 1128              		.loc 2 449 0
 1129 02ee D21A     		subs	r2, r2, r3
 1130              	.LVL174:
 1131 02f0 1201     		lsls	r2, r2, #4
 1132 02f2 5209     		lsrs	r2, r2, #5
 1133 02f4 9A18     		adds	r2, r3, r2
 1134 02f6 1640     		ands	r6, r2
 1135              	.LVL175:
 1136              		.loc 2 450 0
 1137 02f8 320C     		lsrs	r2, r6, #16
 1138 02fa 1643     		orrs	r6, r2
 1139              	.LVL176:
 1140              	.LBE33:
 1141              	.LBE32:
 427:..\..\..\arduinoLCD\test\Pain Drain\libraries\lvgl\src\draw\sw/lv_draw_sw_transform.c ****             }
 1142              		.loc 1 427 0
 1143 02fc 4B00     		lsls	r3, r1, #1
 1144 02fe 1D9A     		ldr	r2, [sp, #116]
 1145 0300 D652     		strh	r6, [r2, r3]
 1146              	.LBE25:
 348:..\..\..\arduinoLCD\test\Pain Drain\libraries\lvgl\src\draw\sw/lv_draw_sw_transform.c **** 
 1147              		.loc 1 348 0
 1148 0302 5DE0     		b	.L28
 1149              	.LVL177:
 1150              	.L33:
 1151              	.LBB34:
 435:..\..\..\arduinoLCD\test\Pain Drain\libraries\lvgl\src\draw\sw/lv_draw_sw_transform.c **** #elif LV_COLOR_DEPTH == 32
 1152              		.loc 1 435 0
 1153 0304 0891     		str	r1, [sp, #32]
 1154 0306 029E     		ldr	r6, [sp, #8]
 1155 0308 3478     		ldrb	r4, [r6]
 1156 030a A046     		mov	r8, r4
 1157 030c 7778     		ldrb	r7, [r6, #1]
 1158 030e 3F02     		lsls	r7, r7, #8
 1159 0310 B844     		add	r8, r8, r7
 1160 0312 4446     		mov	r4, r8
 1161 0314 6E46     		mov	r6, sp
 1162 0316 3483     		strh	r4, [r6, #24]
 1163 0318 348B     		ldrh	r4, [r6, #24]
 1164 031a A046     		mov	r8, r4
 1165 031c 4F00     		lsls	r7, r1, #1
 1166 031e 1D9C     		ldr	r4, [sp, #116]
 1167 0320 4646     		mov	r6, r8
 1168 0322 E653     		strh	r6, [r4, r7]
 440:..\..\..\arduinoLCD\test\Pain Drain\libraries\lvgl\src\draw\sw/lv_draw_sw_transform.c ****                 case LV_IMG_CF_TRUE_COLOR_ALPHA:
 1169              		.loc 1 440 0
 1170 0324 5446     		mov	r4, r10
 1171 0326 062C     		cmp	r4, #6
 1172 0328 06D0     		beq	.L46
 1173 032a 142C     		cmp	r4, #20
 1174 032c 0AD0     		beq	.L47
 1175 032e 052C     		cmp	r4, #5
 1176 0330 13D1     		bne	.L62
 442:..\..\..\arduinoLCD\test\Pain Drain\libraries\lvgl\src\draw\sw/lv_draw_sw_transform.c ****                     break;
 1177              		.loc 1 442 0
 1178 0332 029C     		ldr	r4, [sp, #8]
ARM GAS  C:\Users\haske\AppData\Local\Temp\ccOknJt1.s 			page 40


 1179 0334 A778     		ldrb	r7, [r4, #2]
 1180              	.LVL178:
 443:..\..\..\arduinoLCD\test\Pain Drain\libraries\lvgl\src\draw\sw/lv_draw_sw_transform.c ****                 case LV_IMG_CF_TRUE_COLOR_CHROMA_KEYED:
 1181              		.loc 1 443 0
 1182 0336 13E0     		b	.L45
 1183              	.LVL179:
 1184              	.L46:
 445:..\..\..\arduinoLCD\test\Pain Drain\libraries\lvgl\src\draw\sw/lv_draw_sw_transform.c ****                     break;
 1185              		.loc 1 445 0
 1186 0338 6C46     		mov	r4, sp
 1187 033a 668D     		ldrh	r6, [r4, #42]
 1188 033c B045     		cmp	r8, r6
 1189 033e 0ED1     		bne	.L61
 1190 0340 0027     		movs	r7, #0
 1191 0342 0DE0     		b	.L45
 1192              	.L47:
 449:..\..\..\arduinoLCD\test\Pain Drain\libraries\lvgl\src\draw\sw/lv_draw_sw_transform.c ****                     break;
 1193              		.loc 1 449 0
 1194 0344 039E     		ldr	r6, [sp, #12]
 1195 0346 009C     		ldr	r4, [sp]
 1196 0348 6643     		muls	r6, r4
 1197 034a 7600     		lsls	r6, r6, #1
 1198 034c 0C9C     		ldr	r4, [sp, #48]
 1199 034e A046     		mov	r8, r4
 1200 0350 4644     		add	r6, r6, r8
 1201 0352 9E19     		adds	r6, r3, r6
 1202 0354 049C     		ldr	r4, [sp, #16]
 1203 0356 A75D     		ldrb	r7, [r4, r6]
 1204              	.LVL180:
 450:..\..\..\arduinoLCD\test\Pain Drain\libraries\lvgl\src\draw\sw/lv_draw_sw_transform.c **** #endif
 1205              		.loc 1 450 0
 1206 0358 02E0     		b	.L45
 1207              	.LVL181:
 1208              	.L62:
 453:..\..\..\arduinoLCD\test\Pain Drain\libraries\lvgl\src\draw\sw/lv_draw_sw_transform.c ****             }
 1209              		.loc 1 453 0
 1210 035a FF27     		movs	r7, #255
 1211 035c 00E0     		b	.L45
 1212              	.L61:
 445:..\..\..\arduinoLCD\test\Pain Drain\libraries\lvgl\src\draw\sw/lv_draw_sw_transform.c ****                     break;
 1213              		.loc 1 445 0
 1214 035e FF27     		movs	r7, #255
 1215              	.L45:
 1216              	.LVL182:
 456:..\..\..\arduinoLCD\test\Pain Drain\libraries\lvgl\src\draw\sw/lv_draw_sw_transform.c ****                 abuf[x] = (a * (0xFF - xs_fract)) >> 8;
 1217              		.loc 1 456 0
 1218 0360 002B     		cmp	r3, #0
 1219 0362 02D1     		bne	.L49
 456:..\..\..\arduinoLCD\test\Pain Drain\libraries\lvgl\src\draw\sw/lv_draw_sw_transform.c ****                 abuf[x] = (a * (0xFF - xs_fract)) >> 8;
 1220              		.loc 1 456 0 is_stmt 0 discriminator 1
 1221 0364 019C     		ldr	r4, [sp, #4]
 1222 0366 002C     		cmp	r4, #0
 1223 0368 06DB     		blt	.L50
 1224              	.L49:
 456:..\..\..\arduinoLCD\test\Pain Drain\libraries\lvgl\src\draw\sw/lv_draw_sw_transform.c ****                 abuf[x] = (a * (0xFF - xs_fract)) >> 8;
 1225              		.loc 1 456 0 discriminator 3
 1226 036a 6446     		mov	r4, ip
ARM GAS  C:\Users\haske\AppData\Local\Temp\ccOknJt1.s 			page 41


 1227 036c 661E     		subs	r6, r4, #1
 1228 036e B342     		cmp	r3, r6
 1229 0370 0BD1     		bne	.L51
 456:..\..\..\arduinoLCD\test\Pain Drain\libraries\lvgl\src\draw\sw/lv_draw_sw_transform.c ****                 abuf[x] = (a * (0xFF - xs_fract)) >> 8;
 1230              		.loc 1 456 0 discriminator 4
 1231 0372 019B     		ldr	r3, [sp, #4]
 1232              	.LVL183:
 1233 0374 002B     		cmp	r3, #0
 1234 0376 08DD     		ble	.L51
 1235              	.L50:
 457:..\..\..\arduinoLCD\test\Pain Drain\libraries\lvgl\src\draw\sw/lv_draw_sw_transform.c ****             }
 1236              		.loc 1 457 0 is_stmt 1
 1237 0378 FF22     		movs	r2, #255
 1238              	.LVL184:
 1239 037a 099B     		ldr	r3, [sp, #36]
 1240 037c D21A     		subs	r2, r2, r3
 1241 037e 5743     		muls	r7, r2
 1242              	.LVL185:
 1243 0380 3F12     		asrs	r7, r7, #8
 1244 0382 1E9B     		ldr	r3, [sp, #120]
 1245 0384 089A     		ldr	r2, [sp, #32]
 1246 0386 9F54     		strb	r7, [r3, r2]
 1247 0388 1AE0     		b	.L28
 1248              	.LVL186:
 1249              	.L51:
 459:..\..\..\arduinoLCD\test\Pain Drain\libraries\lvgl\src\draw\sw/lv_draw_sw_transform.c ****                 abuf[x] = (a * (0xFF - ys_fract)) >> 8;
 1250              		.loc 1 459 0
 1251 038a 002A     		cmp	r2, #0
 1252 038c 02D1     		bne	.L52
 459:..\..\..\arduinoLCD\test\Pain Drain\libraries\lvgl\src\draw\sw/lv_draw_sw_transform.c ****                 abuf[x] = (a * (0xFF - ys_fract)) >> 8;
 1253              		.loc 1 459 0 is_stmt 0 discriminator 1
 1254 038e 059B     		ldr	r3, [sp, #20]
 1255 0390 002B     		cmp	r3, #0
 1256 0392 06DB     		blt	.L53
 1257              	.L52:
 459:..\..\..\arduinoLCD\test\Pain Drain\libraries\lvgl\src\draw\sw/lv_draw_sw_transform.c ****                 abuf[x] = (a * (0xFF - ys_fract)) >> 8;
 1258              		.loc 1 459 0 discriminator 3
 1259 0394 009B     		ldr	r3, [sp]
 1260 0396 013B     		subs	r3, r3, #1
 1261 0398 9A42     		cmp	r2, r3
 1262 039a 0BD1     		bne	.L54
 459:..\..\..\arduinoLCD\test\Pain Drain\libraries\lvgl\src\draw\sw/lv_draw_sw_transform.c ****                 abuf[x] = (a * (0xFF - ys_fract)) >> 8;
 1263              		.loc 1 459 0 discriminator 4
 1264 039c 059B     		ldr	r3, [sp, #20]
 1265 039e 002B     		cmp	r3, #0
 1266 03a0 08DD     		ble	.L54
 1267              	.L53:
 460:..\..\..\arduinoLCD\test\Pain Drain\libraries\lvgl\src\draw\sw/lv_draw_sw_transform.c ****             }
 1268              		.loc 1 460 0 is_stmt 1
 1269 03a2 FF23     		movs	r3, #255
 1270 03a4 0B9A     		ldr	r2, [sp, #44]
 1271              	.LVL187:
 1272 03a6 9B1A     		subs	r3, r3, r2
 1273 03a8 5F43     		muls	r7, r3
 1274              	.LVL188:
 1275 03aa 3F12     		asrs	r7, r7, #8
 1276 03ac 1E9B     		ldr	r3, [sp, #120]
ARM GAS  C:\Users\haske\AppData\Local\Temp\ccOknJt1.s 			page 42


 1277 03ae 089A     		ldr	r2, [sp, #32]
 1278 03b0 9F54     		strb	r7, [r3, r2]
 1279 03b2 05E0     		b	.L28
 1280              	.LVL189:
 1281              	.L54:
 463:..\..\..\arduinoLCD\test\Pain Drain\libraries\lvgl\src\draw\sw/lv_draw_sw_transform.c ****             }
 1282              		.loc 1 463 0
 1283 03b4 089B     		ldr	r3, [sp, #32]
 1284 03b6 1E9A     		ldr	r2, [sp, #120]
 1285              	.LVL190:
 1286 03b8 9046     		mov	r8, r2
 1287 03ba 4344     		add	r3, r3, r8
 1288 03bc 0022     		movs	r2, #0
 1289 03be 1A70     		strb	r2, [r3]
 1290              	.LVL191:
 1291              	.L28:
 1292              	.LBE34:
 1293              	.LBE24:
 304:..\..\..\arduinoLCD\test\Pain Drain\libraries\lvgl\src\draw\sw/lv_draw_sw_transform.c ****         xs_ups = xs_ups_start + ((xs_step * x) >> 8);
 1294              		.loc 1 304 0 discriminator 2
 1295 03c0 0131     		adds	r1, r1, #1
 1296              	.LVL192:
 1297 03c2 09B2     		sxth	r1, r1
 1298              	.LVL193:
 1299              	.L25:
 304:..\..\..\arduinoLCD\test\Pain Drain\libraries\lvgl\src\draw\sw/lv_draw_sw_transform.c ****         xs_ups = xs_ups_start + ((xs_step * x) >> 8);
 1300              		.loc 1 304 0 is_stmt 0 discriminator 1
 1301 03c4 8142     		cmp	r1, r0
 1302 03c6 00DA     		bge	.LCB1487
 1303 03c8 63E6     		b	.L55	@long jump
 1304              	.LCB1487:
 1305              	.LVL194:
 1306              	.L18:
 467:..\..\..\arduinoLCD\test\Pain Drain\libraries\lvgl\src\draw\sw/lv_draw_sw_transform.c **** 
 1307              		.loc 1 467 0 is_stmt 1
 1308 03ca 0FB0     		add	sp, sp, #60
 1309              		@ sp needed
 1310              	.LVL195:
 1311 03cc 3CBC     		pop	{r2, r3, r4, r5}
 1312 03ce 9046     		mov	r8, r2
 1313 03d0 9946     		mov	r9, r3
 1314 03d2 A246     		mov	r10, r4
 1315 03d4 AB46     		mov	fp, r5
 1316 03d6 F0BD     		pop	{r4, r5, r6, r7, pc}
 1317              	.L64:
 1318              		.align	2
 1319              	.L63:
 1320 03d8 1FF8E007 		.word	132184095
 1321              		.cfi_endproc
 1322              	.LFE163:
 1323              		.size	argb_and_rgb_aa, .-argb_and_rgb_aa
 1324              		.section	.text.rgb_no_aa,"ax",%progbits
 1325              		.align	2
 1326              		.code	16
 1327              		.thumb_func
 1328              		.type	rgb_no_aa, %function
 1329              	rgb_no_aa:
ARM GAS  C:\Users\haske\AppData\Local\Temp\ccOknJt1.s 			page 43


 1330              	.LFB160:
 163:..\..\..\arduinoLCD\test\Pain Drain\libraries\lvgl\src\draw\sw/lv_draw_sw_transform.c ****     int32_t xs_ups_start = xs_ups;
 1331              		.loc 1 163 0
 1332              		.cfi_startproc
 1333              		@ args = 32, pretend = 0, frame = 16
 1334              		@ frame_needed = 0, uses_anonymous_args = 0
 1335              	.LVL196:
 1336 0000 F0B5     		push	{r4, r5, r6, r7, lr}
 1337              		.cfi_def_cfa_offset 20
 1338              		.cfi_offset 4, -20
 1339              		.cfi_offset 5, -16
 1340              		.cfi_offset 6, -12
 1341              		.cfi_offset 7, -8
 1342              		.cfi_offset 14, -4
 1343 0002 5F46     		mov	r7, fp
 1344 0004 5646     		mov	r6, r10
 1345 0006 4D46     		mov	r5, r9
 1346 0008 4446     		mov	r4, r8
 1347 000a F0B4     		push	{r4, r5, r6, r7}
 1348              		.cfi_def_cfa_offset 36
 1349              		.cfi_offset 8, -36
 1350              		.cfi_offset 9, -32
 1351              		.cfi_offset 10, -28
 1352              		.cfi_offset 11, -24
 1353 000c 85B0     		sub	sp, sp, #20
 1354              		.cfi_def_cfa_offset 56
 1355 000e 0290     		str	r0, [sp, #8]
 1356 0010 8B46     		mov	fp, r1
 1357 0012 0192     		str	r2, [sp, #4]
 1358 0014 0393     		str	r3, [sp, #12]
 1359 0016 0E9B     		ldr	r3, [sp, #56]
 1360              	.LVL197:
 1361 0018 9A46     		mov	r10, r3
 1362 001a 0F9B     		ldr	r3, [sp, #60]
 1363 001c 9946     		mov	r9, r3
 1364 001e 109B     		ldr	r3, [sp, #64]
 1365 0020 9846     		mov	r8, r3
 1366 0022 119F     		ldr	r7, [sp, #68]
 1367 0024 129C     		ldr	r4, [sp, #72]
 1368 0026 149D     		ldr	r5, [sp, #80]
 1369 0028 15AB     		add	r3, sp, #84
 1370              	.LVL198:
 1371 002a 1E78     		ldrb	r6, [r3]
 1372              	.LVL199:
 166:..\..\..\arduinoLCD\test\Pain Drain\libraries\lvgl\src\draw\sw/lv_draw_sw_transform.c ****     lv_color_t ck = d->driver->color_chroma_key;
 1373              		.loc 1 166 0
 1374 002c FFF7FEFF 		bl	_lv_refr_get_disp_refreshing
 1375              	.LVL200:
 167:..\..\..\arduinoLCD\test\Pain Drain\libraries\lvgl\src\draw\sw/lv_draw_sw_transform.c **** 
 1376              		.loc 1 167 0
 1377 0030 0368     		ldr	r3, [r0]
 1378 0032 1B8F     		ldrh	r3, [r3, #56]
 1379 0034 6A46     		mov	r2, sp
 1380              	.LVL201:
 1381 0036 5380     		strh	r3, [r2, #2]
 169:..\..\..\arduinoLCD\test\Pain Drain\libraries\lvgl\src\draw\sw/lv_draw_sw_transform.c **** 
 1382              		.loc 1 169 0
ARM GAS  C:\Users\haske\AppData\Local\Temp\ccOknJt1.s 			page 44


 1383 0038 2100     		movs	r1, r4
 1384 003a 2800     		movs	r0, r5
 1385              	.LVL202:
 1386 003c FFF7FEFF 		bl	lv_memset_ff
 1387              	.LVL203:
 172:..\..\..\arduinoLCD\test\Pain Drain\libraries\lvgl\src\draw\sw/lv_draw_sw_transform.c ****         xs_ups = xs_ups_start + ((xs_step * x) >> 8);
 1388              		.loc 1 172 0
 1389 0040 0021     		movs	r1, #0
 1390 0042 DC46     		mov	ip, fp
 1391 0044 D346     		mov	fp, r10
 1392 0046 4846     		mov	r0, r9
 1393 0048 A946     		mov	r9, r5
 1394              	.LVL204:
 1395 004a 4546     		mov	r5, r8
 1396 004c B046     		mov	r8, r6
 1397 004e 3E00     		movs	r6, r7
 1398 0050 38E0     		b	.L66
 1399              	.LVL205:
 1400              	.L71:
 1401              	.LBB35:
 173:..\..\..\arduinoLCD\test\Pain Drain\libraries\lvgl\src\draw\sw/lv_draw_sw_transform.c ****         ys_ups = ys_ups_start + ((ys_step * x) >> 8);
 1402              		.loc 1 173 0
 1403 0052 2B00     		movs	r3, r5
 1404 0054 4B43     		muls	r3, r1
 1405 0056 1B12     		asrs	r3, r3, #8
 1406 0058 5B44     		add	r3, r3, fp
 1407              	.LVL206:
 174:..\..\..\arduinoLCD\test\Pain Drain\libraries\lvgl\src\draw\sw/lv_draw_sw_transform.c **** 
 1408              		.loc 1 174 0
 1409 005a 3700     		movs	r7, r6
 1410 005c 4F43     		muls	r7, r1
 1411 005e 3F12     		asrs	r7, r7, #8
 1412 0060 C719     		adds	r7, r0, r7
 1413              	.LVL207:
 176:..\..\..\arduinoLCD\test\Pain Drain\libraries\lvgl\src\draw\sw/lv_draw_sw_transform.c ****         int32_t ys_int = ys_ups >> 8;
 1414              		.loc 1 176 0
 1415 0062 1B12     		asrs	r3, r3, #8
 1416              	.LVL208:
 177:..\..\..\arduinoLCD\test\Pain Drain\libraries\lvgl\src\draw\sw/lv_draw_sw_transform.c ****         if(xs_int < 0 || xs_int >= src_w || ys_int < 0 || ys_int >= src_h) {
 1417              		.loc 1 177 0
 1418 0064 3F12     		asrs	r7, r7, #8
 1419              	.LVL209:
 1420 0066 BA46     		mov	r10, r7
 1421              	.LVL210:
 178:..\..\..\arduinoLCD\test\Pain Drain\libraries\lvgl\src\draw\sw/lv_draw_sw_transform.c ****             abuf[x] = 0x00;
 1422              		.loc 1 178 0
 1423 0068 002B     		cmp	r3, #0
 1424 006a 06DB     		blt	.L67
 178:..\..\..\arduinoLCD\test\Pain Drain\libraries\lvgl\src\draw\sw/lv_draw_sw_transform.c ****             abuf[x] = 0x00;
 1425              		.loc 1 178 0 is_stmt 0 discriminator 1
 1426 006c 6345     		cmp	r3, ip
 1427 006e 04DA     		bge	.L67
 178:..\..\..\arduinoLCD\test\Pain Drain\libraries\lvgl\src\draw\sw/lv_draw_sw_transform.c ****             abuf[x] = 0x00;
 1428              		.loc 1 178 0 discriminator 2
 1429 0070 002F     		cmp	r7, #0
 1430 0072 02DB     		blt	.L67
 178:..\..\..\arduinoLCD\test\Pain Drain\libraries\lvgl\src\draw\sw/lv_draw_sw_transform.c ****             abuf[x] = 0x00;
ARM GAS  C:\Users\haske\AppData\Local\Temp\ccOknJt1.s 			page 45


 1431              		.loc 1 178 0 discriminator 3
 1432 0074 019F     		ldr	r7, [sp, #4]
 1433              	.LVL211:
 1434 0076 BA45     		cmp	r10, r7
 1435 0078 04DB     		blt	.L68
 1436              	.L67:
 179:..\..\..\arduinoLCD\test\Pain Drain\libraries\lvgl\src\draw\sw/lv_draw_sw_transform.c ****         }
 1437              		.loc 1 179 0 is_stmt 1
 1438 007a 4B46     		mov	r3, r9
 1439              	.LVL212:
 1440 007c 5B18     		adds	r3, r3, r1
 1441 007e 0027     		movs	r7, #0
 1442 0080 1F70     		strb	r7, [r3]
 1443 0082 0EE0     		b	.L69
 1444              	.LVL213:
 1445              	.L68:
 1446              	.LBB36:
 189:..\..\..\arduinoLCD\test\Pain Drain\libraries\lvgl\src\draw\sw/lv_draw_sw_transform.c ****             cbuf[x] = *src_tmp;
 1447              		.loc 1 189 0
 1448 0084 5746     		mov	r7, r10
 1449 0086 039A     		ldr	r2, [sp, #12]
 1450 0088 5743     		muls	r7, r2
 1451 008a BA46     		mov	r10, r7
 1452              	.LVL214:
 1453 008c 5344     		add	r3, r3, r10
 1454              	.LVL215:
 1455 008e 5B00     		lsls	r3, r3, #1
 1456 0090 9A46     		mov	r10, r3
 1457              	.LVL216:
 190:..\..\..\arduinoLCD\test\Pain Drain\libraries\lvgl\src\draw\sw/lv_draw_sw_transform.c **** #elif LV_COLOR_DEPTH == 32
 1458              		.loc 1 190 0
 1459 0092 4B00     		lsls	r3, r1, #1
 1460              	.LVL217:
 1461 0094 029A     		ldr	r2, [sp, #8]
 1462 0096 5746     		mov	r7, r10
 1463 0098 D25B     		ldrh	r2, [r2, r7]
 1464 009a 9246     		mov	r10, r2
 1465              	.LVL218:
 1466 009c 139A     		ldr	r2, [sp, #76]
 1467 009e 5746     		mov	r7, r10
 1468              	.LVL219:
 1469 00a0 D752     		strh	r7, [r2, r3]
 1470              	.LVL220:
 1471              	.L69:
 1472              	.LBE36:
 197:..\..\..\arduinoLCD\test\Pain Drain\libraries\lvgl\src\draw\sw/lv_draw_sw_transform.c ****             abuf[x] = 0x00;
 1473              		.loc 1 197 0
 1474 00a2 4346     		mov	r3, r8
 1475 00a4 062B     		cmp	r3, #6
 1476 00a6 0BD1     		bne	.L70
 197:..\..\..\arduinoLCD\test\Pain Drain\libraries\lvgl\src\draw\sw/lv_draw_sw_transform.c ****             abuf[x] = 0x00;
 1477              		.loc 1 197 0 is_stmt 0 discriminator 1
 1478 00a8 4B00     		lsls	r3, r1, #1
 1479 00aa 139F     		ldr	r7, [sp, #76]
 1480 00ac FB5A     		ldrh	r3, [r7, r3]
 1481 00ae 9A46     		mov	r10, r3
 1482 00b0 6B46     		mov	r3, sp
ARM GAS  C:\Users\haske\AppData\Local\Temp\ccOknJt1.s 			page 46


 1483 00b2 5B88     		ldrh	r3, [r3, #2]
 1484 00b4 9A45     		cmp	r10, r3
 1485 00b6 03D1     		bne	.L70
 198:..\..\..\arduinoLCD\test\Pain Drain\libraries\lvgl\src\draw\sw/lv_draw_sw_transform.c ****         }
 1486              		.loc 1 198 0 is_stmt 1
 1487 00b8 4B46     		mov	r3, r9
 1488 00ba 5B18     		adds	r3, r3, r1
 1489 00bc 0022     		movs	r2, #0
 1490 00be 1A70     		strb	r2, [r3]
 1491              	.L70:
 1492              	.LBE35:
 172:..\..\..\arduinoLCD\test\Pain Drain\libraries\lvgl\src\draw\sw/lv_draw_sw_transform.c ****         xs_ups = xs_ups_start + ((xs_step * x) >> 8);
 1493              		.loc 1 172 0 discriminator 2
 1494 00c0 0131     		adds	r1, r1, #1
 1495              	.LVL221:
 1496 00c2 09B2     		sxth	r1, r1
 1497              	.LVL222:
 1498              	.L66:
 172:..\..\..\arduinoLCD\test\Pain Drain\libraries\lvgl\src\draw\sw/lv_draw_sw_transform.c ****         xs_ups = xs_ups_start + ((xs_step * x) >> 8);
 1499              		.loc 1 172 0 is_stmt 0 discriminator 1
 1500 00c4 8C42     		cmp	r4, r1
 1501 00c6 C4DC     		bgt	.L71
 201:..\..\..\arduinoLCD\test\Pain Drain\libraries\lvgl\src\draw\sw/lv_draw_sw_transform.c **** 
 1502              		.loc 1 201 0 is_stmt 1
 1503 00c8 05B0     		add	sp, sp, #20
 1504              		@ sp needed
 1505              	.LVL223:
 1506 00ca 3CBC     		pop	{r2, r3, r4, r5}
 1507 00cc 9046     		mov	r8, r2
 1508 00ce 9946     		mov	r9, r3
 1509 00d0 A246     		mov	r10, r4
 1510 00d2 AB46     		mov	fp, r5
 1511 00d4 F0BD     		pop	{r4, r5, r6, r7, pc}
 1512              		.cfi_endproc
 1513              	.LFE160:
 1514              		.size	rgb_no_aa, .-rgb_no_aa
 1515              		.global	__aeabi_idiv
 1516 00d6 C046     		.section	.text.lv_draw_sw_transform,"ax",%progbits
 1517              		.align	2
 1518              		.global	lv_draw_sw_transform
 1519              		.code	16
 1520              		.thumb_func
 1521              		.type	lv_draw_sw_transform, %function
 1522              	lv_draw_sw_transform:
 1523              	.LFB159:
  83:..\..\..\arduinoLCD\test\Pain Drain\libraries\lvgl\src\draw\sw/lv_draw_sw_transform.c ****     LV_UNUSED(draw_ctx);
 1524              		.loc 1 83 0
 1525              		.cfi_startproc
 1526              		@ args = 24, pretend = 0, frame = 96
 1527              		@ frame_needed = 0, uses_anonymous_args = 0
 1528              	.LVL224:
 1529 0000 F0B5     		push	{r4, r5, r6, r7, lr}
 1530              		.cfi_def_cfa_offset 20
 1531              		.cfi_offset 4, -20
 1532              		.cfi_offset 5, -16
 1533              		.cfi_offset 6, -12
 1534              		.cfi_offset 7, -8
ARM GAS  C:\Users\haske\AppData\Local\Temp\ccOknJt1.s 			page 47


 1535              		.cfi_offset 14, -4
 1536 0002 5F46     		mov	r7, fp
 1537 0004 5646     		mov	r6, r10
 1538 0006 4D46     		mov	r5, r9
 1539 0008 4446     		mov	r4, r8
 1540 000a F0B4     		push	{r4, r5, r6, r7}
 1541              		.cfi_def_cfa_offset 36
 1542              		.cfi_offset 8, -36
 1543              		.cfi_offset 9, -32
 1544              		.cfi_offset 10, -28
 1545              		.cfi_offset 11, -24
 1546 000c A1B0     		sub	sp, sp, #132
 1547              		.cfi_def_cfa_offset 168
 1548 000e 0F00     		movs	r7, r1
 1549 0010 0C92     		str	r2, [sp, #48]
 1550 0012 0D93     		str	r3, [sp, #52]
 1551 0014 2AAB     		add	r3, sp, #168
 1552              	.LVL225:
 1553 0016 0022     		movs	r2, #0
 1554 0018 9B5E     		ldrsh	r3, [r3, r2]
 1555              	.LVL226:
 1556 001a 0E93     		str	r3, [sp, #56]
 1557 001c 2BAB     		add	r3, sp, #172
 1558              	.LVL227:
 1559 001e 0022     		movs	r2, #0
 1560 0020 9B5E     		ldrsh	r3, [r3, r2]
 1561              	.LVL228:
 1562 0022 0F93     		str	r3, [sp, #60]
 1563 0024 2DAB     		add	r3, sp, #180
 1564              	.LVL229:
 1565 0026 1E78     		ldrb	r6, [r3]
 1566 0028 2E9B     		ldr	r3, [sp, #184]
 1567              	.LVL230:
 1568 002a 9A46     		mov	r10, r3
 1569 002c 2F9B     		ldr	r3, [sp, #188]
 1570 002e 9B46     		mov	fp, r3
  87:..\..\..\arduinoLCD\test\Pain Drain\libraries\lvgl\src\draw\sw/lv_draw_sw_transform.c ****     tr_dsc.zoom = (256 * 256) / draw_dsc->zoom;
 1571              		.loc 1 87 0
 1572 0030 2C9B     		ldr	r3, [sp, #176]
 1573 0032 0022     		movs	r2, #0
 1574 0034 9B5E     		ldrsh	r3, [r3, r2]
 1575 0036 5B42     		rsbs	r3, r3, #0
 1576 0038 9846     		mov	r8, r3
 1577 003a 15AC     		add	r4, sp, #84
 1578 003c 1C93     		str	r3, [sp, #112]
  88:..\..\..\arduinoLCD\test\Pain Drain\libraries\lvgl\src\draw\sw/lv_draw_sw_transform.c ****     tr_dsc.pivot = draw_dsc->pivot;
 1579              		.loc 1 88 0
 1580 003e 2C9B     		ldr	r3, [sp, #176]
 1581 0040 5988     		ldrh	r1, [r3, #2]
 1582              	.LVL231:
 1583 0042 8020     		movs	r0, #128
 1584              	.LVL232:
 1585 0044 4002     		lsls	r0, r0, #9
 1586 0046 FFF7FEFF 		bl	__aeabi_idiv
 1587              	.LVL233:
 1588 004a A061     		str	r0, [r4, #24]
  89:..\..\..\arduinoLCD\test\Pain Drain\libraries\lvgl\src\draw\sw/lv_draw_sw_transform.c **** 
ARM GAS  C:\Users\haske\AppData\Local\Temp\ccOknJt1.s 			page 48


 1589              		.loc 1 89 0
 1590 004c 2C9B     		ldr	r3, [sp, #176]
 1591 004e 5B68     		ldr	r3, [r3, #4]
 1592 0050 0893     		str	r3, [sp, #32]
 1593 0052 A362     		str	r3, [r4, #40]
  91:..\..\..\arduinoLCD\test\Pain Drain\libraries\lvgl\src\draw\sw/lv_draw_sw_transform.c ****     int32_t angle_high = angle_low + 1;
 1594              		.loc 1 91 0
 1595 0054 0A21     		movs	r1, #10
 1596 0056 4046     		mov	r0, r8
 1597 0058 FFF7FEFF 		bl	__aeabi_idiv
 1598              	.LVL234:
 1599 005c 0500     		movs	r5, r0
 1600              	.LVL235:
  92:..\..\..\arduinoLCD\test\Pain Drain\libraries\lvgl\src\draw\sw/lv_draw_sw_transform.c ****     int32_t angle_rem = tr_dsc.angle  - (angle_low * 10);
 1601              		.loc 1 92 0
 1602 005e 431C     		adds	r3, r0, #1
 1603 0060 0893     		str	r3, [sp, #32]
 1604              	.LVL236:
  93:..\..\..\arduinoLCD\test\Pain Drain\libraries\lvgl\src\draw\sw/lv_draw_sw_transform.c **** 
 1605              		.loc 1 93 0
 1606 0062 0A20     		movs	r0, #10
 1607              	.LVL237:
 1608 0064 4042     		rsbs	r0, r0, #0
 1609 0066 6843     		muls	r0, r5
 1610 0068 8044     		add	r8, r8, r0
 1611              	.LVL238:
  95:..\..\..\arduinoLCD\test\Pain Drain\libraries\lvgl\src\draw\sw/lv_draw_sw_transform.c ****     int32_t s2 = lv_trigo_sin(angle_high);
 1612              		.loc 1 95 0
 1613 006a 28B2     		sxth	r0, r5
 1614 006c FFF7FEFF 		bl	lv_trigo_sin
 1615              	.LVL239:
 1616 0070 0990     		str	r0, [sp, #36]
 1617              	.LVL240:
  96:..\..\..\arduinoLCD\test\Pain Drain\libraries\lvgl\src\draw\sw/lv_draw_sw_transform.c **** 
 1618              		.loc 1 96 0
 1619 0072 6B46     		mov	r3, sp
 1620 0074 2022     		movs	r2, #32
 1621 0076 985E     		ldrsh	r0, [r3, r2]
 1622              	.LVL241:
 1623 0078 FFF7FEFF 		bl	lv_trigo_sin
 1624              	.LVL242:
 1625 007c 0A90     		str	r0, [sp, #40]
 1626              	.LVL243:
  98:..\..\..\arduinoLCD\test\Pain Drain\libraries\lvgl\src\draw\sw/lv_draw_sw_transform.c ****     int32_t c2 = lv_trigo_sin(angle_high + 90);
 1627              		.loc 1 98 0
 1628 007e 5A35     		adds	r5, r5, #90
 1629              	.LVL244:
 1630 0080 28B2     		sxth	r0, r5
 1631              	.LVL245:
 1632 0082 FFF7FEFF 		bl	lv_trigo_sin
 1633              	.LVL246:
 1634 0086 8146     		mov	r9, r0
 1635              	.LVL247:
  99:..\..\..\arduinoLCD\test\Pain Drain\libraries\lvgl\src\draw\sw/lv_draw_sw_transform.c **** 
 1636              		.loc 1 99 0
 1637 0088 089B     		ldr	r3, [sp, #32]
 1638 008a 5A33     		adds	r3, r3, #90
ARM GAS  C:\Users\haske\AppData\Local\Temp\ccOknJt1.s 			page 49


 1639 008c 18B2     		sxth	r0, r3
 1640              	.LVL248:
 1641 008e FFF7FEFF 		bl	lv_trigo_sin
 1642              	.LVL249:
 1643 0092 0890     		str	r0, [sp, #32]
 1644              	.LVL250:
 101:..\..\..\arduinoLCD\test\Pain Drain\libraries\lvgl\src\draw\sw/lv_draw_sw_transform.c ****     tr_dsc.cosma = (c1 * (10 - angle_rem) + c2 * angle_rem) / 10;
 1645              		.loc 1 101 0
 1646 0094 0A25     		movs	r5, #10
 1647              	.LVL251:
 1648 0096 4246     		mov	r2, r8
 1649 0098 AD1A     		subs	r5, r5, r2
 1650 009a 099B     		ldr	r3, [sp, #36]
 1651 009c 6B43     		muls	r3, r5
 1652 009e 1800     		movs	r0, r3
 1653              	.LVL252:
 1654 00a0 0A9B     		ldr	r3, [sp, #40]
 1655 00a2 5343     		muls	r3, r2
 1656 00a4 C018     		adds	r0, r0, r3
 1657 00a6 0A21     		movs	r1, #10
 1658 00a8 FFF7FEFF 		bl	__aeabi_idiv
 1659              	.LVL253:
 1660 00ac 0990     		str	r0, [sp, #36]
 1661              	.LVL254:
 102:..\..\..\arduinoLCD\test\Pain Drain\libraries\lvgl\src\draw\sw/lv_draw_sw_transform.c ****     tr_dsc.sinma = tr_dsc.sinma >> (LV_TRIGO_SHIFT - 10);
 1662              		.loc 1 102 0
 1663 00ae 4A46     		mov	r2, r9
 1664 00b0 5543     		muls	r5, r2
 1665 00b2 089B     		ldr	r3, [sp, #32]
 1666 00b4 4246     		mov	r2, r8
 1667 00b6 5343     		muls	r3, r2
 1668 00b8 E818     		adds	r0, r5, r3
 1669 00ba 0A21     		movs	r1, #10
 1670 00bc FFF7FEFF 		bl	__aeabi_idiv
 1671              	.LVL255:
 103:..\..\..\arduinoLCD\test\Pain Drain\libraries\lvgl\src\draw\sw/lv_draw_sw_transform.c ****     tr_dsc.cosma = tr_dsc.cosma >> (LV_TRIGO_SHIFT - 10);
 1672              		.loc 1 103 0
 1673 00c0 099B     		ldr	r3, [sp, #36]
 1674 00c2 5B11     		asrs	r3, r3, #5
 1675 00c4 2361     		str	r3, [r4, #16]
 104:..\..\..\arduinoLCD\test\Pain Drain\libraries\lvgl\src\draw\sw/lv_draw_sw_transform.c ****     tr_dsc.pivot_x_256 = tr_dsc.pivot.x * 256;
 1676              		.loc 1 104 0
 1677 00c6 4011     		asrs	r0, r0, #5
 1678 00c8 6061     		str	r0, [r4, #20]
 105:..\..\..\arduinoLCD\test\Pain Drain\libraries\lvgl\src\draw\sw/lv_draw_sw_transform.c ****     tr_dsc.pivot_y_256 = tr_dsc.pivot.y * 256;
 1679              		.loc 1 105 0
 1680 00ca 2822     		movs	r2, #40
 1681 00cc A35E     		ldrsh	r3, [r4, r2]
 1682 00ce 1B02     		lsls	r3, r3, #8
 1683 00d0 2362     		str	r3, [r4, #32]
 106:..\..\..\arduinoLCD\test\Pain Drain\libraries\lvgl\src\draw\sw/lv_draw_sw_transform.c **** 
 1684              		.loc 1 106 0
 1685 00d2 2A22     		movs	r2, #42
 1686 00d4 A35E     		ldrsh	r3, [r4, r2]
 1687 00d6 1B02     		lsls	r3, r3, #8
 1688 00d8 6362     		str	r3, [r4, #36]
 1689              	.LVL256:
ARM GAS  C:\Users\haske\AppData\Local\Temp\ccOknJt1.s 			page 50


 1690              	.LBB37:
 1691              	.LBB38:
 1692              		.file 3 "c:\\projects\\paindrain\\arduinolcd\\test\\pain drain\\libraries\\lvgl\\src\\misc\\lv_are
   1:c:\projects\paindrain\arduinolcd\test\pain drain\libraries\lvgl\src\misc\lv_area.h **** /**
   2:c:\projects\paindrain\arduinolcd\test\pain drain\libraries\lvgl\src\misc\lv_area.h ****  * @file lv_area.h
   3:c:\projects\paindrain\arduinolcd\test\pain drain\libraries\lvgl\src\misc\lv_area.h ****  *
   4:c:\projects\paindrain\arduinolcd\test\pain drain\libraries\lvgl\src\misc\lv_area.h ****  */
   5:c:\projects\paindrain\arduinolcd\test\pain drain\libraries\lvgl\src\misc\lv_area.h **** 
   6:c:\projects\paindrain\arduinolcd\test\pain drain\libraries\lvgl\src\misc\lv_area.h **** #ifndef LV_AREA_H
   7:c:\projects\paindrain\arduinolcd\test\pain drain\libraries\lvgl\src\misc\lv_area.h **** #define LV_AREA_H
   8:c:\projects\paindrain\arduinolcd\test\pain drain\libraries\lvgl\src\misc\lv_area.h **** 
   9:c:\projects\paindrain\arduinolcd\test\pain drain\libraries\lvgl\src\misc\lv_area.h **** #ifdef __cplusplus
  10:c:\projects\paindrain\arduinolcd\test\pain drain\libraries\lvgl\src\misc\lv_area.h **** extern "C" {
  11:c:\projects\paindrain\arduinolcd\test\pain drain\libraries\lvgl\src\misc\lv_area.h **** #endif
  12:c:\projects\paindrain\arduinolcd\test\pain drain\libraries\lvgl\src\misc\lv_area.h **** 
  13:c:\projects\paindrain\arduinolcd\test\pain drain\libraries\lvgl\src\misc\lv_area.h **** /*********************
  14:c:\projects\paindrain\arduinolcd\test\pain drain\libraries\lvgl\src\misc\lv_area.h ****  *      INCLUDES
  15:c:\projects\paindrain\arduinolcd\test\pain drain\libraries\lvgl\src\misc\lv_area.h ****  *********************/
  16:c:\projects\paindrain\arduinolcd\test\pain drain\libraries\lvgl\src\misc\lv_area.h **** #include "../lv_conf_internal.h"
  17:c:\projects\paindrain\arduinolcd\test\pain drain\libraries\lvgl\src\misc\lv_area.h **** #include <stdbool.h>
  18:c:\projects\paindrain\arduinolcd\test\pain drain\libraries\lvgl\src\misc\lv_area.h **** #include <stdint.h>
  19:c:\projects\paindrain\arduinolcd\test\pain drain\libraries\lvgl\src\misc\lv_area.h **** 
  20:c:\projects\paindrain\arduinolcd\test\pain drain\libraries\lvgl\src\misc\lv_area.h **** /*********************
  21:c:\projects\paindrain\arduinolcd\test\pain drain\libraries\lvgl\src\misc\lv_area.h ****  *      DEFINES
  22:c:\projects\paindrain\arduinolcd\test\pain drain\libraries\lvgl\src\misc\lv_area.h ****  *********************/
  23:c:\projects\paindrain\arduinolcd\test\pain drain\libraries\lvgl\src\misc\lv_area.h **** 
  24:c:\projects\paindrain\arduinolcd\test\pain drain\libraries\lvgl\src\misc\lv_area.h **** #if LV_USE_LARGE_COORD
  25:c:\projects\paindrain\arduinolcd\test\pain drain\libraries\lvgl\src\misc\lv_area.h **** typedef int32_t lv_coord_t;
  26:c:\projects\paindrain\arduinolcd\test\pain drain\libraries\lvgl\src\misc\lv_area.h **** #else
  27:c:\projects\paindrain\arduinolcd\test\pain drain\libraries\lvgl\src\misc\lv_area.h **** typedef int16_t lv_coord_t;
  28:c:\projects\paindrain\arduinolcd\test\pain drain\libraries\lvgl\src\misc\lv_area.h **** #endif
  29:c:\projects\paindrain\arduinolcd\test\pain drain\libraries\lvgl\src\misc\lv_area.h **** 
  30:c:\projects\paindrain\arduinolcd\test\pain drain\libraries\lvgl\src\misc\lv_area.h **** /**********************
  31:c:\projects\paindrain\arduinolcd\test\pain drain\libraries\lvgl\src\misc\lv_area.h ****  *      TYPEDEFS
  32:c:\projects\paindrain\arduinolcd\test\pain drain\libraries\lvgl\src\misc\lv_area.h ****  **********************/
  33:c:\projects\paindrain\arduinolcd\test\pain drain\libraries\lvgl\src\misc\lv_area.h **** 
  34:c:\projects\paindrain\arduinolcd\test\pain drain\libraries\lvgl\src\misc\lv_area.h **** /**
  35:c:\projects\paindrain\arduinolcd\test\pain drain\libraries\lvgl\src\misc\lv_area.h ****  * Represents a point on the screen.
  36:c:\projects\paindrain\arduinolcd\test\pain drain\libraries\lvgl\src\misc\lv_area.h ****  */
  37:c:\projects\paindrain\arduinolcd\test\pain drain\libraries\lvgl\src\misc\lv_area.h **** typedef struct {
  38:c:\projects\paindrain\arduinolcd\test\pain drain\libraries\lvgl\src\misc\lv_area.h ****     lv_coord_t x;
  39:c:\projects\paindrain\arduinolcd\test\pain drain\libraries\lvgl\src\misc\lv_area.h ****     lv_coord_t y;
  40:c:\projects\paindrain\arduinolcd\test\pain drain\libraries\lvgl\src\misc\lv_area.h **** } lv_point_t;
  41:c:\projects\paindrain\arduinolcd\test\pain drain\libraries\lvgl\src\misc\lv_area.h **** 
  42:c:\projects\paindrain\arduinolcd\test\pain drain\libraries\lvgl\src\misc\lv_area.h **** /** Represents an area of the screen.*/
  43:c:\projects\paindrain\arduinolcd\test\pain drain\libraries\lvgl\src\misc\lv_area.h **** typedef struct {
  44:c:\projects\paindrain\arduinolcd\test\pain drain\libraries\lvgl\src\misc\lv_area.h ****     lv_coord_t x1;
  45:c:\projects\paindrain\arduinolcd\test\pain drain\libraries\lvgl\src\misc\lv_area.h ****     lv_coord_t y1;
  46:c:\projects\paindrain\arduinolcd\test\pain drain\libraries\lvgl\src\misc\lv_area.h ****     lv_coord_t x2;
  47:c:\projects\paindrain\arduinolcd\test\pain drain\libraries\lvgl\src\misc\lv_area.h ****     lv_coord_t y2;
  48:c:\projects\paindrain\arduinolcd\test\pain drain\libraries\lvgl\src\misc\lv_area.h **** } lv_area_t;
  49:c:\projects\paindrain\arduinolcd\test\pain drain\libraries\lvgl\src\misc\lv_area.h **** 
  50:c:\projects\paindrain\arduinolcd\test\pain drain\libraries\lvgl\src\misc\lv_area.h **** /** Alignments*/
  51:c:\projects\paindrain\arduinolcd\test\pain drain\libraries\lvgl\src\misc\lv_area.h **** enum {
  52:c:\projects\paindrain\arduinolcd\test\pain drain\libraries\lvgl\src\misc\lv_area.h ****     LV_ALIGN_DEFAULT = 0,
  53:c:\projects\paindrain\arduinolcd\test\pain drain\libraries\lvgl\src\misc\lv_area.h ****     LV_ALIGN_TOP_LEFT,
  54:c:\projects\paindrain\arduinolcd\test\pain drain\libraries\lvgl\src\misc\lv_area.h ****     LV_ALIGN_TOP_MID,
ARM GAS  C:\Users\haske\AppData\Local\Temp\ccOknJt1.s 			page 51


  55:c:\projects\paindrain\arduinolcd\test\pain drain\libraries\lvgl\src\misc\lv_area.h ****     LV_ALIGN_TOP_RIGHT,
  56:c:\projects\paindrain\arduinolcd\test\pain drain\libraries\lvgl\src\misc\lv_area.h ****     LV_ALIGN_BOTTOM_LEFT,
  57:c:\projects\paindrain\arduinolcd\test\pain drain\libraries\lvgl\src\misc\lv_area.h ****     LV_ALIGN_BOTTOM_MID,
  58:c:\projects\paindrain\arduinolcd\test\pain drain\libraries\lvgl\src\misc\lv_area.h ****     LV_ALIGN_BOTTOM_RIGHT,
  59:c:\projects\paindrain\arduinolcd\test\pain drain\libraries\lvgl\src\misc\lv_area.h ****     LV_ALIGN_LEFT_MID,
  60:c:\projects\paindrain\arduinolcd\test\pain drain\libraries\lvgl\src\misc\lv_area.h ****     LV_ALIGN_RIGHT_MID,
  61:c:\projects\paindrain\arduinolcd\test\pain drain\libraries\lvgl\src\misc\lv_area.h ****     LV_ALIGN_CENTER,
  62:c:\projects\paindrain\arduinolcd\test\pain drain\libraries\lvgl\src\misc\lv_area.h **** 
  63:c:\projects\paindrain\arduinolcd\test\pain drain\libraries\lvgl\src\misc\lv_area.h ****     LV_ALIGN_OUT_TOP_LEFT,
  64:c:\projects\paindrain\arduinolcd\test\pain drain\libraries\lvgl\src\misc\lv_area.h ****     LV_ALIGN_OUT_TOP_MID,
  65:c:\projects\paindrain\arduinolcd\test\pain drain\libraries\lvgl\src\misc\lv_area.h ****     LV_ALIGN_OUT_TOP_RIGHT,
  66:c:\projects\paindrain\arduinolcd\test\pain drain\libraries\lvgl\src\misc\lv_area.h ****     LV_ALIGN_OUT_BOTTOM_LEFT,
  67:c:\projects\paindrain\arduinolcd\test\pain drain\libraries\lvgl\src\misc\lv_area.h ****     LV_ALIGN_OUT_BOTTOM_MID,
  68:c:\projects\paindrain\arduinolcd\test\pain drain\libraries\lvgl\src\misc\lv_area.h ****     LV_ALIGN_OUT_BOTTOM_RIGHT,
  69:c:\projects\paindrain\arduinolcd\test\pain drain\libraries\lvgl\src\misc\lv_area.h ****     LV_ALIGN_OUT_LEFT_TOP,
  70:c:\projects\paindrain\arduinolcd\test\pain drain\libraries\lvgl\src\misc\lv_area.h ****     LV_ALIGN_OUT_LEFT_MID,
  71:c:\projects\paindrain\arduinolcd\test\pain drain\libraries\lvgl\src\misc\lv_area.h ****     LV_ALIGN_OUT_LEFT_BOTTOM,
  72:c:\projects\paindrain\arduinolcd\test\pain drain\libraries\lvgl\src\misc\lv_area.h ****     LV_ALIGN_OUT_RIGHT_TOP,
  73:c:\projects\paindrain\arduinolcd\test\pain drain\libraries\lvgl\src\misc\lv_area.h ****     LV_ALIGN_OUT_RIGHT_MID,
  74:c:\projects\paindrain\arduinolcd\test\pain drain\libraries\lvgl\src\misc\lv_area.h ****     LV_ALIGN_OUT_RIGHT_BOTTOM,
  75:c:\projects\paindrain\arduinolcd\test\pain drain\libraries\lvgl\src\misc\lv_area.h **** };
  76:c:\projects\paindrain\arduinolcd\test\pain drain\libraries\lvgl\src\misc\lv_area.h **** typedef uint8_t lv_align_t;
  77:c:\projects\paindrain\arduinolcd\test\pain drain\libraries\lvgl\src\misc\lv_area.h **** 
  78:c:\projects\paindrain\arduinolcd\test\pain drain\libraries\lvgl\src\misc\lv_area.h **** enum {
  79:c:\projects\paindrain\arduinolcd\test\pain drain\libraries\lvgl\src\misc\lv_area.h ****     LV_DIR_NONE     = 0x00,
  80:c:\projects\paindrain\arduinolcd\test\pain drain\libraries\lvgl\src\misc\lv_area.h ****     LV_DIR_LEFT     = (1 << 0),
  81:c:\projects\paindrain\arduinolcd\test\pain drain\libraries\lvgl\src\misc\lv_area.h ****     LV_DIR_RIGHT    = (1 << 1),
  82:c:\projects\paindrain\arduinolcd\test\pain drain\libraries\lvgl\src\misc\lv_area.h ****     LV_DIR_TOP      = (1 << 2),
  83:c:\projects\paindrain\arduinolcd\test\pain drain\libraries\lvgl\src\misc\lv_area.h ****     LV_DIR_BOTTOM   = (1 << 3),
  84:c:\projects\paindrain\arduinolcd\test\pain drain\libraries\lvgl\src\misc\lv_area.h ****     LV_DIR_HOR      = LV_DIR_LEFT | LV_DIR_RIGHT,
  85:c:\projects\paindrain\arduinolcd\test\pain drain\libraries\lvgl\src\misc\lv_area.h ****     LV_DIR_VER      = LV_DIR_TOP | LV_DIR_BOTTOM,
  86:c:\projects\paindrain\arduinolcd\test\pain drain\libraries\lvgl\src\misc\lv_area.h ****     LV_DIR_ALL      = LV_DIR_HOR | LV_DIR_VER,
  87:c:\projects\paindrain\arduinolcd\test\pain drain\libraries\lvgl\src\misc\lv_area.h **** };
  88:c:\projects\paindrain\arduinolcd\test\pain drain\libraries\lvgl\src\misc\lv_area.h **** 
  89:c:\projects\paindrain\arduinolcd\test\pain drain\libraries\lvgl\src\misc\lv_area.h **** typedef uint8_t lv_dir_t;
  90:c:\projects\paindrain\arduinolcd\test\pain drain\libraries\lvgl\src\misc\lv_area.h **** 
  91:c:\projects\paindrain\arduinolcd\test\pain drain\libraries\lvgl\src\misc\lv_area.h **** /**********************
  92:c:\projects\paindrain\arduinolcd\test\pain drain\libraries\lvgl\src\misc\lv_area.h ****  * GLOBAL PROTOTYPES
  93:c:\projects\paindrain\arduinolcd\test\pain drain\libraries\lvgl\src\misc\lv_area.h ****  **********************/
  94:c:\projects\paindrain\arduinolcd\test\pain drain\libraries\lvgl\src\misc\lv_area.h **** 
  95:c:\projects\paindrain\arduinolcd\test\pain drain\libraries\lvgl\src\misc\lv_area.h **** /**
  96:c:\projects\paindrain\arduinolcd\test\pain drain\libraries\lvgl\src\misc\lv_area.h ****  * Initialize an area
  97:c:\projects\paindrain\arduinolcd\test\pain drain\libraries\lvgl\src\misc\lv_area.h ****  * @param area_p pointer to an area
  98:c:\projects\paindrain\arduinolcd\test\pain drain\libraries\lvgl\src\misc\lv_area.h ****  * @param x1 left coordinate of the area
  99:c:\projects\paindrain\arduinolcd\test\pain drain\libraries\lvgl\src\misc\lv_area.h ****  * @param y1 top coordinate of the area
 100:c:\projects\paindrain\arduinolcd\test\pain drain\libraries\lvgl\src\misc\lv_area.h ****  * @param x2 right coordinate of the area
 101:c:\projects\paindrain\arduinolcd\test\pain drain\libraries\lvgl\src\misc\lv_area.h ****  * @param y2 bottom coordinate of the area
 102:c:\projects\paindrain\arduinolcd\test\pain drain\libraries\lvgl\src\misc\lv_area.h ****  */
 103:c:\projects\paindrain\arduinolcd\test\pain drain\libraries\lvgl\src\misc\lv_area.h **** void lv_area_set(lv_area_t * area_p, lv_coord_t x1, lv_coord_t y1, lv_coord_t x2, lv_coord_t y2);
 104:c:\projects\paindrain\arduinolcd\test\pain drain\libraries\lvgl\src\misc\lv_area.h **** 
 105:c:\projects\paindrain\arduinolcd\test\pain drain\libraries\lvgl\src\misc\lv_area.h **** /**
 106:c:\projects\paindrain\arduinolcd\test\pain drain\libraries\lvgl\src\misc\lv_area.h ****  * Copy an area
 107:c:\projects\paindrain\arduinolcd\test\pain drain\libraries\lvgl\src\misc\lv_area.h ****  * @param dest pointer to the destination area
 108:c:\projects\paindrain\arduinolcd\test\pain drain\libraries\lvgl\src\misc\lv_area.h ****  * @param src pointer to the source area
 109:c:\projects\paindrain\arduinolcd\test\pain drain\libraries\lvgl\src\misc\lv_area.h ****  */
 110:c:\projects\paindrain\arduinolcd\test\pain drain\libraries\lvgl\src\misc\lv_area.h **** inline static void lv_area_copy(lv_area_t * dest, const lv_area_t * src)
 111:c:\projects\paindrain\arduinolcd\test\pain drain\libraries\lvgl\src\misc\lv_area.h **** {
ARM GAS  C:\Users\haske\AppData\Local\Temp\ccOknJt1.s 			page 52


 112:c:\projects\paindrain\arduinolcd\test\pain drain\libraries\lvgl\src\misc\lv_area.h ****     dest->x1 = src->x1;
 113:c:\projects\paindrain\arduinolcd\test\pain drain\libraries\lvgl\src\misc\lv_area.h ****     dest->y1 = src->y1;
 114:c:\projects\paindrain\arduinolcd\test\pain drain\libraries\lvgl\src\misc\lv_area.h ****     dest->x2 = src->x2;
 115:c:\projects\paindrain\arduinolcd\test\pain drain\libraries\lvgl\src\misc\lv_area.h ****     dest->y2 = src->y2;
 116:c:\projects\paindrain\arduinolcd\test\pain drain\libraries\lvgl\src\misc\lv_area.h **** }
 117:c:\projects\paindrain\arduinolcd\test\pain drain\libraries\lvgl\src\misc\lv_area.h **** 
 118:c:\projects\paindrain\arduinolcd\test\pain drain\libraries\lvgl\src\misc\lv_area.h **** /**
 119:c:\projects\paindrain\arduinolcd\test\pain drain\libraries\lvgl\src\misc\lv_area.h ****  * Get the width of an area
 120:c:\projects\paindrain\arduinolcd\test\pain drain\libraries\lvgl\src\misc\lv_area.h ****  * @param area_p pointer to an area
 121:c:\projects\paindrain\arduinolcd\test\pain drain\libraries\lvgl\src\misc\lv_area.h ****  * @return the width of the area (if x1 == x2 -> width = 1)
 122:c:\projects\paindrain\arduinolcd\test\pain drain\libraries\lvgl\src\misc\lv_area.h ****  */
 123:c:\projects\paindrain\arduinolcd\test\pain drain\libraries\lvgl\src\misc\lv_area.h **** static inline lv_coord_t lv_area_get_width(const lv_area_t * area_p)
 124:c:\projects\paindrain\arduinolcd\test\pain drain\libraries\lvgl\src\misc\lv_area.h **** {
 125:c:\projects\paindrain\arduinolcd\test\pain drain\libraries\lvgl\src\misc\lv_area.h ****     return (lv_coord_t)(area_p->x2 - area_p->x1 + 1);
 1693              		.loc 3 125 0
 1694 00da 0422     		movs	r2, #4
 1695 00dc BB5E     		ldrsh	r3, [r7, r2]
 1696 00de 0022     		movs	r2, #0
 1697 00e0 BD5E     		ldrsh	r5, [r7, r2]
 1698 00e2 5D1B     		subs	r5, r3, r5
 1699 00e4 0135     		adds	r5, r5, #1
 1700 00e6 2DB2     		sxth	r5, r5
 1701              	.LVL257:
 1702              	.LBE38:
 1703              	.LBE37:
 1704              	.LBB39:
 1705              	.LBB40:
 126:c:\projects\paindrain\arduinolcd\test\pain drain\libraries\lvgl\src\misc\lv_area.h **** }
 127:c:\projects\paindrain\arduinolcd\test\pain drain\libraries\lvgl\src\misc\lv_area.h **** 
 128:c:\projects\paindrain\arduinolcd\test\pain drain\libraries\lvgl\src\misc\lv_area.h **** /**
 129:c:\projects\paindrain\arduinolcd\test\pain drain\libraries\lvgl\src\misc\lv_area.h ****  * Get the height of an area
 130:c:\projects\paindrain\arduinolcd\test\pain drain\libraries\lvgl\src\misc\lv_area.h ****  * @param area_p pointer to an area
 131:c:\projects\paindrain\arduinolcd\test\pain drain\libraries\lvgl\src\misc\lv_area.h ****  * @return the height of the area (if y1 == y2 -> height = 1)
 132:c:\projects\paindrain\arduinolcd\test\pain drain\libraries\lvgl\src\misc\lv_area.h ****  */
 133:c:\projects\paindrain\arduinolcd\test\pain drain\libraries\lvgl\src\misc\lv_area.h **** static inline lv_coord_t lv_area_get_height(const lv_area_t * area_p)
 134:c:\projects\paindrain\arduinolcd\test\pain drain\libraries\lvgl\src\misc\lv_area.h **** {
 135:c:\projects\paindrain\arduinolcd\test\pain drain\libraries\lvgl\src\misc\lv_area.h ****     return (lv_coord_t)(area_p->y2 - area_p->y1 + 1);
 1706              		.loc 3 135 0
 1707 00e8 0622     		movs	r2, #6
 1708 00ea BB5E     		ldrsh	r3, [r7, r2]
 1709 00ec 0221     		movs	r1, #2
 1710 00ee 7A5E     		ldrsh	r2, [r7, r1]
 1711 00f0 9B1A     		subs	r3, r3, r2
 1712 00f2 0133     		adds	r3, r3, #1
 1713 00f4 1BB2     		sxth	r3, r3
 1714 00f6 0B93     		str	r3, [sp, #44]
 1715              	.LVL258:
 1716              	.LBE40:
 1717              	.LBE39:
 111:..\..\..\arduinoLCD\test\Pain Drain\libraries\lvgl\src\draw\sw/lv_draw_sw_transform.c ****         int32_t xs1_ups, ys1_ups, xs2_ups, ys2_ups;
 1718              		.loc 1 111 0
 1719 00f8 0024     		movs	r4, #0
 1720 00fa D146     		mov	r9, r10
 1721              	.LVL259:
 1722 00fc B246     		mov	r10, r6
 1723 00fe 3E00     		movs	r6, r7
 1724 0100 2F00     		movs	r7, r5
ARM GAS  C:\Users\haske\AppData\Local\Temp\ccOknJt1.s 			page 53


 1725              	.LVL260:
 1726 0102 90E0     		b	.L73
 1727              	.LVL261:
 1728              	.L81:
 1729              	.LBB41:
 114:..\..\..\arduinoLCD\test\Pain Drain\libraries\lvgl\src\draw\sw/lv_draw_sw_transform.c ****         transform_point_upscaled(&tr_dsc, dest_area->x2, dest_area->y1 + y, &xs2_ups, &ys2_ups);
 1730              		.loc 1 114 0
 1731 0104 0023     		movs	r3, #0
 1732 0106 F15E     		ldrsh	r1, [r6, r3]
 1733 0108 0223     		movs	r3, #2
 1734 010a F25E     		ldrsh	r2, [r6, r3]
 1735 010c 1219     		adds	r2, r2, r4
 1736 010e 12AB     		add	r3, sp, #72
 1737 0110 0093     		str	r3, [sp]
 1738 0112 11AB     		add	r3, sp, #68
 1739 0114 15A8     		add	r0, sp, #84
 1740 0116 FFF7FEFF 		bl	transform_point_upscaled
 1741              	.LVL262:
 115:..\..\..\arduinoLCD\test\Pain Drain\libraries\lvgl\src\draw\sw/lv_draw_sw_transform.c **** 
 1742              		.loc 1 115 0
 1743 011a 0423     		movs	r3, #4
 1744 011c F15E     		ldrsh	r1, [r6, r3]
 1745 011e 0223     		movs	r3, #2
 1746 0120 F25E     		ldrsh	r2, [r6, r3]
 1747 0122 A218     		adds	r2, r4, r2
 1748 0124 14AB     		add	r3, sp, #80
 1749 0126 0093     		str	r3, [sp]
 1750 0128 13AB     		add	r3, sp, #76
 1751 012a 15A8     		add	r0, sp, #84
 1752 012c FFF7FEFF 		bl	transform_point_upscaled
 1753              	.LVL263:
 117:..\..\..\arduinoLCD\test\Pain Drain\libraries\lvgl\src\draw\sw/lv_draw_sw_transform.c ****         int32_t ys_diff = ys2_ups - ys1_ups;
 1754              		.loc 1 117 0
 1755 0130 119D     		ldr	r5, [sp, #68]
 1756 0132 139B     		ldr	r3, [sp, #76]
 1757 0134 581B     		subs	r0, r3, r5
 1758              	.LVL264:
 118:..\..\..\arduinoLCD\test\Pain Drain\libraries\lvgl\src\draw\sw/lv_draw_sw_transform.c ****         int32_t xs_step_256 = 0;
 1759              		.loc 1 118 0
 1760 0136 129B     		ldr	r3, [sp, #72]
 1761 0138 9846     		mov	r8, r3
 1762 013a 149B     		ldr	r3, [sp, #80]
 1763 013c 4246     		mov	r2, r8
 1764 013e 9B1A     		subs	r3, r3, r2
 1765 0140 0993     		str	r3, [sp, #36]
 1766              	.LVL265:
 121:..\..\..\arduinoLCD\test\Pain Drain\libraries\lvgl\src\draw\sw/lv_draw_sw_transform.c ****             xs_step_256 = (256 * xs_diff) / (dest_w - 1);
 1767              		.loc 1 121 0
 1768 0142 012F     		cmp	r7, #1
 1769 0144 0CDD     		ble	.L82
 122:..\..\..\arduinoLCD\test\Pain Drain\libraries\lvgl\src\draw\sw/lv_draw_sw_transform.c ****             ys_step_256 = (256 * ys_diff) / (dest_w - 1);
 1770              		.loc 1 122 0
 1771 0146 0002     		lsls	r0, r0, #8
 1772              	.LVL266:
 1773 0148 7B1E     		subs	r3, r7, #1
 1774              	.LVL267:
 1775 014a 0A93     		str	r3, [sp, #40]
ARM GAS  C:\Users\haske\AppData\Local\Temp\ccOknJt1.s 			page 54


 1776 014c 1900     		movs	r1, r3
 1777 014e FFF7FEFF 		bl	__aeabi_idiv
 1778              	.LVL268:
 1779 0152 0890     		str	r0, [sp, #32]
 1780              	.LVL269:
 123:..\..\..\arduinoLCD\test\Pain Drain\libraries\lvgl\src\draw\sw/lv_draw_sw_transform.c ****         }
 1781              		.loc 1 123 0
 1782 0154 099A     		ldr	r2, [sp, #36]
 1783 0156 1002     		lsls	r0, r2, #8
 1784              	.LVL270:
 1785 0158 0A99     		ldr	r1, [sp, #40]
 1786 015a FFF7FEFF 		bl	__aeabi_idiv
 1787              	.LVL271:
 1788 015e 02E0     		b	.L74
 1789              	.LVL272:
 1790              	.L82:
 120:..\..\..\arduinoLCD\test\Pain Drain\libraries\lvgl\src\draw\sw/lv_draw_sw_transform.c ****         if(dest_w > 1) {
 1791              		.loc 1 120 0
 1792 0160 0020     		movs	r0, #0
 1793              	.LVL273:
 119:..\..\..\arduinoLCD\test\Pain Drain\libraries\lvgl\src\draw\sw/lv_draw_sw_transform.c ****         int32_t ys_step_256 = 0;
 1794              		.loc 1 119 0
 1795 0162 0023     		movs	r3, #0
 1796              	.LVL274:
 1797 0164 0893     		str	r3, [sp, #32]
 1798              	.LVL275:
 1799              	.L74:
 125:..\..\..\arduinoLCD\test\Pain Drain\libraries\lvgl\src\draw\sw/lv_draw_sw_transform.c ****         int32_t ys_ups = ys1_ups + 0x80;
 1800              		.loc 1 125 0
 1801 0166 8035     		adds	r5, r5, #128
 1802              	.LVL276:
 126:..\..\..\arduinoLCD\test\Pain Drain\libraries\lvgl\src\draw\sw/lv_draw_sw_transform.c **** 
 1803              		.loc 1 126 0
 1804 0168 4346     		mov	r3, r8
 1805 016a 8033     		adds	r3, r3, #128
 1806              	.LVL277:
 128:..\..\..\arduinoLCD\test\Pain Drain\libraries\lvgl\src\draw\sw/lv_draw_sw_transform.c ****             switch(cf) {
 1807              		.loc 1 128 0
 1808 016c 2C9A     		ldr	r2, [sp, #176]
 1809 016e 127D     		ldrb	r2, [r2, #20]
 1810 0170 D207     		lsls	r2, r2, #31
 1811 0172 41D4     		bmi	.L75
 129:..\..\..\arduinoLCD\test\Pain Drain\libraries\lvgl\src\draw\sw/lv_draw_sw_transform.c ****                 case LV_IMG_CF_TRUE_COLOR_ALPHA:
 1812              		.loc 1 129 0
 1813 0174 5246     		mov	r2, r10
 1814 0176 052A     		cmp	r2, #5
 1815 0178 09D0     		beq	.L77
 1816 017a 02D8     		bhi	.L78
 1817 017c 042A     		cmp	r2, #4
 1818 017e 17D0     		beq	.L79
 1819 0180 4CE0     		b	.L76
 1820              	.L78:
 1821 0182 5246     		mov	r2, r10
 1822 0184 062A     		cmp	r2, #6
 1823 0186 13D0     		beq	.L79
 1824 0188 142A     		cmp	r2, #20
 1825 018a 24D0     		beq	.L80
ARM GAS  C:\Users\haske\AppData\Local\Temp\ccOknJt1.s 			page 55


 1826 018c 46E0     		b	.L76
 1827              	.L77:
 131:..\..\..\arduinoLCD\test\Pain Drain\libraries\lvgl\src\draw\sw/lv_draw_sw_transform.c ****                     break;
 1828              		.loc 1 131 0
 1829 018e 5A46     		mov	r2, fp
 1830 0190 0692     		str	r2, [sp, #24]
 1831 0192 4A46     		mov	r2, r9
 1832 0194 0592     		str	r2, [sp, #20]
 1833 0196 0497     		str	r7, [sp, #16]
 1834 0198 0390     		str	r0, [sp, #12]
 1835 019a 089A     		ldr	r2, [sp, #32]
 1836 019c 0292     		str	r2, [sp, #8]
 1837 019e 0193     		str	r3, [sp, #4]
 1838 01a0 0095     		str	r5, [sp]
 1839 01a2 0F9B     		ldr	r3, [sp, #60]
 1840              	.LVL278:
 1841 01a4 0E9A     		ldr	r2, [sp, #56]
 1842 01a6 0D99     		ldr	r1, [sp, #52]
 1843 01a8 0C98     		ldr	r0, [sp, #48]
 1844              	.LVL279:
 1845 01aa FFF7FEFF 		bl	argb_no_aa
 1846              	.LVL280:
 132:..\..\..\arduinoLCD\test\Pain Drain\libraries\lvgl\src\draw\sw/lv_draw_sw_transform.c ****                 case LV_IMG_CF_TRUE_COLOR:
 1847              		.loc 1 132 0
 1848 01ae 35E0     		b	.L76
 1849              	.LVL281:
 1850              	.L79:
 135:..\..\..\arduinoLCD\test\Pain Drain\libraries\lvgl\src\draw\sw/lv_draw_sw_transform.c ****                     break;
 1851              		.loc 1 135 0
 1852 01b0 5246     		mov	r2, r10
 1853 01b2 0792     		str	r2, [sp, #28]
 1854 01b4 5A46     		mov	r2, fp
 1855 01b6 0692     		str	r2, [sp, #24]
 1856 01b8 4A46     		mov	r2, r9
 1857 01ba 0592     		str	r2, [sp, #20]
 1858 01bc 0497     		str	r7, [sp, #16]
 1859 01be 0390     		str	r0, [sp, #12]
 1860 01c0 089A     		ldr	r2, [sp, #32]
 1861 01c2 0292     		str	r2, [sp, #8]
 1862 01c4 0193     		str	r3, [sp, #4]
 1863 01c6 0095     		str	r5, [sp]
 1864 01c8 0F9B     		ldr	r3, [sp, #60]
 1865              	.LVL282:
 1866 01ca 0E9A     		ldr	r2, [sp, #56]
 1867 01cc 0D99     		ldr	r1, [sp, #52]
 1868 01ce 0C98     		ldr	r0, [sp, #48]
 1869              	.LVL283:
 1870 01d0 FFF7FEFF 		bl	rgb_no_aa
 1871              	.LVL284:
 136:..\..\..\arduinoLCD\test\Pain Drain\libraries\lvgl\src\draw\sw/lv_draw_sw_transform.c **** 
 1872              		.loc 1 136 0
 1873 01d4 22E0     		b	.L76
 1874              	.LVL285:
 1875              	.L80:
 140:..\..\..\arduinoLCD\test\Pain Drain\libraries\lvgl\src\draw\sw/lv_draw_sw_transform.c ****                     break;
 1876              		.loc 1 140 0
 1877 01d6 5A46     		mov	r2, fp
ARM GAS  C:\Users\haske\AppData\Local\Temp\ccOknJt1.s 			page 56


 1878 01d8 0692     		str	r2, [sp, #24]
 1879 01da 4A46     		mov	r2, r9
 1880 01dc 0592     		str	r2, [sp, #20]
 1881 01de 0497     		str	r7, [sp, #16]
 1882 01e0 0390     		str	r0, [sp, #12]
 1883 01e2 089A     		ldr	r2, [sp, #32]
 1884 01e4 0292     		str	r2, [sp, #8]
 1885 01e6 0193     		str	r3, [sp, #4]
 1886 01e8 0095     		str	r5, [sp]
 1887 01ea 0F9B     		ldr	r3, [sp, #60]
 1888              	.LVL286:
 1889 01ec 0E9A     		ldr	r2, [sp, #56]
 1890 01ee 0D99     		ldr	r1, [sp, #52]
 1891 01f0 0C98     		ldr	r0, [sp, #48]
 1892              	.LVL287:
 1893 01f2 FFF7FEFF 		bl	rgb565a8_no_aa
 1894              	.LVL288:
 141:..\..\..\arduinoLCD\test\Pain Drain\libraries\lvgl\src\draw\sw/lv_draw_sw_transform.c **** #endif
 1895              		.loc 1 141 0
 1896 01f6 11E0     		b	.L76
 1897              	.LVL289:
 1898              	.L75:
 148:..\..\..\arduinoLCD\test\Pain Drain\libraries\lvgl\src\draw\sw/lv_draw_sw_transform.c ****         }
 1899              		.loc 1 148 0
 1900 01f8 5246     		mov	r2, r10
 1901 01fa 0792     		str	r2, [sp, #28]
 1902 01fc 5A46     		mov	r2, fp
 1903 01fe 0692     		str	r2, [sp, #24]
 1904 0200 4A46     		mov	r2, r9
 1905 0202 0592     		str	r2, [sp, #20]
 1906 0204 0497     		str	r7, [sp, #16]
 1907 0206 0390     		str	r0, [sp, #12]
 1908 0208 089A     		ldr	r2, [sp, #32]
 1909 020a 0292     		str	r2, [sp, #8]
 1910 020c 0193     		str	r3, [sp, #4]
 1911 020e 0095     		str	r5, [sp]
 1912 0210 0F9B     		ldr	r3, [sp, #60]
 1913              	.LVL290:
 1914 0212 0E9A     		ldr	r2, [sp, #56]
 1915 0214 0D99     		ldr	r1, [sp, #52]
 1916 0216 0C98     		ldr	r0, [sp, #48]
 1917              	.LVL291:
 1918 0218 FFF7FEFF 		bl	argb_and_rgb_aa
 1919              	.LVL292:
 1920              	.L76:
 151:..\..\..\arduinoLCD\test\Pain Drain\libraries\lvgl\src\draw\sw/lv_draw_sw_transform.c ****         abuf += dest_w;
 1921              		.loc 1 151 0 discriminator 2
 1922 021c 7B00     		lsls	r3, r7, #1
 1923 021e 9944     		add	r9, r9, r3
 1924              	.LVL293:
 152:..\..\..\arduinoLCD\test\Pain Drain\libraries\lvgl\src\draw\sw/lv_draw_sw_transform.c ****     }
 1925              		.loc 1 152 0 discriminator 2
 1926 0220 BB44     		add	fp, fp, r7
 1927              	.LVL294:
 1928              	.LBE41:
 111:..\..\..\arduinoLCD\test\Pain Drain\libraries\lvgl\src\draw\sw/lv_draw_sw_transform.c ****         int32_t xs1_ups, ys1_ups, xs2_ups, ys2_ups;
 1929              		.loc 1 111 0 discriminator 2
ARM GAS  C:\Users\haske\AppData\Local\Temp\ccOknJt1.s 			page 57


 1930 0222 0134     		adds	r4, r4, #1
 1931              	.LVL295:
 1932 0224 24B2     		sxth	r4, r4
 1933              	.LVL296:
 1934              	.L73:
 111:..\..\..\arduinoLCD\test\Pain Drain\libraries\lvgl\src\draw\sw/lv_draw_sw_transform.c ****         int32_t xs1_ups, ys1_ups, xs2_ups, ys2_ups;
 1935              		.loc 1 111 0 is_stmt 0 discriminator 1
 1936 0226 0B9B     		ldr	r3, [sp, #44]
 1937 0228 9C42     		cmp	r4, r3
 1938 022a 00DA     		bge	.LCB2218
 1939 022c 6AE7     		b	.L81	@long jump
 1940              	.LCB2218:
 154:..\..\..\arduinoLCD\test\Pain Drain\libraries\lvgl\src\draw\sw/lv_draw_sw_transform.c **** 
 1941              		.loc 1 154 0 is_stmt 1
 1942 022e 21B0     		add	sp, sp, #132
 1943              		@ sp needed
 1944              	.LVL297:
 1945              	.LVL298:
 1946              	.LVL299:
 1947              	.LVL300:
 1948 0230 3CBC     		pop	{r2, r3, r4, r5}
 1949 0232 9046     		mov	r8, r2
 1950 0234 9946     		mov	r9, r3
 1951 0236 A246     		mov	r10, r4
 1952 0238 AB46     		mov	fp, r5
 1953 023a F0BD     		pop	{r4, r5, r6, r7, pc}
 1954              		.cfi_endproc
 1955              	.LFE159:
 1956              		.size	lv_draw_sw_transform, .-lv_draw_sw_transform
 1957              		.text
 1958              	.Letext0:
 1959              		.file 4 "c:\\program files (x86)\\cypress\\psoc creator\\4.4\\psoc creator\\import\\gnu\\arm\\5.4.
 1960              		.file 5 "c:\\program files (x86)\\cypress\\psoc creator\\4.4\\psoc creator\\import\\gnu\\arm\\5.4.
 1961              		.file 6 "c:\\projects\\paindrain\\arduinolcd\\test\\pain drain\\libraries\\lvgl\\src\\misc\\lv_typ
 1962              		.file 7 "c:\\program files (x86)\\cypress\\psoc creator\\4.4\\psoc creator\\import\\gnu\\arm\\5.4.
 1963              		.file 8 "c:\\projects\\paindrain\\arduinolcd\\test\\pain drain\\libraries\\lvgl\\src\\font\\lv_fon
 1964              		.file 9 "c:\\projects\\paindrain\\arduinolcd\\test\\pain drain\\libraries\\lvgl\\src\\misc\\lv_txt
 1965              		.file 10 "c:\\projects\\paindrain\\arduinolcd\\test\\pain drain\\libraries\\lvgl\\src\\misc\\lv_bi
 1966              		.file 11 "c:\\projects\\paindrain\\arduinolcd\\test\\pain drain\\libraries\\lvgl\\src\\misc\\lv_st
 1967              		.file 12 "..\\..\\..\\arduinoLCD\\test\\Pain Drain\\libraries\\lvgl\\src\\draw\\sw\\../lv_img_buf.
 1968              		.file 13 "c:\\projects\\paindrain\\arduinolcd\\test\\pain drain\\libraries\\lvgl\\src\\core\\lv_ob
 1969              		.file 14 "..\\..\\..\\arduinoLCD\\test\\Pain Drain\\libraries\\lvgl\\src\\draw\\sw\\../lv_draw_rec
 1970              		.file 15 "..\\..\\..\\arduinoLCD\\test\\Pain Drain\\libraries\\lvgl\\src\\draw\\sw\\../lv_draw_lab
 1971              		.file 16 "..\\..\\..\\arduinoLCD\\test\\Pain Drain\\libraries\\lvgl\\src\\draw\\sw\\../lv_draw_img
 1972              		.file 17 "..\\..\\..\\arduinoLCD\\test\\Pain Drain\\libraries\\lvgl\\src\\draw\\sw\\../lv_draw_lin
 1973              		.file 18 "..\\..\\..\\arduinoLCD\\test\\Pain Drain\\libraries\\lvgl\\src\\draw\\sw\\../lv_draw_arc
 1974              		.file 19 "..\\..\\..\\arduinoLCD\\test\\Pain Drain\\libraries\\lvgl\\src\\draw\\sw\\../lv_draw_lay
 1975              		.file 20 "..\\..\\..\\arduinoLCD\\test\\Pain Drain\\libraries\\lvgl\\src\\draw\\sw\\../lv_draw.h"
 1976              		.file 21 "c:\\projects\\paindrain\\arduinolcd\\test\\pain drain\\libraries\\lvgl\\src\\misc\\lv_ti
 1977              		.file 22 "c:\\projects\\paindrain\\arduinolcd\\test\\pain drain\\libraries\\lvgl\\src\\hal\\lv_hal
 1978              		.file 23 "c:\\projects\\paindrain\\arduinolcd\\test\\pain drain\\libraries\\lvgl\\src\\core\\lv_gr
 1979              		.file 24 "c:\\projects\\paindrain\\arduinolcd\\test\\pain drain\\libraries\\lvgl\\src\\misc\\lv_ll
 1980              		.file 25 "c:\\projects\\paindrain\\arduinolcd\\test\\pain drain\\libraries\\lvgl\\src\\core\\lv_ob
 1981              		.file 26 "c:\\projects\\paindrain\\arduinolcd\\test\\pain drain\\libraries\\lvgl\\src\\core\\lv_ob
 1982              		.file 27 "c:\\projects\\paindrain\\arduinolcd\\test\\pain drain\\libraries\\lvgl\\src\\core\\lv_ob
 1983              		.file 28 "c:\\projects\\paindrain\\arduinolcd\\test\\pain drain\\libraries\\lvgl\\src\\core\\lv_ev
 1984              		.file 29 "c:\\projects\\paindrain\\arduinolcd\\test\\pain drain\\libraries\\lvgl\\src\\core\\lv_re
ARM GAS  C:\Users\haske\AppData\Local\Temp\ccOknJt1.s 			page 58


 1985              		.file 30 "c:\\projects\\paindrain\\arduinolcd\\test\\pain drain\\libraries\\lvgl\\src\\misc\\lv_me
 1986              		.file 31 "c:\\projects\\paindrain\\arduinolcd\\test\\pain drain\\libraries\\lvgl\\src\\misc\\lv_ma