ARM GAS  C:\Users\haske\AppData\Local\Temp\ccCwCOlb.s 			page 1


   1              		.syntax unified
   2              		.cpu cortex-m0plus
   3              		.fpu softvfp
   4              		.eabi_attribute 20, 1
   5              		.eabi_attribute 21, 1
   6              		.eabi_attribute 23, 3
   7              		.eabi_attribute 24, 1
   8              		.eabi_attribute 25, 1
   9              		.eabi_attribute 26, 1
  10              		.eabi_attribute 30, 1
  11              		.eabi_attribute 34, 0
  12              		.eabi_attribute 18, 4
  13              		.thumb
  14              		.syntax unified
  15              		.file	"lv_draw_sw_polygon.c"
  16              		.text
  17              	.Ltext0:
  18              		.cfi_sections	.debug_frame
  19              		.section	.text.lv_draw_sw_polygon,"ax",%progbits
  20              		.align	2
  21              		.global	lv_draw_sw_polygon
  22              		.code	16
  23              		.thumb_func
  24              		.type	lv_draw_sw_polygon, %function
  25              	lv_draw_sw_polygon:
  26              	.LFB56:
  27              		.file 1 "..\\..\\..\\arduinoLCD\\test\\Pain Drain\\libraries\\lvgl\\src\\draw\\sw\\lv_draw_sw_poly
   1:..\..\..\arduinoLCD\test\Pain Drain\libraries\lvgl\src\draw\sw/lv_draw_sw_polygon.c **** /**
   2:..\..\..\arduinoLCD\test\Pain Drain\libraries\lvgl\src\draw\sw/lv_draw_sw_polygon.c ****  * @file lv_draw_sw_polygon.c
   3:..\..\..\arduinoLCD\test\Pain Drain\libraries\lvgl\src\draw\sw/lv_draw_sw_polygon.c ****  *
   4:..\..\..\arduinoLCD\test\Pain Drain\libraries\lvgl\src\draw\sw/lv_draw_sw_polygon.c ****  */
   5:..\..\..\arduinoLCD\test\Pain Drain\libraries\lvgl\src\draw\sw/lv_draw_sw_polygon.c **** 
   6:..\..\..\arduinoLCD\test\Pain Drain\libraries\lvgl\src\draw\sw/lv_draw_sw_polygon.c **** /*********************
   7:..\..\..\arduinoLCD\test\Pain Drain\libraries\lvgl\src\draw\sw/lv_draw_sw_polygon.c ****  *      INCLUDES
   8:..\..\..\arduinoLCD\test\Pain Drain\libraries\lvgl\src\draw\sw/lv_draw_sw_polygon.c ****  *********************/
   9:..\..\..\arduinoLCD\test\Pain Drain\libraries\lvgl\src\draw\sw/lv_draw_sw_polygon.c **** #include "lv_draw_sw.h"
  10:..\..\..\arduinoLCD\test\Pain Drain\libraries\lvgl\src\draw\sw/lv_draw_sw_polygon.c **** #include "../../misc/lv_math.h"
  11:..\..\..\arduinoLCD\test\Pain Drain\libraries\lvgl\src\draw\sw/lv_draw_sw_polygon.c **** #include "../../misc/lv_mem.h"
  12:..\..\..\arduinoLCD\test\Pain Drain\libraries\lvgl\src\draw\sw/lv_draw_sw_polygon.c **** #include "../../misc/lv_area.h"
  13:..\..\..\arduinoLCD\test\Pain Drain\libraries\lvgl\src\draw\sw/lv_draw_sw_polygon.c **** #include "../../misc/lv_color.h"
  14:..\..\..\arduinoLCD\test\Pain Drain\libraries\lvgl\src\draw\sw/lv_draw_sw_polygon.c **** #include "../lv_draw_rect.h"
  15:..\..\..\arduinoLCD\test\Pain Drain\libraries\lvgl\src\draw\sw/lv_draw_sw_polygon.c **** 
  16:..\..\..\arduinoLCD\test\Pain Drain\libraries\lvgl\src\draw\sw/lv_draw_sw_polygon.c **** /*********************
  17:..\..\..\arduinoLCD\test\Pain Drain\libraries\lvgl\src\draw\sw/lv_draw_sw_polygon.c ****  *      DEFINES
  18:..\..\..\arduinoLCD\test\Pain Drain\libraries\lvgl\src\draw\sw/lv_draw_sw_polygon.c ****  *********************/
  19:..\..\..\arduinoLCD\test\Pain Drain\libraries\lvgl\src\draw\sw/lv_draw_sw_polygon.c **** 
  20:..\..\..\arduinoLCD\test\Pain Drain\libraries\lvgl\src\draw\sw/lv_draw_sw_polygon.c **** /**********************
  21:..\..\..\arduinoLCD\test\Pain Drain\libraries\lvgl\src\draw\sw/lv_draw_sw_polygon.c ****  *      TYPEDEFS
  22:..\..\..\arduinoLCD\test\Pain Drain\libraries\lvgl\src\draw\sw/lv_draw_sw_polygon.c ****  **********************/
  23:..\..\..\arduinoLCD\test\Pain Drain\libraries\lvgl\src\draw\sw/lv_draw_sw_polygon.c **** 
  24:..\..\..\arduinoLCD\test\Pain Drain\libraries\lvgl\src\draw\sw/lv_draw_sw_polygon.c **** /**********************
  25:..\..\..\arduinoLCD\test\Pain Drain\libraries\lvgl\src\draw\sw/lv_draw_sw_polygon.c ****  *  STATIC PROTOTYPES
  26:..\..\..\arduinoLCD\test\Pain Drain\libraries\lvgl\src\draw\sw/lv_draw_sw_polygon.c ****  **********************/
  27:..\..\..\arduinoLCD\test\Pain Drain\libraries\lvgl\src\draw\sw/lv_draw_sw_polygon.c **** 
  28:..\..\..\arduinoLCD\test\Pain Drain\libraries\lvgl\src\draw\sw/lv_draw_sw_polygon.c **** /**********************
  29:..\..\..\arduinoLCD\test\Pain Drain\libraries\lvgl\src\draw\sw/lv_draw_sw_polygon.c ****  *  STATIC VARIABLES
  30:..\..\..\arduinoLCD\test\Pain Drain\libraries\lvgl\src\draw\sw/lv_draw_sw_polygon.c ****  **********************/
ARM GAS  C:\Users\haske\AppData\Local\Temp\ccCwCOlb.s 			page 2


  31:..\..\..\arduinoLCD\test\Pain Drain\libraries\lvgl\src\draw\sw/lv_draw_sw_polygon.c **** 
  32:..\..\..\arduinoLCD\test\Pain Drain\libraries\lvgl\src\draw\sw/lv_draw_sw_polygon.c **** /**********************
  33:..\..\..\arduinoLCD\test\Pain Drain\libraries\lvgl\src\draw\sw/lv_draw_sw_polygon.c ****  *      MACROS
  34:..\..\..\arduinoLCD\test\Pain Drain\libraries\lvgl\src\draw\sw/lv_draw_sw_polygon.c ****  **********************/
  35:..\..\..\arduinoLCD\test\Pain Drain\libraries\lvgl\src\draw\sw/lv_draw_sw_polygon.c **** 
  36:..\..\..\arduinoLCD\test\Pain Drain\libraries\lvgl\src\draw\sw/lv_draw_sw_polygon.c **** /**********************
  37:..\..\..\arduinoLCD\test\Pain Drain\libraries\lvgl\src\draw\sw/lv_draw_sw_polygon.c ****  *   GLOBAL FUNCTIONS
  38:..\..\..\arduinoLCD\test\Pain Drain\libraries\lvgl\src\draw\sw/lv_draw_sw_polygon.c ****  **********************/
  39:..\..\..\arduinoLCD\test\Pain Drain\libraries\lvgl\src\draw\sw/lv_draw_sw_polygon.c **** 
  40:..\..\..\arduinoLCD\test\Pain Drain\libraries\lvgl\src\draw\sw/lv_draw_sw_polygon.c **** /**
  41:..\..\..\arduinoLCD\test\Pain Drain\libraries\lvgl\src\draw\sw/lv_draw_sw_polygon.c ****  * Draw a polygon. Only convex polygons are supported
  42:..\..\..\arduinoLCD\test\Pain Drain\libraries\lvgl\src\draw\sw/lv_draw_sw_polygon.c ****  * @param points an array of points
  43:..\..\..\arduinoLCD\test\Pain Drain\libraries\lvgl\src\draw\sw/lv_draw_sw_polygon.c ****  * @param point_cnt number of points
  44:..\..\..\arduinoLCD\test\Pain Drain\libraries\lvgl\src\draw\sw/lv_draw_sw_polygon.c ****  * @param clip_area polygon will be drawn only in this area
  45:..\..\..\arduinoLCD\test\Pain Drain\libraries\lvgl\src\draw\sw/lv_draw_sw_polygon.c ****  * @param draw_dsc pointer to an initialized `lv_draw_rect_dsc_t` variable
  46:..\..\..\arduinoLCD\test\Pain Drain\libraries\lvgl\src\draw\sw/lv_draw_sw_polygon.c ****  */
  47:..\..\..\arduinoLCD\test\Pain Drain\libraries\lvgl\src\draw\sw/lv_draw_sw_polygon.c **** void lv_draw_sw_polygon(lv_draw_ctx_t * draw_ctx, const lv_draw_rect_dsc_t * draw_dsc, const lv_poi
  48:..\..\..\arduinoLCD\test\Pain Drain\libraries\lvgl\src\draw\sw/lv_draw_sw_polygon.c ****                         uint16_t point_cnt)
  49:..\..\..\arduinoLCD\test\Pain Drain\libraries\lvgl\src\draw\sw/lv_draw_sw_polygon.c **** {
  28              		.loc 1 49 0
  29              		.cfi_startproc
  30              		@ args = 0, pretend = 0, frame = 48
  31              		@ frame_needed = 0, uses_anonymous_args = 0
  32              	.LVL0:
  33 0000 F0B5     		push	{r4, r5, r6, r7, lr}
  34              		.cfi_def_cfa_offset 20
  35              		.cfi_offset 4, -20
  36              		.cfi_offset 5, -16
  37              		.cfi_offset 6, -12
  38              		.cfi_offset 7, -8
  39              		.cfi_offset 14, -4
  40 0002 5F46     		mov	r7, fp
  41 0004 5646     		mov	r6, r10
  42 0006 4D46     		mov	r5, r9
  43 0008 4446     		mov	r4, r8
  44 000a F0B4     		push	{r4, r5, r6, r7}
  45              		.cfi_def_cfa_offset 36
  46              		.cfi_offset 8, -36
  47              		.cfi_offset 9, -32
  48              		.cfi_offset 10, -28
  49              		.cfi_offset 11, -24
  50 000c 8FB0     		sub	sp, sp, #60
  51              		.cfi_def_cfa_offset 96
  52 000e 0490     		str	r0, [sp, #16]
  53 0010 0691     		str	r1, [sp, #24]
  54 0012 1700     		movs	r7, r2
  55 0014 9846     		mov	r8, r3
  50:..\..\..\arduinoLCD\test\Pain Drain\libraries\lvgl\src\draw\sw/lv_draw_sw_polygon.c **** #if LV_DRAW_COMPLEX
  51:..\..\..\arduinoLCD\test\Pain Drain\libraries\lvgl\src\draw\sw/lv_draw_sw_polygon.c ****     if(point_cnt < 3) return;
  56              		.loc 1 51 0
  57 0016 022B     		cmp	r3, #2
  58 0018 00D8     		bhi	.LCB32
  59 001a 57E1     		b	.L1	@long jump
  60              	.LCB32:
  52:..\..\..\arduinoLCD\test\Pain Drain\libraries\lvgl\src\draw\sw/lv_draw_sw_polygon.c ****     if(points == NULL) return;
  61              		.loc 1 52 0
  62 001c 002A     		cmp	r2, #0
ARM GAS  C:\Users\haske\AppData\Local\Temp\ccCwCOlb.s 			page 3


  63 001e 00D1     		bne	.LCB34
  64 0020 54E1     		b	.L1	@long jump
  65              	.LCB34:
  53:..\..\..\arduinoLCD\test\Pain Drain\libraries\lvgl\src\draw\sw/lv_draw_sw_polygon.c **** 
  54:..\..\..\arduinoLCD\test\Pain Drain\libraries\lvgl\src\draw\sw/lv_draw_sw_polygon.c ****     /*Join adjacent points if they are on the same coordinate*/
  55:..\..\..\arduinoLCD\test\Pain Drain\libraries\lvgl\src\draw\sw/lv_draw_sw_polygon.c ****     lv_point_t * p = lv_mem_buf_get(point_cnt * sizeof(lv_point_t));
  66              		.loc 1 55 0
  67 0022 9800     		lsls	r0, r3, #2
  68              	.LVL1:
  69 0024 FFF7FEFF 		bl	lv_mem_buf_get
  70              	.LVL2:
  71 0028 041E     		subs	r4, r0, #0
  72              	.LVL3:
  56:..\..\..\arduinoLCD\test\Pain Drain\libraries\lvgl\src\draw\sw/lv_draw_sw_polygon.c ****     if(p == NULL) return;
  73              		.loc 1 56 0
  74 002a 00D1     		bne	.LCB45
  75 002c 4EE1     		b	.L1	@long jump
  76              	.LCB45:
  77              	.LVL4:
  57:..\..\..\arduinoLCD\test\Pain Drain\libraries\lvgl\src\draw\sw/lv_draw_sw_polygon.c ****     uint16_t i;
  58:..\..\..\arduinoLCD\test\Pain Drain\libraries\lvgl\src\draw\sw/lv_draw_sw_polygon.c ****     uint16_t pcnt = 0;
  59:..\..\..\arduinoLCD\test\Pain Drain\libraries\lvgl\src\draw\sw/lv_draw_sw_polygon.c ****     p[0] = points[0];
  78              		.loc 1 59 0
  79 002e 0422     		movs	r2, #4
  80 0030 3900     		movs	r1, r7
  81 0032 FFF7FEFF 		bl	memcpy
  82              	.LVL5:
  58:..\..\..\arduinoLCD\test\Pain Drain\libraries\lvgl\src\draw\sw/lv_draw_sw_polygon.c ****     p[0] = points[0];
  83              		.loc 1 58 0
  84 0036 0026     		movs	r6, #0
  60:..\..\..\arduinoLCD\test\Pain Drain\libraries\lvgl\src\draw\sw/lv_draw_sw_polygon.c ****     for(i = 0; i < point_cnt - 1; i++) {
  85              		.loc 1 60 0
  86 0038 0025     		movs	r5, #0
  87 003a 4346     		mov	r3, r8
  88 003c A046     		mov	r8, r4
  89 003e 9946     		mov	r9, r3
  90 0040 19E0     		b	.L3
  91              	.LVL6:
  92              	.L6:
  61:..\..\..\arduinoLCD\test\Pain Drain\libraries\lvgl\src\draw\sw/lv_draw_sw_polygon.c ****         if(points[i].x != points[i + 1].x || points[i].y != points[i + 1].y) {
  93              		.loc 1 61 0
  94 0042 A900     		lsls	r1, r5, #2
  95 0044 7918     		adds	r1, r7, r1
  96 0046 0023     		movs	r3, #0
  97 0048 C85E     		ldrsh	r0, [r1, r3]
  98 004a 6B1C     		adds	r3, r5, #1
  99 004c 9B00     		lsls	r3, r3, #2
 100 004e FB18     		adds	r3, r7, r3
 101 0050 0024     		movs	r4, #0
 102 0052 1A5F     		ldrsh	r2, [r3, r4]
 103 0054 9042     		cmp	r0, r2
 104 0056 05D1     		bne	.L4
 105              		.loc 1 61 0 is_stmt 0 discriminator 1
 106 0058 0220     		movs	r0, #2
 107 005a 0A5E     		ldrsh	r2, [r1, r0]
 108 005c 0220     		movs	r0, #2
 109 005e 1B5E     		ldrsh	r3, [r3, r0]
ARM GAS  C:\Users\haske\AppData\Local\Temp\ccCwCOlb.s 			page 4


 110 0060 9A42     		cmp	r2, r3
 111 0062 06D0     		beq	.L5
 112              	.L4:
  62:..\..\..\arduinoLCD\test\Pain Drain\libraries\lvgl\src\draw\sw/lv_draw_sw_polygon.c ****             p[pcnt] = points[i];
 113              		.loc 1 62 0 is_stmt 1
 114 0064 B000     		lsls	r0, r6, #2
 115 0066 4044     		add	r0, r0, r8
 116 0068 0422     		movs	r2, #4
 117 006a FFF7FEFF 		bl	memcpy
 118              	.LVL7:
  63:..\..\..\arduinoLCD\test\Pain Drain\libraries\lvgl\src\draw\sw/lv_draw_sw_polygon.c ****             pcnt++;
 119              		.loc 1 63 0
 120 006e 0136     		adds	r6, r6, #1
 121              	.LVL8:
 122 0070 B6B2     		uxth	r6, r6
 123              	.LVL9:
 124              	.L5:
  60:..\..\..\arduinoLCD\test\Pain Drain\libraries\lvgl\src\draw\sw/lv_draw_sw_polygon.c ****         if(points[i].x != points[i + 1].x || points[i].y != points[i + 1].y) {
 125              		.loc 1 60 0 discriminator 2
 126 0072 0135     		adds	r5, r5, #1
 127              	.LVL10:
 128 0074 ADB2     		uxth	r5, r5
 129              	.LVL11:
 130              	.L3:
  60:..\..\..\arduinoLCD\test\Pain Drain\libraries\lvgl\src\draw\sw/lv_draw_sw_polygon.c ****         if(points[i].x != points[i + 1].x || points[i].y != points[i + 1].y) {
 131              		.loc 1 60 0 is_stmt 0 discriminator 1
 132 0076 4B46     		mov	r3, r9
 133 0078 013B     		subs	r3, r3, #1
 134 007a 9D42     		cmp	r5, r3
 135 007c E1DB     		blt	.L6
 136 007e 4446     		mov	r4, r8
  64:..\..\..\arduinoLCD\test\Pain Drain\libraries\lvgl\src\draw\sw/lv_draw_sw_polygon.c ****         }
  65:..\..\..\arduinoLCD\test\Pain Drain\libraries\lvgl\src\draw\sw/lv_draw_sw_polygon.c ****     }
  66:..\..\..\arduinoLCD\test\Pain Drain\libraries\lvgl\src\draw\sw/lv_draw_sw_polygon.c ****     /*The first and the last points are also adjacent*/
  67:..\..\..\arduinoLCD\test\Pain Drain\libraries\lvgl\src\draw\sw/lv_draw_sw_polygon.c ****     if(points[0].x != points[point_cnt - 1].x || points[0].y != points[point_cnt - 1].y) {
 137              		.loc 1 67 0 is_stmt 1
 138 0080 0023     		movs	r3, #0
 139 0082 FA5E     		ldrsh	r2, [r7, r3]
 140 0084 9549     		ldr	r1, .L38
 141 0086 4944     		add	r1, r1, r9
 142 0088 8900     		lsls	r1, r1, #2
 143 008a 7918     		adds	r1, r7, r1
 144 008c 0020     		movs	r0, #0
 145 008e 0B5E     		ldrsh	r3, [r1, r0]
 146 0090 9A42     		cmp	r2, r3
 147 0092 05D1     		bne	.L7
 148              	.LVL12:
 149              		.loc 1 67 0 is_stmt 0 discriminator 1
 150 0094 0223     		movs	r3, #2
 151 0096 FA5E     		ldrsh	r2, [r7, r3]
 152 0098 0220     		movs	r0, #2
 153 009a 0B5E     		ldrsh	r3, [r1, r0]
 154 009c 9A42     		cmp	r2, r3
 155 009e 06D0     		beq	.L8
 156              	.L7:
  68:..\..\..\arduinoLCD\test\Pain Drain\libraries\lvgl\src\draw\sw/lv_draw_sw_polygon.c ****         p[pcnt] = points[point_cnt - 1];
 157              		.loc 1 68 0 is_stmt 1
ARM GAS  C:\Users\haske\AppData\Local\Temp\ccCwCOlb.s 			page 5


 158 00a0 B000     		lsls	r0, r6, #2
 159 00a2 2018     		adds	r0, r4, r0
 160 00a4 0422     		movs	r2, #4
 161 00a6 FFF7FEFF 		bl	memcpy
 162              	.LVL13:
  69:..\..\..\arduinoLCD\test\Pain Drain\libraries\lvgl\src\draw\sw/lv_draw_sw_polygon.c ****         pcnt++;
 163              		.loc 1 69 0
 164 00aa 0136     		adds	r6, r6, #1
 165              	.LVL14:
 166 00ac B6B2     		uxth	r6, r6
 167              	.LVL15:
 168              	.L8:
  70:..\..\..\arduinoLCD\test\Pain Drain\libraries\lvgl\src\draw\sw/lv_draw_sw_polygon.c ****     }
  71:..\..\..\arduinoLCD\test\Pain Drain\libraries\lvgl\src\draw\sw/lv_draw_sw_polygon.c **** 
  72:..\..\..\arduinoLCD\test\Pain Drain\libraries\lvgl\src\draw\sw/lv_draw_sw_polygon.c ****     point_cnt = pcnt;
  73:..\..\..\arduinoLCD\test\Pain Drain\libraries\lvgl\src\draw\sw/lv_draw_sw_polygon.c ****     if(point_cnt < 3) {
 169              		.loc 1 73 0
 170 00ae 022E     		cmp	r6, #2
 171 00b0 03D8     		bhi	.L9
  74:..\..\..\arduinoLCD\test\Pain Drain\libraries\lvgl\src\draw\sw/lv_draw_sw_polygon.c ****         lv_mem_buf_release(p);
 172              		.loc 1 74 0
 173 00b2 2000     		movs	r0, r4
 174 00b4 FFF7FEFF 		bl	lv_mem_buf_release
 175              	.LVL16:
  75:..\..\..\arduinoLCD\test\Pain Drain\libraries\lvgl\src\draw\sw/lv_draw_sw_polygon.c ****         return;
 176              		.loc 1 75 0
 177 00b8 08E1     		b	.L1
 178              	.L9:
  76:..\..\..\arduinoLCD\test\Pain Drain\libraries\lvgl\src\draw\sw/lv_draw_sw_polygon.c ****     }
  77:..\..\..\arduinoLCD\test\Pain Drain\libraries\lvgl\src\draw\sw/lv_draw_sw_polygon.c **** 
  78:..\..\..\arduinoLCD\test\Pain Drain\libraries\lvgl\src\draw\sw/lv_draw_sw_polygon.c ****     lv_area_t poly_coords = {.x1 = LV_COORD_MAX, .y1 = LV_COORD_MAX, .x2 = LV_COORD_MIN, .y2 = LV_C
 179              		.loc 1 78 0
 180 00ba 0822     		movs	r2, #8
 181 00bc 8849     		ldr	r1, .L38+4
 182 00be 0CA8     		add	r0, sp, #48
 183 00c0 FFF7FEFF 		bl	memcpy
 184              	.LVL17:
  79:..\..\..\arduinoLCD\test\Pain Drain\libraries\lvgl\src\draw\sw/lv_draw_sw_polygon.c **** 
  80:..\..\..\arduinoLCD\test\Pain Drain\libraries\lvgl\src\draw\sw/lv_draw_sw_polygon.c ****     for(i = 0; i < point_cnt; i++) {
 185              		.loc 1 80 0
 186 00c4 0022     		movs	r2, #0
 187 00c6 2CE0     		b	.L10
 188              	.LVL18:
 189              	.L15:
  81:..\..\..\arduinoLCD\test\Pain Drain\libraries\lvgl\src\draw\sw/lv_draw_sw_polygon.c ****         poly_coords.x1 = LV_MIN(poly_coords.x1, p[i].x);
 190              		.loc 1 81 0 discriminator 3
 191 00c8 9300     		lsls	r3, r2, #2
 192 00ca E318     		adds	r3, r4, r3
 193 00cc 0020     		movs	r0, #0
 194 00ce 195E     		ldrsh	r1, [r3, r0]
 195 00d0 0CA8     		add	r0, sp, #48
 196 00d2 0025     		movs	r5, #0
 197 00d4 405F     		ldrsh	r0, [r0, r5]
 198 00d6 0D1C     		adds	r5, r1, #0
 199 00d8 8142     		cmp	r1, r0
 200 00da 00DD     		ble	.L11
 201 00dc 051C     		adds	r5, r0, #0
ARM GAS  C:\Users\haske\AppData\Local\Temp\ccCwCOlb.s 			page 6


 202              	.L11:
 203 00de 0CA8     		add	r0, sp, #48
 204 00e0 0580     		strh	r5, [r0]
  82:..\..\..\arduinoLCD\test\Pain Drain\libraries\lvgl\src\draw\sw/lv_draw_sw_polygon.c ****         poly_coords.y1 = LV_MIN(poly_coords.y1, p[i].y);
 205              		.loc 1 82 0 discriminator 3
 206 00e2 0225     		movs	r5, #2
 207 00e4 595F     		ldrsh	r1, [r3, r5]
 208 00e6 0225     		movs	r5, #2
 209 00e8 405F     		ldrsh	r0, [r0, r5]
 210 00ea 0D1C     		adds	r5, r1, #0
 211 00ec 8142     		cmp	r1, r0
 212 00ee 00DD     		ble	.L12
 213 00f0 051C     		adds	r5, r0, #0
 214              	.L12:
 215 00f2 0CA8     		add	r0, sp, #48
 216 00f4 4580     		strh	r5, [r0, #2]
  83:..\..\..\arduinoLCD\test\Pain Drain\libraries\lvgl\src\draw\sw/lv_draw_sw_polygon.c ****         poly_coords.x2 = LV_MAX(poly_coords.x2, p[i].x);
 217              		.loc 1 83 0 discriminator 3
 218 00f6 0025     		movs	r5, #0
 219 00f8 595F     		ldrsh	r1, [r3, r5]
 220 00fa 0425     		movs	r5, #4
 221 00fc 455F     		ldrsh	r5, [r0, r5]
 222 00fe 081C     		adds	r0, r1, #0
 223 0100 A942     		cmp	r1, r5
 224 0102 00DA     		bge	.L13
 225 0104 281C     		adds	r0, r5, #0
 226              	.L13:
 227 0106 0CA9     		add	r1, sp, #48
 228 0108 8880     		strh	r0, [r1, #4]
  84:..\..\..\arduinoLCD\test\Pain Drain\libraries\lvgl\src\draw\sw/lv_draw_sw_polygon.c ****         poly_coords.y2 = LV_MAX(poly_coords.y2, p[i].y);
 229              		.loc 1 84 0 discriminator 3
 230 010a 0220     		movs	r0, #2
 231 010c 1B5E     		ldrsh	r3, [r3, r0]
 232 010e 0620     		movs	r0, #6
 233 0110 085E     		ldrsh	r0, [r1, r0]
 234 0112 191C     		adds	r1, r3, #0
 235 0114 8342     		cmp	r3, r0
 236 0116 00DA     		bge	.L14
 237 0118 011C     		adds	r1, r0, #0
 238              	.L14:
 239 011a 0CAB     		add	r3, sp, #48
 240 011c D980     		strh	r1, [r3, #6]
  80:..\..\..\arduinoLCD\test\Pain Drain\libraries\lvgl\src\draw\sw/lv_draw_sw_polygon.c ****         poly_coords.x1 = LV_MIN(poly_coords.x1, p[i].x);
 241              		.loc 1 80 0 discriminator 3
 242 011e 0132     		adds	r2, r2, #1
 243              	.LVL19:
 244 0120 92B2     		uxth	r2, r2
 245              	.LVL20:
 246              	.L10:
  80:..\..\..\arduinoLCD\test\Pain Drain\libraries\lvgl\src\draw\sw/lv_draw_sw_polygon.c ****         poly_coords.x1 = LV_MIN(poly_coords.x1, p[i].x);
 247              		.loc 1 80 0 is_stmt 0 discriminator 1
 248 0122 B242     		cmp	r2, r6
 249 0124 D0D3     		bcc	.L15
  85:..\..\..\arduinoLCD\test\Pain Drain\libraries\lvgl\src\draw\sw/lv_draw_sw_polygon.c ****     }
  86:..\..\..\arduinoLCD\test\Pain Drain\libraries\lvgl\src\draw\sw/lv_draw_sw_polygon.c **** 
  87:..\..\..\arduinoLCD\test\Pain Drain\libraries\lvgl\src\draw\sw/lv_draw_sw_polygon.c ****     bool is_common;
  88:..\..\..\arduinoLCD\test\Pain Drain\libraries\lvgl\src\draw\sw/lv_draw_sw_polygon.c ****     lv_area_t clip_area;
ARM GAS  C:\Users\haske\AppData\Local\Temp\ccCwCOlb.s 			page 7


  89:..\..\..\arduinoLCD\test\Pain Drain\libraries\lvgl\src\draw\sw/lv_draw_sw_polygon.c ****     is_common = _lv_area_intersect(&clip_area, &poly_coords, draw_ctx->clip_area);
 250              		.loc 1 89 0 is_stmt 1
 251 0126 049B     		ldr	r3, [sp, #16]
 252 0128 9B68     		ldr	r3, [r3, #8]
 253 012a 0293     		str	r3, [sp, #8]
 254 012c 1A00     		movs	r2, r3
 255              	.LVL21:
 256 012e 0CA9     		add	r1, sp, #48
 257 0130 0AA8     		add	r0, sp, #40
 258 0132 FFF7FEFF 		bl	_lv_area_intersect
 259              	.LVL22:
  90:..\..\..\arduinoLCD\test\Pain Drain\libraries\lvgl\src\draw\sw/lv_draw_sw_polygon.c ****     if(!is_common) {
 260              		.loc 1 90 0
 261 0136 0028     		cmp	r0, #0
 262 0138 03D1     		bne	.L16
  91:..\..\..\arduinoLCD\test\Pain Drain\libraries\lvgl\src\draw\sw/lv_draw_sw_polygon.c ****         lv_mem_buf_release(p);
 263              		.loc 1 91 0
 264 013a 2000     		movs	r0, r4
 265              	.LVL23:
 266 013c FFF7FEFF 		bl	lv_mem_buf_release
 267              	.LVL24:
  92:..\..\..\arduinoLCD\test\Pain Drain\libraries\lvgl\src\draw\sw/lv_draw_sw_polygon.c ****         return;
 268              		.loc 1 92 0
 269 0140 C4E0     		b	.L1
 270              	.LVL25:
 271              	.L16:
  93:..\..\..\arduinoLCD\test\Pain Drain\libraries\lvgl\src\draw\sw/lv_draw_sw_polygon.c ****     }
  94:..\..\..\arduinoLCD\test\Pain Drain\libraries\lvgl\src\draw\sw/lv_draw_sw_polygon.c **** 
  95:..\..\..\arduinoLCD\test\Pain Drain\libraries\lvgl\src\draw\sw/lv_draw_sw_polygon.c ****     const lv_area_t * clip_area_ori = draw_ctx->clip_area;
 272              		.loc 1 95 0
 273 0142 049A     		ldr	r2, [sp, #16]
 274 0144 9368     		ldr	r3, [r2, #8]
 275 0146 0993     		str	r3, [sp, #36]
 276              	.LVL26:
  96:..\..\..\arduinoLCD\test\Pain Drain\libraries\lvgl\src\draw\sw/lv_draw_sw_polygon.c ****     draw_ctx->clip_area = &clip_area;
 277              		.loc 1 96 0
 278 0148 0AAB     		add	r3, sp, #40
 279              	.LVL27:
 280 014a 9360     		str	r3, [r2, #8]
 281              	.LVL28:
  97:..\..\..\arduinoLCD\test\Pain Drain\libraries\lvgl\src\draw\sw/lv_draw_sw_polygon.c **** 
  98:..\..\..\arduinoLCD\test\Pain Drain\libraries\lvgl\src\draw\sw/lv_draw_sw_polygon.c ****     /*Find the lowest point*/
  99:..\..\..\arduinoLCD\test\Pain Drain\libraries\lvgl\src\draw\sw/lv_draw_sw_polygon.c ****     lv_coord_t y_min = p[0].y;
 282              		.loc 1 99 0
 283 014c 0223     		movs	r3, #2
 284 014e E15E     		ldrsh	r1, [r4, r3]
 285              	.LVL29:
 100:..\..\..\arduinoLCD\test\Pain Drain\libraries\lvgl\src\draw\sw/lv_draw_sw_polygon.c ****     int16_t y_min_i = 0;
 286              		.loc 1 100 0
 287 0150 0025     		movs	r5, #0
 101:..\..\..\arduinoLCD\test\Pain Drain\libraries\lvgl\src\draw\sw/lv_draw_sw_polygon.c **** 
 102:..\..\..\arduinoLCD\test\Pain Drain\libraries\lvgl\src\draw\sw/lv_draw_sw_polygon.c ****     for(i = 1; i < point_cnt; i++) {
 288              		.loc 1 102 0
 289 0152 0123     		movs	r3, #1
 290 0154 09E0     		b	.L17
 291              	.LVL30:
 292              	.L19:
ARM GAS  C:\Users\haske\AppData\Local\Temp\ccCwCOlb.s 			page 8


 103:..\..\..\arduinoLCD\test\Pain Drain\libraries\lvgl\src\draw\sw/lv_draw_sw_polygon.c ****         if(p[i].y < y_min) {
 293              		.loc 1 103 0
 294 0156 9A00     		lsls	r2, r3, #2
 295 0158 A218     		adds	r2, r4, r2
 296 015a 0220     		movs	r0, #2
 297 015c 125E     		ldrsh	r2, [r2, r0]
 298 015e 9142     		cmp	r1, r2
 299 0160 01DD     		ble	.L18
 300              	.LVL31:
 104:..\..\..\arduinoLCD\test\Pain Drain\libraries\lvgl\src\draw\sw/lv_draw_sw_polygon.c ****             y_min = p[i].y;
 105:..\..\..\arduinoLCD\test\Pain Drain\libraries\lvgl\src\draw\sw/lv_draw_sw_polygon.c ****             y_min_i = i;
 301              		.loc 1 105 0
 302 0162 1DB2     		sxth	r5, r3
 303              	.LVL32:
 104:..\..\..\arduinoLCD\test\Pain Drain\libraries\lvgl\src\draw\sw/lv_draw_sw_polygon.c ****             y_min = p[i].y;
 304              		.loc 1 104 0
 305 0164 1100     		movs	r1, r2
 306              	.LVL33:
 307              	.L18:
 102:..\..\..\arduinoLCD\test\Pain Drain\libraries\lvgl\src\draw\sw/lv_draw_sw_polygon.c ****         if(p[i].y < y_min) {
 308              		.loc 1 102 0 discriminator 2
 309 0166 0133     		adds	r3, r3, #1
 310              	.LVL34:
 311 0168 9BB2     		uxth	r3, r3
 312              	.LVL35:
 313              	.L17:
 102:..\..\..\arduinoLCD\test\Pain Drain\libraries\lvgl\src\draw\sw/lv_draw_sw_polygon.c ****         if(p[i].y < y_min) {
 314              		.loc 1 102 0 is_stmt 0 discriminator 1
 315 016a B342     		cmp	r3, r6
 316 016c F3D3     		bcc	.L19
 106:..\..\..\arduinoLCD\test\Pain Drain\libraries\lvgl\src\draw\sw/lv_draw_sw_polygon.c ****         }
 107:..\..\..\arduinoLCD\test\Pain Drain\libraries\lvgl\src\draw\sw/lv_draw_sw_polygon.c ****     }
 108:..\..\..\arduinoLCD\test\Pain Drain\libraries\lvgl\src\draw\sw/lv_draw_sw_polygon.c **** 
 109:..\..\..\arduinoLCD\test\Pain Drain\libraries\lvgl\src\draw\sw/lv_draw_sw_polygon.c ****     lv_draw_mask_line_param_t * mp = lv_mem_buf_get(sizeof(lv_draw_mask_line_param_t) * point_cnt);
 317              		.loc 1 109 0 is_stmt 1
 318 016e B246     		mov	r10, r6
 319 0170 2C20     		movs	r0, #44
 320 0172 7043     		muls	r0, r6
 321 0174 FFF7FEFF 		bl	lv_mem_buf_get
 322              	.LVL36:
 323 0178 0790     		str	r0, [sp, #28]
 324              	.LVL37:
 110:..\..\..\arduinoLCD\test\Pain Drain\libraries\lvgl\src\draw\sw/lv_draw_sw_polygon.c ****     lv_draw_mask_line_param_t * mp_next = mp;
 111:..\..\..\arduinoLCD\test\Pain Drain\libraries\lvgl\src\draw\sw/lv_draw_sw_polygon.c **** 
 112:..\..\..\arduinoLCD\test\Pain Drain\libraries\lvgl\src\draw\sw/lv_draw_sw_polygon.c ****     int32_t i_prev_left = y_min_i;
 325              		.loc 1 112 0
 326 017a A846     		mov	r8, r5
 327              	.LVL38:
 113:..\..\..\arduinoLCD\test\Pain Drain\libraries\lvgl\src\draw\sw/lv_draw_sw_polygon.c ****     int32_t i_prev_right = y_min_i;
 114:..\..\..\arduinoLCD\test\Pain Drain\libraries\lvgl\src\draw\sw/lv_draw_sw_polygon.c ****     int32_t i_next_left;
 115:..\..\..\arduinoLCD\test\Pain Drain\libraries\lvgl\src\draw\sw/lv_draw_sw_polygon.c ****     int32_t i_next_right;
 116:..\..\..\arduinoLCD\test\Pain Drain\libraries\lvgl\src\draw\sw/lv_draw_sw_polygon.c ****     uint32_t mask_cnt = 0;
 117:..\..\..\arduinoLCD\test\Pain Drain\libraries\lvgl\src\draw\sw/lv_draw_sw_polygon.c **** 
 118:..\..\..\arduinoLCD\test\Pain Drain\libraries\lvgl\src\draw\sw/lv_draw_sw_polygon.c ****     /*Get the index of the left and right points*/
 119:..\..\..\arduinoLCD\test\Pain Drain\libraries\lvgl\src\draw\sw/lv_draw_sw_polygon.c ****     i_next_left = y_min_i - 1;
 120:..\..\..\arduinoLCD\test\Pain Drain\libraries\lvgl\src\draw\sw/lv_draw_sw_polygon.c ****     if(i_next_left < 0) i_next_left = point_cnt + i_next_left;
 328              		.loc 1 120 0
ARM GAS  C:\Users\haske\AppData\Local\Temp\ccCwCOlb.s 			page 9


 329 017c 681E     		subs	r0, r5, #1
 330 017e 00D5     		bpl	.L20
 331              	.LVL39:
 332              		.loc 1 120 0 is_stmt 0 discriminator 1
 333 0180 8019     		adds	r0, r0, r6
 334              	.LVL40:
 335              	.L20:
 121:..\..\..\arduinoLCD\test\Pain Drain\libraries\lvgl\src\draw\sw/lv_draw_sw_polygon.c **** 
 122:..\..\..\arduinoLCD\test\Pain Drain\libraries\lvgl\src\draw\sw/lv_draw_sw_polygon.c ****     i_next_right = y_min_i + 1;
 336              		.loc 1 122 0 is_stmt 1
 337 0182 4346     		mov	r3, r8
 338 0184 0133     		adds	r3, r3, #1
 339              	.LVL41:
 123:..\..\..\arduinoLCD\test\Pain Drain\libraries\lvgl\src\draw\sw/lv_draw_sw_polygon.c ****     if(i_next_right > point_cnt - 1) i_next_right = 0;
 340              		.loc 1 123 0
 341 0186 0896     		str	r6, [sp, #32]
 342 0188 721E     		subs	r2, r6, #1
 343 018a 9346     		mov	fp, r2
 344 018c 9342     		cmp	r3, r2
 345 018e 00DD     		ble	.L21
 346 0190 0023     		movs	r3, #0
 347              	.LVL42:
 348              	.L21:
 124:..\..\..\arduinoLCD\test\Pain Drain\libraries\lvgl\src\draw\sw/lv_draw_sw_polygon.c **** 
 125:..\..\..\arduinoLCD\test\Pain Drain\libraries\lvgl\src\draw\sw/lv_draw_sw_polygon.c ****     /**
 126:..\..\..\arduinoLCD\test\Pain Drain\libraries\lvgl\src\draw\sw/lv_draw_sw_polygon.c ****      * Check if the order of points is inverted or not.
 127:..\..\..\arduinoLCD\test\Pain Drain\libraries\lvgl\src\draw\sw/lv_draw_sw_polygon.c ****      * The normal case is when the left point is on `y_min_i - 1`
 128:..\..\..\arduinoLCD\test\Pain Drain\libraries\lvgl\src\draw\sw/lv_draw_sw_polygon.c ****      * Explanation:
 129:..\..\..\arduinoLCD\test\Pain Drain\libraries\lvgl\src\draw\sw/lv_draw_sw_polygon.c ****      *   if angle(p_left) < angle(p_right) -> inverted
 130:..\..\..\arduinoLCD\test\Pain Drain\libraries\lvgl\src\draw\sw/lv_draw_sw_polygon.c ****      *   dy_left/dx_left < dy_right/dx_right
 131:..\..\..\arduinoLCD\test\Pain Drain\libraries\lvgl\src\draw\sw/lv_draw_sw_polygon.c ****      *   dy_left * dx_right < dy_right * dx_left
 132:..\..\..\arduinoLCD\test\Pain Drain\libraries\lvgl\src\draw\sw/lv_draw_sw_polygon.c ****      */
 133:..\..\..\arduinoLCD\test\Pain Drain\libraries\lvgl\src\draw\sw/lv_draw_sw_polygon.c ****     lv_coord_t dxl = p[i_next_left].x - p[y_min_i].x;
 349              		.loc 1 133 0
 350 0192 8000     		lsls	r0, r0, #2
 351              	.LVL43:
 352 0194 2018     		adds	r0, r4, r0
 353 0196 0021     		movs	r1, #0
 354 0198 425E     		ldrsh	r2, [r0, r1]
 355 019a AD00     		lsls	r5, r5, #2
 356              	.LVL44:
 357 019c 6519     		adds	r5, r4, r5
 358 019e 2E88     		ldrh	r6, [r5]
 359              	.LVL45:
 360 01a0 921B     		subs	r2, r2, r6
 361 01a2 12B2     		sxth	r2, r2
 362              	.LVL46:
 134:..\..\..\arduinoLCD\test\Pain Drain\libraries\lvgl\src\draw\sw/lv_draw_sw_polygon.c ****     lv_coord_t dxr = p[i_next_right].x - p[y_min_i].x;
 363              		.loc 1 134 0
 364 01a4 9B00     		lsls	r3, r3, #2
 365              	.LVL47:
 366 01a6 E318     		adds	r3, r4, r3
 367 01a8 0027     		movs	r7, #0
 368 01aa D95F     		ldrsh	r1, [r3, r7]
 369              	.LVL48:
 370 01ac 891B     		subs	r1, r1, r6
 371 01ae 09B2     		sxth	r1, r1
ARM GAS  C:\Users\haske\AppData\Local\Temp\ccCwCOlb.s 			page 10


 372              	.LVL49:
 135:..\..\..\arduinoLCD\test\Pain Drain\libraries\lvgl\src\draw\sw/lv_draw_sw_polygon.c ****     lv_coord_t dyl = p[i_next_left].y - p[y_min_i].y;
 373              		.loc 1 135 0
 374 01b0 0226     		movs	r6, #2
 375 01b2 805F     		ldrsh	r0, [r0, r6]
 376 01b4 6D88     		ldrh	r5, [r5, #2]
 377 01b6 401B     		subs	r0, r0, r5
 378 01b8 06B2     		sxth	r6, r0
 379              	.LVL50:
 136:..\..\..\arduinoLCD\test\Pain Drain\libraries\lvgl\src\draw\sw/lv_draw_sw_polygon.c ****     lv_coord_t dyr = p[i_next_right].y - p[y_min_i].y;
 380              		.loc 1 136 0
 381 01ba 0220     		movs	r0, #2
 382 01bc 1B5E     		ldrsh	r3, [r3, r0]
 383 01be 5D1B     		subs	r5, r3, r5
 384 01c0 2DB2     		sxth	r5, r5
 385              	.LVL51:
 137:..\..\..\arduinoLCD\test\Pain Drain\libraries\lvgl\src\draw\sw/lv_draw_sw_polygon.c **** 
 138:..\..\..\arduinoLCD\test\Pain Drain\libraries\lvgl\src\draw\sw/lv_draw_sw_polygon.c ****     bool inv = false;
 139:..\..\..\arduinoLCD\test\Pain Drain\libraries\lvgl\src\draw\sw/lv_draw_sw_polygon.c ****     if(dyl * dxr < dyr * dxl) inv = true;
 386              		.loc 1 139 0
 387 01c2 7143     		muls	r1, r6
 388              	.LVL52:
 389 01c4 5543     		muls	r5, r2
 390              	.LVL53:
 391 01c6 A942     		cmp	r1, r5
 392 01c8 02DB     		blt	.L35
 138:..\..\..\arduinoLCD\test\Pain Drain\libraries\lvgl\src\draw\sw/lv_draw_sw_polygon.c ****     if(dyl * dxr < dyr * dxl) inv = true;
 393              		.loc 1 138 0
 394 01ca 0023     		movs	r3, #0
 395              	.LVL54:
 396 01cc 0393     		str	r3, [sp, #12]
 397 01ce 01E0     		b	.L22
 398              	.LVL55:
 399              	.L35:
 400              		.loc 1 139 0
 401 01d0 0123     		movs	r3, #1
 402              	.LVL56:
 403 01d2 0393     		str	r3, [sp, #12]
 404              	.L22:
 405 01d4 C146     		mov	r9, r8
 406 01d6 079B     		ldr	r3, [sp, #28]
 407 01d8 0593     		str	r3, [sp, #20]
 408 01da 0025     		movs	r5, #0
 409              	.LVL57:
 410              	.L32:
 140:..\..\..\arduinoLCD\test\Pain Drain\libraries\lvgl\src\draw\sw/lv_draw_sw_polygon.c **** 
 141:..\..\..\arduinoLCD\test\Pain Drain\libraries\lvgl\src\draw\sw/lv_draw_sw_polygon.c ****     do {
 142:..\..\..\arduinoLCD\test\Pain Drain\libraries\lvgl\src\draw\sw/lv_draw_sw_polygon.c ****         if(!inv) {
 411              		.loc 1 142 0
 412 01dc 039B     		ldr	r3, [sp, #12]
 413 01de 002B     		cmp	r3, #0
 414 01e0 0AD1     		bne	.L23
 415              	.LVL58:
 143:..\..\..\arduinoLCD\test\Pain Drain\libraries\lvgl\src\draw\sw/lv_draw_sw_polygon.c ****             i_next_left = i_prev_left - 1;
 144:..\..\..\arduinoLCD\test\Pain Drain\libraries\lvgl\src\draw\sw/lv_draw_sw_polygon.c ****             if(i_next_left < 0) i_next_left = point_cnt + i_next_left;
 416              		.loc 1 144 0
 417 01e2 4346     		mov	r3, r8
ARM GAS  C:\Users\haske\AppData\Local\Temp\ccCwCOlb.s 			page 11


 418 01e4 5E1E     		subs	r6, r3, #1
 419 01e6 02D5     		bpl	.L24
 420              	.LVL59:
 421              		.loc 1 144 0 is_stmt 0 discriminator 1
 422 01e8 089B     		ldr	r3, [sp, #32]
 423 01ea 9C46     		mov	ip, r3
 424 01ec 6644     		add	r6, r6, ip
 425              	.LVL60:
 426              	.L24:
 145:..\..\..\arduinoLCD\test\Pain Drain\libraries\lvgl\src\draw\sw/lv_draw_sw_polygon.c **** 
 146:..\..\..\arduinoLCD\test\Pain Drain\libraries\lvgl\src\draw\sw/lv_draw_sw_polygon.c ****             i_next_right = i_prev_right + 1;
 427              		.loc 1 146 0 is_stmt 1
 428 01ee 4B46     		mov	r3, r9
 429 01f0 5F1C     		adds	r7, r3, #1
 430              	.LVL61:
 147:..\..\..\arduinoLCD\test\Pain Drain\libraries\lvgl\src\draw\sw/lv_draw_sw_polygon.c ****             if(i_next_right > point_cnt - 1) i_next_right = 0;
 431              		.loc 1 147 0
 432 01f2 BB45     		cmp	fp, r7
 433 01f4 0CDB     		blt	.L36
 434              	.LVL62:
 435 01f6 0CE0     		b	.L25
 436              	.LVL63:
 437              	.L23:
 148:..\..\..\arduinoLCD\test\Pain Drain\libraries\lvgl\src\draw\sw/lv_draw_sw_polygon.c ****         }
 149:..\..\..\arduinoLCD\test\Pain Drain\libraries\lvgl\src\draw\sw/lv_draw_sw_polygon.c ****         else {
 150:..\..\..\arduinoLCD\test\Pain Drain\libraries\lvgl\src\draw\sw/lv_draw_sw_polygon.c ****             i_next_left = i_prev_left + 1;
 438              		.loc 1 150 0
 439 01f8 4346     		mov	r3, r8
 440 01fa 5E1C     		adds	r6, r3, #1
 441              	.LVL64:
 151:..\..\..\arduinoLCD\test\Pain Drain\libraries\lvgl\src\draw\sw/lv_draw_sw_polygon.c ****             if(i_next_left > point_cnt - 1) i_next_left = 0;
 442              		.loc 1 151 0
 443 01fc B345     		cmp	fp, r6
 444 01fe 00DA     		bge	.L26
 445              	.LVL65:
 446 0200 0026     		movs	r6, #0
 447              	.LVL66:
 448              	.L26:
 152:..\..\..\arduinoLCD\test\Pain Drain\libraries\lvgl\src\draw\sw/lv_draw_sw_polygon.c **** 
 153:..\..\..\arduinoLCD\test\Pain Drain\libraries\lvgl\src\draw\sw/lv_draw_sw_polygon.c ****             i_next_right = i_prev_right - 1;
 154:..\..\..\arduinoLCD\test\Pain Drain\libraries\lvgl\src\draw\sw/lv_draw_sw_polygon.c ****             if(i_next_right < 0) i_next_right = point_cnt + i_next_right;
 449              		.loc 1 154 0
 450 0202 4B46     		mov	r3, r9
 451              	.LVL67:
 452 0204 5F1E     		subs	r7, r3, #1
 453 0206 04D5     		bpl	.L25
 454              	.LVL68:
 455              		.loc 1 154 0 is_stmt 0 discriminator 1
 456 0208 089B     		ldr	r3, [sp, #32]
 457              	.LVL69:
 458 020a 9C46     		mov	ip, r3
 459 020c 6744     		add	r7, r7, ip
 460              	.LVL70:
 461 020e 00E0     		b	.L25
 462              	.LVL71:
 463              	.L36:
 147:..\..\..\arduinoLCD\test\Pain Drain\libraries\lvgl\src\draw\sw/lv_draw_sw_polygon.c ****         }
ARM GAS  C:\Users\haske\AppData\Local\Temp\ccCwCOlb.s 			page 12


 464              		.loc 1 147 0 is_stmt 1
 465 0210 0027     		movs	r7, #0
 466              	.LVL72:
 467              	.L25:
 155:..\..\..\arduinoLCD\test\Pain Drain\libraries\lvgl\src\draw\sw/lv_draw_sw_polygon.c ****         }
 156:..\..\..\arduinoLCD\test\Pain Drain\libraries\lvgl\src\draw\sw/lv_draw_sw_polygon.c **** 
 157:..\..\..\arduinoLCD\test\Pain Drain\libraries\lvgl\src\draw\sw/lv_draw_sw_polygon.c ****         if(p[i_next_left].y >= p[i_prev_left].y) {
 468              		.loc 1 157 0
 469 0212 B300     		lsls	r3, r6, #2
 470 0214 E318     		adds	r3, r4, r3
 471 0216 0222     		movs	r2, #2
 472 0218 985E     		ldrsh	r0, [r3, r2]
 473 021a 0290     		str	r0, [sp, #8]
 474 021c 4246     		mov	r2, r8
 475 021e 9100     		lsls	r1, r2, #2
 476 0220 6118     		adds	r1, r4, r1
 477 0222 0220     		movs	r0, #2
 478 0224 0A5E     		ldrsh	r2, [r1, r0]
 479 0226 0298     		ldr	r0, [sp, #8]
 480 0228 9042     		cmp	r0, r2
 481 022a 17DB     		blt	.L27
 158:..\..\..\arduinoLCD\test\Pain Drain\libraries\lvgl\src\draw\sw/lv_draw_sw_polygon.c ****             if(p[i_next_left].y != p[i_prev_left].y &&
 482              		.loc 1 158 0
 483 022c 14D0     		beq	.L28
 159:..\..\..\arduinoLCD\test\Pain Drain\libraries\lvgl\src\draw\sw/lv_draw_sw_polygon.c ****                p[i_next_left].x != p[i_prev_left].x) {
 484              		.loc 1 159 0 discriminator 1
 485 022e 0020     		movs	r0, #0
 486 0230 1B5E     		ldrsh	r3, [r3, r0]
 487 0232 0020     		movs	r0, #0
 488 0234 095E     		ldrsh	r1, [r1, r0]
 158:..\..\..\arduinoLCD\test\Pain Drain\libraries\lvgl\src\draw\sw/lv_draw_sw_polygon.c ****             if(p[i_next_left].y != p[i_prev_left].y &&
 489              		.loc 1 158 0 discriminator 1
 490 0236 8B42     		cmp	r3, r1
 491 0238 0ED0     		beq	.L28
 160:..\..\..\arduinoLCD\test\Pain Drain\libraries\lvgl\src\draw\sw/lv_draw_sw_polygon.c ****                 lv_draw_mask_line_points_init(mp_next, p[i_prev_left].x, p[i_prev_left].y,
 492              		.loc 1 160 0
 493 023a 0120     		movs	r0, #1
 494 023c 0190     		str	r0, [sp, #4]
 495 023e 0298     		ldr	r0, [sp, #8]
 496 0240 0090     		str	r0, [sp]
 497 0242 0598     		ldr	r0, [sp, #20]
 498 0244 8046     		mov	r8, r0
 499              	.LVL73:
 500 0246 FFF7FEFF 		bl	lv_draw_mask_line_points_init
 501              	.LVL74:
 161:..\..\..\arduinoLCD\test\Pain Drain\libraries\lvgl\src\draw\sw/lv_draw_sw_polygon.c ****                                               p[i_next_left].x, p[i_next_left].y,
 162:..\..\..\arduinoLCD\test\Pain Drain\libraries\lvgl\src\draw\sw/lv_draw_sw_polygon.c ****                                               LV_DRAW_MASK_LINE_SIDE_RIGHT);
 163:..\..\..\arduinoLCD\test\Pain Drain\libraries\lvgl\src\draw\sw/lv_draw_sw_polygon.c ****                 lv_draw_mask_add(mp_next, mp);
 502              		.loc 1 163 0
 503 024a 0799     		ldr	r1, [sp, #28]
 504 024c 4046     		mov	r0, r8
 505 024e FFF7FEFF 		bl	lv_draw_mask_add
 506              	.LVL75:
 164:..\..\..\arduinoLCD\test\Pain Drain\libraries\lvgl\src\draw\sw/lv_draw_sw_polygon.c ****                 mp_next++;
 507              		.loc 1 164 0
 508 0252 4346     		mov	r3, r8
 509 0254 2C33     		adds	r3, r3, #44
ARM GAS  C:\Users\haske\AppData\Local\Temp\ccCwCOlb.s 			page 13


 510 0256 0593     		str	r3, [sp, #20]
 511              	.LVL76:
 512              	.L28:
 165:..\..\..\arduinoLCD\test\Pain Drain\libraries\lvgl\src\draw\sw/lv_draw_sw_polygon.c ****             }
 166:..\..\..\arduinoLCD\test\Pain Drain\libraries\lvgl\src\draw\sw/lv_draw_sw_polygon.c ****             mask_cnt++;
 513              		.loc 1 166 0
 514 0258 0135     		adds	r5, r5, #1
 515              	.LVL77:
 167:..\..\..\arduinoLCD\test\Pain Drain\libraries\lvgl\src\draw\sw/lv_draw_sw_polygon.c ****             i_prev_left = i_next_left;
 516              		.loc 1 167 0
 517 025a B046     		mov	r8, r6
 518              	.LVL78:
 519              	.L27:
 168:..\..\..\arduinoLCD\test\Pain Drain\libraries\lvgl\src\draw\sw/lv_draw_sw_polygon.c ****         }
 169:..\..\..\arduinoLCD\test\Pain Drain\libraries\lvgl\src\draw\sw/lv_draw_sw_polygon.c **** 
 170:..\..\..\arduinoLCD\test\Pain Drain\libraries\lvgl\src\draw\sw/lv_draw_sw_polygon.c ****         if(mask_cnt == point_cnt) break;
 520              		.loc 1 170 0
 521 025c 5545     		cmp	r5, r10
 522 025e 23D0     		beq	.L29
 171:..\..\..\arduinoLCD\test\Pain Drain\libraries\lvgl\src\draw\sw/lv_draw_sw_polygon.c **** 
 172:..\..\..\arduinoLCD\test\Pain Drain\libraries\lvgl\src\draw\sw/lv_draw_sw_polygon.c ****         if(p[i_next_right].y >= p[i_prev_right].y) {
 523              		.loc 1 172 0
 524 0260 BB00     		lsls	r3, r7, #2
 525 0262 E318     		adds	r3, r4, r3
 526 0264 0222     		movs	r2, #2
 527 0266 985E     		ldrsh	r0, [r3, r2]
 528 0268 4A46     		mov	r2, r9
 529 026a 9100     		lsls	r1, r2, #2
 530 026c 6118     		adds	r1, r4, r1
 531 026e 0226     		movs	r6, #2
 532 0270 8A5F     		ldrsh	r2, [r1, r6]
 533              	.LVL79:
 534 0272 9042     		cmp	r0, r2
 535 0274 16DB     		blt	.L30
 173:..\..\..\arduinoLCD\test\Pain Drain\libraries\lvgl\src\draw\sw/lv_draw_sw_polygon.c ****             if(p[i_next_right].y != p[i_prev_right].y &&
 536              		.loc 1 173 0
 537 0276 13D0     		beq	.L31
 174:..\..\..\arduinoLCD\test\Pain Drain\libraries\lvgl\src\draw\sw/lv_draw_sw_polygon.c ****                p[i_next_right].x != p[i_prev_right].x) {
 538              		.loc 1 174 0 discriminator 1
 539 0278 0026     		movs	r6, #0
 540 027a 9B5F     		ldrsh	r3, [r3, r6]
 541 027c 0026     		movs	r6, #0
 542 027e 895F     		ldrsh	r1, [r1, r6]
 173:..\..\..\arduinoLCD\test\Pain Drain\libraries\lvgl\src\draw\sw/lv_draw_sw_polygon.c ****             if(p[i_next_right].y != p[i_prev_right].y &&
 543              		.loc 1 173 0 discriminator 1
 544 0280 8B42     		cmp	r3, r1
 545 0282 0DD0     		beq	.L31
 175:..\..\..\arduinoLCD\test\Pain Drain\libraries\lvgl\src\draw\sw/lv_draw_sw_polygon.c **** 
 176:..\..\..\arduinoLCD\test\Pain Drain\libraries\lvgl\src\draw\sw/lv_draw_sw_polygon.c ****                 lv_draw_mask_line_points_init(mp_next, p[i_prev_right].x, p[i_prev_right].y,
 546              		.loc 1 176 0
 547 0284 0026     		movs	r6, #0
 548 0286 0196     		str	r6, [sp, #4]
 549 0288 0090     		str	r0, [sp]
 550 028a 059E     		ldr	r6, [sp, #20]
 551 028c 3000     		movs	r0, r6
 552 028e FFF7FEFF 		bl	lv_draw_mask_line_points_init
 553              	.LVL80:
ARM GAS  C:\Users\haske\AppData\Local\Temp\ccCwCOlb.s 			page 14


 177:..\..\..\arduinoLCD\test\Pain Drain\libraries\lvgl\src\draw\sw/lv_draw_sw_polygon.c ****                                               p[i_next_right].x, p[i_next_right].y,
 178:..\..\..\arduinoLCD\test\Pain Drain\libraries\lvgl\src\draw\sw/lv_draw_sw_polygon.c ****                                               LV_DRAW_MASK_LINE_SIDE_LEFT);
 179:..\..\..\arduinoLCD\test\Pain Drain\libraries\lvgl\src\draw\sw/lv_draw_sw_polygon.c ****                 lv_draw_mask_add(mp_next, mp);
 554              		.loc 1 179 0
 555 0292 0799     		ldr	r1, [sp, #28]
 556 0294 3000     		movs	r0, r6
 557 0296 FFF7FEFF 		bl	lv_draw_mask_add
 558              	.LVL81:
 180:..\..\..\arduinoLCD\test\Pain Drain\libraries\lvgl\src\draw\sw/lv_draw_sw_polygon.c ****                 mp_next++;
 559              		.loc 1 180 0
 560 029a 3300     		movs	r3, r6
 561 029c 2C33     		adds	r3, r3, #44
 562 029e 0593     		str	r3, [sp, #20]
 563              	.LVL82:
 564              	.L31:
 181:..\..\..\arduinoLCD\test\Pain Drain\libraries\lvgl\src\draw\sw/lv_draw_sw_polygon.c ****             }
 182:..\..\..\arduinoLCD\test\Pain Drain\libraries\lvgl\src\draw\sw/lv_draw_sw_polygon.c ****             mask_cnt++;
 565              		.loc 1 182 0
 566 02a0 0135     		adds	r5, r5, #1
 567              	.LVL83:
 183:..\..\..\arduinoLCD\test\Pain Drain\libraries\lvgl\src\draw\sw/lv_draw_sw_polygon.c ****             i_prev_right = i_next_right;
 568              		.loc 1 183 0
 569 02a2 B946     		mov	r9, r7
 570              	.LVL84:
 571              	.L30:
 184:..\..\..\arduinoLCD\test\Pain Drain\libraries\lvgl\src\draw\sw/lv_draw_sw_polygon.c ****         }
 185:..\..\..\arduinoLCD\test\Pain Drain\libraries\lvgl\src\draw\sw/lv_draw_sw_polygon.c **** 
 186:..\..\..\arduinoLCD\test\Pain Drain\libraries\lvgl\src\draw\sw/lv_draw_sw_polygon.c ****     } while(mask_cnt < point_cnt);
 572              		.loc 1 186 0
 573 02a4 5545     		cmp	r5, r10
 574 02a6 99D3     		bcc	.L32
 575              	.L29:
 187:..\..\..\arduinoLCD\test\Pain Drain\libraries\lvgl\src\draw\sw/lv_draw_sw_polygon.c **** 
 188:..\..\..\arduinoLCD\test\Pain Drain\libraries\lvgl\src\draw\sw/lv_draw_sw_polygon.c ****     lv_draw_rect(draw_ctx, draw_dsc, &poly_coords);
 576              		.loc 1 188 0
 577 02a8 0CAA     		add	r2, sp, #48
 578 02aa 0699     		ldr	r1, [sp, #24]
 579 02ac 049E     		ldr	r6, [sp, #16]
 580 02ae 3000     		movs	r0, r6
 581 02b0 FFF7FEFF 		bl	lv_draw_rect
 582              	.LVL85:
 189:..\..\..\arduinoLCD\test\Pain Drain\libraries\lvgl\src\draw\sw/lv_draw_sw_polygon.c **** 
 190:..\..\..\arduinoLCD\test\Pain Drain\libraries\lvgl\src\draw\sw/lv_draw_sw_polygon.c ****     lv_draw_mask_remove_custom(mp);
 583              		.loc 1 190 0
 584 02b4 079D     		ldr	r5, [sp, #28]
 585              	.LVL86:
 586 02b6 2800     		movs	r0, r5
 587 02b8 FFF7FEFF 		bl	lv_draw_mask_remove_custom
 588              	.LVL87:
 191:..\..\..\arduinoLCD\test\Pain Drain\libraries\lvgl\src\draw\sw/lv_draw_sw_polygon.c **** 
 192:..\..\..\arduinoLCD\test\Pain Drain\libraries\lvgl\src\draw\sw/lv_draw_sw_polygon.c ****     lv_mem_buf_release(mp);
 589              		.loc 1 192 0
 590 02bc 2800     		movs	r0, r5
 591 02be FFF7FEFF 		bl	lv_mem_buf_release
 592              	.LVL88:
 193:..\..\..\arduinoLCD\test\Pain Drain\libraries\lvgl\src\draw\sw/lv_draw_sw_polygon.c ****     lv_mem_buf_release(p);
 593              		.loc 1 193 0
ARM GAS  C:\Users\haske\AppData\Local\Temp\ccCwCOlb.s 			page 15


 594 02c2 2000     		movs	r0, r4
 595 02c4 FFF7FEFF 		bl	lv_mem_buf_release
 596              	.LVL89:
 194:..\..\..\arduinoLCD\test\Pain Drain\libraries\lvgl\src\draw\sw/lv_draw_sw_polygon.c **** 
 195:..\..\..\arduinoLCD\test\Pain Drain\libraries\lvgl\src\draw\sw/lv_draw_sw_polygon.c ****     draw_ctx->clip_area = clip_area_ori;
 597              		.loc 1 195 0
 598 02c8 099A     		ldr	r2, [sp, #36]
 599 02ca B260     		str	r2, [r6, #8]
 600              	.LVL90:
 601              	.L1:
 196:..\..\..\arduinoLCD\test\Pain Drain\libraries\lvgl\src\draw\sw/lv_draw_sw_polygon.c **** #else
 197:..\..\..\arduinoLCD\test\Pain Drain\libraries\lvgl\src\draw\sw/lv_draw_sw_polygon.c ****     LV_UNUSED(points);
 198:..\..\..\arduinoLCD\test\Pain Drain\libraries\lvgl\src\draw\sw/lv_draw_sw_polygon.c ****     LV_UNUSED(point_cnt);
 199:..\..\..\arduinoLCD\test\Pain Drain\libraries\lvgl\src\draw\sw/lv_draw_sw_polygon.c ****     LV_UNUSED(draw_ctx);
 200:..\..\..\arduinoLCD\test\Pain Drain\libraries\lvgl\src\draw\sw/lv_draw_sw_polygon.c ****     LV_UNUSED(draw_dsc);
 201:..\..\..\arduinoLCD\test\Pain Drain\libraries\lvgl\src\draw\sw/lv_draw_sw_polygon.c ****     LV_LOG_WARN("Can't draw polygon with LV_DRAW_COMPLEX == 0");
 202:..\..\..\arduinoLCD\test\Pain Drain\libraries\lvgl\src\draw\sw/lv_draw_sw_polygon.c **** #endif /*LV_DRAW_COMPLEX*/
 203:..\..\..\arduinoLCD\test\Pain Drain\libraries\lvgl\src\draw\sw/lv_draw_sw_polygon.c **** }
 602              		.loc 1 203 0
 603 02cc 0FB0     		add	sp, sp, #60
 604              		@ sp needed
 605 02ce 3CBC     		pop	{r2, r3, r4, r5}
 606 02d0 9046     		mov	r8, r2
 607 02d2 9946     		mov	r9, r3
 608 02d4 A246     		mov	r10, r4
 609 02d6 AB46     		mov	fp, r5
 610 02d8 F0BD     		pop	{r4, r5, r6, r7, pc}
 611              	.L39:
 612 02da C046     		.align	2
 613              	.L38:
 614 02dc FFFFFF3F 		.word	1073741823
 615 02e0 00000000 		.word	.LANCHOR0
 616              		.cfi_endproc
 617              	.LFE56:
 618              		.size	lv_draw_sw_polygon, .-lv_draw_sw_polygon
 619              		.section	.rodata
 620              		.align	2
 621              		.set	.LANCHOR0,. + 0
 622              	.LC0:
 623 0000 FF1F     		.short	8191
 624 0002 FF1F     		.short	8191
 625 0004 01E0     		.short	-8191
 626 0006 01E0     		.short	-8191
 627              		.text
 628              	.Letext0:
 629              		.file 2 "c:\\program files (x86)\\cypress\\psoc creator\\4.4\\psoc creator\\import\\gnu\\arm\\5.4.
 630              		.file 3 "c:\\program files (x86)\\cypress\\psoc creator\\4.4\\psoc creator\\import\\gnu\\arm\\5.4.
 631              		.file 4 "c:\\projects\\paindrain\\arduinolcd\\test\\pain drain\\libraries\\lvgl\\src\\misc\\lv_typ
 632              		.file 5 "c:\\program files (x86)\\cypress\\psoc creator\\4.4\\psoc creator\\import\\gnu\\arm\\5.4.
 633              		.file 6 "c:\\projects\\paindrain\\arduinolcd\\test\\pain drain\\libraries\\lvgl\\src\\misc\\lv_col
 634              		.file 7 "c:\\projects\\paindrain\\arduinolcd\\test\\pain drain\\libraries\\lvgl\\src\\misc\\lv_are
 635              		.file 8 "c:\\projects\\paindrain\\arduinolcd\\test\\pain drain\\libraries\\lvgl\\src\\font\\lv_fon
 636              		.file 9 "c:\\projects\\paindrain\\arduinolcd\\test\\pain drain\\libraries\\lvgl\\src\\misc\\lv_txt
 637              		.file 10 "c:\\projects\\paindrain\\arduinolcd\\test\\pain drain\\libraries\\lvgl\\src\\misc\\lv_bi
 638              		.file 11 "c:\\projects\\paindrain\\arduinolcd\\test\\pain drain\\libraries\\lvgl\\src\\misc\\lv_st
 639              		.file 12 "..\\..\\..\\arduinoLCD\\test\\Pain Drain\\libraries\\lvgl\\src\\draw\\sw\\../lv_draw_mas
 640              		.file 13 "..\\..\\..\\arduinoLCD\\test\\Pain Drain\\libraries\\lvgl\\src\\draw\\sw\\../lv_img_buf.
ARM GAS  C:\Users\haske\AppData\Local\Temp\ccCwCOlb.s 			page 16


 641              		.file 14 "..\\..\\..\\arduinoLCD\\test\\Pain Drain\\libraries\\lvgl\\src\\draw\\sw\\../lv_draw_rec
 642              		.file 15 "..\\..\\..\\arduinoLCD\\test\\Pain Drain\\libraries\\lvgl\\src\\draw\\sw\\../lv_draw_lab
 643              		.file 16 "..\\..\\..\\arduinoLCD\\test\\Pain Drain\\libraries\\lvgl\\src\\draw\\sw\\../lv_draw_img
 644              		.file 17 "..\\..\\..\\arduinoLCD\\test\\Pain Drain\\libraries\\lvgl\\src\\draw\\sw\\../lv_draw_lin
 645              		.file 18 "..\\..\\..\\arduinoLCD\\test\\Pain Drain\\libraries\\lvgl\\src\\draw\\sw\\../lv_draw_arc
 646              		.file 19 "..\\..\\..\\arduinoLCD\\test\\Pain Drain\\libraries\\lvgl\\src\\draw\\sw\\../lv_draw_lay
 647              		.file 20 "..\\..\\..\\arduinoLCD\\test\\Pain Drain\\libraries\\lvgl\\src\\draw\\sw\\../lv_draw.h"
 648              		.file 21 "c:\\projects\\paindrain\\arduinolcd\\test\\pain drain\\libraries\\lvgl\\src\\misc\\lv_me