ARM GAS  C:\Users\haske\AppData\Local\Temp\cc83DdBJ.s 			page 1


   1              		.syntax unified
   2              		.cpu cortex-m0plus
   3              		.fpu softvfp
   4              		.eabi_attribute 20, 1
   5              		.eabi_attribute 21, 1
   6              		.eabi_attribute 23, 3
   7              		.eabi_attribute 24, 1
   8              		.eabi_attribute 25, 1
   9              		.eabi_attribute 26, 1
  10              		.eabi_attribute 30, 1
  11              		.eabi_attribute 34, 0
  12              		.eabi_attribute 18, 4
  13              		.thumb
  14              		.syntax unified
  15              		.file	"lv_draw_triangle.c"
  16              		.text
  17              	.Ltext0:
  18              		.cfi_sections	.debug_frame
  19              		.section	.text.lv_draw_polygon,"ax",%progbits
  20              		.align	2
  21              		.global	lv_draw_polygon
  22              		.code	16
  23              		.thumb_func
  24              		.type	lv_draw_polygon, %function
  25              	lv_draw_polygon:
  26              	.LFB55:
  27              		.file 1 "..\\..\\..\\arduinoLCD\\test\\Pain Drain\\libraries\\lvgl\\src\\draw\\lv_draw_triangle.c"
   1:..\..\..\arduinoLCD\test\Pain Drain\libraries\lvgl\src\draw/lv_draw_triangle.c **** /**
   2:..\..\..\arduinoLCD\test\Pain Drain\libraries\lvgl\src\draw/lv_draw_triangle.c ****  * @file lv_draw_triangle.c
   3:..\..\..\arduinoLCD\test\Pain Drain\libraries\lvgl\src\draw/lv_draw_triangle.c ****  *
   4:..\..\..\arduinoLCD\test\Pain Drain\libraries\lvgl\src\draw/lv_draw_triangle.c ****  */
   5:..\..\..\arduinoLCD\test\Pain Drain\libraries\lvgl\src\draw/lv_draw_triangle.c **** 
   6:..\..\..\arduinoLCD\test\Pain Drain\libraries\lvgl\src\draw/lv_draw_triangle.c **** /*********************
   7:..\..\..\arduinoLCD\test\Pain Drain\libraries\lvgl\src\draw/lv_draw_triangle.c ****  *      INCLUDES
   8:..\..\..\arduinoLCD\test\Pain Drain\libraries\lvgl\src\draw/lv_draw_triangle.c ****  *********************/
   9:..\..\..\arduinoLCD\test\Pain Drain\libraries\lvgl\src\draw/lv_draw_triangle.c **** #include "lv_draw.h"
  10:..\..\..\arduinoLCD\test\Pain Drain\libraries\lvgl\src\draw/lv_draw_triangle.c **** #include "lv_draw_triangle.h"
  11:..\..\..\arduinoLCD\test\Pain Drain\libraries\lvgl\src\draw/lv_draw_triangle.c **** #include "../misc/lv_math.h"
  12:..\..\..\arduinoLCD\test\Pain Drain\libraries\lvgl\src\draw/lv_draw_triangle.c **** #include "../misc/lv_mem.h"
  13:..\..\..\arduinoLCD\test\Pain Drain\libraries\lvgl\src\draw/lv_draw_triangle.c **** 
  14:..\..\..\arduinoLCD\test\Pain Drain\libraries\lvgl\src\draw/lv_draw_triangle.c **** /*********************
  15:..\..\..\arduinoLCD\test\Pain Drain\libraries\lvgl\src\draw/lv_draw_triangle.c ****  *      DEFINES
  16:..\..\..\arduinoLCD\test\Pain Drain\libraries\lvgl\src\draw/lv_draw_triangle.c ****  *********************/
  17:..\..\..\arduinoLCD\test\Pain Drain\libraries\lvgl\src\draw/lv_draw_triangle.c **** 
  18:..\..\..\arduinoLCD\test\Pain Drain\libraries\lvgl\src\draw/lv_draw_triangle.c **** /**********************
  19:..\..\..\arduinoLCD\test\Pain Drain\libraries\lvgl\src\draw/lv_draw_triangle.c ****  *      TYPEDEFS
  20:..\..\..\arduinoLCD\test\Pain Drain\libraries\lvgl\src\draw/lv_draw_triangle.c ****  **********************/
  21:..\..\..\arduinoLCD\test\Pain Drain\libraries\lvgl\src\draw/lv_draw_triangle.c **** 
  22:..\..\..\arduinoLCD\test\Pain Drain\libraries\lvgl\src\draw/lv_draw_triangle.c **** /**********************
  23:..\..\..\arduinoLCD\test\Pain Drain\libraries\lvgl\src\draw/lv_draw_triangle.c ****  *  STATIC PROTOTYPES
  24:..\..\..\arduinoLCD\test\Pain Drain\libraries\lvgl\src\draw/lv_draw_triangle.c ****  **********************/
  25:..\..\..\arduinoLCD\test\Pain Drain\libraries\lvgl\src\draw/lv_draw_triangle.c **** 
  26:..\..\..\arduinoLCD\test\Pain Drain\libraries\lvgl\src\draw/lv_draw_triangle.c **** /**********************
  27:..\..\..\arduinoLCD\test\Pain Drain\libraries\lvgl\src\draw/lv_draw_triangle.c ****  *  STATIC VARIABLES
  28:..\..\..\arduinoLCD\test\Pain Drain\libraries\lvgl\src\draw/lv_draw_triangle.c ****  **********************/
  29:..\..\..\arduinoLCD\test\Pain Drain\libraries\lvgl\src\draw/lv_draw_triangle.c **** 
  30:..\..\..\arduinoLCD\test\Pain Drain\libraries\lvgl\src\draw/lv_draw_triangle.c **** /**********************
ARM GAS  C:\Users\haske\AppData\Local\Temp\cc83DdBJ.s 			page 2


  31:..\..\..\arduinoLCD\test\Pain Drain\libraries\lvgl\src\draw/lv_draw_triangle.c ****  *      MACROS
  32:..\..\..\arduinoLCD\test\Pain Drain\libraries\lvgl\src\draw/lv_draw_triangle.c ****  **********************/
  33:..\..\..\arduinoLCD\test\Pain Drain\libraries\lvgl\src\draw/lv_draw_triangle.c **** 
  34:..\..\..\arduinoLCD\test\Pain Drain\libraries\lvgl\src\draw/lv_draw_triangle.c **** /**********************
  35:..\..\..\arduinoLCD\test\Pain Drain\libraries\lvgl\src\draw/lv_draw_triangle.c ****  *   GLOBAL FUNCTIONS
  36:..\..\..\arduinoLCD\test\Pain Drain\libraries\lvgl\src\draw/lv_draw_triangle.c ****  **********************/
  37:..\..\..\arduinoLCD\test\Pain Drain\libraries\lvgl\src\draw/lv_draw_triangle.c **** 
  38:..\..\..\arduinoLCD\test\Pain Drain\libraries\lvgl\src\draw/lv_draw_triangle.c **** void lv_draw_polygon(struct _lv_draw_ctx_t * draw_ctx, const lv_draw_rect_dsc_t * draw_dsc, const l
  39:..\..\..\arduinoLCD\test\Pain Drain\libraries\lvgl\src\draw/lv_draw_triangle.c ****                      uint16_t point_cnt)
  40:..\..\..\arduinoLCD\test\Pain Drain\libraries\lvgl\src\draw/lv_draw_triangle.c **** {
  28              		.loc 1 40 0
  29              		.cfi_startproc
  30              		@ args = 0, pretend = 0, frame = 0
  31              		@ frame_needed = 0, uses_anonymous_args = 0
  32              	.LVL0:
  33 0000 10B5     		push	{r4, lr}
  34              		.cfi_def_cfa_offset 8
  35              		.cfi_offset 4, -8
  36              		.cfi_offset 14, -4
  41:..\..\..\arduinoLCD\test\Pain Drain\libraries\lvgl\src\draw/lv_draw_triangle.c ****     draw_ctx->draw_polygon(draw_ctx, draw_dsc, points, point_cnt);
  37              		.loc 1 41 0
  38 0002 846A     		ldr	r4, [r0, #40]
  39 0004 A047     		blx	r4
  40              	.LVL1:
  42:..\..\..\arduinoLCD\test\Pain Drain\libraries\lvgl\src\draw/lv_draw_triangle.c **** }
  41              		.loc 1 42 0
  42              		@ sp needed
  43 0006 10BD     		pop	{r4, pc}
  44              		.cfi_endproc
  45              	.LFE55:
  46              		.size	lv_draw_polygon, .-lv_draw_polygon
  47              		.section	.text.lv_draw_triangle,"ax",%progbits
  48              		.align	2
  49              		.global	lv_draw_triangle
  50              		.code	16
  51              		.thumb_func
  52              		.type	lv_draw_triangle, %function
  53              	lv_draw_triangle:
  54              	.LFB56:
  43:..\..\..\arduinoLCD\test\Pain Drain\libraries\lvgl\src\draw/lv_draw_triangle.c **** 
  44:..\..\..\arduinoLCD\test\Pain Drain\libraries\lvgl\src\draw/lv_draw_triangle.c **** void lv_draw_triangle(struct _lv_draw_ctx_t * draw_ctx, const lv_draw_rect_dsc_t * draw_dsc, const 
  45:..\..\..\arduinoLCD\test\Pain Drain\libraries\lvgl\src\draw/lv_draw_triangle.c **** {
  55              		.loc 1 45 0
  56              		.cfi_startproc
  57              		@ args = 0, pretend = 0, frame = 0
  58              		@ frame_needed = 0, uses_anonymous_args = 0
  59              	.LVL2:
  60 0000 10B5     		push	{r4, lr}
  61              		.cfi_def_cfa_offset 8
  62              		.cfi_offset 4, -8
  63              		.cfi_offset 14, -4
  46:..\..\..\arduinoLCD\test\Pain Drain\libraries\lvgl\src\draw/lv_draw_triangle.c **** 
  47:..\..\..\arduinoLCD\test\Pain Drain\libraries\lvgl\src\draw/lv_draw_triangle.c ****     draw_ctx->draw_polygon(draw_ctx, draw_dsc, points, 3);
  64              		.loc 1 47 0
  65 0002 846A     		ldr	r4, [r0, #40]
  66 0004 0323     		movs	r3, #3
  67 0006 A047     		blx	r4
ARM GAS  C:\Users\haske\AppData\Local\Temp\cc83DdBJ.s 			page 3


  68              	.LVL3:
  48:..\..\..\arduinoLCD\test\Pain Drain\libraries\lvgl\src\draw/lv_draw_triangle.c **** }
  69              		.loc 1 48 0
  70              		@ sp needed
  71 0008 10BD     		pop	{r4, pc}
  72              		.cfi_endproc
  73              	.LFE56:
  74              		.size	lv_draw_triangle, .-lv_draw_triangle
  75 000a C046     		.text
  76              	.Letext0:
  77              		.file 2 "c:\\program files (x86)\\cypress\\psoc creator\\4.4\\psoc creator\\import\\gnu\\arm\\5.4.
  78              		.file 3 "c:\\program files (x86)\\cypress\\psoc creator\\4.4\\psoc creator\\import\\gnu\\arm\\5.4.
  79              		.file 4 "c:\\program files (x86)\\cypress\\psoc creator\\4.4\\psoc creator\\import\\gnu\\arm\\5.4.
  80              		.file 5 "c:\\projects\\paindrain\\arduinolcd\\test\\pain drain\\libraries\\lvgl\\src\\misc\\lv_are
  81              		.file 6 "c:\\projects\\paindrain\\arduinolcd\\test\\pain drain\\libraries\\lvgl\\src\\font\\lv_fon
  82              		.file 7 "..\\..\\..\\arduinoLCD\\test\\Pain Drain\\libraries\\lvgl\\src\\draw\\../misc/lv_types.h"
  83              		.file 8 "..\\..\\..\\arduinoLCD\\test\\Pain Drain\\libraries\\lvgl\\src\\draw\\../misc/lv_color.h"
  84              		.file 9 "..\\..\\..\\arduinoLCD\\test\\Pain Drain\\libraries\\lvgl\\src\\draw\\../misc/lv_txt.h"
  85              		.file 10 "..\\..\\..\\arduinoLCD\\test\\Pain Drain\\libraries\\lvgl\\src\\draw\\../misc/lv_bidi.h"
  86              		.file 11 "..\\..\\..\\arduinoLCD\\test\\Pain Drain\\libraries\\lvgl\\src\\draw\\../misc/lv_style.h
  87              		.file 12 "..\\..\\..\\arduinoLCD\\test\\Pain Drain\\libraries\\lvgl\\src\\draw\\lv_img_buf.h"
  88              		.file 13 "..\\..\\..\\arduinoLCD\\test\\Pain Drain\\libraries\\lvgl\\src\\draw\\lv_draw_rect.h"
  89              		.file 14 "..\\..\\..\\arduinoLCD\\test\\Pain Drain\\libraries\\lvgl\\src\\draw\\lv_draw_label.h"
  90              		.file 15 "..\\..\\..\\arduinoLCD\\test\\Pain Drain\\libraries\\lvgl\\src\\draw\\lv_draw_img.h"
  91              		.file 16 "..\\..\\..\\arduinoLCD\\test\\Pain Drain\\libraries\\lvgl\\src\\draw\\lv_draw_line.h"
  92              		.file 17 "..\\..\\..\\arduinoLCD\\test\\Pain Drain\\libraries\\lvgl\\src\\draw\\lv_draw_arc.h"
  93              		.file 18 "..\\..\\..\\arduinoLCD\\test\\Pain Drain\\libraries\\lvgl\\src\\draw\\lv_draw_layer.h"
  94              		.file 19 "..\\..\\..\\arduinoLCD\\test\\Pain Drain\\libraries\\lvgl\\src\\draw\\lv_draw.h"