ARM GAS  C:\Users\haske\AppData\Local\Temp\ccinSyc3.s 			page 1


   1              		.syntax unified
   2              		.cpu cortex-m0plus
   3              		.fpu softvfp
   4              		.eabi_attribute 20, 1
   5              		.eabi_attribute 21, 1
   6              		.eabi_attribute 23, 3
   7              		.eabi_attribute 24, 1
   8              		.eabi_attribute 25, 1
   9              		.eabi_attribute 26, 1
  10              		.eabi_attribute 30, 1
  11              		.eabi_attribute 34, 0
  12              		.eabi_attribute 18, 4
  13              		.thumb
  14              		.syntax unified
  15              		.file	"lv_draw_sw_arc.c"
  16              		.text
  17              	.Ltext0:
  18              		.cfi_sections	.debug_frame
  19              		.section	.text.draw_quarter_0,"ax",%progbits
  20              		.align	2
  21              		.code	16
  22              		.thumb_func
  23              		.type	draw_quarter_0, %function
  24              	draw_quarter_0:
  25              	.LFB57:
  26              		.file 1 "..\\..\\..\\arduinoLCD\\test\\Pain Drain\\libraries\\lvgl\\src\\draw\\sw\\lv_draw_sw_arc.
   1:..\..\..\arduinoLCD\test\Pain Drain\libraries\lvgl\src\draw\sw/lv_draw_sw_arc.c **** /**
   2:..\..\..\arduinoLCD\test\Pain Drain\libraries\lvgl\src\draw\sw/lv_draw_sw_arc.c ****  * @file lv_draw_arc.c
   3:..\..\..\arduinoLCD\test\Pain Drain\libraries\lvgl\src\draw\sw/lv_draw_sw_arc.c ****  *
   4:..\..\..\arduinoLCD\test\Pain Drain\libraries\lvgl\src\draw\sw/lv_draw_sw_arc.c ****  */
   5:..\..\..\arduinoLCD\test\Pain Drain\libraries\lvgl\src\draw\sw/lv_draw_sw_arc.c **** 
   6:..\..\..\arduinoLCD\test\Pain Drain\libraries\lvgl\src\draw\sw/lv_draw_sw_arc.c **** /*********************
   7:..\..\..\arduinoLCD\test\Pain Drain\libraries\lvgl\src\draw\sw/lv_draw_sw_arc.c ****  *      INCLUDES
   8:..\..\..\arduinoLCD\test\Pain Drain\libraries\lvgl\src\draw\sw/lv_draw_sw_arc.c ****  *********************/
   9:..\..\..\arduinoLCD\test\Pain Drain\libraries\lvgl\src\draw\sw/lv_draw_sw_arc.c **** #include "lv_draw_sw.h"
  10:..\..\..\arduinoLCD\test\Pain Drain\libraries\lvgl\src\draw\sw/lv_draw_sw_arc.c **** #include "../../misc/lv_math.h"
  11:..\..\..\arduinoLCD\test\Pain Drain\libraries\lvgl\src\draw\sw/lv_draw_sw_arc.c **** #include "../../misc/lv_log.h"
  12:..\..\..\arduinoLCD\test\Pain Drain\libraries\lvgl\src\draw\sw/lv_draw_sw_arc.c **** #include "../../misc/lv_mem.h"
  13:..\..\..\arduinoLCD\test\Pain Drain\libraries\lvgl\src\draw\sw/lv_draw_sw_arc.c **** #include "../lv_draw.h"
  14:..\..\..\arduinoLCD\test\Pain Drain\libraries\lvgl\src\draw\sw/lv_draw_sw_arc.c **** 
  15:..\..\..\arduinoLCD\test\Pain Drain\libraries\lvgl\src\draw\sw/lv_draw_sw_arc.c **** /*********************
  16:..\..\..\arduinoLCD\test\Pain Drain\libraries\lvgl\src\draw\sw/lv_draw_sw_arc.c ****  *      DEFINES
  17:..\..\..\arduinoLCD\test\Pain Drain\libraries\lvgl\src\draw\sw/lv_draw_sw_arc.c ****  *********************/
  18:..\..\..\arduinoLCD\test\Pain Drain\libraries\lvgl\src\draw\sw/lv_draw_sw_arc.c **** #define SPLIT_RADIUS_LIMIT 10  /*With radius greater than this the arc will drawn in quarters. A qu
  19:..\..\..\arduinoLCD\test\Pain Drain\libraries\lvgl\src\draw\sw/lv_draw_sw_arc.c **** #define SPLIT_ANGLE_GAP_LIMIT 60  /*With small gaps in the arc don't bother with splitting because 
  20:..\..\..\arduinoLCD\test\Pain Drain\libraries\lvgl\src\draw\sw/lv_draw_sw_arc.c **** 
  21:..\..\..\arduinoLCD\test\Pain Drain\libraries\lvgl\src\draw\sw/lv_draw_sw_arc.c **** /**********************
  22:..\..\..\arduinoLCD\test\Pain Drain\libraries\lvgl\src\draw\sw/lv_draw_sw_arc.c ****  *      TYPEDEFS
  23:..\..\..\arduinoLCD\test\Pain Drain\libraries\lvgl\src\draw\sw/lv_draw_sw_arc.c ****  **********************/
  24:..\..\..\arduinoLCD\test\Pain Drain\libraries\lvgl\src\draw\sw/lv_draw_sw_arc.c **** typedef struct {
  25:..\..\..\arduinoLCD\test\Pain Drain\libraries\lvgl\src\draw\sw/lv_draw_sw_arc.c ****     const lv_point_t * center;
  26:..\..\..\arduinoLCD\test\Pain Drain\libraries\lvgl\src\draw\sw/lv_draw_sw_arc.c ****     lv_coord_t radius;
  27:..\..\..\arduinoLCD\test\Pain Drain\libraries\lvgl\src\draw\sw/lv_draw_sw_arc.c ****     uint16_t start_angle;
  28:..\..\..\arduinoLCD\test\Pain Drain\libraries\lvgl\src\draw\sw/lv_draw_sw_arc.c ****     uint16_t end_angle;
  29:..\..\..\arduinoLCD\test\Pain Drain\libraries\lvgl\src\draw\sw/lv_draw_sw_arc.c ****     uint16_t start_quarter;
  30:..\..\..\arduinoLCD\test\Pain Drain\libraries\lvgl\src\draw\sw/lv_draw_sw_arc.c ****     uint16_t end_quarter;
  31:..\..\..\arduinoLCD\test\Pain Drain\libraries\lvgl\src\draw\sw/lv_draw_sw_arc.c ****     lv_coord_t width;
ARM GAS  C:\Users\haske\AppData\Local\Temp\ccinSyc3.s 			page 2


  32:..\..\..\arduinoLCD\test\Pain Drain\libraries\lvgl\src\draw\sw/lv_draw_sw_arc.c ****     lv_draw_rect_dsc_t * draw_dsc;
  33:..\..\..\arduinoLCD\test\Pain Drain\libraries\lvgl\src\draw\sw/lv_draw_sw_arc.c ****     const lv_area_t * draw_area;
  34:..\..\..\arduinoLCD\test\Pain Drain\libraries\lvgl\src\draw\sw/lv_draw_sw_arc.c ****     lv_draw_ctx_t * draw_ctx;
  35:..\..\..\arduinoLCD\test\Pain Drain\libraries\lvgl\src\draw\sw/lv_draw_sw_arc.c **** } quarter_draw_dsc_t;
  36:..\..\..\arduinoLCD\test\Pain Drain\libraries\lvgl\src\draw\sw/lv_draw_sw_arc.c **** 
  37:..\..\..\arduinoLCD\test\Pain Drain\libraries\lvgl\src\draw\sw/lv_draw_sw_arc.c **** /**********************
  38:..\..\..\arduinoLCD\test\Pain Drain\libraries\lvgl\src\draw\sw/lv_draw_sw_arc.c ****  *  STATIC PROTOTYPES
  39:..\..\..\arduinoLCD\test\Pain Drain\libraries\lvgl\src\draw\sw/lv_draw_sw_arc.c ****  **********************/
  40:..\..\..\arduinoLCD\test\Pain Drain\libraries\lvgl\src\draw\sw/lv_draw_sw_arc.c **** #if LV_DRAW_COMPLEX
  41:..\..\..\arduinoLCD\test\Pain Drain\libraries\lvgl\src\draw\sw/lv_draw_sw_arc.c ****     static void draw_quarter_0(quarter_draw_dsc_t * q);
  42:..\..\..\arduinoLCD\test\Pain Drain\libraries\lvgl\src\draw\sw/lv_draw_sw_arc.c ****     static void draw_quarter_1(quarter_draw_dsc_t * q);
  43:..\..\..\arduinoLCD\test\Pain Drain\libraries\lvgl\src\draw\sw/lv_draw_sw_arc.c ****     static void draw_quarter_2(quarter_draw_dsc_t * q);
  44:..\..\..\arduinoLCD\test\Pain Drain\libraries\lvgl\src\draw\sw/lv_draw_sw_arc.c ****     static void draw_quarter_3(quarter_draw_dsc_t * q);
  45:..\..\..\arduinoLCD\test\Pain Drain\libraries\lvgl\src\draw\sw/lv_draw_sw_arc.c ****     static void get_rounded_area(int16_t angle, lv_coord_t radius, uint8_t thickness, lv_area_t * r
  46:..\..\..\arduinoLCD\test\Pain Drain\libraries\lvgl\src\draw\sw/lv_draw_sw_arc.c **** #endif /*LV_DRAW_COMPLEX*/
  47:..\..\..\arduinoLCD\test\Pain Drain\libraries\lvgl\src\draw\sw/lv_draw_sw_arc.c **** 
  48:..\..\..\arduinoLCD\test\Pain Drain\libraries\lvgl\src\draw\sw/lv_draw_sw_arc.c **** /**********************
  49:..\..\..\arduinoLCD\test\Pain Drain\libraries\lvgl\src\draw\sw/lv_draw_sw_arc.c ****  *  STATIC VARIABLES
  50:..\..\..\arduinoLCD\test\Pain Drain\libraries\lvgl\src\draw\sw/lv_draw_sw_arc.c ****  **********************/
  51:..\..\..\arduinoLCD\test\Pain Drain\libraries\lvgl\src\draw\sw/lv_draw_sw_arc.c **** 
  52:..\..\..\arduinoLCD\test\Pain Drain\libraries\lvgl\src\draw\sw/lv_draw_sw_arc.c **** /**********************
  53:..\..\..\arduinoLCD\test\Pain Drain\libraries\lvgl\src\draw\sw/lv_draw_sw_arc.c ****  *      MACROS
  54:..\..\..\arduinoLCD\test\Pain Drain\libraries\lvgl\src\draw\sw/lv_draw_sw_arc.c ****  **********************/
  55:..\..\..\arduinoLCD\test\Pain Drain\libraries\lvgl\src\draw\sw/lv_draw_sw_arc.c **** 
  56:..\..\..\arduinoLCD\test\Pain Drain\libraries\lvgl\src\draw\sw/lv_draw_sw_arc.c **** /**********************
  57:..\..\..\arduinoLCD\test\Pain Drain\libraries\lvgl\src\draw\sw/lv_draw_sw_arc.c ****  *   GLOBAL FUNCTIONS
  58:..\..\..\arduinoLCD\test\Pain Drain\libraries\lvgl\src\draw\sw/lv_draw_sw_arc.c ****  **********************/
  59:..\..\..\arduinoLCD\test\Pain Drain\libraries\lvgl\src\draw\sw/lv_draw_sw_arc.c **** 
  60:..\..\..\arduinoLCD\test\Pain Drain\libraries\lvgl\src\draw\sw/lv_draw_sw_arc.c **** void lv_draw_sw_arc(lv_draw_ctx_t * draw_ctx, const lv_draw_arc_dsc_t * dsc, const lv_point_t * cen
  61:..\..\..\arduinoLCD\test\Pain Drain\libraries\lvgl\src\draw\sw/lv_draw_sw_arc.c ****                     uint16_t start_angle, uint16_t end_angle)
  62:..\..\..\arduinoLCD\test\Pain Drain\libraries\lvgl\src\draw\sw/lv_draw_sw_arc.c **** {
  63:..\..\..\arduinoLCD\test\Pain Drain\libraries\lvgl\src\draw\sw/lv_draw_sw_arc.c **** #if LV_DRAW_COMPLEX
  64:..\..\..\arduinoLCD\test\Pain Drain\libraries\lvgl\src\draw\sw/lv_draw_sw_arc.c ****     if(dsc->opa <= LV_OPA_MIN) return;
  65:..\..\..\arduinoLCD\test\Pain Drain\libraries\lvgl\src\draw\sw/lv_draw_sw_arc.c ****     if(dsc->width == 0) return;
  66:..\..\..\arduinoLCD\test\Pain Drain\libraries\lvgl\src\draw\sw/lv_draw_sw_arc.c ****     if(start_angle == end_angle) return;
  67:..\..\..\arduinoLCD\test\Pain Drain\libraries\lvgl\src\draw\sw/lv_draw_sw_arc.c **** 
  68:..\..\..\arduinoLCD\test\Pain Drain\libraries\lvgl\src\draw\sw/lv_draw_sw_arc.c ****     lv_coord_t width = dsc->width;
  69:..\..\..\arduinoLCD\test\Pain Drain\libraries\lvgl\src\draw\sw/lv_draw_sw_arc.c ****     if(width > radius) width = radius;
  70:..\..\..\arduinoLCD\test\Pain Drain\libraries\lvgl\src\draw\sw/lv_draw_sw_arc.c **** 
  71:..\..\..\arduinoLCD\test\Pain Drain\libraries\lvgl\src\draw\sw/lv_draw_sw_arc.c ****     lv_draw_rect_dsc_t cir_dsc;
  72:..\..\..\arduinoLCD\test\Pain Drain\libraries\lvgl\src\draw\sw/lv_draw_sw_arc.c ****     lv_draw_rect_dsc_init(&cir_dsc);
  73:..\..\..\arduinoLCD\test\Pain Drain\libraries\lvgl\src\draw\sw/lv_draw_sw_arc.c ****     cir_dsc.blend_mode = dsc->blend_mode;
  74:..\..\..\arduinoLCD\test\Pain Drain\libraries\lvgl\src\draw\sw/lv_draw_sw_arc.c ****     if(dsc->img_src) {
  75:..\..\..\arduinoLCD\test\Pain Drain\libraries\lvgl\src\draw\sw/lv_draw_sw_arc.c ****         cir_dsc.bg_opa = LV_OPA_TRANSP;
  76:..\..\..\arduinoLCD\test\Pain Drain\libraries\lvgl\src\draw\sw/lv_draw_sw_arc.c ****         cir_dsc.bg_img_src = dsc->img_src;
  77:..\..\..\arduinoLCD\test\Pain Drain\libraries\lvgl\src\draw\sw/lv_draw_sw_arc.c ****         cir_dsc.bg_img_opa = dsc->opa;
  78:..\..\..\arduinoLCD\test\Pain Drain\libraries\lvgl\src\draw\sw/lv_draw_sw_arc.c ****     }
  79:..\..\..\arduinoLCD\test\Pain Drain\libraries\lvgl\src\draw\sw/lv_draw_sw_arc.c ****     else {
  80:..\..\..\arduinoLCD\test\Pain Drain\libraries\lvgl\src\draw\sw/lv_draw_sw_arc.c ****         cir_dsc.bg_opa = dsc->opa;
  81:..\..\..\arduinoLCD\test\Pain Drain\libraries\lvgl\src\draw\sw/lv_draw_sw_arc.c ****         cir_dsc.bg_color = dsc->color;
  82:..\..\..\arduinoLCD\test\Pain Drain\libraries\lvgl\src\draw\sw/lv_draw_sw_arc.c ****     }
  83:..\..\..\arduinoLCD\test\Pain Drain\libraries\lvgl\src\draw\sw/lv_draw_sw_arc.c **** 
  84:..\..\..\arduinoLCD\test\Pain Drain\libraries\lvgl\src\draw\sw/lv_draw_sw_arc.c ****     lv_area_t area_out;
  85:..\..\..\arduinoLCD\test\Pain Drain\libraries\lvgl\src\draw\sw/lv_draw_sw_arc.c ****     area_out.x1 = center->x - radius;
  86:..\..\..\arduinoLCD\test\Pain Drain\libraries\lvgl\src\draw\sw/lv_draw_sw_arc.c ****     area_out.y1 = center->y - radius;
  87:..\..\..\arduinoLCD\test\Pain Drain\libraries\lvgl\src\draw\sw/lv_draw_sw_arc.c ****     area_out.x2 = center->x + radius - 1;  /*-1 because the center already belongs to the left/bott
  88:..\..\..\arduinoLCD\test\Pain Drain\libraries\lvgl\src\draw\sw/lv_draw_sw_arc.c ****     area_out.y2 = center->y + radius - 1;
ARM GAS  C:\Users\haske\AppData\Local\Temp\ccinSyc3.s 			page 3


  89:..\..\..\arduinoLCD\test\Pain Drain\libraries\lvgl\src\draw\sw/lv_draw_sw_arc.c **** 
  90:..\..\..\arduinoLCD\test\Pain Drain\libraries\lvgl\src\draw\sw/lv_draw_sw_arc.c ****     lv_area_t area_in;
  91:..\..\..\arduinoLCD\test\Pain Drain\libraries\lvgl\src\draw\sw/lv_draw_sw_arc.c ****     lv_area_copy(&area_in, &area_out);
  92:..\..\..\arduinoLCD\test\Pain Drain\libraries\lvgl\src\draw\sw/lv_draw_sw_arc.c ****     area_in.x1 += dsc->width;
  93:..\..\..\arduinoLCD\test\Pain Drain\libraries\lvgl\src\draw\sw/lv_draw_sw_arc.c ****     area_in.y1 += dsc->width;
  94:..\..\..\arduinoLCD\test\Pain Drain\libraries\lvgl\src\draw\sw/lv_draw_sw_arc.c ****     area_in.x2 -= dsc->width;
  95:..\..\..\arduinoLCD\test\Pain Drain\libraries\lvgl\src\draw\sw/lv_draw_sw_arc.c ****     area_in.y2 -= dsc->width;
  96:..\..\..\arduinoLCD\test\Pain Drain\libraries\lvgl\src\draw\sw/lv_draw_sw_arc.c **** 
  97:..\..\..\arduinoLCD\test\Pain Drain\libraries\lvgl\src\draw\sw/lv_draw_sw_arc.c ****     /*Create inner the mask*/
  98:..\..\..\arduinoLCD\test\Pain Drain\libraries\lvgl\src\draw\sw/lv_draw_sw_arc.c ****     int16_t mask_in_id = LV_MASK_ID_INV;
  99:..\..\..\arduinoLCD\test\Pain Drain\libraries\lvgl\src\draw\sw/lv_draw_sw_arc.c ****     lv_draw_mask_radius_param_t mask_in_param;
 100:..\..\..\arduinoLCD\test\Pain Drain\libraries\lvgl\src\draw\sw/lv_draw_sw_arc.c ****     bool mask_in_param_valid = false;
 101:..\..\..\arduinoLCD\test\Pain Drain\libraries\lvgl\src\draw\sw/lv_draw_sw_arc.c ****     if(lv_area_get_width(&area_in) > 0 && lv_area_get_height(&area_in) > 0) {
 102:..\..\..\arduinoLCD\test\Pain Drain\libraries\lvgl\src\draw\sw/lv_draw_sw_arc.c ****         lv_draw_mask_radius_init(&mask_in_param, &area_in, LV_RADIUS_CIRCLE, true);
 103:..\..\..\arduinoLCD\test\Pain Drain\libraries\lvgl\src\draw\sw/lv_draw_sw_arc.c ****         mask_in_param_valid = true;
 104:..\..\..\arduinoLCD\test\Pain Drain\libraries\lvgl\src\draw\sw/lv_draw_sw_arc.c ****         mask_in_id = lv_draw_mask_add(&mask_in_param, NULL);
 105:..\..\..\arduinoLCD\test\Pain Drain\libraries\lvgl\src\draw\sw/lv_draw_sw_arc.c ****     }
 106:..\..\..\arduinoLCD\test\Pain Drain\libraries\lvgl\src\draw\sw/lv_draw_sw_arc.c **** 
 107:..\..\..\arduinoLCD\test\Pain Drain\libraries\lvgl\src\draw\sw/lv_draw_sw_arc.c ****     lv_draw_mask_radius_param_t mask_out_param;
 108:..\..\..\arduinoLCD\test\Pain Drain\libraries\lvgl\src\draw\sw/lv_draw_sw_arc.c ****     lv_draw_mask_radius_init(&mask_out_param, &area_out, LV_RADIUS_CIRCLE, false);
 109:..\..\..\arduinoLCD\test\Pain Drain\libraries\lvgl\src\draw\sw/lv_draw_sw_arc.c ****     int16_t mask_out_id = lv_draw_mask_add(&mask_out_param, NULL);
 110:..\..\..\arduinoLCD\test\Pain Drain\libraries\lvgl\src\draw\sw/lv_draw_sw_arc.c **** 
 111:..\..\..\arduinoLCD\test\Pain Drain\libraries\lvgl\src\draw\sw/lv_draw_sw_arc.c ****     /*Draw a full ring*/
 112:..\..\..\arduinoLCD\test\Pain Drain\libraries\lvgl\src\draw\sw/lv_draw_sw_arc.c ****     if(start_angle + 360 == end_angle || start_angle == end_angle + 360) {
 113:..\..\..\arduinoLCD\test\Pain Drain\libraries\lvgl\src\draw\sw/lv_draw_sw_arc.c ****         cir_dsc.radius = LV_RADIUS_CIRCLE;
 114:..\..\..\arduinoLCD\test\Pain Drain\libraries\lvgl\src\draw\sw/lv_draw_sw_arc.c ****         lv_draw_rect(draw_ctx, &cir_dsc, &area_out);
 115:..\..\..\arduinoLCD\test\Pain Drain\libraries\lvgl\src\draw\sw/lv_draw_sw_arc.c **** 
 116:..\..\..\arduinoLCD\test\Pain Drain\libraries\lvgl\src\draw\sw/lv_draw_sw_arc.c ****         lv_draw_mask_remove_id(mask_out_id);
 117:..\..\..\arduinoLCD\test\Pain Drain\libraries\lvgl\src\draw\sw/lv_draw_sw_arc.c ****         if(mask_in_id != LV_MASK_ID_INV) lv_draw_mask_remove_id(mask_in_id);
 118:..\..\..\arduinoLCD\test\Pain Drain\libraries\lvgl\src\draw\sw/lv_draw_sw_arc.c **** 
 119:..\..\..\arduinoLCD\test\Pain Drain\libraries\lvgl\src\draw\sw/lv_draw_sw_arc.c ****         lv_draw_mask_free_param(&mask_out_param);
 120:..\..\..\arduinoLCD\test\Pain Drain\libraries\lvgl\src\draw\sw/lv_draw_sw_arc.c ****         if(mask_in_param_valid) {
 121:..\..\..\arduinoLCD\test\Pain Drain\libraries\lvgl\src\draw\sw/lv_draw_sw_arc.c ****             lv_draw_mask_free_param(&mask_in_param);
 122:..\..\..\arduinoLCD\test\Pain Drain\libraries\lvgl\src\draw\sw/lv_draw_sw_arc.c ****         }
 123:..\..\..\arduinoLCD\test\Pain Drain\libraries\lvgl\src\draw\sw/lv_draw_sw_arc.c **** 
 124:..\..\..\arduinoLCD\test\Pain Drain\libraries\lvgl\src\draw\sw/lv_draw_sw_arc.c ****         return;
 125:..\..\..\arduinoLCD\test\Pain Drain\libraries\lvgl\src\draw\sw/lv_draw_sw_arc.c ****     }
 126:..\..\..\arduinoLCD\test\Pain Drain\libraries\lvgl\src\draw\sw/lv_draw_sw_arc.c **** 
 127:..\..\..\arduinoLCD\test\Pain Drain\libraries\lvgl\src\draw\sw/lv_draw_sw_arc.c ****     while(start_angle >= 360) start_angle -= 360;
 128:..\..\..\arduinoLCD\test\Pain Drain\libraries\lvgl\src\draw\sw/lv_draw_sw_arc.c ****     while(end_angle >= 360) end_angle -= 360;
 129:..\..\..\arduinoLCD\test\Pain Drain\libraries\lvgl\src\draw\sw/lv_draw_sw_arc.c **** 
 130:..\..\..\arduinoLCD\test\Pain Drain\libraries\lvgl\src\draw\sw/lv_draw_sw_arc.c ****     lv_draw_mask_angle_param_t mask_angle_param;
 131:..\..\..\arduinoLCD\test\Pain Drain\libraries\lvgl\src\draw\sw/lv_draw_sw_arc.c ****     lv_draw_mask_angle_init(&mask_angle_param, center->x, center->y, start_angle, end_angle);
 132:..\..\..\arduinoLCD\test\Pain Drain\libraries\lvgl\src\draw\sw/lv_draw_sw_arc.c ****     int16_t mask_angle_id = lv_draw_mask_add(&mask_angle_param, NULL);
 133:..\..\..\arduinoLCD\test\Pain Drain\libraries\lvgl\src\draw\sw/lv_draw_sw_arc.c **** 
 134:..\..\..\arduinoLCD\test\Pain Drain\libraries\lvgl\src\draw\sw/lv_draw_sw_arc.c ****     int32_t angle_gap;
 135:..\..\..\arduinoLCD\test\Pain Drain\libraries\lvgl\src\draw\sw/lv_draw_sw_arc.c ****     if(end_angle > start_angle) {
 136:..\..\..\arduinoLCD\test\Pain Drain\libraries\lvgl\src\draw\sw/lv_draw_sw_arc.c ****         angle_gap = 360 - (end_angle - start_angle);
 137:..\..\..\arduinoLCD\test\Pain Drain\libraries\lvgl\src\draw\sw/lv_draw_sw_arc.c ****     }
 138:..\..\..\arduinoLCD\test\Pain Drain\libraries\lvgl\src\draw\sw/lv_draw_sw_arc.c ****     else {
 139:..\..\..\arduinoLCD\test\Pain Drain\libraries\lvgl\src\draw\sw/lv_draw_sw_arc.c ****         angle_gap = start_angle - end_angle;
 140:..\..\..\arduinoLCD\test\Pain Drain\libraries\lvgl\src\draw\sw/lv_draw_sw_arc.c ****     }
 141:..\..\..\arduinoLCD\test\Pain Drain\libraries\lvgl\src\draw\sw/lv_draw_sw_arc.c **** 
 142:..\..\..\arduinoLCD\test\Pain Drain\libraries\lvgl\src\draw\sw/lv_draw_sw_arc.c ****     const lv_area_t * clip_area_ori = draw_ctx->clip_area;
 143:..\..\..\arduinoLCD\test\Pain Drain\libraries\lvgl\src\draw\sw/lv_draw_sw_arc.c **** 
 144:..\..\..\arduinoLCD\test\Pain Drain\libraries\lvgl\src\draw\sw/lv_draw_sw_arc.c ****     if(angle_gap > SPLIT_ANGLE_GAP_LIMIT && radius > SPLIT_RADIUS_LIMIT) {
 145:..\..\..\arduinoLCD\test\Pain Drain\libraries\lvgl\src\draw\sw/lv_draw_sw_arc.c ****         /*Handle each quarter individually and skip which is empty*/
ARM GAS  C:\Users\haske\AppData\Local\Temp\ccinSyc3.s 			page 4


 146:..\..\..\arduinoLCD\test\Pain Drain\libraries\lvgl\src\draw\sw/lv_draw_sw_arc.c ****         quarter_draw_dsc_t q_dsc;
 147:..\..\..\arduinoLCD\test\Pain Drain\libraries\lvgl\src\draw\sw/lv_draw_sw_arc.c ****         q_dsc.center = center;
 148:..\..\..\arduinoLCD\test\Pain Drain\libraries\lvgl\src\draw\sw/lv_draw_sw_arc.c ****         q_dsc.radius = radius;
 149:..\..\..\arduinoLCD\test\Pain Drain\libraries\lvgl\src\draw\sw/lv_draw_sw_arc.c ****         q_dsc.start_angle = start_angle;
 150:..\..\..\arduinoLCD\test\Pain Drain\libraries\lvgl\src\draw\sw/lv_draw_sw_arc.c ****         q_dsc.end_angle = end_angle;
 151:..\..\..\arduinoLCD\test\Pain Drain\libraries\lvgl\src\draw\sw/lv_draw_sw_arc.c ****         q_dsc.start_quarter = (start_angle / 90) & 0x3;
 152:..\..\..\arduinoLCD\test\Pain Drain\libraries\lvgl\src\draw\sw/lv_draw_sw_arc.c ****         q_dsc.end_quarter = (end_angle / 90) & 0x3;
 153:..\..\..\arduinoLCD\test\Pain Drain\libraries\lvgl\src\draw\sw/lv_draw_sw_arc.c ****         q_dsc.width = width;
 154:..\..\..\arduinoLCD\test\Pain Drain\libraries\lvgl\src\draw\sw/lv_draw_sw_arc.c ****         q_dsc.draw_dsc = &cir_dsc;
 155:..\..\..\arduinoLCD\test\Pain Drain\libraries\lvgl\src\draw\sw/lv_draw_sw_arc.c ****         q_dsc.draw_area = &area_out;
 156:..\..\..\arduinoLCD\test\Pain Drain\libraries\lvgl\src\draw\sw/lv_draw_sw_arc.c ****         q_dsc.draw_ctx = draw_ctx;
 157:..\..\..\arduinoLCD\test\Pain Drain\libraries\lvgl\src\draw\sw/lv_draw_sw_arc.c **** 
 158:..\..\..\arduinoLCD\test\Pain Drain\libraries\lvgl\src\draw\sw/lv_draw_sw_arc.c ****         draw_quarter_0(&q_dsc);
 159:..\..\..\arduinoLCD\test\Pain Drain\libraries\lvgl\src\draw\sw/lv_draw_sw_arc.c ****         draw_quarter_1(&q_dsc);
 160:..\..\..\arduinoLCD\test\Pain Drain\libraries\lvgl\src\draw\sw/lv_draw_sw_arc.c ****         draw_quarter_2(&q_dsc);
 161:..\..\..\arduinoLCD\test\Pain Drain\libraries\lvgl\src\draw\sw/lv_draw_sw_arc.c ****         draw_quarter_3(&q_dsc);
 162:..\..\..\arduinoLCD\test\Pain Drain\libraries\lvgl\src\draw\sw/lv_draw_sw_arc.c ****     }
 163:..\..\..\arduinoLCD\test\Pain Drain\libraries\lvgl\src\draw\sw/lv_draw_sw_arc.c ****     else {
 164:..\..\..\arduinoLCD\test\Pain Drain\libraries\lvgl\src\draw\sw/lv_draw_sw_arc.c ****         lv_draw_rect(draw_ctx, &cir_dsc, &area_out);
 165:..\..\..\arduinoLCD\test\Pain Drain\libraries\lvgl\src\draw\sw/lv_draw_sw_arc.c ****     }
 166:..\..\..\arduinoLCD\test\Pain Drain\libraries\lvgl\src\draw\sw/lv_draw_sw_arc.c **** 
 167:..\..\..\arduinoLCD\test\Pain Drain\libraries\lvgl\src\draw\sw/lv_draw_sw_arc.c ****     lv_draw_mask_free_param(&mask_angle_param);
 168:..\..\..\arduinoLCD\test\Pain Drain\libraries\lvgl\src\draw\sw/lv_draw_sw_arc.c ****     lv_draw_mask_free_param(&mask_out_param);
 169:..\..\..\arduinoLCD\test\Pain Drain\libraries\lvgl\src\draw\sw/lv_draw_sw_arc.c ****     if(mask_in_param_valid) {
 170:..\..\..\arduinoLCD\test\Pain Drain\libraries\lvgl\src\draw\sw/lv_draw_sw_arc.c ****         lv_draw_mask_free_param(&mask_in_param);
 171:..\..\..\arduinoLCD\test\Pain Drain\libraries\lvgl\src\draw\sw/lv_draw_sw_arc.c ****     }
 172:..\..\..\arduinoLCD\test\Pain Drain\libraries\lvgl\src\draw\sw/lv_draw_sw_arc.c **** 
 173:..\..\..\arduinoLCD\test\Pain Drain\libraries\lvgl\src\draw\sw/lv_draw_sw_arc.c ****     lv_draw_mask_remove_id(mask_angle_id);
 174:..\..\..\arduinoLCD\test\Pain Drain\libraries\lvgl\src\draw\sw/lv_draw_sw_arc.c ****     lv_draw_mask_remove_id(mask_out_id);
 175:..\..\..\arduinoLCD\test\Pain Drain\libraries\lvgl\src\draw\sw/lv_draw_sw_arc.c ****     if(mask_in_id != LV_MASK_ID_INV) lv_draw_mask_remove_id(mask_in_id);
 176:..\..\..\arduinoLCD\test\Pain Drain\libraries\lvgl\src\draw\sw/lv_draw_sw_arc.c **** 
 177:..\..\..\arduinoLCD\test\Pain Drain\libraries\lvgl\src\draw\sw/lv_draw_sw_arc.c ****     if(dsc->rounded) {
 178:..\..\..\arduinoLCD\test\Pain Drain\libraries\lvgl\src\draw\sw/lv_draw_sw_arc.c **** 
 179:..\..\..\arduinoLCD\test\Pain Drain\libraries\lvgl\src\draw\sw/lv_draw_sw_arc.c ****         lv_draw_mask_radius_param_t mask_end_param;
 180:..\..\..\arduinoLCD\test\Pain Drain\libraries\lvgl\src\draw\sw/lv_draw_sw_arc.c **** 
 181:..\..\..\arduinoLCD\test\Pain Drain\libraries\lvgl\src\draw\sw/lv_draw_sw_arc.c ****         lv_area_t round_area;
 182:..\..\..\arduinoLCD\test\Pain Drain\libraries\lvgl\src\draw\sw/lv_draw_sw_arc.c ****         get_rounded_area(start_angle, radius, width, &round_area);
 183:..\..\..\arduinoLCD\test\Pain Drain\libraries\lvgl\src\draw\sw/lv_draw_sw_arc.c ****         round_area.x1 += center->x;
 184:..\..\..\arduinoLCD\test\Pain Drain\libraries\lvgl\src\draw\sw/lv_draw_sw_arc.c ****         round_area.x2 += center->x;
 185:..\..\..\arduinoLCD\test\Pain Drain\libraries\lvgl\src\draw\sw/lv_draw_sw_arc.c ****         round_area.y1 += center->y;
 186:..\..\..\arduinoLCD\test\Pain Drain\libraries\lvgl\src\draw\sw/lv_draw_sw_arc.c ****         round_area.y2 += center->y;
 187:..\..\..\arduinoLCD\test\Pain Drain\libraries\lvgl\src\draw\sw/lv_draw_sw_arc.c ****         lv_area_t clip_area2;
 188:..\..\..\arduinoLCD\test\Pain Drain\libraries\lvgl\src\draw\sw/lv_draw_sw_arc.c ****         if(_lv_area_intersect(&clip_area2, clip_area_ori, &round_area)) {
 189:..\..\..\arduinoLCD\test\Pain Drain\libraries\lvgl\src\draw\sw/lv_draw_sw_arc.c ****             lv_draw_mask_radius_init(&mask_end_param, &round_area, LV_RADIUS_CIRCLE, false);
 190:..\..\..\arduinoLCD\test\Pain Drain\libraries\lvgl\src\draw\sw/lv_draw_sw_arc.c ****             int16_t mask_end_id = lv_draw_mask_add(&mask_end_param, NULL);
 191:..\..\..\arduinoLCD\test\Pain Drain\libraries\lvgl\src\draw\sw/lv_draw_sw_arc.c **** 
 192:..\..\..\arduinoLCD\test\Pain Drain\libraries\lvgl\src\draw\sw/lv_draw_sw_arc.c ****             draw_ctx->clip_area = &clip_area2;
 193:..\..\..\arduinoLCD\test\Pain Drain\libraries\lvgl\src\draw\sw/lv_draw_sw_arc.c ****             lv_draw_rect(draw_ctx, &cir_dsc, &area_out);
 194:..\..\..\arduinoLCD\test\Pain Drain\libraries\lvgl\src\draw\sw/lv_draw_sw_arc.c ****             lv_draw_mask_remove_id(mask_end_id);
 195:..\..\..\arduinoLCD\test\Pain Drain\libraries\lvgl\src\draw\sw/lv_draw_sw_arc.c ****             lv_draw_mask_free_param(&mask_end_param);
 196:..\..\..\arduinoLCD\test\Pain Drain\libraries\lvgl\src\draw\sw/lv_draw_sw_arc.c ****         }
 197:..\..\..\arduinoLCD\test\Pain Drain\libraries\lvgl\src\draw\sw/lv_draw_sw_arc.c **** 
 198:..\..\..\arduinoLCD\test\Pain Drain\libraries\lvgl\src\draw\sw/lv_draw_sw_arc.c ****         get_rounded_area(end_angle, radius, width, &round_area);
 199:..\..\..\arduinoLCD\test\Pain Drain\libraries\lvgl\src\draw\sw/lv_draw_sw_arc.c ****         round_area.x1 += center->x;
 200:..\..\..\arduinoLCD\test\Pain Drain\libraries\lvgl\src\draw\sw/lv_draw_sw_arc.c ****         round_area.x2 += center->x;
 201:..\..\..\arduinoLCD\test\Pain Drain\libraries\lvgl\src\draw\sw/lv_draw_sw_arc.c ****         round_area.y1 += center->y;
 202:..\..\..\arduinoLCD\test\Pain Drain\libraries\lvgl\src\draw\sw/lv_draw_sw_arc.c ****         round_area.y2 += center->y;
ARM GAS  C:\Users\haske\AppData\Local\Temp\ccinSyc3.s 			page 5


 203:..\..\..\arduinoLCD\test\Pain Drain\libraries\lvgl\src\draw\sw/lv_draw_sw_arc.c ****         if(_lv_area_intersect(&clip_area2, clip_area_ori, &round_area)) {
 204:..\..\..\arduinoLCD\test\Pain Drain\libraries\lvgl\src\draw\sw/lv_draw_sw_arc.c ****             lv_draw_mask_radius_init(&mask_end_param, &round_area, LV_RADIUS_CIRCLE, false);
 205:..\..\..\arduinoLCD\test\Pain Drain\libraries\lvgl\src\draw\sw/lv_draw_sw_arc.c ****             int16_t mask_end_id = lv_draw_mask_add(&mask_end_param, NULL);
 206:..\..\..\arduinoLCD\test\Pain Drain\libraries\lvgl\src\draw\sw/lv_draw_sw_arc.c **** 
 207:..\..\..\arduinoLCD\test\Pain Drain\libraries\lvgl\src\draw\sw/lv_draw_sw_arc.c ****             draw_ctx->clip_area = &clip_area2;
 208:..\..\..\arduinoLCD\test\Pain Drain\libraries\lvgl\src\draw\sw/lv_draw_sw_arc.c ****             lv_draw_rect(draw_ctx, &cir_dsc, &area_out);
 209:..\..\..\arduinoLCD\test\Pain Drain\libraries\lvgl\src\draw\sw/lv_draw_sw_arc.c ****             lv_draw_mask_remove_id(mask_end_id);
 210:..\..\..\arduinoLCD\test\Pain Drain\libraries\lvgl\src\draw\sw/lv_draw_sw_arc.c ****             lv_draw_mask_free_param(&mask_end_param);
 211:..\..\..\arduinoLCD\test\Pain Drain\libraries\lvgl\src\draw\sw/lv_draw_sw_arc.c ****         }
 212:..\..\..\arduinoLCD\test\Pain Drain\libraries\lvgl\src\draw\sw/lv_draw_sw_arc.c ****         draw_ctx->clip_area = clip_area_ori;
 213:..\..\..\arduinoLCD\test\Pain Drain\libraries\lvgl\src\draw\sw/lv_draw_sw_arc.c ****     }
 214:..\..\..\arduinoLCD\test\Pain Drain\libraries\lvgl\src\draw\sw/lv_draw_sw_arc.c **** #else
 215:..\..\..\arduinoLCD\test\Pain Drain\libraries\lvgl\src\draw\sw/lv_draw_sw_arc.c ****     LV_LOG_WARN("Can't draw arc with LV_DRAW_COMPLEX == 0");
 216:..\..\..\arduinoLCD\test\Pain Drain\libraries\lvgl\src\draw\sw/lv_draw_sw_arc.c ****     LV_UNUSED(center);
 217:..\..\..\arduinoLCD\test\Pain Drain\libraries\lvgl\src\draw\sw/lv_draw_sw_arc.c ****     LV_UNUSED(radius);
 218:..\..\..\arduinoLCD\test\Pain Drain\libraries\lvgl\src\draw\sw/lv_draw_sw_arc.c ****     LV_UNUSED(start_angle);
 219:..\..\..\arduinoLCD\test\Pain Drain\libraries\lvgl\src\draw\sw/lv_draw_sw_arc.c ****     LV_UNUSED(end_angle);
 220:..\..\..\arduinoLCD\test\Pain Drain\libraries\lvgl\src\draw\sw/lv_draw_sw_arc.c ****     LV_UNUSED(draw_ctx);
 221:..\..\..\arduinoLCD\test\Pain Drain\libraries\lvgl\src\draw\sw/lv_draw_sw_arc.c ****     LV_UNUSED(dsc);
 222:..\..\..\arduinoLCD\test\Pain Drain\libraries\lvgl\src\draw\sw/lv_draw_sw_arc.c **** #endif /*LV_DRAW_COMPLEX*/
 223:..\..\..\arduinoLCD\test\Pain Drain\libraries\lvgl\src\draw\sw/lv_draw_sw_arc.c **** }
 224:..\..\..\arduinoLCD\test\Pain Drain\libraries\lvgl\src\draw\sw/lv_draw_sw_arc.c **** 
 225:..\..\..\arduinoLCD\test\Pain Drain\libraries\lvgl\src\draw\sw/lv_draw_sw_arc.c **** /**********************
 226:..\..\..\arduinoLCD\test\Pain Drain\libraries\lvgl\src\draw\sw/lv_draw_sw_arc.c ****  *   STATIC FUNCTIONS
 227:..\..\..\arduinoLCD\test\Pain Drain\libraries\lvgl\src\draw\sw/lv_draw_sw_arc.c ****  **********************/
 228:..\..\..\arduinoLCD\test\Pain Drain\libraries\lvgl\src\draw\sw/lv_draw_sw_arc.c **** 
 229:..\..\..\arduinoLCD\test\Pain Drain\libraries\lvgl\src\draw\sw/lv_draw_sw_arc.c **** #if LV_DRAW_COMPLEX
 230:..\..\..\arduinoLCD\test\Pain Drain\libraries\lvgl\src\draw\sw/lv_draw_sw_arc.c **** static void draw_quarter_0(quarter_draw_dsc_t * q)
 231:..\..\..\arduinoLCD\test\Pain Drain\libraries\lvgl\src\draw\sw/lv_draw_sw_arc.c **** {
  27              		.loc 1 231 0
  28              		.cfi_startproc
  29              		@ args = 0, pretend = 0, frame = 8
  30              		@ frame_needed = 0, uses_anonymous_args = 0
  31              	.LVL0:
  32 0000 70B5     		push	{r4, r5, r6, lr}
  33              		.cfi_def_cfa_offset 16
  34              		.cfi_offset 4, -16
  35              		.cfi_offset 5, -12
  36              		.cfi_offset 6, -8
  37              		.cfi_offset 14, -4
  38 0002 82B0     		sub	sp, sp, #8
  39              		.cfi_def_cfa_offset 24
  40 0004 0400     		movs	r4, r0
 232:..\..\..\arduinoLCD\test\Pain Drain\libraries\lvgl\src\draw\sw/lv_draw_sw_arc.c ****     const lv_area_t * clip_area_ori = q->draw_ctx->clip_area;
  41              		.loc 1 232 0
  42 0006 8369     		ldr	r3, [r0, #24]
  43 0008 9D68     		ldr	r5, [r3, #8]
  44              	.LVL1:
 233:..\..\..\arduinoLCD\test\Pain Drain\libraries\lvgl\src\draw\sw/lv_draw_sw_arc.c ****     lv_area_t quarter_area;
 234:..\..\..\arduinoLCD\test\Pain Drain\libraries\lvgl\src\draw\sw/lv_draw_sw_arc.c **** 
 235:..\..\..\arduinoLCD\test\Pain Drain\libraries\lvgl\src\draw\sw/lv_draw_sw_arc.c ****     if(q->start_quarter == 0 && q->end_quarter == 0 && q->start_angle < q->end_angle) {
  45              		.loc 1 235 0
  46 000a 4389     		ldrh	r3, [r0, #10]
  47 000c 002B     		cmp	r3, #0
  48 000e 56D1     		bne	.L2
  49              		.loc 1 235 0 is_stmt 0 discriminator 1
  50 0010 8289     		ldrh	r2, [r0, #12]
ARM GAS  C:\Users\haske\AppData\Local\Temp\ccinSyc3.s 			page 6


  51 0012 002A     		cmp	r2, #0
  52 0014 53D1     		bne	.L2
  53              		.loc 1 235 0 discriminator 2
  54 0016 C088     		ldrh	r0, [r0, #6]
  55              	.LVL2:
  56 0018 2289     		ldrh	r2, [r4, #8]
  57 001a 9042     		cmp	r0, r2
  58 001c 4FD2     		bcs	.L2
  59              	.LBB12:
 236:..\..\..\arduinoLCD\test\Pain Drain\libraries\lvgl\src\draw\sw/lv_draw_sw_arc.c ****         /*Small arc here*/
 237:..\..\..\arduinoLCD\test\Pain Drain\libraries\lvgl\src\draw\sw/lv_draw_sw_arc.c ****         quarter_area.y1 = q->center->y + ((lv_trigo_sin(q->start_angle) * (q->radius - q->width)) >
  60              		.loc 1 237 0 is_stmt 1
  61 001e 2368     		ldr	r3, [r4]
  62 0020 0226     		movs	r6, #2
  63 0022 9E5F     		ldrsh	r6, [r3, r6]
  64 0024 00B2     		sxth	r0, r0
  65 0026 FFF7FEFF 		bl	lv_trigo_sin
  66              	.LVL3:
  67 002a 0422     		movs	r2, #4
  68 002c A35E     		ldrsh	r3, [r4, r2]
  69 002e 0E21     		movs	r1, #14
  70 0030 625E     		ldrsh	r2, [r4, r1]
  71 0032 9B1A     		subs	r3, r3, r2
  72 0034 5843     		muls	r0, r3
  73 0036 C013     		asrs	r0, r0, #15
  74 0038 3018     		adds	r0, r6, r0
  75 003a 6B46     		mov	r3, sp
  76 003c 5880     		strh	r0, [r3, #2]
 238:..\..\..\arduinoLCD\test\Pain Drain\libraries\lvgl\src\draw\sw/lv_draw_sw_arc.c ****         quarter_area.x2 = q->center->x + ((lv_trigo_sin(q->start_angle + 90) * (q->radius)) >> LV_T
  77              		.loc 1 238 0
  78 003e 2368     		ldr	r3, [r4]
  79 0040 0026     		movs	r6, #0
  80 0042 9E5F     		ldrsh	r6, [r3, r6]
  81 0044 E088     		ldrh	r0, [r4, #6]
  82 0046 5A30     		adds	r0, r0, #90
  83 0048 00B2     		sxth	r0, r0
  84 004a FFF7FEFF 		bl	lv_trigo_sin
  85              	.LVL4:
  86 004e 0422     		movs	r2, #4
  87 0050 A35E     		ldrsh	r3, [r4, r2]
  88 0052 5843     		muls	r0, r3
  89 0054 C013     		asrs	r0, r0, #15
  90 0056 3018     		adds	r0, r6, r0
  91 0058 6B46     		mov	r3, sp
  92 005a 9880     		strh	r0, [r3, #4]
 239:..\..\..\arduinoLCD\test\Pain Drain\libraries\lvgl\src\draw\sw/lv_draw_sw_arc.c **** 
 240:..\..\..\arduinoLCD\test\Pain Drain\libraries\lvgl\src\draw\sw/lv_draw_sw_arc.c ****         quarter_area.y2 = q->center->y + ((lv_trigo_sin(q->end_angle) * q->radius) >> LV_TRIGO_SHIF
  93              		.loc 1 240 0
  94 005c 2368     		ldr	r3, [r4]
  95 005e 0226     		movs	r6, #2
  96 0060 9E5F     		ldrsh	r6, [r3, r6]
  97 0062 0823     		movs	r3, #8
  98 0064 E05E     		ldrsh	r0, [r4, r3]
  99 0066 FFF7FEFF 		bl	lv_trigo_sin
 100              	.LVL5:
 101 006a 0422     		movs	r2, #4
 102 006c A35E     		ldrsh	r3, [r4, r2]
ARM GAS  C:\Users\haske\AppData\Local\Temp\ccinSyc3.s 			page 7


 103 006e 5843     		muls	r0, r3
 104 0070 C013     		asrs	r0, r0, #15
 105 0072 3018     		adds	r0, r6, r0
 106 0074 6B46     		mov	r3, sp
 107 0076 D880     		strh	r0, [r3, #6]
 241:..\..\..\arduinoLCD\test\Pain Drain\libraries\lvgl\src\draw\sw/lv_draw_sw_arc.c ****         quarter_area.x1 = q->center->x + ((lv_trigo_sin(q->end_angle + 90) * (q->radius - q->width)
 108              		.loc 1 241 0
 109 0078 2368     		ldr	r3, [r4]
 110 007a 0026     		movs	r6, #0
 111 007c 9E5F     		ldrsh	r6, [r3, r6]
 112 007e 2089     		ldrh	r0, [r4, #8]
 113 0080 5A30     		adds	r0, r0, #90
 114 0082 00B2     		sxth	r0, r0
 115 0084 FFF7FEFF 		bl	lv_trigo_sin
 116              	.LVL6:
 117 0088 0422     		movs	r2, #4
 118 008a A35E     		ldrsh	r3, [r4, r2]
 119 008c 0E21     		movs	r1, #14
 120 008e 625E     		ldrsh	r2, [r4, r1]
 121 0090 9B1A     		subs	r3, r3, r2
 122 0092 5843     		muls	r0, r3
 123 0094 C013     		asrs	r0, r0, #15
 124 0096 3018     		adds	r0, r6, r0
 125 0098 6B46     		mov	r3, sp
 126 009a 1880     		strh	r0, [r3]
 242:..\..\..\arduinoLCD\test\Pain Drain\libraries\lvgl\src\draw\sw/lv_draw_sw_arc.c **** 
 243:..\..\..\arduinoLCD\test\Pain Drain\libraries\lvgl\src\draw\sw/lv_draw_sw_arc.c ****         bool ok = _lv_area_intersect(&quarter_area, &quarter_area, clip_area_ori);
 127              		.loc 1 243 0
 128 009c 2A00     		movs	r2, r5
 129 009e 6946     		mov	r1, sp
 130 00a0 6846     		mov	r0, sp
 131 00a2 FFF7FEFF 		bl	_lv_area_intersect
 132              	.LVL7:
 244:..\..\..\arduinoLCD\test\Pain Drain\libraries\lvgl\src\draw\sw/lv_draw_sw_arc.c ****         if(ok) {
 133              		.loc 1 244 0
 134 00a6 0028     		cmp	r0, #0
 135 00a8 00D1     		bne	.LCB94
 136 00aa BDE0     		b	.L3	@long jump
 137              	.LCB94:
 245:..\..\..\arduinoLCD\test\Pain Drain\libraries\lvgl\src\draw\sw/lv_draw_sw_arc.c ****             q->draw_ctx->clip_area = &quarter_area;
 138              		.loc 1 245 0
 139 00ac A369     		ldr	r3, [r4, #24]
 140 00ae 6A46     		mov	r2, sp
 141 00b0 9A60     		str	r2, [r3, #8]
 246:..\..\..\arduinoLCD\test\Pain Drain\libraries\lvgl\src\draw\sw/lv_draw_sw_arc.c ****             lv_draw_rect(q->draw_ctx, q->draw_dsc, q->draw_area);
 142              		.loc 1 246 0
 143 00b2 6269     		ldr	r2, [r4, #20]
 144 00b4 2169     		ldr	r1, [r4, #16]
 145 00b6 A069     		ldr	r0, [r4, #24]
 146              	.LVL8:
 147 00b8 FFF7FEFF 		bl	lv_draw_rect
 148              	.LVL9:
 149 00bc B4E0     		b	.L3
 150              	.L2:
 151              	.LBE12:
 247:..\..\..\arduinoLCD\test\Pain Drain\libraries\lvgl\src\draw\sw/lv_draw_sw_arc.c ****         }
 248:..\..\..\arduinoLCD\test\Pain Drain\libraries\lvgl\src\draw\sw/lv_draw_sw_arc.c ****     }
ARM GAS  C:\Users\haske\AppData\Local\Temp\ccinSyc3.s 			page 8


 249:..\..\..\arduinoLCD\test\Pain Drain\libraries\lvgl\src\draw\sw/lv_draw_sw_arc.c ****     else if(q->start_quarter == 0 || q->end_quarter == 0) {
 152              		.loc 1 249 0
 153 00be 002B     		cmp	r3, #0
 154 00c0 02D0     		beq	.L4
 155              		.loc 1 249 0 is_stmt 0 discriminator 1
 156 00c2 A289     		ldrh	r2, [r4, #12]
 157 00c4 002A     		cmp	r2, #0
 158 00c6 79D1     		bne	.L5
 159              	.L4:
 250:..\..\..\arduinoLCD\test\Pain Drain\libraries\lvgl\src\draw\sw/lv_draw_sw_arc.c ****         /*Start and/or end arcs here*/
 251:..\..\..\arduinoLCD\test\Pain Drain\libraries\lvgl\src\draw\sw/lv_draw_sw_arc.c ****         if(q->start_quarter == 0) {
 160              		.loc 1 251 0 is_stmt 1
 161 00c8 002B     		cmp	r3, #0
 162 00ca 39D1     		bne	.L6
 163              	.LBB13:
 252:..\..\..\arduinoLCD\test\Pain Drain\libraries\lvgl\src\draw\sw/lv_draw_sw_arc.c ****             quarter_area.x1 = q->center->x;
 164              		.loc 1 252 0
 165 00cc 2368     		ldr	r3, [r4]
 166 00ce 0021     		movs	r1, #0
 167 00d0 5A5E     		ldrsh	r2, [r3, r1]
 168 00d2 6946     		mov	r1, sp
 169 00d4 0A80     		strh	r2, [r1]
 253:..\..\..\arduinoLCD\test\Pain Drain\libraries\lvgl\src\draw\sw/lv_draw_sw_arc.c ****             quarter_area.y2 = q->center->y + q->radius;
 170              		.loc 1 253 0
 171 00d6 0222     		movs	r2, #2
 172 00d8 995E     		ldrsh	r1, [r3, r2]
 173 00da 0420     		movs	r0, #4
 174 00dc 225E     		ldrsh	r2, [r4, r0]
 175 00de 8A18     		adds	r2, r1, r2
 176 00e0 6946     		mov	r1, sp
 177 00e2 CA80     		strh	r2, [r1, #6]
 254:..\..\..\arduinoLCD\test\Pain Drain\libraries\lvgl\src\draw\sw/lv_draw_sw_arc.c **** 
 255:..\..\..\arduinoLCD\test\Pain Drain\libraries\lvgl\src\draw\sw/lv_draw_sw_arc.c ****             quarter_area.y1 = q->center->y + ((lv_trigo_sin(q->start_angle) * (q->radius - q->width
 178              		.loc 1 255 0
 179 00e4 0226     		movs	r6, #2
 180 00e6 9E5F     		ldrsh	r6, [r3, r6]
 181 00e8 0623     		movs	r3, #6
 182 00ea E05E     		ldrsh	r0, [r4, r3]
 183 00ec FFF7FEFF 		bl	lv_trigo_sin
 184              	.LVL10:
 185 00f0 0422     		movs	r2, #4
 186 00f2 A35E     		ldrsh	r3, [r4, r2]
 187 00f4 0E21     		movs	r1, #14
 188 00f6 625E     		ldrsh	r2, [r4, r1]
 189 00f8 9B1A     		subs	r3, r3, r2
 190 00fa 5843     		muls	r0, r3
 191 00fc C013     		asrs	r0, r0, #15
 192 00fe 3018     		adds	r0, r6, r0
 193 0100 6B46     		mov	r3, sp
 194 0102 5880     		strh	r0, [r3, #2]
 256:..\..\..\arduinoLCD\test\Pain Drain\libraries\lvgl\src\draw\sw/lv_draw_sw_arc.c ****             quarter_area.x2 = q->center->x + ((lv_trigo_sin(q->start_angle + 90) * (q->radius)) >> 
 195              		.loc 1 256 0
 196 0104 2368     		ldr	r3, [r4]
 197 0106 0026     		movs	r6, #0
 198 0108 9E5F     		ldrsh	r6, [r3, r6]
 199 010a E088     		ldrh	r0, [r4, #6]
 200 010c 5A30     		adds	r0, r0, #90
ARM GAS  C:\Users\haske\AppData\Local\Temp\ccinSyc3.s 			page 9


 201 010e 00B2     		sxth	r0, r0
 202 0110 FFF7FEFF 		bl	lv_trigo_sin
 203              	.LVL11:
 204 0114 0422     		movs	r2, #4
 205 0116 A35E     		ldrsh	r3, [r4, r2]
 206 0118 5843     		muls	r0, r3
 207 011a C013     		asrs	r0, r0, #15
 208 011c 3018     		adds	r0, r6, r0
 209 011e 6B46     		mov	r3, sp
 210 0120 9880     		strh	r0, [r3, #4]
 257:..\..\..\arduinoLCD\test\Pain Drain\libraries\lvgl\src\draw\sw/lv_draw_sw_arc.c **** 
 258:..\..\..\arduinoLCD\test\Pain Drain\libraries\lvgl\src\draw\sw/lv_draw_sw_arc.c ****             bool ok = _lv_area_intersect(&quarter_area, &quarter_area, clip_area_ori);
 211              		.loc 1 258 0
 212 0122 2A00     		movs	r2, r5
 213 0124 6946     		mov	r1, sp
 214 0126 6846     		mov	r0, sp
 215 0128 FFF7FEFF 		bl	_lv_area_intersect
 216              	.LVL12:
 259:..\..\..\arduinoLCD\test\Pain Drain\libraries\lvgl\src\draw\sw/lv_draw_sw_arc.c ****             if(ok) {
 217              		.loc 1 259 0
 218 012c 0028     		cmp	r0, #0
 219 012e 07D0     		beq	.L6
 260:..\..\..\arduinoLCD\test\Pain Drain\libraries\lvgl\src\draw\sw/lv_draw_sw_arc.c ****                 q->draw_ctx->clip_area = &quarter_area;
 220              		.loc 1 260 0
 221 0130 A369     		ldr	r3, [r4, #24]
 222 0132 6A46     		mov	r2, sp
 223 0134 9A60     		str	r2, [r3, #8]
 261:..\..\..\arduinoLCD\test\Pain Drain\libraries\lvgl\src\draw\sw/lv_draw_sw_arc.c ****                 lv_draw_rect(q->draw_ctx, q->draw_dsc, q->draw_area);
 224              		.loc 1 261 0
 225 0136 6269     		ldr	r2, [r4, #20]
 226 0138 2169     		ldr	r1, [r4, #16]
 227 013a A069     		ldr	r0, [r4, #24]
 228              	.LVL13:
 229 013c FFF7FEFF 		bl	lv_draw_rect
 230              	.LVL14:
 231              	.L6:
 232              	.LBE13:
 262:..\..\..\arduinoLCD\test\Pain Drain\libraries\lvgl\src\draw\sw/lv_draw_sw_arc.c ****             }
 263:..\..\..\arduinoLCD\test\Pain Drain\libraries\lvgl\src\draw\sw/lv_draw_sw_arc.c ****         }
 264:..\..\..\arduinoLCD\test\Pain Drain\libraries\lvgl\src\draw\sw/lv_draw_sw_arc.c ****         if(q->end_quarter == 0) {
 233              		.loc 1 264 0
 234 0140 A389     		ldrh	r3, [r4, #12]
 235 0142 002B     		cmp	r3, #0
 236 0144 70D1     		bne	.L3
 237              	.LBB14:
 265:..\..\..\arduinoLCD\test\Pain Drain\libraries\lvgl\src\draw\sw/lv_draw_sw_arc.c ****             quarter_area.x2 = q->center->x + q->radius;
 238              		.loc 1 265 0
 239 0146 2368     		ldr	r3, [r4]
 240 0148 0022     		movs	r2, #0
 241 014a 995E     		ldrsh	r1, [r3, r2]
 242 014c 0420     		movs	r0, #4
 243 014e 225E     		ldrsh	r2, [r4, r0]
 244 0150 8A18     		adds	r2, r1, r2
 245 0152 6946     		mov	r1, sp
 246 0154 8A80     		strh	r2, [r1, #4]
 266:..\..\..\arduinoLCD\test\Pain Drain\libraries\lvgl\src\draw\sw/lv_draw_sw_arc.c ****             quarter_area.y1 = q->center->y;
 247              		.loc 1 266 0
ARM GAS  C:\Users\haske\AppData\Local\Temp\ccinSyc3.s 			page 10


 248 0156 0221     		movs	r1, #2
 249 0158 5A5E     		ldrsh	r2, [r3, r1]
 250 015a 6946     		mov	r1, sp
 251 015c 4A80     		strh	r2, [r1, #2]
 267:..\..\..\arduinoLCD\test\Pain Drain\libraries\lvgl\src\draw\sw/lv_draw_sw_arc.c **** 
 268:..\..\..\arduinoLCD\test\Pain Drain\libraries\lvgl\src\draw\sw/lv_draw_sw_arc.c ****             quarter_area.y2 = q->center->y + ((lv_trigo_sin(q->end_angle) * q->radius) >> LV_TRIGO_
 252              		.loc 1 268 0
 253 015e 0226     		movs	r6, #2
 254 0160 9E5F     		ldrsh	r6, [r3, r6]
 255 0162 0823     		movs	r3, #8
 256 0164 E05E     		ldrsh	r0, [r4, r3]
 257 0166 FFF7FEFF 		bl	lv_trigo_sin
 258              	.LVL15:
 259 016a 0422     		movs	r2, #4
 260 016c A35E     		ldrsh	r3, [r4, r2]
 261 016e 5843     		muls	r0, r3
 262 0170 C013     		asrs	r0, r0, #15
 263 0172 3018     		adds	r0, r6, r0
 264 0174 6B46     		mov	r3, sp
 265 0176 D880     		strh	r0, [r3, #6]
 269:..\..\..\arduinoLCD\test\Pain Drain\libraries\lvgl\src\draw\sw/lv_draw_sw_arc.c ****             quarter_area.x1 = q->center->x + ((lv_trigo_sin(q->end_angle + 90) * (q->radius - q->wi
 266              		.loc 1 269 0
 267 0178 2368     		ldr	r3, [r4]
 268 017a 0026     		movs	r6, #0
 269 017c 9E5F     		ldrsh	r6, [r3, r6]
 270 017e 2089     		ldrh	r0, [r4, #8]
 271 0180 5A30     		adds	r0, r0, #90
 272 0182 00B2     		sxth	r0, r0
 273 0184 FFF7FEFF 		bl	lv_trigo_sin
 274              	.LVL16:
 275 0188 0422     		movs	r2, #4
 276 018a A35E     		ldrsh	r3, [r4, r2]
 277 018c 0E21     		movs	r1, #14
 278 018e 625E     		ldrsh	r2, [r4, r1]
 279 0190 9B1A     		subs	r3, r3, r2
 280 0192 5843     		muls	r0, r3
 281 0194 C013     		asrs	r0, r0, #15
 282 0196 3018     		adds	r0, r6, r0
 283 0198 6B46     		mov	r3, sp
 284 019a 1880     		strh	r0, [r3]
 270:..\..\..\arduinoLCD\test\Pain Drain\libraries\lvgl\src\draw\sw/lv_draw_sw_arc.c **** 
 271:..\..\..\arduinoLCD\test\Pain Drain\libraries\lvgl\src\draw\sw/lv_draw_sw_arc.c ****             bool ok = _lv_area_intersect(&quarter_area, &quarter_area, clip_area_ori);
 285              		.loc 1 271 0
 286 019c 2A00     		movs	r2, r5
 287 019e 6946     		mov	r1, sp
 288 01a0 6846     		mov	r0, sp
 289 01a2 FFF7FEFF 		bl	_lv_area_intersect
 290              	.LVL17:
 272:..\..\..\arduinoLCD\test\Pain Drain\libraries\lvgl\src\draw\sw/lv_draw_sw_arc.c ****             if(ok) {
 291              		.loc 1 272 0
 292 01a6 0028     		cmp	r0, #0
 293 01a8 3ED0     		beq	.L3
 273:..\..\..\arduinoLCD\test\Pain Drain\libraries\lvgl\src\draw\sw/lv_draw_sw_arc.c ****                 q->draw_ctx->clip_area = &quarter_area;
 294              		.loc 1 273 0
 295 01aa A369     		ldr	r3, [r4, #24]
 296 01ac 6A46     		mov	r2, sp
 297 01ae 9A60     		str	r2, [r3, #8]
ARM GAS  C:\Users\haske\AppData\Local\Temp\ccinSyc3.s 			page 11


 274:..\..\..\arduinoLCD\test\Pain Drain\libraries\lvgl\src\draw\sw/lv_draw_sw_arc.c ****                 lv_draw_rect(q->draw_ctx, q->draw_dsc, q->draw_area);
 298              		.loc 1 274 0
 299 01b0 6269     		ldr	r2, [r4, #20]
 300 01b2 2169     		ldr	r1, [r4, #16]
 301 01b4 A069     		ldr	r0, [r4, #24]
 302              	.LVL18:
 303 01b6 FFF7FEFF 		bl	lv_draw_rect
 304              	.LVL19:
 305 01ba 35E0     		b	.L3
 306              	.L5:
 307              	.LBE14:
 275:..\..\..\arduinoLCD\test\Pain Drain\libraries\lvgl\src\draw\sw/lv_draw_sw_arc.c ****             }
 276:..\..\..\arduinoLCD\test\Pain Drain\libraries\lvgl\src\draw\sw/lv_draw_sw_arc.c ****         }
 277:..\..\..\arduinoLCD\test\Pain Drain\libraries\lvgl\src\draw\sw/lv_draw_sw_arc.c ****     }
 278:..\..\..\arduinoLCD\test\Pain Drain\libraries\lvgl\src\draw\sw/lv_draw_sw_arc.c ****     else if((q->start_quarter == q->end_quarter && q->start_quarter != 0 && q->end_angle < q->start
 308              		.loc 1 278 0
 309 01bc 9342     		cmp	r3, r2
 310 01be 05D1     		bne	.L7
 311              		.loc 1 278 0 is_stmt 0 discriminator 1
 312 01c0 002B     		cmp	r3, #0
 313 01c2 03D0     		beq	.L7
 314              		.loc 1 278 0 discriminator 3
 315 01c4 2089     		ldrh	r0, [r4, #8]
 316 01c6 E188     		ldrh	r1, [r4, #6]
 317 01c8 8842     		cmp	r0, r1
 318 01ca 0BD3     		bcc	.L8
 319              	.L7:
 320              		.loc 1 278 0 discriminator 5
 321 01cc 022B     		cmp	r3, #2
 322 01ce 01D1     		bne	.L9
 279:..\..\..\arduinoLCD\test\Pain Drain\libraries\lvgl\src\draw\sw/lv_draw_sw_arc.c ****             (q->start_quarter == 2 && q->end_quarter == 1) ||
 323              		.loc 1 279 0 is_stmt 1
 324 01d0 012A     		cmp	r2, #1
 325 01d2 07D0     		beq	.L8
 326              	.L9:
 327              		.loc 1 279 0 is_stmt 0 discriminator 1
 328 01d4 032B     		cmp	r3, #3
 329 01d6 01D1     		bne	.L10
 280:..\..\..\arduinoLCD\test\Pain Drain\libraries\lvgl\src\draw\sw/lv_draw_sw_arc.c ****             (q->start_quarter == 3 && q->end_quarter == 2) ||
 330              		.loc 1 280 0 is_stmt 1
 331 01d8 022A     		cmp	r2, #2
 332 01da 03D0     		beq	.L8
 333              	.L10:
 334              		.loc 1 280 0 is_stmt 0 discriminator 1
 335 01dc 032B     		cmp	r3, #3
 336 01de 23D1     		bne	.L3
 281:..\..\..\arduinoLCD\test\Pain Drain\libraries\lvgl\src\draw\sw/lv_draw_sw_arc.c ****             (q->start_quarter == 3 && q->end_quarter == 1)) {
 337              		.loc 1 281 0 is_stmt 1
 338 01e0 012A     		cmp	r2, #1
 339 01e2 21D1     		bne	.L3
 340              	.L8:
 341              	.LBB15:
 282:..\..\..\arduinoLCD\test\Pain Drain\libraries\lvgl\src\draw\sw/lv_draw_sw_arc.c ****         /*Arc crosses here*/
 283:..\..\..\arduinoLCD\test\Pain Drain\libraries\lvgl\src\draw\sw/lv_draw_sw_arc.c ****         quarter_area.x1 = q->center->x;
 342              		.loc 1 283 0
 343 01e4 2368     		ldr	r3, [r4]
 344 01e6 0021     		movs	r1, #0
ARM GAS  C:\Users\haske\AppData\Local\Temp\ccinSyc3.s 			page 12


 345 01e8 5A5E     		ldrsh	r2, [r3, r1]
 346 01ea 6946     		mov	r1, sp
 347 01ec 0A80     		strh	r2, [r1]
 284:..\..\..\arduinoLCD\test\Pain Drain\libraries\lvgl\src\draw\sw/lv_draw_sw_arc.c ****         quarter_area.y1 = q->center->y;
 348              		.loc 1 284 0
 349 01ee 0221     		movs	r1, #2
 350 01f0 5A5E     		ldrsh	r2, [r3, r1]
 351 01f2 6946     		mov	r1, sp
 352 01f4 4A80     		strh	r2, [r1, #2]
 285:..\..\..\arduinoLCD\test\Pain Drain\libraries\lvgl\src\draw\sw/lv_draw_sw_arc.c ****         quarter_area.x2 = q->center->x + q->radius;
 353              		.loc 1 285 0
 354 01f6 0021     		movs	r1, #0
 355 01f8 5A5E     		ldrsh	r2, [r3, r1]
 356 01fa 0420     		movs	r0, #4
 357 01fc 215E     		ldrsh	r1, [r4, r0]
 358 01fe 5218     		adds	r2, r2, r1
 359 0200 6846     		mov	r0, sp
 360 0202 8280     		strh	r2, [r0, #4]
 286:..\..\..\arduinoLCD\test\Pain Drain\libraries\lvgl\src\draw\sw/lv_draw_sw_arc.c ****         quarter_area.y2 = q->center->y + q->radius;
 361              		.loc 1 286 0
 362 0204 0222     		movs	r2, #2
 363 0206 9B5E     		ldrsh	r3, [r3, r2]
 364 0208 CB18     		adds	r3, r1, r3
 365 020a C380     		strh	r3, [r0, #6]
 287:..\..\..\arduinoLCD\test\Pain Drain\libraries\lvgl\src\draw\sw/lv_draw_sw_arc.c **** 
 288:..\..\..\arduinoLCD\test\Pain Drain\libraries\lvgl\src\draw\sw/lv_draw_sw_arc.c ****         bool ok = _lv_area_intersect(&quarter_area, &quarter_area, clip_area_ori);
 366              		.loc 1 288 0
 367 020c 2A00     		movs	r2, r5
 368 020e 6946     		mov	r1, sp
 369 0210 FFF7FEFF 		bl	_lv_area_intersect
 370              	.LVL20:
 289:..\..\..\arduinoLCD\test\Pain Drain\libraries\lvgl\src\draw\sw/lv_draw_sw_arc.c ****         if(ok) {
 371              		.loc 1 289 0
 372 0214 0028     		cmp	r0, #0
 373 0216 07D0     		beq	.L3
 290:..\..\..\arduinoLCD\test\Pain Drain\libraries\lvgl\src\draw\sw/lv_draw_sw_arc.c ****             q->draw_ctx->clip_area = &quarter_area;
 374              		.loc 1 290 0
 375 0218 A369     		ldr	r3, [r4, #24]
 376 021a 6A46     		mov	r2, sp
 377 021c 9A60     		str	r2, [r3, #8]
 291:..\..\..\arduinoLCD\test\Pain Drain\libraries\lvgl\src\draw\sw/lv_draw_sw_arc.c ****             lv_draw_rect(q->draw_ctx, q->draw_dsc, q->draw_area);
 378              		.loc 1 291 0
 379 021e 6269     		ldr	r2, [r4, #20]
 380 0220 2169     		ldr	r1, [r4, #16]
 381 0222 A069     		ldr	r0, [r4, #24]
 382              	.LVL21:
 383 0224 FFF7FEFF 		bl	lv_draw_rect
 384              	.LVL22:
 385              	.L3:
 386              	.LBE15:
 292:..\..\..\arduinoLCD\test\Pain Drain\libraries\lvgl\src\draw\sw/lv_draw_sw_arc.c ****         }
 293:..\..\..\arduinoLCD\test\Pain Drain\libraries\lvgl\src\draw\sw/lv_draw_sw_arc.c ****     }
 294:..\..\..\arduinoLCD\test\Pain Drain\libraries\lvgl\src\draw\sw/lv_draw_sw_arc.c ****     q->draw_ctx->clip_area = clip_area_ori;
 387              		.loc 1 294 0
 388 0228 A369     		ldr	r3, [r4, #24]
 389 022a 9D60     		str	r5, [r3, #8]
 295:..\..\..\arduinoLCD\test\Pain Drain\libraries\lvgl\src\draw\sw/lv_draw_sw_arc.c **** }
ARM GAS  C:\Users\haske\AppData\Local\Temp\ccinSyc3.s 			page 13


 390              		.loc 1 295 0
 391 022c 02B0     		add	sp, sp, #8
 392              		@ sp needed
 393              	.LVL23:
 394              	.LVL24:
 395 022e 70BD     		pop	{r4, r5, r6, pc}
 396              		.cfi_endproc
 397              	.LFE57:
 398              		.size	draw_quarter_0, .-draw_quarter_0
 399              		.section	.text.draw_quarter_1,"ax",%progbits
 400              		.align	2
 401              		.code	16
 402              		.thumb_func
 403              		.type	draw_quarter_1, %function
 404              	draw_quarter_1:
 405              	.LFB58:
 296:..\..\..\arduinoLCD\test\Pain Drain\libraries\lvgl\src\draw\sw/lv_draw_sw_arc.c **** 
 297:..\..\..\arduinoLCD\test\Pain Drain\libraries\lvgl\src\draw\sw/lv_draw_sw_arc.c **** static void draw_quarter_1(quarter_draw_dsc_t * q)
 298:..\..\..\arduinoLCD\test\Pain Drain\libraries\lvgl\src\draw\sw/lv_draw_sw_arc.c **** {
 406              		.loc 1 298 0
 407              		.cfi_startproc
 408              		@ args = 0, pretend = 0, frame = 8
 409              		@ frame_needed = 0, uses_anonymous_args = 0
 410              	.LVL25:
 411 0000 70B5     		push	{r4, r5, r6, lr}
 412              		.cfi_def_cfa_offset 16
 413              		.cfi_offset 4, -16
 414              		.cfi_offset 5, -12
 415              		.cfi_offset 6, -8
 416              		.cfi_offset 14, -4
 417 0002 82B0     		sub	sp, sp, #8
 418              		.cfi_def_cfa_offset 24
 419 0004 0400     		movs	r4, r0
 299:..\..\..\arduinoLCD\test\Pain Drain\libraries\lvgl\src\draw\sw/lv_draw_sw_arc.c ****     const lv_area_t * clip_area_ori = q->draw_ctx->clip_area;
 420              		.loc 1 299 0
 421 0006 8369     		ldr	r3, [r0, #24]
 422 0008 9D68     		ldr	r5, [r3, #8]
 423              	.LVL26:
 300:..\..\..\arduinoLCD\test\Pain Drain\libraries\lvgl\src\draw\sw/lv_draw_sw_arc.c ****     lv_area_t quarter_area;
 301:..\..\..\arduinoLCD\test\Pain Drain\libraries\lvgl\src\draw\sw/lv_draw_sw_arc.c **** 
 302:..\..\..\arduinoLCD\test\Pain Drain\libraries\lvgl\src\draw\sw/lv_draw_sw_arc.c ****     if(q->start_quarter == 1 && q->end_quarter == 1 && q->start_angle < q->end_angle) {
 424              		.loc 1 302 0
 425 000a 4389     		ldrh	r3, [r0, #10]
 426 000c 012B     		cmp	r3, #1
 427 000e 56D1     		bne	.L12
 428              		.loc 1 302 0 is_stmt 0 discriminator 1
 429 0010 8289     		ldrh	r2, [r0, #12]
 430 0012 012A     		cmp	r2, #1
 431 0014 53D1     		bne	.L12
 432              		.loc 1 302 0 discriminator 2
 433 0016 C088     		ldrh	r0, [r0, #6]
 434              	.LVL27:
 435 0018 2289     		ldrh	r2, [r4, #8]
 436 001a 9042     		cmp	r0, r2
 437 001c 4FD2     		bcs	.L12
 438              	.LBB16:
 303:..\..\..\arduinoLCD\test\Pain Drain\libraries\lvgl\src\draw\sw/lv_draw_sw_arc.c ****         /*Small arc here*/
ARM GAS  C:\Users\haske\AppData\Local\Temp\ccinSyc3.s 			page 14


 304:..\..\..\arduinoLCD\test\Pain Drain\libraries\lvgl\src\draw\sw/lv_draw_sw_arc.c ****         quarter_area.y2 = q->center->y + ((lv_trigo_sin(q->start_angle) * (q->radius)) >> LV_TRIGO_
 439              		.loc 1 304 0 is_stmt 1
 440 001e 2368     		ldr	r3, [r4]
 441 0020 0226     		movs	r6, #2
 442 0022 9E5F     		ldrsh	r6, [r3, r6]
 443 0024 00B2     		sxth	r0, r0
 444 0026 FFF7FEFF 		bl	lv_trigo_sin
 445              	.LVL28:
 446 002a 0422     		movs	r2, #4
 447 002c A35E     		ldrsh	r3, [r4, r2]
 448 002e 5843     		muls	r0, r3
 449 0030 C013     		asrs	r0, r0, #15
 450 0032 3018     		adds	r0, r6, r0
 451 0034 6B46     		mov	r3, sp
 452 0036 D880     		strh	r0, [r3, #6]
 305:..\..\..\arduinoLCD\test\Pain Drain\libraries\lvgl\src\draw\sw/lv_draw_sw_arc.c ****         quarter_area.x2 = q->center->x + ((lv_trigo_sin(q->start_angle + 90) * (q->radius - q->widt
 453              		.loc 1 305 0
 454 0038 2368     		ldr	r3, [r4]
 455 003a 0026     		movs	r6, #0
 456 003c 9E5F     		ldrsh	r6, [r3, r6]
 457 003e E088     		ldrh	r0, [r4, #6]
 458 0040 5A30     		adds	r0, r0, #90
 459 0042 00B2     		sxth	r0, r0
 460 0044 FFF7FEFF 		bl	lv_trigo_sin
 461              	.LVL29:
 462 0048 0422     		movs	r2, #4
 463 004a A35E     		ldrsh	r3, [r4, r2]
 464 004c 0E21     		movs	r1, #14
 465 004e 625E     		ldrsh	r2, [r4, r1]
 466 0050 9B1A     		subs	r3, r3, r2
 467 0052 5843     		muls	r0, r3
 468 0054 C013     		asrs	r0, r0, #15
 469 0056 3018     		adds	r0, r6, r0
 470 0058 6B46     		mov	r3, sp
 471 005a 9880     		strh	r0, [r3, #4]
 306:..\..\..\arduinoLCD\test\Pain Drain\libraries\lvgl\src\draw\sw/lv_draw_sw_arc.c **** 
 307:..\..\..\arduinoLCD\test\Pain Drain\libraries\lvgl\src\draw\sw/lv_draw_sw_arc.c ****         quarter_area.y1 = q->center->y + ((lv_trigo_sin(q->end_angle) * (q->radius - q->width)) >> 
 472              		.loc 1 307 0
 473 005c 2368     		ldr	r3, [r4]
 474 005e 0226     		movs	r6, #2
 475 0060 9E5F     		ldrsh	r6, [r3, r6]
 476 0062 0823     		movs	r3, #8
 477 0064 E05E     		ldrsh	r0, [r4, r3]
 478 0066 FFF7FEFF 		bl	lv_trigo_sin
 479              	.LVL30:
 480 006a 0422     		movs	r2, #4
 481 006c A35E     		ldrsh	r3, [r4, r2]
 482 006e 0E21     		movs	r1, #14
 483 0070 625E     		ldrsh	r2, [r4, r1]
 484 0072 9B1A     		subs	r3, r3, r2
 485 0074 5843     		muls	r0, r3
 486 0076 C013     		asrs	r0, r0, #15
 487 0078 3018     		adds	r0, r6, r0
 488 007a 6B46     		mov	r3, sp
 489 007c 5880     		strh	r0, [r3, #2]
 308:..\..\..\arduinoLCD\test\Pain Drain\libraries\lvgl\src\draw\sw/lv_draw_sw_arc.c ****         quarter_area.x1 = q->center->x + ((lv_trigo_sin(q->end_angle + 90) * (q->radius)) >> LV_TRI
 490              		.loc 1 308 0
ARM GAS  C:\Users\haske\AppData\Local\Temp\ccinSyc3.s 			page 15


 491 007e 2368     		ldr	r3, [r4]
 492 0080 0026     		movs	r6, #0
 493 0082 9E5F     		ldrsh	r6, [r3, r6]
 494 0084 2089     		ldrh	r0, [r4, #8]
 495 0086 5A30     		adds	r0, r0, #90
 496 0088 00B2     		sxth	r0, r0
 497 008a FFF7FEFF 		bl	lv_trigo_sin
 498              	.LVL31:
 499 008e 0422     		movs	r2, #4
 500 0090 A35E     		ldrsh	r3, [r4, r2]
 501 0092 5843     		muls	r0, r3
 502 0094 C013     		asrs	r0, r0, #15
 503 0096 3018     		adds	r0, r6, r0
 504 0098 6B46     		mov	r3, sp
 505 009a 1880     		strh	r0, [r3]
 309:..\..\..\arduinoLCD\test\Pain Drain\libraries\lvgl\src\draw\sw/lv_draw_sw_arc.c **** 
 310:..\..\..\arduinoLCD\test\Pain Drain\libraries\lvgl\src\draw\sw/lv_draw_sw_arc.c ****         bool ok = _lv_area_intersect(&quarter_area, &quarter_area, clip_area_ori);
 506              		.loc 1 310 0
 507 009c 2A00     		movs	r2, r5
 508 009e 6946     		mov	r1, sp
 509 00a0 6846     		mov	r0, sp
 510 00a2 FFF7FEFF 		bl	_lv_area_intersect
 511              	.LVL32:
 311:..\..\..\arduinoLCD\test\Pain Drain\libraries\lvgl\src\draw\sw/lv_draw_sw_arc.c ****         if(ok) {
 512              		.loc 1 311 0
 513 00a6 0028     		cmp	r0, #0
 514 00a8 00D1     		bne	.LCB435
 515 00aa BFE0     		b	.L13	@long jump
 516              	.LCB435:
 312:..\..\..\arduinoLCD\test\Pain Drain\libraries\lvgl\src\draw\sw/lv_draw_sw_arc.c ****             q->draw_ctx->clip_area = &quarter_area;
 517              		.loc 1 312 0
 518 00ac A369     		ldr	r3, [r4, #24]
 519 00ae 6A46     		mov	r2, sp
 520 00b0 9A60     		str	r2, [r3, #8]
 313:..\..\..\arduinoLCD\test\Pain Drain\libraries\lvgl\src\draw\sw/lv_draw_sw_arc.c ****             lv_draw_rect(q->draw_ctx, q->draw_dsc, q->draw_area);
 521              		.loc 1 313 0
 522 00b2 6269     		ldr	r2, [r4, #20]
 523 00b4 2169     		ldr	r1, [r4, #16]
 524 00b6 A069     		ldr	r0, [r4, #24]
 525              	.LVL33:
 526 00b8 FFF7FEFF 		bl	lv_draw_rect
 527              	.LVL34:
 528 00bc B6E0     		b	.L13
 529              	.L12:
 530              	.LBE16:
 314:..\..\..\arduinoLCD\test\Pain Drain\libraries\lvgl\src\draw\sw/lv_draw_sw_arc.c ****         }
 315:..\..\..\arduinoLCD\test\Pain Drain\libraries\lvgl\src\draw\sw/lv_draw_sw_arc.c ****     }
 316:..\..\..\arduinoLCD\test\Pain Drain\libraries\lvgl\src\draw\sw/lv_draw_sw_arc.c ****     else if(q->start_quarter == 1 || q->end_quarter == 1) {
 531              		.loc 1 316 0
 532 00be 012B     		cmp	r3, #1
 533 00c0 02D0     		beq	.L14
 534              		.loc 1 316 0 is_stmt 0 discriminator 1
 535 00c2 A289     		ldrh	r2, [r4, #12]
 536 00c4 012A     		cmp	r2, #1
 537 00c6 7AD1     		bne	.L15
 538              	.L14:
 317:..\..\..\arduinoLCD\test\Pain Drain\libraries\lvgl\src\draw\sw/lv_draw_sw_arc.c ****         /*Start and/or end arcs here*/
ARM GAS  C:\Users\haske\AppData\Local\Temp\ccinSyc3.s 			page 16


 318:..\..\..\arduinoLCD\test\Pain Drain\libraries\lvgl\src\draw\sw/lv_draw_sw_arc.c ****         if(q->start_quarter == 1) {
 539              		.loc 1 318 0 is_stmt 1
 540 00c8 012B     		cmp	r3, #1
 541 00ca 39D1     		bne	.L16
 542              	.LBB17:
 319:..\..\..\arduinoLCD\test\Pain Drain\libraries\lvgl\src\draw\sw/lv_draw_sw_arc.c ****             quarter_area.x1 = q->center->x - q->radius;
 543              		.loc 1 319 0
 544 00cc 2368     		ldr	r3, [r4]
 545 00ce 0021     		movs	r1, #0
 546 00d0 5A5E     		ldrsh	r2, [r3, r1]
 547 00d2 0420     		movs	r0, #4
 548 00d4 215E     		ldrsh	r1, [r4, r0]
 549 00d6 521A     		subs	r2, r2, r1
 550 00d8 6946     		mov	r1, sp
 551 00da 0A80     		strh	r2, [r1]
 320:..\..\..\arduinoLCD\test\Pain Drain\libraries\lvgl\src\draw\sw/lv_draw_sw_arc.c ****             quarter_area.y1 = q->center->y;
 552              		.loc 1 320 0
 553 00dc 0221     		movs	r1, #2
 554 00de 5A5E     		ldrsh	r2, [r3, r1]
 555 00e0 6946     		mov	r1, sp
 556 00e2 4A80     		strh	r2, [r1, #2]
 321:..\..\..\arduinoLCD\test\Pain Drain\libraries\lvgl\src\draw\sw/lv_draw_sw_arc.c **** 
 322:..\..\..\arduinoLCD\test\Pain Drain\libraries\lvgl\src\draw\sw/lv_draw_sw_arc.c ****             quarter_area.y2 = q->center->y + ((lv_trigo_sin(q->start_angle) * (q->radius)) >> LV_TR
 557              		.loc 1 322 0
 558 00e4 0226     		movs	r6, #2
 559 00e6 9E5F     		ldrsh	r6, [r3, r6]
 560 00e8 0623     		movs	r3, #6
 561 00ea E05E     		ldrsh	r0, [r4, r3]
 562 00ec FFF7FEFF 		bl	lv_trigo_sin
 563              	.LVL35:
 564 00f0 0422     		movs	r2, #4
 565 00f2 A35E     		ldrsh	r3, [r4, r2]
 566 00f4 5843     		muls	r0, r3
 567 00f6 C013     		asrs	r0, r0, #15
 568 00f8 3018     		adds	r0, r6, r0
 569 00fa 6B46     		mov	r3, sp
 570 00fc D880     		strh	r0, [r3, #6]
 323:..\..\..\arduinoLCD\test\Pain Drain\libraries\lvgl\src\draw\sw/lv_draw_sw_arc.c ****             quarter_area.x2 = q->center->x + ((lv_trigo_sin(q->start_angle + 90) * (q->radius - q->
 571              		.loc 1 323 0
 572 00fe 2368     		ldr	r3, [r4]
 573 0100 0026     		movs	r6, #0
 574 0102 9E5F     		ldrsh	r6, [r3, r6]
 575 0104 E088     		ldrh	r0, [r4, #6]
 576 0106 5A30     		adds	r0, r0, #90
 577 0108 00B2     		sxth	r0, r0
 578 010a FFF7FEFF 		bl	lv_trigo_sin
 579              	.LVL36:
 580 010e 0422     		movs	r2, #4
 581 0110 A35E     		ldrsh	r3, [r4, r2]
 582 0112 0E21     		movs	r1, #14
 583 0114 625E     		ldrsh	r2, [r4, r1]
 584 0116 9B1A     		subs	r3, r3, r2
 585 0118 5843     		muls	r0, r3
 586 011a C013     		asrs	r0, r0, #15
 587 011c 3018     		adds	r0, r6, r0
 588 011e 6B46     		mov	r3, sp
 589 0120 9880     		strh	r0, [r3, #4]
ARM GAS  C:\Users\haske\AppData\Local\Temp\ccinSyc3.s 			page 17


 324:..\..\..\arduinoLCD\test\Pain Drain\libraries\lvgl\src\draw\sw/lv_draw_sw_arc.c **** 
 325:..\..\..\arduinoLCD\test\Pain Drain\libraries\lvgl\src\draw\sw/lv_draw_sw_arc.c ****             bool ok = _lv_area_intersect(&quarter_area, &quarter_area, clip_area_ori);
 590              		.loc 1 325 0
 591 0122 2A00     		movs	r2, r5
 592 0124 6946     		mov	r1, sp
 593 0126 6846     		mov	r0, sp
 594 0128 FFF7FEFF 		bl	_lv_area_intersect
 595              	.LVL37:
 326:..\..\..\arduinoLCD\test\Pain Drain\libraries\lvgl\src\draw\sw/lv_draw_sw_arc.c ****             if(ok) {
 596              		.loc 1 326 0
 597 012c 0028     		cmp	r0, #0
 598 012e 07D0     		beq	.L16
 327:..\..\..\arduinoLCD\test\Pain Drain\libraries\lvgl\src\draw\sw/lv_draw_sw_arc.c ****                 q->draw_ctx->clip_area = &quarter_area;
 599              		.loc 1 327 0
 600 0130 A369     		ldr	r3, [r4, #24]
 601 0132 6A46     		mov	r2, sp
 602 0134 9A60     		str	r2, [r3, #8]
 328:..\..\..\arduinoLCD\test\Pain Drain\libraries\lvgl\src\draw\sw/lv_draw_sw_arc.c ****                 lv_draw_rect(q->draw_ctx, q->draw_dsc, q->draw_area);
 603              		.loc 1 328 0
 604 0136 6269     		ldr	r2, [r4, #20]
 605 0138 2169     		ldr	r1, [r4, #16]
 606 013a A069     		ldr	r0, [r4, #24]
 607              	.LVL38:
 608 013c FFF7FEFF 		bl	lv_draw_rect
 609              	.LVL39:
 610              	.L16:
 611              	.LBE17:
 329:..\..\..\arduinoLCD\test\Pain Drain\libraries\lvgl\src\draw\sw/lv_draw_sw_arc.c ****             }
 330:..\..\..\arduinoLCD\test\Pain Drain\libraries\lvgl\src\draw\sw/lv_draw_sw_arc.c ****         }
 331:..\..\..\arduinoLCD\test\Pain Drain\libraries\lvgl\src\draw\sw/lv_draw_sw_arc.c ****         if(q->end_quarter == 1) {
 612              		.loc 1 331 0
 613 0140 A389     		ldrh	r3, [r4, #12]
 614 0142 012B     		cmp	r3, #1
 615 0144 72D1     		bne	.L13
 616              	.LBB18:
 332:..\..\..\arduinoLCD\test\Pain Drain\libraries\lvgl\src\draw\sw/lv_draw_sw_arc.c ****             quarter_area.x2 = q->center->x - 1;
 617              		.loc 1 332 0
 618 0146 2368     		ldr	r3, [r4]
 619 0148 0021     		movs	r1, #0
 620 014a 5A5E     		ldrsh	r2, [r3, r1]
 621 014c 013A     		subs	r2, r2, #1
 622 014e 6946     		mov	r1, sp
 623 0150 8A80     		strh	r2, [r1, #4]
 333:..\..\..\arduinoLCD\test\Pain Drain\libraries\lvgl\src\draw\sw/lv_draw_sw_arc.c ****             quarter_area.y2 = q->center->y + q->radius;
 624              		.loc 1 333 0
 625 0152 0222     		movs	r2, #2
 626 0154 995E     		ldrsh	r1, [r3, r2]
 627 0156 0420     		movs	r0, #4
 628 0158 225E     		ldrsh	r2, [r4, r0]
 629 015a 8A18     		adds	r2, r1, r2
 630 015c 6946     		mov	r1, sp
 631 015e CA80     		strh	r2, [r1, #6]
 334:..\..\..\arduinoLCD\test\Pain Drain\libraries\lvgl\src\draw\sw/lv_draw_sw_arc.c **** 
 335:..\..\..\arduinoLCD\test\Pain Drain\libraries\lvgl\src\draw\sw/lv_draw_sw_arc.c ****             quarter_area.y1 = q->center->y + ((lv_trigo_sin(q->end_angle) * (q->radius - q->width))
 632              		.loc 1 335 0
 633 0160 0226     		movs	r6, #2
 634 0162 9E5F     		ldrsh	r6, [r3, r6]
ARM GAS  C:\Users\haske\AppData\Local\Temp\ccinSyc3.s 			page 18


 635 0164 0823     		movs	r3, #8
 636 0166 E05E     		ldrsh	r0, [r4, r3]
 637 0168 FFF7FEFF 		bl	lv_trigo_sin
 638              	.LVL40:
 639 016c 0422     		movs	r2, #4
 640 016e A35E     		ldrsh	r3, [r4, r2]
 641 0170 0E21     		movs	r1, #14
 642 0172 625E     		ldrsh	r2, [r4, r1]
 643 0174 9B1A     		subs	r3, r3, r2
 644 0176 5843     		muls	r0, r3
 645 0178 C013     		asrs	r0, r0, #15
 646 017a 3018     		adds	r0, r6, r0
 647 017c 6B46     		mov	r3, sp
 648 017e 5880     		strh	r0, [r3, #2]
 336:..\..\..\arduinoLCD\test\Pain Drain\libraries\lvgl\src\draw\sw/lv_draw_sw_arc.c ****             quarter_area.x1 = q->center->x + ((lv_trigo_sin(q->end_angle + 90) * (q->radius)) >> LV
 649              		.loc 1 336 0
 650 0180 2368     		ldr	r3, [r4]
 651 0182 0026     		movs	r6, #0
 652 0184 9E5F     		ldrsh	r6, [r3, r6]
 653 0186 2089     		ldrh	r0, [r4, #8]
 654 0188 5A30     		adds	r0, r0, #90
 655 018a 00B2     		sxth	r0, r0
 656 018c FFF7FEFF 		bl	lv_trigo_sin
 657              	.LVL41:
 658 0190 0422     		movs	r2, #4
 659 0192 A35E     		ldrsh	r3, [r4, r2]
 660 0194 5843     		muls	r0, r3
 661 0196 C013     		asrs	r0, r0, #15
 662 0198 3018     		adds	r0, r6, r0
 663 019a 6B46     		mov	r3, sp
 664 019c 1880     		strh	r0, [r3]
 337:..\..\..\arduinoLCD\test\Pain Drain\libraries\lvgl\src\draw\sw/lv_draw_sw_arc.c **** 
 338:..\..\..\arduinoLCD\test\Pain Drain\libraries\lvgl\src\draw\sw/lv_draw_sw_arc.c ****             bool ok = _lv_area_intersect(&quarter_area, &quarter_area, clip_area_ori);
 665              		.loc 1 338 0
 666 019e 2A00     		movs	r2, r5
 667 01a0 6946     		mov	r1, sp
 668 01a2 6846     		mov	r0, sp
 669 01a4 FFF7FEFF 		bl	_lv_area_intersect
 670              	.LVL42:
 339:..\..\..\arduinoLCD\test\Pain Drain\libraries\lvgl\src\draw\sw/lv_draw_sw_arc.c ****             if(ok) {
 671              		.loc 1 339 0
 672 01a8 0028     		cmp	r0, #0
 673 01aa 3FD0     		beq	.L13
 340:..\..\..\arduinoLCD\test\Pain Drain\libraries\lvgl\src\draw\sw/lv_draw_sw_arc.c ****                 q->draw_ctx->clip_area = &quarter_area;
 674              		.loc 1 340 0
 675 01ac A369     		ldr	r3, [r4, #24]
 676 01ae 6A46     		mov	r2, sp
 677 01b0 9A60     		str	r2, [r3, #8]
 341:..\..\..\arduinoLCD\test\Pain Drain\libraries\lvgl\src\draw\sw/lv_draw_sw_arc.c ****                 lv_draw_rect(q->draw_ctx, q->draw_dsc, q->draw_area);
 678              		.loc 1 341 0
 679 01b2 6269     		ldr	r2, [r4, #20]
 680 01b4 2169     		ldr	r1, [r4, #16]
 681 01b6 A069     		ldr	r0, [r4, #24]
 682              	.LVL43:
 683 01b8 FFF7FEFF 		bl	lv_draw_rect
 684              	.LVL44:
 685 01bc 36E0     		b	.L13
ARM GAS  C:\Users\haske\AppData\Local\Temp\ccinSyc3.s 			page 19


 686              	.L15:
 687              	.LBE18:
 342:..\..\..\arduinoLCD\test\Pain Drain\libraries\lvgl\src\draw\sw/lv_draw_sw_arc.c ****             }
 343:..\..\..\arduinoLCD\test\Pain Drain\libraries\lvgl\src\draw\sw/lv_draw_sw_arc.c ****         }
 344:..\..\..\arduinoLCD\test\Pain Drain\libraries\lvgl\src\draw\sw/lv_draw_sw_arc.c ****     }
 345:..\..\..\arduinoLCD\test\Pain Drain\libraries\lvgl\src\draw\sw/lv_draw_sw_arc.c ****     else if((q->start_quarter == q->end_quarter && q->start_quarter != 1 && q->end_angle < q->start
 688              		.loc 1 345 0
 689 01be 9342     		cmp	r3, r2
 690 01c0 05D1     		bne	.L17
 691              		.loc 1 345 0 is_stmt 0 discriminator 1
 692 01c2 012B     		cmp	r3, #1
 693 01c4 03D0     		beq	.L17
 694              		.loc 1 345 0 discriminator 3
 695 01c6 2089     		ldrh	r0, [r4, #8]
 696 01c8 E188     		ldrh	r1, [r4, #6]
 697 01ca 8842     		cmp	r0, r1
 698 01cc 0BD3     		bcc	.L18
 699              	.L17:
 700              		.loc 1 345 0 discriminator 5
 701 01ce 002B     		cmp	r3, #0
 702 01d0 01D1     		bne	.L19
 346:..\..\..\arduinoLCD\test\Pain Drain\libraries\lvgl\src\draw\sw/lv_draw_sw_arc.c ****             (q->start_quarter == 0 && q->end_quarter == 2) ||
 703              		.loc 1 346 0 is_stmt 1
 704 01d2 022A     		cmp	r2, #2
 705 01d4 07D0     		beq	.L18
 706              	.L19:
 707              		.loc 1 346 0 is_stmt 0 discriminator 1
 708 01d6 002B     		cmp	r3, #0
 709 01d8 01D1     		bne	.L20
 347:..\..\..\arduinoLCD\test\Pain Drain\libraries\lvgl\src\draw\sw/lv_draw_sw_arc.c ****             (q->start_quarter == 0 && q->end_quarter == 3) ||
 710              		.loc 1 347 0 is_stmt 1
 711 01da 032A     		cmp	r2, #3
 712 01dc 03D0     		beq	.L18
 713              	.L20:
 714              		.loc 1 347 0 is_stmt 0 discriminator 1
 715 01de 032B     		cmp	r3, #3
 716 01e0 24D1     		bne	.L13
 348:..\..\..\arduinoLCD\test\Pain Drain\libraries\lvgl\src\draw\sw/lv_draw_sw_arc.c ****             (q->start_quarter == 3 && q->end_quarter == 2)) {
 717              		.loc 1 348 0 is_stmt 1
 718 01e2 022A     		cmp	r2, #2
 719 01e4 22D1     		bne	.L13
 720              	.L18:
 721              	.LBB19:
 349:..\..\..\arduinoLCD\test\Pain Drain\libraries\lvgl\src\draw\sw/lv_draw_sw_arc.c ****         /*Arc crosses here*/
 350:..\..\..\arduinoLCD\test\Pain Drain\libraries\lvgl\src\draw\sw/lv_draw_sw_arc.c ****         quarter_area.x1 = q->center->x - q->radius;
 722              		.loc 1 350 0
 723 01e6 2368     		ldr	r3, [r4]
 724 01e8 0021     		movs	r1, #0
 725 01ea 5A5E     		ldrsh	r2, [r3, r1]
 726 01ec 0420     		movs	r0, #4
 727 01ee 215E     		ldrsh	r1, [r4, r0]
 728 01f0 521A     		subs	r2, r2, r1
 729 01f2 6846     		mov	r0, sp
 730 01f4 0280     		strh	r2, [r0]
 351:..\..\..\arduinoLCD\test\Pain Drain\libraries\lvgl\src\draw\sw/lv_draw_sw_arc.c ****         quarter_area.y1 = q->center->y;
 731              		.loc 1 351 0
 732 01f6 0220     		movs	r0, #2
ARM GAS  C:\Users\haske\AppData\Local\Temp\ccinSyc3.s 			page 20


 733 01f8 1A5E     		ldrsh	r2, [r3, r0]
 734 01fa 6846     		mov	r0, sp
 735 01fc 4280     		strh	r2, [r0, #2]
 352:..\..\..\arduinoLCD\test\Pain Drain\libraries\lvgl\src\draw\sw/lv_draw_sw_arc.c ****         quarter_area.x2 = q->center->x - 1;
 736              		.loc 1 352 0
 737 01fe 0020     		movs	r0, #0
 738 0200 1A5E     		ldrsh	r2, [r3, r0]
 739 0202 013A     		subs	r2, r2, #1
 740 0204 6846     		mov	r0, sp
 741 0206 8280     		strh	r2, [r0, #4]
 353:..\..\..\arduinoLCD\test\Pain Drain\libraries\lvgl\src\draw\sw/lv_draw_sw_arc.c ****         quarter_area.y2 = q->center->y + q->radius;
 742              		.loc 1 353 0
 743 0208 0222     		movs	r2, #2
 744 020a 9B5E     		ldrsh	r3, [r3, r2]
 745 020c CB18     		adds	r3, r1, r3
 746 020e C380     		strh	r3, [r0, #6]
 354:..\..\..\arduinoLCD\test\Pain Drain\libraries\lvgl\src\draw\sw/lv_draw_sw_arc.c **** 
 355:..\..\..\arduinoLCD\test\Pain Drain\libraries\lvgl\src\draw\sw/lv_draw_sw_arc.c ****         bool ok = _lv_area_intersect(&quarter_area, &quarter_area, clip_area_ori);
 747              		.loc 1 355 0
 748 0210 2A00     		movs	r2, r5
 749 0212 6946     		mov	r1, sp
 750 0214 FFF7FEFF 		bl	_lv_area_intersect
 751              	.LVL45:
 356:..\..\..\arduinoLCD\test\Pain Drain\libraries\lvgl\src\draw\sw/lv_draw_sw_arc.c ****         if(ok) {
 752              		.loc 1 356 0
 753 0218 0028     		cmp	r0, #0
 754 021a 07D0     		beq	.L13
 357:..\..\..\arduinoLCD\test\Pain Drain\libraries\lvgl\src\draw\sw/lv_draw_sw_arc.c ****             q->draw_ctx->clip_area = &quarter_area;
 755              		.loc 1 357 0
 756 021c A369     		ldr	r3, [r4, #24]
 757 021e 6A46     		mov	r2, sp
 758 0220 9A60     		str	r2, [r3, #8]
 358:..\..\..\arduinoLCD\test\Pain Drain\libraries\lvgl\src\draw\sw/lv_draw_sw_arc.c ****             lv_draw_rect(q->draw_ctx, q->draw_dsc, q->draw_area);
 759              		.loc 1 358 0
 760 0222 6269     		ldr	r2, [r4, #20]
 761 0224 2169     		ldr	r1, [r4, #16]
 762 0226 A069     		ldr	r0, [r4, #24]
 763              	.LVL46:
 764 0228 FFF7FEFF 		bl	lv_draw_rect
 765              	.LVL47:
 766              	.L13:
 767              	.LBE19:
 359:..\..\..\arduinoLCD\test\Pain Drain\libraries\lvgl\src\draw\sw/lv_draw_sw_arc.c ****         }
 360:..\..\..\arduinoLCD\test\Pain Drain\libraries\lvgl\src\draw\sw/lv_draw_sw_arc.c ****     }
 361:..\..\..\arduinoLCD\test\Pain Drain\libraries\lvgl\src\draw\sw/lv_draw_sw_arc.c ****     q->draw_ctx->clip_area = clip_area_ori;
 768              		.loc 1 361 0
 769 022c A369     		ldr	r3, [r4, #24]
 770 022e 9D60     		str	r5, [r3, #8]
 362:..\..\..\arduinoLCD\test\Pain Drain\libraries\lvgl\src\draw\sw/lv_draw_sw_arc.c **** }
 771              		.loc 1 362 0
 772 0230 02B0     		add	sp, sp, #8
 773              		@ sp needed
 774              	.LVL48:
 775              	.LVL49:
 776 0232 70BD     		pop	{r4, r5, r6, pc}
 777              		.cfi_endproc
 778              	.LFE58:
ARM GAS  C:\Users\haske\AppData\Local\Temp\ccinSyc3.s 			page 21


 779              		.size	draw_quarter_1, .-draw_quarter_1
 780              		.section	.text.draw_quarter_2,"ax",%progbits
 781              		.align	2
 782              		.code	16
 783              		.thumb_func
 784              		.type	draw_quarter_2, %function
 785              	draw_quarter_2:
 786              	.LFB59:
 363:..\..\..\arduinoLCD\test\Pain Drain\libraries\lvgl\src\draw\sw/lv_draw_sw_arc.c **** 
 364:..\..\..\arduinoLCD\test\Pain Drain\libraries\lvgl\src\draw\sw/lv_draw_sw_arc.c **** static void draw_quarter_2(quarter_draw_dsc_t * q)
 365:..\..\..\arduinoLCD\test\Pain Drain\libraries\lvgl\src\draw\sw/lv_draw_sw_arc.c **** {
 787              		.loc 1 365 0
 788              		.cfi_startproc
 789              		@ args = 0, pretend = 0, frame = 8
 790              		@ frame_needed = 0, uses_anonymous_args = 0
 791              	.LVL50:
 792 0000 70B5     		push	{r4, r5, r6, lr}
 793              		.cfi_def_cfa_offset 16
 794              		.cfi_offset 4, -16
 795              		.cfi_offset 5, -12
 796              		.cfi_offset 6, -8
 797              		.cfi_offset 14, -4
 798 0002 82B0     		sub	sp, sp, #8
 799              		.cfi_def_cfa_offset 24
 800 0004 0400     		movs	r4, r0
 366:..\..\..\arduinoLCD\test\Pain Drain\libraries\lvgl\src\draw\sw/lv_draw_sw_arc.c ****     const lv_area_t * clip_area_ori = q->draw_ctx->clip_area;
 801              		.loc 1 366 0
 802 0006 8369     		ldr	r3, [r0, #24]
 803 0008 9D68     		ldr	r5, [r3, #8]
 804              	.LVL51:
 367:..\..\..\arduinoLCD\test\Pain Drain\libraries\lvgl\src\draw\sw/lv_draw_sw_arc.c ****     lv_area_t quarter_area;
 368:..\..\..\arduinoLCD\test\Pain Drain\libraries\lvgl\src\draw\sw/lv_draw_sw_arc.c **** 
 369:..\..\..\arduinoLCD\test\Pain Drain\libraries\lvgl\src\draw\sw/lv_draw_sw_arc.c ****     if(q->start_quarter == 2 && q->end_quarter == 2 && q->start_angle < q->end_angle) {
 805              		.loc 1 369 0
 806 000a 4389     		ldrh	r3, [r0, #10]
 807 000c 022B     		cmp	r3, #2
 808 000e 56D1     		bne	.L22
 809              		.loc 1 369 0 is_stmt 0 discriminator 1
 810 0010 8289     		ldrh	r2, [r0, #12]
 811 0012 022A     		cmp	r2, #2
 812 0014 53D1     		bne	.L22
 813              		.loc 1 369 0 discriminator 2
 814 0016 C088     		ldrh	r0, [r0, #6]
 815              	.LVL52:
 816 0018 2289     		ldrh	r2, [r4, #8]
 817 001a 9042     		cmp	r0, r2
 818 001c 4FD2     		bcs	.L22
 819              	.LBB20:
 370:..\..\..\arduinoLCD\test\Pain Drain\libraries\lvgl\src\draw\sw/lv_draw_sw_arc.c ****         /*Small arc here*/
 371:..\..\..\arduinoLCD\test\Pain Drain\libraries\lvgl\src\draw\sw/lv_draw_sw_arc.c ****         quarter_area.x1 = q->center->x + ((lv_trigo_sin(q->start_angle + 90) * (q->radius)) >> LV_T
 820              		.loc 1 371 0 is_stmt 1
 821 001e 2368     		ldr	r3, [r4]
 822 0020 0026     		movs	r6, #0
 823 0022 9E5F     		ldrsh	r6, [r3, r6]
 824 0024 5A30     		adds	r0, r0, #90
 825 0026 00B2     		sxth	r0, r0
 826 0028 FFF7FEFF 		bl	lv_trigo_sin
ARM GAS  C:\Users\haske\AppData\Local\Temp\ccinSyc3.s 			page 22


 827              	.LVL53:
 828 002c 0422     		movs	r2, #4
 829 002e A35E     		ldrsh	r3, [r4, r2]
 830 0030 5843     		muls	r0, r3
 831 0032 C013     		asrs	r0, r0, #15
 832 0034 3018     		adds	r0, r6, r0
 833 0036 6B46     		mov	r3, sp
 834 0038 1880     		strh	r0, [r3]
 372:..\..\..\arduinoLCD\test\Pain Drain\libraries\lvgl\src\draw\sw/lv_draw_sw_arc.c ****         quarter_area.y2 = q->center->y + ((lv_trigo_sin(q->start_angle) * (q->radius - q->width)) >
 835              		.loc 1 372 0
 836 003a 2368     		ldr	r3, [r4]
 837 003c 0226     		movs	r6, #2
 838 003e 9E5F     		ldrsh	r6, [r3, r6]
 839 0040 0623     		movs	r3, #6
 840 0042 E05E     		ldrsh	r0, [r4, r3]
 841 0044 FFF7FEFF 		bl	lv_trigo_sin
 842              	.LVL54:
 843 0048 0422     		movs	r2, #4
 844 004a A35E     		ldrsh	r3, [r4, r2]
 845 004c 0E21     		movs	r1, #14
 846 004e 625E     		ldrsh	r2, [r4, r1]
 847 0050 9B1A     		subs	r3, r3, r2
 848 0052 5843     		muls	r0, r3
 849 0054 C013     		asrs	r0, r0, #15
 850 0056 3018     		adds	r0, r6, r0
 851 0058 6B46     		mov	r3, sp
 852 005a D880     		strh	r0, [r3, #6]
 373:..\..\..\arduinoLCD\test\Pain Drain\libraries\lvgl\src\draw\sw/lv_draw_sw_arc.c **** 
 374:..\..\..\arduinoLCD\test\Pain Drain\libraries\lvgl\src\draw\sw/lv_draw_sw_arc.c ****         quarter_area.y1 = q->center->y + ((lv_trigo_sin(q->end_angle) * q->radius) >> LV_TRIGO_SHIF
 853              		.loc 1 374 0
 854 005c 2368     		ldr	r3, [r4]
 855 005e 0226     		movs	r6, #2
 856 0060 9E5F     		ldrsh	r6, [r3, r6]
 857 0062 0823     		movs	r3, #8
 858 0064 E05E     		ldrsh	r0, [r4, r3]
 859 0066 FFF7FEFF 		bl	lv_trigo_sin
 860              	.LVL55:
 861 006a 0422     		movs	r2, #4
 862 006c A35E     		ldrsh	r3, [r4, r2]
 863 006e 5843     		muls	r0, r3
 864 0070 C013     		asrs	r0, r0, #15
 865 0072 3018     		adds	r0, r6, r0
 866 0074 6B46     		mov	r3, sp
 867 0076 5880     		strh	r0, [r3, #2]
 375:..\..\..\arduinoLCD\test\Pain Drain\libraries\lvgl\src\draw\sw/lv_draw_sw_arc.c ****         quarter_area.x2 = q->center->x + ((lv_trigo_sin(q->end_angle + 90) * (q->radius - q->width)
 868              		.loc 1 375 0
 869 0078 2368     		ldr	r3, [r4]
 870 007a 0026     		movs	r6, #0
 871 007c 9E5F     		ldrsh	r6, [r3, r6]
 872 007e 2089     		ldrh	r0, [r4, #8]
 873 0080 5A30     		adds	r0, r0, #90
 874 0082 00B2     		sxth	r0, r0
 875 0084 FFF7FEFF 		bl	lv_trigo_sin
 876              	.LVL56:
 877 0088 0422     		movs	r2, #4
 878 008a A35E     		ldrsh	r3, [r4, r2]
 879 008c 0E21     		movs	r1, #14
ARM GAS  C:\Users\haske\AppData\Local\Temp\ccinSyc3.s 			page 23


 880 008e 625E     		ldrsh	r2, [r4, r1]
 881 0090 9B1A     		subs	r3, r3, r2
 882 0092 5843     		muls	r0, r3
 883 0094 C013     		asrs	r0, r0, #15
 884 0096 3018     		adds	r0, r6, r0
 885 0098 6B46     		mov	r3, sp
 886 009a 9880     		strh	r0, [r3, #4]
 376:..\..\..\arduinoLCD\test\Pain Drain\libraries\lvgl\src\draw\sw/lv_draw_sw_arc.c **** 
 377:..\..\..\arduinoLCD\test\Pain Drain\libraries\lvgl\src\draw\sw/lv_draw_sw_arc.c ****         bool ok = _lv_area_intersect(&quarter_area, &quarter_area, clip_area_ori);
 887              		.loc 1 377 0
 888 009c 2A00     		movs	r2, r5
 889 009e 6946     		mov	r1, sp
 890 00a0 6846     		mov	r0, sp
 891 00a2 FFF7FEFF 		bl	_lv_area_intersect
 892              	.LVL57:
 378:..\..\..\arduinoLCD\test\Pain Drain\libraries\lvgl\src\draw\sw/lv_draw_sw_arc.c ****         if(ok) {
 893              		.loc 1 378 0
 894 00a6 0028     		cmp	r0, #0
 895 00a8 00D1     		bne	.LCB778
 896 00aa C0E0     		b	.L23	@long jump
 897              	.LCB778:
 379:..\..\..\arduinoLCD\test\Pain Drain\libraries\lvgl\src\draw\sw/lv_draw_sw_arc.c ****             q->draw_ctx->clip_area = &quarter_area;
 898              		.loc 1 379 0
 899 00ac A369     		ldr	r3, [r4, #24]
 900 00ae 6A46     		mov	r2, sp
 901 00b0 9A60     		str	r2, [r3, #8]
 380:..\..\..\arduinoLCD\test\Pain Drain\libraries\lvgl\src\draw\sw/lv_draw_sw_arc.c ****             lv_draw_rect(q->draw_ctx, q->draw_dsc, q->draw_area);
 902              		.loc 1 380 0
 903 00b2 6269     		ldr	r2, [r4, #20]
 904 00b4 2169     		ldr	r1, [r4, #16]
 905 00b6 A069     		ldr	r0, [r4, #24]
 906              	.LVL58:
 907 00b8 FFF7FEFF 		bl	lv_draw_rect
 908              	.LVL59:
 909 00bc B7E0     		b	.L23
 910              	.L22:
 911              	.LBE20:
 381:..\..\..\arduinoLCD\test\Pain Drain\libraries\lvgl\src\draw\sw/lv_draw_sw_arc.c ****         }
 382:..\..\..\arduinoLCD\test\Pain Drain\libraries\lvgl\src\draw\sw/lv_draw_sw_arc.c ****     }
 383:..\..\..\arduinoLCD\test\Pain Drain\libraries\lvgl\src\draw\sw/lv_draw_sw_arc.c ****     else if(q->start_quarter == 2 || q->end_quarter == 2) {
 912              		.loc 1 383 0
 913 00be 022B     		cmp	r3, #2
 914 00c0 02D0     		beq	.L24
 915              		.loc 1 383 0 is_stmt 0 discriminator 1
 916 00c2 A289     		ldrh	r2, [r4, #12]
 917 00c4 022A     		cmp	r2, #2
 918 00c6 7BD1     		bne	.L25
 919              	.L24:
 384:..\..\..\arduinoLCD\test\Pain Drain\libraries\lvgl\src\draw\sw/lv_draw_sw_arc.c ****         /*Start and/or end arcs here*/
 385:..\..\..\arduinoLCD\test\Pain Drain\libraries\lvgl\src\draw\sw/lv_draw_sw_arc.c ****         if(q->start_quarter == 2) {
 920              		.loc 1 385 0 is_stmt 1
 921 00c8 022B     		cmp	r3, #2
 922 00ca 3AD1     		bne	.L26
 923              	.LBB21:
 386:..\..\..\arduinoLCD\test\Pain Drain\libraries\lvgl\src\draw\sw/lv_draw_sw_arc.c ****             quarter_area.x2 = q->center->x - 1;
 924              		.loc 1 386 0
 925 00cc 2368     		ldr	r3, [r4]
ARM GAS  C:\Users\haske\AppData\Local\Temp\ccinSyc3.s 			page 24


 926 00ce 0021     		movs	r1, #0
 927 00d0 5A5E     		ldrsh	r2, [r3, r1]
 928 00d2 013A     		subs	r2, r2, #1
 929 00d4 6946     		mov	r1, sp
 930 00d6 8A80     		strh	r2, [r1, #4]
 387:..\..\..\arduinoLCD\test\Pain Drain\libraries\lvgl\src\draw\sw/lv_draw_sw_arc.c ****             quarter_area.y1 = q->center->y - q->radius;
 931              		.loc 1 387 0
 932 00d8 0221     		movs	r1, #2
 933 00da 5A5E     		ldrsh	r2, [r3, r1]
 934 00dc 0420     		movs	r0, #4
 935 00de 215E     		ldrsh	r1, [r4, r0]
 936 00e0 521A     		subs	r2, r2, r1
 937 00e2 6946     		mov	r1, sp
 938 00e4 4A80     		strh	r2, [r1, #2]
 388:..\..\..\arduinoLCD\test\Pain Drain\libraries\lvgl\src\draw\sw/lv_draw_sw_arc.c **** 
 389:..\..\..\arduinoLCD\test\Pain Drain\libraries\lvgl\src\draw\sw/lv_draw_sw_arc.c ****             quarter_area.x1 = q->center->x + ((lv_trigo_sin(q->start_angle + 90) * (q->radius)) >> 
 939              		.loc 1 389 0
 940 00e6 0026     		movs	r6, #0
 941 00e8 9E5F     		ldrsh	r6, [r3, r6]
 942 00ea E088     		ldrh	r0, [r4, #6]
 943 00ec 5A30     		adds	r0, r0, #90
 944 00ee 00B2     		sxth	r0, r0
 945 00f0 FFF7FEFF 		bl	lv_trigo_sin
 946              	.LVL60:
 947 00f4 0422     		movs	r2, #4
 948 00f6 A35E     		ldrsh	r3, [r4, r2]
 949 00f8 5843     		muls	r0, r3
 950 00fa C013     		asrs	r0, r0, #15
 951 00fc 3018     		adds	r0, r6, r0
 952 00fe 6B46     		mov	r3, sp
 953 0100 1880     		strh	r0, [r3]
 390:..\..\..\arduinoLCD\test\Pain Drain\libraries\lvgl\src\draw\sw/lv_draw_sw_arc.c ****             quarter_area.y2 = q->center->y + ((lv_trigo_sin(q->start_angle) * (q->radius - q->width
 954              		.loc 1 390 0
 955 0102 2368     		ldr	r3, [r4]
 956 0104 0226     		movs	r6, #2
 957 0106 9E5F     		ldrsh	r6, [r3, r6]
 958 0108 0623     		movs	r3, #6
 959 010a E05E     		ldrsh	r0, [r4, r3]
 960 010c FFF7FEFF 		bl	lv_trigo_sin
 961              	.LVL61:
 962 0110 0422     		movs	r2, #4
 963 0112 A35E     		ldrsh	r3, [r4, r2]
 964 0114 0E21     		movs	r1, #14
 965 0116 625E     		ldrsh	r2, [r4, r1]
 966 0118 9B1A     		subs	r3, r3, r2
 967 011a 5843     		muls	r0, r3
 968 011c C013     		asrs	r0, r0, #15
 969 011e 3018     		adds	r0, r6, r0
 970 0120 6B46     		mov	r3, sp
 971 0122 D880     		strh	r0, [r3, #6]
 391:..\..\..\arduinoLCD\test\Pain Drain\libraries\lvgl\src\draw\sw/lv_draw_sw_arc.c **** 
 392:..\..\..\arduinoLCD\test\Pain Drain\libraries\lvgl\src\draw\sw/lv_draw_sw_arc.c ****             bool ok = _lv_area_intersect(&quarter_area, &quarter_area, clip_area_ori);
 972              		.loc 1 392 0
 973 0124 2A00     		movs	r2, r5
 974 0126 6946     		mov	r1, sp
 975 0128 6846     		mov	r0, sp
 976 012a FFF7FEFF 		bl	_lv_area_intersect
ARM GAS  C:\Users\haske\AppData\Local\Temp\ccinSyc3.s 			page 25


 977              	.LVL62:
 393:..\..\..\arduinoLCD\test\Pain Drain\libraries\lvgl\src\draw\sw/lv_draw_sw_arc.c ****             if(ok) {
 978              		.loc 1 393 0
 979 012e 0028     		cmp	r0, #0
 980 0130 07D0     		beq	.L26
 394:..\..\..\arduinoLCD\test\Pain Drain\libraries\lvgl\src\draw\sw/lv_draw_sw_arc.c ****                 q->draw_ctx->clip_area = &quarter_area;
 981              		.loc 1 394 0
 982 0132 A369     		ldr	r3, [r4, #24]
 983 0134 6A46     		mov	r2, sp
 984 0136 9A60     		str	r2, [r3, #8]
 395:..\..\..\arduinoLCD\test\Pain Drain\libraries\lvgl\src\draw\sw/lv_draw_sw_arc.c ****                 lv_draw_rect(q->draw_ctx, q->draw_dsc, q->draw_area);
 985              		.loc 1 395 0
 986 0138 6269     		ldr	r2, [r4, #20]
 987 013a 2169     		ldr	r1, [r4, #16]
 988 013c A069     		ldr	r0, [r4, #24]
 989              	.LVL63:
 990 013e FFF7FEFF 		bl	lv_draw_rect
 991              	.LVL64:
 992              	.L26:
 993              	.LBE21:
 396:..\..\..\arduinoLCD\test\Pain Drain\libraries\lvgl\src\draw\sw/lv_draw_sw_arc.c ****             }
 397:..\..\..\arduinoLCD\test\Pain Drain\libraries\lvgl\src\draw\sw/lv_draw_sw_arc.c ****         }
 398:..\..\..\arduinoLCD\test\Pain Drain\libraries\lvgl\src\draw\sw/lv_draw_sw_arc.c ****         if(q->end_quarter == 2) {
 994              		.loc 1 398 0
 995 0142 A389     		ldrh	r3, [r4, #12]
 996 0144 022B     		cmp	r3, #2
 997 0146 72D1     		bne	.L23
 998              	.LBB22:
 399:..\..\..\arduinoLCD\test\Pain Drain\libraries\lvgl\src\draw\sw/lv_draw_sw_arc.c ****             quarter_area.x1 = q->center->x - q->radius;
 999              		.loc 1 399 0
 1000 0148 2368     		ldr	r3, [r4]
 1001 014a 0021     		movs	r1, #0
 1002 014c 5A5E     		ldrsh	r2, [r3, r1]
 1003 014e 0420     		movs	r0, #4
 1004 0150 215E     		ldrsh	r1, [r4, r0]
 1005 0152 521A     		subs	r2, r2, r1
 1006 0154 6946     		mov	r1, sp
 1007 0156 0A80     		strh	r2, [r1]
 400:..\..\..\arduinoLCD\test\Pain Drain\libraries\lvgl\src\draw\sw/lv_draw_sw_arc.c ****             quarter_area.y2 = q->center->y - 1;
 1008              		.loc 1 400 0
 1009 0158 0221     		movs	r1, #2
 1010 015a 5A5E     		ldrsh	r2, [r3, r1]
 1011 015c 013A     		subs	r2, r2, #1
 1012 015e 6946     		mov	r1, sp
 1013 0160 CA80     		strh	r2, [r1, #6]
 401:..\..\..\arduinoLCD\test\Pain Drain\libraries\lvgl\src\draw\sw/lv_draw_sw_arc.c **** 
 402:..\..\..\arduinoLCD\test\Pain Drain\libraries\lvgl\src\draw\sw/lv_draw_sw_arc.c ****             quarter_area.x2 = q->center->x + ((lv_trigo_sin(q->end_angle + 90) * (q->radius - q->wi
 1014              		.loc 1 402 0
 1015 0162 0026     		movs	r6, #0
 1016 0164 9E5F     		ldrsh	r6, [r3, r6]
 1017 0166 2089     		ldrh	r0, [r4, #8]
 1018 0168 5A30     		adds	r0, r0, #90
 1019 016a 00B2     		sxth	r0, r0
 1020 016c FFF7FEFF 		bl	lv_trigo_sin
 1021              	.LVL65:
 1022 0170 0422     		movs	r2, #4
 1023 0172 A35E     		ldrsh	r3, [r4, r2]
ARM GAS  C:\Users\haske\AppData\Local\Temp\ccinSyc3.s 			page 26


 1024 0174 0E21     		movs	r1, #14
 1025 0176 625E     		ldrsh	r2, [r4, r1]
 1026 0178 9B1A     		subs	r3, r3, r2
 1027 017a 5843     		muls	r0, r3
 1028 017c C013     		asrs	r0, r0, #15
 1029 017e 3018     		adds	r0, r6, r0
 1030 0180 6B46     		mov	r3, sp
 1031 0182 9880     		strh	r0, [r3, #4]
 403:..\..\..\arduinoLCD\test\Pain Drain\libraries\lvgl\src\draw\sw/lv_draw_sw_arc.c ****             quarter_area.y1 = q->center->y + ((lv_trigo_sin(q->end_angle) * (q->radius)) >> LV_TRIG
 1032              		.loc 1 403 0
 1033 0184 2368     		ldr	r3, [r4]
 1034 0186 0226     		movs	r6, #2
 1035 0188 9E5F     		ldrsh	r6, [r3, r6]
 1036 018a 0823     		movs	r3, #8
 1037 018c E05E     		ldrsh	r0, [r4, r3]
 1038 018e FFF7FEFF 		bl	lv_trigo_sin
 1039              	.LVL66:
 1040 0192 0422     		movs	r2, #4
 1041 0194 A35E     		ldrsh	r3, [r4, r2]
 1042 0196 5843     		muls	r0, r3
 1043 0198 C013     		asrs	r0, r0, #15
 1044 019a 3018     		adds	r0, r6, r0
 1045 019c 6B46     		mov	r3, sp
 1046 019e 5880     		strh	r0, [r3, #2]
 404:..\..\..\arduinoLCD\test\Pain Drain\libraries\lvgl\src\draw\sw/lv_draw_sw_arc.c **** 
 405:..\..\..\arduinoLCD\test\Pain Drain\libraries\lvgl\src\draw\sw/lv_draw_sw_arc.c ****             bool ok = _lv_area_intersect(&quarter_area, &quarter_area, clip_area_ori);
 1047              		.loc 1 405 0
 1048 01a0 2A00     		movs	r2, r5
 1049 01a2 6946     		mov	r1, sp
 1050 01a4 6846     		mov	r0, sp
 1051 01a6 FFF7FEFF 		bl	_lv_area_intersect
 1052              	.LVL67:
 406:..\..\..\arduinoLCD\test\Pain Drain\libraries\lvgl\src\draw\sw/lv_draw_sw_arc.c ****             if(ok) {
 1053              		.loc 1 406 0
 1054 01aa 0028     		cmp	r0, #0
 1055 01ac 3FD0     		beq	.L23
 407:..\..\..\arduinoLCD\test\Pain Drain\libraries\lvgl\src\draw\sw/lv_draw_sw_arc.c ****                 q->draw_ctx->clip_area = &quarter_area;
 1056              		.loc 1 407 0
 1057 01ae A369     		ldr	r3, [r4, #24]
 1058 01b0 6A46     		mov	r2, sp
 1059 01b2 9A60     		str	r2, [r3, #8]
 408:..\..\..\arduinoLCD\test\Pain Drain\libraries\lvgl\src\draw\sw/lv_draw_sw_arc.c ****                 lv_draw_rect(q->draw_ctx, q->draw_dsc, q->draw_area);
 1060              		.loc 1 408 0
 1061 01b4 6269     		ldr	r2, [r4, #20]
 1062 01b6 2169     		ldr	r1, [r4, #16]
 1063 01b8 A069     		ldr	r0, [r4, #24]
 1064              	.LVL68:
 1065 01ba FFF7FEFF 		bl	lv_draw_rect
 1066              	.LVL69:
 1067 01be 36E0     		b	.L23
 1068              	.L25:
 1069              	.LBE22:
 409:..\..\..\arduinoLCD\test\Pain Drain\libraries\lvgl\src\draw\sw/lv_draw_sw_arc.c ****             }
 410:..\..\..\arduinoLCD\test\Pain Drain\libraries\lvgl\src\draw\sw/lv_draw_sw_arc.c ****         }
 411:..\..\..\arduinoLCD\test\Pain Drain\libraries\lvgl\src\draw\sw/lv_draw_sw_arc.c ****     }
 412:..\..\..\arduinoLCD\test\Pain Drain\libraries\lvgl\src\draw\sw/lv_draw_sw_arc.c ****     else if((q->start_quarter == q->end_quarter && q->start_quarter != 2 && q->end_angle < q->start
 1070              		.loc 1 412 0
ARM GAS  C:\Users\haske\AppData\Local\Temp\ccinSyc3.s 			page 27


 1071 01c0 9342     		cmp	r3, r2
 1072 01c2 05D1     		bne	.L27
 1073              		.loc 1 412 0 is_stmt 0 discriminator 1
 1074 01c4 022B     		cmp	r3, #2
 1075 01c6 03D0     		beq	.L27
 1076              		.loc 1 412 0 discriminator 3
 1077 01c8 2089     		ldrh	r0, [r4, #8]
 1078 01ca E188     		ldrh	r1, [r4, #6]
 1079 01cc 8842     		cmp	r0, r1
 1080 01ce 0BD3     		bcc	.L28
 1081              	.L27:
 1082              		.loc 1 412 0 discriminator 5
 1083 01d0 002B     		cmp	r3, #0
 1084 01d2 01D1     		bne	.L29
 413:..\..\..\arduinoLCD\test\Pain Drain\libraries\lvgl\src\draw\sw/lv_draw_sw_arc.c ****             (q->start_quarter == 0 && q->end_quarter == 3) ||
 1085              		.loc 1 413 0 is_stmt 1
 1086 01d4 032A     		cmp	r2, #3
 1087 01d6 07D0     		beq	.L28
 1088              	.L29:
 1089              		.loc 1 413 0 is_stmt 0 discriminator 1
 1090 01d8 012B     		cmp	r3, #1
 1091 01da 01D1     		bne	.L30
 414:..\..\..\arduinoLCD\test\Pain Drain\libraries\lvgl\src\draw\sw/lv_draw_sw_arc.c ****             (q->start_quarter == 1 && q->end_quarter == 3) ||
 1092              		.loc 1 414 0 is_stmt 1
 1093 01dc 032A     		cmp	r2, #3
 1094 01de 03D0     		beq	.L28
 1095              	.L30:
 1096              		.loc 1 414 0 is_stmt 0 discriminator 1
 1097 01e0 012B     		cmp	r3, #1
 1098 01e2 24D1     		bne	.L23
 415:..\..\..\arduinoLCD\test\Pain Drain\libraries\lvgl\src\draw\sw/lv_draw_sw_arc.c ****             (q->start_quarter == 1 && q->end_quarter == 0)) {
 1099              		.loc 1 415 0 is_stmt 1
 1100 01e4 002A     		cmp	r2, #0
 1101 01e6 22D1     		bne	.L23
 1102              	.L28:
 1103              	.LBB23:
 416:..\..\..\arduinoLCD\test\Pain Drain\libraries\lvgl\src\draw\sw/lv_draw_sw_arc.c ****         /*Arc crosses here*/
 417:..\..\..\arduinoLCD\test\Pain Drain\libraries\lvgl\src\draw\sw/lv_draw_sw_arc.c ****         quarter_area.x1 = q->center->x - q->radius;
 1104              		.loc 1 417 0
 1105 01e8 2368     		ldr	r3, [r4]
 1106 01ea 0022     		movs	r2, #0
 1107 01ec 995E     		ldrsh	r1, [r3, r2]
 1108 01ee A088     		ldrh	r0, [r4, #4]
 1109 01f0 091A     		subs	r1, r1, r0
 1110 01f2 6A46     		mov	r2, sp
 1111 01f4 1180     		strh	r1, [r2]
 418:..\..\..\arduinoLCD\test\Pain Drain\libraries\lvgl\src\draw\sw/lv_draw_sw_arc.c ****         quarter_area.y1 = q->center->y - q->radius;
 1112              		.loc 1 418 0
 1113 01f6 0221     		movs	r1, #2
 1114 01f8 5A5E     		ldrsh	r2, [r3, r1]
 1115 01fa 121A     		subs	r2, r2, r0
 1116 01fc 6946     		mov	r1, sp
 1117 01fe 4A80     		strh	r2, [r1, #2]
 419:..\..\..\arduinoLCD\test\Pain Drain\libraries\lvgl\src\draw\sw/lv_draw_sw_arc.c ****         quarter_area.x2 = q->center->x - 1;
 1118              		.loc 1 419 0
 1119 0200 0021     		movs	r1, #0
 1120 0202 5A5E     		ldrsh	r2, [r3, r1]
ARM GAS  C:\Users\haske\AppData\Local\Temp\ccinSyc3.s 			page 28


 1121 0204 013A     		subs	r2, r2, #1
 1122 0206 6946     		mov	r1, sp
 1123 0208 8A80     		strh	r2, [r1, #4]
 420:..\..\..\arduinoLCD\test\Pain Drain\libraries\lvgl\src\draw\sw/lv_draw_sw_arc.c ****         quarter_area.y2 = q->center->y - 1;
 1124              		.loc 1 420 0
 1125 020a 0222     		movs	r2, #2
 1126 020c 9B5E     		ldrsh	r3, [r3, r2]
 1127 020e 013B     		subs	r3, r3, #1
 1128 0210 CB80     		strh	r3, [r1, #6]
 421:..\..\..\arduinoLCD\test\Pain Drain\libraries\lvgl\src\draw\sw/lv_draw_sw_arc.c **** 
 422:..\..\..\arduinoLCD\test\Pain Drain\libraries\lvgl\src\draw\sw/lv_draw_sw_arc.c ****         bool ok = _lv_area_intersect(&quarter_area, &quarter_area, clip_area_ori);
 1129              		.loc 1 422 0
 1130 0212 2A00     		movs	r2, r5
 1131 0214 6846     		mov	r0, sp
 1132 0216 FFF7FEFF 		bl	_lv_area_intersect
 1133              	.LVL70:
 423:..\..\..\arduinoLCD\test\Pain Drain\libraries\lvgl\src\draw\sw/lv_draw_sw_arc.c ****         if(ok) {
 1134              		.loc 1 423 0
 1135 021a 0028     		cmp	r0, #0
 1136 021c 07D0     		beq	.L23
 424:..\..\..\arduinoLCD\test\Pain Drain\libraries\lvgl\src\draw\sw/lv_draw_sw_arc.c ****             q->draw_ctx->clip_area = &quarter_area;
 1137              		.loc 1 424 0
 1138 021e A369     		ldr	r3, [r4, #24]
 1139 0220 6A46     		mov	r2, sp
 1140 0222 9A60     		str	r2, [r3, #8]
 425:..\..\..\arduinoLCD\test\Pain Drain\libraries\lvgl\src\draw\sw/lv_draw_sw_arc.c ****             lv_draw_rect(q->draw_ctx, q->draw_dsc, q->draw_area);
 1141              		.loc 1 425 0
 1142 0224 6269     		ldr	r2, [r4, #20]
 1143 0226 2169     		ldr	r1, [r4, #16]
 1144 0228 A069     		ldr	r0, [r4, #24]
 1145              	.LVL71:
 1146 022a FFF7FEFF 		bl	lv_draw_rect
 1147              	.LVL72:
 1148              	.L23:
 1149              	.LBE23:
 426:..\..\..\arduinoLCD\test\Pain Drain\libraries\lvgl\src\draw\sw/lv_draw_sw_arc.c ****         }
 427:..\..\..\arduinoLCD\test\Pain Drain\libraries\lvgl\src\draw\sw/lv_draw_sw_arc.c ****     }
 428:..\..\..\arduinoLCD\test\Pain Drain\libraries\lvgl\src\draw\sw/lv_draw_sw_arc.c ****     q->draw_ctx->clip_area = clip_area_ori;
 1150              		.loc 1 428 0
 1151 022e A369     		ldr	r3, [r4, #24]
 1152 0230 9D60     		str	r5, [r3, #8]
 429:..\..\..\arduinoLCD\test\Pain Drain\libraries\lvgl\src\draw\sw/lv_draw_sw_arc.c **** }
 1153              		.loc 1 429 0
 1154 0232 02B0     		add	sp, sp, #8
 1155              		@ sp needed
 1156              	.LVL73:
 1157              	.LVL74:
 1158 0234 70BD     		pop	{r4, r5, r6, pc}
 1159              		.cfi_endproc
 1160              	.LFE59:
 1161              		.size	draw_quarter_2, .-draw_quarter_2
 1162 0236 C046     		.section	.text.draw_quarter_3,"ax",%progbits
 1163              		.align	2
 1164              		.code	16
 1165              		.thumb_func
 1166              		.type	draw_quarter_3, %function
 1167              	draw_quarter_3:
ARM GAS  C:\Users\haske\AppData\Local\Temp\ccinSyc3.s 			page 29


 1168              	.LFB60:
 430:..\..\..\arduinoLCD\test\Pain Drain\libraries\lvgl\src\draw\sw/lv_draw_sw_arc.c **** 
 431:..\..\..\arduinoLCD\test\Pain Drain\libraries\lvgl\src\draw\sw/lv_draw_sw_arc.c **** static void draw_quarter_3(quarter_draw_dsc_t * q)
 432:..\..\..\arduinoLCD\test\Pain Drain\libraries\lvgl\src\draw\sw/lv_draw_sw_arc.c **** {
 1169              		.loc 1 432 0
 1170              		.cfi_startproc
 1171              		@ args = 0, pretend = 0, frame = 8
 1172              		@ frame_needed = 0, uses_anonymous_args = 0
 1173              	.LVL75:
 1174 0000 70B5     		push	{r4, r5, r6, lr}
 1175              		.cfi_def_cfa_offset 16
 1176              		.cfi_offset 4, -16
 1177              		.cfi_offset 5, -12
 1178              		.cfi_offset 6, -8
 1179              		.cfi_offset 14, -4
 1180 0002 82B0     		sub	sp, sp, #8
 1181              		.cfi_def_cfa_offset 24
 1182 0004 0400     		movs	r4, r0
 433:..\..\..\arduinoLCD\test\Pain Drain\libraries\lvgl\src\draw\sw/lv_draw_sw_arc.c ****     const lv_area_t * clip_area_ori = q->draw_ctx->clip_area;
 1183              		.loc 1 433 0
 1184 0006 8369     		ldr	r3, [r0, #24]
 1185 0008 9D68     		ldr	r5, [r3, #8]
 1186              	.LVL76:
 434:..\..\..\arduinoLCD\test\Pain Drain\libraries\lvgl\src\draw\sw/lv_draw_sw_arc.c ****     lv_area_t quarter_area;
 435:..\..\..\arduinoLCD\test\Pain Drain\libraries\lvgl\src\draw\sw/lv_draw_sw_arc.c **** 
 436:..\..\..\arduinoLCD\test\Pain Drain\libraries\lvgl\src\draw\sw/lv_draw_sw_arc.c ****     if(q->start_quarter == 3 && q->end_quarter == 3 && q->start_angle < q->end_angle) {
 1187              		.loc 1 436 0
 1188 000a 4389     		ldrh	r3, [r0, #10]
 1189 000c 032B     		cmp	r3, #3
 1190 000e 56D1     		bne	.L32
 1191              		.loc 1 436 0 is_stmt 0 discriminator 1
 1192 0010 8289     		ldrh	r2, [r0, #12]
 1193 0012 032A     		cmp	r2, #3
 1194 0014 53D1     		bne	.L32
 1195              		.loc 1 436 0 discriminator 2
 1196 0016 C088     		ldrh	r0, [r0, #6]
 1197              	.LVL77:
 1198 0018 2289     		ldrh	r2, [r4, #8]
 1199 001a 9042     		cmp	r0, r2
 1200 001c 4FD2     		bcs	.L32
 1201              	.LBB24:
 437:..\..\..\arduinoLCD\test\Pain Drain\libraries\lvgl\src\draw\sw/lv_draw_sw_arc.c ****         /*Small arc here*/
 438:..\..\..\arduinoLCD\test\Pain Drain\libraries\lvgl\src\draw\sw/lv_draw_sw_arc.c ****         quarter_area.x1 = q->center->x + ((lv_trigo_sin(q->start_angle + 90) * (q->radius - q->widt
 1202              		.loc 1 438 0 is_stmt 1
 1203 001e 2368     		ldr	r3, [r4]
 1204 0020 0026     		movs	r6, #0
 1205 0022 9E5F     		ldrsh	r6, [r3, r6]
 1206 0024 5A30     		adds	r0, r0, #90
 1207 0026 00B2     		sxth	r0, r0
 1208 0028 FFF7FEFF 		bl	lv_trigo_sin
 1209              	.LVL78:
 1210 002c 0422     		movs	r2, #4
 1211 002e A35E     		ldrsh	r3, [r4, r2]
 1212 0030 0E21     		movs	r1, #14
 1213 0032 625E     		ldrsh	r2, [r4, r1]
 1214 0034 9B1A     		subs	r3, r3, r2
 1215 0036 5843     		muls	r0, r3
ARM GAS  C:\Users\haske\AppData\Local\Temp\ccinSyc3.s 			page 30


 1216 0038 C013     		asrs	r0, r0, #15
 1217 003a 3018     		adds	r0, r6, r0
 1218 003c 6B46     		mov	r3, sp
 1219 003e 1880     		strh	r0, [r3]
 439:..\..\..\arduinoLCD\test\Pain Drain\libraries\lvgl\src\draw\sw/lv_draw_sw_arc.c ****         quarter_area.y1 = q->center->y + ((lv_trigo_sin(q->start_angle) * (q->radius)) >> LV_TRIGO_
 1220              		.loc 1 439 0
 1221 0040 2368     		ldr	r3, [r4]
 1222 0042 0226     		movs	r6, #2
 1223 0044 9E5F     		ldrsh	r6, [r3, r6]
 1224 0046 0623     		movs	r3, #6
 1225 0048 E05E     		ldrsh	r0, [r4, r3]
 1226 004a FFF7FEFF 		bl	lv_trigo_sin
 1227              	.LVL79:
 1228 004e 0422     		movs	r2, #4
 1229 0050 A35E     		ldrsh	r3, [r4, r2]
 1230 0052 5843     		muls	r0, r3
 1231 0054 C013     		asrs	r0, r0, #15
 1232 0056 3018     		adds	r0, r6, r0
 1233 0058 6B46     		mov	r3, sp
 1234 005a 5880     		strh	r0, [r3, #2]
 440:..\..\..\arduinoLCD\test\Pain Drain\libraries\lvgl\src\draw\sw/lv_draw_sw_arc.c **** 
 441:..\..\..\arduinoLCD\test\Pain Drain\libraries\lvgl\src\draw\sw/lv_draw_sw_arc.c ****         quarter_area.x2 = q->center->x + ((lv_trigo_sin(q->end_angle + 90) * (q->radius)) >> LV_TRI
 1235              		.loc 1 441 0
 1236 005c 2368     		ldr	r3, [r4]
 1237 005e 0026     		movs	r6, #0
 1238 0060 9E5F     		ldrsh	r6, [r3, r6]
 1239 0062 2089     		ldrh	r0, [r4, #8]
 1240 0064 5A30     		adds	r0, r0, #90
 1241 0066 00B2     		sxth	r0, r0
 1242 0068 FFF7FEFF 		bl	lv_trigo_sin
 1243              	.LVL80:
 1244 006c 0422     		movs	r2, #4
 1245 006e A35E     		ldrsh	r3, [r4, r2]
 1246 0070 5843     		muls	r0, r3
 1247 0072 C013     		asrs	r0, r0, #15
 1248 0074 3018     		adds	r0, r6, r0
 1249 0076 6B46     		mov	r3, sp
 1250 0078 9880     		strh	r0, [r3, #4]
 442:..\..\..\arduinoLCD\test\Pain Drain\libraries\lvgl\src\draw\sw/lv_draw_sw_arc.c ****         quarter_area.y2 = q->center->y + ((lv_trigo_sin(q->end_angle) * (q->radius - q->width)) >> 
 1251              		.loc 1 442 0
 1252 007a 2368     		ldr	r3, [r4]
 1253 007c 0226     		movs	r6, #2
 1254 007e 9E5F     		ldrsh	r6, [r3, r6]
 1255 0080 0823     		movs	r3, #8
 1256 0082 E05E     		ldrsh	r0, [r4, r3]
 1257 0084 FFF7FEFF 		bl	lv_trigo_sin
 1258              	.LVL81:
 1259 0088 0422     		movs	r2, #4
 1260 008a A35E     		ldrsh	r3, [r4, r2]
 1261 008c 0E21     		movs	r1, #14
 1262 008e 625E     		ldrsh	r2, [r4, r1]
 1263 0090 9B1A     		subs	r3, r3, r2
 1264 0092 5843     		muls	r0, r3
 1265 0094 C013     		asrs	r0, r0, #15
 1266 0096 3018     		adds	r0, r6, r0
 1267 0098 6B46     		mov	r3, sp
 1268 009a D880     		strh	r0, [r3, #6]
ARM GAS  C:\Users\haske\AppData\Local\Temp\ccinSyc3.s 			page 31


 443:..\..\..\arduinoLCD\test\Pain Drain\libraries\lvgl\src\draw\sw/lv_draw_sw_arc.c **** 
 444:..\..\..\arduinoLCD\test\Pain Drain\libraries\lvgl\src\draw\sw/lv_draw_sw_arc.c ****         bool ok = _lv_area_intersect(&quarter_area, &quarter_area, clip_area_ori);
 1269              		.loc 1 444 0
 1270 009c 2A00     		movs	r2, r5
 1271 009e 6946     		mov	r1, sp
 1272 00a0 6846     		mov	r0, sp
 1273 00a2 FFF7FEFF 		bl	_lv_area_intersect
 1274              	.LVL82:
 445:..\..\..\arduinoLCD\test\Pain Drain\libraries\lvgl\src\draw\sw/lv_draw_sw_arc.c ****         if(ok) {
 1275              		.loc 1 445 0
 1276 00a6 0028     		cmp	r0, #0
 1277 00a8 00D1     		bne	.LCB1124
 1278 00aa BEE0     		b	.L33	@long jump
 1279              	.LCB1124:
 446:..\..\..\arduinoLCD\test\Pain Drain\libraries\lvgl\src\draw\sw/lv_draw_sw_arc.c ****             q->draw_ctx->clip_area = &quarter_area;
 1280              		.loc 1 446 0
 1281 00ac A369     		ldr	r3, [r4, #24]
 1282 00ae 6A46     		mov	r2, sp
 1283 00b0 9A60     		str	r2, [r3, #8]
 447:..\..\..\arduinoLCD\test\Pain Drain\libraries\lvgl\src\draw\sw/lv_draw_sw_arc.c ****             lv_draw_rect(q->draw_ctx, q->draw_dsc, q->draw_area);
 1284              		.loc 1 447 0
 1285 00b2 6269     		ldr	r2, [r4, #20]
 1286 00b4 2169     		ldr	r1, [r4, #16]
 1287 00b6 A069     		ldr	r0, [r4, #24]
 1288              	.LVL83:
 1289 00b8 FFF7FEFF 		bl	lv_draw_rect
 1290              	.LVL84:
 1291 00bc B5E0     		b	.L33
 1292              	.L32:
 1293              	.LBE24:
 448:..\..\..\arduinoLCD\test\Pain Drain\libraries\lvgl\src\draw\sw/lv_draw_sw_arc.c ****         }
 449:..\..\..\arduinoLCD\test\Pain Drain\libraries\lvgl\src\draw\sw/lv_draw_sw_arc.c ****     }
 450:..\..\..\arduinoLCD\test\Pain Drain\libraries\lvgl\src\draw\sw/lv_draw_sw_arc.c ****     else if(q->start_quarter == 3 || q->end_quarter == 3) {
 1294              		.loc 1 450 0
 1295 00be 032B     		cmp	r3, #3
 1296 00c0 02D0     		beq	.L34
 1297              		.loc 1 450 0 is_stmt 0 discriminator 1
 1298 00c2 A289     		ldrh	r2, [r4, #12]
 1299 00c4 032A     		cmp	r2, #3
 1300 00c6 7AD1     		bne	.L35
 1301              	.L34:
 451:..\..\..\arduinoLCD\test\Pain Drain\libraries\lvgl\src\draw\sw/lv_draw_sw_arc.c ****         /*Start and/or end arcs here*/
 452:..\..\..\arduinoLCD\test\Pain Drain\libraries\lvgl\src\draw\sw/lv_draw_sw_arc.c ****         if(q->start_quarter == 3) {
 1302              		.loc 1 452 0 is_stmt 1
 1303 00c8 032B     		cmp	r3, #3
 1304 00ca 3AD1     		bne	.L36
 1305              	.LBB25:
 453:..\..\..\arduinoLCD\test\Pain Drain\libraries\lvgl\src\draw\sw/lv_draw_sw_arc.c ****             quarter_area.x2 = q->center->x + q->radius;
 1306              		.loc 1 453 0
 1307 00cc 2368     		ldr	r3, [r4]
 1308 00ce 0022     		movs	r2, #0
 1309 00d0 995E     		ldrsh	r1, [r3, r2]
 1310 00d2 0420     		movs	r0, #4
 1311 00d4 225E     		ldrsh	r2, [r4, r0]
 1312 00d6 8A18     		adds	r2, r1, r2
 1313 00d8 6946     		mov	r1, sp
 1314 00da 8A80     		strh	r2, [r1, #4]
ARM GAS  C:\Users\haske\AppData\Local\Temp\ccinSyc3.s 			page 32


 454:..\..\..\arduinoLCD\test\Pain Drain\libraries\lvgl\src\draw\sw/lv_draw_sw_arc.c ****             quarter_area.y2 = q->center->y - 1;
 1315              		.loc 1 454 0
 1316 00dc 0221     		movs	r1, #2
 1317 00de 5A5E     		ldrsh	r2, [r3, r1]
 1318 00e0 013A     		subs	r2, r2, #1
 1319 00e2 6946     		mov	r1, sp
 1320 00e4 CA80     		strh	r2, [r1, #6]
 455:..\..\..\arduinoLCD\test\Pain Drain\libraries\lvgl\src\draw\sw/lv_draw_sw_arc.c **** 
 456:..\..\..\arduinoLCD\test\Pain Drain\libraries\lvgl\src\draw\sw/lv_draw_sw_arc.c ****             quarter_area.x1 = q->center->x + ((lv_trigo_sin(q->start_angle + 90) * (q->radius - q->
 1321              		.loc 1 456 0
 1322 00e6 0026     		movs	r6, #0
 1323 00e8 9E5F     		ldrsh	r6, [r3, r6]
 1324 00ea E088     		ldrh	r0, [r4, #6]
 1325 00ec 5A30     		adds	r0, r0, #90
 1326 00ee 00B2     		sxth	r0, r0
 1327 00f0 FFF7FEFF 		bl	lv_trigo_sin
 1328              	.LVL85:
 1329 00f4 0422     		movs	r2, #4
 1330 00f6 A35E     		ldrsh	r3, [r4, r2]
 1331 00f8 0E21     		movs	r1, #14
 1332 00fa 625E     		ldrsh	r2, [r4, r1]
 1333 00fc 9B1A     		subs	r3, r3, r2
 1334 00fe 5843     		muls	r0, r3
 1335 0100 C013     		asrs	r0, r0, #15
 1336 0102 3018     		adds	r0, r6, r0
 1337 0104 6B46     		mov	r3, sp
 1338 0106 1880     		strh	r0, [r3]
 457:..\..\..\arduinoLCD\test\Pain Drain\libraries\lvgl\src\draw\sw/lv_draw_sw_arc.c ****             quarter_area.y1 = q->center->y + ((lv_trigo_sin(q->start_angle) * (q->radius)) >> LV_TR
 1339              		.loc 1 457 0
 1340 0108 2368     		ldr	r3, [r4]
 1341 010a 0226     		movs	r6, #2
 1342 010c 9E5F     		ldrsh	r6, [r3, r6]
 1343 010e 0623     		movs	r3, #6
 1344 0110 E05E     		ldrsh	r0, [r4, r3]
 1345 0112 FFF7FEFF 		bl	lv_trigo_sin
 1346              	.LVL86:
 1347 0116 0422     		movs	r2, #4
 1348 0118 A35E     		ldrsh	r3, [r4, r2]
 1349 011a 5843     		muls	r0, r3
 1350 011c C013     		asrs	r0, r0, #15
 1351 011e 3018     		adds	r0, r6, r0
 1352 0120 6B46     		mov	r3, sp
 1353 0122 5880     		strh	r0, [r3, #2]
 458:..\..\..\arduinoLCD\test\Pain Drain\libraries\lvgl\src\draw\sw/lv_draw_sw_arc.c **** 
 459:..\..\..\arduinoLCD\test\Pain Drain\libraries\lvgl\src\draw\sw/lv_draw_sw_arc.c ****             bool ok = _lv_area_intersect(&quarter_area, &quarter_area, clip_area_ori);
 1354              		.loc 1 459 0
 1355 0124 2A00     		movs	r2, r5
 1356 0126 6946     		mov	r1, sp
 1357 0128 6846     		mov	r0, sp
 1358 012a FFF7FEFF 		bl	_lv_area_intersect
 1359              	.LVL87:
 460:..\..\..\arduinoLCD\test\Pain Drain\libraries\lvgl\src\draw\sw/lv_draw_sw_arc.c ****             if(ok) {
 1360              		.loc 1 460 0
 1361 012e 0028     		cmp	r0, #0
 1362 0130 07D0     		beq	.L36
 461:..\..\..\arduinoLCD\test\Pain Drain\libraries\lvgl\src\draw\sw/lv_draw_sw_arc.c ****                 q->draw_ctx->clip_area = &quarter_area;
 1363              		.loc 1 461 0
ARM GAS  C:\Users\haske\AppData\Local\Temp\ccinSyc3.s 			page 33


 1364 0132 A369     		ldr	r3, [r4, #24]
 1365 0134 6A46     		mov	r2, sp
 1366 0136 9A60     		str	r2, [r3, #8]
 462:..\..\..\arduinoLCD\test\Pain Drain\libraries\lvgl\src\draw\sw/lv_draw_sw_arc.c ****                 lv_draw_rect(q->draw_ctx, q->draw_dsc, q->draw_area);
 1367              		.loc 1 462 0
 1368 0138 6269     		ldr	r2, [r4, #20]
 1369 013a 2169     		ldr	r1, [r4, #16]
 1370 013c A069     		ldr	r0, [r4, #24]
 1371              	.LVL88:
 1372 013e FFF7FEFF 		bl	lv_draw_rect
 1373              	.LVL89:
 1374              	.L36:
 1375              	.LBE25:
 463:..\..\..\arduinoLCD\test\Pain Drain\libraries\lvgl\src\draw\sw/lv_draw_sw_arc.c ****             }
 464:..\..\..\arduinoLCD\test\Pain Drain\libraries\lvgl\src\draw\sw/lv_draw_sw_arc.c ****         }
 465:..\..\..\arduinoLCD\test\Pain Drain\libraries\lvgl\src\draw\sw/lv_draw_sw_arc.c ****         if(q->end_quarter == 3) {
 1376              		.loc 1 465 0
 1377 0142 A389     		ldrh	r3, [r4, #12]
 1378 0144 032B     		cmp	r3, #3
 1379 0146 70D1     		bne	.L33
 1380              	.LBB26:
 466:..\..\..\arduinoLCD\test\Pain Drain\libraries\lvgl\src\draw\sw/lv_draw_sw_arc.c ****             quarter_area.x1 = q->center->x;
 1381              		.loc 1 466 0
 1382 0148 2368     		ldr	r3, [r4]
 1383 014a 0021     		movs	r1, #0
 1384 014c 5A5E     		ldrsh	r2, [r3, r1]
 1385 014e 6946     		mov	r1, sp
 1386 0150 0A80     		strh	r2, [r1]
 467:..\..\..\arduinoLCD\test\Pain Drain\libraries\lvgl\src\draw\sw/lv_draw_sw_arc.c ****             quarter_area.y1 = q->center->y - q->radius;
 1387              		.loc 1 467 0
 1388 0152 0221     		movs	r1, #2
 1389 0154 5A5E     		ldrsh	r2, [r3, r1]
 1390 0156 0420     		movs	r0, #4
 1391 0158 215E     		ldrsh	r1, [r4, r0]
 1392 015a 521A     		subs	r2, r2, r1
 1393 015c 6946     		mov	r1, sp
 1394 015e 4A80     		strh	r2, [r1, #2]
 468:..\..\..\arduinoLCD\test\Pain Drain\libraries\lvgl\src\draw\sw/lv_draw_sw_arc.c **** 
 469:..\..\..\arduinoLCD\test\Pain Drain\libraries\lvgl\src\draw\sw/lv_draw_sw_arc.c ****             quarter_area.x2 = q->center->x + ((lv_trigo_sin(q->end_angle + 90) * (q->radius)) >> LV
 1395              		.loc 1 469 0
 1396 0160 0026     		movs	r6, #0
 1397 0162 9E5F     		ldrsh	r6, [r3, r6]
 1398 0164 2089     		ldrh	r0, [r4, #8]
 1399 0166 5A30     		adds	r0, r0, #90
 1400 0168 00B2     		sxth	r0, r0
 1401 016a FFF7FEFF 		bl	lv_trigo_sin
 1402              	.LVL90:
 1403 016e 0422     		movs	r2, #4
 1404 0170 A35E     		ldrsh	r3, [r4, r2]
 1405 0172 5843     		muls	r0, r3
 1406 0174 C013     		asrs	r0, r0, #15
 1407 0176 3018     		adds	r0, r6, r0
 1408 0178 6B46     		mov	r3, sp
 1409 017a 9880     		strh	r0, [r3, #4]
 470:..\..\..\arduinoLCD\test\Pain Drain\libraries\lvgl\src\draw\sw/lv_draw_sw_arc.c ****             quarter_area.y2 = q->center->y + ((lv_trigo_sin(q->end_angle) * (q->radius - q->width))
 1410              		.loc 1 470 0
 1411 017c 2368     		ldr	r3, [r4]
ARM GAS  C:\Users\haske\AppData\Local\Temp\ccinSyc3.s 			page 34


 1412 017e 0226     		movs	r6, #2
 1413 0180 9E5F     		ldrsh	r6, [r3, r6]
 1414 0182 0823     		movs	r3, #8
 1415 0184 E05E     		ldrsh	r0, [r4, r3]
 1416 0186 FFF7FEFF 		bl	lv_trigo_sin
 1417              	.LVL91:
 1418 018a 0422     		movs	r2, #4
 1419 018c A35E     		ldrsh	r3, [r4, r2]
 1420 018e 0E21     		movs	r1, #14
 1421 0190 625E     		ldrsh	r2, [r4, r1]
 1422 0192 9B1A     		subs	r3, r3, r2
 1423 0194 5843     		muls	r0, r3
 1424 0196 C013     		asrs	r0, r0, #15
 1425 0198 3018     		adds	r0, r6, r0
 1426 019a 6B46     		mov	r3, sp
 1427 019c D880     		strh	r0, [r3, #6]
 471:..\..\..\arduinoLCD\test\Pain Drain\libraries\lvgl\src\draw\sw/lv_draw_sw_arc.c **** 
 472:..\..\..\arduinoLCD\test\Pain Drain\libraries\lvgl\src\draw\sw/lv_draw_sw_arc.c ****             bool ok = _lv_area_intersect(&quarter_area, &quarter_area, clip_area_ori);
 1428              		.loc 1 472 0
 1429 019e 2A00     		movs	r2, r5
 1430 01a0 6946     		mov	r1, sp
 1431 01a2 6846     		mov	r0, sp
 1432 01a4 FFF7FEFF 		bl	_lv_area_intersect
 1433              	.LVL92:
 473:..\..\..\arduinoLCD\test\Pain Drain\libraries\lvgl\src\draw\sw/lv_draw_sw_arc.c ****             if(ok) {
 1434              		.loc 1 473 0
 1435 01a8 0028     		cmp	r0, #0
 1436 01aa 3ED0     		beq	.L33
 474:..\..\..\arduinoLCD\test\Pain Drain\libraries\lvgl\src\draw\sw/lv_draw_sw_arc.c ****                 q->draw_ctx->clip_area = &quarter_area;
 1437              		.loc 1 474 0
 1438 01ac A369     		ldr	r3, [r4, #24]
 1439 01ae 6A46     		mov	r2, sp
 1440 01b0 9A60     		str	r2, [r3, #8]
 475:..\..\..\arduinoLCD\test\Pain Drain\libraries\lvgl\src\draw\sw/lv_draw_sw_arc.c ****                 lv_draw_rect(q->draw_ctx, q->draw_dsc, q->draw_area);
 1441              		.loc 1 475 0
 1442 01b2 6269     		ldr	r2, [r4, #20]
 1443 01b4 2169     		ldr	r1, [r4, #16]
 1444 01b6 A069     		ldr	r0, [r4, #24]
 1445              	.LVL93:
 1446 01b8 FFF7FEFF 		bl	lv_draw_rect
 1447              	.LVL94:
 1448 01bc 35E0     		b	.L33
 1449              	.L35:
 1450              	.LBE26:
 476:..\..\..\arduinoLCD\test\Pain Drain\libraries\lvgl\src\draw\sw/lv_draw_sw_arc.c ****             }
 477:..\..\..\arduinoLCD\test\Pain Drain\libraries\lvgl\src\draw\sw/lv_draw_sw_arc.c ****         }
 478:..\..\..\arduinoLCD\test\Pain Drain\libraries\lvgl\src\draw\sw/lv_draw_sw_arc.c ****     }
 479:..\..\..\arduinoLCD\test\Pain Drain\libraries\lvgl\src\draw\sw/lv_draw_sw_arc.c ****     else if((q->start_quarter == q->end_quarter && q->start_quarter != 3 && q->end_angle < q->start
 1451              		.loc 1 479 0
 1452 01be 9342     		cmp	r3, r2
 1453 01c0 05D1     		bne	.L37
 1454              		.loc 1 479 0 is_stmt 0 discriminator 1
 1455 01c2 032B     		cmp	r3, #3
 1456 01c4 03D0     		beq	.L37
 1457              		.loc 1 479 0 discriminator 3
 1458 01c6 2089     		ldrh	r0, [r4, #8]
 1459 01c8 E188     		ldrh	r1, [r4, #6]
ARM GAS  C:\Users\haske\AppData\Local\Temp\ccinSyc3.s 			page 35


 1460 01ca 8842     		cmp	r0, r1
 1461 01cc 0BD3     		bcc	.L38
 1462              	.L37:
 1463              		.loc 1 479 0 discriminator 5
 1464 01ce 022B     		cmp	r3, #2
 1465 01d0 01D1     		bne	.L39
 480:..\..\..\arduinoLCD\test\Pain Drain\libraries\lvgl\src\draw\sw/lv_draw_sw_arc.c ****             (q->start_quarter == 2 && q->end_quarter == 0) ||
 1466              		.loc 1 480 0 is_stmt 1
 1467 01d2 002A     		cmp	r2, #0
 1468 01d4 07D0     		beq	.L38
 1469              	.L39:
 1470              		.loc 1 480 0 is_stmt 0 discriminator 1
 1471 01d6 012B     		cmp	r3, #1
 1472 01d8 01D1     		bne	.L40
 481:..\..\..\arduinoLCD\test\Pain Drain\libraries\lvgl\src\draw\sw/lv_draw_sw_arc.c ****             (q->start_quarter == 1 && q->end_quarter == 0) ||
 1473              		.loc 1 481 0 is_stmt 1
 1474 01da 002A     		cmp	r2, #0
 1475 01dc 03D0     		beq	.L38
 1476              	.L40:
 1477              		.loc 1 481 0 is_stmt 0 discriminator 1
 1478 01de 022B     		cmp	r3, #2
 1479 01e0 23D1     		bne	.L33
 482:..\..\..\arduinoLCD\test\Pain Drain\libraries\lvgl\src\draw\sw/lv_draw_sw_arc.c ****             (q->start_quarter == 2 && q->end_quarter == 1)) {
 1480              		.loc 1 482 0 is_stmt 1
 1481 01e2 012A     		cmp	r2, #1
 1482 01e4 21D1     		bne	.L33
 1483              	.L38:
 1484              	.LBB27:
 483:..\..\..\arduinoLCD\test\Pain Drain\libraries\lvgl\src\draw\sw/lv_draw_sw_arc.c ****         /*Arc crosses here*/
 484:..\..\..\arduinoLCD\test\Pain Drain\libraries\lvgl\src\draw\sw/lv_draw_sw_arc.c ****         quarter_area.x1 = q->center->x;
 1485              		.loc 1 484 0
 1486 01e6 2368     		ldr	r3, [r4]
 1487 01e8 0021     		movs	r1, #0
 1488 01ea 5A5E     		ldrsh	r2, [r3, r1]
 1489 01ec 6946     		mov	r1, sp
 1490 01ee 0A80     		strh	r2, [r1]
 485:..\..\..\arduinoLCD\test\Pain Drain\libraries\lvgl\src\draw\sw/lv_draw_sw_arc.c ****         quarter_area.y1 = q->center->y - q->radius;
 1491              		.loc 1 485 0
 1492 01f0 0222     		movs	r2, #2
 1493 01f2 995E     		ldrsh	r1, [r3, r2]
 1494 01f4 A088     		ldrh	r0, [r4, #4]
 1495 01f6 091A     		subs	r1, r1, r0
 1496 01f8 6A46     		mov	r2, sp
 1497 01fa 5180     		strh	r1, [r2, #2]
 486:..\..\..\arduinoLCD\test\Pain Drain\libraries\lvgl\src\draw\sw/lv_draw_sw_arc.c ****         quarter_area.x2 = q->center->x + q->radius;
 1498              		.loc 1 486 0
 1499 01fc 0021     		movs	r1, #0
 1500 01fe 5A5E     		ldrsh	r2, [r3, r1]
 1501 0200 8218     		adds	r2, r0, r2
 1502 0202 6946     		mov	r1, sp
 1503 0204 8A80     		strh	r2, [r1, #4]
 487:..\..\..\arduinoLCD\test\Pain Drain\libraries\lvgl\src\draw\sw/lv_draw_sw_arc.c ****         quarter_area.y2 = q->center->y - 1;
 1504              		.loc 1 487 0
 1505 0206 0222     		movs	r2, #2
 1506 0208 9B5E     		ldrsh	r3, [r3, r2]
 1507 020a 013B     		subs	r3, r3, #1
 1508 020c CB80     		strh	r3, [r1, #6]
ARM GAS  C:\Users\haske\AppData\Local\Temp\ccinSyc3.s 			page 36


 488:..\..\..\arduinoLCD\test\Pain Drain\libraries\lvgl\src\draw\sw/lv_draw_sw_arc.c **** 
 489:..\..\..\arduinoLCD\test\Pain Drain\libraries\lvgl\src\draw\sw/lv_draw_sw_arc.c ****         bool ok = _lv_area_intersect(&quarter_area, &quarter_area, clip_area_ori);
 1509              		.loc 1 489 0
 1510 020e 2A00     		movs	r2, r5
 1511 0210 6846     		mov	r0, sp
 1512 0212 FFF7FEFF 		bl	_lv_area_intersect
 1513              	.LVL95:
 490:..\..\..\arduinoLCD\test\Pain Drain\libraries\lvgl\src\draw\sw/lv_draw_sw_arc.c ****         if(ok) {
 1514              		.loc 1 490 0
 1515 0216 0028     		cmp	r0, #0
 1516 0218 07D0     		beq	.L33
 491:..\..\..\arduinoLCD\test\Pain Drain\libraries\lvgl\src\draw\sw/lv_draw_sw_arc.c ****             q->draw_ctx->clip_area = &quarter_area;
 1517              		.loc 1 491 0
 1518 021a A369     		ldr	r3, [r4, #24]
 1519 021c 6A46     		mov	r2, sp
 1520 021e 9A60     		str	r2, [r3, #8]
 492:..\..\..\arduinoLCD\test\Pain Drain\libraries\lvgl\src\draw\sw/lv_draw_sw_arc.c ****             lv_draw_rect(q->draw_ctx, q->draw_dsc, q->draw_area);
 1521              		.loc 1 492 0
 1522 0220 6269     		ldr	r2, [r4, #20]
 1523 0222 2169     		ldr	r1, [r4, #16]
 1524 0224 A069     		ldr	r0, [r4, #24]
 1525              	.LVL96:
 1526 0226 FFF7FEFF 		bl	lv_draw_rect
 1527              	.LVL97:
 1528              	.L33:
 1529              	.LBE27:
 493:..\..\..\arduinoLCD\test\Pain Drain\libraries\lvgl\src\draw\sw/lv_draw_sw_arc.c ****         }
 494:..\..\..\arduinoLCD\test\Pain Drain\libraries\lvgl\src\draw\sw/lv_draw_sw_arc.c ****     }
 495:..\..\..\arduinoLCD\test\Pain Drain\libraries\lvgl\src\draw\sw/lv_draw_sw_arc.c **** 
 496:..\..\..\arduinoLCD\test\Pain Drain\libraries\lvgl\src\draw\sw/lv_draw_sw_arc.c ****     q->draw_ctx->clip_area = clip_area_ori;
 1530              		.loc 1 496 0
 1531 022a A369     		ldr	r3, [r4, #24]
 1532 022c 9D60     		str	r5, [r3, #8]
 497:..\..\..\arduinoLCD\test\Pain Drain\libraries\lvgl\src\draw\sw/lv_draw_sw_arc.c **** }
 1533              		.loc 1 497 0
 1534 022e 02B0     		add	sp, sp, #8
 1535              		@ sp needed
 1536              	.LVL98:
 1537              	.LVL99:
 1538 0230 70BD     		pop	{r4, r5, r6, pc}
 1539              		.cfi_endproc
 1540              	.LFE60:
 1541              		.size	draw_quarter_3, .-draw_quarter_3
 1542 0232 C046     		.section	.text.get_rounded_area,"ax",%progbits
 1543              		.align	2
 1544              		.code	16
 1545              		.thumb_func
 1546              		.type	get_rounded_area, %function
 1547              	get_rounded_area:
 1548              	.LFB61:
 498:..\..\..\arduinoLCD\test\Pain Drain\libraries\lvgl\src\draw\sw/lv_draw_sw_arc.c **** 
 499:..\..\..\arduinoLCD\test\Pain Drain\libraries\lvgl\src\draw\sw/lv_draw_sw_arc.c **** static void get_rounded_area(int16_t angle, lv_coord_t radius, uint8_t thickness, lv_area_t * res_a
 500:..\..\..\arduinoLCD\test\Pain Drain\libraries\lvgl\src\draw\sw/lv_draw_sw_arc.c **** {
 1549              		.loc 1 500 0
 1550              		.cfi_startproc
 1551              		@ args = 0, pretend = 0, frame = 8
 1552              		@ frame_needed = 0, uses_anonymous_args = 0
ARM GAS  C:\Users\haske\AppData\Local\Temp\ccinSyc3.s 			page 37


 1553              	.LVL100:
 1554 0000 F0B5     		push	{r4, r5, r6, r7, lr}
 1555              		.cfi_def_cfa_offset 20
 1556              		.cfi_offset 4, -20
 1557              		.cfi_offset 5, -16
 1558              		.cfi_offset 6, -12
 1559              		.cfi_offset 7, -8
 1560              		.cfi_offset 14, -4
 1561 0002 4F46     		mov	r7, r9
 1562 0004 80B4     		push	{r7}
 1563              		.cfi_def_cfa_offset 24
 1564              		.cfi_offset 9, -24
 1565 0006 82B0     		sub	sp, sp, #8
 1566              		.cfi_def_cfa_offset 32
 1567 0008 0500     		movs	r5, r0
 1568 000a 1F00     		movs	r7, r3
 1569              	.LVL101:
 501:..\..\..\arduinoLCD\test\Pain Drain\libraries\lvgl\src\draw\sw/lv_draw_sw_arc.c ****     const uint8_t ps = 8;
 502:..\..\..\arduinoLCD\test\Pain Drain\libraries\lvgl\src\draw\sw/lv_draw_sw_arc.c ****     const uint8_t pa = 127;
 503:..\..\..\arduinoLCD\test\Pain Drain\libraries\lvgl\src\draw\sw/lv_draw_sw_arc.c **** 
 504:..\..\..\arduinoLCD\test\Pain Drain\libraries\lvgl\src\draw\sw/lv_draw_sw_arc.c ****     int32_t thick_half = thickness / 2;
 1570              		.loc 1 504 0
 1571 000c 5608     		lsrs	r6, r2, #1
 1572              	.LVL102:
 505:..\..\..\arduinoLCD\test\Pain Drain\libraries\lvgl\src\draw\sw/lv_draw_sw_arc.c ****     uint8_t thick_corr = (thickness & 0x01) ? 0 : 1;
 1573              		.loc 1 505 0
 1574 000e 0123     		movs	r3, #1
 1575              	.LVL103:
 1576 0010 5A40     		eors	r2, r3
 1577              	.LVL104:
 1578 0012 0123     		movs	r3, #1
 1579 0014 1340     		ands	r3, r2
 1580 0016 9946     		mov	r9, r3
 1581              	.LVL105:
 506:..\..\..\arduinoLCD\test\Pain Drain\libraries\lvgl\src\draw\sw/lv_draw_sw_arc.c **** 
 507:..\..\..\arduinoLCD\test\Pain Drain\libraries\lvgl\src\draw\sw/lv_draw_sw_arc.c ****     int32_t cir_x;
 508:..\..\..\arduinoLCD\test\Pain Drain\libraries\lvgl\src\draw\sw/lv_draw_sw_arc.c ****     int32_t cir_y;
 509:..\..\..\arduinoLCD\test\Pain Drain\libraries\lvgl\src\draw\sw/lv_draw_sw_arc.c **** 
 510:..\..\..\arduinoLCD\test\Pain Drain\libraries\lvgl\src\draw\sw/lv_draw_sw_arc.c ****     cir_x = ((radius - thick_half) * lv_trigo_sin(90 - angle)) >> (LV_TRIGO_SHIFT - ps);
 1582              		.loc 1 510 0
 1583 0018 8C1B     		subs	r4, r1, r6
 1584 001a 5A20     		movs	r0, #90
 1585              	.LVL106:
 1586 001c 0195     		str	r5, [sp, #4]
 1587 001e 401B     		subs	r0, r0, r5
 1588 0020 00B2     		sxth	r0, r0
 1589 0022 FFF7FEFF 		bl	lv_trigo_sin
 1590              	.LVL107:
 1591 0026 0500     		movs	r5, r0
 1592 0028 6543     		muls	r5, r4
 1593 002a ED11     		asrs	r5, r5, #7
 1594              	.LVL108:
 511:..\..\..\arduinoLCD\test\Pain Drain\libraries\lvgl\src\draw\sw/lv_draw_sw_arc.c ****     cir_y = ((radius - thick_half) * lv_trigo_sin(angle)) >> (LV_TRIGO_SHIFT - ps);
 1595              		.loc 1 511 0
 1596 002c 0198     		ldr	r0, [sp, #4]
 1597 002e FFF7FEFF 		bl	lv_trigo_sin
 1598              	.LVL109:
ARM GAS  C:\Users\haske\AppData\Local\Temp\ccinSyc3.s 			page 38


 1599 0032 4443     		muls	r4, r0
 1600 0034 E411     		asrs	r4, r4, #7
 1601              	.LVL110:
 512:..\..\..\arduinoLCD\test\Pain Drain\libraries\lvgl\src\draw\sw/lv_draw_sw_arc.c **** 
 513:..\..\..\arduinoLCD\test\Pain Drain\libraries\lvgl\src\draw\sw/lv_draw_sw_arc.c ****     /*Actually the center of the pixel need to be calculated so apply 1/2 px offset*/
 514:..\..\..\arduinoLCD\test\Pain Drain\libraries\lvgl\src\draw\sw/lv_draw_sw_arc.c ****     if(cir_x > 0) {
 1602              		.loc 1 514 0
 1603 0036 002D     		cmp	r5, #0
 1604 0038 09DD     		ble	.L42
 515:..\..\..\arduinoLCD\test\Pain Drain\libraries\lvgl\src\draw\sw/lv_draw_sw_arc.c ****         cir_x = (cir_x - pa) >> ps;
 1605              		.loc 1 515 0
 1606 003a 7F3D     		subs	r5, r5, #127
 1607              	.LVL111:
 1608 003c 2D12     		asrs	r5, r5, #8
 1609              	.LVL112:
 516:..\..\..\arduinoLCD\test\Pain Drain\libraries\lvgl\src\draw\sw/lv_draw_sw_arc.c ****         res_area->x1 = cir_x - thick_half + thick_corr;
 1610              		.loc 1 516 0
 1611 003e ADB2     		uxth	r5, r5
 1612              	.LVL113:
 1613 0040 B3B2     		uxth	r3, r6
 1614 0042 EA1A     		subs	r2, r5, r3
 1615 0044 4A44     		add	r2, r2, r9
 1616 0046 3A80     		strh	r2, [r7]
 517:..\..\..\arduinoLCD\test\Pain Drain\libraries\lvgl\src\draw\sw/lv_draw_sw_arc.c ****         res_area->x2 = cir_x + thick_half;
 1617              		.loc 1 517 0
 1618 0048 ED18     		adds	r5, r5, r3
 1619 004a BD80     		strh	r5, [r7, #4]
 1620 004c 09E0     		b	.L43
 1621              	.LVL114:
 1622              	.L42:
 518:..\..\..\arduinoLCD\test\Pain Drain\libraries\lvgl\src\draw\sw/lv_draw_sw_arc.c ****     }
 519:..\..\..\arduinoLCD\test\Pain Drain\libraries\lvgl\src\draw\sw/lv_draw_sw_arc.c ****     else {
 520:..\..\..\arduinoLCD\test\Pain Drain\libraries\lvgl\src\draw\sw/lv_draw_sw_arc.c ****         cir_x = (cir_x + pa) >> ps;
 1623              		.loc 1 520 0
 1624 004e 7F35     		adds	r5, r5, #127
 1625              	.LVL115:
 1626 0050 2D12     		asrs	r5, r5, #8
 1627              	.LVL116:
 521:..\..\..\arduinoLCD\test\Pain Drain\libraries\lvgl\src\draw\sw/lv_draw_sw_arc.c ****         res_area->x1 = cir_x - thick_half;
 1628              		.loc 1 521 0
 1629 0052 ADB2     		uxth	r5, r5
 1630              	.LVL117:
 1631 0054 B3B2     		uxth	r3, r6
 1632 0056 EA1A     		subs	r2, r5, r3
 1633 0058 3A80     		strh	r2, [r7]
 522:..\..\..\arduinoLCD\test\Pain Drain\libraries\lvgl\src\draw\sw/lv_draw_sw_arc.c ****         res_area->x2 = cir_x + thick_half - thick_corr;
 1634              		.loc 1 522 0
 1635 005a ED18     		adds	r5, r5, r3
 1636 005c 4B46     		mov	r3, r9
 1637 005e ED1A     		subs	r5, r5, r3
 1638 0060 BD80     		strh	r5, [r7, #4]
 1639              	.L43:
 523:..\..\..\arduinoLCD\test\Pain Drain\libraries\lvgl\src\draw\sw/lv_draw_sw_arc.c ****     }
 524:..\..\..\arduinoLCD\test\Pain Drain\libraries\lvgl\src\draw\sw/lv_draw_sw_arc.c **** 
 525:..\..\..\arduinoLCD\test\Pain Drain\libraries\lvgl\src\draw\sw/lv_draw_sw_arc.c ****     if(cir_y > 0) {
 1640              		.loc 1 525 0
 1641 0062 002C     		cmp	r4, #0
ARM GAS  C:\Users\haske\AppData\Local\Temp\ccinSyc3.s 			page 39


 1642 0064 09DD     		ble	.L44
 526:..\..\..\arduinoLCD\test\Pain Drain\libraries\lvgl\src\draw\sw/lv_draw_sw_arc.c ****         cir_y = (cir_y - pa) >> ps;
 1643              		.loc 1 526 0
 1644 0066 7F3C     		subs	r4, r4, #127
 1645              	.LVL118:
 1646 0068 2412     		asrs	r4, r4, #8
 1647              	.LVL119:
 527:..\..\..\arduinoLCD\test\Pain Drain\libraries\lvgl\src\draw\sw/lv_draw_sw_arc.c ****         res_area->y1 = cir_y - thick_half + thick_corr;
 1648              		.loc 1 527 0
 1649 006a A4B2     		uxth	r4, r4
 1650              	.LVL120:
 1651 006c B3B2     		uxth	r3, r6
 1652 006e E61A     		subs	r6, r4, r3
 1653              	.LVL121:
 1654 0070 4E44     		add	r6, r6, r9
 1655 0072 7E80     		strh	r6, [r7, #2]
 528:..\..\..\arduinoLCD\test\Pain Drain\libraries\lvgl\src\draw\sw/lv_draw_sw_arc.c ****         res_area->y2 = cir_y + thick_half;
 1656              		.loc 1 528 0
 1657 0074 E418     		adds	r4, r4, r3
 1658 0076 FC80     		strh	r4, [r7, #6]
 1659 0078 09E0     		b	.L41
 1660              	.LVL122:
 1661              	.L44:
 529:..\..\..\arduinoLCD\test\Pain Drain\libraries\lvgl\src\draw\sw/lv_draw_sw_arc.c ****     }
 530:..\..\..\arduinoLCD\test\Pain Drain\libraries\lvgl\src\draw\sw/lv_draw_sw_arc.c ****     else {
 531:..\..\..\arduinoLCD\test\Pain Drain\libraries\lvgl\src\draw\sw/lv_draw_sw_arc.c ****         cir_y = (cir_y + pa) >> ps;
 1662              		.loc 1 531 0
 1663 007a 7F34     		adds	r4, r4, #127
 1664              	.LVL123:
 1665 007c 2412     		asrs	r4, r4, #8
 1666              	.LVL124:
 532:..\..\..\arduinoLCD\test\Pain Drain\libraries\lvgl\src\draw\sw/lv_draw_sw_arc.c ****         res_area->y1 = cir_y - thick_half;
 1667              		.loc 1 532 0
 1668 007e A4B2     		uxth	r4, r4
 1669              	.LVL125:
 1670 0080 B6B2     		uxth	r6, r6
 1671              	.LVL126:
 1672 0082 A31B     		subs	r3, r4, r6
 1673 0084 7B80     		strh	r3, [r7, #2]
 533:..\..\..\arduinoLCD\test\Pain Drain\libraries\lvgl\src\draw\sw/lv_draw_sw_arc.c ****         res_area->y2 = cir_y + thick_half - thick_corr;
 1674              		.loc 1 533 0
 1675 0086 A619     		adds	r6, r4, r6
 1676 0088 4B46     		mov	r3, r9
 1677 008a F61A     		subs	r6, r6, r3
 1678 008c FE80     		strh	r6, [r7, #6]
 1679              	.L41:
 534:..\..\..\arduinoLCD\test\Pain Drain\libraries\lvgl\src\draw\sw/lv_draw_sw_arc.c ****     }
 535:..\..\..\arduinoLCD\test\Pain Drain\libraries\lvgl\src\draw\sw/lv_draw_sw_arc.c **** }
 1680              		.loc 1 535 0
 1681 008e 02B0     		add	sp, sp, #8
 1682              		@ sp needed
 1683              	.LVL127:
 1684              	.LVL128:
 1685 0090 04BC     		pop	{r2}
 1686 0092 9146     		mov	r9, r2
 1687 0094 F0BD     		pop	{r4, r5, r6, r7, pc}
 1688              		.cfi_endproc
ARM GAS  C:\Users\haske\AppData\Local\Temp\ccinSyc3.s 			page 40


 1689              	.LFE61:
 1690              		.size	get_rounded_area, .-get_rounded_area
 1691              		.global	__aeabi_uidiv
 1692 0096 C046     		.section	.text.lv_draw_sw_arc,"ax",%progbits
 1693              		.align	2
 1694              		.global	lv_draw_sw_arc
 1695              		.code	16
 1696              		.thumb_func
 1697              		.type	lv_draw_sw_arc, %function
 1698              	lv_draw_sw_arc:
 1699              	.LFB56:
  62:..\..\..\arduinoLCD\test\Pain Drain\libraries\lvgl\src\draw\sw/lv_draw_sw_arc.c **** #if LV_DRAW_COMPLEX
 1700              		.loc 1 62 0
 1701              		.cfi_startproc
 1702              		@ args = 8, pretend = 0, frame = 304
 1703              		@ frame_needed = 0, uses_anonymous_args = 0
 1704              	.LVL129:
 1705 0000 F0B5     		push	{r4, r5, r6, r7, lr}
 1706              		.cfi_def_cfa_offset 20
 1707              		.cfi_offset 4, -20
 1708              		.cfi_offset 5, -16
 1709              		.cfi_offset 6, -12
 1710              		.cfi_offset 7, -8
 1711              		.cfi_offset 14, -4
 1712 0002 5F46     		mov	r7, fp
 1713 0004 5646     		mov	r6, r10
 1714 0006 4D46     		mov	r5, r9
 1715 0008 4446     		mov	r4, r8
 1716 000a F0B4     		push	{r4, r5, r6, r7}
 1717              		.cfi_def_cfa_offset 36
 1718              		.cfi_offset 8, -36
 1719              		.cfi_offset 9, -32
 1720              		.cfi_offset 10, -28
 1721              		.cfi_offset 11, -24
 1722 000c CFB0     		sub	sp, sp, #316
 1723              		.cfi_def_cfa_offset 352
 1724 000e 0490     		str	r0, [sp, #16]
 1725 0010 0E00     		movs	r6, r1
 1726 0012 0392     		str	r2, [sp, #12]
 1727 0014 9846     		mov	r8, r3
 1728 0016 58AB     		add	r3, sp, #352
 1729              	.LVL130:
 1730 0018 1C88     		ldrh	r4, [r3]
 1731 001a 59AB     		add	r3, sp, #356
 1732              	.LVL131:
 1733 001c 1D88     		ldrh	r5, [r3]
  64:..\..\..\arduinoLCD\test\Pain Drain\libraries\lvgl\src\draw\sw/lv_draw_sw_arc.c ****     if(dsc->width == 0) return;
 1734              		.loc 1 64 0
 1735 001e 0B7B     		ldrb	r3, [r1, #12]
 1736              	.LVL132:
 1737 0020 022B     		cmp	r3, #2
 1738 0022 00D8     		bhi	.LCB1570
 1739 0024 9BE1     		b	.L46	@long jump
 1740              	.LCB1570:
  65:..\..\..\arduinoLCD\test\Pain Drain\libraries\lvgl\src\draw\sw/lv_draw_sw_arc.c ****     if(start_angle == end_angle) return;
 1741              		.loc 1 65 0
 1742 0026 0222     		movs	r2, #2
ARM GAS  C:\Users\haske\AppData\Local\Temp\ccinSyc3.s 			page 41


 1743 0028 8B5E     		ldrsh	r3, [r1, r2]
 1744              	.LVL133:
 1745 002a 9A46     		mov	r10, r3
 1746 002c 002B     		cmp	r3, #0
 1747 002e 00D1     		bne	.LCB1575
 1748 0030 95E1     		b	.L46	@long jump
 1749              	.LCB1575:
  66:..\..\..\arduinoLCD\test\Pain Drain\libraries\lvgl\src\draw\sw/lv_draw_sw_arc.c **** 
 1750              		.loc 1 66 0
 1751 0032 AC42     		cmp	r4, r5
 1752 0034 00D1     		bne	.LCB1577
 1753 0036 92E1     		b	.L46	@long jump
 1754              	.LCB1577:
 1755              	.LVL134:
  69:..\..\..\arduinoLCD\test\Pain Drain\libraries\lvgl\src\draw\sw/lv_draw_sw_arc.c **** 
 1756              		.loc 1 69 0
 1757 0038 4345     		cmp	r3, r8
 1758 003a 02DD     		ble	.L48
  69:..\..\..\arduinoLCD\test\Pain Drain\libraries\lvgl\src\draw\sw/lv_draw_sw_arc.c **** 
 1759              		.loc 1 69 0 is_stmt 0 discriminator 1
 1760 003c 4346     		mov	r3, r8
 1761              	.LVL135:
 1762 003e 1BB2     		sxth	r3, r3
 1763 0040 9A46     		mov	r10, r3
 1764              	.LVL136:
 1765              	.L48:
  72:..\..\..\arduinoLCD\test\Pain Drain\libraries\lvgl\src\draw\sw/lv_draw_sw_arc.c ****     cir_dsc.blend_mode = dsc->blend_mode;
 1766              		.loc 1 72 0 is_stmt 1
 1767 0042 40AF     		add	r7, sp, #256
 1768 0044 3800     		movs	r0, r7
 1769              	.LVL137:
 1770 0046 FFF7FEFF 		bl	lv_draw_rect_dsc_init
 1771              	.LVL138:
  73:..\..\..\arduinoLCD\test\Pain Drain\libraries\lvgl\src\draw\sw/lv_draw_sw_arc.c ****     if(dsc->img_src) {
 1772              		.loc 1 73 0
 1773 004a 737B     		ldrb	r3, [r6, #13]
 1774 004c 9B07     		lsls	r3, r3, #30
 1775 004e 9B0F     		lsrs	r3, r3, #30
 1776 0050 BB70     		strb	r3, [r7, #2]
  74:..\..\..\arduinoLCD\test\Pain Drain\libraries\lvgl\src\draw\sw/lv_draw_sw_arc.c ****         cir_dsc.bg_opa = LV_OPA_TRANSP;
 1777              		.loc 1 74 0
 1778 0052 B268     		ldr	r2, [r6, #8]
 1779 0054 002A     		cmp	r2, #0
 1780 0056 06D0     		beq	.L49
  75:..\..\..\arduinoLCD\test\Pain Drain\libraries\lvgl\src\draw\sw/lv_draw_sw_arc.c ****         cir_dsc.bg_img_src = dsc->img_src;
 1781              		.loc 1 75 0
 1782 0058 40AB     		add	r3, sp, #256
 1783 005a 0021     		movs	r1, #0
 1784 005c D970     		strb	r1, [r3, #3]
  76:..\..\..\arduinoLCD\test\Pain Drain\libraries\lvgl\src\draw\sw/lv_draw_sw_arc.c ****         cir_dsc.bg_img_opa = dsc->opa;
 1785              		.loc 1 76 0
 1786 005e 4492     		str	r2, [sp, #272]
  77:..\..\..\arduinoLCD\test\Pain Drain\libraries\lvgl\src\draw\sw/lv_draw_sw_arc.c ****     }
 1787              		.loc 1 77 0
 1788 0060 327B     		ldrb	r2, [r6, #12]
 1789 0062 9A76     		strb	r2, [r3, #26]
 1790 0064 04E0     		b	.L50
ARM GAS  C:\Users\haske\AppData\Local\Temp\ccinSyc3.s 			page 42


 1791              	.L49:
  80:..\..\..\arduinoLCD\test\Pain Drain\libraries\lvgl\src\draw\sw/lv_draw_sw_arc.c ****         cir_dsc.bg_color = dsc->color;
 1792              		.loc 1 80 0
 1793 0066 327B     		ldrb	r2, [r6, #12]
 1794 0068 40AB     		add	r3, sp, #256
 1795 006a DA70     		strb	r2, [r3, #3]
  81:..\..\..\arduinoLCD\test\Pain Drain\libraries\lvgl\src\draw\sw/lv_draw_sw_arc.c ****     }
 1796              		.loc 1 81 0
 1797 006c 3288     		ldrh	r2, [r6]
 1798 006e 9A80     		strh	r2, [r3, #4]
 1799              	.L50:
  85:..\..\..\arduinoLCD\test\Pain Drain\libraries\lvgl\src\draw\sw/lv_draw_sw_arc.c ****     area_out.y1 = center->y - radius;
 1800              		.loc 1 85 0
 1801 0070 039A     		ldr	r2, [sp, #12]
 1802 0072 0021     		movs	r1, #0
 1803 0074 535E     		ldrsh	r3, [r2, r1]
 1804 0076 4146     		mov	r1, r8
 1805 0078 591A     		subs	r1, r3, r1
 1806 007a 89B2     		uxth	r1, r1
 1807 007c 3EA8     		add	r0, sp, #248
 1808 007e 0180     		strh	r1, [r0]
  86:..\..\..\arduinoLCD\test\Pain Drain\libraries\lvgl\src\draw\sw/lv_draw_sw_arc.c ****     area_out.x2 = center->x + radius - 1;  /*-1 because the center already belongs to the left/bott
 1809              		.loc 1 86 0
 1810 0080 0227     		movs	r7, #2
 1811 0082 D25F     		ldrsh	r2, [r2, r7]
 1812 0084 4746     		mov	r7, r8
 1813 0086 D71B     		subs	r7, r2, r7
 1814 0088 BFB2     		uxth	r7, r7
 1815 008a BC46     		mov	ip, r7
 1816 008c 4780     		strh	r7, [r0, #2]
  87:..\..\..\arduinoLCD\test\Pain Drain\libraries\lvgl\src\draw\sw/lv_draw_sw_arc.c ****     area_out.y2 = center->y + radius - 1;
 1817              		.loc 1 87 0
 1818 008e 4344     		add	r3, r3, r8
 1819 0090 013B     		subs	r3, r3, #1
 1820 0092 9BB2     		uxth	r3, r3
 1821 0094 8380     		strh	r3, [r0, #4]
  88:..\..\..\arduinoLCD\test\Pain Drain\libraries\lvgl\src\draw\sw/lv_draw_sw_arc.c **** 
 1822              		.loc 1 88 0
 1823 0096 4244     		add	r2, r2, r8
 1824 0098 013A     		subs	r2, r2, #1
 1825 009a 92B2     		uxth	r2, r2
 1826 009c 9146     		mov	r9, r2
 1827 009e C280     		strh	r2, [r0, #6]
 1828              	.LVL139:
 1829              	.LBB28:
 1830              	.LBB29:
 1831              		.file 2 "c:\\projects\\paindrain\\arduinolcd\\test\\pain drain\\libraries\\lvgl\\src\\misc\\lv_are
   1:c:\projects\paindrain\arduinolcd\test\pain drain\libraries\lvgl\src\misc\lv_area.h **** /**
   2:c:\projects\paindrain\arduinolcd\test\pain drain\libraries\lvgl\src\misc\lv_area.h ****  * @file lv_area.h
   3:c:\projects\paindrain\arduinolcd\test\pain drain\libraries\lvgl\src\misc\lv_area.h ****  *
   4:c:\projects\paindrain\arduinolcd\test\pain drain\libraries\lvgl\src\misc\lv_area.h ****  */
   5:c:\projects\paindrain\arduinolcd\test\pain drain\libraries\lvgl\src\misc\lv_area.h **** 
   6:c:\projects\paindrain\arduinolcd\test\pain drain\libraries\lvgl\src\misc\lv_area.h **** #ifndef LV_AREA_H
   7:c:\projects\paindrain\arduinolcd\test\pain drain\libraries\lvgl\src\misc\lv_area.h **** #define LV_AREA_H
   8:c:\projects\paindrain\arduinolcd\test\pain drain\libraries\lvgl\src\misc\lv_area.h **** 
   9:c:\projects\paindrain\arduinolcd\test\pain drain\libraries\lvgl\src\misc\lv_area.h **** #ifdef __cplusplus
  10:c:\projects\paindrain\arduinolcd\test\pain drain\libraries\lvgl\src\misc\lv_area.h **** extern "C" {
ARM GAS  C:\Users\haske\AppData\Local\Temp\ccinSyc3.s 			page 43


  11:c:\projects\paindrain\arduinolcd\test\pain drain\libraries\lvgl\src\misc\lv_area.h **** #endif
  12:c:\projects\paindrain\arduinolcd\test\pain drain\libraries\lvgl\src\misc\lv_area.h **** 
  13:c:\projects\paindrain\arduinolcd\test\pain drain\libraries\lvgl\src\misc\lv_area.h **** /*********************
  14:c:\projects\paindrain\arduinolcd\test\pain drain\libraries\lvgl\src\misc\lv_area.h ****  *      INCLUDES
  15:c:\projects\paindrain\arduinolcd\test\pain drain\libraries\lvgl\src\misc\lv_area.h ****  *********************/
  16:c:\projects\paindrain\arduinolcd\test\pain drain\libraries\lvgl\src\misc\lv_area.h **** #include "../lv_conf_internal.h"
  17:c:\projects\paindrain\arduinolcd\test\pain drain\libraries\lvgl\src\misc\lv_area.h **** #include <stdbool.h>
  18:c:\projects\paindrain\arduinolcd\test\pain drain\libraries\lvgl\src\misc\lv_area.h **** #include <stdint.h>
  19:c:\projects\paindrain\arduinolcd\test\pain drain\libraries\lvgl\src\misc\lv_area.h **** 
  20:c:\projects\paindrain\arduinolcd\test\pain drain\libraries\lvgl\src\misc\lv_area.h **** /*********************
  21:c:\projects\paindrain\arduinolcd\test\pain drain\libraries\lvgl\src\misc\lv_area.h ****  *      DEFINES
  22:c:\projects\paindrain\arduinolcd\test\pain drain\libraries\lvgl\src\misc\lv_area.h ****  *********************/
  23:c:\projects\paindrain\arduinolcd\test\pain drain\libraries\lvgl\src\misc\lv_area.h **** 
  24:c:\projects\paindrain\arduinolcd\test\pain drain\libraries\lvgl\src\misc\lv_area.h **** #if LV_USE_LARGE_COORD
  25:c:\projects\paindrain\arduinolcd\test\pain drain\libraries\lvgl\src\misc\lv_area.h **** typedef int32_t lv_coord_t;
  26:c:\projects\paindrain\arduinolcd\test\pain drain\libraries\lvgl\src\misc\lv_area.h **** #else
  27:c:\projects\paindrain\arduinolcd\test\pain drain\libraries\lvgl\src\misc\lv_area.h **** typedef int16_t lv_coord_t;
  28:c:\projects\paindrain\arduinolcd\test\pain drain\libraries\lvgl\src\misc\lv_area.h **** #endif
  29:c:\projects\paindrain\arduinolcd\test\pain drain\libraries\lvgl\src\misc\lv_area.h **** 
  30:c:\projects\paindrain\arduinolcd\test\pain drain\libraries\lvgl\src\misc\lv_area.h **** /**********************
  31:c:\projects\paindrain\arduinolcd\test\pain drain\libraries\lvgl\src\misc\lv_area.h ****  *      TYPEDEFS
  32:c:\projects\paindrain\arduinolcd\test\pain drain\libraries\lvgl\src\misc\lv_area.h ****  **********************/
  33:c:\projects\paindrain\arduinolcd\test\pain drain\libraries\lvgl\src\misc\lv_area.h **** 
  34:c:\projects\paindrain\arduinolcd\test\pain drain\libraries\lvgl\src\misc\lv_area.h **** /**
  35:c:\projects\paindrain\arduinolcd\test\pain drain\libraries\lvgl\src\misc\lv_area.h ****  * Represents a point on the screen.
  36:c:\projects\paindrain\arduinolcd\test\pain drain\libraries\lvgl\src\misc\lv_area.h ****  */
  37:c:\projects\paindrain\arduinolcd\test\pain drain\libraries\lvgl\src\misc\lv_area.h **** typedef struct {
  38:c:\projects\paindrain\arduinolcd\test\pain drain\libraries\lvgl\src\misc\lv_area.h ****     lv_coord_t x;
  39:c:\projects\paindrain\arduinolcd\test\pain drain\libraries\lvgl\src\misc\lv_area.h ****     lv_coord_t y;
  40:c:\projects\paindrain\arduinolcd\test\pain drain\libraries\lvgl\src\misc\lv_area.h **** } lv_point_t;
  41:c:\projects\paindrain\arduinolcd\test\pain drain\libraries\lvgl\src\misc\lv_area.h **** 
  42:c:\projects\paindrain\arduinolcd\test\pain drain\libraries\lvgl\src\misc\lv_area.h **** /** Represents an area of the screen.*/
  43:c:\projects\paindrain\arduinolcd\test\pain drain\libraries\lvgl\src\misc\lv_area.h **** typedef struct {
  44:c:\projects\paindrain\arduinolcd\test\pain drain\libraries\lvgl\src\misc\lv_area.h ****     lv_coord_t x1;
  45:c:\projects\paindrain\arduinolcd\test\pain drain\libraries\lvgl\src\misc\lv_area.h ****     lv_coord_t y1;
  46:c:\projects\paindrain\arduinolcd\test\pain drain\libraries\lvgl\src\misc\lv_area.h ****     lv_coord_t x2;
  47:c:\projects\paindrain\arduinolcd\test\pain drain\libraries\lvgl\src\misc\lv_area.h ****     lv_coord_t y2;
  48:c:\projects\paindrain\arduinolcd\test\pain drain\libraries\lvgl\src\misc\lv_area.h **** } lv_area_t;
  49:c:\projects\paindrain\arduinolcd\test\pain drain\libraries\lvgl\src\misc\lv_area.h **** 
  50:c:\projects\paindrain\arduinolcd\test\pain drain\libraries\lvgl\src\misc\lv_area.h **** /** Alignments*/
  51:c:\projects\paindrain\arduinolcd\test\pain drain\libraries\lvgl\src\misc\lv_area.h **** enum {
  52:c:\projects\paindrain\arduinolcd\test\pain drain\libraries\lvgl\src\misc\lv_area.h ****     LV_ALIGN_DEFAULT = 0,
  53:c:\projects\paindrain\arduinolcd\test\pain drain\libraries\lvgl\src\misc\lv_area.h ****     LV_ALIGN_TOP_LEFT,
  54:c:\projects\paindrain\arduinolcd\test\pain drain\libraries\lvgl\src\misc\lv_area.h ****     LV_ALIGN_TOP_MID,
  55:c:\projects\paindrain\arduinolcd\test\pain drain\libraries\lvgl\src\misc\lv_area.h ****     LV_ALIGN_TOP_RIGHT,
  56:c:\projects\paindrain\arduinolcd\test\pain drain\libraries\lvgl\src\misc\lv_area.h ****     LV_ALIGN_BOTTOM_LEFT,
  57:c:\projects\paindrain\arduinolcd\test\pain drain\libraries\lvgl\src\misc\lv_area.h ****     LV_ALIGN_BOTTOM_MID,
  58:c:\projects\paindrain\arduinolcd\test\pain drain\libraries\lvgl\src\misc\lv_area.h ****     LV_ALIGN_BOTTOM_RIGHT,
  59:c:\projects\paindrain\arduinolcd\test\pain drain\libraries\lvgl\src\misc\lv_area.h ****     LV_ALIGN_LEFT_MID,
  60:c:\projects\paindrain\arduinolcd\test\pain drain\libraries\lvgl\src\misc\lv_area.h ****     LV_ALIGN_RIGHT_MID,
  61:c:\projects\paindrain\arduinolcd\test\pain drain\libraries\lvgl\src\misc\lv_area.h ****     LV_ALIGN_CENTER,
  62:c:\projects\paindrain\arduinolcd\test\pain drain\libraries\lvgl\src\misc\lv_area.h **** 
  63:c:\projects\paindrain\arduinolcd\test\pain drain\libraries\lvgl\src\misc\lv_area.h ****     LV_ALIGN_OUT_TOP_LEFT,
  64:c:\projects\paindrain\arduinolcd\test\pain drain\libraries\lvgl\src\misc\lv_area.h ****     LV_ALIGN_OUT_TOP_MID,
  65:c:\projects\paindrain\arduinolcd\test\pain drain\libraries\lvgl\src\misc\lv_area.h ****     LV_ALIGN_OUT_TOP_RIGHT,
  66:c:\projects\paindrain\arduinolcd\test\pain drain\libraries\lvgl\src\misc\lv_area.h ****     LV_ALIGN_OUT_BOTTOM_LEFT,
  67:c:\projects\paindrain\arduinolcd\test\pain drain\libraries\lvgl\src\misc\lv_area.h ****     LV_ALIGN_OUT_BOTTOM_MID,
ARM GAS  C:\Users\haske\AppData\Local\Temp\ccinSyc3.s 			page 44


  68:c:\projects\paindrain\arduinolcd\test\pain drain\libraries\lvgl\src\misc\lv_area.h ****     LV_ALIGN_OUT_BOTTOM_RIGHT,
  69:c:\projects\paindrain\arduinolcd\test\pain drain\libraries\lvgl\src\misc\lv_area.h ****     LV_ALIGN_OUT_LEFT_TOP,
  70:c:\projects\paindrain\arduinolcd\test\pain drain\libraries\lvgl\src\misc\lv_area.h ****     LV_ALIGN_OUT_LEFT_MID,
  71:c:\projects\paindrain\arduinolcd\test\pain drain\libraries\lvgl\src\misc\lv_area.h ****     LV_ALIGN_OUT_LEFT_BOTTOM,
  72:c:\projects\paindrain\arduinolcd\test\pain drain\libraries\lvgl\src\misc\lv_area.h ****     LV_ALIGN_OUT_RIGHT_TOP,
  73:c:\projects\paindrain\arduinolcd\test\pain drain\libraries\lvgl\src\misc\lv_area.h ****     LV_ALIGN_OUT_RIGHT_MID,
  74:c:\projects\paindrain\arduinolcd\test\pain drain\libraries\lvgl\src\misc\lv_area.h ****     LV_ALIGN_OUT_RIGHT_BOTTOM,
  75:c:\projects\paindrain\arduinolcd\test\pain drain\libraries\lvgl\src\misc\lv_area.h **** };
  76:c:\projects\paindrain\arduinolcd\test\pain drain\libraries\lvgl\src\misc\lv_area.h **** typedef uint8_t lv_align_t;
  77:c:\projects\paindrain\arduinolcd\test\pain drain\libraries\lvgl\src\misc\lv_area.h **** 
  78:c:\projects\paindrain\arduinolcd\test\pain drain\libraries\lvgl\src\misc\lv_area.h **** enum {
  79:c:\projects\paindrain\arduinolcd\test\pain drain\libraries\lvgl\src\misc\lv_area.h ****     LV_DIR_NONE     = 0x00,
  80:c:\projects\paindrain\arduinolcd\test\pain drain\libraries\lvgl\src\misc\lv_area.h ****     LV_DIR_LEFT     = (1 << 0),
  81:c:\projects\paindrain\arduinolcd\test\pain drain\libraries\lvgl\src\misc\lv_area.h ****     LV_DIR_RIGHT    = (1 << 1),
  82:c:\projects\paindrain\arduinolcd\test\pain drain\libraries\lvgl\src\misc\lv_area.h ****     LV_DIR_TOP      = (1 << 2),
  83:c:\projects\paindrain\arduinolcd\test\pain drain\libraries\lvgl\src\misc\lv_area.h ****     LV_DIR_BOTTOM   = (1 << 3),
  84:c:\projects\paindrain\arduinolcd\test\pain drain\libraries\lvgl\src\misc\lv_area.h ****     LV_DIR_HOR      = LV_DIR_LEFT | LV_DIR_RIGHT,
  85:c:\projects\paindrain\arduinolcd\test\pain drain\libraries\lvgl\src\misc\lv_area.h ****     LV_DIR_VER      = LV_DIR_TOP | LV_DIR_BOTTOM,
  86:c:\projects\paindrain\arduinolcd\test\pain drain\libraries\lvgl\src\misc\lv_area.h ****     LV_DIR_ALL      = LV_DIR_HOR | LV_DIR_VER,
  87:c:\projects\paindrain\arduinolcd\test\pain drain\libraries\lvgl\src\misc\lv_area.h **** };
  88:c:\projects\paindrain\arduinolcd\test\pain drain\libraries\lvgl\src\misc\lv_area.h **** 
  89:c:\projects\paindrain\arduinolcd\test\pain drain\libraries\lvgl\src\misc\lv_area.h **** typedef uint8_t lv_dir_t;
  90:c:\projects\paindrain\arduinolcd\test\pain drain\libraries\lvgl\src\misc\lv_area.h **** 
  91:c:\projects\paindrain\arduinolcd\test\pain drain\libraries\lvgl\src\misc\lv_area.h **** /**********************
  92:c:\projects\paindrain\arduinolcd\test\pain drain\libraries\lvgl\src\misc\lv_area.h ****  * GLOBAL PROTOTYPES
  93:c:\projects\paindrain\arduinolcd\test\pain drain\libraries\lvgl\src\misc\lv_area.h ****  **********************/
  94:c:\projects\paindrain\arduinolcd\test\pain drain\libraries\lvgl\src\misc\lv_area.h **** 
  95:c:\projects\paindrain\arduinolcd\test\pain drain\libraries\lvgl\src\misc\lv_area.h **** /**
  96:c:\projects\paindrain\arduinolcd\test\pain drain\libraries\lvgl\src\misc\lv_area.h ****  * Initialize an area
  97:c:\projects\paindrain\arduinolcd\test\pain drain\libraries\lvgl\src\misc\lv_area.h ****  * @param area_p pointer to an area
  98:c:\projects\paindrain\arduinolcd\test\pain drain\libraries\lvgl\src\misc\lv_area.h ****  * @param x1 left coordinate of the area
  99:c:\projects\paindrain\arduinolcd\test\pain drain\libraries\lvgl\src\misc\lv_area.h ****  * @param y1 top coordinate of the area
 100:c:\projects\paindrain\arduinolcd\test\pain drain\libraries\lvgl\src\misc\lv_area.h ****  * @param x2 right coordinate of the area
 101:c:\projects\paindrain\arduinolcd\test\pain drain\libraries\lvgl\src\misc\lv_area.h ****  * @param y2 bottom coordinate of the area
 102:c:\projects\paindrain\arduinolcd\test\pain drain\libraries\lvgl\src\misc\lv_area.h ****  */
 103:c:\projects\paindrain\arduinolcd\test\pain drain\libraries\lvgl\src\misc\lv_area.h **** void lv_area_set(lv_area_t * area_p, lv_coord_t x1, lv_coord_t y1, lv_coord_t x2, lv_coord_t y2);
 104:c:\projects\paindrain\arduinolcd\test\pain drain\libraries\lvgl\src\misc\lv_area.h **** 
 105:c:\projects\paindrain\arduinolcd\test\pain drain\libraries\lvgl\src\misc\lv_area.h **** /**
 106:c:\projects\paindrain\arduinolcd\test\pain drain\libraries\lvgl\src\misc\lv_area.h ****  * Copy an area
 107:c:\projects\paindrain\arduinolcd\test\pain drain\libraries\lvgl\src\misc\lv_area.h ****  * @param dest pointer to the destination area
 108:c:\projects\paindrain\arduinolcd\test\pain drain\libraries\lvgl\src\misc\lv_area.h ****  * @param src pointer to the source area
 109:c:\projects\paindrain\arduinolcd\test\pain drain\libraries\lvgl\src\misc\lv_area.h ****  */
 110:c:\projects\paindrain\arduinolcd\test\pain drain\libraries\lvgl\src\misc\lv_area.h **** inline static void lv_area_copy(lv_area_t * dest, const lv_area_t * src)
 111:c:\projects\paindrain\arduinolcd\test\pain drain\libraries\lvgl\src\misc\lv_area.h **** {
 112:c:\projects\paindrain\arduinolcd\test\pain drain\libraries\lvgl\src\misc\lv_area.h ****     dest->x1 = src->x1;
 1832              		.loc 2 112 0
 1833 00a0 3CA8     		add	r0, sp, #240
 1834              	.LVL140:
 1835              	.LBE29:
 1836              	.LBE28:
  92:..\..\..\arduinoLCD\test\Pain Drain\libraries\lvgl\src\draw\sw/lv_draw_sw_arc.c ****     area_in.y1 += dsc->width;
 1837              		.loc 1 92 0
 1838 00a2 0222     		movs	r2, #2
 1839 00a4 B75E     		ldrsh	r7, [r6, r2]
 1840 00a6 BB46     		mov	fp, r7
 1841 00a8 6A46     		mov	r2, sp
 1842 00aa 9782     		strh	r7, [r2, #20]
ARM GAS  C:\Users\haske\AppData\Local\Temp\ccinSyc3.s 			page 45


 1843 00ac BFB2     		uxth	r7, r7
 1844 00ae C919     		adds	r1, r1, r7
 1845 00b0 89B2     		uxth	r1, r1
 1846 00b2 0180     		strh	r1, [r0]
  93:..\..\..\arduinoLCD\test\Pain Drain\libraries\lvgl\src\draw\sw/lv_draw_sw_arc.c ****     area_in.x2 -= dsc->width;
 1847              		.loc 1 93 0
 1848 00b4 6744     		add	r7, r7, ip
 1849 00b6 BAB2     		uxth	r2, r7
 1850 00b8 9446     		mov	ip, r2
 1851 00ba 4280     		strh	r2, [r0, #2]
  94:..\..\..\arduinoLCD\test\Pain Drain\libraries\lvgl\src\draw\sw/lv_draw_sw_arc.c ****     area_in.y2 -= dsc->width;
 1852              		.loc 1 94 0
 1853 00bc 5A46     		mov	r2, fp
 1854 00be 9B1A     		subs	r3, r3, r2
 1855 00c0 9BB2     		uxth	r3, r3
 1856 00c2 8380     		strh	r3, [r0, #4]
  95:..\..\..\arduinoLCD\test\Pain Drain\libraries\lvgl\src\draw\sw/lv_draw_sw_arc.c **** 
 1857              		.loc 1 95 0
 1858 00c4 4F46     		mov	r7, r9
 1859 00c6 BA1A     		subs	r2, r7, r2
 1860 00c8 92B2     		uxth	r2, r2
 1861 00ca C280     		strh	r2, [r0, #6]
 1862              	.LVL141:
 1863              	.LBB30:
 1864              	.LBB31:
 113:c:\projects\paindrain\arduinolcd\test\pain drain\libraries\lvgl\src\misc\lv_area.h ****     dest->y1 = src->y1;
 114:c:\projects\paindrain\arduinolcd\test\pain drain\libraries\lvgl\src\misc\lv_area.h ****     dest->x2 = src->x2;
 115:c:\projects\paindrain\arduinolcd\test\pain drain\libraries\lvgl\src\misc\lv_area.h ****     dest->y2 = src->y2;
 116:c:\projects\paindrain\arduinolcd\test\pain drain\libraries\lvgl\src\misc\lv_area.h **** }
 117:c:\projects\paindrain\arduinolcd\test\pain drain\libraries\lvgl\src\misc\lv_area.h **** 
 118:c:\projects\paindrain\arduinolcd\test\pain drain\libraries\lvgl\src\misc\lv_area.h **** /**
 119:c:\projects\paindrain\arduinolcd\test\pain drain\libraries\lvgl\src\misc\lv_area.h ****  * Get the width of an area
 120:c:\projects\paindrain\arduinolcd\test\pain drain\libraries\lvgl\src\misc\lv_area.h ****  * @param area_p pointer to an area
 121:c:\projects\paindrain\arduinolcd\test\pain drain\libraries\lvgl\src\misc\lv_area.h ****  * @return the width of the area (if x1 == x2 -> width = 1)
 122:c:\projects\paindrain\arduinolcd\test\pain drain\libraries\lvgl\src\misc\lv_area.h ****  */
 123:c:\projects\paindrain\arduinolcd\test\pain drain\libraries\lvgl\src\misc\lv_area.h **** static inline lv_coord_t lv_area_get_width(const lv_area_t * area_p)
 124:c:\projects\paindrain\arduinolcd\test\pain drain\libraries\lvgl\src\misc\lv_area.h **** {
 125:c:\projects\paindrain\arduinolcd\test\pain drain\libraries\lvgl\src\misc\lv_area.h ****     return (lv_coord_t)(area_p->x2 - area_p->x1 + 1);
 1865              		.loc 2 125 0
 1866 00cc 591A     		subs	r1, r3, r1
 1867 00ce 0131     		adds	r1, r1, #1
 1868 00d0 09B2     		sxth	r1, r1
 1869              	.LVL142:
 1870              	.LBE31:
 1871              	.LBE30:
 101:..\..\..\arduinoLCD\test\Pain Drain\libraries\lvgl\src\draw\sw/lv_draw_sw_arc.c ****         lv_draw_mask_radius_init(&mask_in_param, &area_in, LV_RADIUS_CIRCLE, true);
 1872              		.loc 1 101 0
 1873 00d2 0029     		cmp	r1, #0
 1874 00d4 13DD     		ble	.L68
 1875              	.LVL143:
 1876              	.LBB32:
 1877              	.LBB33:
 126:c:\projects\paindrain\arduinolcd\test\pain drain\libraries\lvgl\src\misc\lv_area.h **** }
 127:c:\projects\paindrain\arduinolcd\test\pain drain\libraries\lvgl\src\misc\lv_area.h **** 
 128:c:\projects\paindrain\arduinolcd\test\pain drain\libraries\lvgl\src\misc\lv_area.h **** /**
 129:c:\projects\paindrain\arduinolcd\test\pain drain\libraries\lvgl\src\misc\lv_area.h ****  * Get the height of an area
 130:c:\projects\paindrain\arduinolcd\test\pain drain\libraries\lvgl\src\misc\lv_area.h ****  * @param area_p pointer to an area
ARM GAS  C:\Users\haske\AppData\Local\Temp\ccinSyc3.s 			page 46


 131:c:\projects\paindrain\arduinolcd\test\pain drain\libraries\lvgl\src\misc\lv_area.h ****  * @return the height of the area (if y1 == y2 -> height = 1)
 132:c:\projects\paindrain\arduinolcd\test\pain drain\libraries\lvgl\src\misc\lv_area.h ****  */
 133:c:\projects\paindrain\arduinolcd\test\pain drain\libraries\lvgl\src\misc\lv_area.h **** static inline lv_coord_t lv_area_get_height(const lv_area_t * area_p)
 134:c:\projects\paindrain\arduinolcd\test\pain drain\libraries\lvgl\src\misc\lv_area.h **** {
 135:c:\projects\paindrain\arduinolcd\test\pain drain\libraries\lvgl\src\misc\lv_area.h ****     return (lv_coord_t)(area_p->y2 - area_p->y1 + 1);
 1878              		.loc 2 135 0
 1879 00d6 6346     		mov	r3, ip
 1880 00d8 D71A     		subs	r7, r2, r3
 1881 00da 0137     		adds	r7, r7, #1
 1882 00dc 3FB2     		sxth	r7, r7
 1883              	.LVL144:
 1884              	.LBE33:
 1885              	.LBE32:
 101:..\..\..\arduinoLCD\test\Pain Drain\libraries\lvgl\src\draw\sw/lv_draw_sw_arc.c ****         lv_draw_mask_radius_init(&mask_in_param, &area_in, LV_RADIUS_CIRCLE, true);
 1886              		.loc 1 101 0
 1887 00de 002F     		cmp	r7, #0
 1888 00e0 12DD     		ble	.L69
 102:..\..\..\arduinoLCD\test\Pain Drain\libraries\lvgl\src\draw\sw/lv_draw_sw_arc.c ****         mask_in_param_valid = true;
 1889              		.loc 1 102 0
 1890 00e2 0123     		movs	r3, #1
 1891 00e4 A14A     		ldr	r2, .L71
 1892 00e6 0100     		movs	r1, r0
 1893 00e8 36A8     		add	r0, sp, #216
 1894 00ea FFF7FEFF 		bl	lv_draw_mask_radius_init
 1895              	.LVL145:
 104:..\..\..\arduinoLCD\test\Pain Drain\libraries\lvgl\src\draw\sw/lv_draw_sw_arc.c ****     }
 1896              		.loc 1 104 0
 1897 00ee 0021     		movs	r1, #0
 1898 00f0 36A8     		add	r0, sp, #216
 1899 00f2 FFF7FEFF 		bl	lv_draw_mask_add
 1900              	.LVL146:
 1901 00f6 0590     		str	r0, [sp, #20]
 1902              	.LVL147:
 103:..\..\..\arduinoLCD\test\Pain Drain\libraries\lvgl\src\draw\sw/lv_draw_sw_arc.c ****         mask_in_id = lv_draw_mask_add(&mask_in_param, NULL);
 1903              		.loc 1 103 0
 1904 00f8 0123     		movs	r3, #1
 1905 00fa 9946     		mov	r9, r3
 1906 00fc 08E0     		b	.L51
 1907              	.LVL148:
 1908              	.L68:
 100:..\..\..\arduinoLCD\test\Pain Drain\libraries\lvgl\src\draw\sw/lv_draw_sw_arc.c ****     if(lv_area_get_width(&area_in) > 0 && lv_area_get_height(&area_in) > 0) {
 1909              		.loc 1 100 0
 1910 00fe 0023     		movs	r3, #0
 1911 0100 9946     		mov	r9, r3
  98:..\..\..\arduinoLCD\test\Pain Drain\libraries\lvgl\src\draw\sw/lv_draw_sw_arc.c ****     lv_draw_mask_radius_param_t mask_in_param;
 1912              		.loc 1 98 0
 1913 0102 013B     		subs	r3, r3, #1
 1914 0104 0593     		str	r3, [sp, #20]
 1915 0106 03E0     		b	.L51
 1916              	.L69:
 100:..\..\..\arduinoLCD\test\Pain Drain\libraries\lvgl\src\draw\sw/lv_draw_sw_arc.c ****     if(lv_area_get_width(&area_in) > 0 && lv_area_get_height(&area_in) > 0) {
 1917              		.loc 1 100 0
 1918 0108 0023     		movs	r3, #0
 1919 010a 9946     		mov	r9, r3
  98:..\..\..\arduinoLCD\test\Pain Drain\libraries\lvgl\src\draw\sw/lv_draw_sw_arc.c ****     lv_draw_mask_radius_param_t mask_in_param;
 1920              		.loc 1 98 0
 1921 010c 013B     		subs	r3, r3, #1
ARM GAS  C:\Users\haske\AppData\Local\Temp\ccinSyc3.s 			page 47


 1922 010e 0593     		str	r3, [sp, #20]
 1923              	.LVL149:
 1924              	.L51:
 108:..\..\..\arduinoLCD\test\Pain Drain\libraries\lvgl\src\draw\sw/lv_draw_sw_arc.c ****     int16_t mask_out_id = lv_draw_mask_add(&mask_out_param, NULL);
 1925              		.loc 1 108 0
 1926 0110 0023     		movs	r3, #0
 1927 0112 964A     		ldr	r2, .L71
 1928 0114 3EA9     		add	r1, sp, #248
 1929 0116 30A8     		add	r0, sp, #192
 1930 0118 FFF7FEFF 		bl	lv_draw_mask_radius_init
 1931              	.LVL150:
 109:..\..\..\arduinoLCD\test\Pain Drain\libraries\lvgl\src\draw\sw/lv_draw_sw_arc.c **** 
 1932              		.loc 1 109 0
 1933 011c 0021     		movs	r1, #0
 1934 011e 30A8     		add	r0, sp, #192
 1935 0120 FFF7FEFF 		bl	lv_draw_mask_add
 1936              	.LVL151:
 1937 0124 0690     		str	r0, [sp, #24]
 1938              	.LVL152:
 112:..\..\..\arduinoLCD\test\Pain Drain\libraries\lvgl\src\draw\sw/lv_draw_sw_arc.c ****         cir_dsc.radius = LV_RADIUS_CIRCLE;
 1939              		.loc 1 112 0
 1940 0126 2300     		movs	r3, r4
 1941 0128 6933     		adds	r3, r3, #105
 1942 012a FF33     		adds	r3, r3, #255
 1943 012c AB42     		cmp	r3, r5
 1944 012e 04D0     		beq	.L52
 112:..\..\..\arduinoLCD\test\Pain Drain\libraries\lvgl\src\draw\sw/lv_draw_sw_arc.c ****         cir_dsc.radius = LV_RADIUS_CIRCLE;
 1945              		.loc 1 112 0 is_stmt 0 discriminator 1
 1946 0130 2B00     		movs	r3, r5
 1947 0132 6933     		adds	r3, r3, #105
 1948 0134 FF33     		adds	r3, r3, #255
 1949 0136 9C42     		cmp	r4, r3
 1950 0138 1DD1     		bne	.L53
 1951              	.L52:
 113:..\..\..\arduinoLCD\test\Pain Drain\libraries\lvgl\src\draw\sw/lv_draw_sw_arc.c ****         lv_draw_rect(draw_ctx, &cir_dsc, &area_out);
 1952              		.loc 1 113 0 is_stmt 1
 1953 013a 40A9     		add	r1, sp, #256
 1954 013c 8B4B     		ldr	r3, .L71
 1955 013e 0B80     		strh	r3, [r1]
 114:..\..\..\arduinoLCD\test\Pain Drain\libraries\lvgl\src\draw\sw/lv_draw_sw_arc.c **** 
 1956              		.loc 1 114 0
 1957 0140 3EAA     		add	r2, sp, #248
 1958 0142 0498     		ldr	r0, [sp, #16]
 1959 0144 FFF7FEFF 		bl	lv_draw_rect
 1960              	.LVL153:
 116:..\..\..\arduinoLCD\test\Pain Drain\libraries\lvgl\src\draw\sw/lv_draw_sw_arc.c ****         if(mask_in_id != LV_MASK_ID_INV) lv_draw_mask_remove_id(mask_in_id);
 1961              		.loc 1 116 0
 1962 0148 0698     		ldr	r0, [sp, #24]
 1963 014a FFF7FEFF 		bl	lv_draw_mask_remove_id
 1964              	.LVL154:
 117:..\..\..\arduinoLCD\test\Pain Drain\libraries\lvgl\src\draw\sw/lv_draw_sw_arc.c **** 
 1965              		.loc 1 117 0
 1966 014e 059B     		ldr	r3, [sp, #20]
 1967 0150 5A1C     		adds	r2, r3, #1
 1968 0152 02D0     		beq	.L54
 117:..\..\..\arduinoLCD\test\Pain Drain\libraries\lvgl\src\draw\sw/lv_draw_sw_arc.c **** 
 1969              		.loc 1 117 0 is_stmt 0 discriminator 1
ARM GAS  C:\Users\haske\AppData\Local\Temp\ccinSyc3.s 			page 48


 1970 0154 1800     		movs	r0, r3
 1971 0156 FFF7FEFF 		bl	lv_draw_mask_remove_id
 1972              	.LVL155:
 1973              	.L54:
 119:..\..\..\arduinoLCD\test\Pain Drain\libraries\lvgl\src\draw\sw/lv_draw_sw_arc.c ****         if(mask_in_param_valid) {
 1974              		.loc 1 119 0 is_stmt 1
 1975 015a 30A8     		add	r0, sp, #192
 1976 015c FFF7FEFF 		bl	lv_draw_mask_free_param
 1977              	.LVL156:
 120:..\..\..\arduinoLCD\test\Pain Drain\libraries\lvgl\src\draw\sw/lv_draw_sw_arc.c ****             lv_draw_mask_free_param(&mask_in_param);
 1978              		.loc 1 120 0
 1979 0160 4B46     		mov	r3, r9
 1980 0162 002B     		cmp	r3, #0
 1981 0164 00D1     		bne	.LCB1791
 1982 0166 FAE0     		b	.L46	@long jump
 1983              	.LCB1791:
 121:..\..\..\arduinoLCD\test\Pain Drain\libraries\lvgl\src\draw\sw/lv_draw_sw_arc.c ****         }
 1984              		.loc 1 121 0
 1985 0168 36A8     		add	r0, sp, #216
 1986 016a FFF7FEFF 		bl	lv_draw_mask_free_param
 1987              	.LVL157:
 1988 016e F6E0     		b	.L46
 1989              	.LVL158:
 1990              	.L55:
 127:..\..\..\arduinoLCD\test\Pain Drain\libraries\lvgl\src\draw\sw/lv_draw_sw_arc.c ****     while(end_angle >= 360) end_angle -= 360;
 1991              		.loc 1 127 0 discriminator 2
 1992 0170 693C     		subs	r4, r4, #105
 1993              	.LVL159:
 1994 0172 FF3C     		subs	r4, r4, #255
 1995 0174 A4B2     		uxth	r4, r4
 1996              	.LVL160:
 1997              	.L53:
 127:..\..\..\arduinoLCD\test\Pain Drain\libraries\lvgl\src\draw\sw/lv_draw_sw_arc.c ****     while(end_angle >= 360) end_angle -= 360;
 1998              		.loc 1 127 0 is_stmt 0 discriminator 1
 1999 0176 6823     		movs	r3, #104
 2000 0178 FF33     		adds	r3, r3, #255
 2001 017a 9C42     		cmp	r4, r3
 2002 017c F8D8     		bhi	.L55
 2003 017e 02E0     		b	.L56
 2004              	.LVL161:
 2005              	.L57:
 128:..\..\..\arduinoLCD\test\Pain Drain\libraries\lvgl\src\draw\sw/lv_draw_sw_arc.c **** 
 2006              		.loc 1 128 0 is_stmt 1 discriminator 2
 2007 0180 693D     		subs	r5, r5, #105
 2008              	.LVL162:
 2009 0182 FF3D     		subs	r5, r5, #255
 2010 0184 ADB2     		uxth	r5, r5
 2011              	.LVL163:
 2012              	.L56:
 128:..\..\..\arduinoLCD\test\Pain Drain\libraries\lvgl\src\draw\sw/lv_draw_sw_arc.c **** 
 2013              		.loc 1 128 0 is_stmt 0 discriminator 1
 2014 0186 6823     		movs	r3, #104
 2015 0188 FF33     		adds	r3, r3, #255
 2016 018a 9D42     		cmp	r5, r3
 2017 018c F8D8     		bhi	.L57
 131:..\..\..\arduinoLCD\test\Pain Drain\libraries\lvgl\src\draw\sw/lv_draw_sw_arc.c ****     int16_t mask_angle_id = lv_draw_mask_add(&mask_angle_param, NULL);
 2018              		.loc 1 131 0 is_stmt 1
ARM GAS  C:\Users\haske\AppData\Local\Temp\ccinSyc3.s 			page 49


 2019 018e 23B2     		sxth	r3, r4
 2020 0190 0993     		str	r3, [sp, #36]
 2021 0192 2AB2     		sxth	r2, r5
 2022 0194 9346     		mov	fp, r2
 2023 0196 0399     		ldr	r1, [sp, #12]
 2024 0198 0220     		movs	r0, #2
 2025 019a 0A5E     		ldrsh	r2, [r1, r0]
 2026 019c 0020     		movs	r0, #0
 2027 019e 095E     		ldrsh	r1, [r1, r0]
 2028 01a0 5846     		mov	r0, fp
 2029 01a2 0090     		str	r0, [sp]
 2030 01a4 15A8     		add	r0, sp, #84
 2031 01a6 FFF7FEFF 		bl	lv_draw_mask_angle_init
 2032              	.LVL164:
 132:..\..\..\arduinoLCD\test\Pain Drain\libraries\lvgl\src\draw\sw/lv_draw_sw_arc.c **** 
 2033              		.loc 1 132 0
 2034 01aa 0021     		movs	r1, #0
 2035 01ac 15A8     		add	r0, sp, #84
 2036 01ae FFF7FEFF 		bl	lv_draw_mask_add
 2037              	.LVL165:
 2038 01b2 0890     		str	r0, [sp, #32]
 2039              	.LVL166:
 135:..\..\..\arduinoLCD\test\Pain Drain\libraries\lvgl\src\draw\sw/lv_draw_sw_arc.c ****         angle_gap = 360 - (end_angle - start_angle);
 2040              		.loc 1 135 0
 2041 01b4 AC42     		cmp	r4, r5
 2042 01b6 04D2     		bcs	.L58
 136:..\..\..\arduinoLCD\test\Pain Drain\libraries\lvgl\src\draw\sw/lv_draw_sw_arc.c ****     }
 2043              		.loc 1 136 0
 2044 01b8 2A1B     		subs	r2, r5, r4
 2045 01ba B423     		movs	r3, #180
 2046 01bc 5B00     		lsls	r3, r3, #1
 2047 01be 9B1A     		subs	r3, r3, r2
 2048              	.LVL167:
 2049 01c0 00E0     		b	.L59
 2050              	.LVL168:
 2051              	.L58:
 139:..\..\..\arduinoLCD\test\Pain Drain\libraries\lvgl\src\draw\sw/lv_draw_sw_arc.c ****     }
 2052              		.loc 1 139 0
 2053 01c2 631B     		subs	r3, r4, r5
 2054              	.LVL169:
 2055              	.L59:
 142:..\..\..\arduinoLCD\test\Pain Drain\libraries\lvgl\src\draw\sw/lv_draw_sw_arc.c **** 
 2056              		.loc 1 142 0
 2057 01c4 049A     		ldr	r2, [sp, #16]
 2058 01c6 9268     		ldr	r2, [r2, #8]
 2059 01c8 0792     		str	r2, [sp, #28]
 2060              	.LVL170:
 144:..\..\..\arduinoLCD\test\Pain Drain\libraries\lvgl\src\draw\sw/lv_draw_sw_arc.c ****         /*Handle each quarter individually and skip which is empty*/
 2061              		.loc 1 144 0
 2062 01ca 3C2B     		cmp	r3, #60
 2063 01cc 2BDD     		ble	.L60
 144:..\..\..\arduinoLCD\test\Pain Drain\libraries\lvgl\src\draw\sw/lv_draw_sw_arc.c ****         /*Handle each quarter individually and skip which is empty*/
 2064              		.loc 1 144 0 is_stmt 0 discriminator 1
 2065 01ce 4346     		mov	r3, r8
 2066              	.LVL171:
 2067 01d0 0A2B     		cmp	r3, #10
 2068 01d2 28D9     		bls	.L60
ARM GAS  C:\Users\haske\AppData\Local\Temp\ccinSyc3.s 			page 50


 2069              	.LBB34:
 147:..\..\..\arduinoLCD\test\Pain Drain\libraries\lvgl\src\draw\sw/lv_draw_sw_arc.c ****         q_dsc.radius = radius;
 2070              		.loc 1 147 0 is_stmt 1
 2071 01d4 0EAF     		add	r7, sp, #56
 2072 01d6 039B     		ldr	r3, [sp, #12]
 2073 01d8 0E93     		str	r3, [sp, #56]
 148:..\..\..\arduinoLCD\test\Pain Drain\libraries\lvgl\src\draw\sw/lv_draw_sw_arc.c ****         q_dsc.start_angle = start_angle;
 2074              		.loc 1 148 0
 2075 01da 4346     		mov	r3, r8
 2076 01dc BB80     		strh	r3, [r7, #4]
 149:..\..\..\arduinoLCD\test\Pain Drain\libraries\lvgl\src\draw\sw/lv_draw_sw_arc.c ****         q_dsc.end_angle = end_angle;
 2077              		.loc 1 149 0
 2078 01de FC80     		strh	r4, [r7, #6]
 150:..\..\..\arduinoLCD\test\Pain Drain\libraries\lvgl\src\draw\sw/lv_draw_sw_arc.c ****         q_dsc.start_quarter = (start_angle / 90) & 0x3;
 2079              		.loc 1 150 0
 2080 01e0 3D81     		strh	r5, [r7, #8]
 151:..\..\..\arduinoLCD\test\Pain Drain\libraries\lvgl\src\draw\sw/lv_draw_sw_arc.c ****         q_dsc.end_quarter = (end_angle / 90) & 0x3;
 2081              		.loc 1 151 0
 2082 01e2 5A21     		movs	r1, #90
 2083 01e4 2000     		movs	r0, r4
 2084 01e6 FFF7FEFF 		bl	__aeabi_uidiv
 2085              	.LVL172:
 2086 01ea 0324     		movs	r4, #3
 2087              	.LVL173:
 2088 01ec 2040     		ands	r0, r4
 2089 01ee 7881     		strh	r0, [r7, #10]
 152:..\..\..\arduinoLCD\test\Pain Drain\libraries\lvgl\src\draw\sw/lv_draw_sw_arc.c ****         q_dsc.width = width;
 2090              		.loc 1 152 0
 2091 01f0 5A21     		movs	r1, #90
 2092 01f2 2800     		movs	r0, r5
 2093 01f4 FFF7FEFF 		bl	__aeabi_uidiv
 2094              	.LVL174:
 2095 01f8 0440     		ands	r4, r0
 2096 01fa BC81     		strh	r4, [r7, #12]
 153:..\..\..\arduinoLCD\test\Pain Drain\libraries\lvgl\src\draw\sw/lv_draw_sw_arc.c ****         q_dsc.draw_dsc = &cir_dsc;
 2097              		.loc 1 153 0
 2098 01fc 5346     		mov	r3, r10
 2099 01fe FB81     		strh	r3, [r7, #14]
 154:..\..\..\arduinoLCD\test\Pain Drain\libraries\lvgl\src\draw\sw/lv_draw_sw_arc.c ****         q_dsc.draw_area = &area_out;
 2100              		.loc 1 154 0
 2101 0200 40AB     		add	r3, sp, #256
 2102 0202 3B61     		str	r3, [r7, #16]
 155:..\..\..\arduinoLCD\test\Pain Drain\libraries\lvgl\src\draw\sw/lv_draw_sw_arc.c ****         q_dsc.draw_ctx = draw_ctx;
 2103              		.loc 1 155 0
 2104 0204 3EAB     		add	r3, sp, #248
 2105 0206 7B61     		str	r3, [r7, #20]
 156:..\..\..\arduinoLCD\test\Pain Drain\libraries\lvgl\src\draw\sw/lv_draw_sw_arc.c **** 
 2106              		.loc 1 156 0
 2107 0208 049B     		ldr	r3, [sp, #16]
 2108 020a BB61     		str	r3, [r7, #24]
 158:..\..\..\arduinoLCD\test\Pain Drain\libraries\lvgl\src\draw\sw/lv_draw_sw_arc.c ****         draw_quarter_1(&q_dsc);
 2109              		.loc 1 158 0
 2110 020c 0EA8     		add	r0, sp, #56
 2111 020e FFF7FEFF 		bl	draw_quarter_0
 2112              	.LVL175:
 159:..\..\..\arduinoLCD\test\Pain Drain\libraries\lvgl\src\draw\sw/lv_draw_sw_arc.c ****         draw_quarter_2(&q_dsc);
 2113              		.loc 1 159 0
ARM GAS  C:\Users\haske\AppData\Local\Temp\ccinSyc3.s 			page 51


 2114 0212 0EA8     		add	r0, sp, #56
 2115 0214 FFF7FEFF 		bl	draw_quarter_1
 2116              	.LVL176:
 160:..\..\..\arduinoLCD\test\Pain Drain\libraries\lvgl\src\draw\sw/lv_draw_sw_arc.c ****         draw_quarter_3(&q_dsc);
 2117              		.loc 1 160 0
 2118 0218 0EA8     		add	r0, sp, #56
 2119 021a FFF7FEFF 		bl	draw_quarter_2
 2120              	.LVL177:
 161:..\..\..\arduinoLCD\test\Pain Drain\libraries\lvgl\src\draw\sw/lv_draw_sw_arc.c ****     }
 2121              		.loc 1 161 0
 2122 021e 0EA8     		add	r0, sp, #56
 2123 0220 FFF7FEFF 		bl	draw_quarter_3
 2124              	.LVL178:
 2125              	.LBE34:
 144:..\..\..\arduinoLCD\test\Pain Drain\libraries\lvgl\src\draw\sw/lv_draw_sw_arc.c ****         /*Handle each quarter individually and skip which is empty*/
 2126              		.loc 1 144 0
 2127 0224 04E0     		b	.L61
 2128              	.LVL179:
 2129              	.L60:
 164:..\..\..\arduinoLCD\test\Pain Drain\libraries\lvgl\src\draw\sw/lv_draw_sw_arc.c ****     }
 2130              		.loc 1 164 0
 2131 0226 3EAA     		add	r2, sp, #248
 2132              	.LVL180:
 2133 0228 40A9     		add	r1, sp, #256
 2134 022a 0498     		ldr	r0, [sp, #16]
 2135 022c FFF7FEFF 		bl	lv_draw_rect
 2136              	.LVL181:
 2137              	.L61:
 167:..\..\..\arduinoLCD\test\Pain Drain\libraries\lvgl\src\draw\sw/lv_draw_sw_arc.c ****     lv_draw_mask_free_param(&mask_out_param);
 2138              		.loc 1 167 0
 2139 0230 15A8     		add	r0, sp, #84
 2140 0232 FFF7FEFF 		bl	lv_draw_mask_free_param
 2141              	.LVL182:
 168:..\..\..\arduinoLCD\test\Pain Drain\libraries\lvgl\src\draw\sw/lv_draw_sw_arc.c ****     if(mask_in_param_valid) {
 2142              		.loc 1 168 0
 2143 0236 30A8     		add	r0, sp, #192
 2144 0238 FFF7FEFF 		bl	lv_draw_mask_free_param
 2145              	.LVL183:
 169:..\..\..\arduinoLCD\test\Pain Drain\libraries\lvgl\src\draw\sw/lv_draw_sw_arc.c ****         lv_draw_mask_free_param(&mask_in_param);
 2146              		.loc 1 169 0
 2147 023c 4B46     		mov	r3, r9
 2148 023e 002B     		cmp	r3, #0
 2149 0240 02D0     		beq	.L62
 170:..\..\..\arduinoLCD\test\Pain Drain\libraries\lvgl\src\draw\sw/lv_draw_sw_arc.c ****     }
 2150              		.loc 1 170 0
 2151 0242 36A8     		add	r0, sp, #216
 2152 0244 FFF7FEFF 		bl	lv_draw_mask_free_param
 2153              	.LVL184:
 2154              	.L62:
 173:..\..\..\arduinoLCD\test\Pain Drain\libraries\lvgl\src\draw\sw/lv_draw_sw_arc.c ****     lv_draw_mask_remove_id(mask_out_id);
 2155              		.loc 1 173 0
 2156 0248 0898     		ldr	r0, [sp, #32]
 2157 024a FFF7FEFF 		bl	lv_draw_mask_remove_id
 2158              	.LVL185:
 174:..\..\..\arduinoLCD\test\Pain Drain\libraries\lvgl\src\draw\sw/lv_draw_sw_arc.c ****     if(mask_in_id != LV_MASK_ID_INV) lv_draw_mask_remove_id(mask_in_id);
 2159              		.loc 1 174 0
 2160 024e 0698     		ldr	r0, [sp, #24]
ARM GAS  C:\Users\haske\AppData\Local\Temp\ccinSyc3.s 			page 52


 2161 0250 FFF7FEFF 		bl	lv_draw_mask_remove_id
 2162              	.LVL186:
 175:..\..\..\arduinoLCD\test\Pain Drain\libraries\lvgl\src\draw\sw/lv_draw_sw_arc.c **** 
 2163              		.loc 1 175 0
 2164 0254 059B     		ldr	r3, [sp, #20]
 2165 0256 5A1C     		adds	r2, r3, #1
 2166 0258 02D0     		beq	.L63
 175:..\..\..\arduinoLCD\test\Pain Drain\libraries\lvgl\src\draw\sw/lv_draw_sw_arc.c **** 
 2167              		.loc 1 175 0 is_stmt 0 discriminator 1
 2168 025a 1800     		movs	r0, r3
 2169 025c FFF7FEFF 		bl	lv_draw_mask_remove_id
 2170              	.LVL187:
 2171              	.L63:
 177:..\..\..\arduinoLCD\test\Pain Drain\libraries\lvgl\src\draw\sw/lv_draw_sw_arc.c **** 
 2172              		.loc 1 177 0 is_stmt 1
 2173 0260 737B     		ldrb	r3, [r6, #13]
 2174 0262 5B07     		lsls	r3, r3, #29
 2175 0264 00D4     		bmi	.LCB1975
 2176 0266 7AE0     		b	.L46	@long jump
 2177              	.LCB1975:
 2178              	.LBB35:
 182:..\..\..\arduinoLCD\test\Pain Drain\libraries\lvgl\src\draw\sw/lv_draw_sw_arc.c ****         round_area.x1 += center->x;
 2179              		.loc 1 182 0
 2180 0268 4346     		mov	r3, r8
 2181 026a 1DB2     		sxth	r5, r3
 2182              	.LVL188:
 2183 026c 5346     		mov	r3, r10
 2184 026e 6A46     		mov	r2, sp
 2185 0270 1375     		strb	r3, [r2, #20]
 2186              	.LVL189:
 2187 0272 147D     		ldrb	r4, [r2, #20]
 2188 0274 0AAB     		add	r3, sp, #40
 2189 0276 2200     		movs	r2, r4
 2190 0278 2900     		movs	r1, r5
 2191 027a 0998     		ldr	r0, [sp, #36]
 2192 027c FFF7FEFF 		bl	get_rounded_area
 2193              	.LVL190:
 183:..\..\..\arduinoLCD\test\Pain Drain\libraries\lvgl\src\draw\sw/lv_draw_sw_arc.c ****         round_area.x2 += center->x;
 2194              		.loc 1 183 0
 2195 0280 039E     		ldr	r6, [sp, #12]
 2196              	.LVL191:
 2197 0282 3300     		movs	r3, r6
 2198 0284 0020     		movs	r0, #0
 2199 0286 185E     		ldrsh	r0, [r3, r0]
 2200 0288 0AAB     		add	r3, sp, #40
 2201 028a 1988     		ldrh	r1, [r3]
 2202 028c 0918     		adds	r1, r1, r0
 2203 028e 1980     		strh	r1, [r3]
 184:..\..\..\arduinoLCD\test\Pain Drain\libraries\lvgl\src\draw\sw/lv_draw_sw_arc.c ****         round_area.y1 += center->y;
 2204              		.loc 1 184 0
 2205 0290 9A88     		ldrh	r2, [r3, #4]
 2206 0292 8218     		adds	r2, r0, r2
 2207 0294 9A80     		strh	r2, [r3, #4]
 185:..\..\..\arduinoLCD\test\Pain Drain\libraries\lvgl\src\draw\sw/lv_draw_sw_arc.c ****         round_area.y2 += center->y;
 2208              		.loc 1 185 0
 2209 0296 3200     		movs	r2, r6
 2210 0298 0220     		movs	r0, #2
ARM GAS  C:\Users\haske\AppData\Local\Temp\ccinSyc3.s 			page 53


 2211 029a 105E     		ldrsh	r0, [r2, r0]
 2212 029c 5988     		ldrh	r1, [r3, #2]
 2213 029e 0918     		adds	r1, r1, r0
 2214 02a0 5980     		strh	r1, [r3, #2]
 186:..\..\..\arduinoLCD\test\Pain Drain\libraries\lvgl\src\draw\sw/lv_draw_sw_arc.c ****         lv_area_t clip_area2;
 2215              		.loc 1 186 0
 2216 02a2 DA88     		ldrh	r2, [r3, #6]
 2217 02a4 8218     		adds	r2, r0, r2
 2218 02a6 DA80     		strh	r2, [r3, #6]
 188:..\..\..\arduinoLCD\test\Pain Drain\libraries\lvgl\src\draw\sw/lv_draw_sw_arc.c ****             lv_draw_mask_radius_init(&mask_end_param, &round_area, LV_RADIUS_CIRCLE, false);
 2219              		.loc 1 188 0
 2220 02a8 1A00     		movs	r2, r3
 2221 02aa 0799     		ldr	r1, [sp, #28]
 2222 02ac 0CA8     		add	r0, sp, #48
 2223 02ae FFF7FEFF 		bl	_lv_area_intersect
 2224              	.LVL192:
 2225 02b2 0028     		cmp	r0, #0
 2226 02b4 17D0     		beq	.L65
 2227              	.LBB36:
 189:..\..\..\arduinoLCD\test\Pain Drain\libraries\lvgl\src\draw\sw/lv_draw_sw_arc.c ****             int16_t mask_end_id = lv_draw_mask_add(&mask_end_param, NULL);
 2228              		.loc 1 189 0
 2229 02b6 0023     		movs	r3, #0
 2230 02b8 2C4A     		ldr	r2, .L71
 2231 02ba 0AA9     		add	r1, sp, #40
 2232 02bc 0EA8     		add	r0, sp, #56
 2233 02be FFF7FEFF 		bl	lv_draw_mask_radius_init
 2234              	.LVL193:
 190:..\..\..\arduinoLCD\test\Pain Drain\libraries\lvgl\src\draw\sw/lv_draw_sw_arc.c **** 
 2235              		.loc 1 190 0
 2236 02c2 0021     		movs	r1, #0
 2237 02c4 0EA8     		add	r0, sp, #56
 2238 02c6 FFF7FEFF 		bl	lv_draw_mask_add
 2239              	.LVL194:
 2240 02ca 0600     		movs	r6, r0
 2241              	.LVL195:
 192:..\..\..\arduinoLCD\test\Pain Drain\libraries\lvgl\src\draw\sw/lv_draw_sw_arc.c ****             lv_draw_rect(draw_ctx, &cir_dsc, &area_out);
 2242              		.loc 1 192 0
 2243 02cc 0CAB     		add	r3, sp, #48
 2244 02ce 0498     		ldr	r0, [sp, #16]
 2245 02d0 8360     		str	r3, [r0, #8]
 193:..\..\..\arduinoLCD\test\Pain Drain\libraries\lvgl\src\draw\sw/lv_draw_sw_arc.c ****             lv_draw_mask_remove_id(mask_end_id);
 2246              		.loc 1 193 0
 2247 02d2 3EAA     		add	r2, sp, #248
 2248 02d4 40A9     		add	r1, sp, #256
 2249 02d6 FFF7FEFF 		bl	lv_draw_rect
 2250              	.LVL196:
 194:..\..\..\arduinoLCD\test\Pain Drain\libraries\lvgl\src\draw\sw/lv_draw_sw_arc.c ****             lv_draw_mask_free_param(&mask_end_param);
 2251              		.loc 1 194 0
 2252 02da 3000     		movs	r0, r6
 2253 02dc FFF7FEFF 		bl	lv_draw_mask_remove_id
 2254              	.LVL197:
 195:..\..\..\arduinoLCD\test\Pain Drain\libraries\lvgl\src\draw\sw/lv_draw_sw_arc.c ****         }
 2255              		.loc 1 195 0
 2256 02e0 0EA8     		add	r0, sp, #56
 2257 02e2 FFF7FEFF 		bl	lv_draw_mask_free_param
 2258              	.LVL198:
 2259              	.L65:
ARM GAS  C:\Users\haske\AppData\Local\Temp\ccinSyc3.s 			page 54


 2260              	.LBE36:
 198:..\..\..\arduinoLCD\test\Pain Drain\libraries\lvgl\src\draw\sw/lv_draw_sw_arc.c ****         round_area.x1 += center->x;
 2261              		.loc 1 198 0
 2262 02e6 0AAB     		add	r3, sp, #40
 2263 02e8 2200     		movs	r2, r4
 2264 02ea 2900     		movs	r1, r5
 2265 02ec 5846     		mov	r0, fp
 2266 02ee FFF7FEFF 		bl	get_rounded_area
 2267              	.LVL199:
 199:..\..\..\arduinoLCD\test\Pain Drain\libraries\lvgl\src\draw\sw/lv_draw_sw_arc.c ****         round_area.x2 += center->x;
 2268              		.loc 1 199 0
 2269 02f2 039C     		ldr	r4, [sp, #12]
 2270 02f4 2300     		movs	r3, r4
 2271 02f6 0020     		movs	r0, #0
 2272 02f8 185E     		ldrsh	r0, [r3, r0]
 2273 02fa 0AAB     		add	r3, sp, #40
 2274 02fc 1988     		ldrh	r1, [r3]
 2275 02fe 0918     		adds	r1, r1, r0
 2276 0300 1980     		strh	r1, [r3]
 200:..\..\..\arduinoLCD\test\Pain Drain\libraries\lvgl\src\draw\sw/lv_draw_sw_arc.c ****         round_area.y1 += center->y;
 2277              		.loc 1 200 0
 2278 0302 9A88     		ldrh	r2, [r3, #4]
 2279 0304 8218     		adds	r2, r0, r2
 2280 0306 9A80     		strh	r2, [r3, #4]
 201:..\..\..\arduinoLCD\test\Pain Drain\libraries\lvgl\src\draw\sw/lv_draw_sw_arc.c ****         round_area.y2 += center->y;
 2281              		.loc 1 201 0
 2282 0308 2200     		movs	r2, r4
 2283 030a 0220     		movs	r0, #2
 2284 030c 105E     		ldrsh	r0, [r2, r0]
 2285 030e 5988     		ldrh	r1, [r3, #2]
 2286 0310 0918     		adds	r1, r1, r0
 2287 0312 5980     		strh	r1, [r3, #2]
 202:..\..\..\arduinoLCD\test\Pain Drain\libraries\lvgl\src\draw\sw/lv_draw_sw_arc.c ****         if(_lv_area_intersect(&clip_area2, clip_area_ori, &round_area)) {
 2288              		.loc 1 202 0
 2289 0314 DA88     		ldrh	r2, [r3, #6]
 2290 0316 8218     		adds	r2, r0, r2
 2291 0318 DA80     		strh	r2, [r3, #6]
 203:..\..\..\arduinoLCD\test\Pain Drain\libraries\lvgl\src\draw\sw/lv_draw_sw_arc.c ****             lv_draw_mask_radius_init(&mask_end_param, &round_area, LV_RADIUS_CIRCLE, false);
 2292              		.loc 1 203 0
 2293 031a 1A00     		movs	r2, r3
 2294 031c 0799     		ldr	r1, [sp, #28]
 2295 031e 0CA8     		add	r0, sp, #48
 2296 0320 FFF7FEFF 		bl	_lv_area_intersect
 2297              	.LVL200:
 2298 0324 0028     		cmp	r0, #0
 2299 0326 17D0     		beq	.L66
 2300              	.LBB37:
 204:..\..\..\arduinoLCD\test\Pain Drain\libraries\lvgl\src\draw\sw/lv_draw_sw_arc.c ****             int16_t mask_end_id = lv_draw_mask_add(&mask_end_param, NULL);
 2301              		.loc 1 204 0
 2302 0328 0023     		movs	r3, #0
 2303 032a 104A     		ldr	r2, .L71
 2304 032c 0AA9     		add	r1, sp, #40
 2305 032e 0EA8     		add	r0, sp, #56
 2306 0330 FFF7FEFF 		bl	lv_draw_mask_radius_init
 2307              	.LVL201:
 205:..\..\..\arduinoLCD\test\Pain Drain\libraries\lvgl\src\draw\sw/lv_draw_sw_arc.c **** 
 2308              		.loc 1 205 0
ARM GAS  C:\Users\haske\AppData\Local\Temp\ccinSyc3.s 			page 55


 2309 0334 0021     		movs	r1, #0
 2310 0336 0EA8     		add	r0, sp, #56
 2311 0338 FFF7FEFF 		bl	lv_draw_mask_add
 2312              	.LVL202:
 2313 033c 0400     		movs	r4, r0
 2314              	.LVL203:
 207:..\..\..\arduinoLCD\test\Pain Drain\libraries\lvgl\src\draw\sw/lv_draw_sw_arc.c ****             lv_draw_rect(draw_ctx, &cir_dsc, &area_out);
 2315              		.loc 1 207 0
 2316 033e 0CAB     		add	r3, sp, #48
 2317 0340 0498     		ldr	r0, [sp, #16]
 2318 0342 8360     		str	r3, [r0, #8]
 208:..\..\..\arduinoLCD\test\Pain Drain\libraries\lvgl\src\draw\sw/lv_draw_sw_arc.c ****             lv_draw_mask_remove_id(mask_end_id);
 2319              		.loc 1 208 0
 2320 0344 3EAA     		add	r2, sp, #248
 2321 0346 40A9     		add	r1, sp, #256
 2322 0348 FFF7FEFF 		bl	lv_draw_rect
 2323              	.LVL204:
 209:..\..\..\arduinoLCD\test\Pain Drain\libraries\lvgl\src\draw\sw/lv_draw_sw_arc.c ****             lv_draw_mask_free_param(&mask_end_param);
 2324              		.loc 1 209 0
 2325 034c 2000     		movs	r0, r4
 2326 034e FFF7FEFF 		bl	lv_draw_mask_remove_id
 2327              	.LVL205:
 210:..\..\..\arduinoLCD\test\Pain Drain\libraries\lvgl\src\draw\sw/lv_draw_sw_arc.c ****         }
 2328              		.loc 1 210 0
 2329 0352 0EA8     		add	r0, sp, #56
 2330 0354 FFF7FEFF 		bl	lv_draw_mask_free_param
 2331              	.LVL206:
 2332              	.L66:
 2333              	.LBE37:
 212:..\..\..\arduinoLCD\test\Pain Drain\libraries\lvgl\src\draw\sw/lv_draw_sw_arc.c ****     }
 2334              		.loc 1 212 0
 2335 0358 049B     		ldr	r3, [sp, #16]
 2336 035a 079A     		ldr	r2, [sp, #28]
 2337 035c 9A60     		str	r2, [r3, #8]
 2338              	.LVL207:
 2339              	.L46:
 2340              	.LBE35:
 223:..\..\..\arduinoLCD\test\Pain Drain\libraries\lvgl\src\draw\sw/lv_draw_sw_arc.c **** 
 2341              		.loc 1 223 0
 2342 035e 4FB0     		add	sp, sp, #316
 2343              		@ sp needed
 2344 0360 3CBC     		pop	{r2, r3, r4, r5}
 2345 0362 9046     		mov	r8, r2
 2346 0364 9946     		mov	r9, r3
 2347 0366 A246     		mov	r10, r4
 2348 0368 AB46     		mov	fp, r5
 2349 036a F0BD     		pop	{r4, r5, r6, r7, pc}
 2350              	.L72:
 2351              		.align	2
 2352              	.L71:
 2353 036c FF7F0000 		.word	32767
 2354              		.cfi_endproc
 2355              	.LFE56:
 2356              		.size	lv_draw_sw_arc, .-lv_draw_sw_arc
 2357              		.text
 2358              	.Letext0:
 2359              		.file 3 "c:\\program files (x86)\\cypress\\psoc creator\\4.4\\psoc creator\\import\\gnu\\arm\\5.4.
ARM GAS  C:\Users\haske\AppData\Local\Temp\ccinSyc3.s 			page 56


 2360              		.file 4 "c:\\program files (x86)\\cypress\\psoc creator\\4.4\\psoc creator\\import\\gnu\\arm\\5.4.
 2361              		.file 5 "c:\\projects\\paindrain\\arduinolcd\\test\\pain drain\\libraries\\lvgl\\src\\misc\\lv_typ
 2362              		.file 6 "c:\\program files (x86)\\cypress\\psoc creator\\4.4\\psoc creator\\import\\gnu\\arm\\5.4.
 2363              		.file 7 "c:\\projects\\paindrain\\arduinolcd\\test\\pain drain\\libraries\\lvgl\\src\\misc\\lv_col
 2364              		.file 8 "c:\\projects\\paindrain\\arduinolcd\\test\\pain drain\\libraries\\lvgl\\src\\font\\lv_fon
 2365              		.file 9 "c:\\projects\\paindrain\\arduinolcd\\test\\pain drain\\libraries\\lvgl\\src\\misc\\lv_txt
 2366              		.file 10 "c:\\projects\\paindrain\\arduinolcd\\test\\pain drain\\libraries\\lvgl\\src\\misc\\lv_bi
 2367              		.file 11 "c:\\projects\\paindrain\\arduinolcd\\test\\pain drain\\libraries\\lvgl\\src\\misc\\lv_st
 2368              		.file 12 "..\\..\\..\\arduinoLCD\\test\\Pain Drain\\libraries\\lvgl\\src\\draw\\sw\\../lv_draw_mas
 2369              		.file 13 "..\\..\\..\\arduinoLCD\\test\\Pain Drain\\libraries\\lvgl\\src\\draw\\sw\\../lv_img_buf.
 2370              		.file 14 "..\\..\\..\\arduinoLCD\\test\\Pain Drain\\libraries\\lvgl\\src\\draw\\sw\\../lv_draw_rec
 2371              		.file 15 "..\\..\\..\\arduinoLCD\\test\\Pain Drain\\libraries\\lvgl\\src\\draw\\sw\\../lv_draw_lab
 2372              		.file 16 "..\\..\\..\\arduinoLCD\\test\\Pain Drain\\libraries\\lvgl\\src\\draw\\sw\\../lv_draw_img
 2373              		.file 17 "..\\..\\..\\arduinoLCD\\test\\Pain Drain\\libraries\\lvgl\\src\\draw\\sw\\../lv_draw_lin
 2374              		.file 18 "..\\..\\..\\arduinoLCD\\test\\Pain Drain\\libraries\\lvgl\\src\\draw\\sw\\../lv_draw_arc
 2375              		.file 19 "..\\..\\..\\arduinoLCD\\test\\Pain Drain\\libraries\\lvgl\\src\\draw\\sw\\../lv_draw_lay
 2376              		.file 20 "..\\..\\..\\arduinoLCD\\test\\Pain Drain\\libraries\\lvgl\\src\\draw\\sw\\../lv_draw.h"
 2377              		.file 21 "c:\\projects\\paindrain\\arduinolcd\\test\\pain drain\\libraries\\lvgl\\src\\misc\\lv_ma
 2378              		.section	.debug_info,"",%progbits
 2379              	.Ldebug_info0:
 2380 0000 F21D0000 		.4byte	0x1df2
 2381 0004 0400     		.2byte	0x4
 2382 0006 00000000 		.4byte	.Ldebug_abbrev0
 2383 000a 04       		.byte	0x4
 2384 000b 01       		.uleb128 0x1
 2385 000c 1E030000 		.4byte	.LASF253
 2386 0010 0C       		.byte	0xc
 2387 0011 A3010000 		.4byte	.LASF254
 2388 0015 4E0B0000 		.4byte	.LASF255
 2389 0019 00000000 		.4byte	.Ldebug_ranges0+0
 2390 001d 00000000 		.4byte	0
 2391 0021 00000000 		.4byte	.Ldebug_line0
 2392 0025 02       		.uleb128 0x2
 2393 0026 AE080000 		.4byte	.LASF0
 2394 002a 03       		.byte	0x3
 2395 002b 1B       		.byte	0x1b
 2396 002c 30000000 		.4byte	0x30
 2397 0030 03       		.uleb128 0x3
 2398 0031 01       		.byte	0x1
 2399 0032 06       		.byte	0x6
 2400 0033 19020000 		.4byte	.LASF2
 2401 0037 02       		.uleb128 0x2
 2402 0038 4D010000 		.4byte	.LASF1
 2403 003c 03       		.byte	0x3
 2404 003d 1D       		.byte	0x1d
 2405 003e 42000000 		.4byte	0x42
 2406 0042 03       		.uleb128 0x3
 2407 0043 01       		.byte	0x1
 2408 0044 08       		.byte	0x8
 2409 0045 9F020000 		.4byte	.LASF3
 2410 0049 02       		.uleb128 0x2
 2411 004a AE090000 		.4byte	.LASF4
 2412 004e 03       		.byte	0x3
 2413 004f 29       		.byte	0x29
 2414 0050 54000000 		.4byte	0x54
 2415 0054 03       		.uleb128 0x3
 2416 0055 02       		.byte	0x2
ARM GAS  C:\Users\haske\AppData\Local\Temp\ccinSyc3.s 			page 57


 2417 0056 05       		.byte	0x5
 2418 0057 BC0A0000 		.4byte	.LASF5
 2419 005b 02       		.uleb128 0x2
 2420 005c 48040000 		.4byte	.LASF6
 2421 0060 03       		.byte	0x3
 2422 0061 2B       		.byte	0x2b
 2423 0062 66000000 		.4byte	0x66
 2424 0066 03       		.uleb128 0x3
 2425 0067 02       		.byte	0x2
 2426 0068 07       		.byte	0x7
 2427 0069 630C0000 		.4byte	.LASF7
 2428 006d 02       		.uleb128 0x2
 2429 006e BB0C0000 		.4byte	.LASF8
 2430 0072 03       		.byte	0x3
 2431 0073 3F       		.byte	0x3f
 2432 0074 78000000 		.4byte	0x78
 2433 0078 03       		.uleb128 0x3
 2434 0079 04       		.byte	0x4
 2435 007a 05       		.byte	0x5
 2436 007b 75010000 		.4byte	.LASF9
 2437 007f 02       		.uleb128 0x2
 2438 0080 33060000 		.4byte	.LASF10
 2439 0084 03       		.byte	0x3
 2440 0085 41       		.byte	0x41
 2441 0086 8A000000 		.4byte	0x8a
 2442 008a 03       		.uleb128 0x3
 2443 008b 04       		.byte	0x4
 2444 008c 07       		.byte	0x7
 2445 008d 6F050000 		.4byte	.LASF11
 2446 0091 03       		.uleb128 0x3
 2447 0092 08       		.byte	0x8
 2448 0093 05       		.byte	0x5
 2449 0094 57060000 		.4byte	.LASF12
 2450 0098 03       		.uleb128 0x3
 2451 0099 08       		.byte	0x8
 2452 009a 07       		.byte	0x7
 2453 009b CD080000 		.4byte	.LASF13
 2454 009f 04       		.uleb128 0x4
 2455 00a0 04       		.byte	0x4
 2456 00a1 05       		.byte	0x5
 2457 00a2 696E7400 		.ascii	"int\000"
 2458 00a6 03       		.uleb128 0x3
 2459 00a7 04       		.byte	0x4
 2460 00a8 07       		.byte	0x7
 2461 00a9 22070000 		.4byte	.LASF14
 2462 00ad 02       		.uleb128 0x2
 2463 00ae 00000000 		.4byte	.LASF15
 2464 00b2 04       		.byte	0x4
 2465 00b3 14       		.byte	0x14
 2466 00b4 25000000 		.4byte	0x25
 2467 00b8 02       		.uleb128 0x2
 2468 00b9 33020000 		.4byte	.LASF16
 2469 00bd 04       		.byte	0x4
 2470 00be 18       		.byte	0x18
 2471 00bf 37000000 		.4byte	0x37
 2472 00c3 02       		.uleb128 0x2
 2473 00c4 060B0000 		.4byte	.LASF17
ARM GAS  C:\Users\haske\AppData\Local\Temp\ccinSyc3.s 			page 58


 2474 00c8 04       		.byte	0x4
 2475 00c9 20       		.byte	0x20
 2476 00ca 49000000 		.4byte	0x49
 2477 00ce 02       		.uleb128 0x2
 2478 00cf F7080000 		.4byte	.LASF18
 2479 00d3 04       		.byte	0x4
 2480 00d4 24       		.byte	0x24
 2481 00d5 5B000000 		.4byte	0x5b
 2482 00d9 02       		.uleb128 0x2
 2483 00da 3C000000 		.4byte	.LASF19
 2484 00de 04       		.byte	0x4
 2485 00df 2C       		.byte	0x2c
 2486 00e0 6D000000 		.4byte	0x6d
 2487 00e4 02       		.uleb128 0x2
 2488 00e5 F40B0000 		.4byte	.LASF20
 2489 00e9 04       		.byte	0x4
 2490 00ea 30       		.byte	0x30
 2491 00eb 7F000000 		.4byte	0x7f
 2492 00ef 02       		.uleb128 0x2
 2493 00f0 1E080000 		.4byte	.LASF21
 2494 00f4 05       		.byte	0x5
 2495 00f5 2F       		.byte	0x2f
 2496 00f6 B8000000 		.4byte	0xb8
 2497 00fa 02       		.uleb128 0x2
 2498 00fb 07000000 		.4byte	.LASF22
 2499 00ff 06       		.byte	0x6
 2500 0100 D8       		.byte	0xd8
 2501 0101 A6000000 		.4byte	0xa6
 2502 0105 03       		.uleb128 0x3
 2503 0106 08       		.byte	0x8
 2504 0107 04       		.byte	0x4
 2505 0108 27080000 		.4byte	.LASF23
 2506 010c 03       		.uleb128 0x3
 2507 010d 04       		.byte	0x4
 2508 010e 07       		.byte	0x7
 2509 010f 14000000 		.4byte	.LASF24
 2510 0113 05       		.uleb128 0x5
 2511 0114 04       		.byte	0x4
 2512 0115 03       		.uleb128 0x3
 2513 0116 01       		.byte	0x1
 2514 0117 08       		.byte	0x8
 2515 0118 D1030000 		.4byte	.LASF25
 2516 011c 06       		.uleb128 0x6
 2517 011d 01       		.byte	0x1
 2518 011e 42000000 		.4byte	0x42
 2519 0122 07       		.byte	0x7
 2520 0123 29       		.byte	0x29
 2521 0124 77010000 		.4byte	0x177
 2522 0128 07       		.uleb128 0x7
 2523 0129 05070000 		.4byte	.LASF26
 2524 012d 00       		.byte	0
 2525 012e 07       		.uleb128 0x7
 2526 012f CF050000 		.4byte	.LASF27
 2527 0133 00       		.byte	0
 2528 0134 07       		.uleb128 0x7
 2529 0135 73090000 		.4byte	.LASF28
 2530 0139 19       		.byte	0x19
ARM GAS  C:\Users\haske\AppData\Local\Temp\ccinSyc3.s 			page 59


 2531 013a 07       		.uleb128 0x7
 2532 013b E3090000 		.4byte	.LASF29
 2533 013f 33       		.byte	0x33
 2534 0140 07       		.uleb128 0x7
 2535 0141 510A0000 		.4byte	.LASF30
 2536 0145 4C       		.byte	0x4c
 2537 0146 07       		.uleb128 0x7
 2538 0147 FC0A0000 		.4byte	.LASF31
 2539 014b 66       		.byte	0x66
 2540 014c 07       		.uleb128 0x7
 2541 014d 320B0000 		.4byte	.LASF32
 2542 0151 7F       		.byte	0x7f
 2543 0152 07       		.uleb128 0x7
 2544 0153 BF0B0000 		.4byte	.LASF33
 2545 0157 99       		.byte	0x99
 2546 0158 07       		.uleb128 0x7
 2547 0159 590C0000 		.4byte	.LASF34
 2548 015d B2       		.byte	0xb2
 2549 015e 07       		.uleb128 0x7
 2550 015f F60C0000 		.4byte	.LASF35
 2551 0163 CC       		.byte	0xcc
 2552 0164 07       		.uleb128 0x7
 2553 0165 700D0000 		.4byte	.LASF36
 2554 0169 E5       		.byte	0xe5
 2555 016a 07       		.uleb128 0x7
 2556 016b 00080000 		.4byte	.LASF37
 2557 016f FF       		.byte	0xff
 2558 0170 07       		.uleb128 0x7
 2559 0171 53080000 		.4byte	.LASF38
 2560 0175 FF       		.byte	0xff
 2561 0176 00       		.byte	0
 2562 0177 08       		.uleb128 0x8
 2563 0178 02       		.byte	0x2
 2564 0179 07       		.byte	0x7
 2565 017a D1       		.byte	0xd1
 2566 017b AD010000 		.4byte	0x1ad
 2567 017f 09       		.uleb128 0x9
 2568 0180 78020000 		.4byte	.LASF39
 2569 0184 07       		.byte	0x7
 2570 0185 D3       		.byte	0xd3
 2571 0186 CE000000 		.4byte	0xce
 2572 018a 02       		.byte	0x2
 2573 018b 05       		.byte	0x5
 2574 018c 0B       		.byte	0xb
 2575 018d 00       		.byte	0
 2576 018e 09       		.uleb128 0x9
 2577 018f 0A0C0000 		.4byte	.LASF40
 2578 0193 07       		.byte	0x7
 2579 0194 D4       		.byte	0xd4
 2580 0195 CE000000 		.4byte	0xce
 2581 0199 02       		.byte	0x2
 2582 019a 06       		.byte	0x6
 2583 019b 05       		.byte	0x5
 2584 019c 00       		.byte	0
 2585 019d 0A       		.uleb128 0xa
 2586 019e 72656400 		.ascii	"red\000"
 2587 01a2 07       		.byte	0x7
ARM GAS  C:\Users\haske\AppData\Local\Temp\ccinSyc3.s 			page 60


 2588 01a3 D5       		.byte	0xd5
 2589 01a4 CE000000 		.4byte	0xce
 2590 01a8 02       		.byte	0x2
 2591 01a9 05       		.byte	0x5
 2592 01aa 00       		.byte	0
 2593 01ab 00       		.byte	0
 2594 01ac 00       		.byte	0
 2595 01ad 0B       		.uleb128 0xb
 2596 01ae 02       		.byte	0x2
 2597 01af 07       		.byte	0x7
 2598 01b0 D0       		.byte	0xd0
 2599 01b1 CB010000 		.4byte	0x1cb
 2600 01b5 0C       		.uleb128 0xc
 2601 01b6 636800   		.ascii	"ch\000"
 2602 01b9 07       		.byte	0x7
 2603 01ba DC       		.byte	0xdc
 2604 01bb 77010000 		.4byte	0x177
 2605 01bf 0D       		.uleb128 0xd
 2606 01c0 CA090000 		.4byte	.LASF41
 2607 01c4 07       		.byte	0x7
 2608 01c5 DD       		.byte	0xdd
 2609 01c6 CE000000 		.4byte	0xce
 2610 01ca 00       		.byte	0
 2611 01cb 02       		.uleb128 0x2
 2612 01cc A00A0000 		.4byte	.LASF42
 2613 01d0 07       		.byte	0x7
 2614 01d1 DE       		.byte	0xde
 2615 01d2 AD010000 		.4byte	0x1ad
 2616 01d6 02       		.uleb128 0x2
 2617 01d7 0F090000 		.4byte	.LASF43
 2618 01db 07       		.byte	0x7
 2619 01dc EB       		.byte	0xeb
 2620 01dd CB010000 		.4byte	0x1cb
 2621 01e1 02       		.uleb128 0x2
 2622 01e2 2B000000 		.4byte	.LASF44
 2623 01e6 07       		.byte	0x7
 2624 01e7 F5       		.byte	0xf5
 2625 01e8 B8000000 		.4byte	0xb8
 2626 01ec 02       		.uleb128 0x2
 2627 01ed 980C0000 		.4byte	.LASF45
 2628 01f1 02       		.byte	0x2
 2629 01f2 1B       		.byte	0x1b
 2630 01f3 C3000000 		.4byte	0xc3
 2631 01f7 08       		.uleb128 0x8
 2632 01f8 04       		.byte	0x4
 2633 01f9 02       		.byte	0x2
 2634 01fa 25       		.byte	0x25
 2635 01fb 14020000 		.4byte	0x214
 2636 01ff 0E       		.uleb128 0xe
 2637 0200 7800     		.ascii	"x\000"
 2638 0202 02       		.byte	0x2
 2639 0203 26       		.byte	0x26
 2640 0204 EC010000 		.4byte	0x1ec
 2641 0208 00       		.byte	0
 2642 0209 0E       		.uleb128 0xe
 2643 020a 7900     		.ascii	"y\000"
 2644 020c 02       		.byte	0x2
ARM GAS  C:\Users\haske\AppData\Local\Temp\ccinSyc3.s 			page 61


 2645 020d 27       		.byte	0x27
 2646 020e EC010000 		.4byte	0x1ec
 2647 0212 02       		.byte	0x2
 2648 0213 00       		.byte	0
 2649 0214 02       		.uleb128 0x2
 2650 0215 4E000000 		.4byte	.LASF46
 2651 0219 02       		.byte	0x2
 2652 021a 28       		.byte	0x28
 2653 021b F7010000 		.4byte	0x1f7
 2654 021f 08       		.uleb128 0x8
 2655 0220 08       		.byte	0x8
 2656 0221 02       		.byte	0x2
 2657 0222 2B       		.byte	0x2b
 2658 0223 54020000 		.4byte	0x254
 2659 0227 0E       		.uleb128 0xe
 2660 0228 783100   		.ascii	"x1\000"
 2661 022b 02       		.byte	0x2
 2662 022c 2C       		.byte	0x2c
 2663 022d EC010000 		.4byte	0x1ec
 2664 0231 00       		.byte	0
 2665 0232 0E       		.uleb128 0xe
 2666 0233 793100   		.ascii	"y1\000"
 2667 0236 02       		.byte	0x2
 2668 0237 2D       		.byte	0x2d
 2669 0238 EC010000 		.4byte	0x1ec
 2670 023c 02       		.byte	0x2
 2671 023d 0E       		.uleb128 0xe
 2672 023e 783200   		.ascii	"x2\000"
 2673 0241 02       		.byte	0x2
 2674 0242 2E       		.byte	0x2e
 2675 0243 EC010000 		.4byte	0x1ec
 2676 0247 04       		.byte	0x4
 2677 0248 0E       		.uleb128 0xe
 2678 0249 793200   		.ascii	"y2\000"
 2679 024c 02       		.byte	0x2
 2680 024d 2F       		.byte	0x2f
 2681 024e EC010000 		.4byte	0x1ec
 2682 0252 06       		.byte	0x6
 2683 0253 00       		.byte	0
 2684 0254 02       		.uleb128 0x2
 2685 0255 D7040000 		.4byte	.LASF47
 2686 0259 02       		.byte	0x2
 2687 025a 30       		.byte	0x30
 2688 025b 1F020000 		.4byte	0x21f
 2689 025f 08       		.uleb128 0x8
 2690 0260 10       		.byte	0x10
 2691 0261 08       		.byte	0x8
 2692 0262 29       		.byte	0x29
 2693 0263 CE020000 		.4byte	0x2ce
 2694 0267 0F       		.uleb128 0xf
 2695 0268 B8050000 		.4byte	.LASF48
 2696 026c 08       		.byte	0x8
 2697 026d 2B       		.byte	0x2b
 2698 026e 56030000 		.4byte	0x356
 2699 0272 00       		.byte	0
 2700 0273 0F       		.uleb128 0xf
 2701 0274 0E000000 		.4byte	.LASF49
ARM GAS  C:\Users\haske\AppData\Local\Temp\ccinSyc3.s 			page 62


 2702 0278 08       		.byte	0x8
 2703 0279 2C       		.byte	0x2c
 2704 027a CE000000 		.4byte	0xce
 2705 027e 04       		.byte	0x4
 2706 027f 0F       		.uleb128 0xf
 2707 0280 AD0A0000 		.4byte	.LASF50
 2708 0284 08       		.byte	0x8
 2709 0285 2D       		.byte	0x2d
 2710 0286 CE000000 		.4byte	0xce
 2711 028a 06       		.byte	0x6
 2712 028b 0F       		.uleb128 0xf
 2713 028c 7C0A0000 		.4byte	.LASF51
 2714 0290 08       		.byte	0x8
 2715 0291 2E       		.byte	0x2e
 2716 0292 CE000000 		.4byte	0xce
 2717 0296 08       		.byte	0x8
 2718 0297 0F       		.uleb128 0xf
 2719 0298 F5020000 		.4byte	.LASF52
 2720 029c 08       		.byte	0x8
 2721 029d 2F       		.byte	0x2f
 2722 029e C3000000 		.4byte	0xc3
 2723 02a2 0A       		.byte	0xa
 2724 02a3 0F       		.uleb128 0xf
 2725 02a4 FB020000 		.4byte	.LASF53
 2726 02a8 08       		.byte	0x8
 2727 02a9 30       		.byte	0x30
 2728 02aa C3000000 		.4byte	0xc3
 2729 02ae 0C       		.byte	0xc
 2730 02af 0A       		.uleb128 0xa
 2731 02b0 62707000 		.ascii	"bpp\000"
 2732 02b4 08       		.byte	0x8
 2733 02b5 31       		.byte	0x31
 2734 02b6 B8000000 		.4byte	0xb8
 2735 02ba 01       		.byte	0x1
 2736 02bb 04       		.byte	0x4
 2737 02bc 04       		.byte	0x4
 2738 02bd 0E       		.byte	0xe
 2739 02be 09       		.uleb128 0x9
 2740 02bf 610D0000 		.4byte	.LASF54
 2741 02c3 08       		.byte	0x8
 2742 02c4 32       		.byte	0x32
 2743 02c5 B8000000 		.4byte	0xb8
 2744 02c9 01       		.byte	0x1
 2745 02ca 01       		.byte	0x1
 2746 02cb 03       		.byte	0x3
 2747 02cc 0E       		.byte	0xe
 2748 02cd 00       		.byte	0
 2749 02ce 10       		.uleb128 0x10
 2750 02cf 1C060000 		.4byte	.LASF177
 2751 02d3 1C       		.byte	0x1c
 2752 02d4 08       		.byte	0x8
 2753 02d5 40       		.byte	0x40
 2754 02d6 56030000 		.4byte	0x356
 2755 02da 0F       		.uleb128 0xf
 2756 02db AD0C0000 		.4byte	.LASF55
 2757 02df 08       		.byte	0x8
 2758 02e0 42       		.byte	0x42
ARM GAS  C:\Users\haske\AppData\Local\Temp\ccinSyc3.s 			page 63


 2759 02e1 97030000 		.4byte	0x397
 2760 02e5 00       		.byte	0
 2761 02e6 0F       		.uleb128 0xf
 2762 02e7 52020000 		.4byte	.LASF56
 2763 02eb 08       		.byte	0x8
 2764 02ec 45       		.byte	0x45
 2765 02ed BC030000 		.4byte	0x3bc
 2766 02f1 04       		.byte	0x4
 2767 02f2 0F       		.uleb128 0xf
 2768 02f3 76000000 		.4byte	.LASF57
 2769 02f7 08       		.byte	0x8
 2770 02f8 48       		.byte	0x48
 2771 02f9 EC010000 		.4byte	0x1ec
 2772 02fd 08       		.byte	0x8
 2773 02fe 0F       		.uleb128 0xf
 2774 02ff C60A0000 		.4byte	.LASF58
 2775 0303 08       		.byte	0x8
 2776 0304 49       		.byte	0x49
 2777 0305 EC010000 		.4byte	0x1ec
 2778 0309 0A       		.byte	0xa
 2779 030a 09       		.uleb128 0x9
 2780 030b 4D080000 		.4byte	.LASF59
 2781 030f 08       		.byte	0x8
 2782 0310 4A       		.byte	0x4a
 2783 0311 B8000000 		.4byte	0xb8
 2784 0315 01       		.byte	0x1
 2785 0316 02       		.byte	0x2
 2786 0317 06       		.byte	0x6
 2787 0318 0C       		.byte	0xc
 2788 0319 0F       		.uleb128 0xf
 2789 031a F5030000 		.4byte	.LASF60
 2790 031e 08       		.byte	0x8
 2791 031f 4C       		.byte	0x4c
 2792 0320 AD000000 		.4byte	0xad
 2793 0324 0D       		.byte	0xd
 2794 0325 0F       		.uleb128 0xf
 2795 0326 EB060000 		.4byte	.LASF61
 2796 032a 08       		.byte	0x8
 2797 032b 4D       		.byte	0x4d
 2798 032c AD000000 		.4byte	0xad
 2799 0330 0E       		.byte	0xe
 2800 0331 0E       		.uleb128 0xe
 2801 0332 64736300 		.ascii	"dsc\000"
 2802 0336 08       		.byte	0x8
 2803 0337 4F       		.byte	0x4f
 2804 0338 C2030000 		.4byte	0x3c2
 2805 033c 10       		.byte	0x10
 2806 033d 0F       		.uleb128 0xf
 2807 033e BB040000 		.4byte	.LASF62
 2808 0342 08       		.byte	0x8
 2809 0343 50       		.byte	0x50
 2810 0344 56030000 		.4byte	0x356
 2811 0348 14       		.byte	0x14
 2812 0349 0F       		.uleb128 0xf
 2813 034a A30C0000 		.4byte	.LASF63
 2814 034e 08       		.byte	0x8
 2815 034f 52       		.byte	0x52
ARM GAS  C:\Users\haske\AppData\Local\Temp\ccinSyc3.s 			page 64


 2816 0350 13010000 		.4byte	0x113
 2817 0354 18       		.byte	0x18
 2818 0355 00       		.byte	0
 2819 0356 11       		.uleb128 0x11
 2820 0357 04       		.byte	0x4
 2821 0358 5C030000 		.4byte	0x35c
 2822 035c 12       		.uleb128 0x12
 2823 035d CE020000 		.4byte	0x2ce
 2824 0361 02       		.uleb128 0x2
 2825 0362 BB070000 		.4byte	.LASF64
 2826 0366 08       		.byte	0x8
 2827 0367 33       		.byte	0x33
 2828 0368 5F020000 		.4byte	0x25f
 2829 036c 13       		.uleb128 0x13
 2830 036d 8A030000 		.4byte	0x38a
 2831 0371 8A030000 		.4byte	0x38a
 2832 0375 14       		.uleb128 0x14
 2833 0376 56030000 		.4byte	0x356
 2834 037a 14       		.uleb128 0x14
 2835 037b 91030000 		.4byte	0x391
 2836 037f 14       		.uleb128 0x14
 2837 0380 E4000000 		.4byte	0xe4
 2838 0384 14       		.uleb128 0x14
 2839 0385 E4000000 		.4byte	0xe4
 2840 0389 00       		.byte	0
 2841 038a 03       		.uleb128 0x3
 2842 038b 01       		.byte	0x1
 2843 038c 02       		.byte	0x2
 2844 038d 0F030000 		.4byte	.LASF65
 2845 0391 11       		.uleb128 0x11
 2846 0392 04       		.byte	0x4
 2847 0393 61030000 		.4byte	0x361
 2848 0397 11       		.uleb128 0x11
 2849 0398 04       		.byte	0x4
 2850 0399 6C030000 		.4byte	0x36c
 2851 039d 13       		.uleb128 0x13
 2852 039e B1030000 		.4byte	0x3b1
 2853 03a2 B1030000 		.4byte	0x3b1
 2854 03a6 14       		.uleb128 0x14
 2855 03a7 56030000 		.4byte	0x356
 2856 03ab 14       		.uleb128 0x14
 2857 03ac E4000000 		.4byte	0xe4
 2858 03b0 00       		.byte	0
 2859 03b1 11       		.uleb128 0x11
 2860 03b2 04       		.byte	0x4
 2861 03b3 B7030000 		.4byte	0x3b7
 2862 03b7 12       		.uleb128 0x12
 2863 03b8 B8000000 		.4byte	0xb8
 2864 03bc 11       		.uleb128 0x11
 2865 03bd 04       		.byte	0x4
 2866 03be 9D030000 		.4byte	0x39d
 2867 03c2 11       		.uleb128 0x11
 2868 03c3 04       		.byte	0x4
 2869 03c4 C8030000 		.4byte	0x3c8
 2870 03c8 15       		.uleb128 0x15
 2871 03c9 02       		.uleb128 0x2
 2872 03ca 100C0000 		.4byte	.LASF66
ARM GAS  C:\Users\haske\AppData\Local\Temp\ccinSyc3.s 			page 65


 2873 03ce 08       		.byte	0x8
 2874 03cf 54       		.byte	0x54
 2875 03d0 CE020000 		.4byte	0x2ce
 2876 03d4 02       		.uleb128 0x2
 2877 03d5 64090000 		.4byte	.LASF67
 2878 03d9 09       		.byte	0x9
 2879 03da 30       		.byte	0x30
 2880 03db B8000000 		.4byte	0xb8
 2881 03df 02       		.uleb128 0x2
 2882 03e0 DB060000 		.4byte	.LASF68
 2883 03e4 09       		.byte	0x9
 2884 03e5 42       		.byte	0x42
 2885 03e6 B8000000 		.4byte	0xb8
 2886 03ea 02       		.uleb128 0x2
 2887 03eb 01030000 		.4byte	.LASF69
 2888 03ef 0A       		.byte	0xa
 2889 03f0 2A       		.byte	0x2a
 2890 03f1 B8000000 		.4byte	0xb8
 2891 03f5 02       		.uleb128 0x2
 2892 03f6 82000000 		.4byte	.LASF70
 2893 03fa 0B       		.byte	0xb
 2894 03fb 5E       		.byte	0x5e
 2895 03fc B8000000 		.4byte	0xb8
 2896 0400 02       		.uleb128 0x2
 2897 0401 47060000 		.4byte	.LASF71
 2898 0405 0B       		.byte	0xb
 2899 0406 6A       		.byte	0x6a
 2900 0407 B8000000 		.4byte	0xb8
 2901 040b 02       		.uleb128 0x2
 2902 040c 290A0000 		.4byte	.LASF72
 2903 0410 0B       		.byte	0xb
 2904 0411 79       		.byte	0x79
 2905 0412 B8000000 		.4byte	0xb8
 2906 0416 02       		.uleb128 0x2
 2907 0417 C50C0000 		.4byte	.LASF73
 2908 041b 0B       		.byte	0xb
 2909 041c 84       		.byte	0x84
 2910 041d B8000000 		.4byte	0xb8
 2911 0421 02       		.uleb128 0x2
 2912 0422 33080000 		.4byte	.LASF74
 2913 0426 0B       		.byte	0xb
 2914 0427 90       		.byte	0x90
 2915 0428 B8000000 		.4byte	0xb8
 2916 042c 08       		.uleb128 0x8
 2917 042d 04       		.byte	0x4
 2918 042e 0B       		.byte	0xb
 2919 042f 95       		.byte	0x95
 2920 0430 4D040000 		.4byte	0x44d
 2921 0434 0F       		.uleb128 0xf
 2922 0435 ED090000 		.4byte	.LASF75
 2923 0439 0B       		.byte	0xb
 2924 043a 96       		.byte	0x96
 2925 043b D6010000 		.4byte	0x1d6
 2926 043f 00       		.byte	0
 2927 0440 0F       		.uleb128 0xf
 2928 0441 3A0A0000 		.4byte	.LASF76
 2929 0445 0B       		.byte	0xb
ARM GAS  C:\Users\haske\AppData\Local\Temp\ccinSyc3.s 			page 66


 2930 0446 97       		.byte	0x97
 2931 0447 B8000000 		.4byte	0xb8
 2932 044b 02       		.byte	0x2
 2933 044c 00       		.byte	0
 2934 044d 02       		.uleb128 0x2
 2935 044e AC0B0000 		.4byte	.LASF77
 2936 0452 0B       		.byte	0xb
 2937 0453 98       		.byte	0x98
 2938 0454 2C040000 		.4byte	0x42c
 2939 0458 08       		.uleb128 0x8
 2940 0459 0A       		.byte	0xa
 2941 045a 0B       		.byte	0xb
 2942 045b 9B       		.byte	0x9b
 2943 045c 97040000 		.4byte	0x497
 2944 0460 0F       		.uleb128 0xf
 2945 0461 F3090000 		.4byte	.LASF78
 2946 0465 0B       		.byte	0xb
 2947 0466 9C       		.byte	0x9c
 2948 0467 97040000 		.4byte	0x497
 2949 046b 00       		.byte	0
 2950 046c 0F       		.uleb128 0xf
 2951 046d 3C040000 		.4byte	.LASF79
 2952 0471 0B       		.byte	0xb
 2953 0472 9D       		.byte	0x9d
 2954 0473 B8000000 		.4byte	0xb8
 2955 0477 08       		.byte	0x8
 2956 0478 0A       		.uleb128 0xa
 2957 0479 64697200 		.ascii	"dir\000"
 2958 047d 0B       		.byte	0xb
 2959 047e 9E       		.byte	0x9e
 2960 047f 16040000 		.4byte	0x416
 2961 0483 01       		.byte	0x1
 2962 0484 03       		.byte	0x3
 2963 0485 05       		.byte	0x5
 2964 0486 09       		.byte	0x9
 2965 0487 09       		.uleb128 0x9
 2966 0488 520C0000 		.4byte	.LASF80
 2967 048c 0B       		.byte	0xb
 2968 048d A0       		.byte	0xa0
 2969 048e 21040000 		.4byte	0x421
 2970 0492 01       		.byte	0x1
 2971 0493 03       		.byte	0x3
 2972 0494 02       		.byte	0x2
 2973 0495 09       		.byte	0x9
 2974 0496 00       		.byte	0
 2975 0497 16       		.uleb128 0x16
 2976 0498 4D040000 		.4byte	0x44d
 2977 049c A7040000 		.4byte	0x4a7
 2978 04a0 17       		.uleb128 0x17
 2979 04a1 0C010000 		.4byte	0x10c
 2980 04a5 01       		.byte	0x1
 2981 04a6 00       		.byte	0
 2982 04a7 02       		.uleb128 0x2
 2983 04a8 4D0D0000 		.4byte	.LASF81
 2984 04ac 0B       		.byte	0xb
 2985 04ad A2       		.byte	0xa2
 2986 04ae 58040000 		.4byte	0x458
ARM GAS  C:\Users\haske\AppData\Local\Temp\ccinSyc3.s 			page 67


 2987 04b2 11       		.uleb128 0x11
 2988 04b3 04       		.byte	0x4
 2989 04b4 B8000000 		.4byte	0xb8
 2990 04b8 02       		.uleb128 0x2
 2991 04b9 BD000000 		.4byte	.LASF82
 2992 04bd 0C       		.byte	0xc
 2993 04be 2B       		.byte	0x2b
 2994 04bf B8000000 		.4byte	0xb8
 2995 04c3 02       		.uleb128 0x2
 2996 04c4 D60B0000 		.4byte	.LASF83
 2997 04c8 0C       		.byte	0xc
 2998 04c9 4F       		.byte	0x4f
 2999 04ca B8000000 		.4byte	0xb8
 3000 04ce 02       		.uleb128 0x2
 3001 04cf 1A090000 		.4byte	.LASF84
 3002 04d3 0C       		.byte	0xc
 3003 04d4 5C       		.byte	0x5c
 3004 04d5 D9040000 		.4byte	0x4d9
 3005 04d9 11       		.uleb128 0x11
 3006 04da 04       		.byte	0x4
 3007 04db DF040000 		.4byte	0x4df
 3008 04df 13       		.uleb128 0x13
 3009 04e0 B8040000 		.4byte	0x4b8
 3010 04e4 02050000 		.4byte	0x502
 3011 04e8 14       		.uleb128 0x14
 3012 04e9 02050000 		.4byte	0x502
 3013 04ed 14       		.uleb128 0x14
 3014 04ee EC010000 		.4byte	0x1ec
 3015 04f2 14       		.uleb128 0x14
 3016 04f3 EC010000 		.4byte	0x1ec
 3017 04f7 14       		.uleb128 0x14
 3018 04f8 EC010000 		.4byte	0x1ec
 3019 04fc 14       		.uleb128 0x14
 3020 04fd 13010000 		.4byte	0x113
 3021 0501 00       		.byte	0
 3022 0502 11       		.uleb128 0x11
 3023 0503 04       		.byte	0x4
 3024 0504 E1010000 		.4byte	0x1e1
 3025 0508 02       		.uleb128 0x2
 3026 0509 DD070000 		.4byte	.LASF85
 3027 050d 0C       		.byte	0xc
 3028 050e 60       		.byte	0x60
 3029 050f B8000000 		.4byte	0xb8
 3030 0513 08       		.uleb128 0x8
 3031 0514 08       		.byte	0x8
 3032 0515 0C       		.byte	0xc
 3033 0516 62       		.byte	0x62
 3034 0517 33050000 		.4byte	0x533
 3035 051b 0E       		.uleb128 0xe
 3036 051c 636200   		.ascii	"cb\000"
 3037 051f 0C       		.byte	0xc
 3038 0520 63       		.byte	0x63
 3039 0521 CE040000 		.4byte	0x4ce
 3040 0525 00       		.byte	0
 3041 0526 0F       		.uleb128 0xf
 3042 0527 24010000 		.4byte	.LASF86
 3043 052b 0C       		.byte	0xc
ARM GAS  C:\Users\haske\AppData\Local\Temp\ccinSyc3.s 			page 68


 3044 052c 64       		.byte	0x64
 3045 052d C3040000 		.4byte	0x4c3
 3046 0531 04       		.byte	0x4
 3047 0532 00       		.byte	0
 3048 0533 02       		.uleb128 0x2
 3049 0534 180D0000 		.4byte	.LASF87
 3050 0538 0C       		.byte	0xc
 3051 0539 65       		.byte	0x65
 3052 053a 13050000 		.4byte	0x513
 3053 053e 08       		.uleb128 0x8
 3054 053f 0A       		.byte	0xa
 3055 0540 0C       		.byte	0xc
 3056 0541 6B       		.byte	0x6b
 3057 0542 6C050000 		.4byte	0x56c
 3058 0546 0E       		.uleb128 0xe
 3059 0547 703100   		.ascii	"p1\000"
 3060 054a 0C       		.byte	0xc
 3061 054b 6D       		.byte	0x6d
 3062 054c 14020000 		.4byte	0x214
 3063 0550 00       		.byte	0
 3064 0551 0E       		.uleb128 0xe
 3065 0552 703200   		.ascii	"p2\000"
 3066 0555 0C       		.byte	0xc
 3067 0556 70       		.byte	0x70
 3068 0557 14020000 		.4byte	0x214
 3069 055b 04       		.byte	0x4
 3070 055c 09       		.uleb128 0x9
 3071 055d 000D0000 		.4byte	.LASF88
 3072 0561 0C       		.byte	0xc
 3073 0562 73       		.byte	0x73
 3074 0563 08050000 		.4byte	0x508
 3075 0567 01       		.byte	0x1
 3076 0568 02       		.byte	0x2
 3077 0569 06       		.byte	0x6
 3078 056a 08       		.byte	0x8
 3079 056b 00       		.byte	0
 3080 056c 08       		.uleb128 0x8
 3081 056d 2C       		.byte	0x2c
 3082 056e 0C       		.byte	0xc
 3083 056f 67       		.byte	0x67
 3084 0570 E7050000 		.4byte	0x5e7
 3085 0574 0E       		.uleb128 0xe
 3086 0575 64736300 		.ascii	"dsc\000"
 3087 0579 0C       		.byte	0xc
 3088 057a 69       		.byte	0x69
 3089 057b 33050000 		.4byte	0x533
 3090 057f 00       		.byte	0
 3091 0580 0E       		.uleb128 0xe
 3092 0581 63666700 		.ascii	"cfg\000"
 3093 0585 0C       		.byte	0xc
 3094 0586 74       		.byte	0x74
 3095 0587 3E050000 		.4byte	0x53e
 3096 058b 08       		.byte	0x8
 3097 058c 0F       		.uleb128 0xf
 3098 058d 1C070000 		.4byte	.LASF89
 3099 0591 0C       		.byte	0xc
 3100 0592 77       		.byte	0x77
ARM GAS  C:\Users\haske\AppData\Local\Temp\ccinSyc3.s 			page 69


 3101 0593 14020000 		.4byte	0x214
 3102 0597 12       		.byte	0x12
 3103 0598 0F       		.uleb128 0xf
 3104 0599 13070000 		.4byte	.LASF90
 3105 059d 0C       		.byte	0xc
 3106 059e 7A       		.byte	0x7a
 3107 059f D9000000 		.4byte	0xd9
 3108 05a3 18       		.byte	0x18
 3109 05a4 0F       		.uleb128 0xf
 3110 05a5 6C010000 		.4byte	.LASF91
 3111 05a9 0C       		.byte	0xc
 3112 05aa 7D       		.byte	0x7d
 3113 05ab D9000000 		.4byte	0xd9
 3114 05af 1C       		.byte	0x1c
 3115 05b0 0F       		.uleb128 0xf
 3116 05b1 3E050000 		.4byte	.LASF92
 3117 05b5 0C       		.byte	0xc
 3118 05b6 80       		.byte	0x80
 3119 05b7 D9000000 		.4byte	0xd9
 3120 05bb 20       		.byte	0x20
 3121 05bc 0E       		.uleb128 0xe
 3122 05bd 73707800 		.ascii	"spx\000"
 3123 05c1 0C       		.byte	0xc
 3124 05c2 83       		.byte	0x83
 3125 05c3 D9000000 		.4byte	0xd9
 3126 05c7 24       		.byte	0x24
 3127 05c8 09       		.uleb128 0x9
 3128 05c9 80070000 		.4byte	.LASF93
 3129 05cd 0C       		.byte	0xc
 3130 05ce 86       		.byte	0x86
 3131 05cf B8000000 		.4byte	0xb8
 3132 05d3 01       		.byte	0x1
 3133 05d4 01       		.byte	0x1
 3134 05d5 07       		.byte	0x7
 3135 05d6 28       		.byte	0x28
 3136 05d7 0A       		.uleb128 0xa
 3137 05d8 696E7600 		.ascii	"inv\000"
 3138 05dc 0C       		.byte	0xc
 3139 05dd 8A       		.byte	0x8a
 3140 05de B8000000 		.4byte	0xb8
 3141 05e2 01       		.byte	0x1
 3142 05e3 01       		.byte	0x1
 3143 05e4 06       		.byte	0x6
 3144 05e5 28       		.byte	0x28
 3145 05e6 00       		.byte	0
 3146 05e7 02       		.uleb128 0x2
 3147 05e8 94090000 		.4byte	.LASF94
 3148 05ec 0C       		.byte	0xc
 3149 05ed 8B       		.byte	0x8b
 3150 05ee 6C050000 		.4byte	0x56c
 3151 05f2 08       		.uleb128 0x8
 3152 05f3 08       		.byte	0x8
 3153 05f4 0C       		.byte	0xc
 3154 05f5 91       		.byte	0x91
 3155 05f6 1F060000 		.4byte	0x61f
 3156 05fa 0F       		.uleb128 0xf
 3157 05fb 3E060000 		.4byte	.LASF95
ARM GAS  C:\Users\haske\AppData\Local\Temp\ccinSyc3.s 			page 70


 3158 05ff 0C       		.byte	0xc
 3159 0600 92       		.byte	0x92
 3160 0601 14020000 		.4byte	0x214
 3161 0605 00       		.byte	0
 3162 0606 0F       		.uleb128 0xf
 3163 0607 93050000 		.4byte	.LASF96
 3164 060b 0C       		.byte	0xc
 3165 060c 93       		.byte	0x93
 3166 060d EC010000 		.4byte	0x1ec
 3167 0611 04       		.byte	0x4
 3168 0612 0F       		.uleb128 0xf
 3169 0613 6E020000 		.4byte	.LASF97
 3170 0617 0C       		.byte	0xc
 3171 0618 94       		.byte	0x94
 3172 0619 EC010000 		.4byte	0x1ec
 3173 061d 06       		.byte	0x6
 3174 061e 00       		.byte	0
 3175 061f 08       		.uleb128 0x8
 3176 0620 6C       		.byte	0x6c
 3177 0621 0C       		.byte	0xc
 3178 0622 8D       		.byte	0x8d
 3179 0623 64060000 		.4byte	0x664
 3180 0627 0E       		.uleb128 0xe
 3181 0628 64736300 		.ascii	"dsc\000"
 3182 062c 0C       		.byte	0xc
 3183 062d 8F       		.byte	0x8f
 3184 062e 33050000 		.4byte	0x533
 3185 0632 00       		.byte	0
 3186 0633 0E       		.uleb128 0xe
 3187 0634 63666700 		.ascii	"cfg\000"
 3188 0638 0C       		.byte	0xc
 3189 0639 95       		.byte	0x95
 3190 063a F2050000 		.4byte	0x5f2
 3191 063e 08       		.byte	0x8
 3192 063f 0F       		.uleb128 0xf
 3193 0640 290C0000 		.4byte	.LASF98
 3194 0644 0C       		.byte	0xc
 3195 0645 97       		.byte	0x97
 3196 0646 E7050000 		.4byte	0x5e7
 3197 064a 10       		.byte	0x10
 3198 064b 0F       		.uleb128 0xf
 3199 064c B30A0000 		.4byte	.LASF99
 3200 0650 0C       		.byte	0xc
 3201 0651 98       		.byte	0x98
 3202 0652 E7050000 		.4byte	0x5e7
 3203 0656 3C       		.byte	0x3c
 3204 0657 0F       		.uleb128 0xf
 3205 0658 62010000 		.4byte	.LASF100
 3206 065c 0C       		.byte	0xc
 3207 065d 99       		.byte	0x99
 3208 065e CE000000 		.4byte	0xce
 3209 0662 68       		.byte	0x68
 3210 0663 00       		.byte	0
 3211 0664 02       		.uleb128 0x2
 3212 0665 6D040000 		.4byte	.LASF101
 3213 0669 0C       		.byte	0xc
 3214 066a 9A       		.byte	0x9a
ARM GAS  C:\Users\haske\AppData\Local\Temp\ccinSyc3.s 			page 71


 3215 066b 1F060000 		.4byte	0x61f
 3216 066f 08       		.uleb128 0x8
 3217 0670 1C       		.byte	0x1c
 3218 0671 0C       		.byte	0xc
 3219 0672 9C       		.byte	0x9c
 3220 0673 CC060000 		.4byte	0x6cc
 3221 0677 0E       		.uleb128 0xe
 3222 0678 62756600 		.ascii	"buf\000"
 3223 067c 0C       		.byte	0xc
 3224 067d 9D       		.byte	0x9d
 3225 067e B2040000 		.4byte	0x4b2
 3226 0682 00       		.byte	0
 3227 0683 0F       		.uleb128 0xf
 3228 0684 36050000 		.4byte	.LASF102
 3229 0688 0C       		.byte	0xc
 3230 0689 9E       		.byte	0x9e
 3231 068a 02050000 		.4byte	0x502
 3232 068e 04       		.byte	0x4
 3233 068f 0F       		.uleb128 0xf
 3234 0690 08010000 		.4byte	.LASF103
 3235 0694 0C       		.byte	0xc
 3236 0695 9F       		.byte	0x9f
 3237 0696 CC060000 		.4byte	0x6cc
 3238 069a 08       		.byte	0x8
 3239 069b 0F       		.uleb128 0xf
 3240 069c 6D0A0000 		.4byte	.LASF104
 3241 06a0 0C       		.byte	0xc
 3242 06a1 A0       		.byte	0xa0
 3243 06a2 CC060000 		.4byte	0x6cc
 3244 06a6 0C       		.byte	0xc
 3245 06a7 0F       		.uleb128 0xf
 3246 06a8 F3010000 		.4byte	.LASF105
 3247 06ac 0C       		.byte	0xc
 3248 06ad A1       		.byte	0xa1
 3249 06ae D9000000 		.4byte	0xd9
 3250 06b2 10       		.byte	0x10
 3251 06b3 0F       		.uleb128 0xf
 3252 06b4 050D0000 		.4byte	.LASF106
 3253 06b8 0C       		.byte	0xc
 3254 06b9 A2       		.byte	0xa2
 3255 06ba E4000000 		.4byte	0xe4
 3256 06be 14       		.byte	0x14
 3257 06bf 0F       		.uleb128 0xf
 3258 06c0 66000000 		.4byte	.LASF107
 3259 06c4 0C       		.byte	0xc
 3260 06c5 A3       		.byte	0xa3
 3261 06c6 EC010000 		.4byte	0x1ec
 3262 06ca 18       		.byte	0x18
 3263 06cb 00       		.byte	0
 3264 06cc 11       		.uleb128 0x11
 3265 06cd 04       		.byte	0x4
 3266 06ce CE000000 		.4byte	0xce
 3267 06d2 02       		.uleb128 0x2
 3268 06d3 B7020000 		.4byte	.LASF108
 3269 06d7 0C       		.byte	0xc
 3270 06d8 A4       		.byte	0xa4
 3271 06d9 6F060000 		.4byte	0x66f
ARM GAS  C:\Users\haske\AppData\Local\Temp\ccinSyc3.s 			page 72


 3272 06dd 08       		.uleb128 0x8
 3273 06de 0C       		.byte	0xc
 3274 06df 0C       		.byte	0xc
 3275 06e0 AC       		.byte	0xac
 3276 06e1 0D070000 		.4byte	0x70d
 3277 06e5 0F       		.uleb128 0xf
 3278 06e6 0B080000 		.4byte	.LASF109
 3279 06ea 0C       		.byte	0xc
 3280 06eb AD       		.byte	0xad
 3281 06ec 54020000 		.4byte	0x254
 3282 06f0 00       		.byte	0
 3283 06f1 0F       		.uleb128 0xf
 3284 06f2 66000000 		.4byte	.LASF107
 3285 06f6 0C       		.byte	0xc
 3286 06f7 AE       		.byte	0xae
 3287 06f8 EC010000 		.4byte	0x1ec
 3288 06fc 08       		.byte	0x8
 3289 06fd 09       		.uleb128 0x9
 3290 06fe 7D020000 		.4byte	.LASF110
 3291 0702 0C       		.byte	0xc
 3292 0703 B0       		.byte	0xb0
 3293 0704 B8000000 		.4byte	0xb8
 3294 0708 01       		.byte	0x1
 3295 0709 01       		.byte	0x1
 3296 070a 07       		.byte	0x7
 3297 070b 0A       		.byte	0xa
 3298 070c 00       		.byte	0
 3299 070d 08       		.uleb128 0x8
 3300 070e 18       		.byte	0x18
 3301 070f 0C       		.byte	0xc
 3302 0710 A8       		.byte	0xa8
 3303 0711 3A070000 		.4byte	0x73a
 3304 0715 0E       		.uleb128 0xe
 3305 0716 64736300 		.ascii	"dsc\000"
 3306 071a 0C       		.byte	0xc
 3307 071b AA       		.byte	0xaa
 3308 071c 33050000 		.4byte	0x533
 3309 0720 00       		.byte	0
 3310 0721 0E       		.uleb128 0xe
 3311 0722 63666700 		.ascii	"cfg\000"
 3312 0726 0C       		.byte	0xc
 3313 0727 B1       		.byte	0xb1
 3314 0728 DD060000 		.4byte	0x6dd
 3315 072c 08       		.byte	0x8
 3316 072d 0F       		.uleb128 0xf
 3317 072e 9B060000 		.4byte	.LASF111
 3318 0732 0C       		.byte	0xc
 3319 0733 B3       		.byte	0xb3
 3320 0734 3A070000 		.4byte	0x73a
 3321 0738 14       		.byte	0x14
 3322 0739 00       		.byte	0
 3323 073a 11       		.uleb128 0x11
 3324 073b 04       		.byte	0x4
 3325 073c D2060000 		.4byte	0x6d2
 3326 0740 02       		.uleb128 0x2
 3327 0741 83020000 		.4byte	.LASF112
 3328 0745 0C       		.byte	0xc
ARM GAS  C:\Users\haske\AppData\Local\Temp\ccinSyc3.s 			page 73


 3329 0746 B4       		.byte	0xb4
 3330 0747 0D070000 		.4byte	0x70d
 3331 074b 11       		.uleb128 0x11
 3332 074c 04       		.byte	0x4
 3333 074d 51070000 		.4byte	0x751
 3334 0751 12       		.uleb128 0x12
 3335 0752 54020000 		.4byte	0x254
 3336 0756 02       		.uleb128 0x2
 3337 0757 81050000 		.4byte	.LASF113
 3338 075b 0D       		.byte	0xd
 3339 075c 69       		.byte	0x69
 3340 075d B8000000 		.4byte	0xb8
 3341 0761 11       		.uleb128 0x11
 3342 0762 04       		.byte	0x4
 3343 0763 D6010000 		.4byte	0x1d6
 3344 0767 08       		.uleb128 0x8
 3345 0768 38       		.byte	0x38
 3346 0769 0E       		.byte	0xe
 3347 076a 20       		.byte	0x20
 3348 076b AE080000 		.4byte	0x8ae
 3349 076f 0F       		.uleb128 0xf
 3350 0770 66000000 		.4byte	.LASF107
 3351 0774 0E       		.byte	0xe
 3352 0775 21       		.byte	0x21
 3353 0776 EC010000 		.4byte	0x1ec
 3354 077a 00       		.byte	0
 3355 077b 0F       		.uleb128 0xf
 3356 077c 57010000 		.4byte	.LASF114
 3357 0780 0E       		.byte	0xe
 3358 0781 22       		.byte	0x22
 3359 0782 F5030000 		.4byte	0x3f5
 3360 0786 02       		.byte	0x2
 3361 0787 0F       		.uleb128 0xf
 3362 0788 7E010000 		.4byte	.LASF115
 3363 078c 0E       		.byte	0xe
 3364 078d 25       		.byte	0x25
 3365 078e E1010000 		.4byte	0x1e1
 3366 0792 03       		.byte	0x3
 3367 0793 0F       		.uleb128 0xf
 3368 0794 6D000000 		.4byte	.LASF116
 3369 0798 0E       		.byte	0xe
 3370 0799 26       		.byte	0x26
 3371 079a D6010000 		.4byte	0x1d6
 3372 079e 04       		.byte	0x4
 3373 079f 0F       		.uleb128 0xf
 3374 07a0 920B0000 		.4byte	.LASF117
 3375 07a4 0E       		.byte	0xe
 3376 07a5 27       		.byte	0x27
 3377 07a6 A7040000 		.4byte	0x4a7
 3378 07aa 06       		.byte	0x6
 3379 07ab 0F       		.uleb128 0xf
 3380 07ac 29010000 		.4byte	.LASF118
 3381 07b0 0E       		.byte	0xe
 3382 07b1 2A       		.byte	0x2a
 3383 07b2 C2030000 		.4byte	0x3c2
 3384 07b6 10       		.byte	0x10
 3385 07b7 0F       		.uleb128 0xf
ARM GAS  C:\Users\haske\AppData\Local\Temp\ccinSyc3.s 			page 74


 3386 07b8 5C050000 		.4byte	.LASF119
 3387 07bc 0E       		.byte	0xe
 3388 07bd 2B       		.byte	0x2b
 3389 07be C2030000 		.4byte	0x3c2
 3390 07c2 14       		.byte	0x14
 3391 07c3 0F       		.uleb128 0xf
 3392 07c4 820A0000 		.4byte	.LASF120
 3393 07c8 0E       		.byte	0xe
 3394 07c9 2C       		.byte	0x2c
 3395 07ca D6010000 		.4byte	0x1d6
 3396 07ce 18       		.byte	0x18
 3397 07cf 0F       		.uleb128 0xf
 3398 07d0 E60A0000 		.4byte	.LASF121
 3399 07d4 0E       		.byte	0xe
 3400 07d5 2D       		.byte	0x2d
 3401 07d6 E1010000 		.4byte	0x1e1
 3402 07da 1A       		.byte	0x1a
 3403 07db 0F       		.uleb128 0xf
 3404 07dc 6D080000 		.4byte	.LASF122
 3405 07e0 0E       		.byte	0xe
 3406 07e1 2E       		.byte	0x2e
 3407 07e2 E1010000 		.4byte	0x1e1
 3408 07e6 1B       		.byte	0x1b
 3409 07e7 0F       		.uleb128 0xf
 3410 07e8 45020000 		.4byte	.LASF123
 3411 07ec 0E       		.byte	0xe
 3412 07ed 2F       		.byte	0x2f
 3413 07ee B8000000 		.4byte	0xb8
 3414 07f2 1C       		.byte	0x1c
 3415 07f3 0F       		.uleb128 0xf
 3416 07f4 60080000 		.4byte	.LASF124
 3417 07f8 0E       		.byte	0xe
 3418 07f9 32       		.byte	0x32
 3419 07fa D6010000 		.4byte	0x1d6
 3420 07fe 1E       		.byte	0x1e
 3421 07ff 0F       		.uleb128 0xf
 3422 0800 57090000 		.4byte	.LASF125
 3423 0804 0E       		.byte	0xe
 3424 0805 33       		.byte	0x33
 3425 0806 EC010000 		.4byte	0x1ec
 3426 080a 20       		.byte	0x20
 3427 080b 0F       		.uleb128 0xf
 3428 080c 870B0000 		.4byte	.LASF126
 3429 0810 0E       		.byte	0xe
 3430 0811 34       		.byte	0x34
 3431 0812 E1010000 		.4byte	0x1e1
 3432 0816 22       		.byte	0x22
 3433 0817 09       		.uleb128 0x9
 3434 0818 9C040000 		.4byte	.LASF127
 3435 081c 0E       		.byte	0xe
 3436 081d 35       		.byte	0x35
 3437 081e B8000000 		.4byte	0xb8
 3438 0822 01       		.byte	0x1
 3439 0823 01       		.byte	0x1
 3440 0824 07       		.byte	0x7
 3441 0825 23       		.byte	0x23
 3442 0826 09       		.uleb128 0x9
ARM GAS  C:\Users\haske\AppData\Local\Temp\ccinSyc3.s 			page 75


 3443 0827 41010000 		.4byte	.LASF128
 3444 082b 0E       		.byte	0xe
 3445 082c 36       		.byte	0x36
 3446 082d 0B040000 		.4byte	0x40b
 3447 0831 01       		.byte	0x1
 3448 0832 05       		.byte	0x5
 3449 0833 02       		.byte	0x2
 3450 0834 23       		.byte	0x23
 3451 0835 0F       		.uleb128 0xf
 3452 0836 0B020000 		.4byte	.LASF129
 3453 083a 0E       		.byte	0xe
 3454 083b 39       		.byte	0x39
 3455 083c D6010000 		.4byte	0x1d6
 3456 0840 24       		.byte	0x24
 3457 0841 0F       		.uleb128 0xf
 3458 0842 CF070000 		.4byte	.LASF130
 3459 0846 0E       		.byte	0xe
 3460 0847 3A       		.byte	0x3a
 3461 0848 EC010000 		.4byte	0x1ec
 3462 084c 26       		.byte	0x26
 3463 084d 0F       		.uleb128 0xf
 3464 084e 53040000 		.4byte	.LASF131
 3465 0852 0E       		.byte	0xe
 3466 0853 3B       		.byte	0x3b
 3467 0854 EC010000 		.4byte	0x1ec
 3468 0858 28       		.byte	0x28
 3469 0859 0F       		.uleb128 0xf
 3470 085a 74070000 		.4byte	.LASF132
 3471 085e 0E       		.byte	0xe
 3472 085f 3C       		.byte	0x3c
 3473 0860 E1010000 		.4byte	0x1e1
 3474 0864 2A       		.byte	0x2a
 3475 0865 0F       		.uleb128 0xf
 3476 0866 71060000 		.4byte	.LASF133
 3477 086a 0E       		.byte	0xe
 3478 086b 3F       		.byte	0x3f
 3479 086c D6010000 		.4byte	0x1d6
 3480 0870 2C       		.byte	0x2c
 3481 0871 0F       		.uleb128 0xf
 3482 0872 FD0B0000 		.4byte	.LASF134
 3483 0876 0E       		.byte	0xe
 3484 0877 40       		.byte	0x40
 3485 0878 EC010000 		.4byte	0x1ec
 3486 087c 2E       		.byte	0x2e
 3487 087d 0F       		.uleb128 0xf
 3488 087e 330D0000 		.4byte	.LASF135
 3489 0882 0E       		.byte	0xe
 3490 0883 41       		.byte	0x41
 3491 0884 EC010000 		.4byte	0x1ec
 3492 0888 30       		.byte	0x30
 3493 0889 0F       		.uleb128 0xf
 3494 088a 400D0000 		.4byte	.LASF136
 3495 088e 0E       		.byte	0xe
 3496 088f 42       		.byte	0x42
 3497 0890 EC010000 		.4byte	0x1ec
 3498 0894 32       		.byte	0x32
 3499 0895 0F       		.uleb128 0xf
ARM GAS  C:\Users\haske\AppData\Local\Temp\ccinSyc3.s 			page 76


 3500 0896 28050000 		.4byte	.LASF137
 3501 089a 0E       		.byte	0xe
 3502 089b 43       		.byte	0x43
 3503 089c EC010000 		.4byte	0x1ec
 3504 08a0 34       		.byte	0x34
 3505 08a1 0F       		.uleb128 0xf
 3506 08a2 F10A0000 		.4byte	.LASF138
 3507 08a6 0E       		.byte	0xe
 3508 08a7 44       		.byte	0x44
 3509 08a8 E1010000 		.4byte	0x1e1
 3510 08ac 36       		.byte	0x36
 3511 08ad 00       		.byte	0
 3512 08ae 02       		.uleb128 0x2
 3513 08af E4080000 		.4byte	.LASF139
 3514 08b3 0E       		.byte	0xe
 3515 08b4 45       		.byte	0x45
 3516 08b5 67070000 		.4byte	0x767
 3517 08b9 08       		.uleb128 0x8
 3518 08ba 20       		.byte	0x20
 3519 08bb 0F       		.byte	0xf
 3520 08bc 1E       		.byte	0x1e
 3521 08bd 88090000 		.4byte	0x988
 3522 08c1 0F       		.uleb128 0xf
 3523 08c2 3F0A0000 		.4byte	.LASF140
 3524 08c6 0F       		.byte	0xf
 3525 08c7 1F       		.byte	0x1f
 3526 08c8 88090000 		.4byte	0x988
 3527 08cc 00       		.byte	0
 3528 08cd 0F       		.uleb128 0xf
 3529 08ce EA0B0000 		.4byte	.LASF141
 3530 08d2 0F       		.byte	0xf
 3531 08d3 20       		.byte	0x20
 3532 08d4 E4000000 		.4byte	0xe4
 3533 08d8 04       		.byte	0x4
 3534 08d9 0F       		.uleb128 0xf
 3535 08da 39070000 		.4byte	.LASF142
 3536 08de 0F       		.byte	0xf
 3537 08df 21       		.byte	0x21
 3538 08e0 E4000000 		.4byte	0xe4
 3539 08e4 08       		.byte	0x8
 3540 08e5 0F       		.uleb128 0xf
 3541 08e6 ED090000 		.4byte	.LASF75
 3542 08ea 0F       		.byte	0xf
 3543 08eb 22       		.byte	0x22
 3544 08ec D6010000 		.4byte	0x1d6
 3545 08f0 0C       		.byte	0xc
 3546 08f1 0F       		.uleb128 0xf
 3547 08f2 0E0D0000 		.4byte	.LASF143
 3548 08f6 0F       		.byte	0xf
 3549 08f7 23       		.byte	0x23
 3550 08f8 D6010000 		.4byte	0x1d6
 3551 08fc 0E       		.byte	0xe
 3552 08fd 0F       		.uleb128 0xf
 3553 08fe 34010000 		.4byte	.LASF144
 3554 0902 0F       		.byte	0xf
 3555 0903 24       		.byte	0x24
 3556 0904 D6010000 		.4byte	0x1d6
ARM GAS  C:\Users\haske\AppData\Local\Temp\ccinSyc3.s 			page 77


 3557 0908 10       		.byte	0x10
 3558 0909 0F       		.uleb128 0xf
 3559 090a F9090000 		.4byte	.LASF145
 3560 090e 0F       		.byte	0xf
 3561 090f 25       		.byte	0x25
 3562 0910 EC010000 		.4byte	0x1ec
 3563 0914 12       		.byte	0x12
 3564 0915 0F       		.uleb128 0xf
 3565 0916 440A0000 		.4byte	.LASF146
 3566 091a 0F       		.byte	0xf
 3567 091b 26       		.byte	0x26
 3568 091c EC010000 		.4byte	0x1ec
 3569 0920 14       		.byte	0x14
 3570 0921 0F       		.uleb128 0xf
 3571 0922 F5020000 		.4byte	.LASF52
 3572 0926 0F       		.byte	0xf
 3573 0927 27       		.byte	0x27
 3574 0928 EC010000 		.4byte	0x1ec
 3575 092c 16       		.byte	0x16
 3576 092d 0F       		.uleb128 0xf
 3577 092e FB020000 		.4byte	.LASF53
 3578 0932 0F       		.byte	0xf
 3579 0933 28       		.byte	0x28
 3580 0934 EC010000 		.4byte	0x1ec
 3581 0938 18       		.byte	0x18
 3582 0939 0E       		.uleb128 0xe
 3583 093a 6F706100 		.ascii	"opa\000"
 3584 093e 0F       		.byte	0xf
 3585 093f 29       		.byte	0x29
 3586 0940 E1010000 		.4byte	0x1e1
 3587 0944 1A       		.byte	0x1a
 3588 0945 0F       		.uleb128 0xf
 3589 0946 92000000 		.4byte	.LASF147
 3590 094a 0F       		.byte	0xf
 3591 094b 2A       		.byte	0x2a
 3592 094c EA030000 		.4byte	0x3ea
 3593 0950 1B       		.byte	0x1b
 3594 0951 0F       		.uleb128 0xf
 3595 0952 FF060000 		.4byte	.LASF148
 3596 0956 0F       		.byte	0xf
 3597 0957 2B       		.byte	0x2b
 3598 0958 DF030000 		.4byte	0x3df
 3599 095c 1C       		.byte	0x1c
 3600 095d 0F       		.uleb128 0xf
 3601 095e 5A070000 		.4byte	.LASF149
 3602 0962 0F       		.byte	0xf
 3603 0963 2C       		.byte	0x2c
 3604 0964 D4030000 		.4byte	0x3d4
 3605 0968 1D       		.byte	0x1d
 3606 0969 09       		.uleb128 0x9
 3607 096a 8E090000 		.4byte	.LASF150
 3608 096e 0F       		.byte	0xf
 3609 096f 2D       		.byte	0x2d
 3610 0970 00040000 		.4byte	0x400
 3611 0974 01       		.byte	0x1
 3612 0975 03       		.byte	0x3
 3613 0976 05       		.byte	0x5
ARM GAS  C:\Users\haske\AppData\Local\Temp\ccinSyc3.s 			page 78


 3614 0977 1E       		.byte	0x1e
 3615 0978 09       		.uleb128 0x9
 3616 0979 57010000 		.4byte	.LASF114
 3617 097d 0F       		.byte	0xf
 3618 097e 2E       		.byte	0x2e
 3619 097f F5030000 		.4byte	0x3f5
 3620 0983 01       		.byte	0x1
 3621 0984 03       		.byte	0x3
 3622 0985 02       		.byte	0x2
 3623 0986 1E       		.byte	0x1e
 3624 0987 00       		.byte	0
 3625 0988 11       		.uleb128 0x11
 3626 0989 04       		.byte	0x4
 3627 098a 8E090000 		.4byte	0x98e
 3628 098e 12       		.uleb128 0x12
 3629 098f C9030000 		.4byte	0x3c9
 3630 0993 02       		.uleb128 0x2
 3631 0994 85010000 		.4byte	.LASF151
 3632 0998 0F       		.byte	0xf
 3633 0999 2F       		.byte	0x2f
 3634 099a B9080000 		.4byte	0x8b9
 3635 099e 08       		.uleb128 0x8
 3636 099f 18       		.byte	0x18
 3637 09a0 10       		.byte	0x10
 3638 09a1 20       		.byte	0x20
 3639 09a2 190A0000 		.4byte	0xa19
 3640 09a6 0F       		.uleb128 0xf
 3641 09a7 F2050000 		.4byte	.LASF152
 3642 09ab 10       		.byte	0x10
 3643 09ac 22       		.byte	0x22
 3644 09ad C3000000 		.4byte	0xc3
 3645 09b1 00       		.byte	0
 3646 09b2 0F       		.uleb128 0xf
 3647 09b3 B8000000 		.4byte	.LASF153
 3648 09b7 10       		.byte	0x10
 3649 09b8 23       		.byte	0x23
 3650 09b9 CE000000 		.4byte	0xce
 3651 09bd 02       		.byte	0x2
 3652 09be 0F       		.uleb128 0xf
 3653 09bf 7D090000 		.4byte	.LASF154
 3654 09c3 10       		.byte	0x10
 3655 09c4 24       		.byte	0x24
 3656 09c5 14020000 		.4byte	0x214
 3657 09c9 04       		.byte	0x4
 3658 09ca 0F       		.uleb128 0xf
 3659 09cb E1050000 		.4byte	.LASF155
 3660 09cf 10       		.byte	0x10
 3661 09d0 26       		.byte	0x26
 3662 09d1 D6010000 		.4byte	0x1d6
 3663 09d5 08       		.byte	0x8
 3664 09d6 0F       		.uleb128 0xf
 3665 09d7 A1070000 		.4byte	.LASF156
 3666 09db 10       		.byte	0x10
 3667 09dc 27       		.byte	0x27
 3668 09dd E1010000 		.4byte	0x1e1
 3669 09e1 0A       		.byte	0xa
 3670 09e2 0E       		.uleb128 0xe
ARM GAS  C:\Users\haske\AppData\Local\Temp\ccinSyc3.s 			page 79


 3671 09e3 6F706100 		.ascii	"opa\000"
 3672 09e7 10       		.byte	0x10
 3673 09e8 29       		.byte	0x29
 3674 09e9 E1010000 		.4byte	0x1e1
 3675 09ed 0B       		.byte	0xb
 3676 09ee 09       		.uleb128 0x9
 3677 09ef 57010000 		.4byte	.LASF114
 3678 09f3 10       		.byte	0x10
 3679 09f4 2A       		.byte	0x2a
 3680 09f5 F5030000 		.4byte	0x3f5
 3681 09f9 01       		.byte	0x1
 3682 09fa 04       		.byte	0x4
 3683 09fb 04       		.byte	0x4
 3684 09fc 0C       		.byte	0xc
 3685 09fd 0F       		.uleb128 0xf
 3686 09fe 98070000 		.4byte	.LASF157
 3687 0a02 10       		.byte	0x10
 3688 0a03 2C       		.byte	0x2c
 3689 0a04 D9000000 		.4byte	0xd9
 3690 0a08 10       		.byte	0x10
 3691 0a09 09       		.uleb128 0x9
 3692 0a0a F6070000 		.4byte	.LASF158
 3693 0a0e 10       		.byte	0x10
 3694 0a0f 2D       		.byte	0x2d
 3695 0a10 B8000000 		.4byte	0xb8
 3696 0a14 01       		.byte	0x1
 3697 0a15 01       		.byte	0x1
 3698 0a16 07       		.byte	0x7
 3699 0a17 14       		.byte	0x14
 3700 0a18 00       		.byte	0
 3701 0a19 02       		.uleb128 0x2
 3702 0a1a D6030000 		.4byte	.LASF159
 3703 0a1e 10       		.byte	0x10
 3704 0a1f 2E       		.byte	0x2e
 3705 0a20 9E090000 		.4byte	0x99e
 3706 0a24 08       		.uleb128 0x8
 3707 0a25 0A       		.byte	0xa
 3708 0a26 11       		.byte	0x11
 3709 0a27 1C       		.byte	0x1c
 3710 0a28 A50A0000 		.4byte	0xaa5
 3711 0a2c 0F       		.uleb128 0xf
 3712 0a2d ED090000 		.4byte	.LASF75
 3713 0a31 11       		.byte	0x11
 3714 0a32 1D       		.byte	0x1d
 3715 0a33 D6010000 		.4byte	0x1d6
 3716 0a37 00       		.byte	0
 3717 0a38 0F       		.uleb128 0xf
 3718 0a39 7E060000 		.4byte	.LASF160
 3719 0a3d 11       		.byte	0x11
 3720 0a3e 1E       		.byte	0x1e
 3721 0a3f EC010000 		.4byte	0x1ec
 3722 0a43 02       		.byte	0x2
 3723 0a44 0F       		.uleb128 0xf
 3724 0a45 AD050000 		.4byte	.LASF161
 3725 0a49 11       		.byte	0x11
 3726 0a4a 1F       		.byte	0x1f
 3727 0a4b EC010000 		.4byte	0x1ec
ARM GAS  C:\Users\haske\AppData\Local\Temp\ccinSyc3.s 			page 80


 3728 0a4f 04       		.byte	0x4
 3729 0a50 0F       		.uleb128 0xf
 3730 0a51 24040000 		.4byte	.LASF162
 3731 0a55 11       		.byte	0x11
 3732 0a56 20       		.byte	0x20
 3733 0a57 EC010000 		.4byte	0x1ec
 3734 0a5b 06       		.byte	0x6
 3735 0a5c 0E       		.uleb128 0xe
 3736 0a5d 6F706100 		.ascii	"opa\000"
 3737 0a61 11       		.byte	0x11
 3738 0a62 21       		.byte	0x21
 3739 0a63 E1010000 		.4byte	0x1e1
 3740 0a67 08       		.byte	0x8
 3741 0a68 09       		.uleb128 0x9
 3742 0a69 57010000 		.4byte	.LASF114
 3743 0a6d 11       		.byte	0x11
 3744 0a6e 22       		.byte	0x22
 3745 0a6f F5030000 		.4byte	0x3f5
 3746 0a73 01       		.byte	0x1
 3747 0a74 02       		.byte	0x2
 3748 0a75 06       		.byte	0x6
 3749 0a76 09       		.byte	0x9
 3750 0a77 09       		.uleb128 0x9
 3751 0a78 AF040000 		.4byte	.LASF163
 3752 0a7c 11       		.byte	0x11
 3753 0a7d 23       		.byte	0x23
 3754 0a7e B8000000 		.4byte	0xb8
 3755 0a82 01       		.byte	0x1
 3756 0a83 01       		.byte	0x1
 3757 0a84 05       		.byte	0x5
 3758 0a85 09       		.byte	0x9
 3759 0a86 09       		.uleb128 0x9
 3760 0a87 F8040000 		.4byte	.LASF164
 3761 0a8b 11       		.byte	0x11
 3762 0a8c 24       		.byte	0x24
 3763 0a8d B8000000 		.4byte	0xb8
 3764 0a91 01       		.byte	0x1
 3765 0a92 01       		.byte	0x1
 3766 0a93 04       		.byte	0x4
 3767 0a94 09       		.byte	0x9
 3768 0a95 09       		.uleb128 0x9
 3769 0a96 34000000 		.4byte	.LASF165
 3770 0a9a 11       		.byte	0x11
 3771 0a9b 25       		.byte	0x25
 3772 0a9c B8000000 		.4byte	0xb8
 3773 0aa0 01       		.byte	0x1
 3774 0aa1 01       		.byte	0x1
 3775 0aa2 03       		.byte	0x3
 3776 0aa3 09       		.byte	0x9
 3777 0aa4 00       		.byte	0
 3778 0aa5 02       		.uleb128 0x2
 3779 0aa6 D9020000 		.4byte	.LASF166
 3780 0aaa 11       		.byte	0x11
 3781 0aab 26       		.byte	0x26
 3782 0aac 240A0000 		.4byte	0xa24
 3783 0ab0 08       		.uleb128 0x8
 3784 0ab1 10       		.byte	0x10
ARM GAS  C:\Users\haske\AppData\Local\Temp\ccinSyc3.s 			page 81


 3785 0ab2 12       		.byte	0x12
 3786 0ab3 1C       		.byte	0x1c
 3787 0ab4 1F0B0000 		.4byte	0xb1f
 3788 0ab8 0F       		.uleb128 0xf
 3789 0ab9 ED090000 		.4byte	.LASF75
 3790 0abd 12       		.byte	0x12
 3791 0abe 1D       		.byte	0x1d
 3792 0abf D6010000 		.4byte	0x1d6
 3793 0ac3 00       		.byte	0
 3794 0ac4 0F       		.uleb128 0xf
 3795 0ac5 7E060000 		.4byte	.LASF160
 3796 0ac9 12       		.byte	0x12
 3797 0aca 1E       		.byte	0x1e
 3798 0acb EC010000 		.4byte	0x1ec
 3799 0acf 02       		.byte	0x2
 3800 0ad0 0F       		.uleb128 0xf
 3801 0ad1 93050000 		.4byte	.LASF96
 3802 0ad5 12       		.byte	0x12
 3803 0ad6 1F       		.byte	0x1f
 3804 0ad7 CE000000 		.4byte	0xce
 3805 0adb 04       		.byte	0x4
 3806 0adc 0F       		.uleb128 0xf
 3807 0add 6E020000 		.4byte	.LASF97
 3808 0ae1 12       		.byte	0x12
 3809 0ae2 20       		.byte	0x20
 3810 0ae3 CE000000 		.4byte	0xce
 3811 0ae7 06       		.byte	0x6
 3812 0ae8 0F       		.uleb128 0xf
 3813 0ae9 02050000 		.4byte	.LASF167
 3814 0aed 12       		.byte	0x12
 3815 0aee 21       		.byte	0x21
 3816 0aef C2030000 		.4byte	0x3c2
 3817 0af3 08       		.byte	0x8
 3818 0af4 0E       		.uleb128 0xe
 3819 0af5 6F706100 		.ascii	"opa\000"
 3820 0af9 12       		.byte	0x12
 3821 0afa 22       		.byte	0x22
 3822 0afb E1010000 		.4byte	0x1e1
 3823 0aff 0C       		.byte	0xc
 3824 0b00 09       		.uleb128 0x9
 3825 0b01 57010000 		.4byte	.LASF114
 3826 0b05 12       		.byte	0x12
 3827 0b06 23       		.byte	0x23
 3828 0b07 F5030000 		.4byte	0x3f5
 3829 0b0b 01       		.byte	0x1
 3830 0b0c 02       		.byte	0x2
 3831 0b0d 06       		.byte	0x6
 3832 0b0e 0D       		.byte	0xd
 3833 0b0f 09       		.uleb128 0x9
 3834 0b10 1C0B0000 		.4byte	.LASF168
 3835 0b14 12       		.byte	0x12
 3836 0b15 24       		.byte	0x24
 3837 0b16 B8000000 		.4byte	0xb8
 3838 0b1a 01       		.byte	0x1
 3839 0b1b 01       		.byte	0x1
 3840 0b1c 05       		.byte	0x5
 3841 0b1d 0D       		.byte	0xd
ARM GAS  C:\Users\haske\AppData\Local\Temp\ccinSyc3.s 			page 82


 3842 0b1e 00       		.byte	0
 3843 0b1f 02       		.uleb128 0x2
 3844 0b20 5B0A0000 		.4byte	.LASF169
 3845 0b24 12       		.byte	0x12
 3846 0b25 25       		.byte	0x25
 3847 0b26 B00A0000 		.4byte	0xab0
 3848 0b2a 06       		.uleb128 0x6
 3849 0b2b 01       		.byte	0x1
 3850 0b2c 42000000 		.4byte	0x42
 3851 0b30 13       		.byte	0x13
 3852 0b31 1C       		.byte	0x1c
 3853 0b32 490B0000 		.4byte	0xb49
 3854 0b36 07       		.uleb128 0x7
 3855 0b37 C3060000 		.4byte	.LASF170
 3856 0b3b 00       		.byte	0
 3857 0b3c 07       		.uleb128 0x7
 3858 0b3d 9B000000 		.4byte	.LASF171
 3859 0b41 01       		.byte	0x1
 3860 0b42 07       		.uleb128 0x7
 3861 0b43 80080000 		.4byte	.LASF172
 3862 0b47 02       		.byte	0x2
 3863 0b48 00       		.byte	0
 3864 0b49 02       		.uleb128 0x2
 3865 0b4a B0030000 		.4byte	.LASF173
 3866 0b4e 13       		.byte	0x13
 3867 0b4f 20       		.byte	0x20
 3868 0b50 2A0B0000 		.4byte	0xb2a
 3869 0b54 08       		.uleb128 0x8
 3870 0b55 10       		.byte	0x10
 3871 0b56 14       		.byte	0x14
 3872 0b57 33       		.byte	0x33
 3873 0b58 8D0B0000 		.4byte	0xb8d
 3874 0b5c 0F       		.uleb128 0xf
 3875 0b5d 2F070000 		.4byte	.LASF174
 3876 0b61 14       		.byte	0x14
 3877 0b62 34       		.byte	0x34
 3878 0b63 4B070000 		.4byte	0x74b
 3879 0b67 00       		.byte	0
 3880 0b68 0F       		.uleb128 0xf
 3881 0b69 D8050000 		.4byte	.LASF175
 3882 0b6d 14       		.byte	0x14
 3883 0b6e 35       		.byte	0x35
 3884 0b6f 8D0B0000 		.4byte	0xb8d
 3885 0b73 04       		.byte	0x4
 3886 0b74 0E       		.uleb128 0xe
 3887 0b75 62756600 		.ascii	"buf\000"
 3888 0b79 14       		.byte	0x14
 3889 0b7a 36       		.byte	0x36
 3890 0b7b 13010000 		.4byte	0x113
 3891 0b7f 08       		.byte	0x8
 3892 0b80 0F       		.uleb128 0xf
 3893 0b81 240B0000 		.4byte	.LASF176
 3894 0b85 14       		.byte	0x14
 3895 0b86 37       		.byte	0x37
 3896 0b87 8A030000 		.4byte	0x38a
 3897 0b8b 0C       		.byte	0xc
 3898 0b8c 00       		.byte	0
ARM GAS  C:\Users\haske\AppData\Local\Temp\ccinSyc3.s 			page 83


 3899 0b8d 11       		.uleb128 0x11
 3900 0b8e 04       		.byte	0x4
 3901 0b8f 54020000 		.4byte	0x254
 3902 0b93 10       		.uleb128 0x10
 3903 0b94 5F070000 		.4byte	.LASF178
 3904 0b98 28       		.byte	0x28
 3905 0b99 14       		.byte	0x14
 3906 0b9a 2D       		.byte	0x2d
 3907 0b9b E80B0000 		.4byte	0xbe8
 3908 0b9f 0F       		.uleb128 0xf
 3909 0ba0 50070000 		.4byte	.LASF179
 3910 0ba4 14       		.byte	0x14
 3911 0ba5 2E       		.byte	0x2e
 3912 0ba6 54020000 		.4byte	0x254
 3913 0baa 00       		.byte	0
 3914 0bab 0F       		.uleb128 0xf
 3915 0bac EC020000 		.4byte	.LASF180
 3916 0bb0 14       		.byte	0x14
 3917 0bb1 2F       		.byte	0x2f
 3918 0bb2 54020000 		.4byte	0x254
 3919 0bb6 08       		.byte	0x8
 3920 0bb7 0F       		.uleb128 0xf
 3921 0bb8 85070000 		.4byte	.LASF181
 3922 0bbc 14       		.byte	0x14
 3923 0bbd 30       		.byte	0x30
 3924 0bbe EC010000 		.4byte	0x1ec
 3925 0bc2 10       		.byte	0x10
 3926 0bc3 0F       		.uleb128 0xf
 3927 0bc4 B7080000 		.4byte	.LASF182
 3928 0bc8 14       		.byte	0x14
 3929 0bc9 31       		.byte	0x31
 3930 0bca EC010000 		.4byte	0x1ec
 3931 0bce 12       		.byte	0x12
 3932 0bcf 0E       		.uleb128 0xe
 3933 0bd0 62756600 		.ascii	"buf\000"
 3934 0bd4 14       		.byte	0x14
 3935 0bd5 32       		.byte	0x32
 3936 0bd6 13010000 		.4byte	0x113
 3937 0bda 14       		.byte	0x14
 3938 0bdb 0F       		.uleb128 0xf
 3939 0bdc 15030000 		.4byte	.LASF183
 3940 0be0 14       		.byte	0x14
 3941 0be1 38       		.byte	0x38
 3942 0be2 540B0000 		.4byte	0xb54
 3943 0be6 18       		.byte	0x18
 3944 0be7 00       		.byte	0
 3945 0be8 02       		.uleb128 0x2
 3946 0be9 CF090000 		.4byte	.LASF184
 3947 0bed 14       		.byte	0x14
 3948 0bee 39       		.byte	0x39
 3949 0bef 930B0000 		.4byte	0xb93
 3950 0bf3 10       		.uleb128 0x10
 3951 0bf4 15010000 		.4byte	.LASF185
 3952 0bf8 54       		.byte	0x54
 3953 0bf9 14       		.byte	0x14
 3954 0bfa 3B       		.byte	0x3b
 3955 0bfb FC0C0000 		.4byte	0xcfc
ARM GAS  C:\Users\haske\AppData\Local\Temp\ccinSyc3.s 			page 84


 3956 0bff 0E       		.uleb128 0xe
 3957 0c00 62756600 		.ascii	"buf\000"
 3958 0c04 14       		.byte	0x14
 3959 0c05 3F       		.byte	0x3f
 3960 0c06 13010000 		.4byte	0x113
 3961 0c0a 00       		.byte	0
 3962 0c0b 0F       		.uleb128 0xf
 3963 0c0c D8050000 		.4byte	.LASF175
 3964 0c10 14       		.byte	0x14
 3965 0c11 44       		.byte	0x44
 3966 0c12 8D0B0000 		.4byte	0xb8d
 3967 0c16 04       		.byte	0x4
 3968 0c17 0F       		.uleb128 0xf
 3969 0c18 2F070000 		.4byte	.LASF174
 3970 0c1c 14       		.byte	0x14
 3971 0c1d 49       		.byte	0x49
 3972 0c1e 4B070000 		.4byte	0x74b
 3973 0c22 08       		.byte	0x8
 3974 0c23 0F       		.uleb128 0xf
 3975 0c24 FF000000 		.4byte	.LASF186
 3976 0c28 14       		.byte	0x14
 3977 0c29 4B       		.byte	0x4b
 3978 0c2a 0D0D0000 		.4byte	0xd0d
 3979 0c2e 0C       		.byte	0xc
 3980 0c2f 0F       		.uleb128 0xf
 3981 0c30 D0000000 		.4byte	.LASF187
 3982 0c34 14       		.byte	0x14
 3983 0c35 4D       		.byte	0x4d
 3984 0c36 330D0000 		.4byte	0xd33
 3985 0c3a 10       		.byte	0x10
 3986 0c3b 0F       		.uleb128 0xf
 3987 0c3c C6050000 		.4byte	.LASF188
 3988 0c40 14       		.byte	0x14
 3989 0c41 4F       		.byte	0x4f
 3990 0c42 730D0000 		.4byte	0xd73
 3991 0c46 14       		.byte	0x14
 3992 0c47 0F       		.uleb128 0xf
 3993 0c48 F8050000 		.4byte	.LASF189
 3994 0c4c 14       		.byte	0x14
 3995 0c4d 52       		.byte	0x52
 3996 0c4e A30D0000 		.4byte	0xda3
 3997 0c52 18       		.byte	0x18
 3998 0c53 0F       		.uleb128 0xf
 3999 0c54 A30B0000 		.4byte	.LASF190
 4000 0c58 14       		.byte	0x14
 4001 0c59 55       		.byte	0x55
 4002 0c5a C70D0000 		.4byte	0xdc7
 4003 0c5e 1C       		.byte	0x1c
 4004 0c5f 0F       		.uleb128 0xf
 4005 0c60 2D090000 		.4byte	.LASF191
 4006 0c64 14       		.byte	0x14
 4007 0c65 58       		.byte	0x58
 4008 0c66 F20D0000 		.4byte	0xdf2
 4009 0c6a 20       		.byte	0x20
 4010 0c6b 0F       		.uleb128 0xf
 4011 0c6c 3B020000 		.4byte	.LASF192
 4012 0c70 14       		.byte	0x14
ARM GAS  C:\Users\haske\AppData\Local\Temp\ccinSyc3.s 			page 85


 4013 0c71 5C       		.byte	0x5c
 4014 0c72 1D0E0000 		.4byte	0xe1d
 4015 0c76 24       		.byte	0x24
 4016 0c77 0F       		.uleb128 0xf
 4017 0c78 C90B0000 		.4byte	.LASF193
 4018 0c7c 14       		.byte	0x14
 4019 0c7d 60       		.byte	0x60
 4020 0c7e 3D0E0000 		.4byte	0xe3d
 4021 0c82 28       		.byte	0x28
 4022 0c83 0F       		.uleb128 0xf
 4023 0c84 2D040000 		.4byte	.LASF194
 4024 0c88 14       		.byte	0x14
 4025 0c89 71       		.byte	0x71
 4026 0c8a 7B0E0000 		.4byte	0xe7b
 4027 0c8e 2C       		.byte	0x2c
 4028 0c8f 0F       		.uleb128 0xf
 4029 0c90 23000000 		.4byte	.LASF195
 4030 0c94 14       		.byte	0x14
 4031 0c95 78       		.byte	0x78
 4032 0c96 330D0000 		.4byte	0xd33
 4033 0c9a 30       		.byte	0x30
 4034 0c9b 0F       		.uleb128 0xf
 4035 0c9c A2060000 		.4byte	.LASF196
 4036 0ca0 14       		.byte	0x14
 4037 0ca1 7D       		.byte	0x7d
 4038 0ca2 0D0D0000 		.4byte	0xd0d
 4039 0ca6 34       		.byte	0x34
 4040 0ca7 0F       		.uleb128 0xf
 4041 0ca8 FF010000 		.4byte	.LASF197
 4042 0cac 14       		.byte	0x14
 4043 0cad 8D       		.byte	0x8d
 4044 0cae AA0E0000 		.4byte	0xeaa
 4045 0cb2 38       		.byte	0x38
 4046 0cb3 0F       		.uleb128 0xf
 4047 0cb4 E1040000 		.4byte	.LASF198
 4048 0cb8 14       		.byte	0x14
 4049 0cb9 99       		.byte	0x99
 4050 0cba CF0E0000 		.4byte	0xecf
 4051 0cbe 3C       		.byte	0x3c
 4052 0cbf 0F       		.uleb128 0xf
 4053 0cc0 B8090000 		.4byte	.LASF199
 4054 0cc4 14       		.byte	0x14
 4055 0cc5 A3       		.byte	0xa3
 4056 0cc6 EA0E0000 		.4byte	0xeea
 4057 0cca 40       		.byte	0x40
 4058 0ccb 0F       		.uleb128 0xf
 4059 0ccc 040A0000 		.4byte	.LASF200
 4060 0cd0 14       		.byte	0x14
 4061 0cd1 AC       		.byte	0xac
 4062 0cd2 050F0000 		.4byte	0xf05
 4063 0cd6 44       		.byte	0x44
 4064 0cd7 0F       		.uleb128 0xf
 4065 0cd8 9F050000 		.4byte	.LASF201
 4066 0cdc 14       		.byte	0x14
 4067 0cdd B5       		.byte	0xb5
 4068 0cde 210F0000 		.4byte	0xf21
 4069 0ce2 48       		.byte	0x48
ARM GAS  C:\Users\haske\AppData\Local\Temp\ccinSyc3.s 			page 86


 4070 0ce3 0F       		.uleb128 0xf
 4071 0ce4 08040000 		.4byte	.LASF202
 4072 0ce8 14       		.byte	0x14
 4073 0ce9 BA       		.byte	0xba
 4074 0cea FA000000 		.4byte	0xfa
 4075 0cee 4C       		.byte	0x4c
 4076 0cef 0F       		.uleb128 0xf
 4077 0cf0 A30C0000 		.4byte	.LASF63
 4078 0cf4 14       		.byte	0x14
 4079 0cf5 BD       		.byte	0xbd
 4080 0cf6 13010000 		.4byte	0x113
 4081 0cfa 50       		.byte	0x50
 4082 0cfb 00       		.byte	0
 4083 0cfc 18       		.uleb128 0x18
 4084 0cfd 070D0000 		.4byte	0xd07
 4085 0d01 14       		.uleb128 0x14
 4086 0d02 070D0000 		.4byte	0xd07
 4087 0d06 00       		.byte	0
 4088 0d07 11       		.uleb128 0x11
 4089 0d08 04       		.byte	0x4
 4090 0d09 F30B0000 		.4byte	0xbf3
 4091 0d0d 11       		.uleb128 0x11
 4092 0d0e 04       		.byte	0x4
 4093 0d0f FC0C0000 		.4byte	0xcfc
 4094 0d13 18       		.uleb128 0x18
 4095 0d14 280D0000 		.4byte	0xd28
 4096 0d18 14       		.uleb128 0x14
 4097 0d19 070D0000 		.4byte	0xd07
 4098 0d1d 14       		.uleb128 0x14
 4099 0d1e 280D0000 		.4byte	0xd28
 4100 0d22 14       		.uleb128 0x14
 4101 0d23 4B070000 		.4byte	0x74b
 4102 0d27 00       		.byte	0
 4103 0d28 11       		.uleb128 0x11
 4104 0d29 04       		.byte	0x4
 4105 0d2a 2E0D0000 		.4byte	0xd2e
 4106 0d2e 12       		.uleb128 0x12
 4107 0d2f AE080000 		.4byte	0x8ae
 4108 0d33 11       		.uleb128 0x11
 4109 0d34 04       		.byte	0x4
 4110 0d35 130D0000 		.4byte	0xd13
 4111 0d39 18       		.uleb128 0x18
 4112 0d3a 5D0D0000 		.4byte	0xd5d
 4113 0d3e 14       		.uleb128 0x14
 4114 0d3f 070D0000 		.4byte	0xd07
 4115 0d43 14       		.uleb128 0x14
 4116 0d44 5D0D0000 		.4byte	0xd5d
 4117 0d48 14       		.uleb128 0x14
 4118 0d49 680D0000 		.4byte	0xd68
 4119 0d4d 14       		.uleb128 0x14
 4120 0d4e CE000000 		.4byte	0xce
 4121 0d52 14       		.uleb128 0x14
 4122 0d53 CE000000 		.4byte	0xce
 4123 0d57 14       		.uleb128 0x14
 4124 0d58 CE000000 		.4byte	0xce
 4125 0d5c 00       		.byte	0
 4126 0d5d 11       		.uleb128 0x11
ARM GAS  C:\Users\haske\AppData\Local\Temp\ccinSyc3.s 			page 87


 4127 0d5e 04       		.byte	0x4
 4128 0d5f 630D0000 		.4byte	0xd63
 4129 0d63 12       		.uleb128 0x12
 4130 0d64 1F0B0000 		.4byte	0xb1f
 4131 0d68 11       		.uleb128 0x11
 4132 0d69 04       		.byte	0x4
 4133 0d6a 6E0D0000 		.4byte	0xd6e
 4134 0d6e 12       		.uleb128 0x12
 4135 0d6f 14020000 		.4byte	0x214
 4136 0d73 11       		.uleb128 0x11
 4137 0d74 04       		.byte	0x4
 4138 0d75 390D0000 		.4byte	0xd39
 4139 0d79 18       		.uleb128 0x18
 4140 0d7a 980D0000 		.4byte	0xd98
 4141 0d7e 14       		.uleb128 0x14
 4142 0d7f 070D0000 		.4byte	0xd07
 4143 0d83 14       		.uleb128 0x14
 4144 0d84 980D0000 		.4byte	0xd98
 4145 0d88 14       		.uleb128 0x14
 4146 0d89 4B070000 		.4byte	0x74b
 4147 0d8d 14       		.uleb128 0x14
 4148 0d8e B1030000 		.4byte	0x3b1
 4149 0d92 14       		.uleb128 0x14
 4150 0d93 56070000 		.4byte	0x756
 4151 0d97 00       		.byte	0
 4152 0d98 11       		.uleb128 0x11
 4153 0d99 04       		.byte	0x4
 4154 0d9a 9E0D0000 		.4byte	0xd9e
 4155 0d9e 12       		.uleb128 0x12
 4156 0d9f 190A0000 		.4byte	0xa19
 4157 0da3 11       		.uleb128 0x11
 4158 0da4 04       		.byte	0x4
 4159 0da5 790D0000 		.4byte	0xd79
 4160 0da9 13       		.uleb128 0x13
 4161 0daa EF000000 		.4byte	0xef
 4162 0dae C70D0000 		.4byte	0xdc7
 4163 0db2 14       		.uleb128 0x14
 4164 0db3 070D0000 		.4byte	0xd07
 4165 0db7 14       		.uleb128 0x14
 4166 0db8 980D0000 		.4byte	0xd98
 4167 0dbc 14       		.uleb128 0x14
 4168 0dbd 4B070000 		.4byte	0x74b
 4169 0dc1 14       		.uleb128 0x14
 4170 0dc2 C2030000 		.4byte	0x3c2
 4171 0dc6 00       		.byte	0
 4172 0dc7 11       		.uleb128 0x11
 4173 0dc8 04       		.byte	0x4
 4174 0dc9 A90D0000 		.4byte	0xda9
 4175 0dcd 18       		.uleb128 0x18
 4176 0dce E70D0000 		.4byte	0xde7
 4177 0dd2 14       		.uleb128 0x14
 4178 0dd3 070D0000 		.4byte	0xd07
 4179 0dd7 14       		.uleb128 0x14
 4180 0dd8 E70D0000 		.4byte	0xde7
 4181 0ddc 14       		.uleb128 0x14
 4182 0ddd 680D0000 		.4byte	0xd68
 4183 0de1 14       		.uleb128 0x14
ARM GAS  C:\Users\haske\AppData\Local\Temp\ccinSyc3.s 			page 88


 4184 0de2 E4000000 		.4byte	0xe4
 4185 0de6 00       		.byte	0
 4186 0de7 11       		.uleb128 0x11
 4187 0de8 04       		.byte	0x4
 4188 0de9 ED0D0000 		.4byte	0xded
 4189 0ded 12       		.uleb128 0x12
 4190 0dee 93090000 		.4byte	0x993
 4191 0df2 11       		.uleb128 0x11
 4192 0df3 04       		.byte	0x4
 4193 0df4 CD0D0000 		.4byte	0xdcd
 4194 0df8 18       		.uleb128 0x18
 4195 0df9 120E0000 		.4byte	0xe12
 4196 0dfd 14       		.uleb128 0x14
 4197 0dfe 070D0000 		.4byte	0xd07
 4198 0e02 14       		.uleb128 0x14
 4199 0e03 120E0000 		.4byte	0xe12
 4200 0e07 14       		.uleb128 0x14
 4201 0e08 680D0000 		.4byte	0xd68
 4202 0e0c 14       		.uleb128 0x14
 4203 0e0d 680D0000 		.4byte	0xd68
 4204 0e11 00       		.byte	0
 4205 0e12 11       		.uleb128 0x11
 4206 0e13 04       		.byte	0x4
 4207 0e14 180E0000 		.4byte	0xe18
 4208 0e18 12       		.uleb128 0x12
 4209 0e19 A50A0000 		.4byte	0xaa5
 4210 0e1d 11       		.uleb128 0x11
 4211 0e1e 04       		.byte	0x4
 4212 0e1f F80D0000 		.4byte	0xdf8
 4213 0e23 18       		.uleb128 0x18
 4214 0e24 3D0E0000 		.4byte	0xe3d
 4215 0e28 14       		.uleb128 0x14
 4216 0e29 070D0000 		.4byte	0xd07
 4217 0e2d 14       		.uleb128 0x14
 4218 0e2e 280D0000 		.4byte	0xd28
 4219 0e32 14       		.uleb128 0x14
 4220 0e33 680D0000 		.4byte	0xd68
 4221 0e37 14       		.uleb128 0x14
 4222 0e38 CE000000 		.4byte	0xce
 4223 0e3c 00       		.byte	0
 4224 0e3d 11       		.uleb128 0x11
 4225 0e3e 04       		.byte	0x4
 4226 0e3f 230E0000 		.4byte	0xe23
 4227 0e43 18       		.uleb128 0x18
 4228 0e44 7B0E0000 		.4byte	0xe7b
 4229 0e48 14       		.uleb128 0x14
 4230 0e49 070D0000 		.4byte	0xd07
 4231 0e4d 14       		.uleb128 0x14
 4232 0e4e 4B070000 		.4byte	0x74b
 4233 0e52 14       		.uleb128 0x14
 4234 0e53 C2030000 		.4byte	0x3c2
 4235 0e57 14       		.uleb128 0x14
 4236 0e58 EC010000 		.4byte	0x1ec
 4237 0e5c 14       		.uleb128 0x14
 4238 0e5d EC010000 		.4byte	0x1ec
 4239 0e61 14       		.uleb128 0x14
 4240 0e62 EC010000 		.4byte	0x1ec
ARM GAS  C:\Users\haske\AppData\Local\Temp\ccinSyc3.s 			page 89


 4241 0e66 14       		.uleb128 0x14
 4242 0e67 980D0000 		.4byte	0xd98
 4243 0e6b 14       		.uleb128 0x14
 4244 0e6c 56070000 		.4byte	0x756
 4245 0e70 14       		.uleb128 0x14
 4246 0e71 61070000 		.4byte	0x761
 4247 0e75 14       		.uleb128 0x14
 4248 0e76 02050000 		.4byte	0x502
 4249 0e7a 00       		.byte	0
 4250 0e7b 11       		.uleb128 0x11
 4251 0e7c 04       		.byte	0x4
 4252 0e7d 430E0000 		.4byte	0xe43
 4253 0e81 18       		.uleb128 0x18
 4254 0e82 AA0E0000 		.4byte	0xeaa
 4255 0e86 14       		.uleb128 0x14
 4256 0e87 070D0000 		.4byte	0xd07
 4257 0e8b 14       		.uleb128 0x14
 4258 0e8c 13010000 		.4byte	0x113
 4259 0e90 14       		.uleb128 0x14
 4260 0e91 EC010000 		.4byte	0x1ec
 4261 0e95 14       		.uleb128 0x14
 4262 0e96 4B070000 		.4byte	0x74b
 4263 0e9a 14       		.uleb128 0x14
 4264 0e9b 13010000 		.4byte	0x113
 4265 0e9f 14       		.uleb128 0x14
 4266 0ea0 EC010000 		.4byte	0x1ec
 4267 0ea4 14       		.uleb128 0x14
 4268 0ea5 4B070000 		.4byte	0x74b
 4269 0ea9 00       		.byte	0
 4270 0eaa 11       		.uleb128 0x11
 4271 0eab 04       		.byte	0x4
 4272 0eac 810E0000 		.4byte	0xe81
 4273 0eb0 13       		.uleb128 0x13
 4274 0eb1 C90E0000 		.4byte	0xec9
 4275 0eb5 C90E0000 		.4byte	0xec9
 4276 0eb9 14       		.uleb128 0x14
 4277 0eba 070D0000 		.4byte	0xd07
 4278 0ebe 14       		.uleb128 0x14
 4279 0ebf C90E0000 		.4byte	0xec9
 4280 0ec3 14       		.uleb128 0x14
 4281 0ec4 490B0000 		.4byte	0xb49
 4282 0ec8 00       		.byte	0
 4283 0ec9 11       		.uleb128 0x11
 4284 0eca 04       		.byte	0x4
 4285 0ecb 930B0000 		.4byte	0xb93
 4286 0ecf 11       		.uleb128 0x11
 4287 0ed0 04       		.byte	0x4
 4288 0ed1 B00E0000 		.4byte	0xeb0
 4289 0ed5 18       		.uleb128 0x18
 4290 0ed6 EA0E0000 		.4byte	0xeea
 4291 0eda 14       		.uleb128 0x14
 4292 0edb 070D0000 		.4byte	0xd07
 4293 0edf 14       		.uleb128 0x14
 4294 0ee0 C90E0000 		.4byte	0xec9
 4295 0ee4 14       		.uleb128 0x14
 4296 0ee5 490B0000 		.4byte	0xb49
 4297 0ee9 00       		.byte	0
ARM GAS  C:\Users\haske\AppData\Local\Temp\ccinSyc3.s 			page 90


 4298 0eea 11       		.uleb128 0x11
 4299 0eeb 04       		.byte	0x4
 4300 0eec D50E0000 		.4byte	0xed5
 4301 0ef0 18       		.uleb128 0x18
 4302 0ef1 050F0000 		.4byte	0xf05
 4303 0ef5 14       		.uleb128 0x14
 4304 0ef6 070D0000 		.4byte	0xd07
 4305 0efa 14       		.uleb128 0x14
 4306 0efb C90E0000 		.4byte	0xec9
 4307 0eff 14       		.uleb128 0x14
 4308 0f00 980D0000 		.4byte	0xd98
 4309 0f04 00       		.byte	0
 4310 0f05 11       		.uleb128 0x11
 4311 0f06 04       		.byte	0x4
 4312 0f07 F00E0000 		.4byte	0xef0
 4313 0f0b 18       		.uleb128 0x18
 4314 0f0c 1B0F0000 		.4byte	0xf1b
 4315 0f10 14       		.uleb128 0x14
 4316 0f11 070D0000 		.4byte	0xd07
 4317 0f15 14       		.uleb128 0x14
 4318 0f16 1B0F0000 		.4byte	0xf1b
 4319 0f1a 00       		.byte	0
 4320 0f1b 11       		.uleb128 0x11
 4321 0f1c 04       		.byte	0x4
 4322 0f1d E80B0000 		.4byte	0xbe8
 4323 0f21 11       		.uleb128 0x11
 4324 0f22 04       		.byte	0x4
 4325 0f23 0B0F0000 		.4byte	0xf0b
 4326 0f27 02       		.uleb128 0x2
 4327 0f28 5F040000 		.4byte	.LASF203
 4328 0f2c 14       		.byte	0x14
 4329 0f2d C0       		.byte	0xc0
 4330 0f2e F30B0000 		.4byte	0xbf3
 4331 0f32 11       		.uleb128 0x11
 4332 0f33 04       		.byte	0x4
 4333 0f34 270F0000 		.4byte	0xf27
 4334 0f38 08       		.uleb128 0x8
 4335 0f39 1C       		.byte	0x1c
 4336 0f3a 01       		.byte	0x1
 4337 0f3b 18       		.byte	0x18
 4338 0f3c B90F0000 		.4byte	0xfb9
 4339 0f40 0F       		.uleb128 0xf
 4340 0f41 A8040000 		.4byte	.LASF204
 4341 0f45 01       		.byte	0x1
 4342 0f46 19       		.byte	0x19
 4343 0f47 680D0000 		.4byte	0xd68
 4344 0f4b 00       		.byte	0
 4345 0f4c 0F       		.uleb128 0xf
 4346 0f4d 66000000 		.4byte	.LASF107
 4347 0f51 01       		.byte	0x1
 4348 0f52 1A       		.byte	0x1a
 4349 0f53 EC010000 		.4byte	0x1ec
 4350 0f57 04       		.byte	0x4
 4351 0f58 0F       		.uleb128 0xf
 4352 0f59 93050000 		.4byte	.LASF96
 4353 0f5d 01       		.byte	0x1
 4354 0f5e 1B       		.byte	0x1b
ARM GAS  C:\Users\haske\AppData\Local\Temp\ccinSyc3.s 			page 91


 4355 0f5f CE000000 		.4byte	0xce
 4356 0f63 06       		.byte	0x6
 4357 0f64 0F       		.uleb128 0xf
 4358 0f65 6E020000 		.4byte	.LASF97
 4359 0f69 01       		.byte	0x1
 4360 0f6a 1C       		.byte	0x1c
 4361 0f6b CE000000 		.4byte	0xce
 4362 0f6f 08       		.byte	0x8
 4363 0f70 0F       		.uleb128 0xf
 4364 0f71 25020000 		.4byte	.LASF205
 4365 0f75 01       		.byte	0x1
 4366 0f76 1D       		.byte	0x1d
 4367 0f77 CE000000 		.4byte	0xce
 4368 0f7b 0A       		.byte	0xa
 4369 0f7c 0F       		.uleb128 0xf
 4370 0f7d 65060000 		.4byte	.LASF206
 4371 0f81 01       		.byte	0x1
 4372 0f82 1E       		.byte	0x1e
 4373 0f83 CE000000 		.4byte	0xce
 4374 0f87 0C       		.byte	0xc
 4375 0f88 0F       		.uleb128 0xf
 4376 0f89 7E060000 		.4byte	.LASF160
 4377 0f8d 01       		.byte	0x1
 4378 0f8e 1F       		.byte	0x1f
 4379 0f8f EC010000 		.4byte	0x1ec
 4380 0f93 0E       		.byte	0xe
 4381 0f94 0F       		.uleb128 0xf
 4382 0f95 DA000000 		.4byte	.LASF207
 4383 0f99 01       		.byte	0x1
 4384 0f9a 20       		.byte	0x20
 4385 0f9b B90F0000 		.4byte	0xfb9
 4386 0f9f 10       		.byte	0x10
 4387 0fa0 0F       		.uleb128 0xf
 4388 0fa1 99010000 		.4byte	.LASF208
 4389 0fa5 01       		.byte	0x1
 4390 0fa6 21       		.byte	0x21
 4391 0fa7 4B070000 		.4byte	0x74b
 4392 0fab 14       		.byte	0x14
 4393 0fac 0F       		.uleb128 0xf
 4394 0fad 9A0B0000 		.4byte	.LASF209
 4395 0fb1 01       		.byte	0x1
 4396 0fb2 22       		.byte	0x22
 4397 0fb3 320F0000 		.4byte	0xf32
 4398 0fb7 18       		.byte	0x18
 4399 0fb8 00       		.byte	0
 4400 0fb9 11       		.uleb128 0x11
 4401 0fba 04       		.byte	0x4
 4402 0fbb AE080000 		.4byte	0x8ae
 4403 0fbf 02       		.uleb128 0x2
 4404 0fc0 09060000 		.4byte	.LASF210
 4405 0fc4 01       		.byte	0x1
 4406 0fc5 23       		.byte	0x23
 4407 0fc6 380F0000 		.4byte	0xf38
 4408 0fca 19       		.uleb128 0x19
 4409 0fcb 3C0B0000 		.4byte	.LASF213
 4410 0fcf 02       		.byte	0x2
 4411 0fd0 7B       		.byte	0x7b
ARM GAS  C:\Users\haske\AppData\Local\Temp\ccinSyc3.s 			page 92


 4412 0fd1 EC010000 		.4byte	0x1ec
 4413 0fd5 03       		.byte	0x3
 4414 0fd6 E60F0000 		.4byte	0xfe6
 4415 0fda 1A       		.uleb128 0x1a
 4416 0fdb F8010000 		.4byte	.LASF211
 4417 0fdf 02       		.byte	0x2
 4418 0fe0 7B       		.byte	0x7b
 4419 0fe1 4B070000 		.4byte	0x74b
 4420 0fe5 00       		.byte	0
 4421 0fe6 1B       		.uleb128 0x1b
 4422 0fe7 E8030000 		.4byte	.LASF256
 4423 0feb 02       		.byte	0x2
 4424 0fec 6E       		.byte	0x6e
 4425 0fed 03       		.byte	0x3
 4426 0fee 09100000 		.4byte	0x1009
 4427 0ff2 1A       		.uleb128 0x1a
 4428 0ff3 C5090000 		.4byte	.LASF212
 4429 0ff7 02       		.byte	0x2
 4430 0ff8 6E       		.byte	0x6e
 4431 0ff9 8D0B0000 		.4byte	0xb8d
 4432 0ffd 1C       		.uleb128 0x1c
 4433 0ffe 73726300 		.ascii	"src\000"
 4434 1002 02       		.byte	0x2
 4435 1003 6E       		.byte	0x6e
 4436 1004 4B070000 		.4byte	0x74b
 4437 1008 00       		.byte	0
 4438 1009 19       		.uleb128 0x19
 4439 100a 44090000 		.4byte	.LASF214
 4440 100e 02       		.byte	0x2
 4441 100f 85       		.byte	0x85
 4442 1010 EC010000 		.4byte	0x1ec
 4443 1014 03       		.byte	0x3
 4444 1015 25100000 		.4byte	0x1025
 4445 1019 1A       		.uleb128 0x1a
 4446 101a F8010000 		.4byte	.LASF211
 4447 101e 02       		.byte	0x2
 4448 101f 85       		.byte	0x85
 4449 1020 4B070000 		.4byte	0x74b
 4450 1024 00       		.byte	0
 4451 1025 1D       		.uleb128 0x1d
 4452 1026 1A0C0000 		.4byte	.LASF217
 4453 102a 01       		.byte	0x1
 4454 102b E6       		.byte	0xe6
 4455 102c 00000000 		.4byte	.LFB57
 4456 1030 30020000 		.4byte	.LFE57-.LFB57
 4457 1034 01       		.uleb128 0x1
 4458 1035 9C       		.byte	0x9c
 4459 1036 C0110000 		.4byte	0x11c0
 4460 103a 1E       		.uleb128 0x1e
 4461 103b 7100     		.ascii	"q\000"
 4462 103d 01       		.byte	0x1
 4463 103e E6       		.byte	0xe6
 4464 103f C0110000 		.4byte	0x11c0
 4465 1043 00000000 		.4byte	.LLST0
 4466 1047 1F       		.uleb128 0x1f
 4467 1048 10080000 		.4byte	.LASF215
 4468 104c 01       		.byte	0x1
ARM GAS  C:\Users\haske\AppData\Local\Temp\ccinSyc3.s 			page 93


 4469 104d E8       		.byte	0xe8
 4470 104e 4B070000 		.4byte	0x74b
 4471 1052 2C000000 		.4byte	.LLST1
 4472 1056 20       		.uleb128 0x20
 4473 1057 59000000 		.4byte	.LASF216
 4474 105b 01       		.byte	0x1
 4475 105c E9       		.byte	0xe9
 4476 105d 54020000 		.4byte	0x254
 4477 1061 02       		.uleb128 0x2
 4478 1062 91       		.byte	0x91
 4479 1063 68       		.sleb128 -24
 4480 1064 21       		.uleb128 0x21
 4481 1065 1E000000 		.4byte	.LBB12
 4482 1069 A0000000 		.4byte	.LBE12-.LBB12
 4483 106d CD100000 		.4byte	0x10cd
 4484 1071 22       		.uleb128 0x22
 4485 1072 6F6B00   		.ascii	"ok\000"
 4486 1075 01       		.byte	0x1
 4487 1076 F3       		.byte	0xf3
 4488 1077 8A030000 		.4byte	0x38a
 4489 107b 4B000000 		.4byte	.LLST2
 4490 107f 23       		.uleb128 0x23
 4491 1080 2A000000 		.4byte	.LVL3
 4492 1084 8E1D0000 		.4byte	0x1d8e
 4493 1088 23       		.uleb128 0x23
 4494 1089 4E000000 		.4byte	.LVL4
 4495 108d 8E1D0000 		.4byte	0x1d8e
 4496 1091 23       		.uleb128 0x23
 4497 1092 6A000000 		.4byte	.LVL5
 4498 1096 8E1D0000 		.4byte	0x1d8e
 4499 109a 23       		.uleb128 0x23
 4500 109b 88000000 		.4byte	.LVL6
 4501 109f 8E1D0000 		.4byte	0x1d8e
 4502 10a3 24       		.uleb128 0x24
 4503 10a4 A6000000 		.4byte	.LVL7
 4504 10a8 991D0000 		.4byte	0x1d99
 4505 10ac C3100000 		.4byte	0x10c3
 4506 10b0 25       		.uleb128 0x25
 4507 10b1 01       		.uleb128 0x1
 4508 10b2 50       		.byte	0x50
 4509 10b3 02       		.uleb128 0x2
 4510 10b4 7D       		.byte	0x7d
 4511 10b5 00       		.sleb128 0
 4512 10b6 25       		.uleb128 0x25
 4513 10b7 01       		.uleb128 0x1
 4514 10b8 51       		.byte	0x51
 4515 10b9 02       		.uleb128 0x2
 4516 10ba 7D       		.byte	0x7d
 4517 10bb 00       		.sleb128 0
 4518 10bc 25       		.uleb128 0x25
 4519 10bd 01       		.uleb128 0x1
 4520 10be 52       		.byte	0x52
 4521 10bf 02       		.uleb128 0x2
 4522 10c0 75       		.byte	0x75
 4523 10c1 00       		.sleb128 0
 4524 10c2 00       		.byte	0
 4525 10c3 23       		.uleb128 0x23
ARM GAS  C:\Users\haske\AppData\Local\Temp\ccinSyc3.s 			page 94


 4526 10c4 BC000000 		.4byte	.LVL9
 4527 10c8 A41D0000 		.4byte	0x1da4
 4528 10cc 00       		.byte	0
 4529 10cd 21       		.uleb128 0x21
 4530 10ce CC000000 		.4byte	.LBB13
 4531 10d2 74000000 		.4byte	.LBE13-.LBB13
 4532 10d6 25110000 		.4byte	0x1125
 4533 10da 26       		.uleb128 0x26
 4534 10db 6F6B00   		.ascii	"ok\000"
 4535 10de 01       		.byte	0x1
 4536 10df 0201     		.2byte	0x102
 4537 10e1 8A030000 		.4byte	0x38a
 4538 10e5 5E000000 		.4byte	.LLST3
 4539 10e9 23       		.uleb128 0x23
 4540 10ea F0000000 		.4byte	.LVL10
 4541 10ee 8E1D0000 		.4byte	0x1d8e
 4542 10f2 23       		.uleb128 0x23
 4543 10f3 14010000 		.4byte	.LVL11
 4544 10f7 8E1D0000 		.4byte	0x1d8e
 4545 10fb 24       		.uleb128 0x24
 4546 10fc 2C010000 		.4byte	.LVL12
 4547 1100 991D0000 		.4byte	0x1d99
 4548 1104 1B110000 		.4byte	0x111b
 4549 1108 25       		.uleb128 0x25
 4550 1109 01       		.uleb128 0x1
 4551 110a 50       		.byte	0x50
 4552 110b 02       		.uleb128 0x2
 4553 110c 7D       		.byte	0x7d
 4554 110d 00       		.sleb128 0
 4555 110e 25       		.uleb128 0x25
 4556 110f 01       		.uleb128 0x1
 4557 1110 51       		.byte	0x51
 4558 1111 02       		.uleb128 0x2
 4559 1112 7D       		.byte	0x7d
 4560 1113 00       		.sleb128 0
 4561 1114 25       		.uleb128 0x25
 4562 1115 01       		.uleb128 0x1
 4563 1116 52       		.byte	0x52
 4564 1117 02       		.uleb128 0x2
 4565 1118 75       		.byte	0x75
 4566 1119 00       		.sleb128 0
 4567 111a 00       		.byte	0
 4568 111b 23       		.uleb128 0x23
 4569 111c 40010000 		.4byte	.LVL14
 4570 1120 A41D0000 		.4byte	0x1da4
 4571 1124 00       		.byte	0
 4572 1125 21       		.uleb128 0x21
 4573 1126 46010000 		.4byte	.LBB14
 4574 112a 76000000 		.4byte	.LBE14-.LBB14
 4575 112e 7D110000 		.4byte	0x117d
 4576 1132 26       		.uleb128 0x26
 4577 1133 6F6B00   		.ascii	"ok\000"
 4578 1136 01       		.byte	0x1
 4579 1137 0F01     		.2byte	0x10f
 4580 1139 8A030000 		.4byte	0x38a
 4581 113d 71000000 		.4byte	.LLST4
 4582 1141 23       		.uleb128 0x23
ARM GAS  C:\Users\haske\AppData\Local\Temp\ccinSyc3.s 			page 95


 4583 1142 6A010000 		.4byte	.LVL15
 4584 1146 8E1D0000 		.4byte	0x1d8e
 4585 114a 23       		.uleb128 0x23
 4586 114b 88010000 		.4byte	.LVL16
 4587 114f 8E1D0000 		.4byte	0x1d8e
 4588 1153 24       		.uleb128 0x24
 4589 1154 A6010000 		.4byte	.LVL17
 4590 1158 991D0000 		.4byte	0x1d99
 4591 115c 73110000 		.4byte	0x1173
 4592 1160 25       		.uleb128 0x25
 4593 1161 01       		.uleb128 0x1
 4594 1162 50       		.byte	0x50
 4595 1163 02       		.uleb128 0x2
 4596 1164 7D       		.byte	0x7d
 4597 1165 00       		.sleb128 0
 4598 1166 25       		.uleb128 0x25
 4599 1167 01       		.uleb128 0x1
 4600 1168 51       		.byte	0x51
 4601 1169 02       		.uleb128 0x2
 4602 116a 7D       		.byte	0x7d
 4603 116b 00       		.sleb128 0
 4604 116c 25       		.uleb128 0x25
 4605 116d 01       		.uleb128 0x1
 4606 116e 52       		.byte	0x52
 4607 116f 02       		.uleb128 0x2
 4608 1170 75       		.byte	0x75
 4609 1171 00       		.sleb128 0
 4610 1172 00       		.byte	0
 4611 1173 23       		.uleb128 0x23
 4612 1174 BA010000 		.4byte	.LVL19
 4613 1178 A41D0000 		.4byte	0x1da4
 4614 117c 00       		.byte	0
 4615 117d 27       		.uleb128 0x27
 4616 117e E4010000 		.4byte	.LBB15
 4617 1182 44000000 		.4byte	.LBE15-.LBB15
 4618 1186 26       		.uleb128 0x26
 4619 1187 6F6B00   		.ascii	"ok\000"
 4620 118a 01       		.byte	0x1
 4621 118b 2001     		.2byte	0x120
 4622 118d 8A030000 		.4byte	0x38a
 4623 1191 84000000 		.4byte	.LLST5
 4624 1195 24       		.uleb128 0x24
 4625 1196 14020000 		.4byte	.LVL20
 4626 119a 991D0000 		.4byte	0x1d99
 4627 119e B5110000 		.4byte	0x11b5
 4628 11a2 25       		.uleb128 0x25
 4629 11a3 01       		.uleb128 0x1
 4630 11a4 50       		.byte	0x50
 4631 11a5 02       		.uleb128 0x2
 4632 11a6 7D       		.byte	0x7d
 4633 11a7 00       		.sleb128 0
 4634 11a8 25       		.uleb128 0x25
 4635 11a9 01       		.uleb128 0x1
 4636 11aa 51       		.byte	0x51
 4637 11ab 02       		.uleb128 0x2
 4638 11ac 7D       		.byte	0x7d
 4639 11ad 00       		.sleb128 0
ARM GAS  C:\Users\haske\AppData\Local\Temp\ccinSyc3.s 			page 96


 4640 11ae 25       		.uleb128 0x25
 4641 11af 01       		.uleb128 0x1
 4642 11b0 52       		.byte	0x52
 4643 11b1 02       		.uleb128 0x2
 4644 11b2 75       		.byte	0x75
 4645 11b3 00       		.sleb128 0
 4646 11b4 00       		.byte	0
 4647 11b5 23       		.uleb128 0x23
 4648 11b6 28020000 		.4byte	.LVL22
 4649 11ba A41D0000 		.4byte	0x1da4
 4650 11be 00       		.byte	0
 4651 11bf 00       		.byte	0
 4652 11c0 11       		.uleb128 0x11
 4653 11c1 04       		.byte	0x4
 4654 11c2 BF0F0000 		.4byte	0xfbf
 4655 11c6 28       		.uleb128 0x28
 4656 11c7 E3000000 		.4byte	.LASF218
 4657 11cb 01       		.byte	0x1
 4658 11cc 2901     		.2byte	0x129
 4659 11ce 00000000 		.4byte	.LFB58
 4660 11d2 34020000 		.4byte	.LFE58-.LFB58
 4661 11d6 01       		.uleb128 0x1
 4662 11d7 9C       		.byte	0x9c
 4663 11d8 66130000 		.4byte	0x1366
 4664 11dc 29       		.uleb128 0x29
 4665 11dd 7100     		.ascii	"q\000"
 4666 11df 01       		.byte	0x1
 4667 11e0 2901     		.2byte	0x129
 4668 11e2 C0110000 		.4byte	0x11c0
 4669 11e6 97000000 		.4byte	.LLST6
 4670 11ea 2A       		.uleb128 0x2a
 4671 11eb 10080000 		.4byte	.LASF215
 4672 11ef 01       		.byte	0x1
 4673 11f0 2B01     		.2byte	0x12b
 4674 11f2 4B070000 		.4byte	0x74b
 4675 11f6 C3000000 		.4byte	.LLST7
 4676 11fa 2B       		.uleb128 0x2b
 4677 11fb 59000000 		.4byte	.LASF216
 4678 11ff 01       		.byte	0x1
 4679 1200 2C01     		.2byte	0x12c
 4680 1202 54020000 		.4byte	0x254
 4681 1206 02       		.uleb128 0x2
 4682 1207 91       		.byte	0x91
 4683 1208 68       		.sleb128 -24
 4684 1209 21       		.uleb128 0x21
 4685 120a 1E000000 		.4byte	.LBB16
 4686 120e A0000000 		.4byte	.LBE16-.LBB16
 4687 1212 73120000 		.4byte	0x1273
 4688 1216 26       		.uleb128 0x26
 4689 1217 6F6B00   		.ascii	"ok\000"
 4690 121a 01       		.byte	0x1
 4691 121b 3601     		.2byte	0x136
 4692 121d 8A030000 		.4byte	0x38a
 4693 1221 E2000000 		.4byte	.LLST8
 4694 1225 23       		.uleb128 0x23
 4695 1226 2A000000 		.4byte	.LVL28
 4696 122a 8E1D0000 		.4byte	0x1d8e
ARM GAS  C:\Users\haske\AppData\Local\Temp\ccinSyc3.s 			page 97


 4697 122e 23       		.uleb128 0x23
 4698 122f 48000000 		.4byte	.LVL29
 4699 1233 8E1D0000 		.4byte	0x1d8e
 4700 1237 23       		.uleb128 0x23
 4701 1238 6A000000 		.4byte	.LVL30
 4702 123c 8E1D0000 		.4byte	0x1d8e
 4703 1240 23       		.uleb128 0x23
 4704 1241 8E000000 		.4byte	.LVL31
 4705 1245 8E1D0000 		.4byte	0x1d8e
 4706 1249 24       		.uleb128 0x24
 4707 124a A6000000 		.4byte	.LVL32
 4708 124e 991D0000 		.4byte	0x1d99
 4709 1252 69120000 		.4byte	0x1269
 4710 1256 25       		.uleb128 0x25
 4711 1257 01       		.uleb128 0x1
 4712 1258 50       		.byte	0x50
 4713 1259 02       		.uleb128 0x2
 4714 125a 7D       		.byte	0x7d
 4715 125b 00       		.sleb128 0
 4716 125c 25       		.uleb128 0x25
 4717 125d 01       		.uleb128 0x1
 4718 125e 51       		.byte	0x51
 4719 125f 02       		.uleb128 0x2
 4720 1260 7D       		.byte	0x7d
 4721 1261 00       		.sleb128 0
 4722 1262 25       		.uleb128 0x25
 4723 1263 01       		.uleb128 0x1
 4724 1264 52       		.byte	0x52
 4725 1265 02       		.uleb128 0x2
 4726 1266 75       		.byte	0x75
 4727 1267 00       		.sleb128 0
 4728 1268 00       		.byte	0
 4729 1269 23       		.uleb128 0x23
 4730 126a BC000000 		.4byte	.LVL34
 4731 126e A41D0000 		.4byte	0x1da4
 4732 1272 00       		.byte	0
 4733 1273 21       		.uleb128 0x21
 4734 1274 CC000000 		.4byte	.LBB17
 4735 1278 74000000 		.4byte	.LBE17-.LBB17
 4736 127c CB120000 		.4byte	0x12cb
 4737 1280 26       		.uleb128 0x26
 4738 1281 6F6B00   		.ascii	"ok\000"
 4739 1284 01       		.byte	0x1
 4740 1285 4501     		.2byte	0x145
 4741 1287 8A030000 		.4byte	0x38a
 4742 128b F5000000 		.4byte	.LLST9
 4743 128f 23       		.uleb128 0x23
 4744 1290 F0000000 		.4byte	.LVL35
 4745 1294 8E1D0000 		.4byte	0x1d8e
 4746 1298 23       		.uleb128 0x23
 4747 1299 0E010000 		.4byte	.LVL36
 4748 129d 8E1D0000 		.4byte	0x1d8e
 4749 12a1 24       		.uleb128 0x24
 4750 12a2 2C010000 		.4byte	.LVL37
 4751 12a6 991D0000 		.4byte	0x1d99
 4752 12aa C1120000 		.4byte	0x12c1
 4753 12ae 25       		.uleb128 0x25
ARM GAS  C:\Users\haske\AppData\Local\Temp\ccinSyc3.s 			page 98


 4754 12af 01       		.uleb128 0x1
 4755 12b0 50       		.byte	0x50
 4756 12b1 02       		.uleb128 0x2
 4757 12b2 7D       		.byte	0x7d
 4758 12b3 00       		.sleb128 0
 4759 12b4 25       		.uleb128 0x25
 4760 12b5 01       		.uleb128 0x1
 4761 12b6 51       		.byte	0x51
 4762 12b7 02       		.uleb128 0x2
 4763 12b8 7D       		.byte	0x7d
 4764 12b9 00       		.sleb128 0
 4765 12ba 25       		.uleb128 0x25
 4766 12bb 01       		.uleb128 0x1
 4767 12bc 52       		.byte	0x52
 4768 12bd 02       		.uleb128 0x2
 4769 12be 75       		.byte	0x75
 4770 12bf 00       		.sleb128 0
 4771 12c0 00       		.byte	0
 4772 12c1 23       		.uleb128 0x23
 4773 12c2 40010000 		.4byte	.LVL39
 4774 12c6 A41D0000 		.4byte	0x1da4
 4775 12ca 00       		.byte	0
 4776 12cb 21       		.uleb128 0x21
 4777 12cc 46010000 		.4byte	.LBB18
 4778 12d0 78000000 		.4byte	.LBE18-.LBB18
 4779 12d4 23130000 		.4byte	0x1323
 4780 12d8 26       		.uleb128 0x26
 4781 12d9 6F6B00   		.ascii	"ok\000"
 4782 12dc 01       		.byte	0x1
 4783 12dd 5201     		.2byte	0x152
 4784 12df 8A030000 		.4byte	0x38a
 4785 12e3 08010000 		.4byte	.LLST10
 4786 12e7 23       		.uleb128 0x23
 4787 12e8 6C010000 		.4byte	.LVL40
 4788 12ec 8E1D0000 		.4byte	0x1d8e
 4789 12f0 23       		.uleb128 0x23
 4790 12f1 90010000 		.4byte	.LVL41
 4791 12f5 8E1D0000 		.4byte	0x1d8e
 4792 12f9 24       		.uleb128 0x24
 4793 12fa A8010000 		.4byte	.LVL42
 4794 12fe 991D0000 		.4byte	0x1d99
 4795 1302 19130000 		.4byte	0x1319
 4796 1306 25       		.uleb128 0x25
 4797 1307 01       		.uleb128 0x1
 4798 1308 50       		.byte	0x50
 4799 1309 02       		.uleb128 0x2
 4800 130a 7D       		.byte	0x7d
 4801 130b 00       		.sleb128 0
 4802 130c 25       		.uleb128 0x25
 4803 130d 01       		.uleb128 0x1
 4804 130e 51       		.byte	0x51
 4805 130f 02       		.uleb128 0x2
 4806 1310 7D       		.byte	0x7d
 4807 1311 00       		.sleb128 0
 4808 1312 25       		.uleb128 0x25
 4809 1313 01       		.uleb128 0x1
 4810 1314 52       		.byte	0x52
ARM GAS  C:\Users\haske\AppData\Local\Temp\ccinSyc3.s 			page 99


 4811 1315 02       		.uleb128 0x2
 4812 1316 75       		.byte	0x75
 4813 1317 00       		.sleb128 0
 4814 1318 00       		.byte	0
 4815 1319 23       		.uleb128 0x23
 4816 131a BC010000 		.4byte	.LVL44
 4817 131e A41D0000 		.4byte	0x1da4
 4818 1322 00       		.byte	0
 4819 1323 27       		.uleb128 0x27
 4820 1324 E6010000 		.4byte	.LBB19
 4821 1328 46000000 		.4byte	.LBE19-.LBB19
 4822 132c 26       		.uleb128 0x26
 4823 132d 6F6B00   		.ascii	"ok\000"
 4824 1330 01       		.byte	0x1
 4825 1331 6301     		.2byte	0x163
 4826 1333 8A030000 		.4byte	0x38a
 4827 1337 1B010000 		.4byte	.LLST11
 4828 133b 24       		.uleb128 0x24
 4829 133c 18020000 		.4byte	.LVL45
 4830 1340 991D0000 		.4byte	0x1d99
 4831 1344 5B130000 		.4byte	0x135b
 4832 1348 25       		.uleb128 0x25
 4833 1349 01       		.uleb128 0x1
 4834 134a 50       		.byte	0x50
 4835 134b 02       		.uleb128 0x2
 4836 134c 7D       		.byte	0x7d
 4837 134d 00       		.sleb128 0
 4838 134e 25       		.uleb128 0x25
 4839 134f 01       		.uleb128 0x1
 4840 1350 51       		.byte	0x51
 4841 1351 02       		.uleb128 0x2
 4842 1352 7D       		.byte	0x7d
 4843 1353 00       		.sleb128 0
 4844 1354 25       		.uleb128 0x25
 4845 1355 01       		.uleb128 0x1
 4846 1356 52       		.byte	0x52
 4847 1357 02       		.uleb128 0x2
 4848 1358 75       		.byte	0x75
 4849 1359 00       		.sleb128 0
 4850 135a 00       		.byte	0
 4851 135b 23       		.uleb128 0x23
 4852 135c 2C020000 		.4byte	.LVL47
 4853 1360 A41D0000 		.4byte	0x1da4
 4854 1364 00       		.byte	0
 4855 1365 00       		.byte	0
 4856 1366 28       		.uleb128 0x28
 4857 1367 340C0000 		.4byte	.LASF219
 4858 136b 01       		.byte	0x1
 4859 136c 6C01     		.2byte	0x16c
 4860 136e 00000000 		.4byte	.LFB59
 4861 1372 36020000 		.4byte	.LFE59-.LFB59
 4862 1376 01       		.uleb128 0x1
 4863 1377 9C       		.byte	0x9c
 4864 1378 06150000 		.4byte	0x1506
 4865 137c 29       		.uleb128 0x29
 4866 137d 7100     		.ascii	"q\000"
 4867 137f 01       		.byte	0x1
ARM GAS  C:\Users\haske\AppData\Local\Temp\ccinSyc3.s 			page 100


 4868 1380 6C01     		.2byte	0x16c
 4869 1382 C0110000 		.4byte	0x11c0
 4870 1386 2E010000 		.4byte	.LLST12
 4871 138a 2A       		.uleb128 0x2a
 4872 138b 10080000 		.4byte	.LASF215
 4873 138f 01       		.byte	0x1
 4874 1390 6E01     		.2byte	0x16e
 4875 1392 4B070000 		.4byte	0x74b
 4876 1396 5A010000 		.4byte	.LLST13
 4877 139a 2B       		.uleb128 0x2b
 4878 139b 59000000 		.4byte	.LASF216
 4879 139f 01       		.byte	0x1
 4880 13a0 6F01     		.2byte	0x16f
 4881 13a2 54020000 		.4byte	0x254
 4882 13a6 02       		.uleb128 0x2
 4883 13a7 91       		.byte	0x91
 4884 13a8 68       		.sleb128 -24
 4885 13a9 21       		.uleb128 0x21
 4886 13aa 1E000000 		.4byte	.LBB20
 4887 13ae A0000000 		.4byte	.LBE20-.LBB20
 4888 13b2 13140000 		.4byte	0x1413
 4889 13b6 26       		.uleb128 0x26
 4890 13b7 6F6B00   		.ascii	"ok\000"
 4891 13ba 01       		.byte	0x1
 4892 13bb 7901     		.2byte	0x179
 4893 13bd 8A030000 		.4byte	0x38a
 4894 13c1 79010000 		.4byte	.LLST14
 4895 13c5 23       		.uleb128 0x23
 4896 13c6 2C000000 		.4byte	.LVL53
 4897 13ca 8E1D0000 		.4byte	0x1d8e
 4898 13ce 23       		.uleb128 0x23
 4899 13cf 48000000 		.4byte	.LVL54
 4900 13d3 8E1D0000 		.4byte	0x1d8e
 4901 13d7 23       		.uleb128 0x23
 4902 13d8 6A000000 		.4byte	.LVL55
 4903 13dc 8E1D0000 		.4byte	0x1d8e
 4904 13e0 23       		.uleb128 0x23
 4905 13e1 88000000 		.4byte	.LVL56
 4906 13e5 8E1D0000 		.4byte	0x1d8e
 4907 13e9 24       		.uleb128 0x24
 4908 13ea A6000000 		.4byte	.LVL57
 4909 13ee 991D0000 		.4byte	0x1d99
 4910 13f2 09140000 		.4byte	0x1409
 4911 13f6 25       		.uleb128 0x25
 4912 13f7 01       		.uleb128 0x1
 4913 13f8 50       		.byte	0x50
 4914 13f9 02       		.uleb128 0x2
 4915 13fa 7D       		.byte	0x7d
 4916 13fb 00       		.sleb128 0
 4917 13fc 25       		.uleb128 0x25
 4918 13fd 01       		.uleb128 0x1
 4919 13fe 51       		.byte	0x51
 4920 13ff 02       		.uleb128 0x2
 4921 1400 7D       		.byte	0x7d
 4922 1401 00       		.sleb128 0
 4923 1402 25       		.uleb128 0x25
 4924 1403 01       		.uleb128 0x1
ARM GAS  C:\Users\haske\AppData\Local\Temp\ccinSyc3.s 			page 101


 4925 1404 52       		.byte	0x52
 4926 1405 02       		.uleb128 0x2
 4927 1406 75       		.byte	0x75
 4928 1407 00       		.sleb128 0
 4929 1408 00       		.byte	0
 4930 1409 23       		.uleb128 0x23
 4931 140a BC000000 		.4byte	.LVL59
 4932 140e A41D0000 		.4byte	0x1da4
 4933 1412 00       		.byte	0
 4934 1413 21       		.uleb128 0x21
 4935 1414 CC000000 		.4byte	.LBB21
 4936 1418 76000000 		.4byte	.LBE21-.LBB21
 4937 141c 6B140000 		.4byte	0x146b
 4938 1420 26       		.uleb128 0x26
 4939 1421 6F6B00   		.ascii	"ok\000"
 4940 1424 01       		.byte	0x1
 4941 1425 8801     		.2byte	0x188
 4942 1427 8A030000 		.4byte	0x38a
 4943 142b 8C010000 		.4byte	.LLST15
 4944 142f 23       		.uleb128 0x23
 4945 1430 F4000000 		.4byte	.LVL60
 4946 1434 8E1D0000 		.4byte	0x1d8e
 4947 1438 23       		.uleb128 0x23
 4948 1439 10010000 		.4byte	.LVL61
 4949 143d 8E1D0000 		.4byte	0x1d8e
 4950 1441 24       		.uleb128 0x24
 4951 1442 2E010000 		.4byte	.LVL62
 4952 1446 991D0000 		.4byte	0x1d99
 4953 144a 61140000 		.4byte	0x1461
 4954 144e 25       		.uleb128 0x25
 4955 144f 01       		.uleb128 0x1
 4956 1450 50       		.byte	0x50
 4957 1451 02       		.uleb128 0x2
 4958 1452 7D       		.byte	0x7d
 4959 1453 00       		.sleb128 0
 4960 1454 25       		.uleb128 0x25
 4961 1455 01       		.uleb128 0x1
 4962 1456 51       		.byte	0x51
 4963 1457 02       		.uleb128 0x2
 4964 1458 7D       		.byte	0x7d
 4965 1459 00       		.sleb128 0
 4966 145a 25       		.uleb128 0x25
 4967 145b 01       		.uleb128 0x1
 4968 145c 52       		.byte	0x52
 4969 145d 02       		.uleb128 0x2
 4970 145e 75       		.byte	0x75
 4971 145f 00       		.sleb128 0
 4972 1460 00       		.byte	0
 4973 1461 23       		.uleb128 0x23
 4974 1462 42010000 		.4byte	.LVL64
 4975 1466 A41D0000 		.4byte	0x1da4
 4976 146a 00       		.byte	0
 4977 146b 21       		.uleb128 0x21
 4978 146c 48010000 		.4byte	.LBB22
 4979 1470 78000000 		.4byte	.LBE22-.LBB22
 4980 1474 C3140000 		.4byte	0x14c3
 4981 1478 26       		.uleb128 0x26
ARM GAS  C:\Users\haske\AppData\Local\Temp\ccinSyc3.s 			page 102


 4982 1479 6F6B00   		.ascii	"ok\000"
 4983 147c 01       		.byte	0x1
 4984 147d 9501     		.2byte	0x195
 4985 147f 8A030000 		.4byte	0x38a
 4986 1483 9F010000 		.4byte	.LLST16
 4987 1487 23       		.uleb128 0x23
 4988 1488 70010000 		.4byte	.LVL65
 4989 148c 8E1D0000 		.4byte	0x1d8e
 4990 1490 23       		.uleb128 0x23
 4991 1491 92010000 		.4byte	.LVL66
 4992 1495 8E1D0000 		.4byte	0x1d8e
 4993 1499 24       		.uleb128 0x24
 4994 149a AA010000 		.4byte	.LVL67
 4995 149e 991D0000 		.4byte	0x1d99
 4996 14a2 B9140000 		.4byte	0x14b9
 4997 14a6 25       		.uleb128 0x25
 4998 14a7 01       		.uleb128 0x1
 4999 14a8 50       		.byte	0x50
 5000 14a9 02       		.uleb128 0x2
 5001 14aa 7D       		.byte	0x7d
 5002 14ab 00       		.sleb128 0
 5003 14ac 25       		.uleb128 0x25
 5004 14ad 01       		.uleb128 0x1
 5005 14ae 51       		.byte	0x51
 5006 14af 02       		.uleb128 0x2
 5007 14b0 7D       		.byte	0x7d
 5008 14b1 00       		.sleb128 0
 5009 14b2 25       		.uleb128 0x25
 5010 14b3 01       		.uleb128 0x1
 5011 14b4 52       		.byte	0x52
 5012 14b5 02       		.uleb128 0x2
 5013 14b6 75       		.byte	0x75
 5014 14b7 00       		.sleb128 0
 5015 14b8 00       		.byte	0
 5016 14b9 23       		.uleb128 0x23
 5017 14ba BE010000 		.4byte	.LVL69
 5018 14be A41D0000 		.4byte	0x1da4
 5019 14c2 00       		.byte	0
 5020 14c3 27       		.uleb128 0x27
 5021 14c4 E8010000 		.4byte	.LBB23
 5022 14c8 46000000 		.4byte	.LBE23-.LBB23
 5023 14cc 26       		.uleb128 0x26
 5024 14cd 6F6B00   		.ascii	"ok\000"
 5025 14d0 01       		.byte	0x1
 5026 14d1 A601     		.2byte	0x1a6
 5027 14d3 8A030000 		.4byte	0x38a
 5028 14d7 B2010000 		.4byte	.LLST17
 5029 14db 24       		.uleb128 0x24
 5030 14dc 1A020000 		.4byte	.LVL70
 5031 14e0 991D0000 		.4byte	0x1d99
 5032 14e4 FB140000 		.4byte	0x14fb
 5033 14e8 25       		.uleb128 0x25
 5034 14e9 01       		.uleb128 0x1
 5035 14ea 50       		.byte	0x50
 5036 14eb 02       		.uleb128 0x2
 5037 14ec 7D       		.byte	0x7d
 5038 14ed 00       		.sleb128 0
ARM GAS  C:\Users\haske\AppData\Local\Temp\ccinSyc3.s 			page 103


 5039 14ee 25       		.uleb128 0x25
 5040 14ef 01       		.uleb128 0x1
 5041 14f0 51       		.byte	0x51
 5042 14f1 02       		.uleb128 0x2
 5043 14f2 7D       		.byte	0x7d
 5044 14f3 00       		.sleb128 0
 5045 14f4 25       		.uleb128 0x25
 5046 14f5 01       		.uleb128 0x1
 5047 14f6 52       		.byte	0x52
 5048 14f7 02       		.uleb128 0x2
 5049 14f8 75       		.byte	0x75
 5050 14f9 00       		.sleb128 0
 5051 14fa 00       		.byte	0
 5052 14fb 23       		.uleb128 0x23
 5053 14fc 2E020000 		.4byte	.LVL72
 5054 1500 A41D0000 		.4byte	0x1da4
 5055 1504 00       		.byte	0
 5056 1505 00       		.byte	0
 5057 1506 28       		.uleb128 0x28
 5058 1507 430C0000 		.4byte	.LASF220
 5059 150b 01       		.byte	0x1
 5060 150c AF01     		.2byte	0x1af
 5061 150e 00000000 		.4byte	.LFB60
 5062 1512 32020000 		.4byte	.LFE60-.LFB60
 5063 1516 01       		.uleb128 0x1
 5064 1517 9C       		.byte	0x9c
 5065 1518 A6160000 		.4byte	0x16a6
 5066 151c 29       		.uleb128 0x29
 5067 151d 7100     		.ascii	"q\000"
 5068 151f 01       		.byte	0x1
 5069 1520 AF01     		.2byte	0x1af
 5070 1522 C0110000 		.4byte	0x11c0
 5071 1526 C5010000 		.4byte	.LLST18
 5072 152a 2A       		.uleb128 0x2a
 5073 152b 10080000 		.4byte	.LASF215
 5074 152f 01       		.byte	0x1
 5075 1530 B101     		.2byte	0x1b1
 5076 1532 4B070000 		.4byte	0x74b
 5077 1536 F1010000 		.4byte	.LLST19
 5078 153a 2B       		.uleb128 0x2b
 5079 153b 59000000 		.4byte	.LASF216
 5080 153f 01       		.byte	0x1
 5081 1540 B201     		.2byte	0x1b2
 5082 1542 54020000 		.4byte	0x254
 5083 1546 02       		.uleb128 0x2
 5084 1547 91       		.byte	0x91
 5085 1548 68       		.sleb128 -24
 5086 1549 21       		.uleb128 0x21
 5087 154a 1E000000 		.4byte	.LBB24
 5088 154e A0000000 		.4byte	.LBE24-.LBB24
 5089 1552 B3150000 		.4byte	0x15b3
 5090 1556 26       		.uleb128 0x26
 5091 1557 6F6B00   		.ascii	"ok\000"
 5092 155a 01       		.byte	0x1
 5093 155b BC01     		.2byte	0x1bc
 5094 155d 8A030000 		.4byte	0x38a
 5095 1561 10020000 		.4byte	.LLST20
ARM GAS  C:\Users\haske\AppData\Local\Temp\ccinSyc3.s 			page 104


 5096 1565 23       		.uleb128 0x23
 5097 1566 2C000000 		.4byte	.LVL78
 5098 156a 8E1D0000 		.4byte	0x1d8e
 5099 156e 23       		.uleb128 0x23
 5100 156f 4E000000 		.4byte	.LVL79
 5101 1573 8E1D0000 		.4byte	0x1d8e
 5102 1577 23       		.uleb128 0x23
 5103 1578 6C000000 		.4byte	.LVL80
 5104 157c 8E1D0000 		.4byte	0x1d8e
 5105 1580 23       		.uleb128 0x23
 5106 1581 88000000 		.4byte	.LVL81
 5107 1585 8E1D0000 		.4byte	0x1d8e
 5108 1589 24       		.uleb128 0x24
 5109 158a A6000000 		.4byte	.LVL82
 5110 158e 991D0000 		.4byte	0x1d99
 5111 1592 A9150000 		.4byte	0x15a9
 5112 1596 25       		.uleb128 0x25
 5113 1597 01       		.uleb128 0x1
 5114 1598 50       		.byte	0x50
 5115 1599 02       		.uleb128 0x2
 5116 159a 7D       		.byte	0x7d
 5117 159b 00       		.sleb128 0
 5118 159c 25       		.uleb128 0x25
 5119 159d 01       		.uleb128 0x1
 5120 159e 51       		.byte	0x51
 5121 159f 02       		.uleb128 0x2
 5122 15a0 7D       		.byte	0x7d
 5123 15a1 00       		.sleb128 0
 5124 15a2 25       		.uleb128 0x25
 5125 15a3 01       		.uleb128 0x1
 5126 15a4 52       		.byte	0x52
 5127 15a5 02       		.uleb128 0x2
 5128 15a6 75       		.byte	0x75
 5129 15a7 00       		.sleb128 0
 5130 15a8 00       		.byte	0
 5131 15a9 23       		.uleb128 0x23
 5132 15aa BC000000 		.4byte	.LVL84
 5133 15ae A41D0000 		.4byte	0x1da4
 5134 15b2 00       		.byte	0
 5135 15b3 21       		.uleb128 0x21
 5136 15b4 CC000000 		.4byte	.LBB25
 5137 15b8 76000000 		.4byte	.LBE25-.LBB25
 5138 15bc 0B160000 		.4byte	0x160b
 5139 15c0 26       		.uleb128 0x26
 5140 15c1 6F6B00   		.ascii	"ok\000"
 5141 15c4 01       		.byte	0x1
 5142 15c5 CB01     		.2byte	0x1cb
 5143 15c7 8A030000 		.4byte	0x38a
 5144 15cb 23020000 		.4byte	.LLST21
 5145 15cf 23       		.uleb128 0x23
 5146 15d0 F4000000 		.4byte	.LVL85
 5147 15d4 8E1D0000 		.4byte	0x1d8e
 5148 15d8 23       		.uleb128 0x23
 5149 15d9 16010000 		.4byte	.LVL86
 5150 15dd 8E1D0000 		.4byte	0x1d8e
 5151 15e1 24       		.uleb128 0x24
 5152 15e2 2E010000 		.4byte	.LVL87
ARM GAS  C:\Users\haske\AppData\Local\Temp\ccinSyc3.s 			page 105


 5153 15e6 991D0000 		.4byte	0x1d99
 5154 15ea 01160000 		.4byte	0x1601
 5155 15ee 25       		.uleb128 0x25
 5156 15ef 01       		.uleb128 0x1
 5157 15f0 50       		.byte	0x50
 5158 15f1 02       		.uleb128 0x2
 5159 15f2 7D       		.byte	0x7d
 5160 15f3 00       		.sleb128 0
 5161 15f4 25       		.uleb128 0x25
 5162 15f5 01       		.uleb128 0x1
 5163 15f6 51       		.byte	0x51
 5164 15f7 02       		.uleb128 0x2
 5165 15f8 7D       		.byte	0x7d
 5166 15f9 00       		.sleb128 0
 5167 15fa 25       		.uleb128 0x25
 5168 15fb 01       		.uleb128 0x1
 5169 15fc 52       		.byte	0x52
 5170 15fd 02       		.uleb128 0x2
 5171 15fe 75       		.byte	0x75
 5172 15ff 00       		.sleb128 0
 5173 1600 00       		.byte	0
 5174 1601 23       		.uleb128 0x23
 5175 1602 42010000 		.4byte	.LVL89
 5176 1606 A41D0000 		.4byte	0x1da4
 5177 160a 00       		.byte	0
 5178 160b 21       		.uleb128 0x21
 5179 160c 48010000 		.4byte	.LBB26
 5180 1610 76000000 		.4byte	.LBE26-.LBB26
 5181 1614 63160000 		.4byte	0x1663
 5182 1618 26       		.uleb128 0x26
 5183 1619 6F6B00   		.ascii	"ok\000"
 5184 161c 01       		.byte	0x1
 5185 161d D801     		.2byte	0x1d8
 5186 161f 8A030000 		.4byte	0x38a
 5187 1623 36020000 		.4byte	.LLST22
 5188 1627 23       		.uleb128 0x23
 5189 1628 6E010000 		.4byte	.LVL90
 5190 162c 8E1D0000 		.4byte	0x1d8e
 5191 1630 23       		.uleb128 0x23
 5192 1631 8A010000 		.4byte	.LVL91
 5193 1635 8E1D0000 		.4byte	0x1d8e
 5194 1639 24       		.uleb128 0x24
 5195 163a A8010000 		.4byte	.LVL92
 5196 163e 991D0000 		.4byte	0x1d99
 5197 1642 59160000 		.4byte	0x1659
 5198 1646 25       		.uleb128 0x25
 5199 1647 01       		.uleb128 0x1
 5200 1648 50       		.byte	0x50
 5201 1649 02       		.uleb128 0x2
 5202 164a 7D       		.byte	0x7d
 5203 164b 00       		.sleb128 0
 5204 164c 25       		.uleb128 0x25
 5205 164d 01       		.uleb128 0x1
 5206 164e 51       		.byte	0x51
 5207 164f 02       		.uleb128 0x2
 5208 1650 7D       		.byte	0x7d
 5209 1651 00       		.sleb128 0
ARM GAS  C:\Users\haske\AppData\Local\Temp\ccinSyc3.s 			page 106


 5210 1652 25       		.uleb128 0x25
 5211 1653 01       		.uleb128 0x1
 5212 1654 52       		.byte	0x52
 5213 1655 02       		.uleb128 0x2
 5214 1656 75       		.byte	0x75
 5215 1657 00       		.sleb128 0
 5216 1658 00       		.byte	0
 5217 1659 23       		.uleb128 0x23
 5218 165a BC010000 		.4byte	.LVL94
 5219 165e A41D0000 		.4byte	0x1da4
 5220 1662 00       		.byte	0
 5221 1663 27       		.uleb128 0x27
 5222 1664 E6010000 		.4byte	.LBB27
 5223 1668 44000000 		.4byte	.LBE27-.LBB27
 5224 166c 26       		.uleb128 0x26
 5225 166d 6F6B00   		.ascii	"ok\000"
 5226 1670 01       		.byte	0x1
 5227 1671 E901     		.2byte	0x1e9
 5228 1673 8A030000 		.4byte	0x38a
 5229 1677 49020000 		.4byte	.LLST23
 5230 167b 24       		.uleb128 0x24
 5231 167c 16020000 		.4byte	.LVL95
 5232 1680 991D0000 		.4byte	0x1d99
 5233 1684 9B160000 		.4byte	0x169b
 5234 1688 25       		.uleb128 0x25
 5235 1689 01       		.uleb128 0x1
 5236 168a 50       		.byte	0x50
 5237 168b 02       		.uleb128 0x2
 5238 168c 7D       		.byte	0x7d
 5239 168d 00       		.sleb128 0
 5240 168e 25       		.uleb128 0x25
 5241 168f 01       		.uleb128 0x1
 5242 1690 51       		.byte	0x51
 5243 1691 02       		.uleb128 0x2
 5244 1692 7D       		.byte	0x7d
 5245 1693 00       		.sleb128 0
 5246 1694 25       		.uleb128 0x25
 5247 1695 01       		.uleb128 0x1
 5248 1696 52       		.byte	0x52
 5249 1697 02       		.uleb128 0x2
 5250 1698 75       		.byte	0x75
 5251 1699 00       		.sleb128 0
 5252 169a 00       		.byte	0
 5253 169b 23       		.uleb128 0x23
 5254 169c 2A020000 		.4byte	.LVL97
 5255 16a0 A41D0000 		.4byte	0x1da4
 5256 16a4 00       		.byte	0
 5257 16a5 00       		.byte	0
 5258 16a6 28       		.uleb128 0x28
 5259 16a7 870C0000 		.4byte	.LASF221
 5260 16ab 01       		.byte	0x1
 5261 16ac F301     		.2byte	0x1f3
 5262 16ae 00000000 		.4byte	.LFB61
 5263 16b2 96000000 		.4byte	.LFE61-.LFB61
 5264 16b6 01       		.uleb128 0x1
 5265 16b7 9C       		.byte	0x9c
 5266 16b8 70170000 		.4byte	0x1770
ARM GAS  C:\Users\haske\AppData\Local\Temp\ccinSyc3.s 			page 107


 5267 16bc 2C       		.uleb128 0x2c
 5268 16bd F2050000 		.4byte	.LASF152
 5269 16c1 01       		.byte	0x1
 5270 16c2 F301     		.2byte	0x1f3
 5271 16c4 C3000000 		.4byte	0xc3
 5272 16c8 5C020000 		.4byte	.LLST24
 5273 16cc 2C       		.uleb128 0x2c
 5274 16cd 66000000 		.4byte	.LASF107
 5275 16d1 01       		.byte	0x1
 5276 16d2 F301     		.2byte	0x1f3
 5277 16d4 EC010000 		.4byte	0x1ec
 5278 16d8 7D020000 		.4byte	.LLST25
 5279 16dc 2C       		.uleb128 0x2c
 5280 16dd 44000000 		.4byte	.LASF222
 5281 16e1 01       		.byte	0x1
 5282 16e2 F301     		.2byte	0x1f3
 5283 16e4 B8000000 		.4byte	0xb8
 5284 16e8 9E020000 		.4byte	.LLST26
 5285 16ec 2C       		.uleb128 0x2c
 5286 16ed E9050000 		.4byte	.LASF223
 5287 16f1 01       		.byte	0x1
 5288 16f2 F301     		.2byte	0x1f3
 5289 16f4 8D0B0000 		.4byte	0xb8d
 5290 16f8 BF020000 		.4byte	.LLST27
 5291 16fc 2D       		.uleb128 0x2d
 5292 16fd 707300   		.ascii	"ps\000"
 5293 1700 01       		.byte	0x1
 5294 1701 F501     		.2byte	0x1f5
 5295 1703 B7030000 		.4byte	0x3b7
 5296 1707 08       		.byte	0x8
 5297 1708 2D       		.uleb128 0x2d
 5298 1709 706100   		.ascii	"pa\000"
 5299 170c 01       		.byte	0x1
 5300 170d F601     		.2byte	0x1f6
 5301 170f B7030000 		.4byte	0x3b7
 5302 1713 7F       		.byte	0x7f
 5303 1714 2A       		.uleb128 0x2a
 5304 1715 63020000 		.4byte	.LASF224
 5305 1719 01       		.byte	0x1
 5306 171a F801     		.2byte	0x1f8
 5307 171c D9000000 		.4byte	0xd9
 5308 1720 EB020000 		.4byte	.LLST28
 5309 1724 2A       		.uleb128 0x2a
 5310 1725 39090000 		.4byte	.LASF225
 5311 1729 01       		.byte	0x1
 5312 172a F901     		.2byte	0x1f9
 5313 172c B8000000 		.4byte	0xb8
 5314 1730 09030000 		.4byte	.LLST29
 5315 1734 2A       		.uleb128 0x2a
 5316 1735 8D050000 		.4byte	.LASF226
 5317 1739 01       		.byte	0x1
 5318 173a FB01     		.2byte	0x1fb
 5319 173c D9000000 		.4byte	0xd9
 5320 1740 1C030000 		.4byte	.LLST30
 5321 1744 2A       		.uleb128 0x2a
 5322 1745 5B0D0000 		.4byte	.LASF227
 5323 1749 01       		.byte	0x1
ARM GAS  C:\Users\haske\AppData\Local\Temp\ccinSyc3.s 			page 108


 5324 174a FC01     		.2byte	0x1fc
 5325 174c D9000000 		.4byte	0xd9
 5326 1750 6C030000 		.4byte	.LLST31
 5327 1754 23       		.uleb128 0x23
 5328 1755 26000000 		.4byte	.LVL107
 5329 1759 8E1D0000 		.4byte	0x1d8e
 5330 175d 2E       		.uleb128 0x2e
 5331 175e 32000000 		.4byte	.LVL109
 5332 1762 8E1D0000 		.4byte	0x1d8e
 5333 1766 25       		.uleb128 0x25
 5334 1767 01       		.uleb128 0x1
 5335 1768 50       		.byte	0x50
 5336 1769 04       		.uleb128 0x4
 5337 176a 91       		.byte	0x91
 5338 176b 64       		.sleb128 -28
 5339 176c 94       		.byte	0x94
 5340 176d 02       		.byte	0x2
 5341 176e 00       		.byte	0
 5342 176f 00       		.byte	0
 5343 1770 2F       		.uleb128 0x2f
 5344 1771 41070000 		.4byte	.LASF257
 5345 1775 01       		.byte	0x1
 5346 1776 3C       		.byte	0x3c
 5347 1777 00000000 		.4byte	.LFB56
 5348 177b 70030000 		.4byte	.LFE56-.LFB56
 5349 177f 01       		.uleb128 0x1
 5350 1780 9C       		.byte	0x9c
 5351 1781 831D0000 		.4byte	0x1d83
 5352 1785 30       		.uleb128 0x30
 5353 1786 9A0B0000 		.4byte	.LASF209
 5354 178a 01       		.byte	0x1
 5355 178b 3C       		.byte	0x3c
 5356 178c 320F0000 		.4byte	0xf32
 5357 1790 BC030000 		.4byte	.LLST32
 5358 1794 1E       		.uleb128 0x1e
 5359 1795 64736300 		.ascii	"dsc\000"
 5360 1799 01       		.byte	0x1
 5361 179a 3C       		.byte	0x3c
 5362 179b 5D0D0000 		.4byte	0xd5d
 5363 179f DC030000 		.4byte	.LLST33
 5364 17a3 30       		.uleb128 0x30
 5365 17a4 A8040000 		.4byte	.LASF204
 5366 17a8 01       		.byte	0x1
 5367 17a9 3C       		.byte	0x3c
 5368 17aa 680D0000 		.4byte	0xd68
 5369 17ae 08040000 		.4byte	.LLST34
 5370 17b2 30       		.uleb128 0x30
 5371 17b3 66000000 		.4byte	.LASF107
 5372 17b7 01       		.byte	0x1
 5373 17b8 3C       		.byte	0x3c
 5374 17b9 CE000000 		.4byte	0xce
 5375 17bd 28040000 		.4byte	.LLST35
 5376 17c1 30       		.uleb128 0x30
 5377 17c2 93050000 		.4byte	.LASF96
 5378 17c6 01       		.byte	0x1
 5379 17c7 3D       		.byte	0x3d
 5380 17c8 CE000000 		.4byte	0xce
ARM GAS  C:\Users\haske\AppData\Local\Temp\ccinSyc3.s 			page 109


 5381 17cc 49040000 		.4byte	.LLST36
 5382 17d0 30       		.uleb128 0x30
 5383 17d1 6E020000 		.4byte	.LASF97
 5384 17d5 01       		.byte	0x1
 5385 17d6 3D       		.byte	0x3d
 5386 17d7 CE000000 		.4byte	0xce
 5387 17db B0040000 		.4byte	.LLST37
 5388 17df 1F       		.uleb128 0x1f
 5389 17e0 7E060000 		.4byte	.LASF160
 5390 17e4 01       		.byte	0x1
 5391 17e5 44       		.byte	0x44
 5392 17e6 EC010000 		.4byte	0x1ec
 5393 17ea 09050000 		.4byte	.LLST38
 5394 17ee 20       		.uleb128 0x20
 5395 17ef 1C040000 		.4byte	.LASF228
 5396 17f3 01       		.byte	0x1
 5397 17f4 47       		.byte	0x47
 5398 17f5 AE080000 		.4byte	0x8ae
 5399 17f9 03       		.uleb128 0x3
 5400 17fa 91       		.byte	0x91
 5401 17fb A07F     		.sleb128 -96
 5402 17fd 20       		.uleb128 0x20
 5403 17fe 44080000 		.4byte	.LASF229
 5404 1802 01       		.byte	0x1
 5405 1803 54       		.byte	0x54
 5406 1804 54020000 		.4byte	0x254
 5407 1808 03       		.uleb128 0x3
 5408 1809 91       		.byte	0x91
 5409 180a 987F     		.sleb128 -104
 5410 180c 20       		.uleb128 0x20
 5411 180d 0A050000 		.4byte	.LASF230
 5412 1811 01       		.byte	0x1
 5413 1812 5A       		.byte	0x5a
 5414 1813 54020000 		.4byte	0x254
 5415 1817 03       		.uleb128 0x3
 5416 1818 91       		.byte	0x91
 5417 1819 907F     		.sleb128 -112
 5418 181b 1F       		.uleb128 0x1f
 5419 181c D30C0000 		.4byte	.LASF231
 5420 1820 01       		.byte	0x1
 5421 1821 62       		.byte	0x62
 5422 1822 C3000000 		.4byte	0xc3
 5423 1826 27050000 		.4byte	.LLST39
 5424 182a 20       		.uleb128 0x20
 5425 182b AD070000 		.4byte	.LASF232
 5426 182f 01       		.byte	0x1
 5427 1830 63       		.byte	0x63
 5428 1831 40070000 		.4byte	0x740
 5429 1835 03       		.uleb128 0x3
 5430 1836 91       		.byte	0x91
 5431 1837 F87E     		.sleb128 -136
 5432 1839 1F       		.uleb128 0x1f
 5433 183a 88040000 		.4byte	.LASF233
 5434 183e 01       		.byte	0x1
 5435 183f 64       		.byte	0x64
 5436 1840 8A030000 		.4byte	0x38a
 5437 1844 61050000 		.4byte	.LLST40
ARM GAS  C:\Users\haske\AppData\Local\Temp\ccinSyc3.s 			page 110


 5438 1848 20       		.uleb128 0x20
 5439 1849 910A0000 		.4byte	.LASF234
 5440 184d 01       		.byte	0x1
 5441 184e 6B       		.byte	0x6b
 5442 184f 40070000 		.4byte	0x740
 5443 1853 03       		.uleb128 0x3
 5444 1854 91       		.byte	0x91
 5445 1855 E07E     		.sleb128 -160
 5446 1857 1F       		.uleb128 0x1f
 5447 1858 27060000 		.4byte	.LASF235
 5448 185c 01       		.byte	0x1
 5449 185d 6D       		.byte	0x6d
 5450 185e C3000000 		.4byte	0xc3
 5451 1862 98050000 		.4byte	.LLST41
 5452 1866 20       		.uleb128 0x20
 5453 1867 760C0000 		.4byte	.LASF236
 5454 186b 01       		.byte	0x1
 5455 186c 82       		.byte	0x82
 5456 186d 64060000 		.4byte	0x664
 5457 1871 03       		.uleb128 0x3
 5458 1872 91       		.byte	0x91
 5459 1873 F47D     		.sleb128 -268
 5460 1875 1F       		.uleb128 0x1f
 5461 1876 0E0B0000 		.4byte	.LASF237
 5462 187a 01       		.byte	0x1
 5463 187b 84       		.byte	0x84
 5464 187c C3000000 		.4byte	0xc3
 5465 1880 AD050000 		.4byte	.LLST42
 5466 1884 1F       		.uleb128 0x1f
 5467 1885 AD020000 		.4byte	.LASF238
 5468 1889 01       		.byte	0x1
 5469 188a 86       		.byte	0x86
 5470 188b D9000000 		.4byte	0xd9
 5471 188f C2050000 		.4byte	.LLST43
 5472 1893 1F       		.uleb128 0x1f
 5473 1894 10080000 		.4byte	.LASF215
 5474 1898 01       		.byte	0x1
 5475 1899 8E       		.byte	0x8e
 5476 189a 4B070000 		.4byte	0x74b
 5477 189e E0050000 		.4byte	.LLST44
 5478 18a2 31       		.uleb128 0x31
 5479 18a3 E60F0000 		.4byte	0xfe6
 5480 18a7 A0000000 		.4byte	.LBB28
 5481 18ab 02000000 		.4byte	.LBE28-.LBB28
 5482 18af 01       		.byte	0x1
 5483 18b0 5B       		.byte	0x5b
 5484 18b1 C8180000 		.4byte	0x18c8
 5485 18b5 32       		.uleb128 0x32
 5486 18b6 FD0F0000 		.4byte	0xffd
 5487 18ba 28060000 		.4byte	.LLST45
 5488 18be 32       		.uleb128 0x32
 5489 18bf F20F0000 		.4byte	0xff2
 5490 18c3 3B060000 		.4byte	.LLST46
 5491 18c7 00       		.byte	0
 5492 18c8 31       		.uleb128 0x31
 5493 18c9 CA0F0000 		.4byte	0xfca
 5494 18cd CC000000 		.4byte	.LBB30
ARM GAS  C:\Users\haske\AppData\Local\Temp\ccinSyc3.s 			page 111


 5495 18d1 06000000 		.4byte	.LBE30-.LBB30
 5496 18d5 01       		.byte	0x1
 5497 18d6 65       		.byte	0x65
 5498 18d7 E5180000 		.4byte	0x18e5
 5499 18db 32       		.uleb128 0x32
 5500 18dc DA0F0000 		.4byte	0xfda
 5501 18e0 51060000 		.4byte	.LLST47
 5502 18e4 00       		.byte	0
 5503 18e5 31       		.uleb128 0x31
 5504 18e6 09100000 		.4byte	0x1009
 5505 18ea D6000000 		.4byte	.LBB32
 5506 18ee 08000000 		.4byte	.LBE32-.LBB32
 5507 18f2 01       		.byte	0x1
 5508 18f3 65       		.byte	0x65
 5509 18f4 02190000 		.4byte	0x1902
 5510 18f8 32       		.uleb128 0x32
 5511 18f9 19100000 		.4byte	0x1019
 5512 18fd 64060000 		.4byte	.LLST48
 5513 1901 00       		.byte	0
 5514 1902 21       		.uleb128 0x21
 5515 1903 D4010000 		.4byte	.LBB34
 5516 1907 50000000 		.4byte	.LBE34-.LBB34
 5517 190b 6B190000 		.4byte	0x196b
 5518 190f 20       		.uleb128 0x20
 5519 1910 1D000000 		.4byte	.LASF239
 5520 1914 01       		.byte	0x1
 5521 1915 92       		.byte	0x92
 5522 1916 BF0F0000 		.4byte	0xfbf
 5523 191a 03       		.uleb128 0x3
 5524 191b 91       		.byte	0x91
 5525 191c D87D     		.sleb128 -296
 5526 191e 24       		.uleb128 0x24
 5527 191f 12020000 		.4byte	.LVL175
 5528 1923 25100000 		.4byte	0x1025
 5529 1927 32190000 		.4byte	0x1932
 5530 192b 25       		.uleb128 0x25
 5531 192c 01       		.uleb128 0x1
 5532 192d 50       		.byte	0x50
 5533 192e 02       		.uleb128 0x2
 5534 192f 77       		.byte	0x77
 5535 1930 00       		.sleb128 0
 5536 1931 00       		.byte	0
 5537 1932 24       		.uleb128 0x24
 5538 1933 18020000 		.4byte	.LVL176
 5539 1937 C6110000 		.4byte	0x11c6
 5540 193b 46190000 		.4byte	0x1946
 5541 193f 25       		.uleb128 0x25
 5542 1940 01       		.uleb128 0x1
 5543 1941 50       		.byte	0x50
 5544 1942 02       		.uleb128 0x2
 5545 1943 77       		.byte	0x77
 5546 1944 00       		.sleb128 0
 5547 1945 00       		.byte	0
 5548 1946 24       		.uleb128 0x24
 5549 1947 1E020000 		.4byte	.LVL177
 5550 194b 66130000 		.4byte	0x1366
 5551 194f 5A190000 		.4byte	0x195a
ARM GAS  C:\Users\haske\AppData\Local\Temp\ccinSyc3.s 			page 112


 5552 1953 25       		.uleb128 0x25
 5553 1954 01       		.uleb128 0x1
 5554 1955 50       		.byte	0x50
 5555 1956 02       		.uleb128 0x2
 5556 1957 77       		.byte	0x77
 5557 1958 00       		.sleb128 0
 5558 1959 00       		.byte	0
 5559 195a 2E       		.uleb128 0x2e
 5560 195b 24020000 		.4byte	.LVL178
 5561 195f 06150000 		.4byte	0x1506
 5562 1963 25       		.uleb128 0x25
 5563 1964 01       		.uleb128 0x1
 5564 1965 50       		.byte	0x50
 5565 1966 02       		.uleb128 0x2
 5566 1967 77       		.byte	0x77
 5567 1968 00       		.sleb128 0
 5568 1969 00       		.byte	0
 5569 196a 00       		.byte	0
 5570 196b 21       		.uleb128 0x21
 5571 196c 68020000 		.4byte	.LBB35
 5572 1970 F6000000 		.4byte	.LBE35-.LBB35
 5573 1974 8B1B0000 		.4byte	0x1b8b
 5574 1978 20       		.uleb128 0x20
 5575 1979 00090000 		.4byte	.LASF240
 5576 197d 01       		.byte	0x1
 5577 197e B3       		.byte	0xb3
 5578 197f 40070000 		.4byte	0x740
 5579 1983 03       		.uleb128 0x3
 5580 1984 91       		.byte	0x91
 5581 1985 D87D     		.sleb128 -296
 5582 1987 20       		.uleb128 0x20
 5583 1988 83090000 		.4byte	.LASF241
 5584 198c 01       		.byte	0x1
 5585 198d B5       		.byte	0xb5
 5586 198e 54020000 		.4byte	0x254
 5587 1992 03       		.uleb128 0x3
 5588 1993 91       		.byte	0x91
 5589 1994 C87D     		.sleb128 -312
 5590 1996 20       		.uleb128 0x20
 5591 1997 C6030000 		.4byte	.LASF242
 5592 199b 01       		.byte	0x1
 5593 199c BB       		.byte	0xbb
 5594 199d 54020000 		.4byte	0x254
 5595 19a1 03       		.uleb128 0x3
 5596 19a2 91       		.byte	0x91
 5597 19a3 D07D     		.sleb128 -304
 5598 19a5 21       		.uleb128 0x21
 5599 19a6 B6020000 		.4byte	.LBB36
 5600 19aa 30000000 		.4byte	.LBE36-.LBB36
 5601 19ae 4D1A0000 		.4byte	0x1a4d
 5602 19b2 1F       		.uleb128 0x1f
 5603 19b3 EC040000 		.4byte	.LASF243
 5604 19b7 01       		.byte	0x1
 5605 19b8 BE       		.byte	0xbe
 5606 19b9 C3000000 		.4byte	0xc3
 5607 19bd 77060000 		.4byte	.LLST49
 5608 19c1 24       		.uleb128 0x24
ARM GAS  C:\Users\haske\AppData\Local\Temp\ccinSyc3.s 			page 113


 5609 19c2 C2020000 		.4byte	.LVL193
 5610 19c6 AF1D0000 		.4byte	0x1daf
 5611 19ca E9190000 		.4byte	0x19e9
 5612 19ce 25       		.uleb128 0x25
 5613 19cf 01       		.uleb128 0x1
 5614 19d0 50       		.byte	0x50
 5615 19d1 03       		.uleb128 0x3
 5616 19d2 91       		.byte	0x91
 5617 19d3 D87D     		.sleb128 -296
 5618 19d5 25       		.uleb128 0x25
 5619 19d6 01       		.uleb128 0x1
 5620 19d7 51       		.byte	0x51
 5621 19d8 03       		.uleb128 0x3
 5622 19d9 91       		.byte	0x91
 5623 19da C87D     		.sleb128 -312
 5624 19dc 25       		.uleb128 0x25
 5625 19dd 01       		.uleb128 0x1
 5626 19de 52       		.byte	0x52
 5627 19df 03       		.uleb128 0x3
 5628 19e0 0A       		.byte	0xa
 5629 19e1 FF7F     		.2byte	0x7fff
 5630 19e3 25       		.uleb128 0x25
 5631 19e4 01       		.uleb128 0x1
 5632 19e5 53       		.byte	0x53
 5633 19e6 01       		.uleb128 0x1
 5634 19e7 30       		.byte	0x30
 5635 19e8 00       		.byte	0
 5636 19e9 24       		.uleb128 0x24
 5637 19ea CA020000 		.4byte	.LVL194
 5638 19ee BB1D0000 		.4byte	0x1dbb
 5639 19f2 031A0000 		.4byte	0x1a03
 5640 19f6 25       		.uleb128 0x25
 5641 19f7 01       		.uleb128 0x1
 5642 19f8 50       		.byte	0x50
 5643 19f9 03       		.uleb128 0x3
 5644 19fa 91       		.byte	0x91
 5645 19fb D87D     		.sleb128 -296
 5646 19fd 25       		.uleb128 0x25
 5647 19fe 01       		.uleb128 0x1
 5648 19ff 51       		.byte	0x51
 5649 1a00 01       		.uleb128 0x1
 5650 1a01 30       		.byte	0x30
 5651 1a02 00       		.byte	0
 5652 1a03 24       		.uleb128 0x24
 5653 1a04 DA020000 		.4byte	.LVL196
 5654 1a08 A41D0000 		.4byte	0x1da4
 5655 1a0c 271A0000 		.4byte	0x1a27
 5656 1a10 25       		.uleb128 0x25
 5657 1a11 01       		.uleb128 0x1
 5658 1a12 50       		.byte	0x50
 5659 1a13 04       		.uleb128 0x4
 5660 1a14 91       		.byte	0x91
 5661 1a15 B07D     		.sleb128 -336
 5662 1a17 06       		.byte	0x6
 5663 1a18 25       		.uleb128 0x25
 5664 1a19 01       		.uleb128 0x1
 5665 1a1a 51       		.byte	0x51
ARM GAS  C:\Users\haske\AppData\Local\Temp\ccinSyc3.s 			page 114


 5666 1a1b 03       		.uleb128 0x3
 5667 1a1c 91       		.byte	0x91
 5668 1a1d A07F     		.sleb128 -96
 5669 1a1f 25       		.uleb128 0x25
 5670 1a20 01       		.uleb128 0x1
 5671 1a21 52       		.byte	0x52
 5672 1a22 03       		.uleb128 0x3
 5673 1a23 91       		.byte	0x91
 5674 1a24 987F     		.sleb128 -104
 5675 1a26 00       		.byte	0
 5676 1a27 24       		.uleb128 0x24
 5677 1a28 E0020000 		.4byte	.LVL197
 5678 1a2c C61D0000 		.4byte	0x1dc6
 5679 1a30 3B1A0000 		.4byte	0x1a3b
 5680 1a34 25       		.uleb128 0x25
 5681 1a35 01       		.uleb128 0x1
 5682 1a36 50       		.byte	0x50
 5683 1a37 02       		.uleb128 0x2
 5684 1a38 76       		.byte	0x76
 5685 1a39 00       		.sleb128 0
 5686 1a3a 00       		.byte	0
 5687 1a3b 2E       		.uleb128 0x2e
 5688 1a3c E6020000 		.4byte	.LVL198
 5689 1a40 D21D0000 		.4byte	0x1dd2
 5690 1a44 25       		.uleb128 0x25
 5691 1a45 01       		.uleb128 0x1
 5692 1a46 50       		.byte	0x50
 5693 1a47 03       		.uleb128 0x3
 5694 1a48 91       		.byte	0x91
 5695 1a49 D87D     		.sleb128 -296
 5696 1a4b 00       		.byte	0
 5697 1a4c 00       		.byte	0
 5698 1a4d 21       		.uleb128 0x21
 5699 1a4e 28030000 		.4byte	.LBB37
 5700 1a52 30000000 		.4byte	.LBE37-.LBB37
 5701 1a56 F51A0000 		.4byte	0x1af5
 5702 1a5a 1F       		.uleb128 0x1f
 5703 1a5b EC040000 		.4byte	.LASF243
 5704 1a5f 01       		.byte	0x1
 5705 1a60 CD       		.byte	0xcd
 5706 1a61 C3000000 		.4byte	0xc3
 5707 1a65 8A060000 		.4byte	.LLST50
 5708 1a69 24       		.uleb128 0x24
 5709 1a6a 34030000 		.4byte	.LVL201
 5710 1a6e AF1D0000 		.4byte	0x1daf
 5711 1a72 911A0000 		.4byte	0x1a91
 5712 1a76 25       		.uleb128 0x25
 5713 1a77 01       		.uleb128 0x1
 5714 1a78 50       		.byte	0x50
 5715 1a79 03       		.uleb128 0x3
 5716 1a7a 91       		.byte	0x91
 5717 1a7b D87D     		.sleb128 -296
 5718 1a7d 25       		.uleb128 0x25
 5719 1a7e 01       		.uleb128 0x1
 5720 1a7f 51       		.byte	0x51
 5721 1a80 03       		.uleb128 0x3
 5722 1a81 91       		.byte	0x91
ARM GAS  C:\Users\haske\AppData\Local\Temp\ccinSyc3.s 			page 115


 5723 1a82 C87D     		.sleb128 -312
 5724 1a84 25       		.uleb128 0x25
 5725 1a85 01       		.uleb128 0x1
 5726 1a86 52       		.byte	0x52
 5727 1a87 03       		.uleb128 0x3
 5728 1a88 0A       		.byte	0xa
 5729 1a89 FF7F     		.2byte	0x7fff
 5730 1a8b 25       		.uleb128 0x25
 5731 1a8c 01       		.uleb128 0x1
 5732 1a8d 53       		.byte	0x53
 5733 1a8e 01       		.uleb128 0x1
 5734 1a8f 30       		.byte	0x30
 5735 1a90 00       		.byte	0
 5736 1a91 24       		.uleb128 0x24
 5737 1a92 3C030000 		.4byte	.LVL202
 5738 1a96 BB1D0000 		.4byte	0x1dbb
 5739 1a9a AB1A0000 		.4byte	0x1aab
 5740 1a9e 25       		.uleb128 0x25
 5741 1a9f 01       		.uleb128 0x1
 5742 1aa0 50       		.byte	0x50
 5743 1aa1 03       		.uleb128 0x3
 5744 1aa2 91       		.byte	0x91
 5745 1aa3 D87D     		.sleb128 -296
 5746 1aa5 25       		.uleb128 0x25
 5747 1aa6 01       		.uleb128 0x1
 5748 1aa7 51       		.byte	0x51
 5749 1aa8 01       		.uleb128 0x1
 5750 1aa9 30       		.byte	0x30
 5751 1aaa 00       		.byte	0
 5752 1aab 24       		.uleb128 0x24
 5753 1aac 4C030000 		.4byte	.LVL204
 5754 1ab0 A41D0000 		.4byte	0x1da4
 5755 1ab4 CF1A0000 		.4byte	0x1acf
 5756 1ab8 25       		.uleb128 0x25
 5757 1ab9 01       		.uleb128 0x1
 5758 1aba 50       		.byte	0x50
 5759 1abb 04       		.uleb128 0x4
 5760 1abc 91       		.byte	0x91
 5761 1abd B07D     		.sleb128 -336
 5762 1abf 06       		.byte	0x6
 5763 1ac0 25       		.uleb128 0x25
 5764 1ac1 01       		.uleb128 0x1
 5765 1ac2 51       		.byte	0x51
 5766 1ac3 03       		.uleb128 0x3
 5767 1ac4 91       		.byte	0x91
 5768 1ac5 A07F     		.sleb128 -96
 5769 1ac7 25       		.uleb128 0x25
 5770 1ac8 01       		.uleb128 0x1
 5771 1ac9 52       		.byte	0x52
 5772 1aca 03       		.uleb128 0x3
 5773 1acb 91       		.byte	0x91
 5774 1acc 987F     		.sleb128 -104
 5775 1ace 00       		.byte	0
 5776 1acf 24       		.uleb128 0x24
 5777 1ad0 52030000 		.4byte	.LVL205
 5778 1ad4 C61D0000 		.4byte	0x1dc6
 5779 1ad8 E31A0000 		.4byte	0x1ae3
ARM GAS  C:\Users\haske\AppData\Local\Temp\ccinSyc3.s 			page 116


 5780 1adc 25       		.uleb128 0x25
 5781 1add 01       		.uleb128 0x1
 5782 1ade 50       		.byte	0x50
 5783 1adf 02       		.uleb128 0x2
 5784 1ae0 74       		.byte	0x74
 5785 1ae1 00       		.sleb128 0
 5786 1ae2 00       		.byte	0
 5787 1ae3 2E       		.uleb128 0x2e
 5788 1ae4 58030000 		.4byte	.LVL206
 5789 1ae8 D21D0000 		.4byte	0x1dd2
 5790 1aec 25       		.uleb128 0x25
 5791 1aed 01       		.uleb128 0x1
 5792 1aee 50       		.byte	0x50
 5793 1aef 03       		.uleb128 0x3
 5794 1af0 91       		.byte	0x91
 5795 1af1 D87D     		.sleb128 -296
 5796 1af3 00       		.byte	0
 5797 1af4 00       		.byte	0
 5798 1af5 24       		.uleb128 0x24
 5799 1af6 80020000 		.4byte	.LVL190
 5800 1afa A6160000 		.4byte	0x16a6
 5801 1afe 1F1B0000 		.4byte	0x1b1f
 5802 1b02 25       		.uleb128 0x25
 5803 1b03 01       		.uleb128 0x1
 5804 1b04 50       		.byte	0x50
 5805 1b05 05       		.uleb128 0x5
 5806 1b06 91       		.byte	0x91
 5807 1b07 C47D     		.sleb128 -316
 5808 1b09 94       		.byte	0x94
 5809 1b0a 02       		.byte	0x2
 5810 1b0b 25       		.uleb128 0x25
 5811 1b0c 01       		.uleb128 0x1
 5812 1b0d 51       		.byte	0x51
 5813 1b0e 02       		.uleb128 0x2
 5814 1b0f 75       		.byte	0x75
 5815 1b10 00       		.sleb128 0
 5816 1b11 25       		.uleb128 0x25
 5817 1b12 01       		.uleb128 0x1
 5818 1b13 52       		.byte	0x52
 5819 1b14 02       		.uleb128 0x2
 5820 1b15 74       		.byte	0x74
 5821 1b16 00       		.sleb128 0
 5822 1b17 25       		.uleb128 0x25
 5823 1b18 01       		.uleb128 0x1
 5824 1b19 53       		.byte	0x53
 5825 1b1a 03       		.uleb128 0x3
 5826 1b1b 91       		.byte	0x91
 5827 1b1c C87D     		.sleb128 -312
 5828 1b1e 00       		.byte	0
 5829 1b1f 24       		.uleb128 0x24
 5830 1b20 B2020000 		.4byte	.LVL192
 5831 1b24 991D0000 		.4byte	0x1d99
 5832 1b28 431B0000 		.4byte	0x1b43
 5833 1b2c 25       		.uleb128 0x25
 5834 1b2d 01       		.uleb128 0x1
 5835 1b2e 50       		.byte	0x50
 5836 1b2f 03       		.uleb128 0x3
ARM GAS  C:\Users\haske\AppData\Local\Temp\ccinSyc3.s 			page 117


 5837 1b30 91       		.byte	0x91
 5838 1b31 D07D     		.sleb128 -304
 5839 1b33 25       		.uleb128 0x25
 5840 1b34 01       		.uleb128 0x1
 5841 1b35 51       		.byte	0x51
 5842 1b36 04       		.uleb128 0x4
 5843 1b37 91       		.byte	0x91
 5844 1b38 BC7D     		.sleb128 -324
 5845 1b3a 06       		.byte	0x6
 5846 1b3b 25       		.uleb128 0x25
 5847 1b3c 01       		.uleb128 0x1
 5848 1b3d 52       		.byte	0x52
 5849 1b3e 03       		.uleb128 0x3
 5850 1b3f 91       		.byte	0x91
 5851 1b40 C87D     		.sleb128 -312
 5852 1b42 00       		.byte	0
 5853 1b43 24       		.uleb128 0x24
 5854 1b44 F2020000 		.4byte	.LVL199
 5855 1b48 A6160000 		.4byte	0x16a6
 5856 1b4c 6A1B0000 		.4byte	0x1b6a
 5857 1b50 25       		.uleb128 0x25
 5858 1b51 01       		.uleb128 0x1
 5859 1b52 50       		.byte	0x50
 5860 1b53 02       		.uleb128 0x2
 5861 1b54 7B       		.byte	0x7b
 5862 1b55 00       		.sleb128 0
 5863 1b56 25       		.uleb128 0x25
 5864 1b57 01       		.uleb128 0x1
 5865 1b58 51       		.byte	0x51
 5866 1b59 02       		.uleb128 0x2
 5867 1b5a 75       		.byte	0x75
 5868 1b5b 00       		.sleb128 0
 5869 1b5c 25       		.uleb128 0x25
 5870 1b5d 01       		.uleb128 0x1
 5871 1b5e 52       		.byte	0x52
 5872 1b5f 02       		.uleb128 0x2
 5873 1b60 74       		.byte	0x74
 5874 1b61 00       		.sleb128 0
 5875 1b62 25       		.uleb128 0x25
 5876 1b63 01       		.uleb128 0x1
 5877 1b64 53       		.byte	0x53
 5878 1b65 03       		.uleb128 0x3
 5879 1b66 91       		.byte	0x91
 5880 1b67 C87D     		.sleb128 -312
 5881 1b69 00       		.byte	0
 5882 1b6a 2E       		.uleb128 0x2e
 5883 1b6b 24030000 		.4byte	.LVL200
 5884 1b6f 991D0000 		.4byte	0x1d99
 5885 1b73 25       		.uleb128 0x25
 5886 1b74 01       		.uleb128 0x1
 5887 1b75 50       		.byte	0x50
 5888 1b76 03       		.uleb128 0x3
 5889 1b77 91       		.byte	0x91
 5890 1b78 D07D     		.sleb128 -304
 5891 1b7a 25       		.uleb128 0x25
 5892 1b7b 01       		.uleb128 0x1
 5893 1b7c 51       		.byte	0x51
ARM GAS  C:\Users\haske\AppData\Local\Temp\ccinSyc3.s 			page 118


 5894 1b7d 04       		.uleb128 0x4
 5895 1b7e 91       		.byte	0x91
 5896 1b7f BC7D     		.sleb128 -324
 5897 1b81 06       		.byte	0x6
 5898 1b82 25       		.uleb128 0x25
 5899 1b83 01       		.uleb128 0x1
 5900 1b84 52       		.byte	0x52
 5901 1b85 03       		.uleb128 0x3
 5902 1b86 91       		.byte	0x91
 5903 1b87 C87D     		.sleb128 -312
 5904 1b89 00       		.byte	0
 5905 1b8a 00       		.byte	0
 5906 1b8b 24       		.uleb128 0x24
 5907 1b8c 4A000000 		.4byte	.LVL138
 5908 1b90 DE1D0000 		.4byte	0x1dde
 5909 1b94 9F1B0000 		.4byte	0x1b9f
 5910 1b98 25       		.uleb128 0x25
 5911 1b99 01       		.uleb128 0x1
 5912 1b9a 50       		.byte	0x50
 5913 1b9b 02       		.uleb128 0x2
 5914 1b9c 77       		.byte	0x77
 5915 1b9d 00       		.sleb128 0
 5916 1b9e 00       		.byte	0
 5917 1b9f 24       		.uleb128 0x24
 5918 1ba0 EE000000 		.4byte	.LVL145
 5919 1ba4 AF1D0000 		.4byte	0x1daf
 5920 1ba8 C71B0000 		.4byte	0x1bc7
 5921 1bac 25       		.uleb128 0x25
 5922 1bad 01       		.uleb128 0x1
 5923 1bae 50       		.byte	0x50
 5924 1baf 03       		.uleb128 0x3
 5925 1bb0 91       		.byte	0x91
 5926 1bb1 F87E     		.sleb128 -136
 5927 1bb3 25       		.uleb128 0x25
 5928 1bb4 01       		.uleb128 0x1
 5929 1bb5 51       		.byte	0x51
 5930 1bb6 03       		.uleb128 0x3
 5931 1bb7 91       		.byte	0x91
 5932 1bb8 907F     		.sleb128 -112
 5933 1bba 25       		.uleb128 0x25
 5934 1bbb 01       		.uleb128 0x1
 5935 1bbc 52       		.byte	0x52
 5936 1bbd 03       		.uleb128 0x3
 5937 1bbe 0A       		.byte	0xa
 5938 1bbf FF7F     		.2byte	0x7fff
 5939 1bc1 25       		.uleb128 0x25
 5940 1bc2 01       		.uleb128 0x1
 5941 1bc3 53       		.byte	0x53
 5942 1bc4 01       		.uleb128 0x1
 5943 1bc5 31       		.byte	0x31
 5944 1bc6 00       		.byte	0
 5945 1bc7 24       		.uleb128 0x24
 5946 1bc8 F6000000 		.4byte	.LVL146
 5947 1bcc BB1D0000 		.4byte	0x1dbb
 5948 1bd0 E11B0000 		.4byte	0x1be1
 5949 1bd4 25       		.uleb128 0x25
 5950 1bd5 01       		.uleb128 0x1
ARM GAS  C:\Users\haske\AppData\Local\Temp\ccinSyc3.s 			page 119


 5951 1bd6 50       		.byte	0x50
 5952 1bd7 03       		.uleb128 0x3
 5953 1bd8 91       		.byte	0x91
 5954 1bd9 F87E     		.sleb128 -136
 5955 1bdb 25       		.uleb128 0x25
 5956 1bdc 01       		.uleb128 0x1
 5957 1bdd 51       		.byte	0x51
 5958 1bde 01       		.uleb128 0x1
 5959 1bdf 30       		.byte	0x30
 5960 1be0 00       		.byte	0
 5961 1be1 24       		.uleb128 0x24
 5962 1be2 1C010000 		.4byte	.LVL150
 5963 1be6 AF1D0000 		.4byte	0x1daf
 5964 1bea 091C0000 		.4byte	0x1c09
 5965 1bee 25       		.uleb128 0x25
 5966 1bef 01       		.uleb128 0x1
 5967 1bf0 50       		.byte	0x50
 5968 1bf1 03       		.uleb128 0x3
 5969 1bf2 91       		.byte	0x91
 5970 1bf3 E07E     		.sleb128 -160
 5971 1bf5 25       		.uleb128 0x25
 5972 1bf6 01       		.uleb128 0x1
 5973 1bf7 51       		.byte	0x51
 5974 1bf8 03       		.uleb128 0x3
 5975 1bf9 91       		.byte	0x91
 5976 1bfa 987F     		.sleb128 -104
 5977 1bfc 25       		.uleb128 0x25
 5978 1bfd 01       		.uleb128 0x1
 5979 1bfe 52       		.byte	0x52
 5980 1bff 03       		.uleb128 0x3
 5981 1c00 0A       		.byte	0xa
 5982 1c01 FF7F     		.2byte	0x7fff
 5983 1c03 25       		.uleb128 0x25
 5984 1c04 01       		.uleb128 0x1
 5985 1c05 53       		.byte	0x53
 5986 1c06 01       		.uleb128 0x1
 5987 1c07 30       		.byte	0x30
 5988 1c08 00       		.byte	0
 5989 1c09 24       		.uleb128 0x24
 5990 1c0a 24010000 		.4byte	.LVL151
 5991 1c0e BB1D0000 		.4byte	0x1dbb
 5992 1c12 231C0000 		.4byte	0x1c23
 5993 1c16 25       		.uleb128 0x25
 5994 1c17 01       		.uleb128 0x1
 5995 1c18 50       		.byte	0x50
 5996 1c19 03       		.uleb128 0x3
 5997 1c1a 91       		.byte	0x91
 5998 1c1b E07E     		.sleb128 -160
 5999 1c1d 25       		.uleb128 0x25
 6000 1c1e 01       		.uleb128 0x1
 6001 1c1f 51       		.byte	0x51
 6002 1c20 01       		.uleb128 0x1
 6003 1c21 30       		.byte	0x30
 6004 1c22 00       		.byte	0
 6005 1c23 24       		.uleb128 0x24
 6006 1c24 48010000 		.4byte	.LVL153
 6007 1c28 A41D0000 		.4byte	0x1da4
ARM GAS  C:\Users\haske\AppData\Local\Temp\ccinSyc3.s 			page 120


 6008 1c2c 471C0000 		.4byte	0x1c47
 6009 1c30 25       		.uleb128 0x25
 6010 1c31 01       		.uleb128 0x1
 6011 1c32 50       		.byte	0x50
 6012 1c33 04       		.uleb128 0x4
 6013 1c34 91       		.byte	0x91
 6014 1c35 B07D     		.sleb128 -336
 6015 1c37 06       		.byte	0x6
 6016 1c38 25       		.uleb128 0x25
 6017 1c39 01       		.uleb128 0x1
 6018 1c3a 51       		.byte	0x51
 6019 1c3b 03       		.uleb128 0x3
 6020 1c3c 91       		.byte	0x91
 6021 1c3d A07F     		.sleb128 -96
 6022 1c3f 25       		.uleb128 0x25
 6023 1c40 01       		.uleb128 0x1
 6024 1c41 52       		.byte	0x52
 6025 1c42 03       		.uleb128 0x3
 6026 1c43 91       		.byte	0x91
 6027 1c44 987F     		.sleb128 -104
 6028 1c46 00       		.byte	0
 6029 1c47 24       		.uleb128 0x24
 6030 1c48 4E010000 		.4byte	.LVL154
 6031 1c4c C61D0000 		.4byte	0x1dc6
 6032 1c50 5E1C0000 		.4byte	0x1c5e
 6033 1c54 25       		.uleb128 0x25
 6034 1c55 01       		.uleb128 0x1
 6035 1c56 50       		.byte	0x50
 6036 1c57 05       		.uleb128 0x5
 6037 1c58 91       		.byte	0x91
 6038 1c59 B87D     		.sleb128 -328
 6039 1c5b 94       		.byte	0x94
 6040 1c5c 02       		.byte	0x2
 6041 1c5d 00       		.byte	0
 6042 1c5e 24       		.uleb128 0x24
 6043 1c5f 5A010000 		.4byte	.LVL155
 6044 1c63 C61D0000 		.4byte	0x1dc6
 6045 1c67 751C0000 		.4byte	0x1c75
 6046 1c6b 25       		.uleb128 0x25
 6047 1c6c 01       		.uleb128 0x1
 6048 1c6d 50       		.byte	0x50
 6049 1c6e 05       		.uleb128 0x5
 6050 1c6f 91       		.byte	0x91
 6051 1c70 B47D     		.sleb128 -332
 6052 1c72 94       		.byte	0x94
 6053 1c73 02       		.byte	0x2
 6054 1c74 00       		.byte	0
 6055 1c75 24       		.uleb128 0x24
 6056 1c76 60010000 		.4byte	.LVL156
 6057 1c7a D21D0000 		.4byte	0x1dd2
 6058 1c7e 8A1C0000 		.4byte	0x1c8a
 6059 1c82 25       		.uleb128 0x25
 6060 1c83 01       		.uleb128 0x1
 6061 1c84 50       		.byte	0x50
 6062 1c85 03       		.uleb128 0x3
 6063 1c86 91       		.byte	0x91
 6064 1c87 E07E     		.sleb128 -160
ARM GAS  C:\Users\haske\AppData\Local\Temp\ccinSyc3.s 			page 121


 6065 1c89 00       		.byte	0
 6066 1c8a 24       		.uleb128 0x24
 6067 1c8b 6E010000 		.4byte	.LVL157
 6068 1c8f D21D0000 		.4byte	0x1dd2
 6069 1c93 9F1C0000 		.4byte	0x1c9f
 6070 1c97 25       		.uleb128 0x25
 6071 1c98 01       		.uleb128 0x1
 6072 1c99 50       		.byte	0x50
 6073 1c9a 03       		.uleb128 0x3
 6074 1c9b 91       		.byte	0x91
 6075 1c9c F87E     		.sleb128 -136
 6076 1c9e 00       		.byte	0
 6077 1c9f 24       		.uleb128 0x24
 6078 1ca0 AA010000 		.4byte	.LVL164
 6079 1ca4 E91D0000 		.4byte	0x1de9
 6080 1ca8 C41C0000 		.4byte	0x1cc4
 6081 1cac 25       		.uleb128 0x25
 6082 1cad 01       		.uleb128 0x1
 6083 1cae 50       		.byte	0x50
 6084 1caf 03       		.uleb128 0x3
 6085 1cb0 91       		.byte	0x91
 6086 1cb1 F47D     		.sleb128 -268
 6087 1cb3 25       		.uleb128 0x25
 6088 1cb4 01       		.uleb128 0x1
 6089 1cb5 53       		.byte	0x53
 6090 1cb6 05       		.uleb128 0x5
 6091 1cb7 91       		.byte	0x91
 6092 1cb8 C47D     		.sleb128 -316
 6093 1cba 94       		.byte	0x94
 6094 1cbb 02       		.byte	0x2
 6095 1cbc 25       		.uleb128 0x25
 6096 1cbd 02       		.uleb128 0x2
 6097 1cbe 7D       		.byte	0x7d
 6098 1cbf 00       		.sleb128 0
 6099 1cc0 02       		.uleb128 0x2
 6100 1cc1 7B       		.byte	0x7b
 6101 1cc2 00       		.sleb128 0
 6102 1cc3 00       		.byte	0
 6103 1cc4 24       		.uleb128 0x24
 6104 1cc5 B2010000 		.4byte	.LVL165
 6105 1cc9 BB1D0000 		.4byte	0x1dbb
 6106 1ccd DE1C0000 		.4byte	0x1cde
 6107 1cd1 25       		.uleb128 0x25
 6108 1cd2 01       		.uleb128 0x1
 6109 1cd3 50       		.byte	0x50
 6110 1cd4 03       		.uleb128 0x3
 6111 1cd5 91       		.byte	0x91
 6112 1cd6 F47D     		.sleb128 -268
 6113 1cd8 25       		.uleb128 0x25
 6114 1cd9 01       		.uleb128 0x1
 6115 1cda 51       		.byte	0x51
 6116 1cdb 01       		.uleb128 0x1
 6117 1cdc 30       		.byte	0x30
 6118 1cdd 00       		.byte	0
 6119 1cde 24       		.uleb128 0x24
 6120 1cdf 30020000 		.4byte	.LVL181
 6121 1ce3 A41D0000 		.4byte	0x1da4
ARM GAS  C:\Users\haske\AppData\Local\Temp\ccinSyc3.s 			page 122


 6122 1ce7 021D0000 		.4byte	0x1d02
 6123 1ceb 25       		.uleb128 0x25
 6124 1cec 01       		.uleb128 0x1
 6125 1ced 50       		.byte	0x50
 6126 1cee 04       		.uleb128 0x4
 6127 1cef 91       		.byte	0x91
 6128 1cf0 B07D     		.sleb128 -336
 6129 1cf2 06       		.byte	0x6
 6130 1cf3 25       		.uleb128 0x25
 6131 1cf4 01       		.uleb128 0x1
 6132 1cf5 51       		.byte	0x51
 6133 1cf6 03       		.uleb128 0x3
 6134 1cf7 91       		.byte	0x91
 6135 1cf8 A07F     		.sleb128 -96
 6136 1cfa 25       		.uleb128 0x25
 6137 1cfb 01       		.uleb128 0x1
 6138 1cfc 52       		.byte	0x52
 6139 1cfd 03       		.uleb128 0x3
 6140 1cfe 91       		.byte	0x91
 6141 1cff 987F     		.sleb128 -104
 6142 1d01 00       		.byte	0
 6143 1d02 24       		.uleb128 0x24
 6144 1d03 36020000 		.4byte	.LVL182
 6145 1d07 D21D0000 		.4byte	0x1dd2
 6146 1d0b 171D0000 		.4byte	0x1d17
 6147 1d0f 25       		.uleb128 0x25
 6148 1d10 01       		.uleb128 0x1
 6149 1d11 50       		.byte	0x50
 6150 1d12 03       		.uleb128 0x3
 6151 1d13 91       		.byte	0x91
 6152 1d14 F47D     		.sleb128 -268
 6153 1d16 00       		.byte	0
 6154 1d17 24       		.uleb128 0x24
 6155 1d18 3C020000 		.4byte	.LVL183
 6156 1d1c D21D0000 		.4byte	0x1dd2
 6157 1d20 2C1D0000 		.4byte	0x1d2c
 6158 1d24 25       		.uleb128 0x25
 6159 1d25 01       		.uleb128 0x1
 6160 1d26 50       		.byte	0x50
 6161 1d27 03       		.uleb128 0x3
 6162 1d28 91       		.byte	0x91
 6163 1d29 E07E     		.sleb128 -160
 6164 1d2b 00       		.byte	0
 6165 1d2c 24       		.uleb128 0x24
 6166 1d2d 48020000 		.4byte	.LVL184
 6167 1d31 D21D0000 		.4byte	0x1dd2
 6168 1d35 411D0000 		.4byte	0x1d41
 6169 1d39 25       		.uleb128 0x25
 6170 1d3a 01       		.uleb128 0x1
 6171 1d3b 50       		.byte	0x50
 6172 1d3c 03       		.uleb128 0x3
 6173 1d3d 91       		.byte	0x91
 6174 1d3e F87E     		.sleb128 -136
 6175 1d40 00       		.byte	0
 6176 1d41 24       		.uleb128 0x24
 6177 1d42 4E020000 		.4byte	.LVL185
 6178 1d46 C61D0000 		.4byte	0x1dc6
ARM GAS  C:\Users\haske\AppData\Local\Temp\ccinSyc3.s 			page 123


 6179 1d4a 581D0000 		.4byte	0x1d58
 6180 1d4e 25       		.uleb128 0x25
 6181 1d4f 01       		.uleb128 0x1
 6182 1d50 50       		.byte	0x50
 6183 1d51 05       		.uleb128 0x5
 6184 1d52 91       		.byte	0x91
 6185 1d53 C07D     		.sleb128 -320
 6186 1d55 94       		.byte	0x94
 6187 1d56 02       		.byte	0x2
 6188 1d57 00       		.byte	0
 6189 1d58 24       		.uleb128 0x24
 6190 1d59 54020000 		.4byte	.LVL186
 6191 1d5d C61D0000 		.4byte	0x1dc6
 6192 1d61 6F1D0000 		.4byte	0x1d6f
 6193 1d65 25       		.uleb128 0x25
 6194 1d66 01       		.uleb128 0x1
 6195 1d67 50       		.byte	0x50
 6196 1d68 05       		.uleb128 0x5
 6197 1d69 91       		.byte	0x91
 6198 1d6a B87D     		.sleb128 -328
 6199 1d6c 94       		.byte	0x94
 6200 1d6d 02       		.byte	0x2
 6201 1d6e 00       		.byte	0
 6202 1d6f 2E       		.uleb128 0x2e
 6203 1d70 60020000 		.4byte	.LVL187
 6204 1d74 C61D0000 		.4byte	0x1dc6
 6205 1d78 25       		.uleb128 0x25
 6206 1d79 01       		.uleb128 0x1
 6207 1d7a 50       		.byte	0x50
 6208 1d7b 05       		.uleb128 0x5
 6209 1d7c 91       		.byte	0x91
 6210 1d7d B47D     		.sleb128 -332
 6211 1d7f 94       		.byte	0x94
 6212 1d80 02       		.byte	0x2
 6213 1d81 00       		.byte	0
 6214 1d82 00       		.byte	0
 6215 1d83 33       		.uleb128 0x33
 6216 1d84 D00A0000 		.4byte	.LASF258
 6217 1d88 08       		.byte	0x8
 6218 1d89 94       		.byte	0x94
 6219 1d8a 8E090000 		.4byte	0x98e
 6220 1d8e 34       		.uleb128 0x34
 6221 1d8f F2000000 		.4byte	.LASF244
 6222 1d93 F2000000 		.4byte	.LASF244
 6223 1d97 15       		.byte	0x15
 6224 1d98 2F       		.byte	0x2f
 6225 1d99 34       		.uleb128 0x34
 6226 1d9a C4040000 		.4byte	.LASF245
 6227 1d9e C4040000 		.4byte	.LASF245
 6228 1da2 02       		.byte	0x2
 6229 1da3 B2       		.byte	0xb2
 6230 1da4 34       		.uleb128 0x34
 6231 1da5 A1080000 		.4byte	.LASF246
 6232 1da9 A1080000 		.4byte	.LASF246
 6233 1dad 0E       		.byte	0xe
 6234 1dae 56       		.byte	0x56
 6235 1daf 35       		.uleb128 0x35
ARM GAS  C:\Users\haske\AppData\Local\Temp\ccinSyc3.s 			page 124


 6236 1db0 100A0000 		.4byte	.LASF247
 6237 1db4 100A0000 		.4byte	.LASF247
 6238 1db8 0C       		.byte	0xc
 6239 1db9 6701     		.2byte	0x167
 6240 1dbb 34       		.uleb128 0x34
 6241 1dbc B2060000 		.4byte	.LASF248
 6242 1dc0 B2060000 		.4byte	.LASF248
 6243 1dc4 0C       		.byte	0xc
 6244 1dc5 E5       		.byte	0xe5
 6245 1dc6 35       		.uleb128 0x35
 6246 1dc7 84060000 		.4byte	.LASF249
 6247 1dcb 84060000 		.4byte	.LASF249
 6248 1dcf 0C       		.byte	0xc
 6249 1dd0 0F01     		.2byte	0x10f
 6250 1dd2 35       		.uleb128 0x35
 6251 1dd3 DE0C0000 		.4byte	.LASF250
 6252 1dd7 DE0C0000 		.4byte	.LASF250
 6253 1ddb 0C       		.byte	0xc
 6254 1ddc 2001     		.2byte	0x120
 6255 1dde 34       		.uleb128 0x34
 6256 1ddf 12050000 		.4byte	.LASF251
 6257 1de3 12050000 		.4byte	.LASF251
 6258 1de7 0E       		.byte	0xe
 6259 1de8 4D       		.byte	0x4d
 6260 1de9 35       		.uleb128 0x35
 6261 1dea 44050000 		.4byte	.LASF252
 6262 1dee 44050000 		.4byte	.LASF252
 6263 1df2 0C       		.byte	0xc
 6264 1df3 5D01     		.2byte	0x15d
 6265 1df5 00       		.byte	0
 6266              		.section	.debug_abbrev,"",%progbits
 6267              	.Ldebug_abbrev0:
 6268 0000 01       		.uleb128 0x1
 6269 0001 11       		.uleb128 0x11
 6270 0002 01       		.byte	0x1
 6271 0003 25       		.uleb128 0x25
 6272 0004 0E       		.uleb128 0xe
 6273 0005 13       		.uleb128 0x13
 6274 0006 0B       		.uleb128 0xb
 6275 0007 03       		.uleb128 0x3
 6276 0008 0E       		.uleb128 0xe
 6277 0009 1B       		.uleb128 0x1b
 6278 000a 0E       		.uleb128 0xe
 6279 000b 55       		.uleb128 0x55
 6280 000c 17       		.uleb128 0x17
 6281 000d 11       		.uleb128 0x11
 6282 000e 01       		.uleb128 0x1
 6283 000f 10       		.uleb128 0x10
 6284 0010 17       		.uleb128 0x17
 6285 0011 00       		.byte	0
 6286 0012 00       		.byte	0
 6287 0013 02       		.uleb128 0x2
 6288 0014 16       		.uleb128 0x16
 6289 0015 00       		.byte	0
 6290 0016 03       		.uleb128 0x3
 6291 0017 0E       		.uleb128 0xe
 6292 0018 3A       		.uleb128 0x3a
ARM GAS  C:\Users\haske\AppData\Local\Temp\ccinSyc3.s 			page 125


 6293 0019 0B       		.uleb128 0xb
 6294 001a 3B       		.uleb128 0x3b
 6295 001b 0B       		.uleb128 0xb
 6296 001c 49       		.uleb128 0x49
 6297 001d 13       		.uleb128 0x13
 6298 001e 00       		.byte	0
 6299 001f 00       		.byte	0
 6300 0020 03       		.uleb128 0x3
 6301 0021 24       		.uleb128 0x24
 6302 0022 00       		.byte	0
 6303 0023 0B       		.uleb128 0xb
 6304 0024 0B       		.uleb128 0xb
 6305 0025 3E       		.uleb128 0x3e
 6306 0026 0B       		.uleb128 0xb
 6307 0027 03       		.uleb128 0x3
 6308 0028 0E       		.uleb128 0xe
 6309 0029 00       		.byte	0
 6310 002a 00       		.byte	0
 6311 002b 04       		.uleb128 0x4
 6312 002c 24       		.uleb128 0x24
 6313 002d 00       		.byte	0
 6314 002e 0B       		.uleb128 0xb
 6315 002f 0B       		.uleb128 0xb
 6316 0030 3E       		.uleb128 0x3e
 6317 0031 0B       		.uleb128 0xb
 6318 0032 03       		.uleb128 0x3
 6319 0033 08       		.uleb128 0x8
 6320 0034 00       		.byte	0
 6321 0035 00       		.byte	0
 6322 0036 05       		.uleb128 0x5
 6323 0037 0F       		.uleb128 0xf
 6324 0038 00       		.byte	0
 6325 0039 0B       		.uleb128 0xb
 6326 003a 0B       		.uleb128 0xb
 6327 003b 00       		.byte	0
 6328 003c 00       		.byte	0
 6329 003d 06       		.uleb128 0x6
 6330 003e 04       		.uleb128 0x4
 6331 003f 01       		.byte	0x1
 6332 0040 0B       		.uleb128 0xb
 6333 0041 0B       		.uleb128 0xb
 6334 0042 49       		.uleb128 0x49
 6335 0043 13       		.uleb128 0x13
 6336 0044 3A       		.uleb128 0x3a
 6337 0045 0B       		.uleb128 0xb
 6338 0046 3B       		.uleb128 0x3b
 6339 0047 0B       		.uleb128 0xb
 6340 0048 01       		.uleb128 0x1
 6341 0049 13       		.uleb128 0x13
 6342 004a 00       		.byte	0
 6343 004b 00       		.byte	0
 6344 004c 07       		.uleb128 0x7
 6345 004d 28       		.uleb128 0x28
 6346 004e 00       		.byte	0
 6347 004f 03       		.uleb128 0x3
 6348 0050 0E       		.uleb128 0xe
 6349 0051 1C       		.uleb128 0x1c
ARM GAS  C:\Users\haske\AppData\Local\Temp\ccinSyc3.s 			page 126


 6350 0052 0B       		.uleb128 0xb
 6351 0053 00       		.byte	0
 6352 0054 00       		.byte	0
 6353 0055 08       		.uleb128 0x8
 6354 0056 13       		.uleb128 0x13
 6355 0057 01       		.byte	0x1
 6356 0058 0B       		.uleb128 0xb
 6357 0059 0B       		.uleb128 0xb
 6358 005a 3A       		.uleb128 0x3a
 6359 005b 0B       		.uleb128 0xb
 6360 005c 3B       		.uleb128 0x3b
 6361 005d 0B       		.uleb128 0xb
 6362 005e 01       		.uleb128 0x1
 6363 005f 13       		.uleb128 0x13
 6364 0060 00       		.byte	0
 6365 0061 00       		.byte	0
 6366 0062 09       		.uleb128 0x9
 6367 0063 0D       		.uleb128 0xd
 6368 0064 00       		.byte	0
 6369 0065 03       		.uleb128 0x3
 6370 0066 0E       		.uleb128 0xe
 6371 0067 3A       		.uleb128 0x3a
 6372 0068 0B       		.uleb128 0xb
 6373 0069 3B       		.uleb128 0x3b
 6374 006a 0B       		.uleb128 0xb
 6375 006b 49       		.uleb128 0x49
 6376 006c 13       		.uleb128 0x13
 6377 006d 0B       		.uleb128 0xb
 6378 006e 0B       		.uleb128 0xb
 6379 006f 0D       		.uleb128 0xd
 6380 0070 0B       		.uleb128 0xb
 6381 0071 0C       		.uleb128 0xc
 6382 0072 0B       		.uleb128 0xb
 6383 0073 38       		.uleb128 0x38
 6384 0074 0B       		.uleb128 0xb
 6385 0075 00       		.byte	0
 6386 0076 00       		.byte	0
 6387 0077 0A       		.uleb128 0xa
 6388 0078 0D       		.uleb128 0xd
 6389 0079 00       		.byte	0
 6390 007a 03       		.uleb128 0x3
 6391 007b 08       		.uleb128 0x8
 6392 007c 3A       		.uleb128 0x3a
 6393 007d 0B       		.uleb128 0xb
 6394 007e 3B       		.uleb128 0x3b
 6395 007f 0B       		.uleb128 0xb
 6396 0080 49       		.uleb128 0x49
 6397 0081 13       		.uleb128 0x13
 6398 0082 0B       		.uleb128 0xb
 6399 0083 0B       		.uleb128 0xb
 6400 0084 0D       		.uleb128 0xd
 6401 0085 0B       		.uleb128 0xb
 6402 0086 0C       		.uleb128 0xc
 6403 0087 0B       		.uleb128 0xb
 6404 0088 38       		.uleb128 0x38
 6405 0089 0B       		.uleb128 0xb
 6406 008a 00       		.byte	0
ARM GAS  C:\Users\haske\AppData\Local\Temp\ccinSyc3.s 			page 127


 6407 008b 00       		.byte	0
 6408 008c 0B       		.uleb128 0xb
 6409 008d 17       		.uleb128 0x17
 6410 008e 01       		.byte	0x1
 6411 008f 0B       		.uleb128 0xb
 6412 0090 0B       		.uleb128 0xb
 6413 0091 3A       		.uleb128 0x3a
 6414 0092 0B       		.uleb128 0xb
 6415 0093 3B       		.uleb128 0x3b
 6416 0094 0B       		.uleb128 0xb
 6417 0095 01       		.uleb128 0x1
 6418 0096 13       		.uleb128 0x13
 6419 0097 00       		.byte	0
 6420 0098 00       		.byte	0
 6421 0099 0C       		.uleb128 0xc
 6422 009a 0D       		.uleb128 0xd
 6423 009b 00       		.byte	0
 6424 009c 03       		.uleb128 0x3
 6425 009d 08       		.uleb128 0x8
 6426 009e 3A       		.uleb128 0x3a
 6427 009f 0B       		.uleb128 0xb
 6428 00a0 3B       		.uleb128 0x3b
 6429 00a1 0B       		.uleb128 0xb
 6430 00a2 49       		.uleb128 0x49
 6431 00a3 13       		.uleb128 0x13
 6432 00a4 00       		.byte	0
 6433 00a5 00       		.byte	0
 6434 00a6 0D       		.uleb128 0xd
 6435 00a7 0D       		.uleb128 0xd
 6436 00a8 00       		.byte	0
 6437 00a9 03       		.uleb128 0x3
 6438 00aa 0E       		.uleb128 0xe
 6439 00ab 3A       		.uleb128 0x3a
 6440 00ac 0B       		.uleb128 0xb
 6441 00ad 3B       		.uleb128 0x3b
 6442 00ae 0B       		.uleb128 0xb
 6443 00af 49       		.uleb128 0x49
 6444 00b0 13       		.uleb128 0x13
 6445 00b1 00       		.byte	0
 6446 00b2 00       		.byte	0
 6447 00b3 0E       		.uleb128 0xe
 6448 00b4 0D       		.uleb128 0xd
 6449 00b5 00       		.byte	0
 6450 00b6 03       		.uleb128 0x3
 6451 00b7 08       		.uleb128 0x8
 6452 00b8 3A       		.uleb128 0x3a
 6453 00b9 0B       		.uleb128 0xb
 6454 00ba 3B       		.uleb128 0x3b
 6455 00bb 0B       		.uleb128 0xb
 6456 00bc 49       		.uleb128 0x49
 6457 00bd 13       		.uleb128 0x13
 6458 00be 38       		.uleb128 0x38
 6459 00bf 0B       		.uleb128 0xb
 6460 00c0 00       		.byte	0
 6461 00c1 00       		.byte	0
 6462 00c2 0F       		.uleb128 0xf
 6463 00c3 0D       		.uleb128 0xd
ARM GAS  C:\Users\haske\AppData\Local\Temp\ccinSyc3.s 			page 128


 6464 00c4 00       		.byte	0
 6465 00c5 03       		.uleb128 0x3
 6466 00c6 0E       		.uleb128 0xe
 6467 00c7 3A       		.uleb128 0x3a
 6468 00c8 0B       		.uleb128 0xb
 6469 00c9 3B       		.uleb128 0x3b
 6470 00ca 0B       		.uleb128 0xb
 6471 00cb 49       		.uleb128 0x49
 6472 00cc 13       		.uleb128 0x13
 6473 00cd 38       		.uleb128 0x38
 6474 00ce 0B       		.uleb128 0xb
 6475 00cf 00       		.byte	0
 6476 00d0 00       		.byte	0
 6477 00d1 10       		.uleb128 0x10
 6478 00d2 13       		.uleb128 0x13
 6479 00d3 01       		.byte	0x1
 6480 00d4 03       		.uleb128 0x3
 6481 00d5 0E       		.uleb128 0xe
 6482 00d6 0B       		.uleb128 0xb
 6483 00d7 0B       		.uleb128 0xb
 6484 00d8 3A       		.uleb128 0x3a
 6485 00d9 0B       		.uleb128 0xb
 6486 00da 3B       		.uleb128 0x3b
 6487 00db 0B       		.uleb128 0xb
 6488 00dc 01       		.uleb128 0x1
 6489 00dd 13       		.uleb128 0x13
 6490 00de 00       		.byte	0
 6491 00df 00       		.byte	0
 6492 00e0 11       		.uleb128 0x11
 6493 00e1 0F       		.uleb128 0xf
 6494 00e2 00       		.byte	0
 6495 00e3 0B       		.uleb128 0xb
 6496 00e4 0B       		.uleb128 0xb
 6497 00e5 49       		.uleb128 0x49
 6498 00e6 13       		.uleb128 0x13
 6499 00e7 00       		.byte	0
 6500 00e8 00       		.byte	0
 6501 00e9 12       		.uleb128 0x12
 6502 00ea 26       		.uleb128 0x26
 6503 00eb 00       		.byte	0
 6504 00ec 49       		.uleb128 0x49
 6505 00ed 13       		.uleb128 0x13
 6506 00ee 00       		.byte	0
 6507 00ef 00       		.byte	0
 6508 00f0 13       		.uleb128 0x13
 6509 00f1 15       		.uleb128 0x15
 6510 00f2 01       		.byte	0x1
 6511 00f3 27       		.uleb128 0x27
 6512 00f4 19       		.uleb128 0x19
 6513 00f5 49       		.uleb128 0x49
 6514 00f6 13       		.uleb128 0x13
 6515 00f7 01       		.uleb128 0x1
 6516 00f8 13       		.uleb128 0x13
 6517 00f9 00       		.byte	0
 6518 00fa 00       		.byte	0
 6519 00fb 14       		.uleb128 0x14
 6520 00fc 05       		.uleb128 0x5
ARM GAS  C:\Users\haske\AppData\Local\Temp\ccinSyc3.s 			page 129


 6521 00fd 00       		.byte	0
 6522 00fe 49       		.uleb128 0x49
 6523 00ff 13       		.uleb128 0x13
 6524 0100 00       		.byte	0
 6525 0101 00       		.byte	0
 6526 0102 15       		.uleb128 0x15
 6527 0103 26       		.uleb128 0x26
 6528 0104 00       		.byte	0
 6529 0105 00       		.byte	0
 6530 0106 00       		.byte	0
 6531 0107 16       		.uleb128 0x16
 6532 0108 01       		.uleb128 0x1
 6533 0109 01       		.byte	0x1
 6534 010a 49       		.uleb128 0x49
 6535 010b 13       		.uleb128 0x13
 6536 010c 01       		.uleb128 0x1
 6537 010d 13       		.uleb128 0x13
 6538 010e 00       		.byte	0
 6539 010f 00       		.byte	0
 6540 0110 17       		.uleb128 0x17
 6541 0111 21       		.uleb128 0x21
 6542 0112 00       		.byte	0
 6543 0113 49       		.uleb128 0x49
 6544 0114 13       		.uleb128 0x13
 6545 0115 2F       		.uleb128 0x2f
 6546 0116 0B       		.uleb128 0xb
 6547 0117 00       		.byte	0
 6548 0118 00       		.byte	0
 6549 0119 18       		.uleb128 0x18
 6550 011a 15       		.uleb128 0x15
 6551 011b 01       		.byte	0x1
 6552 011c 27       		.uleb128 0x27
 6553 011d 19       		.uleb128 0x19
 6554 011e 01       		.uleb128 0x1
 6555 011f 13       		.uleb128 0x13
 6556 0120 00       		.byte	0
 6557 0121 00       		.byte	0
 6558 0122 19       		.uleb128 0x19
 6559 0123 2E       		.uleb128 0x2e
 6560 0124 01       		.byte	0x1
 6561 0125 03       		.uleb128 0x3
 6562 0126 0E       		.uleb128 0xe
 6563 0127 3A       		.uleb128 0x3a
 6564 0128 0B       		.uleb128 0xb
 6565 0129 3B       		.uleb128 0x3b
 6566 012a 0B       		.uleb128 0xb
 6567 012b 27       		.uleb128 0x27
 6568 012c 19       		.uleb128 0x19
 6569 012d 49       		.uleb128 0x49
 6570 012e 13       		.uleb128 0x13
 6571 012f 20       		.uleb128 0x20
 6572 0130 0B       		.uleb128 0xb
 6573 0131 01       		.uleb128 0x1
 6574 0132 13       		.uleb128 0x13
 6575 0133 00       		.byte	0
 6576 0134 00       		.byte	0
 6577 0135 1A       		.uleb128 0x1a
ARM GAS  C:\Users\haske\AppData\Local\Temp\ccinSyc3.s 			page 130


 6578 0136 05       		.uleb128 0x5
 6579 0137 00       		.byte	0
 6580 0138 03       		.uleb128 0x3
 6581 0139 0E       		.uleb128 0xe
 6582 013a 3A       		.uleb128 0x3a
 6583 013b 0B       		.uleb128 0xb
 6584 013c 3B       		.uleb128 0x3b
 6585 013d 0B       		.uleb128 0xb
 6586 013e 49       		.uleb128 0x49
 6587 013f 13       		.uleb128 0x13
 6588 0140 00       		.byte	0
 6589 0141 00       		.byte	0
 6590 0142 1B       		.uleb128 0x1b
 6591 0143 2E       		.uleb128 0x2e
 6592 0144 01       		.byte	0x1
 6593 0145 03       		.uleb128 0x3
 6594 0146 0E       		.uleb128 0xe
 6595 0147 3A       		.uleb128 0x3a
 6596 0148 0B       		.uleb128 0xb
 6597 0149 3B       		.uleb128 0x3b
 6598 014a 0B       		.uleb128 0xb
 6599 014b 27       		.uleb128 0x27
 6600 014c 19       		.uleb128 0x19
 6601 014d 20       		.uleb128 0x20
 6602 014e 0B       		.uleb128 0xb
 6603 014f 01       		.uleb128 0x1
 6604 0150 13       		.uleb128 0x13
 6605 0151 00       		.byte	0
 6606 0152 00       		.byte	0
 6607 0153 1C       		.uleb128 0x1c
 6608 0154 05       		.uleb128 0x5
 6609 0155 00       		.byte	0
 6610 0156 03       		.uleb128 0x3
 6611 0157 08       		.uleb128 0x8
 6612 0158 3A       		.uleb128 0x3a
 6613 0159 0B       		.uleb128 0xb
 6614 015a 3B       		.uleb128 0x3b
 6615 015b 0B       		.uleb128 0xb
 6616 015c 49       		.uleb128 0x49
 6617 015d 13       		.uleb128 0x13
 6618 015e 00       		.byte	0
 6619 015f 00       		.byte	0
 6620 0160 1D       		.uleb128 0x1d
 6621 0161 2E       		.uleb128 0x2e
 6622 0162 01       		.byte	0x1
 6623 0163 03       		.uleb128 0x3
 6624 0164 0E       		.uleb128 0xe
 6625 0165 3A       		.uleb128 0x3a
 6626 0166 0B       		.uleb128 0xb
 6627 0167 3B       		.uleb128 0x3b
 6628 0168 0B       		.uleb128 0xb
 6629 0169 27       		.uleb128 0x27
 6630 016a 19       		.uleb128 0x19
 6631 016b 11       		.uleb128 0x11
 6632 016c 01       		.uleb128 0x1
 6633 016d 12       		.uleb128 0x12
 6634 016e 06       		.uleb128 0x6
ARM GAS  C:\Users\haske\AppData\Local\Temp\ccinSyc3.s 			page 131


 6635 016f 40       		.uleb128 0x40
 6636 0170 18       		.uleb128 0x18
 6637 0171 9742     		.uleb128 0x2117
 6638 0173 19       		.uleb128 0x19
 6639 0174 01       		.uleb128 0x1
 6640 0175 13       		.uleb128 0x13
 6641 0176 00       		.byte	0
 6642 0177 00       		.byte	0
 6643 0178 1E       		.uleb128 0x1e
 6644 0179 05       		.uleb128 0x5
 6645 017a 00       		.byte	0
 6646 017b 03       		.uleb128 0x3
 6647 017c 08       		.uleb128 0x8
 6648 017d 3A       		.uleb128 0x3a
 6649 017e 0B       		.uleb128 0xb
 6650 017f 3B       		.uleb128 0x3b
 6651 0180 0B       		.uleb128 0xb
 6652 0181 49       		.uleb128 0x49
 6653 0182 13       		.uleb128 0x13
 6654 0183 02       		.uleb128 0x2
 6655 0184 17       		.uleb128 0x17
 6656 0185 00       		.byte	0
 6657 0186 00       		.byte	0
 6658 0187 1F       		.uleb128 0x1f
 6659 0188 34       		.uleb128 0x34
 6660 0189 00       		.byte	0
 6661 018a 03       		.uleb128 0x3
 6662 018b 0E       		.uleb128 0xe
 6663 018c 3A       		.uleb128 0x3a
 6664 018d 0B       		.uleb128 0xb
 6665 018e 3B       		.uleb128 0x3b
 6666 018f 0B       		.uleb128 0xb
 6667 0190 49       		.uleb128 0x49
 6668 0191 13       		.uleb128 0x13
 6669 0192 02       		.uleb128 0x2
 6670 0193 17       		.uleb128 0x17
 6671 0194 00       		.byte	0
 6672 0195 00       		.byte	0
 6673 0196 20       		.uleb128 0x20
 6674 0197 34       		.uleb128 0x34
 6675 0198 00       		.byte	0
 6676 0199 03       		.uleb128 0x3
 6677 019a 0E       		.uleb128 0xe
 6678 019b 3A       		.uleb128 0x3a
 6679 019c 0B       		.uleb128 0xb
 6680 019d 3B       		.uleb128 0x3b
 6681 019e 0B       		.uleb128 0xb
 6682 019f 49       		.uleb128 0x49
 6683 01a0 13       		.uleb128 0x13
 6684 01a1 02       		.uleb128 0x2
 6685 01a2 18       		.uleb128 0x18
 6686 01a3 00       		.byte	0
 6687 01a4 00       		.byte	0
 6688 01a5 21       		.uleb128 0x21
 6689 01a6 0B       		.uleb128 0xb
 6690 01a7 01       		.byte	0x1
 6691 01a8 11       		.uleb128 0x11
ARM GAS  C:\Users\haske\AppData\Local\Temp\ccinSyc3.s 			page 132


 6692 01a9 01       		.uleb128 0x1
 6693 01aa 12       		.uleb128 0x12
 6694 01ab 06       		.uleb128 0x6
 6695 01ac 01       		.uleb128 0x1
 6696 01ad 13       		.uleb128 0x13
 6697 01ae 00       		.byte	0
 6698 01af 00       		.byte	0
 6699 01b0 22       		.uleb128 0x22
 6700 01b1 34       		.uleb128 0x34
 6701 01b2 00       		.byte	0
 6702 01b3 03       		.uleb128 0x3
 6703 01b4 08       		.uleb128 0x8
 6704 01b5 3A       		.uleb128 0x3a
 6705 01b6 0B       		.uleb128 0xb
 6706 01b7 3B       		.uleb128 0x3b
 6707 01b8 0B       		.uleb128 0xb
 6708 01b9 49       		.uleb128 0x49
 6709 01ba 13       		.uleb128 0x13
 6710 01bb 02       		.uleb128 0x2
 6711 01bc 17       		.uleb128 0x17
 6712 01bd 00       		.byte	0
 6713 01be 00       		.byte	0
 6714 01bf 23       		.uleb128 0x23
 6715 01c0 898201   		.uleb128 0x4109
 6716 01c3 00       		.byte	0
 6717 01c4 11       		.uleb128 0x11
 6718 01c5 01       		.uleb128 0x1
 6719 01c6 31       		.uleb128 0x31
 6720 01c7 13       		.uleb128 0x13
 6721 01c8 00       		.byte	0
 6722 01c9 00       		.byte	0
 6723 01ca 24       		.uleb128 0x24
 6724 01cb 898201   		.uleb128 0x4109
 6725 01ce 01       		.byte	0x1
 6726 01cf 11       		.uleb128 0x11
 6727 01d0 01       		.uleb128 0x1
 6728 01d1 31       		.uleb128 0x31
 6729 01d2 13       		.uleb128 0x13
 6730 01d3 01       		.uleb128 0x1
 6731 01d4 13       		.uleb128 0x13
 6732 01d5 00       		.byte	0
 6733 01d6 00       		.byte	0
 6734 01d7 25       		.uleb128 0x25
 6735 01d8 8A8201   		.uleb128 0x410a
 6736 01db 00       		.byte	0
 6737 01dc 02       		.uleb128 0x2
 6738 01dd 18       		.uleb128 0x18
 6739 01de 9142     		.uleb128 0x2111
 6740 01e0 18       		.uleb128 0x18
 6741 01e1 00       		.byte	0
 6742 01e2 00       		.byte	0
 6743 01e3 26       		.uleb128 0x26
 6744 01e4 34       		.uleb128 0x34
 6745 01e5 00       		.byte	0
 6746 01e6 03       		.uleb128 0x3
 6747 01e7 08       		.uleb128 0x8
 6748 01e8 3A       		.uleb128 0x3a
ARM GAS  C:\Users\haske\AppData\Local\Temp\ccinSyc3.s 			page 133


 6749 01e9 0B       		.uleb128 0xb
 6750 01ea 3B       		.uleb128 0x3b
 6751 01eb 05       		.uleb128 0x5
 6752 01ec 49       		.uleb128 0x49
 6753 01ed 13       		.uleb128 0x13
 6754 01ee 02       		.uleb128 0x2
 6755 01ef 17       		.uleb128 0x17
 6756 01f0 00       		.byte	0
 6757 01f1 00       		.byte	0
 6758 01f2 27       		.uleb128 0x27
 6759 01f3 0B       		.uleb128 0xb
 6760 01f4 01       		.byte	0x1
 6761 01f5 11       		.uleb128 0x11
 6762 01f6 01       		.uleb128 0x1
 6763 01f7 12       		.uleb128 0x12
 6764 01f8 06       		.uleb128 0x6
 6765 01f9 00       		.byte	0
 6766 01fa 00       		.byte	0
 6767 01fb 28       		.uleb128 0x28
 6768 01fc 2E       		.uleb128 0x2e
 6769 01fd 01       		.byte	0x1
 6770 01fe 03       		.uleb128 0x3
 6771 01ff 0E       		.uleb128 0xe
 6772 0200 3A       		.uleb128 0x3a
 6773 0201 0B       		.uleb128 0xb
 6774 0202 3B       		.uleb128 0x3b
 6775 0203 05       		.uleb128 0x5
 6776 0204 27       		.uleb128 0x27
 6777 0205 19       		.uleb128 0x19
 6778 0206 11       		.uleb128 0x11
 6779 0207 01       		.uleb128 0x1
 6780 0208 12       		.uleb128 0x12
 6781 0209 06       		.uleb128 0x6
 6782 020a 40       		.uleb128 0x40
 6783 020b 18       		.uleb128 0x18
 6784 020c 9742     		.uleb128 0x2117
 6785 020e 19       		.uleb128 0x19
 6786 020f 01       		.uleb128 0x1
 6787 0210 13       		.uleb128 0x13
 6788 0211 00       		.byte	0
 6789 0212 00       		.byte	0
 6790 0213 29       		.uleb128 0x29
 6791 0214 05       		.uleb128 0x5
 6792 0215 00       		.byte	0
 6793 0216 03       		.uleb128 0x3
 6794 0217 08       		.uleb128 0x8
 6795 0218 3A       		.uleb128 0x3a
 6796 0219 0B       		.uleb128 0xb
 6797 021a 3B       		.uleb128 0x3b
 6798 021b 05       		.uleb128 0x5
 6799 021c 49       		.uleb128 0x49
 6800 021d 13       		.uleb128 0x13
 6801 021e 02       		.uleb128 0x2
 6802 021f 17       		.uleb128 0x17
 6803 0220 00       		.byte	0
 6804 0221 00       		.byte	0
 6805 0222 2A       		.uleb128 0x2a
ARM GAS  C:\Users\haske\AppData\Local\Temp\ccinSyc3.s 			page 134


 6806 0223 34       		.uleb128 0x34
 6807 0224 00       		.byte	0
 6808 0225 03       		.uleb128 0x3
 6809 0226 0E       		.uleb128 0xe
 6810 0227 3A       		.uleb128 0x3a
 6811 0228 0B       		.uleb128 0xb
 6812 0229 3B       		.uleb128 0x3b
 6813 022a 05       		.uleb128 0x5
 6814 022b 49       		.uleb128 0x49
 6815 022c 13       		.uleb128 0x13
 6816 022d 02       		.uleb128 0x2
 6817 022e 17       		.uleb128 0x17
 6818 022f 00       		.byte	0
 6819 0230 00       		.byte	0
 6820 0231 2B       		.uleb128 0x2b
 6821 0232 34       		.uleb128 0x34
 6822 0233 00       		.byte	0
 6823 0234 03       		.uleb128 0x3
 6824 0235 0E       		.uleb128 0xe
 6825 0236 3A       		.uleb128 0x3a
 6826 0237 0B       		.uleb128 0xb
 6827 0238 3B       		.uleb128 0x3b
 6828 0239 05       		.uleb128 0x5
 6829 023a 49       		.uleb128 0x49
 6830 023b 13       		.uleb128 0x13
 6831 023c 02       		.uleb128 0x2
 6832 023d 18       		.uleb128 0x18
 6833 023e 00       		.byte	0
 6834 023f 00       		.byte	0
 6835 0240 2C       		.uleb128 0x2c
 6836 0241 05       		.uleb128 0x5
 6837 0242 00       		.byte	0
 6838 0243 03       		.uleb128 0x3
 6839 0244 0E       		.uleb128 0xe
 6840 0245 3A       		.uleb128 0x3a
 6841 0246 0B       		.uleb128 0xb
 6842 0247 3B       		.uleb128 0x3b
 6843 0248 05       		.uleb128 0x5
 6844 0249 49       		.uleb128 0x49
 6845 024a 13       		.uleb128 0x13
 6846 024b 02       		.uleb128 0x2
 6847 024c 17       		.uleb128 0x17
 6848 024d 00       		.byte	0
 6849 024e 00       		.byte	0
 6850 024f 2D       		.uleb128 0x2d
 6851 0250 34       		.uleb128 0x34
 6852 0251 00       		.byte	0
 6853 0252 03       		.uleb128 0x3
 6854 0253 08       		.uleb128 0x8
 6855 0254 3A       		.uleb128 0x3a
 6856 0255 0B       		.uleb128 0xb
 6857 0256 3B       		.uleb128 0x3b
 6858 0257 05       		.uleb128 0x5
 6859 0258 49       		.uleb128 0x49
 6860 0259 13       		.uleb128 0x13
 6861 025a 1C       		.uleb128 0x1c
 6862 025b 0B       		.uleb128 0xb
ARM GAS  C:\Users\haske\AppData\Local\Temp\ccinSyc3.s 			page 135


 6863 025c 00       		.byte	0
 6864 025d 00       		.byte	0
 6865 025e 2E       		.uleb128 0x2e
 6866 025f 898201   		.uleb128 0x4109
 6867 0262 01       		.byte	0x1
 6868 0263 11       		.uleb128 0x11
 6869 0264 01       		.uleb128 0x1
 6870 0265 31       		.uleb128 0x31
 6871 0266 13       		.uleb128 0x13
 6872 0267 00       		.byte	0
 6873 0268 00       		.byte	0
 6874 0269 2F       		.uleb128 0x2f
 6875 026a 2E       		.uleb128 0x2e
 6876 026b 01       		.byte	0x1
 6877 026c 3F       		.uleb128 0x3f
 6878 026d 19       		.uleb128 0x19
 6879 026e 03       		.uleb128 0x3
 6880 026f 0E       		.uleb128 0xe
 6881 0270 3A       		.uleb128 0x3a
 6882 0271 0B       		.uleb128 0xb
 6883 0272 3B       		.uleb128 0x3b
 6884 0273 0B       		.uleb128 0xb
 6885 0274 27       		.uleb128 0x27
 6886 0275 19       		.uleb128 0x19
 6887 0276 11       		.uleb128 0x11
 6888 0277 01       		.uleb128 0x1
 6889 0278 12       		.uleb128 0x12
 6890 0279 06       		.uleb128 0x6
 6891 027a 40       		.uleb128 0x40
 6892 027b 18       		.uleb128 0x18
 6893 027c 9642     		.uleb128 0x2116
 6894 027e 19       		.uleb128 0x19
 6895 027f 01       		.uleb128 0x1
 6896 0280 13       		.uleb128 0x13
 6897 0281 00       		.byte	0
 6898 0282 00       		.byte	0
 6899 0283 30       		.uleb128 0x30
 6900 0284 05       		.uleb128 0x5
 6901 0285 00       		.byte	0
 6902 0286 03       		.uleb128 0x3
 6903 0287 0E       		.uleb128 0xe
 6904 0288 3A       		.uleb128 0x3a
 6905 0289 0B       		.uleb128 0xb
 6906 028a 3B       		.uleb128 0x3b
 6907 028b 0B       		.uleb128 0xb
 6908 028c 49       		.uleb128 0x49
 6909 028d 13       		.uleb128 0x13
 6910 028e 02       		.uleb128 0x2
 6911 028f 17       		.uleb128 0x17
 6912 0290 00       		.byte	0
 6913 0291 00       		.byte	0
 6914 0292 31       		.uleb128 0x31
 6915 0293 1D       		.uleb128 0x1d
 6916 0294 01       		.byte	0x1
 6917 0295 31       		.uleb128 0x31
 6918 0296 13       		.uleb128 0x13
 6919 0297 11       		.uleb128 0x11
ARM GAS  C:\Users\haske\AppData\Local\Temp\ccinSyc3.s 			page 136


 6920 0298 01       		.uleb128 0x1
 6921 0299 12       		.uleb128 0x12
 6922 029a 06       		.uleb128 0x6
 6923 029b 58       		.uleb128 0x58
 6924 029c 0B       		.uleb128 0xb
 6925 029d 59       		.uleb128 0x59
 6926 029e 0B       		.uleb128 0xb
 6927 029f 01       		.uleb128 0x1
 6928 02a0 13       		.uleb128 0x13
 6929 02a1 00       		.byte	0
 6930 02a2 00       		.byte	0
 6931 02a3 32       		.uleb128 0x32
 6932 02a4 05       		.uleb128 0x5
 6933 02a5 00       		.byte	0
 6934 02a6 31       		.uleb128 0x31
 6935 02a7 13       		.uleb128 0x13
 6936 02a8 02       		.uleb128 0x2
 6937 02a9 17       		.uleb128 0x17
 6938 02aa 00       		.byte	0
 6939 02ab 00       		.byte	0
 6940 02ac 33       		.uleb128 0x33
 6941 02ad 34       		.uleb128 0x34
 6942 02ae 00       		.byte	0
 6943 02af 03       		.uleb128 0x3
 6944 02b0 0E       		.uleb128 0xe
 6945 02b1 3A       		.uleb128 0x3a
 6946 02b2 0B       		.uleb128 0xb
 6947 02b3 3B       		.uleb128 0x3b
 6948 02b4 0B       		.uleb128 0xb
 6949 02b5 49       		.uleb128 0x49
 6950 02b6 13       		.uleb128 0x13
 6951 02b7 3F       		.uleb128 0x3f
 6952 02b8 19       		.uleb128 0x19
 6953 02b9 3C       		.uleb128 0x3c
 6954 02ba 19       		.uleb128 0x19
 6955 02bb 00       		.byte	0
 6956 02bc 00       		.byte	0
 6957 02bd 34       		.uleb128 0x34
 6958 02be 2E       		.uleb128 0x2e
 6959 02bf 00       		.byte	0
 6960 02c0 3F       		.uleb128 0x3f
 6961 02c1 19       		.uleb128 0x19
 6962 02c2 3C       		.uleb128 0x3c
 6963 02c3 19       		.uleb128 0x19
 6964 02c4 6E       		.uleb128 0x6e
 6965 02c5 0E       		.uleb128 0xe
 6966 02c6 03       		.uleb128 0x3
 6967 02c7 0E       		.uleb128 0xe
 6968 02c8 3A       		.uleb128 0x3a
 6969 02c9 0B       		.uleb128 0xb
 6970 02ca 3B       		.uleb128 0x3b
 6971 02cb 0B       		.uleb128 0xb
 6972 02cc 00       		.byte	0
 6973 02cd 00       		.byte	0
 6974 02ce 35       		.uleb128 0x35
 6975 02cf 2E       		.uleb128 0x2e
 6976 02d0 00       		.byte	0
ARM GAS  C:\Users\haske\AppData\Local\Temp\ccinSyc3.s 			page 137


 6977 02d1 3F       		.uleb128 0x3f
 6978 02d2 19       		.uleb128 0x19
 6979 02d3 3C       		.uleb128 0x3c
 6980 02d4 19       		.uleb128 0x19
 6981 02d5 6E       		.uleb128 0x6e
 6982 02d6 0E       		.uleb128 0xe
 6983 02d7 03       		.uleb128 0x3
 6984 02d8 0E       		.uleb128 0xe
 6985 02d9 3A       		.uleb128 0x3a
 6986 02da 0B       		.uleb128 0xb
 6987 02db 3B       		.uleb128 0x3b
 6988 02dc 05       		.uleb128 0x5
 6989 02dd 00       		.byte	0
 6990 02de 00       		.byte	0
 6991 02df 00       		.byte	0
 6992              		.section	.debug_loc,"",%progbits
 6993              	.Ldebug_loc0:
 6994              	.LLST0:
 6995 0000 00000000 		.4byte	.LVL0
 6996 0004 18000000 		.4byte	.LVL2
 6997 0008 0100     		.2byte	0x1
 6998 000a 50       		.byte	0x50
 6999 000b 18000000 		.4byte	.LVL2
 7000 000f 2E020000 		.4byte	.LVL23
 7001 0013 0100     		.2byte	0x1
 7002 0015 54       		.byte	0x54
 7003 0016 2E020000 		.4byte	.LVL23
 7004 001a 30020000 		.4byte	.LFE57
 7005 001e 0400     		.2byte	0x4
 7006 0020 F3       		.byte	0xf3
 7007 0021 01       		.uleb128 0x1
 7008 0022 50       		.byte	0x50
 7009 0023 9F       		.byte	0x9f
 7010 0024 00000000 		.4byte	0
 7011 0028 00000000 		.4byte	0
 7012              	.LLST1:
 7013 002c 0A000000 		.4byte	.LVL1
 7014 0030 2E020000 		.4byte	.LVL24
 7015 0034 0100     		.2byte	0x1
 7016 0036 55       		.byte	0x55
 7017 0037 2E020000 		.4byte	.LVL24
 7018 003b 30020000 		.4byte	.LFE57
 7019 003f 0200     		.2byte	0x2
 7020 0041 73       		.byte	0x73
 7021 0042 08       		.sleb128 8
 7022 0043 00000000 		.4byte	0
 7023 0047 00000000 		.4byte	0
 7024              	.LLST2:
 7025 004b A6000000 		.4byte	.LVL7
 7026 004f B8000000 		.4byte	.LVL8
 7027 0053 0100     		.2byte	0x1
 7028 0055 50       		.byte	0x50
 7029 0056 00000000 		.4byte	0
 7030 005a 00000000 		.4byte	0
 7031              	.LLST3:
 7032 005e 2C010000 		.4byte	.LVL12
 7033 0062 3C010000 		.4byte	.LVL13
ARM GAS  C:\Users\haske\AppData\Local\Temp\ccinSyc3.s 			page 138


 7034 0066 0100     		.2byte	0x1
 7035 0068 50       		.byte	0x50
 7036 0069 00000000 		.4byte	0
 7037 006d 00000000 		.4byte	0
 7038              	.LLST4:
 7039 0071 A6010000 		.4byte	.LVL17
 7040 0075 B6010000 		.4byte	.LVL18
 7041 0079 0100     		.2byte	0x1
 7042 007b 50       		.byte	0x50
 7043 007c 00000000 		.4byte	0
 7044 0080 00000000 		.4byte	0
 7045              	.LLST5:
 7046 0084 14020000 		.4byte	.LVL20
 7047 0088 24020000 		.4byte	.LVL21
 7048 008c 0100     		.2byte	0x1
 7049 008e 50       		.byte	0x50
 7050 008f 00000000 		.4byte	0
 7051 0093 00000000 		.4byte	0
 7052              	.LLST6:
 7053 0097 00000000 		.4byte	.LVL25
 7054 009b 18000000 		.4byte	.LVL27
 7055 009f 0100     		.2byte	0x1
 7056 00a1 50       		.byte	0x50
 7057 00a2 18000000 		.4byte	.LVL27
 7058 00a6 32020000 		.4byte	.LVL48
 7059 00aa 0100     		.2byte	0x1
 7060 00ac 54       		.byte	0x54
 7061 00ad 32020000 		.4byte	.LVL48
 7062 00b1 34020000 		.4byte	.LFE58
 7063 00b5 0400     		.2byte	0x4
 7064 00b7 F3       		.byte	0xf3
 7065 00b8 01       		.uleb128 0x1
 7066 00b9 50       		.byte	0x50
 7067 00ba 9F       		.byte	0x9f
 7068 00bb 00000000 		.4byte	0
 7069 00bf 00000000 		.4byte	0
 7070              	.LLST7:
 7071 00c3 0A000000 		.4byte	.LVL26
 7072 00c7 32020000 		.4byte	.LVL49
 7073 00cb 0100     		.2byte	0x1
 7074 00cd 55       		.byte	0x55
 7075 00ce 32020000 		.4byte	.LVL49
 7076 00d2 34020000 		.4byte	.LFE58
 7077 00d6 0200     		.2byte	0x2
 7078 00d8 73       		.byte	0x73
 7079 00d9 08       		.sleb128 8
 7080 00da 00000000 		.4byte	0
 7081 00de 00000000 		.4byte	0
 7082              	.LLST8:
 7083 00e2 A6000000 		.4byte	.LVL32
 7084 00e6 B8000000 		.4byte	.LVL33
 7085 00ea 0100     		.2byte	0x1
 7086 00ec 50       		.byte	0x50
 7087 00ed 00000000 		.4byte	0
 7088 00f1 00000000 		.4byte	0
 7089              	.LLST9:
 7090 00f5 2C010000 		.4byte	.LVL37
ARM GAS  C:\Users\haske\AppData\Local\Temp\ccinSyc3.s 			page 139


 7091 00f9 3C010000 		.4byte	.LVL38
 7092 00fd 0100     		.2byte	0x1
 7093 00ff 50       		.byte	0x50
 7094 0100 00000000 		.4byte	0
 7095 0104 00000000 		.4byte	0
 7096              	.LLST10:
 7097 0108 A8010000 		.4byte	.LVL42
 7098 010c B8010000 		.4byte	.LVL43
 7099 0110 0100     		.2byte	0x1
 7100 0112 50       		.byte	0x50
 7101 0113 00000000 		.4byte	0
 7102 0117 00000000 		.4byte	0
 7103              	.LLST11:
 7104 011b 18020000 		.4byte	.LVL45
 7105 011f 28020000 		.4byte	.LVL46
 7106 0123 0100     		.2byte	0x1
 7107 0125 50       		.byte	0x50
 7108 0126 00000000 		.4byte	0
 7109 012a 00000000 		.4byte	0
 7110              	.LLST12:
 7111 012e 00000000 		.4byte	.LVL50
 7112 0132 18000000 		.4byte	.LVL52
 7113 0136 0100     		.2byte	0x1
 7114 0138 50       		.byte	0x50
 7115 0139 18000000 		.4byte	.LVL52
 7116 013d 34020000 		.4byte	.LVL73
 7117 0141 0100     		.2byte	0x1
 7118 0143 54       		.byte	0x54
 7119 0144 34020000 		.4byte	.LVL73
 7120 0148 36020000 		.4byte	.LFE59
 7121 014c 0400     		.2byte	0x4
 7122 014e F3       		.byte	0xf3
 7123 014f 01       		.uleb128 0x1
 7124 0150 50       		.byte	0x50
 7125 0151 9F       		.byte	0x9f
 7126 0152 00000000 		.4byte	0
 7127 0156 00000000 		.4byte	0
 7128              	.LLST13:
 7129 015a 0A000000 		.4byte	.LVL51
 7130 015e 34020000 		.4byte	.LVL74
 7131 0162 0100     		.2byte	0x1
 7132 0164 55       		.byte	0x55
 7133 0165 34020000 		.4byte	.LVL74
 7134 0169 36020000 		.4byte	.LFE59
 7135 016d 0200     		.2byte	0x2
 7136 016f 73       		.byte	0x73
 7137 0170 08       		.sleb128 8
 7138 0171 00000000 		.4byte	0
 7139 0175 00000000 		.4byte	0
 7140              	.LLST14:
 7141 0179 A6000000 		.4byte	.LVL57
 7142 017d B8000000 		.4byte	.LVL58
 7143 0181 0100     		.2byte	0x1
 7144 0183 50       		.byte	0x50
 7145 0184 00000000 		.4byte	0
 7146 0188 00000000 		.4byte	0
 7147              	.LLST15:
ARM GAS  C:\Users\haske\AppData\Local\Temp\ccinSyc3.s 			page 140


 7148 018c 2E010000 		.4byte	.LVL62
 7149 0190 3E010000 		.4byte	.LVL63
 7150 0194 0100     		.2byte	0x1
 7151 0196 50       		.byte	0x50
 7152 0197 00000000 		.4byte	0
 7153 019b 00000000 		.4byte	0
 7154              	.LLST16:
 7155 019f AA010000 		.4byte	.LVL67
 7156 01a3 BA010000 		.4byte	.LVL68
 7157 01a7 0100     		.2byte	0x1
 7158 01a9 50       		.byte	0x50
 7159 01aa 00000000 		.4byte	0
 7160 01ae 00000000 		.4byte	0
 7161              	.LLST17:
 7162 01b2 1A020000 		.4byte	.LVL70
 7163 01b6 2A020000 		.4byte	.LVL71
 7164 01ba 0100     		.2byte	0x1
 7165 01bc 50       		.byte	0x50
 7166 01bd 00000000 		.4byte	0
 7167 01c1 00000000 		.4byte	0
 7168              	.LLST18:
 7169 01c5 00000000 		.4byte	.LVL75
 7170 01c9 18000000 		.4byte	.LVL77
 7171 01cd 0100     		.2byte	0x1
 7172 01cf 50       		.byte	0x50
 7173 01d0 18000000 		.4byte	.LVL77
 7174 01d4 30020000 		.4byte	.LVL98
 7175 01d8 0100     		.2byte	0x1
 7176 01da 54       		.byte	0x54
 7177 01db 30020000 		.4byte	.LVL98
 7178 01df 32020000 		.4byte	.LFE60
 7179 01e3 0400     		.2byte	0x4
 7180 01e5 F3       		.byte	0xf3
 7181 01e6 01       		.uleb128 0x1
 7182 01e7 50       		.byte	0x50
 7183 01e8 9F       		.byte	0x9f
 7184 01e9 00000000 		.4byte	0
 7185 01ed 00000000 		.4byte	0
 7186              	.LLST19:
 7187 01f1 0A000000 		.4byte	.LVL76
 7188 01f5 30020000 		.4byte	.LVL99
 7189 01f9 0100     		.2byte	0x1
 7190 01fb 55       		.byte	0x55
 7191 01fc 30020000 		.4byte	.LVL99
 7192 0200 32020000 		.4byte	.LFE60
 7193 0204 0200     		.2byte	0x2
 7194 0206 73       		.byte	0x73
 7195 0207 08       		.sleb128 8
 7196 0208 00000000 		.4byte	0
 7197 020c 00000000 		.4byte	0
 7198              	.LLST20:
 7199 0210 A6000000 		.4byte	.LVL82
 7200 0214 B8000000 		.4byte	.LVL83
 7201 0218 0100     		.2byte	0x1
 7202 021a 50       		.byte	0x50
 7203 021b 00000000 		.4byte	0
 7204 021f 00000000 		.4byte	0
ARM GAS  C:\Users\haske\AppData\Local\Temp\ccinSyc3.s 			page 141


 7205              	.LLST21:
 7206 0223 2E010000 		.4byte	.LVL87
 7207 0227 3E010000 		.4byte	.LVL88
 7208 022b 0100     		.2byte	0x1
 7209 022d 50       		.byte	0x50
 7210 022e 00000000 		.4byte	0
 7211 0232 00000000 		.4byte	0
 7212              	.LLST22:
 7213 0236 A8010000 		.4byte	.LVL92
 7214 023a B8010000 		.4byte	.LVL93
 7215 023e 0100     		.2byte	0x1
 7216 0240 50       		.byte	0x50
 7217 0241 00000000 		.4byte	0
 7218 0245 00000000 		.4byte	0
 7219              	.LLST23:
 7220 0249 16020000 		.4byte	.LVL95
 7221 024d 26020000 		.4byte	.LVL96
 7222 0251 0100     		.2byte	0x1
 7223 0253 50       		.byte	0x50
 7224 0254 00000000 		.4byte	0
 7225 0258 00000000 		.4byte	0
 7226              	.LLST24:
 7227 025c 00000000 		.4byte	.LVL100
 7228 0260 1C000000 		.4byte	.LVL106
 7229 0264 0100     		.2byte	0x1
 7230 0266 50       		.byte	0x50
 7231 0267 1C000000 		.4byte	.LVL106
 7232 026b 96000000 		.4byte	.LFE61
 7233 026f 0400     		.2byte	0x4
 7234 0271 F3       		.byte	0xf3
 7235 0272 01       		.uleb128 0x1
 7236 0273 50       		.byte	0x50
 7237 0274 9F       		.byte	0x9f
 7238 0275 00000000 		.4byte	0
 7239 0279 00000000 		.4byte	0
 7240              	.LLST25:
 7241 027d 00000000 		.4byte	.LVL100
 7242 0281 25000000 		.4byte	.LVL107-1
 7243 0285 0100     		.2byte	0x1
 7244 0287 51       		.byte	0x51
 7245 0288 25000000 		.4byte	.LVL107-1
 7246 028c 96000000 		.4byte	.LFE61
 7247 0290 0400     		.2byte	0x4
 7248 0292 F3       		.byte	0xf3
 7249 0293 01       		.uleb128 0x1
 7250 0294 51       		.byte	0x51
 7251 0295 9F       		.byte	0x9f
 7252 0296 00000000 		.4byte	0
 7253 029a 00000000 		.4byte	0
 7254              	.LLST26:
 7255 029e 00000000 		.4byte	.LVL100
 7256 02a2 12000000 		.4byte	.LVL104
 7257 02a6 0100     		.2byte	0x1
 7258 02a8 52       		.byte	0x52
 7259 02a9 12000000 		.4byte	.LVL104
 7260 02ad 96000000 		.4byte	.LFE61
 7261 02b1 0400     		.2byte	0x4
ARM GAS  C:\Users\haske\AppData\Local\Temp\ccinSyc3.s 			page 142


 7262 02b3 F3       		.byte	0xf3
 7263 02b4 01       		.uleb128 0x1
 7264 02b5 52       		.byte	0x52
 7265 02b6 9F       		.byte	0x9f
 7266 02b7 00000000 		.4byte	0
 7267 02bb 00000000 		.4byte	0
 7268              	.LLST27:
 7269 02bf 00000000 		.4byte	.LVL100
 7270 02c3 10000000 		.4byte	.LVL103
 7271 02c7 0100     		.2byte	0x1
 7272 02c9 53       		.byte	0x53
 7273 02ca 10000000 		.4byte	.LVL103
 7274 02ce 90000000 		.4byte	.LVL127
 7275 02d2 0100     		.2byte	0x1
 7276 02d4 57       		.byte	0x57
 7277 02d5 90000000 		.4byte	.LVL127
 7278 02d9 96000000 		.4byte	.LFE61
 7279 02dd 0400     		.2byte	0x4
 7280 02df F3       		.byte	0xf3
 7281 02e0 01       		.uleb128 0x1
 7282 02e1 53       		.byte	0x53
 7283 02e2 9F       		.byte	0x9f
 7284 02e3 00000000 		.4byte	0
 7285 02e7 00000000 		.4byte	0
 7286              	.LLST28:
 7287 02eb 0E000000 		.4byte	.LVL102
 7288 02ef 70000000 		.4byte	.LVL121
 7289 02f3 0100     		.2byte	0x1
 7290 02f5 56       		.byte	0x56
 7291 02f6 7A000000 		.4byte	.LVL122
 7292 02fa 82000000 		.4byte	.LVL126
 7293 02fe 0100     		.2byte	0x1
 7294 0300 56       		.byte	0x56
 7295 0301 00000000 		.4byte	0
 7296 0305 00000000 		.4byte	0
 7297              	.LLST29:
 7298 0309 18000000 		.4byte	.LVL105
 7299 030d 90000000 		.4byte	.LVL128
 7300 0311 0100     		.2byte	0x1
 7301 0313 59       		.byte	0x59
 7302 0314 00000000 		.4byte	0
 7303 0318 00000000 		.4byte	0
 7304              	.LLST30:
 7305 031c 2C000000 		.4byte	.LVL108
 7306 0320 3C000000 		.4byte	.LVL111
 7307 0324 0100     		.2byte	0x1
 7308 0326 55       		.byte	0x55
 7309 0327 3C000000 		.4byte	.LVL111
 7310 032b 3E000000 		.4byte	.LVL112
 7311 032f 0400     		.2byte	0x4
 7312 0331 75       		.byte	0x75
 7313 0332 FF00     		.sleb128 127
 7314 0334 9F       		.byte	0x9f
 7315 0335 3E000000 		.4byte	.LVL112
 7316 0339 40000000 		.4byte	.LVL113
 7317 033d 0100     		.2byte	0x1
 7318 033f 55       		.byte	0x55
ARM GAS  C:\Users\haske\AppData\Local\Temp\ccinSyc3.s 			page 143


 7319 0340 4E000000 		.4byte	.LVL114
 7320 0344 50000000 		.4byte	.LVL115
 7321 0348 0100     		.2byte	0x1
 7322 034a 55       		.byte	0x55
 7323 034b 50000000 		.4byte	.LVL115
 7324 034f 52000000 		.4byte	.LVL116
 7325 0353 0400     		.2byte	0x4
 7326 0355 75       		.byte	0x75
 7327 0356 817F     		.sleb128 -127
 7328 0358 9F       		.byte	0x9f
 7329 0359 52000000 		.4byte	.LVL116
 7330 035d 54000000 		.4byte	.LVL117
 7331 0361 0100     		.2byte	0x1
 7332 0363 55       		.byte	0x55
 7333 0364 00000000 		.4byte	0
 7334 0368 00000000 		.4byte	0
 7335              	.LLST31:
 7336 036c 36000000 		.4byte	.LVL110
 7337 0370 68000000 		.4byte	.LVL118
 7338 0374 0100     		.2byte	0x1
 7339 0376 54       		.byte	0x54
 7340 0377 68000000 		.4byte	.LVL118
 7341 037b 6A000000 		.4byte	.LVL119
 7342 037f 0400     		.2byte	0x4
 7343 0381 74       		.byte	0x74
 7344 0382 FF00     		.sleb128 127
 7345 0384 9F       		.byte	0x9f
 7346 0385 6A000000 		.4byte	.LVL119
 7347 0389 6C000000 		.4byte	.LVL120
 7348 038d 0100     		.2byte	0x1
 7349 038f 54       		.byte	0x54
 7350 0390 7A000000 		.4byte	.LVL122
 7351 0394 7C000000 		.4byte	.LVL123
 7352 0398 0100     		.2byte	0x1
 7353 039a 54       		.byte	0x54
 7354 039b 7C000000 		.4byte	.LVL123
 7355 039f 7E000000 		.4byte	.LVL124
 7356 03a3 0400     		.2byte	0x4
 7357 03a5 74       		.byte	0x74
 7358 03a6 817F     		.sleb128 -127
 7359 03a8 9F       		.byte	0x9f
 7360 03a9 7E000000 		.4byte	.LVL124
 7361 03ad 80000000 		.4byte	.LVL125
 7362 03b1 0100     		.2byte	0x1
 7363 03b3 54       		.byte	0x54
 7364 03b4 00000000 		.4byte	0
 7365 03b8 00000000 		.4byte	0
 7366              	.LLST32:
 7367 03bc 00000000 		.4byte	.LVL129
 7368 03c0 46000000 		.4byte	.LVL137
 7369 03c4 0100     		.2byte	0x1
 7370 03c6 50       		.byte	0x50
 7371 03c7 46000000 		.4byte	.LVL137
 7372 03cb 70030000 		.4byte	.LFE56
 7373 03cf 0300     		.2byte	0x3
 7374 03d1 91       		.byte	0x91
 7375 03d2 B07D     		.sleb128 -336
ARM GAS  C:\Users\haske\AppData\Local\Temp\ccinSyc3.s 			page 144


 7376 03d4 00000000 		.4byte	0
 7377 03d8 00000000 		.4byte	0
 7378              	.LLST33:
 7379 03dc 00000000 		.4byte	.LVL129
 7380 03e0 49000000 		.4byte	.LVL138-1
 7381 03e4 0100     		.2byte	0x1
 7382 03e6 51       		.byte	0x51
 7383 03e7 49000000 		.4byte	.LVL138-1
 7384 03eb 82020000 		.4byte	.LVL191
 7385 03ef 0100     		.2byte	0x1
 7386 03f1 56       		.byte	0x56
 7387 03f2 82020000 		.4byte	.LVL191
 7388 03f6 70030000 		.4byte	.LFE56
 7389 03fa 0400     		.2byte	0x4
 7390 03fc F3       		.byte	0xf3
 7391 03fd 01       		.uleb128 0x1
 7392 03fe 51       		.byte	0x51
 7393 03ff 9F       		.byte	0x9f
 7394 0400 00000000 		.4byte	0
 7395 0404 00000000 		.4byte	0
 7396              	.LLST34:
 7397 0408 00000000 		.4byte	.LVL129
 7398 040c 2A000000 		.4byte	.LVL133
 7399 0410 0100     		.2byte	0x1
 7400 0412 52       		.byte	0x52
 7401 0413 2A000000 		.4byte	.LVL133
 7402 0417 70030000 		.4byte	.LFE56
 7403 041b 0300     		.2byte	0x3
 7404 041d 91       		.byte	0x91
 7405 041e AC7D     		.sleb128 -340
 7406 0420 00000000 		.4byte	0
 7407 0424 00000000 		.4byte	0
 7408              	.LLST35:
 7409 0428 00000000 		.4byte	.LVL129
 7410 042c 18000000 		.4byte	.LVL130
 7411 0430 0100     		.2byte	0x1
 7412 0432 53       		.byte	0x53
 7413 0433 18000000 		.4byte	.LVL130
 7414 0437 70030000 		.4byte	.LFE56
 7415 043b 0400     		.2byte	0x4
 7416 043d F3       		.byte	0xf3
 7417 043e 01       		.uleb128 0x1
 7418 043f 53       		.byte	0x53
 7419 0440 9F       		.byte	0x9f
 7420 0441 00000000 		.4byte	0
 7421 0445 00000000 		.4byte	0
 7422              	.LLST36:
 7423 0449 00000000 		.4byte	.LVL129
 7424 044d 18000000 		.4byte	.LVL130
 7425 0451 0200     		.2byte	0x2
 7426 0453 91       		.byte	0x91
 7427 0454 00       		.sleb128 0
 7428 0455 18000000 		.4byte	.LVL130
 7429 0459 1C000000 		.4byte	.LVL131
 7430 045d 0200     		.2byte	0x2
 7431 045f 73       		.byte	0x73
 7432 0460 00       		.sleb128 0
ARM GAS  C:\Users\haske\AppData\Local\Temp\ccinSyc3.s 			page 145


 7433 0461 1C000000 		.4byte	.LVL131
 7434 0465 70010000 		.4byte	.LVL158
 7435 0469 0200     		.2byte	0x2
 7436 046b 91       		.byte	0x91
 7437 046c 00       		.sleb128 0
 7438 046d 70010000 		.4byte	.LVL158
 7439 0471 72010000 		.4byte	.LVL159
 7440 0475 0100     		.2byte	0x1
 7441 0477 54       		.byte	0x54
 7442 0478 76010000 		.4byte	.LVL160
 7443 047c EC010000 		.4byte	.LVL173
 7444 0480 0100     		.2byte	0x1
 7445 0482 54       		.byte	0x54
 7446 0483 EC010000 		.4byte	.LVL173
 7447 0487 26020000 		.4byte	.LVL179
 7448 048b 0300     		.2byte	0x3
 7449 048d 91       		.byte	0x91
 7450 048e C47D     		.sleb128 -316
 7451 0490 26020000 		.4byte	.LVL179
 7452 0494 30020000 		.4byte	.LVL181
 7453 0498 0100     		.2byte	0x1
 7454 049a 54       		.byte	0x54
 7455 049b 30020000 		.4byte	.LVL181
 7456 049f 5E030000 		.4byte	.LVL207
 7457 04a3 0300     		.2byte	0x3
 7458 04a5 91       		.byte	0x91
 7459 04a6 C47D     		.sleb128 -316
 7460 04a8 00000000 		.4byte	0
 7461 04ac 00000000 		.4byte	0
 7462              	.LLST37:
 7463 04b0 00000000 		.4byte	.LVL129
 7464 04b4 18000000 		.4byte	.LVL130
 7465 04b8 0200     		.2byte	0x2
 7466 04ba 91       		.byte	0x91
 7467 04bb 04       		.sleb128 4
 7468 04bc 18000000 		.4byte	.LVL130
 7469 04c0 1C000000 		.4byte	.LVL131
 7470 04c4 0200     		.2byte	0x2
 7471 04c6 73       		.byte	0x73
 7472 04c7 04       		.sleb128 4
 7473 04c8 1C000000 		.4byte	.LVL131
 7474 04cc 20000000 		.4byte	.LVL132
 7475 04d0 0200     		.2byte	0x2
 7476 04d2 73       		.byte	0x73
 7477 04d3 00       		.sleb128 0
 7478 04d4 20000000 		.4byte	.LVL132
 7479 04d8 80010000 		.4byte	.LVL161
 7480 04dc 0200     		.2byte	0x2
 7481 04de 91       		.byte	0x91
 7482 04df 04       		.sleb128 4
 7483 04e0 80010000 		.4byte	.LVL161
 7484 04e4 82010000 		.4byte	.LVL162
 7485 04e8 0100     		.2byte	0x1
 7486 04ea 55       		.byte	0x55
 7487 04eb 86010000 		.4byte	.LVL163
 7488 04ef 6C020000 		.4byte	.LVL188
 7489 04f3 0100     		.2byte	0x1
ARM GAS  C:\Users\haske\AppData\Local\Temp\ccinSyc3.s 			page 146


 7490 04f5 55       		.byte	0x55
 7491 04f6 6C020000 		.4byte	.LVL188
 7492 04fa 5E030000 		.4byte	.LVL207
 7493 04fe 0100     		.2byte	0x1
 7494 0500 5B       		.byte	0x5b
 7495 0501 00000000 		.4byte	0
 7496 0505 00000000 		.4byte	0
 7497              	.LLST38:
 7498 0509 38000000 		.4byte	.LVL134
 7499 050d 3E000000 		.4byte	.LVL135
 7500 0511 0100     		.2byte	0x1
 7501 0513 53       		.byte	0x53
 7502 0514 3E000000 		.4byte	.LVL135
 7503 0518 5E030000 		.4byte	.LVL207
 7504 051c 0100     		.2byte	0x1
 7505 051e 5A       		.byte	0x5a
 7506 051f 00000000 		.4byte	0
 7507 0523 00000000 		.4byte	0
 7508              	.LLST39:
 7509 0527 CC000000 		.4byte	.LVL141
 7510 052b F8000000 		.4byte	.LVL147
 7511 052f 0300     		.2byte	0x3
 7512 0531 09       		.byte	0x9
 7513 0532 FF       		.byte	0xff
 7514 0533 9F       		.byte	0x9f
 7515 0534 F8000000 		.4byte	.LVL147
 7516 0538 FE000000 		.4byte	.LVL148
 7517 053c 0100     		.2byte	0x1
 7518 053e 50       		.byte	0x50
 7519 053f FE000000 		.4byte	.LVL148
 7520 0543 10010000 		.4byte	.LVL149
 7521 0547 0300     		.2byte	0x3
 7522 0549 09       		.byte	0x9
 7523 054a FF       		.byte	0xff
 7524 054b 9F       		.byte	0x9f
 7525 054c 10010000 		.4byte	.LVL149
 7526 0550 72020000 		.4byte	.LVL189
 7527 0554 0300     		.2byte	0x3
 7528 0556 91       		.byte	0x91
 7529 0557 B47D     		.sleb128 -332
 7530 0559 00000000 		.4byte	0
 7531 055d 00000000 		.4byte	0
 7532              	.LLST40:
 7533 0561 CC000000 		.4byte	.LVL141
 7534 0565 EE000000 		.4byte	.LVL145
 7535 0569 0200     		.2byte	0x2
 7536 056b 30       		.byte	0x30
 7537 056c 9F       		.byte	0x9f
 7538 056d EE000000 		.4byte	.LVL145
 7539 0571 FE000000 		.4byte	.LVL148
 7540 0575 0200     		.2byte	0x2
 7541 0577 31       		.byte	0x31
 7542 0578 9F       		.byte	0x9f
 7543 0579 FE000000 		.4byte	.LVL148
 7544 057d 10010000 		.4byte	.LVL149
 7545 0581 0200     		.2byte	0x2
 7546 0583 30       		.byte	0x30
ARM GAS  C:\Users\haske\AppData\Local\Temp\ccinSyc3.s 			page 147


 7547 0584 9F       		.byte	0x9f
 7548 0585 10010000 		.4byte	.LVL149
 7549 0589 5E030000 		.4byte	.LVL207
 7550 058d 0100     		.2byte	0x1
 7551 058f 59       		.byte	0x59
 7552 0590 00000000 		.4byte	0
 7553 0594 00000000 		.4byte	0
 7554              	.LLST41:
 7555 0598 26010000 		.4byte	.LVL152
 7556 059c 5E030000 		.4byte	.LVL207
 7557 05a0 0300     		.2byte	0x3
 7558 05a2 91       		.byte	0x91
 7559 05a3 B87D     		.sleb128 -328
 7560 05a5 00000000 		.4byte	0
 7561 05a9 00000000 		.4byte	0
 7562              	.LLST42:
 7563 05ad B4010000 		.4byte	.LVL166
 7564 05b1 5E030000 		.4byte	.LVL207
 7565 05b5 0300     		.2byte	0x3
 7566 05b7 91       		.byte	0x91
 7567 05b8 C07D     		.sleb128 -320
 7568 05ba 00000000 		.4byte	0
 7569 05be 00000000 		.4byte	0
 7570              	.LLST43:
 7571 05c2 C0010000 		.4byte	.LVL167
 7572 05c6 C2010000 		.4byte	.LVL168
 7573 05ca 0100     		.2byte	0x1
 7574 05cc 53       		.byte	0x53
 7575 05cd C4010000 		.4byte	.LVL169
 7576 05d1 D0010000 		.4byte	.LVL171
 7577 05d5 0100     		.2byte	0x1
 7578 05d7 53       		.byte	0x53
 7579 05d8 00000000 		.4byte	0
 7580 05dc 00000000 		.4byte	0
 7581              	.LLST44:
 7582 05e0 CA010000 		.4byte	.LVL170
 7583 05e4 E9010000 		.4byte	.LVL172-1
 7584 05e8 0100     		.2byte	0x1
 7585 05ea 52       		.byte	0x52
 7586 05eb E9010000 		.4byte	.LVL172-1
 7587 05ef 26020000 		.4byte	.LVL179
 7588 05f3 0300     		.2byte	0x3
 7589 05f5 91       		.byte	0x91
 7590 05f6 BC7D     		.sleb128 -324
 7591 05f8 26020000 		.4byte	.LVL179
 7592 05fc 28020000 		.4byte	.LVL180
 7593 0600 0100     		.2byte	0x1
 7594 0602 52       		.byte	0x52
 7595 0603 28020000 		.4byte	.LVL180
 7596 0607 2F020000 		.4byte	.LVL181-1
 7597 060b 0600     		.2byte	0x6
 7598 060d 91       		.byte	0x91
 7599 060e B07D     		.sleb128 -336
 7600 0610 06       		.byte	0x6
 7601 0611 23       		.byte	0x23
 7602 0612 08       		.uleb128 0x8
 7603 0613 2F020000 		.4byte	.LVL181-1
ARM GAS  C:\Users\haske\AppData\Local\Temp\ccinSyc3.s 			page 148


 7604 0617 5E030000 		.4byte	.LVL207
 7605 061b 0300     		.2byte	0x3
 7606 061d 91       		.byte	0x91
 7607 061e BC7D     		.sleb128 -324
 7608 0620 00000000 		.4byte	0
 7609 0624 00000000 		.4byte	0
 7610              	.LLST45:
 7611 0628 A0000000 		.4byte	.LVL139
 7612 062c A2000000 		.4byte	.LVL140
 7613 0630 0100     		.2byte	0x1
 7614 0632 50       		.byte	0x50
 7615 0633 00000000 		.4byte	0
 7616 0637 00000000 		.4byte	0
 7617              	.LLST46:
 7618 063b A0000000 		.4byte	.LVL139
 7619 063f A2000000 		.4byte	.LVL140
 7620 0643 0400     		.2byte	0x4
 7621 0645 91       		.byte	0x91
 7622 0646 907F     		.sleb128 -112
 7623 0648 9F       		.byte	0x9f
 7624 0649 00000000 		.4byte	0
 7625 064d 00000000 		.4byte	0
 7626              	.LLST47:
 7627 0651 CC000000 		.4byte	.LVL141
 7628 0655 D2000000 		.4byte	.LVL142
 7629 0659 0100     		.2byte	0x1
 7630 065b 50       		.byte	0x50
 7631 065c 00000000 		.4byte	0
 7632 0660 00000000 		.4byte	0
 7633              	.LLST48:
 7634 0664 D6000000 		.4byte	.LVL143
 7635 0668 DE000000 		.4byte	.LVL144
 7636 066c 0100     		.2byte	0x1
 7637 066e 50       		.byte	0x50
 7638 066f 00000000 		.4byte	0
 7639 0673 00000000 		.4byte	0
 7640              	.LLST49:
 7641 0677 CC020000 		.4byte	.LVL195
 7642 067b E6020000 		.4byte	.LVL198
 7643 067f 0100     		.2byte	0x1
 7644 0681 56       		.byte	0x56
 7645 0682 00000000 		.4byte	0
 7646 0686 00000000 		.4byte	0
 7647              	.LLST50:
 7648 068a 3E030000 		.4byte	.LVL203
 7649 068e 58030000 		.4byte	.LVL206
 7650 0692 0100     		.2byte	0x1
 7651 0694 54       		.byte	0x54
 7652 0695 00000000 		.4byte	0
 7653 0699 00000000 		.4byte	0
 7654              		.section	.debug_aranges,"",%progbits
 7655 0000 44000000 		.4byte	0x44
 7656 0004 0200     		.2byte	0x2
 7657 0006 00000000 		.4byte	.Ldebug_info0
 7658 000a 04       		.byte	0x4
 7659 000b 00       		.byte	0
 7660 000c 0000     		.2byte	0
ARM GAS  C:\Users\haske\AppData\Local\Temp\ccinSyc3.s 			page 149


 7661 000e 0000     		.2byte	0
 7662 0010 00000000 		.4byte	.LFB57
 7663 0014 30020000 		.4byte	.LFE57-.LFB57
 7664 0018 00000000 		.4byte	.LFB58
 7665 001c 34020000 		.4byte	.LFE58-.LFB58
 7666 0020 00000000 		.4byte	.LFB59
 7667 0024 36020000 		.4byte	.LFE59-.LFB59
 7668 0028 00000000 		.4byte	.LFB60
 7669 002c 32020000 		.4byte	.LFE60-.LFB60
 7670 0030 00000000 		.4byte	.LFB61
 7671 0034 96000000 		.4byte	.LFE61-.LFB61
 7672 0038 00000000 		.4byte	.LFB56
 7673 003c 70030000 		.4byte	.LFE56-.LFB56
 7674 0040 00000000 		.4byte	0
 7675 0044 00000000 		.4byte	0
 7676              		.section	.debug_ranges,"",%progbits
 7677              	.Ldebug_ranges0:
 7678 0000 00000000 		.4byte	.LFB57
 7679 0004 30020000 		.4byte	.LFE57
 7680 0008 00000000 		.4byte	.LFB58
 7681 000c 34020000 		.4byte	.LFE58
 7682 0010 00000000 		.4byte	.LFB59
 7683 0014 36020000 		.4byte	.LFE59
 7684 0018 00000000 		.4byte	.LFB60
 7685 001c 32020000 		.4byte	.LFE60
 7686 0020 00000000 		.4byte	.LFB61
 7687 0024 96000000 		.4byte	.LFE61
 7688 0028 00000000 		.4byte	.LFB56
 7689 002c 70030000 		.4byte	.LFE56
 7690 0030 00000000 		.4byte	0
 7691 0034 00000000 		.4byte	0
 7692              		.section	.debug_line,"",%progbits
 7693              	.Ldebug_line0:
 7694 0000 75060000 		.section	.debug_str,"MS",%progbits,1
 7694      0200BE03 
 7694      00000201 
 7694      FB0E0D00 
 7694      01010101 
 7695              	.LASF15:
 7696 0000 696E7438 		.ascii	"int8_t\000"
 7696      5F7400
 7697              	.LASF22:
 7698 0007 73697A65 		.ascii	"size_t\000"
 7698      5F7400
 7699              	.LASF49:
 7700 000e 6164765F 		.ascii	"adv_w\000"
 7700      7700
 7701              	.LASF24:
 7702 0014 73697A65 		.ascii	"sizetype\000"
 7702      74797065 
 7702      00
 7703              	.LASF239:
 7704 001d 715F6473 		.ascii	"q_dsc\000"
 7704      6300
 7705              	.LASF195:
 7706 0023 64726177 		.ascii	"draw_bg\000"
 7706      5F626700 
ARM GAS  C:\Users\haske\AppData\Local\Temp\ccinSyc3.s 			page 150


 7707              	.LASF44:
 7708 002b 6C765F6F 		.ascii	"lv_opa_t\000"
 7708      70615F74 
 7708      00
 7709              	.LASF165:
 7710 0034 7261775F 		.ascii	"raw_end\000"
 7710      656E6400 
 7711              	.LASF19:
 7712 003c 696E7433 		.ascii	"int32_t\000"
 7712      325F7400 
 7713              	.LASF222:
 7714 0044 74686963 		.ascii	"thickness\000"
 7714      6B6E6573 
 7714      7300
 7715              	.LASF46:
 7716 004e 6C765F70 		.ascii	"lv_point_t\000"
 7716      6F696E74 
 7716      5F7400
 7717              	.LASF216:
 7718 0059 71756172 		.ascii	"quarter_area\000"
 7718      7465725F 
 7718      61726561 
 7718      00
 7719              	.LASF107:
 7720 0066 72616469 		.ascii	"radius\000"
 7720      757300
 7721              	.LASF116:
 7722 006d 62675F63 		.ascii	"bg_color\000"
 7722      6F6C6F72 
 7722      00
 7723              	.LASF57:
 7724 0076 6C696E65 		.ascii	"line_height\000"
 7724      5F686569 
 7724      67687400 
 7725              	.LASF70:
 7726 0082 6C765F62 		.ascii	"lv_blend_mode_t\000"
 7726      6C656E64 
 7726      5F6D6F64 
 7726      655F7400 
 7727              	.LASF147:
 7728 0092 62696469 		.ascii	"bidi_dir\000"
 7728      5F646972 
 7728      00
 7729              	.LASF171:
 7730 009b 4C565F44 		.ascii	"LV_DRAW_LAYER_FLAG_HAS_ALPHA\000"
 7730      5241575F 
 7730      4C415945 
 7730      525F464C 
 7730      41475F48 
 7731              	.LASF153:
 7732 00b8 7A6F6F6D 		.ascii	"zoom\000"
 7732      00
 7733              	.LASF82:
 7734 00bd 6C765F64 		.ascii	"lv_draw_mask_res_t\000"
 7734      7261775F 
 7734      6D61736B 
 7734      5F726573 
ARM GAS  C:\Users\haske\AppData\Local\Temp\ccinSyc3.s 			page 151


 7734      5F7400
 7735              	.LASF187:
 7736 00d0 64726177 		.ascii	"draw_rect\000"
 7736      5F726563 
 7736      7400
 7737              	.LASF207:
 7738 00da 64726177 		.ascii	"draw_dsc\000"
 7738      5F647363 
 7738      00
 7739              	.LASF218:
 7740 00e3 64726177 		.ascii	"draw_quarter_1\000"
 7740      5F717561 
 7740      72746572 
 7740      5F3100
 7741              	.LASF244:
 7742 00f2 6C765F74 		.ascii	"lv_trigo_sin\000"
 7742      7269676F 
 7742      5F73696E 
 7742      00
 7743              	.LASF186:
 7744 00ff 696E6974 		.ascii	"init_buf\000"
 7744      5F627566 
 7744      00
 7745              	.LASF103:
 7746 0108 785F7374 		.ascii	"x_start_on_y\000"
 7746      6172745F 
 7746      6F6E5F79 
 7746      00
 7747              	.LASF185:
 7748 0115 5F6C765F 		.ascii	"_lv_draw_ctx_t\000"
 7748      64726177 
 7748      5F637478 
 7748      5F7400
 7749              	.LASF86:
 7750 0124 74797065 		.ascii	"type\000"
 7750      00
 7751              	.LASF118:
 7752 0129 62675F69 		.ascii	"bg_img_src\000"
 7752      6D675F73 
 7752      726300
 7753              	.LASF144:
 7754 0134 73656C5F 		.ascii	"sel_bg_color\000"
 7754      62675F63 
 7754      6F6C6F72 
 7754      00
 7755              	.LASF128:
 7756 0141 626F7264 		.ascii	"border_side\000"
 7756      65725F73 
 7756      69646500 
 7757              	.LASF1:
 7758 014d 5F5F7569 		.ascii	"__uint8_t\000"
 7758      6E74385F 
 7758      7400
 7759              	.LASF114:
 7760 0157 626C656E 		.ascii	"blend_mode\000"
 7760      645F6D6F 
 7760      646500
ARM GAS  C:\Users\haske\AppData\Local\Temp\ccinSyc3.s 			page 152


 7761              	.LASF100:
 7762 0162 64656C74 		.ascii	"delta_deg\000"
 7762      615F6465 
 7762      6700
 7763              	.LASF91:
 7764 016c 79785F73 		.ascii	"yx_steep\000"
 7764      74656570 
 7764      00
 7765              	.LASF9:
 7766 0175 6C6F6E67 		.ascii	"long int\000"
 7766      20696E74 
 7766      00
 7767              	.LASF115:
 7768 017e 62675F6F 		.ascii	"bg_opa\000"
 7768      706100
 7769              	.LASF151:
 7770 0185 6C765F64 		.ascii	"lv_draw_label_dsc_t\000"
 7770      7261775F 
 7770      6C616265 
 7770      6C5F6473 
 7770      635F7400 
 7771              	.LASF208:
 7772 0199 64726177 		.ascii	"draw_area\000"
 7772      5F617265 
 7772      6100
 7773              	.LASF254:
 7774 01a3 2E2E5C2E 		.ascii	"..\\..\\..\\arduinoLCD\\test\\Pain Drain\\libraries"
 7774      2E5C2E2E 
 7774      5C617264 
 7774      75696E6F 
 7774      4C43445C 
 7775 01d0 5C6C7667 		.ascii	"\\lvgl\\src\\draw\\sw\\lv_draw_sw_arc.c\000"
 7775      6C5C7372 
 7775      635C6472 
 7775      61775C73 
 7775      775C6C76 
 7776              	.LASF105:
 7777 01f3 6C696665 		.ascii	"life\000"
 7777      00
 7778              	.LASF211:
 7779 01f8 61726561 		.ascii	"area_p\000"
 7779      5F7000
 7780              	.LASF197:
 7781 01ff 62756666 		.ascii	"buffer_copy\000"
 7781      65725F63 
 7781      6F707900 
 7782              	.LASF129:
 7783 020b 6F75746C 		.ascii	"outline_color\000"
 7783      696E655F 
 7783      636F6C6F 
 7783      7200
 7784              	.LASF2:
 7785 0219 7369676E 		.ascii	"signed char\000"
 7785      65642063 
 7785      68617200 
 7786              	.LASF205:
 7787 0225 73746172 		.ascii	"start_quarter\000"
ARM GAS  C:\Users\haske\AppData\Local\Temp\ccinSyc3.s 			page 153


 7787      745F7175 
 7787      61727465 
 7787      7200
 7788              	.LASF16:
 7789 0233 75696E74 		.ascii	"uint8_t\000"
 7789      385F7400 
 7790              	.LASF192:
 7791 023b 64726177 		.ascii	"draw_line\000"
 7791      5F6C696E 
 7791      6500
 7792              	.LASF123:
 7793 0245 62675F69 		.ascii	"bg_img_tiled\000"
 7793      6D675F74 
 7793      696C6564 
 7793      00
 7794              	.LASF56:
 7795 0252 6765745F 		.ascii	"get_glyph_bitmap\000"
 7795      676C7970 
 7795      685F6269 
 7795      746D6170 
 7795      00
 7796              	.LASF224:
 7797 0263 74686963 		.ascii	"thick_half\000"
 7797      6B5F6861 
 7797      6C6600
 7798              	.LASF97:
 7799 026e 656E645F 		.ascii	"end_angle\000"
 7799      616E676C 
 7799      6500
 7800              	.LASF39:
 7801 0278 626C7565 		.ascii	"blue\000"
 7801      00
 7802              	.LASF110:
 7803 027d 6F757465 		.ascii	"outer\000"
 7803      7200
 7804              	.LASF112:
 7805 0283 6C765F64 		.ascii	"lv_draw_mask_radius_param_t\000"
 7805      7261775F 
 7805      6D61736B 
 7805      5F726164 
 7805      6975735F 
 7806              	.LASF3:
 7807 029f 756E7369 		.ascii	"unsigned char\000"
 7807      676E6564 
 7807      20636861 
 7807      7200
 7808              	.LASF238:
 7809 02ad 616E676C 		.ascii	"angle_gap\000"
 7809      655F6761 
 7809      7000
 7810              	.LASF108:
 7811 02b7 5F6C765F 		.ascii	"_lv_draw_mask_radius_circle_dsc_t\000"
 7811      64726177 
 7811      5F6D6173 
 7811      6B5F7261 
 7811      64697573 
 7812              	.LASF166:
ARM GAS  C:\Users\haske\AppData\Local\Temp\ccinSyc3.s 			page 154


 7813 02d9 6C765F64 		.ascii	"lv_draw_line_dsc_t\000"
 7813      7261775F 
 7813      6C696E65 
 7813      5F647363 
 7813      5F7400
 7814              	.LASF180:
 7815 02ec 61726561 		.ascii	"area_act\000"
 7815      5F616374 
 7815      00
 7816              	.LASF52:
 7817 02f5 6F66735F 		.ascii	"ofs_x\000"
 7817      7800
 7818              	.LASF53:
 7819 02fb 6F66735F 		.ascii	"ofs_y\000"
 7819      7900
 7820              	.LASF69:
 7821 0301 6C765F62 		.ascii	"lv_base_dir_t\000"
 7821      6173655F 
 7821      6469725F 
 7821      7400
 7822              	.LASF65:
 7823 030f 5F426F6F 		.ascii	"_Bool\000"
 7823      6C00
 7824              	.LASF183:
 7825 0315 6F726967 		.ascii	"original\000"
 7825      696E616C 
 7825      00
 7826              	.LASF253:
 7827 031e 474E5520 		.ascii	"GNU C11 5.4.1 20160609 (release) [ARM/embedded-5-br"
 7827      43313120 
 7827      352E342E 
 7827      31203230 
 7827      31363036 
 7828 0351 616E6368 		.ascii	"anch revision 237715] -mcpu=cortex-m0plus -mthumb -"
 7828      20726576 
 7828      6973696F 
 7828      6E203233 
 7828      37373135 
 7829 0384 67202D4F 		.ascii	"g -Og -ffunction-sections -ffat-lto-objects\000"
 7829      67202D66 
 7829      66756E63 
 7829      74696F6E 
 7829      2D736563 
 7830              	.LASF173:
 7831 03b0 6C765F64 		.ascii	"lv_draw_layer_flags_t\000"
 7831      7261775F 
 7831      6C617965 
 7831      725F666C 
 7831      6167735F 
 7832              	.LASF242:
 7833 03c6 636C6970 		.ascii	"clip_area2\000"
 7833      5F617265 
 7833      613200
 7834              	.LASF25:
 7835 03d1 63686172 		.ascii	"char\000"
 7835      00
 7836              	.LASF159:
ARM GAS  C:\Users\haske\AppData\Local\Temp\ccinSyc3.s 			page 155


 7837 03d6 6C765F64 		.ascii	"lv_draw_img_dsc_t\000"
 7837      7261775F 
 7837      696D675F 
 7837      6473635F 
 7837      7400
 7838              	.LASF256:
 7839 03e8 6C765F61 		.ascii	"lv_area_copy\000"
 7839      7265615F 
 7839      636F7079 
 7839      00
 7840              	.LASF60:
 7841 03f5 756E6465 		.ascii	"underline_position\000"
 7841      726C696E 
 7841      655F706F 
 7841      73697469 
 7841      6F6E00
 7842              	.LASF202:
 7843 0408 6C617965 		.ascii	"layer_instance_size\000"
 7843      725F696E 
 7843      7374616E 
 7843      63655F73 
 7843      697A6500 
 7844              	.LASF228:
 7845 041c 6369725F 		.ascii	"cir_dsc\000"
 7845      64736300 
 7846              	.LASF162:
 7847 0424 64617368 		.ascii	"dash_gap\000"
 7847      5F676170 
 7847      00
 7848              	.LASF194:
 7849 042d 64726177 		.ascii	"draw_transform\000"
 7849      5F747261 
 7849      6E73666F 
 7849      726D00
 7850              	.LASF79:
 7851 043c 73746F70 		.ascii	"stops_count\000"
 7851      735F636F 
 7851      756E7400 
 7852              	.LASF6:
 7853 0448 5F5F7569 		.ascii	"__uint16_t\000"
 7853      6E743136 
 7853      5F7400
 7854              	.LASF131:
 7855 0453 6F75746C 		.ascii	"outline_pad\000"
 7855      696E655F 
 7855      70616400 
 7856              	.LASF203:
 7857 045f 6C765F64 		.ascii	"lv_draw_ctx_t\000"
 7857      7261775F 
 7857      6374785F 
 7857      7400
 7858              	.LASF101:
 7859 046d 6C765F64 		.ascii	"lv_draw_mask_angle_param_t\000"
 7859      7261775F 
 7859      6D61736B 
 7859      5F616E67 
 7859      6C655F70 
ARM GAS  C:\Users\haske\AppData\Local\Temp\ccinSyc3.s 			page 156


 7860              	.LASF233:
 7861 0488 6D61736B 		.ascii	"mask_in_param_valid\000"
 7861      5F696E5F 
 7861      70617261 
 7861      6D5F7661 
 7861      6C696400 
 7862              	.LASF127:
 7863 049c 626F7264 		.ascii	"border_post\000"
 7863      65725F70 
 7863      6F737400 
 7864              	.LASF204:
 7865 04a8 63656E74 		.ascii	"center\000"
 7865      657200
 7866              	.LASF163:
 7867 04af 726F756E 		.ascii	"round_start\000"
 7867      645F7374 
 7867      61727400 
 7868              	.LASF62:
 7869 04bb 66616C6C 		.ascii	"fallback\000"
 7869      6261636B 
 7869      00
 7870              	.LASF245:
 7871 04c4 5F6C765F 		.ascii	"_lv_area_intersect\000"
 7871      61726561 
 7871      5F696E74 
 7871      65727365 
 7871      637400
 7872              	.LASF47:
 7873 04d7 6C765F61 		.ascii	"lv_area_t\000"
 7873      7265615F 
 7873      7400
 7874              	.LASF198:
 7875 04e1 6C617965 		.ascii	"layer_init\000"
 7875      725F696E 
 7875      697400
 7876              	.LASF243:
 7877 04ec 6D61736B 		.ascii	"mask_end_id\000"
 7877      5F656E64 
 7877      5F696400 
 7878              	.LASF164:
 7879 04f8 726F756E 		.ascii	"round_end\000"
 7879      645F656E 
 7879      6400
 7880              	.LASF167:
 7881 0502 696D675F 		.ascii	"img_src\000"
 7881      73726300 
 7882              	.LASF230:
 7883 050a 61726561 		.ascii	"area_in\000"
 7883      5F696E00 
 7884              	.LASF251:
 7885 0512 6C765F64 		.ascii	"lv_draw_rect_dsc_init\000"
 7885      7261775F 
 7885      72656374 
 7885      5F647363 
 7885      5F696E69 
 7886              	.LASF137:
 7887 0528 73686164 		.ascii	"shadow_spread\000"
ARM GAS  C:\Users\haske\AppData\Local\Temp\ccinSyc3.s 			page 157


 7887      6F775F73 
 7887      70726561 
 7887      6400
 7888              	.LASF102:
 7889 0536 6369725F 		.ascii	"cir_opa\000"
 7889      6F706100 
 7890              	.LASF92:
 7891 053e 73746565 		.ascii	"steep\000"
 7891      7000
 7892              	.LASF252:
 7893 0544 6C765F64 		.ascii	"lv_draw_mask_angle_init\000"
 7893      7261775F 
 7893      6D61736B 
 7893      5F616E67 
 7893      6C655F69 
 7894              	.LASF119:
 7895 055c 62675F69 		.ascii	"bg_img_symbol_font\000"
 7895      6D675F73 
 7895      796D626F 
 7895      6C5F666F 
 7895      6E7400
 7896              	.LASF11:
 7897 056f 6C6F6E67 		.ascii	"long unsigned int\000"
 7897      20756E73 
 7897      69676E65 
 7897      6420696E 
 7897      7400
 7898              	.LASF113:
 7899 0581 6C765F69 		.ascii	"lv_img_cf_t\000"
 7899      6D675F63 
 7899      665F7400 
 7900              	.LASF226:
 7901 058d 6369725F 		.ascii	"cir_x\000"
 7901      7800
 7902              	.LASF96:
 7903 0593 73746172 		.ascii	"start_angle\000"
 7903      745F616E 
 7903      676C6500 
 7904              	.LASF201:
 7905 059f 6C617965 		.ascii	"layer_destroy\000"
 7905      725F6465 
 7905      7374726F 
 7905      7900
 7906              	.LASF161:
 7907 05ad 64617368 		.ascii	"dash_width\000"
 7907      5F776964 
 7907      746800
 7908              	.LASF48:
 7909 05b8 7265736F 		.ascii	"resolved_font\000"
 7909      6C766564 
 7909      5F666F6E 
 7909      7400
 7910              	.LASF188:
 7911 05c6 64726177 		.ascii	"draw_arc\000"
 7911      5F617263 
 7911      00
 7912              	.LASF27:
ARM GAS  C:\Users\haske\AppData\Local\Temp\ccinSyc3.s 			page 158


 7913 05cf 4C565F4F 		.ascii	"LV_OPA_0\000"
 7913      50415F30 
 7913      00
 7914              	.LASF175:
 7915 05d8 6275665F 		.ascii	"buf_area\000"
 7915      61726561 
 7915      00
 7916              	.LASF155:
 7917 05e1 7265636F 		.ascii	"recolor\000"
 7917      6C6F7200 
 7918              	.LASF223:
 7919 05e9 7265735F 		.ascii	"res_area\000"
 7919      61726561 
 7919      00
 7920              	.LASF152:
 7921 05f2 616E676C 		.ascii	"angle\000"
 7921      6500
 7922              	.LASF189:
 7923 05f8 64726177 		.ascii	"draw_img_decoded\000"
 7923      5F696D67 
 7923      5F646563 
 7923      6F646564 
 7923      00
 7924              	.LASF210:
 7925 0609 71756172 		.ascii	"quarter_draw_dsc_t\000"
 7925      7465725F 
 7925      64726177 
 7925      5F647363 
 7925      5F7400
 7926              	.LASF177:
 7927 061c 5F6C765F 		.ascii	"_lv_font_t\000"
 7927      666F6E74 
 7927      5F7400
 7928              	.LASF235:
 7929 0627 6D61736B 		.ascii	"mask_out_id\000"
 7929      5F6F7574 
 7929      5F696400 
 7930              	.LASF10:
 7931 0633 5F5F7569 		.ascii	"__uint32_t\000"
 7931      6E743332 
 7931      5F7400
 7932              	.LASF95:
 7933 063e 76657274 		.ascii	"vertex_p\000"
 7933      65785F70 
 7933      00
 7934              	.LASF71:
 7935 0647 6C765F74 		.ascii	"lv_text_decor_t\000"
 7935      6578745F 
 7935      6465636F 
 7935      725F7400 
 7936              	.LASF12:
 7937 0657 6C6F6E67 		.ascii	"long long int\000"
 7937      206C6F6E 
 7937      6720696E 
 7937      7400
 7938              	.LASF206:
 7939 0665 656E645F 		.ascii	"end_quarter\000"
ARM GAS  C:\Users\haske\AppData\Local\Temp\ccinSyc3.s 			page 159


 7939      71756172 
 7939      74657200 
 7940              	.LASF133:
 7941 0671 73686164 		.ascii	"shadow_color\000"
 7941      6F775F63 
 7941      6F6C6F72 
 7941      00
 7942              	.LASF160:
 7943 067e 77696474 		.ascii	"width\000"
 7943      6800
 7944              	.LASF249:
 7945 0684 6C765F64 		.ascii	"lv_draw_mask_remove_id\000"
 7945      7261775F 
 7945      6D61736B 
 7945      5F72656D 
 7945      6F76655F 
 7946              	.LASF111:
 7947 069b 63697263 		.ascii	"circle\000"
 7947      6C6500
 7948              	.LASF196:
 7949 06a2 77616974 		.ascii	"wait_for_finish\000"
 7949      5F666F72 
 7949      5F66696E 
 7949      69736800 
 7950              	.LASF248:
 7951 06b2 6C765F64 		.ascii	"lv_draw_mask_add\000"
 7951      7261775F 
 7951      6D61736B 
 7951      5F616464 
 7951      00
 7952              	.LASF170:
 7953 06c3 4C565F44 		.ascii	"LV_DRAW_LAYER_FLAG_NONE\000"
 7953      5241575F 
 7953      4C415945 
 7953      525F464C 
 7953      41475F4E 
 7954              	.LASF68:
 7955 06db 6C765F74 		.ascii	"lv_text_align_t\000"
 7955      6578745F 
 7955      616C6967 
 7955      6E5F7400 
 7956              	.LASF61:
 7957 06eb 756E6465 		.ascii	"underline_thickness\000"
 7957      726C696E 
 7957      655F7468 
 7957      69636B6E 
 7957      65737300 
 7958              	.LASF148:
 7959 06ff 616C6967 		.ascii	"align\000"
 7959      6E00
 7960              	.LASF26:
 7961 0705 4C565F4F 		.ascii	"LV_OPA_TRANSP\000"
 7961      50415F54 
 7961      52414E53 
 7961      5000
 7962              	.LASF90:
 7963 0713 78795F73 		.ascii	"xy_steep\000"
ARM GAS  C:\Users\haske\AppData\Local\Temp\ccinSyc3.s 			page 160


 7963      74656570 
 7963      00
 7964              	.LASF89:
 7965 071c 6F726967 		.ascii	"origo\000"
 7965      6F00
 7966              	.LASF14:
 7967 0722 756E7369 		.ascii	"unsigned int\000"
 7967      676E6564 
 7967      20696E74 
 7967      00
 7968              	.LASF174:
 7969 072f 636C6970 		.ascii	"clip_area\000"
 7969      5F617265 
 7969      6100
 7970              	.LASF142:
 7971 0739 73656C5F 		.ascii	"sel_end\000"
 7971      656E6400 
 7972              	.LASF257:
 7973 0741 6C765F64 		.ascii	"lv_draw_sw_arc\000"
 7973      7261775F 
 7973      73775F61 
 7973      726300
 7974              	.LASF179:
 7975 0750 61726561 		.ascii	"area_full\000"
 7975      5F66756C 
 7975      6C00
 7976              	.LASF149:
 7977 075a 666C6167 		.ascii	"flag\000"
 7977      00
 7978              	.LASF178:
 7979 075f 5F6C765F 		.ascii	"_lv_draw_layer_ctx_t\000"
 7979      64726177 
 7979      5F6C6179 
 7979      65725F63 
 7979      74785F74 
 7980              	.LASF132:
 7981 0774 6F75746C 		.ascii	"outline_opa\000"
 7981      696E655F 
 7981      6F706100 
 7982              	.LASF93:
 7983 0780 666C6174 		.ascii	"flat\000"
 7983      00
 7984              	.LASF181:
 7985 0785 6D61785F 		.ascii	"max_row_with_alpha\000"
 7985      726F775F 
 7985      77697468 
 7985      5F616C70 
 7985      686100
 7986              	.LASF157:
 7987 0798 6672616D 		.ascii	"frame_id\000"
 7987      655F6964 
 7987      00
 7988              	.LASF156:
 7989 07a1 7265636F 		.ascii	"recolor_opa\000"
 7989      6C6F725F 
 7989      6F706100 
 7990              	.LASF232:
ARM GAS  C:\Users\haske\AppData\Local\Temp\ccinSyc3.s 			page 161


 7991 07ad 6D61736B 		.ascii	"mask_in_param\000"
 7991      5F696E5F 
 7991      70617261 
 7991      6D00
 7992              	.LASF64:
 7993 07bb 6C765F66 		.ascii	"lv_font_glyph_dsc_t\000"
 7993      6F6E745F 
 7993      676C7970 
 7993      685F6473 
 7993      635F7400 
 7994              	.LASF130:
 7995 07cf 6F75746C 		.ascii	"outline_width\000"
 7995      696E655F 
 7995      77696474 
 7995      6800
 7996              	.LASF85:
 7997 07dd 6C765F64 		.ascii	"lv_draw_mask_line_side_t\000"
 7997      7261775F 
 7997      6D61736B 
 7997      5F6C696E 
 7997      655F7369 
 7998              	.LASF158:
 7999 07f6 616E7469 		.ascii	"antialias\000"
 7999      616C6961 
 7999      7300
 8000              	.LASF37:
 8001 0800 4C565F4F 		.ascii	"LV_OPA_100\000"
 8001      50415F31 
 8001      303000
 8002              	.LASF109:
 8003 080b 72656374 		.ascii	"rect\000"
 8003      00
 8004              	.LASF215:
 8005 0810 636C6970 		.ascii	"clip_area_ori\000"
 8005      5F617265 
 8005      615F6F72 
 8005      6900
 8006              	.LASF21:
 8007 081e 6C765F72 		.ascii	"lv_res_t\000"
 8007      65735F74 
 8007      00
 8008              	.LASF23:
 8009 0827 6C6F6E67 		.ascii	"long double\000"
 8009      20646F75 
 8009      626C6500 
 8010              	.LASF74:
 8011 0833 6C765F64 		.ascii	"lv_dither_mode_t\000"
 8011      69746865 
 8011      725F6D6F 
 8011      64655F74 
 8011      00
 8012              	.LASF229:
 8013 0844 61726561 		.ascii	"area_out\000"
 8013      5F6F7574 
 8013      00
 8014              	.LASF59:
 8015 084d 73756270 		.ascii	"subpx\000"
ARM GAS  C:\Users\haske\AppData\Local\Temp\ccinSyc3.s 			page 162


 8015      7800
 8016              	.LASF38:
 8017 0853 4C565F4F 		.ascii	"LV_OPA_COVER\000"
 8017      50415F43 
 8017      4F564552 
 8017      00
 8018              	.LASF124:
 8019 0860 626F7264 		.ascii	"border_color\000"
 8019      65725F63 
 8019      6F6C6F72 
 8019      00
 8020              	.LASF122:
 8021 086d 62675F69 		.ascii	"bg_img_recolor_opa\000"
 8021      6D675F72 
 8021      65636F6C 
 8021      6F725F6F 
 8021      706100
 8022              	.LASF172:
 8023 0880 4C565F44 		.ascii	"LV_DRAW_LAYER_FLAG_CAN_SUBDIVIDE\000"
 8023      5241575F 
 8023      4C415945 
 8023      525F464C 
 8023      41475F43 
 8024              	.LASF246:
 8025 08a1 6C765F64 		.ascii	"lv_draw_rect\000"
 8025      7261775F 
 8025      72656374 
 8025      00
 8026              	.LASF0:
 8027 08ae 5F5F696E 		.ascii	"__int8_t\000"
 8027      74385F74 
 8027      00
 8028              	.LASF182:
 8029 08b7 6D61785F 		.ascii	"max_row_with_no_alpha\000"
 8029      726F775F 
 8029      77697468 
 8029      5F6E6F5F 
 8029      616C7068 
 8030              	.LASF13:
 8031 08cd 6C6F6E67 		.ascii	"long long unsigned int\000"
 8031      206C6F6E 
 8031      6720756E 
 8031      7369676E 
 8031      65642069 
 8032              	.LASF139:
 8033 08e4 6C765F64 		.ascii	"lv_draw_rect_dsc_t\000"
 8033      7261775F 
 8033      72656374 
 8033      5F647363 
 8033      5F7400
 8034              	.LASF18:
 8035 08f7 75696E74 		.ascii	"uint16_t\000"
 8035      31365F74 
 8035      00
 8036              	.LASF240:
 8037 0900 6D61736B 		.ascii	"mask_end_param\000"
 8037      5F656E64 
ARM GAS  C:\Users\haske\AppData\Local\Temp\ccinSyc3.s 			page 163


 8037      5F706172 
 8037      616D00
 8038              	.LASF43:
 8039 090f 6C765F63 		.ascii	"lv_color_t\000"
 8039      6F6C6F72 
 8039      5F7400
 8040              	.LASF84:
 8041 091a 6C765F64 		.ascii	"lv_draw_mask_xcb_t\000"
 8041      7261775F 
 8041      6D61736B 
 8041      5F786362 
 8041      5F7400
 8042              	.LASF191:
 8043 092d 64726177 		.ascii	"draw_letter\000"
 8043      5F6C6574 
 8043      74657200 
 8044              	.LASF225:
 8045 0939 74686963 		.ascii	"thick_corr\000"
 8045      6B5F636F 
 8045      727200
 8046              	.LASF214:
 8047 0944 6C765F61 		.ascii	"lv_area_get_height\000"
 8047      7265615F 
 8047      6765745F 
 8047      68656967 
 8047      687400
 8048              	.LASF125:
 8049 0957 626F7264 		.ascii	"border_width\000"
 8049      65725F77 
 8049      69647468 
 8049      00
 8050              	.LASF67:
 8051 0964 6C765F74 		.ascii	"lv_text_flag_t\000"
 8051      6578745F 
 8051      666C6167 
 8051      5F7400
 8052              	.LASF28:
 8053 0973 4C565F4F 		.ascii	"LV_OPA_10\000"
 8053      50415F31 
 8053      3000
 8054              	.LASF154:
 8055 097d 7069766F 		.ascii	"pivot\000"
 8055      7400
 8056              	.LASF241:
 8057 0983 726F756E 		.ascii	"round_area\000"
 8057      645F6172 
 8057      656100
 8058              	.LASF150:
 8059 098e 6465636F 		.ascii	"decor\000"
 8059      7200
 8060              	.LASF94:
 8061 0994 6C765F64 		.ascii	"lv_draw_mask_line_param_t\000"
 8061      7261775F 
 8061      6D61736B 
 8061      5F6C696E 
 8061      655F7061 
 8062              	.LASF4:
ARM GAS  C:\Users\haske\AppData\Local\Temp\ccinSyc3.s 			page 164


 8063 09ae 5F5F696E 		.ascii	"__int16_t\000"
 8063      7431365F 
 8063      7400
 8064              	.LASF199:
 8065 09b8 6C617965 		.ascii	"layer_adjust\000"
 8065      725F6164 
 8065      6A757374 
 8065      00
 8066              	.LASF212:
 8067 09c5 64657374 		.ascii	"dest\000"
 8067      00
 8068              	.LASF41:
 8069 09ca 66756C6C 		.ascii	"full\000"
 8069      00
 8070              	.LASF184:
 8071 09cf 6C765F64 		.ascii	"lv_draw_layer_ctx_t\000"
 8071      7261775F 
 8071      6C617965 
 8071      725F6374 
 8071      785F7400 
 8072              	.LASF29:
 8073 09e3 4C565F4F 		.ascii	"LV_OPA_20\000"
 8073      50415F32 
 8073      3000
 8074              	.LASF75:
 8075 09ed 636F6C6F 		.ascii	"color\000"
 8075      7200
 8076              	.LASF78:
 8077 09f3 73746F70 		.ascii	"stops\000"
 8077      7300
 8078              	.LASF145:
 8079 09f9 6C696E65 		.ascii	"line_space\000"
 8079      5F737061 
 8079      636500
 8080              	.LASF200:
 8081 0a04 6C617965 		.ascii	"layer_blend\000"
 8081      725F626C 
 8081      656E6400 
 8082              	.LASF247:
 8083 0a10 6C765F64 		.ascii	"lv_draw_mask_radius_init\000"
 8083      7261775F 
 8083      6D61736B 
 8083      5F726164 
 8083      6975735F 
 8084              	.LASF72:
 8085 0a29 6C765F62 		.ascii	"lv_border_side_t\000"
 8085      6F726465 
 8085      725F7369 
 8085      64655F74 
 8085      00
 8086              	.LASF76:
 8087 0a3a 66726163 		.ascii	"frac\000"
 8087      00
 8088              	.LASF140:
 8089 0a3f 666F6E74 		.ascii	"font\000"
 8089      00
 8090              	.LASF146:
ARM GAS  C:\Users\haske\AppData\Local\Temp\ccinSyc3.s 			page 165


 8091 0a44 6C657474 		.ascii	"letter_space\000"
 8091      65725F73 
 8091      70616365 
 8091      00
 8092              	.LASF30:
 8093 0a51 4C565F4F 		.ascii	"LV_OPA_30\000"
 8093      50415F33 
 8093      3000
 8094              	.LASF169:
 8095 0a5b 6C765F64 		.ascii	"lv_draw_arc_dsc_t\000"
 8095      7261775F 
 8095      6172635F 
 8095      6473635F 
 8095      7400
 8096              	.LASF104:
 8097 0a6d 6F70615F 		.ascii	"opa_start_on_y\000"
 8097      73746172 
 8097      745F6F6E 
 8097      5F7900
 8098              	.LASF51:
 8099 0a7c 626F785F 		.ascii	"box_h\000"
 8099      6800
 8100              	.LASF120:
 8101 0a82 62675F69 		.ascii	"bg_img_recolor\000"
 8101      6D675F72 
 8101      65636F6C 
 8101      6F7200
 8102              	.LASF234:
 8103 0a91 6D61736B 		.ascii	"mask_out_param\000"
 8103      5F6F7574 
 8103      5F706172 
 8103      616D00
 8104              	.LASF42:
 8105 0aa0 6C765F63 		.ascii	"lv_color16_t\000"
 8105      6F6C6F72 
 8105      31365F74 
 8105      00
 8106              	.LASF50:
 8107 0aad 626F785F 		.ascii	"box_w\000"
 8107      7700
 8108              	.LASF99:
 8109 0ab3 656E645F 		.ascii	"end_line\000"
 8109      6C696E65 
 8109      00
 8110              	.LASF5:
 8111 0abc 73686F72 		.ascii	"short int\000"
 8111      7420696E 
 8111      7400
 8112              	.LASF58:
 8113 0ac6 62617365 		.ascii	"base_line\000"
 8113      5F6C696E 
 8113      6500
 8114              	.LASF258:
 8115 0ad0 6C765F66 		.ascii	"lv_font_montserrat_14\000"
 8115      6F6E745F 
 8115      6D6F6E74 
 8115      73657272 
ARM GAS  C:\Users\haske\AppData\Local\Temp\ccinSyc3.s 			page 166


 8115      61745F31 
 8116              	.LASF121:
 8117 0ae6 62675F69 		.ascii	"bg_img_opa\000"
 8117      6D675F6F 
 8117      706100
 8118              	.LASF138:
 8119 0af1 73686164 		.ascii	"shadow_opa\000"
 8119      6F775F6F 
 8119      706100
 8120              	.LASF31:
 8121 0afc 4C565F4F 		.ascii	"LV_OPA_40\000"
 8121      50415F34 
 8121      3000
 8122              	.LASF17:
 8123 0b06 696E7431 		.ascii	"int16_t\000"
 8123      365F7400 
 8124              	.LASF237:
 8125 0b0e 6D61736B 		.ascii	"mask_angle_id\000"
 8125      5F616E67 
 8125      6C655F69 
 8125      6400
 8126              	.LASF168:
 8127 0b1c 726F756E 		.ascii	"rounded\000"
 8127      64656400 
 8128              	.LASF176:
 8129 0b24 73637265 		.ascii	"screen_transp\000"
 8129      656E5F74 
 8129      72616E73 
 8129      7000
 8130              	.LASF32:
 8131 0b32 4C565F4F 		.ascii	"LV_OPA_50\000"
 8131      50415F35 
 8131      3000
 8132              	.LASF213:
 8133 0b3c 6C765F61 		.ascii	"lv_area_get_width\000"
 8133      7265615F 
 8133      6765745F 
 8133      77696474 
 8133      6800
 8134              	.LASF255:
 8135 0b4e 433A5C50 		.ascii	"C:\\Projects\\PainDrain\\firmware\\PainDrain\\PainD"
 8135      726F6A65 
 8135      6374735C 
 8135      5061696E 
 8135      44726169 
 8136 0b7c 7261696E 		.ascii	"rain.cydsn\000"
 8136      2E637964 
 8136      736E00
 8137              	.LASF126:
 8138 0b87 626F7264 		.ascii	"border_opa\000"
 8138      65725F6F 
 8138      706100
 8139              	.LASF117:
 8140 0b92 62675F67 		.ascii	"bg_grad\000"
 8140      72616400 
 8141              	.LASF209:
 8142 0b9a 64726177 		.ascii	"draw_ctx\000"
ARM GAS  C:\Users\haske\AppData\Local\Temp\ccinSyc3.s 			page 167


 8142      5F637478 
 8142      00
 8143              	.LASF190:
 8144 0ba3 64726177 		.ascii	"draw_img\000"
 8144      5F696D67 
 8144      00
 8145              	.LASF77:
 8146 0bac 6C765F67 		.ascii	"lv_gradient_stop_t\000"
 8146      72616469 
 8146      656E745F 
 8146      73746F70 
 8146      5F7400
 8147              	.LASF33:
 8148 0bbf 4C565F4F 		.ascii	"LV_OPA_60\000"
 8148      50415F36 
 8148      3000
 8149              	.LASF193:
 8150 0bc9 64726177 		.ascii	"draw_polygon\000"
 8150      5F706F6C 
 8150      79676F6E 
 8150      00
 8151              	.LASF83:
 8152 0bd6 6C765F64 		.ascii	"lv_draw_mask_type_t\000"
 8152      7261775F 
 8152      6D61736B 
 8152      5F747970 
 8152      655F7400 
 8153              	.LASF141:
 8154 0bea 73656C5F 		.ascii	"sel_start\000"
 8154      73746172 
 8154      7400
 8155              	.LASF20:
 8156 0bf4 75696E74 		.ascii	"uint32_t\000"
 8156      33325F74 
 8156      00
 8157              	.LASF134:
 8158 0bfd 73686164 		.ascii	"shadow_width\000"
 8158      6F775F77 
 8158      69647468 
 8158      00
 8159              	.LASF40:
 8160 0c0a 67726565 		.ascii	"green\000"
 8160      6E00
 8161              	.LASF66:
 8162 0c10 6C765F66 		.ascii	"lv_font_t\000"
 8162      6F6E745F 
 8162      7400
 8163              	.LASF217:
 8164 0c1a 64726177 		.ascii	"draw_quarter_0\000"
 8164      5F717561 
 8164      72746572 
 8164      5F3000
 8165              	.LASF98:
 8166 0c29 73746172 		.ascii	"start_line\000"
 8166      745F6C69 
 8166      6E6500
 8167              	.LASF219:
ARM GAS  C:\Users\haske\AppData\Local\Temp\ccinSyc3.s 			page 168


 8168 0c34 64726177 		.ascii	"draw_quarter_2\000"
 8168      5F717561 
 8168      72746572 
 8168      5F3200
 8169              	.LASF220:
 8170 0c43 64726177 		.ascii	"draw_quarter_3\000"
 8170      5F717561 
 8170      72746572 
 8170      5F3300
 8171              	.LASF80:
 8172 0c52 64697468 		.ascii	"dither\000"
 8172      657200
 8173              	.LASF34:
 8174 0c59 4C565F4F 		.ascii	"LV_OPA_70\000"
 8174      50415F37 
 8174      3000
 8175              	.LASF7:
 8176 0c63 73686F72 		.ascii	"short unsigned int\000"
 8176      7420756E 
 8176      7369676E 
 8176      65642069 
 8176      6E7400
 8177              	.LASF236:
 8178 0c76 6D61736B 		.ascii	"mask_angle_param\000"
 8178      5F616E67 
 8178      6C655F70 
 8178      6172616D 
 8178      00
 8179              	.LASF221:
 8180 0c87 6765745F 		.ascii	"get_rounded_area\000"
 8180      726F756E 
 8180      6465645F 
 8180      61726561 
 8180      00
 8181              	.LASF45:
 8182 0c98 6C765F63 		.ascii	"lv_coord_t\000"
 8182      6F6F7264 
 8182      5F7400
 8183              	.LASF63:
 8184 0ca3 75736572 		.ascii	"user_data\000"
 8184      5F646174 
 8184      6100
 8185              	.LASF55:
 8186 0cad 6765745F 		.ascii	"get_glyph_dsc\000"
 8186      676C7970 
 8186      685F6473 
 8186      6300
 8187              	.LASF8:
 8188 0cbb 5F5F696E 		.ascii	"__int32_t\000"
 8188      7433325F 
 8188      7400
 8189              	.LASF73:
 8190 0cc5 6C765F67 		.ascii	"lv_grad_dir_t\000"
 8190      7261645F 
 8190      6469725F 
 8190      7400
 8191              	.LASF231:
ARM GAS  C:\Users\haske\AppData\Local\Temp\ccinSyc3.s 			page 169


 8192 0cd3 6D61736B 		.ascii	"mask_in_id\000"
 8192      5F696E5F 
 8192      696400
 8193              	.LASF250:
 8194 0cde 6C765F64 		.ascii	"lv_draw_mask_free_param\000"
 8194      7261775F 
 8194      6D61736B 
 8194      5F667265 
 8194      655F7061 
 8195              	.LASF35:
 8196 0cf6 4C565F4F 		.ascii	"LV_OPA_80\000"
 8196      50415F38 
 8196      3000
 8197              	.LASF88:
 8198 0d00 73696465 		.ascii	"side\000"
 8198      00
 8199              	.LASF106:
 8200 0d05 75736564 		.ascii	"used_cnt\000"
 8200      5F636E74 
 8200      00
 8201              	.LASF143:
 8202 0d0e 73656C5F 		.ascii	"sel_color\000"
 8202      636F6C6F 
 8202      7200
 8203              	.LASF87:
 8204 0d18 5F6C765F 		.ascii	"_lv_draw_mask_common_dsc_t\000"
 8204      64726177 
 8204      5F6D6173 
 8204      6B5F636F 
 8204      6D6D6F6E 
 8205              	.LASF135:
 8206 0d33 73686164 		.ascii	"shadow_ofs_x\000"
 8206      6F775F6F 
 8206      66735F78 
 8206      00
 8207              	.LASF136:
 8208 0d40 73686164 		.ascii	"shadow_ofs_y\000"
 8208      6F775F6F 
 8208      66735F79 
 8208      00
 8209              	.LASF81:
 8210 0d4d 6C765F67 		.ascii	"lv_grad_dsc_t\000"
 8210      7261645F 
 8210      6473635F 
 8210      7400
 8211              	.LASF227:
 8212 0d5b 6369725F 		.ascii	"cir_y\000"
 8212      7900
 8213              	.LASF54:
 8214 0d61 69735F70 		.ascii	"is_placeholder\000"
 8214      6C616365 
 8214      686F6C64 
 8214      657200
 8215              	.LASF36:
 8216 0d70 4C565F4F 		.ascii	"LV_OPA_90\000"
 8216      50415F39 
 8216      3000
ARM GAS  C:\Users\haske\AppData\Local\Temp\ccinSyc3.s 			page 170


 8217              		.ident	"GCC: (GNU Tools for ARM Embedded Processors) 5.4.1 20160609 (release) [ARM/embedded-5-bran
