ARM GAS  C:\Users\haske\AppData\Local\Temp\ccpU5ROU.s 			page 1


   1              		.syntax unified
   2              		.cpu cortex-m0plus
   3              		.fpu softvfp
   4              		.eabi_attribute 20, 1
   5              		.eabi_attribute 21, 1
   6              		.eabi_attribute 23, 3
   7              		.eabi_attribute 24, 1
   8              		.eabi_attribute 25, 1
   9              		.eabi_attribute 26, 1
  10              		.eabi_attribute 30, 1
  11              		.eabi_attribute 34, 0
  12              		.eabi_attribute 18, 4
  13              		.thumb
  14              		.syntax unified
  15              		.file	"lv_draw_sw_layer.c"
  16              		.text
  17              	.Ltext0:
  18              		.cfi_sections	.debug_frame
  19              		.global	__aeabi_idiv
  20              		.section	.text.lv_draw_sw_layer_create,"ax",%progbits
  21              		.align	2
  22              		.global	lv_draw_sw_layer_create
  23              		.code	16
  24              		.thumb_func
  25              		.type	lv_draw_sw_layer_create, %function
  26              	lv_draw_sw_layer_create:
  27              	.LFB159:
  28              		.file 1 "..\\..\\..\\arduinoLCD\\test\\Pain Drain\\libraries\\lvgl\\src\\draw\\sw\\lv_draw_sw_laye
   1:..\..\..\arduinoLCD\test\Pain Drain\libraries\lvgl\src\draw\sw/lv_draw_sw_layer.c **** /**
   2:..\..\..\arduinoLCD\test\Pain Drain\libraries\lvgl\src\draw\sw/lv_draw_sw_layer.c ****  * @file lv_draw_sw_layer.h
   3:..\..\..\arduinoLCD\test\Pain Drain\libraries\lvgl\src\draw\sw/lv_draw_sw_layer.c ****  *
   4:..\..\..\arduinoLCD\test\Pain Drain\libraries\lvgl\src\draw\sw/lv_draw_sw_layer.c ****  */
   5:..\..\..\arduinoLCD\test\Pain Drain\libraries\lvgl\src\draw\sw/lv_draw_sw_layer.c **** 
   6:..\..\..\arduinoLCD\test\Pain Drain\libraries\lvgl\src\draw\sw/lv_draw_sw_layer.c **** /*********************
   7:..\..\..\arduinoLCD\test\Pain Drain\libraries\lvgl\src\draw\sw/lv_draw_sw_layer.c ****  *      INCLUDES
   8:..\..\..\arduinoLCD\test\Pain Drain\libraries\lvgl\src\draw\sw/lv_draw_sw_layer.c ****  *********************/
   9:..\..\..\arduinoLCD\test\Pain Drain\libraries\lvgl\src\draw\sw/lv_draw_sw_layer.c **** #include "lv_draw_sw.h"
  10:..\..\..\arduinoLCD\test\Pain Drain\libraries\lvgl\src\draw\sw/lv_draw_sw_layer.c **** #include "../../hal/lv_hal_disp.h"
  11:..\..\..\arduinoLCD\test\Pain Drain\libraries\lvgl\src\draw\sw/lv_draw_sw_layer.c **** #include "../../misc/lv_area.h"
  12:..\..\..\arduinoLCD\test\Pain Drain\libraries\lvgl\src\draw\sw/lv_draw_sw_layer.c **** #include "../../core/lv_refr.h"
  13:..\..\..\arduinoLCD\test\Pain Drain\libraries\lvgl\src\draw\sw/lv_draw_sw_layer.c **** 
  14:..\..\..\arduinoLCD\test\Pain Drain\libraries\lvgl\src\draw\sw/lv_draw_sw_layer.c **** /*********************
  15:..\..\..\arduinoLCD\test\Pain Drain\libraries\lvgl\src\draw\sw/lv_draw_sw_layer.c ****  *      DEFINES
  16:..\..\..\arduinoLCD\test\Pain Drain\libraries\lvgl\src\draw\sw/lv_draw_sw_layer.c ****  *********************/
  17:..\..\..\arduinoLCD\test\Pain Drain\libraries\lvgl\src\draw\sw/lv_draw_sw_layer.c **** 
  18:..\..\..\arduinoLCD\test\Pain Drain\libraries\lvgl\src\draw\sw/lv_draw_sw_layer.c **** /**********************
  19:..\..\..\arduinoLCD\test\Pain Drain\libraries\lvgl\src\draw\sw/lv_draw_sw_layer.c ****  *      TYPEDEFS
  20:..\..\..\arduinoLCD\test\Pain Drain\libraries\lvgl\src\draw\sw/lv_draw_sw_layer.c ****  **********************/
  21:..\..\..\arduinoLCD\test\Pain Drain\libraries\lvgl\src\draw\sw/lv_draw_sw_layer.c **** 
  22:..\..\..\arduinoLCD\test\Pain Drain\libraries\lvgl\src\draw\sw/lv_draw_sw_layer.c **** /**********************
  23:..\..\..\arduinoLCD\test\Pain Drain\libraries\lvgl\src\draw\sw/lv_draw_sw_layer.c ****  *  STATIC PROTOTYPES
  24:..\..\..\arduinoLCD\test\Pain Drain\libraries\lvgl\src\draw\sw/lv_draw_sw_layer.c ****  **********************/
  25:..\..\..\arduinoLCD\test\Pain Drain\libraries\lvgl\src\draw\sw/lv_draw_sw_layer.c **** 
  26:..\..\..\arduinoLCD\test\Pain Drain\libraries\lvgl\src\draw\sw/lv_draw_sw_layer.c **** /**********************
  27:..\..\..\arduinoLCD\test\Pain Drain\libraries\lvgl\src\draw\sw/lv_draw_sw_layer.c ****  *  STATIC VARIABLES
  28:..\..\..\arduinoLCD\test\Pain Drain\libraries\lvgl\src\draw\sw/lv_draw_sw_layer.c ****  **********************/
  29:..\..\..\arduinoLCD\test\Pain Drain\libraries\lvgl\src\draw\sw/lv_draw_sw_layer.c **** 
ARM GAS  C:\Users\haske\AppData\Local\Temp\ccpU5ROU.s 			page 2


  30:..\..\..\arduinoLCD\test\Pain Drain\libraries\lvgl\src\draw\sw/lv_draw_sw_layer.c **** /**********************
  31:..\..\..\arduinoLCD\test\Pain Drain\libraries\lvgl\src\draw\sw/lv_draw_sw_layer.c ****  *  GLOBAL VARIABLES
  32:..\..\..\arduinoLCD\test\Pain Drain\libraries\lvgl\src\draw\sw/lv_draw_sw_layer.c ****  **********************/
  33:..\..\..\arduinoLCD\test\Pain Drain\libraries\lvgl\src\draw\sw/lv_draw_sw_layer.c **** 
  34:..\..\..\arduinoLCD\test\Pain Drain\libraries\lvgl\src\draw\sw/lv_draw_sw_layer.c **** /**********************
  35:..\..\..\arduinoLCD\test\Pain Drain\libraries\lvgl\src\draw\sw/lv_draw_sw_layer.c ****  *      MACROS
  36:..\..\..\arduinoLCD\test\Pain Drain\libraries\lvgl\src\draw\sw/lv_draw_sw_layer.c ****  **********************/
  37:..\..\..\arduinoLCD\test\Pain Drain\libraries\lvgl\src\draw\sw/lv_draw_sw_layer.c **** 
  38:..\..\..\arduinoLCD\test\Pain Drain\libraries\lvgl\src\draw\sw/lv_draw_sw_layer.c **** /**********************
  39:..\..\..\arduinoLCD\test\Pain Drain\libraries\lvgl\src\draw\sw/lv_draw_sw_layer.c ****  *   GLOBAL FUNCTIONS
  40:..\..\..\arduinoLCD\test\Pain Drain\libraries\lvgl\src\draw\sw/lv_draw_sw_layer.c ****  **********************/
  41:..\..\..\arduinoLCD\test\Pain Drain\libraries\lvgl\src\draw\sw/lv_draw_sw_layer.c **** 
  42:..\..\..\arduinoLCD\test\Pain Drain\libraries\lvgl\src\draw\sw/lv_draw_sw_layer.c **** 
  43:..\..\..\arduinoLCD\test\Pain Drain\libraries\lvgl\src\draw\sw/lv_draw_sw_layer.c **** struct _lv_draw_layer_ctx_t * lv_draw_sw_layer_create(struct _lv_draw_ctx_t * draw_ctx, lv_draw_lay
  44:..\..\..\arduinoLCD\test\Pain Drain\libraries\lvgl\src\draw\sw/lv_draw_sw_layer.c ****                                                       lv_draw_layer_flags_t flags)
  45:..\..\..\arduinoLCD\test\Pain Drain\libraries\lvgl\src\draw\sw/lv_draw_sw_layer.c **** {
  29              		.loc 1 45 0
  30              		.cfi_startproc
  31              		@ args = 0, pretend = 0, frame = 0
  32              		@ frame_needed = 0, uses_anonymous_args = 0
  33              	.LVL0:
  34 0000 F8B5     		push	{r3, r4, r5, r6, r7, lr}
  35              		.cfi_def_cfa_offset 24
  36              		.cfi_offset 3, -24
  37              		.cfi_offset 4, -20
  38              		.cfi_offset 5, -16
  39              		.cfi_offset 6, -12
  40              		.cfi_offset 7, -8
  41              		.cfi_offset 14, -4
  42 0002 0600     		movs	r6, r0
  43 0004 0C00     		movs	r4, r1
  46:..\..\..\arduinoLCD\test\Pain Drain\libraries\lvgl\src\draw\sw/lv_draw_sw_layer.c ****     if(LV_COLOR_SCREEN_TRANSP == 0 && (flags & LV_DRAW_LAYER_FLAG_HAS_ALPHA)) {
  44              		.loc 1 46 0
  45 0006 0125     		movs	r5, #1
  46 0008 1540     		ands	r5, r2
  47 000a 00D0     		beq	.LCB21
  48 000c 80E0     		b	.L7	@long jump
  49              	.LCB21:
  50              	.LVL1:
  47:..\..\..\arduinoLCD\test\Pain Drain\libraries\lvgl\src\draw\sw/lv_draw_sw_layer.c ****         LV_LOG_WARN("Rendering this widget needs LV_COLOR_SCREEN_TRANSP 1");
  48:..\..\..\arduinoLCD\test\Pain Drain\libraries\lvgl\src\draw\sw/lv_draw_sw_layer.c ****         return NULL;
  49:..\..\..\arduinoLCD\test\Pain Drain\libraries\lvgl\src\draw\sw/lv_draw_sw_layer.c ****     }
  50:..\..\..\arduinoLCD\test\Pain Drain\libraries\lvgl\src\draw\sw/lv_draw_sw_layer.c **** 
  51:..\..\..\arduinoLCD\test\Pain Drain\libraries\lvgl\src\draw\sw/lv_draw_sw_layer.c ****     lv_draw_sw_layer_ctx_t * layer_sw_ctx = (lv_draw_sw_layer_ctx_t *) layer_ctx;
  52:..\..\..\arduinoLCD\test\Pain Drain\libraries\lvgl\src\draw\sw/lv_draw_sw_layer.c ****     uint32_t px_size = flags & LV_DRAW_LAYER_FLAG_HAS_ALPHA ? LV_IMG_PX_SIZE_ALPHA_BYTE : sizeof(lv
  51              		.loc 1 52 0
  52 000e 01D0     		beq	.L8
  53 0010 0327     		movs	r7, #3
  54 0012 00E0     		b	.L3
  55              	.L8:
  56 0014 0227     		movs	r7, #2
  57              	.L3:
  58              	.LVL2:
  53:..\..\..\arduinoLCD\test\Pain Drain\libraries\lvgl\src\draw\sw/lv_draw_sw_layer.c ****     if(flags & LV_DRAW_LAYER_FLAG_CAN_SUBDIVIDE) {
  59              		.loc 1 53 0 discriminator 4
  60 0016 9307     		lsls	r3, r2, #30
  61 0018 47D5     		bpl	.L4
ARM GAS  C:\Users\haske\AppData\Local\Temp\ccpU5ROU.s 			page 3


  62              	.LBB10:
  54:..\..\..\arduinoLCD\test\Pain Drain\libraries\lvgl\src\draw\sw/lv_draw_sw_layer.c ****         layer_sw_ctx->buf_size_bytes = LV_LAYER_SIMPLE_BUF_SIZE;
  63              		.loc 1 54 0
  64 001a A36A     		ldr	r3, [r4, #40]
  65 001c DB0F     		lsrs	r3, r3, #31
  66 001e DB07     		lsls	r3, r3, #31
  67 0020 C022     		movs	r2, #192
  68              	.LVL3:
  69 0022 D201     		lsls	r2, r2, #7
  70 0024 1343     		orrs	r3, r2
  71 0026 A362     		str	r3, [r4, #40]
  55:..\..\..\arduinoLCD\test\Pain Drain\libraries\lvgl\src\draw\sw/lv_draw_sw_layer.c ****         uint32_t full_size = lv_area_get_size(&layer_sw_ctx->base_draw.area_full) * px_size;
  72              		.loc 1 55 0
  73 0028 2000     		movs	r0, r4
  74              	.LVL4:
  75 002a FFF7FEFF 		bl	lv_area_get_size
  76              	.LVL5:
  77 002e 7843     		muls	r0, r7
  78              	.LVL6:
  56:..\..\..\arduinoLCD\test\Pain Drain\libraries\lvgl\src\draw\sw/lv_draw_sw_layer.c ****         if(layer_sw_ctx->buf_size_bytes > full_size) layer_sw_ctx->buf_size_bytes = full_size;
  79              		.loc 1 56 0
  80 0030 A36A     		ldr	r3, [r4, #40]
  81 0032 5B00     		lsls	r3, r3, #1
  82 0034 5B08     		lsrs	r3, r3, #1
  83 0036 9842     		cmp	r0, r3
  84 0038 06D2     		bcs	.L5
  85              		.loc 1 56 0 is_stmt 0 discriminator 1
  86 003a 4000     		lsls	r0, r0, #1
  87              	.LVL7:
  88 003c 4008     		lsrs	r0, r0, #1
  89 003e A36A     		ldr	r3, [r4, #40]
  90 0040 DB0F     		lsrs	r3, r3, #31
  91 0042 DB07     		lsls	r3, r3, #31
  92 0044 1843     		orrs	r0, r3
  93 0046 A062     		str	r0, [r4, #40]
  94              	.L5:
  57:..\..\..\arduinoLCD\test\Pain Drain\libraries\lvgl\src\draw\sw/lv_draw_sw_layer.c ****         layer_sw_ctx->base_draw.buf = lv_mem_alloc(layer_sw_ctx->buf_size_bytes);
  95              		.loc 1 57 0 is_stmt 1
  96 0048 A36A     		ldr	r3, [r4, #40]
  97 004a 5800     		lsls	r0, r3, #1
  98 004c 4008     		lsrs	r0, r0, #1
  99 004e FFF7FEFF 		bl	lv_mem_alloc
 100              	.LVL8:
 101 0052 6061     		str	r0, [r4, #20]
  58:..\..\..\arduinoLCD\test\Pain Drain\libraries\lvgl\src\draw\sw/lv_draw_sw_layer.c ****         if(layer_sw_ctx->base_draw.buf == NULL) {
 102              		.loc 1 58 0
 103 0054 0028     		cmp	r0, #0
 104 0056 0BD1     		bne	.L6
  59:..\..\..\arduinoLCD\test\Pain Drain\libraries\lvgl\src\draw\sw/lv_draw_sw_layer.c ****             LV_LOG_WARN("Cannot allocate %"LV_PRIu32" bytes for layer buffer. Allocating %"LV_PRIu3
  60:..\..\..\arduinoLCD\test\Pain Drain\libraries\lvgl\src\draw\sw/lv_draw_sw_layer.c ****                         (uint32_t)layer_sw_ctx->buf_size_bytes, (uint32_t)LV_LAYER_SIMPLE_FALLBACK_
  61:..\..\..\arduinoLCD\test\Pain Drain\libraries\lvgl\src\draw\sw/lv_draw_sw_layer.c ****             layer_sw_ctx->buf_size_bytes = LV_LAYER_SIMPLE_FALLBACK_BUF_SIZE;
 105              		.loc 1 61 0
 106 0058 A36A     		ldr	r3, [r4, #40]
 107 005a DB0F     		lsrs	r3, r3, #31
 108 005c DB07     		lsls	r3, r3, #31
 109 005e C020     		movs	r0, #192
 110 0060 0001     		lsls	r0, r0, #4
ARM GAS  C:\Users\haske\AppData\Local\Temp\ccpU5ROU.s 			page 4


 111 0062 0343     		orrs	r3, r0
 112 0064 A362     		str	r3, [r4, #40]
  62:..\..\..\arduinoLCD\test\Pain Drain\libraries\lvgl\src\draw\sw/lv_draw_sw_layer.c ****             layer_sw_ctx->base_draw.buf = lv_mem_alloc(layer_sw_ctx->buf_size_bytes);
 113              		.loc 1 62 0
 114 0066 FFF7FEFF 		bl	lv_mem_alloc
 115              	.LVL9:
 116 006a 6061     		str	r0, [r4, #20]
  63:..\..\..\arduinoLCD\test\Pain Drain\libraries\lvgl\src\draw\sw/lv_draw_sw_layer.c ****             if(layer_sw_ctx->base_draw.buf == NULL) {
 117              		.loc 1 63 0
 118 006c 0028     		cmp	r0, #0
 119 006e 51D0     		beq	.L9
 120              	.L6:
  64:..\..\..\arduinoLCD\test\Pain Drain\libraries\lvgl\src\draw\sw/lv_draw_sw_layer.c ****                 return NULL;
  65:..\..\..\arduinoLCD\test\Pain Drain\libraries\lvgl\src\draw\sw/lv_draw_sw_layer.c ****             }
  66:..\..\..\arduinoLCD\test\Pain Drain\libraries\lvgl\src\draw\sw/lv_draw_sw_layer.c ****         }
  67:..\..\..\arduinoLCD\test\Pain Drain\libraries\lvgl\src\draw\sw/lv_draw_sw_layer.c ****         layer_sw_ctx->base_draw.area_act = layer_sw_ctx->base_draw.area_full;
 121              		.loc 1 67 0
 122 0070 2300     		movs	r3, r4
 123 0072 0833     		adds	r3, r3, #8
 124 0074 2200     		movs	r2, r4
 125 0076 03CA     		ldmia	r2!, {r0, r1}
 126 0078 03C3     		stmia	r3!, {r0, r1}
  68:..\..\..\arduinoLCD\test\Pain Drain\libraries\lvgl\src\draw\sw/lv_draw_sw_layer.c ****         layer_sw_ctx->base_draw.area_act.y2 = layer_sw_ctx->base_draw.area_full.y1;
 127              		.loc 1 68 0
 128 007a 0222     		movs	r2, #2
 129 007c A35E     		ldrsh	r3, [r4, r2]
 130 007e E381     		strh	r3, [r4, #14]
 131              	.LVL10:
 132              	.LBB11:
 133              	.LBB12:
 134              		.file 2 "c:\\projects\\paindrain\\arduinolcd\\test\\pain drain\\libraries\\lvgl\\src\\misc\\lv_are
   1:c:\projects\paindrain\arduinolcd\test\pain drain\libraries\lvgl\src\misc\lv_area.h **** /**
   2:c:\projects\paindrain\arduinolcd\test\pain drain\libraries\lvgl\src\misc\lv_area.h ****  * @file lv_area.h
   3:c:\projects\paindrain\arduinolcd\test\pain drain\libraries\lvgl\src\misc\lv_area.h ****  *
   4:c:\projects\paindrain\arduinolcd\test\pain drain\libraries\lvgl\src\misc\lv_area.h ****  */
   5:c:\projects\paindrain\arduinolcd\test\pain drain\libraries\lvgl\src\misc\lv_area.h **** 
   6:c:\projects\paindrain\arduinolcd\test\pain drain\libraries\lvgl\src\misc\lv_area.h **** #ifndef LV_AREA_H
   7:c:\projects\paindrain\arduinolcd\test\pain drain\libraries\lvgl\src\misc\lv_area.h **** #define LV_AREA_H
   8:c:\projects\paindrain\arduinolcd\test\pain drain\libraries\lvgl\src\misc\lv_area.h **** 
   9:c:\projects\paindrain\arduinolcd\test\pain drain\libraries\lvgl\src\misc\lv_area.h **** #ifdef __cplusplus
  10:c:\projects\paindrain\arduinolcd\test\pain drain\libraries\lvgl\src\misc\lv_area.h **** extern "C" {
  11:c:\projects\paindrain\arduinolcd\test\pain drain\libraries\lvgl\src\misc\lv_area.h **** #endif
  12:c:\projects\paindrain\arduinolcd\test\pain drain\libraries\lvgl\src\misc\lv_area.h **** 
  13:c:\projects\paindrain\arduinolcd\test\pain drain\libraries\lvgl\src\misc\lv_area.h **** /*********************
  14:c:\projects\paindrain\arduinolcd\test\pain drain\libraries\lvgl\src\misc\lv_area.h ****  *      INCLUDES
  15:c:\projects\paindrain\arduinolcd\test\pain drain\libraries\lvgl\src\misc\lv_area.h ****  *********************/
  16:c:\projects\paindrain\arduinolcd\test\pain drain\libraries\lvgl\src\misc\lv_area.h **** #include "../lv_conf_internal.h"
  17:c:\projects\paindrain\arduinolcd\test\pain drain\libraries\lvgl\src\misc\lv_area.h **** #include <stdbool.h>
  18:c:\projects\paindrain\arduinolcd\test\pain drain\libraries\lvgl\src\misc\lv_area.h **** #include <stdint.h>
  19:c:\projects\paindrain\arduinolcd\test\pain drain\libraries\lvgl\src\misc\lv_area.h **** 
  20:c:\projects\paindrain\arduinolcd\test\pain drain\libraries\lvgl\src\misc\lv_area.h **** /*********************
  21:c:\projects\paindrain\arduinolcd\test\pain drain\libraries\lvgl\src\misc\lv_area.h ****  *      DEFINES
  22:c:\projects\paindrain\arduinolcd\test\pain drain\libraries\lvgl\src\misc\lv_area.h ****  *********************/
  23:c:\projects\paindrain\arduinolcd\test\pain drain\libraries\lvgl\src\misc\lv_area.h **** 
  24:c:\projects\paindrain\arduinolcd\test\pain drain\libraries\lvgl\src\misc\lv_area.h **** #if LV_USE_LARGE_COORD
  25:c:\projects\paindrain\arduinolcd\test\pain drain\libraries\lvgl\src\misc\lv_area.h **** typedef int32_t lv_coord_t;
  26:c:\projects\paindrain\arduinolcd\test\pain drain\libraries\lvgl\src\misc\lv_area.h **** #else
ARM GAS  C:\Users\haske\AppData\Local\Temp\ccpU5ROU.s 			page 5


  27:c:\projects\paindrain\arduinolcd\test\pain drain\libraries\lvgl\src\misc\lv_area.h **** typedef int16_t lv_coord_t;
  28:c:\projects\paindrain\arduinolcd\test\pain drain\libraries\lvgl\src\misc\lv_area.h **** #endif
  29:c:\projects\paindrain\arduinolcd\test\pain drain\libraries\lvgl\src\misc\lv_area.h **** 
  30:c:\projects\paindrain\arduinolcd\test\pain drain\libraries\lvgl\src\misc\lv_area.h **** /**********************
  31:c:\projects\paindrain\arduinolcd\test\pain drain\libraries\lvgl\src\misc\lv_area.h ****  *      TYPEDEFS
  32:c:\projects\paindrain\arduinolcd\test\pain drain\libraries\lvgl\src\misc\lv_area.h ****  **********************/
  33:c:\projects\paindrain\arduinolcd\test\pain drain\libraries\lvgl\src\misc\lv_area.h **** 
  34:c:\projects\paindrain\arduinolcd\test\pain drain\libraries\lvgl\src\misc\lv_area.h **** /**
  35:c:\projects\paindrain\arduinolcd\test\pain drain\libraries\lvgl\src\misc\lv_area.h ****  * Represents a point on the screen.
  36:c:\projects\paindrain\arduinolcd\test\pain drain\libraries\lvgl\src\misc\lv_area.h ****  */
  37:c:\projects\paindrain\arduinolcd\test\pain drain\libraries\lvgl\src\misc\lv_area.h **** typedef struct {
  38:c:\projects\paindrain\arduinolcd\test\pain drain\libraries\lvgl\src\misc\lv_area.h ****     lv_coord_t x;
  39:c:\projects\paindrain\arduinolcd\test\pain drain\libraries\lvgl\src\misc\lv_area.h ****     lv_coord_t y;
  40:c:\projects\paindrain\arduinolcd\test\pain drain\libraries\lvgl\src\misc\lv_area.h **** } lv_point_t;
  41:c:\projects\paindrain\arduinolcd\test\pain drain\libraries\lvgl\src\misc\lv_area.h **** 
  42:c:\projects\paindrain\arduinolcd\test\pain drain\libraries\lvgl\src\misc\lv_area.h **** /** Represents an area of the screen.*/
  43:c:\projects\paindrain\arduinolcd\test\pain drain\libraries\lvgl\src\misc\lv_area.h **** typedef struct {
  44:c:\projects\paindrain\arduinolcd\test\pain drain\libraries\lvgl\src\misc\lv_area.h ****     lv_coord_t x1;
  45:c:\projects\paindrain\arduinolcd\test\pain drain\libraries\lvgl\src\misc\lv_area.h ****     lv_coord_t y1;
  46:c:\projects\paindrain\arduinolcd\test\pain drain\libraries\lvgl\src\misc\lv_area.h ****     lv_coord_t x2;
  47:c:\projects\paindrain\arduinolcd\test\pain drain\libraries\lvgl\src\misc\lv_area.h ****     lv_coord_t y2;
  48:c:\projects\paindrain\arduinolcd\test\pain drain\libraries\lvgl\src\misc\lv_area.h **** } lv_area_t;
  49:c:\projects\paindrain\arduinolcd\test\pain drain\libraries\lvgl\src\misc\lv_area.h **** 
  50:c:\projects\paindrain\arduinolcd\test\pain drain\libraries\lvgl\src\misc\lv_area.h **** /** Alignments*/
  51:c:\projects\paindrain\arduinolcd\test\pain drain\libraries\lvgl\src\misc\lv_area.h **** enum {
  52:c:\projects\paindrain\arduinolcd\test\pain drain\libraries\lvgl\src\misc\lv_area.h ****     LV_ALIGN_DEFAULT = 0,
  53:c:\projects\paindrain\arduinolcd\test\pain drain\libraries\lvgl\src\misc\lv_area.h ****     LV_ALIGN_TOP_LEFT,
  54:c:\projects\paindrain\arduinolcd\test\pain drain\libraries\lvgl\src\misc\lv_area.h ****     LV_ALIGN_TOP_MID,
  55:c:\projects\paindrain\arduinolcd\test\pain drain\libraries\lvgl\src\misc\lv_area.h ****     LV_ALIGN_TOP_RIGHT,
  56:c:\projects\paindrain\arduinolcd\test\pain drain\libraries\lvgl\src\misc\lv_area.h ****     LV_ALIGN_BOTTOM_LEFT,
  57:c:\projects\paindrain\arduinolcd\test\pain drain\libraries\lvgl\src\misc\lv_area.h ****     LV_ALIGN_BOTTOM_MID,
  58:c:\projects\paindrain\arduinolcd\test\pain drain\libraries\lvgl\src\misc\lv_area.h ****     LV_ALIGN_BOTTOM_RIGHT,
  59:c:\projects\paindrain\arduinolcd\test\pain drain\libraries\lvgl\src\misc\lv_area.h ****     LV_ALIGN_LEFT_MID,
  60:c:\projects\paindrain\arduinolcd\test\pain drain\libraries\lvgl\src\misc\lv_area.h ****     LV_ALIGN_RIGHT_MID,
  61:c:\projects\paindrain\arduinolcd\test\pain drain\libraries\lvgl\src\misc\lv_area.h ****     LV_ALIGN_CENTER,
  62:c:\projects\paindrain\arduinolcd\test\pain drain\libraries\lvgl\src\misc\lv_area.h **** 
  63:c:\projects\paindrain\arduinolcd\test\pain drain\libraries\lvgl\src\misc\lv_area.h ****     LV_ALIGN_OUT_TOP_LEFT,
  64:c:\projects\paindrain\arduinolcd\test\pain drain\libraries\lvgl\src\misc\lv_area.h ****     LV_ALIGN_OUT_TOP_MID,
  65:c:\projects\paindrain\arduinolcd\test\pain drain\libraries\lvgl\src\misc\lv_area.h ****     LV_ALIGN_OUT_TOP_RIGHT,
  66:c:\projects\paindrain\arduinolcd\test\pain drain\libraries\lvgl\src\misc\lv_area.h ****     LV_ALIGN_OUT_BOTTOM_LEFT,
  67:c:\projects\paindrain\arduinolcd\test\pain drain\libraries\lvgl\src\misc\lv_area.h ****     LV_ALIGN_OUT_BOTTOM_MID,
  68:c:\projects\paindrain\arduinolcd\test\pain drain\libraries\lvgl\src\misc\lv_area.h ****     LV_ALIGN_OUT_BOTTOM_RIGHT,
  69:c:\projects\paindrain\arduinolcd\test\pain drain\libraries\lvgl\src\misc\lv_area.h ****     LV_ALIGN_OUT_LEFT_TOP,
  70:c:\projects\paindrain\arduinolcd\test\pain drain\libraries\lvgl\src\misc\lv_area.h ****     LV_ALIGN_OUT_LEFT_MID,
  71:c:\projects\paindrain\arduinolcd\test\pain drain\libraries\lvgl\src\misc\lv_area.h ****     LV_ALIGN_OUT_LEFT_BOTTOM,
  72:c:\projects\paindrain\arduinolcd\test\pain drain\libraries\lvgl\src\misc\lv_area.h ****     LV_ALIGN_OUT_RIGHT_TOP,
  73:c:\projects\paindrain\arduinolcd\test\pain drain\libraries\lvgl\src\misc\lv_area.h ****     LV_ALIGN_OUT_RIGHT_MID,
  74:c:\projects\paindrain\arduinolcd\test\pain drain\libraries\lvgl\src\misc\lv_area.h ****     LV_ALIGN_OUT_RIGHT_BOTTOM,
  75:c:\projects\paindrain\arduinolcd\test\pain drain\libraries\lvgl\src\misc\lv_area.h **** };
  76:c:\projects\paindrain\arduinolcd\test\pain drain\libraries\lvgl\src\misc\lv_area.h **** typedef uint8_t lv_align_t;
  77:c:\projects\paindrain\arduinolcd\test\pain drain\libraries\lvgl\src\misc\lv_area.h **** 
  78:c:\projects\paindrain\arduinolcd\test\pain drain\libraries\lvgl\src\misc\lv_area.h **** enum {
  79:c:\projects\paindrain\arduinolcd\test\pain drain\libraries\lvgl\src\misc\lv_area.h ****     LV_DIR_NONE     = 0x00,
  80:c:\projects\paindrain\arduinolcd\test\pain drain\libraries\lvgl\src\misc\lv_area.h ****     LV_DIR_LEFT     = (1 << 0),
  81:c:\projects\paindrain\arduinolcd\test\pain drain\libraries\lvgl\src\misc\lv_area.h ****     LV_DIR_RIGHT    = (1 << 1),
  82:c:\projects\paindrain\arduinolcd\test\pain drain\libraries\lvgl\src\misc\lv_area.h ****     LV_DIR_TOP      = (1 << 2),
  83:c:\projects\paindrain\arduinolcd\test\pain drain\libraries\lvgl\src\misc\lv_area.h ****     LV_DIR_BOTTOM   = (1 << 3),
ARM GAS  C:\Users\haske\AppData\Local\Temp\ccpU5ROU.s 			page 6


  84:c:\projects\paindrain\arduinolcd\test\pain drain\libraries\lvgl\src\misc\lv_area.h ****     LV_DIR_HOR      = LV_DIR_LEFT | LV_DIR_RIGHT,
  85:c:\projects\paindrain\arduinolcd\test\pain drain\libraries\lvgl\src\misc\lv_area.h ****     LV_DIR_VER      = LV_DIR_TOP | LV_DIR_BOTTOM,
  86:c:\projects\paindrain\arduinolcd\test\pain drain\libraries\lvgl\src\misc\lv_area.h ****     LV_DIR_ALL      = LV_DIR_HOR | LV_DIR_VER,
  87:c:\projects\paindrain\arduinolcd\test\pain drain\libraries\lvgl\src\misc\lv_area.h **** };
  88:c:\projects\paindrain\arduinolcd\test\pain drain\libraries\lvgl\src\misc\lv_area.h **** 
  89:c:\projects\paindrain\arduinolcd\test\pain drain\libraries\lvgl\src\misc\lv_area.h **** typedef uint8_t lv_dir_t;
  90:c:\projects\paindrain\arduinolcd\test\pain drain\libraries\lvgl\src\misc\lv_area.h **** 
  91:c:\projects\paindrain\arduinolcd\test\pain drain\libraries\lvgl\src\misc\lv_area.h **** /**********************
  92:c:\projects\paindrain\arduinolcd\test\pain drain\libraries\lvgl\src\misc\lv_area.h ****  * GLOBAL PROTOTYPES
  93:c:\projects\paindrain\arduinolcd\test\pain drain\libraries\lvgl\src\misc\lv_area.h ****  **********************/
  94:c:\projects\paindrain\arduinolcd\test\pain drain\libraries\lvgl\src\misc\lv_area.h **** 
  95:c:\projects\paindrain\arduinolcd\test\pain drain\libraries\lvgl\src\misc\lv_area.h **** /**
  96:c:\projects\paindrain\arduinolcd\test\pain drain\libraries\lvgl\src\misc\lv_area.h ****  * Initialize an area
  97:c:\projects\paindrain\arduinolcd\test\pain drain\libraries\lvgl\src\misc\lv_area.h ****  * @param area_p pointer to an area
  98:c:\projects\paindrain\arduinolcd\test\pain drain\libraries\lvgl\src\misc\lv_area.h ****  * @param x1 left coordinate of the area
  99:c:\projects\paindrain\arduinolcd\test\pain drain\libraries\lvgl\src\misc\lv_area.h ****  * @param y1 top coordinate of the area
 100:c:\projects\paindrain\arduinolcd\test\pain drain\libraries\lvgl\src\misc\lv_area.h ****  * @param x2 right coordinate of the area
 101:c:\projects\paindrain\arduinolcd\test\pain drain\libraries\lvgl\src\misc\lv_area.h ****  * @param y2 bottom coordinate of the area
 102:c:\projects\paindrain\arduinolcd\test\pain drain\libraries\lvgl\src\misc\lv_area.h ****  */
 103:c:\projects\paindrain\arduinolcd\test\pain drain\libraries\lvgl\src\misc\lv_area.h **** void lv_area_set(lv_area_t * area_p, lv_coord_t x1, lv_coord_t y1, lv_coord_t x2, lv_coord_t y2);
 104:c:\projects\paindrain\arduinolcd\test\pain drain\libraries\lvgl\src\misc\lv_area.h **** 
 105:c:\projects\paindrain\arduinolcd\test\pain drain\libraries\lvgl\src\misc\lv_area.h **** /**
 106:c:\projects\paindrain\arduinolcd\test\pain drain\libraries\lvgl\src\misc\lv_area.h ****  * Copy an area
 107:c:\projects\paindrain\arduinolcd\test\pain drain\libraries\lvgl\src\misc\lv_area.h ****  * @param dest pointer to the destination area
 108:c:\projects\paindrain\arduinolcd\test\pain drain\libraries\lvgl\src\misc\lv_area.h ****  * @param src pointer to the source area
 109:c:\projects\paindrain\arduinolcd\test\pain drain\libraries\lvgl\src\misc\lv_area.h ****  */
 110:c:\projects\paindrain\arduinolcd\test\pain drain\libraries\lvgl\src\misc\lv_area.h **** inline static void lv_area_copy(lv_area_t * dest, const lv_area_t * src)
 111:c:\projects\paindrain\arduinolcd\test\pain drain\libraries\lvgl\src\misc\lv_area.h **** {
 112:c:\projects\paindrain\arduinolcd\test\pain drain\libraries\lvgl\src\misc\lv_area.h ****     dest->x1 = src->x1;
 113:c:\projects\paindrain\arduinolcd\test\pain drain\libraries\lvgl\src\misc\lv_area.h ****     dest->y1 = src->y1;
 114:c:\projects\paindrain\arduinolcd\test\pain drain\libraries\lvgl\src\misc\lv_area.h ****     dest->x2 = src->x2;
 115:c:\projects\paindrain\arduinolcd\test\pain drain\libraries\lvgl\src\misc\lv_area.h ****     dest->y2 = src->y2;
 116:c:\projects\paindrain\arduinolcd\test\pain drain\libraries\lvgl\src\misc\lv_area.h **** }
 117:c:\projects\paindrain\arduinolcd\test\pain drain\libraries\lvgl\src\misc\lv_area.h **** 
 118:c:\projects\paindrain\arduinolcd\test\pain drain\libraries\lvgl\src\misc\lv_area.h **** /**
 119:c:\projects\paindrain\arduinolcd\test\pain drain\libraries\lvgl\src\misc\lv_area.h ****  * Get the width of an area
 120:c:\projects\paindrain\arduinolcd\test\pain drain\libraries\lvgl\src\misc\lv_area.h ****  * @param area_p pointer to an area
 121:c:\projects\paindrain\arduinolcd\test\pain drain\libraries\lvgl\src\misc\lv_area.h ****  * @return the width of the area (if x1 == x2 -> width = 1)
 122:c:\projects\paindrain\arduinolcd\test\pain drain\libraries\lvgl\src\misc\lv_area.h ****  */
 123:c:\projects\paindrain\arduinolcd\test\pain drain\libraries\lvgl\src\misc\lv_area.h **** static inline lv_coord_t lv_area_get_width(const lv_area_t * area_p)
 124:c:\projects\paindrain\arduinolcd\test\pain drain\libraries\lvgl\src\misc\lv_area.h **** {
 125:c:\projects\paindrain\arduinolcd\test\pain drain\libraries\lvgl\src\misc\lv_area.h ****     return (lv_coord_t)(area_p->x2 - area_p->x1 + 1);
 135              		.loc 2 125 0
 136 0080 0C22     		movs	r2, #12
 137 0082 A35E     		ldrsh	r3, [r4, r2]
 138 0084 0822     		movs	r2, #8
 139 0086 A15E     		ldrsh	r1, [r4, r2]
 140 0088 591A     		subs	r1, r3, r1
 141 008a 0131     		adds	r1, r1, #1
 142 008c 09B2     		sxth	r1, r1
 143              	.LVL11:
 144              	.LBE12:
 145              	.LBE11:
  69:..\..\..\arduinoLCD\test\Pain Drain\libraries\lvgl\src\draw\sw/lv_draw_sw_layer.c ****         lv_coord_t w = lv_area_get_width(&layer_sw_ctx->base_draw.area_act);
  70:..\..\..\arduinoLCD\test\Pain Drain\libraries\lvgl\src\draw\sw/lv_draw_sw_layer.c ****         layer_sw_ctx->base_draw.max_row_with_alpha = layer_sw_ctx->buf_size_bytes / w / LV_IMG_PX_S
 146              		.loc 1 70 0
 147 008e A36A     		ldr	r3, [r4, #40]
ARM GAS  C:\Users\haske\AppData\Local\Temp\ccpU5ROU.s 			page 7


 148 0090 5800     		lsls	r0, r3, #1
 149 0092 4008     		lsrs	r0, r0, #1
 150 0094 FFF7FEFF 		bl	__aeabi_idiv
 151              	.LVL12:
 152 0098 0500     		movs	r5, r0
 153 009a 0321     		movs	r1, #3
 154 009c FFF7FEFF 		bl	__aeabi_idiv
 155              	.LVL13:
 156 00a0 2082     		strh	r0, [r4, #16]
  71:..\..\..\arduinoLCD\test\Pain Drain\libraries\lvgl\src\draw\sw/lv_draw_sw_layer.c ****         layer_sw_ctx->base_draw.max_row_with_no_alpha = layer_sw_ctx->buf_size_bytes / w / sizeof(l
 157              		.loc 1 71 0
 158 00a2 6D08     		lsrs	r5, r5, #1
 159 00a4 6582     		strh	r5, [r4, #18]
 160              	.LBE10:
  72:..\..\..\arduinoLCD\test\Pain Drain\libraries\lvgl\src\draw\sw/lv_draw_sw_layer.c ****     }
  73:..\..\..\arduinoLCD\test\Pain Drain\libraries\lvgl\src\draw\sw/lv_draw_sw_layer.c ****     else {
  74:..\..\..\arduinoLCD\test\Pain Drain\libraries\lvgl\src\draw\sw/lv_draw_sw_layer.c ****         layer_sw_ctx->base_draw.area_act = layer_sw_ctx->base_draw.area_full;
  75:..\..\..\arduinoLCD\test\Pain Drain\libraries\lvgl\src\draw\sw/lv_draw_sw_layer.c ****         layer_sw_ctx->buf_size_bytes = lv_area_get_size(&layer_sw_ctx->base_draw.area_full) * px_si
  76:..\..\..\arduinoLCD\test\Pain Drain\libraries\lvgl\src\draw\sw/lv_draw_sw_layer.c ****         layer_sw_ctx->base_draw.buf = lv_mem_alloc(layer_sw_ctx->buf_size_bytes);
  77:..\..\..\arduinoLCD\test\Pain Drain\libraries\lvgl\src\draw\sw/lv_draw_sw_layer.c ****         lv_memset_00(layer_sw_ctx->base_draw.buf, layer_sw_ctx->buf_size_bytes);
  78:..\..\..\arduinoLCD\test\Pain Drain\libraries\lvgl\src\draw\sw/lv_draw_sw_layer.c ****         layer_sw_ctx->has_alpha = flags & LV_DRAW_LAYER_FLAG_HAS_ALPHA ? 1 : 0;
  79:..\..\..\arduinoLCD\test\Pain Drain\libraries\lvgl\src\draw\sw/lv_draw_sw_layer.c ****         if(layer_sw_ctx->base_draw.buf == NULL) {
  80:..\..\..\arduinoLCD\test\Pain Drain\libraries\lvgl\src\draw\sw/lv_draw_sw_layer.c ****             return NULL;
  81:..\..\..\arduinoLCD\test\Pain Drain\libraries\lvgl\src\draw\sw/lv_draw_sw_layer.c ****         }
  82:..\..\..\arduinoLCD\test\Pain Drain\libraries\lvgl\src\draw\sw/lv_draw_sw_layer.c **** 
  83:..\..\..\arduinoLCD\test\Pain Drain\libraries\lvgl\src\draw\sw/lv_draw_sw_layer.c ****         draw_ctx->buf = layer_sw_ctx->base_draw.buf;
  84:..\..\..\arduinoLCD\test\Pain Drain\libraries\lvgl\src\draw\sw/lv_draw_sw_layer.c ****         draw_ctx->buf_area = &layer_sw_ctx->base_draw.area_act;
  85:..\..\..\arduinoLCD\test\Pain Drain\libraries\lvgl\src\draw\sw/lv_draw_sw_layer.c ****         draw_ctx->clip_area = &layer_sw_ctx->base_draw.area_act;
  86:..\..\..\arduinoLCD\test\Pain Drain\libraries\lvgl\src\draw\sw/lv_draw_sw_layer.c **** 
  87:..\..\..\arduinoLCD\test\Pain Drain\libraries\lvgl\src\draw\sw/lv_draw_sw_layer.c ****         lv_disp_t * disp_refr = _lv_refr_get_disp_refreshing();
  88:..\..\..\arduinoLCD\test\Pain Drain\libraries\lvgl\src\draw\sw/lv_draw_sw_layer.c ****         disp_refr->driver->screen_transp = flags & LV_DRAW_LAYER_FLAG_HAS_ALPHA ? 1 : 0;
  89:..\..\..\arduinoLCD\test\Pain Drain\libraries\lvgl\src\draw\sw/lv_draw_sw_layer.c ****     }
  90:..\..\..\arduinoLCD\test\Pain Drain\libraries\lvgl\src\draw\sw/lv_draw_sw_layer.c **** 
  91:..\..\..\arduinoLCD\test\Pain Drain\libraries\lvgl\src\draw\sw/lv_draw_sw_layer.c ****     return layer_ctx;
 161              		.loc 1 91 0
 162 00a6 2000     		movs	r0, r4
 163 00a8 37E0     		b	.L2
 164              	.LVL14:
 165              	.L4:
 166              	.LBB13:
  74:..\..\..\arduinoLCD\test\Pain Drain\libraries\lvgl\src\draw\sw/lv_draw_sw_layer.c ****         layer_sw_ctx->buf_size_bytes = lv_area_get_size(&layer_sw_ctx->base_draw.area_full) * px_si
 167              		.loc 1 74 0
 168 00aa 2300     		movs	r3, r4
 169 00ac 0833     		adds	r3, r3, #8
 170 00ae 2200     		movs	r2, r4
 171              	.LVL15:
 172 00b0 03CA     		ldmia	r2!, {r0, r1}
 173 00b2 03C3     		stmia	r3!, {r0, r1}
 174              	.LVL16:
  75:..\..\..\arduinoLCD\test\Pain Drain\libraries\lvgl\src\draw\sw/lv_draw_sw_layer.c ****         layer_sw_ctx->base_draw.buf = lv_mem_alloc(layer_sw_ctx->buf_size_bytes);
 175              		.loc 1 75 0
 176 00b4 2000     		movs	r0, r4
 177 00b6 FFF7FEFF 		bl	lv_area_get_size
 178              	.LVL17:
 179 00ba 7843     		muls	r0, r7
 180 00bc 4000     		lsls	r0, r0, #1
 181 00be 4008     		lsrs	r0, r0, #1
ARM GAS  C:\Users\haske\AppData\Local\Temp\ccpU5ROU.s 			page 8


 182 00c0 A36A     		ldr	r3, [r4, #40]
 183 00c2 DB0F     		lsrs	r3, r3, #31
 184 00c4 DB07     		lsls	r3, r3, #31
 185 00c6 0343     		orrs	r3, r0
 186 00c8 A362     		str	r3, [r4, #40]
  76:..\..\..\arduinoLCD\test\Pain Drain\libraries\lvgl\src\draw\sw/lv_draw_sw_layer.c ****         lv_memset_00(layer_sw_ctx->base_draw.buf, layer_sw_ctx->buf_size_bytes);
 187              		.loc 1 76 0
 188 00ca FFF7FEFF 		bl	lv_mem_alloc
 189              	.LVL18:
 190 00ce 6061     		str	r0, [r4, #20]
  77:..\..\..\arduinoLCD\test\Pain Drain\libraries\lvgl\src\draw\sw/lv_draw_sw_layer.c ****         layer_sw_ctx->has_alpha = flags & LV_DRAW_LAYER_FLAG_HAS_ALPHA ? 1 : 0;
 191              		.loc 1 77 0
 192 00d0 A36A     		ldr	r3, [r4, #40]
 193 00d2 5900     		lsls	r1, r3, #1
 194 00d4 4908     		lsrs	r1, r1, #1
 195 00d6 FFF7FEFF 		bl	lv_memset_00
 196              	.LVL19:
  78:..\..\..\arduinoLCD\test\Pain Drain\libraries\lvgl\src\draw\sw/lv_draw_sw_layer.c ****         if(layer_sw_ctx->base_draw.buf == NULL) {
 197              		.loc 1 78 0
 198 00da 2300     		movs	r3, r4
 199 00dc 2833     		adds	r3, r3, #40
 200 00de E901     		lsls	r1, r5, #7
 201 00e0 DA78     		ldrb	r2, [r3, #3]
 202 00e2 7F20     		movs	r0, #127
 203 00e4 0240     		ands	r2, r0
 204 00e6 0A43     		orrs	r2, r1
 205 00e8 DA70     		strb	r2, [r3, #3]
  79:..\..\..\arduinoLCD\test\Pain Drain\libraries\lvgl\src\draw\sw/lv_draw_sw_layer.c ****             return NULL;
 206              		.loc 1 79 0
 207 00ea 6369     		ldr	r3, [r4, #20]
 208 00ec 002B     		cmp	r3, #0
 209 00ee 13D0     		beq	.L10
  83:..\..\..\arduinoLCD\test\Pain Drain\libraries\lvgl\src\draw\sw/lv_draw_sw_layer.c ****         draw_ctx->buf_area = &layer_sw_ctx->base_draw.area_act;
 210              		.loc 1 83 0
 211 00f0 3360     		str	r3, [r6]
  84:..\..\..\arduinoLCD\test\Pain Drain\libraries\lvgl\src\draw\sw/lv_draw_sw_layer.c ****         draw_ctx->clip_area = &layer_sw_ctx->base_draw.area_act;
 212              		.loc 1 84 0
 213 00f2 2300     		movs	r3, r4
 214 00f4 0833     		adds	r3, r3, #8
 215 00f6 7360     		str	r3, [r6, #4]
  85:..\..\..\arduinoLCD\test\Pain Drain\libraries\lvgl\src\draw\sw/lv_draw_sw_layer.c **** 
 216              		.loc 1 85 0
 217 00f8 B360     		str	r3, [r6, #8]
  87:..\..\..\arduinoLCD\test\Pain Drain\libraries\lvgl\src\draw\sw/lv_draw_sw_layer.c ****         disp_refr->driver->screen_transp = flags & LV_DRAW_LAYER_FLAG_HAS_ALPHA ? 1 : 0;
 218              		.loc 1 87 0
 219 00fa FFF7FEFF 		bl	_lv_refr_get_disp_refreshing
 220              	.LVL20:
  88:..\..\..\arduinoLCD\test\Pain Drain\libraries\lvgl\src\draw\sw/lv_draw_sw_layer.c ****     }
 221              		.loc 1 88 0
 222 00fe 0268     		ldr	r2, [r0]
 223 0100 AD01     		lsls	r5, r5, #6
 224 0102 137C     		ldrb	r3, [r2, #16]
 225 0104 4021     		movs	r1, #64
 226 0106 8B43     		bics	r3, r1
 227 0108 1D43     		orrs	r5, r3
 228 010a 1574     		strb	r5, [r2, #16]
 229              	.LBE13:
ARM GAS  C:\Users\haske\AppData\Local\Temp\ccpU5ROU.s 			page 9


 230              		.loc 1 91 0
 231 010c 2000     		movs	r0, r4
 232              	.LVL21:
 233 010e 04E0     		b	.L2
 234              	.LVL22:
 235              	.L7:
  48:..\..\..\arduinoLCD\test\Pain Drain\libraries\lvgl\src\draw\sw/lv_draw_sw_layer.c ****     }
 236              		.loc 1 48 0
 237 0110 0020     		movs	r0, #0
 238              	.LVL23:
 239 0112 02E0     		b	.L2
 240              	.LVL24:
 241              	.L9:
 242              	.LBB14:
  64:..\..\..\arduinoLCD\test\Pain Drain\libraries\lvgl\src\draw\sw/lv_draw_sw_layer.c ****             }
 243              		.loc 1 64 0
 244 0114 0020     		movs	r0, #0
 245 0116 00E0     		b	.L2
 246              	.L10:
 247              	.LBE14:
 248              	.LBB15:
  80:..\..\..\arduinoLCD\test\Pain Drain\libraries\lvgl\src\draw\sw/lv_draw_sw_layer.c ****         }
 249              		.loc 1 80 0
 250 0118 0020     		movs	r0, #0
 251              	.LVL25:
 252              	.L2:
 253              	.LBE15:
  92:..\..\..\arduinoLCD\test\Pain Drain\libraries\lvgl\src\draw\sw/lv_draw_sw_layer.c **** }
 254              		.loc 1 92 0
 255              		@ sp needed
 256              	.LVL26:
 257              	.LVL27:
 258 011a F8BD     		pop	{r3, r4, r5, r6, r7, pc}
 259              		.cfi_endproc
 260              	.LFE159:
 261              		.size	lv_draw_sw_layer_create, .-lv_draw_sw_layer_create
 262              		.section	.text.lv_draw_sw_layer_adjust,"ax",%progbits
 263              		.align	2
 264              		.global	lv_draw_sw_layer_adjust
 265              		.code	16
 266              		.thumb_func
 267              		.type	lv_draw_sw_layer_adjust, %function
 268              	lv_draw_sw_layer_adjust:
 269              	.LFB160:
  93:..\..\..\arduinoLCD\test\Pain Drain\libraries\lvgl\src\draw\sw/lv_draw_sw_layer.c **** 
  94:..\..\..\arduinoLCD\test\Pain Drain\libraries\lvgl\src\draw\sw/lv_draw_sw_layer.c **** void lv_draw_sw_layer_adjust(struct _lv_draw_ctx_t * draw_ctx, struct _lv_draw_layer_ctx_t * layer_
  95:..\..\..\arduinoLCD\test\Pain Drain\libraries\lvgl\src\draw\sw/lv_draw_sw_layer.c ****                              lv_draw_layer_flags_t flags)
  96:..\..\..\arduinoLCD\test\Pain Drain\libraries\lvgl\src\draw\sw/lv_draw_sw_layer.c **** {
 270              		.loc 1 96 0
 271              		.cfi_startproc
 272              		@ args = 0, pretend = 0, frame = 0
 273              		@ frame_needed = 0, uses_anonymous_args = 0
 274              	.LVL28:
 275 0000 F8B5     		push	{r3, r4, r5, r6, r7, lr}
 276              		.cfi_def_cfa_offset 24
 277              		.cfi_offset 3, -24
 278              		.cfi_offset 4, -20
ARM GAS  C:\Users\haske\AppData\Local\Temp\ccpU5ROU.s 			page 10


 279              		.cfi_offset 5, -16
 280              		.cfi_offset 6, -12
 281              		.cfi_offset 7, -8
 282              		.cfi_offset 14, -4
 283 0002 0500     		movs	r5, r0
 284 0004 0C00     		movs	r4, r1
 285 0006 1600     		movs	r6, r2
 286              	.LVL29:
  97:..\..\..\arduinoLCD\test\Pain Drain\libraries\lvgl\src\draw\sw/lv_draw_sw_layer.c **** 
  98:..\..\..\arduinoLCD\test\Pain Drain\libraries\lvgl\src\draw\sw/lv_draw_sw_layer.c ****     lv_draw_sw_layer_ctx_t * layer_sw_ctx = (lv_draw_sw_layer_ctx_t *) layer_ctx;
  99:..\..\..\arduinoLCD\test\Pain Drain\libraries\lvgl\src\draw\sw/lv_draw_sw_layer.c ****     lv_disp_t * disp_refr = _lv_refr_get_disp_refreshing();
 287              		.loc 1 99 0
 288 0008 FFF7FEFF 		bl	_lv_refr_get_disp_refreshing
 289              	.LVL30:
 290 000c 0700     		movs	r7, r0
 291              	.LVL31:
 100:..\..\..\arduinoLCD\test\Pain Drain\libraries\lvgl\src\draw\sw/lv_draw_sw_layer.c ****     if(flags & LV_DRAW_LAYER_FLAG_HAS_ALPHA) {
 292              		.loc 1 100 0
 293 000e F307     		lsls	r3, r6, #31
 294 0010 12D5     		bpl	.L12
 101:..\..\..\arduinoLCD\test\Pain Drain\libraries\lvgl\src\draw\sw/lv_draw_sw_layer.c ****         lv_memset_00(layer_ctx->buf, layer_sw_ctx->buf_size_bytes);
 295              		.loc 1 101 0
 296 0012 A36A     		ldr	r3, [r4, #40]
 297 0014 5900     		lsls	r1, r3, #1
 298 0016 4908     		lsrs	r1, r1, #1
 299 0018 6069     		ldr	r0, [r4, #20]
 300              	.LVL32:
 301 001a FFF7FEFF 		bl	lv_memset_00
 302              	.LVL33:
 102:..\..\..\arduinoLCD\test\Pain Drain\libraries\lvgl\src\draw\sw/lv_draw_sw_layer.c ****         layer_sw_ctx->has_alpha = 1;
 303              		.loc 1 102 0
 304 001e 2200     		movs	r2, r4
 305 0020 2832     		adds	r2, r2, #40
 306 0022 D378     		ldrb	r3, [r2, #3]
 307 0024 8021     		movs	r1, #128
 308 0026 4942     		rsbs	r1, r1, #0
 309 0028 0B43     		orrs	r3, r1
 310 002a D370     		strb	r3, [r2, #3]
 103:..\..\..\arduinoLCD\test\Pain Drain\libraries\lvgl\src\draw\sw/lv_draw_sw_layer.c ****         disp_refr->driver->screen_transp = 1;
 311              		.loc 1 103 0
 312 002c 3A68     		ldr	r2, [r7]
 313 002e 117C     		ldrb	r1, [r2, #16]
 314 0030 4023     		movs	r3, #64
 315 0032 0B43     		orrs	r3, r1
 316 0034 1374     		strb	r3, [r2, #16]
 317 0036 0AE0     		b	.L13
 318              	.LVL34:
 319              	.L12:
 104:..\..\..\arduinoLCD\test\Pain Drain\libraries\lvgl\src\draw\sw/lv_draw_sw_layer.c ****     }
 105:..\..\..\arduinoLCD\test\Pain Drain\libraries\lvgl\src\draw\sw/lv_draw_sw_layer.c ****     else {
 106:..\..\..\arduinoLCD\test\Pain Drain\libraries\lvgl\src\draw\sw/lv_draw_sw_layer.c ****         layer_sw_ctx->has_alpha = 0;
 320              		.loc 1 106 0
 321 0038 2200     		movs	r2, r4
 322 003a 2832     		adds	r2, r2, #40
 323 003c D378     		ldrb	r3, [r2, #3]
 324 003e 7F21     		movs	r1, #127
 325 0040 0B40     		ands	r3, r1
ARM GAS  C:\Users\haske\AppData\Local\Temp\ccpU5ROU.s 			page 11


 326 0042 D370     		strb	r3, [r2, #3]
 107:..\..\..\arduinoLCD\test\Pain Drain\libraries\lvgl\src\draw\sw/lv_draw_sw_layer.c ****         disp_refr->driver->screen_transp = 0;
 327              		.loc 1 107 0
 328 0044 0268     		ldr	r2, [r0]
 329 0046 137C     		ldrb	r3, [r2, #16]
 330 0048 3F39     		subs	r1, r1, #63
 331 004a 8B43     		bics	r3, r1
 332 004c 1374     		strb	r3, [r2, #16]
 333              	.LVL35:
 334              	.L13:
 108:..\..\..\arduinoLCD\test\Pain Drain\libraries\lvgl\src\draw\sw/lv_draw_sw_layer.c ****     }
 109:..\..\..\arduinoLCD\test\Pain Drain\libraries\lvgl\src\draw\sw/lv_draw_sw_layer.c **** 
 110:..\..\..\arduinoLCD\test\Pain Drain\libraries\lvgl\src\draw\sw/lv_draw_sw_layer.c ****     draw_ctx->buf = layer_ctx->buf;
 335              		.loc 1 110 0
 336 004e 6369     		ldr	r3, [r4, #20]
 337 0050 2B60     		str	r3, [r5]
 111:..\..\..\arduinoLCD\test\Pain Drain\libraries\lvgl\src\draw\sw/lv_draw_sw_layer.c ****     draw_ctx->buf_area = &layer_ctx->area_act;
 338              		.loc 1 111 0
 339 0052 0834     		adds	r4, r4, #8
 340              	.LVL36:
 341 0054 6C60     		str	r4, [r5, #4]
 112:..\..\..\arduinoLCD\test\Pain Drain\libraries\lvgl\src\draw\sw/lv_draw_sw_layer.c ****     draw_ctx->clip_area = &layer_ctx->area_act;
 342              		.loc 1 112 0
 343 0056 AC60     		str	r4, [r5, #8]
 113:..\..\..\arduinoLCD\test\Pain Drain\libraries\lvgl\src\draw\sw/lv_draw_sw_layer.c **** }
 344              		.loc 1 113 0
 345              		@ sp needed
 346              	.LVL37:
 347              	.LVL38:
 348              	.LVL39:
 349 0058 F8BD     		pop	{r3, r4, r5, r6, r7, pc}
 350              		.cfi_endproc
 351              	.LFE160:
 352              		.size	lv_draw_sw_layer_adjust, .-lv_draw_sw_layer_adjust
 353 005a C046     		.section	.text.lv_draw_sw_layer_blend,"ax",%progbits
 354              		.align	2
 355              		.global	lv_draw_sw_layer_blend
 356              		.code	16
 357              		.thumb_func
 358              		.type	lv_draw_sw_layer_blend, %function
 359              	lv_draw_sw_layer_blend:
 360              	.LFB161:
 114:..\..\..\arduinoLCD\test\Pain Drain\libraries\lvgl\src\draw\sw/lv_draw_sw_layer.c **** 
 115:..\..\..\arduinoLCD\test\Pain Drain\libraries\lvgl\src\draw\sw/lv_draw_sw_layer.c **** void lv_draw_sw_layer_blend(struct _lv_draw_ctx_t * draw_ctx, struct _lv_draw_layer_ctx_t * layer_c
 116:..\..\..\arduinoLCD\test\Pain Drain\libraries\lvgl\src\draw\sw/lv_draw_sw_layer.c ****                             const lv_draw_img_dsc_t * draw_dsc)
 117:..\..\..\arduinoLCD\test\Pain Drain\libraries\lvgl\src\draw\sw/lv_draw_sw_layer.c **** {
 361              		.loc 1 117 0
 362              		.cfi_startproc
 363              		@ args = 0, pretend = 0, frame = 16
 364              		@ frame_needed = 0, uses_anonymous_args = 0
 365              	.LVL40:
 366 0000 F0B5     		push	{r4, r5, r6, r7, lr}
 367              		.cfi_def_cfa_offset 20
 368              		.cfi_offset 4, -20
 369              		.cfi_offset 5, -16
 370              		.cfi_offset 6, -12
 371              		.cfi_offset 7, -8
ARM GAS  C:\Users\haske\AppData\Local\Temp\ccpU5ROU.s 			page 12


 372              		.cfi_offset 14, -4
 373 0002 85B0     		sub	sp, sp, #20
 374              		.cfi_def_cfa_offset 40
 375 0004 0600     		movs	r6, r0
 376 0006 0D00     		movs	r5, r1
 377 0008 1400     		movs	r4, r2
 378              	.LVL41:
 118:..\..\..\arduinoLCD\test\Pain Drain\libraries\lvgl\src\draw\sw/lv_draw_sw_layer.c ****     lv_draw_sw_layer_ctx_t * layer_sw_ctx = (lv_draw_sw_layer_ctx_t *) layer_ctx;
 119:..\..\..\arduinoLCD\test\Pain Drain\libraries\lvgl\src\draw\sw/lv_draw_sw_layer.c **** 
 120:..\..\..\arduinoLCD\test\Pain Drain\libraries\lvgl\src\draw\sw/lv_draw_sw_layer.c ****     lv_img_dsc_t img;
 121:..\..\..\arduinoLCD\test\Pain Drain\libraries\lvgl\src\draw\sw/lv_draw_sw_layer.c ****     img.data = draw_ctx->buf;
 379              		.loc 1 121 0
 380 000a 01AA     		add	r2, sp, #4
 381              	.LVL42:
 382 000c 0368     		ldr	r3, [r0]
 383 000e 0393     		str	r3, [sp, #12]
 122:..\..\..\arduinoLCD\test\Pain Drain\libraries\lvgl\src\draw\sw/lv_draw_sw_layer.c ****     img.header.always_zero = 0;
 384              		.loc 1 122 0
 385 0010 1378     		ldrb	r3, [r2]
 386 0012 1F21     		movs	r1, #31
 387              	.LVL43:
 388 0014 0B40     		ands	r3, r1
 389 0016 1370     		strb	r3, [r2]
 123:..\..\..\arduinoLCD\test\Pain Drain\libraries\lvgl\src\draw\sw/lv_draw_sw_layer.c ****     img.header.w = lv_area_get_width(draw_ctx->buf_area);
 390              		.loc 1 123 0
 391 0018 4068     		ldr	r0, [r0, #4]
 392              	.LVL44:
 393              	.LBB16:
 394              	.LBB17:
 395              		.loc 2 125 0
 396 001a 0421     		movs	r1, #4
 397 001c 435E     		ldrsh	r3, [r0, r1]
 398 001e 0027     		movs	r7, #0
 399 0020 C15F     		ldrsh	r1, [r0, r7]
 400 0022 5B1A     		subs	r3, r3, r1
 401 0024 0133     		adds	r3, r3, #1
 402              	.LVL45:
 403              	.LBE17:
 404              	.LBE16:
 405              		.loc 1 123 0
 406 0026 5B05     		lsls	r3, r3, #21
 407 0028 D90A     		lsrs	r1, r3, #11
 408 002a 214B     		ldr	r3, .L17
 409 002c 019F     		ldr	r7, [sp, #4]
 410 002e 3B40     		ands	r3, r7
 411 0030 0B43     		orrs	r3, r1
 412 0032 0193     		str	r3, [sp, #4]
 413              	.LVL46:
 414              	.LBB18:
 415              	.LBB19:
 126:c:\projects\paindrain\arduinolcd\test\pain drain\libraries\lvgl\src\misc\lv_area.h **** }
 127:c:\projects\paindrain\arduinolcd\test\pain drain\libraries\lvgl\src\misc\lv_area.h **** 
 128:c:\projects\paindrain\arduinolcd\test\pain drain\libraries\lvgl\src\misc\lv_area.h **** /**
 129:c:\projects\paindrain\arduinolcd\test\pain drain\libraries\lvgl\src\misc\lv_area.h ****  * Get the height of an area
 130:c:\projects\paindrain\arduinolcd\test\pain drain\libraries\lvgl\src\misc\lv_area.h ****  * @param area_p pointer to an area
 131:c:\projects\paindrain\arduinolcd\test\pain drain\libraries\lvgl\src\misc\lv_area.h ****  * @return the height of the area (if y1 == y2 -> height = 1)
 132:c:\projects\paindrain\arduinolcd\test\pain drain\libraries\lvgl\src\misc\lv_area.h ****  */
ARM GAS  C:\Users\haske\AppData\Local\Temp\ccpU5ROU.s 			page 13


 133:c:\projects\paindrain\arduinolcd\test\pain drain\libraries\lvgl\src\misc\lv_area.h **** static inline lv_coord_t lv_area_get_height(const lv_area_t * area_p)
 134:c:\projects\paindrain\arduinolcd\test\pain drain\libraries\lvgl\src\misc\lv_area.h **** {
 135:c:\projects\paindrain\arduinolcd\test\pain drain\libraries\lvgl\src\misc\lv_area.h ****     return (lv_coord_t)(area_p->y2 - area_p->y1 + 1);
 416              		.loc 2 135 0
 417 0034 0621     		movs	r1, #6
 418 0036 435E     		ldrsh	r3, [r0, r1]
 419 0038 0221     		movs	r1, #2
 420 003a 415E     		ldrsh	r1, [r0, r1]
 421              	.LVL47:
 422 003c 5B1A     		subs	r3, r3, r1
 423 003e 0133     		adds	r3, r3, #1
 424 0040 9BB2     		uxth	r3, r3
 425              	.LBE19:
 426              	.LBE18:
 124:..\..\..\arduinoLCD\test\Pain Drain\libraries\lvgl\src\draw\sw/lv_draw_sw_layer.c ****     img.header.h = lv_area_get_height(draw_ctx->buf_area);
 427              		.loc 1 124 0
 428 0042 5901     		lsls	r1, r3, #5
 429 0044 5388     		ldrh	r3, [r2, #2]
 430 0046 1F20     		movs	r0, #31
 431 0048 0340     		ands	r3, r0
 432 004a 0B43     		orrs	r3, r1
 433 004c 5380     		strh	r3, [r2, #2]
 125:..\..\..\arduinoLCD\test\Pain Drain\libraries\lvgl\src\draw\sw/lv_draw_sw_layer.c ****     img.header.cf = layer_sw_ctx->has_alpha ? LV_IMG_CF_TRUE_COLOR_ALPHA : LV_IMG_CF_TRUE_COLOR;
 434              		.loc 1 125 0
 435 004e 2B23     		movs	r3, #43
 436 0050 EB5C     		ldrb	r3, [r5, r3]
 437 0052 7F22     		movs	r2, #127
 438 0054 9343     		bics	r3, r2
 439 0056 01D0     		beq	.L16
 440 0058 7A3A     		subs	r2, r2, #122
 441 005a 00E0     		b	.L15
 442              	.L16:
 443 005c 0422     		movs	r2, #4
 444              	.L15:
 445              		.loc 1 125 0 is_stmt 0 discriminator 4
 446 005e 01AF     		add	r7, sp, #4
 447 0060 3B78     		ldrb	r3, [r7]
 448 0062 1F21     		movs	r1, #31
 449 0064 8B43     		bics	r3, r1
 450 0066 1343     		orrs	r3, r2
 451 0068 3B70     		strb	r3, [r7]
 126:..\..\..\arduinoLCD\test\Pain Drain\libraries\lvgl\src\draw\sw/lv_draw_sw_layer.c **** 
 127:..\..\..\arduinoLCD\test\Pain Drain\libraries\lvgl\src\draw\sw/lv_draw_sw_layer.c ****     /*Restore the original draw_ctx*/
 128:..\..\..\arduinoLCD\test\Pain Drain\libraries\lvgl\src\draw\sw/lv_draw_sw_layer.c ****     draw_ctx->buf = layer_ctx->original.buf;
 452              		.loc 1 128 0 is_stmt 1 discriminator 4
 453 006a 2B6A     		ldr	r3, [r5, #32]
 454 006c 3360     		str	r3, [r6]
 129:..\..\..\arduinoLCD\test\Pain Drain\libraries\lvgl\src\draw\sw/lv_draw_sw_layer.c ****     draw_ctx->buf_area = layer_ctx->original.buf_area;
 455              		.loc 1 129 0 discriminator 4
 456 006e EB69     		ldr	r3, [r5, #28]
 457 0070 7360     		str	r3, [r6, #4]
 130:..\..\..\arduinoLCD\test\Pain Drain\libraries\lvgl\src\draw\sw/lv_draw_sw_layer.c ****     draw_ctx->clip_area = layer_ctx->original.clip_area;
 458              		.loc 1 130 0 discriminator 4
 459 0072 AB69     		ldr	r3, [r5, #24]
 460 0074 B360     		str	r3, [r6, #8]
 131:..\..\..\arduinoLCD\test\Pain Drain\libraries\lvgl\src\draw\sw/lv_draw_sw_layer.c ****     lv_disp_t * disp_refr = _lv_refr_get_disp_refreshing();
 461              		.loc 1 131 0 discriminator 4
ARM GAS  C:\Users\haske\AppData\Local\Temp\ccpU5ROU.s 			page 14


 462 0076 FFF7FEFF 		bl	_lv_refr_get_disp_refreshing
 463              	.LVL48:
 132:..\..\..\arduinoLCD\test\Pain Drain\libraries\lvgl\src\draw\sw/lv_draw_sw_layer.c ****     disp_refr->driver->screen_transp = layer_ctx->original.screen_transp;
 464              		.loc 1 132 0 discriminator 4
 465 007a 0168     		ldr	r1, [r0]
 466 007c 2423     		movs	r3, #36
 467 007e EB5C     		ldrb	r3, [r5, r3]
 468 0080 0122     		movs	r2, #1
 469 0082 1340     		ands	r3, r2
 470 0084 9A01     		lsls	r2, r3, #6
 471 0086 0B7C     		ldrb	r3, [r1, #16]
 472 0088 4020     		movs	r0, #64
 473              	.LVL49:
 474 008a 8343     		bics	r3, r0
 475 008c 1343     		orrs	r3, r2
 476 008e 0B74     		strb	r3, [r1, #16]
 133:..\..\..\arduinoLCD\test\Pain Drain\libraries\lvgl\src\draw\sw/lv_draw_sw_layer.c **** 
 134:..\..\..\arduinoLCD\test\Pain Drain\libraries\lvgl\src\draw\sw/lv_draw_sw_layer.c ****     /*Blend the layer*/
 135:..\..\..\arduinoLCD\test\Pain Drain\libraries\lvgl\src\draw\sw/lv_draw_sw_layer.c ****     lv_draw_img(draw_ctx, draw_dsc, &layer_ctx->area_act, &img);
 477              		.loc 1 135 0 discriminator 4
 478 0090 2A00     		movs	r2, r5
 479 0092 0832     		adds	r2, r2, #8
 480 0094 3B00     		movs	r3, r7
 481 0096 2100     		movs	r1, r4
 482 0098 3000     		movs	r0, r6
 483 009a FFF7FEFF 		bl	lv_draw_img
 484              	.LVL50:
 136:..\..\..\arduinoLCD\test\Pain Drain\libraries\lvgl\src\draw\sw/lv_draw_sw_layer.c ****     lv_draw_wait_for_finish(draw_ctx);
 485              		.loc 1 136 0 discriminator 4
 486 009e 3000     		movs	r0, r6
 487 00a0 FFF7FEFF 		bl	lv_draw_wait_for_finish
 488              	.LVL51:
 137:..\..\..\arduinoLCD\test\Pain Drain\libraries\lvgl\src\draw\sw/lv_draw_sw_layer.c ****     lv_img_cache_invalidate_src(&img);
 489              		.loc 1 137 0 discriminator 4
 490 00a4 3800     		movs	r0, r7
 491 00a6 FFF7FEFF 		bl	lv_img_cache_invalidate_src
 492              	.LVL52:
 138:..\..\..\arduinoLCD\test\Pain Drain\libraries\lvgl\src\draw\sw/lv_draw_sw_layer.c **** }
 493              		.loc 1 138 0 discriminator 4
 494 00aa 05B0     		add	sp, sp, #20
 495              		@ sp needed
 496              	.LVL53:
 497              	.LVL54:
 498              	.LVL55:
 499 00ac F0BD     		pop	{r4, r5, r6, r7, pc}
 500              	.L18:
 501 00ae C046     		.align	2
 502              	.L17:
 503 00b0 FF03E0FF 		.word	-2096129
 504              		.cfi_endproc
 505              	.LFE161:
 506              		.size	lv_draw_sw_layer_blend, .-lv_draw_sw_layer_blend
 507              		.section	.text.lv_draw_sw_layer_destroy,"ax",%progbits
 508              		.align	2
 509              		.global	lv_draw_sw_layer_destroy
 510              		.code	16
 511              		.thumb_func
ARM GAS  C:\Users\haske\AppData\Local\Temp\ccpU5ROU.s 			page 15


 512              		.type	lv_draw_sw_layer_destroy, %function
 513              	lv_draw_sw_layer_destroy:
 514              	.LFB162:
 139:..\..\..\arduinoLCD\test\Pain Drain\libraries\lvgl\src\draw\sw/lv_draw_sw_layer.c **** 
 140:..\..\..\arduinoLCD\test\Pain Drain\libraries\lvgl\src\draw\sw/lv_draw_sw_layer.c **** void lv_draw_sw_layer_destroy(lv_draw_ctx_t * draw_ctx, lv_draw_layer_ctx_t * layer_ctx)
 141:..\..\..\arduinoLCD\test\Pain Drain\libraries\lvgl\src\draw\sw/lv_draw_sw_layer.c **** {
 515              		.loc 1 141 0
 516              		.cfi_startproc
 517              		@ args = 0, pretend = 0, frame = 0
 518              		@ frame_needed = 0, uses_anonymous_args = 0
 519              	.LVL56:
 520 0000 10B5     		push	{r4, lr}
 521              		.cfi_def_cfa_offset 8
 522              		.cfi_offset 4, -8
 523              		.cfi_offset 14, -4
 142:..\..\..\arduinoLCD\test\Pain Drain\libraries\lvgl\src\draw\sw/lv_draw_sw_layer.c ****     LV_UNUSED(draw_ctx);
 143:..\..\..\arduinoLCD\test\Pain Drain\libraries\lvgl\src\draw\sw/lv_draw_sw_layer.c **** 
 144:..\..\..\arduinoLCD\test\Pain Drain\libraries\lvgl\src\draw\sw/lv_draw_sw_layer.c ****     lv_mem_free(layer_ctx->buf);
 524              		.loc 1 144 0
 525 0002 4869     		ldr	r0, [r1, #20]
 526              	.LVL57:
 527 0004 FFF7FEFF 		bl	lv_mem_free
 528              	.LVL58:
 145:..\..\..\arduinoLCD\test\Pain Drain\libraries\lvgl\src\draw\sw/lv_draw_sw_layer.c **** }
 529              		.loc 1 145 0
 530              		@ sp needed
 531 0008 10BD     		pop	{r4, pc}
 532              		.cfi_endproc
 533              	.LFE162:
 534              		.size	lv_draw_sw_layer_destroy, .-lv_draw_sw_layer_destroy
 535 000a C046     		.text
 536              	.Letext0:
 537              		.file 3 "c:\\program files (x86)\\cypress\\psoc creator\\4.4\\psoc creator\\import\\gnu\\arm\\5.4.
 538              		.file 4 "c:\\program files (x86)\\cypress\\psoc creator\\4.4\\psoc creator\\import\\gnu\\arm\\5.4.
 539              		.file 5 "c:\\projects\\paindrain\\arduinolcd\\test\\pain drain\\libraries\\lvgl\\src\\misc\\lv_typ
 540              		.file 6 "c:\\program files (x86)\\cypress\\psoc creator\\4.4\\psoc creator\\import\\gnu\\arm\\5.4.
 541              		.file 7 "c:\\projects\\paindrain\\arduinolcd\\test\\pain drain\\libraries\\lvgl\\src\\misc\\lv_col
 542              		.file 8 "c:\\projects\\paindrain\\arduinolcd\\test\\pain drain\\libraries\\lvgl\\src\\font\\lv_fon
 543              		.file 9 "c:\\projects\\paindrain\\arduinolcd\\test\\pain drain\\libraries\\lvgl\\src\\misc\\lv_txt
 544              		.file 10 "c:\\projects\\paindrain\\arduinolcd\\test\\pain drain\\libraries\\lvgl\\src\\misc\\lv_bi
 545              		.file 11 "c:\\projects\\paindrain\\arduinolcd\\test\\pain drain\\libraries\\lvgl\\src\\misc\\lv_st
 546              		.file 12 "..\\..\\..\\arduinoLCD\\test\\Pain Drain\\libraries\\lvgl\\src\\draw\\sw\\../lv_img_buf.
 547              		.file 13 "c:\\projects\\paindrain\\arduinolcd\\test\\pain drain\\libraries\\lvgl\\src\\core\\lv_ob
 548              		.file 14 "..\\..\\..\\arduinoLCD\\test\\Pain Drain\\libraries\\lvgl\\src\\draw\\sw\\../lv_draw_rec
 549              		.file 15 "..\\..\\..\\arduinoLCD\\test\\Pain Drain\\libraries\\lvgl\\src\\draw\\sw\\../lv_draw_lab
 550              		.file 16 "..\\..\\..\\arduinoLCD\\test\\Pain Drain\\libraries\\lvgl\\src\\draw\\sw\\../lv_draw_img
 551              		.file 17 "..\\..\\..\\arduinoLCD\\test\\Pain Drain\\libraries\\lvgl\\src\\draw\\sw\\../lv_draw_lin
 552              		.file 18 "..\\..\\..\\arduinoLCD\\test\\Pain Drain\\libraries\\lvgl\\src\\draw\\sw\\../lv_draw_arc
 553              		.file 19 "..\\..\\..\\arduinoLCD\\test\\Pain Drain\\libraries\\lvgl\\src\\draw\\sw\\../lv_draw_lay
 554              		.file 20 "..\\..\\..\\arduinoLCD\\test\\Pain Drain\\libraries\\lvgl\\src\\draw\\sw\\../lv_draw.h"
 555              		.file 21 "c:\\projects\\paindrain\\arduinolcd\\test\\pain drain\\libraries\\lvgl\\src\\misc\\lv_ti
 556              		.file 22 "c:\\projects\\paindrain\\arduinolcd\\test\\pain drain\\libraries\\lvgl\\src\\hal\\lv_hal
 557              		.file 23 "c:\\projects\\paindrain\\arduinolcd\\test\\pain drain\\libraries\\lvgl\\src\\core\\lv_gr
 558              		.file 24 "c:\\projects\\paindrain\\arduinolcd\\test\\pain drain\\libraries\\lvgl\\src\\misc\\lv_ll
 559              		.file 25 "..\\..\\..\\arduinoLCD\\test\\Pain Drain\\libraries\\lvgl\\src\\draw\\sw\\lv_draw_sw.h"
 560              		.file 26 "c:\\projects\\paindrain\\arduinolcd\\test\\pain drain\\libraries\\lvgl\\src\\core\\lv_ob
 561              		.file 27 "c:\\projects\\paindrain\\arduinolcd\\test\\pain drain\\libraries\\lvgl\\src\\core\\lv_ob
ARM GAS  C:\Users\haske\AppData\Local\Temp\ccpU5ROU.s 			page 16


 562              		.file 28 "c:\\projects\\paindrain\\arduinolcd\\test\\pain drain\\libraries\\lvgl\\src\\core\\lv_ob
 563              		.file 29 "c:\\projects\\paindrain\\arduinolcd\\test\\pain drain\\libraries\\lvgl\\src\\core\\lv_ev
 564              		.file 30 "c:\\projects\\paindrain\\arduinolcd\\test\\pain drain\\libraries\\lvgl\\src\\misc\\lv_me
 565              		.file 31 "c:\\projects\\paindrain\\arduinolcd\\test\\pain drain\\libraries\\lvgl\\src\\core\\lv_re
 566              		.file 32 "..\\..\\..\\arduinoLCD\\test\\Pain Drain\\libraries\\lvgl\\src\\draw\\sw\\../lv_img_cach