ARM GAS  C:\Users\haske\AppData\Local\Temp\ccOknJt1.s 			page 1


   1              		.syntax unified
   2              		.cpu cortex-m0plus
   3              		.fpu softvfp
   4              		.eabi_attribute 20, 1
   5              		.eabi_attribute 21, 1
   6              		.eabi_attribute 23, 3
   7              		.eabi_attribute 24, 1
   8              		.eabi_attribute 25, 1
   9              		.eabi_attribute 26, 1
  10              		.eabi_attribute 30, 1
  11              		.eabi_attribute 34, 0
  12              		.eabi_attribute 18, 4
  13              		.thumb
  14              		.syntax unified
  15              		.file	"lv_draw_sw_transform.c"
  16              		.text
  17              	.Ltext0:
  18              		.cfi_sections	.debug_frame
  19              		.section	.text.argb_no_aa,"ax",%progbits
  20              		.align	2
  21              		.code	16
  22              		.thumb_func
  23              		.type	argb_no_aa, %function
  24              	argb_no_aa:
  25              	.LFB161:
  26              		.file 1 "..\\..\\..\\arduinoLCD\\test\\Pain Drain\\libraries\\lvgl\\src\\draw\\sw\\lv_draw_sw_tran
   1:..\..\..\arduinoLCD\test\Pain Drain\libraries\lvgl\src\draw\sw/lv_draw_sw_transform.c **** /**
   2:..\..\..\arduinoLCD\test\Pain Drain\libraries\lvgl\src\draw\sw/lv_draw_sw_transform.c ****  * @file lv_draw_sw_tranform.c
   3:..\..\..\arduinoLCD\test\Pain Drain\libraries\lvgl\src\draw\sw/lv_draw_sw_transform.c ****  *
   4:..\..\..\arduinoLCD\test\Pain Drain\libraries\lvgl\src\draw\sw/lv_draw_sw_transform.c ****  */
   5:..\..\..\arduinoLCD\test\Pain Drain\libraries\lvgl\src\draw\sw/lv_draw_sw_transform.c **** 
   6:..\..\..\arduinoLCD\test\Pain Drain\libraries\lvgl\src\draw\sw/lv_draw_sw_transform.c **** /*********************
   7:..\..\..\arduinoLCD\test\Pain Drain\libraries\lvgl\src\draw\sw/lv_draw_sw_transform.c ****  *      INCLUDES
   8:..\..\..\arduinoLCD\test\Pain Drain\libraries\lvgl\src\draw\sw/lv_draw_sw_transform.c ****  *********************/
   9:..\..\..\arduinoLCD\test\Pain Drain\libraries\lvgl\src\draw\sw/lv_draw_sw_transform.c **** #include "lv_draw_sw.h"
  10:..\..\..\arduinoLCD\test\Pain Drain\libraries\lvgl\src\draw\sw/lv_draw_sw_transform.c **** #include "../../misc/lv_assert.h"
  11:..\..\..\arduinoLCD\test\Pain Drain\libraries\lvgl\src\draw\sw/lv_draw_sw_transform.c **** #include "../../misc/lv_area.h"
  12:..\..\..\arduinoLCD\test\Pain Drain\libraries\lvgl\src\draw\sw/lv_draw_sw_transform.c **** #include "../../core/lv_refr.h"
  13:..\..\..\arduinoLCD\test\Pain Drain\libraries\lvgl\src\draw\sw/lv_draw_sw_transform.c **** 
  14:..\..\..\arduinoLCD\test\Pain Drain\libraries\lvgl\src\draw\sw/lv_draw_sw_transform.c **** #if LV_DRAW_COMPLEX
  15:..\..\..\arduinoLCD\test\Pain Drain\libraries\lvgl\src\draw\sw/lv_draw_sw_transform.c **** /*********************
  16:..\..\..\arduinoLCD\test\Pain Drain\libraries\lvgl\src\draw\sw/lv_draw_sw_transform.c ****  *      DEFINES
  17:..\..\..\arduinoLCD\test\Pain Drain\libraries\lvgl\src\draw\sw/lv_draw_sw_transform.c ****  *********************/
  18:..\..\..\arduinoLCD\test\Pain Drain\libraries\lvgl\src\draw\sw/lv_draw_sw_transform.c **** 
  19:..\..\..\arduinoLCD\test\Pain Drain\libraries\lvgl\src\draw\sw/lv_draw_sw_transform.c **** /**********************
  20:..\..\..\arduinoLCD\test\Pain Drain\libraries\lvgl\src\draw\sw/lv_draw_sw_transform.c ****  *      TYPEDEFS
  21:..\..\..\arduinoLCD\test\Pain Drain\libraries\lvgl\src\draw\sw/lv_draw_sw_transform.c ****  **********************/
  22:..\..\..\arduinoLCD\test\Pain Drain\libraries\lvgl\src\draw\sw/lv_draw_sw_transform.c **** typedef struct {
  23:..\..\..\arduinoLCD\test\Pain Drain\libraries\lvgl\src\draw\sw/lv_draw_sw_transform.c ****     int32_t x_in;
  24:..\..\..\arduinoLCD\test\Pain Drain\libraries\lvgl\src\draw\sw/lv_draw_sw_transform.c ****     int32_t y_in;
  25:..\..\..\arduinoLCD\test\Pain Drain\libraries\lvgl\src\draw\sw/lv_draw_sw_transform.c ****     int32_t x_out;
  26:..\..\..\arduinoLCD\test\Pain Drain\libraries\lvgl\src\draw\sw/lv_draw_sw_transform.c ****     int32_t y_out;
  27:..\..\..\arduinoLCD\test\Pain Drain\libraries\lvgl\src\draw\sw/lv_draw_sw_transform.c ****     int32_t sinma;
  28:..\..\..\arduinoLCD\test\Pain Drain\libraries\lvgl\src\draw\sw/lv_draw_sw_transform.c ****     int32_t cosma;
  29:..\..\..\arduinoLCD\test\Pain Drain\libraries\lvgl\src\draw\sw/lv_draw_sw_transform.c ****     int32_t zoom;
  30:..\..\..\arduinoLCD\test\Pain Drain\libraries\lvgl\src\draw\sw/lv_draw_sw_transform.c ****     int32_t angle;
  31:..\..\..\arduinoLCD\test\Pain Drain\libraries\lvgl\src\draw\sw/lv_draw_sw_transform.c ****     int32_t pivot_x_256;
ARM GAS  C:\Users\haske\AppData\Local\Temp\ccOknJt1.s 			page 2


  32:..\..\..\arduinoLCD\test\Pain Drain\libraries\lvgl\src\draw\sw/lv_draw_sw_transform.c ****     int32_t pivot_y_256;
  33:..\..\..\arduinoLCD\test\Pain Drain\libraries\lvgl\src\draw\sw/lv_draw_sw_transform.c ****     lv_point_t pivot;
  34:..\..\..\arduinoLCD\test\Pain Drain\libraries\lvgl\src\draw\sw/lv_draw_sw_transform.c **** } point_transform_dsc_t;
  35:..\..\..\arduinoLCD\test\Pain Drain\libraries\lvgl\src\draw\sw/lv_draw_sw_transform.c **** 
  36:..\..\..\arduinoLCD\test\Pain Drain\libraries\lvgl\src\draw\sw/lv_draw_sw_transform.c **** /**********************
  37:..\..\..\arduinoLCD\test\Pain Drain\libraries\lvgl\src\draw\sw/lv_draw_sw_transform.c ****  *  STATIC PROTOTYPES
  38:..\..\..\arduinoLCD\test\Pain Drain\libraries\lvgl\src\draw\sw/lv_draw_sw_transform.c ****  **********************/
  39:..\..\..\arduinoLCD\test\Pain Drain\libraries\lvgl\src\draw\sw/lv_draw_sw_transform.c **** /**
  40:..\..\..\arduinoLCD\test\Pain Drain\libraries\lvgl\src\draw\sw/lv_draw_sw_transform.c ****  * Transform a point with 1/256 precision (the output coordinates are upscaled by 256)
  41:..\..\..\arduinoLCD\test\Pain Drain\libraries\lvgl\src\draw\sw/lv_draw_sw_transform.c ****  * @param t         pointer to n initialized `point_transform_dsc_t` structure
  42:..\..\..\arduinoLCD\test\Pain Drain\libraries\lvgl\src\draw\sw/lv_draw_sw_transform.c ****  * @param xin       X coordinate to rotate
  43:..\..\..\arduinoLCD\test\Pain Drain\libraries\lvgl\src\draw\sw/lv_draw_sw_transform.c ****  * @param yin       Y coordinate to rotate
  44:..\..\..\arduinoLCD\test\Pain Drain\libraries\lvgl\src\draw\sw/lv_draw_sw_transform.c ****  * @param xout      upscaled, transformed X
  45:..\..\..\arduinoLCD\test\Pain Drain\libraries\lvgl\src\draw\sw/lv_draw_sw_transform.c ****  * @param yout      upscaled, transformed Y
  46:..\..\..\arduinoLCD\test\Pain Drain\libraries\lvgl\src\draw\sw/lv_draw_sw_transform.c ****  */
  47:..\..\..\arduinoLCD\test\Pain Drain\libraries\lvgl\src\draw\sw/lv_draw_sw_transform.c **** static void transform_point_upscaled(point_transform_dsc_t * t, int32_t xin, int32_t yin, int32_t *
  48:..\..\..\arduinoLCD\test\Pain Drain\libraries\lvgl\src\draw\sw/lv_draw_sw_transform.c ****                                      int32_t * yout);
  49:..\..\..\arduinoLCD\test\Pain Drain\libraries\lvgl\src\draw\sw/lv_draw_sw_transform.c **** 
  50:..\..\..\arduinoLCD\test\Pain Drain\libraries\lvgl\src\draw\sw/lv_draw_sw_transform.c **** static void argb_no_aa(const uint8_t * src, lv_coord_t src_w, lv_coord_t src_h, lv_coord_t src_stri
  51:..\..\..\arduinoLCD\test\Pain Drain\libraries\lvgl\src\draw\sw/lv_draw_sw_transform.c ****                        int32_t xs_ups, int32_t ys_ups, int32_t xs_step, int32_t ys_step,
  52:..\..\..\arduinoLCD\test\Pain Drain\libraries\lvgl\src\draw\sw/lv_draw_sw_transform.c ****                        int32_t x_end, lv_color_t * cbuf, uint8_t * abuf);
  53:..\..\..\arduinoLCD\test\Pain Drain\libraries\lvgl\src\draw\sw/lv_draw_sw_transform.c **** 
  54:..\..\..\arduinoLCD\test\Pain Drain\libraries\lvgl\src\draw\sw/lv_draw_sw_transform.c **** static void rgb_no_aa(const uint8_t * src, lv_coord_t src_w, lv_coord_t src_h, lv_coord_t src_strid
  55:..\..\..\arduinoLCD\test\Pain Drain\libraries\lvgl\src\draw\sw/lv_draw_sw_transform.c ****                       int32_t xs_ups, int32_t ys_ups, int32_t xs_step, int32_t ys_step,
  56:..\..\..\arduinoLCD\test\Pain Drain\libraries\lvgl\src\draw\sw/lv_draw_sw_transform.c ****                       int32_t x_end, lv_color_t * cbuf, uint8_t * abuf, lv_img_cf_t cf);
  57:..\..\..\arduinoLCD\test\Pain Drain\libraries\lvgl\src\draw\sw/lv_draw_sw_transform.c **** 
  58:..\..\..\arduinoLCD\test\Pain Drain\libraries\lvgl\src\draw\sw/lv_draw_sw_transform.c **** #if LV_COLOR_DEPTH == 16
  59:..\..\..\arduinoLCD\test\Pain Drain\libraries\lvgl\src\draw\sw/lv_draw_sw_transform.c **** static void rgb565a8_no_aa(const uint8_t * src, lv_coord_t src_w, lv_coord_t src_h, lv_coord_t src_
  60:..\..\..\arduinoLCD\test\Pain Drain\libraries\lvgl\src\draw\sw/lv_draw_sw_transform.c ****                            int32_t xs_ups, int32_t ys_ups, int32_t xs_step, int32_t ys_step,
  61:..\..\..\arduinoLCD\test\Pain Drain\libraries\lvgl\src\draw\sw/lv_draw_sw_transform.c ****                            int32_t x_end, lv_color_t * cbuf, uint8_t * abuf);
  62:..\..\..\arduinoLCD\test\Pain Drain\libraries\lvgl\src\draw\sw/lv_draw_sw_transform.c **** #endif
  63:..\..\..\arduinoLCD\test\Pain Drain\libraries\lvgl\src\draw\sw/lv_draw_sw_transform.c **** 
  64:..\..\..\arduinoLCD\test\Pain Drain\libraries\lvgl\src\draw\sw/lv_draw_sw_transform.c **** static void argb_and_rgb_aa(const uint8_t * src, lv_coord_t src_w, lv_coord_t src_h, lv_coord_t src
  65:..\..\..\arduinoLCD\test\Pain Drain\libraries\lvgl\src\draw\sw/lv_draw_sw_transform.c ****                             int32_t xs_ups, int32_t ys_ups, int32_t xs_step, int32_t ys_step,
  66:..\..\..\arduinoLCD\test\Pain Drain\libraries\lvgl\src\draw\sw/lv_draw_sw_transform.c ****                             int32_t x_end, lv_color_t * cbuf, uint8_t * abuf, lv_img_cf_t cf);
  67:..\..\..\arduinoLCD\test\Pain Drain\libraries\lvgl\src\draw\sw/lv_draw_sw_transform.c **** 
  68:..\..\..\arduinoLCD\test\Pain Drain\libraries\lvgl\src\draw\sw/lv_draw_sw_transform.c **** /**********************
  69:..\..\..\arduinoLCD\test\Pain Drain\libraries\lvgl\src\draw\sw/lv_draw_sw_transform.c ****  *  STATIC VARIABLES
  70:..\..\..\arduinoLCD\test\Pain Drain\libraries\lvgl\src\draw\sw/lv_draw_sw_transform.c ****  **********************/
  71:..\..\..\arduinoLCD\test\Pain Drain\libraries\lvgl\src\draw\sw/lv_draw_sw_transform.c **** 
  72:..\..\..\arduinoLCD\test\Pain Drain\libraries\lvgl\src\draw\sw/lv_draw_sw_transform.c **** /**********************
  73:..\..\..\arduinoLCD\test\Pain Drain\libraries\lvgl\src\draw\sw/lv_draw_sw_transform.c ****  *      MACROS
  74:..\..\..\arduinoLCD\test\Pain Drain\libraries\lvgl\src\draw\sw/lv_draw_sw_transform.c ****  **********************/
  75:..\..\..\arduinoLCD\test\Pain Drain\libraries\lvgl\src\draw\sw/lv_draw_sw_transform.c **** 
  76:..\..\..\arduinoLCD\test\Pain Drain\libraries\lvgl\src\draw\sw/lv_draw_sw_transform.c **** /**********************
  77:..\..\..\arduinoLCD\test\Pain Drain\libraries\lvgl\src\draw\sw/lv_draw_sw_transform.c ****  *   GLOBAL FUNCTIONS
  78:..\..\..\arduinoLCD\test\Pain Drain\libraries\lvgl\src\draw\sw/lv_draw_sw_transform.c ****  **********************/
  79:..\..\..\arduinoLCD\test\Pain Drain\libraries\lvgl\src\draw\sw/lv_draw_sw_transform.c **** 
  80:..\..\..\arduinoLCD\test\Pain Drain\libraries\lvgl\src\draw\sw/lv_draw_sw_transform.c **** void lv_draw_sw_transform(lv_draw_ctx_t * draw_ctx, const lv_area_t * dest_area, const void * src_b
  81:..\..\..\arduinoLCD\test\Pain Drain\libraries\lvgl\src\draw\sw/lv_draw_sw_transform.c ****                           lv_coord_t src_w, lv_coord_t src_h, lv_coord_t src_stride,
  82:..\..\..\arduinoLCD\test\Pain Drain\libraries\lvgl\src\draw\sw/lv_draw_sw_transform.c ****                           const lv_draw_img_dsc_t * draw_dsc, lv_img_cf_t cf, lv_color_t * cbuf, lv
  83:..\..\..\arduinoLCD\test\Pain Drain\libraries\lvgl\src\draw\sw/lv_draw_sw_transform.c **** {
  84:..\..\..\arduinoLCD\test\Pain Drain\libraries\lvgl\src\draw\sw/lv_draw_sw_transform.c ****     LV_UNUSED(draw_ctx);
  85:..\..\..\arduinoLCD\test\Pain Drain\libraries\lvgl\src\draw\sw/lv_draw_sw_transform.c **** 
  86:..\..\..\arduinoLCD\test\Pain Drain\libraries\lvgl\src\draw\sw/lv_draw_sw_transform.c ****     point_transform_dsc_t tr_dsc;
  87:..\..\..\arduinoLCD\test\Pain Drain\libraries\lvgl\src\draw\sw/lv_draw_sw_transform.c ****     tr_dsc.angle = -draw_dsc->angle;
  88:..\..\..\arduinoLCD\test\Pain Drain\libraries\lvgl\src\draw\sw/lv_draw_sw_transform.c ****     tr_dsc.zoom = (256 * 256) / draw_dsc->zoom;
ARM GAS  C:\Users\haske\AppData\Local\Temp\ccOknJt1.s 			page 3


  89:..\..\..\arduinoLCD\test\Pain Drain\libraries\lvgl\src\draw\sw/lv_draw_sw_transform.c ****     tr_dsc.pivot = draw_dsc->pivot;
  90:..\..\..\arduinoLCD\test\Pain Drain\libraries\lvgl\src\draw\sw/lv_draw_sw_transform.c **** 
  91:..\..\..\arduinoLCD\test\Pain Drain\libraries\lvgl\src\draw\sw/lv_draw_sw_transform.c ****     int32_t angle_low = tr_dsc.angle / 10;
  92:..\..\..\arduinoLCD\test\Pain Drain\libraries\lvgl\src\draw\sw/lv_draw_sw_transform.c ****     int32_t angle_high = angle_low + 1;
  93:..\..\..\arduinoLCD\test\Pain Drain\libraries\lvgl\src\draw\sw/lv_draw_sw_transform.c ****     int32_t angle_rem = tr_dsc.angle  - (angle_low * 10);
  94:..\..\..\arduinoLCD\test\Pain Drain\libraries\lvgl\src\draw\sw/lv_draw_sw_transform.c **** 
  95:..\..\..\arduinoLCD\test\Pain Drain\libraries\lvgl\src\draw\sw/lv_draw_sw_transform.c ****     int32_t s1 = lv_trigo_sin(angle_low);
  96:..\..\..\arduinoLCD\test\Pain Drain\libraries\lvgl\src\draw\sw/lv_draw_sw_transform.c ****     int32_t s2 = lv_trigo_sin(angle_high);
  97:..\..\..\arduinoLCD\test\Pain Drain\libraries\lvgl\src\draw\sw/lv_draw_sw_transform.c **** 
  98:..\..\..\arduinoLCD\test\Pain Drain\libraries\lvgl\src\draw\sw/lv_draw_sw_transform.c ****     int32_t c1 = lv_trigo_sin(angle_low + 90);
  99:..\..\..\arduinoLCD\test\Pain Drain\libraries\lvgl\src\draw\sw/lv_draw_sw_transform.c ****     int32_t c2 = lv_trigo_sin(angle_high + 90);
 100:..\..\..\arduinoLCD\test\Pain Drain\libraries\lvgl\src\draw\sw/lv_draw_sw_transform.c **** 
 101:..\..\..\arduinoLCD\test\Pain Drain\libraries\lvgl\src\draw\sw/lv_draw_sw_transform.c ****     tr_dsc.sinma = (s1 * (10 - angle_rem) + s2 * angle_rem) / 10;
 102:..\..\..\arduinoLCD\test\Pain Drain\libraries\lvgl\src\draw\sw/lv_draw_sw_transform.c ****     tr_dsc.cosma = (c1 * (10 - angle_rem) + c2 * angle_rem) / 10;
 103:..\..\..\arduinoLCD\test\Pain Drain\libraries\lvgl\src\draw\sw/lv_draw_sw_transform.c ****     tr_dsc.sinma = tr_dsc.sinma >> (LV_TRIGO_SHIFT - 10);
 104:..\..\..\arduinoLCD\test\Pain Drain\libraries\lvgl\src\draw\sw/lv_draw_sw_transform.c ****     tr_dsc.cosma = tr_dsc.cosma >> (LV_TRIGO_SHIFT - 10);
 105:..\..\..\arduinoLCD\test\Pain Drain\libraries\lvgl\src\draw\sw/lv_draw_sw_transform.c ****     tr_dsc.pivot_x_256 = tr_dsc.pivot.x * 256;
 106:..\..\..\arduinoLCD\test\Pain Drain\libraries\lvgl\src\draw\sw/lv_draw_sw_transform.c ****     tr_dsc.pivot_y_256 = tr_dsc.pivot.y * 256;
 107:..\..\..\arduinoLCD\test\Pain Drain\libraries\lvgl\src\draw\sw/lv_draw_sw_transform.c **** 
 108:..\..\..\arduinoLCD\test\Pain Drain\libraries\lvgl\src\draw\sw/lv_draw_sw_transform.c ****     lv_coord_t dest_w = lv_area_get_width(dest_area);
 109:..\..\..\arduinoLCD\test\Pain Drain\libraries\lvgl\src\draw\sw/lv_draw_sw_transform.c ****     lv_coord_t dest_h = lv_area_get_height(dest_area);
 110:..\..\..\arduinoLCD\test\Pain Drain\libraries\lvgl\src\draw\sw/lv_draw_sw_transform.c ****     lv_coord_t y;
 111:..\..\..\arduinoLCD\test\Pain Drain\libraries\lvgl\src\draw\sw/lv_draw_sw_transform.c ****     for(y = 0; y < dest_h; y++) {
 112:..\..\..\arduinoLCD\test\Pain Drain\libraries\lvgl\src\draw\sw/lv_draw_sw_transform.c ****         int32_t xs1_ups, ys1_ups, xs2_ups, ys2_ups;
 113:..\..\..\arduinoLCD\test\Pain Drain\libraries\lvgl\src\draw\sw/lv_draw_sw_transform.c **** 
 114:..\..\..\arduinoLCD\test\Pain Drain\libraries\lvgl\src\draw\sw/lv_draw_sw_transform.c ****         transform_point_upscaled(&tr_dsc, dest_area->x1, dest_area->y1 + y, &xs1_ups, &ys1_ups);
 115:..\..\..\arduinoLCD\test\Pain Drain\libraries\lvgl\src\draw\sw/lv_draw_sw_transform.c ****         transform_point_upscaled(&tr_dsc, dest_area->x2, dest_area->y1 + y, &xs2_ups, &ys2_ups);
 116:..\..\..\arduinoLCD\test\Pain Drain\libraries\lvgl\src\draw\sw/lv_draw_sw_transform.c **** 
 117:..\..\..\arduinoLCD\test\Pain Drain\libraries\lvgl\src\draw\sw/lv_draw_sw_transform.c ****         int32_t xs_diff = xs2_ups - xs1_ups;
 118:..\..\..\arduinoLCD\test\Pain Drain\libraries\lvgl\src\draw\sw/lv_draw_sw_transform.c ****         int32_t ys_diff = ys2_ups - ys1_ups;
 119:..\..\..\arduinoLCD\test\Pain Drain\libraries\lvgl\src\draw\sw/lv_draw_sw_transform.c ****         int32_t xs_step_256 = 0;
 120:..\..\..\arduinoLCD\test\Pain Drain\libraries\lvgl\src\draw\sw/lv_draw_sw_transform.c ****         int32_t ys_step_256 = 0;
 121:..\..\..\arduinoLCD\test\Pain Drain\libraries\lvgl\src\draw\sw/lv_draw_sw_transform.c ****         if(dest_w > 1) {
 122:..\..\..\arduinoLCD\test\Pain Drain\libraries\lvgl\src\draw\sw/lv_draw_sw_transform.c ****             xs_step_256 = (256 * xs_diff) / (dest_w - 1);
 123:..\..\..\arduinoLCD\test\Pain Drain\libraries\lvgl\src\draw\sw/lv_draw_sw_transform.c ****             ys_step_256 = (256 * ys_diff) / (dest_w - 1);
 124:..\..\..\arduinoLCD\test\Pain Drain\libraries\lvgl\src\draw\sw/lv_draw_sw_transform.c ****         }
 125:..\..\..\arduinoLCD\test\Pain Drain\libraries\lvgl\src\draw\sw/lv_draw_sw_transform.c ****         int32_t xs_ups = xs1_ups + 0x80;
 126:..\..\..\arduinoLCD\test\Pain Drain\libraries\lvgl\src\draw\sw/lv_draw_sw_transform.c ****         int32_t ys_ups = ys1_ups + 0x80;
 127:..\..\..\arduinoLCD\test\Pain Drain\libraries\lvgl\src\draw\sw/lv_draw_sw_transform.c **** 
 128:..\..\..\arduinoLCD\test\Pain Drain\libraries\lvgl\src\draw\sw/lv_draw_sw_transform.c ****         if(draw_dsc->antialias == 0) {
 129:..\..\..\arduinoLCD\test\Pain Drain\libraries\lvgl\src\draw\sw/lv_draw_sw_transform.c ****             switch(cf) {
 130:..\..\..\arduinoLCD\test\Pain Drain\libraries\lvgl\src\draw\sw/lv_draw_sw_transform.c ****                 case LV_IMG_CF_TRUE_COLOR_ALPHA:
 131:..\..\..\arduinoLCD\test\Pain Drain\libraries\lvgl\src\draw\sw/lv_draw_sw_transform.c ****                     argb_no_aa(src_buf, src_w, src_h, src_stride, xs_ups, ys_ups, xs_step_256, ys_s
 132:..\..\..\arduinoLCD\test\Pain Drain\libraries\lvgl\src\draw\sw/lv_draw_sw_transform.c ****                     break;
 133:..\..\..\arduinoLCD\test\Pain Drain\libraries\lvgl\src\draw\sw/lv_draw_sw_transform.c ****                 case LV_IMG_CF_TRUE_COLOR:
 134:..\..\..\arduinoLCD\test\Pain Drain\libraries\lvgl\src\draw\sw/lv_draw_sw_transform.c ****                 case LV_IMG_CF_TRUE_COLOR_CHROMA_KEYED:
 135:..\..\..\arduinoLCD\test\Pain Drain\libraries\lvgl\src\draw\sw/lv_draw_sw_transform.c ****                     rgb_no_aa(src_buf, src_w, src_h, src_stride, xs_ups, ys_ups, xs_step_256, ys_st
 136:..\..\..\arduinoLCD\test\Pain Drain\libraries\lvgl\src\draw\sw/lv_draw_sw_transform.c ****                     break;
 137:..\..\..\arduinoLCD\test\Pain Drain\libraries\lvgl\src\draw\sw/lv_draw_sw_transform.c **** 
 138:..\..\..\arduinoLCD\test\Pain Drain\libraries\lvgl\src\draw\sw/lv_draw_sw_transform.c **** #if LV_COLOR_DEPTH == 16
 139:..\..\..\arduinoLCD\test\Pain Drain\libraries\lvgl\src\draw\sw/lv_draw_sw_transform.c ****                 case LV_IMG_CF_RGB565A8:
 140:..\..\..\arduinoLCD\test\Pain Drain\libraries\lvgl\src\draw\sw/lv_draw_sw_transform.c ****                     rgb565a8_no_aa(src_buf, src_w, src_h, src_stride, xs_ups, ys_ups, xs_step_256, 
 141:..\..\..\arduinoLCD\test\Pain Drain\libraries\lvgl\src\draw\sw/lv_draw_sw_transform.c ****                     break;
 142:..\..\..\arduinoLCD\test\Pain Drain\libraries\lvgl\src\draw\sw/lv_draw_sw_transform.c **** #endif
 143:..\..\..\arduinoLCD\test\Pain Drain\libraries\lvgl\src\draw\sw/lv_draw_sw_transform.c ****                 default:
 144:..\..\..\arduinoLCD\test\Pain Drain\libraries\lvgl\src\draw\sw/lv_draw_sw_transform.c ****                     break;
 145:..\..\..\arduinoLCD\test\Pain Drain\libraries\lvgl\src\draw\sw/lv_draw_sw_transform.c ****             }
ARM GAS  C:\Users\haske\AppData\Local\Temp\ccOknJt1.s 			page 4


 146:..\..\..\arduinoLCD\test\Pain Drain\libraries\lvgl\src\draw\sw/lv_draw_sw_transform.c ****         }
 147:..\..\..\arduinoLCD\test\Pain Drain\libraries\lvgl\src\draw\sw/lv_draw_sw_transform.c ****         else {
 148:..\..\..\arduinoLCD\test\Pain Drain\libraries\lvgl\src\draw\sw/lv_draw_sw_transform.c ****             argb_and_rgb_aa(src_buf, src_w, src_h, src_stride, xs_ups, ys_ups, xs_step_256, ys_step
 149:..\..\..\arduinoLCD\test\Pain Drain\libraries\lvgl\src\draw\sw/lv_draw_sw_transform.c ****         }
 150:..\..\..\arduinoLCD\test\Pain Drain\libraries\lvgl\src\draw\sw/lv_draw_sw_transform.c **** 
 151:..\..\..\arduinoLCD\test\Pain Drain\libraries\lvgl\src\draw\sw/lv_draw_sw_transform.c ****         cbuf += dest_w;
 152:..\..\..\arduinoLCD\test\Pain Drain\libraries\lvgl\src\draw\sw/lv_draw_sw_transform.c ****         abuf += dest_w;
 153:..\..\..\arduinoLCD\test\Pain Drain\libraries\lvgl\src\draw\sw/lv_draw_sw_transform.c ****     }
 154:..\..\..\arduinoLCD\test\Pain Drain\libraries\lvgl\src\draw\sw/lv_draw_sw_transform.c **** }
 155:..\..\..\arduinoLCD\test\Pain Drain\libraries\lvgl\src\draw\sw/lv_draw_sw_transform.c **** 
 156:..\..\..\arduinoLCD\test\Pain Drain\libraries\lvgl\src\draw\sw/lv_draw_sw_transform.c **** /**********************
 157:..\..\..\arduinoLCD\test\Pain Drain\libraries\lvgl\src\draw\sw/lv_draw_sw_transform.c ****  *   STATIC FUNCTIONS
 158:..\..\..\arduinoLCD\test\Pain Drain\libraries\lvgl\src\draw\sw/lv_draw_sw_transform.c ****  **********************/
 159:..\..\..\arduinoLCD\test\Pain Drain\libraries\lvgl\src\draw\sw/lv_draw_sw_transform.c **** 
 160:..\..\..\arduinoLCD\test\Pain Drain\libraries\lvgl\src\draw\sw/lv_draw_sw_transform.c **** static void rgb_no_aa(const uint8_t * src, lv_coord_t src_w, lv_coord_t src_h, lv_coord_t src_strid
 161:..\..\..\arduinoLCD\test\Pain Drain\libraries\lvgl\src\draw\sw/lv_draw_sw_transform.c ****                       int32_t xs_ups, int32_t ys_ups, int32_t xs_step, int32_t ys_step,
 162:..\..\..\arduinoLCD\test\Pain Drain\libraries\lvgl\src\draw\sw/lv_draw_sw_transform.c ****                       int32_t x_end, lv_color_t * cbuf, uint8_t * abuf, lv_img_cf_t cf)
 163:..\..\..\arduinoLCD\test\Pain Drain\libraries\lvgl\src\draw\sw/lv_draw_sw_transform.c **** {
 164:..\..\..\arduinoLCD\test\Pain Drain\libraries\lvgl\src\draw\sw/lv_draw_sw_transform.c ****     int32_t xs_ups_start = xs_ups;
 165:..\..\..\arduinoLCD\test\Pain Drain\libraries\lvgl\src\draw\sw/lv_draw_sw_transform.c ****     int32_t ys_ups_start = ys_ups;
 166:..\..\..\arduinoLCD\test\Pain Drain\libraries\lvgl\src\draw\sw/lv_draw_sw_transform.c ****     lv_disp_t * d = _lv_refr_get_disp_refreshing();
 167:..\..\..\arduinoLCD\test\Pain Drain\libraries\lvgl\src\draw\sw/lv_draw_sw_transform.c ****     lv_color_t ck = d->driver->color_chroma_key;
 168:..\..\..\arduinoLCD\test\Pain Drain\libraries\lvgl\src\draw\sw/lv_draw_sw_transform.c **** 
 169:..\..\..\arduinoLCD\test\Pain Drain\libraries\lvgl\src\draw\sw/lv_draw_sw_transform.c ****     lv_memset_ff(abuf, x_end);
 170:..\..\..\arduinoLCD\test\Pain Drain\libraries\lvgl\src\draw\sw/lv_draw_sw_transform.c **** 
 171:..\..\..\arduinoLCD\test\Pain Drain\libraries\lvgl\src\draw\sw/lv_draw_sw_transform.c ****     lv_coord_t x;
 172:..\..\..\arduinoLCD\test\Pain Drain\libraries\lvgl\src\draw\sw/lv_draw_sw_transform.c ****     for(x = 0; x < x_end; x++) {
 173:..\..\..\arduinoLCD\test\Pain Drain\libraries\lvgl\src\draw\sw/lv_draw_sw_transform.c ****         xs_ups = xs_ups_start + ((xs_step * x) >> 8);
 174:..\..\..\arduinoLCD\test\Pain Drain\libraries\lvgl\src\draw\sw/lv_draw_sw_transform.c ****         ys_ups = ys_ups_start + ((ys_step * x) >> 8);
 175:..\..\..\arduinoLCD\test\Pain Drain\libraries\lvgl\src\draw\sw/lv_draw_sw_transform.c **** 
 176:..\..\..\arduinoLCD\test\Pain Drain\libraries\lvgl\src\draw\sw/lv_draw_sw_transform.c ****         int32_t xs_int = xs_ups >> 8;
 177:..\..\..\arduinoLCD\test\Pain Drain\libraries\lvgl\src\draw\sw/lv_draw_sw_transform.c ****         int32_t ys_int = ys_ups >> 8;
 178:..\..\..\arduinoLCD\test\Pain Drain\libraries\lvgl\src\draw\sw/lv_draw_sw_transform.c ****         if(xs_int < 0 || xs_int >= src_w || ys_int < 0 || ys_int >= src_h) {
 179:..\..\..\arduinoLCD\test\Pain Drain\libraries\lvgl\src\draw\sw/lv_draw_sw_transform.c ****             abuf[x] = 0x00;
 180:..\..\..\arduinoLCD\test\Pain Drain\libraries\lvgl\src\draw\sw/lv_draw_sw_transform.c ****         }
 181:..\..\..\arduinoLCD\test\Pain Drain\libraries\lvgl\src\draw\sw/lv_draw_sw_transform.c ****         else {
 182:..\..\..\arduinoLCD\test\Pain Drain\libraries\lvgl\src\draw\sw/lv_draw_sw_transform.c **** 
 183:..\..\..\arduinoLCD\test\Pain Drain\libraries\lvgl\src\draw\sw/lv_draw_sw_transform.c **** #if LV_COLOR_DEPTH == 1 || LV_COLOR_DEPTH == 8
 184:..\..\..\arduinoLCD\test\Pain Drain\libraries\lvgl\src\draw\sw/lv_draw_sw_transform.c ****             const uint8_t * src_tmp = src;
 185:..\..\..\arduinoLCD\test\Pain Drain\libraries\lvgl\src\draw\sw/lv_draw_sw_transform.c ****             src_tmp += ys_int * src_stride + xs_int;
 186:..\..\..\arduinoLCD\test\Pain Drain\libraries\lvgl\src\draw\sw/lv_draw_sw_transform.c ****             cbuf[x].full = src_tmp[0];
 187:..\..\..\arduinoLCD\test\Pain Drain\libraries\lvgl\src\draw\sw/lv_draw_sw_transform.c **** #elif LV_COLOR_DEPTH == 16
 188:..\..\..\arduinoLCD\test\Pain Drain\libraries\lvgl\src\draw\sw/lv_draw_sw_transform.c ****             const lv_color_t * src_tmp = (const lv_color_t *)src;
 189:..\..\..\arduinoLCD\test\Pain Drain\libraries\lvgl\src\draw\sw/lv_draw_sw_transform.c ****             src_tmp += ys_int * src_stride + xs_int;
 190:..\..\..\arduinoLCD\test\Pain Drain\libraries\lvgl\src\draw\sw/lv_draw_sw_transform.c ****             cbuf[x] = *src_tmp;
 191:..\..\..\arduinoLCD\test\Pain Drain\libraries\lvgl\src\draw\sw/lv_draw_sw_transform.c **** #elif LV_COLOR_DEPTH == 32
 192:..\..\..\arduinoLCD\test\Pain Drain\libraries\lvgl\src\draw\sw/lv_draw_sw_transform.c ****             const uint8_t * src_tmp = src;
 193:..\..\..\arduinoLCD\test\Pain Drain\libraries\lvgl\src\draw\sw/lv_draw_sw_transform.c ****             src_tmp += (ys_int * src_stride * sizeof(lv_color_t)) + xs_int * sizeof(lv_color_t);
 194:..\..\..\arduinoLCD\test\Pain Drain\libraries\lvgl\src\draw\sw/lv_draw_sw_transform.c ****             cbuf[x].full = *((uint32_t *)src_tmp);
 195:..\..\..\arduinoLCD\test\Pain Drain\libraries\lvgl\src\draw\sw/lv_draw_sw_transform.c **** #endif
 196:..\..\..\arduinoLCD\test\Pain Drain\libraries\lvgl\src\draw\sw/lv_draw_sw_transform.c ****         }
 197:..\..\..\arduinoLCD\test\Pain Drain\libraries\lvgl\src\draw\sw/lv_draw_sw_transform.c ****         if(cf == LV_IMG_CF_TRUE_COLOR_CHROMA_KEYED && cbuf[x].full == ck.full) {
 198:..\..\..\arduinoLCD\test\Pain Drain\libraries\lvgl\src\draw\sw/lv_draw_sw_transform.c ****             abuf[x] = 0x00;
 199:..\..\..\arduinoLCD\test\Pain Drain\libraries\lvgl\src\draw\sw/lv_draw_sw_transform.c ****         }
 200:..\..\..\arduinoLCD\test\Pain Drain\libraries\lvgl\src\draw\sw/lv_draw_sw_transform.c ****     }
 201:..\..\..\arduinoLCD\test\Pain Drain\libraries\lvgl\src\draw\sw/lv_draw_sw_transform.c **** }
 202:..\..\..\arduinoLCD\test\Pain Drain\libraries\lvgl\src\draw\sw/lv_draw_sw_transform.c **** 
ARM GAS  C:\Users\haske\AppData\Local\Temp\ccOknJt1.s 			page 5


 203:..\..\..\arduinoLCD\test\Pain Drain\libraries\lvgl\src\draw\sw/lv_draw_sw_transform.c **** static void argb_no_aa(const uint8_t * src, lv_coord_t src_w, lv_coord_t src_h, lv_coord_t src_stri
 204:..\..\..\arduinoLCD\test\Pain Drain\libraries\lvgl\src\draw\sw/lv_draw_sw_transform.c ****                        int32_t xs_ups, int32_t ys_ups, int32_t xs_step, int32_t ys_step,
 205:..\..\..\arduinoLCD\test\Pain Drain\libraries\lvgl\src\draw\sw/lv_draw_sw_transform.c ****                        int32_t x_end, lv_color_t * cbuf, uint8_t * abuf)
 206:..\..\..\arduinoLCD\test\Pain Drain\libraries\lvgl\src\draw\sw/lv_draw_sw_transform.c **** {
  27              		.loc 1 206 0
  28              		.cfi_startproc
  29              		@ args = 28, pretend = 0, frame = 8
  30              		@ frame_needed = 0, uses_anonymous_args = 0
  31              	.LVL0:
  32 0000 F0B5     		push	{r4, r5, r6, r7, lr}
  33              		.cfi_def_cfa_offset 20
  34              		.cfi_offset 4, -20
  35              		.cfi_offset 5, -16
  36              		.cfi_offset 6, -12
  37              		.cfi_offset 7, -8
  38              		.cfi_offset 14, -4
  39 0002 5F46     		mov	r7, fp
  40 0004 5646     		mov	r6, r10
  41 0006 4D46     		mov	r5, r9
  42 0008 4446     		mov	r4, r8
  43 000a F0B4     		push	{r4, r5, r6, r7}
  44              		.cfi_def_cfa_offset 36
  45              		.cfi_offset 8, -36
  46              		.cfi_offset 9, -32
  47              		.cfi_offset 10, -28
  48              		.cfi_offset 11, -24
  49 000c 83B0     		sub	sp, sp, #12
  50              		.cfi_def_cfa_offset 48
  51 000e 0090     		str	r0, [sp]
  52 0010 8946     		mov	r9, r1
  53 0012 9246     		mov	r10, r2
  54 0014 0193     		str	r3, [sp, #4]
  55 0016 0D9F     		ldr	r7, [sp, #52]
  56 0018 0E9E     		ldr	r6, [sp, #56]
  57 001a 0F9D     		ldr	r5, [sp, #60]
  58 001c 109C     		ldr	r4, [sp, #64]
  59              	.LVL1:
 207:..\..\..\arduinoLCD\test\Pain Drain\libraries\lvgl\src\draw\sw/lv_draw_sw_transform.c ****     int32_t xs_ups_start = xs_ups;
 208:..\..\..\arduinoLCD\test\Pain Drain\libraries\lvgl\src\draw\sw/lv_draw_sw_transform.c ****     int32_t ys_ups_start = ys_ups;
 209:..\..\..\arduinoLCD\test\Pain Drain\libraries\lvgl\src\draw\sw/lv_draw_sw_transform.c **** 
 210:..\..\..\arduinoLCD\test\Pain Drain\libraries\lvgl\src\draw\sw/lv_draw_sw_transform.c ****     lv_coord_t x;
 211:..\..\..\arduinoLCD\test\Pain Drain\libraries\lvgl\src\draw\sw/lv_draw_sw_transform.c ****     for(x = 0; x < x_end; x++) {
  60              		.loc 1 211 0
  61 001e 0020     		movs	r0, #0
  62              	.LVL2:
  63 0020 36E0     		b	.L2
  64              	.LVL3:
  65              	.L6:
  66              	.LBB19:
 212:..\..\..\arduinoLCD\test\Pain Drain\libraries\lvgl\src\draw\sw/lv_draw_sw_transform.c ****         xs_ups = xs_ups_start + ((xs_step * x) >> 8);
  67              		.loc 1 212 0
  68 0022 3300     		movs	r3, r6
  69 0024 4343     		muls	r3, r0
  70 0026 1B12     		asrs	r3, r3, #8
  71 0028 0C9A     		ldr	r2, [sp, #48]
  72 002a 9446     		mov	ip, r2
  73 002c 6344     		add	r3, r3, ip
ARM GAS  C:\Users\haske\AppData\Local\Temp\ccOknJt1.s 			page 6


  74              	.LVL4:
 213:..\..\..\arduinoLCD\test\Pain Drain\libraries\lvgl\src\draw\sw/lv_draw_sw_transform.c ****         ys_ups = ys_ups_start + ((ys_step * x) >> 8);
  75              		.loc 1 213 0
  76 002e 2900     		movs	r1, r5
  77 0030 4143     		muls	r1, r0
  78 0032 0912     		asrs	r1, r1, #8
  79 0034 8C46     		mov	ip, r1
  80 0036 BC44     		add	ip, ip, r7
  81              	.LVL5:
 214:..\..\..\arduinoLCD\test\Pain Drain\libraries\lvgl\src\draw\sw/lv_draw_sw_transform.c **** 
 215:..\..\..\arduinoLCD\test\Pain Drain\libraries\lvgl\src\draw\sw/lv_draw_sw_transform.c ****         int32_t xs_int = xs_ups >> 8;
  82              		.loc 1 215 0
  83 0038 1B12     		asrs	r3, r3, #8
  84              	.LVL6:
 216:..\..\..\arduinoLCD\test\Pain Drain\libraries\lvgl\src\draw\sw/lv_draw_sw_transform.c ****         int32_t ys_int = ys_ups >> 8;
  85              		.loc 1 216 0
  86 003a 6146     		mov	r1, ip
  87 003c 0912     		asrs	r1, r1, #8
  88              	.LVL7:
 217:..\..\..\arduinoLCD\test\Pain Drain\libraries\lvgl\src\draw\sw/lv_draw_sw_transform.c ****         if(xs_int < 0 || xs_int >= src_w || ys_int < 0 || ys_int >= src_h) {
  89              		.loc 1 217 0
  90 003e 002B     		cmp	r3, #0
  91 0040 05DB     		blt	.L3
  92              		.loc 1 217 0 is_stmt 0 discriminator 1
  93 0042 4B45     		cmp	r3, r9
  94 0044 03DA     		bge	.L3
  95              		.loc 1 217 0 discriminator 2
  96 0046 0029     		cmp	r1, #0
  97 0048 01DB     		blt	.L3
  98              		.loc 1 217 0 discriminator 3
  99 004a 5145     		cmp	r1, r10
 100 004c 04DB     		blt	.L4
 101              	.L3:
 218:..\..\..\arduinoLCD\test\Pain Drain\libraries\lvgl\src\draw\sw/lv_draw_sw_transform.c ****             abuf[x] = 0;
 102              		.loc 1 218 0 is_stmt 1
 103 004e 129B     		ldr	r3, [sp, #72]
 104              	.LVL8:
 105 0050 1B18     		adds	r3, r3, r0
 106 0052 0021     		movs	r1, #0
 107              	.LVL9:
 108 0054 1970     		strb	r1, [r3]
 109 0056 19E0     		b	.L5
 110              	.LVL10:
 111              	.L4:
 112              	.LBB20:
 219:..\..\..\arduinoLCD\test\Pain Drain\libraries\lvgl\src\draw\sw/lv_draw_sw_transform.c ****         }
 220:..\..\..\arduinoLCD\test\Pain Drain\libraries\lvgl\src\draw\sw/lv_draw_sw_transform.c ****         else {
 221:..\..\..\arduinoLCD\test\Pain Drain\libraries\lvgl\src\draw\sw/lv_draw_sw_transform.c ****             const uint8_t * src_tmp = src;
 222:..\..\..\arduinoLCD\test\Pain Drain\libraries\lvgl\src\draw\sw/lv_draw_sw_transform.c ****             src_tmp += (ys_int * src_stride * LV_IMG_PX_SIZE_ALPHA_BYTE) + xs_int * LV_IMG_PX_SIZE_
 113              		.loc 1 222 0
 114 0058 019A     		ldr	r2, [sp, #4]
 115              	.LVL11:
 116 005a 5143     		muls	r1, r2
 117              	.LVL12:
 118 005c 8C46     		mov	ip, r1
 119              	.LVL13:
 120 005e 6344     		add	r3, r3, ip
ARM GAS  C:\Users\haske\AppData\Local\Temp\ccOknJt1.s 			page 7


 121              	.LVL14:
 122 0060 5A00     		lsls	r2, r3, #1
 123 0062 9446     		mov	ip, r2
 124 0064 6344     		add	r3, r3, ip
 125 0066 009A     		ldr	r2, [sp]
 126 0068 9446     		mov	ip, r2
 127 006a 9C44     		add	ip, ip, r3
 128              	.LVL15:
 223:..\..\..\arduinoLCD\test\Pain Drain\libraries\lvgl\src\draw\sw/lv_draw_sw_transform.c **** 
 224:..\..\..\arduinoLCD\test\Pain Drain\libraries\lvgl\src\draw\sw/lv_draw_sw_transform.c **** #if LV_COLOR_DEPTH == 1 || LV_COLOR_DEPTH == 8
 225:..\..\..\arduinoLCD\test\Pain Drain\libraries\lvgl\src\draw\sw/lv_draw_sw_transform.c ****             cbuf[x].full = src_tmp[0];
 226:..\..\..\arduinoLCD\test\Pain Drain\libraries\lvgl\src\draw\sw/lv_draw_sw_transform.c **** #elif LV_COLOR_DEPTH == 16
 227:..\..\..\arduinoLCD\test\Pain Drain\libraries\lvgl\src\draw\sw/lv_draw_sw_transform.c ****             cbuf[x].full = src_tmp[0] + (src_tmp[1] << 8);
 129              		.loc 1 227 0
 130 006c 4300     		lsls	r3, r0, #1
 131 006e 6246     		mov	r2, ip
 132 0070 1278     		ldrb	r2, [r2]
 133 0072 9346     		mov	fp, r2
 134 0074 6246     		mov	r2, ip
 135 0076 5278     		ldrb	r2, [r2, #1]
 136 0078 1202     		lsls	r2, r2, #8
 137 007a 9046     		mov	r8, r2
 138 007c D844     		add	r8, r8, fp
 139 007e 119A     		ldr	r2, [sp, #68]
 140 0080 4146     		mov	r1, r8
 141 0082 D152     		strh	r1, [r2, r3]
 228:..\..\..\arduinoLCD\test\Pain Drain\libraries\lvgl\src\draw\sw/lv_draw_sw_transform.c **** #elif LV_COLOR_DEPTH == 32
 229:..\..\..\arduinoLCD\test\Pain Drain\libraries\lvgl\src\draw\sw/lv_draw_sw_transform.c ****             cbuf[x].full = *((uint32_t *)src_tmp);
 230:..\..\..\arduinoLCD\test\Pain Drain\libraries\lvgl\src\draw\sw/lv_draw_sw_transform.c **** #endif
 231:..\..\..\arduinoLCD\test\Pain Drain\libraries\lvgl\src\draw\sw/lv_draw_sw_transform.c ****             abuf[x] = src_tmp[LV_IMG_PX_SIZE_ALPHA_BYTE - 1];
 142              		.loc 1 231 0
 143 0084 6346     		mov	r3, ip
 144 0086 9B78     		ldrb	r3, [r3, #2]
 145 0088 129A     		ldr	r2, [sp, #72]
 146 008a 1354     		strb	r3, [r2, r0]
 147              	.LVL16:
 148              	.L5:
 149              	.LBE20:
 150              	.LBE19:
 211:..\..\..\arduinoLCD\test\Pain Drain\libraries\lvgl\src\draw\sw/lv_draw_sw_transform.c ****         xs_ups = xs_ups_start + ((xs_step * x) >> 8);
 151              		.loc 1 211 0 discriminator 2
 152 008c 0130     		adds	r0, r0, #1
 153              	.LVL17:
 154 008e 00B2     		sxth	r0, r0
 155              	.LVL18:
 156              	.L2:
 211:..\..\..\arduinoLCD\test\Pain Drain\libraries\lvgl\src\draw\sw/lv_draw_sw_transform.c ****         xs_ups = xs_ups_start + ((xs_step * x) >> 8);
 157              		.loc 1 211 0 is_stmt 0 discriminator 1
 158 0090 A042     		cmp	r0, r4
 159 0092 C6DB     		blt	.L6
 232:..\..\..\arduinoLCD\test\Pain Drain\libraries\lvgl\src\draw\sw/lv_draw_sw_transform.c ****         }
 233:..\..\..\arduinoLCD\test\Pain Drain\libraries\lvgl\src\draw\sw/lv_draw_sw_transform.c ****     }
 234:..\..\..\arduinoLCD\test\Pain Drain\libraries\lvgl\src\draw\sw/lv_draw_sw_transform.c **** }
 160              		.loc 1 234 0 is_stmt 1
 161 0094 03B0     		add	sp, sp, #12
 162              	.LVL19:
 163              		@ sp needed
ARM GAS  C:\Users\haske\AppData\Local\Temp\ccOknJt1.s 			page 8


 164              	.LVL20:
 165 0096 3CBC     		pop	{r2, r3, r4, r5}
 166 0098 9046     		mov	r8, r2
 167 009a 9946     		mov	r9, r3
 168 009c A246     		mov	r10, r4
 169 009e AB46     		mov	fp, r5
 170 00a0 F0BD     		pop	{r4, r5, r6, r7, pc}
 171              		.cfi_endproc
 172              	.LFE161:
 173              		.size	argb_no_aa, .-argb_no_aa
 174 00a2 C046     		.section	.text.rgb565a8_no_aa,"ax",%progbits
 175              		.align	2
 176              		.code	16
 177              		.thumb_func
 178              		.type	rgb565a8_no_aa, %function
 179              	rgb565a8_no_aa:
 180              	.LFB162:
 235:..\..\..\arduinoLCD\test\Pain Drain\libraries\lvgl\src\draw\sw/lv_draw_sw_transform.c **** 
 236:..\..\..\arduinoLCD\test\Pain Drain\libraries\lvgl\src\draw\sw/lv_draw_sw_transform.c **** #if LV_COLOR_DEPTH == 16
 237:..\..\..\arduinoLCD\test\Pain Drain\libraries\lvgl\src\draw\sw/lv_draw_sw_transform.c **** static void rgb565a8_no_aa(const uint8_t * src, lv_coord_t src_w, lv_coord_t src_h, lv_coord_t src_
 238:..\..\..\arduinoLCD\test\Pain Drain\libraries\lvgl\src\draw\sw/lv_draw_sw_transform.c ****                            int32_t xs_ups, int32_t ys_ups, int32_t xs_step, int32_t ys_step,
 239:..\..\..\arduinoLCD\test\Pain Drain\libraries\lvgl\src\draw\sw/lv_draw_sw_transform.c ****                            int32_t x_end, lv_color_t * cbuf, uint8_t * abuf)
 240:..\..\..\arduinoLCD\test\Pain Drain\libraries\lvgl\src\draw\sw/lv_draw_sw_transform.c **** {
 181              		.loc 1 240 0
 182              		.cfi_startproc
 183              		@ args = 28, pretend = 0, frame = 8
 184              		@ frame_needed = 0, uses_anonymous_args = 0
 185              	.LVL21:
 186 0000 F0B5     		push	{r4, r5, r6, r7, lr}
 187              		.cfi_def_cfa_offset 20
 188              		.cfi_offset 4, -20
 189              		.cfi_offset 5, -16
 190              		.cfi_offset 6, -12
 191              		.cfi_offset 7, -8
 192              		.cfi_offset 14, -4
 193 0002 5F46     		mov	r7, fp
 194 0004 5646     		mov	r6, r10
 195 0006 4D46     		mov	r5, r9
 196 0008 4446     		mov	r4, r8
 197 000a F0B4     		push	{r4, r5, r6, r7}
 198              		.cfi_def_cfa_offset 36
 199              		.cfi_offset 8, -36
 200              		.cfi_offset 9, -32
 201              		.cfi_offset 10, -28
 202              		.cfi_offset 11, -24
 203 000c 83B0     		sub	sp, sp, #12
 204              		.cfi_def_cfa_offset 48
 205 000e 8046     		mov	r8, r0
 206 0010 8946     		mov	r9, r1
 207 0012 9246     		mov	r10, r2
 208 0014 0093     		str	r3, [sp]
 209 0016 0C99     		ldr	r1, [sp, #48]
 210              	.LVL22:
 211 0018 0E9F     		ldr	r7, [sp, #56]
 212 001a 0F9E     		ldr	r6, [sp, #60]
 213 001c 109D     		ldr	r5, [sp, #64]
 214 001e 129B     		ldr	r3, [sp, #72]
ARM GAS  C:\Users\haske\AppData\Local\Temp\ccOknJt1.s 			page 9


 215              	.LVL23:
 216 0020 9C46     		mov	ip, r3
 217              	.LVL24:
 241:..\..\..\arduinoLCD\test\Pain Drain\libraries\lvgl\src\draw\sw/lv_draw_sw_transform.c ****     int32_t xs_ups_start = xs_ups;
 242:..\..\..\arduinoLCD\test\Pain Drain\libraries\lvgl\src\draw\sw/lv_draw_sw_transform.c ****     int32_t ys_ups_start = ys_ups;
 243:..\..\..\arduinoLCD\test\Pain Drain\libraries\lvgl\src\draw\sw/lv_draw_sw_transform.c **** 
 244:..\..\..\arduinoLCD\test\Pain Drain\libraries\lvgl\src\draw\sw/lv_draw_sw_transform.c ****     lv_coord_t x;
 245:..\..\..\arduinoLCD\test\Pain Drain\libraries\lvgl\src\draw\sw/lv_draw_sw_transform.c ****     for(x = 0; x < x_end; x++) {
 218              		.loc 1 245 0
 219 0022 0024     		movs	r4, #0
 220 0024 31E0     		b	.L8
 221              	.LVL25:
 222              	.L12:
 223              	.LBB21:
 246:..\..\..\arduinoLCD\test\Pain Drain\libraries\lvgl\src\draw\sw/lv_draw_sw_transform.c ****         xs_ups = xs_ups_start + ((xs_step * x) >> 8);
 224              		.loc 1 246 0
 225 0026 3800     		movs	r0, r7
 226 0028 6043     		muls	r0, r4
 227 002a 0012     		asrs	r0, r0, #8
 228 002c 0818     		adds	r0, r1, r0
 229              	.LVL26:
 247:..\..\..\arduinoLCD\test\Pain Drain\libraries\lvgl\src\draw\sw/lv_draw_sw_transform.c ****         ys_ups = ys_ups_start + ((ys_step * x) >> 8);
 230              		.loc 1 247 0
 231 002e 3300     		movs	r3, r6
 232 0030 6343     		muls	r3, r4
 233 0032 1B12     		asrs	r3, r3, #8
 234 0034 0D9A     		ldr	r2, [sp, #52]
 235 0036 9346     		mov	fp, r2
 236 0038 5B44     		add	r3, r3, fp
 237              	.LVL27:
 248:..\..\..\arduinoLCD\test\Pain Drain\libraries\lvgl\src\draw\sw/lv_draw_sw_transform.c **** 
 249:..\..\..\arduinoLCD\test\Pain Drain\libraries\lvgl\src\draw\sw/lv_draw_sw_transform.c ****         int32_t xs_int = xs_ups >> 8;
 238              		.loc 1 249 0
 239 003a 0012     		asrs	r0, r0, #8
 240              	.LVL28:
 250:..\..\..\arduinoLCD\test\Pain Drain\libraries\lvgl\src\draw\sw/lv_draw_sw_transform.c ****         int32_t ys_int = ys_ups >> 8;
 241              		.loc 1 250 0
 242 003c 1B12     		asrs	r3, r3, #8
 243              	.LVL29:
 251:..\..\..\arduinoLCD\test\Pain Drain\libraries\lvgl\src\draw\sw/lv_draw_sw_transform.c ****         if(xs_int < 0 || xs_int >= src_w || ys_int < 0 || ys_int >= src_h) {
 244              		.loc 1 251 0
 245 003e 0028     		cmp	r0, #0
 246 0040 05DB     		blt	.L9
 247              		.loc 1 251 0 is_stmt 0 discriminator 1
 248 0042 4845     		cmp	r0, r9
 249 0044 03DA     		bge	.L9
 250              		.loc 1 251 0 discriminator 2
 251 0046 002B     		cmp	r3, #0
 252 0048 01DB     		blt	.L9
 253              		.loc 1 251 0 discriminator 3
 254 004a 5345     		cmp	r3, r10
 255 004c 04DB     		blt	.L10
 256              	.L9:
 252:..\..\..\arduinoLCD\test\Pain Drain\libraries\lvgl\src\draw\sw/lv_draw_sw_transform.c ****             abuf[x] = 0;
 257              		.loc 1 252 0 is_stmt 1
 258 004e 6346     		mov	r3, ip
 259              	.LVL30:
ARM GAS  C:\Users\haske\AppData\Local\Temp\ccOknJt1.s 			page 10


 260 0050 1B19     		adds	r3, r3, r4
 261 0052 0020     		movs	r0, #0
 262              	.LVL31:
 263 0054 1870     		strb	r0, [r3]
 264 0056 16E0     		b	.L11
 265              	.LVL32:
 266              	.L10:
 267              	.LBB22:
 253:..\..\..\arduinoLCD\test\Pain Drain\libraries\lvgl\src\draw\sw/lv_draw_sw_transform.c ****         }
 254:..\..\..\arduinoLCD\test\Pain Drain\libraries\lvgl\src\draw\sw/lv_draw_sw_transform.c ****         else {
 255:..\..\..\arduinoLCD\test\Pain Drain\libraries\lvgl\src\draw\sw/lv_draw_sw_transform.c ****             const lv_color_t * src_tmp = (const lv_color_t *)src;
 256:..\..\..\arduinoLCD\test\Pain Drain\libraries\lvgl\src\draw\sw/lv_draw_sw_transform.c ****             src_tmp += ys_int * src_stride + xs_int;
 268              		.loc 1 256 0
 269 0058 009A     		ldr	r2, [sp]
 270              	.LVL33:
 271 005a 5343     		muls	r3, r2
 272              	.LVL34:
 273 005c C318     		adds	r3, r0, r3
 274 005e 0193     		str	r3, [sp, #4]
 275 0060 5800     		lsls	r0, r3, #1
 276              	.LVL35:
 257:..\..\..\arduinoLCD\test\Pain Drain\libraries\lvgl\src\draw\sw/lv_draw_sw_transform.c ****             cbuf[x] = *src_tmp;
 277              		.loc 1 257 0
 278 0062 6200     		lsls	r2, r4, #1
 279 0064 4346     		mov	r3, r8
 280 0066 1B5A     		ldrh	r3, [r3, r0]
 281 0068 9B46     		mov	fp, r3
 282              	.LVL36:
 283 006a 1000     		movs	r0, r2
 284              	.LVL37:
 285 006c 119B     		ldr	r3, [sp, #68]
 286 006e 5A46     		mov	r2, fp
 287 0070 1A52     		strh	r2, [r3, r0]
 258:..\..\..\arduinoLCD\test\Pain Drain\libraries\lvgl\src\draw\sw/lv_draw_sw_transform.c **** 
 259:..\..\..\arduinoLCD\test\Pain Drain\libraries\lvgl\src\draw\sw/lv_draw_sw_transform.c ****             const lv_opa_t * a_tmp = src + src_stride * src_h * sizeof(lv_color_t);
 288              		.loc 1 259 0
 289 0072 5046     		mov	r0, r10
 290 0074 009A     		ldr	r2, [sp]
 291 0076 5043     		muls	r0, r2
 292 0078 4000     		lsls	r0, r0, #1
 293              	.LVL38:
 260:..\..\..\arduinoLCD\test\Pain Drain\libraries\lvgl\src\draw\sw/lv_draw_sw_transform.c ****             a_tmp += ys_int * src_stride + xs_int;
 294              		.loc 1 260 0
 295 007a 019B     		ldr	r3, [sp, #4]
 296 007c 1B18     		adds	r3, r3, r0
 297              	.LVL39:
 261:..\..\..\arduinoLCD\test\Pain Drain\libraries\lvgl\src\draw\sw/lv_draw_sw_transform.c ****             abuf[x] = *a_tmp;
 298              		.loc 1 261 0
 299 007e 4246     		mov	r2, r8
 300 0080 D35C     		ldrb	r3, [r2, r3]
 301              	.LVL40:
 302 0082 6246     		mov	r2, ip
 303 0084 1355     		strb	r3, [r2, r4]
 304              	.LVL41:
 305              	.L11:
 306              	.LBE22:
 307              	.LBE21:
ARM GAS  C:\Users\haske\AppData\Local\Temp\ccOknJt1.s 			page 11


 245:..\..\..\arduinoLCD\test\Pain Drain\libraries\lvgl\src\draw\sw/lv_draw_sw_transform.c ****         xs_ups = xs_ups_start + ((xs_step * x) >> 8);
 308              		.loc 1 245 0 discriminator 2
 309 0086 0134     		adds	r4, r4, #1
 310              	.LVL42:
 311 0088 24B2     		sxth	r4, r4
 312              	.LVL43:
 313              	.L8:
 245:..\..\..\arduinoLCD\test\Pain Drain\libraries\lvgl\src\draw\sw/lv_draw_sw_transform.c ****         xs_ups = xs_ups_start + ((xs_step * x) >> 8);
 314              		.loc 1 245 0 is_stmt 0 discriminator 1
 315 008a AC42     		cmp	r4, r5
 316 008c CBDB     		blt	.L12
 262:..\..\..\arduinoLCD\test\Pain Drain\libraries\lvgl\src\draw\sw/lv_draw_sw_transform.c ****         }
 263:..\..\..\arduinoLCD\test\Pain Drain\libraries\lvgl\src\draw\sw/lv_draw_sw_transform.c ****     }
 264:..\..\..\arduinoLCD\test\Pain Drain\libraries\lvgl\src\draw\sw/lv_draw_sw_transform.c **** }
 317              		.loc 1 264 0 is_stmt 1
 318 008e 03B0     		add	sp, sp, #12
 319              		@ sp needed
 320              	.LVL44:
 321              	.LVL45:
 322 0090 3CBC     		pop	{r2, r3, r4, r5}
 323 0092 9046     		mov	r8, r2
 324 0094 9946     		mov	r9, r3
 325 0096 A246     		mov	r10, r4
 326 0098 AB46     		mov	fp, r5
 327 009a F0BD     		pop	{r4, r5, r6, r7, pc}
 328              		.cfi_endproc
 329              	.LFE162:
 330              		.size	rgb565a8_no_aa, .-rgb565a8_no_aa
 331              		.section	.text.transform_point_upscaled,"ax",%progbits
 332              		.align	2
 333              		.code	16
 334              		.thumb_func
 335              		.type	transform_point_upscaled, %function
 336              	transform_point_upscaled:
 337              	.LFB164:
 265:..\..\..\arduinoLCD\test\Pain Drain\libraries\lvgl\src\draw\sw/lv_draw_sw_transform.c **** #endif
 266:..\..\..\arduinoLCD\test\Pain Drain\libraries\lvgl\src\draw\sw/lv_draw_sw_transform.c **** 
 267:..\..\..\arduinoLCD\test\Pain Drain\libraries\lvgl\src\draw\sw/lv_draw_sw_transform.c **** 
 268:..\..\..\arduinoLCD\test\Pain Drain\libraries\lvgl\src\draw\sw/lv_draw_sw_transform.c **** static void argb_and_rgb_aa(const uint8_t * src, lv_coord_t src_w, lv_coord_t src_h, lv_coord_t src
 269:..\..\..\arduinoLCD\test\Pain Drain\libraries\lvgl\src\draw\sw/lv_draw_sw_transform.c ****                             int32_t xs_ups, int32_t ys_ups, int32_t xs_step, int32_t ys_step,
 270:..\..\..\arduinoLCD\test\Pain Drain\libraries\lvgl\src\draw\sw/lv_draw_sw_transform.c ****                             int32_t x_end, lv_color_t * cbuf, uint8_t * abuf, lv_img_cf_t cf)
 271:..\..\..\arduinoLCD\test\Pain Drain\libraries\lvgl\src\draw\sw/lv_draw_sw_transform.c **** {
 272:..\..\..\arduinoLCD\test\Pain Drain\libraries\lvgl\src\draw\sw/lv_draw_sw_transform.c ****     int32_t xs_ups_start = xs_ups;
 273:..\..\..\arduinoLCD\test\Pain Drain\libraries\lvgl\src\draw\sw/lv_draw_sw_transform.c ****     int32_t ys_ups_start = ys_ups;
 274:..\..\..\arduinoLCD\test\Pain Drain\libraries\lvgl\src\draw\sw/lv_draw_sw_transform.c ****     bool has_alpha;
 275:..\..\..\arduinoLCD\test\Pain Drain\libraries\lvgl\src\draw\sw/lv_draw_sw_transform.c ****     int32_t px_size;
 276:..\..\..\arduinoLCD\test\Pain Drain\libraries\lvgl\src\draw\sw/lv_draw_sw_transform.c ****     lv_color_t ck = {0};
 277:..\..\..\arduinoLCD\test\Pain Drain\libraries\lvgl\src\draw\sw/lv_draw_sw_transform.c ****     switch(cf) {
 278:..\..\..\arduinoLCD\test\Pain Drain\libraries\lvgl\src\draw\sw/lv_draw_sw_transform.c ****         case LV_IMG_CF_TRUE_COLOR:
 279:..\..\..\arduinoLCD\test\Pain Drain\libraries\lvgl\src\draw\sw/lv_draw_sw_transform.c ****             has_alpha = false;
 280:..\..\..\arduinoLCD\test\Pain Drain\libraries\lvgl\src\draw\sw/lv_draw_sw_transform.c ****             px_size = sizeof(lv_color_t);
 281:..\..\..\arduinoLCD\test\Pain Drain\libraries\lvgl\src\draw\sw/lv_draw_sw_transform.c ****             break;
 282:..\..\..\arduinoLCD\test\Pain Drain\libraries\lvgl\src\draw\sw/lv_draw_sw_transform.c ****         case LV_IMG_CF_TRUE_COLOR_ALPHA:
 283:..\..\..\arduinoLCD\test\Pain Drain\libraries\lvgl\src\draw\sw/lv_draw_sw_transform.c ****             has_alpha = true;
 284:..\..\..\arduinoLCD\test\Pain Drain\libraries\lvgl\src\draw\sw/lv_draw_sw_transform.c ****             px_size = LV_IMG_PX_SIZE_ALPHA_BYTE;
 285:..\..\..\arduinoLCD\test\Pain Drain\libraries\lvgl\src\draw\sw/lv_draw_sw_transform.c ****             break;
 286:..\..\..\arduinoLCD\test\Pain Drain\libraries\lvgl\src\draw\sw/lv_draw_sw_transform.c ****         case LV_IMG_CF_TRUE_COLOR_CHROMA_KEYED: {
ARM GAS  C:\Users\haske\AppData\Local\Temp\ccOknJt1.s 			page 12


 287:..\..\..\arduinoLCD\test\Pain Drain\libraries\lvgl\src\draw\sw/lv_draw_sw_transform.c ****                 has_alpha = true;
 288:..\..\..\arduinoLCD\test\Pain Drain\libraries\lvgl\src\draw\sw/lv_draw_sw_transform.c ****                 px_size = sizeof(lv_color_t);
 289:..\..\..\arduinoLCD\test\Pain Drain\libraries\lvgl\src\draw\sw/lv_draw_sw_transform.c ****                 lv_disp_t * d = _lv_refr_get_disp_refreshing();
 290:..\..\..\arduinoLCD\test\Pain Drain\libraries\lvgl\src\draw\sw/lv_draw_sw_transform.c ****                 ck = d->driver->color_chroma_key;
 291:..\..\..\arduinoLCD\test\Pain Drain\libraries\lvgl\src\draw\sw/lv_draw_sw_transform.c ****                 break;
 292:..\..\..\arduinoLCD\test\Pain Drain\libraries\lvgl\src\draw\sw/lv_draw_sw_transform.c ****             }
 293:..\..\..\arduinoLCD\test\Pain Drain\libraries\lvgl\src\draw\sw/lv_draw_sw_transform.c **** #if LV_COLOR_DEPTH == 16
 294:..\..\..\arduinoLCD\test\Pain Drain\libraries\lvgl\src\draw\sw/lv_draw_sw_transform.c ****         case LV_IMG_CF_RGB565A8:
 295:..\..\..\arduinoLCD\test\Pain Drain\libraries\lvgl\src\draw\sw/lv_draw_sw_transform.c ****             has_alpha = true;
 296:..\..\..\arduinoLCD\test\Pain Drain\libraries\lvgl\src\draw\sw/lv_draw_sw_transform.c ****             px_size = sizeof(lv_color_t);
 297:..\..\..\arduinoLCD\test\Pain Drain\libraries\lvgl\src\draw\sw/lv_draw_sw_transform.c ****             break;
 298:..\..\..\arduinoLCD\test\Pain Drain\libraries\lvgl\src\draw\sw/lv_draw_sw_transform.c **** #endif
 299:..\..\..\arduinoLCD\test\Pain Drain\libraries\lvgl\src\draw\sw/lv_draw_sw_transform.c ****         default:
 300:..\..\..\arduinoLCD\test\Pain Drain\libraries\lvgl\src\draw\sw/lv_draw_sw_transform.c ****             return;
 301:..\..\..\arduinoLCD\test\Pain Drain\libraries\lvgl\src\draw\sw/lv_draw_sw_transform.c ****     }
 302:..\..\..\arduinoLCD\test\Pain Drain\libraries\lvgl\src\draw\sw/lv_draw_sw_transform.c **** 
 303:..\..\..\arduinoLCD\test\Pain Drain\libraries\lvgl\src\draw\sw/lv_draw_sw_transform.c ****     lv_coord_t x;
 304:..\..\..\arduinoLCD\test\Pain Drain\libraries\lvgl\src\draw\sw/lv_draw_sw_transform.c ****     for(x = 0; x < x_end; x++) {
 305:..\..\..\arduinoLCD\test\Pain Drain\libraries\lvgl\src\draw\sw/lv_draw_sw_transform.c ****         xs_ups = xs_ups_start + ((xs_step * x) >> 8);
 306:..\..\..\arduinoLCD\test\Pain Drain\libraries\lvgl\src\draw\sw/lv_draw_sw_transform.c ****         ys_ups = ys_ups_start + ((ys_step * x) >> 8);
 307:..\..\..\arduinoLCD\test\Pain Drain\libraries\lvgl\src\draw\sw/lv_draw_sw_transform.c **** 
 308:..\..\..\arduinoLCD\test\Pain Drain\libraries\lvgl\src\draw\sw/lv_draw_sw_transform.c ****         int32_t xs_int = xs_ups >> 8;
 309:..\..\..\arduinoLCD\test\Pain Drain\libraries\lvgl\src\draw\sw/lv_draw_sw_transform.c ****         int32_t ys_int = ys_ups >> 8;
 310:..\..\..\arduinoLCD\test\Pain Drain\libraries\lvgl\src\draw\sw/lv_draw_sw_transform.c **** 
 311:..\..\..\arduinoLCD\test\Pain Drain\libraries\lvgl\src\draw\sw/lv_draw_sw_transform.c ****         /*Fully out of the image*/
 312:..\..\..\arduinoLCD\test\Pain Drain\libraries\lvgl\src\draw\sw/lv_draw_sw_transform.c ****         if(xs_int < 0 || xs_int >= src_w || ys_int < 0 || ys_int >= src_h) {
 313:..\..\..\arduinoLCD\test\Pain Drain\libraries\lvgl\src\draw\sw/lv_draw_sw_transform.c ****             abuf[x] = 0x00;
 314:..\..\..\arduinoLCD\test\Pain Drain\libraries\lvgl\src\draw\sw/lv_draw_sw_transform.c ****             continue;
 315:..\..\..\arduinoLCD\test\Pain Drain\libraries\lvgl\src\draw\sw/lv_draw_sw_transform.c ****         }
 316:..\..\..\arduinoLCD\test\Pain Drain\libraries\lvgl\src\draw\sw/lv_draw_sw_transform.c **** 
 317:..\..\..\arduinoLCD\test\Pain Drain\libraries\lvgl\src\draw\sw/lv_draw_sw_transform.c ****         /*Get the direction the hor and ver neighbor
 318:..\..\..\arduinoLCD\test\Pain Drain\libraries\lvgl\src\draw\sw/lv_draw_sw_transform.c ****          *`fract` will be in range of 0x00..0xFF and `next` (+/-1) indicates the direction*/
 319:..\..\..\arduinoLCD\test\Pain Drain\libraries\lvgl\src\draw\sw/lv_draw_sw_transform.c ****         int32_t xs_fract = xs_ups & 0xFF;
 320:..\..\..\arduinoLCD\test\Pain Drain\libraries\lvgl\src\draw\sw/lv_draw_sw_transform.c ****         int32_t ys_fract = ys_ups & 0xFF;
 321:..\..\..\arduinoLCD\test\Pain Drain\libraries\lvgl\src\draw\sw/lv_draw_sw_transform.c **** 
 322:..\..\..\arduinoLCD\test\Pain Drain\libraries\lvgl\src\draw\sw/lv_draw_sw_transform.c ****         int32_t x_next;
 323:..\..\..\arduinoLCD\test\Pain Drain\libraries\lvgl\src\draw\sw/lv_draw_sw_transform.c ****         int32_t y_next;
 324:..\..\..\arduinoLCD\test\Pain Drain\libraries\lvgl\src\draw\sw/lv_draw_sw_transform.c ****         if(xs_fract < 0x80) {
 325:..\..\..\arduinoLCD\test\Pain Drain\libraries\lvgl\src\draw\sw/lv_draw_sw_transform.c ****             x_next = -1;
 326:..\..\..\arduinoLCD\test\Pain Drain\libraries\lvgl\src\draw\sw/lv_draw_sw_transform.c ****             xs_fract = (0x7F - xs_fract) * 2;
 327:..\..\..\arduinoLCD\test\Pain Drain\libraries\lvgl\src\draw\sw/lv_draw_sw_transform.c ****         }
 328:..\..\..\arduinoLCD\test\Pain Drain\libraries\lvgl\src\draw\sw/lv_draw_sw_transform.c ****         else {
 329:..\..\..\arduinoLCD\test\Pain Drain\libraries\lvgl\src\draw\sw/lv_draw_sw_transform.c ****             x_next = 1;
 330:..\..\..\arduinoLCD\test\Pain Drain\libraries\lvgl\src\draw\sw/lv_draw_sw_transform.c ****             xs_fract = (xs_fract - 0x80) * 2;
 331:..\..\..\arduinoLCD\test\Pain Drain\libraries\lvgl\src\draw\sw/lv_draw_sw_transform.c ****         }
 332:..\..\..\arduinoLCD\test\Pain Drain\libraries\lvgl\src\draw\sw/lv_draw_sw_transform.c ****         if(ys_fract < 0x80) {
 333:..\..\..\arduinoLCD\test\Pain Drain\libraries\lvgl\src\draw\sw/lv_draw_sw_transform.c ****             y_next = -1;
 334:..\..\..\arduinoLCD\test\Pain Drain\libraries\lvgl\src\draw\sw/lv_draw_sw_transform.c ****             ys_fract = (0x7F - ys_fract) * 2;
 335:..\..\..\arduinoLCD\test\Pain Drain\libraries\lvgl\src\draw\sw/lv_draw_sw_transform.c ****         }
 336:..\..\..\arduinoLCD\test\Pain Drain\libraries\lvgl\src\draw\sw/lv_draw_sw_transform.c ****         else {
 337:..\..\..\arduinoLCD\test\Pain Drain\libraries\lvgl\src\draw\sw/lv_draw_sw_transform.c ****             y_next = 1;
 338:..\..\..\arduinoLCD\test\Pain Drain\libraries\lvgl\src\draw\sw/lv_draw_sw_transform.c ****             ys_fract = (ys_fract - 0x80) * 2;
 339:..\..\..\arduinoLCD\test\Pain Drain\libraries\lvgl\src\draw\sw/lv_draw_sw_transform.c ****         }
 340:..\..\..\arduinoLCD\test\Pain Drain\libraries\lvgl\src\draw\sw/lv_draw_sw_transform.c **** 
 341:..\..\..\arduinoLCD\test\Pain Drain\libraries\lvgl\src\draw\sw/lv_draw_sw_transform.c ****         const uint8_t * src_tmp = src;
 342:..\..\..\arduinoLCD\test\Pain Drain\libraries\lvgl\src\draw\sw/lv_draw_sw_transform.c ****         src_tmp += (ys_int * src_stride * px_size) + xs_int * px_size;
 343:..\..\..\arduinoLCD\test\Pain Drain\libraries\lvgl\src\draw\sw/lv_draw_sw_transform.c **** 
ARM GAS  C:\Users\haske\AppData\Local\Temp\ccOknJt1.s 			page 13


 344:..\..\..\arduinoLCD\test\Pain Drain\libraries\lvgl\src\draw\sw/lv_draw_sw_transform.c **** 
 345:..\..\..\arduinoLCD\test\Pain Drain\libraries\lvgl\src\draw\sw/lv_draw_sw_transform.c ****         if(xs_int + x_next >= 0 &&
 346:..\..\..\arduinoLCD\test\Pain Drain\libraries\lvgl\src\draw\sw/lv_draw_sw_transform.c ****            xs_int + x_next <= src_w - 1 &&
 347:..\..\..\arduinoLCD\test\Pain Drain\libraries\lvgl\src\draw\sw/lv_draw_sw_transform.c ****            ys_int + y_next >= 0 &&
 348:..\..\..\arduinoLCD\test\Pain Drain\libraries\lvgl\src\draw\sw/lv_draw_sw_transform.c ****            ys_int + y_next <= src_h - 1) {
 349:..\..\..\arduinoLCD\test\Pain Drain\libraries\lvgl\src\draw\sw/lv_draw_sw_transform.c **** 
 350:..\..\..\arduinoLCD\test\Pain Drain\libraries\lvgl\src\draw\sw/lv_draw_sw_transform.c ****             const uint8_t * px_base = src_tmp;
 351:..\..\..\arduinoLCD\test\Pain Drain\libraries\lvgl\src\draw\sw/lv_draw_sw_transform.c ****             const uint8_t * px_hor = src_tmp + x_next * px_size;
 352:..\..\..\arduinoLCD\test\Pain Drain\libraries\lvgl\src\draw\sw/lv_draw_sw_transform.c ****             const uint8_t * px_ver = src_tmp + y_next * src_stride * px_size;
 353:..\..\..\arduinoLCD\test\Pain Drain\libraries\lvgl\src\draw\sw/lv_draw_sw_transform.c ****             lv_color_t c_base;
 354:..\..\..\arduinoLCD\test\Pain Drain\libraries\lvgl\src\draw\sw/lv_draw_sw_transform.c ****             lv_color_t c_ver;
 355:..\..\..\arduinoLCD\test\Pain Drain\libraries\lvgl\src\draw\sw/lv_draw_sw_transform.c ****             lv_color_t c_hor;
 356:..\..\..\arduinoLCD\test\Pain Drain\libraries\lvgl\src\draw\sw/lv_draw_sw_transform.c **** 
 357:..\..\..\arduinoLCD\test\Pain Drain\libraries\lvgl\src\draw\sw/lv_draw_sw_transform.c ****             if(has_alpha) {
 358:..\..\..\arduinoLCD\test\Pain Drain\libraries\lvgl\src\draw\sw/lv_draw_sw_transform.c ****                 lv_opa_t a_base;
 359:..\..\..\arduinoLCD\test\Pain Drain\libraries\lvgl\src\draw\sw/lv_draw_sw_transform.c ****                 lv_opa_t a_ver;
 360:..\..\..\arduinoLCD\test\Pain Drain\libraries\lvgl\src\draw\sw/lv_draw_sw_transform.c ****                 lv_opa_t a_hor;
 361:..\..\..\arduinoLCD\test\Pain Drain\libraries\lvgl\src\draw\sw/lv_draw_sw_transform.c ****                 if(cf == LV_IMG_CF_TRUE_COLOR_ALPHA) {
 362:..\..\..\arduinoLCD\test\Pain Drain\libraries\lvgl\src\draw\sw/lv_draw_sw_transform.c ****                     a_base = px_base[LV_IMG_PX_SIZE_ALPHA_BYTE - 1];
 363:..\..\..\arduinoLCD\test\Pain Drain\libraries\lvgl\src\draw\sw/lv_draw_sw_transform.c ****                     a_ver = px_ver[LV_IMG_PX_SIZE_ALPHA_BYTE - 1];
 364:..\..\..\arduinoLCD\test\Pain Drain\libraries\lvgl\src\draw\sw/lv_draw_sw_transform.c ****                     a_hor = px_hor[LV_IMG_PX_SIZE_ALPHA_BYTE - 1];
 365:..\..\..\arduinoLCD\test\Pain Drain\libraries\lvgl\src\draw\sw/lv_draw_sw_transform.c ****                 }
 366:..\..\..\arduinoLCD\test\Pain Drain\libraries\lvgl\src\draw\sw/lv_draw_sw_transform.c **** #if LV_COLOR_DEPTH == 16
 367:..\..\..\arduinoLCD\test\Pain Drain\libraries\lvgl\src\draw\sw/lv_draw_sw_transform.c ****                 else if(cf == LV_IMG_CF_RGB565A8) {
 368:..\..\..\arduinoLCD\test\Pain Drain\libraries\lvgl\src\draw\sw/lv_draw_sw_transform.c ****                     const lv_opa_t * a_tmp = src + src_stride * src_h * sizeof(lv_color_t);
 369:..\..\..\arduinoLCD\test\Pain Drain\libraries\lvgl\src\draw\sw/lv_draw_sw_transform.c ****                     a_base = *(a_tmp + (ys_int * src_stride) + xs_int);
 370:..\..\..\arduinoLCD\test\Pain Drain\libraries\lvgl\src\draw\sw/lv_draw_sw_transform.c ****                     a_hor = *(a_tmp + (ys_int * src_stride) + xs_int + x_next);
 371:..\..\..\arduinoLCD\test\Pain Drain\libraries\lvgl\src\draw\sw/lv_draw_sw_transform.c ****                     a_ver = *(a_tmp + ((ys_int + y_next) * src_stride) + xs_int);
 372:..\..\..\arduinoLCD\test\Pain Drain\libraries\lvgl\src\draw\sw/lv_draw_sw_transform.c ****                 }
 373:..\..\..\arduinoLCD\test\Pain Drain\libraries\lvgl\src\draw\sw/lv_draw_sw_transform.c **** #endif
 374:..\..\..\arduinoLCD\test\Pain Drain\libraries\lvgl\src\draw\sw/lv_draw_sw_transform.c ****                 else if(cf == LV_IMG_CF_TRUE_COLOR_CHROMA_KEYED) {
 375:..\..\..\arduinoLCD\test\Pain Drain\libraries\lvgl\src\draw\sw/lv_draw_sw_transform.c ****                     if(((lv_color_t *)px_base)->full == ck.full ||
 376:..\..\..\arduinoLCD\test\Pain Drain\libraries\lvgl\src\draw\sw/lv_draw_sw_transform.c ****                        ((lv_color_t *)px_ver)->full == ck.full ||
 377:..\..\..\arduinoLCD\test\Pain Drain\libraries\lvgl\src\draw\sw/lv_draw_sw_transform.c ****                        ((lv_color_t *)px_hor)->full == ck.full) {
 378:..\..\..\arduinoLCD\test\Pain Drain\libraries\lvgl\src\draw\sw/lv_draw_sw_transform.c ****                         abuf[x] = 0x00;
 379:..\..\..\arduinoLCD\test\Pain Drain\libraries\lvgl\src\draw\sw/lv_draw_sw_transform.c ****                         continue;
 380:..\..\..\arduinoLCD\test\Pain Drain\libraries\lvgl\src\draw\sw/lv_draw_sw_transform.c ****                     }
 381:..\..\..\arduinoLCD\test\Pain Drain\libraries\lvgl\src\draw\sw/lv_draw_sw_transform.c ****                     else {
 382:..\..\..\arduinoLCD\test\Pain Drain\libraries\lvgl\src\draw\sw/lv_draw_sw_transform.c ****                         a_base = 0xff;
 383:..\..\..\arduinoLCD\test\Pain Drain\libraries\lvgl\src\draw\sw/lv_draw_sw_transform.c ****                         a_ver = 0xff;
 384:..\..\..\arduinoLCD\test\Pain Drain\libraries\lvgl\src\draw\sw/lv_draw_sw_transform.c ****                         a_hor = 0xff;
 385:..\..\..\arduinoLCD\test\Pain Drain\libraries\lvgl\src\draw\sw/lv_draw_sw_transform.c ****                     }
 386:..\..\..\arduinoLCD\test\Pain Drain\libraries\lvgl\src\draw\sw/lv_draw_sw_transform.c ****                 }
 387:..\..\..\arduinoLCD\test\Pain Drain\libraries\lvgl\src\draw\sw/lv_draw_sw_transform.c ****                 else {
 388:..\..\..\arduinoLCD\test\Pain Drain\libraries\lvgl\src\draw\sw/lv_draw_sw_transform.c ****                     a_base = 0xff;
 389:..\..\..\arduinoLCD\test\Pain Drain\libraries\lvgl\src\draw\sw/lv_draw_sw_transform.c ****                     a_ver = 0xff;
 390:..\..\..\arduinoLCD\test\Pain Drain\libraries\lvgl\src\draw\sw/lv_draw_sw_transform.c ****                     a_hor = 0xff;
 391:..\..\..\arduinoLCD\test\Pain Drain\libraries\lvgl\src\draw\sw/lv_draw_sw_transform.c ****                 }
 392:..\..\..\arduinoLCD\test\Pain Drain\libraries\lvgl\src\draw\sw/lv_draw_sw_transform.c **** 
 393:..\..\..\arduinoLCD\test\Pain Drain\libraries\lvgl\src\draw\sw/lv_draw_sw_transform.c ****                 if(a_ver != a_base) a_ver = ((a_ver * ys_fract) + (a_base * (0x100 - ys_fract))) >>
 394:..\..\..\arduinoLCD\test\Pain Drain\libraries\lvgl\src\draw\sw/lv_draw_sw_transform.c ****                 if(a_hor != a_base) a_hor = ((a_hor * xs_fract) + (a_base * (0x100 - xs_fract))) >>
 395:..\..\..\arduinoLCD\test\Pain Drain\libraries\lvgl\src\draw\sw/lv_draw_sw_transform.c ****                 abuf[x] = (a_ver + a_hor) >> 1;
 396:..\..\..\arduinoLCD\test\Pain Drain\libraries\lvgl\src\draw\sw/lv_draw_sw_transform.c **** 
 397:..\..\..\arduinoLCD\test\Pain Drain\libraries\lvgl\src\draw\sw/lv_draw_sw_transform.c ****                 if(abuf[x] == 0x00) continue;
 398:..\..\..\arduinoLCD\test\Pain Drain\libraries\lvgl\src\draw\sw/lv_draw_sw_transform.c **** 
 399:..\..\..\arduinoLCD\test\Pain Drain\libraries\lvgl\src\draw\sw/lv_draw_sw_transform.c **** #if LV_COLOR_DEPTH == 1 || LV_COLOR_DEPTH == 8
 400:..\..\..\arduinoLCD\test\Pain Drain\libraries\lvgl\src\draw\sw/lv_draw_sw_transform.c ****                 c_base.full = px_base[0];
ARM GAS  C:\Users\haske\AppData\Local\Temp\ccOknJt1.s 			page 14


 401:..\..\..\arduinoLCD\test\Pain Drain\libraries\lvgl\src\draw\sw/lv_draw_sw_transform.c ****                 c_ver.full = px_ver[0];
 402:..\..\..\arduinoLCD\test\Pain Drain\libraries\lvgl\src\draw\sw/lv_draw_sw_transform.c ****                 c_hor.full = px_hor[0];
 403:..\..\..\arduinoLCD\test\Pain Drain\libraries\lvgl\src\draw\sw/lv_draw_sw_transform.c **** #elif LV_COLOR_DEPTH == 16
 404:..\..\..\arduinoLCD\test\Pain Drain\libraries\lvgl\src\draw\sw/lv_draw_sw_transform.c ****                 c_base.full = px_base[0] + (px_base[1] << 8);
 405:..\..\..\arduinoLCD\test\Pain Drain\libraries\lvgl\src\draw\sw/lv_draw_sw_transform.c ****                 c_ver.full = px_ver[0] + (px_ver[1] << 8);
 406:..\..\..\arduinoLCD\test\Pain Drain\libraries\lvgl\src\draw\sw/lv_draw_sw_transform.c ****                 c_hor.full = px_hor[0] + (px_hor[1] << 8);
 407:..\..\..\arduinoLCD\test\Pain Drain\libraries\lvgl\src\draw\sw/lv_draw_sw_transform.c **** #elif LV_COLOR_DEPTH == 32
 408:..\..\..\arduinoLCD\test\Pain Drain\libraries\lvgl\src\draw\sw/lv_draw_sw_transform.c ****                 c_base.full = *((uint32_t *)px_base);
 409:..\..\..\arduinoLCD\test\Pain Drain\libraries\lvgl\src\draw\sw/lv_draw_sw_transform.c ****                 c_ver.full = *((uint32_t *)px_ver);
 410:..\..\..\arduinoLCD\test\Pain Drain\libraries\lvgl\src\draw\sw/lv_draw_sw_transform.c ****                 c_hor.full = *((uint32_t *)px_hor);
 411:..\..\..\arduinoLCD\test\Pain Drain\libraries\lvgl\src\draw\sw/lv_draw_sw_transform.c **** #endif
 412:..\..\..\arduinoLCD\test\Pain Drain\libraries\lvgl\src\draw\sw/lv_draw_sw_transform.c ****             }
 413:..\..\..\arduinoLCD\test\Pain Drain\libraries\lvgl\src\draw\sw/lv_draw_sw_transform.c ****             /*No alpha channel -> RGB*/
 414:..\..\..\arduinoLCD\test\Pain Drain\libraries\lvgl\src\draw\sw/lv_draw_sw_transform.c ****             else {
 415:..\..\..\arduinoLCD\test\Pain Drain\libraries\lvgl\src\draw\sw/lv_draw_sw_transform.c ****                 c_base = *((const lv_color_t *) px_base);
 416:..\..\..\arduinoLCD\test\Pain Drain\libraries\lvgl\src\draw\sw/lv_draw_sw_transform.c ****                 c_hor = *((const lv_color_t *) px_hor);
 417:..\..\..\arduinoLCD\test\Pain Drain\libraries\lvgl\src\draw\sw/lv_draw_sw_transform.c ****                 c_ver = *((const lv_color_t *) px_ver);
 418:..\..\..\arduinoLCD\test\Pain Drain\libraries\lvgl\src\draw\sw/lv_draw_sw_transform.c ****                 abuf[x] = 0xff;
 419:..\..\..\arduinoLCD\test\Pain Drain\libraries\lvgl\src\draw\sw/lv_draw_sw_transform.c ****             }
 420:..\..\..\arduinoLCD\test\Pain Drain\libraries\lvgl\src\draw\sw/lv_draw_sw_transform.c **** 
 421:..\..\..\arduinoLCD\test\Pain Drain\libraries\lvgl\src\draw\sw/lv_draw_sw_transform.c ****             if(c_base.full == c_ver.full && c_base.full == c_hor.full) {
 422:..\..\..\arduinoLCD\test\Pain Drain\libraries\lvgl\src\draw\sw/lv_draw_sw_transform.c ****                 cbuf[x] = c_base;
 423:..\..\..\arduinoLCD\test\Pain Drain\libraries\lvgl\src\draw\sw/lv_draw_sw_transform.c ****             }
 424:..\..\..\arduinoLCD\test\Pain Drain\libraries\lvgl\src\draw\sw/lv_draw_sw_transform.c ****             else {
 425:..\..\..\arduinoLCD\test\Pain Drain\libraries\lvgl\src\draw\sw/lv_draw_sw_transform.c ****                 c_ver = lv_color_mix(c_ver, c_base, ys_fract);
 426:..\..\..\arduinoLCD\test\Pain Drain\libraries\lvgl\src\draw\sw/lv_draw_sw_transform.c ****                 c_hor = lv_color_mix(c_hor, c_base, xs_fract);
 427:..\..\..\arduinoLCD\test\Pain Drain\libraries\lvgl\src\draw\sw/lv_draw_sw_transform.c ****                 cbuf[x] = lv_color_mix(c_hor, c_ver, LV_OPA_50);
 428:..\..\..\arduinoLCD\test\Pain Drain\libraries\lvgl\src\draw\sw/lv_draw_sw_transform.c ****             }
 429:..\..\..\arduinoLCD\test\Pain Drain\libraries\lvgl\src\draw\sw/lv_draw_sw_transform.c ****         }
 430:..\..\..\arduinoLCD\test\Pain Drain\libraries\lvgl\src\draw\sw/lv_draw_sw_transform.c ****         /*Partially out of the image*/
 431:..\..\..\arduinoLCD\test\Pain Drain\libraries\lvgl\src\draw\sw/lv_draw_sw_transform.c ****         else {
 432:..\..\..\arduinoLCD\test\Pain Drain\libraries\lvgl\src\draw\sw/lv_draw_sw_transform.c **** #if LV_COLOR_DEPTH == 1 || LV_COLOR_DEPTH == 8
 433:..\..\..\arduinoLCD\test\Pain Drain\libraries\lvgl\src\draw\sw/lv_draw_sw_transform.c ****             cbuf[x].full = src_tmp[0];
 434:..\..\..\arduinoLCD\test\Pain Drain\libraries\lvgl\src\draw\sw/lv_draw_sw_transform.c **** #elif LV_COLOR_DEPTH == 16
 435:..\..\..\arduinoLCD\test\Pain Drain\libraries\lvgl\src\draw\sw/lv_draw_sw_transform.c ****             cbuf[x].full = src_tmp[0] + (src_tmp[1] << 8);
 436:..\..\..\arduinoLCD\test\Pain Drain\libraries\lvgl\src\draw\sw/lv_draw_sw_transform.c **** #elif LV_COLOR_DEPTH == 32
 437:..\..\..\arduinoLCD\test\Pain Drain\libraries\lvgl\src\draw\sw/lv_draw_sw_transform.c ****             cbuf[x].full = *((uint32_t *)src_tmp);
 438:..\..\..\arduinoLCD\test\Pain Drain\libraries\lvgl\src\draw\sw/lv_draw_sw_transform.c **** #endif
 439:..\..\..\arduinoLCD\test\Pain Drain\libraries\lvgl\src\draw\sw/lv_draw_sw_transform.c ****             lv_opa_t a;
 440:..\..\..\arduinoLCD\test\Pain Drain\libraries\lvgl\src\draw\sw/lv_draw_sw_transform.c ****             switch(cf) {
 441:..\..\..\arduinoLCD\test\Pain Drain\libraries\lvgl\src\draw\sw/lv_draw_sw_transform.c ****                 case LV_IMG_CF_TRUE_COLOR_ALPHA:
 442:..\..\..\arduinoLCD\test\Pain Drain\libraries\lvgl\src\draw\sw/lv_draw_sw_transform.c ****                     a = src_tmp[LV_IMG_PX_SIZE_ALPHA_BYTE - 1];
 443:..\..\..\arduinoLCD\test\Pain Drain\libraries\lvgl\src\draw\sw/lv_draw_sw_transform.c ****                     break;
 444:..\..\..\arduinoLCD\test\Pain Drain\libraries\lvgl\src\draw\sw/lv_draw_sw_transform.c ****                 case LV_IMG_CF_TRUE_COLOR_CHROMA_KEYED:
 445:..\..\..\arduinoLCD\test\Pain Drain\libraries\lvgl\src\draw\sw/lv_draw_sw_transform.c ****                     a = cbuf[x].full == ck.full ? 0x00 : 0xff;
 446:..\..\..\arduinoLCD\test\Pain Drain\libraries\lvgl\src\draw\sw/lv_draw_sw_transform.c ****                     break;
 447:..\..\..\arduinoLCD\test\Pain Drain\libraries\lvgl\src\draw\sw/lv_draw_sw_transform.c **** #if LV_COLOR_DEPTH == 16
 448:..\..\..\arduinoLCD\test\Pain Drain\libraries\lvgl\src\draw\sw/lv_draw_sw_transform.c ****                 case LV_IMG_CF_RGB565A8:
 449:..\..\..\arduinoLCD\test\Pain Drain\libraries\lvgl\src\draw\sw/lv_draw_sw_transform.c ****                     a = *(src + src_stride * src_h * sizeof(lv_color_t) + (ys_int * src_stride) + x
 450:..\..\..\arduinoLCD\test\Pain Drain\libraries\lvgl\src\draw\sw/lv_draw_sw_transform.c ****                     break;
 451:..\..\..\arduinoLCD\test\Pain Drain\libraries\lvgl\src\draw\sw/lv_draw_sw_transform.c **** #endif
 452:..\..\..\arduinoLCD\test\Pain Drain\libraries\lvgl\src\draw\sw/lv_draw_sw_transform.c ****                 default:
 453:..\..\..\arduinoLCD\test\Pain Drain\libraries\lvgl\src\draw\sw/lv_draw_sw_transform.c ****                     a = 0xff;
 454:..\..\..\arduinoLCD\test\Pain Drain\libraries\lvgl\src\draw\sw/lv_draw_sw_transform.c ****             }
 455:..\..\..\arduinoLCD\test\Pain Drain\libraries\lvgl\src\draw\sw/lv_draw_sw_transform.c **** 
 456:..\..\..\arduinoLCD\test\Pain Drain\libraries\lvgl\src\draw\sw/lv_draw_sw_transform.c ****             if((xs_int == 0 && x_next < 0) || (xs_int == src_w - 1 && x_next > 0))  {
 457:..\..\..\arduinoLCD\test\Pain Drain\libraries\lvgl\src\draw\sw/lv_draw_sw_transform.c ****                 abuf[x] = (a * (0xFF - xs_fract)) >> 8;
ARM GAS  C:\Users\haske\AppData\Local\Temp\ccOknJt1.s 			page 15


 458:..\..\..\arduinoLCD\test\Pain Drain\libraries\lvgl\src\draw\sw/lv_draw_sw_transform.c ****             }
 459:..\..\..\arduinoLCD\test\Pain Drain\libraries\lvgl\src\draw\sw/lv_draw_sw_transform.c ****             else if((ys_int == 0 && y_next < 0) || (ys_int == src_h - 1 && y_next > 0))  {
 460:..\..\..\arduinoLCD\test\Pain Drain\libraries\lvgl\src\draw\sw/lv_draw_sw_transform.c ****                 abuf[x] = (a * (0xFF - ys_fract)) >> 8;
 461:..\..\..\arduinoLCD\test\Pain Drain\libraries\lvgl\src\draw\sw/lv_draw_sw_transform.c ****             }
 462:..\..\..\arduinoLCD\test\Pain Drain\libraries\lvgl\src\draw\sw/lv_draw_sw_transform.c ****             else {
 463:..\..\..\arduinoLCD\test\Pain Drain\libraries\lvgl\src\draw\sw/lv_draw_sw_transform.c ****                 abuf[x] = 0x00;
 464:..\..\..\arduinoLCD\test\Pain Drain\libraries\lvgl\src\draw\sw/lv_draw_sw_transform.c ****             }
 465:..\..\..\arduinoLCD\test\Pain Drain\libraries\lvgl\src\draw\sw/lv_draw_sw_transform.c ****         }
 466:..\..\..\arduinoLCD\test\Pain Drain\libraries\lvgl\src\draw\sw/lv_draw_sw_transform.c ****     }
 467:..\..\..\arduinoLCD\test\Pain Drain\libraries\lvgl\src\draw\sw/lv_draw_sw_transform.c **** }
 468:..\..\..\arduinoLCD\test\Pain Drain\libraries\lvgl\src\draw\sw/lv_draw_sw_transform.c **** 
 469:..\..\..\arduinoLCD\test\Pain Drain\libraries\lvgl\src\draw\sw/lv_draw_sw_transform.c **** static void transform_point_upscaled(point_transform_dsc_t * t, int32_t xin, int32_t yin, int32_t *
 470:..\..\..\arduinoLCD\test\Pain Drain\libraries\lvgl\src\draw\sw/lv_draw_sw_transform.c ****                                      int32_t * yout)
 471:..\..\..\arduinoLCD\test\Pain Drain\libraries\lvgl\src\draw\sw/lv_draw_sw_transform.c **** {
 338              		.loc 1 471 0
 339              		.cfi_startproc
 340              		@ args = 4, pretend = 0, frame = 0
 341              		@ frame_needed = 0, uses_anonymous_args = 0
 342              	.LVL46:
 343 0000 F0B5     		push	{r4, r5, r6, r7, lr}
 344              		.cfi_def_cfa_offset 20
 345              		.cfi_offset 4, -20
 346              		.cfi_offset 5, -16
 347              		.cfi_offset 6, -12
 348              		.cfi_offset 7, -8
 349              		.cfi_offset 14, -4
 472:..\..\..\arduinoLCD\test\Pain Drain\libraries\lvgl\src\draw\sw/lv_draw_sw_transform.c ****     if(t->angle == 0 && t->zoom == LV_IMG_ZOOM_NONE) {
 350              		.loc 1 472 0
 351 0002 C469     		ldr	r4, [r0, #28]
 352 0004 002C     		cmp	r4, #0
 353 0006 0AD1     		bne	.L14
 354              		.loc 1 472 0 is_stmt 0 discriminator 1
 355 0008 8025     		movs	r5, #128
 356 000a 6D00     		lsls	r5, r5, #1
 357 000c 8669     		ldr	r6, [r0, #24]
 358 000e AE42     		cmp	r6, r5
 359 0010 05D1     		bne	.L14
 473:..\..\..\arduinoLCD\test\Pain Drain\libraries\lvgl\src\draw\sw/lv_draw_sw_transform.c ****         *xout = xin * 256;
 360              		.loc 1 473 0 is_stmt 1
 361 0012 0902     		lsls	r1, r1, #8
 362              	.LVL47:
 363 0014 1960     		str	r1, [r3]
 474:..\..\..\arduinoLCD\test\Pain Drain\libraries\lvgl\src\draw\sw/lv_draw_sw_transform.c ****         *yout = yin * 256;
 364              		.loc 1 474 0
 365 0016 1202     		lsls	r2, r2, #8
 366              	.LVL48:
 367 0018 059B     		ldr	r3, [sp, #20]
 368              	.LVL49:
 369 001a 1A60     		str	r2, [r3]
 475:..\..\..\arduinoLCD\test\Pain Drain\libraries\lvgl\src\draw\sw/lv_draw_sw_transform.c ****         return;
 370              		.loc 1 475 0
 371 001c 45E0     		b	.L13
 372              	.LVL50:
 373              	.L14:
 476:..\..\..\arduinoLCD\test\Pain Drain\libraries\lvgl\src\draw\sw/lv_draw_sw_transform.c ****     }
 477:..\..\..\arduinoLCD\test\Pain Drain\libraries\lvgl\src\draw\sw/lv_draw_sw_transform.c **** 
 478:..\..\..\arduinoLCD\test\Pain Drain\libraries\lvgl\src\draw\sw/lv_draw_sw_transform.c ****     xin -= t->pivot.x;
ARM GAS  C:\Users\haske\AppData\Local\Temp\ccOknJt1.s 			page 16


 374              		.loc 1 478 0
 375 001e 2826     		movs	r6, #40
 376 0020 855F     		ldrsh	r5, [r0, r6]
 377 0022 491B     		subs	r1, r1, r5
 378              	.LVL51:
 479:..\..\..\arduinoLCD\test\Pain Drain\libraries\lvgl\src\draw\sw/lv_draw_sw_transform.c ****     yin -= t->pivot.y;
 379              		.loc 1 479 0
 380 0024 2A26     		movs	r6, #42
 381 0026 855F     		ldrsh	r5, [r0, r6]
 382 0028 521B     		subs	r2, r2, r5
 383              	.LVL52:
 480:..\..\..\arduinoLCD\test\Pain Drain\libraries\lvgl\src\draw\sw/lv_draw_sw_transform.c **** 
 481:..\..\..\arduinoLCD\test\Pain Drain\libraries\lvgl\src\draw\sw/lv_draw_sw_transform.c ****     if(t->angle == 0) {
 384              		.loc 1 481 0
 385 002a 002C     		cmp	r4, #0
 386 002c 0CD1     		bne	.L16
 482:..\..\..\arduinoLCD\test\Pain Drain\libraries\lvgl\src\draw\sw/lv_draw_sw_transform.c ****         *xout = ((int32_t)(xin * t->zoom)) + (t->pivot_x_256);
 387              		.loc 1 482 0
 388 002e 8469     		ldr	r4, [r0, #24]
 389 0030 6143     		muls	r1, r4
 390              	.LVL53:
 391 0032 046A     		ldr	r4, [r0, #32]
 392 0034 A446     		mov	ip, r4
 393 0036 6144     		add	r1, r1, ip
 394 0038 1960     		str	r1, [r3]
 395              	.LVL54:
 483:..\..\..\arduinoLCD\test\Pain Drain\libraries\lvgl\src\draw\sw/lv_draw_sw_transform.c ****         *yout = ((int32_t)(yin * t->zoom)) + (t->pivot_y_256);
 396              		.loc 1 483 0
 397 003a 8369     		ldr	r3, [r0, #24]
 398              	.LVL55:
 399 003c 5A43     		muls	r2, r3
 400              	.LVL56:
 401 003e 436A     		ldr	r3, [r0, #36]
 402 0040 D218     		adds	r2, r2, r3
 403 0042 059B     		ldr	r3, [sp, #20]
 404 0044 1A60     		str	r2, [r3]
 405 0046 30E0     		b	.L13
 406              	.LVL57:
 407              	.L16:
 484:..\..\..\arduinoLCD\test\Pain Drain\libraries\lvgl\src\draw\sw/lv_draw_sw_transform.c ****     }
 485:..\..\..\arduinoLCD\test\Pain Drain\libraries\lvgl\src\draw\sw/lv_draw_sw_transform.c ****     else if(t->zoom == LV_IMG_ZOOM_NONE) {
 408              		.loc 1 485 0
 409 0048 8769     		ldr	r7, [r0, #24]
 410 004a 8024     		movs	r4, #128
 411 004c 6400     		lsls	r4, r4, #1
 412 004e A742     		cmp	r7, r4
 413 0050 14D1     		bne	.L17
 486:..\..\..\arduinoLCD\test\Pain Drain\libraries\lvgl\src\draw\sw/lv_draw_sw_transform.c ****         *xout = ((t->cosma * xin - t->sinma * yin) >> 2) + (t->pivot_x_256);
 414              		.loc 1 486 0
 415 0052 4469     		ldr	r4, [r0, #20]
 416 0054 4C43     		muls	r4, r1
 417 0056 0569     		ldr	r5, [r0, #16]
 418 0058 5543     		muls	r5, r2
 419 005a 641B     		subs	r4, r4, r5
 420 005c A410     		asrs	r4, r4, #2
 421 005e 056A     		ldr	r5, [r0, #32]
 422 0060 AC46     		mov	ip, r5
ARM GAS  C:\Users\haske\AppData\Local\Temp\ccOknJt1.s 			page 17


 423 0062 6444     		add	r4, r4, ip
 424 0064 1C60     		str	r4, [r3]
 487:..\..\..\arduinoLCD\test\Pain Drain\libraries\lvgl\src\draw\sw/lv_draw_sw_transform.c ****         *yout = ((t->sinma * xin + t->cosma * yin) >> 2) + (t->pivot_y_256);
 425              		.loc 1 487 0
 426 0066 0369     		ldr	r3, [r0, #16]
 427              	.LVL58:
 428 0068 5943     		muls	r1, r3
 429              	.LVL59:
 430 006a 4369     		ldr	r3, [r0, #20]
 431 006c 5A43     		muls	r2, r3
 432              	.LVL60:
 433 006e 8A18     		adds	r2, r1, r2
 434 0070 9210     		asrs	r2, r2, #2
 435 0072 416A     		ldr	r1, [r0, #36]
 436 0074 5218     		adds	r2, r2, r1
 437 0076 059B     		ldr	r3, [sp, #20]
 438 0078 1A60     		str	r2, [r3]
 439 007a 16E0     		b	.L13
 440              	.LVL61:
 441              	.L17:
 488:..\..\..\arduinoLCD\test\Pain Drain\libraries\lvgl\src\draw\sw/lv_draw_sw_transform.c ****     }
 489:..\..\..\arduinoLCD\test\Pain Drain\libraries\lvgl\src\draw\sw/lv_draw_sw_transform.c ****     else {
 490:..\..\..\arduinoLCD\test\Pain Drain\libraries\lvgl\src\draw\sw/lv_draw_sw_transform.c ****         *xout = (((t->cosma * xin - t->sinma * yin) * t->zoom) >> 10) + (t->pivot_x_256);
 442              		.loc 1 490 0
 443 007c 4569     		ldr	r5, [r0, #20]
 444 007e 4D43     		muls	r5, r1
 445 0080 0669     		ldr	r6, [r0, #16]
 446 0082 5643     		muls	r6, r2
 447 0084 AC1B     		subs	r4, r5, r6
 448 0086 7C43     		muls	r4, r7
 449 0088 A412     		asrs	r4, r4, #10
 450 008a 056A     		ldr	r5, [r0, #32]
 451 008c AC46     		mov	ip, r5
 452 008e 6444     		add	r4, r4, ip
 453 0090 1C60     		str	r4, [r3]
 491:..\..\..\arduinoLCD\test\Pain Drain\libraries\lvgl\src\draw\sw/lv_draw_sw_transform.c ****         *yout = (((t->sinma * xin + t->cosma * yin) * t->zoom) >> 10) + (t->pivot_y_256);
 454              		.loc 1 491 0
 455 0092 0369     		ldr	r3, [r0, #16]
 456              	.LVL62:
 457 0094 5943     		muls	r1, r3
 458              	.LVL63:
 459 0096 4369     		ldr	r3, [r0, #20]
 460 0098 5A43     		muls	r2, r3
 461              	.LVL64:
 462 009a 8A18     		adds	r2, r1, r2
 463 009c 8369     		ldr	r3, [r0, #24]
 464 009e 5A43     		muls	r2, r3
 465 00a0 9212     		asrs	r2, r2, #10
 466 00a2 436A     		ldr	r3, [r0, #36]
 467 00a4 D218     		adds	r2, r2, r3
 468 00a6 059B     		ldr	r3, [sp, #20]
 469 00a8 1A60     		str	r2, [r3]
 470              	.L13:
 492:..\..\..\arduinoLCD\test\Pain Drain\libraries\lvgl\src\draw\sw/lv_draw_sw_transform.c ****     }
 493:..\..\..\arduinoLCD\test\Pain Drain\libraries\lvgl\src\draw\sw/lv_draw_sw_transform.c **** }
 471              		.loc 1 493 0
 472              		@ sp needed
ARM GAS  C:\Users\haske\AppData\Local\Temp\ccOknJt1.s 			page 18


 473 00aa F0BD     		pop	{r4, r5, r6, r7, pc}
 474              		.cfi_endproc
 475              	.LFE164:
 476              		.size	transform_point_upscaled, .-transform_point_upscaled
 477              		.section	.text.argb_and_rgb_aa,"ax",%progbits
 478              		.align	2
 479              		.code	16
 480              		.thumb_func
 481              		.type	argb_and_rgb_aa, %function
 482              	argb_and_rgb_aa:
 483              	.LFB163:
 271:..\..\..\arduinoLCD\test\Pain Drain\libraries\lvgl\src\draw\sw/lv_draw_sw_transform.c ****     int32_t xs_ups_start = xs_ups;
 484              		.loc 1 271 0
 485              		.cfi_startproc
 486              		@ args = 32, pretend = 0, frame = 56
 487              		@ frame_needed = 0, uses_anonymous_args = 0
 488              	.LVL65:
 489 0000 F0B5     		push	{r4, r5, r6, r7, lr}
 490              		.cfi_def_cfa_offset 20
 491              		.cfi_offset 4, -20
 492              		.cfi_offset 5, -16
 493              		.cfi_offset 6, -12
 494              		.cfi_offset 7, -8
 495              		.cfi_offset 14, -4
 496 0002 5F46     		mov	r7, fp
 497 0004 5646     		mov	r6, r10
 498 0006 4D46     		mov	r5, r9
 499 0008 4446     		mov	r4, r8
 500 000a F0B4     		push	{r4, r5, r6, r7}
 501              		.cfi_def_cfa_offset 36
 502              		.cfi_offset 8, -36
 503              		.cfi_offset 9, -32
 504              		.cfi_offset 10, -28
 505              		.cfi_offset 11, -24
 506 000c 8FB0     		sub	sp, sp, #60
 507              		.cfi_def_cfa_offset 96
 508 000e 0490     		str	r0, [sp, #16]
 509 0010 0F00     		movs	r7, r1
 510 0012 0092     		str	r2, [sp]
 511 0014 0393     		str	r3, [sp, #12]
 512 0016 189B     		ldr	r3, [sp, #96]
 513              	.LVL66:
 514 0018 9B46     		mov	fp, r3
 515 001a 1A9B     		ldr	r3, [sp, #104]
 516 001c 9A46     		mov	r10, r3
 517 001e 1C9B     		ldr	r3, [sp, #112]
 518 0020 9846     		mov	r8, r3
 519 0022 1FAB     		add	r3, sp, #124
 520              	.LVL67:
 521 0024 1B78     		ldrb	r3, [r3]
 522              	.LVL68:
 523 0026 9946     		mov	r9, r3
 524              	.LVL69:
 276:..\..\..\arduinoLCD\test\Pain Drain\libraries\lvgl\src\draw\sw/lv_draw_sw_transform.c ****     switch(cf) {
 525              		.loc 1 276 0
 526 0028 0023     		movs	r3, #0
 527              	.LVL70:
ARM GAS  C:\Users\haske\AppData\Local\Temp\ccOknJt1.s 			page 19


 528 002a 6A46     		mov	r2, sp
 529              	.LVL71:
 530 002c 5385     		strh	r3, [r2, #42]
 277:..\..\..\arduinoLCD\test\Pain Drain\libraries\lvgl\src\draw\sw/lv_draw_sw_transform.c ****         case LV_IMG_CF_TRUE_COLOR:
 531              		.loc 1 277 0
 532 002e 4B46     		mov	r3, r9
 533              	.LVL72:
 534 0030 052B     		cmp	r3, #5
 535 0032 1ED0     		beq	.L57
 536 0034 02D8     		bhi	.L21
 537 0036 042B     		cmp	r3, #4
 538 0038 06D0     		beq	.L22
 539 003a C6E1     		b	.L18
 540              	.L21:
 541 003c 4B46     		mov	r3, r9
 542 003e 062B     		cmp	r3, #6
 543 0040 07D0     		beq	.L23
 544 0042 142B     		cmp	r3, #20
 545 0044 10D0     		beq	.L24
 546 0046 C0E1     		b	.L18
 547              	.L22:
 280:..\..\..\arduinoLCD\test\Pain Drain\libraries\lvgl\src\draw\sw/lv_draw_sw_transform.c ****             break;
 548              		.loc 1 280 0
 549 0048 0223     		movs	r3, #2
 550 004a 0793     		str	r3, [sp, #28]
 279:..\..\..\arduinoLCD\test\Pain Drain\libraries\lvgl\src\draw\sw/lv_draw_sw_transform.c ****             px_size = sizeof(lv_color_t);
 551              		.loc 1 279 0
 552 004c 0023     		movs	r3, #0
 553 004e 0D93     		str	r3, [sp, #52]
 554 0050 13E0     		b	.L20
 555              	.L23:
 556              	.LVL73:
 557              	.LBB23:
 289:..\..\..\arduinoLCD\test\Pain Drain\libraries\lvgl\src\draw\sw/lv_draw_sw_transform.c ****                 ck = d->driver->color_chroma_key;
 558              		.loc 1 289 0
 559 0052 FFF7FEFF 		bl	_lv_refr_get_disp_refreshing
 560              	.LVL74:
 290:..\..\..\arduinoLCD\test\Pain Drain\libraries\lvgl\src\draw\sw/lv_draw_sw_transform.c ****                 break;
 561              		.loc 1 290 0
 562 0056 0368     		ldr	r3, [r0]
 563 0058 1B8F     		ldrh	r3, [r3, #56]
 564 005a 6A46     		mov	r2, sp
 565              	.LVL75:
 566 005c 5385     		strh	r3, [r2, #42]
 288:..\..\..\arduinoLCD\test\Pain Drain\libraries\lvgl\src\draw\sw/lv_draw_sw_transform.c ****                 lv_disp_t * d = _lv_refr_get_disp_refreshing();
 567              		.loc 1 288 0
 568 005e 0223     		movs	r3, #2
 569              	.LVL76:
 570 0060 0793     		str	r3, [sp, #28]
 287:..\..\..\arduinoLCD\test\Pain Drain\libraries\lvgl\src\draw\sw/lv_draw_sw_transform.c ****                 px_size = sizeof(lv_color_t);
 571              		.loc 1 287 0
 572 0062 013B     		subs	r3, r3, #1
 573 0064 0D93     		str	r3, [sp, #52]
 291:..\..\..\arduinoLCD\test\Pain Drain\libraries\lvgl\src\draw\sw/lv_draw_sw_transform.c ****             }
 574              		.loc 1 291 0
 575 0066 08E0     		b	.L20
 576              	.LVL77:
ARM GAS  C:\Users\haske\AppData\Local\Temp\ccOknJt1.s 			page 20


 577              	.L24:
 578              	.LBE23:
 296:..\..\..\arduinoLCD\test\Pain Drain\libraries\lvgl\src\draw\sw/lv_draw_sw_transform.c ****             break;
 579              		.loc 1 296 0
 580 0068 0223     		movs	r3, #2
 581 006a 0793     		str	r3, [sp, #28]
 295:..\..\..\arduinoLCD\test\Pain Drain\libraries\lvgl\src\draw\sw/lv_draw_sw_transform.c ****             px_size = sizeof(lv_color_t);
 582              		.loc 1 295 0
 583 006c 013B     		subs	r3, r3, #1
 584 006e 0D93     		str	r3, [sp, #52]
 297:..\..\..\arduinoLCD\test\Pain Drain\libraries\lvgl\src\draw\sw/lv_draw_sw_transform.c **** #endif
 585              		.loc 1 297 0
 586 0070 03E0     		b	.L20
 587              	.LVL78:
 588              	.L57:
 284:..\..\..\arduinoLCD\test\Pain Drain\libraries\lvgl\src\draw\sw/lv_draw_sw_transform.c ****             break;
 589              		.loc 1 284 0
 590 0072 0323     		movs	r3, #3
 591 0074 0793     		str	r3, [sp, #28]
 283:..\..\..\arduinoLCD\test\Pain Drain\libraries\lvgl\src\draw\sw/lv_draw_sw_transform.c ****             px_size = LV_IMG_PX_SIZE_ALPHA_BYTE;
 592              		.loc 1 283 0
 593 0076 023B     		subs	r3, r3, #2
 594 0078 0D93     		str	r3, [sp, #52]
 595              	.LVL79:
 596              	.L20:
 304:..\..\..\arduinoLCD\test\Pain Drain\libraries\lvgl\src\draw\sw/lv_draw_sw_transform.c ****         xs_ups = xs_ups_start + ((xs_step * x) >> 8);
 597              		.loc 1 304 0
 598 007a 0021     		movs	r1, #0
 599 007c BC46     		mov	ip, r7
 600 007e 5B46     		mov	r3, fp
 601 0080 1893     		str	r3, [sp, #96]
 602 0082 199B     		ldr	r3, [sp, #100]
 603 0084 9B46     		mov	fp, r3
 604              	.LVL80:
 605 0086 5546     		mov	r5, r10
 606 0088 4046     		mov	r0, r8
 607 008a CA46     		mov	r10, r9
 608 008c 1B9B     		ldr	r3, [sp, #108]
 609 008e 9946     		mov	r9, r3
 610 0090 98E1     		b	.L25
 611              	.LVL81:
 612              	.L55:
 613              	.LBB24:
 305:..\..\..\arduinoLCD\test\Pain Drain\libraries\lvgl\src\draw\sw/lv_draw_sw_transform.c ****         ys_ups = ys_ups_start + ((ys_step * x) >> 8);
 614              		.loc 1 305 0
 615 0092 2F00     		movs	r7, r5
 616 0094 4F43     		muls	r7, r1
 617 0096 3F12     		asrs	r7, r7, #8
 618 0098 189B     		ldr	r3, [sp, #96]
 619 009a 9846     		mov	r8, r3
 620 009c 4744     		add	r7, r7, r8
 621              	.LVL82:
 306:..\..\..\arduinoLCD\test\Pain Drain\libraries\lvgl\src\draw\sw/lv_draw_sw_transform.c **** 
 622              		.loc 1 306 0
 623 009e 4E46     		mov	r6, r9
 624 00a0 4E43     		muls	r6, r1
 625 00a2 3612     		asrs	r6, r6, #8
ARM GAS  C:\Users\haske\AppData\Local\Temp\ccOknJt1.s 			page 21


 626 00a4 5E44     		add	r6, r6, fp
 627              	.LVL83:
 308:..\..\..\arduinoLCD\test\Pain Drain\libraries\lvgl\src\draw\sw/lv_draw_sw_transform.c ****         int32_t ys_int = ys_ups >> 8;
 628              		.loc 1 308 0
 629 00a6 3B12     		asrs	r3, r7, #8
 630              	.LVL84:
 309:..\..\..\arduinoLCD\test\Pain Drain\libraries\lvgl\src\draw\sw/lv_draw_sw_transform.c **** 
 631              		.loc 1 309 0
 632 00a8 3212     		asrs	r2, r6, #8
 633              	.LVL85:
 312:..\..\..\arduinoLCD\test\Pain Drain\libraries\lvgl\src\draw\sw/lv_draw_sw_transform.c ****             abuf[x] = 0x00;
 634              		.loc 1 312 0
 635 00aa 002B     		cmp	r3, #0
 636 00ac 06DB     		blt	.L26
 312:..\..\..\arduinoLCD\test\Pain Drain\libraries\lvgl\src\draw\sw/lv_draw_sw_transform.c ****             abuf[x] = 0x00;
 637              		.loc 1 312 0 is_stmt 0 discriminator 1
 638 00ae 6345     		cmp	r3, ip
 639 00b0 04DA     		bge	.L26
 312:..\..\..\arduinoLCD\test\Pain Drain\libraries\lvgl\src\draw\sw/lv_draw_sw_transform.c ****             abuf[x] = 0x00;
 640              		.loc 1 312 0 discriminator 2
 641 00b2 002A     		cmp	r2, #0
 642 00b4 02DB     		blt	.L26
 312:..\..\..\arduinoLCD\test\Pain Drain\libraries\lvgl\src\draw\sw/lv_draw_sw_transform.c ****             abuf[x] = 0x00;
 643              		.loc 1 312 0 discriminator 3
 644 00b6 009C     		ldr	r4, [sp]
 645              	.LVL86:
 646 00b8 A242     		cmp	r2, r4
 647 00ba 04DB     		blt	.L27
 648              	.LVL87:
 649              	.L26:
 313:..\..\..\arduinoLCD\test\Pain Drain\libraries\lvgl\src\draw\sw/lv_draw_sw_transform.c ****             continue;
 650              		.loc 1 313 0 is_stmt 1
 651 00bc 1E9B     		ldr	r3, [sp, #120]
 652              	.LVL88:
 653 00be 5B18     		adds	r3, r3, r1
 654 00c0 0022     		movs	r2, #0
 655              	.LVL89:
 656 00c2 1A70     		strb	r2, [r3]
 314:..\..\..\arduinoLCD\test\Pain Drain\libraries\lvgl\src\draw\sw/lv_draw_sw_transform.c ****         }
 657              		.loc 1 314 0
 658 00c4 7CE1     		b	.L28
 659              	.LVL90:
 660              	.L27:
 319:..\..\..\arduinoLCD\test\Pain Drain\libraries\lvgl\src\draw\sw/lv_draw_sw_transform.c ****         int32_t ys_fract = ys_ups & 0xFF;
 661              		.loc 1 319 0
 662 00c6 FF24     		movs	r4, #255
 663 00c8 2740     		ands	r7, r4
 664              	.LVL91:
 320:..\..\..\arduinoLCD\test\Pain Drain\libraries\lvgl\src\draw\sw/lv_draw_sw_transform.c **** 
 665              		.loc 1 320 0
 666 00ca 2640     		ands	r6, r4
 667              	.LVL92:
 324:..\..\..\arduinoLCD\test\Pain Drain\libraries\lvgl\src\draw\sw/lv_draw_sw_transform.c ****             x_next = -1;
 668              		.loc 1 324 0
 669 00cc 7F2F     		cmp	r7, #127
 670 00ce 07DC     		bgt	.L29
 671              	.LVL93:
ARM GAS  C:\Users\haske\AppData\Local\Temp\ccOknJt1.s 			page 22


 326:..\..\..\arduinoLCD\test\Pain Drain\libraries\lvgl\src\draw\sw/lv_draw_sw_transform.c ****         }
 672              		.loc 1 326 0
 673 00d0 803C     		subs	r4, r4, #128
 674 00d2 E71B     		subs	r7, r4, r7
 675              	.LVL94:
 676 00d4 7C00     		lsls	r4, r7, #1
 677 00d6 0994     		str	r4, [sp, #36]
 678              	.LVL95:
 325:..\..\..\arduinoLCD\test\Pain Drain\libraries\lvgl\src\draw\sw/lv_draw_sw_transform.c ****             xs_fract = (0x7F - xs_fract) * 2;
 679              		.loc 1 325 0
 680 00d8 0124     		movs	r4, #1
 681              	.LVL96:
 682 00da 6442     		rsbs	r4, r4, #0
 683 00dc 0194     		str	r4, [sp, #4]
 684 00de 04E0     		b	.L30
 685              	.LVL97:
 686              	.L29:
 330:..\..\..\arduinoLCD\test\Pain Drain\libraries\lvgl\src\draw\sw/lv_draw_sw_transform.c ****         }
 687              		.loc 1 330 0
 688 00e0 803F     		subs	r7, r7, #128
 689              	.LVL98:
 690 00e2 7C00     		lsls	r4, r7, #1
 691 00e4 0994     		str	r4, [sp, #36]
 692              	.LVL99:
 329:..\..\..\arduinoLCD\test\Pain Drain\libraries\lvgl\src\draw\sw/lv_draw_sw_transform.c ****             xs_fract = (xs_fract - 0x80) * 2;
 693              		.loc 1 329 0
 694 00e6 0124     		movs	r4, #1
 695              	.LVL100:
 696 00e8 0194     		str	r4, [sp, #4]
 697              	.LVL101:
 698              	.L30:
 332:..\..\..\arduinoLCD\test\Pain Drain\libraries\lvgl\src\draw\sw/lv_draw_sw_transform.c ****             y_next = -1;
 699              		.loc 1 332 0
 700 00ea 7F2E     		cmp	r6, #127
 701 00ec 07DC     		bgt	.L31
 702              	.LVL102:
 334:..\..\..\arduinoLCD\test\Pain Drain\libraries\lvgl\src\draw\sw/lv_draw_sw_transform.c ****         }
 703              		.loc 1 334 0
 704 00ee 7F27     		movs	r7, #127
 705 00f0 BE1B     		subs	r6, r7, r6
 706              	.LVL103:
 707 00f2 7400     		lsls	r4, r6, #1
 708 00f4 0B94     		str	r4, [sp, #44]
 709              	.LVL104:
 333:..\..\..\arduinoLCD\test\Pain Drain\libraries\lvgl\src\draw\sw/lv_draw_sw_transform.c ****             ys_fract = (0x7F - ys_fract) * 2;
 710              		.loc 1 333 0
 711 00f6 0124     		movs	r4, #1
 712              	.LVL105:
 713 00f8 6442     		rsbs	r4, r4, #0
 714 00fa 0594     		str	r4, [sp, #20]
 715 00fc 04E0     		b	.L32
 716              	.LVL106:
 717              	.L31:
 338:..\..\..\arduinoLCD\test\Pain Drain\libraries\lvgl\src\draw\sw/lv_draw_sw_transform.c ****         }
 718              		.loc 1 338 0
 719 00fe 803E     		subs	r6, r6, #128
 720              	.LVL107:
ARM GAS  C:\Users\haske\AppData\Local\Temp\ccOknJt1.s 			page 23


 721 0100 7400     		lsls	r4, r6, #1
 722 0102 0B94     		str	r4, [sp, #44]
 723              	.LVL108:
 337:..\..\..\arduinoLCD\test\Pain Drain\libraries\lvgl\src\draw\sw/lv_draw_sw_transform.c ****             ys_fract = (ys_fract - 0x80) * 2;
 724              		.loc 1 337 0
 725 0104 0124     		movs	r4, #1
 726              	.LVL109:
 727 0106 0594     		str	r4, [sp, #20]
 728              	.LVL110:
 729              	.L32:
 342:..\..\..\arduinoLCD\test\Pain Drain\libraries\lvgl\src\draw\sw/lv_draw_sw_transform.c **** 
 730              		.loc 1 342 0
 731 0108 039E     		ldr	r6, [sp, #12]
 732 010a 5643     		muls	r6, r2
 733 010c 0C96     		str	r6, [sp, #48]
 734 010e 9E19     		adds	r6, r3, r6
 735 0110 079C     		ldr	r4, [sp, #28]
 736 0112 6643     		muls	r6, r4
 737 0114 049F     		ldr	r7, [sp, #16]
 738 0116 B846     		mov	r8, r7
 739              	.LVL111:
 740 0118 4644     		add	r6, r6, r8
 741 011a 0296     		str	r6, [sp, #8]
 742              	.LVL112:
 345:..\..\..\arduinoLCD\test\Pain Drain\libraries\lvgl\src\draw\sw/lv_draw_sw_transform.c ****            xs_int + x_next <= src_w - 1 &&
 743              		.loc 1 345 0
 744 011c 019F     		ldr	r7, [sp, #4]
 745 011e FE18     		adds	r6, r7, r3
 746 0120 00D5     		bpl	.LCB868
 747 0122 EFE0     		b	.L33	@long jump
 748              	.LCB868:
 749              	.LVL113:
 346:..\..\..\arduinoLCD\test\Pain Drain\libraries\lvgl\src\draw\sw/lv_draw_sw_transform.c ****            ys_int + y_next >= 0 &&
 750              		.loc 1 346 0 discriminator 1
 751 0124 0127     		movs	r7, #1
 752 0126 7F42     		rsbs	r7, r7, #0
 753 0128 6744     		add	r7, r7, ip
 345:..\..\..\arduinoLCD\test\Pain Drain\libraries\lvgl\src\draw\sw/lv_draw_sw_transform.c ****            xs_int + x_next <= src_w - 1 &&
 754              		.loc 1 345 0 discriminator 1
 755 012a BE42     		cmp	r6, r7
 756 012c 00DD     		ble	.LCB874
 757 012e E9E0     		b	.L33	@long jump
 758              	.LCB874:
 346:..\..\..\arduinoLCD\test\Pain Drain\libraries\lvgl\src\draw\sw/lv_draw_sw_transform.c ****            ys_int + y_next >= 0 &&
 759              		.loc 1 346 0
 760 0130 059E     		ldr	r6, [sp, #20]
 761 0132 B618     		adds	r6, r6, r2
 762 0134 0696     		str	r6, [sp, #24]
 763 0136 00D5     		bpl	.LCB880
 764 0138 E4E0     		b	.L33	@long jump
 765              	.LCB880:
 348:..\..\..\arduinoLCD\test\Pain Drain\libraries\lvgl\src\draw\sw/lv_draw_sw_transform.c **** 
 766              		.loc 1 348 0
 767 013a 009F     		ldr	r7, [sp]
 768 013c 013F     		subs	r7, r7, #1
 347:..\..\..\arduinoLCD\test\Pain Drain\libraries\lvgl\src\draw\sw/lv_draw_sw_transform.c ****            ys_int + y_next <= src_h - 1) {
 769              		.loc 1 347 0
ARM GAS  C:\Users\haske\AppData\Local\Temp\ccOknJt1.s 			page 24


 770 013e 069E     		ldr	r6, [sp, #24]
 771 0140 BE42     		cmp	r6, r7
 772 0142 00DD     		ble	.LCB885
 773 0144 DEE0     		b	.L33	@long jump
 774              	.LCB885:
 775              	.LVL114:
 776              	.LBB25:
 351:..\..\..\arduinoLCD\test\Pain Drain\libraries\lvgl\src\draw\sw/lv_draw_sw_transform.c ****             const uint8_t * px_ver = src_tmp + y_next * src_stride * px_size;
 777              		.loc 1 351 0
 778 0146 019A     		ldr	r2, [sp, #4]
 779              	.LVL115:
 780 0148 6243     		muls	r2, r4
 781 014a 029E     		ldr	r6, [sp, #8]
 782 014c B046     		mov	r8, r6
 783 014e 4244     		add	r2, r2, r8
 784 0150 0892     		str	r2, [sp, #32]
 785              	.LVL116:
 352:..\..\..\arduinoLCD\test\Pain Drain\libraries\lvgl\src\draw\sw/lv_draw_sw_transform.c ****             lv_color_t c_base;
 786              		.loc 1 352 0
 787 0152 059A     		ldr	r2, [sp, #20]
 788              	.LVL117:
 789 0154 039F     		ldr	r7, [sp, #12]
 790 0156 7A43     		muls	r2, r7
 791 0158 6243     		muls	r2, r4
 792 015a 4244     		add	r2, r2, r8
 793 015c 0592     		str	r2, [sp, #20]
 794              	.LVL118:
 357:..\..\..\arduinoLCD\test\Pain Drain\libraries\lvgl\src\draw\sw/lv_draw_sw_transform.c ****                 lv_opa_t a_base;
 795              		.loc 1 357 0
 796 015e 0D9A     		ldr	r2, [sp, #52]
 797              	.LVL119:
 798 0160 002A     		cmp	r2, #0
 799 0162 72D0     		beq	.L34
 800              	.LBB26:
 361:..\..\..\arduinoLCD\test\Pain Drain\libraries\lvgl\src\draw\sw/lv_draw_sw_transform.c ****                     a_base = px_base[LV_IMG_PX_SIZE_ALPHA_BYTE - 1];
 801              		.loc 1 361 0
 802 0164 5246     		mov	r2, r10
 803 0166 052A     		cmp	r2, #5
 804 0168 06D1     		bne	.L35
 362:..\..\..\arduinoLCD\test\Pain Drain\libraries\lvgl\src\draw\sw/lv_draw_sw_transform.c ****                     a_ver = px_ver[LV_IMG_PX_SIZE_ALPHA_BYTE - 1];
 805              		.loc 1 362 0
 806 016a B378     		ldrb	r3, [r6, #2]
 807              	.LVL120:
 808 016c 0C93     		str	r3, [sp, #48]
 809              	.LVL121:
 363:..\..\..\arduinoLCD\test\Pain Drain\libraries\lvgl\src\draw\sw/lv_draw_sw_transform.c ****                     a_hor = px_hor[LV_IMG_PX_SIZE_ALPHA_BYTE - 1];
 810              		.loc 1 363 0
 811 016e 059B     		ldr	r3, [sp, #20]
 812 0170 9A78     		ldrb	r2, [r3, #2]
 813              	.LVL122:
 364:..\..\..\arduinoLCD\test\Pain Drain\libraries\lvgl\src\draw\sw/lv_draw_sw_transform.c ****                 }
 814              		.loc 1 364 0
 815 0172 089B     		ldr	r3, [sp, #32]
 816 0174 9F78     		ldrb	r7, [r3, #2]
 817              	.LVL123:
 818 0176 36E0     		b	.L36
 819              	.LVL124:
ARM GAS  C:\Users\haske\AppData\Local\Temp\ccOknJt1.s 			page 25


 820              	.L35:
 367:..\..\..\arduinoLCD\test\Pain Drain\libraries\lvgl\src\draw\sw/lv_draw_sw_transform.c ****                     const lv_opa_t * a_tmp = src + src_stride * src_h * sizeof(lv_color_t);
 821              		.loc 1 367 0
 822 0178 5246     		mov	r2, r10
 823 017a 142A     		cmp	r2, #20
 824 017c 15D1     		bne	.L37
 825              	.LBB27:
 368:..\..\..\arduinoLCD\test\Pain Drain\libraries\lvgl\src\draw\sw/lv_draw_sw_transform.c ****                     a_base = *(a_tmp + (ys_int * src_stride) + xs_int);
 826              		.loc 1 368 0
 827 017e 039A     		ldr	r2, [sp, #12]
 828 0180 009C     		ldr	r4, [sp]
 829 0182 6243     		muls	r2, r4
 830 0184 5200     		lsls	r2, r2, #1
 831 0186 049C     		ldr	r4, [sp, #16]
 832 0188 A046     		mov	r8, r4
 833 018a 4244     		add	r2, r2, r8
 834 018c 1600     		movs	r6, r2
 835              	.LVL125:
 369:..\..\..\arduinoLCD\test\Pain Drain\libraries\lvgl\src\draw\sw/lv_draw_sw_transform.c ****                     a_hor = *(a_tmp + (ys_int * src_stride) + xs_int + x_next);
 836              		.loc 1 369 0
 837 018e 0C9C     		ldr	r4, [sp, #48]
 838 0190 E218     		adds	r2, r4, r3
 839              	.LVL126:
 840 0192 B45C     		ldrb	r4, [r6, r2]
 841 0194 0C94     		str	r4, [sp, #48]
 842              	.LVL127:
 370:..\..\..\arduinoLCD\test\Pain Drain\libraries\lvgl\src\draw\sw/lv_draw_sw_transform.c ****                     a_ver = *(a_tmp + ((ys_int + y_next) * src_stride) + xs_int);
 843              		.loc 1 370 0
 844 0196 019C     		ldr	r4, [sp, #4]
 845 0198 A046     		mov	r8, r4
 846 019a 4244     		add	r2, r2, r8
 847 019c B75C     		ldrb	r7, [r6, r2]
 848              	.LVL128:
 371:..\..\..\arduinoLCD\test\Pain Drain\libraries\lvgl\src\draw\sw/lv_draw_sw_transform.c ****                 }
 849              		.loc 1 371 0
 850 019e 069C     		ldr	r4, [sp, #24]
 851 01a0 039A     		ldr	r2, [sp, #12]
 852 01a2 5443     		muls	r4, r2
 853 01a4 E318     		adds	r3, r4, r3
 854              	.LVL129:
 855 01a6 F25C     		ldrb	r2, [r6, r3]
 856              	.LVL130:
 857              	.LBE27:
 858 01a8 1DE0     		b	.L36
 859              	.LVL131:
 860              	.L37:
 374:..\..\..\arduinoLCD\test\Pain Drain\libraries\lvgl\src\draw\sw/lv_draw_sw_transform.c ****                     if(((lv_color_t *)px_base)->full == ck.full ||
 861              		.loc 1 374 0
 862 01aa 062A     		cmp	r2, #6
 863 01ac 12D1     		bne	.L58
 375:..\..\..\arduinoLCD\test\Pain Drain\libraries\lvgl\src\draw\sw/lv_draw_sw_transform.c ****                        ((lv_color_t *)px_ver)->full == ck.full ||
 864              		.loc 1 375 0
 865 01ae 029B     		ldr	r3, [sp, #8]
 866              	.LVL132:
 867 01b0 1B88     		ldrh	r3, [r3]
 868 01b2 6A46     		mov	r2, sp
 869 01b4 528D     		ldrh	r2, [r2, #42]
ARM GAS  C:\Users\haske\AppData\Local\Temp\ccOknJt1.s 			page 26


 870 01b6 9342     		cmp	r3, r2
 871 01b8 07D0     		beq	.L38
 376:..\..\..\arduinoLCD\test\Pain Drain\libraries\lvgl\src\draw\sw/lv_draw_sw_transform.c ****                        ((lv_color_t *)px_hor)->full == ck.full) {
 872              		.loc 1 376 0 discriminator 1
 873 01ba 059B     		ldr	r3, [sp, #20]
 874 01bc 1B88     		ldrh	r3, [r3]
 375:..\..\..\arduinoLCD\test\Pain Drain\libraries\lvgl\src\draw\sw/lv_draw_sw_transform.c ****                        ((lv_color_t *)px_ver)->full == ck.full ||
 875              		.loc 1 375 0 discriminator 1
 876 01be 9A42     		cmp	r2, r3
 877 01c0 03D0     		beq	.L38
 377:..\..\..\arduinoLCD\test\Pain Drain\libraries\lvgl\src\draw\sw/lv_draw_sw_transform.c ****                         abuf[x] = 0x00;
 878              		.loc 1 377 0
 879 01c2 089B     		ldr	r3, [sp, #32]
 880 01c4 1B88     		ldrh	r3, [r3]
 376:..\..\..\arduinoLCD\test\Pain Drain\libraries\lvgl\src\draw\sw/lv_draw_sw_transform.c ****                        ((lv_color_t *)px_hor)->full == ck.full) {
 881              		.loc 1 376 0
 882 01c6 9A42     		cmp	r2, r3
 883 01c8 09D1     		bne	.L59
 884              	.L38:
 378:..\..\..\arduinoLCD\test\Pain Drain\libraries\lvgl\src\draw\sw/lv_draw_sw_transform.c ****                         continue;
 885              		.loc 1 378 0
 886 01ca 1E9B     		ldr	r3, [sp, #120]
 887 01cc 5B18     		adds	r3, r3, r1
 888 01ce 0022     		movs	r2, #0
 889 01d0 1A70     		strb	r2, [r3]
 379:..\..\..\arduinoLCD\test\Pain Drain\libraries\lvgl\src\draw\sw/lv_draw_sw_transform.c ****                     }
 890              		.loc 1 379 0
 891 01d2 F5E0     		b	.L28
 892              	.LVL133:
 893              	.L58:
 390:..\..\..\arduinoLCD\test\Pain Drain\libraries\lvgl\src\draw\sw/lv_draw_sw_transform.c ****                 }
 894              		.loc 1 390 0
 895 01d4 FF27     		movs	r7, #255
 389:..\..\..\arduinoLCD\test\Pain Drain\libraries\lvgl\src\draw\sw/lv_draw_sw_transform.c ****                     a_hor = 0xff;
 896              		.loc 1 389 0
 897 01d6 FF22     		movs	r2, #255
 388:..\..\..\arduinoLCD\test\Pain Drain\libraries\lvgl\src\draw\sw/lv_draw_sw_transform.c ****                     a_ver = 0xff;
 898              		.loc 1 388 0
 899 01d8 FF23     		movs	r3, #255
 900              	.LVL134:
 901 01da 0C93     		str	r3, [sp, #48]
 902 01dc 03E0     		b	.L36
 903              	.L59:
 384:..\..\..\arduinoLCD\test\Pain Drain\libraries\lvgl\src\draw\sw/lv_draw_sw_transform.c ****                     }
 904              		.loc 1 384 0
 905 01de FF27     		movs	r7, #255
 383:..\..\..\arduinoLCD\test\Pain Drain\libraries\lvgl\src\draw\sw/lv_draw_sw_transform.c ****                         a_hor = 0xff;
 906              		.loc 1 383 0
 907 01e0 FF22     		movs	r2, #255
 382:..\..\..\arduinoLCD\test\Pain Drain\libraries\lvgl\src\draw\sw/lv_draw_sw_transform.c ****                         a_ver = 0xff;
 908              		.loc 1 382 0
 909 01e2 FF23     		movs	r3, #255
 910 01e4 0C93     		str	r3, [sp, #48]
 911              	.LVL135:
 912              	.L36:
 393:..\..\..\arduinoLCD\test\Pain Drain\libraries\lvgl\src\draw\sw/lv_draw_sw_transform.c ****                 if(a_hor != a_base) a_hor = ((a_hor * xs_fract) + (a_base * (0x100 - xs_fract))) >>
 913              		.loc 1 393 0
ARM GAS  C:\Users\haske\AppData\Local\Temp\ccOknJt1.s 			page 27


 914 01e6 0C9C     		ldr	r4, [sp, #48]
 915 01e8 9442     		cmp	r4, r2
 916 01ea 08D0     		beq	.L40
 393:..\..\..\arduinoLCD\test\Pain Drain\libraries\lvgl\src\draw\sw/lv_draw_sw_transform.c ****                 if(a_hor != a_base) a_hor = ((a_hor * xs_fract) + (a_base * (0x100 - xs_fract))) >>
 917              		.loc 1 393 0 is_stmt 0 discriminator 1
 918 01ec 0B9E     		ldr	r6, [sp, #44]
 919 01ee 7243     		muls	r2, r6
 920              	.LVL136:
 921 01f0 8023     		movs	r3, #128
 922 01f2 5B00     		lsls	r3, r3, #1
 923 01f4 9B1B     		subs	r3, r3, r6
 924 01f6 6343     		muls	r3, r4
 925 01f8 D218     		adds	r2, r2, r3
 926 01fa 1212     		asrs	r2, r2, #8
 927 01fc D2B2     		uxtb	r2, r2
 928              	.LVL137:
 929              	.L40:
 394:..\..\..\arduinoLCD\test\Pain Drain\libraries\lvgl\src\draw\sw/lv_draw_sw_transform.c ****                 abuf[x] = (a_ver + a_hor) >> 1;
 930              		.loc 1 394 0 is_stmt 1
 931 01fe 0C9C     		ldr	r4, [sp, #48]
 932 0200 BC42     		cmp	r4, r7
 933 0202 08D0     		beq	.L41
 394:..\..\..\arduinoLCD\test\Pain Drain\libraries\lvgl\src\draw\sw/lv_draw_sw_transform.c ****                 abuf[x] = (a_ver + a_hor) >> 1;
 934              		.loc 1 394 0 is_stmt 0 discriminator 1
 935 0204 099E     		ldr	r6, [sp, #36]
 936 0206 7743     		muls	r7, r6
 937              	.LVL138:
 938 0208 8023     		movs	r3, #128
 939 020a 5B00     		lsls	r3, r3, #1
 940 020c 9B1B     		subs	r3, r3, r6
 941 020e 6343     		muls	r3, r4
 942 0210 FF18     		adds	r7, r7, r3
 943 0212 3F12     		asrs	r7, r7, #8
 944 0214 FFB2     		uxtb	r7, r7
 945              	.LVL139:
 946              	.L41:
 395:..\..\..\arduinoLCD\test\Pain Drain\libraries\lvgl\src\draw\sw/lv_draw_sw_transform.c **** 
 947              		.loc 1 395 0 is_stmt 1
 948 0216 D719     		adds	r7, r2, r7
 949              	.LVL140:
 950 0218 7F10     		asrs	r7, r7, #1
 951 021a FBB2     		uxtb	r3, r7
 952 021c 1E9A     		ldr	r2, [sp, #120]
 953              	.LVL141:
 954 021e 5354     		strb	r3, [r2, r1]
 397:..\..\..\arduinoLCD\test\Pain Drain\libraries\lvgl\src\draw\sw/lv_draw_sw_transform.c **** 
 955              		.loc 1 397 0
 956 0220 002B     		cmp	r3, #0
 957 0222 00D1     		bne	.LCB1078
 958 0224 CCE0     		b	.L28	@long jump
 959              	.LCB1078:
 404:..\..\..\arduinoLCD\test\Pain Drain\libraries\lvgl\src\draw\sw/lv_draw_sw_transform.c ****                 c_ver.full = px_ver[0] + (px_ver[1] << 8);
 960              		.loc 1 404 0
 961 0226 029A     		ldr	r2, [sp, #8]
 962 0228 1378     		ldrb	r3, [r2]
 963 022a 5278     		ldrb	r2, [r2, #1]
 964 022c 1202     		lsls	r2, r2, #8
ARM GAS  C:\Users\haske\AppData\Local\Temp\ccOknJt1.s 			page 28


 965 022e D318     		adds	r3, r2, r3
 966 0230 0193     		str	r3, [sp, #4]
 967              	.LVL142:
 405:..\..\..\arduinoLCD\test\Pain Drain\libraries\lvgl\src\draw\sw/lv_draw_sw_transform.c ****                 c_hor.full = px_hor[0] + (px_hor[1] << 8);
 968              		.loc 1 405 0
 969 0232 059B     		ldr	r3, [sp, #20]
 970 0234 1A78     		ldrb	r2, [r3]
 971 0236 5B78     		ldrb	r3, [r3, #1]
 972 0238 1B02     		lsls	r3, r3, #8
 973 023a 9B18     		adds	r3, r3, r2
 974              	.LVL143:
 406:..\..\..\arduinoLCD\test\Pain Drain\libraries\lvgl\src\draw\sw/lv_draw_sw_transform.c **** #elif LV_COLOR_DEPTH == 32
 975              		.loc 1 406 0
 976 023c 089A     		ldr	r2, [sp, #32]
 977 023e 1678     		ldrb	r6, [r2]
 978 0240 5278     		ldrb	r2, [r2, #1]
 979 0242 1202     		lsls	r2, r2, #8
 980 0244 9219     		adds	r2, r2, r6
 981 0246 0292     		str	r2, [sp, #8]
 982              	.LVL144:
 983              	.LBE26:
 984 0248 0BE0     		b	.L42
 985              	.LVL145:
 986              	.L34:
 415:..\..\..\arduinoLCD\test\Pain Drain\libraries\lvgl\src\draw\sw/lv_draw_sw_transform.c ****                 c_hor = *((const lv_color_t *) px_hor);
 987              		.loc 1 415 0
 988 024a 029B     		ldr	r3, [sp, #8]
 989              	.LVL146:
 990 024c 1B88     		ldrh	r3, [r3]
 991 024e 6A46     		mov	r2, sp
 992              	.LVL147:
 993 0250 9380     		strh	r3, [r2, #4]
 994              	.LVL148:
 416:..\..\..\arduinoLCD\test\Pain Drain\libraries\lvgl\src\draw\sw/lv_draw_sw_transform.c ****                 c_ver = *((const lv_color_t *) px_ver);
 995              		.loc 1 416 0
 996 0252 089B     		ldr	r3, [sp, #32]
 997              	.LVL149:
 998 0254 1B88     		ldrh	r3, [r3]
 999              	.LVL150:
 1000 0256 1381     		strh	r3, [r2, #8]
 417:..\..\..\arduinoLCD\test\Pain Drain\libraries\lvgl\src\draw\sw/lv_draw_sw_transform.c ****                 abuf[x] = 0xff;
 1001              		.loc 1 417 0
 1002 0258 059B     		ldr	r3, [sp, #20]
 1003              	.LVL151:
 1004 025a 1B88     		ldrh	r3, [r3]
 418:..\..\..\arduinoLCD\test\Pain Drain\libraries\lvgl\src\draw\sw/lv_draw_sw_transform.c ****             }
 1005              		.loc 1 418 0
 1006 025c FF22     		movs	r2, #255
 1007 025e 1E9C     		ldr	r4, [sp, #120]
 1008 0260 6254     		strb	r2, [r4, r1]
 1009              	.LVL152:
 1010              	.L42:
 421:..\..\..\arduinoLCD\test\Pain Drain\libraries\lvgl\src\draw\sw/lv_draw_sw_transform.c ****                 cbuf[x] = c_base;
 1011              		.loc 1 421 0
 1012 0262 6A46     		mov	r2, sp
 1013 0264 9288     		ldrh	r2, [r2, #4]
 1014              	.LVL153:
ARM GAS  C:\Users\haske\AppData\Local\Temp\ccOknJt1.s 			page 29


 1015 0266 9EB2     		uxth	r6, r3
 1016 0268 B242     		cmp	r2, r6
 1017 026a 08D1     		bne	.L43
 421:..\..\..\arduinoLCD\test\Pain Drain\libraries\lvgl\src\draw\sw/lv_draw_sw_transform.c ****                 cbuf[x] = c_base;
 1018              		.loc 1 421 0 is_stmt 0 discriminator 1
 1019 026c 6C46     		mov	r4, sp
 1020 026e 2689     		ldrh	r6, [r4, #8]
 1021 0270 B242     		cmp	r2, r6
 1022 0272 04D1     		bne	.L43
 422:..\..\..\arduinoLCD\test\Pain Drain\libraries\lvgl\src\draw\sw/lv_draw_sw_transform.c ****             }
 1023              		.loc 1 422 0 is_stmt 1
 1024 0274 4B00     		lsls	r3, r1, #1
 1025              	.LVL154:
 1026 0276 1D9A     		ldr	r2, [sp, #116]
 1027 0278 A488     		ldrh	r4, [r4, #4]
 1028              	.LVL155:
 1029 027a D452     		strh	r4, [r2, r3]
 1030 027c A0E0     		b	.L28
 1031              	.LVL156:
 1032              	.L43:
 1033              	.LBB28:
 1034              	.LBB29:
 1035              		.file 2 "c:\\projects\\paindrain\\arduinolcd\\test\\pain drain\\libraries\\lvgl\\src\\misc\\lv_col
   1:c:\projects\paindrain\arduinolcd\test\pain drain\libraries\lvgl\src\misc\lv_color.h **** /**
   2:c:\projects\paindrain\arduinolcd\test\pain drain\libraries\lvgl\src\misc\lv_color.h ****  * @file lv_color.h
   3:c:\projects\paindrain\arduinolcd\test\pain drain\libraries\lvgl\src\misc\lv_color.h ****  *
   4:c:\projects\paindrain\arduinolcd\test\pain drain\libraries\lvgl\src\misc\lv_color.h ****  */
   5:c:\projects\paindrain\arduinolcd\test\pain drain\libraries\lvgl\src\misc\lv_color.h **** 
   6:c:\projects\paindrain\arduinolcd\test\pain drain\libraries\lvgl\src\misc\lv_color.h **** #ifndef LV_COLOR_H
   7:c:\projects\paindrain\arduinolcd\test\pain drain\libraries\lvgl\src\misc\lv_color.h **** #define LV_COLOR_H
   8:c:\projects\paindrain\arduinolcd\test\pain drain\libraries\lvgl\src\misc\lv_color.h **** 
   9:c:\projects\paindrain\arduinolcd\test\pain drain\libraries\lvgl\src\misc\lv_color.h **** #ifdef __cplusplus
  10:c:\projects\paindrain\arduinolcd\test\pain drain\libraries\lvgl\src\misc\lv_color.h **** extern "C" {
  11:c:\projects\paindrain\arduinolcd\test\pain drain\libraries\lvgl\src\misc\lv_color.h **** #endif
  12:c:\projects\paindrain\arduinolcd\test\pain drain\libraries\lvgl\src\misc\lv_color.h **** 
  13:c:\projects\paindrain\arduinolcd\test\pain drain\libraries\lvgl\src\misc\lv_color.h **** /*********************
  14:c:\projects\paindrain\arduinolcd\test\pain drain\libraries\lvgl\src\misc\lv_color.h ****  *      INCLUDES
  15:c:\projects\paindrain\arduinolcd\test\pain drain\libraries\lvgl\src\misc\lv_color.h ****  *********************/
  16:c:\projects\paindrain\arduinolcd\test\pain drain\libraries\lvgl\src\misc\lv_color.h **** #include "../lv_conf_internal.h"
  17:c:\projects\paindrain\arduinolcd\test\pain drain\libraries\lvgl\src\misc\lv_color.h **** #include "lv_assert.h"
  18:c:\projects\paindrain\arduinolcd\test\pain drain\libraries\lvgl\src\misc\lv_color.h **** #include "lv_math.h"
  19:c:\projects\paindrain\arduinolcd\test\pain drain\libraries\lvgl\src\misc\lv_color.h **** #include "lv_types.h"
  20:c:\projects\paindrain\arduinolcd\test\pain drain\libraries\lvgl\src\misc\lv_color.h **** 
  21:c:\projects\paindrain\arduinolcd\test\pain drain\libraries\lvgl\src\misc\lv_color.h **** /*Error checking*/
  22:c:\projects\paindrain\arduinolcd\test\pain drain\libraries\lvgl\src\misc\lv_color.h **** #if LV_COLOR_DEPTH == 24
  23:c:\projects\paindrain\arduinolcd\test\pain drain\libraries\lvgl\src\misc\lv_color.h **** #error "LV_COLOR_DEPTH 24 is deprecated. Use LV_COLOR_DEPTH 32 instead (lv_conf.h)"
  24:c:\projects\paindrain\arduinolcd\test\pain drain\libraries\lvgl\src\misc\lv_color.h **** #endif
  25:c:\projects\paindrain\arduinolcd\test\pain drain\libraries\lvgl\src\misc\lv_color.h **** 
  26:c:\projects\paindrain\arduinolcd\test\pain drain\libraries\lvgl\src\misc\lv_color.h **** #if LV_COLOR_DEPTH != 16 && LV_COLOR_16_SWAP != 0
  27:c:\projects\paindrain\arduinolcd\test\pain drain\libraries\lvgl\src\misc\lv_color.h **** #error "LV_COLOR_16_SWAP requires LV_COLOR_DEPTH == 16. Set it in lv_conf.h"
  28:c:\projects\paindrain\arduinolcd\test\pain drain\libraries\lvgl\src\misc\lv_color.h **** #endif
  29:c:\projects\paindrain\arduinolcd\test\pain drain\libraries\lvgl\src\misc\lv_color.h **** 
  30:c:\projects\paindrain\arduinolcd\test\pain drain\libraries\lvgl\src\misc\lv_color.h **** #include <stdint.h>
  31:c:\projects\paindrain\arduinolcd\test\pain drain\libraries\lvgl\src\misc\lv_color.h **** 
  32:c:\projects\paindrain\arduinolcd\test\pain drain\libraries\lvgl\src\misc\lv_color.h **** /*********************
  33:c:\projects\paindrain\arduinolcd\test\pain drain\libraries\lvgl\src\misc\lv_color.h ****  *      DEFINES
  34:c:\projects\paindrain\arduinolcd\test\pain drain\libraries\lvgl\src\misc\lv_color.h ****  *********************/
ARM GAS  C:\Users\haske\AppData\Local\Temp\ccOknJt1.s 			page 30


  35:c:\projects\paindrain\arduinolcd\test\pain drain\libraries\lvgl\src\misc\lv_color.h **** LV_EXPORT_CONST_INT(LV_COLOR_DEPTH);
  36:c:\projects\paindrain\arduinolcd\test\pain drain\libraries\lvgl\src\misc\lv_color.h **** LV_EXPORT_CONST_INT(LV_COLOR_16_SWAP);
  37:c:\projects\paindrain\arduinolcd\test\pain drain\libraries\lvgl\src\misc\lv_color.h **** 
  38:c:\projects\paindrain\arduinolcd\test\pain drain\libraries\lvgl\src\misc\lv_color.h **** /**
  39:c:\projects\paindrain\arduinolcd\test\pain drain\libraries\lvgl\src\misc\lv_color.h ****  * Opacity percentages.
  40:c:\projects\paindrain\arduinolcd\test\pain drain\libraries\lvgl\src\misc\lv_color.h ****  */
  41:c:\projects\paindrain\arduinolcd\test\pain drain\libraries\lvgl\src\misc\lv_color.h **** enum {
  42:c:\projects\paindrain\arduinolcd\test\pain drain\libraries\lvgl\src\misc\lv_color.h ****     LV_OPA_TRANSP = 0,
  43:c:\projects\paindrain\arduinolcd\test\pain drain\libraries\lvgl\src\misc\lv_color.h ****     LV_OPA_0      = 0,
  44:c:\projects\paindrain\arduinolcd\test\pain drain\libraries\lvgl\src\misc\lv_color.h ****     LV_OPA_10     = 25,
  45:c:\projects\paindrain\arduinolcd\test\pain drain\libraries\lvgl\src\misc\lv_color.h ****     LV_OPA_20     = 51,
  46:c:\projects\paindrain\arduinolcd\test\pain drain\libraries\lvgl\src\misc\lv_color.h ****     LV_OPA_30     = 76,
  47:c:\projects\paindrain\arduinolcd\test\pain drain\libraries\lvgl\src\misc\lv_color.h ****     LV_OPA_40     = 102,
  48:c:\projects\paindrain\arduinolcd\test\pain drain\libraries\lvgl\src\misc\lv_color.h ****     LV_OPA_50     = 127,
  49:c:\projects\paindrain\arduinolcd\test\pain drain\libraries\lvgl\src\misc\lv_color.h ****     LV_OPA_60     = 153,
  50:c:\projects\paindrain\arduinolcd\test\pain drain\libraries\lvgl\src\misc\lv_color.h ****     LV_OPA_70     = 178,
  51:c:\projects\paindrain\arduinolcd\test\pain drain\libraries\lvgl\src\misc\lv_color.h ****     LV_OPA_80     = 204,
  52:c:\projects\paindrain\arduinolcd\test\pain drain\libraries\lvgl\src\misc\lv_color.h ****     LV_OPA_90     = 229,
  53:c:\projects\paindrain\arduinolcd\test\pain drain\libraries\lvgl\src\misc\lv_color.h ****     LV_OPA_100    = 255,
  54:c:\projects\paindrain\arduinolcd\test\pain drain\libraries\lvgl\src\misc\lv_color.h ****     LV_OPA_COVER  = 255,
  55:c:\projects\paindrain\arduinolcd\test\pain drain\libraries\lvgl\src\misc\lv_color.h **** };
  56:c:\projects\paindrain\arduinolcd\test\pain drain\libraries\lvgl\src\misc\lv_color.h **** 
  57:c:\projects\paindrain\arduinolcd\test\pain drain\libraries\lvgl\src\misc\lv_color.h **** #define LV_OPA_MIN 2    /*Opacities below this will be transparent*/
  58:c:\projects\paindrain\arduinolcd\test\pain drain\libraries\lvgl\src\misc\lv_color.h **** #define LV_OPA_MAX 253  /*Opacities above this will fully cover*/
  59:c:\projects\paindrain\arduinolcd\test\pain drain\libraries\lvgl\src\misc\lv_color.h **** 
  60:c:\projects\paindrain\arduinolcd\test\pain drain\libraries\lvgl\src\misc\lv_color.h **** #if LV_COLOR_DEPTH == 1
  61:c:\projects\paindrain\arduinolcd\test\pain drain\libraries\lvgl\src\misc\lv_color.h **** #define LV_COLOR_SIZE 8
  62:c:\projects\paindrain\arduinolcd\test\pain drain\libraries\lvgl\src\misc\lv_color.h **** #elif LV_COLOR_DEPTH == 8
  63:c:\projects\paindrain\arduinolcd\test\pain drain\libraries\lvgl\src\misc\lv_color.h **** #define LV_COLOR_SIZE 8
  64:c:\projects\paindrain\arduinolcd\test\pain drain\libraries\lvgl\src\misc\lv_color.h **** #elif LV_COLOR_DEPTH == 16
  65:c:\projects\paindrain\arduinolcd\test\pain drain\libraries\lvgl\src\misc\lv_color.h **** #define LV_COLOR_SIZE 16
  66:c:\projects\paindrain\arduinolcd\test\pain drain\libraries\lvgl\src\misc\lv_color.h **** #elif LV_COLOR_DEPTH == 32
  67:c:\projects\paindrain\arduinolcd\test\pain drain\libraries\lvgl\src\misc\lv_color.h **** #define LV_COLOR_SIZE 32
  68:c:\projects\paindrain\arduinolcd\test\pain drain\libraries\lvgl\src\misc\lv_color.h **** #else
  69:c:\projects\paindrain\arduinolcd\test\pain drain\libraries\lvgl\src\misc\lv_color.h **** #error "Invalid LV_COLOR_DEPTH in lv_conf.h! Set it to 1, 8, 16 or 32!"
  70:c:\projects\paindrain\arduinolcd\test\pain drain\libraries\lvgl\src\misc\lv_color.h **** #endif
  71:c:\projects\paindrain\arduinolcd\test\pain drain\libraries\lvgl\src\misc\lv_color.h **** 
  72:c:\projects\paindrain\arduinolcd\test\pain drain\libraries\lvgl\src\misc\lv_color.h **** #if defined(__cplusplus) && !defined(_LV_COLOR_HAS_MODERN_CPP)
  73:c:\projects\paindrain\arduinolcd\test\pain drain\libraries\lvgl\src\misc\lv_color.h **** /**
  74:c:\projects\paindrain\arduinolcd\test\pain drain\libraries\lvgl\src\misc\lv_color.h **** * MSVC compiler's definition of the __cplusplus indicating 199711L regardless to C++ standard versi
  75:c:\projects\paindrain\arduinolcd\test\pain drain\libraries\lvgl\src\misc\lv_color.h **** * see https://devblogs.microsoft.com/cppblog/msvc-now-correctly-reports-cplusplus
  76:c:\projects\paindrain\arduinolcd\test\pain drain\libraries\lvgl\src\misc\lv_color.h **** * so we use _MSC_VER macro instead of __cplusplus
  77:c:\projects\paindrain\arduinolcd\test\pain drain\libraries\lvgl\src\misc\lv_color.h **** */
  78:c:\projects\paindrain\arduinolcd\test\pain drain\libraries\lvgl\src\misc\lv_color.h **** #ifdef _MSC_VER
  79:c:\projects\paindrain\arduinolcd\test\pain drain\libraries\lvgl\src\misc\lv_color.h **** #if _MSC_VER >= 1900 /*Visual Studio 2015*/
  80:c:\projects\paindrain\arduinolcd\test\pain drain\libraries\lvgl\src\misc\lv_color.h **** #define _LV_COLOR_HAS_MODERN_CPP 1
  81:c:\projects\paindrain\arduinolcd\test\pain drain\libraries\lvgl\src\misc\lv_color.h **** #endif
  82:c:\projects\paindrain\arduinolcd\test\pain drain\libraries\lvgl\src\misc\lv_color.h **** #else
  83:c:\projects\paindrain\arduinolcd\test\pain drain\libraries\lvgl\src\misc\lv_color.h **** #if __cplusplus >= 201103L
  84:c:\projects\paindrain\arduinolcd\test\pain drain\libraries\lvgl\src\misc\lv_color.h **** #define _LV_COLOR_HAS_MODERN_CPP 1
  85:c:\projects\paindrain\arduinolcd\test\pain drain\libraries\lvgl\src\misc\lv_color.h **** #endif
  86:c:\projects\paindrain\arduinolcd\test\pain drain\libraries\lvgl\src\misc\lv_color.h **** #endif
  87:c:\projects\paindrain\arduinolcd\test\pain drain\libraries\lvgl\src\misc\lv_color.h **** #endif /*__cplusplus*/
  88:c:\projects\paindrain\arduinolcd\test\pain drain\libraries\lvgl\src\misc\lv_color.h **** 
  89:c:\projects\paindrain\arduinolcd\test\pain drain\libraries\lvgl\src\misc\lv_color.h **** #ifndef _LV_COLOR_HAS_MODERN_CPP
  90:c:\projects\paindrain\arduinolcd\test\pain drain\libraries\lvgl\src\misc\lv_color.h **** #define _LV_COLOR_HAS_MODERN_CPP 0
  91:c:\projects\paindrain\arduinolcd\test\pain drain\libraries\lvgl\src\misc\lv_color.h **** #endif
ARM GAS  C:\Users\haske\AppData\Local\Temp\ccOknJt1.s 			page 31


  92:c:\projects\paindrain\arduinolcd\test\pain drain\libraries\lvgl\src\misc\lv_color.h **** 
  93:c:\projects\paindrain\arduinolcd\test\pain drain\libraries\lvgl\src\misc\lv_color.h **** #if _LV_COLOR_HAS_MODERN_CPP
  94:c:\projects\paindrain\arduinolcd\test\pain drain\libraries\lvgl\src\misc\lv_color.h **** /*Fix msvc compiler error C4576 inside C++ code*/
  95:c:\projects\paindrain\arduinolcd\test\pain drain\libraries\lvgl\src\misc\lv_color.h **** #define _LV_COLOR_MAKE_TYPE_HELPER lv_color_t
  96:c:\projects\paindrain\arduinolcd\test\pain drain\libraries\lvgl\src\misc\lv_color.h **** #else
  97:c:\projects\paindrain\arduinolcd\test\pain drain\libraries\lvgl\src\misc\lv_color.h **** #define _LV_COLOR_MAKE_TYPE_HELPER (lv_color_t)
  98:c:\projects\paindrain\arduinolcd\test\pain drain\libraries\lvgl\src\misc\lv_color.h **** #endif
  99:c:\projects\paindrain\arduinolcd\test\pain drain\libraries\lvgl\src\misc\lv_color.h **** 
 100:c:\projects\paindrain\arduinolcd\test\pain drain\libraries\lvgl\src\misc\lv_color.h **** /*---------------------------------------
 101:c:\projects\paindrain\arduinolcd\test\pain drain\libraries\lvgl\src\misc\lv_color.h ****  * Macros for all existing color depths
 102:c:\projects\paindrain\arduinolcd\test\pain drain\libraries\lvgl\src\misc\lv_color.h ****  * to set/get values of the color channels
 103:c:\projects\paindrain\arduinolcd\test\pain drain\libraries\lvgl\src\misc\lv_color.h ****  *------------------------------------------*/
 104:c:\projects\paindrain\arduinolcd\test\pain drain\libraries\lvgl\src\misc\lv_color.h **** # define LV_COLOR_SET_R1(c, v) (c).ch.red = (uint8_t)((v) & 0x1)
 105:c:\projects\paindrain\arduinolcd\test\pain drain\libraries\lvgl\src\misc\lv_color.h **** # define LV_COLOR_SET_G1(c, v) (c).ch.green = (uint8_t)((v) & 0x1)
 106:c:\projects\paindrain\arduinolcd\test\pain drain\libraries\lvgl\src\misc\lv_color.h **** # define LV_COLOR_SET_B1(c, v) (c).ch.blue = (uint8_t)((v) & 0x1)
 107:c:\projects\paindrain\arduinolcd\test\pain drain\libraries\lvgl\src\misc\lv_color.h **** # define LV_COLOR_SET_A1(c, v) do {} while(0)
 108:c:\projects\paindrain\arduinolcd\test\pain drain\libraries\lvgl\src\misc\lv_color.h **** 
 109:c:\projects\paindrain\arduinolcd\test\pain drain\libraries\lvgl\src\misc\lv_color.h **** # define LV_COLOR_GET_R1(c) (c).ch.red
 110:c:\projects\paindrain\arduinolcd\test\pain drain\libraries\lvgl\src\misc\lv_color.h **** # define LV_COLOR_GET_G1(c) (c).ch.green
 111:c:\projects\paindrain\arduinolcd\test\pain drain\libraries\lvgl\src\misc\lv_color.h **** # define LV_COLOR_GET_B1(c) (c).ch.blue
 112:c:\projects\paindrain\arduinolcd\test\pain drain\libraries\lvgl\src\misc\lv_color.h **** # define LV_COLOR_GET_A1(c) 0xFF
 113:c:\projects\paindrain\arduinolcd\test\pain drain\libraries\lvgl\src\misc\lv_color.h **** 
 114:c:\projects\paindrain\arduinolcd\test\pain drain\libraries\lvgl\src\misc\lv_color.h **** # define _LV_COLOR_ZERO_INITIALIZER1 {0x00}
 115:c:\projects\paindrain\arduinolcd\test\pain drain\libraries\lvgl\src\misc\lv_color.h **** # define LV_COLOR_MAKE1(r8, g8, b8)  {(uint8_t)((b8 >> 7) | (g8 >> 7) | (r8 >> 7))}
 116:c:\projects\paindrain\arduinolcd\test\pain drain\libraries\lvgl\src\misc\lv_color.h **** 
 117:c:\projects\paindrain\arduinolcd\test\pain drain\libraries\lvgl\src\misc\lv_color.h **** # define LV_COLOR_SET_R8(c, v) (c).ch.red = (uint8_t)((v) & 0x7U)
 118:c:\projects\paindrain\arduinolcd\test\pain drain\libraries\lvgl\src\misc\lv_color.h **** # define LV_COLOR_SET_G8(c, v) (c).ch.green = (uint8_t)((v) & 0x7U)
 119:c:\projects\paindrain\arduinolcd\test\pain drain\libraries\lvgl\src\misc\lv_color.h **** # define LV_COLOR_SET_B8(c, v) (c).ch.blue = (uint8_t)((v) & 0x3U)
 120:c:\projects\paindrain\arduinolcd\test\pain drain\libraries\lvgl\src\misc\lv_color.h **** # define LV_COLOR_SET_A8(c, v) do {} while(0)
 121:c:\projects\paindrain\arduinolcd\test\pain drain\libraries\lvgl\src\misc\lv_color.h **** 
 122:c:\projects\paindrain\arduinolcd\test\pain drain\libraries\lvgl\src\misc\lv_color.h **** # define LV_COLOR_GET_R8(c) (c).ch.red
 123:c:\projects\paindrain\arduinolcd\test\pain drain\libraries\lvgl\src\misc\lv_color.h **** # define LV_COLOR_GET_G8(c) (c).ch.green
 124:c:\projects\paindrain\arduinolcd\test\pain drain\libraries\lvgl\src\misc\lv_color.h **** # define LV_COLOR_GET_B8(c) (c).ch.blue
 125:c:\projects\paindrain\arduinolcd\test\pain drain\libraries\lvgl\src\misc\lv_color.h **** # define LV_COLOR_GET_A8(c) 0xFF
 126:c:\projects\paindrain\arduinolcd\test\pain drain\libraries\lvgl\src\misc\lv_color.h **** 
 127:c:\projects\paindrain\arduinolcd\test\pain drain\libraries\lvgl\src\misc\lv_color.h **** # define _LV_COLOR_ZERO_INITIALIZER8 {{0x00, 0x00, 0x00}}
 128:c:\projects\paindrain\arduinolcd\test\pain drain\libraries\lvgl\src\misc\lv_color.h **** # define LV_COLOR_MAKE8(r8, g8, b8) {{(uint8_t)((b8 >> 6) & 0x3U), (uint8_t)((g8 >> 5) & 0x7U), (ui
 129:c:\projects\paindrain\arduinolcd\test\pain drain\libraries\lvgl\src\misc\lv_color.h **** 
 130:c:\projects\paindrain\arduinolcd\test\pain drain\libraries\lvgl\src\misc\lv_color.h **** # define LV_COLOR_SET_R16(c, v) (c).ch.red = (uint8_t)((v) & 0x1FU)
 131:c:\projects\paindrain\arduinolcd\test\pain drain\libraries\lvgl\src\misc\lv_color.h **** #if LV_COLOR_16_SWAP == 0
 132:c:\projects\paindrain\arduinolcd\test\pain drain\libraries\lvgl\src\misc\lv_color.h **** # define LV_COLOR_SET_G16(c, v) (c).ch.green = (uint8_t)((v) & 0x3FU)
 133:c:\projects\paindrain\arduinolcd\test\pain drain\libraries\lvgl\src\misc\lv_color.h **** #else
 134:c:\projects\paindrain\arduinolcd\test\pain drain\libraries\lvgl\src\misc\lv_color.h **** # define LV_COLOR_SET_G16(c, v) {(c).ch.green_h = (uint8_t)(((v) >> 3) & 0x7); (c).ch.green_l = (ui
 135:c:\projects\paindrain\arduinolcd\test\pain drain\libraries\lvgl\src\misc\lv_color.h **** #endif
 136:c:\projects\paindrain\arduinolcd\test\pain drain\libraries\lvgl\src\misc\lv_color.h **** # define LV_COLOR_SET_B16(c, v) (c).ch.blue = (uint8_t)((v) & 0x1FU)
 137:c:\projects\paindrain\arduinolcd\test\pain drain\libraries\lvgl\src\misc\lv_color.h **** # define LV_COLOR_SET_A16(c, v) do {} while(0)
 138:c:\projects\paindrain\arduinolcd\test\pain drain\libraries\lvgl\src\misc\lv_color.h **** 
 139:c:\projects\paindrain\arduinolcd\test\pain drain\libraries\lvgl\src\misc\lv_color.h **** # define LV_COLOR_GET_R16(c) (c).ch.red
 140:c:\projects\paindrain\arduinolcd\test\pain drain\libraries\lvgl\src\misc\lv_color.h **** #if LV_COLOR_16_SWAP == 0
 141:c:\projects\paindrain\arduinolcd\test\pain drain\libraries\lvgl\src\misc\lv_color.h **** # define LV_COLOR_GET_G16(c) (c).ch.green
 142:c:\projects\paindrain\arduinolcd\test\pain drain\libraries\lvgl\src\misc\lv_color.h **** #else
 143:c:\projects\paindrain\arduinolcd\test\pain drain\libraries\lvgl\src\misc\lv_color.h **** # define LV_COLOR_GET_G16(c) (((c).ch.green_h << 3) + (c).ch.green_l)
 144:c:\projects\paindrain\arduinolcd\test\pain drain\libraries\lvgl\src\misc\lv_color.h **** #endif
 145:c:\projects\paindrain\arduinolcd\test\pain drain\libraries\lvgl\src\misc\lv_color.h **** # define LV_COLOR_GET_B16(c) (c).ch.blue
 146:c:\projects\paindrain\arduinolcd\test\pain drain\libraries\lvgl\src\misc\lv_color.h **** # define LV_COLOR_GET_A16(c) 0xFF
 147:c:\projects\paindrain\arduinolcd\test\pain drain\libraries\lvgl\src\misc\lv_color.h **** 
 148:c:\projects\paindrain\arduinolcd\test\pain drain\libraries\lvgl\src\misc\lv_color.h **** #if LV_COLOR_16_SWAP == 0
ARM GAS  C:\Users\haske\AppData\Local\Temp\ccOknJt1.s 			page 32


 149:c:\projects\paindrain\arduinolcd\test\pain drain\libraries\lvgl\src\misc\lv_color.h **** # define _LV_COLOR_ZERO_INITIALIZER16  {{0x00, 0x00, 0x00}}
 150:c:\projects\paindrain\arduinolcd\test\pain drain\libraries\lvgl\src\misc\lv_color.h **** # define LV_COLOR_MAKE16(r8, g8, b8) {{(uint8_t)((b8 >> 3) & 0x1FU), (uint8_t)((g8 >> 2) & 0x3FU), 
 151:c:\projects\paindrain\arduinolcd\test\pain drain\libraries\lvgl\src\misc\lv_color.h **** #else
 152:c:\projects\paindrain\arduinolcd\test\pain drain\libraries\lvgl\src\misc\lv_color.h **** # define _LV_COLOR_ZERO_INITIALIZER16 {{0x00, 0x00, 0x00, 0x00}}
 153:c:\projects\paindrain\arduinolcd\test\pain drain\libraries\lvgl\src\misc\lv_color.h **** # define LV_COLOR_MAKE16(r8, g8, b8) {{(uint8_t)((g8 >> 5) & 0x7U), (uint8_t)((r8 >> 3) & 0x1FU), (
 154:c:\projects\paindrain\arduinolcd\test\pain drain\libraries\lvgl\src\misc\lv_color.h **** #endif
 155:c:\projects\paindrain\arduinolcd\test\pain drain\libraries\lvgl\src\misc\lv_color.h **** 
 156:c:\projects\paindrain\arduinolcd\test\pain drain\libraries\lvgl\src\misc\lv_color.h **** # define LV_COLOR_SET_R32(c, v) (c).ch.red = (uint8_t)((v) & 0xFF)
 157:c:\projects\paindrain\arduinolcd\test\pain drain\libraries\lvgl\src\misc\lv_color.h **** # define LV_COLOR_SET_G32(c, v) (c).ch.green = (uint8_t)((v) & 0xFF)
 158:c:\projects\paindrain\arduinolcd\test\pain drain\libraries\lvgl\src\misc\lv_color.h **** # define LV_COLOR_SET_B32(c, v) (c).ch.blue = (uint8_t)((v) & 0xFF)
 159:c:\projects\paindrain\arduinolcd\test\pain drain\libraries\lvgl\src\misc\lv_color.h **** # define LV_COLOR_SET_A32(c, v) (c).ch.alpha = (uint8_t)((v) & 0xFF)
 160:c:\projects\paindrain\arduinolcd\test\pain drain\libraries\lvgl\src\misc\lv_color.h **** 
 161:c:\projects\paindrain\arduinolcd\test\pain drain\libraries\lvgl\src\misc\lv_color.h **** # define LV_COLOR_GET_R32(c) (c).ch.red
 162:c:\projects\paindrain\arduinolcd\test\pain drain\libraries\lvgl\src\misc\lv_color.h **** # define LV_COLOR_GET_G32(c) (c).ch.green
 163:c:\projects\paindrain\arduinolcd\test\pain drain\libraries\lvgl\src\misc\lv_color.h **** # define LV_COLOR_GET_B32(c) (c).ch.blue
 164:c:\projects\paindrain\arduinolcd\test\pain drain\libraries\lvgl\src\misc\lv_color.h **** # define LV_COLOR_GET_A32(c) (c).ch.alpha
 165:c:\projects\paindrain\arduinolcd\test\pain drain\libraries\lvgl\src\misc\lv_color.h **** 
 166:c:\projects\paindrain\arduinolcd\test\pain drain\libraries\lvgl\src\misc\lv_color.h **** # define _LV_COLOR_ZERO_INITIALIZER32  {{0x00, 0x00, 0x00, 0x00}}
 167:c:\projects\paindrain\arduinolcd\test\pain drain\libraries\lvgl\src\misc\lv_color.h **** # define LV_COLOR_MAKE32(r8, g8, b8) {{b8, g8, r8, 0xff}} /*Fix 0xff alpha*/
 168:c:\projects\paindrain\arduinolcd\test\pain drain\libraries\lvgl\src\misc\lv_color.h **** 
 169:c:\projects\paindrain\arduinolcd\test\pain drain\libraries\lvgl\src\misc\lv_color.h **** /*---------------------------------------
 170:c:\projects\paindrain\arduinolcd\test\pain drain\libraries\lvgl\src\misc\lv_color.h ****  * Macros for the current color depth
 171:c:\projects\paindrain\arduinolcd\test\pain drain\libraries\lvgl\src\misc\lv_color.h ****  * to set/get values of the color channels
 172:c:\projects\paindrain\arduinolcd\test\pain drain\libraries\lvgl\src\misc\lv_color.h ****  *------------------------------------------*/
 173:c:\projects\paindrain\arduinolcd\test\pain drain\libraries\lvgl\src\misc\lv_color.h **** #define LV_COLOR_SET_R(c, v) LV_CONCAT(LV_COLOR_SET_R, LV_COLOR_DEPTH)(c, v)
 174:c:\projects\paindrain\arduinolcd\test\pain drain\libraries\lvgl\src\misc\lv_color.h **** #define LV_COLOR_SET_G(c, v) LV_CONCAT(LV_COLOR_SET_G, LV_COLOR_DEPTH)(c, v)
 175:c:\projects\paindrain\arduinolcd\test\pain drain\libraries\lvgl\src\misc\lv_color.h **** #define LV_COLOR_SET_B(c, v) LV_CONCAT(LV_COLOR_SET_B, LV_COLOR_DEPTH)(c, v)
 176:c:\projects\paindrain\arduinolcd\test\pain drain\libraries\lvgl\src\misc\lv_color.h **** #define LV_COLOR_SET_A(c, v) LV_CONCAT(LV_COLOR_SET_A, LV_COLOR_DEPTH)(c, v)
 177:c:\projects\paindrain\arduinolcd\test\pain drain\libraries\lvgl\src\misc\lv_color.h **** 
 178:c:\projects\paindrain\arduinolcd\test\pain drain\libraries\lvgl\src\misc\lv_color.h **** #define LV_COLOR_GET_R(c) LV_CONCAT(LV_COLOR_GET_R, LV_COLOR_DEPTH)(c)
 179:c:\projects\paindrain\arduinolcd\test\pain drain\libraries\lvgl\src\misc\lv_color.h **** #define LV_COLOR_GET_G(c) LV_CONCAT(LV_COLOR_GET_G, LV_COLOR_DEPTH)(c)
 180:c:\projects\paindrain\arduinolcd\test\pain drain\libraries\lvgl\src\misc\lv_color.h **** #define LV_COLOR_GET_B(c) LV_CONCAT(LV_COLOR_GET_B, LV_COLOR_DEPTH)(c)
 181:c:\projects\paindrain\arduinolcd\test\pain drain\libraries\lvgl\src\misc\lv_color.h **** #define LV_COLOR_GET_A(c) LV_CONCAT(LV_COLOR_GET_A, LV_COLOR_DEPTH)(c)
 182:c:\projects\paindrain\arduinolcd\test\pain drain\libraries\lvgl\src\misc\lv_color.h **** 
 183:c:\projects\paindrain\arduinolcd\test\pain drain\libraries\lvgl\src\misc\lv_color.h **** #define _LV_COLOR_ZERO_INITIALIZER LV_CONCAT(_LV_COLOR_ZERO_INITIALIZER, LV_COLOR_DEPTH)
 184:c:\projects\paindrain\arduinolcd\test\pain drain\libraries\lvgl\src\misc\lv_color.h **** #define LV_COLOR_MAKE(r8, g8, b8) LV_CONCAT(LV_COLOR_MAKE, LV_COLOR_DEPTH)(r8, g8, b8)
 185:c:\projects\paindrain\arduinolcd\test\pain drain\libraries\lvgl\src\misc\lv_color.h **** 
 186:c:\projects\paindrain\arduinolcd\test\pain drain\libraries\lvgl\src\misc\lv_color.h **** /**********************
 187:c:\projects\paindrain\arduinolcd\test\pain drain\libraries\lvgl\src\misc\lv_color.h ****  *      TYPEDEFS
 188:c:\projects\paindrain\arduinolcd\test\pain drain\libraries\lvgl\src\misc\lv_color.h ****  **********************/
 189:c:\projects\paindrain\arduinolcd\test\pain drain\libraries\lvgl\src\misc\lv_color.h **** 
 190:c:\projects\paindrain\arduinolcd\test\pain drain\libraries\lvgl\src\misc\lv_color.h **** typedef union {
 191:c:\projects\paindrain\arduinolcd\test\pain drain\libraries\lvgl\src\misc\lv_color.h ****     uint8_t full; /*must be declared first to set all bits of byte via initializer list*/
 192:c:\projects\paindrain\arduinolcd\test\pain drain\libraries\lvgl\src\misc\lv_color.h ****     union {
 193:c:\projects\paindrain\arduinolcd\test\pain drain\libraries\lvgl\src\misc\lv_color.h ****         uint8_t blue : 1;
 194:c:\projects\paindrain\arduinolcd\test\pain drain\libraries\lvgl\src\misc\lv_color.h ****         uint8_t green : 1;
 195:c:\projects\paindrain\arduinolcd\test\pain drain\libraries\lvgl\src\misc\lv_color.h ****         uint8_t red : 1;
 196:c:\projects\paindrain\arduinolcd\test\pain drain\libraries\lvgl\src\misc\lv_color.h ****     } ch;
 197:c:\projects\paindrain\arduinolcd\test\pain drain\libraries\lvgl\src\misc\lv_color.h **** } lv_color1_t;
 198:c:\projects\paindrain\arduinolcd\test\pain drain\libraries\lvgl\src\misc\lv_color.h **** 
 199:c:\projects\paindrain\arduinolcd\test\pain drain\libraries\lvgl\src\misc\lv_color.h **** typedef union {
 200:c:\projects\paindrain\arduinolcd\test\pain drain\libraries\lvgl\src\misc\lv_color.h ****     struct {
 201:c:\projects\paindrain\arduinolcd\test\pain drain\libraries\lvgl\src\misc\lv_color.h ****         uint8_t blue : 2;
 202:c:\projects\paindrain\arduinolcd\test\pain drain\libraries\lvgl\src\misc\lv_color.h ****         uint8_t green : 3;
 203:c:\projects\paindrain\arduinolcd\test\pain drain\libraries\lvgl\src\misc\lv_color.h ****         uint8_t red : 3;
 204:c:\projects\paindrain\arduinolcd\test\pain drain\libraries\lvgl\src\misc\lv_color.h ****     } ch;
 205:c:\projects\paindrain\arduinolcd\test\pain drain\libraries\lvgl\src\misc\lv_color.h ****     uint8_t full;
ARM GAS  C:\Users\haske\AppData\Local\Temp\ccOknJt1.s 			page 33


 206:c:\projects\paindrain\arduinolcd\test\pain drain\libraries\lvgl\src\misc\lv_color.h **** } lv_color8_t;
 207:c:\projects\paindrain\arduinolcd\test\pain drain\libraries\lvgl\src\misc\lv_color.h **** 
 208:c:\projects\paindrain\arduinolcd\test\pain drain\libraries\lvgl\src\misc\lv_color.h **** typedef union {
 209:c:\projects\paindrain\arduinolcd\test\pain drain\libraries\lvgl\src\misc\lv_color.h ****     struct {
 210:c:\projects\paindrain\arduinolcd\test\pain drain\libraries\lvgl\src\misc\lv_color.h **** #if LV_COLOR_16_SWAP == 0
 211:c:\projects\paindrain\arduinolcd\test\pain drain\libraries\lvgl\src\misc\lv_color.h ****         uint16_t blue : 5;
 212:c:\projects\paindrain\arduinolcd\test\pain drain\libraries\lvgl\src\misc\lv_color.h ****         uint16_t green : 6;
 213:c:\projects\paindrain\arduinolcd\test\pain drain\libraries\lvgl\src\misc\lv_color.h ****         uint16_t red : 5;
 214:c:\projects\paindrain\arduinolcd\test\pain drain\libraries\lvgl\src\misc\lv_color.h **** #else
 215:c:\projects\paindrain\arduinolcd\test\pain drain\libraries\lvgl\src\misc\lv_color.h ****         uint16_t green_h : 3;
 216:c:\projects\paindrain\arduinolcd\test\pain drain\libraries\lvgl\src\misc\lv_color.h ****         uint16_t red : 5;
 217:c:\projects\paindrain\arduinolcd\test\pain drain\libraries\lvgl\src\misc\lv_color.h ****         uint16_t blue : 5;
 218:c:\projects\paindrain\arduinolcd\test\pain drain\libraries\lvgl\src\misc\lv_color.h ****         uint16_t green_l : 3;
 219:c:\projects\paindrain\arduinolcd\test\pain drain\libraries\lvgl\src\misc\lv_color.h **** #endif
 220:c:\projects\paindrain\arduinolcd\test\pain drain\libraries\lvgl\src\misc\lv_color.h ****     } ch;
 221:c:\projects\paindrain\arduinolcd\test\pain drain\libraries\lvgl\src\misc\lv_color.h ****     uint16_t full;
 222:c:\projects\paindrain\arduinolcd\test\pain drain\libraries\lvgl\src\misc\lv_color.h **** } lv_color16_t;
 223:c:\projects\paindrain\arduinolcd\test\pain drain\libraries\lvgl\src\misc\lv_color.h **** 
 224:c:\projects\paindrain\arduinolcd\test\pain drain\libraries\lvgl\src\misc\lv_color.h **** typedef union {
 225:c:\projects\paindrain\arduinolcd\test\pain drain\libraries\lvgl\src\misc\lv_color.h ****     struct {
 226:c:\projects\paindrain\arduinolcd\test\pain drain\libraries\lvgl\src\misc\lv_color.h ****         uint8_t blue;
 227:c:\projects\paindrain\arduinolcd\test\pain drain\libraries\lvgl\src\misc\lv_color.h ****         uint8_t green;
 228:c:\projects\paindrain\arduinolcd\test\pain drain\libraries\lvgl\src\misc\lv_color.h ****         uint8_t red;
 229:c:\projects\paindrain\arduinolcd\test\pain drain\libraries\lvgl\src\misc\lv_color.h ****         uint8_t alpha;
 230:c:\projects\paindrain\arduinolcd\test\pain drain\libraries\lvgl\src\misc\lv_color.h ****     } ch;
 231:c:\projects\paindrain\arduinolcd\test\pain drain\libraries\lvgl\src\misc\lv_color.h ****     uint32_t full;
 232:c:\projects\paindrain\arduinolcd\test\pain drain\libraries\lvgl\src\misc\lv_color.h **** } lv_color32_t;
 233:c:\projects\paindrain\arduinolcd\test\pain drain\libraries\lvgl\src\misc\lv_color.h **** 
 234:c:\projects\paindrain\arduinolcd\test\pain drain\libraries\lvgl\src\misc\lv_color.h **** typedef LV_CONCAT3(uint, LV_COLOR_SIZE, _t) lv_color_int_t;
 235:c:\projects\paindrain\arduinolcd\test\pain drain\libraries\lvgl\src\misc\lv_color.h **** typedef LV_CONCAT3(lv_color, LV_COLOR_DEPTH, _t) lv_color_t;
 236:c:\projects\paindrain\arduinolcd\test\pain drain\libraries\lvgl\src\misc\lv_color.h **** 
 237:c:\projects\paindrain\arduinolcd\test\pain drain\libraries\lvgl\src\misc\lv_color.h **** typedef struct {
 238:c:\projects\paindrain\arduinolcd\test\pain drain\libraries\lvgl\src\misc\lv_color.h ****     uint16_t h;
 239:c:\projects\paindrain\arduinolcd\test\pain drain\libraries\lvgl\src\misc\lv_color.h ****     uint8_t s;
 240:c:\projects\paindrain\arduinolcd\test\pain drain\libraries\lvgl\src\misc\lv_color.h ****     uint8_t v;
 241:c:\projects\paindrain\arduinolcd\test\pain drain\libraries\lvgl\src\misc\lv_color.h **** } lv_color_hsv_t;
 242:c:\projects\paindrain\arduinolcd\test\pain drain\libraries\lvgl\src\misc\lv_color.h **** 
 243:c:\projects\paindrain\arduinolcd\test\pain drain\libraries\lvgl\src\misc\lv_color.h **** //! @cond Doxygen_Suppress
 244:c:\projects\paindrain\arduinolcd\test\pain drain\libraries\lvgl\src\misc\lv_color.h **** /*No idea where the guard is required but else throws warnings in the docs*/
 245:c:\projects\paindrain\arduinolcd\test\pain drain\libraries\lvgl\src\misc\lv_color.h **** typedef uint8_t lv_opa_t;
 246:c:\projects\paindrain\arduinolcd\test\pain drain\libraries\lvgl\src\misc\lv_color.h **** //! @endcond
 247:c:\projects\paindrain\arduinolcd\test\pain drain\libraries\lvgl\src\misc\lv_color.h **** 
 248:c:\projects\paindrain\arduinolcd\test\pain drain\libraries\lvgl\src\misc\lv_color.h **** struct _lv_color_filter_dsc_t;
 249:c:\projects\paindrain\arduinolcd\test\pain drain\libraries\lvgl\src\misc\lv_color.h **** 
 250:c:\projects\paindrain\arduinolcd\test\pain drain\libraries\lvgl\src\misc\lv_color.h **** typedef lv_color_t (*lv_color_filter_cb_t)(const struct _lv_color_filter_dsc_t *, lv_color_t, lv_op
 251:c:\projects\paindrain\arduinolcd\test\pain drain\libraries\lvgl\src\misc\lv_color.h **** 
 252:c:\projects\paindrain\arduinolcd\test\pain drain\libraries\lvgl\src\misc\lv_color.h **** typedef struct _lv_color_filter_dsc_t {
 253:c:\projects\paindrain\arduinolcd\test\pain drain\libraries\lvgl\src\misc\lv_color.h ****     lv_color_filter_cb_t filter_cb;
 254:c:\projects\paindrain\arduinolcd\test\pain drain\libraries\lvgl\src\misc\lv_color.h ****     void * user_data;
 255:c:\projects\paindrain\arduinolcd\test\pain drain\libraries\lvgl\src\misc\lv_color.h **** } lv_color_filter_dsc_t;
 256:c:\projects\paindrain\arduinolcd\test\pain drain\libraries\lvgl\src\misc\lv_color.h **** 
 257:c:\projects\paindrain\arduinolcd\test\pain drain\libraries\lvgl\src\misc\lv_color.h **** 
 258:c:\projects\paindrain\arduinolcd\test\pain drain\libraries\lvgl\src\misc\lv_color.h **** typedef enum {
 259:c:\projects\paindrain\arduinolcd\test\pain drain\libraries\lvgl\src\misc\lv_color.h ****     LV_PALETTE_RED,
 260:c:\projects\paindrain\arduinolcd\test\pain drain\libraries\lvgl\src\misc\lv_color.h ****     LV_PALETTE_PINK,
 261:c:\projects\paindrain\arduinolcd\test\pain drain\libraries\lvgl\src\misc\lv_color.h ****     LV_PALETTE_PURPLE,
 262:c:\projects\paindrain\arduinolcd\test\pain drain\libraries\lvgl\src\misc\lv_color.h ****     LV_PALETTE_DEEP_PURPLE,
ARM GAS  C:\Users\haske\AppData\Local\Temp\ccOknJt1.s 			page 34


 263:c:\projects\paindrain\arduinolcd\test\pain drain\libraries\lvgl\src\misc\lv_color.h ****     LV_PALETTE_INDIGO,
 264:c:\projects\paindrain\arduinolcd\test\pain drain\libraries\lvgl\src\misc\lv_color.h ****     LV_PALETTE_BLUE,
 265:c:\projects\paindrain\arduinolcd\test\pain drain\libraries\lvgl\src\misc\lv_color.h ****     LV_PALETTE_LIGHT_BLUE,
 266:c:\projects\paindrain\arduinolcd\test\pain drain\libraries\lvgl\src\misc\lv_color.h ****     LV_PALETTE_CYAN,
 267:c:\projects\paindrain\arduinolcd\test\pain drain\libraries\lvgl\src\misc\lv_color.h ****     LV_PALETTE_TEAL,
 268:c:\projects\paindrain\arduinolcd\test\pain drain\libraries\lvgl\src\misc\lv_color.h ****     LV_PALETTE_GREEN,
 269:c:\projects\paindrain\arduinolcd\test\pain drain\libraries\lvgl\src\misc\lv_color.h ****     LV_PALETTE_LIGHT_GREEN,
 270:c:\projects\paindrain\arduinolcd\test\pain drain\libraries\lvgl\src\misc\lv_color.h ****     LV_PALETTE_LIME,
 271:c:\projects\paindrain\arduinolcd\test\pain drain\libraries\lvgl\src\misc\lv_color.h ****     LV_PALETTE_YELLOW,
 272:c:\projects\paindrain\arduinolcd\test\pain drain\libraries\lvgl\src\misc\lv_color.h ****     LV_PALETTE_AMBER,
 273:c:\projects\paindrain\arduinolcd\test\pain drain\libraries\lvgl\src\misc\lv_color.h ****     LV_PALETTE_ORANGE,
 274:c:\projects\paindrain\arduinolcd\test\pain drain\libraries\lvgl\src\misc\lv_color.h ****     LV_PALETTE_DEEP_ORANGE,
 275:c:\projects\paindrain\arduinolcd\test\pain drain\libraries\lvgl\src\misc\lv_color.h ****     LV_PALETTE_BROWN,
 276:c:\projects\paindrain\arduinolcd\test\pain drain\libraries\lvgl\src\misc\lv_color.h ****     LV_PALETTE_BLUE_GREY,
 277:c:\projects\paindrain\arduinolcd\test\pain drain\libraries\lvgl\src\misc\lv_color.h ****     LV_PALETTE_GREY,
 278:c:\projects\paindrain\arduinolcd\test\pain drain\libraries\lvgl\src\misc\lv_color.h ****     _LV_PALETTE_LAST,
 279:c:\projects\paindrain\arduinolcd\test\pain drain\libraries\lvgl\src\misc\lv_color.h ****     LV_PALETTE_NONE = 0xff,
 280:c:\projects\paindrain\arduinolcd\test\pain drain\libraries\lvgl\src\misc\lv_color.h **** } lv_palette_t;
 281:c:\projects\paindrain\arduinolcd\test\pain drain\libraries\lvgl\src\misc\lv_color.h **** 
 282:c:\projects\paindrain\arduinolcd\test\pain drain\libraries\lvgl\src\misc\lv_color.h **** /**********************
 283:c:\projects\paindrain\arduinolcd\test\pain drain\libraries\lvgl\src\misc\lv_color.h ****  * GLOBAL PROTOTYPES
 284:c:\projects\paindrain\arduinolcd\test\pain drain\libraries\lvgl\src\misc\lv_color.h ****  **********************/
 285:c:\projects\paindrain\arduinolcd\test\pain drain\libraries\lvgl\src\misc\lv_color.h **** 
 286:c:\projects\paindrain\arduinolcd\test\pain drain\libraries\lvgl\src\misc\lv_color.h **** /*In color conversations:
 287:c:\projects\paindrain\arduinolcd\test\pain drain\libraries\lvgl\src\misc\lv_color.h ****  * - When converting to bigger color type the LSB weight of 1 LSB is calculated
 288:c:\projects\paindrain\arduinolcd\test\pain drain\libraries\lvgl\src\misc\lv_color.h ****  *   E.g. 16 bit Red has 5 bits
 289:c:\projects\paindrain\arduinolcd\test\pain drain\libraries\lvgl\src\misc\lv_color.h ****  *         8 bit Red has 3 bits
 290:c:\projects\paindrain\arduinolcd\test\pain drain\libraries\lvgl\src\misc\lv_color.h ****  *        ----------------------
 291:c:\projects\paindrain\arduinolcd\test\pain drain\libraries\lvgl\src\misc\lv_color.h ****  *        8 bit red LSB = (2^5 - 1) / (2^3 - 1) = 31 / 7 = 4
 292:c:\projects\paindrain\arduinolcd\test\pain drain\libraries\lvgl\src\misc\lv_color.h ****  *
 293:c:\projects\paindrain\arduinolcd\test\pain drain\libraries\lvgl\src\misc\lv_color.h ****  * - When calculating to smaller color type simply shift out the LSBs
 294:c:\projects\paindrain\arduinolcd\test\pain drain\libraries\lvgl\src\misc\lv_color.h ****  *   E.g.  8 bit Red has 3 bits
 295:c:\projects\paindrain\arduinolcd\test\pain drain\libraries\lvgl\src\misc\lv_color.h ****  *        16 bit Red has 5 bits
 296:c:\projects\paindrain\arduinolcd\test\pain drain\libraries\lvgl\src\misc\lv_color.h ****  *        ----------------------
 297:c:\projects\paindrain\arduinolcd\test\pain drain\libraries\lvgl\src\misc\lv_color.h ****  *         Shift right with 5 - 3 = 2
 298:c:\projects\paindrain\arduinolcd\test\pain drain\libraries\lvgl\src\misc\lv_color.h ****  */
 299:c:\projects\paindrain\arduinolcd\test\pain drain\libraries\lvgl\src\misc\lv_color.h **** static inline uint8_t lv_color_to1(lv_color_t color)
 300:c:\projects\paindrain\arduinolcd\test\pain drain\libraries\lvgl\src\misc\lv_color.h **** {
 301:c:\projects\paindrain\arduinolcd\test\pain drain\libraries\lvgl\src\misc\lv_color.h **** #if LV_COLOR_DEPTH == 1
 302:c:\projects\paindrain\arduinolcd\test\pain drain\libraries\lvgl\src\misc\lv_color.h ****     return color.full;
 303:c:\projects\paindrain\arduinolcd\test\pain drain\libraries\lvgl\src\misc\lv_color.h **** #elif LV_COLOR_DEPTH == 8
 304:c:\projects\paindrain\arduinolcd\test\pain drain\libraries\lvgl\src\misc\lv_color.h ****     if((LV_COLOR_GET_R(color) & 0x4) || (LV_COLOR_GET_G(color) & 0x4) || (LV_COLOR_GET_B(color) & 0
 305:c:\projects\paindrain\arduinolcd\test\pain drain\libraries\lvgl\src\misc\lv_color.h ****         return 1;
 306:c:\projects\paindrain\arduinolcd\test\pain drain\libraries\lvgl\src\misc\lv_color.h ****     }
 307:c:\projects\paindrain\arduinolcd\test\pain drain\libraries\lvgl\src\misc\lv_color.h ****     else {
 308:c:\projects\paindrain\arduinolcd\test\pain drain\libraries\lvgl\src\misc\lv_color.h ****         return 0;
 309:c:\projects\paindrain\arduinolcd\test\pain drain\libraries\lvgl\src\misc\lv_color.h ****     }
 310:c:\projects\paindrain\arduinolcd\test\pain drain\libraries\lvgl\src\misc\lv_color.h **** #elif LV_COLOR_DEPTH == 16
 311:c:\projects\paindrain\arduinolcd\test\pain drain\libraries\lvgl\src\misc\lv_color.h ****     if((LV_COLOR_GET_R(color) & 0x10) || (LV_COLOR_GET_G(color) & 0x20) || (LV_COLOR_GET_B(color) &
 312:c:\projects\paindrain\arduinolcd\test\pain drain\libraries\lvgl\src\misc\lv_color.h ****         return 1;
 313:c:\projects\paindrain\arduinolcd\test\pain drain\libraries\lvgl\src\misc\lv_color.h ****     }
 314:c:\projects\paindrain\arduinolcd\test\pain drain\libraries\lvgl\src\misc\lv_color.h ****     else {
 315:c:\projects\paindrain\arduinolcd\test\pain drain\libraries\lvgl\src\misc\lv_color.h ****         return 0;
 316:c:\projects\paindrain\arduinolcd\test\pain drain\libraries\lvgl\src\misc\lv_color.h ****     }
 317:c:\projects\paindrain\arduinolcd\test\pain drain\libraries\lvgl\src\misc\lv_color.h **** #elif LV_COLOR_DEPTH == 32
 318:c:\projects\paindrain\arduinolcd\test\pain drain\libraries\lvgl\src\misc\lv_color.h ****     if((LV_COLOR_GET_R(color) & 0x80) || (LV_COLOR_GET_G(color) & 0x80) || (LV_COLOR_GET_B(color) &
 319:c:\projects\paindrain\arduinolcd\test\pain drain\libraries\lvgl\src\misc\lv_color.h ****         return 1;
ARM GAS  C:\Users\haske\AppData\Local\Temp\ccOknJt1.s 			page 35


 320:c:\projects\paindrain\arduinolcd\test\pain drain\libraries\lvgl\src\misc\lv_color.h ****     }
 321:c:\projects\paindrain\arduinolcd\test\pain drain\libraries\lvgl\src\misc\lv_color.h ****     else {
 322:c:\projects\paindrain\arduinolcd\test\pain drain\libraries\lvgl\src\misc\lv_color.h ****         return 0;
 323:c:\projects\paindrain\arduinolcd\test\pain drain\libraries\lvgl\src\misc\lv_color.h ****     }
 324:c:\projects\paindrain\arduinolcd\test\pain drain\libraries\lvgl\src\misc\lv_color.h **** #endif
 325:c:\projects\paindrain\arduinolcd\test\pain drain\libraries\lvgl\src\misc\lv_color.h **** }
 326:c:\projects\paindrain\arduinolcd\test\pain drain\libraries\lvgl\src\misc\lv_color.h **** 
 327:c:\projects\paindrain\arduinolcd\test\pain drain\libraries\lvgl\src\misc\lv_color.h **** static inline uint8_t lv_color_to8(lv_color_t color)
 328:c:\projects\paindrain\arduinolcd\test\pain drain\libraries\lvgl\src\misc\lv_color.h **** {
 329:c:\projects\paindrain\arduinolcd\test\pain drain\libraries\lvgl\src\misc\lv_color.h **** #if LV_COLOR_DEPTH == 1
 330:c:\projects\paindrain\arduinolcd\test\pain drain\libraries\lvgl\src\misc\lv_color.h ****     if(color.full == 0)
 331:c:\projects\paindrain\arduinolcd\test\pain drain\libraries\lvgl\src\misc\lv_color.h ****         return 0;
 332:c:\projects\paindrain\arduinolcd\test\pain drain\libraries\lvgl\src\misc\lv_color.h ****     else
 333:c:\projects\paindrain\arduinolcd\test\pain drain\libraries\lvgl\src\misc\lv_color.h ****         return 0xFF;
 334:c:\projects\paindrain\arduinolcd\test\pain drain\libraries\lvgl\src\misc\lv_color.h **** #elif LV_COLOR_DEPTH == 8
 335:c:\projects\paindrain\arduinolcd\test\pain drain\libraries\lvgl\src\misc\lv_color.h ****     return color.full;
 336:c:\projects\paindrain\arduinolcd\test\pain drain\libraries\lvgl\src\misc\lv_color.h **** #elif LV_COLOR_DEPTH == 16
 337:c:\projects\paindrain\arduinolcd\test\pain drain\libraries\lvgl\src\misc\lv_color.h ****     lv_color8_t ret;
 338:c:\projects\paindrain\arduinolcd\test\pain drain\libraries\lvgl\src\misc\lv_color.h ****     LV_COLOR_SET_R8(ret, LV_COLOR_GET_R(color) >> 2); /*5 - 3  = 2*/
 339:c:\projects\paindrain\arduinolcd\test\pain drain\libraries\lvgl\src\misc\lv_color.h ****     LV_COLOR_SET_G8(ret, LV_COLOR_GET_G(color) >> 3); /*6 - 3  = 3*/
 340:c:\projects\paindrain\arduinolcd\test\pain drain\libraries\lvgl\src\misc\lv_color.h ****     LV_COLOR_SET_B8(ret, LV_COLOR_GET_B(color) >> 3); /*5 - 2  = 3*/
 341:c:\projects\paindrain\arduinolcd\test\pain drain\libraries\lvgl\src\misc\lv_color.h ****     return ret.full;
 342:c:\projects\paindrain\arduinolcd\test\pain drain\libraries\lvgl\src\misc\lv_color.h **** #elif LV_COLOR_DEPTH == 32
 343:c:\projects\paindrain\arduinolcd\test\pain drain\libraries\lvgl\src\misc\lv_color.h ****     lv_color8_t ret;
 344:c:\projects\paindrain\arduinolcd\test\pain drain\libraries\lvgl\src\misc\lv_color.h ****     LV_COLOR_SET_R8(ret, LV_COLOR_GET_R(color) >> 5); /*8 - 3  = 5*/
 345:c:\projects\paindrain\arduinolcd\test\pain drain\libraries\lvgl\src\misc\lv_color.h ****     LV_COLOR_SET_G8(ret, LV_COLOR_GET_G(color) >> 5); /*8 - 3  = 5*/
 346:c:\projects\paindrain\arduinolcd\test\pain drain\libraries\lvgl\src\misc\lv_color.h ****     LV_COLOR_SET_B8(ret, LV_COLOR_GET_B(color) >> 6); /*8 - 2  = 6*/
 347:c:\projects\paindrain\arduinolcd\test\pain drain\libraries\lvgl\src\misc\lv_color.h ****     return ret.full;
 348:c:\projects\paindrain\arduinolcd\test\pain drain\libraries\lvgl\src\misc\lv_color.h **** #endif
 349:c:\projects\paindrain\arduinolcd\test\pain drain\libraries\lvgl\src\misc\lv_color.h **** }
 350:c:\projects\paindrain\arduinolcd\test\pain drain\libraries\lvgl\src\misc\lv_color.h **** 
 351:c:\projects\paindrain\arduinolcd\test\pain drain\libraries\lvgl\src\misc\lv_color.h **** static inline uint16_t lv_color_to16(lv_color_t color)
 352:c:\projects\paindrain\arduinolcd\test\pain drain\libraries\lvgl\src\misc\lv_color.h **** {
 353:c:\projects\paindrain\arduinolcd\test\pain drain\libraries\lvgl\src\misc\lv_color.h **** #if LV_COLOR_DEPTH == 1
 354:c:\projects\paindrain\arduinolcd\test\pain drain\libraries\lvgl\src\misc\lv_color.h ****     if(color.full == 0)
 355:c:\projects\paindrain\arduinolcd\test\pain drain\libraries\lvgl\src\misc\lv_color.h ****         return 0;
 356:c:\projects\paindrain\arduinolcd\test\pain drain\libraries\lvgl\src\misc\lv_color.h ****     else
 357:c:\projects\paindrain\arduinolcd\test\pain drain\libraries\lvgl\src\misc\lv_color.h ****         return 0xFFFF;
 358:c:\projects\paindrain\arduinolcd\test\pain drain\libraries\lvgl\src\misc\lv_color.h **** #elif LV_COLOR_DEPTH == 8
 359:c:\projects\paindrain\arduinolcd\test\pain drain\libraries\lvgl\src\misc\lv_color.h ****     lv_color16_t ret;
 360:c:\projects\paindrain\arduinolcd\test\pain drain\libraries\lvgl\src\misc\lv_color.h ****     LV_COLOR_SET_R16(ret, LV_COLOR_GET_R(color) * 4);  /*(2^5 - 1)/(2^3 - 1) = 31/7 = 4*/
 361:c:\projects\paindrain\arduinolcd\test\pain drain\libraries\lvgl\src\misc\lv_color.h ****     LV_COLOR_SET_G16(ret, LV_COLOR_GET_G(color) * 9);  /*(2^6 - 1)/(2^3 - 1) = 63/7 = 9*/
 362:c:\projects\paindrain\arduinolcd\test\pain drain\libraries\lvgl\src\misc\lv_color.h ****     LV_COLOR_SET_B16(ret, LV_COLOR_GET_B(color) * 10); /*(2^5 - 1)/(2^2 - 1) = 31/3 = 10*/
 363:c:\projects\paindrain\arduinolcd\test\pain drain\libraries\lvgl\src\misc\lv_color.h ****     return ret.full;
 364:c:\projects\paindrain\arduinolcd\test\pain drain\libraries\lvgl\src\misc\lv_color.h **** #elif LV_COLOR_DEPTH == 16
 365:c:\projects\paindrain\arduinolcd\test\pain drain\libraries\lvgl\src\misc\lv_color.h ****     return color.full;
 366:c:\projects\paindrain\arduinolcd\test\pain drain\libraries\lvgl\src\misc\lv_color.h **** #elif LV_COLOR_DEPTH == 32
 367:c:\projects\paindrain\arduinolcd\test\pain drain\libraries\lvgl\src\misc\lv_color.h ****     lv_color16_t ret;
 368:c:\projects\paindrain\arduinolcd\test\pain drain\libraries\lvgl\src\misc\lv_color.h ****     LV_COLOR_SET_R16(ret, LV_COLOR_GET_R(color) >> 3); /*8 - 5  = 3*/
 369:c:\projects\paindrain\arduinolcd\test\pain drain\libraries\lvgl\src\misc\lv_color.h ****     LV_COLOR_SET_G16(ret, LV_COLOR_GET_G(color) >> 2); /*8 - 6  = 2*/
 370:c:\projects\paindrain\arduinolcd\test\pain drain\libraries\lvgl\src\misc\lv_color.h ****     LV_COLOR_SET_B16(ret, LV_COLOR_GET_B(color) >> 3); /*8 - 5  = 3*/
 371:c:\projects\paindrain\arduinolcd\test\pain drain\libraries\lvgl\src\misc\lv_color.h ****     return ret.full;
 372:c:\projects\paindrain\arduinolcd\test\pain drain\libraries\lvgl\src\misc\lv_color.h **** #endif
 373:c:\projects\paindrain\arduinolcd\test\pain drain\libraries\lvgl\src\misc\lv_color.h **** }
 374:c:\projects\paindrain\arduinolcd\test\pain drain\libraries\lvgl\src\misc\lv_color.h **** 
 375:c:\projects\paindrain\arduinolcd\test\pain drain\libraries\lvgl\src\misc\lv_color.h **** static inline uint32_t lv_color_to32(lv_color_t color)
 376:c:\projects\paindrain\arduinolcd\test\pain drain\libraries\lvgl\src\misc\lv_color.h **** {
ARM GAS  C:\Users\haske\AppData\Local\Temp\ccOknJt1.s 			page 36


 377:c:\projects\paindrain\arduinolcd\test\pain drain\libraries\lvgl\src\misc\lv_color.h **** #if LV_COLOR_DEPTH == 1
 378:c:\projects\paindrain\arduinolcd\test\pain drain\libraries\lvgl\src\misc\lv_color.h ****     if(color.full == 0)
 379:c:\projects\paindrain\arduinolcd\test\pain drain\libraries\lvgl\src\misc\lv_color.h ****         return 0xFF000000;
 380:c:\projects\paindrain\arduinolcd\test\pain drain\libraries\lvgl\src\misc\lv_color.h ****     else
 381:c:\projects\paindrain\arduinolcd\test\pain drain\libraries\lvgl\src\misc\lv_color.h ****         return 0xFFFFFFFF;
 382:c:\projects\paindrain\arduinolcd\test\pain drain\libraries\lvgl\src\misc\lv_color.h **** #elif LV_COLOR_DEPTH == 8
 383:c:\projects\paindrain\arduinolcd\test\pain drain\libraries\lvgl\src\misc\lv_color.h ****     lv_color32_t ret;
 384:c:\projects\paindrain\arduinolcd\test\pain drain\libraries\lvgl\src\misc\lv_color.h ****     LV_COLOR_SET_R32(ret, LV_COLOR_GET_R(color) * 36); /*(2^8 - 1)/(2^3 - 1) = 255/7 = 36*/
 385:c:\projects\paindrain\arduinolcd\test\pain drain\libraries\lvgl\src\misc\lv_color.h ****     LV_COLOR_SET_G32(ret, LV_COLOR_GET_G(color) * 36); /*(2^8 - 1)/(2^3 - 1) = 255/7 = 36*/
 386:c:\projects\paindrain\arduinolcd\test\pain drain\libraries\lvgl\src\misc\lv_color.h ****     LV_COLOR_SET_B32(ret, LV_COLOR_GET_B(color) * 85); /*(2^8 - 1)/(2^2 - 1) = 255/3 = 85*/
 387:c:\projects\paindrain\arduinolcd\test\pain drain\libraries\lvgl\src\misc\lv_color.h ****     LV_COLOR_SET_A32(ret, 0xFF);
 388:c:\projects\paindrain\arduinolcd\test\pain drain\libraries\lvgl\src\misc\lv_color.h ****     return ret.full;
 389:c:\projects\paindrain\arduinolcd\test\pain drain\libraries\lvgl\src\misc\lv_color.h **** #elif LV_COLOR_DEPTH == 16
 390:c:\projects\paindrain\arduinolcd\test\pain drain\libraries\lvgl\src\misc\lv_color.h ****     /**
 391:c:\projects\paindrain\arduinolcd\test\pain drain\libraries\lvgl\src\misc\lv_color.h ****      * The floating point math for conversion is:
 392:c:\projects\paindrain\arduinolcd\test\pain drain\libraries\lvgl\src\misc\lv_color.h ****      *  valueto = valuefrom * ( (2^bitsto - 1) / (float)(2^bitsfrom - 1) )
 393:c:\projects\paindrain\arduinolcd\test\pain drain\libraries\lvgl\src\misc\lv_color.h ****      * The faster integer math for conversion is:
 394:c:\projects\paindrain\arduinolcd\test\pain drain\libraries\lvgl\src\misc\lv_color.h ****      *  valueto = ( valuefrom * multiplier + adder ) >> divisor
 395:c:\projects\paindrain\arduinolcd\test\pain drain\libraries\lvgl\src\misc\lv_color.h ****      *   multiplier = FLOOR( ( (2^bitsto - 1) << divisor ) / (float)(2^bitsfrom - 1) )
 396:c:\projects\paindrain\arduinolcd\test\pain drain\libraries\lvgl\src\misc\lv_color.h ****      *
 397:c:\projects\paindrain\arduinolcd\test\pain drain\libraries\lvgl\src\misc\lv_color.h ****      * Find the first divisor where ( adder >> divisor ) <= 0
 398:c:\projects\paindrain\arduinolcd\test\pain drain\libraries\lvgl\src\misc\lv_color.h ****      *
 399:c:\projects\paindrain\arduinolcd\test\pain drain\libraries\lvgl\src\misc\lv_color.h ****      * 5-bit to 8-bit: ( 31 * multiplier + adder ) >> divisor = 255
 400:c:\projects\paindrain\arduinolcd\test\pain drain\libraries\lvgl\src\misc\lv_color.h ****      * divisor  multiplier  adder  min (0)  max (31)
 401:c:\projects\paindrain\arduinolcd\test\pain drain\libraries\lvgl\src\misc\lv_color.h ****      *       0           8      7        7       255
 402:c:\projects\paindrain\arduinolcd\test\pain drain\libraries\lvgl\src\misc\lv_color.h ****      *       1          16     14        7       255
 403:c:\projects\paindrain\arduinolcd\test\pain drain\libraries\lvgl\src\misc\lv_color.h ****      *       2          32     28        7       255
 404:c:\projects\paindrain\arduinolcd\test\pain drain\libraries\lvgl\src\misc\lv_color.h ****      *       3          65     25        3       255
 405:c:\projects\paindrain\arduinolcd\test\pain drain\libraries\lvgl\src\misc\lv_color.h ****      *       4         131     19        1       255
 406:c:\projects\paindrain\arduinolcd\test\pain drain\libraries\lvgl\src\misc\lv_color.h ****      *       5         263      7        0       255
 407:c:\projects\paindrain\arduinolcd\test\pain drain\libraries\lvgl\src\misc\lv_color.h ****      *
 408:c:\projects\paindrain\arduinolcd\test\pain drain\libraries\lvgl\src\misc\lv_color.h ****      * 6-bit to 8-bit: 255 = ( 63 * multiplier + adder ) >> divisor
 409:c:\projects\paindrain\arduinolcd\test\pain drain\libraries\lvgl\src\misc\lv_color.h ****      * divisor  multiplier  adder  min (0)  max (63)
 410:c:\projects\paindrain\arduinolcd\test\pain drain\libraries\lvgl\src\misc\lv_color.h ****      *       0           4      3        3       255
 411:c:\projects\paindrain\arduinolcd\test\pain drain\libraries\lvgl\src\misc\lv_color.h ****      *       1           8      6        3       255
 412:c:\projects\paindrain\arduinolcd\test\pain drain\libraries\lvgl\src\misc\lv_color.h ****      *       2          16     12        3       255
 413:c:\projects\paindrain\arduinolcd\test\pain drain\libraries\lvgl\src\misc\lv_color.h ****      *       3          32     24        3       255
 414:c:\projects\paindrain\arduinolcd\test\pain drain\libraries\lvgl\src\misc\lv_color.h ****      *       4          64     48        3       255
 415:c:\projects\paindrain\arduinolcd\test\pain drain\libraries\lvgl\src\misc\lv_color.h ****      *       5         129     33        1       255
 416:c:\projects\paindrain\arduinolcd\test\pain drain\libraries\lvgl\src\misc\lv_color.h ****      *       6         259      3        0       255
 417:c:\projects\paindrain\arduinolcd\test\pain drain\libraries\lvgl\src\misc\lv_color.h ****      */
 418:c:\projects\paindrain\arduinolcd\test\pain drain\libraries\lvgl\src\misc\lv_color.h **** 
 419:c:\projects\paindrain\arduinolcd\test\pain drain\libraries\lvgl\src\misc\lv_color.h ****     lv_color32_t ret;
 420:c:\projects\paindrain\arduinolcd\test\pain drain\libraries\lvgl\src\misc\lv_color.h ****     LV_COLOR_SET_R32(ret, (LV_COLOR_GET_R(color) * 263 + 7) >> 5);
 421:c:\projects\paindrain\arduinolcd\test\pain drain\libraries\lvgl\src\misc\lv_color.h ****     LV_COLOR_SET_G32(ret, (LV_COLOR_GET_G(color) * 259 + 3) >> 6);
 422:c:\projects\paindrain\arduinolcd\test\pain drain\libraries\lvgl\src\misc\lv_color.h ****     LV_COLOR_SET_B32(ret, (LV_COLOR_GET_B(color) * 263 + 7) >> 5);
 423:c:\projects\paindrain\arduinolcd\test\pain drain\libraries\lvgl\src\misc\lv_color.h ****     LV_COLOR_SET_A32(ret, 0xFF);
 424:c:\projects\paindrain\arduinolcd\test\pain drain\libraries\lvgl\src\misc\lv_color.h ****     return ret.full;
 425:c:\projects\paindrain\arduinolcd\test\pain drain\libraries\lvgl\src\misc\lv_color.h **** #elif LV_COLOR_DEPTH == 32
 426:c:\projects\paindrain\arduinolcd\test\pain drain\libraries\lvgl\src\misc\lv_color.h ****     return color.full;
 427:c:\projects\paindrain\arduinolcd\test\pain drain\libraries\lvgl\src\misc\lv_color.h **** #endif
 428:c:\projects\paindrain\arduinolcd\test\pain drain\libraries\lvgl\src\misc\lv_color.h **** }
 429:c:\projects\paindrain\arduinolcd\test\pain drain\libraries\lvgl\src\misc\lv_color.h **** 
 430:c:\projects\paindrain\arduinolcd\test\pain drain\libraries\lvgl\src\misc\lv_color.h **** //! @cond Doxygen_Suppress
 431:c:\projects\paindrain\arduinolcd\test\pain drain\libraries\lvgl\src\misc\lv_color.h **** 
 432:c:\projects\paindrain\arduinolcd\test\pain drain\libraries\lvgl\src\misc\lv_color.h **** /**
 433:c:\projects\paindrain\arduinolcd\test\pain drain\libraries\lvgl\src\misc\lv_color.h ****  * Mix two colors with a given ratio.
ARM GAS  C:\Users\haske\AppData\Local\Temp\ccOknJt1.s 			page 37


 434:c:\projects\paindrain\arduinolcd\test\pain drain\libraries\lvgl\src\misc\lv_color.h ****  * @param c1 the first color to mix (usually the foreground)
 435:c:\projects\paindrain\arduinolcd\test\pain drain\libraries\lvgl\src\misc\lv_color.h ****  * @param c2 the second color to mix (usually the background)
 436:c:\projects\paindrain\arduinolcd\test\pain drain\libraries\lvgl\src\misc\lv_color.h ****  * @param mix The ratio of the colors. 0: full `c2`, 255: full `c1`, 127: half `c1` and half`c2`
 437:c:\projects\paindrain\arduinolcd\test\pain drain\libraries\lvgl\src\misc\lv_color.h ****  * @return the mixed color
 438:c:\projects\paindrain\arduinolcd\test\pain drain\libraries\lvgl\src\misc\lv_color.h ****  */
 439:c:\projects\paindrain\arduinolcd\test\pain drain\libraries\lvgl\src\misc\lv_color.h **** LV_ATTRIBUTE_FAST_MEM static inline lv_color_t lv_color_mix(lv_color_t c1, lv_color_t c2, uint8_t m
 440:c:\projects\paindrain\arduinolcd\test\pain drain\libraries\lvgl\src\misc\lv_color.h **** {
 441:c:\projects\paindrain\arduinolcd\test\pain drain\libraries\lvgl\src\misc\lv_color.h ****     lv_color_t ret;
 442:c:\projects\paindrain\arduinolcd\test\pain drain\libraries\lvgl\src\misc\lv_color.h **** 
 443:c:\projects\paindrain\arduinolcd\test\pain drain\libraries\lvgl\src\misc\lv_color.h **** #if LV_COLOR_DEPTH == 16 && LV_COLOR_16_SWAP == 0 && LV_COLOR_MIX_ROUND_OFS == 0
 444:c:\projects\paindrain\arduinolcd\test\pain drain\libraries\lvgl\src\misc\lv_color.h ****     /*Source: https://stackoverflow.com/a/50012418/1999969*/
 445:c:\projects\paindrain\arduinolcd\test\pain drain\libraries\lvgl\src\misc\lv_color.h ****     mix = (uint32_t)((uint32_t)mix + 4) >> 3;
 1036              		.loc 2 445 0
 1037 027e 0B9E     		ldr	r6, [sp, #44]
 1038 0280 FF22     		movs	r2, #255
 1039 0282 1640     		ands	r6, r2
 1040 0284 321D     		adds	r2, r6, #4
 1041 0286 D708     		lsrs	r7, r2, #3
 1042              	.LVL157:
 446:c:\projects\paindrain\arduinolcd\test\pain drain\libraries\lvgl\src\misc\lv_color.h ****     uint32_t bg = (uint32_t)((uint32_t)c2.full | ((uint32_t)c2.full << 16)) &
 1043              		.loc 2 446 0
 1044 0288 6A46     		mov	r2, sp
 1045 028a 9288     		ldrh	r2, [r2, #4]
 1046 028c 1604     		lsls	r6, r2, #16
 1047 028e 3243     		orrs	r2, r6
 1048 0290 514E     		ldr	r6, .L63
 1049 0292 3240     		ands	r2, r6
 1050 0294 9046     		mov	r8, r2
 1051              	.LVL158:
 447:c:\projects\paindrain\arduinolcd\test\pain drain\libraries\lvgl\src\misc\lv_color.h ****                   0x7E0F81F; /*0b00000111111000001111100000011111*/
 448:c:\projects\paindrain\arduinolcd\test\pain drain\libraries\lvgl\src\misc\lv_color.h ****     uint32_t fg = (uint32_t)((uint32_t)c1.full | ((uint32_t)c1.full << 16)) & 0x7E0F81F;
 1052              		.loc 2 448 0
 1053 0296 9BB2     		uxth	r3, r3
 1054              	.LVL159:
 1055 0298 1A04     		lsls	r2, r3, #16
 1056              	.LVL160:
 1057 029a 1343     		orrs	r3, r2
 1058 029c 3340     		ands	r3, r6
 1059              	.LVL161:
 449:c:\projects\paindrain\arduinolcd\test\pain drain\libraries\lvgl\src\misc\lv_color.h ****     uint32_t result = ((((fg - bg) * mix) >> 5) + bg) & 0x7E0F81F;
 1060              		.loc 2 449 0
 1061 029e 4246     		mov	r2, r8
 1062 02a0 9B1A     		subs	r3, r3, r2
 1063              	.LVL162:
 1064 02a2 FF22     		movs	r2, #255
 1065 02a4 3A40     		ands	r2, r7
 1066 02a6 5343     		muls	r3, r2
 1067 02a8 5B09     		lsrs	r3, r3, #5
 1068 02aa 4344     		add	r3, r3, r8
 1069 02ac 3340     		ands	r3, r6
 1070              	.LVL163:
 450:c:\projects\paindrain\arduinolcd\test\pain drain\libraries\lvgl\src\misc\lv_color.h ****     ret.full = (uint16_t)((result >> 16) | result);
 1071              		.loc 2 450 0
 1072 02ae 1A0C     		lsrs	r2, r3, #16
 1073 02b0 1343     		orrs	r3, r2
 1074              	.LVL164:
 1075 02b2 9BB2     		uxth	r3, r3
ARM GAS  C:\Users\haske\AppData\Local\Temp\ccOknJt1.s 			page 38


 1076 02b4 1C00     		movs	r4, r3
 1077              	.LVL165:
 1078              	.LBE29:
 1079              	.LBE28:
 1080              	.LBB30:
 1081              	.LBB31:
 445:c:\projects\paindrain\arduinolcd\test\pain drain\libraries\lvgl\src\misc\lv_color.h ****     uint32_t bg = (uint32_t)((uint32_t)c2.full | ((uint32_t)c2.full << 16)) &
 1082              		.loc 2 445 0
 1083 02b6 099A     		ldr	r2, [sp, #36]
 1084 02b8 FF23     		movs	r3, #255
 1085 02ba 1A40     		ands	r2, r3
 1086 02bc 0432     		adds	r2, r2, #4
 1087 02be D208     		lsrs	r2, r2, #3
 1088              	.LVL166:
 448:c:\projects\paindrain\arduinolcd\test\pain drain\libraries\lvgl\src\misc\lv_color.h ****     uint32_t result = ((((fg - bg) * mix) >> 5) + bg) & 0x7E0F81F;
 1089              		.loc 2 448 0
 1090 02c0 6B46     		mov	r3, sp
 1091 02c2 1F89     		ldrh	r7, [r3, #8]
 1092 02c4 3B04     		lsls	r3, r7, #16
 1093 02c6 3B43     		orrs	r3, r7
 1094 02c8 3340     		ands	r3, r6
 1095              	.LVL167:
 449:c:\projects\paindrain\arduinolcd\test\pain drain\libraries\lvgl\src\misc\lv_color.h ****     ret.full = (uint16_t)((result >> 16) | result);
 1096              		.loc 2 449 0
 1097 02ca 4746     		mov	r7, r8
 1098 02cc DB1B     		subs	r3, r3, r7
 1099              	.LVL168:
 1100 02ce FF27     		movs	r7, #255
 1101 02d0 3A40     		ands	r2, r7
 1102              	.LVL169:
 1103 02d2 5343     		muls	r3, r2
 1104 02d4 5B09     		lsrs	r3, r3, #5
 1105 02d6 4344     		add	r3, r3, r8
 1106 02d8 3340     		ands	r3, r6
 1107              	.LVL170:
 1108              		.loc 2 450 0
 1109 02da 1A0C     		lsrs	r2, r3, #16
 1110 02dc 1A43     		orrs	r2, r3
 1111 02de 92B2     		uxth	r2, r2
 1112              	.LVL171:
 1113              	.LBE31:
 1114              	.LBE30:
 1115              	.LBB32:
 1116              	.LBB33:
 446:c:\projects\paindrain\arduinolcd\test\pain drain\libraries\lvgl\src\misc\lv_color.h ****                   0x7E0F81F; /*0b00000111111000001111100000011111*/
 1117              		.loc 2 446 0
 1118 02e0 2704     		lsls	r7, r4, #16
 1119 02e2 2743     		orrs	r7, r4
 1120 02e4 3B00     		movs	r3, r7
 1121 02e6 3340     		ands	r3, r6
 1122              	.LVL172:
 448:c:\projects\paindrain\arduinolcd\test\pain drain\libraries\lvgl\src\misc\lv_color.h ****     uint32_t result = ((((fg - bg) * mix) >> 5) + bg) & 0x7E0F81F;
 1123              		.loc 2 448 0
 1124 02e8 1704     		lsls	r7, r2, #16
 1125 02ea 3A43     		orrs	r2, r7
 1126 02ec 3240     		ands	r2, r6
 1127              	.LVL173:
ARM GAS  C:\Users\haske\AppData\Local\Temp\ccOknJt1.s 			page 39


 449:c:\projects\paindrain\arduinolcd\test\pain drain\libraries\lvgl\src\misc\lv_color.h ****     ret.full = (uint16_t)((result >> 16) | result);
 1128              		.loc 2 449 0
 1129 02ee D21A     		subs	r2, r2, r3
 1130              	.LVL174:
 1131 02f0 1201     		lsls	r2, r2, #4
 1132 02f2 5209     		lsrs	r2, r2, #5
 1133 02f4 9A18     		adds	r2, r3, r2
 1134 02f6 1640     		ands	r6, r2
 1135              	.LVL175:
 1136              		.loc 2 450 0
 1137 02f8 320C     		lsrs	r2, r6, #16
 1138 02fa 1643     		orrs	r6, r2
 1139              	.LVL176:
 1140              	.LBE33:
 1141              	.LBE32:
 427:..\..\..\arduinoLCD\test\Pain Drain\libraries\lvgl\src\draw\sw/lv_draw_sw_transform.c ****             }
 1142              		.loc 1 427 0
 1143 02fc 4B00     		lsls	r3, r1, #1
 1144 02fe 1D9A     		ldr	r2, [sp, #116]
 1145 0300 D652     		strh	r6, [r2, r3]
 1146              	.LBE25:
 348:..\..\..\arduinoLCD\test\Pain Drain\libraries\lvgl\src\draw\sw/lv_draw_sw_transform.c **** 
 1147              		.loc 1 348 0
 1148 0302 5DE0     		b	.L28
 1149              	.LVL177:
 1150              	.L33:
 1151              	.LBB34:
 435:..\..\..\arduinoLCD\test\Pain Drain\libraries\lvgl\src\draw\sw/lv_draw_sw_transform.c **** #elif LV_COLOR_DEPTH == 32
 1152              		.loc 1 435 0
 1153 0304 0891     		str	r1, [sp, #32]
 1154 0306 029E     		ldr	r6, [sp, #8]
 1155 0308 3478     		ldrb	r4, [r6]
 1156 030a A046     		mov	r8, r4
 1157 030c 7778     		ldrb	r7, [r6, #1]
 1158 030e 3F02     		lsls	r7, r7, #8
 1159 0310 B844     		add	r8, r8, r7
 1160 0312 4446     		mov	r4, r8
 1161 0314 6E46     		mov	r6, sp
 1162 0316 3483     		strh	r4, [r6, #24]
 1163 0318 348B     		ldrh	r4, [r6, #24]
 1164 031a A046     		mov	r8, r4
 1165 031c 4F00     		lsls	r7, r1, #1
 1166 031e 1D9C     		ldr	r4, [sp, #116]
 1167 0320 4646     		mov	r6, r8
 1168 0322 E653     		strh	r6, [r4, r7]
 440:..\..\..\arduinoLCD\test\Pain Drain\libraries\lvgl\src\draw\sw/lv_draw_sw_transform.c ****                 case LV_IMG_CF_TRUE_COLOR_ALPHA:
 1169              		.loc 1 440 0
 1170 0324 5446     		mov	r4, r10
 1171 0326 062C     		cmp	r4, #6
 1172 0328 06D0     		beq	.L46
 1173 032a 142C     		cmp	r4, #20
 1174 032c 0AD0     		beq	.L47
 1175 032e 052C     		cmp	r4, #5
 1176 0330 13D1     		bne	.L62
 442:..\..\..\arduinoLCD\test\Pain Drain\libraries\lvgl\src\draw\sw/lv_draw_sw_transform.c ****                     break;
 1177              		.loc 1 442 0
 1178 0332 029C     		ldr	r4, [sp, #8]
ARM GAS  C:\Users\haske\AppData\Local\Temp\ccOknJt1.s 			page 40


 1179 0334 A778     		ldrb	r7, [r4, #2]
 1180              	.LVL178:
 443:..\..\..\arduinoLCD\test\Pain Drain\libraries\lvgl\src\draw\sw/lv_draw_sw_transform.c ****                 case LV_IMG_CF_TRUE_COLOR_CHROMA_KEYED:
 1181              		.loc 1 443 0
 1182 0336 13E0     		b	.L45
 1183              	.LVL179:
 1184              	.L46:
 445:..\..\..\arduinoLCD\test\Pain Drain\libraries\lvgl\src\draw\sw/lv_draw_sw_transform.c ****                     break;
 1185              		.loc 1 445 0
 1186 0338 6C46     		mov	r4, sp
 1187 033a 668D     		ldrh	r6, [r4, #42]
 1188 033c B045     		cmp	r8, r6
 1189 033e 0ED1     		bne	.L61
 1190 0340 0027     		movs	r7, #0
 1191 0342 0DE0     		b	.L45
 1192              	.L47:
 449:..\..\..\arduinoLCD\test\Pain Drain\libraries\lvgl\src\draw\sw/lv_draw_sw_transform.c ****                     break;
 1193              		.loc 1 449 0
 1194 0344 039E     		ldr	r6, [sp, #12]
 1195 0346 009C     		ldr	r4, [sp]
 1196 0348 6643     		muls	r6, r4
 1197 034a 7600     		lsls	r6, r6, #1
 1198 034c 0C9C     		ldr	r4, [sp, #48]
 1199 034e A046     		mov	r8, r4
 1200 0350 4644     		add	r6, r6, r8
 1201 0352 9E19     		adds	r6, r3, r6
 1202 0354 049C     		ldr	r4, [sp, #16]
 1203 0356 A75D     		ldrb	r7, [r4, r6]
 1204              	.LVL180:
 450:..\..\..\arduinoLCD\test\Pain Drain\libraries\lvgl\src\draw\sw/lv_draw_sw_transform.c **** #endif
 1205              		.loc 1 450 0
 1206 0358 02E0     		b	.L45
 1207              	.LVL181:
 1208              	.L62:
 453:..\..\..\arduinoLCD\test\Pain Drain\libraries\lvgl\src\draw\sw/lv_draw_sw_transform.c ****             }
 1209              		.loc 1 453 0
 1210 035a FF27     		movs	r7, #255
 1211 035c 00E0     		b	.L45
 1212              	.L61:
 445:..\..\..\arduinoLCD\test\Pain Drain\libraries\lvgl\src\draw\sw/lv_draw_sw_transform.c ****                     break;
 1213              		.loc 1 445 0
 1214 035e FF27     		movs	r7, #255
 1215              	.L45:
 1216              	.LVL182:
 456:..\..\..\arduinoLCD\test\Pain Drain\libraries\lvgl\src\draw\sw/lv_draw_sw_transform.c ****                 abuf[x] = (a * (0xFF - xs_fract)) >> 8;
 1217              		.loc 1 456 0
 1218 0360 002B     		cmp	r3, #0
 1219 0362 02D1     		bne	.L49
 456:..\..\..\arduinoLCD\test\Pain Drain\libraries\lvgl\src\draw\sw/lv_draw_sw_transform.c ****                 abuf[x] = (a * (0xFF - xs_fract)) >> 8;
 1220              		.loc 1 456 0 is_stmt 0 discriminator 1
 1221 0364 019C     		ldr	r4, [sp, #4]
 1222 0366 002C     		cmp	r4, #0
 1223 0368 06DB     		blt	.L50
 1224              	.L49:
 456:..\..\..\arduinoLCD\test\Pain Drain\libraries\lvgl\src\draw\sw/lv_draw_sw_transform.c ****                 abuf[x] = (a * (0xFF - xs_fract)) >> 8;
 1225              		.loc 1 456 0 discriminator 3
 1226 036a 6446     		mov	r4, ip
ARM GAS  C:\Users\haske\AppData\Local\Temp\ccOknJt1.s 			page 41


 1227 036c 661E     		subs	r6, r4, #1
 1228 036e B342     		cmp	r3, r6
 1229 0370 0BD1     		bne	.L51
 456:..\..\..\arduinoLCD\test\Pain Drain\libraries\lvgl\src\draw\sw/lv_draw_sw_transform.c ****                 abuf[x] = (a * (0xFF - xs_fract)) >> 8;
 1230              		.loc 1 456 0 discriminator 4
 1231 0372 019B     		ldr	r3, [sp, #4]
 1232              	.LVL183:
 1233 0374 002B     		cmp	r3, #0
 1234 0376 08DD     		ble	.L51
 1235              	.L50:
 457:..\..\..\arduinoLCD\test\Pain Drain\libraries\lvgl\src\draw\sw/lv_draw_sw_transform.c ****             }
 1236              		.loc 1 457 0 is_stmt 1
 1237 0378 FF22     		movs	r2, #255
 1238              	.LVL184:
 1239 037a 099B     		ldr	r3, [sp, #36]
 1240 037c D21A     		subs	r2, r2, r3
 1241 037e 5743     		muls	r7, r2
 1242              	.LVL185:
 1243 0380 3F12     		asrs	r7, r7, #8
 1244 0382 1E9B     		ldr	r3, [sp, #120]
 1245 0384 089A     		ldr	r2, [sp, #32]
 1246 0386 9F54     		strb	r7, [r3, r2]
 1247 0388 1AE0     		b	.L28
 1248              	.LVL186:
 1249              	.L51:
 459:..\..\..\arduinoLCD\test\Pain Drain\libraries\lvgl\src\draw\sw/lv_draw_sw_transform.c ****                 abuf[x] = (a * (0xFF - ys_fract)) >> 8;
 1250              		.loc 1 459 0
 1251 038a 002A     		cmp	r2, #0
 1252 038c 02D1     		bne	.L52
 459:..\..\..\arduinoLCD\test\Pain Drain\libraries\lvgl\src\draw\sw/lv_draw_sw_transform.c ****                 abuf[x] = (a * (0xFF - ys_fract)) >> 8;
 1253              		.loc 1 459 0 is_stmt 0 discriminator 1
 1254 038e 059B     		ldr	r3, [sp, #20]
 1255 0390 002B     		cmp	r3, #0
 1256 0392 06DB     		blt	.L53
 1257              	.L52:
 459:..\..\..\arduinoLCD\test\Pain Drain\libraries\lvgl\src\draw\sw/lv_draw_sw_transform.c ****                 abuf[x] = (a * (0xFF - ys_fract)) >> 8;
 1258              		.loc 1 459 0 discriminator 3
 1259 0394 009B     		ldr	r3, [sp]
 1260 0396 013B     		subs	r3, r3, #1
 1261 0398 9A42     		cmp	r2, r3
 1262 039a 0BD1     		bne	.L54
 459:..\..\..\arduinoLCD\test\Pain Drain\libraries\lvgl\src\draw\sw/lv_draw_sw_transform.c ****                 abuf[x] = (a * (0xFF - ys_fract)) >> 8;
 1263              		.loc 1 459 0 discriminator 4
 1264 039c 059B     		ldr	r3, [sp, #20]
 1265 039e 002B     		cmp	r3, #0
 1266 03a0 08DD     		ble	.L54
 1267              	.L53:
 460:..\..\..\arduinoLCD\test\Pain Drain\libraries\lvgl\src\draw\sw/lv_draw_sw_transform.c ****             }
 1268              		.loc 1 460 0 is_stmt 1
 1269 03a2 FF23     		movs	r3, #255
 1270 03a4 0B9A     		ldr	r2, [sp, #44]
 1271              	.LVL187:
 1272 03a6 9B1A     		subs	r3, r3, r2
 1273 03a8 5F43     		muls	r7, r3
 1274              	.LVL188:
 1275 03aa 3F12     		asrs	r7, r7, #8
 1276 03ac 1E9B     		ldr	r3, [sp, #120]
ARM GAS  C:\Users\haske\AppData\Local\Temp\ccOknJt1.s 			page 42


 1277 03ae 089A     		ldr	r2, [sp, #32]
 1278 03b0 9F54     		strb	r7, [r3, r2]
 1279 03b2 05E0     		b	.L28
 1280              	.LVL189:
 1281              	.L54:
 463:..\..\..\arduinoLCD\test\Pain Drain\libraries\lvgl\src\draw\sw/lv_draw_sw_transform.c ****             }
 1282              		.loc 1 463 0
 1283 03b4 089B     		ldr	r3, [sp, #32]
 1284 03b6 1E9A     		ldr	r2, [sp, #120]
 1285              	.LVL190:
 1286 03b8 9046     		mov	r8, r2
 1287 03ba 4344     		add	r3, r3, r8
 1288 03bc 0022     		movs	r2, #0
 1289 03be 1A70     		strb	r2, [r3]
 1290              	.LVL191:
 1291              	.L28:
 1292              	.LBE34:
 1293              	.LBE24:
 304:..\..\..\arduinoLCD\test\Pain Drain\libraries\lvgl\src\draw\sw/lv_draw_sw_transform.c ****         xs_ups = xs_ups_start + ((xs_step * x) >> 8);
 1294              		.loc 1 304 0 discriminator 2
 1295 03c0 0131     		adds	r1, r1, #1
 1296              	.LVL192:
 1297 03c2 09B2     		sxth	r1, r1
 1298              	.LVL193:
 1299              	.L25:
 304:..\..\..\arduinoLCD\test\Pain Drain\libraries\lvgl\src\draw\sw/lv_draw_sw_transform.c ****         xs_ups = xs_ups_start + ((xs_step * x) >> 8);
 1300              		.loc 1 304 0 is_stmt 0 discriminator 1
 1301 03c4 8142     		cmp	r1, r0
 1302 03c6 00DA     		bge	.LCB1487
 1303 03c8 63E6     		b	.L55	@long jump
 1304              	.LCB1487:
 1305              	.LVL194:
 1306              	.L18:
 467:..\..\..\arduinoLCD\test\Pain Drain\libraries\lvgl\src\draw\sw/lv_draw_sw_transform.c **** 
 1307              		.loc 1 467 0 is_stmt 1
 1308 03ca 0FB0     		add	sp, sp, #60
 1309              		@ sp needed
 1310              	.LVL195:
 1311 03cc 3CBC     		pop	{r2, r3, r4, r5}
 1312 03ce 9046     		mov	r8, r2
 1313 03d0 9946     		mov	r9, r3
 1314 03d2 A246     		mov	r10, r4
 1315 03d4 AB46     		mov	fp, r5
 1316 03d6 F0BD     		pop	{r4, r5, r6, r7, pc}
 1317              	.L64:
 1318              		.align	2
 1319              	.L63:
 1320 03d8 1FF8E007 		.word	132184095
 1321              		.cfi_endproc
 1322              	.LFE163:
 1323              		.size	argb_and_rgb_aa, .-argb_and_rgb_aa
 1324              		.section	.text.rgb_no_aa,"ax",%progbits
 1325              		.align	2
 1326              		.code	16
 1327              		.thumb_func
 1328              		.type	rgb_no_aa, %function
 1329              	rgb_no_aa:
ARM GAS  C:\Users\haske\AppData\Local\Temp\ccOknJt1.s 			page 43


 1330              	.LFB160:
 163:..\..\..\arduinoLCD\test\Pain Drain\libraries\lvgl\src\draw\sw/lv_draw_sw_transform.c ****     int32_t xs_ups_start = xs_ups;
 1331              		.loc 1 163 0
 1332              		.cfi_startproc
 1333              		@ args = 32, pretend = 0, frame = 16
 1334              		@ frame_needed = 0, uses_anonymous_args = 0
 1335              	.LVL196:
 1336 0000 F0B5     		push	{r4, r5, r6, r7, lr}
 1337              		.cfi_def_cfa_offset 20
 1338              		.cfi_offset 4, -20
 1339              		.cfi_offset 5, -16
 1340              		.cfi_offset 6, -12
 1341              		.cfi_offset 7, -8
 1342              		.cfi_offset 14, -4
 1343 0002 5F46     		mov	r7, fp
 1344 0004 5646     		mov	r6, r10
 1345 0006 4D46     		mov	r5, r9
 1346 0008 4446     		mov	r4, r8
 1347 000a F0B4     		push	{r4, r5, r6, r7}
 1348              		.cfi_def_cfa_offset 36
 1349              		.cfi_offset 8, -36
 1350              		.cfi_offset 9, -32
 1351              		.cfi_offset 10, -28
 1352              		.cfi_offset 11, -24
 1353 000c 85B0     		sub	sp, sp, #20
 1354              		.cfi_def_cfa_offset 56
 1355 000e 0290     		str	r0, [sp, #8]
 1356 0010 8B46     		mov	fp, r1
 1357 0012 0192     		str	r2, [sp, #4]
 1358 0014 0393     		str	r3, [sp, #12]
 1359 0016 0E9B     		ldr	r3, [sp, #56]
 1360              	.LVL197:
 1361 0018 9A46     		mov	r10, r3
 1362 001a 0F9B     		ldr	r3, [sp, #60]
 1363 001c 9946     		mov	r9, r3
 1364 001e 109B     		ldr	r3, [sp, #64]
 1365 0020 9846     		mov	r8, r3
 1366 0022 119F     		ldr	r7, [sp, #68]
 1367 0024 129C     		ldr	r4, [sp, #72]
 1368 0026 149D     		ldr	r5, [sp, #80]
 1369 0028 15AB     		add	r3, sp, #84
 1370              	.LVL198:
 1371 002a 1E78     		ldrb	r6, [r3]
 1372              	.LVL199:
 166:..\..\..\arduinoLCD\test\Pain Drain\libraries\lvgl\src\draw\sw/lv_draw_sw_transform.c ****     lv_color_t ck = d->driver->color_chroma_key;
 1373              		.loc 1 166 0
 1374 002c FFF7FEFF 		bl	_lv_refr_get_disp_refreshing
 1375              	.LVL200:
 167:..\..\..\arduinoLCD\test\Pain Drain\libraries\lvgl\src\draw\sw/lv_draw_sw_transform.c **** 
 1376              		.loc 1 167 0
 1377 0030 0368     		ldr	r3, [r0]
 1378 0032 1B8F     		ldrh	r3, [r3, #56]
 1379 0034 6A46     		mov	r2, sp
 1380              	.LVL201:
 1381 0036 5380     		strh	r3, [r2, #2]
 169:..\..\..\arduinoLCD\test\Pain Drain\libraries\lvgl\src\draw\sw/lv_draw_sw_transform.c **** 
 1382              		.loc 1 169 0
ARM GAS  C:\Users\haske\AppData\Local\Temp\ccOknJt1.s 			page 44


 1383 0038 2100     		movs	r1, r4
 1384 003a 2800     		movs	r0, r5
 1385              	.LVL202:
 1386 003c FFF7FEFF 		bl	lv_memset_ff
 1387              	.LVL203:
 172:..\..\..\arduinoLCD\test\Pain Drain\libraries\lvgl\src\draw\sw/lv_draw_sw_transform.c ****         xs_ups = xs_ups_start + ((xs_step * x) >> 8);
 1388              		.loc 1 172 0
 1389 0040 0021     		movs	r1, #0
 1390 0042 DC46     		mov	ip, fp
 1391 0044 D346     		mov	fp, r10
 1392 0046 4846     		mov	r0, r9
 1393 0048 A946     		mov	r9, r5
 1394              	.LVL204:
 1395 004a 4546     		mov	r5, r8
 1396 004c B046     		mov	r8, r6
 1397 004e 3E00     		movs	r6, r7
 1398 0050 38E0     		b	.L66
 1399              	.LVL205:
 1400              	.L71:
 1401              	.LBB35:
 173:..\..\..\arduinoLCD\test\Pain Drain\libraries\lvgl\src\draw\sw/lv_draw_sw_transform.c ****         ys_ups = ys_ups_start + ((ys_step * x) >> 8);
 1402              		.loc 1 173 0
 1403 0052 2B00     		movs	r3, r5
 1404 0054 4B43     		muls	r3, r1
 1405 0056 1B12     		asrs	r3, r3, #8
 1406 0058 5B44     		add	r3, r3, fp
 1407              	.LVL206:
 174:..\..\..\arduinoLCD\test\Pain Drain\libraries\lvgl\src\draw\sw/lv_draw_sw_transform.c **** 
 1408              		.loc 1 174 0
 1409 005a 3700     		movs	r7, r6
 1410 005c 4F43     		muls	r7, r1
 1411 005e 3F12     		asrs	r7, r7, #8
 1412 0060 C719     		adds	r7, r0, r7
 1413              	.LVL207:
 176:..\..\..\arduinoLCD\test\Pain Drain\libraries\lvgl\src\draw\sw/lv_draw_sw_transform.c ****         int32_t ys_int = ys_ups >> 8;
 1414              		.loc 1 176 0
 1415 0062 1B12     		asrs	r3, r3, #8
 1416              	.LVL208:
 177:..\..\..\arduinoLCD\test\Pain Drain\libraries\lvgl\src\draw\sw/lv_draw_sw_transform.c ****         if(xs_int < 0 || xs_int >= src_w || ys_int < 0 || ys_int >= src_h) {
 1417              		.loc 1 177 0
 1418 0064 3F12     		asrs	r7, r7, #8
 1419              	.LVL209:
 1420 0066 BA46     		mov	r10, r7
 1421              	.LVL210:
 178:..\..\..\arduinoLCD\test\Pain Drain\libraries\lvgl\src\draw\sw/lv_draw_sw_transform.c ****             abuf[x] = 0x00;
 1422              		.loc 1 178 0
 1423 0068 002B     		cmp	r3, #0
 1424 006a 06DB     		blt	.L67
 178:..\..\..\arduinoLCD\test\Pain Drain\libraries\lvgl\src\draw\sw/lv_draw_sw_transform.c ****             abuf[x] = 0x00;
 1425              		.loc 1 178 0 is_stmt 0 discriminator 1
 1426 006c 6345     		cmp	r3, ip
 1427 006e 04DA     		bge	.L67
 178:..\..\..\arduinoLCD\test\Pain Drain\libraries\lvgl\src\draw\sw/lv_draw_sw_transform.c ****             abuf[x] = 0x00;
 1428              		.loc 1 178 0 discriminator 2
 1429 0070 002F     		cmp	r7, #0
 1430 0072 02DB     		blt	.L67
 178:..\..\..\arduinoLCD\test\Pain Drain\libraries\lvgl\src\draw\sw/lv_draw_sw_transform.c ****             abuf[x] = 0x00;
ARM GAS  C:\Users\haske\AppData\Local\Temp\ccOknJt1.s 			page 45


 1431              		.loc 1 178 0 discriminator 3
 1432 0074 019F     		ldr	r7, [sp, #4]
 1433              	.LVL211:
 1434 0076 BA45     		cmp	r10, r7
 1435 0078 04DB     		blt	.L68
 1436              	.L67:
 179:..\..\..\arduinoLCD\test\Pain Drain\libraries\lvgl\src\draw\sw/lv_draw_sw_transform.c ****         }
 1437              		.loc 1 179 0 is_stmt 1
 1438 007a 4B46     		mov	r3, r9
 1439              	.LVL212:
 1440 007c 5B18     		adds	r3, r3, r1
 1441 007e 0027     		movs	r7, #0
 1442 0080 1F70     		strb	r7, [r3]
 1443 0082 0EE0     		b	.L69
 1444              	.LVL213:
 1445              	.L68:
 1446              	.LBB36:
 189:..\..\..\arduinoLCD\test\Pain Drain\libraries\lvgl\src\draw\sw/lv_draw_sw_transform.c ****             cbuf[x] = *src_tmp;
 1447              		.loc 1 189 0
 1448 0084 5746     		mov	r7, r10
 1449 0086 039A     		ldr	r2, [sp, #12]
 1450 0088 5743     		muls	r7, r2
 1451 008a BA46     		mov	r10, r7
 1452              	.LVL214:
 1453 008c 5344     		add	r3, r3, r10
 1454              	.LVL215:
 1455 008e 5B00     		lsls	r3, r3, #1
 1456 0090 9A46     		mov	r10, r3
 1457              	.LVL216:
 190:..\..\..\arduinoLCD\test\Pain Drain\libraries\lvgl\src\draw\sw/lv_draw_sw_transform.c **** #elif LV_COLOR_DEPTH == 32
 1458              		.loc 1 190 0
 1459 0092 4B00     		lsls	r3, r1, #1
 1460              	.LVL217:
 1461 0094 029A     		ldr	r2, [sp, #8]
 1462 0096 5746     		mov	r7, r10
 1463 0098 D25B     		ldrh	r2, [r2, r7]
 1464 009a 9246     		mov	r10, r2
 1465              	.LVL218:
 1466 009c 139A     		ldr	r2, [sp, #76]
 1467 009e 5746     		mov	r7, r10
 1468              	.LVL219:
 1469 00a0 D752     		strh	r7, [r2, r3]
 1470              	.LVL220:
 1471              	.L69:
 1472              	.LBE36:
 197:..\..\..\arduinoLCD\test\Pain Drain\libraries\lvgl\src\draw\sw/lv_draw_sw_transform.c ****             abuf[x] = 0x00;
 1473              		.loc 1 197 0
 1474 00a2 4346     		mov	r3, r8
 1475 00a4 062B     		cmp	r3, #6
 1476 00a6 0BD1     		bne	.L70
 197:..\..\..\arduinoLCD\test\Pain Drain\libraries\lvgl\src\draw\sw/lv_draw_sw_transform.c ****             abuf[x] = 0x00;
 1477              		.loc 1 197 0 is_stmt 0 discriminator 1
 1478 00a8 4B00     		lsls	r3, r1, #1
 1479 00aa 139F     		ldr	r7, [sp, #76]
 1480 00ac FB5A     		ldrh	r3, [r7, r3]
 1481 00ae 9A46     		mov	r10, r3
 1482 00b0 6B46     		mov	r3, sp
ARM GAS  C:\Users\haske\AppData\Local\Temp\ccOknJt1.s 			page 46


 1483 00b2 5B88     		ldrh	r3, [r3, #2]
 1484 00b4 9A45     		cmp	r10, r3
 1485 00b6 03D1     		bne	.L70
 198:..\..\..\arduinoLCD\test\Pain Drain\libraries\lvgl\src\draw\sw/lv_draw_sw_transform.c ****         }
 1486              		.loc 1 198 0 is_stmt 1
 1487 00b8 4B46     		mov	r3, r9
 1488 00ba 5B18     		adds	r3, r3, r1
 1489 00bc 0022     		movs	r2, #0
 1490 00be 1A70     		strb	r2, [r3]
 1491              	.L70:
 1492              	.LBE35:
 172:..\..\..\arduinoLCD\test\Pain Drain\libraries\lvgl\src\draw\sw/lv_draw_sw_transform.c ****         xs_ups = xs_ups_start + ((xs_step * x) >> 8);
 1493              		.loc 1 172 0 discriminator 2
 1494 00c0 0131     		adds	r1, r1, #1
 1495              	.LVL221:
 1496 00c2 09B2     		sxth	r1, r1
 1497              	.LVL222:
 1498              	.L66:
 172:..\..\..\arduinoLCD\test\Pain Drain\libraries\lvgl\src\draw\sw/lv_draw_sw_transform.c ****         xs_ups = xs_ups_start + ((xs_step * x) >> 8);
 1499              		.loc 1 172 0 is_stmt 0 discriminator 1
 1500 00c4 8C42     		cmp	r4, r1
 1501 00c6 C4DC     		bgt	.L71
 201:..\..\..\arduinoLCD\test\Pain Drain\libraries\lvgl\src\draw\sw/lv_draw_sw_transform.c **** 
 1502              		.loc 1 201 0 is_stmt 1
 1503 00c8 05B0     		add	sp, sp, #20
 1504              		@ sp needed
 1505              	.LVL223:
 1506 00ca 3CBC     		pop	{r2, r3, r4, r5}
 1507 00cc 9046     		mov	r8, r2
 1508 00ce 9946     		mov	r9, r3
 1509 00d0 A246     		mov	r10, r4
 1510 00d2 AB46     		mov	fp, r5
 1511 00d4 F0BD     		pop	{r4, r5, r6, r7, pc}
 1512              		.cfi_endproc
 1513              	.LFE160:
 1514              		.size	rgb_no_aa, .-rgb_no_aa
 1515              		.global	__aeabi_idiv
 1516 00d6 C046     		.section	.text.lv_draw_sw_transform,"ax",%progbits
 1517              		.align	2
 1518              		.global	lv_draw_sw_transform
 1519              		.code	16
 1520              		.thumb_func
 1521              		.type	lv_draw_sw_transform, %function
 1522              	lv_draw_sw_transform:
 1523              	.LFB159:
  83:..\..\..\arduinoLCD\test\Pain Drain\libraries\lvgl\src\draw\sw/lv_draw_sw_transform.c ****     LV_UNUSED(draw_ctx);
 1524              		.loc 1 83 0
 1525              		.cfi_startproc
 1526              		@ args = 24, pretend = 0, frame = 96
 1527              		@ frame_needed = 0, uses_anonymous_args = 0
 1528              	.LVL224:
 1529 0000 F0B5     		push	{r4, r5, r6, r7, lr}
 1530              		.cfi_def_cfa_offset 20
 1531              		.cfi_offset 4, -20
 1532              		.cfi_offset 5, -16
 1533              		.cfi_offset 6, -12
 1534              		.cfi_offset 7, -8
ARM GAS  C:\Users\haske\AppData\Local\Temp\ccOknJt1.s 			page 47


 1535              		.cfi_offset 14, -4
 1536 0002 5F46     		mov	r7, fp
 1537 0004 5646     		mov	r6, r10
 1538 0006 4D46     		mov	r5, r9
 1539 0008 4446     		mov	r4, r8
 1540 000a F0B4     		push	{r4, r5, r6, r7}
 1541              		.cfi_def_cfa_offset 36
 1542              		.cfi_offset 8, -36
 1543              		.cfi_offset 9, -32
 1544              		.cfi_offset 10, -28
 1545              		.cfi_offset 11, -24
 1546 000c A1B0     		sub	sp, sp, #132
 1547              		.cfi_def_cfa_offset 168
 1548 000e 0F00     		movs	r7, r1
 1549 0010 0C92     		str	r2, [sp, #48]
 1550 0012 0D93     		str	r3, [sp, #52]
 1551 0014 2AAB     		add	r3, sp, #168
 1552              	.LVL225:
 1553 0016 0022     		movs	r2, #0
 1554 0018 9B5E     		ldrsh	r3, [r3, r2]
 1555              	.LVL226:
 1556 001a 0E93     		str	r3, [sp, #56]
 1557 001c 2BAB     		add	r3, sp, #172
 1558              	.LVL227:
 1559 001e 0022     		movs	r2, #0
 1560 0020 9B5E     		ldrsh	r3, [r3, r2]
 1561              	.LVL228:
 1562 0022 0F93     		str	r3, [sp, #60]
 1563 0024 2DAB     		add	r3, sp, #180
 1564              	.LVL229:
 1565 0026 1E78     		ldrb	r6, [r3]
 1566 0028 2E9B     		ldr	r3, [sp, #184]
 1567              	.LVL230:
 1568 002a 9A46     		mov	r10, r3
 1569 002c 2F9B     		ldr	r3, [sp, #188]
 1570 002e 9B46     		mov	fp, r3
  87:..\..\..\arduinoLCD\test\Pain Drain\libraries\lvgl\src\draw\sw/lv_draw_sw_transform.c ****     tr_dsc.zoom = (256 * 256) / draw_dsc->zoom;
 1571              		.loc 1 87 0
 1572 0030 2C9B     		ldr	r3, [sp, #176]
 1573 0032 0022     		movs	r2, #0
 1574 0034 9B5E     		ldrsh	r3, [r3, r2]
 1575 0036 5B42     		rsbs	r3, r3, #0
 1576 0038 9846     		mov	r8, r3
 1577 003a 15AC     		add	r4, sp, #84
 1578 003c 1C93     		str	r3, [sp, #112]
  88:..\..\..\arduinoLCD\test\Pain Drain\libraries\lvgl\src\draw\sw/lv_draw_sw_transform.c ****     tr_dsc.pivot = draw_dsc->pivot;
 1579              		.loc 1 88 0
 1580 003e 2C9B     		ldr	r3, [sp, #176]
 1581 0040 5988     		ldrh	r1, [r3, #2]
 1582              	.LVL231:
 1583 0042 8020     		movs	r0, #128
 1584              	.LVL232:
 1585 0044 4002     		lsls	r0, r0, #9
 1586 0046 FFF7FEFF 		bl	__aeabi_idiv
 1587              	.LVL233:
 1588 004a A061     		str	r0, [r4, #24]
  89:..\..\..\arduinoLCD\test\Pain Drain\libraries\lvgl\src\draw\sw/lv_draw_sw_transform.c **** 
ARM GAS  C:\Users\haske\AppData\Local\Temp\ccOknJt1.s 			page 48


 1589              		.loc 1 89 0
 1590 004c 2C9B     		ldr	r3, [sp, #176]
 1591 004e 5B68     		ldr	r3, [r3, #4]
 1592 0050 0893     		str	r3, [sp, #32]
 1593 0052 A362     		str	r3, [r4, #40]
  91:..\..\..\arduinoLCD\test\Pain Drain\libraries\lvgl\src\draw\sw/lv_draw_sw_transform.c ****     int32_t angle_high = angle_low + 1;
 1594              		.loc 1 91 0
 1595 0054 0A21     		movs	r1, #10
 1596 0056 4046     		mov	r0, r8
 1597 0058 FFF7FEFF 		bl	__aeabi_idiv
 1598              	.LVL234:
 1599 005c 0500     		movs	r5, r0
 1600              	.LVL235:
  92:..\..\..\arduinoLCD\test\Pain Drain\libraries\lvgl\src\draw\sw/lv_draw_sw_transform.c ****     int32_t angle_rem = tr_dsc.angle  - (angle_low * 10);
 1601              		.loc 1 92 0
 1602 005e 431C     		adds	r3, r0, #1
 1603 0060 0893     		str	r3, [sp, #32]
 1604              	.LVL236:
  93:..\..\..\arduinoLCD\test\Pain Drain\libraries\lvgl\src\draw\sw/lv_draw_sw_transform.c **** 
 1605              		.loc 1 93 0
 1606 0062 0A20     		movs	r0, #10
 1607              	.LVL237:
 1608 0064 4042     		rsbs	r0, r0, #0
 1609 0066 6843     		muls	r0, r5
 1610 0068 8044     		add	r8, r8, r0
 1611              	.LVL238:
  95:..\..\..\arduinoLCD\test\Pain Drain\libraries\lvgl\src\draw\sw/lv_draw_sw_transform.c ****     int32_t s2 = lv_trigo_sin(angle_high);
 1612              		.loc 1 95 0
 1613 006a 28B2     		sxth	r0, r5
 1614 006c FFF7FEFF 		bl	lv_trigo_sin
 1615              	.LVL239:
 1616 0070 0990     		str	r0, [sp, #36]
 1617              	.LVL240:
  96:..\..\..\arduinoLCD\test\Pain Drain\libraries\lvgl\src\draw\sw/lv_draw_sw_transform.c **** 
 1618              		.loc 1 96 0
 1619 0072 6B46     		mov	r3, sp
 1620 0074 2022     		movs	r2, #32
 1621 0076 985E     		ldrsh	r0, [r3, r2]
 1622              	.LVL241:
 1623 0078 FFF7FEFF 		bl	lv_trigo_sin
 1624              	.LVL242:
 1625 007c 0A90     		str	r0, [sp, #40]
 1626              	.LVL243:
  98:..\..\..\arduinoLCD\test\Pain Drain\libraries\lvgl\src\draw\sw/lv_draw_sw_transform.c ****     int32_t c2 = lv_trigo_sin(angle_high + 90);
 1627              		.loc 1 98 0
 1628 007e 5A35     		adds	r5, r5, #90
 1629              	.LVL244:
 1630 0080 28B2     		sxth	r0, r5
 1631              	.LVL245:
 1632 0082 FFF7FEFF 		bl	lv_trigo_sin
 1633              	.LVL246:
 1634 0086 8146     		mov	r9, r0
 1635              	.LVL247:
  99:..\..\..\arduinoLCD\test\Pain Drain\libraries\lvgl\src\draw\sw/lv_draw_sw_transform.c **** 
 1636              		.loc 1 99 0
 1637 0088 089B     		ldr	r3, [sp, #32]
 1638 008a 5A33     		adds	r3, r3, #90
ARM GAS  C:\Users\haske\AppData\Local\Temp\ccOknJt1.s 			page 49


 1639 008c 18B2     		sxth	r0, r3
 1640              	.LVL248:
 1641 008e FFF7FEFF 		bl	lv_trigo_sin
 1642              	.LVL249:
 1643 0092 0890     		str	r0, [sp, #32]
 1644              	.LVL250:
 101:..\..\..\arduinoLCD\test\Pain Drain\libraries\lvgl\src\draw\sw/lv_draw_sw_transform.c ****     tr_dsc.cosma = (c1 * (10 - angle_rem) + c2 * angle_rem) / 10;
 1645              		.loc 1 101 0
 1646 0094 0A25     		movs	r5, #10
 1647              	.LVL251:
 1648 0096 4246     		mov	r2, r8
 1649 0098 AD1A     		subs	r5, r5, r2
 1650 009a 099B     		ldr	r3, [sp, #36]
 1651 009c 6B43     		muls	r3, r5
 1652 009e 1800     		movs	r0, r3
 1653              	.LVL252:
 1654 00a0 0A9B     		ldr	r3, [sp, #40]
 1655 00a2 5343     		muls	r3, r2
 1656 00a4 C018     		adds	r0, r0, r3
 1657 00a6 0A21     		movs	r1, #10
 1658 00a8 FFF7FEFF 		bl	__aeabi_idiv
 1659              	.LVL253:
 1660 00ac 0990     		str	r0, [sp, #36]
 1661              	.LVL254:
 102:..\..\..\arduinoLCD\test\Pain Drain\libraries\lvgl\src\draw\sw/lv_draw_sw_transform.c ****     tr_dsc.sinma = tr_dsc.sinma >> (LV_TRIGO_SHIFT - 10);
 1662              		.loc 1 102 0
 1663 00ae 4A46     		mov	r2, r9
 1664 00b0 5543     		muls	r5, r2
 1665 00b2 089B     		ldr	r3, [sp, #32]
 1666 00b4 4246     		mov	r2, r8
 1667 00b6 5343     		muls	r3, r2
 1668 00b8 E818     		adds	r0, r5, r3
 1669 00ba 0A21     		movs	r1, #10
 1670 00bc FFF7FEFF 		bl	__aeabi_idiv
 1671              	.LVL255:
 103:..\..\..\arduinoLCD\test\Pain Drain\libraries\lvgl\src\draw\sw/lv_draw_sw_transform.c ****     tr_dsc.cosma = tr_dsc.cosma >> (LV_TRIGO_SHIFT - 10);
 1672              		.loc 1 103 0
 1673 00c0 099B     		ldr	r3, [sp, #36]
 1674 00c2 5B11     		asrs	r3, r3, #5
 1675 00c4 2361     		str	r3, [r4, #16]
 104:..\..\..\arduinoLCD\test\Pain Drain\libraries\lvgl\src\draw\sw/lv_draw_sw_transform.c ****     tr_dsc.pivot_x_256 = tr_dsc.pivot.x * 256;
 1676              		.loc 1 104 0
 1677 00c6 4011     		asrs	r0, r0, #5
 1678 00c8 6061     		str	r0, [r4, #20]
 105:..\..\..\arduinoLCD\test\Pain Drain\libraries\lvgl\src\draw\sw/lv_draw_sw_transform.c ****     tr_dsc.pivot_y_256 = tr_dsc.pivot.y * 256;
 1679              		.loc 1 105 0
 1680 00ca 2822     		movs	r2, #40
 1681 00cc A35E     		ldrsh	r3, [r4, r2]
 1682 00ce 1B02     		lsls	r3, r3, #8
 1683 00d0 2362     		str	r3, [r4, #32]
 106:..\..\..\arduinoLCD\test\Pain Drain\libraries\lvgl\src\draw\sw/lv_draw_sw_transform.c **** 
 1684              		.loc 1 106 0
 1685 00d2 2A22     		movs	r2, #42
 1686 00d4 A35E     		ldrsh	r3, [r4, r2]
 1687 00d6 1B02     		lsls	r3, r3, #8
 1688 00d8 6362     		str	r3, [r4, #36]
 1689              	.LVL256:
ARM GAS  C:\Users\haske\AppData\Local\Temp\ccOknJt1.s 			page 50


 1690              	.LBB37:
 1691              	.LBB38:
 1692              		.file 3 "c:\\projects\\paindrain\\arduinolcd\\test\\pain drain\\libraries\\lvgl\\src\\misc\\lv_are
   1:c:\projects\paindrain\arduinolcd\test\pain drain\libraries\lvgl\src\misc\lv_area.h **** /**
   2:c:\projects\paindrain\arduinolcd\test\pain drain\libraries\lvgl\src\misc\lv_area.h ****  * @file lv_area.h
   3:c:\projects\paindrain\arduinolcd\test\pain drain\libraries\lvgl\src\misc\lv_area.h ****  *
   4:c:\projects\paindrain\arduinolcd\test\pain drain\libraries\lvgl\src\misc\lv_area.h ****  */
   5:c:\projects\paindrain\arduinolcd\test\pain drain\libraries\lvgl\src\misc\lv_area.h **** 
   6:c:\projects\paindrain\arduinolcd\test\pain drain\libraries\lvgl\src\misc\lv_area.h **** #ifndef LV_AREA_H
   7:c:\projects\paindrain\arduinolcd\test\pain drain\libraries\lvgl\src\misc\lv_area.h **** #define LV_AREA_H
   8:c:\projects\paindrain\arduinolcd\test\pain drain\libraries\lvgl\src\misc\lv_area.h **** 
   9:c:\projects\paindrain\arduinolcd\test\pain drain\libraries\lvgl\src\misc\lv_area.h **** #ifdef __cplusplus
  10:c:\projects\paindrain\arduinolcd\test\pain drain\libraries\lvgl\src\misc\lv_area.h **** extern "C" {
  11:c:\projects\paindrain\arduinolcd\test\pain drain\libraries\lvgl\src\misc\lv_area.h **** #endif
  12:c:\projects\paindrain\arduinolcd\test\pain drain\libraries\lvgl\src\misc\lv_area.h **** 
  13:c:\projects\paindrain\arduinolcd\test\pain drain\libraries\lvgl\src\misc\lv_area.h **** /*********************
  14:c:\projects\paindrain\arduinolcd\test\pain drain\libraries\lvgl\src\misc\lv_area.h ****  *      INCLUDES
  15:c:\projects\paindrain\arduinolcd\test\pain drain\libraries\lvgl\src\misc\lv_area.h ****  *********************/
  16:c:\projects\paindrain\arduinolcd\test\pain drain\libraries\lvgl\src\misc\lv_area.h **** #include "../lv_conf_internal.h"
  17:c:\projects\paindrain\arduinolcd\test\pain drain\libraries\lvgl\src\misc\lv_area.h **** #include <stdbool.h>
  18:c:\projects\paindrain\arduinolcd\test\pain drain\libraries\lvgl\src\misc\lv_area.h **** #include <stdint.h>
  19:c:\projects\paindrain\arduinolcd\test\pain drain\libraries\lvgl\src\misc\lv_area.h **** 
  20:c:\projects\paindrain\arduinolcd\test\pain drain\libraries\lvgl\src\misc\lv_area.h **** /*********************
  21:c:\projects\paindrain\arduinolcd\test\pain drain\libraries\lvgl\src\misc\lv_area.h ****  *      DEFINES
  22:c:\projects\paindrain\arduinolcd\test\pain drain\libraries\lvgl\src\misc\lv_area.h ****  *********************/
  23:c:\projects\paindrain\arduinolcd\test\pain drain\libraries\lvgl\src\misc\lv_area.h **** 
  24:c:\projects\paindrain\arduinolcd\test\pain drain\libraries\lvgl\src\misc\lv_area.h **** #if LV_USE_LARGE_COORD
  25:c:\projects\paindrain\arduinolcd\test\pain drain\libraries\lvgl\src\misc\lv_area.h **** typedef int32_t lv_coord_t;
  26:c:\projects\paindrain\arduinolcd\test\pain drain\libraries\lvgl\src\misc\lv_area.h **** #else
  27:c:\projects\paindrain\arduinolcd\test\pain drain\libraries\lvgl\src\misc\lv_area.h **** typedef int16_t lv_coord_t;
  28:c:\projects\paindrain\arduinolcd\test\pain drain\libraries\lvgl\src\misc\lv_area.h **** #endif
  29:c:\projects\paindrain\arduinolcd\test\pain drain\libraries\lvgl\src\misc\lv_area.h **** 
  30:c:\projects\paindrain\arduinolcd\test\pain drain\libraries\lvgl\src\misc\lv_area.h **** /**********************
  31:c:\projects\paindrain\arduinolcd\test\pain drain\libraries\lvgl\src\misc\lv_area.h ****  *      TYPEDEFS
  32:c:\projects\paindrain\arduinolcd\test\pain drain\libraries\lvgl\src\misc\lv_area.h ****  **********************/
  33:c:\projects\paindrain\arduinolcd\test\pain drain\libraries\lvgl\src\misc\lv_area.h **** 
  34:c:\projects\paindrain\arduinolcd\test\pain drain\libraries\lvgl\src\misc\lv_area.h **** /**
  35:c:\projects\paindrain\arduinolcd\test\pain drain\libraries\lvgl\src\misc\lv_area.h ****  * Represents a point on the screen.
  36:c:\projects\paindrain\arduinolcd\test\pain drain\libraries\lvgl\src\misc\lv_area.h ****  */
  37:c:\projects\paindrain\arduinolcd\test\pain drain\libraries\lvgl\src\misc\lv_area.h **** typedef struct {
  38:c:\projects\paindrain\arduinolcd\test\pain drain\libraries\lvgl\src\misc\lv_area.h ****     lv_coord_t x;
  39:c:\projects\paindrain\arduinolcd\test\pain drain\libraries\lvgl\src\misc\lv_area.h ****     lv_coord_t y;
  40:c:\projects\paindrain\arduinolcd\test\pain drain\libraries\lvgl\src\misc\lv_area.h **** } lv_point_t;
  41:c:\projects\paindrain\arduinolcd\test\pain drain\libraries\lvgl\src\misc\lv_area.h **** 
  42:c:\projects\paindrain\arduinolcd\test\pain drain\libraries\lvgl\src\misc\lv_area.h **** /** Represents an area of the screen.*/
  43:c:\projects\paindrain\arduinolcd\test\pain drain\libraries\lvgl\src\misc\lv_area.h **** typedef struct {
  44:c:\projects\paindrain\arduinolcd\test\pain drain\libraries\lvgl\src\misc\lv_area.h ****     lv_coord_t x1;
  45:c:\projects\paindrain\arduinolcd\test\pain drain\libraries\lvgl\src\misc\lv_area.h ****     lv_coord_t y1;
  46:c:\projects\paindrain\arduinolcd\test\pain drain\libraries\lvgl\src\misc\lv_area.h ****     lv_coord_t x2;
  47:c:\projects\paindrain\arduinolcd\test\pain drain\libraries\lvgl\src\misc\lv_area.h ****     lv_coord_t y2;
  48:c:\projects\paindrain\arduinolcd\test\pain drain\libraries\lvgl\src\misc\lv_area.h **** } lv_area_t;
  49:c:\projects\paindrain\arduinolcd\test\pain drain\libraries\lvgl\src\misc\lv_area.h **** 
  50:c:\projects\paindrain\arduinolcd\test\pain drain\libraries\lvgl\src\misc\lv_area.h **** /** Alignments*/
  51:c:\projects\paindrain\arduinolcd\test\pain drain\libraries\lvgl\src\misc\lv_area.h **** enum {
  52:c:\projects\paindrain\arduinolcd\test\pain drain\libraries\lvgl\src\misc\lv_area.h ****     LV_ALIGN_DEFAULT = 0,
  53:c:\projects\paindrain\arduinolcd\test\pain drain\libraries\lvgl\src\misc\lv_area.h ****     LV_ALIGN_TOP_LEFT,
  54:c:\projects\paindrain\arduinolcd\test\pain drain\libraries\lvgl\src\misc\lv_area.h ****     LV_ALIGN_TOP_MID,
ARM GAS  C:\Users\haske\AppData\Local\Temp\ccOknJt1.s 			page 51


  55:c:\projects\paindrain\arduinolcd\test\pain drain\libraries\lvgl\src\misc\lv_area.h ****     LV_ALIGN_TOP_RIGHT,
  56:c:\projects\paindrain\arduinolcd\test\pain drain\libraries\lvgl\src\misc\lv_area.h ****     LV_ALIGN_BOTTOM_LEFT,
  57:c:\projects\paindrain\arduinolcd\test\pain drain\libraries\lvgl\src\misc\lv_area.h ****     LV_ALIGN_BOTTOM_MID,
  58:c:\projects\paindrain\arduinolcd\test\pain drain\libraries\lvgl\src\misc\lv_area.h ****     LV_ALIGN_BOTTOM_RIGHT,
  59:c:\projects\paindrain\arduinolcd\test\pain drain\libraries\lvgl\src\misc\lv_area.h ****     LV_ALIGN_LEFT_MID,
  60:c:\projects\paindrain\arduinolcd\test\pain drain\libraries\lvgl\src\misc\lv_area.h ****     LV_ALIGN_RIGHT_MID,
  61:c:\projects\paindrain\arduinolcd\test\pain drain\libraries\lvgl\src\misc\lv_area.h ****     LV_ALIGN_CENTER,
  62:c:\projects\paindrain\arduinolcd\test\pain drain\libraries\lvgl\src\misc\lv_area.h **** 
  63:c:\projects\paindrain\arduinolcd\test\pain drain\libraries\lvgl\src\misc\lv_area.h ****     LV_ALIGN_OUT_TOP_LEFT,
  64:c:\projects\paindrain\arduinolcd\test\pain drain\libraries\lvgl\src\misc\lv_area.h ****     LV_ALIGN_OUT_TOP_MID,
  65:c:\projects\paindrain\arduinolcd\test\pain drain\libraries\lvgl\src\misc\lv_area.h ****     LV_ALIGN_OUT_TOP_RIGHT,
  66:c:\projects\paindrain\arduinolcd\test\pain drain\libraries\lvgl\src\misc\lv_area.h ****     LV_ALIGN_OUT_BOTTOM_LEFT,
  67:c:\projects\paindrain\arduinolcd\test\pain drain\libraries\lvgl\src\misc\lv_area.h ****     LV_ALIGN_OUT_BOTTOM_MID,
  68:c:\projects\paindrain\arduinolcd\test\pain drain\libraries\lvgl\src\misc\lv_area.h ****     LV_ALIGN_OUT_BOTTOM_RIGHT,
  69:c:\projects\paindrain\arduinolcd\test\pain drain\libraries\lvgl\src\misc\lv_area.h ****     LV_ALIGN_OUT_LEFT_TOP,
  70:c:\projects\paindrain\arduinolcd\test\pain drain\libraries\lvgl\src\misc\lv_area.h ****     LV_ALIGN_OUT_LEFT_MID,
  71:c:\projects\paindrain\arduinolcd\test\pain drain\libraries\lvgl\src\misc\lv_area.h ****     LV_ALIGN_OUT_LEFT_BOTTOM,
  72:c:\projects\paindrain\arduinolcd\test\pain drain\libraries\lvgl\src\misc\lv_area.h ****     LV_ALIGN_OUT_RIGHT_TOP,
  73:c:\projects\paindrain\arduinolcd\test\pain drain\libraries\lvgl\src\misc\lv_area.h ****     LV_ALIGN_OUT_RIGHT_MID,
  74:c:\projects\paindrain\arduinolcd\test\pain drain\libraries\lvgl\src\misc\lv_area.h ****     LV_ALIGN_OUT_RIGHT_BOTTOM,
  75:c:\projects\paindrain\arduinolcd\test\pain drain\libraries\lvgl\src\misc\lv_area.h **** };
  76:c:\projects\paindrain\arduinolcd\test\pain drain\libraries\lvgl\src\misc\lv_area.h **** typedef uint8_t lv_align_t;
  77:c:\projects\paindrain\arduinolcd\test\pain drain\libraries\lvgl\src\misc\lv_area.h **** 
  78:c:\projects\paindrain\arduinolcd\test\pain drain\libraries\lvgl\src\misc\lv_area.h **** enum {
  79:c:\projects\paindrain\arduinolcd\test\pain drain\libraries\lvgl\src\misc\lv_area.h ****     LV_DIR_NONE     = 0x00,
  80:c:\projects\paindrain\arduinolcd\test\pain drain\libraries\lvgl\src\misc\lv_area.h ****     LV_DIR_LEFT     = (1 << 0),
  81:c:\projects\paindrain\arduinolcd\test\pain drain\libraries\lvgl\src\misc\lv_area.h ****     LV_DIR_RIGHT    = (1 << 1),
  82:c:\projects\paindrain\arduinolcd\test\pain drain\libraries\lvgl\src\misc\lv_area.h ****     LV_DIR_TOP      = (1 << 2),
  83:c:\projects\paindrain\arduinolcd\test\pain drain\libraries\lvgl\src\misc\lv_area.h ****     LV_DIR_BOTTOM   = (1 << 3),
  84:c:\projects\paindrain\arduinolcd\test\pain drain\libraries\lvgl\src\misc\lv_area.h ****     LV_DIR_HOR      = LV_DIR_LEFT | LV_DIR_RIGHT,
  85:c:\projects\paindrain\arduinolcd\test\pain drain\libraries\lvgl\src\misc\lv_area.h ****     LV_DIR_VER      = LV_DIR_TOP | LV_DIR_BOTTOM,
  86:c:\projects\paindrain\arduinolcd\test\pain drain\libraries\lvgl\src\misc\lv_area.h ****     LV_DIR_ALL      = LV_DIR_HOR | LV_DIR_VER,
  87:c:\projects\paindrain\arduinolcd\test\pain drain\libraries\lvgl\src\misc\lv_area.h **** };
  88:c:\projects\paindrain\arduinolcd\test\pain drain\libraries\lvgl\src\misc\lv_area.h **** 
  89:c:\projects\paindrain\arduinolcd\test\pain drain\libraries\lvgl\src\misc\lv_area.h **** typedef uint8_t lv_dir_t;
  90:c:\projects\paindrain\arduinolcd\test\pain drain\libraries\lvgl\src\misc\lv_area.h **** 
  91:c:\projects\paindrain\arduinolcd\test\pain drain\libraries\lvgl\src\misc\lv_area.h **** /**********************
  92:c:\projects\paindrain\arduinolcd\test\pain drain\libraries\lvgl\src\misc\lv_area.h ****  * GLOBAL PROTOTYPES
  93:c:\projects\paindrain\arduinolcd\test\pain drain\libraries\lvgl\src\misc\lv_area.h ****  **********************/
  94:c:\projects\paindrain\arduinolcd\test\pain drain\libraries\lvgl\src\misc\lv_area.h **** 
  95:c:\projects\paindrain\arduinolcd\test\pain drain\libraries\lvgl\src\misc\lv_area.h **** /**
  96:c:\projects\paindrain\arduinolcd\test\pain drain\libraries\lvgl\src\misc\lv_area.h ****  * Initialize an area
  97:c:\projects\paindrain\arduinolcd\test\pain drain\libraries\lvgl\src\misc\lv_area.h ****  * @param area_p pointer to an area
  98:c:\projects\paindrain\arduinolcd\test\pain drain\libraries\lvgl\src\misc\lv_area.h ****  * @param x1 left coordinate of the area
  99:c:\projects\paindrain\arduinolcd\test\pain drain\libraries\lvgl\src\misc\lv_area.h ****  * @param y1 top coordinate of the area
 100:c:\projects\paindrain\arduinolcd\test\pain drain\libraries\lvgl\src\misc\lv_area.h ****  * @param x2 right coordinate of the area
 101:c:\projects\paindrain\arduinolcd\test\pain drain\libraries\lvgl\src\misc\lv_area.h ****  * @param y2 bottom coordinate of the area
 102:c:\projects\paindrain\arduinolcd\test\pain drain\libraries\lvgl\src\misc\lv_area.h ****  */
 103:c:\projects\paindrain\arduinolcd\test\pain drain\libraries\lvgl\src\misc\lv_area.h **** void lv_area_set(lv_area_t * area_p, lv_coord_t x1, lv_coord_t y1, lv_coord_t x2, lv_coord_t y2);
 104:c:\projects\paindrain\arduinolcd\test\pain drain\libraries\lvgl\src\misc\lv_area.h **** 
 105:c:\projects\paindrain\arduinolcd\test\pain drain\libraries\lvgl\src\misc\lv_area.h **** /**
 106:c:\projects\paindrain\arduinolcd\test\pain drain\libraries\lvgl\src\misc\lv_area.h ****  * Copy an area
 107:c:\projects\paindrain\arduinolcd\test\pain drain\libraries\lvgl\src\misc\lv_area.h ****  * @param dest pointer to the destination area
 108:c:\projects\paindrain\arduinolcd\test\pain drain\libraries\lvgl\src\misc\lv_area.h ****  * @param src pointer to the source area
 109:c:\projects\paindrain\arduinolcd\test\pain drain\libraries\lvgl\src\misc\lv_area.h ****  */
 110:c:\projects\paindrain\arduinolcd\test\pain drain\libraries\lvgl\src\misc\lv_area.h **** inline static void lv_area_copy(lv_area_t * dest, const lv_area_t * src)
 111:c:\projects\paindrain\arduinolcd\test\pain drain\libraries\lvgl\src\misc\lv_area.h **** {
ARM GAS  C:\Users\haske\AppData\Local\Temp\ccOknJt1.s 			page 52


 112:c:\projects\paindrain\arduinolcd\test\pain drain\libraries\lvgl\src\misc\lv_area.h ****     dest->x1 = src->x1;
 113:c:\projects\paindrain\arduinolcd\test\pain drain\libraries\lvgl\src\misc\lv_area.h ****     dest->y1 = src->y1;
 114:c:\projects\paindrain\arduinolcd\test\pain drain\libraries\lvgl\src\misc\lv_area.h ****     dest->x2 = src->x2;
 115:c:\projects\paindrain\arduinolcd\test\pain drain\libraries\lvgl\src\misc\lv_area.h ****     dest->y2 = src->y2;
 116:c:\projects\paindrain\arduinolcd\test\pain drain\libraries\lvgl\src\misc\lv_area.h **** }
 117:c:\projects\paindrain\arduinolcd\test\pain drain\libraries\lvgl\src\misc\lv_area.h **** 
 118:c:\projects\paindrain\arduinolcd\test\pain drain\libraries\lvgl\src\misc\lv_area.h **** /**
 119:c:\projects\paindrain\arduinolcd\test\pain drain\libraries\lvgl\src\misc\lv_area.h ****  * Get the width of an area
 120:c:\projects\paindrain\arduinolcd\test\pain drain\libraries\lvgl\src\misc\lv_area.h ****  * @param area_p pointer to an area
 121:c:\projects\paindrain\arduinolcd\test\pain drain\libraries\lvgl\src\misc\lv_area.h ****  * @return the width of the area (if x1 == x2 -> width = 1)
 122:c:\projects\paindrain\arduinolcd\test\pain drain\libraries\lvgl\src\misc\lv_area.h ****  */
 123:c:\projects\paindrain\arduinolcd\test\pain drain\libraries\lvgl\src\misc\lv_area.h **** static inline lv_coord_t lv_area_get_width(const lv_area_t * area_p)
 124:c:\projects\paindrain\arduinolcd\test\pain drain\libraries\lvgl\src\misc\lv_area.h **** {
 125:c:\projects\paindrain\arduinolcd\test\pain drain\libraries\lvgl\src\misc\lv_area.h ****     return (lv_coord_t)(area_p->x2 - area_p->x1 + 1);
 1693              		.loc 3 125 0
 1694 00da 0422     		movs	r2, #4
 1695 00dc BB5E     		ldrsh	r3, [r7, r2]
 1696 00de 0022     		movs	r2, #0
 1697 00e0 BD5E     		ldrsh	r5, [r7, r2]
 1698 00e2 5D1B     		subs	r5, r3, r5
 1699 00e4 0135     		adds	r5, r5, #1
 1700 00e6 2DB2     		sxth	r5, r5
 1701              	.LVL257:
 1702              	.LBE38:
 1703              	.LBE37:
 1704              	.LBB39:
 1705              	.LBB40:
 126:c:\projects\paindrain\arduinolcd\test\pain drain\libraries\lvgl\src\misc\lv_area.h **** }
 127:c:\projects\paindrain\arduinolcd\test\pain drain\libraries\lvgl\src\misc\lv_area.h **** 
 128:c:\projects\paindrain\arduinolcd\test\pain drain\libraries\lvgl\src\misc\lv_area.h **** /**
 129:c:\projects\paindrain\arduinolcd\test\pain drain\libraries\lvgl\src\misc\lv_area.h ****  * Get the height of an area
 130:c:\projects\paindrain\arduinolcd\test\pain drain\libraries\lvgl\src\misc\lv_area.h ****  * @param area_p pointer to an area
 131:c:\projects\paindrain\arduinolcd\test\pain drain\libraries\lvgl\src\misc\lv_area.h ****  * @return the height of the area (if y1 == y2 -> height = 1)
 132:c:\projects\paindrain\arduinolcd\test\pain drain\libraries\lvgl\src\misc\lv_area.h ****  */
 133:c:\projects\paindrain\arduinolcd\test\pain drain\libraries\lvgl\src\misc\lv_area.h **** static inline lv_coord_t lv_area_get_height(const lv_area_t * area_p)
 134:c:\projects\paindrain\arduinolcd\test\pain drain\libraries\lvgl\src\misc\lv_area.h **** {
 135:c:\projects\paindrain\arduinolcd\test\pain drain\libraries\lvgl\src\misc\lv_area.h ****     return (lv_coord_t)(area_p->y2 - area_p->y1 + 1);
 1706              		.loc 3 135 0
 1707 00e8 0622     		movs	r2, #6
 1708 00ea BB5E     		ldrsh	r3, [r7, r2]
 1709 00ec 0221     		movs	r1, #2
 1710 00ee 7A5E     		ldrsh	r2, [r7, r1]
 1711 00f0 9B1A     		subs	r3, r3, r2
 1712 00f2 0133     		adds	r3, r3, #1
 1713 00f4 1BB2     		sxth	r3, r3
 1714 00f6 0B93     		str	r3, [sp, #44]
 1715              	.LVL258:
 1716              	.LBE40:
 1717              	.LBE39:
 111:..\..\..\arduinoLCD\test\Pain Drain\libraries\lvgl\src\draw\sw/lv_draw_sw_transform.c ****         int32_t xs1_ups, ys1_ups, xs2_ups, ys2_ups;
 1718              		.loc 1 111 0
 1719 00f8 0024     		movs	r4, #0
 1720 00fa D146     		mov	r9, r10
 1721              	.LVL259:
 1722 00fc B246     		mov	r10, r6
 1723 00fe 3E00     		movs	r6, r7
 1724 0100 2F00     		movs	r7, r5
ARM GAS  C:\Users\haske\AppData\Local\Temp\ccOknJt1.s 			page 53


 1725              	.LVL260:
 1726 0102 90E0     		b	.L73
 1727              	.LVL261:
 1728              	.L81:
 1729              	.LBB41:
 114:..\..\..\arduinoLCD\test\Pain Drain\libraries\lvgl\src\draw\sw/lv_draw_sw_transform.c ****         transform_point_upscaled(&tr_dsc, dest_area->x2, dest_area->y1 + y, &xs2_ups, &ys2_ups);
 1730              		.loc 1 114 0
 1731 0104 0023     		movs	r3, #0
 1732 0106 F15E     		ldrsh	r1, [r6, r3]
 1733 0108 0223     		movs	r3, #2
 1734 010a F25E     		ldrsh	r2, [r6, r3]
 1735 010c 1219     		adds	r2, r2, r4
 1736 010e 12AB     		add	r3, sp, #72
 1737 0110 0093     		str	r3, [sp]
 1738 0112 11AB     		add	r3, sp, #68
 1739 0114 15A8     		add	r0, sp, #84
 1740 0116 FFF7FEFF 		bl	transform_point_upscaled
 1741              	.LVL262:
 115:..\..\..\arduinoLCD\test\Pain Drain\libraries\lvgl\src\draw\sw/lv_draw_sw_transform.c **** 
 1742              		.loc 1 115 0
 1743 011a 0423     		movs	r3, #4
 1744 011c F15E     		ldrsh	r1, [r6, r3]
 1745 011e 0223     		movs	r3, #2
 1746 0120 F25E     		ldrsh	r2, [r6, r3]
 1747 0122 A218     		adds	r2, r4, r2
 1748 0124 14AB     		add	r3, sp, #80
 1749 0126 0093     		str	r3, [sp]
 1750 0128 13AB     		add	r3, sp, #76
 1751 012a 15A8     		add	r0, sp, #84
 1752 012c FFF7FEFF 		bl	transform_point_upscaled
 1753              	.LVL263:
 117:..\..\..\arduinoLCD\test\Pain Drain\libraries\lvgl\src\draw\sw/lv_draw_sw_transform.c ****         int32_t ys_diff = ys2_ups - ys1_ups;
 1754              		.loc 1 117 0
 1755 0130 119D     		ldr	r5, [sp, #68]
 1756 0132 139B     		ldr	r3, [sp, #76]
 1757 0134 581B     		subs	r0, r3, r5
 1758              	.LVL264:
 118:..\..\..\arduinoLCD\test\Pain Drain\libraries\lvgl\src\draw\sw/lv_draw_sw_transform.c ****         int32_t xs_step_256 = 0;
 1759              		.loc 1 118 0
 1760 0136 129B     		ldr	r3, [sp, #72]
 1761 0138 9846     		mov	r8, r3
 1762 013a 149B     		ldr	r3, [sp, #80]
 1763 013c 4246     		mov	r2, r8
 1764 013e 9B1A     		subs	r3, r3, r2
 1765 0140 0993     		str	r3, [sp, #36]
 1766              	.LVL265:
 121:..\..\..\arduinoLCD\test\Pain Drain\libraries\lvgl\src\draw\sw/lv_draw_sw_transform.c ****             xs_step_256 = (256 * xs_diff) / (dest_w - 1);
 1767              		.loc 1 121 0
 1768 0142 012F     		cmp	r7, #1
 1769 0144 0CDD     		ble	.L82
 122:..\..\..\arduinoLCD\test\Pain Drain\libraries\lvgl\src\draw\sw/lv_draw_sw_transform.c ****             ys_step_256 = (256 * ys_diff) / (dest_w - 1);
 1770              		.loc 1 122 0
 1771 0146 0002     		lsls	r0, r0, #8
 1772              	.LVL266:
 1773 0148 7B1E     		subs	r3, r7, #1
 1774              	.LVL267:
 1775 014a 0A93     		str	r3, [sp, #40]
ARM GAS  C:\Users\haske\AppData\Local\Temp\ccOknJt1.s 			page 54


 1776 014c 1900     		movs	r1, r3
 1777 014e FFF7FEFF 		bl	__aeabi_idiv
 1778              	.LVL268:
 1779 0152 0890     		str	r0, [sp, #32]
 1780              	.LVL269:
 123:..\..\..\arduinoLCD\test\Pain Drain\libraries\lvgl\src\draw\sw/lv_draw_sw_transform.c ****         }
 1781              		.loc 1 123 0
 1782 0154 099A     		ldr	r2, [sp, #36]
 1783 0156 1002     		lsls	r0, r2, #8
 1784              	.LVL270:
 1785 0158 0A99     		ldr	r1, [sp, #40]
 1786 015a FFF7FEFF 		bl	__aeabi_idiv
 1787              	.LVL271:
 1788 015e 02E0     		b	.L74
 1789              	.LVL272:
 1790              	.L82:
 120:..\..\..\arduinoLCD\test\Pain Drain\libraries\lvgl\src\draw\sw/lv_draw_sw_transform.c ****         if(dest_w > 1) {
 1791              		.loc 1 120 0
 1792 0160 0020     		movs	r0, #0
 1793              	.LVL273:
 119:..\..\..\arduinoLCD\test\Pain Drain\libraries\lvgl\src\draw\sw/lv_draw_sw_transform.c ****         int32_t ys_step_256 = 0;
 1794              		.loc 1 119 0
 1795 0162 0023     		movs	r3, #0
 1796              	.LVL274:
 1797 0164 0893     		str	r3, [sp, #32]
 1798              	.LVL275:
 1799              	.L74:
 125:..\..\..\arduinoLCD\test\Pain Drain\libraries\lvgl\src\draw\sw/lv_draw_sw_transform.c ****         int32_t ys_ups = ys1_ups + 0x80;
 1800              		.loc 1 125 0
 1801 0166 8035     		adds	r5, r5, #128
 1802              	.LVL276:
 126:..\..\..\arduinoLCD\test\Pain Drain\libraries\lvgl\src\draw\sw/lv_draw_sw_transform.c **** 
 1803              		.loc 1 126 0
 1804 0168 4346     		mov	r3, r8
 1805 016a 8033     		adds	r3, r3, #128
 1806              	.LVL277:
 128:..\..\..\arduinoLCD\test\Pain Drain\libraries\lvgl\src\draw\sw/lv_draw_sw_transform.c ****             switch(cf) {
 1807              		.loc 1 128 0
 1808 016c 2C9A     		ldr	r2, [sp, #176]
 1809 016e 127D     		ldrb	r2, [r2, #20]
 1810 0170 D207     		lsls	r2, r2, #31
 1811 0172 41D4     		bmi	.L75
 129:..\..\..\arduinoLCD\test\Pain Drain\libraries\lvgl\src\draw\sw/lv_draw_sw_transform.c ****                 case LV_IMG_CF_TRUE_COLOR_ALPHA:
 1812              		.loc 1 129 0
 1813 0174 5246     		mov	r2, r10
 1814 0176 052A     		cmp	r2, #5
 1815 0178 09D0     		beq	.L77
 1816 017a 02D8     		bhi	.L78
 1817 017c 042A     		cmp	r2, #4
 1818 017e 17D0     		beq	.L79
 1819 0180 4CE0     		b	.L76
 1820              	.L78:
 1821 0182 5246     		mov	r2, r10
 1822 0184 062A     		cmp	r2, #6
 1823 0186 13D0     		beq	.L79
 1824 0188 142A     		cmp	r2, #20
 1825 018a 24D0     		beq	.L80
ARM GAS  C:\Users\haske\AppData\Local\Temp\ccOknJt1.s 			page 55


 1826 018c 46E0     		b	.L76
 1827              	.L77:
 131:..\..\..\arduinoLCD\test\Pain Drain\libraries\lvgl\src\draw\sw/lv_draw_sw_transform.c ****                     break;
 1828              		.loc 1 131 0
 1829 018e 5A46     		mov	r2, fp
 1830 0190 0692     		str	r2, [sp, #24]
 1831 0192 4A46     		mov	r2, r9
 1832 0194 0592     		str	r2, [sp, #20]
 1833 0196 0497     		str	r7, [sp, #16]
 1834 0198 0390     		str	r0, [sp, #12]
 1835 019a 089A     		ldr	r2, [sp, #32]
 1836 019c 0292     		str	r2, [sp, #8]
 1837 019e 0193     		str	r3, [sp, #4]
 1838 01a0 0095     		str	r5, [sp]
 1839 01a2 0F9B     		ldr	r3, [sp, #60]
 1840              	.LVL278:
 1841 01a4 0E9A     		ldr	r2, [sp, #56]
 1842 01a6 0D99     		ldr	r1, [sp, #52]
 1843 01a8 0C98     		ldr	r0, [sp, #48]
 1844              	.LVL279:
 1845 01aa FFF7FEFF 		bl	argb_no_aa
 1846              	.LVL280:
 132:..\..\..\arduinoLCD\test\Pain Drain\libraries\lvgl\src\draw\sw/lv_draw_sw_transform.c ****                 case LV_IMG_CF_TRUE_COLOR:
 1847              		.loc 1 132 0
 1848 01ae 35E0     		b	.L76
 1849              	.LVL281:
 1850              	.L79:
 135:..\..\..\arduinoLCD\test\Pain Drain\libraries\lvgl\src\draw\sw/lv_draw_sw_transform.c ****                     break;
 1851              		.loc 1 135 0
 1852 01b0 5246     		mov	r2, r10
 1853 01b2 0792     		str	r2, [sp, #28]
 1854 01b4 5A46     		mov	r2, fp
 1855 01b6 0692     		str	r2, [sp, #24]
 1856 01b8 4A46     		mov	r2, r9
 1857 01ba 0592     		str	r2, [sp, #20]
 1858 01bc 0497     		str	r7, [sp, #16]
 1859 01be 0390     		str	r0, [sp, #12]
 1860 01c0 089A     		ldr	r2, [sp, #32]
 1861 01c2 0292     		str	r2, [sp, #8]
 1862 01c4 0193     		str	r3, [sp, #4]
 1863 01c6 0095     		str	r5, [sp]
 1864 01c8 0F9B     		ldr	r3, [sp, #60]
 1865              	.LVL282:
 1866 01ca 0E9A     		ldr	r2, [sp, #56]
 1867 01cc 0D99     		ldr	r1, [sp, #52]
 1868 01ce 0C98     		ldr	r0, [sp, #48]
 1869              	.LVL283:
 1870 01d0 FFF7FEFF 		bl	rgb_no_aa
 1871              	.LVL284:
 136:..\..\..\arduinoLCD\test\Pain Drain\libraries\lvgl\src\draw\sw/lv_draw_sw_transform.c **** 
 1872              		.loc 1 136 0
 1873 01d4 22E0     		b	.L76
 1874              	.LVL285:
 1875              	.L80:
 140:..\..\..\arduinoLCD\test\Pain Drain\libraries\lvgl\src\draw\sw/lv_draw_sw_transform.c ****                     break;
 1876              		.loc 1 140 0
 1877 01d6 5A46     		mov	r2, fp
ARM GAS  C:\Users\haske\AppData\Local\Temp\ccOknJt1.s 			page 56


 1878 01d8 0692     		str	r2, [sp, #24]
 1879 01da 4A46     		mov	r2, r9
 1880 01dc 0592     		str	r2, [sp, #20]
 1881 01de 0497     		str	r7, [sp, #16]
 1882 01e0 0390     		str	r0, [sp, #12]
 1883 01e2 089A     		ldr	r2, [sp, #32]
 1884 01e4 0292     		str	r2, [sp, #8]
 1885 01e6 0193     		str	r3, [sp, #4]
 1886 01e8 0095     		str	r5, [sp]
 1887 01ea 0F9B     		ldr	r3, [sp, #60]
 1888              	.LVL286:
 1889 01ec 0E9A     		ldr	r2, [sp, #56]
 1890 01ee 0D99     		ldr	r1, [sp, #52]
 1891 01f0 0C98     		ldr	r0, [sp, #48]
 1892              	.LVL287:
 1893 01f2 FFF7FEFF 		bl	rgb565a8_no_aa
 1894              	.LVL288:
 141:..\..\..\arduinoLCD\test\Pain Drain\libraries\lvgl\src\draw\sw/lv_draw_sw_transform.c **** #endif
 1895              		.loc 1 141 0
 1896 01f6 11E0     		b	.L76
 1897              	.LVL289:
 1898              	.L75:
 148:..\..\..\arduinoLCD\test\Pain Drain\libraries\lvgl\src\draw\sw/lv_draw_sw_transform.c ****         }
 1899              		.loc 1 148 0
 1900 01f8 5246     		mov	r2, r10
 1901 01fa 0792     		str	r2, [sp, #28]
 1902 01fc 5A46     		mov	r2, fp
 1903 01fe 0692     		str	r2, [sp, #24]
 1904 0200 4A46     		mov	r2, r9
 1905 0202 0592     		str	r2, [sp, #20]
 1906 0204 0497     		str	r7, [sp, #16]
 1907 0206 0390     		str	r0, [sp, #12]
 1908 0208 089A     		ldr	r2, [sp, #32]
 1909 020a 0292     		str	r2, [sp, #8]
 1910 020c 0193     		str	r3, [sp, #4]
 1911 020e 0095     		str	r5, [sp]
 1912 0210 0F9B     		ldr	r3, [sp, #60]
 1913              	.LVL290:
 1914 0212 0E9A     		ldr	r2, [sp, #56]
 1915 0214 0D99     		ldr	r1, [sp, #52]
 1916 0216 0C98     		ldr	r0, [sp, #48]
 1917              	.LVL291:
 1918 0218 FFF7FEFF 		bl	argb_and_rgb_aa
 1919              	.LVL292:
 1920              	.L76:
 151:..\..\..\arduinoLCD\test\Pain Drain\libraries\lvgl\src\draw\sw/lv_draw_sw_transform.c ****         abuf += dest_w;
 1921              		.loc 1 151 0 discriminator 2
 1922 021c 7B00     		lsls	r3, r7, #1
 1923 021e 9944     		add	r9, r9, r3
 1924              	.LVL293:
 152:..\..\..\arduinoLCD\test\Pain Drain\libraries\lvgl\src\draw\sw/lv_draw_sw_transform.c ****     }
 1925              		.loc 1 152 0 discriminator 2
 1926 0220 BB44     		add	fp, fp, r7
 1927              	.LVL294:
 1928              	.LBE41:
 111:..\..\..\arduinoLCD\test\Pain Drain\libraries\lvgl\src\draw\sw/lv_draw_sw_transform.c ****         int32_t xs1_ups, ys1_ups, xs2_ups, ys2_ups;
 1929              		.loc 1 111 0 discriminator 2
ARM GAS  C:\Users\haske\AppData\Local\Temp\ccOknJt1.s 			page 57


 1930 0222 0134     		adds	r4, r4, #1
 1931              	.LVL295:
 1932 0224 24B2     		sxth	r4, r4
 1933              	.LVL296:
 1934              	.L73:
 111:..\..\..\arduinoLCD\test\Pain Drain\libraries\lvgl\src\draw\sw/lv_draw_sw_transform.c ****         int32_t xs1_ups, ys1_ups, xs2_ups, ys2_ups;
 1935              		.loc 1 111 0 is_stmt 0 discriminator 1
 1936 0226 0B9B     		ldr	r3, [sp, #44]
 1937 0228 9C42     		cmp	r4, r3
 1938 022a 00DA     		bge	.LCB2218
 1939 022c 6AE7     		b	.L81	@long jump
 1940              	.LCB2218:
 154:..\..\..\arduinoLCD\test\Pain Drain\libraries\lvgl\src\draw\sw/lv_draw_sw_transform.c **** 
 1941              		.loc 1 154 0 is_stmt 1
 1942 022e 21B0     		add	sp, sp, #132
 1943              		@ sp needed
 1944              	.LVL297:
 1945              	.LVL298:
 1946              	.LVL299:
 1947              	.LVL300:
 1948 0230 3CBC     		pop	{r2, r3, r4, r5}
 1949 0232 9046     		mov	r8, r2
 1950 0234 9946     		mov	r9, r3
 1951 0236 A246     		mov	r10, r4
 1952 0238 AB46     		mov	fp, r5
 1953 023a F0BD     		pop	{r4, r5, r6, r7, pc}
 1954              		.cfi_endproc
 1955              	.LFE159:
 1956              		.size	lv_draw_sw_transform, .-lv_draw_sw_transform
 1957              		.text
 1958              	.Letext0:
 1959              		.file 4 "c:\\program files (x86)\\cypress\\psoc creator\\4.4\\psoc creator\\import\\gnu\\arm\\5.4.
 1960              		.file 5 "c:\\program files (x86)\\cypress\\psoc creator\\4.4\\psoc creator\\import\\gnu\\arm\\5.4.
 1961              		.file 6 "c:\\projects\\paindrain\\arduinolcd\\test\\pain drain\\libraries\\lvgl\\src\\misc\\lv_typ
 1962              		.file 7 "c:\\program files (x86)\\cypress\\psoc creator\\4.4\\psoc creator\\import\\gnu\\arm\\5.4.
 1963              		.file 8 "c:\\projects\\paindrain\\arduinolcd\\test\\pain drain\\libraries\\lvgl\\src\\font\\lv_fon
 1964              		.file 9 "c:\\projects\\paindrain\\arduinolcd\\test\\pain drain\\libraries\\lvgl\\src\\misc\\lv_txt
 1965              		.file 10 "c:\\projects\\paindrain\\arduinolcd\\test\\pain drain\\libraries\\lvgl\\src\\misc\\lv_bi
 1966              		.file 11 "c:\\projects\\paindrain\\arduinolcd\\test\\pain drain\\libraries\\lvgl\\src\\misc\\lv_st
 1967              		.file 12 "..\\..\\..\\arduinoLCD\\test\\Pain Drain\\libraries\\lvgl\\src\\draw\\sw\\../lv_img_buf.
 1968              		.file 13 "c:\\projects\\paindrain\\arduinolcd\\test\\pain drain\\libraries\\lvgl\\src\\core\\lv_ob
 1969              		.file 14 "..\\..\\..\\arduinoLCD\\test\\Pain Drain\\libraries\\lvgl\\src\\draw\\sw\\../lv_draw_rec
 1970              		.file 15 "..\\..\\..\\arduinoLCD\\test\\Pain Drain\\libraries\\lvgl\\src\\draw\\sw\\../lv_draw_lab
 1971              		.file 16 "..\\..\\..\\arduinoLCD\\test\\Pain Drain\\libraries\\lvgl\\src\\draw\\sw\\../lv_draw_img
 1972              		.file 17 "..\\..\\..\\arduinoLCD\\test\\Pain Drain\\libraries\\lvgl\\src\\draw\\sw\\../lv_draw_lin
 1973              		.file 18 "..\\..\\..\\arduinoLCD\\test\\Pain Drain\\libraries\\lvgl\\src\\draw\\sw\\../lv_draw_arc
 1974              		.file 19 "..\\..\\..\\arduinoLCD\\test\\Pain Drain\\libraries\\lvgl\\src\\draw\\sw\\../lv_draw_lay
 1975              		.file 20 "..\\..\\..\\arduinoLCD\\test\\Pain Drain\\libraries\\lvgl\\src\\draw\\sw\\../lv_draw.h"
 1976              		.file 21 "c:\\projects\\paindrain\\arduinolcd\\test\\pain drain\\libraries\\lvgl\\src\\misc\\lv_ti
 1977              		.file 22 "c:\\projects\\paindrain\\arduinolcd\\test\\pain drain\\libraries\\lvgl\\src\\hal\\lv_hal
 1978              		.file 23 "c:\\projects\\paindrain\\arduinolcd\\test\\pain drain\\libraries\\lvgl\\src\\core\\lv_gr
 1979              		.file 24 "c:\\projects\\paindrain\\arduinolcd\\test\\pain drain\\libraries\\lvgl\\src\\misc\\lv_ll
 1980              		.file 25 "c:\\projects\\paindrain\\arduinolcd\\test\\pain drain\\libraries\\lvgl\\src\\core\\lv_ob
 1981              		.file 26 "c:\\projects\\paindrain\\arduinolcd\\test\\pain drain\\libraries\\lvgl\\src\\core\\lv_ob
 1982              		.file 27 "c:\\projects\\paindrain\\arduinolcd\\test\\pain drain\\libraries\\lvgl\\src\\core\\lv_ob
 1983              		.file 28 "c:\\projects\\paindrain\\arduinolcd\\test\\pain drain\\libraries\\lvgl\\src\\core\\lv_ev
 1984              		.file 29 "c:\\projects\\paindrain\\arduinolcd\\test\\pain drain\\libraries\\lvgl\\src\\core\\lv_re
ARM GAS  C:\Users\haske\AppData\Local\Temp\ccOknJt1.s 			page 58


 1985              		.file 30 "c:\\projects\\paindrain\\arduinolcd\\test\\pain drain\\libraries\\lvgl\\src\\misc\\lv_me
 1986              		.file 31 "c:\\projects\\paindrain\\arduinolcd\\test\\pain drain\\libraries\\lvgl\\src\\misc\\lv_ma
 1987              		.section	.debug_info,"",%progbits
 1988              	.Ldebug_info0:
 1989 0000 C4280000 		.4byte	0x28c4
 1990 0004 0400     		.2byte	0x4
 1991 0006 00000000 		.4byte	.Ldebug_abbrev0
 1992 000a 04       		.byte	0x4
 1993 000b 01       		.uleb128 0x1
 1994 000c 85080000 		.4byte	.LASF578
 1995 0010 0C       		.byte	0xc
 1996 0011 7D190000 		.4byte	.LASF579
 1997 0015 C21C0000 		.4byte	.LASF580
 1998 0019 00000000 		.4byte	.Ldebug_ranges0+0
 1999 001d 00000000 		.4byte	0
 2000 0021 00000000 		.4byte	.Ldebug_line0
 2001 0025 02       		.uleb128 0x2
 2002 0026 50170000 		.4byte	.LASF0
 2003 002a 04       		.byte	0x4
 2004 002b 1B       		.byte	0x1b
 2005 002c 30000000 		.4byte	0x30
 2006 0030 03       		.uleb128 0x3
 2007 0031 01       		.byte	0x1
 2008 0032 06       		.byte	0x6
 2009 0033 5F060000 		.4byte	.LASF2
 2010 0037 02       		.uleb128 0x2
 2011 0038 C5030000 		.4byte	.LASF1
 2012 003c 04       		.byte	0x4
 2013 003d 1D       		.byte	0x1d
 2014 003e 42000000 		.4byte	0x42
 2015 0042 03       		.uleb128 0x3
 2016 0043 01       		.byte	0x1
 2017 0044 08       		.byte	0x8
 2018 0045 EF060000 		.4byte	.LASF3
 2019 0049 02       		.uleb128 0x2
 2020 004a D3190000 		.4byte	.LASF4
 2021 004e 04       		.byte	0x4
 2022 004f 29       		.byte	0x29
 2023 0050 54000000 		.4byte	0x54
 2024 0054 03       		.uleb128 0x3
 2025 0055 02       		.byte	0x2
 2026 0056 05       		.byte	0x5
 2027 0057 561B0000 		.4byte	.LASF5
 2028 005b 02       		.uleb128 0x2
 2029 005c 1F0A0000 		.4byte	.LASF6
 2030 0060 04       		.byte	0x4
 2031 0061 2B       		.byte	0x2b
 2032 0062 66000000 		.4byte	0x66
 2033 0066 03       		.uleb128 0x3
 2034 0067 02       		.byte	0x2
 2035 0068 07       		.byte	0x7
 2036 0069 DE1E0000 		.4byte	.LASF7
 2037 006d 02       		.uleb128 0x2
 2038 006e 941F0000 		.4byte	.LASF8
 2039 0072 04       		.byte	0x4
 2040 0073 3F       		.byte	0x3f
 2041 0074 78000000 		.4byte	0x78
ARM GAS  C:\Users\haske\AppData\Local\Temp\ccOknJt1.s 			page 59


 2042 0078 03       		.uleb128 0x3
 2043 0079 04       		.byte	0x4
 2044 007a 05       		.byte	0x5
 2045 007b B7040000 		.4byte	.LASF9
 2046 007f 02       		.uleb128 0x2
 2047 0080 87100000 		.4byte	.LASF10
 2048 0084 04       		.byte	0x4
 2049 0085 41       		.byte	0x41
 2050 0086 8A000000 		.4byte	0x8a
 2051 008a 03       		.uleb128 0x3
 2052 008b 04       		.byte	0x4
 2053 008c 07       		.byte	0x7
 2054 008d 460E0000 		.4byte	.LASF11
 2055 0091 03       		.uleb128 0x3
 2056 0092 08       		.byte	0x8
 2057 0093 05       		.byte	0x5
 2058 0094 C7100000 		.4byte	.LASF12
 2059 0098 03       		.uleb128 0x3
 2060 0099 08       		.byte	0x8
 2061 009a 07       		.byte	0x7
 2062 009b 9C170000 		.4byte	.LASF13
 2063 009f 04       		.uleb128 0x4
 2064 00a0 04       		.byte	0x4
 2065 00a1 05       		.byte	0x5
 2066 00a2 696E7400 		.ascii	"int\000"
 2067 00a6 03       		.uleb128 0x3
 2068 00a7 04       		.byte	0x4
 2069 00a8 07       		.byte	0x7
 2070 00a9 8E120000 		.4byte	.LASF14
 2071 00ad 02       		.uleb128 0x2
 2072 00ae 16000000 		.4byte	.LASF15
 2073 00b2 05       		.byte	0x5
 2074 00b3 14       		.byte	0x14
 2075 00b4 25000000 		.4byte	0x25
 2076 00b8 02       		.uleb128 0x2
 2077 00b9 6B060000 		.4byte	.LASF16
 2078 00bd 05       		.byte	0x5
 2079 00be 18       		.byte	0x18
 2080 00bf 37000000 		.4byte	0x37
 2081 00c3 02       		.uleb128 0x2
 2082 00c4 F91B0000 		.4byte	.LASF17
 2083 00c8 05       		.byte	0x5
 2084 00c9 20       		.byte	0x20
 2085 00ca 49000000 		.4byte	0x49
 2086 00ce 02       		.uleb128 0x2
 2087 00cf 1F180000 		.4byte	.LASF18
 2088 00d3 05       		.byte	0x5
 2089 00d4 24       		.byte	0x24
 2090 00d5 5B000000 		.4byte	0x5b
 2091 00d9 02       		.uleb128 0x2
 2092 00da FE000000 		.4byte	.LASF19
 2093 00de 05       		.byte	0x5
 2094 00df 2C       		.byte	0x2c
 2095 00e0 6D000000 		.4byte	0x6d
 2096 00e4 02       		.uleb128 0x2
 2097 00e5 4C1E0000 		.4byte	.LASF20
 2098 00e9 05       		.byte	0x5
ARM GAS  C:\Users\haske\AppData\Local\Temp\ccOknJt1.s 			page 60


 2099 00ea 30       		.byte	0x30
 2100 00eb 7F000000 		.4byte	0x7f
 2101 00ef 02       		.uleb128 0x2
 2102 00f0 E7150000 		.4byte	.LASF21
 2103 00f4 06       		.byte	0x6
 2104 00f5 2F       		.byte	0x2f
 2105 00f6 B8000000 		.4byte	0xb8
 2106 00fa 02       		.uleb128 0x2
 2107 00fb 5B000000 		.4byte	.LASF22
 2108 00ff 07       		.byte	0x7
 2109 0100 D8       		.byte	0xd8
 2110 0101 A6000000 		.4byte	0xa6
 2111 0105 03       		.uleb128 0x3
 2112 0106 08       		.byte	0x8
 2113 0107 04       		.byte	0x4
 2114 0108 17160000 		.4byte	.LASF23
 2115 010c 03       		.uleb128 0x3
 2116 010d 04       		.byte	0x4
 2117 010e 07       		.byte	0x7
 2118 010f 68000000 		.4byte	.LASF24
 2119 0113 05       		.uleb128 0x5
 2120 0114 04       		.byte	0x4
 2121 0115 03       		.uleb128 0x3
 2122 0116 01       		.byte	0x1
 2123 0117 08       		.byte	0x8
 2124 0118 61090000 		.4byte	.LASF25
 2125 011c 06       		.uleb128 0x6
 2126 011d 01       		.byte	0x1
 2127 011e 42000000 		.4byte	0x42
 2128 0122 02       		.byte	0x2
 2129 0123 29       		.byte	0x29
 2130 0124 77010000 		.4byte	0x177
 2131 0128 07       		.uleb128 0x7
 2132 0129 DA110000 		.4byte	.LASF26
 2133 012d 00       		.byte	0
 2134 012e 07       		.uleb128 0x7
 2135 012f 2C0F0000 		.4byte	.LASF27
 2136 0133 00       		.byte	0
 2137 0134 07       		.uleb128 0x7
 2138 0135 0D190000 		.4byte	.LASF28
 2139 0139 19       		.byte	0x19
 2140 013a 07       		.uleb128 0x7
 2141 013b 411A0000 		.4byte	.LASF29
 2142 013f 33       		.byte	0x33
 2143 0140 07       		.uleb128 0x7
 2144 0141 E01A0000 		.4byte	.LASF30
 2145 0145 4C       		.byte	0x4c
 2146 0146 07       		.uleb128 0x7
 2147 0147 EF1B0000 		.4byte	.LASF31
 2148 014b 66       		.byte	0x66
 2149 014c 07       		.uleb128 0x7
 2150 014d A61C0000 		.4byte	.LASF32
 2151 0151 7F       		.byte	0x7f
 2152 0152 07       		.uleb128 0x7
 2153 0153 D51D0000 		.4byte	.LASF33
 2154 0157 99       		.byte	0x99
 2155 0158 07       		.uleb128 0x7
ARM GAS  C:\Users\haske\AppData\Local\Temp\ccOknJt1.s 			page 61


 2156 0159 D41E0000 		.4byte	.LASF34
 2157 015d B2       		.byte	0xb2
 2158 015e 07       		.uleb128 0x7
 2159 015f EC1F0000 		.4byte	.LASF35
 2160 0163 CC       		.byte	0xcc
 2161 0164 07       		.uleb128 0x7
 2162 0165 D2200000 		.4byte	.LASF36
 2163 0169 E5       		.byte	0xe5
 2164 016a 07       		.uleb128 0x7
 2165 016b EE140000 		.4byte	.LASF37
 2166 016f FF       		.byte	0xff
 2167 0170 07       		.uleb128 0x7
 2168 0171 56160000 		.4byte	.LASF38
 2169 0175 FF       		.byte	0xff
 2170 0176 00       		.byte	0
 2171 0177 08       		.uleb128 0x8
 2172 0178 02       		.byte	0x2
 2173 0179 02       		.byte	0x2
 2174 017a D1       		.byte	0xd1
 2175 017b AD010000 		.4byte	0x1ad
 2176 017f 09       		.uleb128 0x9
 2177 0180 C2060000 		.4byte	.LASF39
 2178 0184 02       		.byte	0x2
 2179 0185 D3       		.byte	0xd3
 2180 0186 CE000000 		.4byte	0xce
 2181 018a 02       		.byte	0x2
 2182 018b 05       		.byte	0x5
 2183 018c 0B       		.byte	0xb
 2184 018d 00       		.byte	0
 2185 018e 09       		.uleb128 0x9
 2186 018f A51E0000 		.4byte	.LASF40
 2187 0193 02       		.byte	0x2
 2188 0194 D4       		.byte	0xd4
 2189 0195 CE000000 		.4byte	0xce
 2190 0199 02       		.byte	0x2
 2191 019a 06       		.byte	0x6
 2192 019b 05       		.byte	0x5
 2193 019c 00       		.byte	0
 2194 019d 0A       		.uleb128 0xa
 2195 019e 72656400 		.ascii	"red\000"
 2196 01a2 02       		.byte	0x2
 2197 01a3 D5       		.byte	0xd5
 2198 01a4 CE000000 		.4byte	0xce
 2199 01a8 02       		.byte	0x2
 2200 01a9 05       		.byte	0x5
 2201 01aa 00       		.byte	0
 2202 01ab 00       		.byte	0
 2203 01ac 00       		.byte	0
 2204 01ad 0B       		.uleb128 0xb
 2205 01ae 02       		.byte	0x2
 2206 01af 02       		.byte	0x2
 2207 01b0 D0       		.byte	0xd0
 2208 01b1 CB010000 		.4byte	0x1cb
 2209 01b5 0C       		.uleb128 0xc
 2210 01b6 636800   		.ascii	"ch\000"
 2211 01b9 02       		.byte	0x2
 2212 01ba DC       		.byte	0xdc
ARM GAS  C:\Users\haske\AppData\Local\Temp\ccOknJt1.s 			page 62


 2213 01bb 77010000 		.4byte	0x177
 2214 01bf 0D       		.uleb128 0xd
 2215 01c0 281A0000 		.4byte	.LASF41
 2216 01c4 02       		.byte	0x2
 2217 01c5 DD       		.byte	0xdd
 2218 01c6 CE000000 		.4byte	0xce
 2219 01ca 00       		.byte	0
 2220 01cb 02       		.uleb128 0x2
 2221 01cc 431B0000 		.4byte	.LASF42
 2222 01d0 02       		.byte	0x2
 2223 01d1 DE       		.byte	0xde
 2224 01d2 AD010000 		.4byte	0x1ad
 2225 01d6 02       		.uleb128 0x2
 2226 01d7 58180000 		.4byte	.LASF43
 2227 01db 02       		.byte	0x2
 2228 01dc EB       		.byte	0xeb
 2229 01dd CB010000 		.4byte	0x1cb
 2230 01e1 02       		.uleb128 0x2
 2231 01e2 DC000000 		.4byte	.LASF44
 2232 01e6 02       		.byte	0x2
 2233 01e7 F5       		.byte	0xf5
 2234 01e8 B8000000 		.4byte	0xb8
 2235 01ec 02       		.uleb128 0x2
 2236 01ed FE1E0000 		.4byte	.LASF45
 2237 01f1 03       		.byte	0x3
 2238 01f2 1B       		.byte	0x1b
 2239 01f3 C3000000 		.4byte	0xc3
 2240 01f7 08       		.uleb128 0x8
 2241 01f8 04       		.byte	0x4
 2242 01f9 03       		.byte	0x3
 2243 01fa 25       		.byte	0x25
 2244 01fb 14020000 		.4byte	0x214
 2245 01ff 0E       		.uleb128 0xe
 2246 0200 7800     		.ascii	"x\000"
 2247 0202 03       		.byte	0x3
 2248 0203 26       		.byte	0x26
 2249 0204 EC010000 		.4byte	0x1ec
 2250 0208 00       		.byte	0
 2251 0209 0E       		.uleb128 0xe
 2252 020a 7900     		.ascii	"y\000"
 2253 020c 03       		.byte	0x3
 2254 020d 27       		.byte	0x27
 2255 020e EC010000 		.4byte	0x1ec
 2256 0212 02       		.byte	0x2
 2257 0213 00       		.byte	0
 2258 0214 02       		.uleb128 0x2
 2259 0215 49010000 		.4byte	.LASF46
 2260 0219 03       		.byte	0x3
 2261 021a 28       		.byte	0x28
 2262 021b F7010000 		.4byte	0x1f7
 2263 021f 08       		.uleb128 0x8
 2264 0220 08       		.byte	0x8
 2265 0221 03       		.byte	0x3
 2266 0222 2B       		.byte	0x2b
 2267 0223 54020000 		.4byte	0x254
 2268 0227 0E       		.uleb128 0xe
 2269 0228 783100   		.ascii	"x1\000"
ARM GAS  C:\Users\haske\AppData\Local\Temp\ccOknJt1.s 			page 63


 2270 022b 03       		.byte	0x3
 2271 022c 2C       		.byte	0x2c
 2272 022d EC010000 		.4byte	0x1ec
 2273 0231 00       		.byte	0
 2274 0232 0E       		.uleb128 0xe
 2275 0233 793100   		.ascii	"y1\000"
 2276 0236 03       		.byte	0x3
 2277 0237 2D       		.byte	0x2d
 2278 0238 EC010000 		.4byte	0x1ec
 2279 023c 02       		.byte	0x2
 2280 023d 0E       		.uleb128 0xe
 2281 023e 783200   		.ascii	"x2\000"
 2282 0241 03       		.byte	0x3
 2283 0242 2E       		.byte	0x2e
 2284 0243 EC010000 		.4byte	0x1ec
 2285 0247 04       		.byte	0x4
 2286 0248 0E       		.uleb128 0xe
 2287 0249 793200   		.ascii	"y2\000"
 2288 024c 03       		.byte	0x3
 2289 024d 2F       		.byte	0x2f
 2290 024e EC010000 		.4byte	0x1ec
 2291 0252 06       		.byte	0x6
 2292 0253 00       		.byte	0
 2293 0254 02       		.uleb128 0x2
 2294 0255 D70B0000 		.4byte	.LASF47
 2295 0259 03       		.byte	0x3
 2296 025a 30       		.byte	0x30
 2297 025b 1F020000 		.4byte	0x21f
 2298 025f 02       		.uleb128 0x2
 2299 0260 B10A0000 		.4byte	.LASF48
 2300 0264 03       		.byte	0x3
 2301 0265 59       		.byte	0x59
 2302 0266 B8000000 		.4byte	0xb8
 2303 026a 08       		.uleb128 0x8
 2304 026b 10       		.byte	0x10
 2305 026c 08       		.byte	0x8
 2306 026d 29       		.byte	0x29
 2307 026e D9020000 		.4byte	0x2d9
 2308 0272 0F       		.uleb128 0xf
 2309 0273 FA0E0000 		.4byte	.LASF49
 2310 0277 08       		.byte	0x8
 2311 0278 2B       		.byte	0x2b
 2312 0279 61030000 		.4byte	0x361
 2313 027d 00       		.byte	0
 2314 027e 0F       		.uleb128 0xf
 2315 027f 62000000 		.4byte	.LASF50
 2316 0283 08       		.byte	0x8
 2317 0284 2C       		.byte	0x2c
 2318 0285 CE000000 		.4byte	0xce
 2319 0289 04       		.byte	0x4
 2320 028a 0F       		.uleb128 0xf
 2321 028b 501B0000 		.4byte	.LASF51
 2322 028f 08       		.byte	0x8
 2323 0290 2D       		.byte	0x2d
 2324 0291 CE000000 		.4byte	0xce
 2325 0295 06       		.byte	0x6
 2326 0296 0F       		.uleb128 0xf
ARM GAS  C:\Users\haske\AppData\Local\Temp\ccOknJt1.s 			page 64


 2327 0297 281B0000 		.4byte	.LASF52
 2328 029b 08       		.byte	0x8
 2329 029c 2E       		.byte	0x2e
 2330 029d CE000000 		.4byte	0xce
 2331 02a1 08       		.byte	0x8
 2332 02a2 0F       		.uleb128 0xf
 2333 02a3 DE070000 		.4byte	.LASF53
 2334 02a7 08       		.byte	0x8
 2335 02a8 2F       		.byte	0x2f
 2336 02a9 C3000000 		.4byte	0xc3
 2337 02ad 0A       		.byte	0xa
 2338 02ae 0F       		.uleb128 0xf
 2339 02af E4070000 		.4byte	.LASF54
 2340 02b3 08       		.byte	0x8
 2341 02b4 30       		.byte	0x30
 2342 02b5 C3000000 		.4byte	0xc3
 2343 02b9 0C       		.byte	0xc
 2344 02ba 0A       		.uleb128 0xa
 2345 02bb 62707000 		.ascii	"bpp\000"
 2346 02bf 08       		.byte	0x8
 2347 02c0 31       		.byte	0x31
 2348 02c1 B8000000 		.4byte	0xb8
 2349 02c5 01       		.byte	0x1
 2350 02c6 04       		.byte	0x4
 2351 02c7 04       		.byte	0x4
 2352 02c8 0E       		.byte	0xe
 2353 02c9 09       		.uleb128 0x9
 2354 02ca AE200000 		.4byte	.LASF55
 2355 02ce 08       		.byte	0x8
 2356 02cf 32       		.byte	0x32
 2357 02d0 B8000000 		.4byte	0xb8
 2358 02d4 01       		.byte	0x1
 2359 02d5 01       		.byte	0x1
 2360 02d6 03       		.byte	0x3
 2361 02d7 0E       		.byte	0xe
 2362 02d8 00       		.byte	0
 2363 02d9 10       		.uleb128 0x10
 2364 02da 74100000 		.4byte	.LASF223
 2365 02de 1C       		.byte	0x1c
 2366 02df 08       		.byte	0x8
 2367 02e0 40       		.byte	0x40
 2368 02e1 61030000 		.4byte	0x361
 2369 02e5 0F       		.uleb128 0xf
 2370 02e6 861F0000 		.4byte	.LASF56
 2371 02ea 08       		.byte	0x8
 2372 02eb 42       		.byte	0x42
 2373 02ec A2030000 		.4byte	0x3a2
 2374 02f0 00       		.byte	0
 2375 02f1 0F       		.uleb128 0xf
 2376 02f2 A7060000 		.4byte	.LASF57
 2377 02f6 08       		.byte	0x8
 2378 02f7 45       		.byte	0x45
 2379 02f8 C7030000 		.4byte	0x3c7
 2380 02fc 04       		.byte	0x4
 2381 02fd 0F       		.uleb128 0xf
 2382 02fe 6B010000 		.4byte	.LASF58
 2383 0302 08       		.byte	0x8
ARM GAS  C:\Users\haske\AppData\Local\Temp\ccOknJt1.s 			page 65


 2384 0303 48       		.byte	0x48
 2385 0304 EC010000 		.4byte	0x1ec
 2386 0308 08       		.byte	0x8
 2387 0309 0F       		.uleb128 0xf
 2388 030a 601B0000 		.4byte	.LASF59
 2389 030e 08       		.byte	0x8
 2390 030f 49       		.byte	0x49
 2391 0310 EC010000 		.4byte	0x1ec
 2392 0314 0A       		.byte	0xa
 2393 0315 09       		.uleb128 0x9
 2394 0316 50160000 		.4byte	.LASF60
 2395 031a 08       		.byte	0x8
 2396 031b 4A       		.byte	0x4a
 2397 031c B8000000 		.4byte	0xb8
 2398 0320 01       		.byte	0x1
 2399 0321 02       		.byte	0x2
 2400 0322 06       		.byte	0x6
 2401 0323 0C       		.byte	0xc
 2402 0324 0F       		.uleb128 0xf
 2403 0325 78090000 		.4byte	.LASF61
 2404 0329 08       		.byte	0x8
 2405 032a 4C       		.byte	0x4c
 2406 032b AD000000 		.4byte	0xad
 2407 032f 0D       		.byte	0xd
 2408 0330 0F       		.uleb128 0xf
 2409 0331 96110000 		.4byte	.LASF62
 2410 0335 08       		.byte	0x8
 2411 0336 4D       		.byte	0x4d
 2412 0337 AD000000 		.4byte	0xad
 2413 033b 0E       		.byte	0xe
 2414 033c 0E       		.uleb128 0xe
 2415 033d 64736300 		.ascii	"dsc\000"
 2416 0341 08       		.byte	0x8
 2417 0342 4F       		.byte	0x4f
 2418 0343 CD030000 		.4byte	0x3cd
 2419 0347 10       		.byte	0x10
 2420 0348 0F       		.uleb128 0xf
 2421 0349 8D0B0000 		.4byte	.LASF63
 2422 034d 08       		.byte	0x8
 2423 034e 50       		.byte	0x50
 2424 034f 61030000 		.4byte	0x361
 2425 0353 14       		.byte	0x14
 2426 0354 0F       		.uleb128 0xf
 2427 0355 291F0000 		.4byte	.LASF64
 2428 0359 08       		.byte	0x8
 2429 035a 52       		.byte	0x52
 2430 035b 13010000 		.4byte	0x113
 2431 035f 18       		.byte	0x18
 2432 0360 00       		.byte	0
 2433 0361 11       		.uleb128 0x11
 2434 0362 04       		.byte	0x4
 2435 0363 67030000 		.4byte	0x367
 2436 0367 12       		.uleb128 0x12
 2437 0368 D9020000 		.4byte	0x2d9
 2438 036c 02       		.uleb128 0x2
 2439 036d 05140000 		.4byte	.LASF65
 2440 0371 08       		.byte	0x8
ARM GAS  C:\Users\haske\AppData\Local\Temp\ccOknJt1.s 			page 66


 2441 0372 33       		.byte	0x33
 2442 0373 6A020000 		.4byte	0x26a
 2443 0377 13       		.uleb128 0x13
 2444 0378 95030000 		.4byte	0x395
 2445 037c 95030000 		.4byte	0x395
 2446 0380 14       		.uleb128 0x14
 2447 0381 61030000 		.4byte	0x361
 2448 0385 14       		.uleb128 0x14
 2449 0386 9C030000 		.4byte	0x39c
 2450 038a 14       		.uleb128 0x14
 2451 038b E4000000 		.4byte	0xe4
 2452 038f 14       		.uleb128 0x14
 2453 0390 E4000000 		.4byte	0xe4
 2454 0394 00       		.byte	0
 2455 0395 03       		.uleb128 0x3
 2456 0396 01       		.byte	0x1
 2457 0397 02       		.byte	0x2
 2458 0398 25080000 		.4byte	.LASF66
 2459 039c 11       		.uleb128 0x11
 2460 039d 04       		.byte	0x4
 2461 039e 6C030000 		.4byte	0x36c
 2462 03a2 11       		.uleb128 0x11
 2463 03a3 04       		.byte	0x4
 2464 03a4 77030000 		.4byte	0x377
 2465 03a8 13       		.uleb128 0x13
 2466 03a9 BC030000 		.4byte	0x3bc
 2467 03ad BC030000 		.4byte	0x3bc
 2468 03b1 14       		.uleb128 0x14
 2469 03b2 61030000 		.4byte	0x361
 2470 03b6 14       		.uleb128 0x14
 2471 03b7 E4000000 		.4byte	0xe4
 2472 03bb 00       		.byte	0
 2473 03bc 11       		.uleb128 0x11
 2474 03bd 04       		.byte	0x4
 2475 03be C2030000 		.4byte	0x3c2
 2476 03c2 12       		.uleb128 0x12
 2477 03c3 B8000000 		.4byte	0xb8
 2478 03c7 11       		.uleb128 0x11
 2479 03c8 04       		.byte	0x4
 2480 03c9 A8030000 		.4byte	0x3a8
 2481 03cd 11       		.uleb128 0x11
 2482 03ce 04       		.byte	0x4
 2483 03cf D3030000 		.4byte	0x3d3
 2484 03d3 15       		.uleb128 0x15
 2485 03d4 02       		.uleb128 0x2
 2486 03d5 AB1E0000 		.4byte	.LASF67
 2487 03d9 08       		.byte	0x8
 2488 03da 54       		.byte	0x54
 2489 03db D9020000 		.4byte	0x2d9
 2490 03df 02       		.uleb128 0x2
 2491 03e0 C8180000 		.4byte	.LASF68
 2492 03e4 09       		.byte	0x9
 2493 03e5 30       		.byte	0x30
 2494 03e6 B8000000 		.4byte	0xb8
 2495 03ea 02       		.uleb128 0x2
 2496 03eb 7C110000 		.4byte	.LASF69
 2497 03ef 09       		.byte	0x9
ARM GAS  C:\Users\haske\AppData\Local\Temp\ccOknJt1.s 			page 67


 2498 03f0 42       		.byte	0x42
 2499 03f1 B8000000 		.4byte	0xb8
 2500 03f5 02       		.uleb128 0x2
 2501 03f6 EA070000 		.4byte	.LASF70
 2502 03fa 0A       		.byte	0xa
 2503 03fb 2A       		.byte	0x2a
 2504 03fc B8000000 		.4byte	0xb8
 2505 0400 02       		.uleb128 0x2
 2506 0401 77010000 		.4byte	.LASF71
 2507 0405 0B       		.byte	0xb
 2508 0406 5E       		.byte	0x5e
 2509 0407 B8000000 		.4byte	0xb8
 2510 040b 02       		.uleb128 0x2
 2511 040c AB100000 		.4byte	.LASF72
 2512 0410 0B       		.byte	0xb
 2513 0411 6A       		.byte	0x6a
 2514 0412 B8000000 		.4byte	0xb8
 2515 0416 02       		.uleb128 0x2
 2516 0417 9A1A0000 		.4byte	.LASF73
 2517 041b 0B       		.byte	0xb
 2518 041c 79       		.byte	0x79
 2519 041d B8000000 		.4byte	0xb8
 2520 0421 02       		.uleb128 0x2
 2521 0422 C01F0000 		.4byte	.LASF74
 2522 0426 0B       		.byte	0xb
 2523 0427 84       		.byte	0x84
 2524 0428 B8000000 		.4byte	0xb8
 2525 042c 02       		.uleb128 0x2
 2526 042d 29160000 		.4byte	.LASF75
 2527 0431 0B       		.byte	0xb
 2528 0432 90       		.byte	0x90
 2529 0433 B8000000 		.4byte	0xb8
 2530 0437 08       		.uleb128 0x8
 2531 0438 04       		.byte	0x4
 2532 0439 0B       		.byte	0xb
 2533 043a 95       		.byte	0x95
 2534 043b 58040000 		.4byte	0x458
 2535 043f 0F       		.uleb128 0xf
 2536 0440 4B1A0000 		.4byte	.LASF76
 2537 0444 0B       		.byte	0xb
 2538 0445 96       		.byte	0x96
 2539 0446 D6010000 		.4byte	0x1d6
 2540 044a 00       		.byte	0
 2541 044b 0F       		.uleb128 0xf
 2542 044c AB1A0000 		.4byte	.LASF77
 2543 0450 0B       		.byte	0xb
 2544 0451 97       		.byte	0x97
 2545 0452 B8000000 		.4byte	0xb8
 2546 0456 02       		.byte	0x2
 2547 0457 00       		.byte	0
 2548 0458 02       		.uleb128 0x2
 2549 0459 A11D0000 		.4byte	.LASF78
 2550 045d 0B       		.byte	0xb
 2551 045e 98       		.byte	0x98
 2552 045f 37040000 		.4byte	0x437
 2553 0463 08       		.uleb128 0x8
 2554 0464 0A       		.byte	0xa
ARM GAS  C:\Users\haske\AppData\Local\Temp\ccOknJt1.s 			page 68


 2555 0465 0B       		.byte	0xb
 2556 0466 9B       		.byte	0x9b
 2557 0467 A2040000 		.4byte	0x4a2
 2558 046b 0F       		.uleb128 0xf
 2559 046c 5E1A0000 		.4byte	.LASF79
 2560 0470 0B       		.byte	0xb
 2561 0471 9C       		.byte	0x9c
 2562 0472 A2040000 		.4byte	0x4a2
 2563 0476 00       		.byte	0
 2564 0477 0F       		.uleb128 0xf
 2565 0478 FF090000 		.4byte	.LASF80
 2566 047c 0B       		.byte	0xb
 2567 047d 9D       		.byte	0x9d
 2568 047e B8000000 		.4byte	0xb8
 2569 0482 08       		.byte	0x8
 2570 0483 0A       		.uleb128 0xa
 2571 0484 64697200 		.ascii	"dir\000"
 2572 0488 0B       		.byte	0xb
 2573 0489 9E       		.byte	0x9e
 2574 048a 21040000 		.4byte	0x421
 2575 048e 01       		.byte	0x1
 2576 048f 03       		.byte	0x3
 2577 0490 05       		.byte	0x5
 2578 0491 09       		.byte	0x9
 2579 0492 09       		.uleb128 0x9
 2580 0493 CD1E0000 		.4byte	.LASF81
 2581 0497 0B       		.byte	0xb
 2582 0498 A0       		.byte	0xa0
 2583 0499 2C040000 		.4byte	0x42c
 2584 049d 01       		.byte	0x1
 2585 049e 03       		.byte	0x3
 2586 049f 02       		.byte	0x2
 2587 04a0 09       		.byte	0x9
 2588 04a1 00       		.byte	0
 2589 04a2 16       		.uleb128 0x16
 2590 04a3 58040000 		.4byte	0x458
 2591 04a7 B2040000 		.4byte	0x4b2
 2592 04ab 17       		.uleb128 0x17
 2593 04ac 0C010000 		.4byte	0x10c
 2594 04b0 01       		.byte	0x1
 2595 04b1 00       		.byte	0
 2596 04b2 02       		.uleb128 0x2
 2597 04b3 63200000 		.4byte	.LASF82
 2598 04b7 0B       		.byte	0xb
 2599 04b8 A2       		.byte	0xa2
 2600 04b9 63040000 		.4byte	0x463
 2601 04bd 0B       		.uleb128 0xb
 2602 04be 04       		.byte	0x4
 2603 04bf 0B       		.byte	0xb
 2604 04c0 A7       		.byte	0xa7
 2605 04c1 E7040000 		.4byte	0x4e7
 2606 04c5 0C       		.uleb128 0xc
 2607 04c6 6E756D00 		.ascii	"num\000"
 2608 04ca 0B       		.byte	0xb
 2609 04cb A8       		.byte	0xa8
 2610 04cc D9000000 		.4byte	0xd9
 2611 04d0 0C       		.uleb128 0xc
ARM GAS  C:\Users\haske\AppData\Local\Temp\ccOknJt1.s 			page 69


 2612 04d1 70747200 		.ascii	"ptr\000"
 2613 04d5 0B       		.byte	0xb
 2614 04d6 A9       		.byte	0xa9
 2615 04d7 CD030000 		.4byte	0x3cd
 2616 04db 0D       		.uleb128 0xd
 2617 04dc 4B1A0000 		.4byte	.LASF76
 2618 04e0 0B       		.byte	0xb
 2619 04e1 AA       		.byte	0xaa
 2620 04e2 D6010000 		.4byte	0x1d6
 2621 04e6 00       		.byte	0
 2622 04e7 02       		.uleb128 0x2
 2623 04e8 C7120000 		.4byte	.LASF83
 2624 04ec 0B       		.byte	0xb
 2625 04ed AB       		.byte	0xab
 2626 04ee BD040000 		.4byte	0x4bd
 2627 04f2 06       		.uleb128 0x6
 2628 04f3 02       		.byte	0x2
 2629 04f4 66000000 		.4byte	0x66
 2630 04f8 0B       		.byte	0xb
 2631 04f9 B2       		.byte	0xb2
 2632 04fa 17070000 		.4byte	0x717
 2633 04fe 07       		.uleb128 0x7
 2634 04ff 500C0000 		.4byte	.LASF84
 2635 0503 00       		.byte	0
 2636 0504 07       		.uleb128 0x7
 2637 0505 86180000 		.4byte	.LASF85
 2638 0509 01       		.byte	0x1
 2639 050a 07       		.uleb128 0x7
 2640 050b B5180000 		.4byte	.LASF86
 2641 050f 02       		.byte	0x2
 2642 0510 07       		.uleb128 0x7
 2643 0511 0A040000 		.4byte	.LASF87
 2644 0515 03       		.byte	0x3
 2645 0516 07       		.uleb128 0x7
 2646 0517 16020000 		.4byte	.LASF88
 2647 051b 04       		.byte	0x4
 2648 051c 07       		.uleb128 0x7
 2649 051d 371D0000 		.4byte	.LASF89
 2650 0521 05       		.byte	0x5
 2651 0522 07       		.uleb128 0x7
 2652 0523 CC1A0000 		.4byte	.LASF90
 2653 0527 06       		.byte	0x6
 2654 0528 07       		.uleb128 0x7
 2655 0529 32100000 		.4byte	.LASF91
 2656 052d 07       		.byte	0x7
 2657 052e 07       		.uleb128 0x7
 2658 052f B41D0000 		.4byte	.LASF92
 2659 0533 08       		.byte	0x8
 2660 0534 07       		.uleb128 0x7
 2661 0535 E0060000 		.4byte	.LASF93
 2662 0539 09       		.byte	0x9
 2663 053a 07       		.uleb128 0x7
 2664 053b F5130000 		.4byte	.LASF94
 2665 053f 0A       		.byte	0xa
 2666 0540 07       		.uleb128 0x7
 2667 0541 E3030000 		.4byte	.LASF95
 2668 0545 0B       		.byte	0xb
ARM GAS  C:\Users\haske\AppData\Local\Temp\ccOknJt1.s 			page 70


 2669 0546 07       		.uleb128 0x7
 2670 0547 5D1C0000 		.4byte	.LASF96
 2671 054b 10       		.byte	0x10
 2672 054c 07       		.uleb128 0x7
 2673 054d 410D0000 		.4byte	.LASF97
 2674 0551 11       		.byte	0x11
 2675 0552 07       		.uleb128 0x7
 2676 0553 950F0000 		.4byte	.LASF98
 2677 0557 12       		.byte	0x12
 2678 0558 07       		.uleb128 0x7
 2679 0559 6B040000 		.4byte	.LASF99
 2680 055d 13       		.byte	0x13
 2681 055e 07       		.uleb128 0x7
 2682 055f 350F0000 		.4byte	.LASF100
 2683 0563 14       		.byte	0x14
 2684 0564 07       		.uleb128 0x7
 2685 0565 5A030000 		.4byte	.LASF101
 2686 0569 15       		.byte	0x15
 2687 056a 07       		.uleb128 0x7
 2688 056b D8090000 		.4byte	.LASF102
 2689 056f 16       		.byte	0x16
 2690 0570 07       		.uleb128 0x7
 2691 0571 98140000 		.4byte	.LASF103
 2692 0575 17       		.byte	0x17
 2693 0576 07       		.uleb128 0x7
 2694 0577 650A0000 		.4byte	.LASF104
 2695 057b 20       		.byte	0x20
 2696 057c 07       		.uleb128 0x7
 2697 057d D00D0000 		.4byte	.LASF105
 2698 0581 21       		.byte	0x21
 2699 0582 07       		.uleb128 0x7
 2700 0583 081B0000 		.4byte	.LASF106
 2701 0587 22       		.byte	0x22
 2702 0588 07       		.uleb128 0x7
 2703 0589 92060000 		.4byte	.LASF107
 2704 058d 23       		.byte	0x23
 2705 058e 07       		.uleb128 0x7
 2706 058f 72020000 		.4byte	.LASF108
 2707 0593 24       		.byte	0x24
 2708 0594 07       		.uleb128 0x7
 2709 0595 BD170000 		.4byte	.LASF109
 2710 0599 25       		.byte	0x25
 2711 059a 07       		.uleb128 0x7
 2712 059b 8B200000 		.4byte	.LASF110
 2713 059f 26       		.byte	0x26
 2714 05a0 07       		.uleb128 0x7
 2715 05a1 8E030000 		.4byte	.LASF111
 2716 05a5 27       		.byte	0x27
 2717 05a6 07       		.uleb128 0x7
 2718 05a7 17190000 		.4byte	.LASF112
 2719 05ab 28       		.byte	0x28
 2720 05ac 07       		.uleb128 0x7
 2721 05ad 7E1C0000 		.4byte	.LASF113
 2722 05b1 29       		.byte	0x29
 2723 05b2 07       		.uleb128 0x7
 2724 05b3 25040000 		.4byte	.LASF114
 2725 05b7 2A       		.byte	0x2a
ARM GAS  C:\Users\haske\AppData\Local\Temp\ccOknJt1.s 			page 71


 2726 05b8 07       		.uleb128 0x7
 2727 05b9 06050000 		.4byte	.LASF115
 2728 05bd 2B       		.byte	0x2b
 2729 05be 07       		.uleb128 0x7
 2730 05bf 93050000 		.4byte	.LASF116
 2731 05c3 2C       		.byte	0x2c
 2732 05c4 07       		.uleb128 0x7
 2733 05c5 16170000 		.4byte	.LASF117
 2734 05c9 30       		.byte	0x30
 2735 05ca 07       		.uleb128 0x7
 2736 05cb C1050000 		.4byte	.LASF118
 2737 05cf 31       		.byte	0x31
 2738 05d0 07       		.uleb128 0x7
 2739 05d1 1B030000 		.4byte	.LASF119
 2740 05d5 32       		.byte	0x32
 2741 05d6 07       		.uleb128 0x7
 2742 05d7 D3170000 		.4byte	.LASF120
 2743 05db 33       		.byte	0x33
 2744 05dc 07       		.uleb128 0x7
 2745 05dd 7A1D0000 		.4byte	.LASF121
 2746 05e1 34       		.byte	0x34
 2747 05e2 07       		.uleb128 0x7
 2748 05e3 EC0B0000 		.4byte	.LASF122
 2749 05e7 35       		.byte	0x35
 2750 05e8 07       		.uleb128 0x7
 2751 05e9 121F0000 		.4byte	.LASF123
 2752 05ed 36       		.byte	0x36
 2753 05ee 07       		.uleb128 0x7
 2754 05ef EA090000 		.4byte	.LASF124
 2755 05f3 37       		.byte	0x37
 2756 05f4 07       		.uleb128 0x7
 2757 05f5 BD200000 		.4byte	.LASF125
 2758 05f9 38       		.byte	0x38
 2759 05fa 07       		.uleb128 0x7
 2760 05fb 50140000 		.4byte	.LASF126
 2761 05ff 40       		.byte	0x40
 2762 0600 07       		.uleb128 0x7
 2763 0601 D7180000 		.4byte	.LASF127
 2764 0605 41       		.byte	0x41
 2765 0606 07       		.uleb128 0x7
 2766 0607 ED180000 		.4byte	.LASF128
 2767 060b 42       		.byte	0x42
 2768 060c 07       		.uleb128 0x7
 2769 060d 571F0000 		.4byte	.LASF129
 2770 0611 43       		.byte	0x43
 2771 0612 07       		.uleb128 0x7
 2772 0613 1B060000 		.4byte	.LASF130
 2773 0617 44       		.byte	0x44
 2774 0618 07       		.uleb128 0x7
 2775 0619 3D040000 		.4byte	.LASF131
 2776 061d 45       		.byte	0x45
 2777 061e 07       		.uleb128 0x7
 2778 061f 0E0E0000 		.4byte	.LASF132
 2779 0623 46       		.byte	0x46
 2780 0624 07       		.uleb128 0x7
 2781 0625 A1070000 		.4byte	.LASF133
 2782 0629 47       		.byte	0x47
ARM GAS  C:\Users\haske\AppData\Local\Temp\ccOknJt1.s 			page 72


 2783 062a 07       		.uleb128 0x7
 2784 062b 770A0000 		.4byte	.LASF134
 2785 062f 48       		.byte	0x48
 2786 0630 07       		.uleb128 0x7
 2787 0631 921C0000 		.4byte	.LASF135
 2788 0635 49       		.byte	0x49
 2789 0636 07       		.uleb128 0x7
 2790 0637 110B0000 		.4byte	.LASF136
 2791 063b 4A       		.byte	0x4a
 2792 063c 07       		.uleb128 0x7
 2793 063d 9D000000 		.4byte	.LASF137
 2794 0641 4B       		.byte	0x4b
 2795 0642 07       		.uleb128 0x7
 2796 0643 BF1D0000 		.4byte	.LASF138
 2797 0647 4C       		.byte	0x4c
 2798 0648 07       		.uleb128 0x7
 2799 0649 180F0000 		.4byte	.LASF139
 2800 064d 4D       		.byte	0x4d
 2801 064e 07       		.uleb128 0x7
 2802 064f E00D0000 		.4byte	.LASF140
 2803 0653 4E       		.byte	0x4e
 2804 0654 07       		.uleb128 0x7
 2805 0655 BF070000 		.4byte	.LASF141
 2806 0659 50       		.byte	0x50
 2807 065a 07       		.uleb128 0x7
 2808 065b E8110000 		.4byte	.LASF142
 2809 065f 51       		.byte	0x51
 2810 0660 07       		.uleb128 0x7
 2811 0661 DC1B0000 		.4byte	.LASF143
 2812 0665 52       		.byte	0x52
 2813 0666 07       		.uleb128 0x7
 2814 0667 E5000000 		.4byte	.LASF144
 2815 066b 53       		.byte	0x53
 2816 066c 07       		.uleb128 0x7
 2817 066d 40190000 		.4byte	.LASF145
 2818 0671 54       		.byte	0x54
 2819 0672 07       		.uleb128 0x7
 2820 0673 49120000 		.4byte	.LASF146
 2821 0677 55       		.byte	0x55
 2822 0678 07       		.uleb128 0x7
 2823 0679 720E0000 		.4byte	.LASF147
 2824 067d 56       		.byte	0x56
 2825 067e 07       		.uleb128 0x7
 2826 067f EA190000 		.4byte	.LASF148
 2827 0683 57       		.byte	0x57
 2828 0684 07       		.uleb128 0x7
 2829 0685 E6200000 		.4byte	.LASF149
 2830 0689 58       		.byte	0x58
 2831 068a 07       		.uleb128 0x7
 2832 068b 780C0000 		.4byte	.LASF150
 2833 068f 59       		.byte	0x59
 2834 0690 07       		.uleb128 0x7
 2835 0691 AA110000 		.4byte	.LASF151
 2836 0695 5A       		.byte	0x5a
 2837 0696 07       		.uleb128 0x7
 2838 0697 4C100000 		.4byte	.LASF152
 2839 069b 5B       		.byte	0x5b
ARM GAS  C:\Users\haske\AppData\Local\Temp\ccOknJt1.s 			page 73


 2840 069c 07       		.uleb128 0x7
 2841 069d 1D000000 		.4byte	.LASF153
 2842 06a1 60       		.byte	0x60
 2843 06a2 07       		.uleb128 0x7
 2844 06a3 4E110000 		.4byte	.LASF154
 2845 06a7 61       		.byte	0x61
 2846 06a8 07       		.uleb128 0x7
 2847 06a9 F0150000 		.4byte	.LASF155
 2848 06ad 62       		.byte	0x62
 2849 06ae 07       		.uleb128 0x7
 2850 06af 24100000 		.4byte	.LASF156
 2851 06b3 63       		.byte	0x63
 2852 06b4 07       		.uleb128 0x7
 2853 06b5 2E0D0000 		.4byte	.LASF157
 2854 06b9 64       		.byte	0x64
 2855 06ba 07       		.uleb128 0x7
 2856 06bb C30B0000 		.4byte	.LASF158
 2857 06bf 65       		.byte	0x65
 2858 06c0 07       		.uleb128 0x7
 2859 06c1 C5040000 		.4byte	.LASF159
 2860 06c5 66       		.byte	0x66
 2861 06c6 07       		.uleb128 0x7
 2862 06c7 9D0A0000 		.4byte	.LASF160
 2863 06cb 67       		.byte	0x67
 2864 06cc 07       		.uleb128 0x7
 2865 06cd 3E0B0000 		.4byte	.LASF161
 2866 06d1 68       		.byte	0x68
 2867 06d2 07       		.uleb128 0x7
 2868 06d3 51040000 		.4byte	.LASF162
 2869 06d7 69       		.byte	0x69
 2870 06d8 07       		.uleb128 0x7
 2871 06d9 54080000 		.4byte	.LASF163
 2872 06dd 6A       		.byte	0x6a
 2873 06de 07       		.uleb128 0x7
 2874 06df 69080000 		.4byte	.LASF164
 2875 06e3 6B       		.byte	0x6b
 2876 06e4 07       		.uleb128 0x7
 2877 06e5 1F0E0000 		.4byte	.LASF165
 2878 06e9 6C       		.byte	0x6c
 2879 06ea 07       		.uleb128 0x7
 2880 06eb 0A110000 		.4byte	.LASF166
 2881 06ef 6D       		.byte	0x6d
 2882 06f0 07       		.uleb128 0x7
 2883 06f1 4C070000 		.4byte	.LASF167
 2884 06f5 6E       		.byte	0x6e
 2885 06f6 07       		.uleb128 0x7
 2886 06f7 67070000 		.4byte	.LASF168
 2887 06fb 6F       		.byte	0x6f
 2888 06fc 07       		.uleb128 0x7
 2889 06fd B5020000 		.4byte	.LASF169
 2890 0701 6F       		.byte	0x6f
 2891 0702 07       		.uleb128 0x7
 2892 0703 391C0000 		.4byte	.LASF170
 2893 0707 70       		.byte	0x70
 2894 0708 18       		.uleb128 0x18
 2895 0709 161A0000 		.4byte	.LASF171
 2896 070d FFFF     		.2byte	0xffff
ARM GAS  C:\Users\haske\AppData\Local\Temp\ccOknJt1.s 			page 74


 2897 070f 18       		.uleb128 0x18
 2898 0710 FF120000 		.4byte	.LASF172
 2899 0714 FFFF     		.2byte	0xffff
 2900 0716 00       		.byte	0
 2901 0717 19       		.uleb128 0x19
 2902 0718 6A0B0000 		.4byte	.LASF173
 2903 071c 0B       		.byte	0xb
 2904 071d 1C01     		.2byte	0x11c
 2905 071f F2040000 		.4byte	0x4f2
 2906 0723 1A       		.uleb128 0x1a
 2907 0724 08       		.byte	0x8
 2908 0725 0B       		.byte	0xb
 2909 0726 3601     		.2byte	0x136
 2910 0728 47070000 		.4byte	0x747
 2911 072c 1B       		.uleb128 0x1b
 2912 072d D10A0000 		.4byte	.LASF174
 2913 0731 0B       		.byte	0xb
 2914 0732 3701     		.2byte	0x137
 2915 0734 17070000 		.4byte	0x717
 2916 0738 00       		.byte	0
 2917 0739 1B       		.uleb128 0x1b
 2918 073a 27090000 		.4byte	.LASF175
 2919 073e 0B       		.byte	0xb
 2920 073f 3801     		.2byte	0x138
 2921 0741 E7040000 		.4byte	0x4e7
 2922 0745 04       		.byte	0x4
 2923 0746 00       		.byte	0
 2924 0747 19       		.uleb128 0x19
 2925 0748 A60C0000 		.4byte	.LASF176
 2926 074c 0B       		.byte	0xb
 2927 074d 3901     		.2byte	0x139
 2928 074f 23070000 		.4byte	0x723
 2929 0753 1C       		.uleb128 0x1c
 2930 0754 04       		.byte	0x4
 2931 0755 0B       		.byte	0xb
 2932 0756 4601     		.2byte	0x146
 2933 0758 81070000 		.4byte	0x781
 2934 075c 1D       		.uleb128 0x1d
 2935 075d 55190000 		.4byte	.LASF177
 2936 0761 0B       		.byte	0xb
 2937 0762 4701     		.2byte	0x147
 2938 0764 E7040000 		.4byte	0x4e7
 2939 0768 1D       		.uleb128 0x1d
 2940 0769 960B0000 		.4byte	.LASF178
 2941 076d 0B       		.byte	0xb
 2942 076e 4801     		.2byte	0x148
 2943 0770 81070000 		.4byte	0x781
 2944 0774 1D       		.uleb128 0x1d
 2945 0775 D60A0000 		.4byte	.LASF179
 2946 0779 0B       		.byte	0xb
 2947 077a 4901     		.2byte	0x149
 2948 077c 87070000 		.4byte	0x787
 2949 0780 00       		.byte	0
 2950 0781 11       		.uleb128 0x11
 2951 0782 04       		.byte	0x4
 2952 0783 B8000000 		.4byte	0xb8
 2953 0787 11       		.uleb128 0x11
ARM GAS  C:\Users\haske\AppData\Local\Temp\ccOknJt1.s 			page 75


 2954 0788 04       		.byte	0x4
 2955 0789 8D070000 		.4byte	0x78d
 2956 078d 12       		.uleb128 0x12
 2957 078e 47070000 		.4byte	0x747
 2958 0792 1A       		.uleb128 0x1a
 2959 0793 08       		.byte	0x8
 2960 0794 0B       		.byte	0xb
 2961 0795 3E01     		.2byte	0x13e
 2962 0797 D0070000 		.4byte	0x7d0
 2963 079b 1E       		.uleb128 0x1e
 2964 079c 765F7000 		.ascii	"v_p\000"
 2965 07a0 0B       		.byte	0xb
 2966 07a1 4A01     		.2byte	0x14a
 2967 07a3 53070000 		.4byte	0x753
 2968 07a7 00       		.byte	0
 2969 07a8 1B       		.uleb128 0x1b
 2970 07a9 FB1C0000 		.4byte	.LASF180
 2971 07ad 0B       		.byte	0xb
 2972 07ae 4C01     		.2byte	0x14c
 2973 07b0 CE000000 		.4byte	0xce
 2974 07b4 04       		.byte	0x4
 2975 07b5 1B       		.uleb128 0x1b
 2976 07b6 2F010000 		.4byte	.LASF181
 2977 07ba 0B       		.byte	0xb
 2978 07bb 4D01     		.2byte	0x14d
 2979 07bd B8000000 		.4byte	0xb8
 2980 07c1 06       		.byte	0x6
 2981 07c2 1B       		.uleb128 0x1b
 2982 07c3 0D000000 		.4byte	.LASF182
 2983 07c7 0B       		.byte	0xb
 2984 07c8 4E01     		.2byte	0x14e
 2985 07ca B8000000 		.4byte	0xb8
 2986 07ce 07       		.byte	0x7
 2987 07cf 00       		.byte	0
 2988 07d0 19       		.uleb128 0x19
 2989 07d1 F20D0000 		.4byte	.LASF183
 2990 07d5 0B       		.byte	0xb
 2991 07d6 4F01     		.2byte	0x14f
 2992 07d8 92070000 		.4byte	0x792
 2993 07dc 11       		.uleb128 0x11
 2994 07dd 04       		.byte	0x4
 2995 07de E1010000 		.4byte	0x1e1
 2996 07e2 11       		.uleb128 0x11
 2997 07e3 04       		.byte	0x4
 2998 07e4 E8070000 		.4byte	0x7e8
 2999 07e8 12       		.uleb128 0x12
 3000 07e9 E1010000 		.4byte	0x1e1
 3001 07ed 11       		.uleb128 0x11
 3002 07ee 04       		.byte	0x4
 3003 07ef F3070000 		.4byte	0x7f3
 3004 07f3 12       		.uleb128 0x12
 3005 07f4 54020000 		.4byte	0x254
 3006 07f8 11       		.uleb128 0x11
 3007 07f9 04       		.byte	0x4
 3008 07fa FE070000 		.4byte	0x7fe
 3009 07fe 12       		.uleb128 0x12
 3010 07ff D6010000 		.4byte	0x1d6
ARM GAS  C:\Users\haske\AppData\Local\Temp\ccOknJt1.s 			page 76


 3011 0803 06       		.uleb128 0x6
 3012 0804 01       		.byte	0x1
 3013 0805 42000000 		.4byte	0x42
 3014 0809 0C       		.byte	0xc
 3015 080a 37       		.byte	0x37
 3016 080b F4080000 		.4byte	0x8f4
 3017 080f 07       		.uleb128 0x7
 3018 0810 74180000 		.4byte	.LASF184
 3019 0814 00       		.byte	0
 3020 0815 07       		.uleb128 0x7
 3021 0816 C7060000 		.4byte	.LASF185
 3022 081a 01       		.byte	0x1
 3023 081b 07       		.uleb128 0x7
 3024 081c 5E1D0000 		.4byte	.LASF186
 3025 0820 02       		.byte	0x2
 3026 0821 07       		.uleb128 0x7
 3027 0822 7D140000 		.4byte	.LASF187
 3028 0826 03       		.byte	0x3
 3029 0827 07       		.uleb128 0x7
 3030 0828 2B190000 		.4byte	.LASF188
 3031 082c 04       		.byte	0x4
 3032 082d 07       		.uleb128 0x7
 3033 082e A2120000 		.4byte	.LASF189
 3034 0832 05       		.byte	0x5
 3035 0833 07       		.uleb128 0x7
 3036 0834 AD140000 		.4byte	.LASF190
 3037 0838 06       		.byte	0x6
 3038 0839 07       		.uleb128 0x7
 3039 083a 33020000 		.4byte	.LASF191
 3040 083e 07       		.byte	0x7
 3041 083f 07       		.uleb128 0x7
 3042 0840 1E130000 		.4byte	.LASF192
 3043 0844 08       		.byte	0x8
 3044 0845 07       		.uleb128 0x7
 3045 0846 8F130000 		.4byte	.LASF193
 3046 084a 09       		.byte	0x9
 3047 084b 07       		.uleb128 0x7
 3048 084c 66140000 		.4byte	.LASF194
 3049 0850 0A       		.byte	0xa
 3050 0851 07       		.uleb128 0x7
 3051 0852 06010000 		.4byte	.LASF195
 3052 0856 0B       		.byte	0xb
 3053 0857 07       		.uleb128 0x7
 3054 0858 08120000 		.4byte	.LASF196
 3055 085c 0C       		.byte	0xc
 3056 085d 07       		.uleb128 0x7
 3057 085e 34120000 		.4byte	.LASF197
 3058 0862 0D       		.byte	0xd
 3059 0863 07       		.uleb128 0x7
 3060 0864 D8120000 		.4byte	.LASF198
 3061 0868 0E       		.byte	0xe
 3062 0869 07       		.uleb128 0x7
 3063 086a 40200000 		.4byte	.LASF199
 3064 086e 0F       		.byte	0xf
 3065 086f 07       		.uleb128 0x7
 3066 0870 48050000 		.4byte	.LASF200
 3067 0874 10       		.byte	0x10
ARM GAS  C:\Users\haske\AppData\Local\Temp\ccOknJt1.s 			page 77


 3068 0875 07       		.uleb128 0x7
 3069 0876 D6130000 		.4byte	.LASF201
 3070 087a 11       		.byte	0x11
 3071 087b 07       		.uleb128 0x7
 3072 087c B6010000 		.4byte	.LASF202
 3073 0880 12       		.byte	0x12
 3074 0881 07       		.uleb128 0x7
 3075 0882 91040000 		.4byte	.LASF203
 3076 0886 13       		.byte	0x13
 3077 0887 07       		.uleb128 0x7
 3078 0888 40180000 		.4byte	.LASF204
 3079 088c 14       		.byte	0x14
 3080 088d 07       		.uleb128 0x7
 3081 088e 240C0000 		.4byte	.LASF205
 3082 0892 15       		.byte	0x15
 3083 0893 07       		.uleb128 0x7
 3084 0894 3A0C0000 		.4byte	.LASF206
 3085 0898 16       		.byte	0x16
 3086 0899 07       		.uleb128 0x7
 3087 089a DA160000 		.4byte	.LASF207
 3088 089e 17       		.byte	0x17
 3089 089f 07       		.uleb128 0x7
 3090 08a0 620C0000 		.4byte	.LASF208
 3091 08a4 18       		.byte	0x18
 3092 08a5 07       		.uleb128 0x7
 3093 08a6 00170000 		.4byte	.LASF209
 3094 08aa 19       		.byte	0x19
 3095 08ab 07       		.uleb128 0x7
 3096 08ac 6F0D0000 		.4byte	.LASF210
 3097 08b0 1A       		.byte	0x1a
 3098 08b1 07       		.uleb128 0x7
 3099 08b2 850D0000 		.4byte	.LASF211
 3100 08b6 1B       		.byte	0x1b
 3101 08b7 07       		.uleb128 0x7
 3102 08b8 9B0D0000 		.4byte	.LASF212
 3103 08bc 1C       		.byte	0x1c
 3104 08bd 07       		.uleb128 0x7
 3105 08be B10D0000 		.4byte	.LASF213
 3106 08c2 1D       		.byte	0x1d
 3107 08c3 07       		.uleb128 0x7
 3108 08c4 1F150000 		.4byte	.LASF214
 3109 08c8 1E       		.byte	0x1e
 3110 08c9 07       		.uleb128 0x7
 3111 08ca 38150000 		.4byte	.LASF215
 3112 08ce 1F       		.byte	0x1f
 3113 08cf 07       		.uleb128 0x7
 3114 08d0 51150000 		.4byte	.LASF216
 3115 08d4 20       		.byte	0x20
 3116 08d5 07       		.uleb128 0x7
 3117 08d6 6A150000 		.4byte	.LASF217
 3118 08da 21       		.byte	0x21
 3119 08db 07       		.uleb128 0x7
 3120 08dc 83150000 		.4byte	.LASF218
 3121 08e0 22       		.byte	0x22
 3122 08e1 07       		.uleb128 0x7
 3123 08e2 9C150000 		.4byte	.LASF219
 3124 08e6 23       		.byte	0x23
ARM GAS  C:\Users\haske\AppData\Local\Temp\ccOknJt1.s 			page 78


 3125 08e7 07       		.uleb128 0x7
 3126 08e8 B5150000 		.4byte	.LASF220
 3127 08ec 24       		.byte	0x24
 3128 08ed 07       		.uleb128 0x7
 3129 08ee CE150000 		.4byte	.LASF221
 3130 08f2 25       		.byte	0x25
 3131 08f3 00       		.byte	0
 3132 08f4 02       		.uleb128 0x2
 3133 08f5 660E0000 		.4byte	.LASF222
 3134 08f9 0C       		.byte	0xc
 3135 08fa 69       		.byte	0x69
 3136 08fb B8000000 		.4byte	0xb8
 3137 08ff 11       		.uleb128 0x11
 3138 0900 04       		.byte	0x4
 3139 0901 05090000 		.4byte	0x905
 3140 0905 10       		.uleb128 0x10
 3141 0906 B01A0000 		.4byte	.LASF224
 3142 090a 24       		.byte	0x24
 3143 090b 0D       		.byte	0xd
 3144 090c AE       		.byte	0xae
 3145 090d CC090000 		.4byte	0x9cc
 3146 0911 0F       		.uleb128 0xf
 3147 0912 6D120000 		.4byte	.LASF225
 3148 0916 0D       		.byte	0xd
 3149 0917 AF       		.byte	0xaf
 3150 0918 481B0000 		.4byte	0x1b48
 3151 091c 00       		.byte	0
 3152 091d 0F       		.uleb128 0xf
 3153 091e D30C0000 		.4byte	.LASF226
 3154 0922 0D       		.byte	0xd
 3155 0923 B0       		.byte	0xb0
 3156 0924 FF080000 		.4byte	0x8ff
 3157 0928 04       		.byte	0x4
 3158 0929 0F       		.uleb128 0xf
 3159 092a 9E010000 		.4byte	.LASF227
 3160 092e 0D       		.byte	0xd
 3161 092f B1       		.byte	0xb1
 3162 0930 531B0000 		.4byte	0x1b53
 3163 0934 08       		.byte	0x8
 3164 0935 0F       		.uleb128 0xf
 3165 0936 FD0D0000 		.4byte	.LASF228
 3166 093a 0D       		.byte	0xd
 3167 093b B2       		.byte	0xb2
 3168 093c 591B0000 		.4byte	0x1b59
 3169 0940 0C       		.byte	0xc
 3170 0941 0F       		.uleb128 0xf
 3171 0942 291F0000 		.4byte	.LASF64
 3172 0946 0D       		.byte	0xd
 3173 0947 B4       		.byte	0xb4
 3174 0948 13010000 		.4byte	0x113
 3175 094c 10       		.byte	0x10
 3176 094d 0F       		.uleb128 0xf
 3177 094e 1A1C0000 		.4byte	.LASF229
 3178 0952 0D       		.byte	0xd
 3179 0953 B6       		.byte	0xb6
 3180 0954 54020000 		.4byte	0x254
 3181 0958 14       		.byte	0x14
ARM GAS  C:\Users\haske\AppData\Local\Temp\ccOknJt1.s 			page 79


 3182 0959 0F       		.uleb128 0xf
 3183 095a 2D090000 		.4byte	.LASF230
 3184 095e 0D       		.byte	0xd
 3185 095f B7       		.byte	0xb7
 3186 0960 2F170000 		.4byte	0x172f
 3187 0964 1C       		.byte	0x1c
 3188 0965 0F       		.uleb128 0xf
 3189 0966 10020000 		.4byte	.LASF231
 3190 096a 0D       		.byte	0xd
 3191 096b B8       		.byte	0xb8
 3192 096c 24170000 		.4byte	0x1724
 3193 0970 20       		.byte	0x20
 3194 0971 09       		.uleb128 0x9
 3195 0972 43060000 		.4byte	.LASF232
 3196 0976 0D       		.byte	0xd
 3197 0977 B9       		.byte	0xb9
 3198 0978 CE000000 		.4byte	0xce
 3199 097c 02       		.byte	0x2
 3200 097d 01       		.byte	0x1
 3201 097e 0F       		.byte	0xf
 3202 097f 22       		.byte	0x22
 3203 0980 09       		.uleb128 0x9
 3204 0981 FB030000 		.4byte	.LASF233
 3205 0985 0D       		.byte	0xd
 3206 0986 BA       		.byte	0xba
 3207 0987 CE000000 		.4byte	0xce
 3208 098b 02       		.byte	0x2
 3209 098c 01       		.byte	0x1
 3210 098d 0E       		.byte	0xe
 3211 098e 22       		.byte	0x22
 3212 098f 09       		.uleb128 0x9
 3213 0990 1D120000 		.4byte	.LASF234
 3214 0994 0D       		.byte	0xd
 3215 0995 BB       		.byte	0xbb
 3216 0996 CE000000 		.4byte	0xce
 3217 099a 02       		.byte	0x2
 3218 099b 01       		.byte	0x1
 3219 099c 0D       		.byte	0xd
 3220 099d 22       		.byte	0x22
 3221 099e 09       		.uleb128 0x9
 3222 099f 31060000 		.4byte	.LASF235
 3223 09a3 0D       		.byte	0xd
 3224 09a4 BC       		.byte	0xbc
 3225 09a5 CE000000 		.4byte	0xce
 3226 09a9 02       		.byte	0x2
 3227 09aa 06       		.byte	0x6
 3228 09ab 07       		.byte	0x7
 3229 09ac 22       		.byte	0x22
 3230 09ad 09       		.uleb128 0x9
 3231 09ae 0E080000 		.4byte	.LASF236
 3232 09b2 0D       		.byte	0xd
 3233 09b3 BD       		.byte	0xbd
 3234 09b4 CE000000 		.4byte	0xce
 3235 09b8 02       		.byte	0x2
 3236 09b9 01       		.byte	0x1
 3237 09ba 06       		.byte	0x6
 3238 09bb 22       		.byte	0x22
ARM GAS  C:\Users\haske\AppData\Local\Temp\ccOknJt1.s 			page 80


 3239 09bc 09       		.uleb128 0x9
 3240 09bd CF030000 		.4byte	.LASF237
 3241 09c1 0D       		.byte	0xd
 3242 09c2 BE       		.byte	0xbe
 3243 09c3 CE000000 		.4byte	0xce
 3244 09c7 02       		.byte	0x2
 3245 09c8 01       		.byte	0x1
 3246 09c9 05       		.byte	0x5
 3247 09ca 22       		.byte	0x22
 3248 09cb 00       		.byte	0
 3249 09cc 11       		.uleb128 0x11
 3250 09cd 04       		.byte	0x4
 3251 09ce D6010000 		.4byte	0x1d6
 3252 09d2 08       		.uleb128 0x8
 3253 09d3 38       		.byte	0x38
 3254 09d4 0E       		.byte	0xe
 3255 09d5 20       		.byte	0x20
 3256 09d6 190B0000 		.4byte	0xb19
 3257 09da 0F       		.uleb128 0xf
 3258 09db 5B010000 		.4byte	.LASF238
 3259 09df 0E       		.byte	0xe
 3260 09e0 21       		.byte	0x21
 3261 09e1 EC010000 		.4byte	0x1ec
 3262 09e5 00       		.byte	0
 3263 09e6 0F       		.uleb128 0xf
 3264 09e7 D8030000 		.4byte	.LASF239
 3265 09eb 0E       		.byte	0xe
 3266 09ec 22       		.byte	0x22
 3267 09ed 00040000 		.4byte	0x400
 3268 09f1 02       		.byte	0x2
 3269 09f2 0F       		.uleb128 0xf
 3270 09f3 22050000 		.4byte	.LASF240
 3271 09f7 0E       		.byte	0xe
 3272 09f8 25       		.byte	0x25
 3273 09f9 E1010000 		.4byte	0x1e1
 3274 09fd 03       		.byte	0x3
 3275 09fe 0F       		.uleb128 0xf
 3276 09ff 62010000 		.4byte	.LASF241
 3277 0a03 0E       		.byte	0xe
 3278 0a04 26       		.byte	0x26
 3279 0a05 D6010000 		.4byte	0x1d6
 3280 0a09 04       		.byte	0x4
 3281 0a0a 0F       		.uleb128 0xf
 3282 0a0b 721D0000 		.4byte	.LASF242
 3283 0a0f 0E       		.byte	0xe
 3284 0a10 27       		.byte	0x27
 3285 0a11 B2040000 		.4byte	0x4b2
 3286 0a15 06       		.byte	0x6
 3287 0a16 0F       		.uleb128 0xf
 3288 0a17 10030000 		.4byte	.LASF243
 3289 0a1b 0E       		.byte	0xe
 3290 0a1c 2A       		.byte	0x2a
 3291 0a1d CD030000 		.4byte	0x3cd
 3292 0a21 10       		.byte	0x10
 3293 0a22 0F       		.uleb128 0xf
 3294 0a23 A6030000 		.4byte	.LASF244
 3295 0a27 0E       		.byte	0xe
ARM GAS  C:\Users\haske\AppData\Local\Temp\ccOknJt1.s 			page 81


 3296 0a28 2B       		.byte	0x2b
 3297 0a29 CD030000 		.4byte	0x3cd
 3298 0a2d 14       		.byte	0x14
 3299 0a2e 0F       		.uleb128 0xf
 3300 0a2f 341B0000 		.4byte	.LASF245
 3301 0a33 0E       		.byte	0xe
 3302 0a34 2C       		.byte	0x2c
 3303 0a35 D6010000 		.4byte	0x1d6
 3304 0a39 18       		.byte	0x18
 3305 0a3a 0F       		.uleb128 0xf
 3306 0a3b C61B0000 		.4byte	.LASF246
 3307 0a3f 0E       		.byte	0xe
 3308 0a40 2D       		.byte	0x2d
 3309 0a41 E1010000 		.4byte	0x1e1
 3310 0a45 1A       		.byte	0x1a
 3311 0a46 0F       		.uleb128 0xf
 3312 0a47 7A160000 		.4byte	.LASF247
 3313 0a4b 0E       		.byte	0xe
 3314 0a4c 2E       		.byte	0x2e
 3315 0a4d E1010000 		.4byte	0x1e1
 3316 0a51 1B       		.byte	0x1b
 3317 0a52 0F       		.uleb128 0xf
 3318 0a53 85060000 		.4byte	.LASF248
 3319 0a57 0E       		.byte	0xe
 3320 0a58 2F       		.byte	0x2f
 3321 0a59 B8000000 		.4byte	0xb8
 3322 0a5d 1C       		.byte	0x1c
 3323 0a5e 0F       		.uleb128 0xf
 3324 0a5f 900A0000 		.4byte	.LASF249
 3325 0a63 0E       		.byte	0xe
 3326 0a64 32       		.byte	0x32
 3327 0a65 D6010000 		.4byte	0x1d6
 3328 0a69 1E       		.byte	0x1e
 3329 0a6a 0F       		.uleb128 0xf
 3330 0a6b A8180000 		.4byte	.LASF250
 3331 0a6f 0E       		.byte	0xe
 3332 0a70 33       		.byte	0x33
 3333 0a71 EC010000 		.4byte	0x1ec
 3334 0a75 20       		.byte	0x20
 3335 0a76 0F       		.uleb128 0xf
 3336 0a77 2C1D0000 		.4byte	.LASF251
 3337 0a7b 0E       		.byte	0xe
 3338 0a7c 34       		.byte	0x34
 3339 0a7d E1010000 		.4byte	0x1e1
 3340 0a81 22       		.byte	0x22
 3341 0a82 09       		.uleb128 0x9
 3342 0a83 F20A0000 		.4byte	.LASF252
 3343 0a87 0E       		.byte	0xe
 3344 0a88 35       		.byte	0x35
 3345 0a89 B8000000 		.4byte	0xb8
 3346 0a8d 01       		.byte	0x1
 3347 0a8e 01       		.byte	0x1
 3348 0a8f 07       		.byte	0x7
 3349 0a90 23       		.byte	0x23
 3350 0a91 09       		.uleb128 0x9
 3351 0a92 B9030000 		.4byte	.LASF253
 3352 0a96 0E       		.byte	0xe
ARM GAS  C:\Users\haske\AppData\Local\Temp\ccOknJt1.s 			page 82


 3353 0a97 36       		.byte	0x36
 3354 0a98 16040000 		.4byte	0x416
 3355 0a9c 01       		.byte	0x1
 3356 0a9d 05       		.byte	0x5
 3357 0a9e 02       		.byte	0x2
 3358 0a9f 23       		.byte	0x23
 3359 0aa0 0F       		.uleb128 0xf
 3360 0aa1 0D060000 		.4byte	.LASF254
 3361 0aa5 0E       		.byte	0xe
 3362 0aa6 39       		.byte	0x39
 3363 0aa7 D6010000 		.4byte	0x1d6
 3364 0aab 24       		.byte	0x24
 3365 0aac 0F       		.uleb128 0xf
 3366 0aad 42140000 		.4byte	.LASF255
 3367 0ab1 0E       		.byte	0xe
 3368 0ab2 3A       		.byte	0x3a
 3369 0ab3 EC010000 		.4byte	0x1ec
 3370 0ab7 26       		.byte	0x26
 3371 0ab8 0F       		.uleb128 0xf
 3372 0ab9 450A0000 		.4byte	.LASF256
 3373 0abd 0E       		.byte	0xe
 3374 0abe 3B       		.byte	0x3b
 3375 0abf EC010000 		.4byte	0x1ec
 3376 0ac3 28       		.byte	0x28
 3377 0ac4 0F       		.uleb128 0xf
 3378 0ac5 71130000 		.4byte	.LASF257
 3379 0ac9 0E       		.byte	0xe
 3380 0aca 3C       		.byte	0x3c
 3381 0acb E1010000 		.4byte	0x1e1
 3382 0acf 2A       		.byte	0x2a
 3383 0ad0 0F       		.uleb128 0xf
 3384 0ad1 D5100000 		.4byte	.LASF258
 3385 0ad5 0E       		.byte	0xe
 3386 0ad6 3F       		.byte	0x3f
 3387 0ad7 D6010000 		.4byte	0x1d6
 3388 0adb 2C       		.byte	0x2c
 3389 0adc 0F       		.uleb128 0xf
 3390 0add 981E0000 		.4byte	.LASF259
 3391 0ae1 0E       		.byte	0xe
 3392 0ae2 40       		.byte	0x40
 3393 0ae3 EC010000 		.4byte	0x1ec
 3394 0ae7 2E       		.byte	0x2e
 3395 0ae8 0F       		.uleb128 0xf
 3396 0ae9 310B0000 		.4byte	.LASF260
 3397 0aed 0E       		.byte	0xe
 3398 0aee 41       		.byte	0x41
 3399 0aef EC010000 		.4byte	0x1ec
 3400 0af3 30       		.byte	0x30
 3401 0af4 0F       		.uleb128 0xf
 3402 0af5 51200000 		.4byte	.LASF261
 3403 0af9 0E       		.byte	0xe
 3404 0afa 42       		.byte	0x42
 3405 0afb EC010000 		.4byte	0x1ec
 3406 0aff 32       		.byte	0x32
 3407 0b00 0F       		.uleb128 0xf
 3408 0b01 200D0000 		.4byte	.LASF262
 3409 0b05 0E       		.byte	0xe
ARM GAS  C:\Users\haske\AppData\Local\Temp\ccOknJt1.s 			page 83


 3410 0b06 43       		.byte	0x43
 3411 0b07 EC010000 		.4byte	0x1ec
 3412 0b0b 34       		.byte	0x34
 3413 0b0c 0F       		.uleb128 0xf
 3414 0b0d D11B0000 		.4byte	.LASF263
 3415 0b11 0E       		.byte	0xe
 3416 0b12 44       		.byte	0x44
 3417 0b13 E1010000 		.4byte	0x1e1
 3418 0b17 36       		.byte	0x36
 3419 0b18 00       		.byte	0
 3420 0b19 02       		.uleb128 0x2
 3421 0b1a 0C180000 		.4byte	.LASF264
 3422 0b1e 0E       		.byte	0xe
 3423 0b1f 45       		.byte	0x45
 3424 0b20 D2090000 		.4byte	0x9d2
 3425 0b24 08       		.uleb128 0x8
 3426 0b25 20       		.byte	0x20
 3427 0b26 0F       		.byte	0xf
 3428 0b27 1E       		.byte	0x1e
 3429 0b28 F30B0000 		.4byte	0xbf3
 3430 0b2c 0F       		.uleb128 0xf
 3431 0b2d BA1A0000 		.4byte	.LASF265
 3432 0b31 0F       		.byte	0xf
 3433 0b32 1F       		.byte	0x1f
 3434 0b33 F30B0000 		.4byte	0xbf3
 3435 0b37 00       		.byte	0
 3436 0b38 0F       		.uleb128 0xf
 3437 0b39 2F1E0000 		.4byte	.LASF266
 3438 0b3d 0F       		.byte	0xf
 3439 0b3e 20       		.byte	0x20
 3440 0b3f E4000000 		.4byte	0xe4
 3441 0b43 04       		.byte	0x4
 3442 0b44 0F       		.uleb128 0xf
 3443 0b45 ED120000 		.4byte	.LASF267
 3444 0b49 0F       		.byte	0xf
 3445 0b4a 21       		.byte	0x21
 3446 0b4b E4000000 		.4byte	0xe4
 3447 0b4f 08       		.byte	0x8
 3448 0b50 0F       		.uleb128 0xf
 3449 0b51 4B1A0000 		.4byte	.LASF76
 3450 0b55 0F       		.byte	0xf
 3451 0b56 22       		.byte	0x22
 3452 0b57 D6010000 		.4byte	0x1d6
 3453 0b5b 0C       		.byte	0xc
 3454 0b5c 0F       		.uleb128 0xf
 3455 0b5d 36200000 		.4byte	.LASF268
 3456 0b61 0F       		.byte	0xf
 3457 0b62 23       		.byte	0x23
 3458 0b63 D6010000 		.4byte	0x1d6
 3459 0b67 0E       		.byte	0xe
 3460 0b68 0F       		.uleb128 0xf
 3461 0b69 6E050000 		.4byte	.LASF269
 3462 0b6d 0F       		.byte	0xf
 3463 0b6e 24       		.byte	0x24
 3464 0b6f D6010000 		.4byte	0x1d6
 3465 0b73 10       		.byte	0x10
 3466 0b74 0F       		.uleb128 0xf
ARM GAS  C:\Users\haske\AppData\Local\Temp\ccOknJt1.s 			page 84


 3467 0b75 691A0000 		.4byte	.LASF270
 3468 0b79 0F       		.byte	0xf
 3469 0b7a 25       		.byte	0x25
 3470 0b7b EC010000 		.4byte	0x1ec
 3471 0b7f 12       		.byte	0x12
 3472 0b80 0F       		.uleb128 0xf
 3473 0b81 BF1A0000 		.4byte	.LASF271
 3474 0b85 0F       		.byte	0xf
 3475 0b86 26       		.byte	0x26
 3476 0b87 EC010000 		.4byte	0x1ec
 3477 0b8b 14       		.byte	0x14
 3478 0b8c 0F       		.uleb128 0xf
 3479 0b8d DE070000 		.4byte	.LASF53
 3480 0b91 0F       		.byte	0xf
 3481 0b92 27       		.byte	0x27
 3482 0b93 EC010000 		.4byte	0x1ec
 3483 0b97 16       		.byte	0x16
 3484 0b98 0F       		.uleb128 0xf
 3485 0b99 E4070000 		.4byte	.LASF54
 3486 0b9d 0F       		.byte	0xf
 3487 0b9e 28       		.byte	0x28
 3488 0b9f EC010000 		.4byte	0x1ec
 3489 0ba3 18       		.byte	0x18
 3490 0ba4 0E       		.uleb128 0xe
 3491 0ba5 6F706100 		.ascii	"opa\000"
 3492 0ba9 0F       		.byte	0xf
 3493 0baa 29       		.byte	0x29
 3494 0bab E1010000 		.4byte	0x1e1
 3495 0baf 1A       		.byte	0x1a
 3496 0bb0 0F       		.uleb128 0xf
 3497 0bb1 87010000 		.4byte	.LASF272
 3498 0bb5 0F       		.byte	0xf
 3499 0bb6 2A       		.byte	0x2a
 3500 0bb7 F5030000 		.4byte	0x3f5
 3501 0bbb 1B       		.byte	0x1b
 3502 0bbc 0F       		.uleb128 0xf
 3503 0bbd D4110000 		.4byte	.LASF273
 3504 0bc1 0F       		.byte	0xf
 3505 0bc2 2B       		.byte	0x2b
 3506 0bc3 EA030000 		.4byte	0x3ea
 3507 0bc7 1C       		.byte	0x1c
 3508 0bc8 0F       		.uleb128 0xf
 3509 0bc9 35130000 		.4byte	.LASF274
 3510 0bcd 0F       		.byte	0xf
 3511 0bce 2C       		.byte	0x2c
 3512 0bcf DF030000 		.4byte	0x3df
 3513 0bd3 1D       		.byte	0x1d
 3514 0bd4 09       		.uleb128 0x9
 3515 0bd5 77190000 		.4byte	.LASF275
 3516 0bd9 0F       		.byte	0xf
 3517 0bda 2D       		.byte	0x2d
 3518 0bdb 0B040000 		.4byte	0x40b
 3519 0bdf 01       		.byte	0x1
 3520 0be0 03       		.byte	0x3
 3521 0be1 05       		.byte	0x5
 3522 0be2 1E       		.byte	0x1e
 3523 0be3 09       		.uleb128 0x9
ARM GAS  C:\Users\haske\AppData\Local\Temp\ccOknJt1.s 			page 85


 3524 0be4 D8030000 		.4byte	.LASF239
 3525 0be8 0F       		.byte	0xf
 3526 0be9 2E       		.byte	0x2e
 3527 0bea 00040000 		.4byte	0x400
 3528 0bee 01       		.byte	0x1
 3529 0bef 03       		.byte	0x3
 3530 0bf0 02       		.byte	0x2
 3531 0bf1 1E       		.byte	0x1e
 3532 0bf2 00       		.byte	0
 3533 0bf3 11       		.uleb128 0x11
 3534 0bf4 04       		.byte	0x4
 3535 0bf5 F90B0000 		.4byte	0xbf9
 3536 0bf9 12       		.uleb128 0x12
 3537 0bfa D4030000 		.4byte	0x3d4
 3538 0bfe 02       		.uleb128 0x2
 3539 0bff 34050000 		.4byte	.LASF276
 3540 0c03 0F       		.byte	0xf
 3541 0c04 2F       		.byte	0x2f
 3542 0c05 240B0000 		.4byte	0xb24
 3543 0c09 08       		.uleb128 0x8
 3544 0c0a 18       		.byte	0x18
 3545 0c0b 10       		.byte	0x10
 3546 0c0c 20       		.byte	0x20
 3547 0c0d 840C0000 		.4byte	0xc84
 3548 0c11 0F       		.uleb128 0xf
 3549 0c12 8F0F0000 		.4byte	.LASF277
 3550 0c16 10       		.byte	0x10
 3551 0c17 22       		.byte	0x22
 3552 0c18 C3000000 		.4byte	0xc3
 3553 0c1c 00       		.byte	0
 3554 0c1d 0F       		.uleb128 0xf
 3555 0c1e 630F0000 		.4byte	.LASF278
 3556 0c22 10       		.byte	0x10
 3557 0c23 23       		.byte	0x23
 3558 0c24 CE000000 		.4byte	0xce
 3559 0c28 02       		.byte	0x2
 3560 0c29 0F       		.uleb128 0xf
 3561 0c2a 581A0000 		.4byte	.LASF279
 3562 0c2e 10       		.byte	0x10
 3563 0c2f 24       		.byte	0x24
 3564 0c30 14020000 		.4byte	0x214
 3565 0c34 04       		.byte	0x4
 3566 0c35 0F       		.uleb128 0xf
 3567 0c36 680F0000 		.4byte	.LASF280
 3568 0c3a 10       		.byte	0x10
 3569 0c3b 26       		.byte	0x26
 3570 0c3c D6010000 		.4byte	0x1d6
 3571 0c40 08       		.byte	0x8
 3572 0c41 0F       		.uleb128 0xf
 3573 0c42 E9130000 		.4byte	.LASF281
 3574 0c46 10       		.byte	0x10
 3575 0c47 27       		.byte	0x27
 3576 0c48 E1010000 		.4byte	0x1e1
 3577 0c4c 0A       		.byte	0xa
 3578 0c4d 0E       		.uleb128 0xe
 3579 0c4e 6F706100 		.ascii	"opa\000"
 3580 0c52 10       		.byte	0x10
ARM GAS  C:\Users\haske\AppData\Local\Temp\ccOknJt1.s 			page 86


 3581 0c53 29       		.byte	0x29
 3582 0c54 E1010000 		.4byte	0x1e1
 3583 0c58 0B       		.byte	0xb
 3584 0c59 09       		.uleb128 0x9
 3585 0c5a D8030000 		.4byte	.LASF239
 3586 0c5e 10       		.byte	0x10
 3587 0c5f 2A       		.byte	0x2a
 3588 0c60 00040000 		.4byte	0x400
 3589 0c64 01       		.byte	0x1
 3590 0c65 04       		.byte	0x4
 3591 0c66 04       		.byte	0x4
 3592 0c67 0C       		.byte	0xc
 3593 0c68 0F       		.uleb128 0xf
 3594 0c69 CD130000 		.4byte	.LASF282
 3595 0c6d 10       		.byte	0x10
 3596 0c6e 2C       		.byte	0x2c
 3597 0c6f D9000000 		.4byte	0xd9
 3598 0c73 10       		.byte	0x10
 3599 0c74 09       		.uleb128 0x9
 3600 0c75 D9140000 		.4byte	.LASF283
 3601 0c79 10       		.byte	0x10
 3602 0c7a 2D       		.byte	0x2d
 3603 0c7b B8000000 		.4byte	0xb8
 3604 0c7f 01       		.byte	0x1
 3605 0c80 01       		.byte	0x1
 3606 0c81 07       		.byte	0x7
 3607 0c82 14       		.byte	0x14
 3608 0c83 00       		.byte	0
 3609 0c84 02       		.uleb128 0x2
 3610 0c85 66090000 		.4byte	.LASF284
 3611 0c89 10       		.byte	0x10
 3612 0c8a 2E       		.byte	0x2e
 3613 0c8b 090C0000 		.4byte	0xc09
 3614 0c8f 08       		.uleb128 0x8
 3615 0c90 0A       		.byte	0xa
 3616 0c91 11       		.byte	0x11
 3617 0c92 1C       		.byte	0x1c
 3618 0c93 100D0000 		.4byte	0xd10
 3619 0c97 0F       		.uleb128 0xf
 3620 0c98 4B1A0000 		.4byte	.LASF76
 3621 0c9c 11       		.byte	0x11
 3622 0c9d 1D       		.byte	0x1d
 3623 0c9e D6010000 		.4byte	0x1d6
 3624 0ca2 00       		.byte	0
 3625 0ca3 0F       		.uleb128 0xf
 3626 0ca4 EA100000 		.4byte	.LASF285
 3627 0ca8 11       		.byte	0x11
 3628 0ca9 1E       		.byte	0x1e
 3629 0caa EC010000 		.4byte	0x1ec
 3630 0cae 02       		.byte	0x2
 3631 0caf 0F       		.uleb128 0xf
 3632 0cb0 C40E0000 		.4byte	.LASF286
 3633 0cb4 11       		.byte	0x11
 3634 0cb5 1F       		.byte	0x1f
 3635 0cb6 EC010000 		.4byte	0x1ec
 3636 0cba 04       		.byte	0x4
 3637 0cbb 0F       		.uleb128 0xf
ARM GAS  C:\Users\haske\AppData\Local\Temp\ccOknJt1.s 			page 87


 3638 0cbc 9F090000 		.4byte	.LASF287
 3639 0cc0 11       		.byte	0x11
 3640 0cc1 20       		.byte	0x20
 3641 0cc2 EC010000 		.4byte	0x1ec
 3642 0cc6 06       		.byte	0x6
 3643 0cc7 0E       		.uleb128 0xe
 3644 0cc8 6F706100 		.ascii	"opa\000"
 3645 0ccc 11       		.byte	0x11
 3646 0ccd 21       		.byte	0x21
 3647 0cce E1010000 		.4byte	0x1e1
 3648 0cd2 08       		.byte	0x8
 3649 0cd3 09       		.uleb128 0x9
 3650 0cd4 D8030000 		.4byte	.LASF239
 3651 0cd8 11       		.byte	0x11
 3652 0cd9 22       		.byte	0x22
 3653 0cda 00040000 		.4byte	0x400
 3654 0cde 01       		.byte	0x1
 3655 0cdf 02       		.byte	0x2
 3656 0ce0 06       		.byte	0x6
 3657 0ce1 09       		.byte	0x9
 3658 0ce2 09       		.uleb128 0x9
 3659 0ce3 7A0B0000 		.4byte	.LASF288
 3660 0ce7 11       		.byte	0x11
 3661 0ce8 23       		.byte	0x23
 3662 0ce9 B8000000 		.4byte	0xb8
 3663 0ced 01       		.byte	0x1
 3664 0cee 01       		.byte	0x1
 3665 0cef 05       		.byte	0x5
 3666 0cf0 09       		.byte	0x9
 3667 0cf1 09       		.uleb128 0x9
 3668 0cf2 E70C0000 		.4byte	.LASF289
 3669 0cf6 11       		.byte	0x11
 3670 0cf7 24       		.byte	0x24
 3671 0cf8 B8000000 		.4byte	0xb8
 3672 0cfc 01       		.byte	0x1
 3673 0cfd 01       		.byte	0x1
 3674 0cfe 04       		.byte	0x4
 3675 0cff 09       		.byte	0x9
 3676 0d00 09       		.uleb128 0x9
 3677 0d01 F6000000 		.4byte	.LASF290
 3678 0d05 11       		.byte	0x11
 3679 0d06 25       		.byte	0x25
 3680 0d07 B8000000 		.4byte	0xb8
 3681 0d0b 01       		.byte	0x1
 3682 0d0c 01       		.byte	0x1
 3683 0d0d 03       		.byte	0x3
 3684 0d0e 09       		.byte	0x9
 3685 0d0f 00       		.byte	0
 3686 0d10 02       		.uleb128 0x2
 3687 0d11 39070000 		.4byte	.LASF291
 3688 0d15 11       		.byte	0x11
 3689 0d16 26       		.byte	0x26
 3690 0d17 8F0C0000 		.4byte	0xc8f
 3691 0d1b 08       		.uleb128 0x8
 3692 0d1c 10       		.byte	0x10
 3693 0d1d 12       		.byte	0x12
 3694 0d1e 1C       		.byte	0x1c
ARM GAS  C:\Users\haske\AppData\Local\Temp\ccOknJt1.s 			page 88


 3695 0d1f 8A0D0000 		.4byte	0xd8a
 3696 0d23 0F       		.uleb128 0xf
 3697 0d24 4B1A0000 		.4byte	.LASF76
 3698 0d28 12       		.byte	0x12
 3699 0d29 1D       		.byte	0x1d
 3700 0d2a D6010000 		.4byte	0x1d6
 3701 0d2e 00       		.byte	0
 3702 0d2f 0F       		.uleb128 0xf
 3703 0d30 EA100000 		.4byte	.LASF285
 3704 0d34 12       		.byte	0x12
 3705 0d35 1E       		.byte	0x1e
 3706 0d36 EC010000 		.4byte	0x1ec
 3707 0d3a 02       		.byte	0x2
 3708 0d3b 0F       		.uleb128 0xf
 3709 0d3c 840E0000 		.4byte	.LASF292
 3710 0d40 12       		.byte	0x12
 3711 0d41 1F       		.byte	0x1f
 3712 0d42 CE000000 		.4byte	0xce
 3713 0d46 04       		.byte	0x4
 3714 0d47 0F       		.uleb128 0xf
 3715 0d48 B8060000 		.4byte	.LASF293
 3716 0d4c 12       		.byte	0x12
 3717 0d4d 20       		.byte	0x20
 3718 0d4e CE000000 		.4byte	0xce
 3719 0d52 06       		.byte	0x6
 3720 0d53 0F       		.uleb128 0xf
 3721 0d54 F10C0000 		.4byte	.LASF294
 3722 0d58 12       		.byte	0x12
 3723 0d59 21       		.byte	0x21
 3724 0d5a CD030000 		.4byte	0x3cd
 3725 0d5e 08       		.byte	0x8
 3726 0d5f 0E       		.uleb128 0xe
 3727 0d60 6F706100 		.ascii	"opa\000"
 3728 0d64 12       		.byte	0x12
 3729 0d65 22       		.byte	0x22
 3730 0d66 E1010000 		.4byte	0x1e1
 3731 0d6a 0C       		.byte	0xc
 3732 0d6b 09       		.uleb128 0x9
 3733 0d6c D8030000 		.4byte	.LASF239
 3734 0d70 12       		.byte	0x12
 3735 0d71 23       		.byte	0x23
 3736 0d72 00040000 		.4byte	0x400
 3737 0d76 01       		.byte	0x1
 3738 0d77 02       		.byte	0x2
 3739 0d78 06       		.byte	0x6
 3740 0d79 0D       		.byte	0xd
 3741 0d7a 09       		.uleb128 0x9
 3742 0d7b AD020000 		.4byte	.LASF295
 3743 0d7f 12       		.byte	0x12
 3744 0d80 24       		.byte	0x24
 3745 0d81 B8000000 		.4byte	0xb8
 3746 0d85 01       		.byte	0x1
 3747 0d86 01       		.byte	0x1
 3748 0d87 05       		.byte	0x5
 3749 0d88 0D       		.byte	0xd
 3750 0d89 00       		.byte	0
 3751 0d8a 02       		.uleb128 0x2
ARM GAS  C:\Users\haske\AppData\Local\Temp\ccOknJt1.s 			page 89


 3752 0d8b F61A0000 		.4byte	.LASF296
 3753 0d8f 12       		.byte	0x12
 3754 0d90 25       		.byte	0x25
 3755 0d91 1B0D0000 		.4byte	0xd1b
 3756 0d95 06       		.uleb128 0x6
 3757 0d96 01       		.byte	0x1
 3758 0d97 42000000 		.4byte	0x42
 3759 0d9b 13       		.byte	0x13
 3760 0d9c 1C       		.byte	0x1c
 3761 0d9d B40D0000 		.4byte	0xdb4
 3762 0da1 07       		.uleb128 0x7
 3763 0da2 36110000 		.4byte	.LASF297
 3764 0da6 00       		.byte	0
 3765 0da7 07       		.uleb128 0x7
 3766 0da8 C7010000 		.4byte	.LASF298
 3767 0dac 01       		.byte	0x1
 3768 0dad 07       		.uleb128 0x7
 3769 0dae 8D160000 		.4byte	.LASF299
 3770 0db2 02       		.byte	0x2
 3771 0db3 00       		.byte	0
 3772 0db4 02       		.uleb128 0x2
 3773 0db5 33090000 		.4byte	.LASF300
 3774 0db9 13       		.byte	0x13
 3775 0dba 20       		.byte	0x20
 3776 0dbb 950D0000 		.4byte	0xd95
 3777 0dbf 08       		.uleb128 0x8
 3778 0dc0 10       		.byte	0x10
 3779 0dc1 14       		.byte	0x14
 3780 0dc2 33       		.byte	0x33
 3781 0dc3 F80D0000 		.4byte	0xdf8
 3782 0dc7 0F       		.uleb128 0xf
 3783 0dc8 BD120000 		.4byte	.LASF301
 3784 0dcc 14       		.byte	0x14
 3785 0dcd 34       		.byte	0x34
 3786 0dce ED070000 		.4byte	0x7ed
 3787 0dd2 00       		.byte	0
 3788 0dd3 0F       		.uleb128 0xf
 3789 0dd4 5A0F0000 		.4byte	.LASF302
 3790 0dd8 14       		.byte	0x14
 3791 0dd9 35       		.byte	0x35
 3792 0dda F80D0000 		.4byte	0xdf8
 3793 0dde 04       		.byte	0x4
 3794 0ddf 0E       		.uleb128 0xe
 3795 0de0 62756600 		.ascii	"buf\000"
 3796 0de4 14       		.byte	0x14
 3797 0de5 36       		.byte	0x36
 3798 0de6 13010000 		.4byte	0x113
 3799 0dea 08       		.byte	0x8
 3800 0deb 0F       		.uleb128 0xf
 3801 0dec 0C1C0000 		.4byte	.LASF303
 3802 0df0 14       		.byte	0x14
 3803 0df1 37       		.byte	0x37
 3804 0df2 95030000 		.4byte	0x395
 3805 0df6 0C       		.byte	0xc
 3806 0df7 00       		.byte	0
 3807 0df8 11       		.uleb128 0x11
 3808 0df9 04       		.byte	0x4
ARM GAS  C:\Users\haske\AppData\Local\Temp\ccOknJt1.s 			page 90


 3809 0dfa 54020000 		.4byte	0x254
 3810 0dfe 10       		.uleb128 0x10
 3811 0dff 5C130000 		.4byte	.LASF304
 3812 0e03 28       		.byte	0x28
 3813 0e04 14       		.byte	0x14
 3814 0e05 2D       		.byte	0x2d
 3815 0e06 530E0000 		.4byte	0xe53
 3816 0e0a 0F       		.uleb128 0xf
 3817 0e0b 14130000 		.4byte	.LASF305
 3818 0e0f 14       		.byte	0x14
 3819 0e10 2E       		.byte	0x2e
 3820 0e11 54020000 		.4byte	0x254
 3821 0e15 00       		.byte	0
 3822 0e16 0F       		.uleb128 0xf
 3823 0e17 B6070000 		.4byte	.LASF306
 3824 0e1b 14       		.byte	0x14
 3825 0e1c 2F       		.byte	0x2f
 3826 0e1d 54020000 		.4byte	0x254
 3827 0e21 08       		.byte	0x8
 3828 0e22 0F       		.uleb128 0xf
 3829 0e23 A6130000 		.4byte	.LASF307
 3830 0e27 14       		.byte	0x14
 3831 0e28 30       		.byte	0x30
 3832 0e29 EC010000 		.4byte	0x1ec
 3833 0e2d 10       		.byte	0x10
 3834 0e2e 0F       		.uleb128 0xf
 3835 0e2f 86170000 		.4byte	.LASF308
 3836 0e33 14       		.byte	0x14
 3837 0e34 31       		.byte	0x31
 3838 0e35 EC010000 		.4byte	0x1ec
 3839 0e39 12       		.byte	0x12
 3840 0e3a 0E       		.uleb128 0xe
 3841 0e3b 62756600 		.ascii	"buf\000"
 3842 0e3f 14       		.byte	0x14
 3843 0e40 32       		.byte	0x32
 3844 0e41 13010000 		.4byte	0x113
 3845 0e45 14       		.byte	0x14
 3846 0e46 0F       		.uleb128 0xf
 3847 0e47 4B080000 		.4byte	.LASF309
 3848 0e4b 14       		.byte	0x14
 3849 0e4c 38       		.byte	0x38
 3850 0e4d BF0D0000 		.4byte	0xdbf
 3851 0e51 18       		.byte	0x18
 3852 0e52 00       		.byte	0
 3853 0e53 02       		.uleb128 0x2
 3854 0e54 2D1A0000 		.4byte	.LASF310
 3855 0e58 14       		.byte	0x14
 3856 0e59 39       		.byte	0x39
 3857 0e5a FE0D0000 		.4byte	0xdfe
 3858 0e5e 10       		.uleb128 0x10
 3859 0e5f DA020000 		.4byte	.LASF311
 3860 0e63 54       		.byte	0x54
 3861 0e64 14       		.byte	0x14
 3862 0e65 3B       		.byte	0x3b
 3863 0e66 670F0000 		.4byte	0xf67
 3864 0e6a 0E       		.uleb128 0xe
 3865 0e6b 62756600 		.ascii	"buf\000"
ARM GAS  C:\Users\haske\AppData\Local\Temp\ccOknJt1.s 			page 91


 3866 0e6f 14       		.byte	0x14
 3867 0e70 3F       		.byte	0x3f
 3868 0e71 13010000 		.4byte	0x113
 3869 0e75 00       		.byte	0
 3870 0e76 0F       		.uleb128 0xf
 3871 0e77 5A0F0000 		.4byte	.LASF302
 3872 0e7b 14       		.byte	0x14
 3873 0e7c 44       		.byte	0x44
 3874 0e7d F80D0000 		.4byte	0xdf8
 3875 0e81 04       		.byte	0x4
 3876 0e82 0F       		.uleb128 0xf
 3877 0e83 BD120000 		.4byte	.LASF301
 3878 0e87 14       		.byte	0x14
 3879 0e88 49       		.byte	0x49
 3880 0e89 ED070000 		.4byte	0x7ed
 3881 0e8d 08       		.byte	0x8
 3882 0e8e 0F       		.uleb128 0xf
 3883 0e8f 95020000 		.4byte	.LASF312
 3884 0e93 14       		.byte	0x14
 3885 0e94 4B       		.byte	0x4b
 3886 0e95 780F0000 		.4byte	0xf78
 3887 0e99 0C       		.byte	0xc
 3888 0e9a 0F       		.uleb128 0xf
 3889 0e9b 53020000 		.4byte	.LASF313
 3890 0e9f 14       		.byte	0x14
 3891 0ea0 4D       		.byte	0x4d
 3892 0ea1 9E0F0000 		.4byte	0xf9e
 3893 0ea5 10       		.byte	0x10
 3894 0ea6 0F       		.uleb128 0xf
 3895 0ea7 0F0F0000 		.4byte	.LASF314
 3896 0eab 14       		.byte	0x14
 3897 0eac 4F       		.byte	0x4f
 3898 0ead DE0F0000 		.4byte	0xfde
 3899 0eb1 14       		.byte	0x14
 3900 0eb2 0F       		.uleb128 0xf
 3901 0eb3 05100000 		.4byte	.LASF315
 3902 0eb7 14       		.byte	0x14
 3903 0eb8 52       		.byte	0x52
 3904 0eb9 0E100000 		.4byte	0x100e
 3905 0ebd 18       		.byte	0x18
 3906 0ebe 0F       		.uleb128 0xf
 3907 0ebf 981D0000 		.4byte	.LASF316
 3908 0ec3 14       		.byte	0x14
 3909 0ec4 55       		.byte	0x55
 3910 0ec5 32100000 		.4byte	0x1032
 3911 0ec9 1C       		.byte	0x1c
 3912 0eca 0F       		.uleb128 0xf
 3913 0ecb 68180000 		.4byte	.LASF317
 3914 0ecf 14       		.byte	0x14
 3915 0ed0 58       		.byte	0x58
 3916 0ed1 5D100000 		.4byte	0x105d
 3917 0ed5 20       		.byte	0x20
 3918 0ed6 0F       		.uleb128 0xf
 3919 0ed7 73060000 		.4byte	.LASF318
 3920 0edb 14       		.byte	0x14
 3921 0edc 5C       		.byte	0x5c
 3922 0edd 88100000 		.4byte	0x1088
ARM GAS  C:\Users\haske\AppData\Local\Temp\ccOknJt1.s 			page 92


 3923 0ee1 24       		.byte	0x24
 3924 0ee2 0F       		.uleb128 0xf
 3925 0ee3 FC1D0000 		.4byte	.LASF319
 3926 0ee7 14       		.byte	0x14
 3927 0ee8 60       		.byte	0x60
 3928 0ee9 A8100000 		.4byte	0x10a8
 3929 0eed 28       		.byte	0x28
 3930 0eee 0F       		.uleb128 0xf
 3931 0eef A8090000 		.4byte	.LASF320
 3932 0ef3 14       		.byte	0x14
 3933 0ef4 71       		.byte	0x71
 3934 0ef5 E6100000 		.4byte	0x10e6
 3935 0ef9 2C       		.byte	0x2c
 3936 0efa 0F       		.uleb128 0xf
 3937 0efb D4000000 		.4byte	.LASF321
 3938 0eff 14       		.byte	0x14
 3939 0f00 78       		.byte	0x78
 3940 0f01 9E0F0000 		.4byte	0xf9e
 3941 0f05 30       		.byte	0x30
 3942 0f06 0F       		.uleb128 0xf
 3943 0f07 63160000 		.4byte	.LASF322
 3944 0f0b 14       		.byte	0x14
 3945 0f0c 7D       		.byte	0x7d
 3946 0f0d 780F0000 		.4byte	0xf78
 3947 0f11 34       		.byte	0x34
 3948 0f12 0F       		.uleb128 0xf
 3949 0f13 01060000 		.4byte	.LASF323
 3950 0f17 14       		.byte	0x14
 3951 0f18 8D       		.byte	0x8d
 3952 0f19 15110000 		.4byte	0x1115
 3953 0f1d 38       		.byte	0x38
 3954 0f1e 0F       		.uleb128 0xf
 3955 0f1f E10B0000 		.4byte	.LASF324
 3956 0f23 14       		.byte	0x14
 3957 0f24 99       		.byte	0x99
 3958 0f25 3A110000 		.4byte	0x113a
 3959 0f29 3C       		.byte	0x3c
 3960 0f2a 0F       		.uleb128 0xf
 3961 0f2b DD190000 		.4byte	.LASF325
 3962 0f2f 14       		.byte	0x14
 3963 0f30 A3       		.byte	0xa3
 3964 0f31 55110000 		.4byte	0x1155
 3965 0f35 40       		.byte	0x40
 3966 0f36 0F       		.uleb128 0xf
 3967 0f37 741A0000 		.4byte	.LASF326
 3968 0f3b 14       		.byte	0x14
 3969 0f3c AC       		.byte	0xac
 3970 0f3d 70110000 		.4byte	0x1170
 3971 0f41 44       		.byte	0x44
 3972 0f42 0F       		.uleb128 0xf
 3973 0f43 B00E0000 		.4byte	.LASF327
 3974 0f47 14       		.byte	0x14
 3975 0f48 B5       		.byte	0xb5
 3976 0f49 8C110000 		.4byte	0x118c
 3977 0f4d 48       		.byte	0x48
 3978 0f4e 0F       		.uleb128 0xf
 3979 0f4f 8B090000 		.4byte	.LASF328
ARM GAS  C:\Users\haske\AppData\Local\Temp\ccOknJt1.s 			page 93


 3980 0f53 14       		.byte	0x14
 3981 0f54 BA       		.byte	0xba
 3982 0f55 FA000000 		.4byte	0xfa
 3983 0f59 4C       		.byte	0x4c
 3984 0f5a 0F       		.uleb128 0xf
 3985 0f5b 291F0000 		.4byte	.LASF64
 3986 0f5f 14       		.byte	0x14
 3987 0f60 BD       		.byte	0xbd
 3988 0f61 13010000 		.4byte	0x113
 3989 0f65 50       		.byte	0x50
 3990 0f66 00       		.byte	0
 3991 0f67 1F       		.uleb128 0x1f
 3992 0f68 720F0000 		.4byte	0xf72
 3993 0f6c 14       		.uleb128 0x14
 3994 0f6d 720F0000 		.4byte	0xf72
 3995 0f71 00       		.byte	0
 3996 0f72 11       		.uleb128 0x11
 3997 0f73 04       		.byte	0x4
 3998 0f74 5E0E0000 		.4byte	0xe5e
 3999 0f78 11       		.uleb128 0x11
 4000 0f79 04       		.byte	0x4
 4001 0f7a 670F0000 		.4byte	0xf67
 4002 0f7e 1F       		.uleb128 0x1f
 4003 0f7f 930F0000 		.4byte	0xf93
 4004 0f83 14       		.uleb128 0x14
 4005 0f84 720F0000 		.4byte	0xf72
 4006 0f88 14       		.uleb128 0x14
 4007 0f89 930F0000 		.4byte	0xf93
 4008 0f8d 14       		.uleb128 0x14
 4009 0f8e ED070000 		.4byte	0x7ed
 4010 0f92 00       		.byte	0
 4011 0f93 11       		.uleb128 0x11
 4012 0f94 04       		.byte	0x4
 4013 0f95 990F0000 		.4byte	0xf99
 4014 0f99 12       		.uleb128 0x12
 4015 0f9a 190B0000 		.4byte	0xb19
 4016 0f9e 11       		.uleb128 0x11
 4017 0f9f 04       		.byte	0x4
 4018 0fa0 7E0F0000 		.4byte	0xf7e
 4019 0fa4 1F       		.uleb128 0x1f
 4020 0fa5 C80F0000 		.4byte	0xfc8
 4021 0fa9 14       		.uleb128 0x14
 4022 0faa 720F0000 		.4byte	0xf72
 4023 0fae 14       		.uleb128 0x14
 4024 0faf C80F0000 		.4byte	0xfc8
 4025 0fb3 14       		.uleb128 0x14
 4026 0fb4 D30F0000 		.4byte	0xfd3
 4027 0fb8 14       		.uleb128 0x14
 4028 0fb9 CE000000 		.4byte	0xce
 4029 0fbd 14       		.uleb128 0x14
 4030 0fbe CE000000 		.4byte	0xce
 4031 0fc2 14       		.uleb128 0x14
 4032 0fc3 CE000000 		.4byte	0xce
 4033 0fc7 00       		.byte	0
 4034 0fc8 11       		.uleb128 0x11
 4035 0fc9 04       		.byte	0x4
 4036 0fca CE0F0000 		.4byte	0xfce
ARM GAS  C:\Users\haske\AppData\Local\Temp\ccOknJt1.s 			page 94


 4037 0fce 12       		.uleb128 0x12
 4038 0fcf 8A0D0000 		.4byte	0xd8a
 4039 0fd3 11       		.uleb128 0x11
 4040 0fd4 04       		.byte	0x4
 4041 0fd5 D90F0000 		.4byte	0xfd9
 4042 0fd9 12       		.uleb128 0x12
 4043 0fda 14020000 		.4byte	0x214
 4044 0fde 11       		.uleb128 0x11
 4045 0fdf 04       		.byte	0x4
 4046 0fe0 A40F0000 		.4byte	0xfa4
 4047 0fe4 1F       		.uleb128 0x1f
 4048 0fe5 03100000 		.4byte	0x1003
 4049 0fe9 14       		.uleb128 0x14
 4050 0fea 720F0000 		.4byte	0xf72
 4051 0fee 14       		.uleb128 0x14
 4052 0fef 03100000 		.4byte	0x1003
 4053 0ff3 14       		.uleb128 0x14
 4054 0ff4 ED070000 		.4byte	0x7ed
 4055 0ff8 14       		.uleb128 0x14
 4056 0ff9 BC030000 		.4byte	0x3bc
 4057 0ffd 14       		.uleb128 0x14
 4058 0ffe F4080000 		.4byte	0x8f4
 4059 1002 00       		.byte	0
 4060 1003 11       		.uleb128 0x11
 4061 1004 04       		.byte	0x4
 4062 1005 09100000 		.4byte	0x1009
 4063 1009 12       		.uleb128 0x12
 4064 100a 840C0000 		.4byte	0xc84
 4065 100e 11       		.uleb128 0x11
 4066 100f 04       		.byte	0x4
 4067 1010 E40F0000 		.4byte	0xfe4
 4068 1014 13       		.uleb128 0x13
 4069 1015 EF000000 		.4byte	0xef
 4070 1019 32100000 		.4byte	0x1032
 4071 101d 14       		.uleb128 0x14
 4072 101e 720F0000 		.4byte	0xf72
 4073 1022 14       		.uleb128 0x14
 4074 1023 03100000 		.4byte	0x1003
 4075 1027 14       		.uleb128 0x14
 4076 1028 ED070000 		.4byte	0x7ed
 4077 102c 14       		.uleb128 0x14
 4078 102d CD030000 		.4byte	0x3cd
 4079 1031 00       		.byte	0
 4080 1032 11       		.uleb128 0x11
 4081 1033 04       		.byte	0x4
 4082 1034 14100000 		.4byte	0x1014
 4083 1038 1F       		.uleb128 0x1f
 4084 1039 52100000 		.4byte	0x1052
 4085 103d 14       		.uleb128 0x14
 4086 103e 720F0000 		.4byte	0xf72
 4087 1042 14       		.uleb128 0x14
 4088 1043 52100000 		.4byte	0x1052
 4089 1047 14       		.uleb128 0x14
 4090 1048 D30F0000 		.4byte	0xfd3
 4091 104c 14       		.uleb128 0x14
 4092 104d E4000000 		.4byte	0xe4
 4093 1051 00       		.byte	0
ARM GAS  C:\Users\haske\AppData\Local\Temp\ccOknJt1.s 			page 95


 4094 1052 11       		.uleb128 0x11
 4095 1053 04       		.byte	0x4
 4096 1054 58100000 		.4byte	0x1058
 4097 1058 12       		.uleb128 0x12
 4098 1059 FE0B0000 		.4byte	0xbfe
 4099 105d 11       		.uleb128 0x11
 4100 105e 04       		.byte	0x4
 4101 105f 38100000 		.4byte	0x1038
 4102 1063 1F       		.uleb128 0x1f
 4103 1064 7D100000 		.4byte	0x107d
 4104 1068 14       		.uleb128 0x14
 4105 1069 720F0000 		.4byte	0xf72
 4106 106d 14       		.uleb128 0x14
 4107 106e 7D100000 		.4byte	0x107d
 4108 1072 14       		.uleb128 0x14
 4109 1073 D30F0000 		.4byte	0xfd3
 4110 1077 14       		.uleb128 0x14
 4111 1078 D30F0000 		.4byte	0xfd3
 4112 107c 00       		.byte	0
 4113 107d 11       		.uleb128 0x11
 4114 107e 04       		.byte	0x4
 4115 107f 83100000 		.4byte	0x1083
 4116 1083 12       		.uleb128 0x12
 4117 1084 100D0000 		.4byte	0xd10
 4118 1088 11       		.uleb128 0x11
 4119 1089 04       		.byte	0x4
 4120 108a 63100000 		.4byte	0x1063
 4121 108e 1F       		.uleb128 0x1f
 4122 108f A8100000 		.4byte	0x10a8
 4123 1093 14       		.uleb128 0x14
 4124 1094 720F0000 		.4byte	0xf72
 4125 1098 14       		.uleb128 0x14
 4126 1099 930F0000 		.4byte	0xf93
 4127 109d 14       		.uleb128 0x14
 4128 109e D30F0000 		.4byte	0xfd3
 4129 10a2 14       		.uleb128 0x14
 4130 10a3 CE000000 		.4byte	0xce
 4131 10a7 00       		.byte	0
 4132 10a8 11       		.uleb128 0x11
 4133 10a9 04       		.byte	0x4
 4134 10aa 8E100000 		.4byte	0x108e
 4135 10ae 1F       		.uleb128 0x1f
 4136 10af E6100000 		.4byte	0x10e6
 4137 10b3 14       		.uleb128 0x14
 4138 10b4 720F0000 		.4byte	0xf72
 4139 10b8 14       		.uleb128 0x14
 4140 10b9 ED070000 		.4byte	0x7ed
 4141 10bd 14       		.uleb128 0x14
 4142 10be CD030000 		.4byte	0x3cd
 4143 10c2 14       		.uleb128 0x14
 4144 10c3 EC010000 		.4byte	0x1ec
 4145 10c7 14       		.uleb128 0x14
 4146 10c8 EC010000 		.4byte	0x1ec
 4147 10cc 14       		.uleb128 0x14
 4148 10cd EC010000 		.4byte	0x1ec
 4149 10d1 14       		.uleb128 0x14
 4150 10d2 03100000 		.4byte	0x1003
ARM GAS  C:\Users\haske\AppData\Local\Temp\ccOknJt1.s 			page 96


 4151 10d6 14       		.uleb128 0x14
 4152 10d7 F4080000 		.4byte	0x8f4
 4153 10db 14       		.uleb128 0x14
 4154 10dc CC090000 		.4byte	0x9cc
 4155 10e0 14       		.uleb128 0x14
 4156 10e1 DC070000 		.4byte	0x7dc
 4157 10e5 00       		.byte	0
 4158 10e6 11       		.uleb128 0x11
 4159 10e7 04       		.byte	0x4
 4160 10e8 AE100000 		.4byte	0x10ae
 4161 10ec 1F       		.uleb128 0x1f
 4162 10ed 15110000 		.4byte	0x1115
 4163 10f1 14       		.uleb128 0x14
 4164 10f2 720F0000 		.4byte	0xf72
 4165 10f6 14       		.uleb128 0x14
 4166 10f7 13010000 		.4byte	0x113
 4167 10fb 14       		.uleb128 0x14
 4168 10fc EC010000 		.4byte	0x1ec
 4169 1100 14       		.uleb128 0x14
 4170 1101 ED070000 		.4byte	0x7ed
 4171 1105 14       		.uleb128 0x14
 4172 1106 13010000 		.4byte	0x113
 4173 110a 14       		.uleb128 0x14
 4174 110b EC010000 		.4byte	0x1ec
 4175 110f 14       		.uleb128 0x14
 4176 1110 ED070000 		.4byte	0x7ed
 4177 1114 00       		.byte	0
 4178 1115 11       		.uleb128 0x11
 4179 1116 04       		.byte	0x4
 4180 1117 EC100000 		.4byte	0x10ec
 4181 111b 13       		.uleb128 0x13
 4182 111c 34110000 		.4byte	0x1134
 4183 1120 34110000 		.4byte	0x1134
 4184 1124 14       		.uleb128 0x14
 4185 1125 720F0000 		.4byte	0xf72
 4186 1129 14       		.uleb128 0x14
 4187 112a 34110000 		.4byte	0x1134
 4188 112e 14       		.uleb128 0x14
 4189 112f B40D0000 		.4byte	0xdb4
 4190 1133 00       		.byte	0
 4191 1134 11       		.uleb128 0x11
 4192 1135 04       		.byte	0x4
 4193 1136 FE0D0000 		.4byte	0xdfe
 4194 113a 11       		.uleb128 0x11
 4195 113b 04       		.byte	0x4
 4196 113c 1B110000 		.4byte	0x111b
 4197 1140 1F       		.uleb128 0x1f
 4198 1141 55110000 		.4byte	0x1155
 4199 1145 14       		.uleb128 0x14
 4200 1146 720F0000 		.4byte	0xf72
 4201 114a 14       		.uleb128 0x14
 4202 114b 34110000 		.4byte	0x1134
 4203 114f 14       		.uleb128 0x14
 4204 1150 B40D0000 		.4byte	0xdb4
 4205 1154 00       		.byte	0
 4206 1155 11       		.uleb128 0x11
 4207 1156 04       		.byte	0x4
ARM GAS  C:\Users\haske\AppData\Local\Temp\ccOknJt1.s 			page 97


 4208 1157 40110000 		.4byte	0x1140
 4209 115b 1F       		.uleb128 0x1f
 4210 115c 70110000 		.4byte	0x1170
 4211 1160 14       		.uleb128 0x14
 4212 1161 720F0000 		.4byte	0xf72
 4213 1165 14       		.uleb128 0x14
 4214 1166 34110000 		.4byte	0x1134
 4215 116a 14       		.uleb128 0x14
 4216 116b 03100000 		.4byte	0x1003
 4217 116f 00       		.byte	0
 4218 1170 11       		.uleb128 0x11
 4219 1171 04       		.byte	0x4
 4220 1172 5B110000 		.4byte	0x115b
 4221 1176 1F       		.uleb128 0x1f
 4222 1177 86110000 		.4byte	0x1186
 4223 117b 14       		.uleb128 0x14
 4224 117c 720F0000 		.4byte	0xf72
 4225 1180 14       		.uleb128 0x14
 4226 1181 86110000 		.4byte	0x1186
 4227 1185 00       		.byte	0
 4228 1186 11       		.uleb128 0x11
 4229 1187 04       		.byte	0x4
 4230 1188 530E0000 		.4byte	0xe53
 4231 118c 11       		.uleb128 0x11
 4232 118d 04       		.byte	0x4
 4233 118e 76110000 		.4byte	0x1176
 4234 1192 02       		.uleb128 0x2
 4235 1193 570A0000 		.4byte	.LASF329
 4236 1197 14       		.byte	0x14
 4237 1198 C0       		.byte	0xc0
 4238 1199 5E0E0000 		.4byte	0xe5e
 4239 119d 02       		.uleb128 0x2
 4240 119e 16100000 		.4byte	.LASF330
 4241 11a2 15       		.byte	0x15
 4242 11a3 27       		.byte	0x27
 4243 11a4 A8110000 		.4byte	0x11a8
 4244 11a8 11       		.uleb128 0x11
 4245 11a9 04       		.byte	0x4
 4246 11aa AE110000 		.4byte	0x11ae
 4247 11ae 1F       		.uleb128 0x1f
 4248 11af B9110000 		.4byte	0x11b9
 4249 11b3 14       		.uleb128 0x14
 4250 11b4 B9110000 		.4byte	0x11b9
 4251 11b8 00       		.byte	0
 4252 11b9 11       		.uleb128 0x11
 4253 11ba 04       		.byte	0x4
 4254 11bb BF110000 		.4byte	0x11bf
 4255 11bf 10       		.uleb128 0x10
 4256 11c0 66020000 		.4byte	.LASF331
 4257 11c4 18       		.byte	0x18
 4258 11c5 15       		.byte	0x15
 4259 11c6 2C       		.byte	0x2c
 4260 11c7 17120000 		.4byte	0x1217
 4261 11cb 0F       		.uleb128 0xf
 4262 11cc 65190000 		.4byte	.LASF332
 4263 11d0 15       		.byte	0x15
 4264 11d1 2D       		.byte	0x2d
ARM GAS  C:\Users\haske\AppData\Local\Temp\ccOknJt1.s 			page 98


 4265 11d2 E4000000 		.4byte	0xe4
 4266 11d6 00       		.byte	0
 4267 11d7 0F       		.uleb128 0xf
 4268 11d8 37180000 		.4byte	.LASF333
 4269 11dc 15       		.byte	0x15
 4270 11dd 2E       		.byte	0x2e
 4271 11de E4000000 		.4byte	0xe4
 4272 11e2 04       		.byte	0x4
 4273 11e3 0F       		.uleb128 0xf
 4274 11e4 C0160000 		.4byte	.LASF334
 4275 11e8 15       		.byte	0x15
 4276 11e9 2F       		.byte	0x2f
 4277 11ea 9D110000 		.4byte	0x119d
 4278 11ee 08       		.byte	0x8
 4279 11ef 0F       		.uleb128 0xf
 4280 11f0 291F0000 		.4byte	.LASF64
 4281 11f4 15       		.byte	0x15
 4282 11f5 30       		.byte	0x30
 4283 11f6 13010000 		.4byte	0x113
 4284 11fa 0C       		.byte	0xc
 4285 11fb 0F       		.uleb128 0xf
 4286 11fc 26020000 		.4byte	.LASF335
 4287 1200 15       		.byte	0x15
 4288 1201 31       		.byte	0x31
 4289 1202 D9000000 		.4byte	0xd9
 4290 1206 10       		.byte	0x10
 4291 1207 09       		.uleb128 0x9
 4292 1208 60100000 		.4byte	.LASF336
 4293 120c 15       		.byte	0x15
 4294 120d 32       		.byte	0x32
 4295 120e E4000000 		.4byte	0xe4
 4296 1212 04       		.byte	0x4
 4297 1213 01       		.byte	0x1
 4298 1214 1F       		.byte	0x1f
 4299 1215 14       		.byte	0x14
 4300 1216 00       		.byte	0
 4301 1217 02       		.uleb128 0x2
 4302 1218 570B0000 		.4byte	.LASF337
 4303 121c 15       		.byte	0x15
 4304 121d 33       		.byte	0x33
 4305 121e BF110000 		.4byte	0x11bf
 4306 1222 20       		.uleb128 0x20
 4307 1223 3A130000 		.4byte	.LASF338
 4308 1227 5C01     		.2byte	0x15c
 4309 1229 16       		.byte	0x16
 4310 122a 9E       		.byte	0x9e
 4311 122b 39130000 		.4byte	0x1339
 4312 122f 0F       		.uleb128 0xf
 4313 1230 180A0000 		.4byte	.LASF339
 4314 1234 16       		.byte	0x16
 4315 1235 A0       		.byte	0xa0
 4316 1236 34160000 		.4byte	0x1634
 4317 123a 00       		.byte	0
 4318 123b 0F       		.uleb128 0xf
 4319 123c 29050000 		.4byte	.LASF340
 4320 1240 16       		.byte	0x16
 4321 1241 A3       		.byte	0xa3
ARM GAS  C:\Users\haske\AppData\Local\Temp\ccOknJt1.s 			page 99


 4322 1242 39130000 		.4byte	0x1339
 4323 1246 04       		.byte	0x4
 4324 1247 0F       		.uleb128 0xf
 4325 1248 E20E0000 		.4byte	.LASF341
 4326 124c 16       		.byte	0x16
 4327 124d A6       		.byte	0xa6
 4328 124e ED160000 		.4byte	0x16ed
 4329 1252 08       		.byte	0x8
 4330 1253 0F       		.uleb128 0xf
 4331 1254 1D040000 		.4byte	.LASF342
 4332 1258 16       		.byte	0x16
 4333 1259 A9       		.byte	0xa9
 4334 125a F3160000 		.4byte	0x16f3
 4335 125e 0C       		.byte	0xc
 4336 125f 0F       		.uleb128 0xf
 4337 1260 B9000000 		.4byte	.LASF343
 4338 1264 16       		.byte	0x16
 4339 1265 AA       		.byte	0xaa
 4340 1266 FF080000 		.4byte	0x8ff
 4341 126a 10       		.byte	0x10
 4342 126b 0F       		.uleb128 0xf
 4343 126c 1F1B0000 		.4byte	.LASF344
 4344 1270 16       		.byte	0x16
 4345 1271 AB       		.byte	0xab
 4346 1272 FF080000 		.4byte	0x8ff
 4347 1276 14       		.byte	0x14
 4348 1277 0F       		.uleb128 0xf
 4349 1278 A9050000 		.4byte	.LASF345
 4350 127c 16       		.byte	0x16
 4351 127d AC       		.byte	0xac
 4352 127e FF080000 		.4byte	0x8ff
 4353 1282 18       		.byte	0x18
 4354 1283 0F       		.uleb128 0xf
 4355 1284 FD060000 		.4byte	.LASF346
 4356 1288 16       		.byte	0x16
 4357 1289 AD       		.byte	0xad
 4358 128a FF080000 		.4byte	0x8ff
 4359 128e 1C       		.byte	0x1c
 4360 128f 0F       		.uleb128 0xf
 4361 1290 B3170000 		.4byte	.LASF347
 4362 1294 16       		.byte	0x16
 4363 1295 AE       		.byte	0xae
 4364 1296 FF080000 		.4byte	0x8ff
 4365 129a 20       		.byte	0x20
 4366 129b 0F       		.uleb128 0xf
 4367 129c C1000000 		.4byte	.LASF348
 4368 12a0 16       		.byte	0x16
 4369 12a1 AF       		.byte	0xaf
 4370 12a2 E4000000 		.4byte	0xe4
 4371 12a6 24       		.byte	0x24
 4372 12a7 09       		.uleb128 0x9
 4373 12a8 9D0E0000 		.4byte	.LASF349
 4374 12ac 16       		.byte	0x16
 4375 12ad B0       		.byte	0xb0
 4376 12ae B8000000 		.4byte	0xb8
 4377 12b2 01       		.byte	0x1
 4378 12b3 01       		.byte	0x1
ARM GAS  C:\Users\haske\AppData\Local\Temp\ccOknJt1.s 			page 100


 4379 12b4 07       		.byte	0x7
 4380 12b5 28       		.byte	0x28
 4381 12b6 09       		.uleb128 0x9
 4382 12b7 6E1C0000 		.4byte	.LASF350
 4383 12bb 16       		.byte	0x16
 4384 12bc B2       		.byte	0xb2
 4385 12bd B8000000 		.4byte	0xb8
 4386 12c1 01       		.byte	0x1
 4387 12c2 01       		.byte	0x1
 4388 12c3 06       		.byte	0x6
 4389 12c4 28       		.byte	0x28
 4390 12c5 09       		.uleb128 0x9
 4391 12c6 F8070000 		.4byte	.LASF351
 4392 12ca 16       		.byte	0x16
 4393 12cb B4       		.byte	0xb4
 4394 12cc B8000000 		.4byte	0xb8
 4395 12d0 01       		.byte	0x1
 4396 12d1 01       		.byte	0x1
 4397 12d2 05       		.byte	0x5
 4398 12d3 28       		.byte	0x28
 4399 12d4 0F       		.uleb128 0xf
 4400 12d5 22050000 		.4byte	.LASF240
 4401 12d9 16       		.byte	0x16
 4402 12da B6       		.byte	0xb6
 4403 12db E1010000 		.4byte	0x1e1
 4404 12df 29       		.byte	0x29
 4405 12e0 0F       		.uleb128 0xf
 4406 12e1 62010000 		.4byte	.LASF241
 4407 12e5 16       		.byte	0x16
 4408 12e6 B7       		.byte	0xb7
 4409 12e7 D6010000 		.4byte	0x1d6
 4410 12eb 2A       		.byte	0x2a
 4411 12ec 0F       		.uleb128 0xf
 4412 12ed 771C0000 		.4byte	.LASF352
 4413 12f1 16       		.byte	0x16
 4414 12f2 B8       		.byte	0xb8
 4415 12f3 CD030000 		.4byte	0x3cd
 4416 12f7 2C       		.byte	0x2c
 4417 12f8 0F       		.uleb128 0xf
 4418 12f9 7D130000 		.4byte	.LASF353
 4419 12fd 16       		.byte	0x16
 4420 12fe BB       		.byte	0xbb
 4421 12ff F9160000 		.4byte	0x16f9
 4422 1303 30       		.byte	0x30
 4423 1304 21       		.uleb128 0x21
 4424 1305 83050000 		.4byte	.LASF354
 4425 1309 16       		.byte	0x16
 4426 130a BC       		.byte	0xbc
 4427 130b 09170000 		.4byte	0x1709
 4428 130f 3001     		.2byte	0x130
 4429 1311 21       		.uleb128 0x21
 4430 1312 6A1B0000 		.4byte	.LASF355
 4431 1316 16       		.byte	0x16
 4432 1317 BD       		.byte	0xbd
 4433 1318 CE000000 		.4byte	0xce
 4434 131c 5001     		.2byte	0x150
 4435 131e 21       		.uleb128 0x21
ARM GAS  C:\Users\haske\AppData\Local\Temp\ccOknJt1.s 			page 101


 4436 131f 011C0000 		.4byte	.LASF356
 4437 1323 16       		.byte	0x16
 4438 1324 BE       		.byte	0xbe
 4439 1325 D9000000 		.4byte	0xd9
 4440 1329 5401     		.2byte	0x154
 4441 132b 21       		.uleb128 0x21
 4442 132c A4040000 		.4byte	.LASF357
 4443 1330 16       		.byte	0x16
 4444 1331 C1       		.byte	0xc1
 4445 1332 E4000000 		.4byte	0xe4
 4446 1336 5801     		.2byte	0x158
 4447 1338 00       		.byte	0
 4448 1339 11       		.uleb128 0x11
 4449 133a 04       		.byte	0x4
 4450 133b 17120000 		.4byte	0x1217
 4451 133f 10       		.uleb128 0x10
 4452 1340 7F200000 		.4byte	.LASF358
 4453 1344 20       		.byte	0x20
 4454 1345 17       		.byte	0x17
 4455 1346 3B       		.byte	0x3b
 4456 1347 C4130000 		.4byte	0x13c4
 4457 134b 0F       		.uleb128 0xf
 4458 134c 080F0000 		.4byte	.LASF359
 4459 1350 17       		.byte	0x17
 4460 1351 3C       		.byte	0x3c
 4461 1352 08140000 		.4byte	0x1408
 4462 1356 00       		.byte	0
 4463 1357 0F       		.uleb128 0xf
 4464 1358 DC200000 		.4byte	.LASF360
 4465 135c 17       		.byte	0x17
 4466 135d 3D       		.byte	0x3d
 4467 135e F3160000 		.4byte	0x16f3
 4468 1362 0C       		.byte	0xc
 4469 1363 0F       		.uleb128 0xf
 4470 1364 16150000 		.4byte	.LASF361
 4471 1368 17       		.byte	0x17
 4472 1369 3F       		.byte	0x3f
 4473 136a 2D1A0000 		.4byte	0x1a2d
 4474 136e 10       		.byte	0x10
 4475 136f 0F       		.uleb128 0xf
 4476 1370 7B050000 		.4byte	.LASF362
 4477 1374 17       		.byte	0x17
 4478 1375 40       		.byte	0x40
 4479 1376 491A0000 		.4byte	0x1a49
 4480 137a 14       		.byte	0x14
 4481 137b 0F       		.uleb128 0xf
 4482 137c 291F0000 		.4byte	.LASF64
 4483 1380 17       		.byte	0x17
 4484 1381 45       		.byte	0x45
 4485 1382 13010000 		.4byte	0x113
 4486 1386 18       		.byte	0x18
 4487 1387 09       		.uleb128 0x9
 4488 1388 FA050000 		.4byte	.LASF363
 4489 138c 17       		.byte	0x17
 4490 138d 48       		.byte	0x48
 4491 138e B8000000 		.4byte	0xb8
 4492 1392 01       		.byte	0x1
ARM GAS  C:\Users\haske\AppData\Local\Temp\ccOknJt1.s 			page 102


 4493 1393 01       		.byte	0x1
 4494 1394 07       		.byte	0x7
 4495 1395 1C       		.byte	0x1c
 4496 1396 09       		.uleb128 0x9
 4497 1397 68170000 		.4byte	.LASF364
 4498 139b 17       		.byte	0x17
 4499 139c 49       		.byte	0x49
 4500 139d B8000000 		.4byte	0xb8
 4501 13a1 01       		.byte	0x1
 4502 13a2 01       		.byte	0x1
 4503 13a3 06       		.byte	0x6
 4504 13a4 1C       		.byte	0x1c
 4505 13a5 09       		.uleb128 0x9
 4506 13a6 CE1F0000 		.4byte	.LASF365
 4507 13aa 17       		.byte	0x17
 4508 13ab 4A       		.byte	0x4a
 4509 13ac B8000000 		.4byte	0xb8
 4510 13b0 01       		.byte	0x1
 4511 13b1 01       		.byte	0x1
 4512 13b2 05       		.byte	0x5
 4513 13b3 1C       		.byte	0x1c
 4514 13b4 09       		.uleb128 0x9
 4515 13b5 53180000 		.4byte	.LASF366
 4516 13b9 17       		.byte	0x17
 4517 13ba 4C       		.byte	0x4c
 4518 13bb B8000000 		.4byte	0xb8
 4519 13bf 01       		.byte	0x1
 4520 13c0 01       		.byte	0x1
 4521 13c1 04       		.byte	0x4
 4522 13c2 1C       		.byte	0x1c
 4523 13c3 00       		.byte	0
 4524 13c4 11       		.uleb128 0x11
 4525 13c5 04       		.byte	0x4
 4526 13c6 3F130000 		.4byte	0x133f
 4527 13ca 02       		.uleb128 0x2
 4528 13cb 3B000000 		.4byte	.LASF367
 4529 13cf 18       		.byte	0x18
 4530 13d0 1D       		.byte	0x1d
 4531 13d1 B8000000 		.4byte	0xb8
 4532 13d5 08       		.uleb128 0x8
 4533 13d6 0C       		.byte	0xc
 4534 13d7 18       		.byte	0x18
 4535 13d8 20       		.byte	0x20
 4536 13d9 02140000 		.4byte	0x1402
 4537 13dd 0F       		.uleb128 0xf
 4538 13de 71200000 		.4byte	.LASF368
 4539 13e2 18       		.byte	0x18
 4540 13e3 21       		.byte	0x21
 4541 13e4 E4000000 		.4byte	0xe4
 4542 13e8 00       		.byte	0
 4543 13e9 0F       		.uleb128 0xf
 4544 13ea BC050000 		.4byte	.LASF369
 4545 13ee 18       		.byte	0x18
 4546 13ef 22       		.byte	0x22
 4547 13f0 02140000 		.4byte	0x1402
 4548 13f4 04       		.byte	0x4
 4549 13f5 0F       		.uleb128 0xf
ARM GAS  C:\Users\haske\AppData\Local\Temp\ccOknJt1.s 			page 103


 4550 13f6 B4000000 		.4byte	.LASF370
 4551 13fa 18       		.byte	0x18
 4552 13fb 23       		.byte	0x23
 4553 13fc 02140000 		.4byte	0x1402
 4554 1400 08       		.byte	0x8
 4555 1401 00       		.byte	0
 4556 1402 11       		.uleb128 0x11
 4557 1403 04       		.byte	0x4
 4558 1404 CA130000 		.4byte	0x13ca
 4559 1408 02       		.uleb128 0x2
 4560 1409 701B0000 		.4byte	.LASF371
 4561 140d 18       		.byte	0x18
 4562 140e 24       		.byte	0x24
 4563 140f D5130000 		.4byte	0x13d5
 4564 1413 10       		.uleb128 0x10
 4565 1414 460F0000 		.4byte	.LASF372
 4566 1418 1C       		.byte	0x1c
 4567 1419 16       		.byte	0x16
 4568 141a 32       		.byte	0x32
 4569 141b 86140000 		.4byte	0x1486
 4570 141f 0F       		.uleb128 0xf
 4571 1420 00110000 		.4byte	.LASF373
 4572 1424 16       		.byte	0x16
 4573 1425 33       		.byte	0x33
 4574 1426 13010000 		.4byte	0x113
 4575 142a 00       		.byte	0
 4576 142b 0F       		.uleb128 0xf
 4577 142c 05110000 		.4byte	.LASF374
 4578 1430 16       		.byte	0x16
 4579 1431 34       		.byte	0x34
 4580 1432 13010000 		.4byte	0x113
 4581 1436 04       		.byte	0x4
 4582 1437 0F       		.uleb128 0xf
 4583 1438 0F160000 		.4byte	.LASF375
 4584 143c 16       		.byte	0x16
 4585 143d 37       		.byte	0x37
 4586 143e 13010000 		.4byte	0x113
 4587 1442 08       		.byte	0x8
 4588 1443 0F       		.uleb128 0xf
 4589 1444 81170000 		.4byte	.LASF376
 4590 1448 16       		.byte	0x16
 4591 1449 38       		.byte	0x38
 4592 144a E4000000 		.4byte	0xe4
 4593 144e 0C       		.byte	0xc
 4594 144f 0F       		.uleb128 0xf
 4595 1450 080B0000 		.4byte	.LASF377
 4596 1454 16       		.byte	0x16
 4597 1455 3A       		.byte	0x3a
 4598 1456 86140000 		.4byte	0x1486
 4599 145a 10       		.byte	0x10
 4600 145b 0F       		.uleb128 0xf
 4601 145c 17080000 		.4byte	.LASF378
 4602 1460 16       		.byte	0x16
 4603 1461 3C       		.byte	0x3c
 4604 1462 86140000 		.4byte	0x1486
 4605 1466 14       		.byte	0x14
 4606 1467 09       		.uleb128 0x9
ARM GAS  C:\Users\haske\AppData\Local\Temp\ccOknJt1.s 			page 104


 4607 1468 8C110000 		.4byte	.LASF379
 4608 146c 16       		.byte	0x16
 4609 146d 3D       		.byte	0x3d
 4610 146e 8B140000 		.4byte	0x148b
 4611 1472 04       		.byte	0x4
 4612 1473 01       		.byte	0x1
 4613 1474 1F       		.byte	0x1f
 4614 1475 18       		.byte	0x18
 4615 1476 09       		.uleb128 0x9
 4616 1477 CF0E0000 		.4byte	.LASF380
 4617 147b 16       		.byte	0x16
 4618 147c 3E       		.byte	0x3e
 4619 147d 8B140000 		.4byte	0x148b
 4620 1481 04       		.byte	0x4
 4621 1482 01       		.byte	0x1
 4622 1483 1E       		.byte	0x1e
 4623 1484 18       		.byte	0x18
 4624 1485 00       		.byte	0
 4625 1486 22       		.uleb128 0x22
 4626 1487 9F000000 		.4byte	0x9f
 4627 148b 22       		.uleb128 0x22
 4628 148c E4000000 		.4byte	0xe4
 4629 1490 02       		.uleb128 0x2
 4630 1491 48000000 		.4byte	.LASF381
 4631 1495 16       		.byte	0x16
 4632 1496 3F       		.byte	0x3f
 4633 1497 13140000 		.4byte	0x1413
 4634 149b 10       		.uleb128 0x10
 4635 149c DD1F0000 		.4byte	.LASF382
 4636 14a0 50       		.byte	0x50
 4637 14a1 16       		.byte	0x16
 4638 14a2 4D       		.byte	0x4d
 4639 14a3 19160000 		.4byte	0x1619
 4640 14a7 0F       		.uleb128 0xf
 4641 14a8 7D060000 		.4byte	.LASF383
 4642 14ac 16       		.byte	0x16
 4643 14ad 4F       		.byte	0x4f
 4644 14ae EC010000 		.4byte	0x1ec
 4645 14b2 00       		.byte	0
 4646 14b3 0F       		.uleb128 0xf
 4647 14b4 F3030000 		.4byte	.LASF384
 4648 14b8 16       		.byte	0x16
 4649 14b9 50       		.byte	0x50
 4650 14ba EC010000 		.4byte	0x1ec
 4651 14be 02       		.byte	0x2
 4652 14bf 0F       		.uleb128 0xf
 4653 14c0 70170000 		.4byte	.LASF385
 4654 14c4 16       		.byte	0x16
 4655 14c5 53       		.byte	0x53
 4656 14c6 EC010000 		.4byte	0x1ec
 4657 14ca 04       		.byte	0x4
 4658 14cb 0F       		.uleb128 0xf
 4659 14cc 3A080000 		.4byte	.LASF386
 4660 14d0 16       		.byte	0x16
 4661 14d1 55       		.byte	0x55
 4662 14d2 EC010000 		.4byte	0x1ec
 4663 14d6 06       		.byte	0x6
ARM GAS  C:\Users\haske\AppData\Local\Temp\ccOknJt1.s 			page 105


 4664 14d7 0F       		.uleb128 0xf
 4665 14d8 E80E0000 		.4byte	.LASF387
 4666 14dc 16       		.byte	0x16
 4667 14dd 57       		.byte	0x57
 4668 14de EC010000 		.4byte	0x1ec
 4669 14e2 08       		.byte	0x8
 4670 14e3 0F       		.uleb128 0xf
 4671 14e4 F10E0000 		.4byte	.LASF388
 4672 14e8 16       		.byte	0x16
 4673 14e9 58       		.byte	0x58
 4674 14ea EC010000 		.4byte	0x1ec
 4675 14ee 0A       		.byte	0xa
 4676 14ef 0F       		.uleb128 0xf
 4677 14f0 5C190000 		.4byte	.LASF389
 4678 14f4 16       		.byte	0x16
 4679 14f5 5C       		.byte	0x5c
 4680 14f6 19160000 		.4byte	0x1619
 4681 14fa 0C       		.byte	0xc
 4682 14fb 09       		.uleb128 0x9
 4683 14fc B7090000 		.4byte	.LASF390
 4684 1500 16       		.byte	0x16
 4685 1501 5E       		.byte	0x5e
 4686 1502 E4000000 		.4byte	0xe4
 4687 1506 04       		.byte	0x4
 4688 1507 01       		.byte	0x1
 4689 1508 1F       		.byte	0x1f
 4690 1509 10       		.byte	0x10
 4691 150a 09       		.uleb128 0x9
 4692 150b DA0C0000 		.4byte	.LASF391
 4693 150f 16       		.byte	0x16
 4694 1510 5F       		.byte	0x5f
 4695 1511 E4000000 		.4byte	0xe4
 4696 1515 04       		.byte	0x4
 4697 1516 01       		.byte	0x1
 4698 1517 1E       		.byte	0x1e
 4699 1518 10       		.byte	0x10
 4700 1519 09       		.uleb128 0x9
 4701 151a AE0B0000 		.4byte	.LASF392
 4702 151e 16       		.byte	0x16
 4703 151f 60       		.byte	0x60
 4704 1520 E4000000 		.4byte	0xe4
 4705 1524 04       		.byte	0x4
 4706 1525 01       		.byte	0x1
 4707 1526 1D       		.byte	0x1d
 4708 1527 10       		.byte	0x10
 4709 1528 09       		.uleb128 0x9
 4710 1529 0B0A0000 		.4byte	.LASF393
 4711 152d 16       		.byte	0x16
 4712 152e 61       		.byte	0x61
 4713 152f E4000000 		.4byte	0xe4
 4714 1533 04       		.byte	0x4
 4715 1534 01       		.byte	0x1
 4716 1535 1C       		.byte	0x1c
 4717 1536 10       		.byte	0x10
 4718 1537 09       		.uleb128 0x9
 4719 1538 D9040000 		.4byte	.LASF394
 4720 153c 16       		.byte	0x16
ARM GAS  C:\Users\haske\AppData\Local\Temp\ccOknJt1.s 			page 106


 4721 153d 62       		.byte	0x62
 4722 153e E4000000 		.4byte	0xe4
 4723 1542 04       		.byte	0x4
 4724 1543 02       		.byte	0x2
 4725 1544 1A       		.byte	0x1a
 4726 1545 10       		.byte	0x10
 4727 1546 09       		.uleb128 0x9
 4728 1547 0C1C0000 		.4byte	.LASF303
 4729 154b 16       		.byte	0x16
 4730 154c 63       		.byte	0x63
 4731 154d E4000000 		.4byte	0xe4
 4732 1551 04       		.byte	0x4
 4733 1552 01       		.byte	0x1
 4734 1553 19       		.byte	0x19
 4735 1554 10       		.byte	0x10
 4736 1555 0A       		.uleb128 0xa
 4737 1556 64706900 		.ascii	"dpi\000"
 4738 155a 16       		.byte	0x16
 4739 155b 66       		.byte	0x66
 4740 155c E4000000 		.4byte	0xe4
 4741 1560 04       		.byte	0x4
 4742 1561 0A       		.byte	0xa
 4743 1562 0F       		.byte	0xf
 4744 1563 10       		.byte	0x10
 4745 1564 0F       		.uleb128 0xf
 4746 1565 091F0000 		.4byte	.LASF395
 4747 1569 16       		.byte	0x16
 4748 156a 6A       		.byte	0x6a
 4749 156b 3A160000 		.4byte	0x163a
 4750 156f 14       		.byte	0x14
 4751 1570 0F       		.uleb128 0xf
 4752 1571 6C190000 		.4byte	.LASF396
 4753 1575 16       		.byte	0x16
 4754 1576 6E       		.byte	0x6e
 4755 1577 50160000 		.4byte	0x1650
 4756 157b 18       		.byte	0x18
 4757 157c 0F       		.uleb128 0xf
 4758 157d 0E1D0000 		.4byte	.LASF397
 4759 1581 16       		.byte	0x16
 4760 1582 73       		.byte	0x73
 4761 1583 7F160000 		.4byte	0x167f
 4762 1587 1C       		.byte	0x1c
 4763 1588 0F       		.uleb128 0xf
 4764 1589 C70D0000 		.4byte	.LASF398
 4765 158d 16       		.byte	0x16
 4766 158e 76       		.byte	0x76
 4767 158f 9A160000 		.4byte	0x169a
 4768 1593 20       		.byte	0x20
 4769 1594 0F       		.uleb128 0xf
 4770 1595 FD110000 		.4byte	.LASF399
 4771 1599 16       		.byte	0x16
 4772 159a 7B       		.byte	0x7b
 4773 159b B5160000 		.4byte	0x16b5
 4774 159f 24       		.byte	0x24
 4775 15a0 0F       		.uleb128 0xf
 4776 15a1 7F100000 		.4byte	.LASF400
 4777 15a5 16       		.byte	0x16
ARM GAS  C:\Users\haske\AppData\Local\Temp\ccOknJt1.s 			page 107


 4778 15a6 80       		.byte	0x80
 4779 15a7 C6160000 		.4byte	0x16c6
 4780 15ab 28       		.byte	0x28
 4781 15ac 0F       		.uleb128 0xf
 4782 15ad 26200000 		.4byte	.LASF401
 4783 15b1 16       		.byte	0x16
 4784 15b2 83       		.byte	0x83
 4785 15b3 C6160000 		.4byte	0x16c6
 4786 15b7 2C       		.byte	0x2c
 4787 15b8 0F       		.uleb128 0xf
 4788 15b9 3C170000 		.4byte	.LASF402
 4789 15bd 16       		.byte	0x16
 4790 15be 86       		.byte	0x86
 4791 15bf C6160000 		.4byte	0x16c6
 4792 15c3 30       		.byte	0x30
 4793 15c4 0F       		.uleb128 0xf
 4794 15c5 2C170000 		.4byte	.LASF403
 4795 15c9 16       		.byte	0x16
 4796 15ca 89       		.byte	0x89
 4797 15cb C6160000 		.4byte	0x16c6
 4798 15cf 34       		.byte	0x34
 4799 15d0 0F       		.uleb128 0xf
 4800 15d1 2A000000 		.4byte	.LASF404
 4801 15d5 16       		.byte	0x16
 4802 15d6 8D       		.byte	0x8d
 4803 15d7 D6010000 		.4byte	0x1d6
 4804 15db 38       		.byte	0x38
 4805 15dc 0F       		.uleb128 0xf
 4806 15dd 8F1D0000 		.4byte	.LASF405
 4807 15e1 16       		.byte	0x16
 4808 15e2 8F       		.byte	0x8f
 4809 15e3 CC160000 		.4byte	0x16cc
 4810 15e7 3C       		.byte	0x3c
 4811 15e8 0F       		.uleb128 0xf
 4812 15e9 A70F0000 		.4byte	.LASF406
 4813 15ed 16       		.byte	0x16
 4814 15ee 90       		.byte	0x90
 4815 15ef E2160000 		.4byte	0x16e2
 4816 15f3 40       		.byte	0x40
 4817 15f4 0F       		.uleb128 0xf
 4818 15f5 F6040000 		.4byte	.LASF407
 4819 15f9 16       		.byte	0x16
 4820 15fa 91       		.byte	0x91
 4821 15fb E2160000 		.4byte	0x16e2
 4822 15ff 44       		.byte	0x44
 4823 1600 0F       		.uleb128 0xf
 4824 1601 90010000 		.4byte	.LASF408
 4825 1605 16       		.byte	0x16
 4826 1606 92       		.byte	0x92
 4827 1607 FA000000 		.4byte	0xfa
 4828 160b 48       		.byte	0x48
 4829 160c 0F       		.uleb128 0xf
 4830 160d 291F0000 		.4byte	.LASF64
 4831 1611 16       		.byte	0x16
 4832 1612 95       		.byte	0x95
 4833 1613 13010000 		.4byte	0x113
 4834 1617 4C       		.byte	0x4c
ARM GAS  C:\Users\haske\AppData\Local\Temp\ccOknJt1.s 			page 108


 4835 1618 00       		.byte	0
 4836 1619 11       		.uleb128 0x11
 4837 161a 04       		.byte	0x4
 4838 161b 90140000 		.4byte	0x1490
 4839 161f 1F       		.uleb128 0x1f
 4840 1620 34160000 		.4byte	0x1634
 4841 1624 14       		.uleb128 0x14
 4842 1625 34160000 		.4byte	0x1634
 4843 1629 14       		.uleb128 0x14
 4844 162a ED070000 		.4byte	0x7ed
 4845 162e 14       		.uleb128 0x14
 4846 162f CC090000 		.4byte	0x9cc
 4847 1633 00       		.byte	0
 4848 1634 11       		.uleb128 0x11
 4849 1635 04       		.byte	0x4
 4850 1636 9B140000 		.4byte	0x149b
 4851 163a 11       		.uleb128 0x11
 4852 163b 04       		.byte	0x4
 4853 163c 1F160000 		.4byte	0x161f
 4854 1640 1F       		.uleb128 0x1f
 4855 1641 50160000 		.4byte	0x1650
 4856 1645 14       		.uleb128 0x14
 4857 1646 34160000 		.4byte	0x1634
 4858 164a 14       		.uleb128 0x14
 4859 164b F80D0000 		.4byte	0xdf8
 4860 164f 00       		.byte	0
 4861 1650 11       		.uleb128 0x11
 4862 1651 04       		.byte	0x4
 4863 1652 40160000 		.4byte	0x1640
 4864 1656 1F       		.uleb128 0x1f
 4865 1657 7F160000 		.4byte	0x167f
 4866 165b 14       		.uleb128 0x14
 4867 165c 34160000 		.4byte	0x1634
 4868 1660 14       		.uleb128 0x14
 4869 1661 81070000 		.4byte	0x781
 4870 1665 14       		.uleb128 0x14
 4871 1666 EC010000 		.4byte	0x1ec
 4872 166a 14       		.uleb128 0x14
 4873 166b EC010000 		.4byte	0x1ec
 4874 166f 14       		.uleb128 0x14
 4875 1670 EC010000 		.4byte	0x1ec
 4876 1674 14       		.uleb128 0x14
 4877 1675 D6010000 		.4byte	0x1d6
 4878 1679 14       		.uleb128 0x14
 4879 167a E1010000 		.4byte	0x1e1
 4880 167e 00       		.byte	0
 4881 167f 11       		.uleb128 0x11
 4882 1680 04       		.byte	0x4
 4883 1681 56160000 		.4byte	0x1656
 4884 1685 1F       		.uleb128 0x1f
 4885 1686 9A160000 		.4byte	0x169a
 4886 168a 14       		.uleb128 0x14
 4887 168b 34160000 		.4byte	0x1634
 4888 168f 14       		.uleb128 0x14
 4889 1690 81070000 		.4byte	0x781
 4890 1694 14       		.uleb128 0x14
 4891 1695 E4000000 		.4byte	0xe4
ARM GAS  C:\Users\haske\AppData\Local\Temp\ccOknJt1.s 			page 109


 4892 1699 00       		.byte	0
 4893 169a 11       		.uleb128 0x11
 4894 169b 04       		.byte	0x4
 4895 169c 85160000 		.4byte	0x1685
 4896 16a0 1F       		.uleb128 0x1f
 4897 16a1 B5160000 		.4byte	0x16b5
 4898 16a5 14       		.uleb128 0x14
 4899 16a6 34160000 		.4byte	0x1634
 4900 16aa 14       		.uleb128 0x14
 4901 16ab E4000000 		.4byte	0xe4
 4902 16af 14       		.uleb128 0x14
 4903 16b0 E4000000 		.4byte	0xe4
 4904 16b4 00       		.byte	0
 4905 16b5 11       		.uleb128 0x11
 4906 16b6 04       		.byte	0x4
 4907 16b7 A0160000 		.4byte	0x16a0
 4908 16bb 1F       		.uleb128 0x1f
 4909 16bc C6160000 		.4byte	0x16c6
 4910 16c0 14       		.uleb128 0x14
 4911 16c1 34160000 		.4byte	0x1634
 4912 16c5 00       		.byte	0
 4913 16c6 11       		.uleb128 0x11
 4914 16c7 04       		.byte	0x4
 4915 16c8 BB160000 		.4byte	0x16bb
 4916 16cc 11       		.uleb128 0x11
 4917 16cd 04       		.byte	0x4
 4918 16ce 92110000 		.4byte	0x1192
 4919 16d2 1F       		.uleb128 0x1f
 4920 16d3 E2160000 		.4byte	0x16e2
 4921 16d7 14       		.uleb128 0x14
 4922 16d8 34160000 		.4byte	0x1634
 4923 16dc 14       		.uleb128 0x14
 4924 16dd CC160000 		.4byte	0x16cc
 4925 16e1 00       		.byte	0
 4926 16e2 11       		.uleb128 0x11
 4927 16e3 04       		.byte	0x4
 4928 16e4 D2160000 		.4byte	0x16d2
 4929 16e8 23       		.uleb128 0x23
 4930 16e9 EA1A0000 		.4byte	.LASF503
 4931 16ed 11       		.uleb128 0x11
 4932 16ee 04       		.byte	0x4
 4933 16ef E8160000 		.4byte	0x16e8
 4934 16f3 11       		.uleb128 0x11
 4935 16f4 04       		.byte	0x4
 4936 16f5 FF080000 		.4byte	0x8ff
 4937 16f9 16       		.uleb128 0x16
 4938 16fa 54020000 		.4byte	0x254
 4939 16fe 09170000 		.4byte	0x1709
 4940 1702 17       		.uleb128 0x17
 4941 1703 0C010000 		.4byte	0x10c
 4942 1707 1F       		.byte	0x1f
 4943 1708 00       		.byte	0
 4944 1709 16       		.uleb128 0x16
 4945 170a B8000000 		.4byte	0xb8
 4946 170e 19170000 		.4byte	0x1719
 4947 1712 17       		.uleb128 0x17
 4948 1713 0C010000 		.4byte	0x10c
ARM GAS  C:\Users\haske\AppData\Local\Temp\ccOknJt1.s 			page 110


 4949 1717 1F       		.byte	0x1f
 4950 1718 00       		.byte	0
 4951 1719 02       		.uleb128 0x2
 4952 171a 71000000 		.4byte	.LASF409
 4953 171e 16       		.byte	0x16
 4954 171f C2       		.byte	0xc2
 4955 1720 22120000 		.4byte	0x1222
 4956 1724 02       		.uleb128 0x2
 4957 1725 5B050000 		.4byte	.LASF410
 4958 1729 0D       		.byte	0xd
 4959 172a 3C       		.byte	0x3c
 4960 172b CE000000 		.4byte	0xce
 4961 172f 02       		.uleb128 0x2
 4962 1730 741E0000 		.4byte	.LASF411
 4963 1734 0D       		.byte	0xd
 4964 1735 7D       		.byte	0x7d
 4965 1736 E4000000 		.4byte	0xe4
 4966 173a 02       		.uleb128 0x2
 4967 173b 1B010000 		.4byte	.LASF412
 4968 173f 19       		.byte	0x19
 4969 1740 26       		.byte	0x26
 4970 1741 B8000000 		.4byte	0xb8
 4971 1745 02       		.uleb128 0x2
 4972 1746 3A160000 		.4byte	.LASF413
 4973 174a 19       		.byte	0x19
 4974 174b 30       		.byte	0x30
 4975 174c B8000000 		.4byte	0xb8
 4976 1750 08       		.uleb128 0x8
 4977 1751 08       		.byte	0x8
 4978 1752 1A       		.byte	0x1a
 4979 1753 27       		.byte	0x27
 4980 1754 92170000 		.4byte	0x1792
 4981 1758 0F       		.uleb128 0xf
 4982 1759 23160000 		.4byte	.LASF414
 4983 175d 1A       		.byte	0x1a
 4984 175e 28       		.byte	0x28
 4985 175f 92170000 		.4byte	0x1792
 4986 1763 00       		.byte	0
 4987 1764 09       		.uleb128 0x9
 4988 1765 9E1F0000 		.4byte	.LASF415
 4989 1769 1A       		.byte	0x1a
 4990 176a 29       		.byte	0x29
 4991 176b E4000000 		.4byte	0xe4
 4992 176f 04       		.byte	0x4
 4993 1770 18       		.byte	0x18
 4994 1771 08       		.byte	0x8
 4995 1772 04       		.byte	0x4
 4996 1773 09       		.uleb128 0x9
 4997 1774 4A020000 		.4byte	.LASF416
 4998 1778 1A       		.byte	0x1a
 4999 1779 2A       		.byte	0x2a
 5000 177a E4000000 		.4byte	0xe4
 5001 177e 04       		.byte	0x4
 5002 177f 01       		.byte	0x1
 5003 1780 07       		.byte	0x7
 5004 1781 04       		.byte	0x4
 5005 1782 09       		.uleb128 0x9
ARM GAS  C:\Users\haske\AppData\Local\Temp\ccOknJt1.s 			page 111


 5006 1783 F90C0000 		.4byte	.LASF417
 5007 1787 1A       		.byte	0x1a
 5008 1788 2B       		.byte	0x2b
 5009 1789 E4000000 		.4byte	0xe4
 5010 178d 04       		.byte	0x4
 5011 178e 01       		.byte	0x1
 5012 178f 06       		.byte	0x6
 5013 1790 04       		.byte	0x4
 5014 1791 00       		.byte	0
 5015 1792 11       		.uleb128 0x11
 5016 1793 04       		.byte	0x4
 5017 1794 D0070000 		.4byte	0x7d0
 5018 1798 02       		.uleb128 0x2
 5019 1799 E20A0000 		.4byte	.LASF418
 5020 179d 1A       		.byte	0x1a
 5021 179e 2C       		.byte	0x2c
 5022 179f 50170000 		.4byte	0x1750
 5023 17a3 10       		.uleb128 0x10
 5024 17a4 FC170000 		.4byte	.LASF419
 5025 17a8 1C       		.byte	0x1c
 5026 17a9 1B       		.byte	0x1b
 5027 17aa 31       		.byte	0x31
 5028 17ab 31180000 		.4byte	0x1831
 5029 17af 0F       		.uleb128 0xf
 5030 17b0 E3140000 		.4byte	.LASF420
 5031 17b4 1B       		.byte	0x1b
 5032 17b5 32       		.byte	0x32
 5033 17b6 31180000 		.4byte	0x1831
 5034 17ba 00       		.byte	0
 5035 17bb 0F       		.uleb128 0xf
 5036 17bc 9E020000 		.4byte	.LASF421
 5037 17c0 1B       		.byte	0x1b
 5038 17c1 33       		.byte	0x33
 5039 17c2 D4180000 		.4byte	0x18d4
 5040 17c6 04       		.byte	0x4
 5041 17c7 0F       		.uleb128 0xf
 5042 17c8 8C1A0000 		.4byte	.LASF422
 5043 17cc 1B       		.byte	0x1b
 5044 17cd 34       		.byte	0x34
 5045 17ce D4180000 		.4byte	0x18d4
 5046 17d2 08       		.byte	0x8
 5047 17d3 0F       		.uleb128 0xf
 5048 17d4 291F0000 		.4byte	.LASF64
 5049 17d8 1B       		.byte	0x1b
 5050 17d9 36       		.byte	0x36
 5051 17da 13010000 		.4byte	0x113
 5052 17de 0C       		.byte	0xc
 5053 17df 0F       		.uleb128 0xf
 5054 17e0 92100000 		.4byte	.LASF423
 5055 17e4 1B       		.byte	0x1b
 5056 17e5 38       		.byte	0x38
 5057 17e6 EA180000 		.4byte	0x18ea
 5058 17ea 10       		.byte	0x10
 5059 17eb 0F       		.uleb128 0xf
 5060 17ec 550D0000 		.4byte	.LASF424
 5061 17f0 1B       		.byte	0x1b
 5062 17f1 3A       		.byte	0x3a
ARM GAS  C:\Users\haske\AppData\Local\Temp\ccOknJt1.s 			page 112


 5063 17f2 EC010000 		.4byte	0x1ec
 5064 17f6 14       		.byte	0x14
 5065 17f7 0F       		.uleb128 0xf
 5066 17f8 FE1F0000 		.4byte	.LASF425
 5067 17fc 1B       		.byte	0x1b
 5068 17fd 3B       		.byte	0x3b
 5069 17fe EC010000 		.4byte	0x1ec
 5070 1802 16       		.byte	0x16
 5071 1803 09       		.uleb128 0x9
 5072 1804 D90E0000 		.4byte	.LASF426
 5073 1808 1B       		.byte	0x1b
 5074 1809 3C       		.byte	0x3c
 5075 180a E4000000 		.4byte	0xe4
 5076 180e 04       		.byte	0x4
 5077 180f 02       		.byte	0x2
 5078 1810 1E       		.byte	0x1e
 5079 1811 18       		.byte	0x18
 5080 1812 09       		.uleb128 0x9
 5081 1813 EC040000 		.4byte	.LASF427
 5082 1817 1B       		.byte	0x1b
 5083 1818 3D       		.byte	0x3d
 5084 1819 E4000000 		.4byte	0xe4
 5085 181d 04       		.byte	0x4
 5086 181e 02       		.byte	0x2
 5087 181f 1C       		.byte	0x1c
 5088 1820 18       		.byte	0x18
 5089 1821 09       		.uleb128 0x9
 5090 1822 810F0000 		.4byte	.LASF428
 5091 1826 1B       		.byte	0x1b
 5092 1827 3E       		.byte	0x3e
 5093 1828 E4000000 		.4byte	0xe4
 5094 182c 04       		.byte	0x4
 5095 182d 10       		.byte	0x10
 5096 182e 0C       		.byte	0xc
 5097 182f 18       		.byte	0x18
 5098 1830 00       		.byte	0
 5099 1831 11       		.uleb128 0x11
 5100 1832 04       		.byte	0x4
 5101 1833 37180000 		.4byte	0x1837
 5102 1837 12       		.uleb128 0x12
 5103 1838 A3170000 		.4byte	0x17a3
 5104 183c 11       		.uleb128 0x11
 5105 183d 04       		.byte	0x4
 5106 183e 42180000 		.4byte	0x1842
 5107 1842 10       		.uleb128 0x10
 5108 1843 BB100000 		.4byte	.LASF429
 5109 1847 1C       		.byte	0x1c
 5110 1848 1C       		.byte	0x1c
 5111 1849 5E       		.byte	0x5e
 5112 184a C4180000 		.4byte	0x18c4
 5113 184e 0F       		.uleb128 0xf
 5114 184f 960E0000 		.4byte	.LASF430
 5115 1853 1C       		.byte	0x1c
 5116 1854 5F       		.byte	0x5f
 5117 1855 FF080000 		.4byte	0x8ff
 5118 1859 00       		.byte	0
 5119 185a 0F       		.uleb128 0xf
ARM GAS  C:\Users\haske\AppData\Local\Temp\ccOknJt1.s 			page 113


 5120 185b B50F0000 		.4byte	.LASF431
 5121 185f 1C       		.byte	0x1c
 5122 1860 60       		.byte	0x60
 5123 1861 FF080000 		.4byte	0x8ff
 5124 1865 04       		.byte	0x4
 5125 1866 0F       		.uleb128 0xf
 5126 1867 4B160000 		.4byte	.LASF432
 5127 186b 1C       		.byte	0x1c
 5128 186c 61       		.byte	0x61
 5129 186d 221A0000 		.4byte	0x1a22
 5130 1871 08       		.byte	0x8
 5131 1872 0F       		.uleb128 0xf
 5132 1873 291F0000 		.4byte	.LASF64
 5133 1877 1C       		.byte	0x1c
 5134 1878 62       		.byte	0x62
 5135 1879 13010000 		.4byte	0x113
 5136 187d 0C       		.byte	0xc
 5137 187e 0F       		.uleb128 0xf
 5138 187f 900E0000 		.4byte	.LASF433
 5139 1883 1C       		.byte	0x1c
 5140 1884 63       		.byte	0x63
 5141 1885 13010000 		.4byte	0x113
 5142 1889 10       		.byte	0x10
 5143 188a 0F       		.uleb128 0xf
 5144 188b 5E200000 		.4byte	.LASF434
 5145 188f 1C       		.byte	0x1c
 5146 1890 64       		.byte	0x64
 5147 1891 3C180000 		.4byte	0x183c
 5148 1895 14       		.byte	0x14
 5149 1896 09       		.uleb128 0x9
 5150 1897 E2100000 		.4byte	.LASF435
 5151 189b 1C       		.byte	0x1c
 5152 189c 65       		.byte	0x65
 5153 189d B8000000 		.4byte	0xb8
 5154 18a1 01       		.byte	0x1
 5155 18a2 01       		.byte	0x1
 5156 18a3 07       		.byte	0x7
 5157 18a4 18       		.byte	0x18
 5158 18a5 09       		.uleb128 0x9
 5159 18a6 17090000 		.4byte	.LASF436
 5160 18aa 1C       		.byte	0x1c
 5161 18ab 66       		.byte	0x66
 5162 18ac B8000000 		.4byte	0xb8
 5163 18b0 01       		.byte	0x1
 5164 18b1 01       		.byte	0x1
 5165 18b2 06       		.byte	0x6
 5166 18b3 18       		.byte	0x18
 5167 18b4 09       		.uleb128 0x9
 5168 18b5 34140000 		.4byte	.LASF437
 5169 18b9 1C       		.byte	0x1c
 5170 18ba 67       		.byte	0x67
 5171 18bb B8000000 		.4byte	0xb8
 5172 18bf 01       		.byte	0x1
 5173 18c0 01       		.byte	0x1
 5174 18c1 05       		.byte	0x5
 5175 18c2 18       		.byte	0x18
 5176 18c3 00       		.byte	0
ARM GAS  C:\Users\haske\AppData\Local\Temp\ccOknJt1.s 			page 114


 5177 18c4 1F       		.uleb128 0x1f
 5178 18c5 D4180000 		.4byte	0x18d4
 5179 18c9 14       		.uleb128 0x14
 5180 18ca 31180000 		.4byte	0x1831
 5181 18ce 14       		.uleb128 0x14
 5182 18cf FF080000 		.4byte	0x8ff
 5183 18d3 00       		.byte	0
 5184 18d4 11       		.uleb128 0x11
 5185 18d5 04       		.byte	0x4
 5186 18d6 C4180000 		.4byte	0x18c4
 5187 18da 1F       		.uleb128 0x1f
 5188 18db EA180000 		.4byte	0x18ea
 5189 18df 14       		.uleb128 0x14
 5190 18e0 31180000 		.4byte	0x1831
 5191 18e4 14       		.uleb128 0x14
 5192 18e5 3C180000 		.4byte	0x183c
 5193 18e9 00       		.byte	0
 5194 18ea 11       		.uleb128 0x11
 5195 18eb 04       		.byte	0x4
 5196 18ec DA180000 		.4byte	0x18da
 5197 18f0 02       		.uleb128 0x2
 5198 18f1 970C0000 		.4byte	.LASF438
 5199 18f5 1B       		.byte	0x1b
 5200 18f6 3F       		.byte	0x3f
 5201 18f7 A3170000 		.4byte	0x17a3
 5202 18fb 06       		.uleb128 0x6
 5203 18fc 01       		.byte	0x1
 5204 18fd 42000000 		.4byte	0x42
 5205 1901 1C       		.byte	0x1c
 5206 1902 20       		.byte	0x20
 5207 1903 221A0000 		.4byte	0x1a22
 5208 1907 07       		.uleb128 0x7
 5209 1908 7E040000 		.4byte	.LASF439
 5210 190c 00       		.byte	0
 5211 190d 07       		.uleb128 0x7
 5212 190e C9160000 		.4byte	.LASF440
 5213 1912 01       		.byte	0x1
 5214 1913 07       		.uleb128 0x7
 5215 1914 AE160000 		.4byte	.LASF441
 5216 1918 02       		.byte	0x2
 5217 1919 07       		.uleb128 0x7
 5218 191a 331F0000 		.4byte	.LASF442
 5219 191e 03       		.byte	0x3
 5220 191f 07       		.uleb128 0x7
 5221 1920 77030000 		.4byte	.LASF443
 5222 1924 04       		.byte	0x4
 5223 1925 07       		.uleb128 0x7
 5224 1926 FA020000 		.4byte	.LASF444
 5225 192a 05       		.byte	0x5
 5226 192b 07       		.uleb128 0x7
 5227 192c F9140000 		.4byte	.LASF445
 5228 1930 06       		.byte	0x6
 5229 1931 07       		.uleb128 0x7
 5230 1932 751F0000 		.4byte	.LASF446
 5231 1936 07       		.byte	0x7
 5232 1937 07       		.uleb128 0x7
 5233 1938 9C200000 		.4byte	.LASF447
ARM GAS  C:\Users\haske\AppData\Local\Temp\ccOknJt1.s 			page 115


 5234 193c 08       		.byte	0x8
 5235 193d 07       		.uleb128 0x7
 5236 193e BE110000 		.4byte	.LASF448
 5237 1942 09       		.byte	0x9
 5238 1943 07       		.uleb128 0x7
 5239 1944 181D0000 		.4byte	.LASF449
 5240 1948 0A       		.byte	0xa
 5241 1949 07       		.uleb128 0x7
 5242 194a F0100000 		.4byte	.LASF450
 5243 194e 0B       		.byte	0xb
 5244 194f 07       		.uleb128 0x7
 5245 1950 E9020000 		.4byte	.LASF451
 5246 1954 0C       		.byte	0xc
 5247 1955 07       		.uleb128 0x7
 5248 1956 F11E0000 		.4byte	.LASF452
 5249 195a 0D       		.byte	0xd
 5250 195b 07       		.uleb128 0x7
 5251 195c AF1F0000 		.4byte	.LASF453
 5252 1960 0E       		.byte	0xe
 5253 1961 07       		.uleb128 0x7
 5254 1962 4B1D0000 		.4byte	.LASF454
 5255 1966 0F       		.byte	0xf
 5256 1967 07       		.uleb128 0x7
 5257 1968 370E0000 		.4byte	.LASF455
 5258 196c 10       		.byte	0x10
 5259 196d 07       		.uleb128 0x7
 5260 196e 2A0A0000 		.4byte	.LASF456
 5261 1972 11       		.byte	0x11
 5262 1973 07       		.uleb128 0x7
 5263 1974 C3090000 		.4byte	.LASF457
 5264 1978 12       		.byte	0x12
 5265 1979 07       		.uleb128 0x7
 5266 197a E20F0000 		.4byte	.LASF458
 5267 197e 13       		.byte	0x13
 5268 197f 07       		.uleb128 0x7
 5269 1980 7B000000 		.4byte	.LASF459
 5270 1984 14       		.byte	0x14
 5271 1985 07       		.uleb128 0x7
 5272 1986 1E070000 		.4byte	.LASF460
 5273 198a 15       		.byte	0x15
 5274 198b 07       		.uleb128 0x7
 5275 198c BC0C0000 		.4byte	.LASF461
 5276 1990 16       		.byte	0x16
 5277 1991 07       		.uleb128 0x7
 5278 1992 75120000 		.4byte	.LASF462
 5279 1996 17       		.byte	0x17
 5280 1997 07       		.uleb128 0x7
 5281 1998 391E0000 		.4byte	.LASF463
 5282 199c 18       		.byte	0x18
 5283 199d 07       		.uleb128 0x7
 5284 199e 8E1B0000 		.4byte	.LASF464
 5285 19a2 19       		.byte	0x19
 5286 19a3 07       		.uleb128 0x7
 5287 19a4 A51B0000 		.4byte	.LASF465
 5288 19a8 1A       		.byte	0x1a
 5289 19a9 07       		.uleb128 0x7
 5290 19aa DD050000 		.4byte	.LASF466
ARM GAS  C:\Users\haske\AppData\Local\Temp\ccOknJt1.s 			page 116


 5291 19ae 1B       		.byte	0x1b
 5292 19af 07       		.uleb128 0x7
 5293 19b0 45130000 		.4byte	.LASF467
 5294 19b4 1C       		.byte	0x1c
 5295 19b5 07       		.uleb128 0x7
 5296 19b6 39010000 		.4byte	.LASF468
 5297 19ba 1D       		.byte	0x1d
 5298 19bb 07       		.uleb128 0x7
 5299 19bc 700F0000 		.4byte	.LASF469
 5300 19c0 1E       		.byte	0x1e
 5301 19c1 07       		.uleb128 0x7
 5302 19c2 201E0000 		.4byte	.LASF470
 5303 19c6 1F       		.byte	0x1f
 5304 19c7 07       		.uleb128 0x7
 5305 19c8 F0160000 		.4byte	.LASF471
 5306 19cc 20       		.byte	0x20
 5307 19cd 07       		.uleb128 0x7
 5308 19ce 5D120000 		.4byte	.LASF472
 5309 19d2 21       		.byte	0x21
 5310 19d3 07       		.uleb128 0x7
 5311 19d4 F9010000 		.4byte	.LASF473
 5312 19d8 22       		.byte	0x22
 5313 19d9 07       		.uleb128 0x7
 5314 19da 43030000 		.4byte	.LASF474
 5315 19de 23       		.byte	0x23
 5316 19df 07       		.uleb128 0x7
 5317 19e0 C40F0000 		.4byte	.LASF475
 5318 19e4 24       		.byte	0x24
 5319 19e5 07       		.uleb128 0x7
 5320 19e6 09200000 		.4byte	.LASF476
 5321 19ea 25       		.byte	0x25
 5322 19eb 07       		.uleb128 0x7
 5323 19ec 19140000 		.4byte	.LASF477
 5324 19f0 26       		.byte	0x26
 5325 19f1 07       		.uleb128 0x7
 5326 19f2 BA0A0000 		.4byte	.LASF478
 5327 19f6 27       		.byte	0x27
 5328 19f7 07       		.uleb128 0x7
 5329 19f8 FD190000 		.4byte	.LASF479
 5330 19fc 28       		.byte	0x28
 5331 19fd 07       		.uleb128 0x7
 5332 19fe 821E0000 		.4byte	.LASF480
 5333 1a02 29       		.byte	0x29
 5334 1a03 07       		.uleb128 0x7
 5335 1a04 091E0000 		.4byte	.LASF481
 5336 1a08 2A       		.byte	0x2a
 5337 1a09 07       		.uleb128 0x7
 5338 1a0a B51E0000 		.4byte	.LASF482
 5339 1a0e 2B       		.byte	0x2b
 5340 1a0f 07       		.uleb128 0x7
 5341 1a10 07070000 		.4byte	.LASF483
 5342 1a14 2C       		.byte	0x2c
 5343 1a15 07       		.uleb128 0x7
 5344 1a16 59170000 		.4byte	.LASF484
 5345 1a1a 2D       		.byte	0x2d
 5346 1a1b 07       		.uleb128 0x7
 5347 1a1c B9130000 		.4byte	.LASF485
ARM GAS  C:\Users\haske\AppData\Local\Temp\ccOknJt1.s 			page 117


 5348 1a20 80       		.byte	0x80
 5349 1a21 00       		.byte	0
 5350 1a22 02       		.uleb128 0x2
 5351 1a23 9B100000 		.4byte	.LASF486
 5352 1a27 1C       		.byte	0x1c
 5353 1a28 5C       		.byte	0x5c
 5354 1a29 FB180000 		.4byte	0x18fb
 5355 1a2d 02       		.uleb128 0x2
 5356 1a2e E8170000 		.4byte	.LASF487
 5357 1a32 17       		.byte	0x17
 5358 1a33 34       		.byte	0x34
 5359 1a34 381A0000 		.4byte	0x1a38
 5360 1a38 11       		.uleb128 0x11
 5361 1a39 04       		.byte	0x4
 5362 1a3a 3E1A0000 		.4byte	0x1a3e
 5363 1a3e 1F       		.uleb128 0x1f
 5364 1a3f 491A0000 		.4byte	0x1a49
 5365 1a43 14       		.uleb128 0x14
 5366 1a44 C4130000 		.4byte	0x13c4
 5367 1a48 00       		.byte	0
 5368 1a49 02       		.uleb128 0x2
 5369 1a4a 110C0000 		.4byte	.LASF488
 5370 1a4e 17       		.byte	0x17
 5371 1a4f 35       		.byte	0x35
 5372 1a50 541A0000 		.4byte	0x1a54
 5373 1a54 11       		.uleb128 0x11
 5374 1a55 04       		.byte	0x4
 5375 1a56 5A1A0000 		.4byte	0x1a5a
 5376 1a5a 1F       		.uleb128 0x1f
 5377 1a5b 6A1A0000 		.4byte	0x1a6a
 5378 1a5f 14       		.uleb128 0x14
 5379 1a60 C4130000 		.4byte	0x13c4
 5380 1a64 14       		.uleb128 0x14
 5381 1a65 95030000 		.4byte	0x395
 5382 1a69 00       		.byte	0
 5383 1a6a 02       		.uleb128 0x2
 5384 1a6b 82070000 		.4byte	.LASF489
 5385 1a6f 17       		.byte	0x17
 5386 1a70 4E       		.byte	0x4e
 5387 1a71 3F130000 		.4byte	0x133f
 5388 1a75 08       		.uleb128 0x8
 5389 1a76 1C       		.byte	0x1c
 5390 1a77 0D       		.byte	0xd
 5391 1a78 9B       		.byte	0x9b
 5392 1a79 2C1B0000 		.4byte	0x1b2c
 5393 1a7d 0F       		.uleb128 0xf
 5394 1a7e 6E030000 		.4byte	.LASF490
 5395 1a82 0D       		.byte	0xd
 5396 1a83 9C       		.byte	0x9c
 5397 1a84 F3160000 		.4byte	0x16f3
 5398 1a88 00       		.byte	0
 5399 1a89 0F       		.uleb128 0xf
 5400 1a8a 040E0000 		.4byte	.LASF491
 5401 1a8e 0D       		.byte	0xd
 5402 1a8f 9D       		.byte	0x9d
 5403 1a90 E4000000 		.4byte	0xe4
 5404 1a94 04       		.byte	0x4
ARM GAS  C:\Users\haske\AppData\Local\Temp\ccOknJt1.s 			page 118


 5405 1a95 0F       		.uleb128 0xf
 5406 1a96 620B0000 		.4byte	.LASF492
 5407 1a9a 0D       		.byte	0xd
 5408 1a9b 9E       		.byte	0x9e
 5409 1a9c 2C1B0000 		.4byte	0x1b2c
 5410 1aa0 08       		.byte	0x8
 5411 1aa1 0F       		.uleb128 0xf
 5412 1aa2 FE0A0000 		.4byte	.LASF493
 5413 1aa6 0D       		.byte	0xd
 5414 1aa7 A0       		.byte	0xa0
 5415 1aa8 371B0000 		.4byte	0x1b37
 5416 1aac 0C       		.byte	0xc
 5417 1aad 0F       		.uleb128 0xf
 5418 1aae 860B0000 		.4byte	.LASF494
 5419 1ab2 0D       		.byte	0xd
 5420 1ab3 A1       		.byte	0xa1
 5421 1ab4 14020000 		.4byte	0x214
 5422 1ab8 10       		.byte	0x10
 5423 1ab9 0F       		.uleb128 0xf
 5424 1aba 2B1C0000 		.4byte	.LASF495
 5425 1abe 0D       		.byte	0xd
 5426 1abf A3       		.byte	0xa3
 5427 1ac0 EC010000 		.4byte	0x1ec
 5428 1ac4 14       		.byte	0x14
 5429 1ac5 0F       		.uleb128 0xf
 5430 1ac6 030C0000 		.4byte	.LASF496
 5431 1aca 0D       		.byte	0xd
 5432 1acb A4       		.byte	0xa4
 5433 1acc EC010000 		.4byte	0x1ec
 5434 1ad0 16       		.byte	0x16
 5435 1ad1 09       		.uleb128 0x9
 5436 1ad2 2B080000 		.4byte	.LASF497
 5437 1ad6 0D       		.byte	0xd
 5438 1ad7 A6       		.byte	0xa6
 5439 1ad8 3A170000 		.4byte	0x173a
 5440 1adc 01       		.byte	0x1
 5441 1add 02       		.byte	0x2
 5442 1ade 06       		.byte	0x6
 5443 1adf 18       		.byte	0x18
 5444 1ae0 09       		.uleb128 0x9
 5445 1ae1 A8010000 		.4byte	.LASF498
 5446 1ae5 0D       		.byte	0xd
 5447 1ae6 A7       		.byte	0xa7
 5448 1ae7 45170000 		.4byte	0x1745
 5449 1aeb 01       		.byte	0x1
 5450 1aec 02       		.byte	0x2
 5451 1aed 04       		.byte	0x4
 5452 1aee 18       		.byte	0x18
 5453 1aef 09       		.uleb128 0x9
 5454 1af0 580E0000 		.4byte	.LASF499
 5455 1af4 0D       		.byte	0xd
 5456 1af5 A8       		.byte	0xa8
 5457 1af6 45170000 		.4byte	0x1745
 5458 1afa 01       		.byte	0x1
 5459 1afb 02       		.byte	0x2
 5460 1afc 02       		.byte	0x2
 5461 1afd 18       		.byte	0x18
ARM GAS  C:\Users\haske\AppData\Local\Temp\ccOknJt1.s 			page 119


 5462 1afe 09       		.uleb128 0x9
 5463 1aff E1040000 		.4byte	.LASF500
 5464 1b03 0D       		.byte	0xd
 5465 1b04 A9       		.byte	0xa9
 5466 1b05 5F020000 		.4byte	0x25f
 5467 1b09 01       		.byte	0x1
 5468 1b0a 04       		.byte	0x4
 5469 1b0b 04       		.byte	0x4
 5470 1b0c 19       		.byte	0x19
 5471 1b0d 09       		.uleb128 0x9
 5472 1b0e 01210000 		.4byte	.LASF501
 5473 1b12 0D       		.byte	0xd
 5474 1b13 AA       		.byte	0xaa
 5475 1b14 B8000000 		.4byte	0xb8
 5476 1b18 01       		.byte	0x1
 5477 1b19 06       		.byte	0x6
 5478 1b1a 02       		.byte	0x2
 5479 1b1b 1A       		.byte	0x1a
 5480 1b1c 09       		.uleb128 0x9
 5481 1b1d B80B0000 		.4byte	.LASF502
 5482 1b21 0D       		.byte	0xd
 5483 1b22 AB       		.byte	0xab
 5484 1b23 B8000000 		.4byte	0xb8
 5485 1b27 01       		.byte	0x1
 5486 1b28 02       		.byte	0x2
 5487 1b29 00       		.byte	0
 5488 1b2a 1A       		.byte	0x1a
 5489 1b2b 00       		.byte	0
 5490 1b2c 11       		.uleb128 0x11
 5491 1b2d 04       		.byte	0x4
 5492 1b2e 6A1A0000 		.4byte	0x1a6a
 5493 1b32 23       		.uleb128 0x23
 5494 1b33 471F0000 		.4byte	.LASF504
 5495 1b37 11       		.uleb128 0x11
 5496 1b38 04       		.byte	0x4
 5497 1b39 321B0000 		.4byte	0x1b32
 5498 1b3d 02       		.uleb128 0x2
 5499 1b3e 8D070000 		.4byte	.LASF505
 5500 1b42 0D       		.byte	0xd
 5501 1b43 AC       		.byte	0xac
 5502 1b44 751A0000 		.4byte	0x1a75
 5503 1b48 11       		.uleb128 0x11
 5504 1b49 04       		.byte	0x4
 5505 1b4a 4E1B0000 		.4byte	0x1b4e
 5506 1b4e 12       		.uleb128 0x12
 5507 1b4f F0180000 		.4byte	0x18f0
 5508 1b53 11       		.uleb128 0x11
 5509 1b54 04       		.byte	0x4
 5510 1b55 3D1B0000 		.4byte	0x1b3d
 5511 1b59 11       		.uleb128 0x11
 5512 1b5a 04       		.byte	0x4
 5513 1b5b 98170000 		.4byte	0x1798
 5514 1b5f 08       		.uleb128 0x8
 5515 1b60 2C       		.byte	0x2c
 5516 1b61 01       		.byte	0x1
 5517 1b62 16       		.byte	0x16
 5518 1b63 EC1B0000 		.4byte	0x1bec
ARM GAS  C:\Users\haske\AppData\Local\Temp\ccOknJt1.s 			page 120


 5519 1b67 0F       		.uleb128 0xf
 5520 1b68 0A160000 		.4byte	.LASF506
 5521 1b6c 01       		.byte	0x1
 5522 1b6d 17       		.byte	0x17
 5523 1b6e D9000000 		.4byte	0xd9
 5524 1b72 00       		.byte	0
 5525 1b73 0F       		.uleb128 0xf
 5526 1b74 C0040000 		.4byte	.LASF507
 5527 1b78 01       		.byte	0x1
 5528 1b79 18       		.byte	0x18
 5529 1b7a D9000000 		.4byte	0xd9
 5530 1b7e 04       		.byte	0x4
 5531 1b7f 0F       		.uleb128 0xf
 5532 1b80 8B040000 		.4byte	.LASF508
 5533 1b84 01       		.byte	0x1
 5534 1b85 19       		.byte	0x19
 5535 1b86 D9000000 		.4byte	0xd9
 5536 1b8a 08       		.byte	0x8
 5537 1b8b 0F       		.uleb128 0xf
 5538 1b8c 2E1B0000 		.4byte	.LASF509
 5539 1b90 01       		.byte	0x1
 5540 1b91 1A       		.byte	0x1a
 5541 1b92 D9000000 		.4byte	0xd9
 5542 1b96 0C       		.byte	0xc
 5543 1b97 0F       		.uleb128 0xf
 5544 1b98 6E1E0000 		.4byte	.LASF510
 5545 1b9c 01       		.byte	0x1
 5546 1b9d 1B       		.byte	0x1b
 5547 1b9e D9000000 		.4byte	0xd9
 5548 1ba2 10       		.byte	0x10
 5549 1ba3 0F       		.uleb128 0xf
 5550 1ba4 3D030000 		.4byte	.LASF511
 5551 1ba8 01       		.byte	0x1
 5552 1ba9 1C       		.byte	0x1c
 5553 1baa D9000000 		.4byte	0xd9
 5554 1bae 14       		.byte	0x14
 5555 1baf 0F       		.uleb128 0xf
 5556 1bb0 630F0000 		.4byte	.LASF278
 5557 1bb4 01       		.byte	0x1
 5558 1bb5 1D       		.byte	0x1d
 5559 1bb6 D9000000 		.4byte	0xd9
 5560 1bba 18       		.byte	0x18
 5561 1bbb 0F       		.uleb128 0xf
 5562 1bbc 8F0F0000 		.4byte	.LASF277
 5563 1bc0 01       		.byte	0x1
 5564 1bc1 1E       		.byte	0x1e
 5565 1bc2 D9000000 		.4byte	0xd9
 5566 1bc6 1C       		.byte	0x1c
 5567 1bc7 0F       		.uleb128 0xf
 5568 1bc8 28120000 		.4byte	.LASF512
 5569 1bcc 01       		.byte	0x1
 5570 1bcd 1F       		.byte	0x1f
 5571 1bce D9000000 		.4byte	0xd9
 5572 1bd2 20       		.byte	0x20
 5573 1bd3 0F       		.uleb128 0xf
 5574 1bd4 2A110000 		.4byte	.LASF513
 5575 1bd8 01       		.byte	0x1
ARM GAS  C:\Users\haske\AppData\Local\Temp\ccOknJt1.s 			page 121


 5576 1bd9 20       		.byte	0x20
 5577 1bda D9000000 		.4byte	0xd9
 5578 1bde 24       		.byte	0x24
 5579 1bdf 0F       		.uleb128 0xf
 5580 1be0 581A0000 		.4byte	.LASF279
 5581 1be4 01       		.byte	0x1
 5582 1be5 21       		.byte	0x21
 5583 1be6 14020000 		.4byte	0x214
 5584 1bea 28       		.byte	0x28
 5585 1beb 00       		.byte	0
 5586 1bec 02       		.uleb128 0x2
 5587 1bed 0A0D0000 		.4byte	.LASF514
 5588 1bf1 01       		.byte	0x1
 5589 1bf2 22       		.byte	0x22
 5590 1bf3 5F1B0000 		.4byte	0x1b5f
 5591 1bf7 24       		.uleb128 0x24
 5592 1bf8 67100000 		.4byte	.LASF516
 5593 1bfc 02       		.byte	0x2
 5594 1bfd B701     		.2byte	0x1b7
 5595 1bff D6010000 		.4byte	0x1d6
 5596 1c03 03       		.byte	0x3
 5597 1c04 591C0000 		.4byte	0x1c59
 5598 1c08 25       		.uleb128 0x25
 5599 1c09 633100   		.ascii	"c1\000"
 5600 1c0c 02       		.byte	0x2
 5601 1c0d B701     		.2byte	0x1b7
 5602 1c0f D6010000 		.4byte	0x1d6
 5603 1c13 25       		.uleb128 0x25
 5604 1c14 633200   		.ascii	"c2\000"
 5605 1c17 02       		.byte	0x2
 5606 1c18 B701     		.2byte	0x1b7
 5607 1c1a D6010000 		.4byte	0x1d6
 5608 1c1e 25       		.uleb128 0x25
 5609 1c1f 6D697800 		.ascii	"mix\000"
 5610 1c23 02       		.byte	0x2
 5611 1c24 B701     		.2byte	0x1b7
 5612 1c26 B8000000 		.4byte	0xb8
 5613 1c2a 26       		.uleb128 0x26
 5614 1c2b 72657400 		.ascii	"ret\000"
 5615 1c2f 02       		.byte	0x2
 5616 1c30 B901     		.2byte	0x1b9
 5617 1c32 D6010000 		.4byte	0x1d6
 5618 1c36 26       		.uleb128 0x26
 5619 1c37 626700   		.ascii	"bg\000"
 5620 1c3a 02       		.byte	0x2
 5621 1c3b BE01     		.2byte	0x1be
 5622 1c3d E4000000 		.4byte	0xe4
 5623 1c41 26       		.uleb128 0x26
 5624 1c42 666700   		.ascii	"fg\000"
 5625 1c45 02       		.byte	0x2
 5626 1c46 C001     		.2byte	0x1c0
 5627 1c48 E4000000 		.4byte	0xe4
 5628 1c4c 27       		.uleb128 0x27
 5629 1c4d FE0F0000 		.4byte	.LASF515
 5630 1c51 02       		.byte	0x2
 5631 1c52 C101     		.2byte	0x1c1
 5632 1c54 E4000000 		.4byte	0xe4
ARM GAS  C:\Users\haske\AppData\Local\Temp\ccOknJt1.s 			page 122


 5633 1c58 00       		.byte	0
 5634 1c59 28       		.uleb128 0x28
 5635 1c5a 95180000 		.4byte	.LASF517
 5636 1c5e 03       		.byte	0x3
 5637 1c5f 85       		.byte	0x85
 5638 1c60 EC010000 		.4byte	0x1ec
 5639 1c64 03       		.byte	0x3
 5640 1c65 751C0000 		.4byte	0x1c75
 5641 1c69 29       		.uleb128 0x29
 5642 1c6a B5050000 		.4byte	.LASF518
 5643 1c6e 03       		.byte	0x3
 5644 1c6f 85       		.byte	0x85
 5645 1c70 ED070000 		.4byte	0x7ed
 5646 1c74 00       		.byte	0
 5647 1c75 28       		.uleb128 0x28
 5648 1c76 B01C0000 		.4byte	.LASF519
 5649 1c7a 03       		.byte	0x3
 5650 1c7b 7B       		.byte	0x7b
 5651 1c7c EC010000 		.4byte	0x1ec
 5652 1c80 03       		.byte	0x3
 5653 1c81 911C0000 		.4byte	0x1c91
 5654 1c85 29       		.uleb128 0x29
 5655 1c86 B5050000 		.4byte	.LASF518
 5656 1c8a 03       		.byte	0x3
 5657 1c8b 7B       		.byte	0x7b
 5658 1c8c ED070000 		.4byte	0x7ed
 5659 1c90 00       		.byte	0
 5660 1c91 2A       		.uleb128 0x2a
 5661 1c92 49090000 		.4byte	.LASF535
 5662 1c96 01       		.byte	0x1
 5663 1c97 CB       		.byte	0xcb
 5664 1c98 00000000 		.4byte	.LFB161
 5665 1c9c A2000000 		.4byte	.LFE161-.LFB161
 5666 1ca0 01       		.uleb128 0x1
 5667 1ca1 9C       		.byte	0x9c
 5668 1ca2 B21D0000 		.4byte	0x1db2
 5669 1ca6 2B       		.uleb128 0x2b
 5670 1ca7 73726300 		.ascii	"src\000"
 5671 1cab 01       		.byte	0x1
 5672 1cac CB       		.byte	0xcb
 5673 1cad BC030000 		.4byte	0x3bc
 5674 1cb1 00000000 		.4byte	.LLST0
 5675 1cb5 2C       		.uleb128 0x2c
 5676 1cb6 861A0000 		.4byte	.LASF520
 5677 1cba 01       		.byte	0x1
 5678 1cbb CB       		.byte	0xcb
 5679 1cbc EC010000 		.4byte	0x1ec
 5680 1cc0 2B000000 		.4byte	.LLST1
 5681 1cc4 2C       		.uleb128 0x2c
 5682 1cc5 801A0000 		.4byte	.LASF521
 5683 1cc9 01       		.byte	0x1
 5684 1cca CB       		.byte	0xcb
 5685 1ccb EC010000 		.4byte	0x1ec
 5686 1ccf 4C000000 		.4byte	.LLST2
 5687 1cd3 2C       		.uleb128 0x2c
 5688 1cd4 4E060000 		.4byte	.LASF522
 5689 1cd8 01       		.byte	0x1
ARM GAS  C:\Users\haske\AppData\Local\Temp\ccOknJt1.s 			page 123


 5690 1cd9 CB       		.byte	0xcb
 5691 1cda EC010000 		.4byte	0x1ec
 5692 1cde 6D000000 		.4byte	.LLST3
 5693 1ce2 2C       		.uleb128 0x2c
 5694 1ce3 2A0B0000 		.4byte	.LASF523
 5695 1ce7 01       		.byte	0x1
 5696 1ce8 CC       		.byte	0xcc
 5697 1ce9 D9000000 		.4byte	0xd9
 5698 1ced 8E000000 		.4byte	.LLST4
 5699 1cf1 2C       		.uleb128 0x2c
 5700 1cf2 6E1F0000 		.4byte	.LASF524
 5701 1cf6 01       		.byte	0x1
 5702 1cf7 CC       		.byte	0xcc
 5703 1cf8 D9000000 		.4byte	0xd9
 5704 1cfc EE000000 		.4byte	.LLST5
 5705 1d00 2D       		.uleb128 0x2d
 5706 1d01 66050000 		.4byte	.LASF525
 5707 1d05 01       		.byte	0x1
 5708 1d06 CC       		.byte	0xcc
 5709 1d07 D9000000 		.4byte	0xd9
 5710 1d0b 02       		.uleb128 0x2
 5711 1d0c 91       		.byte	0x91
 5712 1d0d 08       		.sleb128 8
 5713 1d0e 2D       		.uleb128 0x2d
 5714 1d0f F61F0000 		.4byte	.LASF526
 5715 1d13 01       		.byte	0x1
 5716 1d14 CC       		.byte	0xcc
 5717 1d15 D9000000 		.4byte	0xd9
 5718 1d19 02       		.uleb128 0x2
 5719 1d1a 91       		.byte	0x91
 5720 1d1b 0C       		.sleb128 12
 5721 1d1c 2D       		.uleb128 0x2d
 5722 1d1d 510A0000 		.4byte	.LASF527
 5723 1d21 01       		.byte	0x1
 5724 1d22 CD       		.byte	0xcd
 5725 1d23 D9000000 		.4byte	0xd9
 5726 1d27 02       		.uleb128 0x2
 5727 1d28 91       		.byte	0x91
 5728 1d29 10       		.sleb128 16
 5729 1d2a 2D       		.uleb128 0x2d
 5730 1d2b 63180000 		.4byte	.LASF528
 5731 1d2f 01       		.byte	0x1
 5732 1d30 CD       		.byte	0xcd
 5733 1d31 CC090000 		.4byte	0x9cc
 5734 1d35 02       		.uleb128 0x2
 5735 1d36 91       		.byte	0x91
 5736 1d37 14       		.sleb128 20
 5737 1d38 2D       		.uleb128 0x2d
 5738 1d39 28180000 		.4byte	.LASF529
 5739 1d3d 01       		.byte	0x1
 5740 1d3e CD       		.byte	0xcd
 5741 1d3f 81070000 		.4byte	0x781
 5742 1d43 02       		.uleb128 0x2
 5743 1d44 91       		.byte	0x91
 5744 1d45 18       		.sleb128 24
 5745 1d46 2E       		.uleb128 0x2e
 5746 1d47 011D0000 		.4byte	.LASF530
ARM GAS  C:\Users\haske\AppData\Local\Temp\ccOknJt1.s 			page 124


 5747 1d4b 01       		.byte	0x1
 5748 1d4c CF       		.byte	0xcf
 5749 1d4d D9000000 		.4byte	0xd9
 5750 1d51 02       		.uleb128 0x2
 5751 1d52 91       		.byte	0x91
 5752 1d53 00       		.sleb128 0
 5753 1d54 2F       		.uleb128 0x2f
 5754 1d55 00000000 		.4byte	.LASF531
 5755 1d59 01       		.byte	0x1
 5756 1d5a D0       		.byte	0xd0
 5757 1d5b D9000000 		.4byte	0xd9
 5758 1d5f 37010000 		.4byte	.LLST6
 5759 1d63 30       		.uleb128 0x30
 5760 1d64 7800     		.ascii	"x\000"
 5761 1d66 01       		.byte	0x1
 5762 1d67 D2       		.byte	0xd2
 5763 1d68 EC010000 		.4byte	0x1ec
 5764 1d6c 56010000 		.4byte	.LLST7
 5765 1d70 31       		.uleb128 0x31
 5766 1d71 22000000 		.4byte	.LBB19
 5767 1d75 6A000000 		.4byte	.LBE19-.LBB19
 5768 1d79 2F       		.uleb128 0x2f
 5769 1d7a 561C0000 		.4byte	.LASF532
 5770 1d7e 01       		.byte	0x1
 5771 1d7f D7       		.byte	0xd7
 5772 1d80 D9000000 		.4byte	0xd9
 5773 1d84 80010000 		.4byte	.LLST8
 5774 1d88 2F       		.uleb128 0x2f
 5775 1d89 DB0F0000 		.4byte	.LASF533
 5776 1d8d 01       		.byte	0x1
 5777 1d8e D8       		.byte	0xd8
 5778 1d8f D9000000 		.4byte	0xd9
 5779 1d93 E5010000 		.4byte	.LLST9
 5780 1d97 31       		.uleb128 0x31
 5781 1d98 58000000 		.4byte	.LBB20
 5782 1d9c 34000000 		.4byte	.LBE20-.LBB20
 5783 1da0 2F       		.uleb128 0x2f
 5784 1da1 59090000 		.4byte	.LASF534
 5785 1da5 01       		.byte	0x1
 5786 1da6 DD       		.byte	0xdd
 5787 1da7 BC030000 		.4byte	0x3bc
 5788 1dab 4F020000 		.4byte	.LLST10
 5789 1daf 00       		.byte	0
 5790 1db0 00       		.byte	0
 5791 1db1 00       		.byte	0
 5792 1db2 2A       		.uleb128 0x2a
 5793 1db3 3D100000 		.4byte	.LASF536
 5794 1db7 01       		.byte	0x1
 5795 1db8 ED       		.byte	0xed
 5796 1db9 00000000 		.4byte	.LFB162
 5797 1dbd 9C000000 		.4byte	.LFE162-.LFB162
 5798 1dc1 01       		.uleb128 0x1
 5799 1dc2 9C       		.byte	0x9c
 5800 1dc3 E11E0000 		.4byte	0x1ee1
 5801 1dc7 2B       		.uleb128 0x2b
 5802 1dc8 73726300 		.ascii	"src\000"
 5803 1dcc 01       		.byte	0x1
ARM GAS  C:\Users\haske\AppData\Local\Temp\ccOknJt1.s 			page 125


 5804 1dcd ED       		.byte	0xed
 5805 1dce BC030000 		.4byte	0x3bc
 5806 1dd2 6E020000 		.4byte	.LLST11
 5807 1dd6 2C       		.uleb128 0x2c
 5808 1dd7 861A0000 		.4byte	.LASF520
 5809 1ddb 01       		.byte	0x1
 5810 1ddc ED       		.byte	0xed
 5811 1ddd EC010000 		.4byte	0x1ec
 5812 1de1 9A020000 		.4byte	.LLST12
 5813 1de5 2C       		.uleb128 0x2c
 5814 1de6 801A0000 		.4byte	.LASF521
 5815 1dea 01       		.byte	0x1
 5816 1deb ED       		.byte	0xed
 5817 1dec EC010000 		.4byte	0x1ec
 5818 1df0 BB020000 		.4byte	.LLST13
 5819 1df4 2C       		.uleb128 0x2c
 5820 1df5 4E060000 		.4byte	.LASF522
 5821 1df9 01       		.byte	0x1
 5822 1dfa ED       		.byte	0xed
 5823 1dfb EC010000 		.4byte	0x1ec
 5824 1dff DC020000 		.4byte	.LLST14
 5825 1e03 2C       		.uleb128 0x2c
 5826 1e04 2A0B0000 		.4byte	.LASF523
 5827 1e08 01       		.byte	0x1
 5828 1e09 EE       		.byte	0xee
 5829 1e0a D9000000 		.4byte	0xd9
 5830 1e0e FD020000 		.4byte	.LLST15
 5831 1e12 2C       		.uleb128 0x2c
 5832 1e13 6E1F0000 		.4byte	.LASF524
 5833 1e17 01       		.byte	0x1
 5834 1e18 EE       		.byte	0xee
 5835 1e19 D9000000 		.4byte	0xd9
 5836 1e1d 46030000 		.4byte	.LLST16
 5837 1e21 2D       		.uleb128 0x2d
 5838 1e22 66050000 		.4byte	.LASF525
 5839 1e26 01       		.byte	0x1
 5840 1e27 EE       		.byte	0xee
 5841 1e28 D9000000 		.4byte	0xd9
 5842 1e2c 02       		.uleb128 0x2
 5843 1e2d 91       		.byte	0x91
 5844 1e2e 08       		.sleb128 8
 5845 1e2f 2D       		.uleb128 0x2d
 5846 1e30 F61F0000 		.4byte	.LASF526
 5847 1e34 01       		.byte	0x1
 5848 1e35 EE       		.byte	0xee
 5849 1e36 D9000000 		.4byte	0xd9
 5850 1e3a 02       		.uleb128 0x2
 5851 1e3b 91       		.byte	0x91
 5852 1e3c 0C       		.sleb128 12
 5853 1e3d 2D       		.uleb128 0x2d
 5854 1e3e 510A0000 		.4byte	.LASF527
 5855 1e42 01       		.byte	0x1
 5856 1e43 EF       		.byte	0xef
 5857 1e44 D9000000 		.4byte	0xd9
 5858 1e48 02       		.uleb128 0x2
 5859 1e49 91       		.byte	0x91
 5860 1e4a 10       		.sleb128 16
ARM GAS  C:\Users\haske\AppData\Local\Temp\ccOknJt1.s 			page 126


 5861 1e4b 2D       		.uleb128 0x2d
 5862 1e4c 63180000 		.4byte	.LASF528
 5863 1e50 01       		.byte	0x1
 5864 1e51 EF       		.byte	0xef
 5865 1e52 CC090000 		.4byte	0x9cc
 5866 1e56 02       		.uleb128 0x2
 5867 1e57 91       		.byte	0x91
 5868 1e58 14       		.sleb128 20
 5869 1e59 2D       		.uleb128 0x2d
 5870 1e5a 28180000 		.4byte	.LASF529
 5871 1e5e 01       		.byte	0x1
 5872 1e5f EF       		.byte	0xef
 5873 1e60 81070000 		.4byte	0x781
 5874 1e64 02       		.uleb128 0x2
 5875 1e65 91       		.byte	0x91
 5876 1e66 18       		.sleb128 24
 5877 1e67 2E       		.uleb128 0x2e
 5878 1e68 011D0000 		.4byte	.LASF530
 5879 1e6c 01       		.byte	0x1
 5880 1e6d F1       		.byte	0xf1
 5881 1e6e D9000000 		.4byte	0xd9
 5882 1e72 01       		.uleb128 0x1
 5883 1e73 51       		.byte	0x51
 5884 1e74 2E       		.uleb128 0x2e
 5885 1e75 00000000 		.4byte	.LASF531
 5886 1e79 01       		.byte	0x1
 5887 1e7a F2       		.byte	0xf2
 5888 1e7b D9000000 		.4byte	0xd9
 5889 1e7f 02       		.uleb128 0x2
 5890 1e80 91       		.byte	0x91
 5891 1e81 04       		.sleb128 4
 5892 1e82 30       		.uleb128 0x30
 5893 1e83 7800     		.ascii	"x\000"
 5894 1e85 01       		.byte	0x1
 5895 1e86 F4       		.byte	0xf4
 5896 1e87 EC010000 		.4byte	0x1ec
 5897 1e8b BB030000 		.4byte	.LLST17
 5898 1e8f 31       		.uleb128 0x31
 5899 1e90 26000000 		.4byte	.LBB21
 5900 1e94 60000000 		.4byte	.LBE21-.LBB21
 5901 1e98 2F       		.uleb128 0x2f
 5902 1e99 561C0000 		.4byte	.LASF532
 5903 1e9d 01       		.byte	0x1
 5904 1e9e F9       		.byte	0xf9
 5905 1e9f D9000000 		.4byte	0xd9
 5906 1ea3 E5030000 		.4byte	.LLST18
 5907 1ea7 2F       		.uleb128 0x2f
 5908 1ea8 DB0F0000 		.4byte	.LASF533
 5909 1eac 01       		.byte	0x1
 5910 1ead FA       		.byte	0xfa
 5911 1eae D9000000 		.4byte	0xd9
 5912 1eb2 48040000 		.4byte	.LLST19
 5913 1eb6 31       		.uleb128 0x31
 5914 1eb7 58000000 		.4byte	.LBB22
 5915 1ebb 2E000000 		.4byte	.LBE22-.LBB22
 5916 1ebf 2F       		.uleb128 0x2f
 5917 1ec0 59090000 		.4byte	.LASF534
ARM GAS  C:\Users\haske\AppData\Local\Temp\ccOknJt1.s 			page 127


 5918 1ec4 01       		.byte	0x1
 5919 1ec5 FF       		.byte	0xff
 5920 1ec6 F8070000 		.4byte	0x7f8
 5921 1eca C4040000 		.4byte	.LLST20
 5922 1ece 32       		.uleb128 0x32
 5923 1ecf 59060000 		.4byte	.LASF537
 5924 1ed3 01       		.byte	0x1
 5925 1ed4 0301     		.2byte	0x103
 5926 1ed6 E2070000 		.4byte	0x7e2
 5927 1eda FA040000 		.4byte	.LLST21
 5928 1ede 00       		.byte	0
 5929 1edf 00       		.byte	0
 5930 1ee0 00       		.byte	0
 5931 1ee1 33       		.uleb128 0x33
 5932 1ee2 551E0000 		.4byte	.LASF538
 5933 1ee6 01       		.byte	0x1
 5934 1ee7 D501     		.2byte	0x1d5
 5935 1ee9 00000000 		.4byte	.LFB164
 5936 1eed AC000000 		.4byte	.LFE164-.LFB164
 5937 1ef1 01       		.uleb128 0x1
 5938 1ef2 9C       		.byte	0x9c
 5939 1ef3 431F0000 		.4byte	0x1f43
 5940 1ef7 34       		.uleb128 0x34
 5941 1ef8 7400     		.ascii	"t\000"
 5942 1efa 01       		.byte	0x1
 5943 1efb D501     		.2byte	0x1d5
 5944 1efd 431F0000 		.4byte	0x1f43
 5945 1f01 01       		.uleb128 0x1
 5946 1f02 50       		.byte	0x50
 5947 1f03 35       		.uleb128 0x35
 5948 1f04 78696E00 		.ascii	"xin\000"
 5949 1f08 01       		.byte	0x1
 5950 1f09 D501     		.2byte	0x1d5
 5951 1f0b D9000000 		.4byte	0xd9
 5952 1f0f 36050000 		.4byte	.LLST22
 5953 1f13 35       		.uleb128 0x35
 5954 1f14 79696E00 		.ascii	"yin\000"
 5955 1f18 01       		.byte	0x1
 5956 1f19 D501     		.2byte	0x1d5
 5957 1f1b D9000000 		.4byte	0xd9
 5958 1f1f 8F050000 		.4byte	.LLST23
 5959 1f23 36       		.uleb128 0x36
 5960 1f24 54090000 		.4byte	.LASF539
 5961 1f28 01       		.byte	0x1
 5962 1f29 D501     		.2byte	0x1d5
 5963 1f2b 491F0000 		.4byte	0x1f49
 5964 1f2f E2050000 		.4byte	.LLST24
 5965 1f33 37       		.uleb128 0x37
 5966 1f34 641A0000 		.4byte	.LASF540
 5967 1f38 01       		.byte	0x1
 5968 1f39 D601     		.2byte	0x1d6
 5969 1f3b 491F0000 		.4byte	0x1f49
 5970 1f3f 02       		.uleb128 0x2
 5971 1f40 91       		.byte	0x91
 5972 1f41 00       		.sleb128 0
 5973 1f42 00       		.byte	0
 5974 1f43 11       		.uleb128 0x11
ARM GAS  C:\Users\haske\AppData\Local\Temp\ccOknJt1.s 			page 128


 5975 1f44 04       		.byte	0x4
 5976 1f45 EC1B0000 		.4byte	0x1bec
 5977 1f49 11       		.uleb128 0x11
 5978 1f4a 04       		.byte	0x4
 5979 1f4b D9000000 		.4byte	0xd9
 5980 1f4f 33       		.uleb128 0x33
 5981 1f50 5F0D0000 		.4byte	.LASF541
 5982 1f54 01       		.byte	0x1
 5983 1f55 0C01     		.2byte	0x10c
 5984 1f57 00000000 		.4byte	.LFB163
 5985 1f5b DC030000 		.4byte	.LFE163-.LFB163
 5986 1f5f 01       		.uleb128 0x1
 5987 1f60 9C       		.byte	0x9c
 5988 1f61 EB220000 		.4byte	0x22eb
 5989 1f65 35       		.uleb128 0x35
 5990 1f66 73726300 		.ascii	"src\000"
 5991 1f6a 01       		.byte	0x1
 5992 1f6b 0C01     		.2byte	0x10c
 5993 1f6d BC030000 		.4byte	0x3bc
 5994 1f71 4E060000 		.4byte	.LLST25
 5995 1f75 36       		.uleb128 0x36
 5996 1f76 861A0000 		.4byte	.LASF520
 5997 1f7a 01       		.byte	0x1
 5998 1f7b 0C01     		.2byte	0x10c
 5999 1f7d EC010000 		.4byte	0x1ec
 6000 1f81 86060000 		.4byte	.LLST26
 6001 1f85 36       		.uleb128 0x36
 6002 1f86 801A0000 		.4byte	.LASF521
 6003 1f8a 01       		.byte	0x1
 6004 1f8b 0C01     		.2byte	0x10c
 6005 1f8d EC010000 		.4byte	0x1ec
 6006 1f91 C0060000 		.4byte	.LLST27
 6007 1f95 36       		.uleb128 0x36
 6008 1f96 4E060000 		.4byte	.LASF522
 6009 1f9a 01       		.byte	0x1
 6010 1f9b 0C01     		.2byte	0x10c
 6011 1f9d EC010000 		.4byte	0x1ec
 6012 1fa1 E1060000 		.4byte	.LLST28
 6013 1fa5 36       		.uleb128 0x36
 6014 1fa6 2A0B0000 		.4byte	.LASF523
 6015 1faa 01       		.byte	0x1
 6016 1fab 0D01     		.2byte	0x10d
 6017 1fad D9000000 		.4byte	0xd9
 6018 1fb1 02070000 		.4byte	.LLST29
 6019 1fb5 36       		.uleb128 0x36
 6020 1fb6 6E1F0000 		.4byte	.LASF524
 6021 1fba 01       		.byte	0x1
 6022 1fbb 0D01     		.2byte	0x10d
 6023 1fbd D9000000 		.4byte	0xd9
 6024 1fc1 62070000 		.4byte	.LLST30
 6025 1fc5 37       		.uleb128 0x37
 6026 1fc6 66050000 		.4byte	.LASF525
 6027 1fca 01       		.byte	0x1
 6028 1fcb 0D01     		.2byte	0x10d
 6029 1fcd D9000000 		.4byte	0xd9
 6030 1fd1 02       		.uleb128 0x2
 6031 1fd2 91       		.byte	0x91
ARM GAS  C:\Users\haske\AppData\Local\Temp\ccOknJt1.s 			page 129


 6032 1fd3 08       		.sleb128 8
 6033 1fd4 37       		.uleb128 0x37
 6034 1fd5 F61F0000 		.4byte	.LASF526
 6035 1fd9 01       		.byte	0x1
 6036 1fda 0D01     		.2byte	0x10d
 6037 1fdc D9000000 		.4byte	0xd9
 6038 1fe0 02       		.uleb128 0x2
 6039 1fe1 91       		.byte	0x91
 6040 1fe2 0C       		.sleb128 12
 6041 1fe3 37       		.uleb128 0x37
 6042 1fe4 510A0000 		.4byte	.LASF527
 6043 1fe8 01       		.byte	0x1
 6044 1fe9 0E01     		.2byte	0x10e
 6045 1feb D9000000 		.4byte	0xd9
 6046 1fef 02       		.uleb128 0x2
 6047 1ff0 91       		.byte	0x91
 6048 1ff1 10       		.sleb128 16
 6049 1ff2 37       		.uleb128 0x37
 6050 1ff3 63180000 		.4byte	.LASF528
 6051 1ff7 01       		.byte	0x1
 6052 1ff8 0E01     		.2byte	0x10e
 6053 1ffa CC090000 		.4byte	0x9cc
 6054 1ffe 02       		.uleb128 0x2
 6055 1fff 91       		.byte	0x91
 6056 2000 14       		.sleb128 20
 6057 2001 37       		.uleb128 0x37
 6058 2002 28180000 		.4byte	.LASF529
 6059 2006 01       		.byte	0x1
 6060 2007 0E01     		.2byte	0x10e
 6061 2009 81070000 		.4byte	0x781
 6062 200d 02       		.uleb128 0x2
 6063 200e 91       		.byte	0x91
 6064 200f 18       		.sleb128 24
 6065 2010 35       		.uleb128 0x35
 6066 2011 636600   		.ascii	"cf\000"
 6067 2014 01       		.byte	0x1
 6068 2015 0E01     		.2byte	0x10e
 6069 2017 F4080000 		.4byte	0x8f4
 6070 201b AB070000 		.4byte	.LLST31
 6071 201f 32       		.uleb128 0x32
 6072 2020 011D0000 		.4byte	.LASF530
 6073 2024 01       		.byte	0x1
 6074 2025 1001     		.2byte	0x110
 6075 2027 D9000000 		.4byte	0xd9
 6076 202b D7070000 		.4byte	.LLST32
 6077 202f 38       		.uleb128 0x38
 6078 2030 00000000 		.4byte	.LASF531
 6079 2034 01       		.byte	0x1
 6080 2035 1101     		.2byte	0x111
 6081 2037 D9000000 		.4byte	0xd9
 6082 203b 02       		.uleb128 0x2
 6083 203c 91       		.byte	0x91
 6084 203d 04       		.sleb128 4
 6085 203e 32       		.uleb128 0x32
 6086 203f 211C0000 		.4byte	.LASF542
 6087 2043 01       		.byte	0x1
 6088 2044 1201     		.2byte	0x112
ARM GAS  C:\Users\haske\AppData\Local\Temp\ccOknJt1.s 			page 130


 6089 2046 95030000 		.4byte	0x395
 6090 204a F6070000 		.4byte	.LLST33
 6091 204e 32       		.uleb128 0x32
 6092 204f 020D0000 		.4byte	.LASF543
 6093 2053 01       		.byte	0x1
 6094 2054 1301     		.2byte	0x113
 6095 2056 D9000000 		.4byte	0xd9
 6096 205a 16080000 		.4byte	.LLST34
 6097 205e 39       		.uleb128 0x39
 6098 205f 636B00   		.ascii	"ck\000"
 6099 2062 01       		.byte	0x1
 6100 2063 1401     		.2byte	0x114
 6101 2065 D6010000 		.4byte	0x1d6
 6102 2069 37080000 		.4byte	.LLST35
 6103 206d 39       		.uleb128 0x39
 6104 206e 7800     		.ascii	"x\000"
 6105 2070 01       		.byte	0x1
 6106 2071 2F01     		.2byte	0x12f
 6107 2073 EC010000 		.4byte	0x1ec
 6108 2077 55080000 		.4byte	.LLST36
 6109 207b 3A       		.uleb128 0x3a
 6110 207c 52000000 		.4byte	.LBB23
 6111 2080 16000000 		.4byte	.LBE23-.LBB23
 6112 2084 A0200000 		.4byte	0x20a0
 6113 2088 39       		.uleb128 0x39
 6114 2089 6400     		.ascii	"d\000"
 6115 208b 01       		.byte	0x1
 6116 208c 2101     		.2byte	0x121
 6117 208e EB220000 		.4byte	0x22eb
 6118 2092 7F080000 		.4byte	.LLST37
 6119 2096 3B       		.uleb128 0x3b
 6120 2097 56000000 		.4byte	.LVL74
 6121 209b A6280000 		.4byte	0x28a6
 6122 209f 00       		.byte	0
 6123 20a0 31       		.uleb128 0x31
 6124 20a1 92000000 		.4byte	.LBB24
 6125 20a5 2E030000 		.4byte	.LBE24-.LBB24
 6126 20a9 32       		.uleb128 0x32
 6127 20aa 561C0000 		.4byte	.LASF532
 6128 20ae 01       		.byte	0x1
 6129 20af 3401     		.2byte	0x134
 6130 20b1 D9000000 		.4byte	0xd9
 6131 20b5 92080000 		.4byte	.LLST38
 6132 20b9 32       		.uleb128 0x32
 6133 20ba DB0F0000 		.4byte	.LASF533
 6134 20be 01       		.byte	0x1
 6135 20bf 3501     		.2byte	0x135
 6136 20c1 D9000000 		.4byte	0xd9
 6137 20c5 9E090000 		.4byte	.LLST39
 6138 20c9 32       		.uleb128 0x32
 6139 20ca 3C0A0000 		.4byte	.LASF544
 6140 20ce 01       		.byte	0x1
 6141 20cf 3F01     		.2byte	0x13f
 6142 20d1 D9000000 		.4byte	0xd9
 6143 20d5 5F0A0000 		.4byte	.LLST40
 6144 20d9 32       		.uleb128 0x32
 6145 20da 94000000 		.4byte	.LASF545
ARM GAS  C:\Users\haske\AppData\Local\Temp\ccOknJt1.s 			page 131


 6146 20de 01       		.byte	0x1
 6147 20df 4001     		.2byte	0x140
 6148 20e1 D9000000 		.4byte	0xd9
 6149 20e5 D10A0000 		.4byte	.LLST41
 6150 20e9 32       		.uleb128 0x32
 6151 20ea 54010000 		.4byte	.LASF546
 6152 20ee 01       		.byte	0x1
 6153 20ef 4201     		.2byte	0x142
 6154 20f1 D9000000 		.4byte	0xd9
 6155 20f5 430B0000 		.4byte	.LLST42
 6156 20f9 32       		.uleb128 0x32
 6157 20fa 73160000 		.4byte	.LASF547
 6158 20fe 01       		.byte	0x1
 6159 20ff 4301     		.2byte	0x143
 6160 2101 D9000000 		.4byte	0xd9
 6161 2105 8B0B0000 		.4byte	.LLST43
 6162 2109 32       		.uleb128 0x32
 6163 210a 59090000 		.4byte	.LASF534
 6164 210e 01       		.byte	0x1
 6165 210f 5501     		.2byte	0x155
 6166 2111 BC030000 		.4byte	0x3bc
 6167 2115 C60B0000 		.4byte	.LLST44
 6168 2119 3A       		.uleb128 0x3a
 6169 211a 46010000 		.4byte	.LBB25
 6170 211e BC010000 		.4byte	.LBE25-.LBB25
 6171 2122 D1220000 		.4byte	0x22d1
 6172 2126 32       		.uleb128 0x32
 6173 2127 A71F0000 		.4byte	.LASF548
 6174 212b 01       		.byte	0x1
 6175 212c 5E01     		.2byte	0x15e
 6176 212e BC030000 		.4byte	0x3bc
 6177 2132 8B0C0000 		.4byte	.LLST45
 6178 2136 32       		.uleb128 0x32
 6179 2137 78200000 		.4byte	.LASF549
 6180 213b 01       		.byte	0x1
 6181 213c 5F01     		.2byte	0x15f
 6182 213e BC030000 		.4byte	0x3bc
 6183 2142 2B0D0000 		.4byte	.LLST46
 6184 2146 32       		.uleb128 0x32
 6185 2147 A70B0000 		.4byte	.LASF550
 6186 214b 01       		.byte	0x1
 6187 214c 6001     		.2byte	0x160
 6188 214e BC030000 		.4byte	0x3bc
 6189 2152 4A0D0000 		.4byte	.LLST47
 6190 2156 32       		.uleb128 0x32
 6191 2157 511A0000 		.4byte	.LASF551
 6192 215b 01       		.byte	0x1
 6193 215c 6101     		.2byte	0x161
 6194 215e D6010000 		.4byte	0x1d6
 6195 2162 6A0D0000 		.4byte	.LLST48
 6196 2166 32       		.uleb128 0x32
 6197 2167 910C0000 		.4byte	.LASF552
 6198 216b 01       		.byte	0x1
 6199 216c 6201     		.2byte	0x162
 6200 216e D6010000 		.4byte	0x1d6
 6201 2172 A90D0000 		.4byte	.LLST49
 6202 2176 32       		.uleb128 0x32
ARM GAS  C:\Users\haske\AppData\Local\Temp\ccOknJt1.s 			page 132


 6203 2177 BE0E0000 		.4byte	.LASF553
 6204 217b 01       		.byte	0x1
 6205 217c 6301     		.2byte	0x163
 6206 217e D6010000 		.4byte	0x1d6
 6207 2182 C70D0000 		.4byte	.LLST50
 6208 2186 3A       		.uleb128 0x3a
 6209 2187 64010000 		.4byte	.LBB26
 6210 218b E4000000 		.4byte	.LBE26-.LBB26
 6211 218f DE210000 		.4byte	0x21de
 6212 2193 32       		.uleb128 0x32
 6213 2194 9B120000 		.4byte	.LASF554
 6214 2198 01       		.byte	0x1
 6215 2199 6601     		.2byte	0x166
 6216 219b E1010000 		.4byte	0x1e1
 6217 219f DA0D0000 		.4byte	.LLST51
 6218 21a3 32       		.uleb128 0x32
 6219 21a4 4A170000 		.4byte	.LASF555
 6220 21a8 01       		.byte	0x1
 6221 21a9 6701     		.2byte	0x167
 6222 21ab E1010000 		.4byte	0x1e1
 6223 21af 060E0000 		.4byte	.LLST52
 6224 21b3 32       		.uleb128 0x32
 6225 21b4 F4050000 		.4byte	.LASF556
 6226 21b8 01       		.byte	0x1
 6227 21b9 6801     		.2byte	0x168
 6228 21bb E1010000 		.4byte	0x1e1
 6229 21bf 3A0E0000 		.4byte	.LLST53
 6230 21c3 31       		.uleb128 0x31
 6231 21c4 7E010000 		.4byte	.LBB27
 6232 21c8 2A000000 		.4byte	.LBE27-.LBB27
 6233 21cc 32       		.uleb128 0x32
 6234 21cd 59060000 		.4byte	.LASF537
 6235 21d1 01       		.byte	0x1
 6236 21d2 7001     		.2byte	0x170
 6237 21d4 E2070000 		.4byte	0x7e2
 6238 21d8 6E0E0000 		.4byte	.LLST54
 6239 21dc 00       		.byte	0
 6240 21dd 00       		.byte	0
 6241 21de 3C       		.uleb128 0x3c
 6242 21df F71B0000 		.4byte	0x1bf7
 6243 21e3 7E020000 		.4byte	.LBB28
 6244 21e7 38000000 		.4byte	.LBE28-.LBB28
 6245 21eb 01       		.byte	0x1
 6246 21ec A901     		.2byte	0x1a9
 6247 21ee 30220000 		.4byte	0x2230
 6248 21f2 3D       		.uleb128 0x3d
 6249 21f3 1E1C0000 		.4byte	0x1c1e
 6250 21f7 8C0E0000 		.4byte	.LLST55
 6251 21fb 3E       		.uleb128 0x3e
 6252 21fc 131C0000 		.4byte	0x1c13
 6253 2200 3E       		.uleb128 0x3e
 6254 2201 081C0000 		.4byte	0x1c08
 6255 2205 31       		.uleb128 0x31
 6256 2206 7E020000 		.4byte	.LBB29
 6257 220a 38000000 		.4byte	.LBE29-.LBB29
 6258 220e 3F       		.uleb128 0x3f
 6259 220f 2A1C0000 		.4byte	0x1c2a
ARM GAS  C:\Users\haske\AppData\Local\Temp\ccOknJt1.s 			page 133


 6260 2213 40       		.uleb128 0x40
 6261 2214 361C0000 		.4byte	0x1c36
 6262 2218 AB0E0000 		.4byte	.LLST56
 6263 221c 40       		.uleb128 0x40
 6264 221d 411C0000 		.4byte	0x1c41
 6265 2221 C90E0000 		.4byte	.LLST57
 6266 2225 40       		.uleb128 0x40
 6267 2226 4C1C0000 		.4byte	0x1c4c
 6268 222a DC0E0000 		.4byte	.LLST58
 6269 222e 00       		.byte	0
 6270 222f 00       		.byte	0
 6271 2230 3C       		.uleb128 0x3c
 6272 2231 F71B0000 		.4byte	0x1bf7
 6273 2235 B6020000 		.4byte	.LBB30
 6274 2239 2A000000 		.4byte	.LBE30-.LBB30
 6275 223d 01       		.byte	0x1
 6276 223e AA01     		.2byte	0x1aa
 6277 2240 82220000 		.4byte	0x2282
 6278 2244 3D       		.uleb128 0x3d
 6279 2245 1E1C0000 		.4byte	0x1c1e
 6280 2249 EF0E0000 		.4byte	.LLST59
 6281 224d 3E       		.uleb128 0x3e
 6282 224e 131C0000 		.4byte	0x1c13
 6283 2252 3E       		.uleb128 0x3e
 6284 2253 081C0000 		.4byte	0x1c08
 6285 2257 31       		.uleb128 0x31
 6286 2258 B6020000 		.4byte	.LBB31
 6287 225c 2A000000 		.4byte	.LBE31-.LBB31
 6288 2260 3F       		.uleb128 0x3f
 6289 2261 2A1C0000 		.4byte	0x1c2a
 6290 2265 40       		.uleb128 0x40
 6291 2266 361C0000 		.4byte	0x1c36
 6292 226a 230F0000 		.4byte	.LLST60
 6293 226e 40       		.uleb128 0x40
 6294 226f 411C0000 		.4byte	0x1c41
 6295 2273 360F0000 		.4byte	.LLST61
 6296 2277 40       		.uleb128 0x40
 6297 2278 4C1C0000 		.4byte	0x1c4c
 6298 227c 6A0F0000 		.4byte	.LLST62
 6299 2280 00       		.byte	0
 6300 2281 00       		.byte	0
 6301 2282 41       		.uleb128 0x41
 6302 2283 F71B0000 		.4byte	0x1bf7
 6303 2287 E0020000 		.4byte	.LBB32
 6304 228b 1C000000 		.4byte	.LBE32-.LBB32
 6305 228f 01       		.byte	0x1
 6306 2290 AB01     		.2byte	0x1ab
 6307 2292 3D       		.uleb128 0x3d
 6308 2293 1E1C0000 		.4byte	0x1c1e
 6309 2297 7D0F0000 		.4byte	.LLST63
 6310 229b 3E       		.uleb128 0x3e
 6311 229c 131C0000 		.4byte	0x1c13
 6312 22a0 3E       		.uleb128 0x3e
 6313 22a1 081C0000 		.4byte	0x1c08
 6314 22a5 31       		.uleb128 0x31
 6315 22a6 E0020000 		.4byte	.LBB33
 6316 22aa 1C000000 		.4byte	.LBE33-.LBB33
ARM GAS  C:\Users\haske\AppData\Local\Temp\ccOknJt1.s 			page 134


 6317 22ae 3F       		.uleb128 0x3f
 6318 22af 2A1C0000 		.4byte	0x1c2a
 6319 22b3 40       		.uleb128 0x40
 6320 22b4 361C0000 		.4byte	0x1c36
 6321 22b8 910F0000 		.4byte	.LLST64
 6322 22bc 40       		.uleb128 0x40
 6323 22bd 411C0000 		.4byte	0x1c41
 6324 22c1 A40F0000 		.4byte	.LLST65
 6325 22c5 40       		.uleb128 0x40
 6326 22c6 4C1C0000 		.4byte	0x1c4c
 6327 22ca A6100000 		.4byte	.LLST66
 6328 22ce 00       		.byte	0
 6329 22cf 00       		.byte	0
 6330 22d0 00       		.byte	0
 6331 22d1 31       		.uleb128 0x31
 6332 22d2 04030000 		.4byte	.LBB34
 6333 22d6 BC000000 		.4byte	.LBE34-.LBB34
 6334 22da 39       		.uleb128 0x39
 6335 22db 6100     		.ascii	"a\000"
 6336 22dd 01       		.byte	0x1
 6337 22de B701     		.2byte	0x1b7
 6338 22e0 E1010000 		.4byte	0x1e1
 6339 22e4 B9100000 		.4byte	.LLST67
 6340 22e8 00       		.byte	0
 6341 22e9 00       		.byte	0
 6342 22ea 00       		.byte	0
 6343 22eb 11       		.uleb128 0x11
 6344 22ec 04       		.byte	0x4
 6345 22ed 19170000 		.4byte	0x1719
 6346 22f1 2A       		.uleb128 0x2a
 6347 22f2 03190000 		.4byte	.LASF557
 6348 22f6 01       		.byte	0x1
 6349 22f7 A0       		.byte	0xa0
 6350 22f8 00000000 		.4byte	.LFB160
 6351 22fc D6000000 		.4byte	.LFE160-.LFB160
 6352 2300 01       		.uleb128 0x1
 6353 2301 9C       		.byte	0x9c
 6354 2302 5F240000 		.4byte	0x245f
 6355 2306 2B       		.uleb128 0x2b
 6356 2307 73726300 		.ascii	"src\000"
 6357 230b 01       		.byte	0x1
 6358 230c A0       		.byte	0xa0
 6359 230d BC030000 		.4byte	0x3bc
 6360 2311 F8100000 		.4byte	.LLST68
 6361 2315 2C       		.uleb128 0x2c
 6362 2316 861A0000 		.4byte	.LASF520
 6363 231a 01       		.byte	0x1
 6364 231b A0       		.byte	0xa0
 6365 231c EC010000 		.4byte	0x1ec
 6366 2320 17110000 		.4byte	.LLST69
 6367 2324 2C       		.uleb128 0x2c
 6368 2325 801A0000 		.4byte	.LASF521
 6369 2329 01       		.byte	0x1
 6370 232a A0       		.byte	0xa0
 6371 232b EC010000 		.4byte	0x1ec
 6372 232f 38110000 		.4byte	.LLST70
 6373 2333 2C       		.uleb128 0x2c
ARM GAS  C:\Users\haske\AppData\Local\Temp\ccOknJt1.s 			page 135


 6374 2334 4E060000 		.4byte	.LASF522
 6375 2338 01       		.byte	0x1
 6376 2339 A0       		.byte	0xa0
 6377 233a EC010000 		.4byte	0x1ec
 6378 233e 59110000 		.4byte	.LLST71
 6379 2342 2C       		.uleb128 0x2c
 6380 2343 2A0B0000 		.4byte	.LASF523
 6381 2347 01       		.byte	0x1
 6382 2348 A1       		.byte	0xa1
 6383 2349 D9000000 		.4byte	0xd9
 6384 234d 7A110000 		.4byte	.LLST72
 6385 2351 2C       		.uleb128 0x2c
 6386 2352 6E1F0000 		.4byte	.LASF524
 6387 2356 01       		.byte	0x1
 6388 2357 A1       		.byte	0xa1
 6389 2358 D9000000 		.4byte	0xd9
 6390 235c C3110000 		.4byte	.LLST73
 6391 2360 2D       		.uleb128 0x2d
 6392 2361 66050000 		.4byte	.LASF525
 6393 2365 01       		.byte	0x1
 6394 2366 A1       		.byte	0xa1
 6395 2367 D9000000 		.4byte	0xd9
 6396 236b 02       		.uleb128 0x2
 6397 236c 91       		.byte	0x91
 6398 236d 08       		.sleb128 8
 6399 236e 2D       		.uleb128 0x2d
 6400 236f F61F0000 		.4byte	.LASF526
 6401 2373 01       		.byte	0x1
 6402 2374 A1       		.byte	0xa1
 6403 2375 D9000000 		.4byte	0xd9
 6404 2379 02       		.uleb128 0x2
 6405 237a 91       		.byte	0x91
 6406 237b 0C       		.sleb128 12
 6407 237c 2D       		.uleb128 0x2d
 6408 237d 510A0000 		.4byte	.LASF527
 6409 2381 01       		.byte	0x1
 6410 2382 A2       		.byte	0xa2
 6411 2383 D9000000 		.4byte	0xd9
 6412 2387 02       		.uleb128 0x2
 6413 2388 91       		.byte	0x91
 6414 2389 10       		.sleb128 16
 6415 238a 2D       		.uleb128 0x2d
 6416 238b 63180000 		.4byte	.LASF528
 6417 238f 01       		.byte	0x1
 6418 2390 A2       		.byte	0xa2
 6419 2391 CC090000 		.4byte	0x9cc
 6420 2395 02       		.uleb128 0x2
 6421 2396 91       		.byte	0x91
 6422 2397 14       		.sleb128 20
 6423 2398 2D       		.uleb128 0x2d
 6424 2399 28180000 		.4byte	.LASF529
 6425 239d 01       		.byte	0x1
 6426 239e A2       		.byte	0xa2
 6427 239f 81070000 		.4byte	0x781
 6428 23a3 02       		.uleb128 0x2
 6429 23a4 91       		.byte	0x91
 6430 23a5 18       		.sleb128 24
ARM GAS  C:\Users\haske\AppData\Local\Temp\ccOknJt1.s 			page 136


 6431 23a6 2B       		.uleb128 0x2b
 6432 23a7 636600   		.ascii	"cf\000"
 6433 23aa 01       		.byte	0x1
 6434 23ab A2       		.byte	0xa2
 6435 23ac F4080000 		.4byte	0x8f4
 6436 23b0 0C120000 		.4byte	.LLST74
 6437 23b4 2F       		.uleb128 0x2f
 6438 23b5 011D0000 		.4byte	.LASF530
 6439 23b9 01       		.byte	0x1
 6440 23ba A4       		.byte	0xa4
 6441 23bb D9000000 		.4byte	0xd9
 6442 23bf 38120000 		.4byte	.LLST75
 6443 23c3 2F       		.uleb128 0x2f
 6444 23c4 00000000 		.4byte	.LASF531
 6445 23c8 01       		.byte	0x1
 6446 23c9 A5       		.byte	0xa5
 6447 23ca D9000000 		.4byte	0xd9
 6448 23ce 62120000 		.4byte	.LLST76
 6449 23d2 30       		.uleb128 0x30
 6450 23d3 6400     		.ascii	"d\000"
 6451 23d5 01       		.byte	0x1
 6452 23d6 A6       		.byte	0xa6
 6453 23d7 EB220000 		.4byte	0x22eb
 6454 23db 80120000 		.4byte	.LLST77
 6455 23df 30       		.uleb128 0x30
 6456 23e0 636B00   		.ascii	"ck\000"
 6457 23e3 01       		.byte	0x1
 6458 23e4 A7       		.byte	0xa7
 6459 23e5 D6010000 		.4byte	0x1d6
 6460 23e9 93120000 		.4byte	.LLST78
 6461 23ed 30       		.uleb128 0x30
 6462 23ee 7800     		.ascii	"x\000"
 6463 23f0 01       		.byte	0x1
 6464 23f1 AB       		.byte	0xab
 6465 23f2 EC010000 		.4byte	0x1ec
 6466 23f6 A6120000 		.4byte	.LLST79
 6467 23fa 3A       		.uleb128 0x3a
 6468 23fb 52000000 		.4byte	.LBB35
 6469 23ff 6E000000 		.4byte	.LBE35-.LBB35
 6470 2403 3F240000 		.4byte	0x243f
 6471 2407 2F       		.uleb128 0x2f
 6472 2408 561C0000 		.4byte	.LASF532
 6473 240c 01       		.byte	0x1
 6474 240d B0       		.byte	0xb0
 6475 240e D9000000 		.4byte	0xd9
 6476 2412 D0120000 		.4byte	.LLST80
 6477 2416 2F       		.uleb128 0x2f
 6478 2417 DB0F0000 		.4byte	.LASF533
 6479 241b 01       		.byte	0x1
 6480 241c B1       		.byte	0xb1
 6481 241d D9000000 		.4byte	0xd9
 6482 2421 33130000 		.4byte	.LLST81
 6483 2425 31       		.uleb128 0x31
 6484 2426 84000000 		.4byte	.LBB36
 6485 242a 1E000000 		.4byte	.LBE36-.LBB36
 6486 242e 2F       		.uleb128 0x2f
 6487 242f 59090000 		.4byte	.LASF534
ARM GAS  C:\Users\haske\AppData\Local\Temp\ccOknJt1.s 			page 137


 6488 2433 01       		.byte	0x1
 6489 2434 BC       		.byte	0xbc
 6490 2435 F8070000 		.4byte	0x7f8
 6491 2439 7F130000 		.4byte	.LLST82
 6492 243d 00       		.byte	0
 6493 243e 00       		.byte	0
 6494 243f 3B       		.uleb128 0x3b
 6495 2440 30000000 		.4byte	.LVL200
 6496 2444 A6280000 		.4byte	0x28a6
 6497 2448 42       		.uleb128 0x42
 6498 2449 40000000 		.4byte	.LVL203
 6499 244d B1280000 		.4byte	0x28b1
 6500 2451 43       		.uleb128 0x43
 6501 2452 01       		.uleb128 0x1
 6502 2453 50       		.byte	0x50
 6503 2454 02       		.uleb128 0x2
 6504 2455 75       		.byte	0x75
 6505 2456 00       		.sleb128 0
 6506 2457 43       		.uleb128 0x43
 6507 2458 01       		.uleb128 0x1
 6508 2459 51       		.byte	0x51
 6509 245a 02       		.uleb128 0x2
 6510 245b 74       		.byte	0x74
 6511 245c 00       		.sleb128 0
 6512 245d 00       		.byte	0
 6513 245e 00       		.byte	0
 6514 245f 44       		.uleb128 0x44
 6515 2460 E4010000 		.4byte	.LASF581
 6516 2464 01       		.byte	0x1
 6517 2465 50       		.byte	0x50
 6518 2466 00000000 		.4byte	.LFB159
 6519 246a 3C020000 		.4byte	.LFE159-.LFB159
 6520 246e 01       		.uleb128 0x1
 6521 246f 9C       		.byte	0x9c
 6522 2470 9B280000 		.4byte	0x289b
 6523 2474 2C       		.uleb128 0x2c
 6524 2475 8F1D0000 		.4byte	.LASF405
 6525 2479 01       		.byte	0x1
 6526 247a 50       		.byte	0x50
 6527 247b CC160000 		.4byte	0x16cc
 6528 247f F4130000 		.4byte	.LLST83
 6529 2483 2C       		.uleb128 0x2c
 6530 2484 CF140000 		.4byte	.LASF558
 6531 2488 01       		.byte	0x1
 6532 2489 50       		.byte	0x50
 6533 248a ED070000 		.4byte	0x7ed
 6534 248e 15140000 		.4byte	.LLST84
 6535 2492 2C       		.uleb128 0x2c
 6536 2493 87130000 		.4byte	.LASF559
 6537 2497 01       		.byte	0x1
 6538 2498 50       		.byte	0x50
 6539 2499 CD030000 		.4byte	0x3cd
 6540 249d 4C140000 		.4byte	.LLST85
 6541 24a1 2C       		.uleb128 0x2c
 6542 24a2 861A0000 		.4byte	.LASF520
 6543 24a6 01       		.byte	0x1
 6544 24a7 51       		.byte	0x51
ARM GAS  C:\Users\haske\AppData\Local\Temp\ccOknJt1.s 			page 138


 6545 24a8 EC010000 		.4byte	0x1ec
 6546 24ac 6C140000 		.4byte	.LLST86
 6547 24b0 2C       		.uleb128 0x2c
 6548 24b1 801A0000 		.4byte	.LASF521
 6549 24b5 01       		.byte	0x1
 6550 24b6 51       		.byte	0x51
 6551 24b7 EC010000 		.4byte	0x1ec
 6552 24bb 8D140000 		.4byte	.LLST87
 6553 24bf 2C       		.uleb128 0x2c
 6554 24c0 4E060000 		.4byte	.LASF522
 6555 24c4 01       		.byte	0x1
 6556 24c5 51       		.byte	0x51
 6557 24c6 EC010000 		.4byte	0x1ec
 6558 24ca B9140000 		.4byte	.LLST88
 6559 24ce 2C       		.uleb128 0x2c
 6560 24cf 5D020000 		.4byte	.LASF560
 6561 24d3 01       		.byte	0x1
 6562 24d4 52       		.byte	0x52
 6563 24d5 03100000 		.4byte	0x1003
 6564 24d9 FD140000 		.4byte	.LLST89
 6565 24dd 2B       		.uleb128 0x2b
 6566 24de 636600   		.ascii	"cf\000"
 6567 24e1 01       		.byte	0x1
 6568 24e2 52       		.byte	0x52
 6569 24e3 F4080000 		.4byte	0x8f4
 6570 24e7 29150000 		.4byte	.LLST90
 6571 24eb 2C       		.uleb128 0x2c
 6572 24ec 63180000 		.4byte	.LASF528
 6573 24f0 01       		.byte	0x1
 6574 24f1 52       		.byte	0x52
 6575 24f2 CC090000 		.4byte	0x9cc
 6576 24f6 6D150000 		.4byte	.LLST91
 6577 24fa 2C       		.uleb128 0x2c
 6578 24fb 28180000 		.4byte	.LASF529
 6579 24ff 01       		.byte	0x1
 6580 2500 52       		.byte	0x52
 6581 2501 DC070000 		.4byte	0x7dc
 6582 2505 A4150000 		.4byte	.LLST92
 6583 2509 2E       		.uleb128 0x2e
 6584 250a 23110000 		.4byte	.LASF561
 6585 250e 01       		.byte	0x1
 6586 250f 56       		.byte	0x56
 6587 2510 EC1B0000 		.4byte	0x1bec
 6588 2514 03       		.uleb128 0x3
 6589 2515 91       		.byte	0x91
 6590 2516 AC7F     		.sleb128 -84
 6591 2518 2F       		.uleb128 0x2f
 6592 2519 2D180000 		.4byte	.LASF562
 6593 251d 01       		.byte	0x1
 6594 251e 5B       		.byte	0x5b
 6595 251f D9000000 		.4byte	0xd9
 6596 2523 DB150000 		.4byte	.LLST93
 6597 2527 2F       		.uleb128 0x2f
 6598 2528 D5060000 		.4byte	.LASF563
 6599 252c 01       		.byte	0x1
 6600 252d 5C       		.byte	0x5c
 6601 252e D9000000 		.4byte	0xd9
ARM GAS  C:\Users\haske\AppData\Local\Temp\ccOknJt1.s 			page 139


 6602 2532 07160000 		.4byte	.LLST94
 6603 2536 2F       		.uleb128 0x2f
 6604 2537 F5120000 		.4byte	.LASF564
 6605 253b 01       		.byte	0x1
 6606 253c 5D       		.byte	0x5d
 6607 253d D9000000 		.4byte	0xd9
 6608 2541 35160000 		.4byte	.LLST95
 6609 2545 30       		.uleb128 0x30
 6610 2546 733100   		.ascii	"s1\000"
 6611 2549 01       		.byte	0x1
 6612 254a 5F       		.byte	0x5f
 6613 254b D9000000 		.4byte	0xd9
 6614 254f 48160000 		.4byte	.LLST96
 6615 2553 30       		.uleb128 0x30
 6616 2554 733200   		.ascii	"s2\000"
 6617 2557 01       		.byte	0x1
 6618 2558 60       		.byte	0x60
 6619 2559 D9000000 		.4byte	0xd9
 6620 255d 68160000 		.4byte	.LLST97
 6621 2561 30       		.uleb128 0x30
 6622 2562 633100   		.ascii	"c1\000"
 6623 2565 01       		.byte	0x1
 6624 2566 62       		.byte	0x62
 6625 2567 D9000000 		.4byte	0xd9
 6626 256b 88160000 		.4byte	.LLST98
 6627 256f 30       		.uleb128 0x30
 6628 2570 633200   		.ascii	"c2\000"
 6629 2573 01       		.byte	0x1
 6630 2574 63       		.byte	0x63
 6631 2575 D9000000 		.4byte	0xd9
 6632 2579 A6160000 		.4byte	.LLST99
 6633 257d 45       		.uleb128 0x45
 6634 257e 68110000 		.4byte	.LASF565
 6635 2582 01       		.byte	0x1
 6636 2583 6C       		.byte	0x6c
 6637 2584 EC010000 		.4byte	0x1ec
 6638 2588 45       		.uleb128 0x45
 6639 2589 7E080000 		.4byte	.LASF566
 6640 258d 01       		.byte	0x1
 6641 258e 6D       		.byte	0x6d
 6642 258f EC010000 		.4byte	0x1ec
 6643 2593 30       		.uleb128 0x30
 6644 2594 7900     		.ascii	"y\000"
 6645 2596 01       		.byte	0x1
 6646 2597 6E       		.byte	0x6e
 6647 2598 EC010000 		.4byte	0x1ec
 6648 259c C6160000 		.4byte	.LLST100
 6649 25a0 46       		.uleb128 0x46
 6650 25a1 751C0000 		.4byte	0x1c75
 6651 25a5 DA000000 		.4byte	.LBB37
 6652 25a9 0E000000 		.4byte	.LBE37-.LBB37
 6653 25ad 01       		.byte	0x1
 6654 25ae 6C       		.byte	0x6c
 6655 25af BD250000 		.4byte	0x25bd
 6656 25b3 3D       		.uleb128 0x3d
 6657 25b4 851C0000 		.4byte	0x1c85
 6658 25b8 F0160000 		.4byte	.LLST101
ARM GAS  C:\Users\haske\AppData\Local\Temp\ccOknJt1.s 			page 140


 6659 25bc 00       		.byte	0
 6660 25bd 46       		.uleb128 0x46
 6661 25be 591C0000 		.4byte	0x1c59
 6662 25c2 E8000000 		.4byte	.LBB39
 6663 25c6 10000000 		.4byte	.LBE39-.LBB39
 6664 25ca 01       		.byte	0x1
 6665 25cb 6D       		.byte	0x6d
 6666 25cc DA250000 		.4byte	0x25da
 6667 25d0 3D       		.uleb128 0x3d
 6668 25d1 691C0000 		.4byte	0x1c69
 6669 25d5 03170000 		.4byte	.LLST102
 6670 25d9 00       		.byte	0
 6671 25da 3A       		.uleb128 0x3a
 6672 25db 04010000 		.4byte	.LBB41
 6673 25df 1E010000 		.4byte	.LBE41-.LBB41
 6674 25e3 48280000 		.4byte	0x2848
 6675 25e7 2E       		.uleb128 0x2e
 6676 25e8 D5050000 		.4byte	.LASF567
 6677 25ec 01       		.byte	0x1
 6678 25ed 70       		.byte	0x70
 6679 25ee D9000000 		.4byte	0xd9
 6680 25f2 03       		.uleb128 0x3
 6681 25f3 91       		.byte	0x91
 6682 25f4 9C7F     		.sleb128 -100
 6683 25f6 2E       		.uleb128 0x2e
 6684 25f7 31070000 		.4byte	.LASF568
 6685 25fb 01       		.byte	0x1
 6686 25fc 70       		.byte	0x70
 6687 25fd D9000000 		.4byte	0xd9
 6688 2601 03       		.uleb128 0x3
 6689 2602 91       		.byte	0x91
 6690 2603 A07F     		.sleb128 -96
 6691 2605 2E       		.uleb128 0x2e
 6692 2606 CC000000 		.4byte	.LASF569
 6693 260a 01       		.byte	0x1
 6694 260b 70       		.byte	0x70
 6695 260c D9000000 		.4byte	0xd9
 6696 2610 03       		.uleb128 0x3
 6697 2611 91       		.byte	0x91
 6698 2612 A47F     		.sleb128 -92
 6699 2614 2E       		.uleb128 0x2e
 6700 2615 D2020000 		.4byte	.LASF570
 6701 2619 01       		.byte	0x1
 6702 261a 70       		.byte	0x70
 6703 261b D9000000 		.4byte	0xd9
 6704 261f 03       		.uleb128 0x3
 6705 2620 91       		.byte	0x91
 6706 2621 A87F     		.sleb128 -88
 6707 2623 2F       		.uleb128 0x2f
 6708 2624 BE1B0000 		.4byte	.LASF571
 6709 2628 01       		.byte	0x1
 6710 2629 75       		.byte	0x75
 6711 262a D9000000 		.4byte	0xd9
 6712 262e 16170000 		.4byte	.LLST103
 6713 2632 2F       		.uleb128 0x2f
 6714 2633 3B060000 		.4byte	.LASF572
 6715 2637 01       		.byte	0x1
ARM GAS  C:\Users\haske\AppData\Local\Temp\ccOknJt1.s 			page 141


 6716 2638 76       		.byte	0x76
 6717 2639 D9000000 		.4byte	0xd9
 6718 263d 58170000 		.4byte	.LLST104
 6719 2641 2F       		.uleb128 0x2f
 6720 2642 31030000 		.4byte	.LASF573
 6721 2646 01       		.byte	0x1
 6722 2647 77       		.byte	0x77
 6723 2648 D9000000 		.4byte	0xd9
 6724 264c 90170000 		.4byte	.LLST105
 6725 2650 2F       		.uleb128 0x2f
 6726 2651 D2070000 		.4byte	.LASF574
 6727 2655 01       		.byte	0x1
 6728 2656 78       		.byte	0x78
 6729 2657 D9000000 		.4byte	0xd9
 6730 265b D5170000 		.4byte	.LLST106
 6731 265f 2F       		.uleb128 0x2f
 6732 2660 2A0B0000 		.4byte	.LASF523
 6733 2664 01       		.byte	0x1
 6734 2665 7D       		.byte	0x7d
 6735 2666 D9000000 		.4byte	0xd9
 6736 266a 60180000 		.4byte	.LLST107
 6737 266e 2F       		.uleb128 0x2f
 6738 266f 6E1F0000 		.4byte	.LASF524
 6739 2673 01       		.byte	0x1
 6740 2674 7E       		.byte	0x7e
 6741 2675 D9000000 		.4byte	0xd9
 6742 2679 73180000 		.4byte	.LLST108
 6743 267d 47       		.uleb128 0x47
 6744 267e 1A010000 		.4byte	.LVL262
 6745 2682 E11E0000 		.4byte	0x1ee1
 6746 2686 A1260000 		.4byte	0x26a1
 6747 268a 43       		.uleb128 0x43
 6748 268b 01       		.uleb128 0x1
 6749 268c 50       		.byte	0x50
 6750 268d 03       		.uleb128 0x3
 6751 268e 91       		.byte	0x91
 6752 268f AC7F     		.sleb128 -84
 6753 2691 43       		.uleb128 0x43
 6754 2692 01       		.uleb128 0x1
 6755 2693 53       		.byte	0x53
 6756 2694 03       		.uleb128 0x3
 6757 2695 91       		.byte	0x91
 6758 2696 9C7F     		.sleb128 -100
 6759 2698 43       		.uleb128 0x43
 6760 2699 02       		.uleb128 0x2
 6761 269a 7D       		.byte	0x7d
 6762 269b 00       		.sleb128 0
 6763 269c 03       		.uleb128 0x3
 6764 269d 91       		.byte	0x91
 6765 269e A07F     		.sleb128 -96
 6766 26a0 00       		.byte	0
 6767 26a1 47       		.uleb128 0x47
 6768 26a2 30010000 		.4byte	.LVL263
 6769 26a6 E11E0000 		.4byte	0x1ee1
 6770 26aa C5260000 		.4byte	0x26c5
 6771 26ae 43       		.uleb128 0x43
 6772 26af 01       		.uleb128 0x1
ARM GAS  C:\Users\haske\AppData\Local\Temp\ccOknJt1.s 			page 142


 6773 26b0 50       		.byte	0x50
 6774 26b1 03       		.uleb128 0x3
 6775 26b2 91       		.byte	0x91
 6776 26b3 AC7F     		.sleb128 -84
 6777 26b5 43       		.uleb128 0x43
 6778 26b6 01       		.uleb128 0x1
 6779 26b7 53       		.byte	0x53
 6780 26b8 03       		.uleb128 0x3
 6781 26b9 91       		.byte	0x91
 6782 26ba A47F     		.sleb128 -92
 6783 26bc 43       		.uleb128 0x43
 6784 26bd 02       		.uleb128 0x2
 6785 26be 7D       		.byte	0x7d
 6786 26bf 00       		.sleb128 0
 6787 26c0 03       		.uleb128 0x3
 6788 26c1 91       		.byte	0x91
 6789 26c2 A87F     		.sleb128 -88
 6790 26c4 00       		.byte	0
 6791 26c5 47       		.uleb128 0x47
 6792 26c6 AE010000 		.4byte	.LVL280
 6793 26ca 911C0000 		.4byte	0x1c91
 6794 26ce 23270000 		.4byte	0x2723
 6795 26d2 43       		.uleb128 0x43
 6796 26d3 01       		.uleb128 0x1
 6797 26d4 50       		.byte	0x50
 6798 26d5 04       		.uleb128 0x4
 6799 26d6 91       		.byte	0x91
 6800 26d7 887F     		.sleb128 -120
 6801 26d9 06       		.byte	0x6
 6802 26da 43       		.uleb128 0x43
 6803 26db 01       		.uleb128 0x1
 6804 26dc 51       		.byte	0x51
 6805 26dd 05       		.uleb128 0x5
 6806 26de 91       		.byte	0x91
 6807 26df 8C7F     		.sleb128 -116
 6808 26e1 94       		.byte	0x94
 6809 26e2 02       		.byte	0x2
 6810 26e3 43       		.uleb128 0x43
 6811 26e4 01       		.uleb128 0x1
 6812 26e5 52       		.byte	0x52
 6813 26e6 05       		.uleb128 0x5
 6814 26e7 91       		.byte	0x91
 6815 26e8 907F     		.sleb128 -112
 6816 26ea 94       		.byte	0x94
 6817 26eb 02       		.byte	0x2
 6818 26ec 43       		.uleb128 0x43
 6819 26ed 01       		.uleb128 0x1
 6820 26ee 53       		.byte	0x53
 6821 26ef 05       		.uleb128 0x5
 6822 26f0 91       		.byte	0x91
 6823 26f1 947F     		.sleb128 -108
 6824 26f3 94       		.byte	0x94
 6825 26f4 02       		.byte	0x2
 6826 26f5 43       		.uleb128 0x43
 6827 26f6 02       		.uleb128 0x2
 6828 26f7 7D       		.byte	0x7d
 6829 26f8 00       		.sleb128 0
ARM GAS  C:\Users\haske\AppData\Local\Temp\ccOknJt1.s 			page 143


 6830 26f9 02       		.uleb128 0x2
 6831 26fa 75       		.byte	0x75
 6832 26fb 00       		.sleb128 0
 6833 26fc 43       		.uleb128 0x43
 6834 26fd 02       		.uleb128 0x2
 6835 26fe 7D       		.byte	0x7d
 6836 26ff 04       		.sleb128 4
 6837 2700 03       		.uleb128 0x3
 6838 2701 78       		.byte	0x78
 6839 2702 8001     		.sleb128 128
 6840 2704 43       		.uleb128 0x43
 6841 2705 02       		.uleb128 0x2
 6842 2706 7D       		.byte	0x7d
 6843 2707 08       		.sleb128 8
 6844 2708 04       		.uleb128 0x4
 6845 2709 91       		.byte	0x91
 6846 270a F87E     		.sleb128 -136
 6847 270c 06       		.byte	0x6
 6848 270d 43       		.uleb128 0x43
 6849 270e 02       		.uleb128 0x2
 6850 270f 7D       		.byte	0x7d
 6851 2710 10       		.sleb128 16
 6852 2711 02       		.uleb128 0x2
 6853 2712 77       		.byte	0x77
 6854 2713 00       		.sleb128 0
 6855 2714 43       		.uleb128 0x43
 6856 2715 02       		.uleb128 0x2
 6857 2716 7D       		.byte	0x7d
 6858 2717 14       		.sleb128 20
 6859 2718 02       		.uleb128 0x2
 6860 2719 79       		.byte	0x79
 6861 271a 00       		.sleb128 0
 6862 271b 43       		.uleb128 0x43
 6863 271c 02       		.uleb128 0x2
 6864 271d 7D       		.byte	0x7d
 6865 271e 18       		.sleb128 24
 6866 271f 02       		.uleb128 0x2
 6867 2720 7B       		.byte	0x7b
 6868 2721 00       		.sleb128 0
 6869 2722 00       		.byte	0
 6870 2723 47       		.uleb128 0x47
 6871 2724 D4010000 		.4byte	.LVL284
 6872 2728 F1220000 		.4byte	0x22f1
 6873 272c 88270000 		.4byte	0x2788
 6874 2730 43       		.uleb128 0x43
 6875 2731 01       		.uleb128 0x1
 6876 2732 50       		.byte	0x50
 6877 2733 04       		.uleb128 0x4
 6878 2734 91       		.byte	0x91
 6879 2735 887F     		.sleb128 -120
 6880 2737 06       		.byte	0x6
 6881 2738 43       		.uleb128 0x43
 6882 2739 01       		.uleb128 0x1
 6883 273a 51       		.byte	0x51
 6884 273b 05       		.uleb128 0x5
 6885 273c 91       		.byte	0x91
 6886 273d 8C7F     		.sleb128 -116
ARM GAS  C:\Users\haske\AppData\Local\Temp\ccOknJt1.s 			page 144


 6887 273f 94       		.byte	0x94
 6888 2740 02       		.byte	0x2
 6889 2741 43       		.uleb128 0x43
 6890 2742 01       		.uleb128 0x1
 6891 2743 52       		.byte	0x52
 6892 2744 05       		.uleb128 0x5
 6893 2745 91       		.byte	0x91
 6894 2746 907F     		.sleb128 -112
 6895 2748 94       		.byte	0x94
 6896 2749 02       		.byte	0x2
 6897 274a 43       		.uleb128 0x43
 6898 274b 01       		.uleb128 0x1
 6899 274c 53       		.byte	0x53
 6900 274d 05       		.uleb128 0x5
 6901 274e 91       		.byte	0x91
 6902 274f 947F     		.sleb128 -108
 6903 2751 94       		.byte	0x94
 6904 2752 02       		.byte	0x2
 6905 2753 43       		.uleb128 0x43
 6906 2754 02       		.uleb128 0x2
 6907 2755 7D       		.byte	0x7d
 6908 2756 00       		.sleb128 0
 6909 2757 02       		.uleb128 0x2
 6910 2758 75       		.byte	0x75
 6911 2759 00       		.sleb128 0
 6912 275a 43       		.uleb128 0x43
 6913 275b 02       		.uleb128 0x2
 6914 275c 7D       		.byte	0x7d
 6915 275d 04       		.sleb128 4
 6916 275e 03       		.uleb128 0x3
 6917 275f 78       		.byte	0x78
 6918 2760 8001     		.sleb128 128
 6919 2762 43       		.uleb128 0x43
 6920 2763 02       		.uleb128 0x2
 6921 2764 7D       		.byte	0x7d
 6922 2765 08       		.sleb128 8
 6923 2766 04       		.uleb128 0x4
 6924 2767 91       		.byte	0x91
 6925 2768 F87E     		.sleb128 -136
 6926 276a 06       		.byte	0x6
 6927 276b 43       		.uleb128 0x43
 6928 276c 02       		.uleb128 0x2
 6929 276d 7D       		.byte	0x7d
 6930 276e 10       		.sleb128 16
 6931 276f 02       		.uleb128 0x2
 6932 2770 77       		.byte	0x77
 6933 2771 00       		.sleb128 0
 6934 2772 43       		.uleb128 0x43
 6935 2773 02       		.uleb128 0x2
 6936 2774 7D       		.byte	0x7d
 6937 2775 14       		.sleb128 20
 6938 2776 02       		.uleb128 0x2
 6939 2777 79       		.byte	0x79
 6940 2778 00       		.sleb128 0
 6941 2779 43       		.uleb128 0x43
 6942 277a 02       		.uleb128 0x2
 6943 277b 7D       		.byte	0x7d
ARM GAS  C:\Users\haske\AppData\Local\Temp\ccOknJt1.s 			page 145


 6944 277c 18       		.sleb128 24
 6945 277d 02       		.uleb128 0x2
 6946 277e 7B       		.byte	0x7b
 6947 277f 00       		.sleb128 0
 6948 2780 43       		.uleb128 0x43
 6949 2781 02       		.uleb128 0x2
 6950 2782 7D       		.byte	0x7d
 6951 2783 1C       		.sleb128 28
 6952 2784 02       		.uleb128 0x2
 6953 2785 7A       		.byte	0x7a
 6954 2786 00       		.sleb128 0
 6955 2787 00       		.byte	0
 6956 2788 47       		.uleb128 0x47
 6957 2789 F6010000 		.4byte	.LVL288
 6958 278d B21D0000 		.4byte	0x1db2
 6959 2791 E6270000 		.4byte	0x27e6
 6960 2795 43       		.uleb128 0x43
 6961 2796 01       		.uleb128 0x1
 6962 2797 50       		.byte	0x50
 6963 2798 04       		.uleb128 0x4
 6964 2799 91       		.byte	0x91
 6965 279a 887F     		.sleb128 -120
 6966 279c 06       		.byte	0x6
 6967 279d 43       		.uleb128 0x43
 6968 279e 01       		.uleb128 0x1
 6969 279f 51       		.byte	0x51
 6970 27a0 05       		.uleb128 0x5
 6971 27a1 91       		.byte	0x91
 6972 27a2 8C7F     		.sleb128 -116
 6973 27a4 94       		.byte	0x94
 6974 27a5 02       		.byte	0x2
 6975 27a6 43       		.uleb128 0x43
 6976 27a7 01       		.uleb128 0x1
 6977 27a8 52       		.byte	0x52
 6978 27a9 05       		.uleb128 0x5
 6979 27aa 91       		.byte	0x91
 6980 27ab 907F     		.sleb128 -112
 6981 27ad 94       		.byte	0x94
 6982 27ae 02       		.byte	0x2
 6983 27af 43       		.uleb128 0x43
 6984 27b0 01       		.uleb128 0x1
 6985 27b1 53       		.byte	0x53
 6986 27b2 05       		.uleb128 0x5
 6987 27b3 91       		.byte	0x91
 6988 27b4 947F     		.sleb128 -108
 6989 27b6 94       		.byte	0x94
 6990 27b7 02       		.byte	0x2
 6991 27b8 43       		.uleb128 0x43
 6992 27b9 02       		.uleb128 0x2
 6993 27ba 7D       		.byte	0x7d
 6994 27bb 00       		.sleb128 0
 6995 27bc 02       		.uleb128 0x2
 6996 27bd 75       		.byte	0x75
 6997 27be 00       		.sleb128 0
 6998 27bf 43       		.uleb128 0x43
 6999 27c0 02       		.uleb128 0x2
 7000 27c1 7D       		.byte	0x7d
ARM GAS  C:\Users\haske\AppData\Local\Temp\ccOknJt1.s 			page 146


 7001 27c2 04       		.sleb128 4
 7002 27c3 03       		.uleb128 0x3
 7003 27c4 78       		.byte	0x78
 7004 27c5 8001     		.sleb128 128
 7005 27c7 43       		.uleb128 0x43
 7006 27c8 02       		.uleb128 0x2
 7007 27c9 7D       		.byte	0x7d
 7008 27ca 08       		.sleb128 8
 7009 27cb 04       		.uleb128 0x4
 7010 27cc 91       		.byte	0x91
 7011 27cd F87E     		.sleb128 -136
 7012 27cf 06       		.byte	0x6
 7013 27d0 43       		.uleb128 0x43
 7014 27d1 02       		.uleb128 0x2
 7015 27d2 7D       		.byte	0x7d
 7016 27d3 10       		.sleb128 16
 7017 27d4 02       		.uleb128 0x2
 7018 27d5 77       		.byte	0x77
 7019 27d6 00       		.sleb128 0
 7020 27d7 43       		.uleb128 0x43
 7021 27d8 02       		.uleb128 0x2
 7022 27d9 7D       		.byte	0x7d
 7023 27da 14       		.sleb128 20
 7024 27db 02       		.uleb128 0x2
 7025 27dc 79       		.byte	0x79
 7026 27dd 00       		.sleb128 0
 7027 27de 43       		.uleb128 0x43
 7028 27df 02       		.uleb128 0x2
 7029 27e0 7D       		.byte	0x7d
 7030 27e1 18       		.sleb128 24
 7031 27e2 02       		.uleb128 0x2
 7032 27e3 7B       		.byte	0x7b
 7033 27e4 00       		.sleb128 0
 7034 27e5 00       		.byte	0
 7035 27e6 42       		.uleb128 0x42
 7036 27e7 1C020000 		.4byte	.LVL292
 7037 27eb 4F1F0000 		.4byte	0x1f4f
 7038 27ef 43       		.uleb128 0x43
 7039 27f0 01       		.uleb128 0x1
 7040 27f1 50       		.byte	0x50
 7041 27f2 04       		.uleb128 0x4
 7042 27f3 91       		.byte	0x91
 7043 27f4 887F     		.sleb128 -120
 7044 27f6 06       		.byte	0x6
 7045 27f7 43       		.uleb128 0x43
 7046 27f8 01       		.uleb128 0x1
 7047 27f9 51       		.byte	0x51
 7048 27fa 05       		.uleb128 0x5
 7049 27fb 91       		.byte	0x91
 7050 27fc 8C7F     		.sleb128 -116
 7051 27fe 94       		.byte	0x94
 7052 27ff 02       		.byte	0x2
 7053 2800 43       		.uleb128 0x43
 7054 2801 01       		.uleb128 0x1
 7055 2802 52       		.byte	0x52
 7056 2803 05       		.uleb128 0x5
 7057 2804 91       		.byte	0x91
ARM GAS  C:\Users\haske\AppData\Local\Temp\ccOknJt1.s 			page 147


 7058 2805 907F     		.sleb128 -112
 7059 2807 94       		.byte	0x94
 7060 2808 02       		.byte	0x2
 7061 2809 43       		.uleb128 0x43
 7062 280a 01       		.uleb128 0x1
 7063 280b 53       		.byte	0x53
 7064 280c 05       		.uleb128 0x5
 7065 280d 91       		.byte	0x91
 7066 280e 947F     		.sleb128 -108
 7067 2810 94       		.byte	0x94
 7068 2811 02       		.byte	0x2
 7069 2812 43       		.uleb128 0x43
 7070 2813 02       		.uleb128 0x2
 7071 2814 7D       		.byte	0x7d
 7072 2815 00       		.sleb128 0
 7073 2816 02       		.uleb128 0x2
 7074 2817 75       		.byte	0x75
 7075 2818 00       		.sleb128 0
 7076 2819 43       		.uleb128 0x43
 7077 281a 02       		.uleb128 0x2
 7078 281b 7D       		.byte	0x7d
 7079 281c 04       		.sleb128 4
 7080 281d 03       		.uleb128 0x3
 7081 281e 78       		.byte	0x78
 7082 281f 8001     		.sleb128 128
 7083 2821 43       		.uleb128 0x43
 7084 2822 02       		.uleb128 0x2
 7085 2823 7D       		.byte	0x7d
 7086 2824 08       		.sleb128 8
 7087 2825 04       		.uleb128 0x4
 7088 2826 91       		.byte	0x91
 7089 2827 F87E     		.sleb128 -136
 7090 2829 06       		.byte	0x6
 7091 282a 43       		.uleb128 0x43
 7092 282b 02       		.uleb128 0x2
 7093 282c 7D       		.byte	0x7d
 7094 282d 10       		.sleb128 16
 7095 282e 02       		.uleb128 0x2
 7096 282f 77       		.byte	0x77
 7097 2830 00       		.sleb128 0
 7098 2831 43       		.uleb128 0x43
 7099 2832 02       		.uleb128 0x2
 7100 2833 7D       		.byte	0x7d
 7101 2834 14       		.sleb128 20
 7102 2835 02       		.uleb128 0x2
 7103 2836 79       		.byte	0x79
 7104 2837 00       		.sleb128 0
 7105 2838 43       		.uleb128 0x43
 7106 2839 02       		.uleb128 0x2
 7107 283a 7D       		.byte	0x7d
 7108 283b 18       		.sleb128 24
 7109 283c 02       		.uleb128 0x2
 7110 283d 7B       		.byte	0x7b
 7111 283e 00       		.sleb128 0
 7112 283f 43       		.uleb128 0x43
 7113 2840 02       		.uleb128 0x2
 7114 2841 7D       		.byte	0x7d
ARM GAS  C:\Users\haske\AppData\Local\Temp\ccOknJt1.s 			page 148


 7115 2842 1C       		.sleb128 28
 7116 2843 02       		.uleb128 0x2
 7117 2844 7A       		.byte	0x7a
 7118 2845 00       		.sleb128 0
 7119 2846 00       		.byte	0
 7120 2847 00       		.byte	0
 7121 2848 47       		.uleb128 0x47
 7122 2849 70000000 		.4byte	.LVL239
 7123 284d BC280000 		.4byte	0x28bc
 7124 2851 5C280000 		.4byte	0x285c
 7125 2855 43       		.uleb128 0x43
 7126 2856 01       		.uleb128 0x1
 7127 2857 50       		.byte	0x50
 7128 2858 02       		.uleb128 0x2
 7129 2859 75       		.byte	0x75
 7130 285a 00       		.sleb128 0
 7131 285b 00       		.byte	0
 7132 285c 47       		.uleb128 0x47
 7133 285d 7C000000 		.4byte	.LVL242
 7134 2861 BC280000 		.4byte	0x28bc
 7135 2865 72280000 		.4byte	0x2872
 7136 2869 43       		.uleb128 0x43
 7137 286a 01       		.uleb128 0x1
 7138 286b 50       		.byte	0x50
 7139 286c 04       		.uleb128 0x4
 7140 286d 7D       		.byte	0x7d
 7141 286e 20       		.sleb128 32
 7142 286f 94       		.byte	0x94
 7143 2870 02       		.byte	0x2
 7144 2871 00       		.byte	0
 7145 2872 47       		.uleb128 0x47
 7146 2873 86000000 		.4byte	.LVL246
 7147 2877 BC280000 		.4byte	0x28bc
 7148 287b 86280000 		.4byte	0x2886
 7149 287f 43       		.uleb128 0x43
 7150 2880 01       		.uleb128 0x1
 7151 2881 50       		.byte	0x50
 7152 2882 02       		.uleb128 0x2
 7153 2883 75       		.byte	0x75
 7154 2884 00       		.sleb128 0
 7155 2885 00       		.byte	0
 7156 2886 42       		.uleb128 0x42
 7157 2887 92000000 		.4byte	.LVL249
 7158 288b BC280000 		.4byte	0x28bc
 7159 288f 43       		.uleb128 0x43
 7160 2890 01       		.uleb128 0x1
 7161 2891 50       		.byte	0x50
 7162 2892 06       		.uleb128 0x6
 7163 2893 91       		.byte	0x91
 7164 2894 F87E     		.sleb128 -136
 7165 2896 06       		.byte	0x6
 7166 2897 23       		.byte	0x23
 7167 2898 5A       		.uleb128 0x5a
 7168 2899 00       		.byte	0
 7169 289a 00       		.byte	0
 7170 289b 48       		.uleb128 0x48
 7171 289c 781B0000 		.4byte	.LASF582
ARM GAS  C:\Users\haske\AppData\Local\Temp\ccOknJt1.s 			page 149


 7172 28a0 08       		.byte	0x8
 7173 28a1 94       		.byte	0x94
 7174 28a2 F90B0000 		.4byte	0xbf9
 7175 28a6 49       		.uleb128 0x49
 7176 28a7 DF1D0000 		.4byte	.LASF575
 7177 28ab DF1D0000 		.4byte	.LASF575
 7178 28af 1D       		.byte	0x1d
 7179 28b0 4E       		.byte	0x4e
 7180 28b1 49       		.uleb128 0x49
 7181 28b2 6F110000 		.4byte	.LASF576
 7182 28b6 6F110000 		.4byte	.LASF576
 7183 28ba 1E       		.byte	0x1e
 7184 28bb E5       		.byte	0xe5
 7185 28bc 49       		.uleb128 0x49
 7186 28bd 88020000 		.4byte	.LASF577
 7187 28c1 88020000 		.4byte	.LASF577
 7188 28c5 1F       		.byte	0x1f
 7189 28c6 2F       		.byte	0x2f
 7190 28c7 00       		.byte	0
 7191              		.section	.debug_abbrev,"",%progbits
 7192              	.Ldebug_abbrev0:
 7193 0000 01       		.uleb128 0x1
 7194 0001 11       		.uleb128 0x11
 7195 0002 01       		.byte	0x1
 7196 0003 25       		.uleb128 0x25
 7197 0004 0E       		.uleb128 0xe
 7198 0005 13       		.uleb128 0x13
 7199 0006 0B       		.uleb128 0xb
 7200 0007 03       		.uleb128 0x3
 7201 0008 0E       		.uleb128 0xe
 7202 0009 1B       		.uleb128 0x1b
 7203 000a 0E       		.uleb128 0xe
 7204 000b 55       		.uleb128 0x55
 7205 000c 17       		.uleb128 0x17
 7206 000d 11       		.uleb128 0x11
 7207 000e 01       		.uleb128 0x1
 7208 000f 10       		.uleb128 0x10
 7209 0010 17       		.uleb128 0x17
 7210 0011 00       		.byte	0
 7211 0012 00       		.byte	0
 7212 0013 02       		.uleb128 0x2
 7213 0014 16       		.uleb128 0x16
 7214 0015 00       		.byte	0
 7215 0016 03       		.uleb128 0x3
 7216 0017 0E       		.uleb128 0xe
 7217 0018 3A       		.uleb128 0x3a
 7218 0019 0B       		.uleb128 0xb
 7219 001a 3B       		.uleb128 0x3b
 7220 001b 0B       		.uleb128 0xb
 7221 001c 49       		.uleb128 0x49
 7222 001d 13       		.uleb128 0x13
 7223 001e 00       		.byte	0
 7224 001f 00       		.byte	0
 7225 0020 03       		.uleb128 0x3
 7226 0021 24       		.uleb128 0x24
 7227 0022 00       		.byte	0
 7228 0023 0B       		.uleb128 0xb
ARM GAS  C:\Users\haske\AppData\Local\Temp\ccOknJt1.s 			page 150


 7229 0024 0B       		.uleb128 0xb
 7230 0025 3E       		.uleb128 0x3e
 7231 0026 0B       		.uleb128 0xb
 7232 0027 03       		.uleb128 0x3
 7233 0028 0E       		.uleb128 0xe
 7234 0029 00       		.byte	0
 7235 002a 00       		.byte	0
 7236 002b 04       		.uleb128 0x4
 7237 002c 24       		.uleb128 0x24
 7238 002d 00       		.byte	0
 7239 002e 0B       		.uleb128 0xb
 7240 002f 0B       		.uleb128 0xb
 7241 0030 3E       		.uleb128 0x3e
 7242 0031 0B       		.uleb128 0xb
 7243 0032 03       		.uleb128 0x3
 7244 0033 08       		.uleb128 0x8
 7245 0034 00       		.byte	0
 7246 0035 00       		.byte	0
 7247 0036 05       		.uleb128 0x5
 7248 0037 0F       		.uleb128 0xf
 7249 0038 00       		.byte	0
 7250 0039 0B       		.uleb128 0xb
 7251 003a 0B       		.uleb128 0xb
 7252 003b 00       		.byte	0
 7253 003c 00       		.byte	0
 7254 003d 06       		.uleb128 0x6
 7255 003e 04       		.uleb128 0x4
 7256 003f 01       		.byte	0x1
 7257 0040 0B       		.uleb128 0xb
 7258 0041 0B       		.uleb128 0xb
 7259 0042 49       		.uleb128 0x49
 7260 0043 13       		.uleb128 0x13
 7261 0044 3A       		.uleb128 0x3a
 7262 0045 0B       		.uleb128 0xb
 7263 0046 3B       		.uleb128 0x3b
 7264 0047 0B       		.uleb128 0xb
 7265 0048 01       		.uleb128 0x1
 7266 0049 13       		.uleb128 0x13
 7267 004a 00       		.byte	0
 7268 004b 00       		.byte	0
 7269 004c 07       		.uleb128 0x7
 7270 004d 28       		.uleb128 0x28
 7271 004e 00       		.byte	0
 7272 004f 03       		.uleb128 0x3
 7273 0050 0E       		.uleb128 0xe
 7274 0051 1C       		.uleb128 0x1c
 7275 0052 0B       		.uleb128 0xb
 7276 0053 00       		.byte	0
 7277 0054 00       		.byte	0
 7278 0055 08       		.uleb128 0x8
 7279 0056 13       		.uleb128 0x13
 7280 0057 01       		.byte	0x1
 7281 0058 0B       		.uleb128 0xb
 7282 0059 0B       		.uleb128 0xb
 7283 005a 3A       		.uleb128 0x3a
 7284 005b 0B       		.uleb128 0xb
 7285 005c 3B       		.uleb128 0x3b
ARM GAS  C:\Users\haske\AppData\Local\Temp\ccOknJt1.s 			page 151


 7286 005d 0B       		.uleb128 0xb
 7287 005e 01       		.uleb128 0x1
 7288 005f 13       		.uleb128 0x13
 7289 0060 00       		.byte	0
 7290 0061 00       		.byte	0
 7291 0062 09       		.uleb128 0x9
 7292 0063 0D       		.uleb128 0xd
 7293 0064 00       		.byte	0
 7294 0065 03       		.uleb128 0x3
 7295 0066 0E       		.uleb128 0xe
 7296 0067 3A       		.uleb128 0x3a
 7297 0068 0B       		.uleb128 0xb
 7298 0069 3B       		.uleb128 0x3b
 7299 006a 0B       		.uleb128 0xb
 7300 006b 49       		.uleb128 0x49
 7301 006c 13       		.uleb128 0x13
 7302 006d 0B       		.uleb128 0xb
 7303 006e 0B       		.uleb128 0xb
 7304 006f 0D       		.uleb128 0xd
 7305 0070 0B       		.uleb128 0xb
 7306 0071 0C       		.uleb128 0xc
 7307 0072 0B       		.uleb128 0xb
 7308 0073 38       		.uleb128 0x38
 7309 0074 0B       		.uleb128 0xb
 7310 0075 00       		.byte	0
 7311 0076 00       		.byte	0
 7312 0077 0A       		.uleb128 0xa
 7313 0078 0D       		.uleb128 0xd
 7314 0079 00       		.byte	0
 7315 007a 03       		.uleb128 0x3
 7316 007b 08       		.uleb128 0x8
 7317 007c 3A       		.uleb128 0x3a
 7318 007d 0B       		.uleb128 0xb
 7319 007e 3B       		.uleb128 0x3b
 7320 007f 0B       		.uleb128 0xb
 7321 0080 49       		.uleb128 0x49
 7322 0081 13       		.uleb128 0x13
 7323 0082 0B       		.uleb128 0xb
 7324 0083 0B       		.uleb128 0xb
 7325 0084 0D       		.uleb128 0xd
 7326 0085 0B       		.uleb128 0xb
 7327 0086 0C       		.uleb128 0xc
 7328 0087 0B       		.uleb128 0xb
 7329 0088 38       		.uleb128 0x38
 7330 0089 0B       		.uleb128 0xb
 7331 008a 00       		.byte	0
 7332 008b 00       		.byte	0
 7333 008c 0B       		.uleb128 0xb
 7334 008d 17       		.uleb128 0x17
 7335 008e 01       		.byte	0x1
 7336 008f 0B       		.uleb128 0xb
 7337 0090 0B       		.uleb128 0xb
 7338 0091 3A       		.uleb128 0x3a
 7339 0092 0B       		.uleb128 0xb
 7340 0093 3B       		.uleb128 0x3b
 7341 0094 0B       		.uleb128 0xb
 7342 0095 01       		.uleb128 0x1
ARM GAS  C:\Users\haske\AppData\Local\Temp\ccOknJt1.s 			page 152


 7343 0096 13       		.uleb128 0x13
 7344 0097 00       		.byte	0
 7345 0098 00       		.byte	0
 7346 0099 0C       		.uleb128 0xc
 7347 009a 0D       		.uleb128 0xd
 7348 009b 00       		.byte	0
 7349 009c 03       		.uleb128 0x3
 7350 009d 08       		.uleb128 0x8
 7351 009e 3A       		.uleb128 0x3a
 7352 009f 0B       		.uleb128 0xb
 7353 00a0 3B       		.uleb128 0x3b
 7354 00a1 0B       		.uleb128 0xb
 7355 00a2 49       		.uleb128 0x49
 7356 00a3 13       		.uleb128 0x13
 7357 00a4 00       		.byte	0
 7358 00a5 00       		.byte	0
 7359 00a6 0D       		.uleb128 0xd
 7360 00a7 0D       		.uleb128 0xd
 7361 00a8 00       		.byte	0
 7362 00a9 03       		.uleb128 0x3
 7363 00aa 0E       		.uleb128 0xe
 7364 00ab 3A       		.uleb128 0x3a
 7365 00ac 0B       		.uleb128 0xb
 7366 00ad 3B       		.uleb128 0x3b
 7367 00ae 0B       		.uleb128 0xb
 7368 00af 49       		.uleb128 0x49
 7369 00b0 13       		.uleb128 0x13
 7370 00b1 00       		.byte	0
 7371 00b2 00       		.byte	0
 7372 00b3 0E       		.uleb128 0xe
 7373 00b4 0D       		.uleb128 0xd
 7374 00b5 00       		.byte	0
 7375 00b6 03       		.uleb128 0x3
 7376 00b7 08       		.uleb128 0x8
 7377 00b8 3A       		.uleb128 0x3a
 7378 00b9 0B       		.uleb128 0xb
 7379 00ba 3B       		.uleb128 0x3b
 7380 00bb 0B       		.uleb128 0xb
 7381 00bc 49       		.uleb128 0x49
 7382 00bd 13       		.uleb128 0x13
 7383 00be 38       		.uleb128 0x38
 7384 00bf 0B       		.uleb128 0xb
 7385 00c0 00       		.byte	0
 7386 00c1 00       		.byte	0
 7387 00c2 0F       		.uleb128 0xf
 7388 00c3 0D       		.uleb128 0xd
 7389 00c4 00       		.byte	0
 7390 00c5 03       		.uleb128 0x3
 7391 00c6 0E       		.uleb128 0xe
 7392 00c7 3A       		.uleb128 0x3a
 7393 00c8 0B       		.uleb128 0xb
 7394 00c9 3B       		.uleb128 0x3b
 7395 00ca 0B       		.uleb128 0xb
 7396 00cb 49       		.uleb128 0x49
 7397 00cc 13       		.uleb128 0x13
 7398 00cd 38       		.uleb128 0x38
 7399 00ce 0B       		.uleb128 0xb
ARM GAS  C:\Users\haske\AppData\Local\Temp\ccOknJt1.s 			page 153


 7400 00cf 00       		.byte	0
 7401 00d0 00       		.byte	0
 7402 00d1 10       		.uleb128 0x10
 7403 00d2 13       		.uleb128 0x13
 7404 00d3 01       		.byte	0x1
 7405 00d4 03       		.uleb128 0x3
 7406 00d5 0E       		.uleb128 0xe
 7407 00d6 0B       		.uleb128 0xb
 7408 00d7 0B       		.uleb128 0xb
 7409 00d8 3A       		.uleb128 0x3a
 7410 00d9 0B       		.uleb128 0xb
 7411 00da 3B       		.uleb128 0x3b
 7412 00db 0B       		.uleb128 0xb
 7413 00dc 01       		.uleb128 0x1
 7414 00dd 13       		.uleb128 0x13
 7415 00de 00       		.byte	0
 7416 00df 00       		.byte	0
 7417 00e0 11       		.uleb128 0x11
 7418 00e1 0F       		.uleb128 0xf
 7419 00e2 00       		.byte	0
 7420 00e3 0B       		.uleb128 0xb
 7421 00e4 0B       		.uleb128 0xb
 7422 00e5 49       		.uleb128 0x49
 7423 00e6 13       		.uleb128 0x13
 7424 00e7 00       		.byte	0
 7425 00e8 00       		.byte	0
 7426 00e9 12       		.uleb128 0x12
 7427 00ea 26       		.uleb128 0x26
 7428 00eb 00       		.byte	0
 7429 00ec 49       		.uleb128 0x49
 7430 00ed 13       		.uleb128 0x13
 7431 00ee 00       		.byte	0
 7432 00ef 00       		.byte	0
 7433 00f0 13       		.uleb128 0x13
 7434 00f1 15       		.uleb128 0x15
 7435 00f2 01       		.byte	0x1
 7436 00f3 27       		.uleb128 0x27
 7437 00f4 19       		.uleb128 0x19
 7438 00f5 49       		.uleb128 0x49
 7439 00f6 13       		.uleb128 0x13
 7440 00f7 01       		.uleb128 0x1
 7441 00f8 13       		.uleb128 0x13
 7442 00f9 00       		.byte	0
 7443 00fa 00       		.byte	0
 7444 00fb 14       		.uleb128 0x14
 7445 00fc 05       		.uleb128 0x5
 7446 00fd 00       		.byte	0
 7447 00fe 49       		.uleb128 0x49
 7448 00ff 13       		.uleb128 0x13
 7449 0100 00       		.byte	0
 7450 0101 00       		.byte	0
 7451 0102 15       		.uleb128 0x15
 7452 0103 26       		.uleb128 0x26
 7453 0104 00       		.byte	0
 7454 0105 00       		.byte	0
 7455 0106 00       		.byte	0
 7456 0107 16       		.uleb128 0x16
ARM GAS  C:\Users\haske\AppData\Local\Temp\ccOknJt1.s 			page 154


 7457 0108 01       		.uleb128 0x1
 7458 0109 01       		.byte	0x1
 7459 010a 49       		.uleb128 0x49
 7460 010b 13       		.uleb128 0x13
 7461 010c 01       		.uleb128 0x1
 7462 010d 13       		.uleb128 0x13
 7463 010e 00       		.byte	0
 7464 010f 00       		.byte	0
 7465 0110 17       		.uleb128 0x17
 7466 0111 21       		.uleb128 0x21
 7467 0112 00       		.byte	0
 7468 0113 49       		.uleb128 0x49
 7469 0114 13       		.uleb128 0x13
 7470 0115 2F       		.uleb128 0x2f
 7471 0116 0B       		.uleb128 0xb
 7472 0117 00       		.byte	0
 7473 0118 00       		.byte	0
 7474 0119 18       		.uleb128 0x18
 7475 011a 28       		.uleb128 0x28
 7476 011b 00       		.byte	0
 7477 011c 03       		.uleb128 0x3
 7478 011d 0E       		.uleb128 0xe
 7479 011e 1C       		.uleb128 0x1c
 7480 011f 05       		.uleb128 0x5
 7481 0120 00       		.byte	0
 7482 0121 00       		.byte	0
 7483 0122 19       		.uleb128 0x19
 7484 0123 16       		.uleb128 0x16
 7485 0124 00       		.byte	0
 7486 0125 03       		.uleb128 0x3
 7487 0126 0E       		.uleb128 0xe
 7488 0127 3A       		.uleb128 0x3a
 7489 0128 0B       		.uleb128 0xb
 7490 0129 3B       		.uleb128 0x3b
 7491 012a 05       		.uleb128 0x5
 7492 012b 49       		.uleb128 0x49
 7493 012c 13       		.uleb128 0x13
 7494 012d 00       		.byte	0
 7495 012e 00       		.byte	0
 7496 012f 1A       		.uleb128 0x1a
 7497 0130 13       		.uleb128 0x13
 7498 0131 01       		.byte	0x1
 7499 0132 0B       		.uleb128 0xb
 7500 0133 0B       		.uleb128 0xb
 7501 0134 3A       		.uleb128 0x3a
 7502 0135 0B       		.uleb128 0xb
 7503 0136 3B       		.uleb128 0x3b
 7504 0137 05       		.uleb128 0x5
 7505 0138 01       		.uleb128 0x1
 7506 0139 13       		.uleb128 0x13
 7507 013a 00       		.byte	0
 7508 013b 00       		.byte	0
 7509 013c 1B       		.uleb128 0x1b
 7510 013d 0D       		.uleb128 0xd
 7511 013e 00       		.byte	0
 7512 013f 03       		.uleb128 0x3
 7513 0140 0E       		.uleb128 0xe
ARM GAS  C:\Users\haske\AppData\Local\Temp\ccOknJt1.s 			page 155


 7514 0141 3A       		.uleb128 0x3a
 7515 0142 0B       		.uleb128 0xb
 7516 0143 3B       		.uleb128 0x3b
 7517 0144 05       		.uleb128 0x5
 7518 0145 49       		.uleb128 0x49
 7519 0146 13       		.uleb128 0x13
 7520 0147 38       		.uleb128 0x38
 7521 0148 0B       		.uleb128 0xb
 7522 0149 00       		.byte	0
 7523 014a 00       		.byte	0
 7524 014b 1C       		.uleb128 0x1c
 7525 014c 17       		.uleb128 0x17
 7526 014d 01       		.byte	0x1
 7527 014e 0B       		.uleb128 0xb
 7528 014f 0B       		.uleb128 0xb
 7529 0150 3A       		.uleb128 0x3a
 7530 0151 0B       		.uleb128 0xb
 7531 0152 3B       		.uleb128 0x3b
 7532 0153 05       		.uleb128 0x5
 7533 0154 01       		.uleb128 0x1
 7534 0155 13       		.uleb128 0x13
 7535 0156 00       		.byte	0
 7536 0157 00       		.byte	0
 7537 0158 1D       		.uleb128 0x1d
 7538 0159 0D       		.uleb128 0xd
 7539 015a 00       		.byte	0
 7540 015b 03       		.uleb128 0x3
 7541 015c 0E       		.uleb128 0xe
 7542 015d 3A       		.uleb128 0x3a
 7543 015e 0B       		.uleb128 0xb
 7544 015f 3B       		.uleb128 0x3b
 7545 0160 05       		.uleb128 0x5
 7546 0161 49       		.uleb128 0x49
 7547 0162 13       		.uleb128 0x13
 7548 0163 00       		.byte	0
 7549 0164 00       		.byte	0
 7550 0165 1E       		.uleb128 0x1e
 7551 0166 0D       		.uleb128 0xd
 7552 0167 00       		.byte	0
 7553 0168 03       		.uleb128 0x3
 7554 0169 08       		.uleb128 0x8
 7555 016a 3A       		.uleb128 0x3a
 7556 016b 0B       		.uleb128 0xb
 7557 016c 3B       		.uleb128 0x3b
 7558 016d 05       		.uleb128 0x5
 7559 016e 49       		.uleb128 0x49
 7560 016f 13       		.uleb128 0x13
 7561 0170 38       		.uleb128 0x38
 7562 0171 0B       		.uleb128 0xb
 7563 0172 00       		.byte	0
 7564 0173 00       		.byte	0
 7565 0174 1F       		.uleb128 0x1f
 7566 0175 15       		.uleb128 0x15
 7567 0176 01       		.byte	0x1
 7568 0177 27       		.uleb128 0x27
 7569 0178 19       		.uleb128 0x19
 7570 0179 01       		.uleb128 0x1
ARM GAS  C:\Users\haske\AppData\Local\Temp\ccOknJt1.s 			page 156


 7571 017a 13       		.uleb128 0x13
 7572 017b 00       		.byte	0
 7573 017c 00       		.byte	0
 7574 017d 20       		.uleb128 0x20
 7575 017e 13       		.uleb128 0x13
 7576 017f 01       		.byte	0x1
 7577 0180 03       		.uleb128 0x3
 7578 0181 0E       		.uleb128 0xe
 7579 0182 0B       		.uleb128 0xb
 7580 0183 05       		.uleb128 0x5
 7581 0184 3A       		.uleb128 0x3a
 7582 0185 0B       		.uleb128 0xb
 7583 0186 3B       		.uleb128 0x3b
 7584 0187 0B       		.uleb128 0xb
 7585 0188 01       		.uleb128 0x1
 7586 0189 13       		.uleb128 0x13
 7587 018a 00       		.byte	0
 7588 018b 00       		.byte	0
 7589 018c 21       		.uleb128 0x21
 7590 018d 0D       		.uleb128 0xd
 7591 018e 00       		.byte	0
 7592 018f 03       		.uleb128 0x3
 7593 0190 0E       		.uleb128 0xe
 7594 0191 3A       		.uleb128 0x3a
 7595 0192 0B       		.uleb128 0xb
 7596 0193 3B       		.uleb128 0x3b
 7597 0194 0B       		.uleb128 0xb
 7598 0195 49       		.uleb128 0x49
 7599 0196 13       		.uleb128 0x13
 7600 0197 38       		.uleb128 0x38
 7601 0198 05       		.uleb128 0x5
 7602 0199 00       		.byte	0
 7603 019a 00       		.byte	0
 7604 019b 22       		.uleb128 0x22
 7605 019c 35       		.uleb128 0x35
 7606 019d 00       		.byte	0
 7607 019e 49       		.uleb128 0x49
 7608 019f 13       		.uleb128 0x13
 7609 01a0 00       		.byte	0
 7610 01a1 00       		.byte	0
 7611 01a2 23       		.uleb128 0x23
 7612 01a3 13       		.uleb128 0x13
 7613 01a4 00       		.byte	0
 7614 01a5 03       		.uleb128 0x3
 7615 01a6 0E       		.uleb128 0xe
 7616 01a7 3C       		.uleb128 0x3c
 7617 01a8 19       		.uleb128 0x19
 7618 01a9 00       		.byte	0
 7619 01aa 00       		.byte	0
 7620 01ab 24       		.uleb128 0x24
 7621 01ac 2E       		.uleb128 0x2e
 7622 01ad 01       		.byte	0x1
 7623 01ae 03       		.uleb128 0x3
 7624 01af 0E       		.uleb128 0xe
 7625 01b0 3A       		.uleb128 0x3a
 7626 01b1 0B       		.uleb128 0xb
 7627 01b2 3B       		.uleb128 0x3b
ARM GAS  C:\Users\haske\AppData\Local\Temp\ccOknJt1.s 			page 157


 7628 01b3 05       		.uleb128 0x5
 7629 01b4 27       		.uleb128 0x27
 7630 01b5 19       		.uleb128 0x19
 7631 01b6 49       		.uleb128 0x49
 7632 01b7 13       		.uleb128 0x13
 7633 01b8 20       		.uleb128 0x20
 7634 01b9 0B       		.uleb128 0xb
 7635 01ba 01       		.uleb128 0x1
 7636 01bb 13       		.uleb128 0x13
 7637 01bc 00       		.byte	0
 7638 01bd 00       		.byte	0
 7639 01be 25       		.uleb128 0x25
 7640 01bf 05       		.uleb128 0x5
 7641 01c0 00       		.byte	0
 7642 01c1 03       		.uleb128 0x3
 7643 01c2 08       		.uleb128 0x8
 7644 01c3 3A       		.uleb128 0x3a
 7645 01c4 0B       		.uleb128 0xb
 7646 01c5 3B       		.uleb128 0x3b
 7647 01c6 05       		.uleb128 0x5
 7648 01c7 49       		.uleb128 0x49
 7649 01c8 13       		.uleb128 0x13
 7650 01c9 00       		.byte	0
 7651 01ca 00       		.byte	0
 7652 01cb 26       		.uleb128 0x26
 7653 01cc 34       		.uleb128 0x34
 7654 01cd 00       		.byte	0
 7655 01ce 03       		.uleb128 0x3
 7656 01cf 08       		.uleb128 0x8
 7657 01d0 3A       		.uleb128 0x3a
 7658 01d1 0B       		.uleb128 0xb
 7659 01d2 3B       		.uleb128 0x3b
 7660 01d3 05       		.uleb128 0x5
 7661 01d4 49       		.uleb128 0x49
 7662 01d5 13       		.uleb128 0x13
 7663 01d6 00       		.byte	0
 7664 01d7 00       		.byte	0
 7665 01d8 27       		.uleb128 0x27
 7666 01d9 34       		.uleb128 0x34
 7667 01da 00       		.byte	0
 7668 01db 03       		.uleb128 0x3
 7669 01dc 0E       		.uleb128 0xe
 7670 01dd 3A       		.uleb128 0x3a
 7671 01de 0B       		.uleb128 0xb
 7672 01df 3B       		.uleb128 0x3b
 7673 01e0 05       		.uleb128 0x5
 7674 01e1 49       		.uleb128 0x49
 7675 01e2 13       		.uleb128 0x13
 7676 01e3 00       		.byte	0
 7677 01e4 00       		.byte	0
 7678 01e5 28       		.uleb128 0x28
 7679 01e6 2E       		.uleb128 0x2e
 7680 01e7 01       		.byte	0x1
 7681 01e8 03       		.uleb128 0x3
 7682 01e9 0E       		.uleb128 0xe
 7683 01ea 3A       		.uleb128 0x3a
 7684 01eb 0B       		.uleb128 0xb
ARM GAS  C:\Users\haske\AppData\Local\Temp\ccOknJt1.s 			page 158


 7685 01ec 3B       		.uleb128 0x3b
 7686 01ed 0B       		.uleb128 0xb
 7687 01ee 27       		.uleb128 0x27
 7688 01ef 19       		.uleb128 0x19
 7689 01f0 49       		.uleb128 0x49
 7690 01f1 13       		.uleb128 0x13
 7691 01f2 20       		.uleb128 0x20
 7692 01f3 0B       		.uleb128 0xb
 7693 01f4 01       		.uleb128 0x1
 7694 01f5 13       		.uleb128 0x13
 7695 01f6 00       		.byte	0
 7696 01f7 00       		.byte	0
 7697 01f8 29       		.uleb128 0x29
 7698 01f9 05       		.uleb128 0x5
 7699 01fa 00       		.byte	0
 7700 01fb 03       		.uleb128 0x3
 7701 01fc 0E       		.uleb128 0xe
 7702 01fd 3A       		.uleb128 0x3a
 7703 01fe 0B       		.uleb128 0xb
 7704 01ff 3B       		.uleb128 0x3b
 7705 0200 0B       		.uleb128 0xb
 7706 0201 49       		.uleb128 0x49
 7707 0202 13       		.uleb128 0x13
 7708 0203 00       		.byte	0
 7709 0204 00       		.byte	0
 7710 0205 2A       		.uleb128 0x2a
 7711 0206 2E       		.uleb128 0x2e
 7712 0207 01       		.byte	0x1
 7713 0208 03       		.uleb128 0x3
 7714 0209 0E       		.uleb128 0xe
 7715 020a 3A       		.uleb128 0x3a
 7716 020b 0B       		.uleb128 0xb
 7717 020c 3B       		.uleb128 0x3b
 7718 020d 0B       		.uleb128 0xb
 7719 020e 27       		.uleb128 0x27
 7720 020f 19       		.uleb128 0x19
 7721 0210 11       		.uleb128 0x11
 7722 0211 01       		.uleb128 0x1
 7723 0212 12       		.uleb128 0x12
 7724 0213 06       		.uleb128 0x6
 7725 0214 40       		.uleb128 0x40
 7726 0215 18       		.uleb128 0x18
 7727 0216 9742     		.uleb128 0x2117
 7728 0218 19       		.uleb128 0x19
 7729 0219 01       		.uleb128 0x1
 7730 021a 13       		.uleb128 0x13
 7731 021b 00       		.byte	0
 7732 021c 00       		.byte	0
 7733 021d 2B       		.uleb128 0x2b
 7734 021e 05       		.uleb128 0x5
 7735 021f 00       		.byte	0
 7736 0220 03       		.uleb128 0x3
 7737 0221 08       		.uleb128 0x8
 7738 0222 3A       		.uleb128 0x3a
 7739 0223 0B       		.uleb128 0xb
 7740 0224 3B       		.uleb128 0x3b
 7741 0225 0B       		.uleb128 0xb
ARM GAS  C:\Users\haske\AppData\Local\Temp\ccOknJt1.s 			page 159


 7742 0226 49       		.uleb128 0x49
 7743 0227 13       		.uleb128 0x13
 7744 0228 02       		.uleb128 0x2
 7745 0229 17       		.uleb128 0x17
 7746 022a 00       		.byte	0
 7747 022b 00       		.byte	0
 7748 022c 2C       		.uleb128 0x2c
 7749 022d 05       		.uleb128 0x5
 7750 022e 00       		.byte	0
 7751 022f 03       		.uleb128 0x3
 7752 0230 0E       		.uleb128 0xe
 7753 0231 3A       		.uleb128 0x3a
 7754 0232 0B       		.uleb128 0xb
 7755 0233 3B       		.uleb128 0x3b
 7756 0234 0B       		.uleb128 0xb
 7757 0235 49       		.uleb128 0x49
 7758 0236 13       		.uleb128 0x13
 7759 0237 02       		.uleb128 0x2
 7760 0238 17       		.uleb128 0x17
 7761 0239 00       		.byte	0
 7762 023a 00       		.byte	0
 7763 023b 2D       		.uleb128 0x2d
 7764 023c 05       		.uleb128 0x5
 7765 023d 00       		.byte	0
 7766 023e 03       		.uleb128 0x3
 7767 023f 0E       		.uleb128 0xe
 7768 0240 3A       		.uleb128 0x3a
 7769 0241 0B       		.uleb128 0xb
 7770 0242 3B       		.uleb128 0x3b
 7771 0243 0B       		.uleb128 0xb
 7772 0244 49       		.uleb128 0x49
 7773 0245 13       		.uleb128 0x13
 7774 0246 02       		.uleb128 0x2
 7775 0247 18       		.uleb128 0x18
 7776 0248 00       		.byte	0
 7777 0249 00       		.byte	0
 7778 024a 2E       		.uleb128 0x2e
 7779 024b 34       		.uleb128 0x34
 7780 024c 00       		.byte	0
 7781 024d 03       		.uleb128 0x3
 7782 024e 0E       		.uleb128 0xe
 7783 024f 3A       		.uleb128 0x3a
 7784 0250 0B       		.uleb128 0xb
 7785 0251 3B       		.uleb128 0x3b
 7786 0252 0B       		.uleb128 0xb
 7787 0253 49       		.uleb128 0x49
 7788 0254 13       		.uleb128 0x13
 7789 0255 02       		.uleb128 0x2
 7790 0256 18       		.uleb128 0x18
 7791 0257 00       		.byte	0
 7792 0258 00       		.byte	0
 7793 0259 2F       		.uleb128 0x2f
 7794 025a 34       		.uleb128 0x34
 7795 025b 00       		.byte	0
 7796 025c 03       		.uleb128 0x3
 7797 025d 0E       		.uleb128 0xe
 7798 025e 3A       		.uleb128 0x3a
ARM GAS  C:\Users\haske\AppData\Local\Temp\ccOknJt1.s 			page 160


 7799 025f 0B       		.uleb128 0xb
 7800 0260 3B       		.uleb128 0x3b
 7801 0261 0B       		.uleb128 0xb
 7802 0262 49       		.uleb128 0x49
 7803 0263 13       		.uleb128 0x13
 7804 0264 02       		.uleb128 0x2
 7805 0265 17       		.uleb128 0x17
 7806 0266 00       		.byte	0
 7807 0267 00       		.byte	0
 7808 0268 30       		.uleb128 0x30
 7809 0269 34       		.uleb128 0x34
 7810 026a 00       		.byte	0
 7811 026b 03       		.uleb128 0x3
 7812 026c 08       		.uleb128 0x8
 7813 026d 3A       		.uleb128 0x3a
 7814 026e 0B       		.uleb128 0xb
 7815 026f 3B       		.uleb128 0x3b
 7816 0270 0B       		.uleb128 0xb
 7817 0271 49       		.uleb128 0x49
 7818 0272 13       		.uleb128 0x13
 7819 0273 02       		.uleb128 0x2
 7820 0274 17       		.uleb128 0x17
 7821 0275 00       		.byte	0
 7822 0276 00       		.byte	0
 7823 0277 31       		.uleb128 0x31
 7824 0278 0B       		.uleb128 0xb
 7825 0279 01       		.byte	0x1
 7826 027a 11       		.uleb128 0x11
 7827 027b 01       		.uleb128 0x1
 7828 027c 12       		.uleb128 0x12
 7829 027d 06       		.uleb128 0x6
 7830 027e 00       		.byte	0
 7831 027f 00       		.byte	0
 7832 0280 32       		.uleb128 0x32
 7833 0281 34       		.uleb128 0x34
 7834 0282 00       		.byte	0
 7835 0283 03       		.uleb128 0x3
 7836 0284 0E       		.uleb128 0xe
 7837 0285 3A       		.uleb128 0x3a
 7838 0286 0B       		.uleb128 0xb
 7839 0287 3B       		.uleb128 0x3b
 7840 0288 05       		.uleb128 0x5
 7841 0289 49       		.uleb128 0x49
 7842 028a 13       		.uleb128 0x13
 7843 028b 02       		.uleb128 0x2
 7844 028c 17       		.uleb128 0x17
 7845 028d 00       		.byte	0
 7846 028e 00       		.byte	0
 7847 028f 33       		.uleb128 0x33
 7848 0290 2E       		.uleb128 0x2e
 7849 0291 01       		.byte	0x1
 7850 0292 03       		.uleb128 0x3
 7851 0293 0E       		.uleb128 0xe
 7852 0294 3A       		.uleb128 0x3a
 7853 0295 0B       		.uleb128 0xb
 7854 0296 3B       		.uleb128 0x3b
 7855 0297 05       		.uleb128 0x5
ARM GAS  C:\Users\haske\AppData\Local\Temp\ccOknJt1.s 			page 161


 7856 0298 27       		.uleb128 0x27
 7857 0299 19       		.uleb128 0x19
 7858 029a 11       		.uleb128 0x11
 7859 029b 01       		.uleb128 0x1
 7860 029c 12       		.uleb128 0x12
 7861 029d 06       		.uleb128 0x6
 7862 029e 40       		.uleb128 0x40
 7863 029f 18       		.uleb128 0x18
 7864 02a0 9742     		.uleb128 0x2117
 7865 02a2 19       		.uleb128 0x19
 7866 02a3 01       		.uleb128 0x1
 7867 02a4 13       		.uleb128 0x13
 7868 02a5 00       		.byte	0
 7869 02a6 00       		.byte	0
 7870 02a7 34       		.uleb128 0x34
 7871 02a8 05       		.uleb128 0x5
 7872 02a9 00       		.byte	0
 7873 02aa 03       		.uleb128 0x3
 7874 02ab 08       		.uleb128 0x8
 7875 02ac 3A       		.uleb128 0x3a
 7876 02ad 0B       		.uleb128 0xb
 7877 02ae 3B       		.uleb128 0x3b
 7878 02af 05       		.uleb128 0x5
 7879 02b0 49       		.uleb128 0x49
 7880 02b1 13       		.uleb128 0x13
 7881 02b2 02       		.uleb128 0x2
 7882 02b3 18       		.uleb128 0x18
 7883 02b4 00       		.byte	0
 7884 02b5 00       		.byte	0
 7885 02b6 35       		.uleb128 0x35
 7886 02b7 05       		.uleb128 0x5
 7887 02b8 00       		.byte	0
 7888 02b9 03       		.uleb128 0x3
 7889 02ba 08       		.uleb128 0x8
 7890 02bb 3A       		.uleb128 0x3a
 7891 02bc 0B       		.uleb128 0xb
 7892 02bd 3B       		.uleb128 0x3b
 7893 02be 05       		.uleb128 0x5
 7894 02bf 49       		.uleb128 0x49
 7895 02c0 13       		.uleb128 0x13
 7896 02c1 02       		.uleb128 0x2
 7897 02c2 17       		.uleb128 0x17
 7898 02c3 00       		.byte	0
 7899 02c4 00       		.byte	0
 7900 02c5 36       		.uleb128 0x36
 7901 02c6 05       		.uleb128 0x5
 7902 02c7 00       		.byte	0
 7903 02c8 03       		.uleb128 0x3
 7904 02c9 0E       		.uleb128 0xe
 7905 02ca 3A       		.uleb128 0x3a
 7906 02cb 0B       		.uleb128 0xb
 7907 02cc 3B       		.uleb128 0x3b
 7908 02cd 05       		.uleb128 0x5
 7909 02ce 49       		.uleb128 0x49
 7910 02cf 13       		.uleb128 0x13
 7911 02d0 02       		.uleb128 0x2
 7912 02d1 17       		.uleb128 0x17
ARM GAS  C:\Users\haske\AppData\Local\Temp\ccOknJt1.s 			page 162


 7913 02d2 00       		.byte	0
 7914 02d3 00       		.byte	0
 7915 02d4 37       		.uleb128 0x37
 7916 02d5 05       		.uleb128 0x5
 7917 02d6 00       		.byte	0
 7918 02d7 03       		.uleb128 0x3
 7919 02d8 0E       		.uleb128 0xe
 7920 02d9 3A       		.uleb128 0x3a
 7921 02da 0B       		.uleb128 0xb
 7922 02db 3B       		.uleb128 0x3b
 7923 02dc 05       		.uleb128 0x5
 7924 02dd 49       		.uleb128 0x49
 7925 02de 13       		.uleb128 0x13
 7926 02df 02       		.uleb128 0x2
 7927 02e0 18       		.uleb128 0x18
 7928 02e1 00       		.byte	0
 7929 02e2 00       		.byte	0
 7930 02e3 38       		.uleb128 0x38
 7931 02e4 34       		.uleb128 0x34
 7932 02e5 00       		.byte	0
 7933 02e6 03       		.uleb128 0x3
 7934 02e7 0E       		.uleb128 0xe
 7935 02e8 3A       		.uleb128 0x3a
 7936 02e9 0B       		.uleb128 0xb
 7937 02ea 3B       		.uleb128 0x3b
 7938 02eb 05       		.uleb128 0x5
 7939 02ec 49       		.uleb128 0x49
 7940 02ed 13       		.uleb128 0x13
 7941 02ee 02       		.uleb128 0x2
 7942 02ef 18       		.uleb128 0x18
 7943 02f0 00       		.byte	0
 7944 02f1 00       		.byte	0
 7945 02f2 39       		.uleb128 0x39
 7946 02f3 34       		.uleb128 0x34
 7947 02f4 00       		.byte	0
 7948 02f5 03       		.uleb128 0x3
 7949 02f6 08       		.uleb128 0x8
 7950 02f7 3A       		.uleb128 0x3a
 7951 02f8 0B       		.uleb128 0xb
 7952 02f9 3B       		.uleb128 0x3b
 7953 02fa 05       		.uleb128 0x5
 7954 02fb 49       		.uleb128 0x49
 7955 02fc 13       		.uleb128 0x13
 7956 02fd 02       		.uleb128 0x2
 7957 02fe 17       		.uleb128 0x17
 7958 02ff 00       		.byte	0
 7959 0300 00       		.byte	0
 7960 0301 3A       		.uleb128 0x3a
 7961 0302 0B       		.uleb128 0xb
 7962 0303 01       		.byte	0x1
 7963 0304 11       		.uleb128 0x11
 7964 0305 01       		.uleb128 0x1
 7965 0306 12       		.uleb128 0x12
 7966 0307 06       		.uleb128 0x6
 7967 0308 01       		.uleb128 0x1
 7968 0309 13       		.uleb128 0x13
 7969 030a 00       		.byte	0
ARM GAS  C:\Users\haske\AppData\Local\Temp\ccOknJt1.s 			page 163


 7970 030b 00       		.byte	0
 7971 030c 3B       		.uleb128 0x3b
 7972 030d 898201   		.uleb128 0x4109
 7973 0310 00       		.byte	0
 7974 0311 11       		.uleb128 0x11
 7975 0312 01       		.uleb128 0x1
 7976 0313 31       		.uleb128 0x31
 7977 0314 13       		.uleb128 0x13
 7978 0315 00       		.byte	0
 7979 0316 00       		.byte	0
 7980 0317 3C       		.uleb128 0x3c
 7981 0318 1D       		.uleb128 0x1d
 7982 0319 01       		.byte	0x1
 7983 031a 31       		.uleb128 0x31
 7984 031b 13       		.uleb128 0x13
 7985 031c 11       		.uleb128 0x11
 7986 031d 01       		.uleb128 0x1
 7987 031e 12       		.uleb128 0x12
 7988 031f 06       		.uleb128 0x6
 7989 0320 58       		.uleb128 0x58
 7990 0321 0B       		.uleb128 0xb
 7991 0322 59       		.uleb128 0x59
 7992 0323 05       		.uleb128 0x5
 7993 0324 01       		.uleb128 0x1
 7994 0325 13       		.uleb128 0x13
 7995 0326 00       		.byte	0
 7996 0327 00       		.byte	0
 7997 0328 3D       		.uleb128 0x3d
 7998 0329 05       		.uleb128 0x5
 7999 032a 00       		.byte	0
 8000 032b 31       		.uleb128 0x31
 8001 032c 13       		.uleb128 0x13
 8002 032d 02       		.uleb128 0x2
 8003 032e 17       		.uleb128 0x17
 8004 032f 00       		.byte	0
 8005 0330 00       		.byte	0
 8006 0331 3E       		.uleb128 0x3e
 8007 0332 05       		.uleb128 0x5
 8008 0333 00       		.byte	0
 8009 0334 31       		.uleb128 0x31
 8010 0335 13       		.uleb128 0x13
 8011 0336 00       		.byte	0
 8012 0337 00       		.byte	0
 8013 0338 3F       		.uleb128 0x3f
 8014 0339 34       		.uleb128 0x34
 8015 033a 00       		.byte	0
 8016 033b 31       		.uleb128 0x31
 8017 033c 13       		.uleb128 0x13
 8018 033d 00       		.byte	0
 8019 033e 00       		.byte	0
 8020 033f 40       		.uleb128 0x40
 8021 0340 34       		.uleb128 0x34
 8022 0341 00       		.byte	0
 8023 0342 31       		.uleb128 0x31
 8024 0343 13       		.uleb128 0x13
 8025 0344 02       		.uleb128 0x2
 8026 0345 17       		.uleb128 0x17
ARM GAS  C:\Users\haske\AppData\Local\Temp\ccOknJt1.s 			page 164


 8027 0346 00       		.byte	0
 8028 0347 00       		.byte	0
 8029 0348 41       		.uleb128 0x41
 8030 0349 1D       		.uleb128 0x1d
 8031 034a 01       		.byte	0x1
 8032 034b 31       		.uleb128 0x31
 8033 034c 13       		.uleb128 0x13
 8034 034d 11       		.uleb128 0x11
 8035 034e 01       		.uleb128 0x1
 8036 034f 12       		.uleb128 0x12
 8037 0350 06       		.uleb128 0x6
 8038 0351 58       		.uleb128 0x58
 8039 0352 0B       		.uleb128 0xb
 8040 0353 59       		.uleb128 0x59
 8041 0354 05       		.uleb128 0x5
 8042 0355 00       		.byte	0
 8043 0356 00       		.byte	0
 8044 0357 42       		.uleb128 0x42
 8045 0358 898201   		.uleb128 0x4109
 8046 035b 01       		.byte	0x1
 8047 035c 11       		.uleb128 0x11
 8048 035d 01       		.uleb128 0x1
 8049 035e 31       		.uleb128 0x31
 8050 035f 13       		.uleb128 0x13
 8051 0360 00       		.byte	0
 8052 0361 00       		.byte	0
 8053 0362 43       		.uleb128 0x43
 8054 0363 8A8201   		.uleb128 0x410a
 8055 0366 00       		.byte	0
 8056 0367 02       		.uleb128 0x2
 8057 0368 18       		.uleb128 0x18
 8058 0369 9142     		.uleb128 0x2111
 8059 036b 18       		.uleb128 0x18
 8060 036c 00       		.byte	0
 8061 036d 00       		.byte	0
 8062 036e 44       		.uleb128 0x44
 8063 036f 2E       		.uleb128 0x2e
 8064 0370 01       		.byte	0x1
 8065 0371 3F       		.uleb128 0x3f
 8066 0372 19       		.uleb128 0x19
 8067 0373 03       		.uleb128 0x3
 8068 0374 0E       		.uleb128 0xe
 8069 0375 3A       		.uleb128 0x3a
 8070 0376 0B       		.uleb128 0xb
 8071 0377 3B       		.uleb128 0x3b
 8072 0378 0B       		.uleb128 0xb
 8073 0379 27       		.uleb128 0x27
 8074 037a 19       		.uleb128 0x19
 8075 037b 11       		.uleb128 0x11
 8076 037c 01       		.uleb128 0x1
 8077 037d 12       		.uleb128 0x12
 8078 037e 06       		.uleb128 0x6
 8079 037f 40       		.uleb128 0x40
 8080 0380 18       		.uleb128 0x18
 8081 0381 9642     		.uleb128 0x2116
 8082 0383 19       		.uleb128 0x19
 8083 0384 01       		.uleb128 0x1
ARM GAS  C:\Users\haske\AppData\Local\Temp\ccOknJt1.s 			page 165


 8084 0385 13       		.uleb128 0x13
 8085 0386 00       		.byte	0
 8086 0387 00       		.byte	0
 8087 0388 45       		.uleb128 0x45
 8088 0389 34       		.uleb128 0x34
 8089 038a 00       		.byte	0
 8090 038b 03       		.uleb128 0x3
 8091 038c 0E       		.uleb128 0xe
 8092 038d 3A       		.uleb128 0x3a
 8093 038e 0B       		.uleb128 0xb
 8094 038f 3B       		.uleb128 0x3b
 8095 0390 0B       		.uleb128 0xb
 8096 0391 49       		.uleb128 0x49
 8097 0392 13       		.uleb128 0x13
 8098 0393 00       		.byte	0
 8099 0394 00       		.byte	0
 8100 0395 46       		.uleb128 0x46
 8101 0396 1D       		.uleb128 0x1d
 8102 0397 01       		.byte	0x1
 8103 0398 31       		.uleb128 0x31
 8104 0399 13       		.uleb128 0x13
 8105 039a 11       		.uleb128 0x11
 8106 039b 01       		.uleb128 0x1
 8107 039c 12       		.uleb128 0x12
 8108 039d 06       		.uleb128 0x6
 8109 039e 58       		.uleb128 0x58
 8110 039f 0B       		.uleb128 0xb
 8111 03a0 59       		.uleb128 0x59
 8112 03a1 0B       		.uleb128 0xb
 8113 03a2 01       		.uleb128 0x1
 8114 03a3 13       		.uleb128 0x13
 8115 03a4 00       		.byte	0
 8116 03a5 00       		.byte	0
 8117 03a6 47       		.uleb128 0x47
 8118 03a7 898201   		.uleb128 0x4109
 8119 03aa 01       		.byte	0x1
 8120 03ab 11       		.uleb128 0x11
 8121 03ac 01       		.uleb128 0x1
 8122 03ad 31       		.uleb128 0x31
 8123 03ae 13       		.uleb128 0x13
 8124 03af 01       		.uleb128 0x1
 8125 03b0 13       		.uleb128 0x13
 8126 03b1 00       		.byte	0
 8127 03b2 00       		.byte	0
 8128 03b3 48       		.uleb128 0x48
 8129 03b4 34       		.uleb128 0x34
 8130 03b5 00       		.byte	0
 8131 03b6 03       		.uleb128 0x3
 8132 03b7 0E       		.uleb128 0xe
 8133 03b8 3A       		.uleb128 0x3a
 8134 03b9 0B       		.uleb128 0xb
 8135 03ba 3B       		.uleb128 0x3b
 8136 03bb 0B       		.uleb128 0xb
 8137 03bc 49       		.uleb128 0x49
 8138 03bd 13       		.uleb128 0x13
 8139 03be 3F       		.uleb128 0x3f
 8140 03bf 19       		.uleb128 0x19
ARM GAS  C:\Users\haske\AppData\Local\Temp\ccOknJt1.s 			page 166


 8141 03c0 3C       		.uleb128 0x3c
 8142 03c1 19       		.uleb128 0x19
 8143 03c2 00       		.byte	0
 8144 03c3 00       		.byte	0
 8145 03c4 49       		.uleb128 0x49
 8146 03c5 2E       		.uleb128 0x2e
 8147 03c6 00       		.byte	0
 8148 03c7 3F       		.uleb128 0x3f
 8149 03c8 19       		.uleb128 0x19
 8150 03c9 3C       		.uleb128 0x3c
 8151 03ca 19       		.uleb128 0x19
 8152 03cb 6E       		.uleb128 0x6e
 8153 03cc 0E       		.uleb128 0xe
 8154 03cd 03       		.uleb128 0x3
 8155 03ce 0E       		.uleb128 0xe
 8156 03cf 3A       		.uleb128 0x3a
 8157 03d0 0B       		.uleb128 0xb
 8158 03d1 3B       		.uleb128 0x3b
 8159 03d2 0B       		.uleb128 0xb
 8160 03d3 00       		.byte	0
 8161 03d4 00       		.byte	0
 8162 03d5 00       		.byte	0
 8163              		.section	.debug_loc,"",%progbits
 8164              	.Ldebug_loc0:
 8165              	.LLST0:
 8166 0000 00000000 		.4byte	.LVL0
 8167 0004 20000000 		.4byte	.LVL2
 8168 0008 0100     		.2byte	0x1
 8169 000a 50       		.byte	0x50
 8170 000b 20000000 		.4byte	.LVL2
 8171 000f 96000000 		.4byte	.LVL19
 8172 0013 0200     		.2byte	0x2
 8173 0015 7D       		.byte	0x7d
 8174 0016 00       		.sleb128 0
 8175 0017 96000000 		.4byte	.LVL19
 8176 001b A2000000 		.4byte	.LFE161
 8177 001f 0200     		.2byte	0x2
 8178 0021 91       		.byte	0x91
 8179 0022 50       		.sleb128 -48
 8180 0023 00000000 		.4byte	0
 8181 0027 00000000 		.4byte	0
 8182              	.LLST1:
 8183 002b 00000000 		.4byte	.LVL0
 8184 002f 22000000 		.4byte	.LVL3
 8185 0033 0100     		.2byte	0x1
 8186 0035 51       		.byte	0x51
 8187 0036 22000000 		.4byte	.LVL3
 8188 003a A2000000 		.4byte	.LFE161
 8189 003e 0400     		.2byte	0x4
 8190 0040 F3       		.byte	0xf3
 8191 0041 01       		.uleb128 0x1
 8192 0042 51       		.byte	0x51
 8193 0043 9F       		.byte	0x9f
 8194 0044 00000000 		.4byte	0
 8195 0048 00000000 		.4byte	0
 8196              	.LLST2:
 8197 004c 00000000 		.4byte	.LVL0
ARM GAS  C:\Users\haske\AppData\Local\Temp\ccOknJt1.s 			page 167


 8198 0050 22000000 		.4byte	.LVL3
 8199 0054 0100     		.2byte	0x1
 8200 0056 52       		.byte	0x52
 8201 0057 22000000 		.4byte	.LVL3
 8202 005b A2000000 		.4byte	.LFE161
 8203 005f 0400     		.2byte	0x4
 8204 0061 F3       		.byte	0xf3
 8205 0062 01       		.uleb128 0x1
 8206 0063 52       		.byte	0x52
 8207 0064 9F       		.byte	0x9f
 8208 0065 00000000 		.4byte	0
 8209 0069 00000000 		.4byte	0
 8210              	.LLST3:
 8211 006d 00000000 		.4byte	.LVL0
 8212 0071 22000000 		.4byte	.LVL3
 8213 0075 0100     		.2byte	0x1
 8214 0077 53       		.byte	0x53
 8215 0078 22000000 		.4byte	.LVL3
 8216 007c A2000000 		.4byte	.LFE161
 8217 0080 0400     		.2byte	0x4
 8218 0082 F3       		.byte	0xf3
 8219 0083 01       		.uleb128 0x1
 8220 0084 53       		.byte	0x53
 8221 0085 9F       		.byte	0x9f
 8222 0086 00000000 		.4byte	0
 8223 008a 00000000 		.4byte	0
 8224              	.LLST4:
 8225 008e 00000000 		.4byte	.LVL0
 8226 0092 22000000 		.4byte	.LVL3
 8227 0096 0200     		.2byte	0x2
 8228 0098 91       		.byte	0x91
 8229 0099 00       		.sleb128 0
 8230 009a 2E000000 		.4byte	.LVL4
 8231 009e 3A000000 		.4byte	.LVL6
 8232 00a2 0100     		.2byte	0x1
 8233 00a4 53       		.byte	0x53
 8234 00a5 3A000000 		.4byte	.LVL6
 8235 00a9 5A000000 		.4byte	.LVL11
 8236 00ad 0B00     		.2byte	0xb
 8237 00af 76       		.byte	0x76
 8238 00b0 00       		.sleb128 0
 8239 00b1 70       		.byte	0x70
 8240 00b2 00       		.sleb128 0
 8241 00b3 1E       		.byte	0x1e
 8242 00b4 38       		.byte	0x38
 8243 00b5 26       		.byte	0x26
 8244 00b6 72       		.byte	0x72
 8245 00b7 00       		.sleb128 0
 8246 00b8 22       		.byte	0x22
 8247 00b9 9F       		.byte	0x9f
 8248 00ba 5A000000 		.4byte	.LVL11
 8249 00be 8E000000 		.4byte	.LVL17
 8250 00c2 0C00     		.2byte	0xc
 8251 00c4 76       		.byte	0x76
 8252 00c5 00       		.sleb128 0
 8253 00c6 70       		.byte	0x70
 8254 00c7 00       		.sleb128 0
ARM GAS  C:\Users\haske\AppData\Local\Temp\ccOknJt1.s 			page 168


 8255 00c8 1E       		.byte	0x1e
 8256 00c9 38       		.byte	0x38
 8257 00ca 26       		.byte	0x26
 8258 00cb 91       		.byte	0x91
 8259 00cc 00       		.sleb128 0
 8260 00cd 06       		.byte	0x6
 8261 00ce 22       		.byte	0x22
 8262 00cf 9F       		.byte	0x9f
 8263 00d0 8E000000 		.4byte	.LVL17
 8264 00d4 90000000 		.4byte	.LVL18
 8265 00d8 0C00     		.2byte	0xc
 8266 00da 70       		.byte	0x70
 8267 00db 7F       		.sleb128 -1
 8268 00dc 76       		.byte	0x76
 8269 00dd 00       		.sleb128 0
 8270 00de 1E       		.byte	0x1e
 8271 00df 38       		.byte	0x38
 8272 00e0 26       		.byte	0x26
 8273 00e1 91       		.byte	0x91
 8274 00e2 00       		.sleb128 0
 8275 00e3 06       		.byte	0x6
 8276 00e4 22       		.byte	0x22
 8277 00e5 9F       		.byte	0x9f
 8278 00e6 00000000 		.4byte	0
 8279 00ea 00000000 		.4byte	0
 8280              	.LLST5:
 8281 00ee 00000000 		.4byte	.LVL0
 8282 00f2 22000000 		.4byte	.LVL3
 8283 00f6 0200     		.2byte	0x2
 8284 00f8 91       		.byte	0x91
 8285 00f9 04       		.sleb128 4
 8286 00fa 38000000 		.4byte	.LVL5
 8287 00fe 5E000000 		.4byte	.LVL13
 8288 0102 0100     		.2byte	0x1
 8289 0104 5C       		.byte	0x5c
 8290 0105 5E000000 		.4byte	.LVL13
 8291 0109 8E000000 		.4byte	.LVL17
 8292 010d 0B00     		.2byte	0xb
 8293 010f 75       		.byte	0x75
 8294 0110 00       		.sleb128 0
 8295 0111 70       		.byte	0x70
 8296 0112 00       		.sleb128 0
 8297 0113 1E       		.byte	0x1e
 8298 0114 38       		.byte	0x38
 8299 0115 26       		.byte	0x26
 8300 0116 77       		.byte	0x77
 8301 0117 00       		.sleb128 0
 8302 0118 22       		.byte	0x22
 8303 0119 9F       		.byte	0x9f
 8304 011a 8E000000 		.4byte	.LVL17
 8305 011e 90000000 		.4byte	.LVL18
 8306 0122 0B00     		.2byte	0xb
 8307 0124 70       		.byte	0x70
 8308 0125 7F       		.sleb128 -1
 8309 0126 75       		.byte	0x75
 8310 0127 00       		.sleb128 0
 8311 0128 1E       		.byte	0x1e
ARM GAS  C:\Users\haske\AppData\Local\Temp\ccOknJt1.s 			page 169


 8312 0129 38       		.byte	0x38
 8313 012a 26       		.byte	0x26
 8314 012b 77       		.byte	0x77
 8315 012c 00       		.sleb128 0
 8316 012d 22       		.byte	0x22
 8317 012e 9F       		.byte	0x9f
 8318 012f 00000000 		.4byte	0
 8319 0133 00000000 		.4byte	0
 8320              	.LLST6:
 8321 0137 1E000000 		.4byte	.LVL1
 8322 013b 96000000 		.4byte	.LVL20
 8323 013f 0100     		.2byte	0x1
 8324 0141 57       		.byte	0x57
 8325 0142 96000000 		.4byte	.LVL20
 8326 0146 A2000000 		.4byte	.LFE161
 8327 014a 0200     		.2byte	0x2
 8328 014c 91       		.byte	0x91
 8329 014d 04       		.sleb128 4
 8330 014e 00000000 		.4byte	0
 8331 0152 00000000 		.4byte	0
 8332              	.LLST7:
 8333 0156 1E000000 		.4byte	.LVL1
 8334 015a 22000000 		.4byte	.LVL3
 8335 015e 0200     		.2byte	0x2
 8336 0160 30       		.byte	0x30
 8337 0161 9F       		.byte	0x9f
 8338 0162 22000000 		.4byte	.LVL3
 8339 0166 8E000000 		.4byte	.LVL17
 8340 016a 0100     		.2byte	0x1
 8341 016c 50       		.byte	0x50
 8342 016d 90000000 		.4byte	.LVL18
 8343 0171 A2000000 		.4byte	.LFE161
 8344 0175 0100     		.2byte	0x1
 8345 0177 50       		.byte	0x50
 8346 0178 00000000 		.4byte	0
 8347 017c 00000000 		.4byte	0
 8348              	.LLST8:
 8349 0180 3A000000 		.4byte	.LVL6
 8350 0184 50000000 		.4byte	.LVL8
 8351 0188 0100     		.2byte	0x1
 8352 018a 53       		.byte	0x53
 8353 018b 50000000 		.4byte	.LVL8
 8354 018f 58000000 		.4byte	.LVL10
 8355 0193 0D00     		.2byte	0xd
 8356 0195 76       		.byte	0x76
 8357 0196 00       		.sleb128 0
 8358 0197 70       		.byte	0x70
 8359 0198 00       		.sleb128 0
 8360 0199 1E       		.byte	0x1e
 8361 019a 38       		.byte	0x38
 8362 019b 26       		.byte	0x26
 8363 019c 72       		.byte	0x72
 8364 019d 00       		.sleb128 0
 8365 019e 22       		.byte	0x22
 8366 019f 38       		.byte	0x38
 8367 01a0 26       		.byte	0x26
 8368 01a1 9F       		.byte	0x9f
ARM GAS  C:\Users\haske\AppData\Local\Temp\ccOknJt1.s 			page 170


 8369 01a2 58000000 		.4byte	.LVL10
 8370 01a6 60000000 		.4byte	.LVL14
 8371 01aa 0100     		.2byte	0x1
 8372 01ac 53       		.byte	0x53
 8373 01ad 60000000 		.4byte	.LVL14
 8374 01b1 8E000000 		.4byte	.LVL17
 8375 01b5 0E00     		.2byte	0xe
 8376 01b7 76       		.byte	0x76
 8377 01b8 00       		.sleb128 0
 8378 01b9 70       		.byte	0x70
 8379 01ba 00       		.sleb128 0
 8380 01bb 1E       		.byte	0x1e
 8381 01bc 38       		.byte	0x38
 8382 01bd 26       		.byte	0x26
 8383 01be 91       		.byte	0x91
 8384 01bf 00       		.sleb128 0
 8385 01c0 06       		.byte	0x6
 8386 01c1 22       		.byte	0x22
 8387 01c2 38       		.byte	0x38
 8388 01c3 26       		.byte	0x26
 8389 01c4 9F       		.byte	0x9f
 8390 01c5 8E000000 		.4byte	.LVL17
 8391 01c9 90000000 		.4byte	.LVL18
 8392 01cd 0E00     		.2byte	0xe
 8393 01cf 70       		.byte	0x70
 8394 01d0 7F       		.sleb128 -1
 8395 01d1 76       		.byte	0x76
 8396 01d2 00       		.sleb128 0
 8397 01d3 1E       		.byte	0x1e
 8398 01d4 38       		.byte	0x38
 8399 01d5 26       		.byte	0x26
 8400 01d6 91       		.byte	0x91
 8401 01d7 00       		.sleb128 0
 8402 01d8 06       		.byte	0x6
 8403 01d9 22       		.byte	0x22
 8404 01da 38       		.byte	0x38
 8405 01db 26       		.byte	0x26
 8406 01dc 9F       		.byte	0x9f
 8407 01dd 00000000 		.4byte	0
 8408 01e1 00000000 		.4byte	0
 8409              	.LLST9:
 8410 01e5 3E000000 		.4byte	.LVL7
 8411 01e9 54000000 		.4byte	.LVL9
 8412 01ed 0100     		.2byte	0x1
 8413 01ef 51       		.byte	0x51
 8414 01f0 54000000 		.4byte	.LVL9
 8415 01f4 58000000 		.4byte	.LVL10
 8416 01f8 0500     		.2byte	0x5
 8417 01fa 7C       		.byte	0x7c
 8418 01fb 00       		.sleb128 0
 8419 01fc 38       		.byte	0x38
 8420 01fd 26       		.byte	0x26
 8421 01fe 9F       		.byte	0x9f
 8422 01ff 58000000 		.4byte	.LVL10
 8423 0203 5C000000 		.4byte	.LVL12
 8424 0207 0100     		.2byte	0x1
 8425 0209 51       		.byte	0x51
ARM GAS  C:\Users\haske\AppData\Local\Temp\ccOknJt1.s 			page 171


 8426 020a 5C000000 		.4byte	.LVL12
 8427 020e 5E000000 		.4byte	.LVL13
 8428 0212 0500     		.2byte	0x5
 8429 0214 7C       		.byte	0x7c
 8430 0215 00       		.sleb128 0
 8431 0216 38       		.byte	0x38
 8432 0217 26       		.byte	0x26
 8433 0218 9F       		.byte	0x9f
 8434 0219 5E000000 		.4byte	.LVL13
 8435 021d 8E000000 		.4byte	.LVL17
 8436 0221 0D00     		.2byte	0xd
 8437 0223 75       		.byte	0x75
 8438 0224 00       		.sleb128 0
 8439 0225 70       		.byte	0x70
 8440 0226 00       		.sleb128 0
 8441 0227 1E       		.byte	0x1e
 8442 0228 38       		.byte	0x38
 8443 0229 26       		.byte	0x26
 8444 022a 77       		.byte	0x77
 8445 022b 00       		.sleb128 0
 8446 022c 22       		.byte	0x22
 8447 022d 38       		.byte	0x38
 8448 022e 26       		.byte	0x26
 8449 022f 9F       		.byte	0x9f
 8450 0230 8E000000 		.4byte	.LVL17
 8451 0234 90000000 		.4byte	.LVL18
 8452 0238 0D00     		.2byte	0xd
 8453 023a 70       		.byte	0x70
 8454 023b 7F       		.sleb128 -1
 8455 023c 75       		.byte	0x75
 8456 023d 00       		.sleb128 0
 8457 023e 1E       		.byte	0x1e
 8458 023f 38       		.byte	0x38
 8459 0240 26       		.byte	0x26
 8460 0241 77       		.byte	0x77
 8461 0242 00       		.sleb128 0
 8462 0243 22       		.byte	0x22
 8463 0244 38       		.byte	0x38
 8464 0245 26       		.byte	0x26
 8465 0246 9F       		.byte	0x9f
 8466 0247 00000000 		.4byte	0
 8467 024b 00000000 		.4byte	0
 8468              	.LLST10:
 8469 024f 58000000 		.4byte	.LVL10
 8470 0253 6C000000 		.4byte	.LVL15
 8471 0257 0200     		.2byte	0x2
 8472 0259 7D       		.byte	0x7d
 8473 025a 00       		.sleb128 0
 8474 025b 6C000000 		.4byte	.LVL15
 8475 025f 8C000000 		.4byte	.LVL16
 8476 0263 0100     		.2byte	0x1
 8477 0265 5C       		.byte	0x5c
 8478 0266 00000000 		.4byte	0
 8479 026a 00000000 		.4byte	0
 8480              	.LLST11:
 8481 026e 00000000 		.4byte	.LVL21
 8482 0272 26000000 		.4byte	.LVL25
ARM GAS  C:\Users\haske\AppData\Local\Temp\ccOknJt1.s 			page 172


 8483 0276 0100     		.2byte	0x1
 8484 0278 50       		.byte	0x50
 8485 0279 26000000 		.4byte	.LVL25
 8486 027d 90000000 		.4byte	.LVL45
 8487 0281 0100     		.2byte	0x1
 8488 0283 58       		.byte	0x58
 8489 0284 90000000 		.4byte	.LVL45
 8490 0288 9C000000 		.4byte	.LFE162
 8491 028c 0400     		.2byte	0x4
 8492 028e F3       		.byte	0xf3
 8493 028f 01       		.uleb128 0x1
 8494 0290 50       		.byte	0x50
 8495 0291 9F       		.byte	0x9f
 8496 0292 00000000 		.4byte	0
 8497 0296 00000000 		.4byte	0
 8498              	.LLST12:
 8499 029a 00000000 		.4byte	.LVL21
 8500 029e 18000000 		.4byte	.LVL22
 8501 02a2 0100     		.2byte	0x1
 8502 02a4 51       		.byte	0x51
 8503 02a5 18000000 		.4byte	.LVL22
 8504 02a9 9C000000 		.4byte	.LFE162
 8505 02ad 0400     		.2byte	0x4
 8506 02af F3       		.byte	0xf3
 8507 02b0 01       		.uleb128 0x1
 8508 02b1 51       		.byte	0x51
 8509 02b2 9F       		.byte	0x9f
 8510 02b3 00000000 		.4byte	0
 8511 02b7 00000000 		.4byte	0
 8512              	.LLST13:
 8513 02bb 00000000 		.4byte	.LVL21
 8514 02bf 26000000 		.4byte	.LVL25
 8515 02c3 0100     		.2byte	0x1
 8516 02c5 52       		.byte	0x52
 8517 02c6 26000000 		.4byte	.LVL25
 8518 02ca 9C000000 		.4byte	.LFE162
 8519 02ce 0400     		.2byte	0x4
 8520 02d0 F3       		.byte	0xf3
 8521 02d1 01       		.uleb128 0x1
 8522 02d2 52       		.byte	0x52
 8523 02d3 9F       		.byte	0x9f
 8524 02d4 00000000 		.4byte	0
 8525 02d8 00000000 		.4byte	0
 8526              	.LLST14:
 8527 02dc 00000000 		.4byte	.LVL21
 8528 02e0 20000000 		.4byte	.LVL23
 8529 02e4 0100     		.2byte	0x1
 8530 02e6 53       		.byte	0x53
 8531 02e7 20000000 		.4byte	.LVL23
 8532 02eb 9C000000 		.4byte	.LFE162
 8533 02ef 0400     		.2byte	0x4
 8534 02f1 F3       		.byte	0xf3
 8535 02f2 01       		.uleb128 0x1
 8536 02f3 53       		.byte	0x53
 8537 02f4 9F       		.byte	0x9f
 8538 02f5 00000000 		.4byte	0
 8539 02f9 00000000 		.4byte	0
ARM GAS  C:\Users\haske\AppData\Local\Temp\ccOknJt1.s 			page 173


 8540              	.LLST15:
 8541 02fd 00000000 		.4byte	.LVL21
 8542 0301 26000000 		.4byte	.LVL25
 8543 0305 0200     		.2byte	0x2
 8544 0307 91       		.byte	0x91
 8545 0308 00       		.sleb128 0
 8546 0309 2E000000 		.4byte	.LVL26
 8547 030d 3C000000 		.4byte	.LVL28
 8548 0311 0100     		.2byte	0x1
 8549 0313 50       		.byte	0x50
 8550 0314 3C000000 		.4byte	.LVL28
 8551 0318 88000000 		.4byte	.LVL42
 8552 031c 0B00     		.2byte	0xb
 8553 031e 77       		.byte	0x77
 8554 031f 00       		.sleb128 0
 8555 0320 74       		.byte	0x74
 8556 0321 00       		.sleb128 0
 8557 0322 1E       		.byte	0x1e
 8558 0323 38       		.byte	0x38
 8559 0324 26       		.byte	0x26
 8560 0325 71       		.byte	0x71
 8561 0326 00       		.sleb128 0
 8562 0327 22       		.byte	0x22
 8563 0328 9F       		.byte	0x9f
 8564 0329 88000000 		.4byte	.LVL42
 8565 032d 8A000000 		.4byte	.LVL43
 8566 0331 0B00     		.2byte	0xb
 8567 0333 74       		.byte	0x74
 8568 0334 7F       		.sleb128 -1
 8569 0335 77       		.byte	0x77
 8570 0336 00       		.sleb128 0
 8571 0337 1E       		.byte	0x1e
 8572 0338 38       		.byte	0x38
 8573 0339 26       		.byte	0x26
 8574 033a 71       		.byte	0x71
 8575 033b 00       		.sleb128 0
 8576 033c 22       		.byte	0x22
 8577 033d 9F       		.byte	0x9f
 8578 033e 00000000 		.4byte	0
 8579 0342 00000000 		.4byte	0
 8580              	.LLST16:
 8581 0346 00000000 		.4byte	.LVL21
 8582 034a 26000000 		.4byte	.LVL25
 8583 034e 0200     		.2byte	0x2
 8584 0350 91       		.byte	0x91
 8585 0351 04       		.sleb128 4
 8586 0352 3A000000 		.4byte	.LVL27
 8587 0356 3E000000 		.4byte	.LVL29
 8588 035a 0100     		.2byte	0x1
 8589 035c 53       		.byte	0x53
 8590 035d 3E000000 		.4byte	.LVL29
 8591 0361 5A000000 		.4byte	.LVL33
 8592 0365 0B00     		.2byte	0xb
 8593 0367 76       		.byte	0x76
 8594 0368 00       		.sleb128 0
 8595 0369 74       		.byte	0x74
 8596 036a 00       		.sleb128 0
ARM GAS  C:\Users\haske\AppData\Local\Temp\ccOknJt1.s 			page 174


 8597 036b 1E       		.byte	0x1e
 8598 036c 38       		.byte	0x38
 8599 036d 26       		.byte	0x26
 8600 036e 72       		.byte	0x72
 8601 036f 00       		.sleb128 0
 8602 0370 22       		.byte	0x22
 8603 0371 9F       		.byte	0x9f
 8604 0372 5A000000 		.4byte	.LVL33
 8605 0376 6A000000 		.4byte	.LVL36
 8606 037a 0B00     		.2byte	0xb
 8607 037c 76       		.byte	0x76
 8608 037d 00       		.sleb128 0
 8609 037e 74       		.byte	0x74
 8610 037f 00       		.sleb128 0
 8611 0380 1E       		.byte	0x1e
 8612 0381 38       		.byte	0x38
 8613 0382 26       		.byte	0x26
 8614 0383 7B       		.byte	0x7b
 8615 0384 00       		.sleb128 0
 8616 0385 22       		.byte	0x22
 8617 0386 9F       		.byte	0x9f
 8618 0387 6A000000 		.4byte	.LVL36
 8619 038b 88000000 		.4byte	.LVL42
 8620 038f 0C00     		.2byte	0xc
 8621 0391 76       		.byte	0x76
 8622 0392 00       		.sleb128 0
 8623 0393 74       		.byte	0x74
 8624 0394 00       		.sleb128 0
 8625 0395 1E       		.byte	0x1e
 8626 0396 38       		.byte	0x38
 8627 0397 26       		.byte	0x26
 8628 0398 91       		.byte	0x91
 8629 0399 04       		.sleb128 4
 8630 039a 06       		.byte	0x6
 8631 039b 22       		.byte	0x22
 8632 039c 9F       		.byte	0x9f
 8633 039d 88000000 		.4byte	.LVL42
 8634 03a1 8A000000 		.4byte	.LVL43
 8635 03a5 0C00     		.2byte	0xc
 8636 03a7 74       		.byte	0x74
 8637 03a8 7F       		.sleb128 -1
 8638 03a9 76       		.byte	0x76
 8639 03aa 00       		.sleb128 0
 8640 03ab 1E       		.byte	0x1e
 8641 03ac 38       		.byte	0x38
 8642 03ad 26       		.byte	0x26
 8643 03ae 91       		.byte	0x91
 8644 03af 04       		.sleb128 4
 8645 03b0 06       		.byte	0x6
 8646 03b1 22       		.byte	0x22
 8647 03b2 9F       		.byte	0x9f
 8648 03b3 00000000 		.4byte	0
 8649 03b7 00000000 		.4byte	0
 8650              	.LLST17:
 8651 03bb 22000000 		.4byte	.LVL24
 8652 03bf 26000000 		.4byte	.LVL25
 8653 03c3 0200     		.2byte	0x2
ARM GAS  C:\Users\haske\AppData\Local\Temp\ccOknJt1.s 			page 175


 8654 03c5 30       		.byte	0x30
 8655 03c6 9F       		.byte	0x9f
 8656 03c7 26000000 		.4byte	.LVL25
 8657 03cb 88000000 		.4byte	.LVL42
 8658 03cf 0100     		.2byte	0x1
 8659 03d1 54       		.byte	0x54
 8660 03d2 8A000000 		.4byte	.LVL43
 8661 03d6 90000000 		.4byte	.LVL44
 8662 03da 0100     		.2byte	0x1
 8663 03dc 54       		.byte	0x54
 8664 03dd 00000000 		.4byte	0
 8665 03e1 00000000 		.4byte	0
 8666              	.LLST18:
 8667 03e5 3C000000 		.4byte	.LVL28
 8668 03e9 54000000 		.4byte	.LVL31
 8669 03ed 0100     		.2byte	0x1
 8670 03ef 50       		.byte	0x50
 8671 03f0 54000000 		.4byte	.LVL31
 8672 03f4 58000000 		.4byte	.LVL32
 8673 03f8 0D00     		.2byte	0xd
 8674 03fa 77       		.byte	0x77
 8675 03fb 00       		.sleb128 0
 8676 03fc 74       		.byte	0x74
 8677 03fd 00       		.sleb128 0
 8678 03fe 1E       		.byte	0x1e
 8679 03ff 38       		.byte	0x38
 8680 0400 26       		.byte	0x26
 8681 0401 71       		.byte	0x71
 8682 0402 00       		.sleb128 0
 8683 0403 22       		.byte	0x22
 8684 0404 38       		.byte	0x38
 8685 0405 26       		.byte	0x26
 8686 0406 9F       		.byte	0x9f
 8687 0407 58000000 		.4byte	.LVL32
 8688 040b 62000000 		.4byte	.LVL35
 8689 040f 0100     		.2byte	0x1
 8690 0411 50       		.byte	0x50
 8691 0412 62000000 		.4byte	.LVL35
 8692 0416 88000000 		.4byte	.LVL42
 8693 041a 0D00     		.2byte	0xd
 8694 041c 77       		.byte	0x77
 8695 041d 00       		.sleb128 0
 8696 041e 74       		.byte	0x74
 8697 041f 00       		.sleb128 0
 8698 0420 1E       		.byte	0x1e
 8699 0421 38       		.byte	0x38
 8700 0422 26       		.byte	0x26
 8701 0423 71       		.byte	0x71
 8702 0424 00       		.sleb128 0
 8703 0425 22       		.byte	0x22
 8704 0426 38       		.byte	0x38
 8705 0427 26       		.byte	0x26
 8706 0428 9F       		.byte	0x9f
 8707 0429 88000000 		.4byte	.LVL42
 8708 042d 8A000000 		.4byte	.LVL43
 8709 0431 0D00     		.2byte	0xd
 8710 0433 74       		.byte	0x74
ARM GAS  C:\Users\haske\AppData\Local\Temp\ccOknJt1.s 			page 176


 8711 0434 7F       		.sleb128 -1
 8712 0435 77       		.byte	0x77
 8713 0436 00       		.sleb128 0
 8714 0437 1E       		.byte	0x1e
 8715 0438 38       		.byte	0x38
 8716 0439 26       		.byte	0x26
 8717 043a 71       		.byte	0x71
 8718 043b 00       		.sleb128 0
 8719 043c 22       		.byte	0x22
 8720 043d 38       		.byte	0x38
 8721 043e 26       		.byte	0x26
 8722 043f 9F       		.byte	0x9f
 8723 0440 00000000 		.4byte	0
 8724 0444 00000000 		.4byte	0
 8725              	.LLST19:
 8726 0448 3E000000 		.4byte	.LVL29
 8727 044c 50000000 		.4byte	.LVL30
 8728 0450 0100     		.2byte	0x1
 8729 0452 53       		.byte	0x53
 8730 0453 50000000 		.4byte	.LVL30
 8731 0457 58000000 		.4byte	.LVL32
 8732 045b 0D00     		.2byte	0xd
 8733 045d 76       		.byte	0x76
 8734 045e 00       		.sleb128 0
 8735 045f 74       		.byte	0x74
 8736 0460 00       		.sleb128 0
 8737 0461 1E       		.byte	0x1e
 8738 0462 38       		.byte	0x38
 8739 0463 26       		.byte	0x26
 8740 0464 72       		.byte	0x72
 8741 0465 00       		.sleb128 0
 8742 0466 22       		.byte	0x22
 8743 0467 38       		.byte	0x38
 8744 0468 26       		.byte	0x26
 8745 0469 9F       		.byte	0x9f
 8746 046a 58000000 		.4byte	.LVL32
 8747 046e 5C000000 		.4byte	.LVL34
 8748 0472 0100     		.2byte	0x1
 8749 0474 53       		.byte	0x53
 8750 0475 5C000000 		.4byte	.LVL34
 8751 0479 6A000000 		.4byte	.LVL36
 8752 047d 0D00     		.2byte	0xd
 8753 047f 76       		.byte	0x76
 8754 0480 00       		.sleb128 0
 8755 0481 74       		.byte	0x74
 8756 0482 00       		.sleb128 0
 8757 0483 1E       		.byte	0x1e
 8758 0484 38       		.byte	0x38
 8759 0485 26       		.byte	0x26
 8760 0486 7B       		.byte	0x7b
 8761 0487 00       		.sleb128 0
 8762 0488 22       		.byte	0x22
 8763 0489 38       		.byte	0x38
 8764 048a 26       		.byte	0x26
 8765 048b 9F       		.byte	0x9f
 8766 048c 6A000000 		.4byte	.LVL36
 8767 0490 88000000 		.4byte	.LVL42
ARM GAS  C:\Users\haske\AppData\Local\Temp\ccOknJt1.s 			page 177


 8768 0494 0E00     		.2byte	0xe
 8769 0496 76       		.byte	0x76
 8770 0497 00       		.sleb128 0
 8771 0498 74       		.byte	0x74
 8772 0499 00       		.sleb128 0
 8773 049a 1E       		.byte	0x1e
 8774 049b 38       		.byte	0x38
 8775 049c 26       		.byte	0x26
 8776 049d 91       		.byte	0x91
 8777 049e 04       		.sleb128 4
 8778 049f 06       		.byte	0x6
 8779 04a0 22       		.byte	0x22
 8780 04a1 38       		.byte	0x38
 8781 04a2 26       		.byte	0x26
 8782 04a3 9F       		.byte	0x9f
 8783 04a4 88000000 		.4byte	.LVL42
 8784 04a8 8A000000 		.4byte	.LVL43
 8785 04ac 0E00     		.2byte	0xe
 8786 04ae 74       		.byte	0x74
 8787 04af 7F       		.sleb128 -1
 8788 04b0 76       		.byte	0x76
 8789 04b1 00       		.sleb128 0
 8790 04b2 1E       		.byte	0x1e
 8791 04b3 38       		.byte	0x38
 8792 04b4 26       		.byte	0x26
 8793 04b5 91       		.byte	0x91
 8794 04b6 04       		.sleb128 4
 8795 04b7 06       		.byte	0x6
 8796 04b8 22       		.byte	0x22
 8797 04b9 38       		.byte	0x38
 8798 04ba 26       		.byte	0x26
 8799 04bb 9F       		.byte	0x9f
 8800 04bc 00000000 		.4byte	0
 8801 04c0 00000000 		.4byte	0
 8802              	.LLST20:
 8803 04c4 58000000 		.4byte	.LVL32
 8804 04c8 62000000 		.4byte	.LVL35
 8805 04cc 0100     		.2byte	0x1
 8806 04ce 58       		.byte	0x58
 8807 04cf 62000000 		.4byte	.LVL35
 8808 04d3 6C000000 		.4byte	.LVL37
 8809 04d7 0600     		.2byte	0x6
 8810 04d9 78       		.byte	0x78
 8811 04da 00       		.sleb128 0
 8812 04db 70       		.byte	0x70
 8813 04dc 00       		.sleb128 0
 8814 04dd 22       		.byte	0x22
 8815 04de 9F       		.byte	0x9f
 8816 04df 6C000000 		.4byte	.LVL37
 8817 04e3 86000000 		.4byte	.LVL41
 8818 04e7 0900     		.2byte	0x9
 8819 04e9 91       		.byte	0x91
 8820 04ea 54       		.sleb128 -44
 8821 04eb 06       		.byte	0x6
 8822 04ec 31       		.byte	0x31
 8823 04ed 24       		.byte	0x24
 8824 04ee 78       		.byte	0x78
ARM GAS  C:\Users\haske\AppData\Local\Temp\ccOknJt1.s 			page 178


 8825 04ef 00       		.sleb128 0
 8826 04f0 22       		.byte	0x22
 8827 04f1 9F       		.byte	0x9f
 8828 04f2 00000000 		.4byte	0
 8829 04f6 00000000 		.4byte	0
 8830              	.LLST21:
 8831 04fa 7A000000 		.4byte	.LVL38
 8832 04fe 7E000000 		.4byte	.LVL39
 8833 0502 0600     		.2byte	0x6
 8834 0504 78       		.byte	0x78
 8835 0505 00       		.sleb128 0
 8836 0506 70       		.byte	0x70
 8837 0507 00       		.sleb128 0
 8838 0508 22       		.byte	0x22
 8839 0509 9F       		.byte	0x9f
 8840 050a 7E000000 		.4byte	.LVL39
 8841 050e 82000000 		.4byte	.LVL40
 8842 0512 0600     		.2byte	0x6
 8843 0514 78       		.byte	0x78
 8844 0515 00       		.sleb128 0
 8845 0516 73       		.byte	0x73
 8846 0517 00       		.sleb128 0
 8847 0518 22       		.byte	0x22
 8848 0519 9F       		.byte	0x9f
 8849 051a 82000000 		.4byte	.LVL40
 8850 051e 86000000 		.4byte	.LVL41
 8851 0522 0A00     		.2byte	0xa
 8852 0524 78       		.byte	0x78
 8853 0525 00       		.sleb128 0
 8854 0526 91       		.byte	0x91
 8855 0527 54       		.sleb128 -44
 8856 0528 06       		.byte	0x6
 8857 0529 22       		.byte	0x22
 8858 052a 70       		.byte	0x70
 8859 052b 00       		.sleb128 0
 8860 052c 22       		.byte	0x22
 8861 052d 9F       		.byte	0x9f
 8862 052e 00000000 		.4byte	0
 8863 0532 00000000 		.4byte	0
 8864              	.LLST22:
 8865 0536 00000000 		.4byte	.LVL46
 8866 053a 14000000 		.4byte	.LVL47
 8867 053e 0100     		.2byte	0x1
 8868 0540 51       		.byte	0x51
 8869 0541 14000000 		.4byte	.LVL47
 8870 0545 1E000000 		.4byte	.LVL50
 8871 0549 0400     		.2byte	0x4
 8872 054b F3       		.byte	0xf3
 8873 054c 01       		.uleb128 0x1
 8874 054d 51       		.byte	0x51
 8875 054e 9F       		.byte	0x9f
 8876 054f 1E000000 		.4byte	.LVL50
 8877 0553 32000000 		.4byte	.LVL53
 8878 0557 0100     		.2byte	0x1
 8879 0559 51       		.byte	0x51
 8880 055a 32000000 		.4byte	.LVL53
 8881 055e 3A000000 		.4byte	.LVL54
ARM GAS  C:\Users\haske\AppData\Local\Temp\ccOknJt1.s 			page 179


 8882 0562 0D00     		.2byte	0xd
 8883 0564 F3       		.byte	0xf3
 8884 0565 01       		.uleb128 0x1
 8885 0566 51       		.byte	0x51
 8886 0567 70       		.byte	0x70
 8887 0568 28       		.sleb128 40
 8888 0569 94       		.byte	0x94
 8889 056a 02       		.byte	0x2
 8890 056b 40       		.byte	0x40
 8891 056c 24       		.byte	0x24
 8892 056d 40       		.byte	0x40
 8893 056e 26       		.byte	0x26
 8894 056f 1C       		.byte	0x1c
 8895 0570 9F       		.byte	0x9f
 8896 0571 48000000 		.4byte	.LVL57
 8897 0575 6A000000 		.4byte	.LVL59
 8898 0579 0100     		.2byte	0x1
 8899 057b 51       		.byte	0x51
 8900 057c 7C000000 		.4byte	.LVL61
 8901 0580 96000000 		.4byte	.LVL63
 8902 0584 0100     		.2byte	0x1
 8903 0586 51       		.byte	0x51
 8904 0587 00000000 		.4byte	0
 8905 058b 00000000 		.4byte	0
 8906              	.LLST23:
 8907 058f 00000000 		.4byte	.LVL46
 8908 0593 18000000 		.4byte	.LVL48
 8909 0597 0100     		.2byte	0x1
 8910 0599 52       		.byte	0x52
 8911 059a 18000000 		.4byte	.LVL48
 8912 059e 1E000000 		.4byte	.LVL50
 8913 05a2 0400     		.2byte	0x4
 8914 05a4 F3       		.byte	0xf3
 8915 05a5 01       		.uleb128 0x1
 8916 05a6 52       		.byte	0x52
 8917 05a7 9F       		.byte	0x9f
 8918 05a8 1E000000 		.4byte	.LVL50
 8919 05ac 3E000000 		.4byte	.LVL56
 8920 05b0 0100     		.2byte	0x1
 8921 05b2 52       		.byte	0x52
 8922 05b3 3E000000 		.4byte	.LVL56
 8923 05b7 48000000 		.4byte	.LVL57
 8924 05bb 0700     		.2byte	0x7
 8925 05bd F3       		.byte	0xf3
 8926 05be 01       		.uleb128 0x1
 8927 05bf 52       		.byte	0x52
 8928 05c0 75       		.byte	0x75
 8929 05c1 00       		.sleb128 0
 8930 05c2 1C       		.byte	0x1c
 8931 05c3 9F       		.byte	0x9f
 8932 05c4 48000000 		.4byte	.LVL57
 8933 05c8 6E000000 		.4byte	.LVL60
 8934 05cc 0100     		.2byte	0x1
 8935 05ce 52       		.byte	0x52
 8936 05cf 7C000000 		.4byte	.LVL61
 8937 05d3 9A000000 		.4byte	.LVL64
 8938 05d7 0100     		.2byte	0x1
ARM GAS  C:\Users\haske\AppData\Local\Temp\ccOknJt1.s 			page 180


 8939 05d9 52       		.byte	0x52
 8940 05da 00000000 		.4byte	0
 8941 05de 00000000 		.4byte	0
 8942              	.LLST24:
 8943 05e2 00000000 		.4byte	.LVL46
 8944 05e6 1A000000 		.4byte	.LVL49
 8945 05ea 0100     		.2byte	0x1
 8946 05ec 53       		.byte	0x53
 8947 05ed 1A000000 		.4byte	.LVL49
 8948 05f1 1E000000 		.4byte	.LVL50
 8949 05f5 0400     		.2byte	0x4
 8950 05f7 F3       		.byte	0xf3
 8951 05f8 01       		.uleb128 0x1
 8952 05f9 53       		.byte	0x53
 8953 05fa 9F       		.byte	0x9f
 8954 05fb 1E000000 		.4byte	.LVL50
 8955 05ff 3C000000 		.4byte	.LVL55
 8956 0603 0100     		.2byte	0x1
 8957 0605 53       		.byte	0x53
 8958 0606 3C000000 		.4byte	.LVL55
 8959 060a 48000000 		.4byte	.LVL57
 8960 060e 0400     		.2byte	0x4
 8961 0610 F3       		.byte	0xf3
 8962 0611 01       		.uleb128 0x1
 8963 0612 53       		.byte	0x53
 8964 0613 9F       		.byte	0x9f
 8965 0614 48000000 		.4byte	.LVL57
 8966 0618 68000000 		.4byte	.LVL58
 8967 061c 0100     		.2byte	0x1
 8968 061e 53       		.byte	0x53
 8969 061f 68000000 		.4byte	.LVL58
 8970 0623 7C000000 		.4byte	.LVL61
 8971 0627 0400     		.2byte	0x4
 8972 0629 F3       		.byte	0xf3
 8973 062a 01       		.uleb128 0x1
 8974 062b 53       		.byte	0x53
 8975 062c 9F       		.byte	0x9f
 8976 062d 7C000000 		.4byte	.LVL61
 8977 0631 94000000 		.4byte	.LVL62
 8978 0635 0100     		.2byte	0x1
 8979 0637 53       		.byte	0x53
 8980 0638 94000000 		.4byte	.LVL62
 8981 063c AC000000 		.4byte	.LFE164
 8982 0640 0400     		.2byte	0x4
 8983 0642 F3       		.byte	0xf3
 8984 0643 01       		.uleb128 0x1
 8985 0644 53       		.byte	0x53
 8986 0645 9F       		.byte	0x9f
 8987 0646 00000000 		.4byte	0
 8988 064a 00000000 		.4byte	0
 8989              	.LLST25:
 8990 064e 00000000 		.4byte	.LVL65
 8991 0652 55000000 		.4byte	.LVL74-1
 8992 0656 0100     		.2byte	0x1
 8993 0658 50       		.byte	0x50
 8994 0659 55000000 		.4byte	.LVL74-1
 8995 065d 68000000 		.4byte	.LVL77
ARM GAS  C:\Users\haske\AppData\Local\Temp\ccOknJt1.s 			page 181


 8996 0661 0300     		.2byte	0x3
 8997 0663 91       		.byte	0x91
 8998 0664 B07F     		.sleb128 -80
 8999 0666 68000000 		.4byte	.LVL77
 9000 066a 7A000000 		.4byte	.LVL79
 9001 066e 0100     		.2byte	0x1
 9002 0670 50       		.byte	0x50
 9003 0671 7A000000 		.4byte	.LVL79
 9004 0675 DC030000 		.4byte	.LFE163
 9005 0679 0300     		.2byte	0x3
 9006 067b 91       		.byte	0x91
 9007 067c B07F     		.sleb128 -80
 9008 067e 00000000 		.4byte	0
 9009 0682 00000000 		.4byte	0
 9010              	.LLST26:
 9011 0686 00000000 		.4byte	.LVL65
 9012 068a 55000000 		.4byte	.LVL74-1
 9013 068e 0100     		.2byte	0x1
 9014 0690 51       		.byte	0x51
 9015 0691 55000000 		.4byte	.LVL74-1
 9016 0695 68000000 		.4byte	.LVL77
 9017 0699 0400     		.2byte	0x4
 9018 069b F3       		.byte	0xf3
 9019 069c 01       		.uleb128 0x1
 9020 069d 51       		.byte	0x51
 9021 069e 9F       		.byte	0x9f
 9022 069f 68000000 		.4byte	.LVL77
 9023 06a3 7A000000 		.4byte	.LVL79
 9024 06a7 0100     		.2byte	0x1
 9025 06a9 51       		.byte	0x51
 9026 06aa 7A000000 		.4byte	.LVL79
 9027 06ae DC030000 		.4byte	.LFE163
 9028 06b2 0400     		.2byte	0x4
 9029 06b4 F3       		.byte	0xf3
 9030 06b5 01       		.uleb128 0x1
 9031 06b6 51       		.byte	0x51
 9032 06b7 9F       		.byte	0x9f
 9033 06b8 00000000 		.4byte	0
 9034 06bc 00000000 		.4byte	0
 9035              	.LLST27:
 9036 06c0 00000000 		.4byte	.LVL65
 9037 06c4 2C000000 		.4byte	.LVL71
 9038 06c8 0100     		.2byte	0x1
 9039 06ca 52       		.byte	0x52
 9040 06cb 2C000000 		.4byte	.LVL71
 9041 06cf DC030000 		.4byte	.LFE163
 9042 06d3 0400     		.2byte	0x4
 9043 06d5 F3       		.byte	0xf3
 9044 06d6 01       		.uleb128 0x1
 9045 06d7 52       		.byte	0x52
 9046 06d8 9F       		.byte	0x9f
 9047 06d9 00000000 		.4byte	0
 9048 06dd 00000000 		.4byte	0
 9049              	.LLST28:
 9050 06e1 00000000 		.4byte	.LVL65
 9051 06e5 18000000 		.4byte	.LVL66
 9052 06e9 0100     		.2byte	0x1
ARM GAS  C:\Users\haske\AppData\Local\Temp\ccOknJt1.s 			page 182


 9053 06eb 53       		.byte	0x53
 9054 06ec 18000000 		.4byte	.LVL66
 9055 06f0 DC030000 		.4byte	.LFE163
 9056 06f4 0400     		.2byte	0x4
 9057 06f6 F3       		.byte	0xf3
 9058 06f7 01       		.uleb128 0x1
 9059 06f8 53       		.byte	0x53
 9060 06f9 9F       		.byte	0x9f
 9061 06fa 00000000 		.4byte	0
 9062 06fe 00000000 		.4byte	0
 9063              	.LLST29:
 9064 0702 00000000 		.4byte	.LVL65
 9065 0706 92000000 		.4byte	.LVL81
 9066 070a 0200     		.2byte	0x2
 9067 070c 91       		.byte	0x91
 9068 070d 00       		.sleb128 0
 9069 070e 9E000000 		.4byte	.LVL82
 9070 0712 CA000000 		.4byte	.LVL91
 9071 0716 0100     		.2byte	0x1
 9072 0718 57       		.byte	0x57
 9073 0719 CA000000 		.4byte	.LVL91
 9074 071d 18010000 		.4byte	.LVL111
 9075 0721 0B00     		.2byte	0xb
 9076 0723 75       		.byte	0x75
 9077 0724 00       		.sleb128 0
 9078 0725 71       		.byte	0x71
 9079 0726 00       		.sleb128 0
 9080 0727 1E       		.byte	0x1e
 9081 0728 38       		.byte	0x38
 9082 0729 26       		.byte	0x26
 9083 072a 78       		.byte	0x78
 9084 072b 00       		.sleb128 0
 9085 072c 22       		.byte	0x22
 9086 072d 9F       		.byte	0x9f
 9087 072e 18010000 		.4byte	.LVL111
 9088 0732 C2030000 		.4byte	.LVL192
 9089 0736 0C00     		.2byte	0xc
 9090 0738 75       		.byte	0x75
 9091 0739 00       		.sleb128 0
 9092 073a 71       		.byte	0x71
 9093 073b 00       		.sleb128 0
 9094 073c 1E       		.byte	0x1e
 9095 073d 38       		.byte	0x38
 9096 073e 26       		.byte	0x26
 9097 073f 91       		.byte	0x91
 9098 0740 00       		.sleb128 0
 9099 0741 06       		.byte	0x6
 9100 0742 22       		.byte	0x22
 9101 0743 9F       		.byte	0x9f
 9102 0744 C2030000 		.4byte	.LVL192
 9103 0748 C4030000 		.4byte	.LVL193
 9104 074c 0C00     		.2byte	0xc
 9105 074e 71       		.byte	0x71
 9106 074f 7F       		.sleb128 -1
 9107 0750 75       		.byte	0x75
 9108 0751 00       		.sleb128 0
 9109 0752 1E       		.byte	0x1e
ARM GAS  C:\Users\haske\AppData\Local\Temp\ccOknJt1.s 			page 183


 9110 0753 38       		.byte	0x38
 9111 0754 26       		.byte	0x26
 9112 0755 91       		.byte	0x91
 9113 0756 00       		.sleb128 0
 9114 0757 06       		.byte	0x6
 9115 0758 22       		.byte	0x22
 9116 0759 9F       		.byte	0x9f
 9117 075a 00000000 		.4byte	0
 9118 075e 00000000 		.4byte	0
 9119              	.LLST30:
 9120 0762 00000000 		.4byte	.LVL65
 9121 0766 92000000 		.4byte	.LVL81
 9122 076a 0200     		.2byte	0x2
 9123 076c 91       		.byte	0x91
 9124 076d 04       		.sleb128 4
 9125 076e A6000000 		.4byte	.LVL83
 9126 0772 CC000000 		.4byte	.LVL92
 9127 0776 0100     		.2byte	0x1
 9128 0778 56       		.byte	0x56
 9129 0779 CC000000 		.4byte	.LVL92
 9130 077d C2030000 		.4byte	.LVL192
 9131 0781 0B00     		.2byte	0xb
 9132 0783 79       		.byte	0x79
 9133 0784 00       		.sleb128 0
 9134 0785 71       		.byte	0x71
 9135 0786 00       		.sleb128 0
 9136 0787 1E       		.byte	0x1e
 9137 0788 38       		.byte	0x38
 9138 0789 26       		.byte	0x26
 9139 078a 7B       		.byte	0x7b
 9140 078b 00       		.sleb128 0
 9141 078c 22       		.byte	0x22
 9142 078d 9F       		.byte	0x9f
 9143 078e C2030000 		.4byte	.LVL192
 9144 0792 C4030000 		.4byte	.LVL193
 9145 0796 0B00     		.2byte	0xb
 9146 0798 71       		.byte	0x71
 9147 0799 7F       		.sleb128 -1
 9148 079a 79       		.byte	0x79
 9149 079b 00       		.sleb128 0
 9150 079c 1E       		.byte	0x1e
 9151 079d 38       		.byte	0x38
 9152 079e 26       		.byte	0x26
 9153 079f 7B       		.byte	0x7b
 9154 07a0 00       		.sleb128 0
 9155 07a1 22       		.byte	0x22
 9156 07a2 9F       		.byte	0x9f
 9157 07a3 00000000 		.4byte	0
 9158 07a7 00000000 		.4byte	0
 9159              	.LLST31:
 9160 07ab 00000000 		.4byte	.LVL65
 9161 07af 24000000 		.4byte	.LVL67
 9162 07b3 0200     		.2byte	0x2
 9163 07b5 91       		.byte	0x91
 9164 07b6 1C       		.sleb128 28
 9165 07b7 24000000 		.4byte	.LVL67
 9166 07bb 26000000 		.4byte	.LVL68
ARM GAS  C:\Users\haske\AppData\Local\Temp\ccOknJt1.s 			page 184


 9167 07bf 0200     		.2byte	0x2
 9168 07c1 73       		.byte	0x73
 9169 07c2 00       		.sleb128 0
 9170 07c3 26000000 		.4byte	.LVL68
 9171 07c7 DC030000 		.4byte	.LFE163
 9172 07cb 0200     		.2byte	0x2
 9173 07cd 91       		.byte	0x91
 9174 07ce 1C       		.sleb128 28
 9175 07cf 00000000 		.4byte	0
 9176 07d3 00000000 		.4byte	0
 9177              	.LLST32:
 9178 07d7 28000000 		.4byte	.LVL69
 9179 07db 86000000 		.4byte	.LVL80
 9180 07df 0100     		.2byte	0x1
 9181 07e1 5B       		.byte	0x5b
 9182 07e2 86000000 		.4byte	.LVL80
 9183 07e6 DC030000 		.4byte	.LFE163
 9184 07ea 0200     		.2byte	0x2
 9185 07ec 91       		.byte	0x91
 9186 07ed 00       		.sleb128 0
 9187 07ee 00000000 		.4byte	0
 9188 07f2 00000000 		.4byte	0
 9189              	.LLST33:
 9190 07f6 52000000 		.4byte	.LVL73
 9191 07fa 72000000 		.4byte	.LVL78
 9192 07fe 0200     		.2byte	0x2
 9193 0800 31       		.byte	0x31
 9194 0801 9F       		.byte	0x9f
 9195 0802 7A000000 		.4byte	.LVL79
 9196 0806 CA030000 		.4byte	.LVL194
 9197 080a 0200     		.2byte	0x2
 9198 080c 91       		.byte	0x91
 9199 080d 54       		.sleb128 -44
 9200 080e 00000000 		.4byte	0
 9201 0812 00000000 		.4byte	0
 9202              	.LLST34:
 9203 0816 52000000 		.4byte	.LVL73
 9204 081a 72000000 		.4byte	.LVL78
 9205 081e 0200     		.2byte	0x2
 9206 0820 32       		.byte	0x32
 9207 0821 9F       		.byte	0x9f
 9208 0822 7A000000 		.4byte	.LVL79
 9209 0826 CA030000 		.4byte	.LVL194
 9210 082a 0300     		.2byte	0x3
 9211 082c 91       		.byte	0x91
 9212 082d BC7F     		.sleb128 -68
 9213 082f 00000000 		.4byte	0
 9214 0833 00000000 		.4byte	0
 9215              	.LLST35:
 9216 0837 2C000000 		.4byte	.LVL71
 9217 083b 30000000 		.4byte	.LVL72
 9218 083f 0100     		.2byte	0x1
 9219 0841 53       		.byte	0x53
 9220 0842 5C000000 		.4byte	.LVL75
 9221 0846 60000000 		.4byte	.LVL76
 9222 084a 0100     		.2byte	0x1
 9223 084c 53       		.byte	0x53
ARM GAS  C:\Users\haske\AppData\Local\Temp\ccOknJt1.s 			page 185


 9224 084d 00000000 		.4byte	0
 9225 0851 00000000 		.4byte	0
 9226              	.LLST36:
 9227 0855 7A000000 		.4byte	.LVL79
 9228 0859 92000000 		.4byte	.LVL81
 9229 085d 0200     		.2byte	0x2
 9230 085f 30       		.byte	0x30
 9231 0860 9F       		.byte	0x9f
 9232 0861 92000000 		.4byte	.LVL81
 9233 0865 C2030000 		.4byte	.LVL192
 9234 0869 0100     		.2byte	0x1
 9235 086b 51       		.byte	0x51
 9236 086c C4030000 		.4byte	.LVL193
 9237 0870 CA030000 		.4byte	.LVL194
 9238 0874 0100     		.2byte	0x1
 9239 0876 51       		.byte	0x51
 9240 0877 00000000 		.4byte	0
 9241 087b 00000000 		.4byte	0
 9242              	.LLST37:
 9243 087f 56000000 		.4byte	.LVL74
 9244 0883 68000000 		.4byte	.LVL77
 9245 0887 0100     		.2byte	0x1
 9246 0889 50       		.byte	0x50
 9247 088a 00000000 		.4byte	0
 9248 088e 00000000 		.4byte	0
 9249              	.LLST38:
 9250 0892 A8000000 		.4byte	.LVL84
 9251 0896 BE000000 		.4byte	.LVL88
 9252 089a 0100     		.2byte	0x1
 9253 089c 53       		.byte	0x53
 9254 089d BE000000 		.4byte	.LVL88
 9255 08a1 C6000000 		.4byte	.LVL90
 9256 08a5 0500     		.2byte	0x5
 9257 08a7 77       		.byte	0x77
 9258 08a8 00       		.sleb128 0
 9259 08a9 38       		.byte	0x38
 9260 08aa 26       		.byte	0x26
 9261 08ab 9F       		.byte	0x9f
 9262 08ac C6000000 		.4byte	.LVL90
 9263 08b0 6C010000 		.4byte	.LVL120
 9264 08b4 0100     		.2byte	0x1
 9265 08b6 53       		.byte	0x53
 9266 08b7 6C010000 		.4byte	.LVL120
 9267 08bb 78010000 		.4byte	.LVL124
 9268 08bf 0E00     		.2byte	0xe
 9269 08c1 75       		.byte	0x75
 9270 08c2 00       		.sleb128 0
 9271 08c3 71       		.byte	0x71
 9272 08c4 00       		.sleb128 0
 9273 08c5 1E       		.byte	0x1e
 9274 08c6 38       		.byte	0x38
 9275 08c7 26       		.byte	0x26
 9276 08c8 91       		.byte	0x91
 9277 08c9 00       		.sleb128 0
 9278 08ca 06       		.byte	0x6
 9279 08cb 22       		.byte	0x22
 9280 08cc 38       		.byte	0x38
ARM GAS  C:\Users\haske\AppData\Local\Temp\ccOknJt1.s 			page 186


 9281 08cd 26       		.byte	0x26
 9282 08ce 9F       		.byte	0x9f
 9283 08cf 78010000 		.4byte	.LVL124
 9284 08d3 A6010000 		.4byte	.LVL129
 9285 08d7 0100     		.2byte	0x1
 9286 08d9 53       		.byte	0x53
 9287 08da A6010000 		.4byte	.LVL129
 9288 08de AA010000 		.4byte	.LVL131
 9289 08e2 0E00     		.2byte	0xe
 9290 08e4 75       		.byte	0x75
 9291 08e5 00       		.sleb128 0
 9292 08e6 71       		.byte	0x71
 9293 08e7 00       		.sleb128 0
 9294 08e8 1E       		.byte	0x1e
 9295 08e9 38       		.byte	0x38
 9296 08ea 26       		.byte	0x26
 9297 08eb 91       		.byte	0x91
 9298 08ec 00       		.sleb128 0
 9299 08ed 06       		.byte	0x6
 9300 08ee 22       		.byte	0x22
 9301 08ef 38       		.byte	0x38
 9302 08f0 26       		.byte	0x26
 9303 08f1 9F       		.byte	0x9f
 9304 08f2 AA010000 		.4byte	.LVL131
 9305 08f6 B0010000 		.4byte	.LVL132
 9306 08fa 0100     		.2byte	0x1
 9307 08fc 53       		.byte	0x53
 9308 08fd B0010000 		.4byte	.LVL132
 9309 0901 D4010000 		.4byte	.LVL133
 9310 0905 0E00     		.2byte	0xe
 9311 0907 75       		.byte	0x75
 9312 0908 00       		.sleb128 0
 9313 0909 71       		.byte	0x71
 9314 090a 00       		.sleb128 0
 9315 090b 1E       		.byte	0x1e
 9316 090c 38       		.byte	0x38
 9317 090d 26       		.byte	0x26
 9318 090e 91       		.byte	0x91
 9319 090f 00       		.sleb128 0
 9320 0910 06       		.byte	0x6
 9321 0911 22       		.byte	0x22
 9322 0912 38       		.byte	0x38
 9323 0913 26       		.byte	0x26
 9324 0914 9F       		.byte	0x9f
 9325 0915 D4010000 		.4byte	.LVL133
 9326 0919 DA010000 		.4byte	.LVL134
 9327 091d 0100     		.2byte	0x1
 9328 091f 53       		.byte	0x53
 9329 0920 DA010000 		.4byte	.LVL134
 9330 0924 4A020000 		.4byte	.LVL145
 9331 0928 0E00     		.2byte	0xe
 9332 092a 75       		.byte	0x75
 9333 092b 00       		.sleb128 0
 9334 092c 71       		.byte	0x71
 9335 092d 00       		.sleb128 0
 9336 092e 1E       		.byte	0x1e
 9337 092f 38       		.byte	0x38
ARM GAS  C:\Users\haske\AppData\Local\Temp\ccOknJt1.s 			page 187


 9338 0930 26       		.byte	0x26
 9339 0931 91       		.byte	0x91
 9340 0932 00       		.sleb128 0
 9341 0933 06       		.byte	0x6
 9342 0934 22       		.byte	0x22
 9343 0935 38       		.byte	0x38
 9344 0936 26       		.byte	0x26
 9345 0937 9F       		.byte	0x9f
 9346 0938 4A020000 		.4byte	.LVL145
 9347 093c 4C020000 		.4byte	.LVL146
 9348 0940 0100     		.2byte	0x1
 9349 0942 53       		.byte	0x53
 9350 0943 4C020000 		.4byte	.LVL146
 9351 0947 04030000 		.4byte	.LVL177
 9352 094b 0E00     		.2byte	0xe
 9353 094d 75       		.byte	0x75
 9354 094e 00       		.sleb128 0
 9355 094f 71       		.byte	0x71
 9356 0950 00       		.sleb128 0
 9357 0951 1E       		.byte	0x1e
 9358 0952 38       		.byte	0x38
 9359 0953 26       		.byte	0x26
 9360 0954 91       		.byte	0x91
 9361 0955 00       		.sleb128 0
 9362 0956 06       		.byte	0x6
 9363 0957 22       		.byte	0x22
 9364 0958 38       		.byte	0x38
 9365 0959 26       		.byte	0x26
 9366 095a 9F       		.byte	0x9f
 9367 095b 04030000 		.4byte	.LVL177
 9368 095f 74030000 		.4byte	.LVL183
 9369 0963 0100     		.2byte	0x1
 9370 0965 53       		.byte	0x53
 9371 0966 74030000 		.4byte	.LVL183
 9372 096a C2030000 		.4byte	.LVL192
 9373 096e 0E00     		.2byte	0xe
 9374 0970 75       		.byte	0x75
 9375 0971 00       		.sleb128 0
 9376 0972 71       		.byte	0x71
 9377 0973 00       		.sleb128 0
 9378 0974 1E       		.byte	0x1e
 9379 0975 38       		.byte	0x38
 9380 0976 26       		.byte	0x26
 9381 0977 91       		.byte	0x91
 9382 0978 00       		.sleb128 0
 9383 0979 06       		.byte	0x6
 9384 097a 22       		.byte	0x22
 9385 097b 38       		.byte	0x38
 9386 097c 26       		.byte	0x26
 9387 097d 9F       		.byte	0x9f
 9388 097e C2030000 		.4byte	.LVL192
 9389 0982 C4030000 		.4byte	.LVL193
 9390 0986 0E00     		.2byte	0xe
 9391 0988 71       		.byte	0x71
 9392 0989 7F       		.sleb128 -1
 9393 098a 75       		.byte	0x75
 9394 098b 00       		.sleb128 0
ARM GAS  C:\Users\haske\AppData\Local\Temp\ccOknJt1.s 			page 188


 9395 098c 1E       		.byte	0x1e
 9396 098d 38       		.byte	0x38
 9397 098e 26       		.byte	0x26
 9398 098f 91       		.byte	0x91
 9399 0990 00       		.sleb128 0
 9400 0991 06       		.byte	0x6
 9401 0992 22       		.byte	0x22
 9402 0993 38       		.byte	0x38
 9403 0994 26       		.byte	0x26
 9404 0995 9F       		.byte	0x9f
 9405 0996 00000000 		.4byte	0
 9406 099a 00000000 		.4byte	0
 9407              	.LLST39:
 9408 099e AA000000 		.4byte	.LVL85
 9409 09a2 C2000000 		.4byte	.LVL89
 9410 09a6 0100     		.2byte	0x1
 9411 09a8 52       		.byte	0x52
 9412 09a9 C2000000 		.4byte	.LVL89
 9413 09ad C6000000 		.4byte	.LVL90
 9414 09b1 0500     		.2byte	0x5
 9415 09b3 76       		.byte	0x76
 9416 09b4 00       		.sleb128 0
 9417 09b5 38       		.byte	0x38
 9418 09b6 26       		.byte	0x26
 9419 09b7 9F       		.byte	0x9f
 9420 09b8 C6000000 		.4byte	.LVL90
 9421 09bc 48010000 		.4byte	.LVL115
 9422 09c0 0100     		.2byte	0x1
 9423 09c2 52       		.byte	0x52
 9424 09c3 48010000 		.4byte	.LVL115
 9425 09c7 04030000 		.4byte	.LVL177
 9426 09cb 0D00     		.2byte	0xd
 9427 09cd 79       		.byte	0x79
 9428 09ce 00       		.sleb128 0
 9429 09cf 71       		.byte	0x71
 9430 09d0 00       		.sleb128 0
 9431 09d1 1E       		.byte	0x1e
 9432 09d2 38       		.byte	0x38
 9433 09d3 26       		.byte	0x26
 9434 09d4 7B       		.byte	0x7b
 9435 09d5 00       		.sleb128 0
 9436 09d6 22       		.byte	0x22
 9437 09d7 38       		.byte	0x38
 9438 09d8 26       		.byte	0x26
 9439 09d9 9F       		.byte	0x9f
 9440 09da 04030000 		.4byte	.LVL177
 9441 09de 7A030000 		.4byte	.LVL184
 9442 09e2 0100     		.2byte	0x1
 9443 09e4 52       		.byte	0x52
 9444 09e5 7A030000 		.4byte	.LVL184
 9445 09e9 8A030000 		.4byte	.LVL186
 9446 09ed 0D00     		.2byte	0xd
 9447 09ef 79       		.byte	0x79
 9448 09f0 00       		.sleb128 0
 9449 09f1 71       		.byte	0x71
 9450 09f2 00       		.sleb128 0
 9451 09f3 1E       		.byte	0x1e
ARM GAS  C:\Users\haske\AppData\Local\Temp\ccOknJt1.s 			page 189


 9452 09f4 38       		.byte	0x38
 9453 09f5 26       		.byte	0x26
 9454 09f6 7B       		.byte	0x7b
 9455 09f7 00       		.sleb128 0
 9456 09f8 22       		.byte	0x22
 9457 09f9 38       		.byte	0x38
 9458 09fa 26       		.byte	0x26
 9459 09fb 9F       		.byte	0x9f
 9460 09fc 8A030000 		.4byte	.LVL186
 9461 0a00 A6030000 		.4byte	.LVL187
 9462 0a04 0100     		.2byte	0x1
 9463 0a06 52       		.byte	0x52
 9464 0a07 A6030000 		.4byte	.LVL187
 9465 0a0b B4030000 		.4byte	.LVL189
 9466 0a0f 0D00     		.2byte	0xd
 9467 0a11 79       		.byte	0x79
 9468 0a12 00       		.sleb128 0
 9469 0a13 71       		.byte	0x71
 9470 0a14 00       		.sleb128 0
 9471 0a15 1E       		.byte	0x1e
 9472 0a16 38       		.byte	0x38
 9473 0a17 26       		.byte	0x26
 9474 0a18 7B       		.byte	0x7b
 9475 0a19 00       		.sleb128 0
 9476 0a1a 22       		.byte	0x22
 9477 0a1b 38       		.byte	0x38
 9478 0a1c 26       		.byte	0x26
 9479 0a1d 9F       		.byte	0x9f
 9480 0a1e B4030000 		.4byte	.LVL189
 9481 0a22 B8030000 		.4byte	.LVL190
 9482 0a26 0100     		.2byte	0x1
 9483 0a28 52       		.byte	0x52
 9484 0a29 B8030000 		.4byte	.LVL190
 9485 0a2d C2030000 		.4byte	.LVL192
 9486 0a31 0D00     		.2byte	0xd
 9487 0a33 79       		.byte	0x79
 9488 0a34 00       		.sleb128 0
 9489 0a35 71       		.byte	0x71
 9490 0a36 00       		.sleb128 0
 9491 0a37 1E       		.byte	0x1e
 9492 0a38 38       		.byte	0x38
 9493 0a39 26       		.byte	0x26
 9494 0a3a 7B       		.byte	0x7b
 9495 0a3b 00       		.sleb128 0
 9496 0a3c 22       		.byte	0x22
 9497 0a3d 38       		.byte	0x38
 9498 0a3e 26       		.byte	0x26
 9499 0a3f 9F       		.byte	0x9f
 9500 0a40 C2030000 		.4byte	.LVL192
 9501 0a44 C4030000 		.4byte	.LVL193
 9502 0a48 0D00     		.2byte	0xd
 9503 0a4a 71       		.byte	0x71
 9504 0a4b 7F       		.sleb128 -1
 9505 0a4c 79       		.byte	0x79
 9506 0a4d 00       		.sleb128 0
 9507 0a4e 1E       		.byte	0x1e
 9508 0a4f 38       		.byte	0x38
ARM GAS  C:\Users\haske\AppData\Local\Temp\ccOknJt1.s 			page 190


 9509 0a50 26       		.byte	0x26
 9510 0a51 7B       		.byte	0x7b
 9511 0a52 00       		.sleb128 0
 9512 0a53 22       		.byte	0x22
 9513 0a54 38       		.byte	0x38
 9514 0a55 26       		.byte	0x26
 9515 0a56 9F       		.byte	0x9f
 9516 0a57 00000000 		.4byte	0
 9517 0a5b 00000000 		.4byte	0
 9518              	.LLST40:
 9519 0a5f CA000000 		.4byte	.LVL91
 9520 0a63 D4000000 		.4byte	.LVL94
 9521 0a67 0100     		.2byte	0x1
 9522 0a69 57       		.byte	0x57
 9523 0a6a D4000000 		.4byte	.LVL94
 9524 0a6e D8000000 		.4byte	.LVL95
 9525 0a72 0E00     		.2byte	0xe
 9526 0a74 75       		.byte	0x75
 9527 0a75 00       		.sleb128 0
 9528 0a76 71       		.byte	0x71
 9529 0a77 00       		.sleb128 0
 9530 0a78 1E       		.byte	0x1e
 9531 0a79 38       		.byte	0x38
 9532 0a7a 26       		.byte	0x26
 9533 0a7b 78       		.byte	0x78
 9534 0a7c 00       		.sleb128 0
 9535 0a7d 22       		.byte	0x22
 9536 0a7e 08       		.byte	0x8
 9537 0a7f FF       		.byte	0xff
 9538 0a80 1A       		.byte	0x1a
 9539 0a81 9F       		.byte	0x9f
 9540 0a82 D8000000 		.4byte	.LVL95
 9541 0a86 DA000000 		.4byte	.LVL96
 9542 0a8a 0100     		.2byte	0x1
 9543 0a8c 54       		.byte	0x54
 9544 0a8d DA000000 		.4byte	.LVL96
 9545 0a91 E0000000 		.4byte	.LVL97
 9546 0a95 0200     		.2byte	0x2
 9547 0a97 91       		.byte	0x91
 9548 0a98 44       		.sleb128 -60
 9549 0a99 E0000000 		.4byte	.LVL97
 9550 0a9d E2000000 		.4byte	.LVL98
 9551 0aa1 0100     		.2byte	0x1
 9552 0aa3 57       		.byte	0x57
 9553 0aa4 E2000000 		.4byte	.LVL98
 9554 0aa8 E6000000 		.4byte	.LVL99
 9555 0aac 0400     		.2byte	0x4
 9556 0aae 77       		.byte	0x77
 9557 0aaf 8001     		.sleb128 128
 9558 0ab1 9F       		.byte	0x9f
 9559 0ab2 E6000000 		.4byte	.LVL99
 9560 0ab6 E8000000 		.4byte	.LVL100
 9561 0aba 0100     		.2byte	0x1
 9562 0abc 54       		.byte	0x54
 9563 0abd E8000000 		.4byte	.LVL100
 9564 0ac1 C0030000 		.4byte	.LVL191
 9565 0ac5 0200     		.2byte	0x2
ARM GAS  C:\Users\haske\AppData\Local\Temp\ccOknJt1.s 			page 191


 9566 0ac7 91       		.byte	0x91
 9567 0ac8 44       		.sleb128 -60
 9568 0ac9 00000000 		.4byte	0
 9569 0acd 00000000 		.4byte	0
 9570              	.LLST41:
 9571 0ad1 CC000000 		.4byte	.LVL92
 9572 0ad5 F2000000 		.4byte	.LVL103
 9573 0ad9 0100     		.2byte	0x1
 9574 0adb 56       		.byte	0x56
 9575 0adc F2000000 		.4byte	.LVL103
 9576 0ae0 F6000000 		.4byte	.LVL104
 9577 0ae4 0E00     		.2byte	0xe
 9578 0ae6 79       		.byte	0x79
 9579 0ae7 00       		.sleb128 0
 9580 0ae8 71       		.byte	0x71
 9581 0ae9 00       		.sleb128 0
 9582 0aea 1E       		.byte	0x1e
 9583 0aeb 38       		.byte	0x38
 9584 0aec 26       		.byte	0x26
 9585 0aed 7B       		.byte	0x7b
 9586 0aee 00       		.sleb128 0
 9587 0aef 22       		.byte	0x22
 9588 0af0 08       		.byte	0x8
 9589 0af1 FF       		.byte	0xff
 9590 0af2 1A       		.byte	0x1a
 9591 0af3 9F       		.byte	0x9f
 9592 0af4 F6000000 		.4byte	.LVL104
 9593 0af8 F8000000 		.4byte	.LVL105
 9594 0afc 0100     		.2byte	0x1
 9595 0afe 54       		.byte	0x54
 9596 0aff F8000000 		.4byte	.LVL105
 9597 0b03 FE000000 		.4byte	.LVL106
 9598 0b07 0200     		.2byte	0x2
 9599 0b09 91       		.byte	0x91
 9600 0b0a 4C       		.sleb128 -52
 9601 0b0b FE000000 		.4byte	.LVL106
 9602 0b0f 00010000 		.4byte	.LVL107
 9603 0b13 0100     		.2byte	0x1
 9604 0b15 56       		.byte	0x56
 9605 0b16 00010000 		.4byte	.LVL107
 9606 0b1a 04010000 		.4byte	.LVL108
 9607 0b1e 0400     		.2byte	0x4
 9608 0b20 76       		.byte	0x76
 9609 0b21 8001     		.sleb128 128
 9610 0b23 9F       		.byte	0x9f
 9611 0b24 04010000 		.4byte	.LVL108
 9612 0b28 06010000 		.4byte	.LVL109
 9613 0b2c 0100     		.2byte	0x1
 9614 0b2e 54       		.byte	0x54
 9615 0b2f 06010000 		.4byte	.LVL109
 9616 0b33 C0030000 		.4byte	.LVL191
 9617 0b37 0200     		.2byte	0x2
 9618 0b39 91       		.byte	0x91
 9619 0b3a 4C       		.sleb128 -52
 9620 0b3b 00000000 		.4byte	0
 9621 0b3f 00000000 		.4byte	0
 9622              	.LLST42:
ARM GAS  C:\Users\haske\AppData\Local\Temp\ccOknJt1.s 			page 192


 9623 0b43 D0000000 		.4byte	.LVL93
 9624 0b47 E0000000 		.4byte	.LVL97
 9625 0b4b 0300     		.2byte	0x3
 9626 0b4d 09       		.byte	0x9
 9627 0b4e FF       		.byte	0xff
 9628 0b4f 9F       		.byte	0x9f
 9629 0b50 E0000000 		.4byte	.LVL97
 9630 0b54 EA000000 		.4byte	.LVL101
 9631 0b58 0200     		.2byte	0x2
 9632 0b5a 31       		.byte	0x31
 9633 0b5b 9F       		.byte	0x9f
 9634 0b5c EA000000 		.4byte	.LVL101
 9635 0b60 32020000 		.4byte	.LVL142
 9636 0b64 0300     		.2byte	0x3
 9637 0b66 91       		.byte	0x91
 9638 0b67 A47F     		.sleb128 -92
 9639 0b69 4A020000 		.4byte	.LVL145
 9640 0b6d 52020000 		.4byte	.LVL148
 9641 0b71 0300     		.2byte	0x3
 9642 0b73 91       		.byte	0x91
 9643 0b74 A47F     		.sleb128 -92
 9644 0b76 04030000 		.4byte	.LVL177
 9645 0b7a C0030000 		.4byte	.LVL191
 9646 0b7e 0300     		.2byte	0x3
 9647 0b80 91       		.byte	0x91
 9648 0b81 A47F     		.sleb128 -92
 9649 0b83 00000000 		.4byte	0
 9650 0b87 00000000 		.4byte	0
 9651              	.LLST43:
 9652 0b8b EE000000 		.4byte	.LVL102
 9653 0b8f FE000000 		.4byte	.LVL106
 9654 0b93 0300     		.2byte	0x3
 9655 0b95 09       		.byte	0x9
 9656 0b96 FF       		.byte	0xff
 9657 0b97 9F       		.byte	0x9f
 9658 0b98 FE000000 		.4byte	.LVL106
 9659 0b9c 08010000 		.4byte	.LVL110
 9660 0ba0 0200     		.2byte	0x2
 9661 0ba2 31       		.byte	0x31
 9662 0ba3 9F       		.byte	0x9f
 9663 0ba4 08010000 		.4byte	.LVL110
 9664 0ba8 5E010000 		.4byte	.LVL118
 9665 0bac 0300     		.2byte	0x3
 9666 0bae 91       		.byte	0x91
 9667 0baf B47F     		.sleb128 -76
 9668 0bb1 04030000 		.4byte	.LVL177
 9669 0bb5 C0030000 		.4byte	.LVL191
 9670 0bb9 0300     		.2byte	0x3
 9671 0bbb 91       		.byte	0x91
 9672 0bbc B47F     		.sleb128 -76
 9673 0bbe 00000000 		.4byte	0
 9674 0bc2 00000000 		.4byte	0
 9675              	.LLST44:
 9676 0bc6 08010000 		.4byte	.LVL110
 9677 0bca 1C010000 		.4byte	.LVL112
 9678 0bce 0300     		.2byte	0x3
 9679 0bd0 91       		.byte	0x91
ARM GAS  C:\Users\haske\AppData\Local\Temp\ccOknJt1.s 			page 193


 9680 0bd1 B07F     		.sleb128 -80
 9681 0bd3 1C010000 		.4byte	.LVL112
 9682 0bd7 24010000 		.4byte	.LVL113
 9683 0bdb 0100     		.2byte	0x1
 9684 0bdd 56       		.byte	0x56
 9685 0bde 24010000 		.4byte	.LVL113
 9686 0be2 AA010000 		.4byte	.LVL131
 9687 0be6 0300     		.2byte	0x3
 9688 0be8 91       		.byte	0x91
 9689 0be9 A87F     		.sleb128 -88
 9690 0beb AA010000 		.4byte	.LVL131
 9691 0bef E6010000 		.4byte	.LVL135
 9692 0bf3 0100     		.2byte	0x1
 9693 0bf5 56       		.byte	0x56
 9694 0bf6 E6010000 		.4byte	.LVL135
 9695 0bfa 48020000 		.4byte	.LVL144
 9696 0bfe 0300     		.2byte	0x3
 9697 0c00 91       		.byte	0x91
 9698 0c01 A87F     		.sleb128 -88
 9699 0c03 48020000 		.4byte	.LVL144
 9700 0c07 4A020000 		.4byte	.LVL145
 9701 0c0b 2A00     		.2byte	0x2a
 9702 0c0d 79       		.byte	0x79
 9703 0c0e 00       		.sleb128 0
 9704 0c0f 71       		.byte	0x71
 9705 0c10 00       		.sleb128 0
 9706 0c11 1E       		.byte	0x1e
 9707 0c12 38       		.byte	0x38
 9708 0c13 26       		.byte	0x26
 9709 0c14 7B       		.byte	0x7b
 9710 0c15 00       		.sleb128 0
 9711 0c16 22       		.byte	0x22
 9712 0c17 38       		.byte	0x38
 9713 0c18 26       		.byte	0x26
 9714 0c19 91       		.byte	0x91
 9715 0c1a AC7F     		.sleb128 -84
 9716 0c1c 06       		.byte	0x6
 9717 0c1d 1E       		.byte	0x1e
 9718 0c1e 75       		.byte	0x75
 9719 0c1f 00       		.sleb128 0
 9720 0c20 71       		.byte	0x71
 9721 0c21 00       		.sleb128 0
 9722 0c22 1E       		.byte	0x1e
 9723 0c23 38       		.byte	0x38
 9724 0c24 26       		.byte	0x26
 9725 0c25 91       		.byte	0x91
 9726 0c26 00       		.sleb128 0
 9727 0c27 06       		.byte	0x6
 9728 0c28 22       		.byte	0x22
 9729 0c29 38       		.byte	0x38
 9730 0c2a 26       		.byte	0x26
 9731 0c2b 22       		.byte	0x22
 9732 0c2c 91       		.byte	0x91
 9733 0c2d BC7F     		.sleb128 -68
 9734 0c2f 06       		.byte	0x6
 9735 0c30 1E       		.byte	0x1e
 9736 0c31 91       		.byte	0x91
ARM GAS  C:\Users\haske\AppData\Local\Temp\ccOknJt1.s 			page 194


 9737 0c32 B07F     		.sleb128 -80
 9738 0c34 06       		.byte	0x6
 9739 0c35 22       		.byte	0x22
 9740 0c36 9F       		.byte	0x9f
 9741 0c37 4A020000 		.4byte	.LVL145
 9742 0c3b 62020000 		.4byte	.LVL152
 9743 0c3f 0100     		.2byte	0x1
 9744 0c41 56       		.byte	0x56
 9745 0c42 62020000 		.4byte	.LVL152
 9746 0c46 04030000 		.4byte	.LVL177
 9747 0c4a 2A00     		.2byte	0x2a
 9748 0c4c 79       		.byte	0x79
 9749 0c4d 00       		.sleb128 0
 9750 0c4e 71       		.byte	0x71
 9751 0c4f 00       		.sleb128 0
 9752 0c50 1E       		.byte	0x1e
 9753 0c51 38       		.byte	0x38
 9754 0c52 26       		.byte	0x26
 9755 0c53 7B       		.byte	0x7b
 9756 0c54 00       		.sleb128 0
 9757 0c55 22       		.byte	0x22
 9758 0c56 38       		.byte	0x38
 9759 0c57 26       		.byte	0x26
 9760 0c58 91       		.byte	0x91
 9761 0c59 AC7F     		.sleb128 -84
 9762 0c5b 06       		.byte	0x6
 9763 0c5c 1E       		.byte	0x1e
 9764 0c5d 75       		.byte	0x75
 9765 0c5e 00       		.sleb128 0
 9766 0c5f 71       		.byte	0x71
 9767 0c60 00       		.sleb128 0
 9768 0c61 1E       		.byte	0x1e
 9769 0c62 38       		.byte	0x38
 9770 0c63 26       		.byte	0x26
 9771 0c64 91       		.byte	0x91
 9772 0c65 00       		.sleb128 0
 9773 0c66 06       		.byte	0x6
 9774 0c67 22       		.byte	0x22
 9775 0c68 38       		.byte	0x38
 9776 0c69 26       		.byte	0x26
 9777 0c6a 22       		.byte	0x22
 9778 0c6b 91       		.byte	0x91
 9779 0c6c BC7F     		.sleb128 -68
 9780 0c6e 06       		.byte	0x6
 9781 0c6f 1E       		.byte	0x1e
 9782 0c70 91       		.byte	0x91
 9783 0c71 B07F     		.sleb128 -80
 9784 0c73 06       		.byte	0x6
 9785 0c74 22       		.byte	0x22
 9786 0c75 9F       		.byte	0x9f
 9787 0c76 04030000 		.4byte	.LVL177
 9788 0c7a C0030000 		.4byte	.LVL191
 9789 0c7e 0300     		.2byte	0x3
 9790 0c80 91       		.byte	0x91
 9791 0c81 A87F     		.sleb128 -88
 9792 0c83 00000000 		.4byte	0
 9793 0c87 00000000 		.4byte	0
ARM GAS  C:\Users\haske\AppData\Local\Temp\ccOknJt1.s 			page 195


 9794              	.LLST45:
 9795 0c8b 46010000 		.4byte	.LVL114
 9796 0c8f AA010000 		.4byte	.LVL131
 9797 0c93 0300     		.2byte	0x3
 9798 0c95 91       		.byte	0x91
 9799 0c96 A87F     		.sleb128 -88
 9800 0c98 AA010000 		.4byte	.LVL131
 9801 0c9c E6010000 		.4byte	.LVL135
 9802 0ca0 0100     		.2byte	0x1
 9803 0ca2 56       		.byte	0x56
 9804 0ca3 E6010000 		.4byte	.LVL135
 9805 0ca7 48020000 		.4byte	.LVL144
 9806 0cab 0300     		.2byte	0x3
 9807 0cad 91       		.byte	0x91
 9808 0cae A87F     		.sleb128 -88
 9809 0cb0 48020000 		.4byte	.LVL144
 9810 0cb4 4A020000 		.4byte	.LVL145
 9811 0cb8 2A00     		.2byte	0x2a
 9812 0cba 79       		.byte	0x79
 9813 0cbb 00       		.sleb128 0
 9814 0cbc 71       		.byte	0x71
 9815 0cbd 00       		.sleb128 0
 9816 0cbe 1E       		.byte	0x1e
 9817 0cbf 38       		.byte	0x38
 9818 0cc0 26       		.byte	0x26
 9819 0cc1 7B       		.byte	0x7b
 9820 0cc2 00       		.sleb128 0
 9821 0cc3 22       		.byte	0x22
 9822 0cc4 38       		.byte	0x38
 9823 0cc5 26       		.byte	0x26
 9824 0cc6 91       		.byte	0x91
 9825 0cc7 AC7F     		.sleb128 -84
 9826 0cc9 06       		.byte	0x6
 9827 0cca 1E       		.byte	0x1e
 9828 0ccb 75       		.byte	0x75
 9829 0ccc 00       		.sleb128 0
 9830 0ccd 71       		.byte	0x71
 9831 0cce 00       		.sleb128 0
 9832 0ccf 1E       		.byte	0x1e
 9833 0cd0 38       		.byte	0x38
 9834 0cd1 26       		.byte	0x26
 9835 0cd2 91       		.byte	0x91
 9836 0cd3 00       		.sleb128 0
 9837 0cd4 06       		.byte	0x6
 9838 0cd5 22       		.byte	0x22
 9839 0cd6 38       		.byte	0x38
 9840 0cd7 26       		.byte	0x26
 9841 0cd8 22       		.byte	0x22
 9842 0cd9 91       		.byte	0x91
 9843 0cda BC7F     		.sleb128 -68
 9844 0cdc 06       		.byte	0x6
 9845 0cdd 1E       		.byte	0x1e
 9846 0cde 91       		.byte	0x91
 9847 0cdf B07F     		.sleb128 -80
 9848 0ce1 06       		.byte	0x6
 9849 0ce2 22       		.byte	0x22
 9850 0ce3 9F       		.byte	0x9f
ARM GAS  C:\Users\haske\AppData\Local\Temp\ccOknJt1.s 			page 196


 9851 0ce4 4A020000 		.4byte	.LVL145
 9852 0ce8 62020000 		.4byte	.LVL152
 9853 0cec 0100     		.2byte	0x1
 9854 0cee 56       		.byte	0x56
 9855 0cef 62020000 		.4byte	.LVL152
 9856 0cf3 04030000 		.4byte	.LVL177
 9857 0cf7 2A00     		.2byte	0x2a
 9858 0cf9 79       		.byte	0x79
 9859 0cfa 00       		.sleb128 0
 9860 0cfb 71       		.byte	0x71
 9861 0cfc 00       		.sleb128 0
 9862 0cfd 1E       		.byte	0x1e
 9863 0cfe 38       		.byte	0x38
 9864 0cff 26       		.byte	0x26
 9865 0d00 7B       		.byte	0x7b
 9866 0d01 00       		.sleb128 0
 9867 0d02 22       		.byte	0x22
 9868 0d03 38       		.byte	0x38
 9869 0d04 26       		.byte	0x26
 9870 0d05 91       		.byte	0x91
 9871 0d06 AC7F     		.sleb128 -84
 9872 0d08 06       		.byte	0x6
 9873 0d09 1E       		.byte	0x1e
 9874 0d0a 75       		.byte	0x75
 9875 0d0b 00       		.sleb128 0
 9876 0d0c 71       		.byte	0x71
 9877 0d0d 00       		.sleb128 0
 9878 0d0e 1E       		.byte	0x1e
 9879 0d0f 38       		.byte	0x38
 9880 0d10 26       		.byte	0x26
 9881 0d11 91       		.byte	0x91
 9882 0d12 00       		.sleb128 0
 9883 0d13 06       		.byte	0x6
 9884 0d14 22       		.byte	0x22
 9885 0d15 38       		.byte	0x38
 9886 0d16 26       		.byte	0x26
 9887 0d17 22       		.byte	0x22
 9888 0d18 91       		.byte	0x91
 9889 0d19 BC7F     		.sleb128 -68
 9890 0d1b 06       		.byte	0x6
 9891 0d1c 1E       		.byte	0x1e
 9892 0d1d 91       		.byte	0x91
 9893 0d1e B07F     		.sleb128 -80
 9894 0d20 06       		.byte	0x6
 9895 0d21 22       		.byte	0x22
 9896 0d22 9F       		.byte	0x9f
 9897 0d23 00000000 		.4byte	0
 9898 0d27 00000000 		.4byte	0
 9899              	.LLST46:
 9900 0d2b 52010000 		.4byte	.LVL116
 9901 0d2f 54010000 		.4byte	.LVL117
 9902 0d33 0100     		.2byte	0x1
 9903 0d35 52       		.byte	0x52
 9904 0d36 54010000 		.4byte	.LVL117
 9905 0d3a 04030000 		.4byte	.LVL177
 9906 0d3e 0200     		.2byte	0x2
 9907 0d40 91       		.byte	0x91
ARM GAS  C:\Users\haske\AppData\Local\Temp\ccOknJt1.s 			page 197


 9908 0d41 40       		.sleb128 -64
 9909 0d42 00000000 		.4byte	0
 9910 0d46 00000000 		.4byte	0
 9911              	.LLST47:
 9912 0d4a 5E010000 		.4byte	.LVL118
 9913 0d4e 60010000 		.4byte	.LVL119
 9914 0d52 0100     		.2byte	0x1
 9915 0d54 52       		.byte	0x52
 9916 0d55 60010000 		.4byte	.LVL119
 9917 0d59 04030000 		.4byte	.LVL177
 9918 0d5d 0300     		.2byte	0x3
 9919 0d5f 91       		.byte	0x91
 9920 0d60 B47F     		.sleb128 -76
 9921 0d62 00000000 		.4byte	0
 9922 0d66 00000000 		.4byte	0
 9923              	.LLST48:
 9924 0d6a 92000000 		.4byte	.LVL81
 9925 0d6e B8000000 		.4byte	.LVL86
 9926 0d72 0100     		.2byte	0x1
 9927 0d74 54       		.byte	0x54
 9928 0d75 BC000000 		.4byte	.LVL87
 9929 0d79 C6000000 		.4byte	.LVL90
 9930 0d7d 0100     		.2byte	0x1
 9931 0d7f 54       		.byte	0x54
 9932 0d80 50020000 		.4byte	.LVL147
 9933 0d84 54020000 		.4byte	.LVL149
 9934 0d88 0100     		.2byte	0x1
 9935 0d8a 53       		.byte	0x53
 9936 0d8b 7A020000 		.4byte	.LVL155
 9937 0d8f 7E020000 		.4byte	.LVL156
 9938 0d93 0100     		.2byte	0x1
 9939 0d95 54       		.byte	0x54
 9940 0d96 C0030000 		.4byte	.LVL191
 9941 0d9a CC030000 		.4byte	.LVL195
 9942 0d9e 0100     		.2byte	0x1
 9943 0da0 54       		.byte	0x54
 9944 0da1 00000000 		.4byte	0
 9945 0da5 00000000 		.4byte	0
 9946              	.LLST49:
 9947 0da9 66020000 		.4byte	.LVL153
 9948 0dad 76020000 		.4byte	.LVL154
 9949 0db1 0100     		.2byte	0x1
 9950 0db3 53       		.byte	0x53
 9951 0db4 7E020000 		.4byte	.LVL156
 9952 0db8 98020000 		.4byte	.LVL159
 9953 0dbc 0100     		.2byte	0x1
 9954 0dbe 53       		.byte	0x53
 9955 0dbf 00000000 		.4byte	0
 9956 0dc3 00000000 		.4byte	0
 9957              	.LLST50:
 9958 0dc7 56020000 		.4byte	.LVL150
 9959 0dcb 5A020000 		.4byte	.LVL151
 9960 0dcf 0100     		.2byte	0x1
 9961 0dd1 53       		.byte	0x53
 9962 0dd2 00000000 		.4byte	0
 9963 0dd6 00000000 		.4byte	0
 9964              	.LLST51:
ARM GAS  C:\Users\haske\AppData\Local\Temp\ccOknJt1.s 			page 198


 9965 0dda 6E010000 		.4byte	.LVL121
 9966 0dde 78010000 		.4byte	.LVL124
 9967 0de2 0200     		.2byte	0x2
 9968 0de4 91       		.byte	0x91
 9969 0de5 50       		.sleb128 -48
 9970 0de6 96010000 		.4byte	.LVL127
 9971 0dea AA010000 		.4byte	.LVL131
 9972 0dee 0200     		.2byte	0x2
 9973 0df0 91       		.byte	0x91
 9974 0df1 50       		.sleb128 -48
 9975 0df2 E6010000 		.4byte	.LVL135
 9976 0df6 4A020000 		.4byte	.LVL145
 9977 0dfa 0200     		.2byte	0x2
 9978 0dfc 91       		.byte	0x91
 9979 0dfd 50       		.sleb128 -48
 9980 0dfe 00000000 		.4byte	0
 9981 0e02 00000000 		.4byte	0
 9982              	.LLST52:
 9983 0e06 72010000 		.4byte	.LVL122
 9984 0e0a 78010000 		.4byte	.LVL124
 9985 0e0e 0100     		.2byte	0x1
 9986 0e10 52       		.byte	0x52
 9987 0e11 A8010000 		.4byte	.LVL130
 9988 0e15 AA010000 		.4byte	.LVL131
 9989 0e19 0100     		.2byte	0x1
 9990 0e1b 52       		.byte	0x52
 9991 0e1c E6010000 		.4byte	.LVL135
 9992 0e20 F0010000 		.4byte	.LVL136
 9993 0e24 0100     		.2byte	0x1
 9994 0e26 52       		.byte	0x52
 9995 0e27 FE010000 		.4byte	.LVL137
 9996 0e2b 1E020000 		.4byte	.LVL141
 9997 0e2f 0100     		.2byte	0x1
 9998 0e31 52       		.byte	0x52
 9999 0e32 00000000 		.4byte	0
 10000 0e36 00000000 		.4byte	0
 10001              	.LLST53:
 10002 0e3a 76010000 		.4byte	.LVL123
 10003 0e3e 78010000 		.4byte	.LVL124
 10004 0e42 0100     		.2byte	0x1
 10005 0e44 57       		.byte	0x57
 10006 0e45 9E010000 		.4byte	.LVL128
 10007 0e49 AA010000 		.4byte	.LVL131
 10008 0e4d 0100     		.2byte	0x1
 10009 0e4f 57       		.byte	0x57
 10010 0e50 E6010000 		.4byte	.LVL135
 10011 0e54 08020000 		.4byte	.LVL138
 10012 0e58 0100     		.2byte	0x1
 10013 0e5a 57       		.byte	0x57
 10014 0e5b 16020000 		.4byte	.LVL139
 10015 0e5f 18020000 		.4byte	.LVL140
 10016 0e63 0100     		.2byte	0x1
 10017 0e65 57       		.byte	0x57
 10018 0e66 00000000 		.4byte	0
 10019 0e6a 00000000 		.4byte	0
 10020              	.LLST54:
 10021 0e6e 8E010000 		.4byte	.LVL125
ARM GAS  C:\Users\haske\AppData\Local\Temp\ccOknJt1.s 			page 199


 10022 0e72 92010000 		.4byte	.LVL126
 10023 0e76 0100     		.2byte	0x1
 10024 0e78 52       		.byte	0x52
 10025 0e79 92010000 		.4byte	.LVL126
 10026 0e7d AA010000 		.4byte	.LVL131
 10027 0e81 0100     		.2byte	0x1
 10028 0e83 56       		.byte	0x56
 10029 0e84 00000000 		.4byte	0
 10030 0e88 00000000 		.4byte	0
 10031              	.LLST55:
 10032 0e8c 7E020000 		.4byte	.LVL156
 10033 0e90 88020000 		.4byte	.LVL157
 10034 0e94 0200     		.2byte	0x2
 10035 0e96 91       		.byte	0x91
 10036 0e97 4C       		.sleb128 -52
 10037 0e98 88020000 		.4byte	.LVL157
 10038 0e9c B6020000 		.4byte	.LVL165
 10039 0ea0 0100     		.2byte	0x1
 10040 0ea2 57       		.byte	0x57
 10041 0ea3 00000000 		.4byte	0
 10042 0ea7 00000000 		.4byte	0
 10043              	.LLST56:
 10044 0eab 96020000 		.4byte	.LVL158
 10045 0eaf 9A020000 		.4byte	.LVL160
 10046 0eb3 0100     		.2byte	0x1
 10047 0eb5 52       		.byte	0x52
 10048 0eb6 9A020000 		.4byte	.LVL160
 10049 0eba B6020000 		.4byte	.LVL165
 10050 0ebe 0100     		.2byte	0x1
 10051 0ec0 58       		.byte	0x58
 10052 0ec1 00000000 		.4byte	0
 10053 0ec5 00000000 		.4byte	0
 10054              	.LLST57:
 10055 0ec9 9E020000 		.4byte	.LVL161
 10056 0ecd A2020000 		.4byte	.LVL162
 10057 0ed1 0100     		.2byte	0x1
 10058 0ed3 53       		.byte	0x53
 10059 0ed4 00000000 		.4byte	0
 10060 0ed8 00000000 		.4byte	0
 10061              	.LLST58:
 10062 0edc AE020000 		.4byte	.LVL163
 10063 0ee0 B2020000 		.4byte	.LVL164
 10064 0ee4 0100     		.2byte	0x1
 10065 0ee6 53       		.byte	0x53
 10066 0ee7 00000000 		.4byte	0
 10067 0eeb 00000000 		.4byte	0
 10068              	.LLST59:
 10069 0eef B6020000 		.4byte	.LVL165
 10070 0ef3 C0020000 		.4byte	.LVL166
 10071 0ef7 0200     		.2byte	0x2
 10072 0ef9 91       		.byte	0x91
 10073 0efa 44       		.sleb128 -60
 10074 0efb C0020000 		.4byte	.LVL166
 10075 0eff D2020000 		.4byte	.LVL169
 10076 0f03 0100     		.2byte	0x1
 10077 0f05 52       		.byte	0x52
 10078 0f06 D2020000 		.4byte	.LVL169
ARM GAS  C:\Users\haske\AppData\Local\Temp\ccOknJt1.s 			page 200


 10079 0f0a E0020000 		.4byte	.LVL171
 10080 0f0e 0B00     		.2byte	0xb
 10081 0f10 91       		.byte	0x91
 10082 0f11 44       		.sleb128 -60
 10083 0f12 06       		.byte	0x6
 10084 0f13 77       		.byte	0x77
 10085 0f14 00       		.sleb128 0
 10086 0f15 1A       		.byte	0x1a
 10087 0f16 23       		.byte	0x23
 10088 0f17 04       		.uleb128 0x4
 10089 0f18 33       		.byte	0x33
 10090 0f19 25       		.byte	0x25
 10091 0f1a 9F       		.byte	0x9f
 10092 0f1b 00000000 		.4byte	0
 10093 0f1f 00000000 		.4byte	0
 10094              	.LLST60:
 10095 0f23 C0020000 		.4byte	.LVL166
 10096 0f27 E0020000 		.4byte	.LVL171
 10097 0f2b 0100     		.2byte	0x1
 10098 0f2d 58       		.byte	0x58
 10099 0f2e 00000000 		.4byte	0
 10100 0f32 00000000 		.4byte	0
 10101              	.LLST61:
 10102 0f36 CA020000 		.4byte	.LVL167
 10103 0f3a CE020000 		.4byte	.LVL168
 10104 0f3e 0100     		.2byte	0x1
 10105 0f40 53       		.byte	0x53
 10106 0f41 CE020000 		.4byte	.LVL168
 10107 0f45 E0020000 		.4byte	.LVL171
 10108 0f49 1700     		.2byte	0x17
 10109 0f4b 7D       		.byte	0x7d
 10110 0f4c 08       		.sleb128 8
 10111 0f4d 94       		.byte	0x94
 10112 0f4e 02       		.byte	0x2
 10113 0f4f 0A       		.byte	0xa
 10114 0f50 FFFF     		.2byte	0xffff
 10115 0f52 1A       		.byte	0x1a
 10116 0f53 40       		.byte	0x40
 10117 0f54 24       		.byte	0x24
 10118 0f55 7D       		.byte	0x7d
 10119 0f56 08       		.sleb128 8
 10120 0f57 94       		.byte	0x94
 10121 0f58 02       		.byte	0x2
 10122 0f59 0A       		.byte	0xa
 10123 0f5a FFFF     		.2byte	0xffff
 10124 0f5c 1A       		.byte	0x1a
 10125 0f5d 21       		.byte	0x21
 10126 0f5e 76       		.byte	0x76
 10127 0f5f 00       		.sleb128 0
 10128 0f60 1A       		.byte	0x1a
 10129 0f61 9F       		.byte	0x9f
 10130 0f62 00000000 		.4byte	0
 10131 0f66 00000000 		.4byte	0
 10132              	.LLST62:
 10133 0f6a DA020000 		.4byte	.LVL170
 10134 0f6e E0020000 		.4byte	.LVL171
 10135 0f72 0100     		.2byte	0x1
ARM GAS  C:\Users\haske\AppData\Local\Temp\ccOknJt1.s 			page 201


 10136 0f74 53       		.byte	0x53
 10137 0f75 00000000 		.4byte	0
 10138 0f79 00000000 		.4byte	0
 10139              	.LLST63:
 10140 0f7d E0020000 		.4byte	.LVL171
 10141 0f81 FC020000 		.4byte	.LVL176
 10142 0f85 0200     		.2byte	0x2
 10143 0f87 40       		.byte	0x40
 10144 0f88 9F       		.byte	0x9f
 10145 0f89 00000000 		.4byte	0
 10146 0f8d 00000000 		.4byte	0
 10147              	.LLST64:
 10148 0f91 E8020000 		.4byte	.LVL172
 10149 0f95 FC020000 		.4byte	.LVL176
 10150 0f99 0100     		.2byte	0x1
 10151 0f9b 53       		.byte	0x53
 10152 0f9c 00000000 		.4byte	0
 10153 0fa0 00000000 		.4byte	0
 10154              	.LLST65:
 10155 0fa4 EE020000 		.4byte	.LVL173
 10156 0fa8 F0020000 		.4byte	.LVL174
 10157 0fac 0100     		.2byte	0x1
 10158 0fae 52       		.byte	0x52
 10159 0faf F0020000 		.4byte	.LVL174
 10160 0fb3 F8020000 		.4byte	.LVL175
 10161 0fb7 6600     		.2byte	0x66
 10162 0fb9 7D       		.byte	0x7d
 10163 0fba 08       		.sleb128 8
 10164 0fbb 94       		.byte	0x94
 10165 0fbc 02       		.byte	0x2
 10166 0fbd 0A       		.byte	0xa
 10167 0fbe FFFF     		.2byte	0xffff
 10168 0fc0 1A       		.byte	0x1a
 10169 0fc1 40       		.byte	0x40
 10170 0fc2 24       		.byte	0x24
 10171 0fc3 7D       		.byte	0x7d
 10172 0fc4 08       		.sleb128 8
 10173 0fc5 94       		.byte	0x94
 10174 0fc6 02       		.byte	0x2
 10175 0fc7 0A       		.byte	0xa
 10176 0fc8 FFFF     		.2byte	0xffff
 10177 0fca 1A       		.byte	0x1a
 10178 0fcb 21       		.byte	0x21
 10179 0fcc 76       		.byte	0x76
 10180 0fcd 00       		.sleb128 0
 10181 0fce 1A       		.byte	0x1a
 10182 0fcf 78       		.byte	0x78
 10183 0fd0 00       		.sleb128 0
 10184 0fd1 1C       		.byte	0x1c
 10185 0fd2 91       		.byte	0x91
 10186 0fd3 44       		.sleb128 -60
 10187 0fd4 06       		.byte	0x6
 10188 0fd5 08       		.byte	0x8
 10189 0fd6 FF       		.byte	0xff
 10190 0fd7 1A       		.byte	0x1a
 10191 0fd8 23       		.byte	0x23
 10192 0fd9 04       		.uleb128 0x4
ARM GAS  C:\Users\haske\AppData\Local\Temp\ccOknJt1.s 			page 202


 10193 0fda 33       		.byte	0x33
 10194 0fdb 25       		.byte	0x25
 10195 0fdc 1E       		.byte	0x1e
 10196 0fdd 35       		.byte	0x35
 10197 0fde 25       		.byte	0x25
 10198 0fdf 78       		.byte	0x78
 10199 0fe0 00       		.sleb128 0
 10200 0fe1 22       		.byte	0x22
 10201 0fe2 76       		.byte	0x76
 10202 0fe3 00       		.sleb128 0
 10203 0fe4 1A       		.byte	0x1a
 10204 0fe5 7D       		.byte	0x7d
 10205 0fe6 08       		.sleb128 8
 10206 0fe7 94       		.byte	0x94
 10207 0fe8 02       		.byte	0x2
 10208 0fe9 0A       		.byte	0xa
 10209 0fea FFFF     		.2byte	0xffff
 10210 0fec 1A       		.byte	0x1a
 10211 0fed 40       		.byte	0x40
 10212 0fee 24       		.byte	0x24
 10213 0fef 7D       		.byte	0x7d
 10214 0ff0 08       		.sleb128 8
 10215 0ff1 94       		.byte	0x94
 10216 0ff2 02       		.byte	0x2
 10217 0ff3 0A       		.byte	0xa
 10218 0ff4 FFFF     		.2byte	0xffff
 10219 0ff6 1A       		.byte	0x1a
 10220 0ff7 21       		.byte	0x21
 10221 0ff8 76       		.byte	0x76
 10222 0ff9 00       		.sleb128 0
 10223 0ffa 1A       		.byte	0x1a
 10224 0ffb 78       		.byte	0x78
 10225 0ffc 00       		.sleb128 0
 10226 0ffd 1C       		.byte	0x1c
 10227 0ffe 91       		.byte	0x91
 10228 0fff 44       		.sleb128 -60
 10229 1000 06       		.byte	0x6
 10230 1001 08       		.byte	0x8
 10231 1002 FF       		.byte	0xff
 10232 1003 1A       		.byte	0x1a
 10233 1004 23       		.byte	0x23
 10234 1005 04       		.uleb128 0x4
 10235 1006 33       		.byte	0x33
 10236 1007 25       		.byte	0x25
 10237 1008 1E       		.byte	0x1e
 10238 1009 35       		.byte	0x35
 10239 100a 25       		.byte	0x25
 10240 100b 78       		.byte	0x78
 10241 100c 00       		.sleb128 0
 10242 100d 22       		.byte	0x22
 10243 100e 76       		.byte	0x76
 10244 100f 00       		.sleb128 0
 10245 1010 1A       		.byte	0x1a
 10246 1011 40       		.byte	0x40
 10247 1012 25       		.byte	0x25
 10248 1013 21       		.byte	0x21
 10249 1014 0A       		.byte	0xa
ARM GAS  C:\Users\haske\AppData\Local\Temp\ccOknJt1.s 			page 203


 10250 1015 FFFF     		.2byte	0xffff
 10251 1017 1A       		.byte	0x1a
 10252 1018 77       		.byte	0x77
 10253 1019 00       		.sleb128 0
 10254 101a 21       		.byte	0x21
 10255 101b 76       		.byte	0x76
 10256 101c 00       		.sleb128 0
 10257 101d 1A       		.byte	0x1a
 10258 101e 9F       		.byte	0x9f
 10259 101f F8020000 		.4byte	.LVL175
 10260 1023 FC020000 		.4byte	.LVL176
 10261 1027 7500     		.2byte	0x75
 10262 1029 7D       		.byte	0x7d
 10263 102a 08       		.sleb128 8
 10264 102b 94       		.byte	0x94
 10265 102c 02       		.byte	0x2
 10266 102d 0A       		.byte	0xa
 10267 102e FFFF     		.2byte	0xffff
 10268 1030 1A       		.byte	0x1a
 10269 1031 40       		.byte	0x40
 10270 1032 24       		.byte	0x24
 10271 1033 7D       		.byte	0x7d
 10272 1034 08       		.sleb128 8
 10273 1035 94       		.byte	0x94
 10274 1036 02       		.byte	0x2
 10275 1037 0A       		.byte	0xa
 10276 1038 FFFF     		.2byte	0xffff
 10277 103a 1A       		.byte	0x1a
 10278 103b 21       		.byte	0x21
 10279 103c 0C       		.byte	0xc
 10280 103d 1FF8E007 		.4byte	0x7e0f81f
 10281 1041 1A       		.byte	0x1a
 10282 1042 78       		.byte	0x78
 10283 1043 00       		.sleb128 0
 10284 1044 1C       		.byte	0x1c
 10285 1045 91       		.byte	0x91
 10286 1046 44       		.sleb128 -60
 10287 1047 06       		.byte	0x6
 10288 1048 08       		.byte	0x8
 10289 1049 FF       		.byte	0xff
 10290 104a 1A       		.byte	0x1a
 10291 104b 23       		.byte	0x23
 10292 104c 04       		.uleb128 0x4
 10293 104d 33       		.byte	0x33
 10294 104e 25       		.byte	0x25
 10295 104f 1E       		.byte	0x1e
 10296 1050 35       		.byte	0x35
 10297 1051 25       		.byte	0x25
 10298 1052 78       		.byte	0x78
 10299 1053 00       		.sleb128 0
 10300 1054 22       		.byte	0x22
 10301 1055 0C       		.byte	0xc
 10302 1056 1FF8E007 		.4byte	0x7e0f81f
 10303 105a 1A       		.byte	0x1a
 10304 105b 7D       		.byte	0x7d
 10305 105c 08       		.sleb128 8
 10306 105d 94       		.byte	0x94
ARM GAS  C:\Users\haske\AppData\Local\Temp\ccOknJt1.s 			page 204


 10307 105e 02       		.byte	0x2
 10308 105f 0A       		.byte	0xa
 10309 1060 FFFF     		.2byte	0xffff
 10310 1062 1A       		.byte	0x1a
 10311 1063 40       		.byte	0x40
 10312 1064 24       		.byte	0x24
 10313 1065 7D       		.byte	0x7d
 10314 1066 08       		.sleb128 8
 10315 1067 94       		.byte	0x94
 10316 1068 02       		.byte	0x2
 10317 1069 0A       		.byte	0xa
 10318 106a FFFF     		.2byte	0xffff
 10319 106c 1A       		.byte	0x1a
 10320 106d 21       		.byte	0x21
 10321 106e 0C       		.byte	0xc
 10322 106f 1FF8E007 		.4byte	0x7e0f81f
 10323 1073 1A       		.byte	0x1a
 10324 1074 78       		.byte	0x78
 10325 1075 00       		.sleb128 0
 10326 1076 1C       		.byte	0x1c
 10327 1077 91       		.byte	0x91
 10328 1078 44       		.sleb128 -60
 10329 1079 06       		.byte	0x6
 10330 107a 08       		.byte	0x8
 10331 107b FF       		.byte	0xff
 10332 107c 1A       		.byte	0x1a
 10333 107d 23       		.byte	0x23
 10334 107e 04       		.uleb128 0x4
 10335 107f 33       		.byte	0x33
 10336 1080 25       		.byte	0x25
 10337 1081 1E       		.byte	0x1e
 10338 1082 35       		.byte	0x35
 10339 1083 25       		.byte	0x25
 10340 1084 78       		.byte	0x78
 10341 1085 00       		.sleb128 0
 10342 1086 22       		.byte	0x22
 10343 1087 0C       		.byte	0xc
 10344 1088 1FF8E007 		.4byte	0x7e0f81f
 10345 108c 1A       		.byte	0x1a
 10346 108d 40       		.byte	0x40
 10347 108e 25       		.byte	0x25
 10348 108f 21       		.byte	0x21
 10349 1090 0A       		.byte	0xa
 10350 1091 FFFF     		.2byte	0xffff
 10351 1093 1A       		.byte	0x1a
 10352 1094 77       		.byte	0x77
 10353 1095 00       		.sleb128 0
 10354 1096 21       		.byte	0x21
 10355 1097 0C       		.byte	0xc
 10356 1098 1FF8E007 		.4byte	0x7e0f81f
 10357 109c 1A       		.byte	0x1a
 10358 109d 9F       		.byte	0x9f
 10359 109e 00000000 		.4byte	0
 10360 10a2 00000000 		.4byte	0
 10361              	.LLST66:
 10362 10a6 F8020000 		.4byte	.LVL175
 10363 10aa FC020000 		.4byte	.LVL176
ARM GAS  C:\Users\haske\AppData\Local\Temp\ccOknJt1.s 			page 205


 10364 10ae 0100     		.2byte	0x1
 10365 10b0 56       		.byte	0x56
 10366 10b1 00000000 		.4byte	0
 10367 10b5 00000000 		.4byte	0
 10368              	.LLST67:
 10369 10b9 36030000 		.4byte	.LVL178
 10370 10bd 38030000 		.4byte	.LVL179
 10371 10c1 0100     		.2byte	0x1
 10372 10c3 57       		.byte	0x57
 10373 10c4 58030000 		.4byte	.LVL180
 10374 10c8 5A030000 		.4byte	.LVL181
 10375 10cc 0100     		.2byte	0x1
 10376 10ce 57       		.byte	0x57
 10377 10cf 60030000 		.4byte	.LVL182
 10378 10d3 80030000 		.4byte	.LVL185
 10379 10d7 0100     		.2byte	0x1
 10380 10d9 57       		.byte	0x57
 10381 10da 8A030000 		.4byte	.LVL186
 10382 10de AA030000 		.4byte	.LVL188
 10383 10e2 0100     		.2byte	0x1
 10384 10e4 57       		.byte	0x57
 10385 10e5 B4030000 		.4byte	.LVL189
 10386 10e9 C0030000 		.4byte	.LVL191
 10387 10ed 0100     		.2byte	0x1
 10388 10ef 57       		.byte	0x57
 10389 10f0 00000000 		.4byte	0
 10390 10f4 00000000 		.4byte	0
 10391              	.LLST68:
 10392 10f8 00000000 		.4byte	.LVL196
 10393 10fc 2F000000 		.4byte	.LVL200-1
 10394 1100 0100     		.2byte	0x1
 10395 1102 50       		.byte	0x50
 10396 1103 2F000000 		.4byte	.LVL200-1
 10397 1107 D6000000 		.4byte	.LFE160
 10398 110b 0200     		.2byte	0x2
 10399 110d 91       		.byte	0x91
 10400 110e 50       		.sleb128 -48
 10401 110f 00000000 		.4byte	0
 10402 1113 00000000 		.4byte	0
 10403              	.LLST69:
 10404 1117 00000000 		.4byte	.LVL196
 10405 111b 2F000000 		.4byte	.LVL200-1
 10406 111f 0100     		.2byte	0x1
 10407 1121 51       		.byte	0x51
 10408 1122 2F000000 		.4byte	.LVL200-1
 10409 1126 D6000000 		.4byte	.LFE160
 10410 112a 0400     		.2byte	0x4
 10411 112c F3       		.byte	0xf3
 10412 112d 01       		.uleb128 0x1
 10413 112e 51       		.byte	0x51
 10414 112f 9F       		.byte	0x9f
 10415 1130 00000000 		.4byte	0
 10416 1134 00000000 		.4byte	0
 10417              	.LLST70:
 10418 1138 00000000 		.4byte	.LVL196
 10419 113c 2F000000 		.4byte	.LVL200-1
 10420 1140 0100     		.2byte	0x1
ARM GAS  C:\Users\haske\AppData\Local\Temp\ccOknJt1.s 			page 206


 10421 1142 52       		.byte	0x52
 10422 1143 2F000000 		.4byte	.LVL200-1
 10423 1147 D6000000 		.4byte	.LFE160
 10424 114b 0400     		.2byte	0x4
 10425 114d F3       		.byte	0xf3
 10426 114e 01       		.uleb128 0x1
 10427 114f 52       		.byte	0x52
 10428 1150 9F       		.byte	0x9f
 10429 1151 00000000 		.4byte	0
 10430 1155 00000000 		.4byte	0
 10431              	.LLST71:
 10432 1159 00000000 		.4byte	.LVL196
 10433 115d 18000000 		.4byte	.LVL197
 10434 1161 0100     		.2byte	0x1
 10435 1163 53       		.byte	0x53
 10436 1164 18000000 		.4byte	.LVL197
 10437 1168 D6000000 		.4byte	.LFE160
 10438 116c 0400     		.2byte	0x4
 10439 116e F3       		.byte	0xf3
 10440 116f 01       		.uleb128 0x1
 10441 1170 53       		.byte	0x53
 10442 1171 9F       		.byte	0x9f
 10443 1172 00000000 		.4byte	0
 10444 1176 00000000 		.4byte	0
 10445              	.LLST72:
 10446 117a 00000000 		.4byte	.LVL196
 10447 117e 52000000 		.4byte	.LVL205
 10448 1182 0200     		.2byte	0x2
 10449 1184 91       		.byte	0x91
 10450 1185 00       		.sleb128 0
 10451 1186 5A000000 		.4byte	.LVL206
 10452 118a 64000000 		.4byte	.LVL208
 10453 118e 0100     		.2byte	0x1
 10454 1190 53       		.byte	0x53
 10455 1191 64000000 		.4byte	.LVL208
 10456 1195 C2000000 		.4byte	.LVL221
 10457 1199 0B00     		.2byte	0xb
 10458 119b 75       		.byte	0x75
 10459 119c 00       		.sleb128 0
 10460 119d 71       		.byte	0x71
 10461 119e 00       		.sleb128 0
 10462 119f 1E       		.byte	0x1e
 10463 11a0 38       		.byte	0x38
 10464 11a1 26       		.byte	0x26
 10465 11a2 7B       		.byte	0x7b
 10466 11a3 00       		.sleb128 0
 10467 11a4 22       		.byte	0x22
 10468 11a5 9F       		.byte	0x9f
 10469 11a6 C2000000 		.4byte	.LVL221
 10470 11aa C4000000 		.4byte	.LVL222
 10471 11ae 0B00     		.2byte	0xb
 10472 11b0 71       		.byte	0x71
 10473 11b1 7F       		.sleb128 -1
 10474 11b2 75       		.byte	0x75
 10475 11b3 00       		.sleb128 0
 10476 11b4 1E       		.byte	0x1e
 10477 11b5 38       		.byte	0x38
ARM GAS  C:\Users\haske\AppData\Local\Temp\ccOknJt1.s 			page 207


 10478 11b6 26       		.byte	0x26
 10479 11b7 7B       		.byte	0x7b
 10480 11b8 00       		.sleb128 0
 10481 11b9 22       		.byte	0x22
 10482 11ba 9F       		.byte	0x9f
 10483 11bb 00000000 		.4byte	0
 10484 11bf 00000000 		.4byte	0
 10485              	.LLST73:
 10486 11c3 00000000 		.4byte	.LVL196
 10487 11c7 52000000 		.4byte	.LVL205
 10488 11cb 0200     		.2byte	0x2
 10489 11cd 91       		.byte	0x91
 10490 11ce 04       		.sleb128 4
 10491 11cf 62000000 		.4byte	.LVL207
 10492 11d3 66000000 		.4byte	.LVL209
 10493 11d7 0100     		.2byte	0x1
 10494 11d9 57       		.byte	0x57
 10495 11da 66000000 		.4byte	.LVL209
 10496 11de C2000000 		.4byte	.LVL221
 10497 11e2 0B00     		.2byte	0xb
 10498 11e4 76       		.byte	0x76
 10499 11e5 00       		.sleb128 0
 10500 11e6 71       		.byte	0x71
 10501 11e7 00       		.sleb128 0
 10502 11e8 1E       		.byte	0x1e
 10503 11e9 38       		.byte	0x38
 10504 11ea 26       		.byte	0x26
 10505 11eb 70       		.byte	0x70
 10506 11ec 00       		.sleb128 0
 10507 11ed 22       		.byte	0x22
 10508 11ee 9F       		.byte	0x9f
 10509 11ef C2000000 		.4byte	.LVL221
 10510 11f3 C4000000 		.4byte	.LVL222
 10511 11f7 0B00     		.2byte	0xb
 10512 11f9 71       		.byte	0x71
 10513 11fa 7F       		.sleb128 -1
 10514 11fb 76       		.byte	0x76
 10515 11fc 00       		.sleb128 0
 10516 11fd 1E       		.byte	0x1e
 10517 11fe 38       		.byte	0x38
 10518 11ff 26       		.byte	0x26
 10519 1200 70       		.byte	0x70
 10520 1201 00       		.sleb128 0
 10521 1202 22       		.byte	0x22
 10522 1203 9F       		.byte	0x9f
 10523 1204 00000000 		.4byte	0
 10524 1208 00000000 		.4byte	0
 10525              	.LLST74:
 10526 120c 00000000 		.4byte	.LVL196
 10527 1210 2A000000 		.4byte	.LVL198
 10528 1214 0200     		.2byte	0x2
 10529 1216 91       		.byte	0x91
 10530 1217 1C       		.sleb128 28
 10531 1218 2A000000 		.4byte	.LVL198
 10532 121c 2F000000 		.4byte	.LVL200-1
 10533 1220 0200     		.2byte	0x2
 10534 1222 73       		.byte	0x73
ARM GAS  C:\Users\haske\AppData\Local\Temp\ccOknJt1.s 			page 208


 10535 1223 00       		.sleb128 0
 10536 1224 2F000000 		.4byte	.LVL200-1
 10537 1228 D6000000 		.4byte	.LFE160
 10538 122c 0200     		.2byte	0x2
 10539 122e 91       		.byte	0x91
 10540 122f 1C       		.sleb128 28
 10541 1230 00000000 		.4byte	0
 10542 1234 00000000 		.4byte	0
 10543              	.LLST75:
 10544 1238 2C000000 		.4byte	.LVL199
 10545 123c 52000000 		.4byte	.LVL205
 10546 1240 0100     		.2byte	0x1
 10547 1242 5A       		.byte	0x5a
 10548 1243 52000000 		.4byte	.LVL205
 10549 1247 CA000000 		.4byte	.LVL223
 10550 124b 0100     		.2byte	0x1
 10551 124d 5B       		.byte	0x5b
 10552 124e CA000000 		.4byte	.LVL223
 10553 1252 D6000000 		.4byte	.LFE160
 10554 1256 0200     		.2byte	0x2
 10555 1258 91       		.byte	0x91
 10556 1259 00       		.sleb128 0
 10557 125a 00000000 		.4byte	0
 10558 125e 00000000 		.4byte	0
 10559              	.LLST76:
 10560 1262 2C000000 		.4byte	.LVL199
 10561 1266 4A000000 		.4byte	.LVL204
 10562 126a 0100     		.2byte	0x1
 10563 126c 59       		.byte	0x59
 10564 126d 4A000000 		.4byte	.LVL204
 10565 1271 D6000000 		.4byte	.LFE160
 10566 1275 0100     		.2byte	0x1
 10567 1277 50       		.byte	0x50
 10568 1278 00000000 		.4byte	0
 10569 127c 00000000 		.4byte	0
 10570              	.LLST77:
 10571 1280 30000000 		.4byte	.LVL200
 10572 1284 3C000000 		.4byte	.LVL202
 10573 1288 0100     		.2byte	0x1
 10574 128a 50       		.byte	0x50
 10575 128b 00000000 		.4byte	0
 10576 128f 00000000 		.4byte	0
 10577              	.LLST78:
 10578 1293 36000000 		.4byte	.LVL201
 10579 1297 3F000000 		.4byte	.LVL203-1
 10580 129b 0100     		.2byte	0x1
 10581 129d 53       		.byte	0x53
 10582 129e 00000000 		.4byte	0
 10583 12a2 00000000 		.4byte	0
 10584              	.LLST79:
 10585 12a6 40000000 		.4byte	.LVL203
 10586 12aa 52000000 		.4byte	.LVL205
 10587 12ae 0200     		.2byte	0x2
 10588 12b0 30       		.byte	0x30
 10589 12b1 9F       		.byte	0x9f
 10590 12b2 52000000 		.4byte	.LVL205
 10591 12b6 C2000000 		.4byte	.LVL221
ARM GAS  C:\Users\haske\AppData\Local\Temp\ccOknJt1.s 			page 209


 10592 12ba 0100     		.2byte	0x1
 10593 12bc 51       		.byte	0x51
 10594 12bd C4000000 		.4byte	.LVL222
 10595 12c1 D6000000 		.4byte	.LFE160
 10596 12c5 0100     		.2byte	0x1
 10597 12c7 51       		.byte	0x51
 10598 12c8 00000000 		.4byte	0
 10599 12cc 00000000 		.4byte	0
 10600              	.LLST80:
 10601 12d0 64000000 		.4byte	.LVL208
 10602 12d4 7C000000 		.4byte	.LVL212
 10603 12d8 0100     		.2byte	0x1
 10604 12da 53       		.byte	0x53
 10605 12db 7C000000 		.4byte	.LVL212
 10606 12df 84000000 		.4byte	.LVL213
 10607 12e3 0D00     		.2byte	0xd
 10608 12e5 75       		.byte	0x75
 10609 12e6 00       		.sleb128 0
 10610 12e7 71       		.byte	0x71
 10611 12e8 00       		.sleb128 0
 10612 12e9 1E       		.byte	0x1e
 10613 12ea 38       		.byte	0x38
 10614 12eb 26       		.byte	0x26
 10615 12ec 7B       		.byte	0x7b
 10616 12ed 00       		.sleb128 0
 10617 12ee 22       		.byte	0x22
 10618 12ef 38       		.byte	0x38
 10619 12f0 26       		.byte	0x26
 10620 12f1 9F       		.byte	0x9f
 10621 12f2 84000000 		.4byte	.LVL213
 10622 12f6 8E000000 		.4byte	.LVL215
 10623 12fa 0100     		.2byte	0x1
 10624 12fc 53       		.byte	0x53
 10625 12fd 8E000000 		.4byte	.LVL215
 10626 1301 C2000000 		.4byte	.LVL221
 10627 1305 0D00     		.2byte	0xd
 10628 1307 75       		.byte	0x75
 10629 1308 00       		.sleb128 0
 10630 1309 71       		.byte	0x71
 10631 130a 00       		.sleb128 0
 10632 130b 1E       		.byte	0x1e
 10633 130c 38       		.byte	0x38
 10634 130d 26       		.byte	0x26
 10635 130e 7B       		.byte	0x7b
 10636 130f 00       		.sleb128 0
 10637 1310 22       		.byte	0x22
 10638 1311 38       		.byte	0x38
 10639 1312 26       		.byte	0x26
 10640 1313 9F       		.byte	0x9f
 10641 1314 C2000000 		.4byte	.LVL221
 10642 1318 C4000000 		.4byte	.LVL222
 10643 131c 0D00     		.2byte	0xd
 10644 131e 71       		.byte	0x71
 10645 131f 7F       		.sleb128 -1
 10646 1320 75       		.byte	0x75
 10647 1321 00       		.sleb128 0
 10648 1322 1E       		.byte	0x1e
ARM GAS  C:\Users\haske\AppData\Local\Temp\ccOknJt1.s 			page 210


 10649 1323 38       		.byte	0x38
 10650 1324 26       		.byte	0x26
 10651 1325 7B       		.byte	0x7b
 10652 1326 00       		.sleb128 0
 10653 1327 22       		.byte	0x22
 10654 1328 38       		.byte	0x38
 10655 1329 26       		.byte	0x26
 10656 132a 9F       		.byte	0x9f
 10657 132b 00000000 		.4byte	0
 10658 132f 00000000 		.4byte	0
 10659              	.LLST81:
 10660 1333 68000000 		.4byte	.LVL210
 10661 1337 76000000 		.4byte	.LVL211
 10662 133b 0100     		.2byte	0x1
 10663 133d 57       		.byte	0x57
 10664 133e 76000000 		.4byte	.LVL211
 10665 1342 8C000000 		.4byte	.LVL214
 10666 1346 0100     		.2byte	0x1
 10667 1348 5A       		.byte	0x5a
 10668 1349 8C000000 		.4byte	.LVL214
 10669 134d C2000000 		.4byte	.LVL221
 10670 1351 0D00     		.2byte	0xd
 10671 1353 76       		.byte	0x76
 10672 1354 00       		.sleb128 0
 10673 1355 71       		.byte	0x71
 10674 1356 00       		.sleb128 0
 10675 1357 1E       		.byte	0x1e
 10676 1358 38       		.byte	0x38
 10677 1359 26       		.byte	0x26
 10678 135a 70       		.byte	0x70
 10679 135b 00       		.sleb128 0
 10680 135c 22       		.byte	0x22
 10681 135d 38       		.byte	0x38
 10682 135e 26       		.byte	0x26
 10683 135f 9F       		.byte	0x9f
 10684 1360 C2000000 		.4byte	.LVL221
 10685 1364 C4000000 		.4byte	.LVL222
 10686 1368 0D00     		.2byte	0xd
 10687 136a 71       		.byte	0x71
 10688 136b 7F       		.sleb128 -1
 10689 136c 76       		.byte	0x76
 10690 136d 00       		.sleb128 0
 10691 136e 1E       		.byte	0x1e
 10692 136f 38       		.byte	0x38
 10693 1370 26       		.byte	0x26
 10694 1371 70       		.byte	0x70
 10695 1372 00       		.sleb128 0
 10696 1373 22       		.byte	0x22
 10697 1374 38       		.byte	0x38
 10698 1375 26       		.byte	0x26
 10699 1376 9F       		.byte	0x9f
 10700 1377 00000000 		.4byte	0
 10701 137b 00000000 		.4byte	0
 10702              	.LLST82:
 10703 137f 84000000 		.4byte	.LVL213
 10704 1383 92000000 		.4byte	.LVL216
 10705 1387 0200     		.2byte	0x2
ARM GAS  C:\Users\haske\AppData\Local\Temp\ccOknJt1.s 			page 211


 10706 1389 91       		.byte	0x91
 10707 138a 50       		.sleb128 -48
 10708 138b 92000000 		.4byte	.LVL216
 10709 138f 94000000 		.4byte	.LVL217
 10710 1393 0700     		.2byte	0x7
 10711 1395 91       		.byte	0x91
 10712 1396 50       		.sleb128 -48
 10713 1397 06       		.byte	0x6
 10714 1398 73       		.byte	0x73
 10715 1399 00       		.sleb128 0
 10716 139a 22       		.byte	0x22
 10717 139b 9F       		.byte	0x9f
 10718 139c 94000000 		.4byte	.LVL217
 10719 13a0 9C000000 		.4byte	.LVL218
 10720 13a4 0700     		.2byte	0x7
 10721 13a6 91       		.byte	0x91
 10722 13a7 50       		.sleb128 -48
 10723 13a8 06       		.byte	0x6
 10724 13a9 7A       		.byte	0x7a
 10725 13aa 00       		.sleb128 0
 10726 13ab 22       		.byte	0x22
 10727 13ac 9F       		.byte	0x9f
 10728 13ad 9C000000 		.4byte	.LVL218
 10729 13b1 A0000000 		.4byte	.LVL219
 10730 13b5 0700     		.2byte	0x7
 10731 13b7 91       		.byte	0x91
 10732 13b8 50       		.sleb128 -48
 10733 13b9 06       		.byte	0x6
 10734 13ba 77       		.byte	0x77
 10735 13bb 00       		.sleb128 0
 10736 13bc 22       		.byte	0x22
 10737 13bd 9F       		.byte	0x9f
 10738 13be A0000000 		.4byte	.LVL219
 10739 13c2 A2000000 		.4byte	.LVL220
 10740 13c6 2400     		.2byte	0x24
 10741 13c8 76       		.byte	0x76
 10742 13c9 00       		.sleb128 0
 10743 13ca 71       		.byte	0x71
 10744 13cb 00       		.sleb128 0
 10745 13cc 1E       		.byte	0x1e
 10746 13cd 38       		.byte	0x38
 10747 13ce 26       		.byte	0x26
 10748 13cf 70       		.byte	0x70
 10749 13d0 00       		.sleb128 0
 10750 13d1 22       		.byte	0x22
 10751 13d2 38       		.byte	0x38
 10752 13d3 26       		.byte	0x26
 10753 13d4 91       		.byte	0x91
 10754 13d5 54       		.sleb128 -44
 10755 13d6 06       		.byte	0x6
 10756 13d7 1E       		.byte	0x1e
 10757 13d8 75       		.byte	0x75
 10758 13d9 00       		.sleb128 0
 10759 13da 71       		.byte	0x71
 10760 13db 00       		.sleb128 0
 10761 13dc 1E       		.byte	0x1e
 10762 13dd 38       		.byte	0x38
ARM GAS  C:\Users\haske\AppData\Local\Temp\ccOknJt1.s 			page 212


 10763 13de 26       		.byte	0x26
 10764 13df 7B       		.byte	0x7b
 10765 13e0 00       		.sleb128 0
 10766 13e1 22       		.byte	0x22
 10767 13e2 38       		.byte	0x38
 10768 13e3 26       		.byte	0x26
 10769 13e4 22       		.byte	0x22
 10770 13e5 31       		.byte	0x31
 10771 13e6 24       		.byte	0x24
 10772 13e7 91       		.byte	0x91
 10773 13e8 50       		.sleb128 -48
 10774 13e9 06       		.byte	0x6
 10775 13ea 22       		.byte	0x22
 10776 13eb 9F       		.byte	0x9f
 10777 13ec 00000000 		.4byte	0
 10778 13f0 00000000 		.4byte	0
 10779              	.LLST83:
 10780 13f4 00000000 		.4byte	.LVL224
 10781 13f8 44000000 		.4byte	.LVL232
 10782 13fc 0100     		.2byte	0x1
 10783 13fe 50       		.byte	0x50
 10784 13ff 44000000 		.4byte	.LVL232
 10785 1403 3C020000 		.4byte	.LFE159
 10786 1407 0400     		.2byte	0x4
 10787 1409 F3       		.byte	0xf3
 10788 140a 01       		.uleb128 0x1
 10789 140b 50       		.byte	0x50
 10790 140c 9F       		.byte	0x9f
 10791 140d 00000000 		.4byte	0
 10792 1411 00000000 		.4byte	0
 10793              	.LLST84:
 10794 1415 00000000 		.4byte	.LVL224
 10795 1419 42000000 		.4byte	.LVL231
 10796 141d 0100     		.2byte	0x1
 10797 141f 51       		.byte	0x51
 10798 1420 42000000 		.4byte	.LVL231
 10799 1424 02010000 		.4byte	.LVL260
 10800 1428 0100     		.2byte	0x1
 10801 142a 57       		.byte	0x57
 10802 142b 02010000 		.4byte	.LVL260
 10803 142f 30020000 		.4byte	.LVL298
 10804 1433 0100     		.2byte	0x1
 10805 1435 56       		.byte	0x56
 10806 1436 30020000 		.4byte	.LVL298
 10807 143a 3C020000 		.4byte	.LFE159
 10808 143e 0400     		.2byte	0x4
 10809 1440 F3       		.byte	0xf3
 10810 1441 01       		.uleb128 0x1
 10811 1442 51       		.byte	0x51
 10812 1443 9F       		.byte	0x9f
 10813 1444 00000000 		.4byte	0
 10814 1448 00000000 		.4byte	0
 10815              	.LLST85:
 10816 144c 00000000 		.4byte	.LVL224
 10817 1450 1A000000 		.4byte	.LVL226
 10818 1454 0100     		.2byte	0x1
 10819 1456 52       		.byte	0x52
ARM GAS  C:\Users\haske\AppData\Local\Temp\ccOknJt1.s 			page 213


 10820 1457 1A000000 		.4byte	.LVL226
 10821 145b 3C020000 		.4byte	.LFE159
 10822 145f 0300     		.2byte	0x3
 10823 1461 91       		.byte	0x91
 10824 1462 887F     		.sleb128 -120
 10825 1464 00000000 		.4byte	0
 10826 1468 00000000 		.4byte	0
 10827              	.LLST86:
 10828 146c 00000000 		.4byte	.LVL224
 10829 1470 16000000 		.4byte	.LVL225
 10830 1474 0100     		.2byte	0x1
 10831 1476 53       		.byte	0x53
 10832 1477 16000000 		.4byte	.LVL225
 10833 147b 3C020000 		.4byte	.LFE159
 10834 147f 0400     		.2byte	0x4
 10835 1481 F3       		.byte	0xf3
 10836 1482 01       		.uleb128 0x1
 10837 1483 53       		.byte	0x53
 10838 1484 9F       		.byte	0x9f
 10839 1485 00000000 		.4byte	0
 10840 1489 00000000 		.4byte	0
 10841              	.LLST87:
 10842 148d 00000000 		.4byte	.LVL224
 10843 1491 16000000 		.4byte	.LVL225
 10844 1495 0200     		.2byte	0x2
 10845 1497 91       		.byte	0x91
 10846 1498 00       		.sleb128 0
 10847 1499 16000000 		.4byte	.LVL225
 10848 149d 1A000000 		.4byte	.LVL226
 10849 14a1 0200     		.2byte	0x2
 10850 14a3 73       		.byte	0x73
 10851 14a4 00       		.sleb128 0
 10852 14a5 1A000000 		.4byte	.LVL226
 10853 14a9 3C020000 		.4byte	.LFE159
 10854 14ad 0200     		.2byte	0x2
 10855 14af 91       		.byte	0x91
 10856 14b0 00       		.sleb128 0
 10857 14b1 00000000 		.4byte	0
 10858 14b5 00000000 		.4byte	0
 10859              	.LLST88:
 10860 14b9 00000000 		.4byte	.LVL224
 10861 14bd 16000000 		.4byte	.LVL225
 10862 14c1 0200     		.2byte	0x2
 10863 14c3 91       		.byte	0x91
 10864 14c4 04       		.sleb128 4
 10865 14c5 16000000 		.4byte	.LVL225
 10866 14c9 1A000000 		.4byte	.LVL226
 10867 14cd 0200     		.2byte	0x2
 10868 14cf 73       		.byte	0x73
 10869 14d0 04       		.sleb128 4
 10870 14d1 1A000000 		.4byte	.LVL226
 10871 14d5 1E000000 		.4byte	.LVL227
 10872 14d9 0200     		.2byte	0x2
 10873 14db 91       		.byte	0x91
 10874 14dc 04       		.sleb128 4
 10875 14dd 1E000000 		.4byte	.LVL227
 10876 14e1 22000000 		.4byte	.LVL228
ARM GAS  C:\Users\haske\AppData\Local\Temp\ccOknJt1.s 			page 214


 10877 14e5 0200     		.2byte	0x2
 10878 14e7 73       		.byte	0x73
 10879 14e8 00       		.sleb128 0
 10880 14e9 22000000 		.4byte	.LVL228
 10881 14ed 3C020000 		.4byte	.LFE159
 10882 14f1 0200     		.2byte	0x2
 10883 14f3 91       		.byte	0x91
 10884 14f4 04       		.sleb128 4
 10885 14f5 00000000 		.4byte	0
 10886 14f9 00000000 		.4byte	0
 10887              	.LLST89:
 10888 14fd 00000000 		.4byte	.LVL224
 10889 1501 16000000 		.4byte	.LVL225
 10890 1505 0200     		.2byte	0x2
 10891 1507 91       		.byte	0x91
 10892 1508 08       		.sleb128 8
 10893 1509 16000000 		.4byte	.LVL225
 10894 150d 1A000000 		.4byte	.LVL226
 10895 1511 0200     		.2byte	0x2
 10896 1513 73       		.byte	0x73
 10897 1514 08       		.sleb128 8
 10898 1515 1A000000 		.4byte	.LVL226
 10899 1519 3C020000 		.4byte	.LFE159
 10900 151d 0200     		.2byte	0x2
 10901 151f 91       		.byte	0x91
 10902 1520 08       		.sleb128 8
 10903 1521 00000000 		.4byte	0
 10904 1525 00000000 		.4byte	0
 10905              	.LLST90:
 10906 1529 00000000 		.4byte	.LVL224
 10907 152d 16000000 		.4byte	.LVL225
 10908 1531 0200     		.2byte	0x2
 10909 1533 91       		.byte	0x91
 10910 1534 0C       		.sleb128 12
 10911 1535 16000000 		.4byte	.LVL225
 10912 1539 1A000000 		.4byte	.LVL226
 10913 153d 0200     		.2byte	0x2
 10914 153f 73       		.byte	0x73
 10915 1540 0C       		.sleb128 12
 10916 1541 1A000000 		.4byte	.LVL226
 10917 1545 26000000 		.4byte	.LVL229
 10918 1549 0200     		.2byte	0x2
 10919 154b 91       		.byte	0x91
 10920 154c 0C       		.sleb128 12
 10921 154d 26000000 		.4byte	.LVL229
 10922 1551 2A000000 		.4byte	.LVL230
 10923 1555 0200     		.2byte	0x2
 10924 1557 73       		.byte	0x73
 10925 1558 00       		.sleb128 0
 10926 1559 2A000000 		.4byte	.LVL230
 10927 155d 3C020000 		.4byte	.LFE159
 10928 1561 0200     		.2byte	0x2
 10929 1563 91       		.byte	0x91
 10930 1564 0C       		.sleb128 12
 10931 1565 00000000 		.4byte	0
 10932 1569 00000000 		.4byte	0
 10933              	.LLST91:
ARM GAS  C:\Users\haske\AppData\Local\Temp\ccOknJt1.s 			page 215


 10934 156d 00000000 		.4byte	.LVL224
 10935 1571 16000000 		.4byte	.LVL225
 10936 1575 0200     		.2byte	0x2
 10937 1577 91       		.byte	0x91
 10938 1578 10       		.sleb128 16
 10939 1579 16000000 		.4byte	.LVL225
 10940 157d 1A000000 		.4byte	.LVL226
 10941 1581 0200     		.2byte	0x2
 10942 1583 73       		.byte	0x73
 10943 1584 10       		.sleb128 16
 10944 1585 1A000000 		.4byte	.LVL226
 10945 1589 04010000 		.4byte	.LVL261
 10946 158d 0200     		.2byte	0x2
 10947 158f 91       		.byte	0x91
 10948 1590 10       		.sleb128 16
 10949 1591 04010000 		.4byte	.LVL261
 10950 1595 30020000 		.4byte	.LVL299
 10951 1599 0100     		.2byte	0x1
 10952 159b 59       		.byte	0x59
 10953 159c 00000000 		.4byte	0
 10954 15a0 00000000 		.4byte	0
 10955              	.LLST92:
 10956 15a4 00000000 		.4byte	.LVL224
 10957 15a8 16000000 		.4byte	.LVL225
 10958 15ac 0200     		.2byte	0x2
 10959 15ae 91       		.byte	0x91
 10960 15af 14       		.sleb128 20
 10961 15b0 16000000 		.4byte	.LVL225
 10962 15b4 1A000000 		.4byte	.LVL226
 10963 15b8 0200     		.2byte	0x2
 10964 15ba 73       		.byte	0x73
 10965 15bb 14       		.sleb128 20
 10966 15bc 1A000000 		.4byte	.LVL226
 10967 15c0 04010000 		.4byte	.LVL261
 10968 15c4 0200     		.2byte	0x2
 10969 15c6 91       		.byte	0x91
 10970 15c7 14       		.sleb128 20
 10971 15c8 04010000 		.4byte	.LVL261
 10972 15cc 30020000 		.4byte	.LVL300
 10973 15d0 0100     		.2byte	0x1
 10974 15d2 5B       		.byte	0x5b
 10975 15d3 00000000 		.4byte	0
 10976 15d7 00000000 		.4byte	0
 10977              	.LLST93:
 10978 15db 5E000000 		.4byte	.LVL235
 10979 15df 64000000 		.4byte	.LVL237
 10980 15e3 0100     		.2byte	0x1
 10981 15e5 50       		.byte	0x50
 10982 15e6 64000000 		.4byte	.LVL237
 10983 15ea 80000000 		.4byte	.LVL244
 10984 15ee 0100     		.2byte	0x1
 10985 15f0 55       		.byte	0x55
 10986 15f1 80000000 		.4byte	.LVL244
 10987 15f5 96000000 		.4byte	.LVL251
 10988 15f9 0400     		.2byte	0x4
 10989 15fb 75       		.byte	0x75
 10990 15fc A67F     		.sleb128 -90
ARM GAS  C:\Users\haske\AppData\Local\Temp\ccOknJt1.s 			page 216


 10991 15fe 9F       		.byte	0x9f
 10992 15ff 00000000 		.4byte	0
 10993 1603 00000000 		.4byte	0
 10994              	.LLST94:
 10995 1607 62000000 		.4byte	.LVL236
 10996 160b 6F000000 		.4byte	.LVL239-1
 10997 160f 0100     		.2byte	0x1
 10998 1611 53       		.byte	0x53
 10999 1612 6F000000 		.4byte	.LVL239-1
 11000 1616 94000000 		.4byte	.LVL250
 11001 161a 0300     		.2byte	0x3
 11002 161c 91       		.byte	0x91
 11003 161d F87E     		.sleb128 -136
 11004 161f 94000000 		.4byte	.LVL250
 11005 1623 96000000 		.4byte	.LVL251
 11006 1627 0400     		.2byte	0x4
 11007 1629 75       		.byte	0x75
 11008 162a A77F     		.sleb128 -89
 11009 162c 9F       		.byte	0x9f
 11010 162d 00000000 		.4byte	0
 11011 1631 00000000 		.4byte	0
 11012              	.LLST95:
 11013 1635 6A000000 		.4byte	.LVL238
 11014 1639 04010000 		.4byte	.LVL261
 11015 163d 0100     		.2byte	0x1
 11016 163f 58       		.byte	0x58
 11017 1640 00000000 		.4byte	0
 11018 1644 00000000 		.4byte	0
 11019              	.LLST96:
 11020 1648 72000000 		.4byte	.LVL240
 11021 164c 78000000 		.4byte	.LVL241
 11022 1650 0100     		.2byte	0x1
 11023 1652 50       		.byte	0x50
 11024 1653 78000000 		.4byte	.LVL241
 11025 1657 AE000000 		.4byte	.LVL254
 11026 165b 0300     		.2byte	0x3
 11027 165d 91       		.byte	0x91
 11028 165e FC7E     		.sleb128 -132
 11029 1660 00000000 		.4byte	0
 11030 1664 00000000 		.4byte	0
 11031              	.LLST97:
 11032 1668 7E000000 		.4byte	.LVL243
 11033 166c 82000000 		.4byte	.LVL245
 11034 1670 0100     		.2byte	0x1
 11035 1672 50       		.byte	0x50
 11036 1673 82000000 		.4byte	.LVL245
 11037 1677 04010000 		.4byte	.LVL261
 11038 167b 0300     		.2byte	0x3
 11039 167d 91       		.byte	0x91
 11040 167e 807F     		.sleb128 -128
 11041 1680 00000000 		.4byte	0
 11042 1684 00000000 		.4byte	0
 11043              	.LLST98:
 11044 1688 88000000 		.4byte	.LVL247
 11045 168c 8E000000 		.4byte	.LVL248
 11046 1690 0100     		.2byte	0x1
 11047 1692 50       		.byte	0x50
ARM GAS  C:\Users\haske\AppData\Local\Temp\ccOknJt1.s 			page 217


 11048 1693 8E000000 		.4byte	.LVL248
 11049 1697 FC000000 		.4byte	.LVL259
 11050 169b 0100     		.2byte	0x1
 11051 169d 59       		.byte	0x59
 11052 169e 00000000 		.4byte	0
 11053 16a2 00000000 		.4byte	0
 11054              	.LLST99:
 11055 16a6 94000000 		.4byte	.LVL250
 11056 16aa A0000000 		.4byte	.LVL252
 11057 16ae 0100     		.2byte	0x1
 11058 16b0 50       		.byte	0x50
 11059 16b1 A0000000 		.4byte	.LVL252
 11060 16b5 04010000 		.4byte	.LVL261
 11061 16b9 0300     		.2byte	0x3
 11062 16bb 91       		.byte	0x91
 11063 16bc F87E     		.sleb128 -136
 11064 16be 00000000 		.4byte	0
 11065 16c2 00000000 		.4byte	0
 11066              	.LLST100:
 11067 16c6 F8000000 		.4byte	.LVL258
 11068 16ca 04010000 		.4byte	.LVL261
 11069 16ce 0200     		.2byte	0x2
 11070 16d0 30       		.byte	0x30
 11071 16d1 9F       		.byte	0x9f
 11072 16d2 04010000 		.4byte	.LVL261
 11073 16d6 24020000 		.4byte	.LVL295
 11074 16da 0100     		.2byte	0x1
 11075 16dc 54       		.byte	0x54
 11076 16dd 26020000 		.4byte	.LVL296
 11077 16e1 30020000 		.4byte	.LVL297
 11078 16e5 0100     		.2byte	0x1
 11079 16e7 54       		.byte	0x54
 11080 16e8 00000000 		.4byte	0
 11081 16ec 00000000 		.4byte	0
 11082              	.LLST101:
 11083 16f0 DA000000 		.4byte	.LVL256
 11084 16f4 E8000000 		.4byte	.LVL257
 11085 16f8 0100     		.2byte	0x1
 11086 16fa 57       		.byte	0x57
 11087 16fb 00000000 		.4byte	0
 11088 16ff 00000000 		.4byte	0
 11089              	.LLST102:
 11090 1703 E8000000 		.4byte	.LVL257
 11091 1707 F8000000 		.4byte	.LVL258
 11092 170b 0100     		.2byte	0x1
 11093 170d 57       		.byte	0x57
 11094 170e 00000000 		.4byte	0
 11095 1712 00000000 		.4byte	0
 11096              	.LLST103:
 11097 1716 36010000 		.4byte	.LVL264
 11098 171a 48010000 		.4byte	.LVL266
 11099 171e 0100     		.2byte	0x1
 11100 1720 50       		.byte	0x50
 11101 1721 48010000 		.4byte	.LVL266
 11102 1725 51010000 		.4byte	.LVL268-1
 11103 1729 0800     		.2byte	0x8
 11104 172b 91       		.byte	0x91
ARM GAS  C:\Users\haske\AppData\Local\Temp\ccOknJt1.s 			page 218


 11105 172c A47F     		.sleb128 -92
 11106 172e 06       		.byte	0x6
 11107 172f 75       		.byte	0x75
 11108 1730 00       		.sleb128 0
 11109 1731 1C       		.byte	0x1c
 11110 1732 9F       		.byte	0x9f
 11111 1733 60010000 		.4byte	.LVL272
 11112 1737 62010000 		.4byte	.LVL273
 11113 173b 0100     		.2byte	0x1
 11114 173d 50       		.byte	0x50
 11115 173e 62010000 		.4byte	.LVL273
 11116 1742 66010000 		.4byte	.LVL275
 11117 1746 0800     		.2byte	0x8
 11118 1748 91       		.byte	0x91
 11119 1749 A47F     		.sleb128 -92
 11120 174b 06       		.byte	0x6
 11121 174c 75       		.byte	0x75
 11122 174d 00       		.sleb128 0
 11123 174e 1C       		.byte	0x1c
 11124 174f 9F       		.byte	0x9f
 11125 1750 00000000 		.4byte	0
 11126 1754 00000000 		.4byte	0
 11127              	.LLST104:
 11128 1758 42010000 		.4byte	.LVL265
 11129 175c 4A010000 		.4byte	.LVL267
 11130 1760 0100     		.2byte	0x1
 11131 1762 53       		.byte	0x53
 11132 1763 4A010000 		.4byte	.LVL267
 11133 1767 60010000 		.4byte	.LVL272
 11134 176b 0300     		.2byte	0x3
 11135 176d 91       		.byte	0x91
 11136 176e FC7E     		.sleb128 -132
 11137 1770 60010000 		.4byte	.LVL272
 11138 1774 64010000 		.4byte	.LVL274
 11139 1778 0100     		.2byte	0x1
 11140 177a 53       		.byte	0x53
 11141 177b 64010000 		.4byte	.LVL274
 11142 177f 26020000 		.4byte	.LVL296
 11143 1783 0300     		.2byte	0x3
 11144 1785 91       		.byte	0x91
 11145 1786 FC7E     		.sleb128 -132
 11146 1788 00000000 		.4byte	0
 11147 178c 00000000 		.4byte	0
 11148              	.LLST105:
 11149 1790 42010000 		.4byte	.LVL265
 11150 1794 54010000 		.4byte	.LVL269
 11151 1798 0200     		.2byte	0x2
 11152 179a 30       		.byte	0x30
 11153 179b 9F       		.byte	0x9f
 11154 179c 54010000 		.4byte	.LVL269
 11155 17a0 58010000 		.4byte	.LVL270
 11156 17a4 0100     		.2byte	0x1
 11157 17a6 50       		.byte	0x50
 11158 17a7 58010000 		.4byte	.LVL270
 11159 17ab 60010000 		.4byte	.LVL272
 11160 17af 0300     		.2byte	0x3
 11161 17b1 91       		.byte	0x91
ARM GAS  C:\Users\haske\AppData\Local\Temp\ccOknJt1.s 			page 219


 11162 17b2 F87E     		.sleb128 -136
 11163 17b4 60010000 		.4byte	.LVL272
 11164 17b8 66010000 		.4byte	.LVL275
 11165 17bc 0200     		.2byte	0x2
 11166 17be 30       		.byte	0x30
 11167 17bf 9F       		.byte	0x9f
 11168 17c0 66010000 		.4byte	.LVL275
 11169 17c4 26020000 		.4byte	.LVL296
 11170 17c8 0300     		.2byte	0x3
 11171 17ca 91       		.byte	0x91
 11172 17cb F87E     		.sleb128 -136
 11173 17cd 00000000 		.4byte	0
 11174 17d1 00000000 		.4byte	0
 11175              	.LLST106:
 11176 17d5 42010000 		.4byte	.LVL265
 11177 17d9 5E010000 		.4byte	.LVL271
 11178 17dd 0200     		.2byte	0x2
 11179 17df 30       		.byte	0x30
 11180 17e0 9F       		.byte	0x9f
 11181 17e1 5E010000 		.4byte	.LVL271
 11182 17e5 60010000 		.4byte	.LVL272
 11183 17e9 0100     		.2byte	0x1
 11184 17eb 50       		.byte	0x50
 11185 17ec 60010000 		.4byte	.LVL272
 11186 17f0 66010000 		.4byte	.LVL275
 11187 17f4 0200     		.2byte	0x2
 11188 17f6 30       		.byte	0x30
 11189 17f7 9F       		.byte	0x9f
 11190 17f8 66010000 		.4byte	.LVL275
 11191 17fc AA010000 		.4byte	.LVL279
 11192 1800 0100     		.2byte	0x1
 11193 1802 50       		.byte	0x50
 11194 1803 AA010000 		.4byte	.LVL279
 11195 1807 AD010000 		.4byte	.LVL280-1
 11196 180b 0300     		.2byte	0x3
 11197 180d 91       		.byte	0x91
 11198 180e E47E     		.sleb128 -156
 11199 1810 B0010000 		.4byte	.LVL281
 11200 1814 D0010000 		.4byte	.LVL283
 11201 1818 0100     		.2byte	0x1
 11202 181a 50       		.byte	0x50
 11203 181b D0010000 		.4byte	.LVL283
 11204 181f D3010000 		.4byte	.LVL284-1
 11205 1823 0300     		.2byte	0x3
 11206 1825 91       		.byte	0x91
 11207 1826 E47E     		.sleb128 -156
 11208 1828 D6010000 		.4byte	.LVL285
 11209 182c F2010000 		.4byte	.LVL287
 11210 1830 0100     		.2byte	0x1
 11211 1832 50       		.byte	0x50
 11212 1833 F2010000 		.4byte	.LVL287
 11213 1837 F5010000 		.4byte	.LVL288-1
 11214 183b 0300     		.2byte	0x3
 11215 183d 91       		.byte	0x91
 11216 183e E47E     		.sleb128 -156
 11217 1840 F8010000 		.4byte	.LVL289
 11218 1844 18020000 		.4byte	.LVL291
ARM GAS  C:\Users\haske\AppData\Local\Temp\ccOknJt1.s 			page 220


 11219 1848 0100     		.2byte	0x1
 11220 184a 50       		.byte	0x50
 11221 184b 18020000 		.4byte	.LVL291
 11222 184f 1B020000 		.4byte	.LVL292-1
 11223 1853 0300     		.2byte	0x3
 11224 1855 91       		.byte	0x91
 11225 1856 E47E     		.sleb128 -156
 11226 1858 00000000 		.4byte	0
 11227 185c 00000000 		.4byte	0
 11228              	.LLST107:
 11229 1860 68010000 		.4byte	.LVL276
 11230 1864 26020000 		.4byte	.LVL296
 11231 1868 0100     		.2byte	0x1
 11232 186a 55       		.byte	0x55
 11233 186b 00000000 		.4byte	0
 11234 186f 00000000 		.4byte	0
 11235              	.LLST108:
 11236 1873 6C010000 		.4byte	.LVL277
 11237 1877 A4010000 		.4byte	.LVL278
 11238 187b 0100     		.2byte	0x1
 11239 187d 53       		.byte	0x53
 11240 187e A4010000 		.4byte	.LVL278
 11241 1882 AD010000 		.4byte	.LVL280-1
 11242 1886 0300     		.2byte	0x3
 11243 1888 91       		.byte	0x91
 11244 1889 DC7E     		.sleb128 -164
 11245 188b AD010000 		.4byte	.LVL280-1
 11246 188f B0010000 		.4byte	.LVL281
 11247 1893 0400     		.2byte	0x4
 11248 1895 78       		.byte	0x78
 11249 1896 8001     		.sleb128 128
 11250 1898 9F       		.byte	0x9f
 11251 1899 B0010000 		.4byte	.LVL281
 11252 189d CA010000 		.4byte	.LVL282
 11253 18a1 0100     		.2byte	0x1
 11254 18a3 53       		.byte	0x53
 11255 18a4 CA010000 		.4byte	.LVL282
 11256 18a8 D3010000 		.4byte	.LVL284-1
 11257 18ac 0300     		.2byte	0x3
 11258 18ae 91       		.byte	0x91
 11259 18af DC7E     		.sleb128 -164
 11260 18b1 D3010000 		.4byte	.LVL284-1
 11261 18b5 D6010000 		.4byte	.LVL285
 11262 18b9 0400     		.2byte	0x4
 11263 18bb 78       		.byte	0x78
 11264 18bc 8001     		.sleb128 128
 11265 18be 9F       		.byte	0x9f
 11266 18bf D6010000 		.4byte	.LVL285
 11267 18c3 EC010000 		.4byte	.LVL286
 11268 18c7 0100     		.2byte	0x1
 11269 18c9 53       		.byte	0x53
 11270 18ca EC010000 		.4byte	.LVL286
 11271 18ce F5010000 		.4byte	.LVL288-1
 11272 18d2 0300     		.2byte	0x3
 11273 18d4 91       		.byte	0x91
 11274 18d5 DC7E     		.sleb128 -164
 11275 18d7 F5010000 		.4byte	.LVL288-1
ARM GAS  C:\Users\haske\AppData\Local\Temp\ccOknJt1.s 			page 221


 11276 18db F8010000 		.4byte	.LVL289
 11277 18df 0400     		.2byte	0x4
 11278 18e1 78       		.byte	0x78
 11279 18e2 8001     		.sleb128 128
 11280 18e4 9F       		.byte	0x9f
 11281 18e5 F8010000 		.4byte	.LVL289
 11282 18e9 12020000 		.4byte	.LVL290
 11283 18ed 0100     		.2byte	0x1
 11284 18ef 53       		.byte	0x53
 11285 18f0 12020000 		.4byte	.LVL290
 11286 18f4 1B020000 		.4byte	.LVL292-1
 11287 18f8 0300     		.2byte	0x3
 11288 18fa 91       		.byte	0x91
 11289 18fb DC7E     		.sleb128 -164
 11290 18fd 1B020000 		.4byte	.LVL292-1
 11291 1901 26020000 		.4byte	.LVL296
 11292 1905 0400     		.2byte	0x4
 11293 1907 78       		.byte	0x78
 11294 1908 8001     		.sleb128 128
 11295 190a 9F       		.byte	0x9f
 11296 190b 00000000 		.4byte	0
 11297 190f 00000000 		.4byte	0
 11298              		.section	.debug_aranges,"",%progbits
 11299 0000 44000000 		.4byte	0x44
 11300 0004 0200     		.2byte	0x2
 11301 0006 00000000 		.4byte	.Ldebug_info0
 11302 000a 04       		.byte	0x4
 11303 000b 00       		.byte	0
 11304 000c 0000     		.2byte	0
 11305 000e 0000     		.2byte	0
 11306 0010 00000000 		.4byte	.LFB161
 11307 0014 A2000000 		.4byte	.LFE161-.LFB161
 11308 0018 00000000 		.4byte	.LFB162
 11309 001c 9C000000 		.4byte	.LFE162-.LFB162
 11310 0020 00000000 		.4byte	.LFB164
 11311 0024 AC000000 		.4byte	.LFE164-.LFB164
 11312 0028 00000000 		.4byte	.LFB163
 11313 002c DC030000 		.4byte	.LFE163-.LFB163
 11314 0030 00000000 		.4byte	.LFB160
 11315 0034 D6000000 		.4byte	.LFE160-.LFB160
 11316 0038 00000000 		.4byte	.LFB159
 11317 003c 3C020000 		.4byte	.LFE159-.LFB159
 11318 0040 00000000 		.4byte	0
 11319 0044 00000000 		.4byte	0
 11320              		.section	.debug_ranges,"",%progbits
 11321              	.Ldebug_ranges0:
 11322 0000 00000000 		.4byte	.LFB161
 11323 0004 A2000000 		.4byte	.LFE161
 11324 0008 00000000 		.4byte	.LFB162
 11325 000c 9C000000 		.4byte	.LFE162
 11326 0010 00000000 		.4byte	.LFB164
 11327 0014 AC000000 		.4byte	.LFE164
 11328 0018 00000000 		.4byte	.LFB163
 11329 001c DC030000 		.4byte	.LFE163
 11330 0020 00000000 		.4byte	.LFB160
 11331 0024 D6000000 		.4byte	.LFE160
 11332 0028 00000000 		.4byte	.LFB159
ARM GAS  C:\Users\haske\AppData\Local\Temp\ccOknJt1.s 			page 222


 11333 002c 3C020000 		.4byte	.LFE159
 11334 0030 00000000 		.4byte	0
 11335 0034 00000000 		.4byte	0
 11336              		.section	.debug_line,"",%progbits
 11337              	.Ldebug_line0:
 11338 0000 3C070000 		.section	.debug_str,"MS",%progbits,1
 11338      0200E504 
 11338      00000201 
 11338      FB0E0D00 
 11338      01010101 
 11339              	.LASF531:
 11340 0000 79735F75 		.ascii	"ys_ups_start\000"
 11340      70735F73 
 11340      74617274 
 11340      00
 11341              	.LASF182:
 11342 000d 70726F70 		.ascii	"prop_cnt\000"
 11342      5F636E74 
 11342      00
 11343              	.LASF15:
 11344 0016 696E7438 		.ascii	"int8_t\000"
 11344      5F7400
 11345              	.LASF153:
 11346 001d 4C565F53 		.ascii	"LV_STYLE_OPA\000"
 11346      54594C45 
 11346      5F4F5041 
 11346      00
 11347              	.LASF404:
 11348 002a 636F6C6F 		.ascii	"color_chroma_key\000"
 11348      725F6368 
 11348      726F6D61 
 11348      5F6B6579 
 11348      00
 11349              	.LASF367:
 11350 003b 6C765F6C 		.ascii	"lv_ll_node_t\000"
 11350      6C5F6E6F 
 11350      64655F74 
 11350      00
 11351              	.LASF381:
 11352 0048 6C765F64 		.ascii	"lv_disp_draw_buf_t\000"
 11352      6973705F 
 11352      64726177 
 11352      5F627566 
 11352      5F7400
 11353              	.LASF22:
 11354 005b 73697A65 		.ascii	"size_t\000"
 11354      5F7400
 11355              	.LASF50:
 11356 0062 6164765F 		.ascii	"adv_w\000"
 11356      7700
 11357              	.LASF24:
 11358 0068 73697A65 		.ascii	"sizetype\000"
 11358      74797065 
 11358      00
 11359              	.LASF409:
 11360 0071 6C765F64 		.ascii	"lv_disp_t\000"
 11360      6973705F 
ARM GAS  C:\Users\haske\AppData\Local\Temp\ccOknJt1.s 			page 223


 11360      7400
 11361              	.LASF459:
 11362 007b 4C565F45 		.ascii	"LV_EVENT_DRAW_MAIN_BEGIN\000"
 11362      56454E54 
 11362      5F445241 
 11362      575F4D41 
 11362      494E5F42 
 11363              	.LASF545:
 11364 0094 79735F66 		.ascii	"ys_fract\000"
 11364      72616374 
 11364      00
 11365              	.LASF137:
 11366 009d 4C565F53 		.ascii	"LV_STYLE_LINE_DASH_GAP\000"
 11366      54594C45 
 11366      5F4C494E 
 11366      455F4441 
 11366      53485F47 
 11367              	.LASF370:
 11368 00b4 7461696C 		.ascii	"tail\000"
 11368      00
 11369              	.LASF343:
 11370 00b9 6163745F 		.ascii	"act_scr\000"
 11370      73637200 
 11371              	.LASF348:
 11372 00c1 73637265 		.ascii	"screen_cnt\000"
 11372      656E5F63 
 11372      6E7400
 11373              	.LASF569:
 11374 00cc 7873325F 		.ascii	"xs2_ups\000"
 11374      75707300 
 11375              	.LASF321:
 11376 00d4 64726177 		.ascii	"draw_bg\000"
 11376      5F626700 
 11377              	.LASF44:
 11378 00dc 6C765F6F 		.ascii	"lv_opa_t\000"
 11378      70615F74 
 11378      00
 11379              	.LASF144:
 11380 00e5 4C565F53 		.ascii	"LV_STYLE_ARC_OPA\000"
 11380      54594C45 
 11380      5F415243 
 11380      5F4F5041 
 11380      00
 11381              	.LASF290:
 11382 00f6 7261775F 		.ascii	"raw_end\000"
 11382      656E6400 
 11383              	.LASF19:
 11384 00fe 696E7433 		.ascii	"int32_t\000"
 11384      325F7400 
 11385              	.LASF195:
 11386 0106 4C565F49 		.ascii	"LV_IMG_CF_ALPHA_1BIT\000"
 11386      4D475F43 
 11386      465F414C 
 11386      5048415F 
 11386      31424954 
 11387              	.LASF412:
 11388 011b 6C765F73 		.ascii	"lv_scrollbar_mode_t\000"
ARM GAS  C:\Users\haske\AppData\Local\Temp\ccOknJt1.s 			page 224


 11388      63726F6C 
 11388      6C626172 
 11388      5F6D6F64 
 11388      655F7400 
 11389              	.LASF181:
 11390 012f 6861735F 		.ascii	"has_group\000"
 11390      67726F75 
 11390      7000
 11391              	.LASF468:
 11392 0139 4C565F45 		.ascii	"LV_EVENT_INSERT\000"
 11392      56454E54 
 11392      5F494E53 
 11392      45525400 
 11393              	.LASF46:
 11394 0149 6C765F70 		.ascii	"lv_point_t\000"
 11394      6F696E74 
 11394      5F7400
 11395              	.LASF546:
 11396 0154 785F6E65 		.ascii	"x_next\000"
 11396      787400
 11397              	.LASF238:
 11398 015b 72616469 		.ascii	"radius\000"
 11398      757300
 11399              	.LASF241:
 11400 0162 62675F63 		.ascii	"bg_color\000"
 11400      6F6C6F72 
 11400      00
 11401              	.LASF58:
 11402 016b 6C696E65 		.ascii	"line_height\000"
 11402      5F686569 
 11402      67687400 
 11403              	.LASF71:
 11404 0177 6C765F62 		.ascii	"lv_blend_mode_t\000"
 11404      6C656E64 
 11404      5F6D6F64 
 11404      655F7400 
 11405              	.LASF272:
 11406 0187 62696469 		.ascii	"bidi_dir\000"
 11406      5F646972 
 11406      00
 11407              	.LASF408:
 11408 0190 64726177 		.ascii	"draw_ctx_size\000"
 11408      5F637478 
 11408      5F73697A 
 11408      6500
 11409              	.LASF227:
 11410 019e 73706563 		.ascii	"spec_attr\000"
 11410      5F617474 
 11410      7200
 11411              	.LASF498:
 11412 01a8 7363726F 		.ascii	"scroll_snap_x\000"
 11412      6C6C5F73 
 11412      6E61705F 
 11412      7800
 11413              	.LASF202:
 11414 01b6 4C565F49 		.ascii	"LV_IMG_CF_RGB565\000"
 11414      4D475F43 
ARM GAS  C:\Users\haske\AppData\Local\Temp\ccOknJt1.s 			page 225


 11414      465F5247 
 11414      42353635 
 11414      00
 11415              	.LASF298:
 11416 01c7 4C565F44 		.ascii	"LV_DRAW_LAYER_FLAG_HAS_ALPHA\000"
 11416      5241575F 
 11416      4C415945 
 11416      525F464C 
 11416      41475F48 
 11417              	.LASF581:
 11418 01e4 6C765F64 		.ascii	"lv_draw_sw_transform\000"
 11418      7261775F 
 11418      73775F74 
 11418      72616E73 
 11418      666F726D 
 11419              	.LASF473:
 11420 01f9 4C565F45 		.ascii	"LV_EVENT_CHILD_CHANGED\000"
 11420      56454E54 
 11420      5F434849 
 11420      4C445F43 
 11420      48414E47 
 11421              	.LASF231:
 11422 0210 73746174 		.ascii	"state\000"
 11422      6500
 11423              	.LASF88:
 11424 0216 4C565F53 		.ascii	"LV_STYLE_HEIGHT\000"
 11424      54594C45 
 11424      5F484549 
 11424      47485400 
 11425              	.LASF335:
 11426 0226 72657065 		.ascii	"repeat_count\000"
 11426      61745F63 
 11426      6F756E74 
 11426      00
 11427              	.LASF191:
 11428 0233 4C565F49 		.ascii	"LV_IMG_CF_INDEXED_1BIT\000"
 11428      4D475F43 
 11428      465F494E 
 11428      44455845 
 11428      445F3142 
 11429              	.LASF416:
 11430 024a 69735F6C 		.ascii	"is_local\000"
 11430      6F63616C 
 11430      00
 11431              	.LASF313:
 11432 0253 64726177 		.ascii	"draw_rect\000"
 11432      5F726563 
 11432      7400
 11433              	.LASF560:
 11434 025d 64726177 		.ascii	"draw_dsc\000"
 11434      5F647363 
 11434      00
 11435              	.LASF331:
 11436 0266 5F6C765F 		.ascii	"_lv_timer_t\000"
 11436      74696D65 
 11436      725F7400 
 11437              	.LASF108:
ARM GAS  C:\Users\haske\AppData\Local\Temp\ccOknJt1.s 			page 226


 11438 0272 4C565F53 		.ascii	"LV_STYLE_BG_MAIN_STOP\000"
 11438      54594C45 
 11438      5F42475F 
 11438      4D41494E 
 11438      5F53544F 
 11439              	.LASF577:
 11440 0288 6C765F74 		.ascii	"lv_trigo_sin\000"
 11440      7269676F 
 11440      5F73696E 
 11440      00
 11441              	.LASF312:
 11442 0295 696E6974 		.ascii	"init_buf\000"
 11442      5F627566 
 11442      00
 11443              	.LASF421:
 11444 029e 636F6E73 		.ascii	"constructor_cb\000"
 11444      74727563 
 11444      746F725F 
 11444      636200
 11445              	.LASF295:
 11446 02ad 726F756E 		.ascii	"rounded\000"
 11446      64656400 
 11447              	.LASF169:
 11448 02b5 5F4C565F 		.ascii	"_LV_STYLE_LAST_BUILT_IN_PROP\000"
 11448      5354594C 
 11448      455F4C41 
 11448      53545F42 
 11448      55494C54 
 11449              	.LASF570:
 11450 02d2 7973325F 		.ascii	"ys2_ups\000"
 11450      75707300 
 11451              	.LASF311:
 11452 02da 5F6C765F 		.ascii	"_lv_draw_ctx_t\000"
 11452      64726177 
 11452      5F637478 
 11452      5F7400
 11453              	.LASF451:
 11454 02e9 4C565F45 		.ascii	"LV_EVENT_GESTURE\000"
 11454      56454E54 
 11454      5F474553 
 11454      54555245 
 11454      00
 11455              	.LASF444:
 11456 02fa 4C565F45 		.ascii	"LV_EVENT_LONG_PRESSED\000"
 11456      56454E54 
 11456      5F4C4F4E 
 11456      475F5052 
 11456      45535345 
 11457              	.LASF243:
 11458 0310 62675F69 		.ascii	"bg_img_src\000"
 11458      6D675F73 
 11458      726300
 11459              	.LASF119:
 11460 031b 4C565F53 		.ascii	"LV_STYLE_BORDER_WIDTH\000"
 11460      54594C45 
 11460      5F424F52 
 11460      4445525F 
ARM GAS  C:\Users\haske\AppData\Local\Temp\ccOknJt1.s 			page 227


 11460      57494454 
 11461              	.LASF573:
 11462 0331 78735F73 		.ascii	"xs_step_256\000"
 11462      7465705F 
 11462      32353600 
 11463              	.LASF511:
 11464 033d 636F736D 		.ascii	"cosma\000"
 11464      6100
 11465              	.LASF474:
 11466 0343 4C565F45 		.ascii	"LV_EVENT_CHILD_CREATED\000"
 11466      56454E54 
 11466      5F434849 
 11466      4C445F43 
 11466      52454154 
 11467              	.LASF101:
 11468 035a 4C565F53 		.ascii	"LV_STYLE_PAD_COLUMN\000"
 11468      54594C45 
 11468      5F504144 
 11468      5F434F4C 
 11468      554D4E00 
 11469              	.LASF490:
 11470 036e 6368696C 		.ascii	"children\000"
 11470      6472656E 
 11470      00
 11471              	.LASF443:
 11472 0377 4C565F45 		.ascii	"LV_EVENT_SHORT_CLICKED\000"
 11472      56454E54 
 11472      5F53484F 
 11472      52545F43 
 11472      4C49434B 
 11473              	.LASF111:
 11474 038e 4C565F53 		.ascii	"LV_STYLE_BG_DITHER_MODE\000"
 11474      54594C45 
 11474      5F42475F 
 11474      44495448 
 11474      45525F4D 
 11475              	.LASF244:
 11476 03a6 62675F69 		.ascii	"bg_img_symbol_font\000"
 11476      6D675F73 
 11476      796D626F 
 11476      6C5F666F 
 11476      6E7400
 11477              	.LASF253:
 11478 03b9 626F7264 		.ascii	"border_side\000"
 11478      65725F73 
 11478      69646500 
 11479              	.LASF1:
 11480 03c5 5F5F7569 		.ascii	"__uint8_t\000"
 11480      6E74385F 
 11480      7400
 11481              	.LASF237:
 11482 03cf 775F6C61 		.ascii	"w_layout\000"
 11482      796F7574 
 11482      00
 11483              	.LASF239:
 11484 03d8 626C656E 		.ascii	"blend_mode\000"
 11484      645F6D6F 
ARM GAS  C:\Users\haske\AppData\Local\Temp\ccOknJt1.s 			page 228


 11484      646500
 11485              	.LASF95:
 11486 03e3 4C565F53 		.ascii	"LV_STYLE_RADIUS\000"
 11486      54594C45 
 11486      5F524144 
 11486      49555300 
 11487              	.LASF384:
 11488 03f3 7665725F 		.ascii	"ver_res\000"
 11488      72657300 
 11489              	.LASF233:
 11490 03fb 7363725F 		.ascii	"scr_layout_inv\000"
 11490      6C61796F 
 11490      75745F69 
 11490      6E7600
 11491              	.LASF87:
 11492 040a 4C565F53 		.ascii	"LV_STYLE_MAX_WIDTH\000"
 11492      54594C45 
 11492      5F4D4158 
 11492      5F574944 
 11492      544800
 11493              	.LASF342:
 11494 041d 73637265 		.ascii	"screens\000"
 11494      656E7300 
 11495              	.LASF114:
 11496 0425 4C565F53 		.ascii	"LV_STYLE_BG_IMG_RECOLOR\000"
 11496      54594C45 
 11496      5F42475F 
 11496      494D475F 
 11496      5245434F 
 11497              	.LASF131:
 11498 043d 4C565F53 		.ascii	"LV_STYLE_SHADOW_OPA\000"
 11498      54594C45 
 11498      5F534841 
 11498      444F575F 
 11498      4F504100 
 11499              	.LASF162:
 11500 0451 4C565F53 		.ascii	"LV_STYLE_TRANSFORM_HEIGHT\000"
 11500      54594C45 
 11500      5F545241 
 11500      4E53464F 
 11500      524D5F48 
 11501              	.LASF99:
 11502 046b 4C565F53 		.ascii	"LV_STYLE_PAD_RIGHT\000"
 11502      54594C45 
 11502      5F504144 
 11502      5F524947 
 11502      485400
 11503              	.LASF439:
 11504 047e 4C565F45 		.ascii	"LV_EVENT_ALL\000"
 11504      56454E54 
 11504      5F414C4C 
 11504      00
 11505              	.LASF508:
 11506 048b 785F6F75 		.ascii	"x_out\000"
 11506      7400
 11507              	.LASF203:
 11508 0491 4C565F49 		.ascii	"LV_IMG_CF_RGBA5658\000"
ARM GAS  C:\Users\haske\AppData\Local\Temp\ccOknJt1.s 			page 229


 11508      4D475F43 
 11508      465F5247 
 11508      42413536 
 11508      353800
 11509              	.LASF357:
 11510 04a4 6C617374 		.ascii	"last_activity_time\000"
 11510      5F616374 
 11510      69766974 
 11510      795F7469 
 11510      6D6500
 11511              	.LASF9:
 11512 04b7 6C6F6E67 		.ascii	"long int\000"
 11512      20696E74 
 11512      00
 11513              	.LASF507:
 11514 04c0 795F696E 		.ascii	"y_in\000"
 11514      00
 11515              	.LASF159:
 11516 04c5 4C565F53 		.ascii	"LV_STYLE_TRANSITION\000"
 11516      54594C45 
 11516      5F545241 
 11516      4E534954 
 11516      494F4E00 
 11517              	.LASF394:
 11518 04d9 726F7461 		.ascii	"rotated\000"
 11518      74656400 
 11519              	.LASF500:
 11520 04e1 7363726F 		.ascii	"scroll_dir\000"
 11520      6C6C5F64 
 11520      697200
 11521              	.LASF427:
 11522 04ec 67726F75 		.ascii	"group_def\000"
 11522      705F6465 
 11522      6600
 11523              	.LASF407:
 11524 04f6 64726177 		.ascii	"draw_ctx_deinit\000"
 11524      5F637478 
 11524      5F646569 
 11524      6E697400 
 11525              	.LASF115:
 11526 0506 4C565F53 		.ascii	"LV_STYLE_BG_IMG_RECOLOR_OPA\000"
 11526      54594C45 
 11526      5F42475F 
 11526      494D475F 
 11526      5245434F 
 11527              	.LASF240:
 11528 0522 62675F6F 		.ascii	"bg_opa\000"
 11528      706100
 11529              	.LASF340:
 11530 0529 72656672 		.ascii	"refr_timer\000"
 11530      5F74696D 
 11530      657200
 11531              	.LASF276:
 11532 0534 6C765F64 		.ascii	"lv_draw_label_dsc_t\000"
 11532      7261775F 
 11532      6C616265 
 11532      6C5F6473 
ARM GAS  C:\Users\haske\AppData\Local\Temp\ccOknJt1.s 			page 230


 11532      635F7400 
 11533              	.LASF200:
 11534 0548 4C565F49 		.ascii	"LV_IMG_CF_RGBA8888\000"
 11534      4D475F43 
 11534      465F5247 
 11534      42413838 
 11534      383800
 11535              	.LASF410:
 11536 055b 6C765F73 		.ascii	"lv_state_t\000"
 11536      74617465 
 11536      5F7400
 11537              	.LASF525:
 11538 0566 78735F73 		.ascii	"xs_step\000"
 11538      74657000 
 11539              	.LASF269:
 11540 056e 73656C5F 		.ascii	"sel_bg_color\000"
 11540      62675F63 
 11540      6F6C6F72 
 11540      00
 11541              	.LASF362:
 11542 057b 65646765 		.ascii	"edge_cb\000"
 11542      5F636200 
 11543              	.LASF354:
 11544 0583 696E765F 		.ascii	"inv_area_joined\000"
 11544      61726561 
 11544      5F6A6F69 
 11544      6E656400 
 11545              	.LASF116:
 11546 0593 4C565F53 		.ascii	"LV_STYLE_BG_IMG_TILED\000"
 11546      54594C45 
 11546      5F42475F 
 11546      494D475F 
 11546      54494C45 
 11547              	.LASF345:
 11548 05a9 7363725F 		.ascii	"scr_to_load\000"
 11548      746F5F6C 
 11548      6F616400 
 11549              	.LASF518:
 11550 05b5 61726561 		.ascii	"area_p\000"
 11550      5F7000
 11551              	.LASF369:
 11552 05bc 68656164 		.ascii	"head\000"
 11552      00
 11553              	.LASF118:
 11554 05c1 4C565F53 		.ascii	"LV_STYLE_BORDER_OPA\000"
 11554      54594C45 
 11554      5F424F52 
 11554      4445525F 
 11554      4F504100 
 11555              	.LASF567:
 11556 05d5 7873315F 		.ascii	"xs1_ups\000"
 11556      75707300 
 11557              	.LASF466:
 11558 05dd 4C565F45 		.ascii	"LV_EVENT_DRAW_PART_END\000"
 11558      56454E54 
 11558      5F445241 
 11558      575F5041 
ARM GAS  C:\Users\haske\AppData\Local\Temp\ccOknJt1.s 			page 231


 11558      52545F45 
 11559              	.LASF556:
 11560 05f4 615F686F 		.ascii	"a_hor\000"
 11560      7200
 11561              	.LASF363:
 11562 05fa 66726F7A 		.ascii	"frozen\000"
 11562      656E00
 11563              	.LASF323:
 11564 0601 62756666 		.ascii	"buffer_copy\000"
 11564      65725F63 
 11564      6F707900 
 11565              	.LASF254:
 11566 060d 6F75746C 		.ascii	"outline_color\000"
 11566      696E655F 
 11566      636F6C6F 
 11566      7200
 11567              	.LASF130:
 11568 061b 4C565F53 		.ascii	"LV_STYLE_SHADOW_COLOR\000"
 11568      54594C45 
 11568      5F534841 
 11568      444F575F 
 11568      434F4C4F 
 11569              	.LASF235:
 11570 0631 7374796C 		.ascii	"style_cnt\000"
 11570      655F636E 
 11570      7400
 11571              	.LASF572:
 11572 063b 79735F64 		.ascii	"ys_diff\000"
 11572      69666600 
 11573              	.LASF232:
 11574 0643 6C61796F 		.ascii	"layout_inv\000"
 11574      75745F69 
 11574      6E7600
 11575              	.LASF522:
 11576 064e 7372635F 		.ascii	"src_stride\000"
 11576      73747269 
 11576      646500
 11577              	.LASF537:
 11578 0659 615F746D 		.ascii	"a_tmp\000"
 11578      7000
 11579              	.LASF2:
 11580 065f 7369676E 		.ascii	"signed char\000"
 11580      65642063 
 11580      68617200 
 11581              	.LASF16:
 11582 066b 75696E74 		.ascii	"uint8_t\000"
 11582      385F7400 
 11583              	.LASF318:
 11584 0673 64726177 		.ascii	"draw_line\000"
 11584      5F6C696E 
 11584      6500
 11585              	.LASF383:
 11586 067d 686F725F 		.ascii	"hor_res\000"
 11586      72657300 
 11587              	.LASF248:
 11588 0685 62675F69 		.ascii	"bg_img_tiled\000"
 11588      6D675F74 
ARM GAS  C:\Users\haske\AppData\Local\Temp\ccOknJt1.s 			page 232


 11588      696C6564 
 11588      00
 11589              	.LASF107:
 11590 0692 4C565F53 		.ascii	"LV_STYLE_BG_GRAD_DIR\000"
 11590      54594C45 
 11590      5F42475F 
 11590      47524144 
 11590      5F444952 
 11591              	.LASF57:
 11592 06a7 6765745F 		.ascii	"get_glyph_bitmap\000"
 11592      676C7970 
 11592      685F6269 
 11592      746D6170 
 11592      00
 11593              	.LASF293:
 11594 06b8 656E645F 		.ascii	"end_angle\000"
 11594      616E676C 
 11594      6500
 11595              	.LASF39:
 11596 06c2 626C7565 		.ascii	"blue\000"
 11596      00
 11597              	.LASF185:
 11598 06c7 4C565F49 		.ascii	"LV_IMG_CF_RAW\000"
 11598      4D475F43 
 11598      465F5241 
 11598      5700
 11599              	.LASF563:
 11600 06d5 616E676C 		.ascii	"angle_high\000"
 11600      655F6869 
 11600      676800
 11601              	.LASF93:
 11602 06e0 4C565F53 		.ascii	"LV_STYLE_ALIGN\000"
 11602      54594C45 
 11602      5F414C49 
 11602      474E00
 11603              	.LASF3:
 11604 06ef 756E7369 		.ascii	"unsigned char\000"
 11604      676E6564 
 11604      20636861 
 11604      7200
 11605              	.LASF346:
 11606 06fd 746F705F 		.ascii	"top_layer\000"
 11606      6C617965 
 11606      7200
 11607              	.LASF483:
 11608 0707 4C565F45 		.ascii	"LV_EVENT_GET_SELF_SIZE\000"
 11608      56454E54 
 11608      5F474554 
 11608      5F53454C 
 11608      465F5349 
 11609              	.LASF460:
 11610 071e 4C565F45 		.ascii	"LV_EVENT_DRAW_MAIN\000"
 11610      56454E54 
 11610      5F445241 
 11610      575F4D41 
 11610      494E00
 11611              	.LASF568:
ARM GAS  C:\Users\haske\AppData\Local\Temp\ccOknJt1.s 			page 233


 11612 0731 7973315F 		.ascii	"ys1_ups\000"
 11612      75707300 
 11613              	.LASF291:
 11614 0739 6C765F64 		.ascii	"lv_draw_line_dsc_t\000"
 11614      7261775F 
 11614      6C696E65 
 11614      5F647363 
 11614      5F7400
 11615              	.LASF167:
 11616 074c 4C565F53 		.ascii	"LV_STYLE_TRANSFORM_PIVOT_X\000"
 11616      54594C45 
 11616      5F545241 
 11616      4E53464F 
 11616      524D5F50 
 11617              	.LASF168:
 11618 0767 4C565F53 		.ascii	"LV_STYLE_TRANSFORM_PIVOT_Y\000"
 11618      54594C45 
 11618      5F545241 
 11618      4E53464F 
 11618      524D5F50 
 11619              	.LASF489:
 11620 0782 6C765F67 		.ascii	"lv_group_t\000"
 11620      726F7570 
 11620      5F7400
 11621              	.LASF505:
 11622 078d 5F6C765F 		.ascii	"_lv_obj_spec_attr_t\000"
 11622      6F626A5F 
 11622      73706563 
 11622      5F617474 
 11622      725F7400 
 11623              	.LASF133:
 11624 07a1 4C565F53 		.ascii	"LV_STYLE_IMG_RECOLOR\000"
 11624      54594C45 
 11624      5F494D47 
 11624      5F524543 
 11624      4F4C4F52 
 11625              	.LASF306:
 11626 07b6 61726561 		.ascii	"area_act\000"
 11626      5F616374 
 11626      00
 11627              	.LASF141:
 11628 07bf 4C565F53 		.ascii	"LV_STYLE_ARC_WIDTH\000"
 11628      54594C45 
 11628      5F415243 
 11628      5F574944 
 11628      544800
 11629              	.LASF574:
 11630 07d2 79735F73 		.ascii	"ys_step_256\000"
 11630      7465705F 
 11630      32353600 
 11631              	.LASF53:
 11632 07de 6F66735F 		.ascii	"ofs_x\000"
 11632      7800
 11633              	.LASF54:
 11634 07e4 6F66735F 		.ascii	"ofs_y\000"
 11634      7900
 11635              	.LASF70:
ARM GAS  C:\Users\haske\AppData\Local\Temp\ccOknJt1.s 			page 234


 11636 07ea 6C765F62 		.ascii	"lv_base_dir_t\000"
 11636      6173655F 
 11636      6469725F 
 11636      7400
 11637              	.LASF351:
 11638 07f8 72656E64 		.ascii	"rendering_in_progress\000"
 11638      6572696E 
 11638      675F696E 
 11638      5F70726F 
 11638      67726573 
 11639              	.LASF236:
 11640 080e 685F6C61 		.ascii	"h_layout\000"
 11640      796F7574 
 11640      00
 11641              	.LASF378:
 11642 0817 666C7573 		.ascii	"flushing_last\000"
 11642      68696E67 
 11642      5F6C6173 
 11642      7400
 11643              	.LASF66:
 11644 0825 5F426F6F 		.ascii	"_Bool\000"
 11644      6C00
 11645              	.LASF497:
 11646 082b 7363726F 		.ascii	"scrollbar_mode\000"
 11646      6C6C6261 
 11646      725F6D6F 
 11646      646500
 11647              	.LASF386:
 11648 083a 70687973 		.ascii	"physical_ver_res\000"
 11648      6963616C 
 11648      5F766572 
 11648      5F726573 
 11648      00
 11649              	.LASF309:
 11650 084b 6F726967 		.ascii	"original\000"
 11650      696E616C 
 11650      00
 11651              	.LASF163:
 11652 0854 4C565F53 		.ascii	"LV_STYLE_TRANSLATE_X\000"
 11652      54594C45 
 11652      5F545241 
 11652      4E534C41 
 11652      54455F58 
 11653              	.LASF164:
 11654 0869 4C565F53 		.ascii	"LV_STYLE_TRANSLATE_Y\000"
 11654      54594C45 
 11654      5F545241 
 11654      4E534C41 
 11654      54455F59 
 11655              	.LASF566:
 11656 087e 64657374 		.ascii	"dest_h\000"
 11656      5F6800
 11657              	.LASF578:
 11658 0885 474E5520 		.ascii	"GNU C11 5.4.1 20160609 (release) [ARM/embedded-5-br"
 11658      43313120 
 11658      352E342E 
 11658      31203230 
ARM GAS  C:\Users\haske\AppData\Local\Temp\ccOknJt1.s 			page 235


 11658      31363036 
 11659 08b8 616E6368 		.ascii	"anch revision 237715] -mcpu=cortex-m0plus -mthumb -"
 11659      20726576 
 11659      6973696F 
 11659      6E203233 
 11659      37373135 
 11660 08eb 67202D4F 		.ascii	"g -Og -ffunction-sections -ffat-lto-objects\000"
 11660      67202D66 
 11660      66756E63 
 11660      74696F6E 
 11660      2D736563 
 11661              	.LASF436:
 11662 0917 73746F70 		.ascii	"stop_processing\000"
 11662      5F70726F 
 11662      63657373 
 11662      696E6700 
 11663              	.LASF175:
 11664 0927 76616C75 		.ascii	"value\000"
 11664      6500
 11665              	.LASF230:
 11666 092d 666C6167 		.ascii	"flags\000"
 11666      7300
 11667              	.LASF300:
 11668 0933 6C765F64 		.ascii	"lv_draw_layer_flags_t\000"
 11668      7261775F 
 11668      6C617965 
 11668      725F666C 
 11668      6167735F 
 11669              	.LASF535:
 11670 0949 61726762 		.ascii	"argb_no_aa\000"
 11670      5F6E6F5F 
 11670      616100
 11671              	.LASF539:
 11672 0954 786F7574 		.ascii	"xout\000"
 11672      00
 11673              	.LASF534:
 11674 0959 7372635F 		.ascii	"src_tmp\000"
 11674      746D7000 
 11675              	.LASF25:
 11676 0961 63686172 		.ascii	"char\000"
 11676      00
 11677              	.LASF284:
 11678 0966 6C765F64 		.ascii	"lv_draw_img_dsc_t\000"
 11678      7261775F 
 11678      696D675F 
 11678      6473635F 
 11678      7400
 11679              	.LASF61:
 11680 0978 756E6465 		.ascii	"underline_position\000"
 11680      726C696E 
 11680      655F706F 
 11680      73697469 
 11680      6F6E00
 11681              	.LASF328:
 11682 098b 6C617965 		.ascii	"layer_instance_size\000"
 11682      725F696E 
 11682      7374616E 
ARM GAS  C:\Users\haske\AppData\Local\Temp\ccOknJt1.s 			page 236


 11682      63655F73 
 11682      697A6500 
 11683              	.LASF287:
 11684 099f 64617368 		.ascii	"dash_gap\000"
 11684      5F676170 
 11684      00
 11685              	.LASF320:
 11686 09a8 64726177 		.ascii	"draw_transform\000"
 11686      5F747261 
 11686      6E73666F 
 11686      726D00
 11687              	.LASF390:
 11688 09b7 64697265 		.ascii	"direct_mode\000"
 11688      63745F6D 
 11688      6F646500 
 11689              	.LASF457:
 11690 09c3 4C565F45 		.ascii	"LV_EVENT_COVER_CHECK\000"
 11690      56454E54 
 11690      5F434F56 
 11690      45525F43 
 11690      4845434B 
 11691              	.LASF102:
 11692 09d8 4C565F53 		.ascii	"LV_STYLE_BASE_DIR\000"
 11692      54594C45 
 11692      5F424153 
 11692      455F4449 
 11692      5200
 11693              	.LASF124:
 11694 09ea 4C565F53 		.ascii	"LV_STYLE_OUTLINE_OPA\000"
 11694      54594C45 
 11694      5F4F5554 
 11694      4C494E45 
 11694      5F4F5041 
 11695              	.LASF80:
 11696 09ff 73746F70 		.ascii	"stops_count\000"
 11696      735F636F 
 11696      756E7400 
 11697              	.LASF393:
 11698 0a0b 616E7469 		.ascii	"antialiasing\000"
 11698      616C6961 
 11698      73696E67 
 11698      00
 11699              	.LASF339:
 11700 0a18 64726976 		.ascii	"driver\000"
 11700      657200
 11701              	.LASF6:
 11702 0a1f 5F5F7569 		.ascii	"__uint16_t\000"
 11702      6E743136 
 11702      5F7400
 11703              	.LASF456:
 11704 0a2a 4C565F45 		.ascii	"LV_EVENT_HIT_TEST\000"
 11704      56454E54 
 11704      5F484954 
 11704      5F544553 
 11704      5400
 11705              	.LASF544:
 11706 0a3c 78735F66 		.ascii	"xs_fract\000"
ARM GAS  C:\Users\haske\AppData\Local\Temp\ccOknJt1.s 			page 237


 11706      72616374 
 11706      00
 11707              	.LASF256:
 11708 0a45 6F75746C 		.ascii	"outline_pad\000"
 11708      696E655F 
 11708      70616400 
 11709              	.LASF527:
 11710 0a51 785F656E 		.ascii	"x_end\000"
 11710      6400
 11711              	.LASF329:
 11712 0a57 6C765F64 		.ascii	"lv_draw_ctx_t\000"
 11712      7261775F 
 11712      6374785F 
 11712      7400
 11713              	.LASF104:
 11714 0a65 4C565F53 		.ascii	"LV_STYLE_BG_COLOR\000"
 11714      54594C45 
 11714      5F42475F 
 11714      434F4C4F 
 11714      5200
 11715              	.LASF134:
 11716 0a77 4C565F53 		.ascii	"LV_STYLE_IMG_RECOLOR_OPA\000"
 11716      54594C45 
 11716      5F494D47 
 11716      5F524543 
 11716      4F4C4F52 
 11717              	.LASF249:
 11718 0a90 626F7264 		.ascii	"border_color\000"
 11718      65725F63 
 11718      6F6C6F72 
 11718      00
 11719              	.LASF160:
 11720 0a9d 4C565F53 		.ascii	"LV_STYLE_BLEND_MODE\000"
 11720      54594C45 
 11720      5F424C45 
 11720      4E445F4D 
 11720      4F444500 
 11721              	.LASF48:
 11722 0ab1 6C765F64 		.ascii	"lv_dir_t\000"
 11722      69725F74 
 11722      00
 11723              	.LASF478:
 11724 0aba 4C565F45 		.ascii	"LV_EVENT_SCREEN_LOADED\000"
 11724      56454E54 
 11724      5F534352 
 11724      45454E5F 
 11724      4C4F4144 
 11725              	.LASF174:
 11726 0ad1 70726F70 		.ascii	"prop\000"
 11726      00
 11727              	.LASF179:
 11728 0ad6 636F6E73 		.ascii	"const_props\000"
 11728      745F7072 
 11728      6F707300 
 11729              	.LASF418:
 11730 0ae2 5F6C765F 		.ascii	"_lv_obj_style_t\000"
 11730      6F626A5F 
ARM GAS  C:\Users\haske\AppData\Local\Temp\ccOknJt1.s 			page 238


 11730      7374796C 
 11730      655F7400 
 11731              	.LASF252:
 11732 0af2 626F7264 		.ascii	"border_post\000"
 11732      65725F70 
 11732      6F737400 
 11733              	.LASF493:
 11734 0afe 6576656E 		.ascii	"event_dsc\000"
 11734      745F6473 
 11734      6300
 11735              	.LASF377:
 11736 0b08 666C7573 		.ascii	"flushing\000"
 11736      68696E67 
 11736      00
 11737              	.LASF136:
 11738 0b11 4C565F53 		.ascii	"LV_STYLE_LINE_DASH_WIDTH\000"
 11738      54594C45 
 11738      5F4C494E 
 11738      455F4441 
 11738      53485F57 
 11739              	.LASF523:
 11740 0b2a 78735F75 		.ascii	"xs_ups\000"
 11740      707300
 11741              	.LASF260:
 11742 0b31 73686164 		.ascii	"shadow_ofs_x\000"
 11742      6F775F6F 
 11742      66735F78 
 11742      00
 11743              	.LASF161:
 11744 0b3e 4C565F53 		.ascii	"LV_STYLE_TRANSFORM_WIDTH\000"
 11744      54594C45 
 11744      5F545241 
 11744      4E53464F 
 11744      524D5F57 
 11745              	.LASF337:
 11746 0b57 6C765F74 		.ascii	"lv_timer_t\000"
 11746      696D6572 
 11746      5F7400
 11747              	.LASF492:
 11748 0b62 67726F75 		.ascii	"group_p\000"
 11748      705F7000 
 11749              	.LASF173:
 11750 0b6a 6C765F73 		.ascii	"lv_style_prop_t\000"
 11750      74796C65 
 11750      5F70726F 
 11750      705F7400 
 11751              	.LASF288:
 11752 0b7a 726F756E 		.ascii	"round_start\000"
 11752      645F7374 
 11752      61727400 
 11753              	.LASF494:
 11754 0b86 7363726F 		.ascii	"scroll\000"
 11754      6C6C00
 11755              	.LASF63:
 11756 0b8d 66616C6C 		.ascii	"fallback\000"
 11756      6261636B 
 11756      00
ARM GAS  C:\Users\haske\AppData\Local\Temp\ccOknJt1.s 			page 239


 11757              	.LASF178:
 11758 0b96 76616C75 		.ascii	"values_and_props\000"
 11758      65735F61 
 11758      6E645F70 
 11758      726F7073 
 11758      00
 11759              	.LASF550:
 11760 0ba7 70785F76 		.ascii	"px_ver\000"
 11760      657200
 11761              	.LASF392:
 11762 0bae 73775F72 		.ascii	"sw_rotate\000"
 11762      6F746174 
 11762      6500
 11763              	.LASF502:
 11764 0bb8 6C617965 		.ascii	"layer_type\000"
 11764      725F7479 
 11764      706500
 11765              	.LASF158:
 11766 0bc3 4C565F53 		.ascii	"LV_STYLE_ANIM_SPEED\000"
 11766      54594C45 
 11766      5F414E49 
 11766      4D5F5350 
 11766      45454400 
 11767              	.LASF47:
 11768 0bd7 6C765F61 		.ascii	"lv_area_t\000"
 11768      7265615F 
 11768      7400
 11769              	.LASF324:
 11770 0be1 6C617965 		.ascii	"layer_init\000"
 11770      725F696E 
 11770      697400
 11771              	.LASF122:
 11772 0bec 4C565F53 		.ascii	"LV_STYLE_OUTLINE_WIDTH\000"
 11772      54594C45 
 11772      5F4F5554 
 11772      4C494E45 
 11772      5F574944 
 11773              	.LASF496:
 11774 0c03 6578745F 		.ascii	"ext_draw_size\000"
 11774      64726177 
 11774      5F73697A 
 11774      6500
 11775              	.LASF488:
 11776 0c11 6C765F67 		.ascii	"lv_group_edge_cb_t\000"
 11776      726F7570 
 11776      5F656467 
 11776      655F6362 
 11776      5F7400
 11777              	.LASF205:
 11778 0c24 4C565F49 		.ascii	"LV_IMG_CF_RESERVED_15\000"
 11778      4D475F43 
 11778      465F5245 
 11778      53455256 
 11778      45445F31 
 11779              	.LASF206:
 11780 0c3a 4C565F49 		.ascii	"LV_IMG_CF_RESERVED_16\000"
 11780      4D475F43 
ARM GAS  C:\Users\haske\AppData\Local\Temp\ccOknJt1.s 			page 240


 11780      465F5245 
 11780      53455256 
 11780      45445F31 
 11781              	.LASF84:
 11782 0c50 4C565F53 		.ascii	"LV_STYLE_PROP_INV\000"
 11782      54594C45 
 11782      5F50524F 
 11782      505F494E 
 11782      5600
 11783              	.LASF208:
 11784 0c62 4C565F49 		.ascii	"LV_IMG_CF_RESERVED_18\000"
 11784      4D475F43 
 11784      465F5245 
 11784      53455256 
 11784      45445F31 
 11785              	.LASF150:
 11786 0c78 4C565F53 		.ascii	"LV_STYLE_TEXT_LINE_SPACE\000"
 11786      54594C45 
 11786      5F544558 
 11786      545F4C49 
 11786      4E455F53 
 11787              	.LASF552:
 11788 0c91 635F7665 		.ascii	"c_ver\000"
 11788      7200
 11789              	.LASF438:
 11790 0c97 6C765F6F 		.ascii	"lv_obj_class_t\000"
 11790      626A5F63 
 11790      6C617373 
 11790      5F7400
 11791              	.LASF176:
 11792 0ca6 6C765F73 		.ascii	"lv_style_const_prop_t\000"
 11792      74796C65 
 11792      5F636F6E 
 11792      73745F70 
 11792      726F705F 
 11793              	.LASF461:
 11794 0cbc 4C565F45 		.ascii	"LV_EVENT_DRAW_MAIN_END\000"
 11794      56454E54 
 11794      5F445241 
 11794      575F4D41 
 11794      494E5F45 
 11795              	.LASF226:
 11796 0cd3 70617265 		.ascii	"parent\000"
 11796      6E7400
 11797              	.LASF391:
 11798 0cda 66756C6C 		.ascii	"full_refresh\000"
 11798      5F726566 
 11798      72657368 
 11798      00
 11799              	.LASF289:
 11800 0ce7 726F756E 		.ascii	"round_end\000"
 11800      645F656E 
 11800      6400
 11801              	.LASF294:
 11802 0cf1 696D675F 		.ascii	"img_src\000"
 11802      73726300 
 11803              	.LASF417:
ARM GAS  C:\Users\haske\AppData\Local\Temp\ccOknJt1.s 			page 241


 11804 0cf9 69735F74 		.ascii	"is_trans\000"
 11804      72616E73 
 11804      00
 11805              	.LASF543:
 11806 0d02 70785F73 		.ascii	"px_size\000"
 11806      697A6500 
 11807              	.LASF514:
 11808 0d0a 706F696E 		.ascii	"point_transform_dsc_t\000"
 11808      745F7472 
 11808      616E7366 
 11808      6F726D5F 
 11808      6473635F 
 11809              	.LASF262:
 11810 0d20 73686164 		.ascii	"shadow_spread\000"
 11810      6F775F73 
 11810      70726561 
 11810      6400
 11811              	.LASF157:
 11812 0d2e 4C565F53 		.ascii	"LV_STYLE_ANIM_TIME\000"
 11812      54594C45 
 11812      5F414E49 
 11812      4D5F5449 
 11812      4D4500
 11813              	.LASF97:
 11814 0d41 4C565F53 		.ascii	"LV_STYLE_PAD_BOTTOM\000"
 11814      54594C45 
 11814      5F504144 
 11814      5F424F54 
 11814      544F4D00 
 11815              	.LASF424:
 11816 0d55 77696474 		.ascii	"width_def\000"
 11816      685F6465 
 11816      6600
 11817              	.LASF541:
 11818 0d5f 61726762 		.ascii	"argb_and_rgb_aa\000"
 11818      5F616E64 
 11818      5F726762 
 11818      5F616100 
 11819              	.LASF210:
 11820 0d6f 4C565F49 		.ascii	"LV_IMG_CF_RESERVED_20\000"
 11820      4D475F43 
 11820      465F5245 
 11820      53455256 
 11820      45445F32 
 11821              	.LASF211:
 11822 0d85 4C565F49 		.ascii	"LV_IMG_CF_RESERVED_21\000"
 11822      4D475F43 
 11822      465F5245 
 11822      53455256 
 11822      45445F32 
 11823              	.LASF212:
 11824 0d9b 4C565F49 		.ascii	"LV_IMG_CF_RESERVED_22\000"
 11824      4D475F43 
 11824      465F5245 
 11824      53455256 
 11824      45445F32 
 11825              	.LASF213:
ARM GAS  C:\Users\haske\AppData\Local\Temp\ccOknJt1.s 			page 242


 11826 0db1 4C565F49 		.ascii	"LV_IMG_CF_RESERVED_23\000"
 11826      4D475F43 
 11826      465F5245 
 11826      53455256 
 11826      45445F32 
 11827              	.LASF398:
 11828 0dc7 636C6561 		.ascii	"clear_cb\000"
 11828      725F6362 
 11828      00
 11829              	.LASF105:
 11830 0dd0 4C565F53 		.ascii	"LV_STYLE_BG_OPA\000"
 11830      54594C45 
 11830      5F42475F 
 11830      4F504100 
 11831              	.LASF140:
 11832 0de0 4C565F53 		.ascii	"LV_STYLE_LINE_OPA\000"
 11832      54594C45 
 11832      5F4C494E 
 11832      455F4F50 
 11832      4100
 11833              	.LASF183:
 11834 0df2 6C765F73 		.ascii	"lv_style_t\000"
 11834      74796C65 
 11834      5F7400
 11835              	.LASF228:
 11836 0dfd 7374796C 		.ascii	"styles\000"
 11836      657300
 11837              	.LASF491:
 11838 0e04 6368696C 		.ascii	"child_cnt\000"
 11838      645F636E 
 11838      7400
 11839              	.LASF132:
 11840 0e0e 4C565F53 		.ascii	"LV_STYLE_IMG_OPA\000"
 11840      54594C45 
 11840      5F494D47 
 11840      5F4F5041 
 11840      00
 11841              	.LASF165:
 11842 0e1f 4C565F53 		.ascii	"LV_STYLE_TRANSFORM_ZOOM\000"
 11842      54594C45 
 11842      5F545241 
 11842      4E53464F 
 11842      524D5F5A 
 11843              	.LASF455:
 11844 0e37 4C565F45 		.ascii	"LV_EVENT_LEAVE\000"
 11844      56454E54 
 11844      5F4C4541 
 11844      564500
 11845              	.LASF11:
 11846 0e46 6C6F6E67 		.ascii	"long unsigned int\000"
 11846      20756E73 
 11846      69676E65 
 11846      6420696E 
 11846      7400
 11847              	.LASF499:
 11848 0e58 7363726F 		.ascii	"scroll_snap_y\000"
 11848      6C6C5F73 
ARM GAS  C:\Users\haske\AppData\Local\Temp\ccOknJt1.s 			page 243


 11848      6E61705F 
 11848      7900
 11849              	.LASF222:
 11850 0e66 6C765F69 		.ascii	"lv_img_cf_t\000"
 11850      6D675F63 
 11850      665F7400 
 11851              	.LASF147:
 11852 0e72 4C565F53 		.ascii	"LV_STYLE_TEXT_OPA\000"
 11852      54594C45 
 11852      5F544558 
 11852      545F4F50 
 11852      4100
 11853              	.LASF292:
 11854 0e84 73746172 		.ascii	"start_angle\000"
 11854      745F616E 
 11854      676C6500 
 11855              	.LASF433:
 11856 0e90 70617261 		.ascii	"param\000"
 11856      6D00
 11857              	.LASF430:
 11858 0e96 74617267 		.ascii	"target\000"
 11858      657400
 11859              	.LASF349:
 11860 0e9d 64726177 		.ascii	"draw_prev_over_act\000"
 11860      5F707265 
 11860      765F6F76 
 11860      65725F61 
 11860      637400
 11861              	.LASF327:
 11862 0eb0 6C617965 		.ascii	"layer_destroy\000"
 11862      725F6465 
 11862      7374726F 
 11862      7900
 11863              	.LASF553:
 11864 0ebe 635F686F 		.ascii	"c_hor\000"
 11864      7200
 11865              	.LASF286:
 11866 0ec4 64617368 		.ascii	"dash_width\000"
 11866      5F776964 
 11866      746800
 11867              	.LASF380:
 11868 0ecf 6C617374 		.ascii	"last_part\000"
 11868      5F706172 
 11868      7400
 11869              	.LASF426:
 11870 0ed9 65646974 		.ascii	"editable\000"
 11870      61626C65 
 11870      00
 11871              	.LASF341:
 11872 0ee2 7468656D 		.ascii	"theme\000"
 11872      6500
 11873              	.LASF387:
 11874 0ee8 6F666673 		.ascii	"offset_x\000"
 11874      65745F78 
 11874      00
 11875              	.LASF388:
 11876 0ef1 6F666673 		.ascii	"offset_y\000"
ARM GAS  C:\Users\haske\AppData\Local\Temp\ccOknJt1.s 			page 244


 11876      65745F79 
 11876      00
 11877              	.LASF49:
 11878 0efa 7265736F 		.ascii	"resolved_font\000"
 11878      6C766564 
 11878      5F666F6E 
 11878      7400
 11879              	.LASF359:
 11880 0f08 6F626A5F 		.ascii	"obj_ll\000"
 11880      6C6C00
 11881              	.LASF314:
 11882 0f0f 64726177 		.ascii	"draw_arc\000"
 11882      5F617263 
 11882      00
 11883              	.LASF139:
 11884 0f18 4C565F53 		.ascii	"LV_STYLE_LINE_COLOR\000"
 11884      54594C45 
 11884      5F4C494E 
 11884      455F434F 
 11884      4C4F5200 
 11885              	.LASF27:
 11886 0f2c 4C565F4F 		.ascii	"LV_OPA_0\000"
 11886      50415F30 
 11886      00
 11887              	.LASF100:
 11888 0f35 4C565F53 		.ascii	"LV_STYLE_PAD_ROW\000"
 11888      54594C45 
 11888      5F504144 
 11888      5F524F57 
 11888      00
 11889              	.LASF372:
 11890 0f46 5F6C765F 		.ascii	"_lv_disp_draw_buf_t\000"
 11890      64697370 
 11890      5F647261 
 11890      775F6275 
 11890      665F7400 
 11891              	.LASF302:
 11892 0f5a 6275665F 		.ascii	"buf_area\000"
 11892      61726561 
 11892      00
 11893              	.LASF278:
 11894 0f63 7A6F6F6D 		.ascii	"zoom\000"
 11894      00
 11895              	.LASF280:
 11896 0f68 7265636F 		.ascii	"recolor\000"
 11896      6C6F7200 
 11897              	.LASF469:
 11898 0f70 4C565F45 		.ascii	"LV_EVENT_REFRESH\000"
 11898      56454E54 
 11898      5F524546 
 11898      52455348 
 11898      00
 11899              	.LASF428:
 11900 0f81 696E7374 		.ascii	"instance_size\000"
 11900      616E6365 
 11900      5F73697A 
 11900      6500
ARM GAS  C:\Users\haske\AppData\Local\Temp\ccOknJt1.s 			page 245


 11901              	.LASF277:
 11902 0f8f 616E676C 		.ascii	"angle\000"
 11902      6500
 11903              	.LASF98:
 11904 0f95 4C565F53 		.ascii	"LV_STYLE_PAD_LEFT\000"
 11904      54594C45 
 11904      5F504144 
 11904      5F4C4546 
 11904      5400
 11905              	.LASF406:
 11906 0fa7 64726177 		.ascii	"draw_ctx_init\000"
 11906      5F637478 
 11906      5F696E69 
 11906      7400
 11907              	.LASF431:
 11908 0fb5 63757272 		.ascii	"current_target\000"
 11908      656E745F 
 11908      74617267 
 11908      657400
 11909              	.LASF475:
 11910 0fc4 4C565F45 		.ascii	"LV_EVENT_CHILD_DELETED\000"
 11910      56454E54 
 11910      5F434849 
 11910      4C445F44 
 11910      454C4554 
 11911              	.LASF533:
 11912 0fdb 79735F69 		.ascii	"ys_int\000"
 11912      6E7400
 11913              	.LASF458:
 11914 0fe2 4C565F45 		.ascii	"LV_EVENT_REFR_EXT_DRAW_SIZE\000"
 11914      56454E54 
 11914      5F524546 
 11914      525F4558 
 11914      545F4452 
 11915              	.LASF515:
 11916 0ffe 72657375 		.ascii	"result\000"
 11916      6C7400
 11917              	.LASF315:
 11918 1005 64726177 		.ascii	"draw_img_decoded\000"
 11918      5F696D67 
 11918      5F646563 
 11918      6F646564 
 11918      00
 11919              	.LASF330:
 11920 1016 6C765F74 		.ascii	"lv_timer_cb_t\000"
 11920      696D6572 
 11920      5F63625F 
 11920      7400
 11921              	.LASF156:
 11922 1024 4C565F53 		.ascii	"LV_STYLE_ANIM\000"
 11922      54594C45 
 11922      5F414E49 
 11922      4D00
 11923              	.LASF91:
 11924 1032 4C565F53 		.ascii	"LV_STYLE_X\000"
 11924      54594C45 
 11924      5F5800
ARM GAS  C:\Users\haske\AppData\Local\Temp\ccOknJt1.s 			page 246


 11925              	.LASF536:
 11926 103d 72676235 		.ascii	"rgb565a8_no_aa\000"
 11926      36356138 
 11926      5F6E6F5F 
 11926      616100
 11927              	.LASF152:
 11928 104c 4C565F53 		.ascii	"LV_STYLE_TEXT_ALIGN\000"
 11928      54594C45 
 11928      5F544558 
 11928      545F414C 
 11928      49474E00 
 11929              	.LASF336:
 11930 1060 70617573 		.ascii	"paused\000"
 11930      656400
 11931              	.LASF516:
 11932 1067 6C765F63 		.ascii	"lv_color_mix\000"
 11932      6F6C6F72 
 11932      5F6D6978 
 11932      00
 11933              	.LASF223:
 11934 1074 5F6C765F 		.ascii	"_lv_font_t\000"
 11934      666F6E74 
 11934      5F7400
 11935              	.LASF400:
 11936 107f 77616974 		.ascii	"wait_cb\000"
 11936      5F636200 
 11937              	.LASF10:
 11938 1087 5F5F7569 		.ascii	"__uint32_t\000"
 11938      6E743332 
 11938      5F7400
 11939              	.LASF423:
 11940 1092 6576656E 		.ascii	"event_cb\000"
 11940      745F6362 
 11940      00
 11941              	.LASF486:
 11942 109b 6C765F65 		.ascii	"lv_event_code_t\000"
 11942      76656E74 
 11942      5F636F64 
 11942      655F7400 
 11943              	.LASF72:
 11944 10ab 6C765F74 		.ascii	"lv_text_decor_t\000"
 11944      6578745F 
 11944      6465636F 
 11944      725F7400 
 11945              	.LASF429:
 11946 10bb 5F6C765F 		.ascii	"_lv_event_t\000"
 11946      6576656E 
 11946      745F7400 
 11947              	.LASF12:
 11948 10c7 6C6F6E67 		.ascii	"long long int\000"
 11948      206C6F6E 
 11948      6720696E 
 11948      7400
 11949              	.LASF258:
 11950 10d5 73686164 		.ascii	"shadow_color\000"
 11950      6F775F63 
 11950      6F6C6F72 
ARM GAS  C:\Users\haske\AppData\Local\Temp\ccOknJt1.s 			page 247


 11950      00
 11951              	.LASF435:
 11952 10e2 64656C65 		.ascii	"deleted\000"
 11952      74656400 
 11953              	.LASF285:
 11954 10ea 77696474 		.ascii	"width\000"
 11954      6800
 11955              	.LASF450:
 11956 10f0 4C565F45 		.ascii	"LV_EVENT_SCROLL\000"
 11956      56454E54 
 11956      5F534352 
 11956      4F4C4C00 
 11957              	.LASF373:
 11958 1100 62756631 		.ascii	"buf1\000"
 11958      00
 11959              	.LASF374:
 11960 1105 62756632 		.ascii	"buf2\000"
 11960      00
 11961              	.LASF166:
 11962 110a 4C565F53 		.ascii	"LV_STYLE_TRANSFORM_ANGLE\000"
 11962      54594C45 
 11962      5F545241 
 11962      4E53464F 
 11962      524D5F41 
 11963              	.LASF561:
 11964 1123 74725F64 		.ascii	"tr_dsc\000"
 11964      736300
 11965              	.LASF513:
 11966 112a 7069766F 		.ascii	"pivot_y_256\000"
 11966      745F795F 
 11966      32353600 
 11967              	.LASF297:
 11968 1136 4C565F44 		.ascii	"LV_DRAW_LAYER_FLAG_NONE\000"
 11968      5241575F 
 11968      4C415945 
 11968      525F464C 
 11968      41475F4E 
 11969              	.LASF154:
 11970 114e 4C565F53 		.ascii	"LV_STYLE_COLOR_FILTER_DSC\000"
 11970      54594C45 
 11970      5F434F4C 
 11970      4F525F46 
 11970      494C5445 
 11971              	.LASF565:
 11972 1168 64657374 		.ascii	"dest_w\000"
 11972      5F7700
 11973              	.LASF576:
 11974 116f 6C765F6D 		.ascii	"lv_memset_ff\000"
 11974      656D7365 
 11974      745F6666 
 11974      00
 11975              	.LASF69:
 11976 117c 6C765F74 		.ascii	"lv_text_align_t\000"
 11976      6578745F 
 11976      616C6967 
 11976      6E5F7400 
 11977              	.LASF379:
ARM GAS  C:\Users\haske\AppData\Local\Temp\ccOknJt1.s 			page 248


 11978 118c 6C617374 		.ascii	"last_area\000"
 11978      5F617265 
 11978      6100
 11979              	.LASF62:
 11980 1196 756E6465 		.ascii	"underline_thickness\000"
 11980      726C696E 
 11980      655F7468 
 11980      69636B6E 
 11980      65737300 
 11981              	.LASF151:
 11982 11aa 4C565F53 		.ascii	"LV_STYLE_TEXT_DECOR\000"
 11982      54594C45 
 11982      5F544558 
 11982      545F4445 
 11982      434F5200 
 11983              	.LASF448:
 11984 11be 4C565F45 		.ascii	"LV_EVENT_SCROLL_BEGIN\000"
 11984      56454E54 
 11984      5F534352 
 11984      4F4C4C5F 
 11984      42454749 
 11985              	.LASF273:
 11986 11d4 616C6967 		.ascii	"align\000"
 11986      6E00
 11987              	.LASF26:
 11988 11da 4C565F4F 		.ascii	"LV_OPA_TRANSP\000"
 11988      50415F54 
 11988      52414E53 
 11988      5000
 11989              	.LASF142:
 11990 11e8 4C565F53 		.ascii	"LV_STYLE_ARC_ROUNDED\000"
 11990      54594C45 
 11990      5F415243 
 11990      5F524F55 
 11990      4E444544 
 11991              	.LASF399:
 11992 11fd 6D6F6E69 		.ascii	"monitor_cb\000"
 11992      746F725F 
 11992      636200
 11993              	.LASF196:
 11994 1208 4C565F49 		.ascii	"LV_IMG_CF_ALPHA_2BIT\000"
 11994      4D475F43 
 11994      465F414C 
 11994      5048415F 
 11994      32424954 
 11995              	.LASF234:
 11996 121d 736B6970 		.ascii	"skip_trans\000"
 11996      5F747261 
 11996      6E7300
 11997              	.LASF512:
 11998 1228 7069766F 		.ascii	"pivot_x_256\000"
 11998      745F785F 
 11998      32353600 
 11999              	.LASF197:
 12000 1234 4C565F49 		.ascii	"LV_IMG_CF_ALPHA_4BIT\000"
 12000      4D475F43 
 12000      465F414C 
ARM GAS  C:\Users\haske\AppData\Local\Temp\ccOknJt1.s 			page 249


 12000      5048415F 
 12000      34424954 
 12001              	.LASF146:
 12002 1249 4C565F53 		.ascii	"LV_STYLE_TEXT_COLOR\000"
 12002      54594C45 
 12002      5F544558 
 12002      545F434F 
 12002      4C4F5200 
 12003              	.LASF472:
 12004 125d 4C565F45 		.ascii	"LV_EVENT_DELETE\000"
 12004      56454E54 
 12004      5F44454C 
 12004      45544500 
 12005              	.LASF225:
 12006 126d 636C6173 		.ascii	"class_p\000"
 12006      735F7000 
 12007              	.LASF462:
 12008 1275 4C565F45 		.ascii	"LV_EVENT_DRAW_POST_BEGIN\000"
 12008      56454E54 
 12008      5F445241 
 12008      575F504F 
 12008      53545F42 
 12009              	.LASF14:
 12010 128e 756E7369 		.ascii	"unsigned int\000"
 12010      676E6564 
 12010      20696E74 
 12010      00
 12011              	.LASF554:
 12012 129b 615F6261 		.ascii	"a_base\000"
 12012      736500
 12013              	.LASF189:
 12014 12a2 4C565F49 		.ascii	"LV_IMG_CF_TRUE_COLOR_ALPHA\000"
 12014      4D475F43 
 12014      465F5452 
 12014      55455F43 
 12014      4F4C4F52 
 12015              	.LASF301:
 12016 12bd 636C6970 		.ascii	"clip_area\000"
 12016      5F617265 
 12016      6100
 12017              	.LASF83:
 12018 12c7 6C765F73 		.ascii	"lv_style_value_t\000"
 12018      74796C65 
 12018      5F76616C 
 12018      75655F74 
 12018      00
 12019              	.LASF198:
 12020 12d8 4C565F49 		.ascii	"LV_IMG_CF_ALPHA_8BIT\000"
 12020      4D475F43 
 12020      465F414C 
 12020      5048415F 
 12020      38424954 
 12021              	.LASF267:
 12022 12ed 73656C5F 		.ascii	"sel_end\000"
 12022      656E6400 
 12023              	.LASF564:
 12024 12f5 616E676C 		.ascii	"angle_rem\000"
ARM GAS  C:\Users\haske\AppData\Local\Temp\ccOknJt1.s 			page 250


 12024      655F7265 
 12024      6D00
 12025              	.LASF172:
 12026 12ff 5F4C565F 		.ascii	"_LV_STYLE_PROP_CONST\000"
 12026      5354594C 
 12026      455F5052 
 12026      4F505F43 
 12026      4F4E5354 
 12027              	.LASF305:
 12028 1314 61726561 		.ascii	"area_full\000"
 12028      5F66756C 
 12028      6C00
 12029              	.LASF192:
 12030 131e 4C565F49 		.ascii	"LV_IMG_CF_INDEXED_2BIT\000"
 12030      4D475F43 
 12030      465F494E 
 12030      44455845 
 12030      445F3242 
 12031              	.LASF274:
 12032 1335 666C6167 		.ascii	"flag\000"
 12032      00
 12033              	.LASF338:
 12034 133a 5F6C765F 		.ascii	"_lv_disp_t\000"
 12034      64697370 
 12034      5F7400
 12035              	.LASF467:
 12036 1345 4C565F45 		.ascii	"LV_EVENT_VALUE_CHANGED\000"
 12036      56454E54 
 12036      5F56414C 
 12036      55455F43 
 12036      48414E47 
 12037              	.LASF304:
 12038 135c 5F6C765F 		.ascii	"_lv_draw_layer_ctx_t\000"
 12038      64726177 
 12038      5F6C6179 
 12038      65725F63 
 12038      74785F74 
 12039              	.LASF257:
 12040 1371 6F75746C 		.ascii	"outline_opa\000"
 12040      696E655F 
 12040      6F706100 
 12041              	.LASF353:
 12042 137d 696E765F 		.ascii	"inv_areas\000"
 12042      61726561 
 12042      7300
 12043              	.LASF559:
 12044 1387 7372635F 		.ascii	"src_buf\000"
 12044      62756600 
 12045              	.LASF193:
 12046 138f 4C565F49 		.ascii	"LV_IMG_CF_INDEXED_4BIT\000"
 12046      4D475F43 
 12046      465F494E 
 12046      44455845 
 12046      445F3442 
 12047              	.LASF307:
 12048 13a6 6D61785F 		.ascii	"max_row_with_alpha\000"
 12048      726F775F 
ARM GAS  C:\Users\haske\AppData\Local\Temp\ccOknJt1.s 			page 251


 12048      77697468 
 12048      5F616C70 
 12048      686100
 12049              	.LASF485:
 12050 13b9 4C565F45 		.ascii	"LV_EVENT_PREPROCESS\000"
 12050      56454E54 
 12050      5F505245 
 12050      50524F43 
 12050      45535300 
 12051              	.LASF282:
 12052 13cd 6672616D 		.ascii	"frame_id\000"
 12052      655F6964 
 12052      00
 12053              	.LASF201:
 12054 13d6 4C565F49 		.ascii	"LV_IMG_CF_RGBX8888\000"
 12054      4D475F43 
 12054      465F5247 
 12054      42583838 
 12054      383800
 12055              	.LASF281:
 12056 13e9 7265636F 		.ascii	"recolor_opa\000"
 12056      6C6F725F 
 12056      6F706100 
 12057              	.LASF94:
 12058 13f5 4C565F53 		.ascii	"LV_STYLE_LAYOUT\000"
 12058      54594C45 
 12058      5F4C4159 
 12058      4F555400 
 12059              	.LASF65:
 12060 1405 6C765F66 		.ascii	"lv_font_glyph_dsc_t\000"
 12060      6F6E745F 
 12060      676C7970 
 12060      685F6473 
 12060      635F7400 
 12061              	.LASF477:
 12062 1419 4C565F45 		.ascii	"LV_EVENT_SCREEN_LOAD_START\000"
 12062      56454E54 
 12062      5F534352 
 12062      45454E5F 
 12062      4C4F4144 
 12063              	.LASF437:
 12064 1434 73746F70 		.ascii	"stop_bubbling\000"
 12064      5F627562 
 12064      626C696E 
 12064      6700
 12065              	.LASF255:
 12066 1442 6F75746C 		.ascii	"outline_width\000"
 12066      696E655F 
 12066      77696474 
 12066      6800
 12067              	.LASF126:
 12068 1450 4C565F53 		.ascii	"LV_STYLE_SHADOW_WIDTH\000"
 12068      54594C45 
 12068      5F534841 
 12068      444F575F 
 12068      57494454 
 12069              	.LASF194:
ARM GAS  C:\Users\haske\AppData\Local\Temp\ccOknJt1.s 			page 252


 12070 1466 4C565F49 		.ascii	"LV_IMG_CF_INDEXED_8BIT\000"
 12070      4D475F43 
 12070      465F494E 
 12070      44455845 
 12070      445F3842 
 12071              	.LASF187:
 12072 147d 4C565F49 		.ascii	"LV_IMG_CF_RAW_CHROMA_KEYED\000"
 12072      4D475F43 
 12072      465F5241 
 12072      575F4348 
 12072      524F4D41 
 12073              	.LASF103:
 12074 1498 4C565F53 		.ascii	"LV_STYLE_CLIP_CORNER\000"
 12074      54594C45 
 12074      5F434C49 
 12074      505F434F 
 12074      524E4552 
 12075              	.LASF190:
 12076 14ad 4C565F49 		.ascii	"LV_IMG_CF_TRUE_COLOR_CHROMA_KEYED\000"
 12076      4D475F43 
 12076      465F5452 
 12076      55455F43 
 12076      4F4C4F52 
 12077              	.LASF558:
 12078 14cf 64657374 		.ascii	"dest_area\000"
 12078      5F617265 
 12078      6100
 12079              	.LASF283:
 12080 14d9 616E7469 		.ascii	"antialias\000"
 12080      616C6961 
 12080      7300
 12081              	.LASF420:
 12082 14e3 62617365 		.ascii	"base_class\000"
 12082      5F636C61 
 12082      737300
 12083              	.LASF37:
 12084 14ee 4C565F4F 		.ascii	"LV_OPA_100\000"
 12084      50415F31 
 12084      303000
 12085              	.LASF445:
 12086 14f9 4C565F45 		.ascii	"LV_EVENT_LONG_PRESSED_REPEAT\000"
 12086      56454E54 
 12086      5F4C4F4E 
 12086      475F5052 
 12086      45535345 
 12087              	.LASF361:
 12088 1516 666F6375 		.ascii	"focus_cb\000"
 12088      735F6362 
 12088      00
 12089              	.LASF214:
 12090 151f 4C565F49 		.ascii	"LV_IMG_CF_USER_ENCODED_0\000"
 12090      4D475F43 
 12090      465F5553 
 12090      45525F45 
 12090      4E434F44 
 12091              	.LASF215:
 12092 1538 4C565F49 		.ascii	"LV_IMG_CF_USER_ENCODED_1\000"
ARM GAS  C:\Users\haske\AppData\Local\Temp\ccOknJt1.s 			page 253


 12092      4D475F43 
 12092      465F5553 
 12092      45525F45 
 12092      4E434F44 
 12093              	.LASF216:
 12094 1551 4C565F49 		.ascii	"LV_IMG_CF_USER_ENCODED_2\000"
 12094      4D475F43 
 12094      465F5553 
 12094      45525F45 
 12094      4E434F44 
 12095              	.LASF217:
 12096 156a 4C565F49 		.ascii	"LV_IMG_CF_USER_ENCODED_3\000"
 12096      4D475F43 
 12096      465F5553 
 12096      45525F45 
 12096      4E434F44 
 12097              	.LASF218:
 12098 1583 4C565F49 		.ascii	"LV_IMG_CF_USER_ENCODED_4\000"
 12098      4D475F43 
 12098      465F5553 
 12098      45525F45 
 12098      4E434F44 
 12099              	.LASF219:
 12100 159c 4C565F49 		.ascii	"LV_IMG_CF_USER_ENCODED_5\000"
 12100      4D475F43 
 12100      465F5553 
 12100      45525F45 
 12100      4E434F44 
 12101              	.LASF220:
 12102 15b5 4C565F49 		.ascii	"LV_IMG_CF_USER_ENCODED_6\000"
 12102      4D475F43 
 12102      465F5553 
 12102      45525F45 
 12102      4E434F44 
 12103              	.LASF221:
 12104 15ce 4C565F49 		.ascii	"LV_IMG_CF_USER_ENCODED_7\000"
 12104      4D475F43 
 12104      465F5553 
 12104      45525F45 
 12104      4E434F44 
 12105              	.LASF21:
 12106 15e7 6C765F72 		.ascii	"lv_res_t\000"
 12106      65735F74 
 12106      00
 12107              	.LASF155:
 12108 15f0 4C565F53 		.ascii	"LV_STYLE_COLOR_FILTER_OPA\000"
 12108      54594C45 
 12108      5F434F4C 
 12108      4F525F46 
 12108      494C5445 
 12109              	.LASF506:
 12110 160a 785F696E 		.ascii	"x_in\000"
 12110      00
 12111              	.LASF375:
 12112 160f 6275665F 		.ascii	"buf_act\000"
 12112      61637400 
 12113              	.LASF23:
ARM GAS  C:\Users\haske\AppData\Local\Temp\ccOknJt1.s 			page 254


 12114 1617 6C6F6E67 		.ascii	"long double\000"
 12114      20646F75 
 12114      626C6500 
 12115              	.LASF414:
 12116 1623 7374796C 		.ascii	"style\000"
 12116      6500
 12117              	.LASF75:
 12118 1629 6C765F64 		.ascii	"lv_dither_mode_t\000"
 12118      69746865 
 12118      725F6D6F 
 12118      64655F74 
 12118      00
 12119              	.LASF413:
 12120 163a 6C765F73 		.ascii	"lv_scroll_snap_t\000"
 12120      63726F6C 
 12120      6C5F736E 
 12120      61705F74 
 12120      00
 12121              	.LASF432:
 12122 164b 636F6465 		.ascii	"code\000"
 12122      00
 12123              	.LASF60:
 12124 1650 73756270 		.ascii	"subpx\000"
 12124      7800
 12125              	.LASF38:
 12126 1656 4C565F4F 		.ascii	"LV_OPA_COVER\000"
 12126      50415F43 
 12126      4F564552 
 12126      00
 12127              	.LASF322:
 12128 1663 77616974 		.ascii	"wait_for_finish\000"
 12128      5F666F72 
 12128      5F66696E 
 12128      69736800 
 12129              	.LASF547:
 12130 1673 795F6E65 		.ascii	"y_next\000"
 12130      787400
 12131              	.LASF247:
 12132 167a 62675F69 		.ascii	"bg_img_recolor_opa\000"
 12132      6D675F72 
 12132      65636F6C 
 12132      6F725F6F 
 12132      706100
 12133              	.LASF299:
 12134 168d 4C565F44 		.ascii	"LV_DRAW_LAYER_FLAG_CAN_SUBDIVIDE\000"
 12134      5241575F 
 12134      4C415945 
 12134      525F464C 
 12134      41475F43 
 12135              	.LASF441:
 12136 16ae 4C565F45 		.ascii	"LV_EVENT_PRESSING\000"
 12136      56454E54 
 12136      5F505245 
 12136      5353494E 
 12136      4700
 12137              	.LASF334:
 12138 16c0 74696D65 		.ascii	"timer_cb\000"
ARM GAS  C:\Users\haske\AppData\Local\Temp\ccOknJt1.s 			page 255


 12138      725F6362 
 12138      00
 12139              	.LASF440:
 12140 16c9 4C565F45 		.ascii	"LV_EVENT_PRESSED\000"
 12140      56454E54 
 12140      5F505245 
 12140      53534544 
 12140      00
 12141              	.LASF207:
 12142 16da 4C565F49 		.ascii	"LV_IMG_CF_RESERVED_17\000"
 12142      4D475F43 
 12142      465F5245 
 12142      53455256 
 12142      45445F31 
 12143              	.LASF471:
 12144 16f0 4C565F45 		.ascii	"LV_EVENT_CANCEL\000"
 12144      56454E54 
 12144      5F43414E 
 12144      43454C00 
 12145              	.LASF209:
 12146 1700 4C565F49 		.ascii	"LV_IMG_CF_RESERVED_19\000"
 12146      4D475F43 
 12146      465F5245 
 12146      53455256 
 12146      45445F31 
 12147              	.LASF117:
 12148 1716 4C565F53 		.ascii	"LV_STYLE_BORDER_COLOR\000"
 12148      54594C45 
 12148      5F424F52 
 12148      4445525F 
 12148      434F4C4F 
 12149              	.LASF403:
 12150 172c 72656E64 		.ascii	"render_start_cb\000"
 12150      65725F73 
 12150      74617274 
 12150      5F636200 
 12151              	.LASF402:
 12152 173c 6472765F 		.ascii	"drv_update_cb\000"
 12152      75706461 
 12152      74655F63 
 12152      6200
 12153              	.LASF555:
 12154 174a 615F7665 		.ascii	"a_ver\000"
 12154      7200
 12155              	.LASF0:
 12156 1750 5F5F696E 		.ascii	"__int8_t\000"
 12156      74385F74 
 12156      00
 12157              	.LASF484:
 12158 1759 5F4C565F 		.ascii	"_LV_EVENT_LAST\000"
 12158      4556454E 
 12158      545F4C41 
 12158      535400
 12159              	.LASF364:
 12160 1768 65646974 		.ascii	"editing\000"
 12160      696E6700 
 12161              	.LASF385:
ARM GAS  C:\Users\haske\AppData\Local\Temp\ccOknJt1.s 			page 256


 12162 1770 70687973 		.ascii	"physical_hor_res\000"
 12162      6963616C 
 12162      5F686F72 
 12162      5F726573 
 12162      00
 12163              	.LASF376:
 12164 1781 73697A65 		.ascii	"size\000"
 12164      00
 12165              	.LASF308:
 12166 1786 6D61785F 		.ascii	"max_row_with_no_alpha\000"
 12166      726F775F 
 12166      77697468 
 12166      5F6E6F5F 
 12166      616C7068 
 12167              	.LASF13:
 12168 179c 6C6F6E67 		.ascii	"long long unsigned int\000"
 12168      206C6F6E 
 12168      6720756E 
 12168      7369676E 
 12168      65642069 
 12169              	.LASF347:
 12170 17b3 7379735F 		.ascii	"sys_layer\000"
 12170      6C617965 
 12170      7200
 12171              	.LASF109:
 12172 17bd 4C565F53 		.ascii	"LV_STYLE_BG_GRAD_STOP\000"
 12172      54594C45 
 12172      5F42475F 
 12172      47524144 
 12172      5F53544F 
 12173              	.LASF120:
 12174 17d3 4C565F53 		.ascii	"LV_STYLE_BORDER_SIDE\000"
 12174      54594C45 
 12174      5F424F52 
 12174      4445525F 
 12174      53494445 
 12175              	.LASF487:
 12176 17e8 6C765F67 		.ascii	"lv_group_focus_cb_t\000"
 12176      726F7570 
 12176      5F666F63 
 12176      75735F63 
 12176      625F7400 
 12177              	.LASF419:
 12178 17fc 5F6C765F 		.ascii	"_lv_obj_class_t\000"
 12178      6F626A5F 
 12178      636C6173 
 12178      735F7400 
 12179              	.LASF264:
 12180 180c 6C765F64 		.ascii	"lv_draw_rect_dsc_t\000"
 12180      7261775F 
 12180      72656374 
 12180      5F647363 
 12180      5F7400
 12181              	.LASF18:
 12182 181f 75696E74 		.ascii	"uint16_t\000"
 12182      31365F74 
 12182      00
ARM GAS  C:\Users\haske\AppData\Local\Temp\ccOknJt1.s 			page 257


 12183              	.LASF529:
 12184 1828 61627566 		.ascii	"abuf\000"
 12184      00
 12185              	.LASF562:
 12186 182d 616E676C 		.ascii	"angle_low\000"
 12186      655F6C6F 
 12186      7700
 12187              	.LASF333:
 12188 1837 6C617374 		.ascii	"last_run\000"
 12188      5F72756E 
 12188      00
 12189              	.LASF204:
 12190 1840 4C565F49 		.ascii	"LV_IMG_CF_RGB565A8\000"
 12190      4D475F43 
 12190      465F5247 
 12190      42353635 
 12190      413800
 12191              	.LASF366:
 12192 1853 77726170 		.ascii	"wrap\000"
 12192      00
 12193              	.LASF43:
 12194 1858 6C765F63 		.ascii	"lv_color_t\000"
 12194      6F6C6F72 
 12194      5F7400
 12195              	.LASF528:
 12196 1863 63627566 		.ascii	"cbuf\000"
 12196      00
 12197              	.LASF317:
 12198 1868 64726177 		.ascii	"draw_letter\000"
 12198      5F6C6574 
 12198      74657200 
 12199              	.LASF184:
 12200 1874 4C565F49 		.ascii	"LV_IMG_CF_UNKNOWN\000"
 12200      4D475F43 
 12200      465F554E 
 12200      4B4E4F57 
 12200      4E00
 12201              	.LASF85:
 12202 1886 4C565F53 		.ascii	"LV_STYLE_WIDTH\000"
 12202      54594C45 
 12202      5F574944 
 12202      544800
 12203              	.LASF517:
 12204 1895 6C765F61 		.ascii	"lv_area_get_height\000"
 12204      7265615F 
 12204      6765745F 
 12204      68656967 
 12204      687400
 12205              	.LASF250:
 12206 18a8 626F7264 		.ascii	"border_width\000"
 12206      65725F77 
 12206      69647468 
 12206      00
 12207              	.LASF86:
 12208 18b5 4C565F53 		.ascii	"LV_STYLE_MIN_WIDTH\000"
 12208      54594C45 
 12208      5F4D494E 
ARM GAS  C:\Users\haske\AppData\Local\Temp\ccOknJt1.s 			page 258


 12208      5F574944 
 12208      544800
 12209              	.LASF68:
 12210 18c8 6C765F74 		.ascii	"lv_text_flag_t\000"
 12210      6578745F 
 12210      666C6167 
 12210      5F7400
 12211              	.LASF127:
 12212 18d7 4C565F53 		.ascii	"LV_STYLE_SHADOW_OFS_X\000"
 12212      54594C45 
 12212      5F534841 
 12212      444F575F 
 12212      4F46535F 
 12213              	.LASF128:
 12214 18ed 4C565F53 		.ascii	"LV_STYLE_SHADOW_OFS_Y\000"
 12214      54594C45 
 12214      5F534841 
 12214      444F575F 
 12214      4F46535F 
 12215              	.LASF557:
 12216 1903 7267625F 		.ascii	"rgb_no_aa\000"
 12216      6E6F5F61 
 12216      6100
 12217              	.LASF28:
 12218 190d 4C565F4F 		.ascii	"LV_OPA_10\000"
 12218      50415F31 
 12218      3000
 12219              	.LASF112:
 12220 1917 4C565F53 		.ascii	"LV_STYLE_BG_IMG_SRC\000"
 12220      54594C45 
 12220      5F42475F 
 12220      494D475F 
 12220      53524300 
 12221              	.LASF188:
 12222 192b 4C565F49 		.ascii	"LV_IMG_CF_TRUE_COLOR\000"
 12222      4D475F43 
 12222      465F5452 
 12222      55455F43 
 12222      4F4C4F52 
 12223              	.LASF145:
 12224 1940 4C565F53 		.ascii	"LV_STYLE_ARC_IMG_SRC\000"
 12224      54594C45 
 12224      5F415243 
 12224      5F494D47 
 12224      5F535243 
 12225              	.LASF177:
 12226 1955 76616C75 		.ascii	"value1\000"
 12226      653100
 12227              	.LASF389:
 12228 195c 64726177 		.ascii	"draw_buf\000"
 12228      5F627566 
 12228      00
 12229              	.LASF332:
 12230 1965 70657269 		.ascii	"period\000"
 12230      6F6400
 12231              	.LASF396:
 12232 196c 726F756E 		.ascii	"rounder_cb\000"
ARM GAS  C:\Users\haske\AppData\Local\Temp\ccOknJt1.s 			page 259


 12232      6465725F 
 12232      636200
 12233              	.LASF275:
 12234 1977 6465636F 		.ascii	"decor\000"
 12234      7200
 12235              	.LASF579:
 12236 197d 2E2E5C2E 		.ascii	"..\\..\\..\\arduinoLCD\\test\\Pain Drain\\libraries"
 12236      2E5C2E2E 
 12236      5C617264 
 12236      75696E6F 
 12236      4C43445C 
 12237 19aa 5C6C7667 		.ascii	"\\lvgl\\src\\draw\\sw\\lv_draw_sw_transform.c\000"
 12237      6C5C7372 
 12237      635C6472 
 12237      61775C73 
 12237      775C6C76 
 12238              	.LASF4:
 12239 19d3 5F5F696E 		.ascii	"__int16_t\000"
 12239      7431365F 
 12239      7400
 12240              	.LASF325:
 12241 19dd 6C617965 		.ascii	"layer_adjust\000"
 12241      725F6164 
 12241      6A757374 
 12241      00
 12242              	.LASF148:
 12243 19ea 4C565F53 		.ascii	"LV_STYLE_TEXT_FONT\000"
 12243      54594C45 
 12243      5F544558 
 12243      545F464F 
 12243      4E5400
 12244              	.LASF479:
 12245 19fd 4C565F45 		.ascii	"LV_EVENT_SCREEN_UNLOADED\000"
 12245      56454E54 
 12245      5F534352 
 12245      45454E5F 
 12245      554E4C4F 
 12246              	.LASF171:
 12247 1a16 4C565F53 		.ascii	"LV_STYLE_PROP_ANY\000"
 12247      54594C45 
 12247      5F50524F 
 12247      505F414E 
 12247      5900
 12248              	.LASF41:
 12249 1a28 66756C6C 		.ascii	"full\000"
 12249      00
 12250              	.LASF310:
 12251 1a2d 6C765F64 		.ascii	"lv_draw_layer_ctx_t\000"
 12251      7261775F 
 12251      6C617965 
 12251      725F6374 
 12251      785F7400 
 12252              	.LASF29:
 12253 1a41 4C565F4F 		.ascii	"LV_OPA_20\000"
 12253      50415F32 
 12253      3000
 12254              	.LASF76:
ARM GAS  C:\Users\haske\AppData\Local\Temp\ccOknJt1.s 			page 260


 12255 1a4b 636F6C6F 		.ascii	"color\000"
 12255      7200
 12256              	.LASF551:
 12257 1a51 635F6261 		.ascii	"c_base\000"
 12257      736500
 12258              	.LASF279:
 12259 1a58 7069766F 		.ascii	"pivot\000"
 12259      7400
 12260              	.LASF79:
 12261 1a5e 73746F70 		.ascii	"stops\000"
 12261      7300
 12262              	.LASF540:
 12263 1a64 796F7574 		.ascii	"yout\000"
 12263      00
 12264              	.LASF270:
 12265 1a69 6C696E65 		.ascii	"line_space\000"
 12265      5F737061 
 12265      636500
 12266              	.LASF326:
 12267 1a74 6C617965 		.ascii	"layer_blend\000"
 12267      725F626C 
 12267      656E6400 
 12268              	.LASF521:
 12269 1a80 7372635F 		.ascii	"src_h\000"
 12269      6800
 12270              	.LASF520:
 12271 1a86 7372635F 		.ascii	"src_w\000"
 12271      7700
 12272              	.LASF422:
 12273 1a8c 64657374 		.ascii	"destructor_cb\000"
 12273      72756374 
 12273      6F725F63 
 12273      6200
 12274              	.LASF73:
 12275 1a9a 6C765F62 		.ascii	"lv_border_side_t\000"
 12275      6F726465 
 12275      725F7369 
 12275      64655F74 
 12275      00
 12276              	.LASF77:
 12277 1aab 66726163 		.ascii	"frac\000"
 12277      00
 12278              	.LASF224:
 12279 1ab0 5F6C765F 		.ascii	"_lv_obj_t\000"
 12279      6F626A5F 
 12279      7400
 12280              	.LASF265:
 12281 1aba 666F6E74 		.ascii	"font\000"
 12281      00
 12282              	.LASF271:
 12283 1abf 6C657474 		.ascii	"letter_space\000"
 12283      65725F73 
 12283      70616365 
 12283      00
 12284              	.LASF90:
 12285 1acc 4C565F53 		.ascii	"LV_STYLE_MAX_HEIGHT\000"
 12285      54594C45 
ARM GAS  C:\Users\haske\AppData\Local\Temp\ccOknJt1.s 			page 261


 12285      5F4D4158 
 12285      5F484549 
 12285      47485400 
 12286              	.LASF30:
 12287 1ae0 4C565F4F 		.ascii	"LV_OPA_30\000"
 12287      50415F33 
 12287      3000
 12288              	.LASF503:
 12289 1aea 5F6C765F 		.ascii	"_lv_theme_t\000"
 12289      7468656D 
 12289      655F7400 
 12290              	.LASF296:
 12291 1af6 6C765F64 		.ascii	"lv_draw_arc_dsc_t\000"
 12291      7261775F 
 12291      6172635F 
 12291      6473635F 
 12291      7400
 12292              	.LASF106:
 12293 1b08 4C565F53 		.ascii	"LV_STYLE_BG_GRAD_COLOR\000"
 12293      54594C45 
 12293      5F42475F 
 12293      47524144 
 12293      5F434F4C 
 12294              	.LASF344:
 12295 1b1f 70726576 		.ascii	"prev_scr\000"
 12295      5F736372 
 12295      00
 12296              	.LASF52:
 12297 1b28 626F785F 		.ascii	"box_h\000"
 12297      6800
 12298              	.LASF509:
 12299 1b2e 795F6F75 		.ascii	"y_out\000"
 12299      7400
 12300              	.LASF245:
 12301 1b34 62675F69 		.ascii	"bg_img_recolor\000"
 12301      6D675F72 
 12301      65636F6C 
 12301      6F7200
 12302              	.LASF42:
 12303 1b43 6C765F63 		.ascii	"lv_color16_t\000"
 12303      6F6C6F72 
 12303      31365F74 
 12303      00
 12304              	.LASF51:
 12305 1b50 626F785F 		.ascii	"box_w\000"
 12305      7700
 12306              	.LASF5:
 12307 1b56 73686F72 		.ascii	"short int\000"
 12307      7420696E 
 12307      7400
 12308              	.LASF59:
 12309 1b60 62617365 		.ascii	"base_line\000"
 12309      5F6C696E 
 12309      6500
 12310              	.LASF355:
 12311 1b6a 696E765F 		.ascii	"inv_p\000"
 12311      7000
ARM GAS  C:\Users\haske\AppData\Local\Temp\ccOknJt1.s 			page 262


 12312              	.LASF371:
 12313 1b70 6C765F6C 		.ascii	"lv_ll_t\000"
 12313      6C5F7400 
 12314              	.LASF582:
 12315 1b78 6C765F66 		.ascii	"lv_font_montserrat_14\000"
 12315      6F6E745F 
 12315      6D6F6E74 
 12315      73657272 
 12315      61745F31 
 12316              	.LASF464:
 12317 1b8e 4C565F45 		.ascii	"LV_EVENT_DRAW_POST_END\000"
 12317      56454E54 
 12317      5F445241 
 12317      575F504F 
 12317      53545F45 
 12318              	.LASF465:
 12319 1ba5 4C565F45 		.ascii	"LV_EVENT_DRAW_PART_BEGIN\000"
 12319      56454E54 
 12319      5F445241 
 12319      575F5041 
 12319      52545F42 
 12320              	.LASF571:
 12321 1bbe 78735F64 		.ascii	"xs_diff\000"
 12321      69666600 
 12322              	.LASF246:
 12323 1bc6 62675F69 		.ascii	"bg_img_opa\000"
 12323      6D675F6F 
 12323      706100
 12324              	.LASF263:
 12325 1bd1 73686164 		.ascii	"shadow_opa\000"
 12325      6F775F6F 
 12325      706100
 12326              	.LASF143:
 12327 1bdc 4C565F53 		.ascii	"LV_STYLE_ARC_COLOR\000"
 12327      54594C45 
 12327      5F415243 
 12327      5F434F4C 
 12327      4F5200
 12328              	.LASF31:
 12329 1bef 4C565F4F 		.ascii	"LV_OPA_40\000"
 12329      50415F34 
 12329      3000
 12330              	.LASF17:
 12331 1bf9 696E7431 		.ascii	"int16_t\000"
 12331      365F7400 
 12332              	.LASF356:
 12333 1c01 696E765F 		.ascii	"inv_en_cnt\000"
 12333      656E5F63 
 12333      6E7400
 12334              	.LASF303:
 12335 1c0c 73637265 		.ascii	"screen_transp\000"
 12335      656E5F74 
 12335      72616E73 
 12335      7000
 12336              	.LASF229:
 12337 1c1a 636F6F72 		.ascii	"coords\000"
 12337      647300
ARM GAS  C:\Users\haske\AppData\Local\Temp\ccOknJt1.s 			page 263


 12338              	.LASF542:
 12339 1c21 6861735F 		.ascii	"has_alpha\000"
 12339      616C7068 
 12339      6100
 12340              	.LASF495:
 12341 1c2b 6578745F 		.ascii	"ext_click_pad\000"
 12341      636C6963 
 12341      6B5F7061 
 12341      6400
 12342              	.LASF170:
 12343 1c39 5F4C565F 		.ascii	"_LV_STYLE_NUM_BUILT_IN_PROPS\000"
 12343      5354594C 
 12343      455F4E55 
 12343      4D5F4255 
 12343      494C545F 
 12344              	.LASF532:
 12345 1c56 78735F69 		.ascii	"xs_int\000"
 12345      6E7400
 12346              	.LASF96:
 12347 1c5d 4C565F53 		.ascii	"LV_STYLE_PAD_TOP\000"
 12347      54594C45 
 12347      5F504144 
 12347      5F544F50 
 12347      00
 12348              	.LASF350:
 12349 1c6e 64656C5F 		.ascii	"del_prev\000"
 12349      70726576 
 12349      00
 12350              	.LASF352:
 12351 1c77 62675F69 		.ascii	"bg_img\000"
 12351      6D6700
 12352              	.LASF113:
 12353 1c7e 4C565F53 		.ascii	"LV_STYLE_BG_IMG_OPA\000"
 12353      54594C45 
 12353      5F42475F 
 12353      494D475F 
 12353      4F504100 
 12354              	.LASF135:
 12355 1c92 4C565F53 		.ascii	"LV_STYLE_LINE_WIDTH\000"
 12355      54594C45 
 12355      5F4C494E 
 12355      455F5749 
 12355      44544800 
 12356              	.LASF32:
 12357 1ca6 4C565F4F 		.ascii	"LV_OPA_50\000"
 12357      50415F35 
 12357      3000
 12358              	.LASF519:
 12359 1cb0 6C765F61 		.ascii	"lv_area_get_width\000"
 12359      7265615F 
 12359      6765745F 
 12359      77696474 
 12359      6800
 12360              	.LASF580:
 12361 1cc2 433A5C50 		.ascii	"C:\\Projects\\PainDrain\\firmware\\PainDrain\\PainD"
 12361      726F6A65 
 12361      6374735C 
ARM GAS  C:\Users\haske\AppData\Local\Temp\ccOknJt1.s 			page 264


 12361      5061696E 
 12361      44726169 
 12362 1cf0 7261696E 		.ascii	"rain.cydsn\000"
 12362      2E637964 
 12362      736E00
 12363              	.LASF180:
 12364 1cfb 70726F70 		.ascii	"prop1\000"
 12364      3100
 12365              	.LASF530:
 12366 1d01 78735F75 		.ascii	"xs_ups_start\000"
 12366      70735F73 
 12366      74617274 
 12366      00
 12367              	.LASF397:
 12368 1d0e 7365745F 		.ascii	"set_px_cb\000"
 12368      70785F63 
 12368      6200
 12369              	.LASF449:
 12370 1d18 4C565F45 		.ascii	"LV_EVENT_SCROLL_END\000"
 12370      56454E54 
 12370      5F534352 
 12370      4F4C4C5F 
 12370      454E4400 
 12371              	.LASF251:
 12372 1d2c 626F7264 		.ascii	"border_opa\000"
 12372      65725F6F 
 12372      706100
 12373              	.LASF89:
 12374 1d37 4C565F53 		.ascii	"LV_STYLE_MIN_HEIGHT\000"
 12374      54594C45 
 12374      5F4D494E 
 12374      5F484549 
 12374      47485400 
 12375              	.LASF454:
 12376 1d4b 4C565F45 		.ascii	"LV_EVENT_DEFOCUSED\000"
 12376      56454E54 
 12376      5F444546 
 12376      4F435553 
 12376      454400
 12377              	.LASF186:
 12378 1d5e 4C565F49 		.ascii	"LV_IMG_CF_RAW_ALPHA\000"
 12378      4D475F43 
 12378      465F5241 
 12378      575F414C 
 12378      50484100 
 12379              	.LASF242:
 12380 1d72 62675F67 		.ascii	"bg_grad\000"
 12380      72616400 
 12381              	.LASF121:
 12382 1d7a 4C565F53 		.ascii	"LV_STYLE_BORDER_POST\000"
 12382      54594C45 
 12382      5F424F52 
 12382      4445525F 
 12382      504F5354 
 12383              	.LASF405:
 12384 1d8f 64726177 		.ascii	"draw_ctx\000"
 12384      5F637478 
ARM GAS  C:\Users\haske\AppData\Local\Temp\ccOknJt1.s 			page 265


 12384      00
 12385              	.LASF316:
 12386 1d98 64726177 		.ascii	"draw_img\000"
 12386      5F696D67 
 12386      00
 12387              	.LASF78:
 12388 1da1 6C765F67 		.ascii	"lv_gradient_stop_t\000"
 12388      72616469 
 12388      656E745F 
 12388      73746F70 
 12388      5F7400
 12389              	.LASF92:
 12390 1db4 4C565F53 		.ascii	"LV_STYLE_Y\000"
 12390      54594C45 
 12390      5F5900
 12391              	.LASF138:
 12392 1dbf 4C565F53 		.ascii	"LV_STYLE_LINE_ROUNDED\000"
 12392      54594C45 
 12392      5F4C494E 
 12392      455F524F 
 12392      554E4445 
 12393              	.LASF33:
 12394 1dd5 4C565F4F 		.ascii	"LV_OPA_60\000"
 12394      50415F36 
 12394      3000
 12395              	.LASF575:
 12396 1ddf 5F6C765F 		.ascii	"_lv_refr_get_disp_refreshing\000"
 12396      72656672 
 12396      5F676574 
 12396      5F646973 
 12396      705F7265 
 12397              	.LASF319:
 12398 1dfc 64726177 		.ascii	"draw_polygon\000"
 12398      5F706F6C 
 12398      79676F6E 
 12398      00
 12399              	.LASF481:
 12400 1e09 4C565F45 		.ascii	"LV_EVENT_STYLE_CHANGED\000"
 12400      56454E54 
 12400      5F535459 
 12400      4C455F43 
 12400      48414E47 
 12401              	.LASF470:
 12402 1e20 4C565F45 		.ascii	"LV_EVENT_READY\000"
 12402      56454E54 
 12402      5F524541 
 12402      445900
 12403              	.LASF266:
 12404 1e2f 73656C5F 		.ascii	"sel_start\000"
 12404      73746172 
 12404      7400
 12405              	.LASF463:
 12406 1e39 4C565F45 		.ascii	"LV_EVENT_DRAW_POST\000"
 12406      56454E54 
 12406      5F445241 
 12406      575F504F 
 12406      535400
ARM GAS  C:\Users\haske\AppData\Local\Temp\ccOknJt1.s 			page 266


 12407              	.LASF20:
 12408 1e4c 75696E74 		.ascii	"uint32_t\000"
 12408      33325F74 
 12408      00
 12409              	.LASF538:
 12410 1e55 7472616E 		.ascii	"transform_point_upscaled\000"
 12410      73666F72 
 12410      6D5F706F 
 12410      696E745F 
 12410      75707363 
 12411              	.LASF510:
 12412 1e6e 73696E6D 		.ascii	"sinma\000"
 12412      6100
 12413              	.LASF411:
 12414 1e74 6C765F6F 		.ascii	"lv_obj_flag_t\000"
 12414      626A5F66 
 12414      6C61675F 
 12414      7400
 12415              	.LASF480:
 12416 1e82 4C565F45 		.ascii	"LV_EVENT_SIZE_CHANGED\000"
 12416      56454E54 
 12416      5F53495A 
 12416      455F4348 
 12416      414E4745 
 12417              	.LASF259:
 12418 1e98 73686164 		.ascii	"shadow_width\000"
 12418      6F775F77 
 12418      69647468 
 12418      00
 12419              	.LASF40:
 12420 1ea5 67726565 		.ascii	"green\000"
 12420      6E00
 12421              	.LASF67:
 12422 1eab 6C765F66 		.ascii	"lv_font_t\000"
 12422      6F6E745F 
 12422      7400
 12423              	.LASF482:
 12424 1eb5 4C565F45 		.ascii	"LV_EVENT_LAYOUT_CHANGED\000"
 12424      56454E54 
 12424      5F4C4159 
 12424      4F55545F 
 12424      4348414E 
 12425              	.LASF81:
 12426 1ecd 64697468 		.ascii	"dither\000"
 12426      657200
 12427              	.LASF34:
 12428 1ed4 4C565F4F 		.ascii	"LV_OPA_70\000"
 12428      50415F37 
 12428      3000
 12429              	.LASF7:
 12430 1ede 73686F72 		.ascii	"short unsigned int\000"
 12430      7420756E 
 12430      7369676E 
 12430      65642069 
 12430      6E7400
 12431              	.LASF452:
 12432 1ef1 4C565F45 		.ascii	"LV_EVENT_KEY\000"
ARM GAS  C:\Users\haske\AppData\Local\Temp\ccOknJt1.s 			page 267


 12432      56454E54 
 12432      5F4B4559 
 12432      00
 12433              	.LASF45:
 12434 1efe 6C765F63 		.ascii	"lv_coord_t\000"
 12434      6F6F7264 
 12434      5F7400
 12435              	.LASF395:
 12436 1f09 666C7573 		.ascii	"flush_cb\000"
 12436      685F6362 
 12436      00
 12437              	.LASF123:
 12438 1f12 4C565F53 		.ascii	"LV_STYLE_OUTLINE_COLOR\000"
 12438      54594C45 
 12438      5F4F5554 
 12438      4C494E45 
 12438      5F434F4C 
 12439              	.LASF64:
 12440 1f29 75736572 		.ascii	"user_data\000"
 12440      5F646174 
 12440      6100
 12441              	.LASF442:
 12442 1f33 4C565F45 		.ascii	"LV_EVENT_PRESS_LOST\000"
 12442      56454E54 
 12442      5F505245 
 12442      53535F4C 
 12442      4F535400 
 12443              	.LASF504:
 12444 1f47 5F6C765F 		.ascii	"_lv_event_dsc_t\000"
 12444      6576656E 
 12444      745F6473 
 12444      635F7400 
 12445              	.LASF129:
 12446 1f57 4C565F53 		.ascii	"LV_STYLE_SHADOW_SPREAD\000"
 12446      54594C45 
 12446      5F534841 
 12446      444F575F 
 12446      53505245 
 12447              	.LASF524:
 12448 1f6e 79735F75 		.ascii	"ys_ups\000"
 12448      707300
 12449              	.LASF446:
 12450 1f75 4C565F45 		.ascii	"LV_EVENT_CLICKED\000"
 12450      56454E54 
 12450      5F434C49 
 12450      434B4544 
 12450      00
 12451              	.LASF56:
 12452 1f86 6765745F 		.ascii	"get_glyph_dsc\000"
 12452      676C7970 
 12452      685F6473 
 12452      6300
 12453              	.LASF8:
 12454 1f94 5F5F696E 		.ascii	"__int32_t\000"
 12454      7433325F 
 12454      7400
 12455              	.LASF415:
ARM GAS  C:\Users\haske\AppData\Local\Temp\ccOknJt1.s 			page 268


 12456 1f9e 73656C65 		.ascii	"selector\000"
 12456      63746F72 
 12456      00
 12457              	.LASF548:
 12458 1fa7 70785F62 		.ascii	"px_base\000"
 12458      61736500 
 12459              	.LASF453:
 12460 1faf 4C565F45 		.ascii	"LV_EVENT_FOCUSED\000"
 12460      56454E54 
 12460      5F464F43 
 12460      55534544 
 12460      00
 12461              	.LASF74:
 12462 1fc0 6C765F67 		.ascii	"lv_grad_dir_t\000"
 12462      7261645F 
 12462      6469725F 
 12462      7400
 12463              	.LASF365:
 12464 1fce 7265666F 		.ascii	"refocus_policy\000"
 12464      6375735F 
 12464      706F6C69 
 12464      637900
 12465              	.LASF382:
 12466 1fdd 5F6C765F 		.ascii	"_lv_disp_drv_t\000"
 12466      64697370 
 12466      5F647276 
 12466      5F7400
 12467              	.LASF35:
 12468 1fec 4C565F4F 		.ascii	"LV_OPA_80\000"
 12468      50415F38 
 12468      3000
 12469              	.LASF526:
 12470 1ff6 79735F73 		.ascii	"ys_step\000"
 12470      74657000 
 12471              	.LASF425:
 12472 1ffe 68656967 		.ascii	"height_def\000"
 12472      68745F64 
 12472      656600
 12473              	.LASF476:
 12474 2009 4C565F45 		.ascii	"LV_EVENT_SCREEN_UNLOAD_START\000"
 12474      56454E54 
 12474      5F534352 
 12474      45454E5F 
 12474      554E4C4F 
 12475              	.LASF401:
 12476 2026 636C6561 		.ascii	"clean_dcache_cb\000"
 12476      6E5F6463 
 12476      61636865 
 12476      5F636200 
 12477              	.LASF268:
 12478 2036 73656C5F 		.ascii	"sel_color\000"
 12478      636F6C6F 
 12478      7200
 12479              	.LASF199:
 12480 2040 4C565F49 		.ascii	"LV_IMG_CF_RGB888\000"
 12480      4D475F43 
 12480      465F5247 
ARM GAS  C:\Users\haske\AppData\Local\Temp\ccOknJt1.s 			page 269


 12480      42383838 
 12480      00
 12481              	.LASF261:
 12482 2051 73686164 		.ascii	"shadow_ofs_y\000"
 12482      6F775F6F 
 12482      66735F79 
 12482      00
 12483              	.LASF434:
 12484 205e 70726576 		.ascii	"prev\000"
 12484      00
 12485              	.LASF82:
 12486 2063 6C765F67 		.ascii	"lv_grad_dsc_t\000"
 12486      7261645F 
 12486      6473635F 
 12486      7400
 12487              	.LASF368:
 12488 2071 6E5F7369 		.ascii	"n_size\000"
 12488      7A6500
 12489              	.LASF549:
 12490 2078 70785F68 		.ascii	"px_hor\000"
 12490      6F7200
 12491              	.LASF358:
 12492 207f 5F6C765F 		.ascii	"_lv_group_t\000"
 12492      67726F75 
 12492      705F7400 
 12493              	.LASF110:
 12494 208b 4C565F53 		.ascii	"LV_STYLE_BG_GRAD\000"
 12494      54594C45 
 12494      5F42475F 
 12494      47524144 
 12494      00
 12495              	.LASF447:
 12496 209c 4C565F45 		.ascii	"LV_EVENT_RELEASED\000"
 12496      56454E54 
 12496      5F52454C 
 12496      45415345 
 12496      4400
 12497              	.LASF55:
 12498 20ae 69735F70 		.ascii	"is_placeholder\000"
 12498      6C616365 
 12498      686F6C64 
 12498      657200
 12499              	.LASF125:
 12500 20bd 4C565F53 		.ascii	"LV_STYLE_OUTLINE_PAD\000"
 12500      54594C45 
 12500      5F4F5554 
 12500      4C494E45 
 12500      5F504144 
 12501              	.LASF36:
 12502 20d2 4C565F4F 		.ascii	"LV_OPA_90\000"
 12502      50415F39 
 12502      3000
 12503              	.LASF360:
 12504 20dc 6F626A5F 		.ascii	"obj_focus\000"
 12504      666F6375 
 12504      7300
 12505              	.LASF149:
ARM GAS  C:\Users\haske\AppData\Local\Temp\ccOknJt1.s 			page 270


 12506 20e6 4C565F53 		.ascii	"LV_STYLE_TEXT_LETTER_SPACE\000"
 12506      54594C45 
 12506      5F544558 
 12506      545F4C45 
 12506      54544552 
 12507              	.LASF501:
 12508 2101 6576656E 		.ascii	"event_dsc_cnt\000"
 12508      745F6473 
 12508      635F636E 
 12508      7400
 12509              		.ident	"GCC: (GNU Tools for ARM Embedded Processors) 5.4.1 20160609 (release) [ARM/embedded-5-bran
