ARM GAS  C:\Users\haske\AppData\Local\Temp\ccDVbnbC.s 			page 1


   1              		.syntax unified
   2              		.cpu cortex-m0plus
   3              		.fpu softvfp
   4              		.eabi_attribute 20, 1
   5              		.eabi_attribute 21, 1
   6              		.eabi_attribute 23, 3
   7              		.eabi_attribute 24, 1
   8              		.eabi_attribute 25, 1
   9              		.eabi_attribute 26, 1
  10              		.eabi_attribute 30, 1
  11              		.eabi_attribute 34, 0
  12              		.eabi_attribute 18, 4
  13              		.thumb
  14              		.syntax unified
  15              		.file	"lv_draw_sw_gradient.c"
  16              		.text
  17              	.Ltext0:
  18              		.cfi_sections	.debug_frame
  19              		.section	.text.compute_key,"ax",%progbits
  20              		.align	2
  21              		.code	16
  22              		.thumb_func
  23              		.type	compute_key, %function
  24              	compute_key:
  25              	.LFB56:
  26              		.file 1 "..\\..\\..\\arduinoLCD\\test\\Pain Drain\\libraries\\lvgl\\src\\draw\\sw\\lv_draw_sw_grad
   1:..\..\..\arduinoLCD\test\Pain Drain\libraries\lvgl\src\draw\sw/lv_draw_sw_gradient.c **** /**
   2:..\..\..\arduinoLCD\test\Pain Drain\libraries\lvgl\src\draw\sw/lv_draw_sw_gradient.c ****  * @file lv_draw_sw_gradient.c
   3:..\..\..\arduinoLCD\test\Pain Drain\libraries\lvgl\src\draw\sw/lv_draw_sw_gradient.c ****  *
   4:..\..\..\arduinoLCD\test\Pain Drain\libraries\lvgl\src\draw\sw/lv_draw_sw_gradient.c ****  */
   5:..\..\..\arduinoLCD\test\Pain Drain\libraries\lvgl\src\draw\sw/lv_draw_sw_gradient.c **** 
   6:..\..\..\arduinoLCD\test\Pain Drain\libraries\lvgl\src\draw\sw/lv_draw_sw_gradient.c **** /*********************
   7:..\..\..\arduinoLCD\test\Pain Drain\libraries\lvgl\src\draw\sw/lv_draw_sw_gradient.c ****  *      INCLUDES
   8:..\..\..\arduinoLCD\test\Pain Drain\libraries\lvgl\src\draw\sw/lv_draw_sw_gradient.c ****  *********************/
   9:..\..\..\arduinoLCD\test\Pain Drain\libraries\lvgl\src\draw\sw/lv_draw_sw_gradient.c **** #include "lv_draw_sw_gradient.h"
  10:..\..\..\arduinoLCD\test\Pain Drain\libraries\lvgl\src\draw\sw/lv_draw_sw_gradient.c **** #include "../../misc/lv_gc.h"
  11:..\..\..\arduinoLCD\test\Pain Drain\libraries\lvgl\src\draw\sw/lv_draw_sw_gradient.c **** #include "../../misc/lv_types.h"
  12:..\..\..\arduinoLCD\test\Pain Drain\libraries\lvgl\src\draw\sw/lv_draw_sw_gradient.c **** 
  13:..\..\..\arduinoLCD\test\Pain Drain\libraries\lvgl\src\draw\sw/lv_draw_sw_gradient.c **** /*********************
  14:..\..\..\arduinoLCD\test\Pain Drain\libraries\lvgl\src\draw\sw/lv_draw_sw_gradient.c ****  *      DEFINES
  15:..\..\..\arduinoLCD\test\Pain Drain\libraries\lvgl\src\draw\sw/lv_draw_sw_gradient.c ****  *********************/
  16:..\..\..\arduinoLCD\test\Pain Drain\libraries\lvgl\src\draw\sw/lv_draw_sw_gradient.c **** #if _DITHER_GRADIENT
  17:..\..\..\arduinoLCD\test\Pain Drain\libraries\lvgl\src\draw\sw/lv_draw_sw_gradient.c ****     #define GRAD_CM(r,g,b) LV_COLOR_MAKE32(r,g,b)
  18:..\..\..\arduinoLCD\test\Pain Drain\libraries\lvgl\src\draw\sw/lv_draw_sw_gradient.c ****     #define GRAD_CONV(t, x) t.full = lv_color_to32(x)
  19:..\..\..\arduinoLCD\test\Pain Drain\libraries\lvgl\src\draw\sw/lv_draw_sw_gradient.c **** #else
  20:..\..\..\arduinoLCD\test\Pain Drain\libraries\lvgl\src\draw\sw/lv_draw_sw_gradient.c ****     #define GRAD_CM(r,g,b) LV_COLOR_MAKE(r,g,b)
  21:..\..\..\arduinoLCD\test\Pain Drain\libraries\lvgl\src\draw\sw/lv_draw_sw_gradient.c ****     #define GRAD_CONV(t, x) t = x
  22:..\..\..\arduinoLCD\test\Pain Drain\libraries\lvgl\src\draw\sw/lv_draw_sw_gradient.c **** #endif
  23:..\..\..\arduinoLCD\test\Pain Drain\libraries\lvgl\src\draw\sw/lv_draw_sw_gradient.c **** 
  24:..\..\..\arduinoLCD\test\Pain Drain\libraries\lvgl\src\draw\sw/lv_draw_sw_gradient.c **** #undef ALIGN
  25:..\..\..\arduinoLCD\test\Pain Drain\libraries\lvgl\src\draw\sw/lv_draw_sw_gradient.c **** #if defined(LV_ARCH_64)
  26:..\..\..\arduinoLCD\test\Pain Drain\libraries\lvgl\src\draw\sw/lv_draw_sw_gradient.c ****     #define ALIGN(X)    (((X) + 7) & ~7)
  27:..\..\..\arduinoLCD\test\Pain Drain\libraries\lvgl\src\draw\sw/lv_draw_sw_gradient.c **** #else
  28:..\..\..\arduinoLCD\test\Pain Drain\libraries\lvgl\src\draw\sw/lv_draw_sw_gradient.c ****     #define ALIGN(X)    (((X) + 3) & ~3)
  29:..\..\..\arduinoLCD\test\Pain Drain\libraries\lvgl\src\draw\sw/lv_draw_sw_gradient.c **** #endif
  30:..\..\..\arduinoLCD\test\Pain Drain\libraries\lvgl\src\draw\sw/lv_draw_sw_gradient.c **** 
  31:..\..\..\arduinoLCD\test\Pain Drain\libraries\lvgl\src\draw\sw/lv_draw_sw_gradient.c **** #if LV_GRAD_CACHE_DEF_SIZE != 0 && LV_GRAD_CACHE_DEF_SIZE < 256
ARM GAS  C:\Users\haske\AppData\Local\Temp\ccDVbnbC.s 			page 2


  32:..\..\..\arduinoLCD\test\Pain Drain\libraries\lvgl\src\draw\sw/lv_draw_sw_gradient.c ****     #error "LV_GRAD_CACHE_DEF_SIZE is too small"
  33:..\..\..\arduinoLCD\test\Pain Drain\libraries\lvgl\src\draw\sw/lv_draw_sw_gradient.c **** #endif
  34:..\..\..\arduinoLCD\test\Pain Drain\libraries\lvgl\src\draw\sw/lv_draw_sw_gradient.c **** 
  35:..\..\..\arduinoLCD\test\Pain Drain\libraries\lvgl\src\draw\sw/lv_draw_sw_gradient.c **** /**********************
  36:..\..\..\arduinoLCD\test\Pain Drain\libraries\lvgl\src\draw\sw/lv_draw_sw_gradient.c ****  *  STATIC PROTOTYPES
  37:..\..\..\arduinoLCD\test\Pain Drain\libraries\lvgl\src\draw\sw/lv_draw_sw_gradient.c ****  **********************/
  38:..\..\..\arduinoLCD\test\Pain Drain\libraries\lvgl\src\draw\sw/lv_draw_sw_gradient.c **** static lv_grad_t * next_in_cache(lv_grad_t * item);
  39:..\..\..\arduinoLCD\test\Pain Drain\libraries\lvgl\src\draw\sw/lv_draw_sw_gradient.c **** 
  40:..\..\..\arduinoLCD\test\Pain Drain\libraries\lvgl\src\draw\sw/lv_draw_sw_gradient.c **** typedef lv_res_t (*op_cache_t)(lv_grad_t * c, void * ctx);
  41:..\..\..\arduinoLCD\test\Pain Drain\libraries\lvgl\src\draw\sw/lv_draw_sw_gradient.c **** static lv_res_t iterate_cache(op_cache_t func, void * ctx, lv_grad_t ** out);
  42:..\..\..\arduinoLCD\test\Pain Drain\libraries\lvgl\src\draw\sw/lv_draw_sw_gradient.c **** static size_t get_cache_item_size(lv_grad_t * c);
  43:..\..\..\arduinoLCD\test\Pain Drain\libraries\lvgl\src\draw\sw/lv_draw_sw_gradient.c **** static lv_grad_t * allocate_item(const lv_grad_dsc_t * g, lv_coord_t w, lv_coord_t h);
  44:..\..\..\arduinoLCD\test\Pain Drain\libraries\lvgl\src\draw\sw/lv_draw_sw_gradient.c **** static lv_res_t find_oldest_item_life(lv_grad_t * c, void * ctx);
  45:..\..\..\arduinoLCD\test\Pain Drain\libraries\lvgl\src\draw\sw/lv_draw_sw_gradient.c **** static lv_res_t kill_oldest_item(lv_grad_t * c, void * ctx);
  46:..\..\..\arduinoLCD\test\Pain Drain\libraries\lvgl\src\draw\sw/lv_draw_sw_gradient.c **** static lv_res_t find_item(lv_grad_t * c, void * ctx);
  47:..\..\..\arduinoLCD\test\Pain Drain\libraries\lvgl\src\draw\sw/lv_draw_sw_gradient.c **** static void free_item(lv_grad_t * c);
  48:..\..\..\arduinoLCD\test\Pain Drain\libraries\lvgl\src\draw\sw/lv_draw_sw_gradient.c **** static  uint32_t compute_key(const lv_grad_dsc_t * g, lv_coord_t w, lv_coord_t h);
  49:..\..\..\arduinoLCD\test\Pain Drain\libraries\lvgl\src\draw\sw/lv_draw_sw_gradient.c **** 
  50:..\..\..\arduinoLCD\test\Pain Drain\libraries\lvgl\src\draw\sw/lv_draw_sw_gradient.c **** 
  51:..\..\..\arduinoLCD\test\Pain Drain\libraries\lvgl\src\draw\sw/lv_draw_sw_gradient.c **** /**********************
  52:..\..\..\arduinoLCD\test\Pain Drain\libraries\lvgl\src\draw\sw/lv_draw_sw_gradient.c ****  *   STATIC VARIABLE
  53:..\..\..\arduinoLCD\test\Pain Drain\libraries\lvgl\src\draw\sw/lv_draw_sw_gradient.c ****  **********************/
  54:..\..\..\arduinoLCD\test\Pain Drain\libraries\lvgl\src\draw\sw/lv_draw_sw_gradient.c **** static size_t    grad_cache_size = 0;
  55:..\..\..\arduinoLCD\test\Pain Drain\libraries\lvgl\src\draw\sw/lv_draw_sw_gradient.c **** static uint8_t * grad_cache_end = 0;
  56:..\..\..\arduinoLCD\test\Pain Drain\libraries\lvgl\src\draw\sw/lv_draw_sw_gradient.c **** 
  57:..\..\..\arduinoLCD\test\Pain Drain\libraries\lvgl\src\draw\sw/lv_draw_sw_gradient.c **** /**********************
  58:..\..\..\arduinoLCD\test\Pain Drain\libraries\lvgl\src\draw\sw/lv_draw_sw_gradient.c ****  *   STATIC FUNCTIONS
  59:..\..\..\arduinoLCD\test\Pain Drain\libraries\lvgl\src\draw\sw/lv_draw_sw_gradient.c ****  **********************/
  60:..\..\..\arduinoLCD\test\Pain Drain\libraries\lvgl\src\draw\sw/lv_draw_sw_gradient.c **** union void_cast {
  61:..\..\..\arduinoLCD\test\Pain Drain\libraries\lvgl\src\draw\sw/lv_draw_sw_gradient.c ****     const void * ptr;
  62:..\..\..\arduinoLCD\test\Pain Drain\libraries\lvgl\src\draw\sw/lv_draw_sw_gradient.c ****     const uint32_t value;
  63:..\..\..\arduinoLCD\test\Pain Drain\libraries\lvgl\src\draw\sw/lv_draw_sw_gradient.c **** };
  64:..\..\..\arduinoLCD\test\Pain Drain\libraries\lvgl\src\draw\sw/lv_draw_sw_gradient.c **** 
  65:..\..\..\arduinoLCD\test\Pain Drain\libraries\lvgl\src\draw\sw/lv_draw_sw_gradient.c **** static uint32_t compute_key(const lv_grad_dsc_t * g, lv_coord_t size, lv_coord_t w)
  66:..\..\..\arduinoLCD\test\Pain Drain\libraries\lvgl\src\draw\sw/lv_draw_sw_gradient.c **** {
  27              		.loc 1 66 0
  28              		.cfi_startproc
  29              		@ args = 0, pretend = 0, frame = 0
  30              		@ frame_needed = 0, uses_anonymous_args = 0
  31              		@ link register save eliminated.
  32              	.LVL0:
  67:..\..\..\arduinoLCD\test\Pain Drain\libraries\lvgl\src\draw\sw/lv_draw_sw_gradient.c ****     union void_cast v;
  68:..\..\..\arduinoLCD\test\Pain Drain\libraries\lvgl\src\draw\sw/lv_draw_sw_gradient.c ****     v.ptr = g;
  69:..\..\..\arduinoLCD\test\Pain Drain\libraries\lvgl\src\draw\sw/lv_draw_sw_gradient.c ****     return (v.value ^ size ^ (w >> 1)); /*Yes, this is correct, it's like a hash that changes if th
  33              		.loc 1 69 0
  34 0000 4840     		eors	r0, r1
  35              	.LVL1:
  36 0002 5210     		asrs	r2, r2, #1
  37              	.LVL2:
  38 0004 5040     		eors	r0, r2
  70:..\..\..\arduinoLCD\test\Pain Drain\libraries\lvgl\src\draw\sw/lv_draw_sw_gradient.c **** }
  39              		.loc 1 70 0
  40              		@ sp needed
  41 0006 7047     		bx	lr
  42              		.cfi_endproc
  43              	.LFE56:
  44              		.size	compute_key, .-compute_key
ARM GAS  C:\Users\haske\AppData\Local\Temp\ccDVbnbC.s 			page 3


  45              		.section	.text.get_cache_item_size,"ax",%progbits
  46              		.align	2
  47              		.code	16
  48              		.thumb_func
  49              		.type	get_cache_item_size, %function
  50              	get_cache_item_size:
  51              	.LFB57:
  71:..\..\..\arduinoLCD\test\Pain Drain\libraries\lvgl\src\draw\sw/lv_draw_sw_gradient.c **** 
  72:..\..\..\arduinoLCD\test\Pain Drain\libraries\lvgl\src\draw\sw/lv_draw_sw_gradient.c **** static size_t get_cache_item_size(lv_grad_t * c)
  73:..\..\..\arduinoLCD\test\Pain Drain\libraries\lvgl\src\draw\sw/lv_draw_sw_gradient.c **** {
  52              		.loc 1 73 0
  53              		.cfi_startproc
  54              		@ args = 0, pretend = 0, frame = 0
  55              		@ frame_needed = 0, uses_anonymous_args = 0
  56              		@ link register save eliminated.
  57              	.LVL3:
  74:..\..\..\arduinoLCD\test\Pain Drain\libraries\lvgl\src\draw\sw/lv_draw_sw_gradient.c ****     size_t s = ALIGN(sizeof(*c)) + ALIGN(c->alloc_size * sizeof(lv_color_t));
  58              		.loc 1 74 0
  59 0000 0C23     		movs	r3, #12
  60 0002 C05E     		ldrsh	r0, [r0, r3]
  61              	.LVL4:
  62 0004 4000     		lsls	r0, r0, #1
  63 0006 0330     		adds	r0, r0, #3
  64 0008 0323     		movs	r3, #3
  65 000a 9843     		bics	r0, r3
  66 000c 1030     		adds	r0, r0, #16
  67              	.LVL5:
  75:..\..\..\arduinoLCD\test\Pain Drain\libraries\lvgl\src\draw\sw/lv_draw_sw_gradient.c **** #if _DITHER_GRADIENT
  76:..\..\..\arduinoLCD\test\Pain Drain\libraries\lvgl\src\draw\sw/lv_draw_sw_gradient.c ****     s += ALIGN(c->size * sizeof(lv_color32_t));
  77:..\..\..\arduinoLCD\test\Pain Drain\libraries\lvgl\src\draw\sw/lv_draw_sw_gradient.c **** #if LV_DITHER_ERROR_DIFFUSION == 1
  78:..\..\..\arduinoLCD\test\Pain Drain\libraries\lvgl\src\draw\sw/lv_draw_sw_gradient.c ****     s += ALIGN(c->w * sizeof(lv_scolor24_t));
  79:..\..\..\arduinoLCD\test\Pain Drain\libraries\lvgl\src\draw\sw/lv_draw_sw_gradient.c **** #endif
  80:..\..\..\arduinoLCD\test\Pain Drain\libraries\lvgl\src\draw\sw/lv_draw_sw_gradient.c **** #endif
  81:..\..\..\arduinoLCD\test\Pain Drain\libraries\lvgl\src\draw\sw/lv_draw_sw_gradient.c ****     return s;
  82:..\..\..\arduinoLCD\test\Pain Drain\libraries\lvgl\src\draw\sw/lv_draw_sw_gradient.c **** }
  68              		.loc 1 82 0
  69              		@ sp needed
  70 000e 7047     		bx	lr
  71              		.cfi_endproc
  72              	.LFE57:
  73              		.size	get_cache_item_size, .-get_cache_item_size
  74              		.section	.text.next_in_cache,"ax",%progbits
  75              		.align	2
  76              		.code	16
  77              		.thumb_func
  78              		.type	next_in_cache, %function
  79              	next_in_cache:
  80              	.LFB58:
  83:..\..\..\arduinoLCD\test\Pain Drain\libraries\lvgl\src\draw\sw/lv_draw_sw_gradient.c **** 
  84:..\..\..\arduinoLCD\test\Pain Drain\libraries\lvgl\src\draw\sw/lv_draw_sw_gradient.c **** static lv_grad_t * next_in_cache(lv_grad_t * item)
  85:..\..\..\arduinoLCD\test\Pain Drain\libraries\lvgl\src\draw\sw/lv_draw_sw_gradient.c **** {
  81              		.loc 1 85 0
  82              		.cfi_startproc
  83              		@ args = 0, pretend = 0, frame = 0
  84              		@ frame_needed = 0, uses_anonymous_args = 0
  85              	.LVL6:
  86 0000 10B5     		push	{r4, lr}
ARM GAS  C:\Users\haske\AppData\Local\Temp\ccDVbnbC.s 			page 4


  87              		.cfi_def_cfa_offset 8
  88              		.cfi_offset 4, -8
  89              		.cfi_offset 14, -4
  90 0002 0400     		movs	r4, r0
  86:..\..\..\arduinoLCD\test\Pain Drain\libraries\lvgl\src\draw\sw/lv_draw_sw_gradient.c ****     if(grad_cache_size == 0) return NULL;
  91              		.loc 1 86 0
  92 0004 094B     		ldr	r3, .L8
  93 0006 1B68     		ldr	r3, [r3]
  94 0008 002B     		cmp	r3, #0
  95 000a 0DD0     		beq	.L6
  87:..\..\..\arduinoLCD\test\Pain Drain\libraries\lvgl\src\draw\sw/lv_draw_sw_gradient.c **** 
  88:..\..\..\arduinoLCD\test\Pain Drain\libraries\lvgl\src\draw\sw/lv_draw_sw_gradient.c ****     if(item == NULL)
  96              		.loc 1 88 0
  97 000c 0028     		cmp	r0, #0
  98 000e 02D1     		bne	.L5
  89:..\..\..\arduinoLCD\test\Pain Drain\libraries\lvgl\src\draw\sw/lv_draw_sw_gradient.c ****         return (lv_grad_t *)LV_GC_ROOT(_lv_grad_cache_mem);
  99              		.loc 1 89 0
 100 0010 074B     		ldr	r3, .L8+4
 101 0012 1868     		ldr	r0, [r3]
 102              	.LVL7:
 103 0014 09E0     		b	.L4
 104              	.LVL8:
 105              	.L5:
  90:..\..\..\arduinoLCD\test\Pain Drain\libraries\lvgl\src\draw\sw/lv_draw_sw_gradient.c **** 
  91:..\..\..\arduinoLCD\test\Pain Drain\libraries\lvgl\src\draw\sw/lv_draw_sw_gradient.c ****     size_t s = get_cache_item_size(item);
 106              		.loc 1 91 0
 107 0016 FFF7FEFF 		bl	get_cache_item_size
 108              	.LVL9:
  92:..\..\..\arduinoLCD\test\Pain Drain\libraries\lvgl\src\draw\sw/lv_draw_sw_gradient.c ****     /*Compute the size for this cache item*/
  93:..\..\..\arduinoLCD\test\Pain Drain\libraries\lvgl\src\draw\sw/lv_draw_sw_gradient.c ****     if((uint8_t *)item + s >= grad_cache_end) return NULL;
 109              		.loc 1 93 0
 110 001a 2018     		adds	r0, r4, r0
 111              	.LVL10:
 112 001c 034B     		ldr	r3, .L8
 113 001e 5B68     		ldr	r3, [r3, #4]
 114 0020 9842     		cmp	r0, r3
 115 0022 02D3     		bcc	.L4
 116 0024 0020     		movs	r0, #0
 117 0026 00E0     		b	.L4
 118              	.LVL11:
 119              	.L6:
  86:..\..\..\arduinoLCD\test\Pain Drain\libraries\lvgl\src\draw\sw/lv_draw_sw_gradient.c **** 
 120              		.loc 1 86 0
 121 0028 0020     		movs	r0, #0
 122              	.LVL12:
 123              	.L4:
  94:..\..\..\arduinoLCD\test\Pain Drain\libraries\lvgl\src\draw\sw/lv_draw_sw_gradient.c ****     else return (lv_grad_t *)((uint8_t *)item + s);
  95:..\..\..\arduinoLCD\test\Pain Drain\libraries\lvgl\src\draw\sw/lv_draw_sw_gradient.c **** }
 124              		.loc 1 95 0
 125              		@ sp needed
 126              	.LVL13:
 127 002a 10BD     		pop	{r4, pc}
 128              	.L9:
 129              		.align	2
 130              	.L8:
 131 002c 00000000 		.word	.LANCHOR0
 132 0030 00000000 		.word	_lv_grad_cache_mem
ARM GAS  C:\Users\haske\AppData\Local\Temp\ccDVbnbC.s 			page 5


 133              		.cfi_endproc
 134              	.LFE58:
 135              		.size	next_in_cache, .-next_in_cache
 136              		.section	.text.iterate_cache,"ax",%progbits
 137              		.align	2
 138              		.code	16
 139              		.thumb_func
 140              		.type	iterate_cache, %function
 141              	iterate_cache:
 142              	.LFB59:
  96:..\..\..\arduinoLCD\test\Pain Drain\libraries\lvgl\src\draw\sw/lv_draw_sw_gradient.c **** 
  97:..\..\..\arduinoLCD\test\Pain Drain\libraries\lvgl\src\draw\sw/lv_draw_sw_gradient.c **** static lv_res_t iterate_cache(op_cache_t func, void * ctx, lv_grad_t ** out)
  98:..\..\..\arduinoLCD\test\Pain Drain\libraries\lvgl\src\draw\sw/lv_draw_sw_gradient.c **** {
 143              		.loc 1 98 0
 144              		.cfi_startproc
 145              		@ args = 0, pretend = 0, frame = 0
 146              		@ frame_needed = 0, uses_anonymous_args = 0
 147              	.LVL14:
 148 0000 F8B5     		push	{r3, r4, r5, r6, r7, lr}
 149              		.cfi_def_cfa_offset 24
 150              		.cfi_offset 3, -24
 151              		.cfi_offset 4, -20
 152              		.cfi_offset 5, -16
 153              		.cfi_offset 6, -12
 154              		.cfi_offset 7, -8
 155              		.cfi_offset 14, -4
 156 0002 0600     		movs	r6, r0
 157 0004 0D00     		movs	r5, r1
 158 0006 1700     		movs	r7, r2
  99:..\..\..\arduinoLCD\test\Pain Drain\libraries\lvgl\src\draw\sw/lv_draw_sw_gradient.c ****     lv_grad_t * first = next_in_cache(NULL);
 159              		.loc 1 99 0
 160 0008 0020     		movs	r0, #0
 161              	.LVL15:
 162 000a FFF7FEFF 		bl	next_in_cache
 163              	.LVL16:
 164 000e 0400     		movs	r4, r0
 165              	.LVL17:
 100:..\..\..\arduinoLCD\test\Pain Drain\libraries\lvgl\src\draw\sw/lv_draw_sw_gradient.c ****     while(first != NULL && first->life) {
 166              		.loc 1 100 0
 167 0010 0CE0     		b	.L11
 168              	.L14:
 101:..\..\..\arduinoLCD\test\Pain Drain\libraries\lvgl\src\draw\sw/lv_draw_sw_gradient.c ****         if((*func)(first, ctx) == LV_RES_OK) {
 169              		.loc 1 101 0
 170 0012 2900     		movs	r1, r5
 171 0014 2000     		movs	r0, r4
 172              	.LVL18:
 173 0016 B047     		blx	r6
 174              	.LVL19:
 175 0018 0128     		cmp	r0, #1
 176 001a 03D1     		bne	.L12
 102:..\..\..\arduinoLCD\test\Pain Drain\libraries\lvgl\src\draw\sw/lv_draw_sw_gradient.c ****             if(out != NULL) *out = first;
 177              		.loc 1 102 0
 178 001c 002F     		cmp	r7, #0
 179 001e 0DD0     		beq	.L13
 180              		.loc 1 102 0 is_stmt 0 discriminator 1
 181 0020 3C60     		str	r4, [r7]
 182 0022 0BE0     		b	.L13
ARM GAS  C:\Users\haske\AppData\Local\Temp\ccDVbnbC.s 			page 6


 183              	.L12:
 103:..\..\..\arduinoLCD\test\Pain Drain\libraries\lvgl\src\draw\sw/lv_draw_sw_gradient.c ****             return LV_RES_OK;
 104:..\..\..\arduinoLCD\test\Pain Drain\libraries\lvgl\src\draw\sw/lv_draw_sw_gradient.c ****         }
 105:..\..\..\arduinoLCD\test\Pain Drain\libraries\lvgl\src\draw\sw/lv_draw_sw_gradient.c ****         first = next_in_cache(first);
 184              		.loc 1 105 0 is_stmt 1
 185 0024 2000     		movs	r0, r4
 186 0026 FFF7FEFF 		bl	next_in_cache
 187              	.LVL20:
 188 002a 0400     		movs	r4, r0
 189              	.LVL21:
 190              	.L11:
 100:..\..\..\arduinoLCD\test\Pain Drain\libraries\lvgl\src\draw\sw/lv_draw_sw_gradient.c ****         if((*func)(first, ctx) == LV_RES_OK) {
 191              		.loc 1 100 0
 192 002c 002C     		cmp	r4, #0
 193 002e 04D0     		beq	.L15
 100:..\..\..\arduinoLCD\test\Pain Drain\libraries\lvgl\src\draw\sw/lv_draw_sw_gradient.c ****         if((*func)(first, ctx) == LV_RES_OK) {
 194              		.loc 1 100 0 is_stmt 0 discriminator 1
 195 0030 6368     		ldr	r3, [r4, #4]
 196 0032 9B00     		lsls	r3, r3, #2
 197 0034 EDD1     		bne	.L14
 106:..\..\..\arduinoLCD\test\Pain Drain\libraries\lvgl\src\draw\sw/lv_draw_sw_gradient.c ****     }
 107:..\..\..\arduinoLCD\test\Pain Drain\libraries\lvgl\src\draw\sw/lv_draw_sw_gradient.c ****     return LV_RES_INV;
 198              		.loc 1 107 0 is_stmt 1
 199 0036 0020     		movs	r0, #0
 200              	.LVL22:
 201 0038 00E0     		b	.L13
 202              	.LVL23:
 203              	.L15:
 204 003a 0020     		movs	r0, #0
 205              	.LVL24:
 206              	.L13:
 108:..\..\..\arduinoLCD\test\Pain Drain\libraries\lvgl\src\draw\sw/lv_draw_sw_gradient.c **** }
 207              		.loc 1 108 0
 208              		@ sp needed
 209              	.LVL25:
 210              	.LVL26:
 211              	.LVL27:
 212              	.LVL28:
 213 003c F8BD     		pop	{r3, r4, r5, r6, r7, pc}
 214              		.cfi_endproc
 215              	.LFE59:
 216              		.size	iterate_cache, .-iterate_cache
 217 003e C046     		.section	.text.find_oldest_item_life,"ax",%progbits
 218              		.align	2
 219              		.code	16
 220              		.thumb_func
 221              		.type	find_oldest_item_life, %function
 222              	find_oldest_item_life:
 223              	.LFB60:
 109:..\..\..\arduinoLCD\test\Pain Drain\libraries\lvgl\src\draw\sw/lv_draw_sw_gradient.c **** 
 110:..\..\..\arduinoLCD\test\Pain Drain\libraries\lvgl\src\draw\sw/lv_draw_sw_gradient.c **** static lv_res_t find_oldest_item_life(lv_grad_t * c, void * ctx)
 111:..\..\..\arduinoLCD\test\Pain Drain\libraries\lvgl\src\draw\sw/lv_draw_sw_gradient.c **** {
 224              		.loc 1 111 0
 225              		.cfi_startproc
 226              		@ args = 0, pretend = 0, frame = 0
 227              		@ frame_needed = 0, uses_anonymous_args = 0
 228              		@ link register save eliminated.
ARM GAS  C:\Users\haske\AppData\Local\Temp\ccDVbnbC.s 			page 7


 229              	.LVL29:
 112:..\..\..\arduinoLCD\test\Pain Drain\libraries\lvgl\src\draw\sw/lv_draw_sw_gradient.c ****     uint32_t * min_life = (uint32_t *)ctx;
 113:..\..\..\arduinoLCD\test\Pain Drain\libraries\lvgl\src\draw\sw/lv_draw_sw_gradient.c ****     if(c->life < *min_life) *min_life = c->life;
 230              		.loc 1 113 0
 231 0000 4368     		ldr	r3, [r0, #4]
 232 0002 9B00     		lsls	r3, r3, #2
 233 0004 9B08     		lsrs	r3, r3, #2
 234 0006 0A68     		ldr	r2, [r1]
 235 0008 9342     		cmp	r3, r2
 236 000a 00D2     		bcs	.L17
 237              		.loc 1 113 0 is_stmt 0 discriminator 1
 238 000c 0B60     		str	r3, [r1]
 239              	.L17:
 114:..\..\..\arduinoLCD\test\Pain Drain\libraries\lvgl\src\draw\sw/lv_draw_sw_gradient.c ****     return LV_RES_INV;
 115:..\..\..\arduinoLCD\test\Pain Drain\libraries\lvgl\src\draw\sw/lv_draw_sw_gradient.c **** }
 240              		.loc 1 115 0 is_stmt 1
 241 000e 0020     		movs	r0, #0
 242              	.LVL30:
 243              		@ sp needed
 244 0010 7047     		bx	lr
 245              		.cfi_endproc
 246              	.LFE60:
 247              		.size	find_oldest_item_life, .-find_oldest_item_life
 248 0012 C046     		.section	.text.find_item,"ax",%progbits
 249              		.align	2
 250              		.code	16
 251              		.thumb_func
 252              		.type	find_item, %function
 253              	find_item:
 254              	.LFB63:
 116:..\..\..\arduinoLCD\test\Pain Drain\libraries\lvgl\src\draw\sw/lv_draw_sw_gradient.c **** 
 117:..\..\..\arduinoLCD\test\Pain Drain\libraries\lvgl\src\draw\sw/lv_draw_sw_gradient.c **** static void free_item(lv_grad_t * c)
 118:..\..\..\arduinoLCD\test\Pain Drain\libraries\lvgl\src\draw\sw/lv_draw_sw_gradient.c **** {
 119:..\..\..\arduinoLCD\test\Pain Drain\libraries\lvgl\src\draw\sw/lv_draw_sw_gradient.c ****     size_t size = get_cache_item_size(c);
 120:..\..\..\arduinoLCD\test\Pain Drain\libraries\lvgl\src\draw\sw/lv_draw_sw_gradient.c ****     size_t next_items_size = (size_t)(grad_cache_end - (uint8_t *)c) - size;
 121:..\..\..\arduinoLCD\test\Pain Drain\libraries\lvgl\src\draw\sw/lv_draw_sw_gradient.c ****     grad_cache_end -= size;
 122:..\..\..\arduinoLCD\test\Pain Drain\libraries\lvgl\src\draw\sw/lv_draw_sw_gradient.c ****     if(next_items_size) {
 123:..\..\..\arduinoLCD\test\Pain Drain\libraries\lvgl\src\draw\sw/lv_draw_sw_gradient.c ****         uint8_t * old = (uint8_t *)c;
 124:..\..\..\arduinoLCD\test\Pain Drain\libraries\lvgl\src\draw\sw/lv_draw_sw_gradient.c ****         lv_memcpy(c, ((uint8_t *)c) + size, next_items_size);
 125:..\..\..\arduinoLCD\test\Pain Drain\libraries\lvgl\src\draw\sw/lv_draw_sw_gradient.c ****         /* Then need to fix all internal pointers too */
 126:..\..\..\arduinoLCD\test\Pain Drain\libraries\lvgl\src\draw\sw/lv_draw_sw_gradient.c ****         while((uint8_t *)c != grad_cache_end) {
 127:..\..\..\arduinoLCD\test\Pain Drain\libraries\lvgl\src\draw\sw/lv_draw_sw_gradient.c ****             c->map = (lv_color_t *)(((uint8_t *)c->map) - size);
 128:..\..\..\arduinoLCD\test\Pain Drain\libraries\lvgl\src\draw\sw/lv_draw_sw_gradient.c **** #if _DITHER_GRADIENT
 129:..\..\..\arduinoLCD\test\Pain Drain\libraries\lvgl\src\draw\sw/lv_draw_sw_gradient.c ****             c->hmap = (lv_color32_t *)(((uint8_t *)c->hmap) - size);
 130:..\..\..\arduinoLCD\test\Pain Drain\libraries\lvgl\src\draw\sw/lv_draw_sw_gradient.c **** #if LV_DITHER_ERROR_DIFFUSION == 1
 131:..\..\..\arduinoLCD\test\Pain Drain\libraries\lvgl\src\draw\sw/lv_draw_sw_gradient.c ****             c->error_acc = (lv_scolor24_t *)(((uint8_t *)c->error_acc) - size);
 132:..\..\..\arduinoLCD\test\Pain Drain\libraries\lvgl\src\draw\sw/lv_draw_sw_gradient.c **** #endif
 133:..\..\..\arduinoLCD\test\Pain Drain\libraries\lvgl\src\draw\sw/lv_draw_sw_gradient.c **** #endif
 134:..\..\..\arduinoLCD\test\Pain Drain\libraries\lvgl\src\draw\sw/lv_draw_sw_gradient.c ****             c = (lv_grad_t *)(((uint8_t *)c) + get_cache_item_size(c));
 135:..\..\..\arduinoLCD\test\Pain Drain\libraries\lvgl\src\draw\sw/lv_draw_sw_gradient.c ****         }
 136:..\..\..\arduinoLCD\test\Pain Drain\libraries\lvgl\src\draw\sw/lv_draw_sw_gradient.c ****         lv_memset_00(old + next_items_size, size);
 137:..\..\..\arduinoLCD\test\Pain Drain\libraries\lvgl\src\draw\sw/lv_draw_sw_gradient.c ****     }
 138:..\..\..\arduinoLCD\test\Pain Drain\libraries\lvgl\src\draw\sw/lv_draw_sw_gradient.c **** }
 139:..\..\..\arduinoLCD\test\Pain Drain\libraries\lvgl\src\draw\sw/lv_draw_sw_gradient.c **** 
 140:..\..\..\arduinoLCD\test\Pain Drain\libraries\lvgl\src\draw\sw/lv_draw_sw_gradient.c **** static lv_res_t kill_oldest_item(lv_grad_t * c, void * ctx)
 141:..\..\..\arduinoLCD\test\Pain Drain\libraries\lvgl\src\draw\sw/lv_draw_sw_gradient.c **** {
 142:..\..\..\arduinoLCD\test\Pain Drain\libraries\lvgl\src\draw\sw/lv_draw_sw_gradient.c ****     uint32_t * min_life = (uint32_t *)ctx;
ARM GAS  C:\Users\haske\AppData\Local\Temp\ccDVbnbC.s 			page 8


 143:..\..\..\arduinoLCD\test\Pain Drain\libraries\lvgl\src\draw\sw/lv_draw_sw_gradient.c ****     if(c->life == *min_life) {
 144:..\..\..\arduinoLCD\test\Pain Drain\libraries\lvgl\src\draw\sw/lv_draw_sw_gradient.c ****         /*Found, let's kill it*/
 145:..\..\..\arduinoLCD\test\Pain Drain\libraries\lvgl\src\draw\sw/lv_draw_sw_gradient.c ****         free_item(c);
 146:..\..\..\arduinoLCD\test\Pain Drain\libraries\lvgl\src\draw\sw/lv_draw_sw_gradient.c ****         return LV_RES_OK;
 147:..\..\..\arduinoLCD\test\Pain Drain\libraries\lvgl\src\draw\sw/lv_draw_sw_gradient.c ****     }
 148:..\..\..\arduinoLCD\test\Pain Drain\libraries\lvgl\src\draw\sw/lv_draw_sw_gradient.c ****     return LV_RES_INV;
 149:..\..\..\arduinoLCD\test\Pain Drain\libraries\lvgl\src\draw\sw/lv_draw_sw_gradient.c **** }
 150:..\..\..\arduinoLCD\test\Pain Drain\libraries\lvgl\src\draw\sw/lv_draw_sw_gradient.c **** 
 151:..\..\..\arduinoLCD\test\Pain Drain\libraries\lvgl\src\draw\sw/lv_draw_sw_gradient.c **** static lv_res_t find_item(lv_grad_t * c, void * ctx)
 152:..\..\..\arduinoLCD\test\Pain Drain\libraries\lvgl\src\draw\sw/lv_draw_sw_gradient.c **** {
 255              		.loc 1 152 0
 256              		.cfi_startproc
 257              		@ args = 0, pretend = 0, frame = 0
 258              		@ frame_needed = 0, uses_anonymous_args = 0
 259              		@ link register save eliminated.
 260              	.LVL31:
 153:..\..\..\arduinoLCD\test\Pain Drain\libraries\lvgl\src\draw\sw/lv_draw_sw_gradient.c ****     uint32_t * k = (uint32_t *)ctx;
 154:..\..\..\arduinoLCD\test\Pain Drain\libraries\lvgl\src\draw\sw/lv_draw_sw_gradient.c ****     if(c->key == *k) return LV_RES_OK;
 261              		.loc 1 154 0
 262 0000 0268     		ldr	r2, [r0]
 263 0002 0B68     		ldr	r3, [r1]
 264 0004 9A42     		cmp	r2, r3
 265 0006 01D1     		bne	.L20
 266 0008 0120     		movs	r0, #1
 267              	.LVL32:
 268 000a 00E0     		b	.L19
 269              	.LVL33:
 270              	.L20:
 155:..\..\..\arduinoLCD\test\Pain Drain\libraries\lvgl\src\draw\sw/lv_draw_sw_gradient.c ****     return LV_RES_INV;
 271              		.loc 1 155 0
 272 000c 0020     		movs	r0, #0
 273              	.LVL34:
 274              	.L19:
 156:..\..\..\arduinoLCD\test\Pain Drain\libraries\lvgl\src\draw\sw/lv_draw_sw_gradient.c **** }
 275              		.loc 1 156 0
 276              		@ sp needed
 277 000e 7047     		bx	lr
 278              		.cfi_endproc
 279              	.LFE63:
 280              		.size	find_item, .-find_item
 281              		.section	.text.allocate_item,"ax",%progbits
 282              		.align	2
 283              		.code	16
 284              		.thumb_func
 285              		.type	allocate_item, %function
 286              	allocate_item:
 287              	.LFB64:
 157:..\..\..\arduinoLCD\test\Pain Drain\libraries\lvgl\src\draw\sw/lv_draw_sw_gradient.c **** 
 158:..\..\..\arduinoLCD\test\Pain Drain\libraries\lvgl\src\draw\sw/lv_draw_sw_gradient.c **** static lv_grad_t * allocate_item(const lv_grad_dsc_t * g, lv_coord_t w, lv_coord_t h)
 159:..\..\..\arduinoLCD\test\Pain Drain\libraries\lvgl\src\draw\sw/lv_draw_sw_gradient.c **** {
 288              		.loc 1 159 0
 289              		.cfi_startproc
 290              		@ args = 0, pretend = 0, frame = 16
 291              		@ frame_needed = 0, uses_anonymous_args = 0
 292              	.LVL35:
 293 0000 F0B5     		push	{r4, r5, r6, r7, lr}
 294              		.cfi_def_cfa_offset 20
ARM GAS  C:\Users\haske\AppData\Local\Temp\ccDVbnbC.s 			page 9


 295              		.cfi_offset 4, -20
 296              		.cfi_offset 5, -16
 297              		.cfi_offset 6, -12
 298              		.cfi_offset 7, -8
 299              		.cfi_offset 14, -4
 300 0002 85B0     		sub	sp, sp, #20
 301              		.cfi_def_cfa_offset 40
 302 0004 0190     		str	r0, [sp, #4]
 303 0006 0C00     		movs	r4, r1
 160:..\..\..\arduinoLCD\test\Pain Drain\libraries\lvgl\src\draw\sw/lv_draw_sw_gradient.c ****     lv_coord_t size = g->dir == LV_GRAD_DIR_HOR ? w : h;
 304              		.loc 1 160 0
 305 0008 437A     		ldrb	r3, [r0, #9]
 306 000a 0721     		movs	r1, #7
 307              	.LVL36:
 308 000c 0B40     		ands	r3, r1
 309 000e 022B     		cmp	r3, #2
 310 0010 01D1     		bne	.L33
 311 0012 0094     		str	r4, [sp]
 312 0014 00E0     		b	.L22
 313              	.L33:
 314 0016 0092     		str	r2, [sp]
 315              	.L22:
 316              	.LVL37:
 161:..\..\..\arduinoLCD\test\Pain Drain\libraries\lvgl\src\draw\sw/lv_draw_sw_gradient.c ****     lv_coord_t map_size = LV_MAX(w, h); /* The map is being used horizontally (width) unless
 317              		.loc 1 161 0 discriminator 4
 318 0018 231C     		adds	r3, r4, #0
 319 001a 9442     		cmp	r4, r2
 320 001c 00DA     		bge	.L23
 321 001e 131C     		adds	r3, r2, #0
 322              	.L23:
 323 0020 1EB2     		sxth	r6, r3
 324              	.LVL38:
 162:..\..\..\arduinoLCD\test\Pain Drain\libraries\lvgl\src\draw\sw/lv_draw_sw_gradient.c ****                                            no dithering is selected where it's used vertically */
 163:..\..\..\arduinoLCD\test\Pain Drain\libraries\lvgl\src\draw\sw/lv_draw_sw_gradient.c **** 
 164:..\..\..\arduinoLCD\test\Pain Drain\libraries\lvgl\src\draw\sw/lv_draw_sw_gradient.c ****     size_t req_size = ALIGN(sizeof(lv_grad_t)) + ALIGN(map_size * sizeof(lv_color_t));
 325              		.loc 1 164 0 discriminator 4
 326 0022 7700     		lsls	r7, r6, #1
 327 0024 0337     		adds	r7, r7, #3
 328 0026 0323     		movs	r3, #3
 329              	.LVL39:
 330 0028 9F43     		bics	r7, r3
 331 002a 1037     		adds	r7, r7, #16
 332              	.LVL40:
 165:..\..\..\arduinoLCD\test\Pain Drain\libraries\lvgl\src\draw\sw/lv_draw_sw_gradient.c **** #if _DITHER_GRADIENT
 166:..\..\..\arduinoLCD\test\Pain Drain\libraries\lvgl\src\draw\sw/lv_draw_sw_gradient.c ****     req_size += ALIGN(size * sizeof(lv_color32_t));
 167:..\..\..\arduinoLCD\test\Pain Drain\libraries\lvgl\src\draw\sw/lv_draw_sw_gradient.c **** #if LV_DITHER_ERROR_DIFFUSION == 1
 168:..\..\..\arduinoLCD\test\Pain Drain\libraries\lvgl\src\draw\sw/lv_draw_sw_gradient.c ****     req_size += ALIGN(w * sizeof(lv_scolor24_t));
 169:..\..\..\arduinoLCD\test\Pain Drain\libraries\lvgl\src\draw\sw/lv_draw_sw_gradient.c **** #endif
 170:..\..\..\arduinoLCD\test\Pain Drain\libraries\lvgl\src\draw\sw/lv_draw_sw_gradient.c **** #endif
 171:..\..\..\arduinoLCD\test\Pain Drain\libraries\lvgl\src\draw\sw/lv_draw_sw_gradient.c **** 
 172:..\..\..\arduinoLCD\test\Pain Drain\libraries\lvgl\src\draw\sw/lv_draw_sw_gradient.c ****     size_t act_size = (size_t)(grad_cache_end - LV_GC_ROOT(_lv_grad_cache_mem));
 333              		.loc 1 172 0 discriminator 4
 334 002c 314A     		ldr	r2, .L36
 335              	.LVL41:
 336 002e 5568     		ldr	r5, [r2, #4]
 337 0030 314B     		ldr	r3, .L36+4
 338 0032 1B68     		ldr	r3, [r3]
ARM GAS  C:\Users\haske\AppData\Local\Temp\ccDVbnbC.s 			page 10


 339 0034 EB1A     		subs	r3, r5, r3
 340              	.LVL42:
 173:..\..\..\arduinoLCD\test\Pain Drain\libraries\lvgl\src\draw\sw/lv_draw_sw_gradient.c ****     lv_grad_t * item = NULL;
 174:..\..\..\arduinoLCD\test\Pain Drain\libraries\lvgl\src\draw\sw/lv_draw_sw_gradient.c ****     if(req_size + act_size < grad_cache_size) {
 341              		.loc 1 174 0 discriminator 4
 342 0036 F918     		adds	r1, r7, r3
 343 0038 1268     		ldr	r2, [r2]
 344 003a 9142     		cmp	r1, r2
 345 003c 04D2     		bcs	.L24
 346              	.LVL43:
 175:..\..\..\arduinoLCD\test\Pain Drain\libraries\lvgl\src\draw\sw/lv_draw_sw_gradient.c ****         item = (lv_grad_t *)grad_cache_end;
 176:..\..\..\arduinoLCD\test\Pain Drain\libraries\lvgl\src\draw\sw/lv_draw_sw_gradient.c ****         item->not_cached = 0;
 347              		.loc 1 176 0
 348 003e EB79     		ldrb	r3, [r5, #7]
 349              	.LVL44:
 350 0040 7F22     		movs	r2, #127
 351 0042 1340     		ands	r3, r2
 352 0044 EB71     		strb	r3, [r5, #7]
 353              	.LVL45:
 354 0046 2DE0     		b	.L25
 355              	.LVL46:
 356              	.L24:
 177:..\..\..\arduinoLCD\test\Pain Drain\libraries\lvgl\src\draw\sw/lv_draw_sw_gradient.c ****     }
 178:..\..\..\arduinoLCD\test\Pain Drain\libraries\lvgl\src\draw\sw/lv_draw_sw_gradient.c ****     else {
 179:..\..\..\arduinoLCD\test\Pain Drain\libraries\lvgl\src\draw\sw/lv_draw_sw_gradient.c ****         /*Need to evict items from cache until we find enough space to allocate this one */
 180:..\..\..\arduinoLCD\test\Pain Drain\libraries\lvgl\src\draw\sw/lv_draw_sw_gradient.c ****         if(req_size <= grad_cache_size) {
 357              		.loc 1 180 0
 358 0048 9742     		cmp	r7, r2
 359 004a 12D9     		bls	.L26
 360 004c 1DE0     		b	.L35
 361              	.LVL47:
 362              	.L28:
 363              	.LBB8:
 181:..\..\..\arduinoLCD\test\Pain Drain\libraries\lvgl\src\draw\sw/lv_draw_sw_gradient.c ****             while(act_size + req_size > grad_cache_size) {
 182:..\..\..\arduinoLCD\test\Pain Drain\libraries\lvgl\src\draw\sw/lv_draw_sw_gradient.c ****                 uint32_t oldest_life = UINT32_MAX;
 364              		.loc 1 182 0
 365 004e 0123     		movs	r3, #1
 366 0050 5B42     		rsbs	r3, r3, #0
 367 0052 0393     		str	r3, [sp, #12]
 183:..\..\..\arduinoLCD\test\Pain Drain\libraries\lvgl\src\draw\sw/lv_draw_sw_gradient.c ****                 iterate_cache(&find_oldest_item_life, &oldest_life, NULL);
 368              		.loc 1 183 0
 369 0054 0022     		movs	r2, #0
 370 0056 03A9     		add	r1, sp, #12
 371 0058 2848     		ldr	r0, .L36+8
 372 005a FFF7FEFF 		bl	iterate_cache
 373              	.LVL48:
 184:..\..\..\arduinoLCD\test\Pain Drain\libraries\lvgl\src\draw\sw/lv_draw_sw_gradient.c ****                 iterate_cache(&kill_oldest_item, &oldest_life, NULL);
 374              		.loc 1 184 0
 375 005e 0022     		movs	r2, #0
 376 0060 03A9     		add	r1, sp, #12
 377 0062 2748     		ldr	r0, .L36+12
 378 0064 FFF7FEFF 		bl	iterate_cache
 379              	.LVL49:
 185:..\..\..\arduinoLCD\test\Pain Drain\libraries\lvgl\src\draw\sw/lv_draw_sw_gradient.c ****                 act_size = (size_t)(grad_cache_end - LV_GC_ROOT(_lv_grad_cache_mem));
 380              		.loc 1 185 0
 381 0068 224B     		ldr	r3, .L36
 382 006a 5B68     		ldr	r3, [r3, #4]
ARM GAS  C:\Users\haske\AppData\Local\Temp\ccDVbnbC.s 			page 11


 383 006c 224A     		ldr	r2, .L36+4
 384 006e 1268     		ldr	r2, [r2]
 385 0070 9B1A     		subs	r3, r3, r2
 386              	.LVL50:
 387              	.L26:
 388              	.LBE8:
 181:..\..\..\arduinoLCD\test\Pain Drain\libraries\lvgl\src\draw\sw/lv_draw_sw_gradient.c ****                 uint32_t oldest_life = UINT32_MAX;
 389              		.loc 1 181 0
 390 0072 DB19     		adds	r3, r3, r7
 391              	.LVL51:
 392 0074 1F4A     		ldr	r2, .L36
 393 0076 1268     		ldr	r2, [r2]
 394 0078 9342     		cmp	r3, r2
 395 007a E8D8     		bhi	.L28
 186:..\..\..\arduinoLCD\test\Pain Drain\libraries\lvgl\src\draw\sw/lv_draw_sw_gradient.c ****             }
 187:..\..\..\arduinoLCD\test\Pain Drain\libraries\lvgl\src\draw\sw/lv_draw_sw_gradient.c ****             item = (lv_grad_t *)grad_cache_end;
 396              		.loc 1 187 0
 397 007c 1D4B     		ldr	r3, .L36
 398 007e 5D68     		ldr	r5, [r3, #4]
 399              	.LVL52:
 188:..\..\..\arduinoLCD\test\Pain Drain\libraries\lvgl\src\draw\sw/lv_draw_sw_gradient.c ****             item->not_cached = 0;
 400              		.loc 1 188 0
 401 0080 EB79     		ldrb	r3, [r5, #7]
 402 0082 7F22     		movs	r2, #127
 403 0084 1340     		ands	r3, r2
 404 0086 EB71     		strb	r3, [r5, #7]
 405              	.LVL53:
 406 0088 0CE0     		b	.L25
 407              	.LVL54:
 408              	.L35:
 189:..\..\..\arduinoLCD\test\Pain Drain\libraries\lvgl\src\draw\sw/lv_draw_sw_gradient.c ****         }
 190:..\..\..\arduinoLCD\test\Pain Drain\libraries\lvgl\src\draw\sw/lv_draw_sw_gradient.c ****         else {
 191:..\..\..\arduinoLCD\test\Pain Drain\libraries\lvgl\src\draw\sw/lv_draw_sw_gradient.c ****             /*The cache is too small. Allocate the item manually and free it later.*/
 192:..\..\..\arduinoLCD\test\Pain Drain\libraries\lvgl\src\draw\sw/lv_draw_sw_gradient.c ****             item = lv_mem_alloc(req_size);
 409              		.loc 1 192 0
 410 008a 3800     		movs	r0, r7
 411              	.LVL55:
 412 008c FFF7FEFF 		bl	lv_mem_alloc
 413              	.LVL56:
 414 0090 051E     		subs	r5, r0, #0
 415              	.LVL57:
 193:..\..\..\arduinoLCD\test\Pain Drain\libraries\lvgl\src\draw\sw/lv_draw_sw_gradient.c ****             LV_ASSERT_MALLOC(item);
 416              		.loc 1 193 0
 417 0092 00D1     		bne	.L29
 418              	.L30:
 419 0094 FEE7     		b	.L30
 420              	.L29:
 194:..\..\..\arduinoLCD\test\Pain Drain\libraries\lvgl\src\draw\sw/lv_draw_sw_gradient.c ****             if(item == NULL) return NULL;
 421              		.loc 1 194 0
 422 0096 0028     		cmp	r0, #0
 423 0098 28D0     		beq	.L34
 195:..\..\..\arduinoLCD\test\Pain Drain\libraries\lvgl\src\draw\sw/lv_draw_sw_gradient.c ****             item->not_cached = 1;
 424              		.loc 1 195 0
 425 009a C379     		ldrb	r3, [r0, #7]
 426 009c 8022     		movs	r2, #128
 427 009e 5242     		rsbs	r2, r2, #0
 428 00a0 1343     		orrs	r3, r2
ARM GAS  C:\Users\haske\AppData\Local\Temp\ccDVbnbC.s 			page 12


 429 00a2 C371     		strb	r3, [r0, #7]
 430              	.LVL58:
 431              	.L25:
 196:..\..\..\arduinoLCD\test\Pain Drain\libraries\lvgl\src\draw\sw/lv_draw_sw_gradient.c ****         }
 197:..\..\..\arduinoLCD\test\Pain Drain\libraries\lvgl\src\draw\sw/lv_draw_sw_gradient.c ****     }
 198:..\..\..\arduinoLCD\test\Pain Drain\libraries\lvgl\src\draw\sw/lv_draw_sw_gradient.c **** 
 199:..\..\..\arduinoLCD\test\Pain Drain\libraries\lvgl\src\draw\sw/lv_draw_sw_gradient.c ****     item->key = compute_key(g, size, w);
 432              		.loc 1 199 0
 433 00a4 2200     		movs	r2, r4
 434 00a6 009C     		ldr	r4, [sp]
 435 00a8 2100     		movs	r1, r4
 436 00aa 0198     		ldr	r0, [sp, #4]
 437 00ac FFF7FEFF 		bl	compute_key
 438              	.LVL59:
 439 00b0 2860     		str	r0, [r5]
 200:..\..\..\arduinoLCD\test\Pain Drain\libraries\lvgl\src\draw\sw/lv_draw_sw_gradient.c ****     item->life = 1;
 440              		.loc 1 200 0
 441 00b2 6B68     		ldr	r3, [r5, #4]
 442 00b4 9B0F     		lsrs	r3, r3, #30
 443 00b6 9A07     		lsls	r2, r3, #30
 444 00b8 0123     		movs	r3, #1
 445 00ba 1343     		orrs	r3, r2
 446 00bc 6B60     		str	r3, [r5, #4]
 201:..\..\..\arduinoLCD\test\Pain Drain\libraries\lvgl\src\draw\sw/lv_draw_sw_gradient.c ****     item->filled = 0;
 447              		.loc 1 201 0
 448 00be 1B0E     		lsrs	r3, r3, #24
 449 00c0 4022     		movs	r2, #64
 450 00c2 9343     		bics	r3, r2
 451 00c4 EB71     		strb	r3, [r5, #7]
 202:..\..\..\arduinoLCD\test\Pain Drain\libraries\lvgl\src\draw\sw/lv_draw_sw_gradient.c ****     item->alloc_size = map_size;
 452              		.loc 1 202 0
 453 00c6 AE81     		strh	r6, [r5, #12]
 203:..\..\..\arduinoLCD\test\Pain Drain\libraries\lvgl\src\draw\sw/lv_draw_sw_gradient.c ****     item->size = size;
 454              		.loc 1 203 0
 455 00c8 EC81     		strh	r4, [r5, #14]
 204:..\..\..\arduinoLCD\test\Pain Drain\libraries\lvgl\src\draw\sw/lv_draw_sw_gradient.c ****     if(item->not_cached) {
 456              		.loc 1 204 0
 457 00ca 7F22     		movs	r2, #127
 458 00cc 9343     		bics	r3, r2
 459 00ce 04D0     		beq	.L32
 460              	.LVL60:
 461              	.LBB9:
 205:..\..\..\arduinoLCD\test\Pain Drain\libraries\lvgl\src\draw\sw/lv_draw_sw_gradient.c ****         uint8_t * p = (uint8_t *)item;
 206:..\..\..\arduinoLCD\test\Pain Drain\libraries\lvgl\src\draw\sw/lv_draw_sw_gradient.c ****         item->map = (lv_color_t *)(p + ALIGN(sizeof(*item)));
 462              		.loc 1 206 0
 463 00d0 2B00     		movs	r3, r5
 464 00d2 1033     		adds	r3, r3, #16
 465 00d4 AB60     		str	r3, [r5, #8]
 466              	.LBE9:
 207:..\..\..\arduinoLCD\test\Pain Drain\libraries\lvgl\src\draw\sw/lv_draw_sw_gradient.c **** #if _DITHER_GRADIENT
 208:..\..\..\arduinoLCD\test\Pain Drain\libraries\lvgl\src\draw\sw/lv_draw_sw_gradient.c ****         item->hmap = (lv_color32_t *)(p + ALIGN(sizeof(*item)) + ALIGN(map_size * sizeof(lv_color_t
 209:..\..\..\arduinoLCD\test\Pain Drain\libraries\lvgl\src\draw\sw/lv_draw_sw_gradient.c **** #if LV_DITHER_ERROR_DIFFUSION == 1
 210:..\..\..\arduinoLCD\test\Pain Drain\libraries\lvgl\src\draw\sw/lv_draw_sw_gradient.c ****         item->error_acc = (lv_scolor24_t *)(p + ALIGN(sizeof(*item)) + ALIGN(size * sizeof(lv_grad_
 211:..\..\..\arduinoLCD\test\Pain Drain\libraries\lvgl\src\draw\sw/lv_draw_sw_gradient.c ****                                             ALIGN(map_size * sizeof(lv_color_t)));
 212:..\..\..\arduinoLCD\test\Pain Drain\libraries\lvgl\src\draw\sw/lv_draw_sw_gradient.c ****         item->w = w;
 213:..\..\..\arduinoLCD\test\Pain Drain\libraries\lvgl\src\draw\sw/lv_draw_sw_gradient.c **** #endif
 214:..\..\..\arduinoLCD\test\Pain Drain\libraries\lvgl\src\draw\sw/lv_draw_sw_gradient.c **** #endif
ARM GAS  C:\Users\haske\AppData\Local\Temp\ccDVbnbC.s 			page 13


 215:..\..\..\arduinoLCD\test\Pain Drain\libraries\lvgl\src\draw\sw/lv_draw_sw_gradient.c ****     }
 216:..\..\..\arduinoLCD\test\Pain Drain\libraries\lvgl\src\draw\sw/lv_draw_sw_gradient.c ****     else {
 217:..\..\..\arduinoLCD\test\Pain Drain\libraries\lvgl\src\draw\sw/lv_draw_sw_gradient.c ****         item->map = (lv_color_t *)(grad_cache_end + ALIGN(sizeof(*item)));
 218:..\..\..\arduinoLCD\test\Pain Drain\libraries\lvgl\src\draw\sw/lv_draw_sw_gradient.c **** #if _DITHER_GRADIENT
 219:..\..\..\arduinoLCD\test\Pain Drain\libraries\lvgl\src\draw\sw/lv_draw_sw_gradient.c ****         item->hmap = (lv_color32_t *)(grad_cache_end + ALIGN(sizeof(*item)) + ALIGN(map_size * size
 220:..\..\..\arduinoLCD\test\Pain Drain\libraries\lvgl\src\draw\sw/lv_draw_sw_gradient.c **** #if LV_DITHER_ERROR_DIFFUSION == 1
 221:..\..\..\arduinoLCD\test\Pain Drain\libraries\lvgl\src\draw\sw/lv_draw_sw_gradient.c ****         item->error_acc = (lv_scolor24_t *)(grad_cache_end + ALIGN(sizeof(*item)) + ALIGN(size * si
 222:..\..\..\arduinoLCD\test\Pain Drain\libraries\lvgl\src\draw\sw/lv_draw_sw_gradient.c ****                                             ALIGN(map_size * sizeof(lv_color_t)));
 223:..\..\..\arduinoLCD\test\Pain Drain\libraries\lvgl\src\draw\sw/lv_draw_sw_gradient.c ****         item->w = w;
 224:..\..\..\arduinoLCD\test\Pain Drain\libraries\lvgl\src\draw\sw/lv_draw_sw_gradient.c **** #endif
 225:..\..\..\arduinoLCD\test\Pain Drain\libraries\lvgl\src\draw\sw/lv_draw_sw_gradient.c **** #endif
 226:..\..\..\arduinoLCD\test\Pain Drain\libraries\lvgl\src\draw\sw/lv_draw_sw_gradient.c ****         grad_cache_end += req_size;
 227:..\..\..\arduinoLCD\test\Pain Drain\libraries\lvgl\src\draw\sw/lv_draw_sw_gradient.c ****     }
 228:..\..\..\arduinoLCD\test\Pain Drain\libraries\lvgl\src\draw\sw/lv_draw_sw_gradient.c ****     return item;
 467              		.loc 1 228 0
 468 00d6 2800     		movs	r0, r5
 469 00d8 09E0     		b	.L31
 470              	.LVL61:
 471              	.L32:
 217:..\..\..\arduinoLCD\test\Pain Drain\libraries\lvgl\src\draw\sw/lv_draw_sw_gradient.c **** #if _DITHER_GRADIENT
 472              		.loc 1 217 0
 473 00da 064B     		ldr	r3, .L36
 474 00dc 5A68     		ldr	r2, [r3, #4]
 475 00de 1100     		movs	r1, r2
 476 00e0 1031     		adds	r1, r1, #16
 477 00e2 A960     		str	r1, [r5, #8]
 226:..\..\..\arduinoLCD\test\Pain Drain\libraries\lvgl\src\draw\sw/lv_draw_sw_gradient.c ****     }
 478              		.loc 1 226 0
 479 00e4 D719     		adds	r7, r2, r7
 480              	.LVL62:
 481 00e6 5F60     		str	r7, [r3, #4]
 482              		.loc 1 228 0
 483 00e8 2800     		movs	r0, r5
 484 00ea 00E0     		b	.L31
 485              	.LVL63:
 486              	.L34:
 194:..\..\..\arduinoLCD\test\Pain Drain\libraries\lvgl\src\draw\sw/lv_draw_sw_gradient.c ****             item->not_cached = 1;
 487              		.loc 1 194 0
 488 00ec 0020     		movs	r0, #0
 489              	.LVL64:
 490              	.L31:
 229:..\..\..\arduinoLCD\test\Pain Drain\libraries\lvgl\src\draw\sw/lv_draw_sw_gradient.c **** }
 491              		.loc 1 229 0
 492 00ee 05B0     		add	sp, sp, #20
 493              		@ sp needed
 494              	.LVL65:
 495              	.LVL66:
 496 00f0 F0BD     		pop	{r4, r5, r6, r7, pc}
 497              	.L37:
 498 00f2 C046     		.align	2
 499              	.L36:
 500 00f4 00000000 		.word	.LANCHOR0
 501 00f8 00000000 		.word	_lv_grad_cache_mem
 502 00fc 00000000 		.word	find_oldest_item_life
 503 0100 00000000 		.word	kill_oldest_item
 504              		.cfi_endproc
 505              	.LFE64:
ARM GAS  C:\Users\haske\AppData\Local\Temp\ccDVbnbC.s 			page 14


 506              		.size	allocate_item, .-allocate_item
 507              		.section	.text.free_item,"ax",%progbits
 508              		.align	2
 509              		.code	16
 510              		.thumb_func
 511              		.type	free_item, %function
 512              	free_item:
 513              	.LFB61:
 118:..\..\..\arduinoLCD\test\Pain Drain\libraries\lvgl\src\draw\sw/lv_draw_sw_gradient.c ****     size_t size = get_cache_item_size(c);
 514              		.loc 1 118 0
 515              		.cfi_startproc
 516              		@ args = 0, pretend = 0, frame = 0
 517              		@ frame_needed = 0, uses_anonymous_args = 0
 518              	.LVL67:
 519 0000 F0B5     		push	{r4, r5, r6, r7, lr}
 520              		.cfi_def_cfa_offset 20
 521              		.cfi_offset 4, -20
 522              		.cfi_offset 5, -16
 523              		.cfi_offset 6, -12
 524              		.cfi_offset 7, -8
 525              		.cfi_offset 14, -4
 526 0002 4746     		mov	r7, r8
 527 0004 80B4     		push	{r7}
 528              		.cfi_def_cfa_offset 24
 529              		.cfi_offset 8, -24
 530 0006 0500     		movs	r5, r0
 119:..\..\..\arduinoLCD\test\Pain Drain\libraries\lvgl\src\draw\sw/lv_draw_sw_gradient.c ****     size_t next_items_size = (size_t)(grad_cache_end - (uint8_t *)c) - size;
 531              		.loc 1 119 0
 532 0008 FFF7FEFF 		bl	get_cache_item_size
 533              	.LVL68:
 534 000c 8046     		mov	r8, r0
 535              	.LVL69:
 120:..\..\..\arduinoLCD\test\Pain Drain\libraries\lvgl\src\draw\sw/lv_draw_sw_gradient.c ****     grad_cache_end -= size;
 536              		.loc 1 120 0
 537 000e 114A     		ldr	r2, .L42
 538 0010 5368     		ldr	r3, [r2, #4]
 539 0012 5F1B     		subs	r7, r3, r5
 540 0014 3F1A     		subs	r7, r7, r0
 541              	.LVL70:
 121:..\..\..\arduinoLCD\test\Pain Drain\libraries\lvgl\src\draw\sw/lv_draw_sw_gradient.c ****     if(next_items_size) {
 542              		.loc 1 121 0
 543 0016 4642     		rsbs	r6, r0, #0
 544 0018 9B19     		adds	r3, r3, r6
 545 001a 5360     		str	r3, [r2, #4]
 122:..\..\..\arduinoLCD\test\Pain Drain\libraries\lvgl\src\draw\sw/lv_draw_sw_gradient.c ****         uint8_t * old = (uint8_t *)c;
 546              		.loc 1 122 0
 547 001c 002F     		cmp	r7, #0
 548 001e 15D0     		beq	.L38
 549              	.LVL71:
 550              	.LBB10:
 124:..\..\..\arduinoLCD\test\Pain Drain\libraries\lvgl\src\draw\sw/lv_draw_sw_gradient.c ****         /* Then need to fix all internal pointers too */
 551              		.loc 1 124 0
 552 0020 2918     		adds	r1, r5, r0
 553 0022 3A00     		movs	r2, r7
 554 0024 2800     		movs	r0, r5
 555              	.LVL72:
 556 0026 FFF7FEFF 		bl	lv_memcpy
ARM GAS  C:\Users\haske\AppData\Local\Temp\ccDVbnbC.s 			page 15


 557              	.LVL73:
 126:..\..\..\arduinoLCD\test\Pain Drain\libraries\lvgl\src\draw\sw/lv_draw_sw_gradient.c ****             c->map = (lv_color_t *)(((uint8_t *)c->map) - size);
 558              		.loc 1 126 0
 559 002a 2C00     		movs	r4, r5
 560 002c 06E0     		b	.L40
 561              	.LVL74:
 562              	.L41:
 127:..\..\..\arduinoLCD\test\Pain Drain\libraries\lvgl\src\draw\sw/lv_draw_sw_gradient.c **** #if _DITHER_GRADIENT
 563              		.loc 1 127 0
 564 002e A368     		ldr	r3, [r4, #8]
 565 0030 9B19     		adds	r3, r3, r6
 566 0032 A360     		str	r3, [r4, #8]
 134:..\..\..\arduinoLCD\test\Pain Drain\libraries\lvgl\src\draw\sw/lv_draw_sw_gradient.c ****         }
 567              		.loc 1 134 0
 568 0034 2000     		movs	r0, r4
 569 0036 FFF7FEFF 		bl	get_cache_item_size
 570              	.LVL75:
 571 003a 2418     		adds	r4, r4, r0
 572              	.LVL76:
 573              	.L40:
 126:..\..\..\arduinoLCD\test\Pain Drain\libraries\lvgl\src\draw\sw/lv_draw_sw_gradient.c ****             c->map = (lv_color_t *)(((uint8_t *)c->map) - size);
 574              		.loc 1 126 0
 575 003c 054B     		ldr	r3, .L42
 576 003e 5B68     		ldr	r3, [r3, #4]
 577 0040 9C42     		cmp	r4, r3
 578 0042 F4D1     		bne	.L41
 136:..\..\..\arduinoLCD\test\Pain Drain\libraries\lvgl\src\draw\sw/lv_draw_sw_gradient.c ****     }
 579              		.loc 1 136 0
 580 0044 E819     		adds	r0, r5, r7
 581 0046 4146     		mov	r1, r8
 582 0048 FFF7FEFF 		bl	lv_memset_00
 583              	.LVL77:
 584              	.L38:
 585              	.LBE10:
 138:..\..\..\arduinoLCD\test\Pain Drain\libraries\lvgl\src\draw\sw/lv_draw_sw_gradient.c **** 
 586              		.loc 1 138 0
 587              		@ sp needed
 588              	.LVL78:
 589              	.LVL79:
 590 004c 04BC     		pop	{r2}
 591 004e 9046     		mov	r8, r2
 592 0050 F0BD     		pop	{r4, r5, r6, r7, pc}
 593              	.L43:
 594 0052 C046     		.align	2
 595              	.L42:
 596 0054 00000000 		.word	.LANCHOR0
 597              		.cfi_endproc
 598              	.LFE61:
 599              		.size	free_item, .-free_item
 600              		.section	.text.kill_oldest_item,"ax",%progbits
 601              		.align	2
 602              		.code	16
 603              		.thumb_func
 604              		.type	kill_oldest_item, %function
 605              	kill_oldest_item:
 606              	.LFB62:
 141:..\..\..\arduinoLCD\test\Pain Drain\libraries\lvgl\src\draw\sw/lv_draw_sw_gradient.c ****     uint32_t * min_life = (uint32_t *)ctx;
ARM GAS  C:\Users\haske\AppData\Local\Temp\ccDVbnbC.s 			page 16


 607              		.loc 1 141 0
 608              		.cfi_startproc
 609              		@ args = 0, pretend = 0, frame = 0
 610              		@ frame_needed = 0, uses_anonymous_args = 0
 611              	.LVL80:
 612 0000 10B5     		push	{r4, lr}
 613              		.cfi_def_cfa_offset 8
 614              		.cfi_offset 4, -8
 615              		.cfi_offset 14, -4
 616              	.LVL81:
 143:..\..\..\arduinoLCD\test\Pain Drain\libraries\lvgl\src\draw\sw/lv_draw_sw_gradient.c ****         /*Found, let's kill it*/
 617              		.loc 1 143 0
 618 0002 4368     		ldr	r3, [r0, #4]
 619 0004 9B00     		lsls	r3, r3, #2
 620 0006 9B08     		lsrs	r3, r3, #2
 621 0008 0A68     		ldr	r2, [r1]
 622 000a 9342     		cmp	r3, r2
 623 000c 03D1     		bne	.L46
 145:..\..\..\arduinoLCD\test\Pain Drain\libraries\lvgl\src\draw\sw/lv_draw_sw_gradient.c ****         return LV_RES_OK;
 624              		.loc 1 145 0
 625 000e FFF7FEFF 		bl	free_item
 626              	.LVL82:
 146:..\..\..\arduinoLCD\test\Pain Drain\libraries\lvgl\src\draw\sw/lv_draw_sw_gradient.c ****     }
 627              		.loc 1 146 0
 628 0012 0120     		movs	r0, #1
 629 0014 00E0     		b	.L45
 630              	.LVL83:
 631              	.L46:
 148:..\..\..\arduinoLCD\test\Pain Drain\libraries\lvgl\src\draw\sw/lv_draw_sw_gradient.c **** }
 632              		.loc 1 148 0
 633 0016 0020     		movs	r0, #0
 634              	.LVL84:
 635              	.L45:
 149:..\..\..\arduinoLCD\test\Pain Drain\libraries\lvgl\src\draw\sw/lv_draw_sw_gradient.c **** 
 636              		.loc 1 149 0
 637              		@ sp needed
 638 0018 10BD     		pop	{r4, pc}
 639              		.cfi_endproc
 640              	.LFE62:
 641              		.size	kill_oldest_item, .-kill_oldest_item
 642 001a C046     		.section	.text.lv_gradient_free_cache,"ax",%progbits
 643              		.align	2
 644              		.global	lv_gradient_free_cache
 645              		.code	16
 646              		.thumb_func
 647              		.type	lv_gradient_free_cache, %function
 648              	lv_gradient_free_cache:
 649              	.LFB65:
 230:..\..\..\arduinoLCD\test\Pain Drain\libraries\lvgl\src\draw\sw/lv_draw_sw_gradient.c **** 
 231:..\..\..\arduinoLCD\test\Pain Drain\libraries\lvgl\src\draw\sw/lv_draw_sw_gradient.c **** 
 232:..\..\..\arduinoLCD\test\Pain Drain\libraries\lvgl\src\draw\sw/lv_draw_sw_gradient.c **** /**********************
 233:..\..\..\arduinoLCD\test\Pain Drain\libraries\lvgl\src\draw\sw/lv_draw_sw_gradient.c ****  *     FUNCTIONS
 234:..\..\..\arduinoLCD\test\Pain Drain\libraries\lvgl\src\draw\sw/lv_draw_sw_gradient.c ****  **********************/
 235:..\..\..\arduinoLCD\test\Pain Drain\libraries\lvgl\src\draw\sw/lv_draw_sw_gradient.c **** void lv_gradient_free_cache(void)
 236:..\..\..\arduinoLCD\test\Pain Drain\libraries\lvgl\src\draw\sw/lv_draw_sw_gradient.c **** {
 650              		.loc 1 236 0
 651              		.cfi_startproc
ARM GAS  C:\Users\haske\AppData\Local\Temp\ccDVbnbC.s 			page 17


 652              		@ args = 0, pretend = 0, frame = 0
 653              		@ frame_needed = 0, uses_anonymous_args = 0
 654 0000 10B5     		push	{r4, lr}
 655              		.cfi_def_cfa_offset 8
 656              		.cfi_offset 4, -8
 657              		.cfi_offset 14, -4
 237:..\..\..\arduinoLCD\test\Pain Drain\libraries\lvgl\src\draw\sw/lv_draw_sw_gradient.c ****     lv_mem_free(LV_GC_ROOT(_lv_grad_cache_mem));
 658              		.loc 1 237 0
 659 0002 054C     		ldr	r4, .L48
 660 0004 2068     		ldr	r0, [r4]
 661 0006 FFF7FEFF 		bl	lv_mem_free
 662              	.LVL85:
 238:..\..\..\arduinoLCD\test\Pain Drain\libraries\lvgl\src\draw\sw/lv_draw_sw_gradient.c ****     LV_GC_ROOT(_lv_grad_cache_mem) = grad_cache_end = NULL;
 663              		.loc 1 238 0
 664 000a 044A     		ldr	r2, .L48+4
 665 000c 0023     		movs	r3, #0
 666 000e 5360     		str	r3, [r2, #4]
 667 0010 2360     		str	r3, [r4]
 239:..\..\..\arduinoLCD\test\Pain Drain\libraries\lvgl\src\draw\sw/lv_draw_sw_gradient.c ****     grad_cache_size = 0;
 668              		.loc 1 239 0
 669 0012 1360     		str	r3, [r2]
 240:..\..\..\arduinoLCD\test\Pain Drain\libraries\lvgl\src\draw\sw/lv_draw_sw_gradient.c **** }
 670              		.loc 1 240 0
 671              		@ sp needed
 672 0014 10BD     		pop	{r4, pc}
 673              	.L49:
 674 0016 C046     		.align	2
 675              	.L48:
 676 0018 00000000 		.word	_lv_grad_cache_mem
 677 001c 00000000 		.word	.LANCHOR0
 678              		.cfi_endproc
 679              	.LFE65:
 680              		.size	lv_gradient_free_cache, .-lv_gradient_free_cache
 681              		.section	.text.lv_gradient_set_cache_size,"ax",%progbits
 682              		.align	2
 683              		.global	lv_gradient_set_cache_size
 684              		.code	16
 685              		.thumb_func
 686              		.type	lv_gradient_set_cache_size, %function
 687              	lv_gradient_set_cache_size:
 688              	.LFB66:
 241:..\..\..\arduinoLCD\test\Pain Drain\libraries\lvgl\src\draw\sw/lv_draw_sw_gradient.c **** 
 242:..\..\..\arduinoLCD\test\Pain Drain\libraries\lvgl\src\draw\sw/lv_draw_sw_gradient.c **** void lv_gradient_set_cache_size(size_t max_bytes)
 243:..\..\..\arduinoLCD\test\Pain Drain\libraries\lvgl\src\draw\sw/lv_draw_sw_gradient.c **** {
 689              		.loc 1 243 0
 690              		.cfi_startproc
 691              		@ args = 0, pretend = 0, frame = 0
 692              		@ frame_needed = 0, uses_anonymous_args = 0
 693              	.LVL86:
 694 0000 70B5     		push	{r4, r5, r6, lr}
 695              		.cfi_def_cfa_offset 16
 696              		.cfi_offset 4, -16
 697              		.cfi_offset 5, -12
 698              		.cfi_offset 6, -8
 699              		.cfi_offset 14, -4
 700 0002 0400     		movs	r4, r0
 244:..\..\..\arduinoLCD\test\Pain Drain\libraries\lvgl\src\draw\sw/lv_draw_sw_gradient.c ****     lv_mem_free(LV_GC_ROOT(_lv_grad_cache_mem));
ARM GAS  C:\Users\haske\AppData\Local\Temp\ccDVbnbC.s 			page 18


 701              		.loc 1 244 0
 702 0004 094D     		ldr	r5, .L53
 703 0006 2868     		ldr	r0, [r5]
 704              	.LVL87:
 705 0008 FFF7FEFF 		bl	lv_mem_free
 706              	.LVL88:
 245:..\..\..\arduinoLCD\test\Pain Drain\libraries\lvgl\src\draw\sw/lv_draw_sw_gradient.c ****     grad_cache_end = LV_GC_ROOT(_lv_grad_cache_mem) = lv_mem_alloc(max_bytes);
 707              		.loc 1 245 0
 708 000c 2000     		movs	r0, r4
 709 000e FFF7FEFF 		bl	lv_mem_alloc
 710              	.LVL89:
 711 0012 2860     		str	r0, [r5]
 712 0014 064B     		ldr	r3, .L53+4
 713 0016 5860     		str	r0, [r3, #4]
 246:..\..\..\arduinoLCD\test\Pain Drain\libraries\lvgl\src\draw\sw/lv_draw_sw_gradient.c ****     LV_ASSERT_MALLOC(LV_GC_ROOT(_lv_grad_cache_mem));
 714              		.loc 1 246 0
 715 0018 0028     		cmp	r0, #0
 716 001a 00D1     		bne	.L51
 717              	.L52:
 718 001c FEE7     		b	.L52
 719              	.L51:
 247:..\..\..\arduinoLCD\test\Pain Drain\libraries\lvgl\src\draw\sw/lv_draw_sw_gradient.c ****     lv_memset_00(LV_GC_ROOT(_lv_grad_cache_mem), max_bytes);
 720              		.loc 1 247 0
 721 001e 2100     		movs	r1, r4
 722 0020 FFF7FEFF 		bl	lv_memset_00
 723              	.LVL90:
 248:..\..\..\arduinoLCD\test\Pain Drain\libraries\lvgl\src\draw\sw/lv_draw_sw_gradient.c ****     grad_cache_size = max_bytes;
 724              		.loc 1 248 0
 725 0024 024B     		ldr	r3, .L53+4
 726 0026 1C60     		str	r4, [r3]
 249:..\..\..\arduinoLCD\test\Pain Drain\libraries\lvgl\src\draw\sw/lv_draw_sw_gradient.c **** }
 727              		.loc 1 249 0
 728              		@ sp needed
 729              	.LVL91:
 730 0028 70BD     		pop	{r4, r5, r6, pc}
 731              	.L54:
 732 002a C046     		.align	2
 733              	.L53:
 734 002c 00000000 		.word	_lv_grad_cache_mem
 735 0030 00000000 		.word	.LANCHOR0
 736              		.cfi_endproc
 737              	.LFE66:
 738              		.size	lv_gradient_set_cache_size, .-lv_gradient_set_cache_size
 739              		.global	__aeabi_idiv
 740              		.section	.text.lv_gradient_calculate,"ax",%progbits
 741              		.align	2
 742              		.global	lv_gradient_calculate
 743              		.code	16
 744              		.thumb_func
 745              		.type	lv_gradient_calculate, %function
 746              	lv_gradient_calculate:
 747              	.LFB68:
 250:..\..\..\arduinoLCD\test\Pain Drain\libraries\lvgl\src\draw\sw/lv_draw_sw_gradient.c **** 
 251:..\..\..\arduinoLCD\test\Pain Drain\libraries\lvgl\src\draw\sw/lv_draw_sw_gradient.c **** lv_grad_t * lv_gradient_get(const lv_grad_dsc_t * g, lv_coord_t w, lv_coord_t h)
 252:..\..\..\arduinoLCD\test\Pain Drain\libraries\lvgl\src\draw\sw/lv_draw_sw_gradient.c **** {
 253:..\..\..\arduinoLCD\test\Pain Drain\libraries\lvgl\src\draw\sw/lv_draw_sw_gradient.c ****     /* No gradient, no cache */
 254:..\..\..\arduinoLCD\test\Pain Drain\libraries\lvgl\src\draw\sw/lv_draw_sw_gradient.c ****     if(g->dir == LV_GRAD_DIR_NONE) return NULL;
ARM GAS  C:\Users\haske\AppData\Local\Temp\ccDVbnbC.s 			page 19


 255:..\..\..\arduinoLCD\test\Pain Drain\libraries\lvgl\src\draw\sw/lv_draw_sw_gradient.c **** 
 256:..\..\..\arduinoLCD\test\Pain Drain\libraries\lvgl\src\draw\sw/lv_draw_sw_gradient.c ****     /* Step 0: Check if the cache exist (else create it) */
 257:..\..\..\arduinoLCD\test\Pain Drain\libraries\lvgl\src\draw\sw/lv_draw_sw_gradient.c ****     static bool inited = false;
 258:..\..\..\arduinoLCD\test\Pain Drain\libraries\lvgl\src\draw\sw/lv_draw_sw_gradient.c ****     if(!inited) {
 259:..\..\..\arduinoLCD\test\Pain Drain\libraries\lvgl\src\draw\sw/lv_draw_sw_gradient.c ****         lv_gradient_set_cache_size(LV_GRAD_CACHE_DEF_SIZE);
 260:..\..\..\arduinoLCD\test\Pain Drain\libraries\lvgl\src\draw\sw/lv_draw_sw_gradient.c ****         inited = true;
 261:..\..\..\arduinoLCD\test\Pain Drain\libraries\lvgl\src\draw\sw/lv_draw_sw_gradient.c ****     }
 262:..\..\..\arduinoLCD\test\Pain Drain\libraries\lvgl\src\draw\sw/lv_draw_sw_gradient.c **** 
 263:..\..\..\arduinoLCD\test\Pain Drain\libraries\lvgl\src\draw\sw/lv_draw_sw_gradient.c ****     /* Step 1: Search cache for the given key */
 264:..\..\..\arduinoLCD\test\Pain Drain\libraries\lvgl\src\draw\sw/lv_draw_sw_gradient.c ****     lv_coord_t size = g->dir == LV_GRAD_DIR_HOR ? w : h;
 265:..\..\..\arduinoLCD\test\Pain Drain\libraries\lvgl\src\draw\sw/lv_draw_sw_gradient.c ****     uint32_t key = compute_key(g, size, w);
 266:..\..\..\arduinoLCD\test\Pain Drain\libraries\lvgl\src\draw\sw/lv_draw_sw_gradient.c ****     lv_grad_t * item = NULL;
 267:..\..\..\arduinoLCD\test\Pain Drain\libraries\lvgl\src\draw\sw/lv_draw_sw_gradient.c ****     if(iterate_cache(&find_item, &key, &item) == LV_RES_OK) {
 268:..\..\..\arduinoLCD\test\Pain Drain\libraries\lvgl\src\draw\sw/lv_draw_sw_gradient.c ****         item->life++; /* Don't forget to bump the counter */
 269:..\..\..\arduinoLCD\test\Pain Drain\libraries\lvgl\src\draw\sw/lv_draw_sw_gradient.c ****         return item;
 270:..\..\..\arduinoLCD\test\Pain Drain\libraries\lvgl\src\draw\sw/lv_draw_sw_gradient.c ****     }
 271:..\..\..\arduinoLCD\test\Pain Drain\libraries\lvgl\src\draw\sw/lv_draw_sw_gradient.c **** 
 272:..\..\..\arduinoLCD\test\Pain Drain\libraries\lvgl\src\draw\sw/lv_draw_sw_gradient.c ****     /* Step 2: Need to allocate an item for it */
 273:..\..\..\arduinoLCD\test\Pain Drain\libraries\lvgl\src\draw\sw/lv_draw_sw_gradient.c ****     item = allocate_item(g, w, h);
 274:..\..\..\arduinoLCD\test\Pain Drain\libraries\lvgl\src\draw\sw/lv_draw_sw_gradient.c ****     if(item == NULL) {
 275:..\..\..\arduinoLCD\test\Pain Drain\libraries\lvgl\src\draw\sw/lv_draw_sw_gradient.c ****         LV_LOG_WARN("Faild to allcoate item for teh gradient");
 276:..\..\..\arduinoLCD\test\Pain Drain\libraries\lvgl\src\draw\sw/lv_draw_sw_gradient.c ****         return item;
 277:..\..\..\arduinoLCD\test\Pain Drain\libraries\lvgl\src\draw\sw/lv_draw_sw_gradient.c ****     }
 278:..\..\..\arduinoLCD\test\Pain Drain\libraries\lvgl\src\draw\sw/lv_draw_sw_gradient.c **** 
 279:..\..\..\arduinoLCD\test\Pain Drain\libraries\lvgl\src\draw\sw/lv_draw_sw_gradient.c ****     /* Step 3: Fill it with the gradient, as expected */
 280:..\..\..\arduinoLCD\test\Pain Drain\libraries\lvgl\src\draw\sw/lv_draw_sw_gradient.c **** #if _DITHER_GRADIENT
 281:..\..\..\arduinoLCD\test\Pain Drain\libraries\lvgl\src\draw\sw/lv_draw_sw_gradient.c ****     for(lv_coord_t i = 0; i < item->size; i++) {
 282:..\..\..\arduinoLCD\test\Pain Drain\libraries\lvgl\src\draw\sw/lv_draw_sw_gradient.c ****         item->hmap[i] = lv_gradient_calculate(g, item->size, i);
 283:..\..\..\arduinoLCD\test\Pain Drain\libraries\lvgl\src\draw\sw/lv_draw_sw_gradient.c ****     }
 284:..\..\..\arduinoLCD\test\Pain Drain\libraries\lvgl\src\draw\sw/lv_draw_sw_gradient.c **** #if LV_DITHER_ERROR_DIFFUSION == 1
 285:..\..\..\arduinoLCD\test\Pain Drain\libraries\lvgl\src\draw\sw/lv_draw_sw_gradient.c ****     lv_memset_00(item->error_acc, w * sizeof(lv_scolor24_t));
 286:..\..\..\arduinoLCD\test\Pain Drain\libraries\lvgl\src\draw\sw/lv_draw_sw_gradient.c **** #endif
 287:..\..\..\arduinoLCD\test\Pain Drain\libraries\lvgl\src\draw\sw/lv_draw_sw_gradient.c **** #else
 288:..\..\..\arduinoLCD\test\Pain Drain\libraries\lvgl\src\draw\sw/lv_draw_sw_gradient.c ****     for(lv_coord_t i = 0; i < item->size; i++) {
 289:..\..\..\arduinoLCD\test\Pain Drain\libraries\lvgl\src\draw\sw/lv_draw_sw_gradient.c ****         item->map[i] = lv_gradient_calculate(g, item->size, i);
 290:..\..\..\arduinoLCD\test\Pain Drain\libraries\lvgl\src\draw\sw/lv_draw_sw_gradient.c ****     }
 291:..\..\..\arduinoLCD\test\Pain Drain\libraries\lvgl\src\draw\sw/lv_draw_sw_gradient.c **** #endif
 292:..\..\..\arduinoLCD\test\Pain Drain\libraries\lvgl\src\draw\sw/lv_draw_sw_gradient.c **** 
 293:..\..\..\arduinoLCD\test\Pain Drain\libraries\lvgl\src\draw\sw/lv_draw_sw_gradient.c ****     return item;
 294:..\..\..\arduinoLCD\test\Pain Drain\libraries\lvgl\src\draw\sw/lv_draw_sw_gradient.c **** }
 295:..\..\..\arduinoLCD\test\Pain Drain\libraries\lvgl\src\draw\sw/lv_draw_sw_gradient.c **** 
 296:..\..\..\arduinoLCD\test\Pain Drain\libraries\lvgl\src\draw\sw/lv_draw_sw_gradient.c **** LV_ATTRIBUTE_FAST_MEM lv_grad_color_t lv_gradient_calculate(const lv_grad_dsc_t * dsc, lv_coord_t r
 297:..\..\..\arduinoLCD\test\Pain Drain\libraries\lvgl\src\draw\sw/lv_draw_sw_gradient.c ****                                                             lv_coord_t frac)
 298:..\..\..\arduinoLCD\test\Pain Drain\libraries\lvgl\src\draw\sw/lv_draw_sw_gradient.c **** {
 748              		.loc 1 298 0
 749              		.cfi_startproc
 750              		@ args = 0, pretend = 0, frame = 8
 751              		@ frame_needed = 0, uses_anonymous_args = 0
 752              	.LVL92:
 753 0000 F0B5     		push	{r4, r5, r6, r7, lr}
 754              		.cfi_def_cfa_offset 20
 755              		.cfi_offset 4, -20
 756              		.cfi_offset 5, -16
 757              		.cfi_offset 6, -12
 758              		.cfi_offset 7, -8
 759              		.cfi_offset 14, -4
 760 0002 5F46     		mov	r7, fp
ARM GAS  C:\Users\haske\AppData\Local\Temp\ccDVbnbC.s 			page 20


 761 0004 5646     		mov	r6, r10
 762 0006 4D46     		mov	r5, r9
 763 0008 4446     		mov	r4, r8
 764 000a F0B4     		push	{r4, r5, r6, r7}
 765              		.cfi_def_cfa_offset 36
 766              		.cfi_offset 8, -36
 767              		.cfi_offset 9, -32
 768              		.cfi_offset 10, -28
 769              		.cfi_offset 11, -24
 770 000c 83B0     		sub	sp, sp, #12
 771              		.cfi_def_cfa_offset 48
 772 000e 0192     		str	r2, [sp, #4]
 299:..\..\..\arduinoLCD\test\Pain Drain\libraries\lvgl\src\draw\sw/lv_draw_sw_gradient.c ****     lv_grad_color_t tmp;
 300:..\..\..\arduinoLCD\test\Pain Drain\libraries\lvgl\src\draw\sw/lv_draw_sw_gradient.c ****     lv_color32_t one, two;
 301:..\..\..\arduinoLCD\test\Pain Drain\libraries\lvgl\src\draw\sw/lv_draw_sw_gradient.c ****     /*Clip out-of-bounds first*/
 302:..\..\..\arduinoLCD\test\Pain Drain\libraries\lvgl\src\draw\sw/lv_draw_sw_gradient.c ****     int32_t min = (dsc->stops[0].frac * range) >> 8;
 773              		.loc 1 302 0
 774 0010 8378     		ldrb	r3, [r0, #2]
 775 0012 8A46     		mov	r10, r1
 776 0014 4B43     		muls	r3, r1
 777 0016 1F12     		asrs	r7, r3, #8
 778              	.LVL93:
 303:..\..\..\arduinoLCD\test\Pain Drain\libraries\lvgl\src\draw\sw/lv_draw_sw_gradient.c ****     if(frac <= min) {
 779              		.loc 1 303 0
 780 0018 9046     		mov	r8, r2
 781 001a 9742     		cmp	r7, r2
 782 001c 01DB     		blt	.L56
 304:..\..\..\arduinoLCD\test\Pain Drain\libraries\lvgl\src\draw\sw/lv_draw_sw_gradient.c ****         GRAD_CONV(tmp, dsc->stops[0].color);
 305:..\..\..\arduinoLCD\test\Pain Drain\libraries\lvgl\src\draw\sw/lv_draw_sw_gradient.c ****         return tmp;
 783              		.loc 1 305 0
 784 001e 0088     		ldrh	r0, [r0]
 785              	.LVL94:
 786 0020 ABE0     		b	.L57
 787              	.LVL95:
 788              	.L56:
 306:..\..\..\arduinoLCD\test\Pain Drain\libraries\lvgl\src\draw\sw/lv_draw_sw_gradient.c ****     }
 307:..\..\..\arduinoLCD\test\Pain Drain\libraries\lvgl\src\draw\sw/lv_draw_sw_gradient.c **** 
 308:..\..\..\arduinoLCD\test\Pain Drain\libraries\lvgl\src\draw\sw/lv_draw_sw_gradient.c ****     int32_t max = (dsc->stops[dsc->stops_count - 1].frac * range) >> 8;
 789              		.loc 1 308 0
 790 0022 037A     		ldrb	r3, [r0, #8]
 791 0024 9946     		mov	r9, r3
 792 0026 5E1E     		subs	r6, r3, #1
 793 0028 B300     		lsls	r3, r6, #2
 794 002a C318     		adds	r3, r0, r3
 795 002c 9B78     		ldrb	r3, [r3, #2]
 796 002e 4B43     		muls	r3, r1
 797 0030 1B12     		asrs	r3, r3, #8
 798              	.LVL96:
 309:..\..\..\arduinoLCD\test\Pain Drain\libraries\lvgl\src\draw\sw/lv_draw_sw_gradient.c ****     if(frac >= max) {
 799              		.loc 1 309 0
 800 0032 9A42     		cmp	r2, r3
 801 0034 62DB     		blt	.L64
 310:..\..\..\arduinoLCD\test\Pain Drain\libraries\lvgl\src\draw\sw/lv_draw_sw_gradient.c ****         GRAD_CONV(tmp, dsc->stops[dsc->stops_count - 1].color);
 802              		.loc 1 310 0
 803 0036 B600     		lsls	r6, r6, #2
 311:..\..\..\arduinoLCD\test\Pain Drain\libraries\lvgl\src\draw\sw/lv_draw_sw_gradient.c ****         return tmp;
 804              		.loc 1 311 0
ARM GAS  C:\Users\haske\AppData\Local\Temp\ccDVbnbC.s 			page 21


 805 0038 805B     		ldrh	r0, [r0, r6]
 806              	.LVL97:
 807 003a 9EE0     		b	.L57
 808              	.LVL98:
 809              	.L61:
 810              	.LBB11:
 811              	.LBB12:
 312:..\..\..\arduinoLCD\test\Pain Drain\libraries\lvgl\src\draw\sw/lv_draw_sw_gradient.c ****     }
 313:..\..\..\arduinoLCD\test\Pain Drain\libraries\lvgl\src\draw\sw/lv_draw_sw_gradient.c **** 
 314:..\..\..\arduinoLCD\test\Pain Drain\libraries\lvgl\src\draw\sw/lv_draw_sw_gradient.c ****     /*Find the 2 closest stop now*/
 315:..\..\..\arduinoLCD\test\Pain Drain\libraries\lvgl\src\draw\sw/lv_draw_sw_gradient.c ****     int32_t d = 0;
 316:..\..\..\arduinoLCD\test\Pain Drain\libraries\lvgl\src\draw\sw/lv_draw_sw_gradient.c ****     for(uint8_t i = 1; i < dsc->stops_count; i++) {
 317:..\..\..\arduinoLCD\test\Pain Drain\libraries\lvgl\src\draw\sw/lv_draw_sw_gradient.c ****         int32_t cur = (dsc->stops[i].frac * range) >> 8;
 812              		.loc 1 317 0
 813 003c 9B46     		mov	fp, r3
 814 003e 9E00     		lsls	r6, r3, #2
 815 0040 8619     		adds	r6, r0, r6
 816 0042 B678     		ldrb	r6, [r6, #2]
 817 0044 5246     		mov	r2, r10
 818 0046 5643     		muls	r6, r2
 819 0048 3612     		asrs	r6, r6, #8
 820              	.LVL99:
 318:..\..\..\arduinoLCD\test\Pain Drain\libraries\lvgl\src\draw\sw/lv_draw_sw_gradient.c ****         if(frac <= cur) {
 821              		.loc 1 318 0
 822 004a B045     		cmp	r8, r6
 823 004c 53DC     		bgt	.L59
 319:..\..\..\arduinoLCD\test\Pain Drain\libraries\lvgl\src\draw\sw/lv_draw_sw_gradient.c ****             one.full = lv_color_to32(dsc->stops[i - 1].color);
 824              		.loc 1 319 0
 825 004e 013B     		subs	r3, r3, #1
 826              	.LVL100:
 827 0050 9B00     		lsls	r3, r3, #2
 828 0052 9C46     		mov	ip, r3
 829 0054 1D5A     		ldrh	r5, [r3, r0]
 830              	.LBB13:
 831              	.LBB14:
 832              		.file 2 "c:\\projects\\paindrain\\arduinolcd\\test\\pain drain\\libraries\\lvgl\\src\\misc\\lv_col
   1:c:\projects\paindrain\arduinolcd\test\pain drain\libraries\lvgl\src\misc\lv_color.h **** /**
   2:c:\projects\paindrain\arduinolcd\test\pain drain\libraries\lvgl\src\misc\lv_color.h ****  * @file lv_color.h
   3:c:\projects\paindrain\arduinolcd\test\pain drain\libraries\lvgl\src\misc\lv_color.h ****  *
   4:c:\projects\paindrain\arduinolcd\test\pain drain\libraries\lvgl\src\misc\lv_color.h ****  */
   5:c:\projects\paindrain\arduinolcd\test\pain drain\libraries\lvgl\src\misc\lv_color.h **** 
   6:c:\projects\paindrain\arduinolcd\test\pain drain\libraries\lvgl\src\misc\lv_color.h **** #ifndef LV_COLOR_H
   7:c:\projects\paindrain\arduinolcd\test\pain drain\libraries\lvgl\src\misc\lv_color.h **** #define LV_COLOR_H
   8:c:\projects\paindrain\arduinolcd\test\pain drain\libraries\lvgl\src\misc\lv_color.h **** 
   9:c:\projects\paindrain\arduinolcd\test\pain drain\libraries\lvgl\src\misc\lv_color.h **** #ifdef __cplusplus
  10:c:\projects\paindrain\arduinolcd\test\pain drain\libraries\lvgl\src\misc\lv_color.h **** extern "C" {
  11:c:\projects\paindrain\arduinolcd\test\pain drain\libraries\lvgl\src\misc\lv_color.h **** #endif
  12:c:\projects\paindrain\arduinolcd\test\pain drain\libraries\lvgl\src\misc\lv_color.h **** 
  13:c:\projects\paindrain\arduinolcd\test\pain drain\libraries\lvgl\src\misc\lv_color.h **** /*********************
  14:c:\projects\paindrain\arduinolcd\test\pain drain\libraries\lvgl\src\misc\lv_color.h ****  *      INCLUDES
  15:c:\projects\paindrain\arduinolcd\test\pain drain\libraries\lvgl\src\misc\lv_color.h ****  *********************/
  16:c:\projects\paindrain\arduinolcd\test\pain drain\libraries\lvgl\src\misc\lv_color.h **** #include "../lv_conf_internal.h"
  17:c:\projects\paindrain\arduinolcd\test\pain drain\libraries\lvgl\src\misc\lv_color.h **** #include "lv_assert.h"
  18:c:\projects\paindrain\arduinolcd\test\pain drain\libraries\lvgl\src\misc\lv_color.h **** #include "lv_math.h"
  19:c:\projects\paindrain\arduinolcd\test\pain drain\libraries\lvgl\src\misc\lv_color.h **** #include "lv_types.h"
  20:c:\projects\paindrain\arduinolcd\test\pain drain\libraries\lvgl\src\misc\lv_color.h **** 
  21:c:\projects\paindrain\arduinolcd\test\pain drain\libraries\lvgl\src\misc\lv_color.h **** /*Error checking*/
ARM GAS  C:\Users\haske\AppData\Local\Temp\ccDVbnbC.s 			page 22


  22:c:\projects\paindrain\arduinolcd\test\pain drain\libraries\lvgl\src\misc\lv_color.h **** #if LV_COLOR_DEPTH == 24
  23:c:\projects\paindrain\arduinolcd\test\pain drain\libraries\lvgl\src\misc\lv_color.h **** #error "LV_COLOR_DEPTH 24 is deprecated. Use LV_COLOR_DEPTH 32 instead (lv_conf.h)"
  24:c:\projects\paindrain\arduinolcd\test\pain drain\libraries\lvgl\src\misc\lv_color.h **** #endif
  25:c:\projects\paindrain\arduinolcd\test\pain drain\libraries\lvgl\src\misc\lv_color.h **** 
  26:c:\projects\paindrain\arduinolcd\test\pain drain\libraries\lvgl\src\misc\lv_color.h **** #if LV_COLOR_DEPTH != 16 && LV_COLOR_16_SWAP != 0
  27:c:\projects\paindrain\arduinolcd\test\pain drain\libraries\lvgl\src\misc\lv_color.h **** #error "LV_COLOR_16_SWAP requires LV_COLOR_DEPTH == 16. Set it in lv_conf.h"
  28:c:\projects\paindrain\arduinolcd\test\pain drain\libraries\lvgl\src\misc\lv_color.h **** #endif
  29:c:\projects\paindrain\arduinolcd\test\pain drain\libraries\lvgl\src\misc\lv_color.h **** 
  30:c:\projects\paindrain\arduinolcd\test\pain drain\libraries\lvgl\src\misc\lv_color.h **** #include <stdint.h>
  31:c:\projects\paindrain\arduinolcd\test\pain drain\libraries\lvgl\src\misc\lv_color.h **** 
  32:c:\projects\paindrain\arduinolcd\test\pain drain\libraries\lvgl\src\misc\lv_color.h **** /*********************
  33:c:\projects\paindrain\arduinolcd\test\pain drain\libraries\lvgl\src\misc\lv_color.h ****  *      DEFINES
  34:c:\projects\paindrain\arduinolcd\test\pain drain\libraries\lvgl\src\misc\lv_color.h ****  *********************/
  35:c:\projects\paindrain\arduinolcd\test\pain drain\libraries\lvgl\src\misc\lv_color.h **** LV_EXPORT_CONST_INT(LV_COLOR_DEPTH);
  36:c:\projects\paindrain\arduinolcd\test\pain drain\libraries\lvgl\src\misc\lv_color.h **** LV_EXPORT_CONST_INT(LV_COLOR_16_SWAP);
  37:c:\projects\paindrain\arduinolcd\test\pain drain\libraries\lvgl\src\misc\lv_color.h **** 
  38:c:\projects\paindrain\arduinolcd\test\pain drain\libraries\lvgl\src\misc\lv_color.h **** /**
  39:c:\projects\paindrain\arduinolcd\test\pain drain\libraries\lvgl\src\misc\lv_color.h ****  * Opacity percentages.
  40:c:\projects\paindrain\arduinolcd\test\pain drain\libraries\lvgl\src\misc\lv_color.h ****  */
  41:c:\projects\paindrain\arduinolcd\test\pain drain\libraries\lvgl\src\misc\lv_color.h **** enum {
  42:c:\projects\paindrain\arduinolcd\test\pain drain\libraries\lvgl\src\misc\lv_color.h ****     LV_OPA_TRANSP = 0,
  43:c:\projects\paindrain\arduinolcd\test\pain drain\libraries\lvgl\src\misc\lv_color.h ****     LV_OPA_0      = 0,
  44:c:\projects\paindrain\arduinolcd\test\pain drain\libraries\lvgl\src\misc\lv_color.h ****     LV_OPA_10     = 25,
  45:c:\projects\paindrain\arduinolcd\test\pain drain\libraries\lvgl\src\misc\lv_color.h ****     LV_OPA_20     = 51,
  46:c:\projects\paindrain\arduinolcd\test\pain drain\libraries\lvgl\src\misc\lv_color.h ****     LV_OPA_30     = 76,
  47:c:\projects\paindrain\arduinolcd\test\pain drain\libraries\lvgl\src\misc\lv_color.h ****     LV_OPA_40     = 102,
  48:c:\projects\paindrain\arduinolcd\test\pain drain\libraries\lvgl\src\misc\lv_color.h ****     LV_OPA_50     = 127,
  49:c:\projects\paindrain\arduinolcd\test\pain drain\libraries\lvgl\src\misc\lv_color.h ****     LV_OPA_60     = 153,
  50:c:\projects\paindrain\arduinolcd\test\pain drain\libraries\lvgl\src\misc\lv_color.h ****     LV_OPA_70     = 178,
  51:c:\projects\paindrain\arduinolcd\test\pain drain\libraries\lvgl\src\misc\lv_color.h ****     LV_OPA_80     = 204,
  52:c:\projects\paindrain\arduinolcd\test\pain drain\libraries\lvgl\src\misc\lv_color.h ****     LV_OPA_90     = 229,
  53:c:\projects\paindrain\arduinolcd\test\pain drain\libraries\lvgl\src\misc\lv_color.h ****     LV_OPA_100    = 255,
  54:c:\projects\paindrain\arduinolcd\test\pain drain\libraries\lvgl\src\misc\lv_color.h ****     LV_OPA_COVER  = 255,
  55:c:\projects\paindrain\arduinolcd\test\pain drain\libraries\lvgl\src\misc\lv_color.h **** };
  56:c:\projects\paindrain\arduinolcd\test\pain drain\libraries\lvgl\src\misc\lv_color.h **** 
  57:c:\projects\paindrain\arduinolcd\test\pain drain\libraries\lvgl\src\misc\lv_color.h **** #define LV_OPA_MIN 2    /*Opacities below this will be transparent*/
  58:c:\projects\paindrain\arduinolcd\test\pain drain\libraries\lvgl\src\misc\lv_color.h **** #define LV_OPA_MAX 253  /*Opacities above this will fully cover*/
  59:c:\projects\paindrain\arduinolcd\test\pain drain\libraries\lvgl\src\misc\lv_color.h **** 
  60:c:\projects\paindrain\arduinolcd\test\pain drain\libraries\lvgl\src\misc\lv_color.h **** #if LV_COLOR_DEPTH == 1
  61:c:\projects\paindrain\arduinolcd\test\pain drain\libraries\lvgl\src\misc\lv_color.h **** #define LV_COLOR_SIZE 8
  62:c:\projects\paindrain\arduinolcd\test\pain drain\libraries\lvgl\src\misc\lv_color.h **** #elif LV_COLOR_DEPTH == 8
  63:c:\projects\paindrain\arduinolcd\test\pain drain\libraries\lvgl\src\misc\lv_color.h **** #define LV_COLOR_SIZE 8
  64:c:\projects\paindrain\arduinolcd\test\pain drain\libraries\lvgl\src\misc\lv_color.h **** #elif LV_COLOR_DEPTH == 16
  65:c:\projects\paindrain\arduinolcd\test\pain drain\libraries\lvgl\src\misc\lv_color.h **** #define LV_COLOR_SIZE 16
  66:c:\projects\paindrain\arduinolcd\test\pain drain\libraries\lvgl\src\misc\lv_color.h **** #elif LV_COLOR_DEPTH == 32
  67:c:\projects\paindrain\arduinolcd\test\pain drain\libraries\lvgl\src\misc\lv_color.h **** #define LV_COLOR_SIZE 32
  68:c:\projects\paindrain\arduinolcd\test\pain drain\libraries\lvgl\src\misc\lv_color.h **** #else
  69:c:\projects\paindrain\arduinolcd\test\pain drain\libraries\lvgl\src\misc\lv_color.h **** #error "Invalid LV_COLOR_DEPTH in lv_conf.h! Set it to 1, 8, 16 or 32!"
  70:c:\projects\paindrain\arduinolcd\test\pain drain\libraries\lvgl\src\misc\lv_color.h **** #endif
  71:c:\projects\paindrain\arduinolcd\test\pain drain\libraries\lvgl\src\misc\lv_color.h **** 
  72:c:\projects\paindrain\arduinolcd\test\pain drain\libraries\lvgl\src\misc\lv_color.h **** #if defined(__cplusplus) && !defined(_LV_COLOR_HAS_MODERN_CPP)
  73:c:\projects\paindrain\arduinolcd\test\pain drain\libraries\lvgl\src\misc\lv_color.h **** /**
  74:c:\projects\paindrain\arduinolcd\test\pain drain\libraries\lvgl\src\misc\lv_color.h **** * MSVC compiler's definition of the __cplusplus indicating 199711L regardless to C++ standard versi
  75:c:\projects\paindrain\arduinolcd\test\pain drain\libraries\lvgl\src\misc\lv_color.h **** * see https://devblogs.microsoft.com/cppblog/msvc-now-correctly-reports-cplusplus
  76:c:\projects\paindrain\arduinolcd\test\pain drain\libraries\lvgl\src\misc\lv_color.h **** * so we use _MSC_VER macro instead of __cplusplus
  77:c:\projects\paindrain\arduinolcd\test\pain drain\libraries\lvgl\src\misc\lv_color.h **** */
  78:c:\projects\paindrain\arduinolcd\test\pain drain\libraries\lvgl\src\misc\lv_color.h **** #ifdef _MSC_VER
ARM GAS  C:\Users\haske\AppData\Local\Temp\ccDVbnbC.s 			page 23


  79:c:\projects\paindrain\arduinolcd\test\pain drain\libraries\lvgl\src\misc\lv_color.h **** #if _MSC_VER >= 1900 /*Visual Studio 2015*/
  80:c:\projects\paindrain\arduinolcd\test\pain drain\libraries\lvgl\src\misc\lv_color.h **** #define _LV_COLOR_HAS_MODERN_CPP 1
  81:c:\projects\paindrain\arduinolcd\test\pain drain\libraries\lvgl\src\misc\lv_color.h **** #endif
  82:c:\projects\paindrain\arduinolcd\test\pain drain\libraries\lvgl\src\misc\lv_color.h **** #else
  83:c:\projects\paindrain\arduinolcd\test\pain drain\libraries\lvgl\src\misc\lv_color.h **** #if __cplusplus >= 201103L
  84:c:\projects\paindrain\arduinolcd\test\pain drain\libraries\lvgl\src\misc\lv_color.h **** #define _LV_COLOR_HAS_MODERN_CPP 1
  85:c:\projects\paindrain\arduinolcd\test\pain drain\libraries\lvgl\src\misc\lv_color.h **** #endif
  86:c:\projects\paindrain\arduinolcd\test\pain drain\libraries\lvgl\src\misc\lv_color.h **** #endif
  87:c:\projects\paindrain\arduinolcd\test\pain drain\libraries\lvgl\src\misc\lv_color.h **** #endif /*__cplusplus*/
  88:c:\projects\paindrain\arduinolcd\test\pain drain\libraries\lvgl\src\misc\lv_color.h **** 
  89:c:\projects\paindrain\arduinolcd\test\pain drain\libraries\lvgl\src\misc\lv_color.h **** #ifndef _LV_COLOR_HAS_MODERN_CPP
  90:c:\projects\paindrain\arduinolcd\test\pain drain\libraries\lvgl\src\misc\lv_color.h **** #define _LV_COLOR_HAS_MODERN_CPP 0
  91:c:\projects\paindrain\arduinolcd\test\pain drain\libraries\lvgl\src\misc\lv_color.h **** #endif
  92:c:\projects\paindrain\arduinolcd\test\pain drain\libraries\lvgl\src\misc\lv_color.h **** 
  93:c:\projects\paindrain\arduinolcd\test\pain drain\libraries\lvgl\src\misc\lv_color.h **** #if _LV_COLOR_HAS_MODERN_CPP
  94:c:\projects\paindrain\arduinolcd\test\pain drain\libraries\lvgl\src\misc\lv_color.h **** /*Fix msvc compiler error C4576 inside C++ code*/
  95:c:\projects\paindrain\arduinolcd\test\pain drain\libraries\lvgl\src\misc\lv_color.h **** #define _LV_COLOR_MAKE_TYPE_HELPER lv_color_t
  96:c:\projects\paindrain\arduinolcd\test\pain drain\libraries\lvgl\src\misc\lv_color.h **** #else
  97:c:\projects\paindrain\arduinolcd\test\pain drain\libraries\lvgl\src\misc\lv_color.h **** #define _LV_COLOR_MAKE_TYPE_HELPER (lv_color_t)
  98:c:\projects\paindrain\arduinolcd\test\pain drain\libraries\lvgl\src\misc\lv_color.h **** #endif
  99:c:\projects\paindrain\arduinolcd\test\pain drain\libraries\lvgl\src\misc\lv_color.h **** 
 100:c:\projects\paindrain\arduinolcd\test\pain drain\libraries\lvgl\src\misc\lv_color.h **** /*---------------------------------------
 101:c:\projects\paindrain\arduinolcd\test\pain drain\libraries\lvgl\src\misc\lv_color.h ****  * Macros for all existing color depths
 102:c:\projects\paindrain\arduinolcd\test\pain drain\libraries\lvgl\src\misc\lv_color.h ****  * to set/get values of the color channels
 103:c:\projects\paindrain\arduinolcd\test\pain drain\libraries\lvgl\src\misc\lv_color.h ****  *------------------------------------------*/
 104:c:\projects\paindrain\arduinolcd\test\pain drain\libraries\lvgl\src\misc\lv_color.h **** # define LV_COLOR_SET_R1(c, v) (c).ch.red = (uint8_t)((v) & 0x1)
 105:c:\projects\paindrain\arduinolcd\test\pain drain\libraries\lvgl\src\misc\lv_color.h **** # define LV_COLOR_SET_G1(c, v) (c).ch.green = (uint8_t)((v) & 0x1)
 106:c:\projects\paindrain\arduinolcd\test\pain drain\libraries\lvgl\src\misc\lv_color.h **** # define LV_COLOR_SET_B1(c, v) (c).ch.blue = (uint8_t)((v) & 0x1)
 107:c:\projects\paindrain\arduinolcd\test\pain drain\libraries\lvgl\src\misc\lv_color.h **** # define LV_COLOR_SET_A1(c, v) do {} while(0)
 108:c:\projects\paindrain\arduinolcd\test\pain drain\libraries\lvgl\src\misc\lv_color.h **** 
 109:c:\projects\paindrain\arduinolcd\test\pain drain\libraries\lvgl\src\misc\lv_color.h **** # define LV_COLOR_GET_R1(c) (c).ch.red
 110:c:\projects\paindrain\arduinolcd\test\pain drain\libraries\lvgl\src\misc\lv_color.h **** # define LV_COLOR_GET_G1(c) (c).ch.green
 111:c:\projects\paindrain\arduinolcd\test\pain drain\libraries\lvgl\src\misc\lv_color.h **** # define LV_COLOR_GET_B1(c) (c).ch.blue
 112:c:\projects\paindrain\arduinolcd\test\pain drain\libraries\lvgl\src\misc\lv_color.h **** # define LV_COLOR_GET_A1(c) 0xFF
 113:c:\projects\paindrain\arduinolcd\test\pain drain\libraries\lvgl\src\misc\lv_color.h **** 
 114:c:\projects\paindrain\arduinolcd\test\pain drain\libraries\lvgl\src\misc\lv_color.h **** # define _LV_COLOR_ZERO_INITIALIZER1 {0x00}
 115:c:\projects\paindrain\arduinolcd\test\pain drain\libraries\lvgl\src\misc\lv_color.h **** # define LV_COLOR_MAKE1(r8, g8, b8)  {(uint8_t)((b8 >> 7) | (g8 >> 7) | (r8 >> 7))}
 116:c:\projects\paindrain\arduinolcd\test\pain drain\libraries\lvgl\src\misc\lv_color.h **** 
 117:c:\projects\paindrain\arduinolcd\test\pain drain\libraries\lvgl\src\misc\lv_color.h **** # define LV_COLOR_SET_R8(c, v) (c).ch.red = (uint8_t)((v) & 0x7U)
 118:c:\projects\paindrain\arduinolcd\test\pain drain\libraries\lvgl\src\misc\lv_color.h **** # define LV_COLOR_SET_G8(c, v) (c).ch.green = (uint8_t)((v) & 0x7U)
 119:c:\projects\paindrain\arduinolcd\test\pain drain\libraries\lvgl\src\misc\lv_color.h **** # define LV_COLOR_SET_B8(c, v) (c).ch.blue = (uint8_t)((v) & 0x3U)
 120:c:\projects\paindrain\arduinolcd\test\pain drain\libraries\lvgl\src\misc\lv_color.h **** # define LV_COLOR_SET_A8(c, v) do {} while(0)
 121:c:\projects\paindrain\arduinolcd\test\pain drain\libraries\lvgl\src\misc\lv_color.h **** 
 122:c:\projects\paindrain\arduinolcd\test\pain drain\libraries\lvgl\src\misc\lv_color.h **** # define LV_COLOR_GET_R8(c) (c).ch.red
 123:c:\projects\paindrain\arduinolcd\test\pain drain\libraries\lvgl\src\misc\lv_color.h **** # define LV_COLOR_GET_G8(c) (c).ch.green
 124:c:\projects\paindrain\arduinolcd\test\pain drain\libraries\lvgl\src\misc\lv_color.h **** # define LV_COLOR_GET_B8(c) (c).ch.blue
 125:c:\projects\paindrain\arduinolcd\test\pain drain\libraries\lvgl\src\misc\lv_color.h **** # define LV_COLOR_GET_A8(c) 0xFF
 126:c:\projects\paindrain\arduinolcd\test\pain drain\libraries\lvgl\src\misc\lv_color.h **** 
 127:c:\projects\paindrain\arduinolcd\test\pain drain\libraries\lvgl\src\misc\lv_color.h **** # define _LV_COLOR_ZERO_INITIALIZER8 {{0x00, 0x00, 0x00}}
 128:c:\projects\paindrain\arduinolcd\test\pain drain\libraries\lvgl\src\misc\lv_color.h **** # define LV_COLOR_MAKE8(r8, g8, b8) {{(uint8_t)((b8 >> 6) & 0x3U), (uint8_t)((g8 >> 5) & 0x7U), (ui
 129:c:\projects\paindrain\arduinolcd\test\pain drain\libraries\lvgl\src\misc\lv_color.h **** 
 130:c:\projects\paindrain\arduinolcd\test\pain drain\libraries\lvgl\src\misc\lv_color.h **** # define LV_COLOR_SET_R16(c, v) (c).ch.red = (uint8_t)((v) & 0x1FU)
 131:c:\projects\paindrain\arduinolcd\test\pain drain\libraries\lvgl\src\misc\lv_color.h **** #if LV_COLOR_16_SWAP == 0
 132:c:\projects\paindrain\arduinolcd\test\pain drain\libraries\lvgl\src\misc\lv_color.h **** # define LV_COLOR_SET_G16(c, v) (c).ch.green = (uint8_t)((v) & 0x3FU)
 133:c:\projects\paindrain\arduinolcd\test\pain drain\libraries\lvgl\src\misc\lv_color.h **** #else
 134:c:\projects\paindrain\arduinolcd\test\pain drain\libraries\lvgl\src\misc\lv_color.h **** # define LV_COLOR_SET_G16(c, v) {(c).ch.green_h = (uint8_t)(((v) >> 3) & 0x7); (c).ch.green_l = (ui
 135:c:\projects\paindrain\arduinolcd\test\pain drain\libraries\lvgl\src\misc\lv_color.h **** #endif
ARM GAS  C:\Users\haske\AppData\Local\Temp\ccDVbnbC.s 			page 24


 136:c:\projects\paindrain\arduinolcd\test\pain drain\libraries\lvgl\src\misc\lv_color.h **** # define LV_COLOR_SET_B16(c, v) (c).ch.blue = (uint8_t)((v) & 0x1FU)
 137:c:\projects\paindrain\arduinolcd\test\pain drain\libraries\lvgl\src\misc\lv_color.h **** # define LV_COLOR_SET_A16(c, v) do {} while(0)
 138:c:\projects\paindrain\arduinolcd\test\pain drain\libraries\lvgl\src\misc\lv_color.h **** 
 139:c:\projects\paindrain\arduinolcd\test\pain drain\libraries\lvgl\src\misc\lv_color.h **** # define LV_COLOR_GET_R16(c) (c).ch.red
 140:c:\projects\paindrain\arduinolcd\test\pain drain\libraries\lvgl\src\misc\lv_color.h **** #if LV_COLOR_16_SWAP == 0
 141:c:\projects\paindrain\arduinolcd\test\pain drain\libraries\lvgl\src\misc\lv_color.h **** # define LV_COLOR_GET_G16(c) (c).ch.green
 142:c:\projects\paindrain\arduinolcd\test\pain drain\libraries\lvgl\src\misc\lv_color.h **** #else
 143:c:\projects\paindrain\arduinolcd\test\pain drain\libraries\lvgl\src\misc\lv_color.h **** # define LV_COLOR_GET_G16(c) (((c).ch.green_h << 3) + (c).ch.green_l)
 144:c:\projects\paindrain\arduinolcd\test\pain drain\libraries\lvgl\src\misc\lv_color.h **** #endif
 145:c:\projects\paindrain\arduinolcd\test\pain drain\libraries\lvgl\src\misc\lv_color.h **** # define LV_COLOR_GET_B16(c) (c).ch.blue
 146:c:\projects\paindrain\arduinolcd\test\pain drain\libraries\lvgl\src\misc\lv_color.h **** # define LV_COLOR_GET_A16(c) 0xFF
 147:c:\projects\paindrain\arduinolcd\test\pain drain\libraries\lvgl\src\misc\lv_color.h **** 
 148:c:\projects\paindrain\arduinolcd\test\pain drain\libraries\lvgl\src\misc\lv_color.h **** #if LV_COLOR_16_SWAP == 0
 149:c:\projects\paindrain\arduinolcd\test\pain drain\libraries\lvgl\src\misc\lv_color.h **** # define _LV_COLOR_ZERO_INITIALIZER16  {{0x00, 0x00, 0x00}}
 150:c:\projects\paindrain\arduinolcd\test\pain drain\libraries\lvgl\src\misc\lv_color.h **** # define LV_COLOR_MAKE16(r8, g8, b8) {{(uint8_t)((b8 >> 3) & 0x1FU), (uint8_t)((g8 >> 2) & 0x3FU), 
 151:c:\projects\paindrain\arduinolcd\test\pain drain\libraries\lvgl\src\misc\lv_color.h **** #else
 152:c:\projects\paindrain\arduinolcd\test\pain drain\libraries\lvgl\src\misc\lv_color.h **** # define _LV_COLOR_ZERO_INITIALIZER16 {{0x00, 0x00, 0x00, 0x00}}
 153:c:\projects\paindrain\arduinolcd\test\pain drain\libraries\lvgl\src\misc\lv_color.h **** # define LV_COLOR_MAKE16(r8, g8, b8) {{(uint8_t)((g8 >> 5) & 0x7U), (uint8_t)((r8 >> 3) & 0x1FU), (
 154:c:\projects\paindrain\arduinolcd\test\pain drain\libraries\lvgl\src\misc\lv_color.h **** #endif
 155:c:\projects\paindrain\arduinolcd\test\pain drain\libraries\lvgl\src\misc\lv_color.h **** 
 156:c:\projects\paindrain\arduinolcd\test\pain drain\libraries\lvgl\src\misc\lv_color.h **** # define LV_COLOR_SET_R32(c, v) (c).ch.red = (uint8_t)((v) & 0xFF)
 157:c:\projects\paindrain\arduinolcd\test\pain drain\libraries\lvgl\src\misc\lv_color.h **** # define LV_COLOR_SET_G32(c, v) (c).ch.green = (uint8_t)((v) & 0xFF)
 158:c:\projects\paindrain\arduinolcd\test\pain drain\libraries\lvgl\src\misc\lv_color.h **** # define LV_COLOR_SET_B32(c, v) (c).ch.blue = (uint8_t)((v) & 0xFF)
 159:c:\projects\paindrain\arduinolcd\test\pain drain\libraries\lvgl\src\misc\lv_color.h **** # define LV_COLOR_SET_A32(c, v) (c).ch.alpha = (uint8_t)((v) & 0xFF)
 160:c:\projects\paindrain\arduinolcd\test\pain drain\libraries\lvgl\src\misc\lv_color.h **** 
 161:c:\projects\paindrain\arduinolcd\test\pain drain\libraries\lvgl\src\misc\lv_color.h **** # define LV_COLOR_GET_R32(c) (c).ch.red
 162:c:\projects\paindrain\arduinolcd\test\pain drain\libraries\lvgl\src\misc\lv_color.h **** # define LV_COLOR_GET_G32(c) (c).ch.green
 163:c:\projects\paindrain\arduinolcd\test\pain drain\libraries\lvgl\src\misc\lv_color.h **** # define LV_COLOR_GET_B32(c) (c).ch.blue
 164:c:\projects\paindrain\arduinolcd\test\pain drain\libraries\lvgl\src\misc\lv_color.h **** # define LV_COLOR_GET_A32(c) (c).ch.alpha
 165:c:\projects\paindrain\arduinolcd\test\pain drain\libraries\lvgl\src\misc\lv_color.h **** 
 166:c:\projects\paindrain\arduinolcd\test\pain drain\libraries\lvgl\src\misc\lv_color.h **** # define _LV_COLOR_ZERO_INITIALIZER32  {{0x00, 0x00, 0x00, 0x00}}
 167:c:\projects\paindrain\arduinolcd\test\pain drain\libraries\lvgl\src\misc\lv_color.h **** # define LV_COLOR_MAKE32(r8, g8, b8) {{b8, g8, r8, 0xff}} /*Fix 0xff alpha*/
 168:c:\projects\paindrain\arduinolcd\test\pain drain\libraries\lvgl\src\misc\lv_color.h **** 
 169:c:\projects\paindrain\arduinolcd\test\pain drain\libraries\lvgl\src\misc\lv_color.h **** /*---------------------------------------
 170:c:\projects\paindrain\arduinolcd\test\pain drain\libraries\lvgl\src\misc\lv_color.h ****  * Macros for the current color depth
 171:c:\projects\paindrain\arduinolcd\test\pain drain\libraries\lvgl\src\misc\lv_color.h ****  * to set/get values of the color channels
 172:c:\projects\paindrain\arduinolcd\test\pain drain\libraries\lvgl\src\misc\lv_color.h ****  *------------------------------------------*/
 173:c:\projects\paindrain\arduinolcd\test\pain drain\libraries\lvgl\src\misc\lv_color.h **** #define LV_COLOR_SET_R(c, v) LV_CONCAT(LV_COLOR_SET_R, LV_COLOR_DEPTH)(c, v)
 174:c:\projects\paindrain\arduinolcd\test\pain drain\libraries\lvgl\src\misc\lv_color.h **** #define LV_COLOR_SET_G(c, v) LV_CONCAT(LV_COLOR_SET_G, LV_COLOR_DEPTH)(c, v)
 175:c:\projects\paindrain\arduinolcd\test\pain drain\libraries\lvgl\src\misc\lv_color.h **** #define LV_COLOR_SET_B(c, v) LV_CONCAT(LV_COLOR_SET_B, LV_COLOR_DEPTH)(c, v)
 176:c:\projects\paindrain\arduinolcd\test\pain drain\libraries\lvgl\src\misc\lv_color.h **** #define LV_COLOR_SET_A(c, v) LV_CONCAT(LV_COLOR_SET_A, LV_COLOR_DEPTH)(c, v)
 177:c:\projects\paindrain\arduinolcd\test\pain drain\libraries\lvgl\src\misc\lv_color.h **** 
 178:c:\projects\paindrain\arduinolcd\test\pain drain\libraries\lvgl\src\misc\lv_color.h **** #define LV_COLOR_GET_R(c) LV_CONCAT(LV_COLOR_GET_R, LV_COLOR_DEPTH)(c)
 179:c:\projects\paindrain\arduinolcd\test\pain drain\libraries\lvgl\src\misc\lv_color.h **** #define LV_COLOR_GET_G(c) LV_CONCAT(LV_COLOR_GET_G, LV_COLOR_DEPTH)(c)
 180:c:\projects\paindrain\arduinolcd\test\pain drain\libraries\lvgl\src\misc\lv_color.h **** #define LV_COLOR_GET_B(c) LV_CONCAT(LV_COLOR_GET_B, LV_COLOR_DEPTH)(c)
 181:c:\projects\paindrain\arduinolcd\test\pain drain\libraries\lvgl\src\misc\lv_color.h **** #define LV_COLOR_GET_A(c) LV_CONCAT(LV_COLOR_GET_A, LV_COLOR_DEPTH)(c)
 182:c:\projects\paindrain\arduinolcd\test\pain drain\libraries\lvgl\src\misc\lv_color.h **** 
 183:c:\projects\paindrain\arduinolcd\test\pain drain\libraries\lvgl\src\misc\lv_color.h **** #define _LV_COLOR_ZERO_INITIALIZER LV_CONCAT(_LV_COLOR_ZERO_INITIALIZER, LV_COLOR_DEPTH)
 184:c:\projects\paindrain\arduinolcd\test\pain drain\libraries\lvgl\src\misc\lv_color.h **** #define LV_COLOR_MAKE(r8, g8, b8) LV_CONCAT(LV_COLOR_MAKE, LV_COLOR_DEPTH)(r8, g8, b8)
 185:c:\projects\paindrain\arduinolcd\test\pain drain\libraries\lvgl\src\misc\lv_color.h **** 
 186:c:\projects\paindrain\arduinolcd\test\pain drain\libraries\lvgl\src\misc\lv_color.h **** /**********************
 187:c:\projects\paindrain\arduinolcd\test\pain drain\libraries\lvgl\src\misc\lv_color.h ****  *      TYPEDEFS
 188:c:\projects\paindrain\arduinolcd\test\pain drain\libraries\lvgl\src\misc\lv_color.h ****  **********************/
 189:c:\projects\paindrain\arduinolcd\test\pain drain\libraries\lvgl\src\misc\lv_color.h **** 
 190:c:\projects\paindrain\arduinolcd\test\pain drain\libraries\lvgl\src\misc\lv_color.h **** typedef union {
 191:c:\projects\paindrain\arduinolcd\test\pain drain\libraries\lvgl\src\misc\lv_color.h ****     uint8_t full; /*must be declared first to set all bits of byte via initializer list*/
 192:c:\projects\paindrain\arduinolcd\test\pain drain\libraries\lvgl\src\misc\lv_color.h ****     union {
ARM GAS  C:\Users\haske\AppData\Local\Temp\ccDVbnbC.s 			page 25


 193:c:\projects\paindrain\arduinolcd\test\pain drain\libraries\lvgl\src\misc\lv_color.h ****         uint8_t blue : 1;
 194:c:\projects\paindrain\arduinolcd\test\pain drain\libraries\lvgl\src\misc\lv_color.h ****         uint8_t green : 1;
 195:c:\projects\paindrain\arduinolcd\test\pain drain\libraries\lvgl\src\misc\lv_color.h ****         uint8_t red : 1;
 196:c:\projects\paindrain\arduinolcd\test\pain drain\libraries\lvgl\src\misc\lv_color.h ****     } ch;
 197:c:\projects\paindrain\arduinolcd\test\pain drain\libraries\lvgl\src\misc\lv_color.h **** } lv_color1_t;
 198:c:\projects\paindrain\arduinolcd\test\pain drain\libraries\lvgl\src\misc\lv_color.h **** 
 199:c:\projects\paindrain\arduinolcd\test\pain drain\libraries\lvgl\src\misc\lv_color.h **** typedef union {
 200:c:\projects\paindrain\arduinolcd\test\pain drain\libraries\lvgl\src\misc\lv_color.h ****     struct {
 201:c:\projects\paindrain\arduinolcd\test\pain drain\libraries\lvgl\src\misc\lv_color.h ****         uint8_t blue : 2;
 202:c:\projects\paindrain\arduinolcd\test\pain drain\libraries\lvgl\src\misc\lv_color.h ****         uint8_t green : 3;
 203:c:\projects\paindrain\arduinolcd\test\pain drain\libraries\lvgl\src\misc\lv_color.h ****         uint8_t red : 3;
 204:c:\projects\paindrain\arduinolcd\test\pain drain\libraries\lvgl\src\misc\lv_color.h ****     } ch;
 205:c:\projects\paindrain\arduinolcd\test\pain drain\libraries\lvgl\src\misc\lv_color.h ****     uint8_t full;
 206:c:\projects\paindrain\arduinolcd\test\pain drain\libraries\lvgl\src\misc\lv_color.h **** } lv_color8_t;
 207:c:\projects\paindrain\arduinolcd\test\pain drain\libraries\lvgl\src\misc\lv_color.h **** 
 208:c:\projects\paindrain\arduinolcd\test\pain drain\libraries\lvgl\src\misc\lv_color.h **** typedef union {
 209:c:\projects\paindrain\arduinolcd\test\pain drain\libraries\lvgl\src\misc\lv_color.h ****     struct {
 210:c:\projects\paindrain\arduinolcd\test\pain drain\libraries\lvgl\src\misc\lv_color.h **** #if LV_COLOR_16_SWAP == 0
 211:c:\projects\paindrain\arduinolcd\test\pain drain\libraries\lvgl\src\misc\lv_color.h ****         uint16_t blue : 5;
 212:c:\projects\paindrain\arduinolcd\test\pain drain\libraries\lvgl\src\misc\lv_color.h ****         uint16_t green : 6;
 213:c:\projects\paindrain\arduinolcd\test\pain drain\libraries\lvgl\src\misc\lv_color.h ****         uint16_t red : 5;
 214:c:\projects\paindrain\arduinolcd\test\pain drain\libraries\lvgl\src\misc\lv_color.h **** #else
 215:c:\projects\paindrain\arduinolcd\test\pain drain\libraries\lvgl\src\misc\lv_color.h ****         uint16_t green_h : 3;
 216:c:\projects\paindrain\arduinolcd\test\pain drain\libraries\lvgl\src\misc\lv_color.h ****         uint16_t red : 5;
 217:c:\projects\paindrain\arduinolcd\test\pain drain\libraries\lvgl\src\misc\lv_color.h ****         uint16_t blue : 5;
 218:c:\projects\paindrain\arduinolcd\test\pain drain\libraries\lvgl\src\misc\lv_color.h ****         uint16_t green_l : 3;
 219:c:\projects\paindrain\arduinolcd\test\pain drain\libraries\lvgl\src\misc\lv_color.h **** #endif
 220:c:\projects\paindrain\arduinolcd\test\pain drain\libraries\lvgl\src\misc\lv_color.h ****     } ch;
 221:c:\projects\paindrain\arduinolcd\test\pain drain\libraries\lvgl\src\misc\lv_color.h ****     uint16_t full;
 222:c:\projects\paindrain\arduinolcd\test\pain drain\libraries\lvgl\src\misc\lv_color.h **** } lv_color16_t;
 223:c:\projects\paindrain\arduinolcd\test\pain drain\libraries\lvgl\src\misc\lv_color.h **** 
 224:c:\projects\paindrain\arduinolcd\test\pain drain\libraries\lvgl\src\misc\lv_color.h **** typedef union {
 225:c:\projects\paindrain\arduinolcd\test\pain drain\libraries\lvgl\src\misc\lv_color.h ****     struct {
 226:c:\projects\paindrain\arduinolcd\test\pain drain\libraries\lvgl\src\misc\lv_color.h ****         uint8_t blue;
 227:c:\projects\paindrain\arduinolcd\test\pain drain\libraries\lvgl\src\misc\lv_color.h ****         uint8_t green;
 228:c:\projects\paindrain\arduinolcd\test\pain drain\libraries\lvgl\src\misc\lv_color.h ****         uint8_t red;
 229:c:\projects\paindrain\arduinolcd\test\pain drain\libraries\lvgl\src\misc\lv_color.h ****         uint8_t alpha;
 230:c:\projects\paindrain\arduinolcd\test\pain drain\libraries\lvgl\src\misc\lv_color.h ****     } ch;
 231:c:\projects\paindrain\arduinolcd\test\pain drain\libraries\lvgl\src\misc\lv_color.h ****     uint32_t full;
 232:c:\projects\paindrain\arduinolcd\test\pain drain\libraries\lvgl\src\misc\lv_color.h **** } lv_color32_t;
 233:c:\projects\paindrain\arduinolcd\test\pain drain\libraries\lvgl\src\misc\lv_color.h **** 
 234:c:\projects\paindrain\arduinolcd\test\pain drain\libraries\lvgl\src\misc\lv_color.h **** typedef LV_CONCAT3(uint, LV_COLOR_SIZE, _t) lv_color_int_t;
 235:c:\projects\paindrain\arduinolcd\test\pain drain\libraries\lvgl\src\misc\lv_color.h **** typedef LV_CONCAT3(lv_color, LV_COLOR_DEPTH, _t) lv_color_t;
 236:c:\projects\paindrain\arduinolcd\test\pain drain\libraries\lvgl\src\misc\lv_color.h **** 
 237:c:\projects\paindrain\arduinolcd\test\pain drain\libraries\lvgl\src\misc\lv_color.h **** typedef struct {
 238:c:\projects\paindrain\arduinolcd\test\pain drain\libraries\lvgl\src\misc\lv_color.h ****     uint16_t h;
 239:c:\projects\paindrain\arduinolcd\test\pain drain\libraries\lvgl\src\misc\lv_color.h ****     uint8_t s;
 240:c:\projects\paindrain\arduinolcd\test\pain drain\libraries\lvgl\src\misc\lv_color.h ****     uint8_t v;
 241:c:\projects\paindrain\arduinolcd\test\pain drain\libraries\lvgl\src\misc\lv_color.h **** } lv_color_hsv_t;
 242:c:\projects\paindrain\arduinolcd\test\pain drain\libraries\lvgl\src\misc\lv_color.h **** 
 243:c:\projects\paindrain\arduinolcd\test\pain drain\libraries\lvgl\src\misc\lv_color.h **** //! @cond Doxygen_Suppress
 244:c:\projects\paindrain\arduinolcd\test\pain drain\libraries\lvgl\src\misc\lv_color.h **** /*No idea where the guard is required but else throws warnings in the docs*/
 245:c:\projects\paindrain\arduinolcd\test\pain drain\libraries\lvgl\src\misc\lv_color.h **** typedef uint8_t lv_opa_t;
 246:c:\projects\paindrain\arduinolcd\test\pain drain\libraries\lvgl\src\misc\lv_color.h **** //! @endcond
 247:c:\projects\paindrain\arduinolcd\test\pain drain\libraries\lvgl\src\misc\lv_color.h **** 
 248:c:\projects\paindrain\arduinolcd\test\pain drain\libraries\lvgl\src\misc\lv_color.h **** struct _lv_color_filter_dsc_t;
 249:c:\projects\paindrain\arduinolcd\test\pain drain\libraries\lvgl\src\misc\lv_color.h **** 
ARM GAS  C:\Users\haske\AppData\Local\Temp\ccDVbnbC.s 			page 26


 250:c:\projects\paindrain\arduinolcd\test\pain drain\libraries\lvgl\src\misc\lv_color.h **** typedef lv_color_t (*lv_color_filter_cb_t)(const struct _lv_color_filter_dsc_t *, lv_color_t, lv_op
 251:c:\projects\paindrain\arduinolcd\test\pain drain\libraries\lvgl\src\misc\lv_color.h **** 
 252:c:\projects\paindrain\arduinolcd\test\pain drain\libraries\lvgl\src\misc\lv_color.h **** typedef struct _lv_color_filter_dsc_t {
 253:c:\projects\paindrain\arduinolcd\test\pain drain\libraries\lvgl\src\misc\lv_color.h ****     lv_color_filter_cb_t filter_cb;
 254:c:\projects\paindrain\arduinolcd\test\pain drain\libraries\lvgl\src\misc\lv_color.h ****     void * user_data;
 255:c:\projects\paindrain\arduinolcd\test\pain drain\libraries\lvgl\src\misc\lv_color.h **** } lv_color_filter_dsc_t;
 256:c:\projects\paindrain\arduinolcd\test\pain drain\libraries\lvgl\src\misc\lv_color.h **** 
 257:c:\projects\paindrain\arduinolcd\test\pain drain\libraries\lvgl\src\misc\lv_color.h **** 
 258:c:\projects\paindrain\arduinolcd\test\pain drain\libraries\lvgl\src\misc\lv_color.h **** typedef enum {
 259:c:\projects\paindrain\arduinolcd\test\pain drain\libraries\lvgl\src\misc\lv_color.h ****     LV_PALETTE_RED,
 260:c:\projects\paindrain\arduinolcd\test\pain drain\libraries\lvgl\src\misc\lv_color.h ****     LV_PALETTE_PINK,
 261:c:\projects\paindrain\arduinolcd\test\pain drain\libraries\lvgl\src\misc\lv_color.h ****     LV_PALETTE_PURPLE,
 262:c:\projects\paindrain\arduinolcd\test\pain drain\libraries\lvgl\src\misc\lv_color.h ****     LV_PALETTE_DEEP_PURPLE,
 263:c:\projects\paindrain\arduinolcd\test\pain drain\libraries\lvgl\src\misc\lv_color.h ****     LV_PALETTE_INDIGO,
 264:c:\projects\paindrain\arduinolcd\test\pain drain\libraries\lvgl\src\misc\lv_color.h ****     LV_PALETTE_BLUE,
 265:c:\projects\paindrain\arduinolcd\test\pain drain\libraries\lvgl\src\misc\lv_color.h ****     LV_PALETTE_LIGHT_BLUE,
 266:c:\projects\paindrain\arduinolcd\test\pain drain\libraries\lvgl\src\misc\lv_color.h ****     LV_PALETTE_CYAN,
 267:c:\projects\paindrain\arduinolcd\test\pain drain\libraries\lvgl\src\misc\lv_color.h ****     LV_PALETTE_TEAL,
 268:c:\projects\paindrain\arduinolcd\test\pain drain\libraries\lvgl\src\misc\lv_color.h ****     LV_PALETTE_GREEN,
 269:c:\projects\paindrain\arduinolcd\test\pain drain\libraries\lvgl\src\misc\lv_color.h ****     LV_PALETTE_LIGHT_GREEN,
 270:c:\projects\paindrain\arduinolcd\test\pain drain\libraries\lvgl\src\misc\lv_color.h ****     LV_PALETTE_LIME,
 271:c:\projects\paindrain\arduinolcd\test\pain drain\libraries\lvgl\src\misc\lv_color.h ****     LV_PALETTE_YELLOW,
 272:c:\projects\paindrain\arduinolcd\test\pain drain\libraries\lvgl\src\misc\lv_color.h ****     LV_PALETTE_AMBER,
 273:c:\projects\paindrain\arduinolcd\test\pain drain\libraries\lvgl\src\misc\lv_color.h ****     LV_PALETTE_ORANGE,
 274:c:\projects\paindrain\arduinolcd\test\pain drain\libraries\lvgl\src\misc\lv_color.h ****     LV_PALETTE_DEEP_ORANGE,
 275:c:\projects\paindrain\arduinolcd\test\pain drain\libraries\lvgl\src\misc\lv_color.h ****     LV_PALETTE_BROWN,
 276:c:\projects\paindrain\arduinolcd\test\pain drain\libraries\lvgl\src\misc\lv_color.h ****     LV_PALETTE_BLUE_GREY,
 277:c:\projects\paindrain\arduinolcd\test\pain drain\libraries\lvgl\src\misc\lv_color.h ****     LV_PALETTE_GREY,
 278:c:\projects\paindrain\arduinolcd\test\pain drain\libraries\lvgl\src\misc\lv_color.h ****     _LV_PALETTE_LAST,
 279:c:\projects\paindrain\arduinolcd\test\pain drain\libraries\lvgl\src\misc\lv_color.h ****     LV_PALETTE_NONE = 0xff,
 280:c:\projects\paindrain\arduinolcd\test\pain drain\libraries\lvgl\src\misc\lv_color.h **** } lv_palette_t;
 281:c:\projects\paindrain\arduinolcd\test\pain drain\libraries\lvgl\src\misc\lv_color.h **** 
 282:c:\projects\paindrain\arduinolcd\test\pain drain\libraries\lvgl\src\misc\lv_color.h **** /**********************
 283:c:\projects\paindrain\arduinolcd\test\pain drain\libraries\lvgl\src\misc\lv_color.h ****  * GLOBAL PROTOTYPES
 284:c:\projects\paindrain\arduinolcd\test\pain drain\libraries\lvgl\src\misc\lv_color.h ****  **********************/
 285:c:\projects\paindrain\arduinolcd\test\pain drain\libraries\lvgl\src\misc\lv_color.h **** 
 286:c:\projects\paindrain\arduinolcd\test\pain drain\libraries\lvgl\src\misc\lv_color.h **** /*In color conversations:
 287:c:\projects\paindrain\arduinolcd\test\pain drain\libraries\lvgl\src\misc\lv_color.h ****  * - When converting to bigger color type the LSB weight of 1 LSB is calculated
 288:c:\projects\paindrain\arduinolcd\test\pain drain\libraries\lvgl\src\misc\lv_color.h ****  *   E.g. 16 bit Red has 5 bits
 289:c:\projects\paindrain\arduinolcd\test\pain drain\libraries\lvgl\src\misc\lv_color.h ****  *         8 bit Red has 3 bits
 290:c:\projects\paindrain\arduinolcd\test\pain drain\libraries\lvgl\src\misc\lv_color.h ****  *        ----------------------
 291:c:\projects\paindrain\arduinolcd\test\pain drain\libraries\lvgl\src\misc\lv_color.h ****  *        8 bit red LSB = (2^5 - 1) / (2^3 - 1) = 31 / 7 = 4
 292:c:\projects\paindrain\arduinolcd\test\pain drain\libraries\lvgl\src\misc\lv_color.h ****  *
 293:c:\projects\paindrain\arduinolcd\test\pain drain\libraries\lvgl\src\misc\lv_color.h ****  * - When calculating to smaller color type simply shift out the LSBs
 294:c:\projects\paindrain\arduinolcd\test\pain drain\libraries\lvgl\src\misc\lv_color.h ****  *   E.g.  8 bit Red has 3 bits
 295:c:\projects\paindrain\arduinolcd\test\pain drain\libraries\lvgl\src\misc\lv_color.h ****  *        16 bit Red has 5 bits
 296:c:\projects\paindrain\arduinolcd\test\pain drain\libraries\lvgl\src\misc\lv_color.h ****  *        ----------------------
 297:c:\projects\paindrain\arduinolcd\test\pain drain\libraries\lvgl\src\misc\lv_color.h ****  *         Shift right with 5 - 3 = 2
 298:c:\projects\paindrain\arduinolcd\test\pain drain\libraries\lvgl\src\misc\lv_color.h ****  */
 299:c:\projects\paindrain\arduinolcd\test\pain drain\libraries\lvgl\src\misc\lv_color.h **** static inline uint8_t lv_color_to1(lv_color_t color)
 300:c:\projects\paindrain\arduinolcd\test\pain drain\libraries\lvgl\src\misc\lv_color.h **** {
 301:c:\projects\paindrain\arduinolcd\test\pain drain\libraries\lvgl\src\misc\lv_color.h **** #if LV_COLOR_DEPTH == 1
 302:c:\projects\paindrain\arduinolcd\test\pain drain\libraries\lvgl\src\misc\lv_color.h ****     return color.full;
 303:c:\projects\paindrain\arduinolcd\test\pain drain\libraries\lvgl\src\misc\lv_color.h **** #elif LV_COLOR_DEPTH == 8
 304:c:\projects\paindrain\arduinolcd\test\pain drain\libraries\lvgl\src\misc\lv_color.h ****     if((LV_COLOR_GET_R(color) & 0x4) || (LV_COLOR_GET_G(color) & 0x4) || (LV_COLOR_GET_B(color) & 0
 305:c:\projects\paindrain\arduinolcd\test\pain drain\libraries\lvgl\src\misc\lv_color.h ****         return 1;
 306:c:\projects\paindrain\arduinolcd\test\pain drain\libraries\lvgl\src\misc\lv_color.h ****     }
ARM GAS  C:\Users\haske\AppData\Local\Temp\ccDVbnbC.s 			page 27


 307:c:\projects\paindrain\arduinolcd\test\pain drain\libraries\lvgl\src\misc\lv_color.h ****     else {
 308:c:\projects\paindrain\arduinolcd\test\pain drain\libraries\lvgl\src\misc\lv_color.h ****         return 0;
 309:c:\projects\paindrain\arduinolcd\test\pain drain\libraries\lvgl\src\misc\lv_color.h ****     }
 310:c:\projects\paindrain\arduinolcd\test\pain drain\libraries\lvgl\src\misc\lv_color.h **** #elif LV_COLOR_DEPTH == 16
 311:c:\projects\paindrain\arduinolcd\test\pain drain\libraries\lvgl\src\misc\lv_color.h ****     if((LV_COLOR_GET_R(color) & 0x10) || (LV_COLOR_GET_G(color) & 0x20) || (LV_COLOR_GET_B(color) &
 312:c:\projects\paindrain\arduinolcd\test\pain drain\libraries\lvgl\src\misc\lv_color.h ****         return 1;
 313:c:\projects\paindrain\arduinolcd\test\pain drain\libraries\lvgl\src\misc\lv_color.h ****     }
 314:c:\projects\paindrain\arduinolcd\test\pain drain\libraries\lvgl\src\misc\lv_color.h ****     else {
 315:c:\projects\paindrain\arduinolcd\test\pain drain\libraries\lvgl\src\misc\lv_color.h ****         return 0;
 316:c:\projects\paindrain\arduinolcd\test\pain drain\libraries\lvgl\src\misc\lv_color.h ****     }
 317:c:\projects\paindrain\arduinolcd\test\pain drain\libraries\lvgl\src\misc\lv_color.h **** #elif LV_COLOR_DEPTH == 32
 318:c:\projects\paindrain\arduinolcd\test\pain drain\libraries\lvgl\src\misc\lv_color.h ****     if((LV_COLOR_GET_R(color) & 0x80) || (LV_COLOR_GET_G(color) & 0x80) || (LV_COLOR_GET_B(color) &
 319:c:\projects\paindrain\arduinolcd\test\pain drain\libraries\lvgl\src\misc\lv_color.h ****         return 1;
 320:c:\projects\paindrain\arduinolcd\test\pain drain\libraries\lvgl\src\misc\lv_color.h ****     }
 321:c:\projects\paindrain\arduinolcd\test\pain drain\libraries\lvgl\src\misc\lv_color.h ****     else {
 322:c:\projects\paindrain\arduinolcd\test\pain drain\libraries\lvgl\src\misc\lv_color.h ****         return 0;
 323:c:\projects\paindrain\arduinolcd\test\pain drain\libraries\lvgl\src\misc\lv_color.h ****     }
 324:c:\projects\paindrain\arduinolcd\test\pain drain\libraries\lvgl\src\misc\lv_color.h **** #endif
 325:c:\projects\paindrain\arduinolcd\test\pain drain\libraries\lvgl\src\misc\lv_color.h **** }
 326:c:\projects\paindrain\arduinolcd\test\pain drain\libraries\lvgl\src\misc\lv_color.h **** 
 327:c:\projects\paindrain\arduinolcd\test\pain drain\libraries\lvgl\src\misc\lv_color.h **** static inline uint8_t lv_color_to8(lv_color_t color)
 328:c:\projects\paindrain\arduinolcd\test\pain drain\libraries\lvgl\src\misc\lv_color.h **** {
 329:c:\projects\paindrain\arduinolcd\test\pain drain\libraries\lvgl\src\misc\lv_color.h **** #if LV_COLOR_DEPTH == 1
 330:c:\projects\paindrain\arduinolcd\test\pain drain\libraries\lvgl\src\misc\lv_color.h ****     if(color.full == 0)
 331:c:\projects\paindrain\arduinolcd\test\pain drain\libraries\lvgl\src\misc\lv_color.h ****         return 0;
 332:c:\projects\paindrain\arduinolcd\test\pain drain\libraries\lvgl\src\misc\lv_color.h ****     else
 333:c:\projects\paindrain\arduinolcd\test\pain drain\libraries\lvgl\src\misc\lv_color.h ****         return 0xFF;
 334:c:\projects\paindrain\arduinolcd\test\pain drain\libraries\lvgl\src\misc\lv_color.h **** #elif LV_COLOR_DEPTH == 8
 335:c:\projects\paindrain\arduinolcd\test\pain drain\libraries\lvgl\src\misc\lv_color.h ****     return color.full;
 336:c:\projects\paindrain\arduinolcd\test\pain drain\libraries\lvgl\src\misc\lv_color.h **** #elif LV_COLOR_DEPTH == 16
 337:c:\projects\paindrain\arduinolcd\test\pain drain\libraries\lvgl\src\misc\lv_color.h ****     lv_color8_t ret;
 338:c:\projects\paindrain\arduinolcd\test\pain drain\libraries\lvgl\src\misc\lv_color.h ****     LV_COLOR_SET_R8(ret, LV_COLOR_GET_R(color) >> 2); /*5 - 3  = 2*/
 339:c:\projects\paindrain\arduinolcd\test\pain drain\libraries\lvgl\src\misc\lv_color.h ****     LV_COLOR_SET_G8(ret, LV_COLOR_GET_G(color) >> 3); /*6 - 3  = 3*/
 340:c:\projects\paindrain\arduinolcd\test\pain drain\libraries\lvgl\src\misc\lv_color.h ****     LV_COLOR_SET_B8(ret, LV_COLOR_GET_B(color) >> 3); /*5 - 2  = 3*/
 341:c:\projects\paindrain\arduinolcd\test\pain drain\libraries\lvgl\src\misc\lv_color.h ****     return ret.full;
 342:c:\projects\paindrain\arduinolcd\test\pain drain\libraries\lvgl\src\misc\lv_color.h **** #elif LV_COLOR_DEPTH == 32
 343:c:\projects\paindrain\arduinolcd\test\pain drain\libraries\lvgl\src\misc\lv_color.h ****     lv_color8_t ret;
 344:c:\projects\paindrain\arduinolcd\test\pain drain\libraries\lvgl\src\misc\lv_color.h ****     LV_COLOR_SET_R8(ret, LV_COLOR_GET_R(color) >> 5); /*8 - 3  = 5*/
 345:c:\projects\paindrain\arduinolcd\test\pain drain\libraries\lvgl\src\misc\lv_color.h ****     LV_COLOR_SET_G8(ret, LV_COLOR_GET_G(color) >> 5); /*8 - 3  = 5*/
 346:c:\projects\paindrain\arduinolcd\test\pain drain\libraries\lvgl\src\misc\lv_color.h ****     LV_COLOR_SET_B8(ret, LV_COLOR_GET_B(color) >> 6); /*8 - 2  = 6*/
 347:c:\projects\paindrain\arduinolcd\test\pain drain\libraries\lvgl\src\misc\lv_color.h ****     return ret.full;
 348:c:\projects\paindrain\arduinolcd\test\pain drain\libraries\lvgl\src\misc\lv_color.h **** #endif
 349:c:\projects\paindrain\arduinolcd\test\pain drain\libraries\lvgl\src\misc\lv_color.h **** }
 350:c:\projects\paindrain\arduinolcd\test\pain drain\libraries\lvgl\src\misc\lv_color.h **** 
 351:c:\projects\paindrain\arduinolcd\test\pain drain\libraries\lvgl\src\misc\lv_color.h **** static inline uint16_t lv_color_to16(lv_color_t color)
 352:c:\projects\paindrain\arduinolcd\test\pain drain\libraries\lvgl\src\misc\lv_color.h **** {
 353:c:\projects\paindrain\arduinolcd\test\pain drain\libraries\lvgl\src\misc\lv_color.h **** #if LV_COLOR_DEPTH == 1
 354:c:\projects\paindrain\arduinolcd\test\pain drain\libraries\lvgl\src\misc\lv_color.h ****     if(color.full == 0)
 355:c:\projects\paindrain\arduinolcd\test\pain drain\libraries\lvgl\src\misc\lv_color.h ****         return 0;
 356:c:\projects\paindrain\arduinolcd\test\pain drain\libraries\lvgl\src\misc\lv_color.h ****     else
 357:c:\projects\paindrain\arduinolcd\test\pain drain\libraries\lvgl\src\misc\lv_color.h ****         return 0xFFFF;
 358:c:\projects\paindrain\arduinolcd\test\pain drain\libraries\lvgl\src\misc\lv_color.h **** #elif LV_COLOR_DEPTH == 8
 359:c:\projects\paindrain\arduinolcd\test\pain drain\libraries\lvgl\src\misc\lv_color.h ****     lv_color16_t ret;
 360:c:\projects\paindrain\arduinolcd\test\pain drain\libraries\lvgl\src\misc\lv_color.h ****     LV_COLOR_SET_R16(ret, LV_COLOR_GET_R(color) * 4);  /*(2^5 - 1)/(2^3 - 1) = 31/7 = 4*/
 361:c:\projects\paindrain\arduinolcd\test\pain drain\libraries\lvgl\src\misc\lv_color.h ****     LV_COLOR_SET_G16(ret, LV_COLOR_GET_G(color) * 9);  /*(2^6 - 1)/(2^3 - 1) = 63/7 = 9*/
 362:c:\projects\paindrain\arduinolcd\test\pain drain\libraries\lvgl\src\misc\lv_color.h ****     LV_COLOR_SET_B16(ret, LV_COLOR_GET_B(color) * 10); /*(2^5 - 1)/(2^2 - 1) = 31/3 = 10*/
 363:c:\projects\paindrain\arduinolcd\test\pain drain\libraries\lvgl\src\misc\lv_color.h ****     return ret.full;
ARM GAS  C:\Users\haske\AppData\Local\Temp\ccDVbnbC.s 			page 28


 364:c:\projects\paindrain\arduinolcd\test\pain drain\libraries\lvgl\src\misc\lv_color.h **** #elif LV_COLOR_DEPTH == 16
 365:c:\projects\paindrain\arduinolcd\test\pain drain\libraries\lvgl\src\misc\lv_color.h ****     return color.full;
 366:c:\projects\paindrain\arduinolcd\test\pain drain\libraries\lvgl\src\misc\lv_color.h **** #elif LV_COLOR_DEPTH == 32
 367:c:\projects\paindrain\arduinolcd\test\pain drain\libraries\lvgl\src\misc\lv_color.h ****     lv_color16_t ret;
 368:c:\projects\paindrain\arduinolcd\test\pain drain\libraries\lvgl\src\misc\lv_color.h ****     LV_COLOR_SET_R16(ret, LV_COLOR_GET_R(color) >> 3); /*8 - 5  = 3*/
 369:c:\projects\paindrain\arduinolcd\test\pain drain\libraries\lvgl\src\misc\lv_color.h ****     LV_COLOR_SET_G16(ret, LV_COLOR_GET_G(color) >> 2); /*8 - 6  = 2*/
 370:c:\projects\paindrain\arduinolcd\test\pain drain\libraries\lvgl\src\misc\lv_color.h ****     LV_COLOR_SET_B16(ret, LV_COLOR_GET_B(color) >> 3); /*8 - 5  = 3*/
 371:c:\projects\paindrain\arduinolcd\test\pain drain\libraries\lvgl\src\misc\lv_color.h ****     return ret.full;
 372:c:\projects\paindrain\arduinolcd\test\pain drain\libraries\lvgl\src\misc\lv_color.h **** #endif
 373:c:\projects\paindrain\arduinolcd\test\pain drain\libraries\lvgl\src\misc\lv_color.h **** }
 374:c:\projects\paindrain\arduinolcd\test\pain drain\libraries\lvgl\src\misc\lv_color.h **** 
 375:c:\projects\paindrain\arduinolcd\test\pain drain\libraries\lvgl\src\misc\lv_color.h **** static inline uint32_t lv_color_to32(lv_color_t color)
 376:c:\projects\paindrain\arduinolcd\test\pain drain\libraries\lvgl\src\misc\lv_color.h **** {
 377:c:\projects\paindrain\arduinolcd\test\pain drain\libraries\lvgl\src\misc\lv_color.h **** #if LV_COLOR_DEPTH == 1
 378:c:\projects\paindrain\arduinolcd\test\pain drain\libraries\lvgl\src\misc\lv_color.h ****     if(color.full == 0)
 379:c:\projects\paindrain\arduinolcd\test\pain drain\libraries\lvgl\src\misc\lv_color.h ****         return 0xFF000000;
 380:c:\projects\paindrain\arduinolcd\test\pain drain\libraries\lvgl\src\misc\lv_color.h ****     else
 381:c:\projects\paindrain\arduinolcd\test\pain drain\libraries\lvgl\src\misc\lv_color.h ****         return 0xFFFFFFFF;
 382:c:\projects\paindrain\arduinolcd\test\pain drain\libraries\lvgl\src\misc\lv_color.h **** #elif LV_COLOR_DEPTH == 8
 383:c:\projects\paindrain\arduinolcd\test\pain drain\libraries\lvgl\src\misc\lv_color.h ****     lv_color32_t ret;
 384:c:\projects\paindrain\arduinolcd\test\pain drain\libraries\lvgl\src\misc\lv_color.h ****     LV_COLOR_SET_R32(ret, LV_COLOR_GET_R(color) * 36); /*(2^8 - 1)/(2^3 - 1) = 255/7 = 36*/
 385:c:\projects\paindrain\arduinolcd\test\pain drain\libraries\lvgl\src\misc\lv_color.h ****     LV_COLOR_SET_G32(ret, LV_COLOR_GET_G(color) * 36); /*(2^8 - 1)/(2^3 - 1) = 255/7 = 36*/
 386:c:\projects\paindrain\arduinolcd\test\pain drain\libraries\lvgl\src\misc\lv_color.h ****     LV_COLOR_SET_B32(ret, LV_COLOR_GET_B(color) * 85); /*(2^8 - 1)/(2^2 - 1) = 255/3 = 85*/
 387:c:\projects\paindrain\arduinolcd\test\pain drain\libraries\lvgl\src\misc\lv_color.h ****     LV_COLOR_SET_A32(ret, 0xFF);
 388:c:\projects\paindrain\arduinolcd\test\pain drain\libraries\lvgl\src\misc\lv_color.h ****     return ret.full;
 389:c:\projects\paindrain\arduinolcd\test\pain drain\libraries\lvgl\src\misc\lv_color.h **** #elif LV_COLOR_DEPTH == 16
 390:c:\projects\paindrain\arduinolcd\test\pain drain\libraries\lvgl\src\misc\lv_color.h ****     /**
 391:c:\projects\paindrain\arduinolcd\test\pain drain\libraries\lvgl\src\misc\lv_color.h ****      * The floating point math for conversion is:
 392:c:\projects\paindrain\arduinolcd\test\pain drain\libraries\lvgl\src\misc\lv_color.h ****      *  valueto = valuefrom * ( (2^bitsto - 1) / (float)(2^bitsfrom - 1) )
 393:c:\projects\paindrain\arduinolcd\test\pain drain\libraries\lvgl\src\misc\lv_color.h ****      * The faster integer math for conversion is:
 394:c:\projects\paindrain\arduinolcd\test\pain drain\libraries\lvgl\src\misc\lv_color.h ****      *  valueto = ( valuefrom * multiplier + adder ) >> divisor
 395:c:\projects\paindrain\arduinolcd\test\pain drain\libraries\lvgl\src\misc\lv_color.h ****      *   multiplier = FLOOR( ( (2^bitsto - 1) << divisor ) / (float)(2^bitsfrom - 1) )
 396:c:\projects\paindrain\arduinolcd\test\pain drain\libraries\lvgl\src\misc\lv_color.h ****      *
 397:c:\projects\paindrain\arduinolcd\test\pain drain\libraries\lvgl\src\misc\lv_color.h ****      * Find the first divisor where ( adder >> divisor ) <= 0
 398:c:\projects\paindrain\arduinolcd\test\pain drain\libraries\lvgl\src\misc\lv_color.h ****      *
 399:c:\projects\paindrain\arduinolcd\test\pain drain\libraries\lvgl\src\misc\lv_color.h ****      * 5-bit to 8-bit: ( 31 * multiplier + adder ) >> divisor = 255
 400:c:\projects\paindrain\arduinolcd\test\pain drain\libraries\lvgl\src\misc\lv_color.h ****      * divisor  multiplier  adder  min (0)  max (31)
 401:c:\projects\paindrain\arduinolcd\test\pain drain\libraries\lvgl\src\misc\lv_color.h ****      *       0           8      7        7       255
 402:c:\projects\paindrain\arduinolcd\test\pain drain\libraries\lvgl\src\misc\lv_color.h ****      *       1          16     14        7       255
 403:c:\projects\paindrain\arduinolcd\test\pain drain\libraries\lvgl\src\misc\lv_color.h ****      *       2          32     28        7       255
 404:c:\projects\paindrain\arduinolcd\test\pain drain\libraries\lvgl\src\misc\lv_color.h ****      *       3          65     25        3       255
 405:c:\projects\paindrain\arduinolcd\test\pain drain\libraries\lvgl\src\misc\lv_color.h ****      *       4         131     19        1       255
 406:c:\projects\paindrain\arduinolcd\test\pain drain\libraries\lvgl\src\misc\lv_color.h ****      *       5         263      7        0       255
 407:c:\projects\paindrain\arduinolcd\test\pain drain\libraries\lvgl\src\misc\lv_color.h ****      *
 408:c:\projects\paindrain\arduinolcd\test\pain drain\libraries\lvgl\src\misc\lv_color.h ****      * 6-bit to 8-bit: 255 = ( 63 * multiplier + adder ) >> divisor
 409:c:\projects\paindrain\arduinolcd\test\pain drain\libraries\lvgl\src\misc\lv_color.h ****      * divisor  multiplier  adder  min (0)  max (63)
 410:c:\projects\paindrain\arduinolcd\test\pain drain\libraries\lvgl\src\misc\lv_color.h ****      *       0           4      3        3       255
 411:c:\projects\paindrain\arduinolcd\test\pain drain\libraries\lvgl\src\misc\lv_color.h ****      *       1           8      6        3       255
 412:c:\projects\paindrain\arduinolcd\test\pain drain\libraries\lvgl\src\misc\lv_color.h ****      *       2          16     12        3       255
 413:c:\projects\paindrain\arduinolcd\test\pain drain\libraries\lvgl\src\misc\lv_color.h ****      *       3          32     24        3       255
 414:c:\projects\paindrain\arduinolcd\test\pain drain\libraries\lvgl\src\misc\lv_color.h ****      *       4          64     48        3       255
 415:c:\projects\paindrain\arduinolcd\test\pain drain\libraries\lvgl\src\misc\lv_color.h ****      *       5         129     33        1       255
 416:c:\projects\paindrain\arduinolcd\test\pain drain\libraries\lvgl\src\misc\lv_color.h ****      *       6         259      3        0       255
 417:c:\projects\paindrain\arduinolcd\test\pain drain\libraries\lvgl\src\misc\lv_color.h ****      */
 418:c:\projects\paindrain\arduinolcd\test\pain drain\libraries\lvgl\src\misc\lv_color.h **** 
 419:c:\projects\paindrain\arduinolcd\test\pain drain\libraries\lvgl\src\misc\lv_color.h ****     lv_color32_t ret;
 420:c:\projects\paindrain\arduinolcd\test\pain drain\libraries\lvgl\src\misc\lv_color.h ****     LV_COLOR_SET_R32(ret, (LV_COLOR_GET_R(color) * 263 + 7) >> 5);
ARM GAS  C:\Users\haske\AppData\Local\Temp\ccDVbnbC.s 			page 29


 833              		.loc 2 420 0
 834 0056 EC0A     		lsrs	r4, r5, #11
 835 0058 6301     		lsls	r3, r4, #5
 836 005a 1B19     		adds	r3, r3, r4
 837 005c DB00     		lsls	r3, r3, #3
 838 005e 1C1B     		subs	r4, r3, r4
 839 0060 0734     		adds	r4, r4, #7
 840 0062 6411     		asrs	r4, r4, #5
 841 0064 E4B2     		uxtb	r4, r4
 842 0066 2404     		lsls	r4, r4, #16
 843              	.LVL101:
 421:c:\projects\paindrain\arduinolcd\test\pain drain\libraries\lvgl\src\misc\lv_color.h ****     LV_COLOR_SET_G32(ret, (LV_COLOR_GET_G(color) * 259 + 3) >> 6);
 844              		.loc 2 421 0
 845 0068 6B05     		lsls	r3, r5, #21
 846 006a 9B0E     		lsrs	r3, r3, #26
 847 006c DF01     		lsls	r7, r3, #7
 848              	.LVL102:
 849 006e FF18     		adds	r7, r7, r3
 850 0070 7F00     		lsls	r7, r7, #1
 851 0072 FB18     		adds	r3, r7, r3
 852 0074 0333     		adds	r3, r3, #3
 853 0076 9B11     		asrs	r3, r3, #6
 854 0078 DBB2     		uxtb	r3, r3
 855 007a 1B02     		lsls	r3, r3, #8
 856              	.LVL103:
 857 007c 1C43     		orrs	r4, r3
 858              	.LVL104:
 422:c:\projects\paindrain\arduinolcd\test\pain drain\libraries\lvgl\src\misc\lv_color.h ****     LV_COLOR_SET_B32(ret, (LV_COLOR_GET_B(color) * 263 + 7) >> 5);
 859              		.loc 2 422 0
 860 007e ED06     		lsls	r5, r5, #27
 861 0080 ED0E     		lsrs	r5, r5, #27
 862 0082 6B01     		lsls	r3, r5, #5
 863 0084 5B19     		adds	r3, r3, r5
 864 0086 DB00     		lsls	r3, r3, #3
 865 0088 5B1B     		subs	r3, r3, r5
 866 008a 0733     		adds	r3, r3, #7
 867 008c 5B11     		asrs	r3, r3, #5
 868 008e DBB2     		uxtb	r3, r3
 869              	.LVL105:
 870 0090 1C43     		orrs	r4, r3
 871              	.LVL106:
 423:c:\projects\paindrain\arduinolcd\test\pain drain\libraries\lvgl\src\misc\lv_color.h ****     LV_COLOR_SET_A32(ret, 0xFF);
 872              		.loc 2 423 0
 873 0092 FF25     		movs	r5, #255
 874 0094 2D06     		lsls	r5, r5, #24
 875              	.LVL107:
 876              	.LBE14:
 877              	.LBE13:
 878              		.loc 1 319 0
 879 0096 2C43     		orrs	r4, r5
 880              	.LVL108:
 881 0098 5B46     		mov	r3, fp
 882 009a 9F00     		lsls	r7, r3, #2
 883 009c 3B5A     		ldrh	r3, [r7, r0]
 884 009e 9846     		mov	r8, r3
 885              	.LBB15:
 886              	.LBB16:
ARM GAS  C:\Users\haske\AppData\Local\Temp\ccDVbnbC.s 			page 30


 420:c:\projects\paindrain\arduinolcd\test\pain drain\libraries\lvgl\src\misc\lv_color.h ****     LV_COLOR_SET_G32(ret, (LV_COLOR_GET_G(color) * 259 + 3) >> 6);
 887              		.loc 2 420 0
 888 00a0 DF0A     		lsrs	r7, r3, #11
 889 00a2 7B01     		lsls	r3, r7, #5
 890 00a4 DB19     		adds	r3, r3, r7
 891 00a6 DB00     		lsls	r3, r3, #3
 892 00a8 DB1B     		subs	r3, r3, r7
 893 00aa 0733     		adds	r3, r3, #7
 894 00ac 5B11     		asrs	r3, r3, #5
 895 00ae DBB2     		uxtb	r3, r3
 896 00b0 1B04     		lsls	r3, r3, #16
 897              	.LVL109:
 421:c:\projects\paindrain\arduinolcd\test\pain drain\libraries\lvgl\src\misc\lv_color.h ****     LV_COLOR_SET_B32(ret, (LV_COLOR_GET_B(color) * 263 + 7) >> 5);
 898              		.loc 2 421 0
 899 00b2 4246     		mov	r2, r8
 900 00b4 5705     		lsls	r7, r2, #21
 901 00b6 BF0E     		lsrs	r7, r7, #26
 902 00b8 FA01     		lsls	r2, r7, #7
 903 00ba 9146     		mov	r9, r2
 904              	.LVL110:
 905 00bc B944     		add	r9, r9, r7
 906 00be 4A46     		mov	r2, r9
 907 00c0 5200     		lsls	r2, r2, #1
 908 00c2 9146     		mov	r9, r2
 909 00c4 4F44     		add	r7, r7, r9
 910 00c6 0337     		adds	r7, r7, #3
 911 00c8 BF11     		asrs	r7, r7, #6
 912 00ca FFB2     		uxtb	r7, r7
 913 00cc 3F02     		lsls	r7, r7, #8
 914              	.LVL111:
 915 00ce 3B43     		orrs	r3, r7
 916              	.LVL112:
 422:c:\projects\paindrain\arduinolcd\test\pain drain\libraries\lvgl\src\misc\lv_color.h ****     LV_COLOR_SET_A32(ret, 0xFF);
 917              		.loc 2 422 0
 918 00d0 4246     		mov	r2, r8
 919 00d2 D706     		lsls	r7, r2, #27
 920 00d4 FA0E     		lsrs	r2, r7, #27
 921 00d6 9046     		mov	r8, r2
 922 00d8 5701     		lsls	r7, r2, #5
 923 00da 4744     		add	r7, r7, r8
 924 00dc FF00     		lsls	r7, r7, #3
 925 00de BF1A     		subs	r7, r7, r2
 926 00e0 0737     		adds	r7, r7, #7
 927 00e2 7F11     		asrs	r7, r7, #5
 928 00e4 FFB2     		uxtb	r7, r7
 929              	.LVL113:
 930 00e6 3B43     		orrs	r3, r7
 931              	.LVL114:
 932              	.LBE16:
 933              	.LBE15:
 320:..\..\..\arduinoLCD\test\Pain Drain\libraries\lvgl\src\draw\sw/lv_draw_sw_gradient.c ****             two.full = lv_color_to32(dsc->stops[i].color);
 934              		.loc 1 320 0
 935 00e8 1D43     		orrs	r5, r3
 936              	.LVL115:
 321:..\..\..\arduinoLCD\test\Pain Drain\libraries\lvgl\src\draw\sw/lv_draw_sw_gradient.c ****             min = (dsc->stops[i - 1].frac * range) >> 8;
 937              		.loc 1 321 0
 938 00ea 6044     		add	r0, r0, ip
ARM GAS  C:\Users\haske\AppData\Local\Temp\ccDVbnbC.s 			page 31


 939              	.LVL116:
 940 00ec 8378     		ldrb	r3, [r0, #2]
 941              	.LVL117:
 942 00ee 5943     		muls	r1, r3
 943              	.LVL118:
 944 00f0 0F12     		asrs	r7, r1, #8
 945              	.LVL119:
 322:..\..\..\arduinoLCD\test\Pain Drain\libraries\lvgl\src\draw\sw/lv_draw_sw_gradient.c ****             max = (dsc->stops[i].frac * range) >> 8;
 323:..\..\..\arduinoLCD\test\Pain Drain\libraries\lvgl\src\draw\sw/lv_draw_sw_gradient.c ****             d = max - min;
 946              		.loc 1 323 0
 947 00f2 F11B     		subs	r1, r6, r7
 948              	.LVL120:
 324:..\..\..\arduinoLCD\test\Pain Drain\libraries\lvgl\src\draw\sw/lv_draw_sw_gradient.c ****             break;
 949              		.loc 1 324 0
 950 00f4 06E0     		b	.L60
 951              	.LVL121:
 952              	.L59:
 953              	.LBE12:
 316:..\..\..\arduinoLCD\test\Pain Drain\libraries\lvgl\src\draw\sw/lv_draw_sw_gradient.c ****         int32_t cur = (dsc->stops[i].frac * range) >> 8;
 954              		.loc 1 316 0 discriminator 2
 955 00f6 0133     		adds	r3, r3, #1
 956              	.LVL122:
 957 00f8 DBB2     		uxtb	r3, r3
 958              	.LVL123:
 959 00fa 00E0     		b	.L58
 960              	.LVL124:
 961              	.L64:
 962              	.LBE11:
 963 00fc 0123     		movs	r3, #1
 964              	.LVL125:
 965              	.L58:
 966              	.LBB17:
 316:..\..\..\arduinoLCD\test\Pain Drain\libraries\lvgl\src\draw\sw/lv_draw_sw_gradient.c ****         int32_t cur = (dsc->stops[i].frac * range) >> 8;
 967              		.loc 1 316 0 is_stmt 0 discriminator 1
 968 00fe 4B45     		cmp	r3, r9
 969 0100 9CD3     		bcc	.L61
 970              	.LBE17:
 315:..\..\..\arduinoLCD\test\Pain Drain\libraries\lvgl\src\draw\sw/lv_draw_sw_gradient.c ****     for(uint8_t i = 1; i < dsc->stops_count; i++) {
 971              		.loc 1 315 0 is_stmt 1
 972 0102 0021     		movs	r1, #0
 973              	.LVL126:
 974              	.L60:
 325:..\..\..\arduinoLCD\test\Pain Drain\libraries\lvgl\src\draw\sw/lv_draw_sw_gradient.c ****         }
 326:..\..\..\arduinoLCD\test\Pain Drain\libraries\lvgl\src\draw\sw/lv_draw_sw_gradient.c ****     }
 327:..\..\..\arduinoLCD\test\Pain Drain\libraries\lvgl\src\draw\sw/lv_draw_sw_gradient.c **** 
 328:..\..\..\arduinoLCD\test\Pain Drain\libraries\lvgl\src\draw\sw/lv_draw_sw_gradient.c ****     LV_ASSERT(d != 0);
 975              		.loc 1 328 0
 976 0104 0029     		cmp	r1, #0
 977 0106 00D1     		bne	.L62
 978              	.L63:
 979 0108 FEE7     		b	.L63
 980              	.L62:
 329:..\..\..\arduinoLCD\test\Pain Drain\libraries\lvgl\src\draw\sw/lv_draw_sw_gradient.c **** 
 330:..\..\..\arduinoLCD\test\Pain Drain\libraries\lvgl\src\draw\sw/lv_draw_sw_gradient.c ****     /*Then interpolate*/
 331:..\..\..\arduinoLCD\test\Pain Drain\libraries\lvgl\src\draw\sw/lv_draw_sw_gradient.c ****     frac -= min;
 981              		.loc 1 331 0
 982 010a 019B     		ldr	r3, [sp, #4]
ARM GAS  C:\Users\haske\AppData\Local\Temp\ccDVbnbC.s 			page 32


 983 010c DA1B     		subs	r2, r3, r7
 984 010e 12B2     		sxth	r2, r2
 985              	.LVL127:
 332:..\..\..\arduinoLCD\test\Pain Drain\libraries\lvgl\src\draw\sw/lv_draw_sw_gradient.c ****     lv_opa_t mix = (frac * 255) / d;
 986              		.loc 1 332 0
 987 0110 1002     		lsls	r0, r2, #8
 988 0112 801A     		subs	r0, r0, r2
 989 0114 FFF7FEFF 		bl	__aeabi_idiv
 990              	.LVL128:
 991 0118 C2B2     		uxtb	r2, r0
 992              	.LVL129:
 333:..\..\..\arduinoLCD\test\Pain Drain\libraries\lvgl\src\draw\sw/lv_draw_sw_gradient.c ****     lv_opa_t imix = 255 - mix;
 993              		.loc 1 333 0
 994 011a D243     		mvns	r2, r2
 995              	.LVL130:
 996 011c D2B2     		uxtb	r2, r2
 997              	.LVL131:
 334:..\..\..\arduinoLCD\test\Pain Drain\libraries\lvgl\src\draw\sw/lv_draw_sw_gradient.c **** 
 335:..\..\..\arduinoLCD\test\Pain Drain\libraries\lvgl\src\draw\sw/lv_draw_sw_gradient.c ****     lv_grad_color_t r = GRAD_CM(LV_UDIV255(two.ch.red * mix   + one.ch.red * imix),
 998              		.loc 1 335 0
 999 011e E9B2     		uxtb	r1, r5
 1000 0120 FF23     		movs	r3, #255
 1001 0122 0340     		ands	r3, r0
 1002 0124 5943     		muls	r1, r3
 1003 0126 0800     		movs	r0, r1
 1004              	.LVL132:
 1005 0128 E1B2     		uxtb	r1, r4
 1006 012a 5143     		muls	r1, r2
 1007 012c 4118     		adds	r1, r0, r1
 1008 012e 0802     		lsls	r0, r1, #8
 1009 0130 4018     		adds	r0, r0, r1
 1010 0132 C001     		lsls	r0, r0, #7
 1011 0134 4018     		adds	r0, r0, r1
 1012 0136 800E     		lsrs	r0, r0, #26
 1013 0138 2904     		lsls	r1, r5, #16
 1014 013a 090E     		lsrs	r1, r1, #24
 1015 013c 5943     		muls	r1, r3
 1016 013e 0E00     		movs	r6, r1
 1017 0140 2104     		lsls	r1, r4, #16
 1018 0142 090E     		lsrs	r1, r1, #24
 1019 0144 5143     		muls	r1, r2
 1020 0146 7118     		adds	r1, r6, r1
 1021 0148 0E02     		lsls	r6, r1, #8
 1022 014a 7618     		adds	r6, r6, r1
 1023 014c F601     		lsls	r6, r6, #7
 1024 014e 7118     		adds	r1, r6, r1
 1025 0150 490E     		lsrs	r1, r1, #25
 1026 0152 3F26     		movs	r6, #63
 1027 0154 3140     		ands	r1, r6
 1028 0156 4901     		lsls	r1, r1, #5
 1029 0158 203E     		subs	r6, r6, #32
 1030 015a 3040     		ands	r0, r6
 1031 015c 2D02     		lsls	r5, r5, #8
 1032 015e 2D0E     		lsrs	r5, r5, #24
 1033 0160 6B43     		muls	r3, r5
 1034 0162 2402     		lsls	r4, r4, #8
 1035 0164 240E     		lsrs	r4, r4, #24
ARM GAS  C:\Users\haske\AppData\Local\Temp\ccDVbnbC.s 			page 33


 1036 0166 6243     		muls	r2, r4
 1037              	.LVL133:
 1038 0168 9B18     		adds	r3, r3, r2
 1039 016a 1A02     		lsls	r2, r3, #8
 1040 016c D218     		adds	r2, r2, r3
 1041 016e D201     		lsls	r2, r2, #7
 1042 0170 D318     		adds	r3, r2, r3
 1043 0172 9B0E     		lsrs	r3, r3, #26
 1044 0174 DB02     		lsls	r3, r3, #11
 1045 0176 0843     		orrs	r0, r1
 336:..\..\..\arduinoLCD\test\Pain Drain\libraries\lvgl\src\draw\sw/lv_draw_sw_gradient.c ****                                 LV_UDIV255(two.ch.green * mix + one.ch.green * imix),
 337:..\..\..\arduinoLCD\test\Pain Drain\libraries\lvgl\src\draw\sw/lv_draw_sw_gradient.c ****                                 LV_UDIV255(two.ch.blue * mix  + one.ch.blue * imix));
 338:..\..\..\arduinoLCD\test\Pain Drain\libraries\lvgl\src\draw\sw/lv_draw_sw_gradient.c ****     return r;
 1046              		.loc 1 338 0
 1047 0178 1843     		orrs	r0, r3
 1048              	.LVL134:
 1049              	.L57:
 339:..\..\..\arduinoLCD\test\Pain Drain\libraries\lvgl\src\draw\sw/lv_draw_sw_gradient.c **** }
 1050              		.loc 1 339 0
 1051 017a 03B0     		add	sp, sp, #12
 1052              		@ sp needed
 1053              	.LVL135:
 1054 017c 3CBC     		pop	{r2, r3, r4, r5}
 1055 017e 9046     		mov	r8, r2
 1056 0180 9946     		mov	r9, r3
 1057 0182 A246     		mov	r10, r4
 1058 0184 AB46     		mov	fp, r5
 1059 0186 F0BD     		pop	{r4, r5, r6, r7, pc}
 1060              		.cfi_endproc
 1061              	.LFE68:
 1062              		.size	lv_gradient_calculate, .-lv_gradient_calculate
 1063              		.section	.text.lv_gradient_get,"ax",%progbits
 1064              		.align	2
 1065              		.global	lv_gradient_get
 1066              		.code	16
 1067              		.thumb_func
 1068              		.type	lv_gradient_get, %function
 1069              	lv_gradient_get:
 1070              	.LFB67:
 252:..\..\..\arduinoLCD\test\Pain Drain\libraries\lvgl\src\draw\sw/lv_draw_sw_gradient.c ****     /* No gradient, no cache */
 1071              		.loc 1 252 0
 1072              		.cfi_startproc
 1073              		@ args = 0, pretend = 0, frame = 8
 1074              		@ frame_needed = 0, uses_anonymous_args = 0
 1075              	.LVL136:
 1076 0000 70B5     		push	{r4, r5, r6, lr}
 1077              		.cfi_def_cfa_offset 16
 1078              		.cfi_offset 4, -16
 1079              		.cfi_offset 5, -12
 1080              		.cfi_offset 6, -8
 1081              		.cfi_offset 14, -4
 1082 0002 82B0     		sub	sp, sp, #8
 1083              		.cfi_def_cfa_offset 24
 1084 0004 0600     		movs	r6, r0
 1085 0006 0C00     		movs	r4, r1
 1086 0008 1500     		movs	r5, r2
 254:..\..\..\arduinoLCD\test\Pain Drain\libraries\lvgl\src\draw\sw/lv_draw_sw_gradient.c **** 
ARM GAS  C:\Users\haske\AppData\Local\Temp\ccDVbnbC.s 			page 34


 1087              		.loc 1 254 0
 1088 000a 437A     		ldrb	r3, [r0, #9]
 1089 000c 5B07     		lsls	r3, r3, #29
 1090 000e 45D0     		beq	.L72
 258:..\..\..\arduinoLCD\test\Pain Drain\libraries\lvgl\src\draw\sw/lv_draw_sw_gradient.c ****         lv_gradient_set_cache_size(LV_GRAD_CACHE_DEF_SIZE);
 1091              		.loc 1 258 0
 1092 0010 244B     		ldr	r3, .L74
 1093 0012 1B7A     		ldrb	r3, [r3, #8]
 1094 0014 002B     		cmp	r3, #0
 1095 0016 05D1     		bne	.L67
 259:..\..\..\arduinoLCD\test\Pain Drain\libraries\lvgl\src\draw\sw/lv_draw_sw_gradient.c ****         inited = true;
 1096              		.loc 1 259 0
 1097 0018 0020     		movs	r0, #0
 1098              	.LVL137:
 1099 001a FFF7FEFF 		bl	lv_gradient_set_cache_size
 1100              	.LVL138:
 260:..\..\..\arduinoLCD\test\Pain Drain\libraries\lvgl\src\draw\sw/lv_draw_sw_gradient.c ****     }
 1101              		.loc 1 260 0
 1102 001e 0122     		movs	r2, #1
 1103 0020 204B     		ldr	r3, .L74
 1104 0022 1A72     		strb	r2, [r3, #8]
 1105              	.L67:
 264:..\..\..\arduinoLCD\test\Pain Drain\libraries\lvgl\src\draw\sw/lv_draw_sw_gradient.c ****     uint32_t key = compute_key(g, size, w);
 1106              		.loc 1 264 0
 1107 0024 737A     		ldrb	r3, [r6, #9]
 1108 0026 0722     		movs	r2, #7
 1109 0028 1340     		ands	r3, r2
 1110 002a 022B     		cmp	r3, #2
 1111 002c 01D1     		bne	.L73
 1112 002e 2100     		movs	r1, r4
 1113 0030 00E0     		b	.L68
 1114              	.L73:
 1115 0032 2900     		movs	r1, r5
 1116              	.L68:
 1117              	.LVL139:
 265:..\..\..\arduinoLCD\test\Pain Drain\libraries\lvgl\src\draw\sw/lv_draw_sw_gradient.c ****     lv_grad_t * item = NULL;
 1118              		.loc 1 265 0 discriminator 4
 1119 0034 2200     		movs	r2, r4
 1120 0036 3000     		movs	r0, r6
 1121 0038 FFF7FEFF 		bl	compute_key
 1122              	.LVL140:
 1123 003c 0190     		str	r0, [sp, #4]
 266:..\..\..\arduinoLCD\test\Pain Drain\libraries\lvgl\src\draw\sw/lv_draw_sw_gradient.c ****     if(iterate_cache(&find_item, &key, &item) == LV_RES_OK) {
 1124              		.loc 1 266 0 discriminator 4
 1125 003e 0023     		movs	r3, #0
 1126 0040 0093     		str	r3, [sp]
 267:..\..\..\arduinoLCD\test\Pain Drain\libraries\lvgl\src\draw\sw/lv_draw_sw_gradient.c ****         item->life++; /* Don't forget to bump the counter */
 1127              		.loc 1 267 0 discriminator 4
 1128 0042 6A46     		mov	r2, sp
 1129 0044 01A9     		add	r1, sp, #4
 1130 0046 1848     		ldr	r0, .L74+4
 1131 0048 FFF7FEFF 		bl	iterate_cache
 1132              	.LVL141:
 1133 004c 0128     		cmp	r0, #1
 1134 004e 0BD1     		bne	.L69
 268:..\..\..\arduinoLCD\test\Pain Drain\libraries\lvgl\src\draw\sw/lv_draw_sw_gradient.c ****         return item;
 1135              		.loc 1 268 0
ARM GAS  C:\Users\haske\AppData\Local\Temp\ccDVbnbC.s 			page 35


 1136 0050 0098     		ldr	r0, [sp]
 1137 0052 4168     		ldr	r1, [r0, #4]
 1138 0054 8B00     		lsls	r3, r1, #2
 1139 0056 9B08     		lsrs	r3, r3, #2
 1140 0058 0133     		adds	r3, r3, #1
 1141 005a 9B00     		lsls	r3, r3, #2
 1142 005c 9A08     		lsrs	r2, r3, #2
 1143 005e 8B0F     		lsrs	r3, r1, #30
 1144 0060 9B07     		lsls	r3, r3, #30
 1145 0062 1343     		orrs	r3, r2
 1146 0064 4360     		str	r3, [r0, #4]
 269:..\..\..\arduinoLCD\test\Pain Drain\libraries\lvgl\src\draw\sw/lv_draw_sw_gradient.c ****     }
 1147              		.loc 1 269 0
 1148 0066 1AE0     		b	.L66
 1149              	.L69:
 273:..\..\..\arduinoLCD\test\Pain Drain\libraries\lvgl\src\draw\sw/lv_draw_sw_gradient.c ****     if(item == NULL) {
 1150              		.loc 1 273 0
 1151 0068 2A00     		movs	r2, r5
 1152 006a 2100     		movs	r1, r4
 1153 006c 3000     		movs	r0, r6
 1154 006e FFF7FEFF 		bl	allocate_item
 1155              	.LVL142:
 1156 0072 0090     		str	r0, [sp]
 274:..\..\..\arduinoLCD\test\Pain Drain\libraries\lvgl\src\draw\sw/lv_draw_sw_gradient.c ****         LV_LOG_WARN("Faild to allcoate item for teh gradient");
 1157              		.loc 1 274 0
 1158 0074 0028     		cmp	r0, #0
 1159 0076 12D0     		beq	.L66
 1160 0078 0024     		movs	r4, #0
 1161 007a 09E0     		b	.L70
 1162              	.LVL143:
 1163              	.L71:
 1164              	.LBB18:
 289:..\..\..\arduinoLCD\test\Pain Drain\libraries\lvgl\src\draw\sw/lv_draw_sw_gradient.c ****     }
 1165              		.loc 1 289 0 discriminator 3
 1166 007c 8568     		ldr	r5, [r0, #8]
 1167 007e 6300     		lsls	r3, r4, #1
 1168 0080 ED18     		adds	r5, r5, r3
 1169 0082 2200     		movs	r2, r4
 1170 0084 3000     		movs	r0, r6
 1171 0086 FFF7FEFF 		bl	lv_gradient_calculate
 1172              	.LVL144:
 1173 008a 2880     		strh	r0, [r5]
 288:..\..\..\arduinoLCD\test\Pain Drain\libraries\lvgl\src\draw\sw/lv_draw_sw_gradient.c ****         item->map[i] = lv_gradient_calculate(g, item->size, i);
 1174              		.loc 1 288 0 discriminator 3
 1175 008c 0134     		adds	r4, r4, #1
 1176              	.LVL145:
 1177 008e 24B2     		sxth	r4, r4
 1178              	.LVL146:
 1179              	.L70:
 288:..\..\..\arduinoLCD\test\Pain Drain\libraries\lvgl\src\draw\sw/lv_draw_sw_gradient.c ****         item->map[i] = lv_gradient_calculate(g, item->size, i);
 1180              		.loc 1 288 0 is_stmt 0 discriminator 1
 1181 0090 0098     		ldr	r0, [sp]
 1182 0092 0E23     		movs	r3, #14
 1183 0094 C15E     		ldrsh	r1, [r0, r3]
 1184 0096 8C42     		cmp	r4, r1
 1185 0098 F0DB     		blt	.L71
 1186 009a 00E0     		b	.L66
ARM GAS  C:\Users\haske\AppData\Local\Temp\ccDVbnbC.s 			page 36


 1187              	.LVL147:
 1188              	.L72:
 1189              	.LBE18:
 254:..\..\..\arduinoLCD\test\Pain Drain\libraries\lvgl\src\draw\sw/lv_draw_sw_gradient.c **** 
 1190              		.loc 1 254 0 is_stmt 1
 1191 009c 0020     		movs	r0, #0
 1192              	.LVL148:
 1193              	.L66:
 294:..\..\..\arduinoLCD\test\Pain Drain\libraries\lvgl\src\draw\sw/lv_draw_sw_gradient.c **** 
 1194              		.loc 1 294 0
 1195 009e 02B0     		add	sp, sp, #8
 1196              		@ sp needed
 1197              	.LVL149:
 1198 00a0 70BD     		pop	{r4, r5, r6, pc}
 1199              	.L75:
 1200 00a2 C046     		.align	2
 1201              	.L74:
 1202 00a4 00000000 		.word	.LANCHOR0
 1203 00a8 00000000 		.word	find_item
 1204              		.cfi_endproc
 1205              	.LFE67:
 1206              		.size	lv_gradient_get, .-lv_gradient_get
 1207              		.section	.text.lv_gradient_cleanup,"ax",%progbits
 1208              		.align	2
 1209              		.global	lv_gradient_cleanup
 1210              		.code	16
 1211              		.thumb_func
 1212              		.type	lv_gradient_cleanup, %function
 1213              	lv_gradient_cleanup:
 1214              	.LFB69:
 340:..\..\..\arduinoLCD\test\Pain Drain\libraries\lvgl\src\draw\sw/lv_draw_sw_gradient.c **** 
 341:..\..\..\arduinoLCD\test\Pain Drain\libraries\lvgl\src\draw\sw/lv_draw_sw_gradient.c **** void lv_gradient_cleanup(lv_grad_t * grad)
 342:..\..\..\arduinoLCD\test\Pain Drain\libraries\lvgl\src\draw\sw/lv_draw_sw_gradient.c **** {
 1215              		.loc 1 342 0
 1216              		.cfi_startproc
 1217              		@ args = 0, pretend = 0, frame = 0
 1218              		@ frame_needed = 0, uses_anonymous_args = 0
 1219              	.LVL150:
 1220 0000 10B5     		push	{r4, lr}
 1221              		.cfi_def_cfa_offset 8
 1222              		.cfi_offset 4, -8
 1223              		.cfi_offset 14, -4
 343:..\..\..\arduinoLCD\test\Pain Drain\libraries\lvgl\src\draw\sw/lv_draw_sw_gradient.c ****     if(grad->not_cached) {
 1224              		.loc 1 343 0
 1225 0002 C379     		ldrb	r3, [r0, #7]
 1226 0004 7F22     		movs	r2, #127
 1227 0006 9343     		bics	r3, r2
 1228 0008 01D0     		beq	.L76
 344:..\..\..\arduinoLCD\test\Pain Drain\libraries\lvgl\src\draw\sw/lv_draw_sw_gradient.c ****         lv_mem_free(grad);
 1229              		.loc 1 344 0
 1230 000a FFF7FEFF 		bl	lv_mem_free
 1231              	.LVL151:
 1232              	.L76:
 345:..\..\..\arduinoLCD\test\Pain Drain\libraries\lvgl\src\draw\sw/lv_draw_sw_gradient.c ****     }
 346:..\..\..\arduinoLCD\test\Pain Drain\libraries\lvgl\src\draw\sw/lv_draw_sw_gradient.c **** }
 1233              		.loc 1 346 0
 1234              		@ sp needed
ARM GAS  C:\Users\haske\AppData\Local\Temp\ccDVbnbC.s 			page 37


 1235 000e 10BD     		pop	{r4, pc}
 1236              		.cfi_endproc
 1237              	.LFE69:
 1238              		.size	lv_gradient_cleanup, .-lv_gradient_cleanup
 1239              		.bss
 1240              		.align	2
 1241              		.set	.LANCHOR0,. + 0
 1242              		.type	grad_cache_size, %object
 1243              		.size	grad_cache_size, 4
 1244              	grad_cache_size:
 1245 0000 00000000 		.space	4
 1246              		.type	grad_cache_end, %object
 1247              		.size	grad_cache_end, 4
 1248              	grad_cache_end:
 1249 0004 00000000 		.space	4
 1250              		.type	inited.6810, %object
 1251              		.size	inited.6810, 1
 1252              	inited.6810:
 1253 0008 00       		.space	1
 1254              		.text
 1255              	.Letext0:
 1256              		.file 3 "c:\\program files (x86)\\cypress\\psoc creator\\4.4\\psoc creator\\import\\gnu\\arm\\5.4.
 1257              		.file 4 "c:\\program files (x86)\\cypress\\psoc creator\\4.4\\psoc creator\\import\\gnu\\arm\\5.4.
 1258              		.file 5 "c:\\projects\\paindrain\\arduinolcd\\test\\pain drain\\libraries\\lvgl\\src\\misc\\lv_typ
 1259              		.file 6 "c:\\program files (x86)\\cypress\\psoc creator\\4.4\\psoc creator\\import\\gnu\\arm\\5.4.
 1260              		.file 7 "c:\\projects\\paindrain\\arduinolcd\\test\\pain drain\\libraries\\lvgl\\src\\misc\\lv_are
 1261              		.file 8 "c:\\projects\\paindrain\\arduinolcd\\test\\pain drain\\libraries\\lvgl\\src\\font\\lv_fon
 1262              		.file 9 "c:\\projects\\paindrain\\arduinolcd\\test\\pain drain\\libraries\\lvgl\\src\\misc\\lv_sty
 1263              		.file 10 "..\\..\\..\\arduinoLCD\\test\\Pain Drain\\libraries\\lvgl\\src\\draw\\sw\\lv_draw_sw_gra
 1264              		.file 11 "c:\\projects\\paindrain\\arduinolcd\\test\\pain drain\\libraries\\lvgl\\src\\misc\\lv_gc
 1265              		.file 12 "c:\\projects\\paindrain\\arduinolcd\\test\\pain drain\\libraries\\lvgl\\src\\misc\\lv_me