ARM GAS  C:\Users\haske\AppData\Local\Temp\ccAIaoAy.s 			page 1


   1              		.syntax unified
   2              		.cpu cortex-m0plus
   3              		.fpu softvfp
   4              		.eabi_attribute 20, 1
   5              		.eabi_attribute 21, 1
   6              		.eabi_attribute 23, 3
   7              		.eabi_attribute 24, 1
   8              		.eabi_attribute 25, 1
   9              		.eabi_attribute 26, 1
  10              		.eabi_attribute 30, 1
  11              		.eabi_attribute 34, 0
  12              		.eabi_attribute 18, 4
  13              		.thumb
  14              		.syntax unified
  15              		.file	"lv_draw_rect.c"
  16              		.text
  17              	.Ltext0:
  18              		.cfi_sections	.debug_frame
  19              		.section	.text.lv_draw_rect_dsc_init,"ax",%progbits
  20              		.align	2
  21              		.global	lv_draw_rect_dsc_init
  22              		.code	16
  23              		.thumb_func
  24              		.type	lv_draw_rect_dsc_init, %function
  25              	lv_draw_rect_dsc_init:
  26              	.LFB55:
  27              		.file 1 "..\\..\\..\\arduinoLCD\\test\\Pain Drain\\libraries\\lvgl\\src\\draw\\lv_draw_rect.c"
   1:..\..\..\arduinoLCD\test\Pain Drain\libraries\lvgl\src\draw/lv_draw_rect.c **** /**
   2:..\..\..\arduinoLCD\test\Pain Drain\libraries\lvgl\src\draw/lv_draw_rect.c ****  * @file lv_draw_rect.c
   3:..\..\..\arduinoLCD\test\Pain Drain\libraries\lvgl\src\draw/lv_draw_rect.c ****  *
   4:..\..\..\arduinoLCD\test\Pain Drain\libraries\lvgl\src\draw/lv_draw_rect.c ****  */
   5:..\..\..\arduinoLCD\test\Pain Drain\libraries\lvgl\src\draw/lv_draw_rect.c **** 
   6:..\..\..\arduinoLCD\test\Pain Drain\libraries\lvgl\src\draw/lv_draw_rect.c **** /*********************
   7:..\..\..\arduinoLCD\test\Pain Drain\libraries\lvgl\src\draw/lv_draw_rect.c ****  *      INCLUDES
   8:..\..\..\arduinoLCD\test\Pain Drain\libraries\lvgl\src\draw/lv_draw_rect.c ****  *********************/
   9:..\..\..\arduinoLCD\test\Pain Drain\libraries\lvgl\src\draw/lv_draw_rect.c **** #include "lv_draw.h"
  10:..\..\..\arduinoLCD\test\Pain Drain\libraries\lvgl\src\draw/lv_draw_rect.c **** #include "lv_draw_rect.h"
  11:..\..\..\arduinoLCD\test\Pain Drain\libraries\lvgl\src\draw/lv_draw_rect.c **** #include "../misc/lv_assert.h"
  12:..\..\..\arduinoLCD\test\Pain Drain\libraries\lvgl\src\draw/lv_draw_rect.c **** 
  13:..\..\..\arduinoLCD\test\Pain Drain\libraries\lvgl\src\draw/lv_draw_rect.c **** /*********************
  14:..\..\..\arduinoLCD\test\Pain Drain\libraries\lvgl\src\draw/lv_draw_rect.c ****  *      DEFINES
  15:..\..\..\arduinoLCD\test\Pain Drain\libraries\lvgl\src\draw/lv_draw_rect.c ****  *********************/
  16:..\..\..\arduinoLCD\test\Pain Drain\libraries\lvgl\src\draw/lv_draw_rect.c **** 
  17:..\..\..\arduinoLCD\test\Pain Drain\libraries\lvgl\src\draw/lv_draw_rect.c **** /**********************
  18:..\..\..\arduinoLCD\test\Pain Drain\libraries\lvgl\src\draw/lv_draw_rect.c ****  *      TYPEDEFS
  19:..\..\..\arduinoLCD\test\Pain Drain\libraries\lvgl\src\draw/lv_draw_rect.c ****  **********************/
  20:..\..\..\arduinoLCD\test\Pain Drain\libraries\lvgl\src\draw/lv_draw_rect.c **** 
  21:..\..\..\arduinoLCD\test\Pain Drain\libraries\lvgl\src\draw/lv_draw_rect.c **** /**********************
  22:..\..\..\arduinoLCD\test\Pain Drain\libraries\lvgl\src\draw/lv_draw_rect.c ****  *  STATIC PROTOTYPES
  23:..\..\..\arduinoLCD\test\Pain Drain\libraries\lvgl\src\draw/lv_draw_rect.c ****  **********************/
  24:..\..\..\arduinoLCD\test\Pain Drain\libraries\lvgl\src\draw/lv_draw_rect.c **** 
  25:..\..\..\arduinoLCD\test\Pain Drain\libraries\lvgl\src\draw/lv_draw_rect.c **** /**********************
  26:..\..\..\arduinoLCD\test\Pain Drain\libraries\lvgl\src\draw/lv_draw_rect.c ****  *  STATIC VARIABLES
  27:..\..\..\arduinoLCD\test\Pain Drain\libraries\lvgl\src\draw/lv_draw_rect.c ****  **********************/
  28:..\..\..\arduinoLCD\test\Pain Drain\libraries\lvgl\src\draw/lv_draw_rect.c **** 
  29:..\..\..\arduinoLCD\test\Pain Drain\libraries\lvgl\src\draw/lv_draw_rect.c **** /**********************
  30:..\..\..\arduinoLCD\test\Pain Drain\libraries\lvgl\src\draw/lv_draw_rect.c ****  *      MACROS
ARM GAS  C:\Users\haske\AppData\Local\Temp\ccAIaoAy.s 			page 2


  31:..\..\..\arduinoLCD\test\Pain Drain\libraries\lvgl\src\draw/lv_draw_rect.c ****  **********************/
  32:..\..\..\arduinoLCD\test\Pain Drain\libraries\lvgl\src\draw/lv_draw_rect.c **** 
  33:..\..\..\arduinoLCD\test\Pain Drain\libraries\lvgl\src\draw/lv_draw_rect.c **** /**********************
  34:..\..\..\arduinoLCD\test\Pain Drain\libraries\lvgl\src\draw/lv_draw_rect.c ****  *   GLOBAL FUNCTIONS
  35:..\..\..\arduinoLCD\test\Pain Drain\libraries\lvgl\src\draw/lv_draw_rect.c ****  **********************/
  36:..\..\..\arduinoLCD\test\Pain Drain\libraries\lvgl\src\draw/lv_draw_rect.c **** 
  37:..\..\..\arduinoLCD\test\Pain Drain\libraries\lvgl\src\draw/lv_draw_rect.c **** LV_ATTRIBUTE_FAST_MEM void lv_draw_rect_dsc_init(lv_draw_rect_dsc_t * dsc)
  38:..\..\..\arduinoLCD\test\Pain Drain\libraries\lvgl\src\draw/lv_draw_rect.c **** {
  28              		.loc 1 38 0
  29              		.cfi_startproc
  30              		@ args = 0, pretend = 0, frame = 0
  31              		@ frame_needed = 0, uses_anonymous_args = 0
  32              	.LVL0:
  33 0000 10B5     		push	{r4, lr}
  34              		.cfi_def_cfa_offset 8
  35              		.cfi_offset 4, -8
  36              		.cfi_offset 14, -4
  37 0002 0400     		movs	r4, r0
  39:..\..\..\arduinoLCD\test\Pain Drain\libraries\lvgl\src\draw/lv_draw_rect.c ****     lv_memset_00(dsc, sizeof(lv_draw_rect_dsc_t));
  38              		.loc 1 39 0
  39 0004 3821     		movs	r1, #56
  40 0006 FFF7FEFF 		bl	lv_memset_00
  41              	.LVL1:
  42              	.LBB30:
  43              	.LBB31:
  44              	.LBB32:
  45              		.file 2 "..\\..\\..\\arduinoLCD\\test\\Pain Drain\\libraries\\lvgl\\src\\draw\\../misc/lv_color.h"
   1:..\..\..\arduinoLCD\test\Pain Drain\libraries\lvgl\src\draw\../misc/lv_color.h **** /**
   2:..\..\..\arduinoLCD\test\Pain Drain\libraries\lvgl\src\draw\../misc/lv_color.h ****  * @file lv_color.h
   3:..\..\..\arduinoLCD\test\Pain Drain\libraries\lvgl\src\draw\../misc/lv_color.h ****  *
   4:..\..\..\arduinoLCD\test\Pain Drain\libraries\lvgl\src\draw\../misc/lv_color.h ****  */
   5:..\..\..\arduinoLCD\test\Pain Drain\libraries\lvgl\src\draw\../misc/lv_color.h **** 
   6:..\..\..\arduinoLCD\test\Pain Drain\libraries\lvgl\src\draw\../misc/lv_color.h **** #ifndef LV_COLOR_H
   7:..\..\..\arduinoLCD\test\Pain Drain\libraries\lvgl\src\draw\../misc/lv_color.h **** #define LV_COLOR_H
   8:..\..\..\arduinoLCD\test\Pain Drain\libraries\lvgl\src\draw\../misc/lv_color.h **** 
   9:..\..\..\arduinoLCD\test\Pain Drain\libraries\lvgl\src\draw\../misc/lv_color.h **** #ifdef __cplusplus
  10:..\..\..\arduinoLCD\test\Pain Drain\libraries\lvgl\src\draw\../misc/lv_color.h **** extern "C" {
  11:..\..\..\arduinoLCD\test\Pain Drain\libraries\lvgl\src\draw\../misc/lv_color.h **** #endif
  12:..\..\..\arduinoLCD\test\Pain Drain\libraries\lvgl\src\draw\../misc/lv_color.h **** 
  13:..\..\..\arduinoLCD\test\Pain Drain\libraries\lvgl\src\draw\../misc/lv_color.h **** /*********************
  14:..\..\..\arduinoLCD\test\Pain Drain\libraries\lvgl\src\draw\../misc/lv_color.h ****  *      INCLUDES
  15:..\..\..\arduinoLCD\test\Pain Drain\libraries\lvgl\src\draw\../misc/lv_color.h ****  *********************/
  16:..\..\..\arduinoLCD\test\Pain Drain\libraries\lvgl\src\draw\../misc/lv_color.h **** #include "../lv_conf_internal.h"
  17:..\..\..\arduinoLCD\test\Pain Drain\libraries\lvgl\src\draw\../misc/lv_color.h **** #include "lv_assert.h"
  18:..\..\..\arduinoLCD\test\Pain Drain\libraries\lvgl\src\draw\../misc/lv_color.h **** #include "lv_math.h"
  19:..\..\..\arduinoLCD\test\Pain Drain\libraries\lvgl\src\draw\../misc/lv_color.h **** #include "lv_types.h"
  20:..\..\..\arduinoLCD\test\Pain Drain\libraries\lvgl\src\draw\../misc/lv_color.h **** 
  21:..\..\..\arduinoLCD\test\Pain Drain\libraries\lvgl\src\draw\../misc/lv_color.h **** /*Error checking*/
  22:..\..\..\arduinoLCD\test\Pain Drain\libraries\lvgl\src\draw\../misc/lv_color.h **** #if LV_COLOR_DEPTH == 24
  23:..\..\..\arduinoLCD\test\Pain Drain\libraries\lvgl\src\draw\../misc/lv_color.h **** #error "LV_COLOR_DEPTH 24 is deprecated. Use LV_COLOR_DEPTH 32 instead (lv_conf.h)"
  24:..\..\..\arduinoLCD\test\Pain Drain\libraries\lvgl\src\draw\../misc/lv_color.h **** #endif
  25:..\..\..\arduinoLCD\test\Pain Drain\libraries\lvgl\src\draw\../misc/lv_color.h **** 
  26:..\..\..\arduinoLCD\test\Pain Drain\libraries\lvgl\src\draw\../misc/lv_color.h **** #if LV_COLOR_DEPTH != 16 && LV_COLOR_16_SWAP != 0
  27:..\..\..\arduinoLCD\test\Pain Drain\libraries\lvgl\src\draw\../misc/lv_color.h **** #error "LV_COLOR_16_SWAP requires LV_COLOR_DEPTH == 16. Set it in lv_conf.h"
  28:..\..\..\arduinoLCD\test\Pain Drain\libraries\lvgl\src\draw\../misc/lv_color.h **** #endif
  29:..\..\..\arduinoLCD\test\Pain Drain\libraries\lvgl\src\draw\../misc/lv_color.h **** 
  30:..\..\..\arduinoLCD\test\Pain Drain\libraries\lvgl\src\draw\../misc/lv_color.h **** #include <stdint.h>
ARM GAS  C:\Users\haske\AppData\Local\Temp\ccAIaoAy.s 			page 3


  31:..\..\..\arduinoLCD\test\Pain Drain\libraries\lvgl\src\draw\../misc/lv_color.h **** 
  32:..\..\..\arduinoLCD\test\Pain Drain\libraries\lvgl\src\draw\../misc/lv_color.h **** /*********************
  33:..\..\..\arduinoLCD\test\Pain Drain\libraries\lvgl\src\draw\../misc/lv_color.h ****  *      DEFINES
  34:..\..\..\arduinoLCD\test\Pain Drain\libraries\lvgl\src\draw\../misc/lv_color.h ****  *********************/
  35:..\..\..\arduinoLCD\test\Pain Drain\libraries\lvgl\src\draw\../misc/lv_color.h **** LV_EXPORT_CONST_INT(LV_COLOR_DEPTH);
  36:..\..\..\arduinoLCD\test\Pain Drain\libraries\lvgl\src\draw\../misc/lv_color.h **** LV_EXPORT_CONST_INT(LV_COLOR_16_SWAP);
  37:..\..\..\arduinoLCD\test\Pain Drain\libraries\lvgl\src\draw\../misc/lv_color.h **** 
  38:..\..\..\arduinoLCD\test\Pain Drain\libraries\lvgl\src\draw\../misc/lv_color.h **** /**
  39:..\..\..\arduinoLCD\test\Pain Drain\libraries\lvgl\src\draw\../misc/lv_color.h ****  * Opacity percentages.
  40:..\..\..\arduinoLCD\test\Pain Drain\libraries\lvgl\src\draw\../misc/lv_color.h ****  */
  41:..\..\..\arduinoLCD\test\Pain Drain\libraries\lvgl\src\draw\../misc/lv_color.h **** enum {
  42:..\..\..\arduinoLCD\test\Pain Drain\libraries\lvgl\src\draw\../misc/lv_color.h ****     LV_OPA_TRANSP = 0,
  43:..\..\..\arduinoLCD\test\Pain Drain\libraries\lvgl\src\draw\../misc/lv_color.h ****     LV_OPA_0      = 0,
  44:..\..\..\arduinoLCD\test\Pain Drain\libraries\lvgl\src\draw\../misc/lv_color.h ****     LV_OPA_10     = 25,
  45:..\..\..\arduinoLCD\test\Pain Drain\libraries\lvgl\src\draw\../misc/lv_color.h ****     LV_OPA_20     = 51,
  46:..\..\..\arduinoLCD\test\Pain Drain\libraries\lvgl\src\draw\../misc/lv_color.h ****     LV_OPA_30     = 76,
  47:..\..\..\arduinoLCD\test\Pain Drain\libraries\lvgl\src\draw\../misc/lv_color.h ****     LV_OPA_40     = 102,
  48:..\..\..\arduinoLCD\test\Pain Drain\libraries\lvgl\src\draw\../misc/lv_color.h ****     LV_OPA_50     = 127,
  49:..\..\..\arduinoLCD\test\Pain Drain\libraries\lvgl\src\draw\../misc/lv_color.h ****     LV_OPA_60     = 153,
  50:..\..\..\arduinoLCD\test\Pain Drain\libraries\lvgl\src\draw\../misc/lv_color.h ****     LV_OPA_70     = 178,
  51:..\..\..\arduinoLCD\test\Pain Drain\libraries\lvgl\src\draw\../misc/lv_color.h ****     LV_OPA_80     = 204,
  52:..\..\..\arduinoLCD\test\Pain Drain\libraries\lvgl\src\draw\../misc/lv_color.h ****     LV_OPA_90     = 229,
  53:..\..\..\arduinoLCD\test\Pain Drain\libraries\lvgl\src\draw\../misc/lv_color.h ****     LV_OPA_100    = 255,
  54:..\..\..\arduinoLCD\test\Pain Drain\libraries\lvgl\src\draw\../misc/lv_color.h ****     LV_OPA_COVER  = 255,
  55:..\..\..\arduinoLCD\test\Pain Drain\libraries\lvgl\src\draw\../misc/lv_color.h **** };
  56:..\..\..\arduinoLCD\test\Pain Drain\libraries\lvgl\src\draw\../misc/lv_color.h **** 
  57:..\..\..\arduinoLCD\test\Pain Drain\libraries\lvgl\src\draw\../misc/lv_color.h **** #define LV_OPA_MIN 2    /*Opacities below this will be transparent*/
  58:..\..\..\arduinoLCD\test\Pain Drain\libraries\lvgl\src\draw\../misc/lv_color.h **** #define LV_OPA_MAX 253  /*Opacities above this will fully cover*/
  59:..\..\..\arduinoLCD\test\Pain Drain\libraries\lvgl\src\draw\../misc/lv_color.h **** 
  60:..\..\..\arduinoLCD\test\Pain Drain\libraries\lvgl\src\draw\../misc/lv_color.h **** #if LV_COLOR_DEPTH == 1
  61:..\..\..\arduinoLCD\test\Pain Drain\libraries\lvgl\src\draw\../misc/lv_color.h **** #define LV_COLOR_SIZE 8
  62:..\..\..\arduinoLCD\test\Pain Drain\libraries\lvgl\src\draw\../misc/lv_color.h **** #elif LV_COLOR_DEPTH == 8
  63:..\..\..\arduinoLCD\test\Pain Drain\libraries\lvgl\src\draw\../misc/lv_color.h **** #define LV_COLOR_SIZE 8
  64:..\..\..\arduinoLCD\test\Pain Drain\libraries\lvgl\src\draw\../misc/lv_color.h **** #elif LV_COLOR_DEPTH == 16
  65:..\..\..\arduinoLCD\test\Pain Drain\libraries\lvgl\src\draw\../misc/lv_color.h **** #define LV_COLOR_SIZE 16
  66:..\..\..\arduinoLCD\test\Pain Drain\libraries\lvgl\src\draw\../misc/lv_color.h **** #elif LV_COLOR_DEPTH == 32
  67:..\..\..\arduinoLCD\test\Pain Drain\libraries\lvgl\src\draw\../misc/lv_color.h **** #define LV_COLOR_SIZE 32
  68:..\..\..\arduinoLCD\test\Pain Drain\libraries\lvgl\src\draw\../misc/lv_color.h **** #else
  69:..\..\..\arduinoLCD\test\Pain Drain\libraries\lvgl\src\draw\../misc/lv_color.h **** #error "Invalid LV_COLOR_DEPTH in lv_conf.h! Set it to 1, 8, 16 or 32!"
  70:..\..\..\arduinoLCD\test\Pain Drain\libraries\lvgl\src\draw\../misc/lv_color.h **** #endif
  71:..\..\..\arduinoLCD\test\Pain Drain\libraries\lvgl\src\draw\../misc/lv_color.h **** 
  72:..\..\..\arduinoLCD\test\Pain Drain\libraries\lvgl\src\draw\../misc/lv_color.h **** #if defined(__cplusplus) && !defined(_LV_COLOR_HAS_MODERN_CPP)
  73:..\..\..\arduinoLCD\test\Pain Drain\libraries\lvgl\src\draw\../misc/lv_color.h **** /**
  74:..\..\..\arduinoLCD\test\Pain Drain\libraries\lvgl\src\draw\../misc/lv_color.h **** * MSVC compiler's definition of the __cplusplus indicating 199711L regardless to C++ standard versi
  75:..\..\..\arduinoLCD\test\Pain Drain\libraries\lvgl\src\draw\../misc/lv_color.h **** * see https://devblogs.microsoft.com/cppblog/msvc-now-correctly-reports-cplusplus
  76:..\..\..\arduinoLCD\test\Pain Drain\libraries\lvgl\src\draw\../misc/lv_color.h **** * so we use _MSC_VER macro instead of __cplusplus
  77:..\..\..\arduinoLCD\test\Pain Drain\libraries\lvgl\src\draw\../misc/lv_color.h **** */
  78:..\..\..\arduinoLCD\test\Pain Drain\libraries\lvgl\src\draw\../misc/lv_color.h **** #ifdef _MSC_VER
  79:..\..\..\arduinoLCD\test\Pain Drain\libraries\lvgl\src\draw\../misc/lv_color.h **** #if _MSC_VER >= 1900 /*Visual Studio 2015*/
  80:..\..\..\arduinoLCD\test\Pain Drain\libraries\lvgl\src\draw\../misc/lv_color.h **** #define _LV_COLOR_HAS_MODERN_CPP 1
  81:..\..\..\arduinoLCD\test\Pain Drain\libraries\lvgl\src\draw\../misc/lv_color.h **** #endif
  82:..\..\..\arduinoLCD\test\Pain Drain\libraries\lvgl\src\draw\../misc/lv_color.h **** #else
  83:..\..\..\arduinoLCD\test\Pain Drain\libraries\lvgl\src\draw\../misc/lv_color.h **** #if __cplusplus >= 201103L
  84:..\..\..\arduinoLCD\test\Pain Drain\libraries\lvgl\src\draw\../misc/lv_color.h **** #define _LV_COLOR_HAS_MODERN_CPP 1
  85:..\..\..\arduinoLCD\test\Pain Drain\libraries\lvgl\src\draw\../misc/lv_color.h **** #endif
  86:..\..\..\arduinoLCD\test\Pain Drain\libraries\lvgl\src\draw\../misc/lv_color.h **** #endif
  87:..\..\..\arduinoLCD\test\Pain Drain\libraries\lvgl\src\draw\../misc/lv_color.h **** #endif /*__cplusplus*/
ARM GAS  C:\Users\haske\AppData\Local\Temp\ccAIaoAy.s 			page 4


  88:..\..\..\arduinoLCD\test\Pain Drain\libraries\lvgl\src\draw\../misc/lv_color.h **** 
  89:..\..\..\arduinoLCD\test\Pain Drain\libraries\lvgl\src\draw\../misc/lv_color.h **** #ifndef _LV_COLOR_HAS_MODERN_CPP
  90:..\..\..\arduinoLCD\test\Pain Drain\libraries\lvgl\src\draw\../misc/lv_color.h **** #define _LV_COLOR_HAS_MODERN_CPP 0
  91:..\..\..\arduinoLCD\test\Pain Drain\libraries\lvgl\src\draw\../misc/lv_color.h **** #endif
  92:..\..\..\arduinoLCD\test\Pain Drain\libraries\lvgl\src\draw\../misc/lv_color.h **** 
  93:..\..\..\arduinoLCD\test\Pain Drain\libraries\lvgl\src\draw\../misc/lv_color.h **** #if _LV_COLOR_HAS_MODERN_CPP
  94:..\..\..\arduinoLCD\test\Pain Drain\libraries\lvgl\src\draw\../misc/lv_color.h **** /*Fix msvc compiler error C4576 inside C++ code*/
  95:..\..\..\arduinoLCD\test\Pain Drain\libraries\lvgl\src\draw\../misc/lv_color.h **** #define _LV_COLOR_MAKE_TYPE_HELPER lv_color_t
  96:..\..\..\arduinoLCD\test\Pain Drain\libraries\lvgl\src\draw\../misc/lv_color.h **** #else
  97:..\..\..\arduinoLCD\test\Pain Drain\libraries\lvgl\src\draw\../misc/lv_color.h **** #define _LV_COLOR_MAKE_TYPE_HELPER (lv_color_t)
  98:..\..\..\arduinoLCD\test\Pain Drain\libraries\lvgl\src\draw\../misc/lv_color.h **** #endif
  99:..\..\..\arduinoLCD\test\Pain Drain\libraries\lvgl\src\draw\../misc/lv_color.h **** 
 100:..\..\..\arduinoLCD\test\Pain Drain\libraries\lvgl\src\draw\../misc/lv_color.h **** /*---------------------------------------
 101:..\..\..\arduinoLCD\test\Pain Drain\libraries\lvgl\src\draw\../misc/lv_color.h ****  * Macros for all existing color depths
 102:..\..\..\arduinoLCD\test\Pain Drain\libraries\lvgl\src\draw\../misc/lv_color.h ****  * to set/get values of the color channels
 103:..\..\..\arduinoLCD\test\Pain Drain\libraries\lvgl\src\draw\../misc/lv_color.h ****  *------------------------------------------*/
 104:..\..\..\arduinoLCD\test\Pain Drain\libraries\lvgl\src\draw\../misc/lv_color.h **** # define LV_COLOR_SET_R1(c, v) (c).ch.red = (uint8_t)((v) & 0x1)
 105:..\..\..\arduinoLCD\test\Pain Drain\libraries\lvgl\src\draw\../misc/lv_color.h **** # define LV_COLOR_SET_G1(c, v) (c).ch.green = (uint8_t)((v) & 0x1)
 106:..\..\..\arduinoLCD\test\Pain Drain\libraries\lvgl\src\draw\../misc/lv_color.h **** # define LV_COLOR_SET_B1(c, v) (c).ch.blue = (uint8_t)((v) & 0x1)
 107:..\..\..\arduinoLCD\test\Pain Drain\libraries\lvgl\src\draw\../misc/lv_color.h **** # define LV_COLOR_SET_A1(c, v) do {} while(0)
 108:..\..\..\arduinoLCD\test\Pain Drain\libraries\lvgl\src\draw\../misc/lv_color.h **** 
 109:..\..\..\arduinoLCD\test\Pain Drain\libraries\lvgl\src\draw\../misc/lv_color.h **** # define LV_COLOR_GET_R1(c) (c).ch.red
 110:..\..\..\arduinoLCD\test\Pain Drain\libraries\lvgl\src\draw\../misc/lv_color.h **** # define LV_COLOR_GET_G1(c) (c).ch.green
 111:..\..\..\arduinoLCD\test\Pain Drain\libraries\lvgl\src\draw\../misc/lv_color.h **** # define LV_COLOR_GET_B1(c) (c).ch.blue
 112:..\..\..\arduinoLCD\test\Pain Drain\libraries\lvgl\src\draw\../misc/lv_color.h **** # define LV_COLOR_GET_A1(c) 0xFF
 113:..\..\..\arduinoLCD\test\Pain Drain\libraries\lvgl\src\draw\../misc/lv_color.h **** 
 114:..\..\..\arduinoLCD\test\Pain Drain\libraries\lvgl\src\draw\../misc/lv_color.h **** # define _LV_COLOR_ZERO_INITIALIZER1 {0x00}
 115:..\..\..\arduinoLCD\test\Pain Drain\libraries\lvgl\src\draw\../misc/lv_color.h **** # define LV_COLOR_MAKE1(r8, g8, b8)  {(uint8_t)((b8 >> 7) | (g8 >> 7) | (r8 >> 7))}
 116:..\..\..\arduinoLCD\test\Pain Drain\libraries\lvgl\src\draw\../misc/lv_color.h **** 
 117:..\..\..\arduinoLCD\test\Pain Drain\libraries\lvgl\src\draw\../misc/lv_color.h **** # define LV_COLOR_SET_R8(c, v) (c).ch.red = (uint8_t)((v) & 0x7U)
 118:..\..\..\arduinoLCD\test\Pain Drain\libraries\lvgl\src\draw\../misc/lv_color.h **** # define LV_COLOR_SET_G8(c, v) (c).ch.green = (uint8_t)((v) & 0x7U)
 119:..\..\..\arduinoLCD\test\Pain Drain\libraries\lvgl\src\draw\../misc/lv_color.h **** # define LV_COLOR_SET_B8(c, v) (c).ch.blue = (uint8_t)((v) & 0x3U)
 120:..\..\..\arduinoLCD\test\Pain Drain\libraries\lvgl\src\draw\../misc/lv_color.h **** # define LV_COLOR_SET_A8(c, v) do {} while(0)
 121:..\..\..\arduinoLCD\test\Pain Drain\libraries\lvgl\src\draw\../misc/lv_color.h **** 
 122:..\..\..\arduinoLCD\test\Pain Drain\libraries\lvgl\src\draw\../misc/lv_color.h **** # define LV_COLOR_GET_R8(c) (c).ch.red
 123:..\..\..\arduinoLCD\test\Pain Drain\libraries\lvgl\src\draw\../misc/lv_color.h **** # define LV_COLOR_GET_G8(c) (c).ch.green
 124:..\..\..\arduinoLCD\test\Pain Drain\libraries\lvgl\src\draw\../misc/lv_color.h **** # define LV_COLOR_GET_B8(c) (c).ch.blue
 125:..\..\..\arduinoLCD\test\Pain Drain\libraries\lvgl\src\draw\../misc/lv_color.h **** # define LV_COLOR_GET_A8(c) 0xFF
 126:..\..\..\arduinoLCD\test\Pain Drain\libraries\lvgl\src\draw\../misc/lv_color.h **** 
 127:..\..\..\arduinoLCD\test\Pain Drain\libraries\lvgl\src\draw\../misc/lv_color.h **** # define _LV_COLOR_ZERO_INITIALIZER8 {{0x00, 0x00, 0x00}}
 128:..\..\..\arduinoLCD\test\Pain Drain\libraries\lvgl\src\draw\../misc/lv_color.h **** # define LV_COLOR_MAKE8(r8, g8, b8) {{(uint8_t)((b8 >> 6) & 0x3U), (uint8_t)((g8 >> 5) & 0x7U), (ui
 129:..\..\..\arduinoLCD\test\Pain Drain\libraries\lvgl\src\draw\../misc/lv_color.h **** 
 130:..\..\..\arduinoLCD\test\Pain Drain\libraries\lvgl\src\draw\../misc/lv_color.h **** # define LV_COLOR_SET_R16(c, v) (c).ch.red = (uint8_t)((v) & 0x1FU)
 131:..\..\..\arduinoLCD\test\Pain Drain\libraries\lvgl\src\draw\../misc/lv_color.h **** #if LV_COLOR_16_SWAP == 0
 132:..\..\..\arduinoLCD\test\Pain Drain\libraries\lvgl\src\draw\../misc/lv_color.h **** # define LV_COLOR_SET_G16(c, v) (c).ch.green = (uint8_t)((v) & 0x3FU)
 133:..\..\..\arduinoLCD\test\Pain Drain\libraries\lvgl\src\draw\../misc/lv_color.h **** #else
 134:..\..\..\arduinoLCD\test\Pain Drain\libraries\lvgl\src\draw\../misc/lv_color.h **** # define LV_COLOR_SET_G16(c, v) {(c).ch.green_h = (uint8_t)(((v) >> 3) & 0x7); (c).ch.green_l = (ui
 135:..\..\..\arduinoLCD\test\Pain Drain\libraries\lvgl\src\draw\../misc/lv_color.h **** #endif
 136:..\..\..\arduinoLCD\test\Pain Drain\libraries\lvgl\src\draw\../misc/lv_color.h **** # define LV_COLOR_SET_B16(c, v) (c).ch.blue = (uint8_t)((v) & 0x1FU)
 137:..\..\..\arduinoLCD\test\Pain Drain\libraries\lvgl\src\draw\../misc/lv_color.h **** # define LV_COLOR_SET_A16(c, v) do {} while(0)
 138:..\..\..\arduinoLCD\test\Pain Drain\libraries\lvgl\src\draw\../misc/lv_color.h **** 
 139:..\..\..\arduinoLCD\test\Pain Drain\libraries\lvgl\src\draw\../misc/lv_color.h **** # define LV_COLOR_GET_R16(c) (c).ch.red
 140:..\..\..\arduinoLCD\test\Pain Drain\libraries\lvgl\src\draw\../misc/lv_color.h **** #if LV_COLOR_16_SWAP == 0
 141:..\..\..\arduinoLCD\test\Pain Drain\libraries\lvgl\src\draw\../misc/lv_color.h **** # define LV_COLOR_GET_G16(c) (c).ch.green
 142:..\..\..\arduinoLCD\test\Pain Drain\libraries\lvgl\src\draw\../misc/lv_color.h **** #else
 143:..\..\..\arduinoLCD\test\Pain Drain\libraries\lvgl\src\draw\../misc/lv_color.h **** # define LV_COLOR_GET_G16(c) (((c).ch.green_h << 3) + (c).ch.green_l)
 144:..\..\..\arduinoLCD\test\Pain Drain\libraries\lvgl\src\draw\../misc/lv_color.h **** #endif
ARM GAS  C:\Users\haske\AppData\Local\Temp\ccAIaoAy.s 			page 5


 145:..\..\..\arduinoLCD\test\Pain Drain\libraries\lvgl\src\draw\../misc/lv_color.h **** # define LV_COLOR_GET_B16(c) (c).ch.blue
 146:..\..\..\arduinoLCD\test\Pain Drain\libraries\lvgl\src\draw\../misc/lv_color.h **** # define LV_COLOR_GET_A16(c) 0xFF
 147:..\..\..\arduinoLCD\test\Pain Drain\libraries\lvgl\src\draw\../misc/lv_color.h **** 
 148:..\..\..\arduinoLCD\test\Pain Drain\libraries\lvgl\src\draw\../misc/lv_color.h **** #if LV_COLOR_16_SWAP == 0
 149:..\..\..\arduinoLCD\test\Pain Drain\libraries\lvgl\src\draw\../misc/lv_color.h **** # define _LV_COLOR_ZERO_INITIALIZER16  {{0x00, 0x00, 0x00}}
 150:..\..\..\arduinoLCD\test\Pain Drain\libraries\lvgl\src\draw\../misc/lv_color.h **** # define LV_COLOR_MAKE16(r8, g8, b8) {{(uint8_t)((b8 >> 3) & 0x1FU), (uint8_t)((g8 >> 2) & 0x3FU), 
 151:..\..\..\arduinoLCD\test\Pain Drain\libraries\lvgl\src\draw\../misc/lv_color.h **** #else
 152:..\..\..\arduinoLCD\test\Pain Drain\libraries\lvgl\src\draw\../misc/lv_color.h **** # define _LV_COLOR_ZERO_INITIALIZER16 {{0x00, 0x00, 0x00, 0x00}}
 153:..\..\..\arduinoLCD\test\Pain Drain\libraries\lvgl\src\draw\../misc/lv_color.h **** # define LV_COLOR_MAKE16(r8, g8, b8) {{(uint8_t)((g8 >> 5) & 0x7U), (uint8_t)((r8 >> 3) & 0x1FU), (
 154:..\..\..\arduinoLCD\test\Pain Drain\libraries\lvgl\src\draw\../misc/lv_color.h **** #endif
 155:..\..\..\arduinoLCD\test\Pain Drain\libraries\lvgl\src\draw\../misc/lv_color.h **** 
 156:..\..\..\arduinoLCD\test\Pain Drain\libraries\lvgl\src\draw\../misc/lv_color.h **** # define LV_COLOR_SET_R32(c, v) (c).ch.red = (uint8_t)((v) & 0xFF)
 157:..\..\..\arduinoLCD\test\Pain Drain\libraries\lvgl\src\draw\../misc/lv_color.h **** # define LV_COLOR_SET_G32(c, v) (c).ch.green = (uint8_t)((v) & 0xFF)
 158:..\..\..\arduinoLCD\test\Pain Drain\libraries\lvgl\src\draw\../misc/lv_color.h **** # define LV_COLOR_SET_B32(c, v) (c).ch.blue = (uint8_t)((v) & 0xFF)
 159:..\..\..\arduinoLCD\test\Pain Drain\libraries\lvgl\src\draw\../misc/lv_color.h **** # define LV_COLOR_SET_A32(c, v) (c).ch.alpha = (uint8_t)((v) & 0xFF)
 160:..\..\..\arduinoLCD\test\Pain Drain\libraries\lvgl\src\draw\../misc/lv_color.h **** 
 161:..\..\..\arduinoLCD\test\Pain Drain\libraries\lvgl\src\draw\../misc/lv_color.h **** # define LV_COLOR_GET_R32(c) (c).ch.red
 162:..\..\..\arduinoLCD\test\Pain Drain\libraries\lvgl\src\draw\../misc/lv_color.h **** # define LV_COLOR_GET_G32(c) (c).ch.green
 163:..\..\..\arduinoLCD\test\Pain Drain\libraries\lvgl\src\draw\../misc/lv_color.h **** # define LV_COLOR_GET_B32(c) (c).ch.blue
 164:..\..\..\arduinoLCD\test\Pain Drain\libraries\lvgl\src\draw\../misc/lv_color.h **** # define LV_COLOR_GET_A32(c) (c).ch.alpha
 165:..\..\..\arduinoLCD\test\Pain Drain\libraries\lvgl\src\draw\../misc/lv_color.h **** 
 166:..\..\..\arduinoLCD\test\Pain Drain\libraries\lvgl\src\draw\../misc/lv_color.h **** # define _LV_COLOR_ZERO_INITIALIZER32  {{0x00, 0x00, 0x00, 0x00}}
 167:..\..\..\arduinoLCD\test\Pain Drain\libraries\lvgl\src\draw\../misc/lv_color.h **** # define LV_COLOR_MAKE32(r8, g8, b8) {{b8, g8, r8, 0xff}} /*Fix 0xff alpha*/
 168:..\..\..\arduinoLCD\test\Pain Drain\libraries\lvgl\src\draw\../misc/lv_color.h **** 
 169:..\..\..\arduinoLCD\test\Pain Drain\libraries\lvgl\src\draw\../misc/lv_color.h **** /*---------------------------------------
 170:..\..\..\arduinoLCD\test\Pain Drain\libraries\lvgl\src\draw\../misc/lv_color.h ****  * Macros for the current color depth
 171:..\..\..\arduinoLCD\test\Pain Drain\libraries\lvgl\src\draw\../misc/lv_color.h ****  * to set/get values of the color channels
 172:..\..\..\arduinoLCD\test\Pain Drain\libraries\lvgl\src\draw\../misc/lv_color.h ****  *------------------------------------------*/
 173:..\..\..\arduinoLCD\test\Pain Drain\libraries\lvgl\src\draw\../misc/lv_color.h **** #define LV_COLOR_SET_R(c, v) LV_CONCAT(LV_COLOR_SET_R, LV_COLOR_DEPTH)(c, v)
 174:..\..\..\arduinoLCD\test\Pain Drain\libraries\lvgl\src\draw\../misc/lv_color.h **** #define LV_COLOR_SET_G(c, v) LV_CONCAT(LV_COLOR_SET_G, LV_COLOR_DEPTH)(c, v)
 175:..\..\..\arduinoLCD\test\Pain Drain\libraries\lvgl\src\draw\../misc/lv_color.h **** #define LV_COLOR_SET_B(c, v) LV_CONCAT(LV_COLOR_SET_B, LV_COLOR_DEPTH)(c, v)
 176:..\..\..\arduinoLCD\test\Pain Drain\libraries\lvgl\src\draw\../misc/lv_color.h **** #define LV_COLOR_SET_A(c, v) LV_CONCAT(LV_COLOR_SET_A, LV_COLOR_DEPTH)(c, v)
 177:..\..\..\arduinoLCD\test\Pain Drain\libraries\lvgl\src\draw\../misc/lv_color.h **** 
 178:..\..\..\arduinoLCD\test\Pain Drain\libraries\lvgl\src\draw\../misc/lv_color.h **** #define LV_COLOR_GET_R(c) LV_CONCAT(LV_COLOR_GET_R, LV_COLOR_DEPTH)(c)
 179:..\..\..\arduinoLCD\test\Pain Drain\libraries\lvgl\src\draw\../misc/lv_color.h **** #define LV_COLOR_GET_G(c) LV_CONCAT(LV_COLOR_GET_G, LV_COLOR_DEPTH)(c)
 180:..\..\..\arduinoLCD\test\Pain Drain\libraries\lvgl\src\draw\../misc/lv_color.h **** #define LV_COLOR_GET_B(c) LV_CONCAT(LV_COLOR_GET_B, LV_COLOR_DEPTH)(c)
 181:..\..\..\arduinoLCD\test\Pain Drain\libraries\lvgl\src\draw\../misc/lv_color.h **** #define LV_COLOR_GET_A(c) LV_CONCAT(LV_COLOR_GET_A, LV_COLOR_DEPTH)(c)
 182:..\..\..\arduinoLCD\test\Pain Drain\libraries\lvgl\src\draw\../misc/lv_color.h **** 
 183:..\..\..\arduinoLCD\test\Pain Drain\libraries\lvgl\src\draw\../misc/lv_color.h **** #define _LV_COLOR_ZERO_INITIALIZER LV_CONCAT(_LV_COLOR_ZERO_INITIALIZER, LV_COLOR_DEPTH)
 184:..\..\..\arduinoLCD\test\Pain Drain\libraries\lvgl\src\draw\../misc/lv_color.h **** #define LV_COLOR_MAKE(r8, g8, b8) LV_CONCAT(LV_COLOR_MAKE, LV_COLOR_DEPTH)(r8, g8, b8)
 185:..\..\..\arduinoLCD\test\Pain Drain\libraries\lvgl\src\draw\../misc/lv_color.h **** 
 186:..\..\..\arduinoLCD\test\Pain Drain\libraries\lvgl\src\draw\../misc/lv_color.h **** /**********************
 187:..\..\..\arduinoLCD\test\Pain Drain\libraries\lvgl\src\draw\../misc/lv_color.h ****  *      TYPEDEFS
 188:..\..\..\arduinoLCD\test\Pain Drain\libraries\lvgl\src\draw\../misc/lv_color.h ****  **********************/
 189:..\..\..\arduinoLCD\test\Pain Drain\libraries\lvgl\src\draw\../misc/lv_color.h **** 
 190:..\..\..\arduinoLCD\test\Pain Drain\libraries\lvgl\src\draw\../misc/lv_color.h **** typedef union {
 191:..\..\..\arduinoLCD\test\Pain Drain\libraries\lvgl\src\draw\../misc/lv_color.h ****     uint8_t full; /*must be declared first to set all bits of byte via initializer list*/
 192:..\..\..\arduinoLCD\test\Pain Drain\libraries\lvgl\src\draw\../misc/lv_color.h ****     union {
 193:..\..\..\arduinoLCD\test\Pain Drain\libraries\lvgl\src\draw\../misc/lv_color.h ****         uint8_t blue : 1;
 194:..\..\..\arduinoLCD\test\Pain Drain\libraries\lvgl\src\draw\../misc/lv_color.h ****         uint8_t green : 1;
 195:..\..\..\arduinoLCD\test\Pain Drain\libraries\lvgl\src\draw\../misc/lv_color.h ****         uint8_t red : 1;
 196:..\..\..\arduinoLCD\test\Pain Drain\libraries\lvgl\src\draw\../misc/lv_color.h ****     } ch;
 197:..\..\..\arduinoLCD\test\Pain Drain\libraries\lvgl\src\draw\../misc/lv_color.h **** } lv_color1_t;
 198:..\..\..\arduinoLCD\test\Pain Drain\libraries\lvgl\src\draw\../misc/lv_color.h **** 
 199:..\..\..\arduinoLCD\test\Pain Drain\libraries\lvgl\src\draw\../misc/lv_color.h **** typedef union {
 200:..\..\..\arduinoLCD\test\Pain Drain\libraries\lvgl\src\draw\../misc/lv_color.h ****     struct {
 201:..\..\..\arduinoLCD\test\Pain Drain\libraries\lvgl\src\draw\../misc/lv_color.h ****         uint8_t blue : 2;
ARM GAS  C:\Users\haske\AppData\Local\Temp\ccAIaoAy.s 			page 6


 202:..\..\..\arduinoLCD\test\Pain Drain\libraries\lvgl\src\draw\../misc/lv_color.h ****         uint8_t green : 3;
 203:..\..\..\arduinoLCD\test\Pain Drain\libraries\lvgl\src\draw\../misc/lv_color.h ****         uint8_t red : 3;
 204:..\..\..\arduinoLCD\test\Pain Drain\libraries\lvgl\src\draw\../misc/lv_color.h ****     } ch;
 205:..\..\..\arduinoLCD\test\Pain Drain\libraries\lvgl\src\draw\../misc/lv_color.h ****     uint8_t full;
 206:..\..\..\arduinoLCD\test\Pain Drain\libraries\lvgl\src\draw\../misc/lv_color.h **** } lv_color8_t;
 207:..\..\..\arduinoLCD\test\Pain Drain\libraries\lvgl\src\draw\../misc/lv_color.h **** 
 208:..\..\..\arduinoLCD\test\Pain Drain\libraries\lvgl\src\draw\../misc/lv_color.h **** typedef union {
 209:..\..\..\arduinoLCD\test\Pain Drain\libraries\lvgl\src\draw\../misc/lv_color.h ****     struct {
 210:..\..\..\arduinoLCD\test\Pain Drain\libraries\lvgl\src\draw\../misc/lv_color.h **** #if LV_COLOR_16_SWAP == 0
 211:..\..\..\arduinoLCD\test\Pain Drain\libraries\lvgl\src\draw\../misc/lv_color.h ****         uint16_t blue : 5;
 212:..\..\..\arduinoLCD\test\Pain Drain\libraries\lvgl\src\draw\../misc/lv_color.h ****         uint16_t green : 6;
 213:..\..\..\arduinoLCD\test\Pain Drain\libraries\lvgl\src\draw\../misc/lv_color.h ****         uint16_t red : 5;
 214:..\..\..\arduinoLCD\test\Pain Drain\libraries\lvgl\src\draw\../misc/lv_color.h **** #else
 215:..\..\..\arduinoLCD\test\Pain Drain\libraries\lvgl\src\draw\../misc/lv_color.h ****         uint16_t green_h : 3;
 216:..\..\..\arduinoLCD\test\Pain Drain\libraries\lvgl\src\draw\../misc/lv_color.h ****         uint16_t red : 5;
 217:..\..\..\arduinoLCD\test\Pain Drain\libraries\lvgl\src\draw\../misc/lv_color.h ****         uint16_t blue : 5;
 218:..\..\..\arduinoLCD\test\Pain Drain\libraries\lvgl\src\draw\../misc/lv_color.h ****         uint16_t green_l : 3;
 219:..\..\..\arduinoLCD\test\Pain Drain\libraries\lvgl\src\draw\../misc/lv_color.h **** #endif
 220:..\..\..\arduinoLCD\test\Pain Drain\libraries\lvgl\src\draw\../misc/lv_color.h ****     } ch;
 221:..\..\..\arduinoLCD\test\Pain Drain\libraries\lvgl\src\draw\../misc/lv_color.h ****     uint16_t full;
 222:..\..\..\arduinoLCD\test\Pain Drain\libraries\lvgl\src\draw\../misc/lv_color.h **** } lv_color16_t;
 223:..\..\..\arduinoLCD\test\Pain Drain\libraries\lvgl\src\draw\../misc/lv_color.h **** 
 224:..\..\..\arduinoLCD\test\Pain Drain\libraries\lvgl\src\draw\../misc/lv_color.h **** typedef union {
 225:..\..\..\arduinoLCD\test\Pain Drain\libraries\lvgl\src\draw\../misc/lv_color.h ****     struct {
 226:..\..\..\arduinoLCD\test\Pain Drain\libraries\lvgl\src\draw\../misc/lv_color.h ****         uint8_t blue;
 227:..\..\..\arduinoLCD\test\Pain Drain\libraries\lvgl\src\draw\../misc/lv_color.h ****         uint8_t green;
 228:..\..\..\arduinoLCD\test\Pain Drain\libraries\lvgl\src\draw\../misc/lv_color.h ****         uint8_t red;
 229:..\..\..\arduinoLCD\test\Pain Drain\libraries\lvgl\src\draw\../misc/lv_color.h ****         uint8_t alpha;
 230:..\..\..\arduinoLCD\test\Pain Drain\libraries\lvgl\src\draw\../misc/lv_color.h ****     } ch;
 231:..\..\..\arduinoLCD\test\Pain Drain\libraries\lvgl\src\draw\../misc/lv_color.h ****     uint32_t full;
 232:..\..\..\arduinoLCD\test\Pain Drain\libraries\lvgl\src\draw\../misc/lv_color.h **** } lv_color32_t;
 233:..\..\..\arduinoLCD\test\Pain Drain\libraries\lvgl\src\draw\../misc/lv_color.h **** 
 234:..\..\..\arduinoLCD\test\Pain Drain\libraries\lvgl\src\draw\../misc/lv_color.h **** typedef LV_CONCAT3(uint, LV_COLOR_SIZE, _t) lv_color_int_t;
 235:..\..\..\arduinoLCD\test\Pain Drain\libraries\lvgl\src\draw\../misc/lv_color.h **** typedef LV_CONCAT3(lv_color, LV_COLOR_DEPTH, _t) lv_color_t;
 236:..\..\..\arduinoLCD\test\Pain Drain\libraries\lvgl\src\draw\../misc/lv_color.h **** 
 237:..\..\..\arduinoLCD\test\Pain Drain\libraries\lvgl\src\draw\../misc/lv_color.h **** typedef struct {
 238:..\..\..\arduinoLCD\test\Pain Drain\libraries\lvgl\src\draw\../misc/lv_color.h ****     uint16_t h;
 239:..\..\..\arduinoLCD\test\Pain Drain\libraries\lvgl\src\draw\../misc/lv_color.h ****     uint8_t s;
 240:..\..\..\arduinoLCD\test\Pain Drain\libraries\lvgl\src\draw\../misc/lv_color.h ****     uint8_t v;
 241:..\..\..\arduinoLCD\test\Pain Drain\libraries\lvgl\src\draw\../misc/lv_color.h **** } lv_color_hsv_t;
 242:..\..\..\arduinoLCD\test\Pain Drain\libraries\lvgl\src\draw\../misc/lv_color.h **** 
 243:..\..\..\arduinoLCD\test\Pain Drain\libraries\lvgl\src\draw\../misc/lv_color.h **** //! @cond Doxygen_Suppress
 244:..\..\..\arduinoLCD\test\Pain Drain\libraries\lvgl\src\draw\../misc/lv_color.h **** /*No idea where the guard is required but else throws warnings in the docs*/
 245:..\..\..\arduinoLCD\test\Pain Drain\libraries\lvgl\src\draw\../misc/lv_color.h **** typedef uint8_t lv_opa_t;
 246:..\..\..\arduinoLCD\test\Pain Drain\libraries\lvgl\src\draw\../misc/lv_color.h **** //! @endcond
 247:..\..\..\arduinoLCD\test\Pain Drain\libraries\lvgl\src\draw\../misc/lv_color.h **** 
 248:..\..\..\arduinoLCD\test\Pain Drain\libraries\lvgl\src\draw\../misc/lv_color.h **** struct _lv_color_filter_dsc_t;
 249:..\..\..\arduinoLCD\test\Pain Drain\libraries\lvgl\src\draw\../misc/lv_color.h **** 
 250:..\..\..\arduinoLCD\test\Pain Drain\libraries\lvgl\src\draw\../misc/lv_color.h **** typedef lv_color_t (*lv_color_filter_cb_t)(const struct _lv_color_filter_dsc_t *, lv_color_t, lv_op
 251:..\..\..\arduinoLCD\test\Pain Drain\libraries\lvgl\src\draw\../misc/lv_color.h **** 
 252:..\..\..\arduinoLCD\test\Pain Drain\libraries\lvgl\src\draw\../misc/lv_color.h **** typedef struct _lv_color_filter_dsc_t {
 253:..\..\..\arduinoLCD\test\Pain Drain\libraries\lvgl\src\draw\../misc/lv_color.h ****     lv_color_filter_cb_t filter_cb;
 254:..\..\..\arduinoLCD\test\Pain Drain\libraries\lvgl\src\draw\../misc/lv_color.h ****     void * user_data;
 255:..\..\..\arduinoLCD\test\Pain Drain\libraries\lvgl\src\draw\../misc/lv_color.h **** } lv_color_filter_dsc_t;
 256:..\..\..\arduinoLCD\test\Pain Drain\libraries\lvgl\src\draw\../misc/lv_color.h **** 
 257:..\..\..\arduinoLCD\test\Pain Drain\libraries\lvgl\src\draw\../misc/lv_color.h **** 
 258:..\..\..\arduinoLCD\test\Pain Drain\libraries\lvgl\src\draw\../misc/lv_color.h **** typedef enum {
ARM GAS  C:\Users\haske\AppData\Local\Temp\ccAIaoAy.s 			page 7


 259:..\..\..\arduinoLCD\test\Pain Drain\libraries\lvgl\src\draw\../misc/lv_color.h ****     LV_PALETTE_RED,
 260:..\..\..\arduinoLCD\test\Pain Drain\libraries\lvgl\src\draw\../misc/lv_color.h ****     LV_PALETTE_PINK,
 261:..\..\..\arduinoLCD\test\Pain Drain\libraries\lvgl\src\draw\../misc/lv_color.h ****     LV_PALETTE_PURPLE,
 262:..\..\..\arduinoLCD\test\Pain Drain\libraries\lvgl\src\draw\../misc/lv_color.h ****     LV_PALETTE_DEEP_PURPLE,
 263:..\..\..\arduinoLCD\test\Pain Drain\libraries\lvgl\src\draw\../misc/lv_color.h ****     LV_PALETTE_INDIGO,
 264:..\..\..\arduinoLCD\test\Pain Drain\libraries\lvgl\src\draw\../misc/lv_color.h ****     LV_PALETTE_BLUE,
 265:..\..\..\arduinoLCD\test\Pain Drain\libraries\lvgl\src\draw\../misc/lv_color.h ****     LV_PALETTE_LIGHT_BLUE,
 266:..\..\..\arduinoLCD\test\Pain Drain\libraries\lvgl\src\draw\../misc/lv_color.h ****     LV_PALETTE_CYAN,
 267:..\..\..\arduinoLCD\test\Pain Drain\libraries\lvgl\src\draw\../misc/lv_color.h ****     LV_PALETTE_TEAL,
 268:..\..\..\arduinoLCD\test\Pain Drain\libraries\lvgl\src\draw\../misc/lv_color.h ****     LV_PALETTE_GREEN,
 269:..\..\..\arduinoLCD\test\Pain Drain\libraries\lvgl\src\draw\../misc/lv_color.h ****     LV_PALETTE_LIGHT_GREEN,
 270:..\..\..\arduinoLCD\test\Pain Drain\libraries\lvgl\src\draw\../misc/lv_color.h ****     LV_PALETTE_LIME,
 271:..\..\..\arduinoLCD\test\Pain Drain\libraries\lvgl\src\draw\../misc/lv_color.h ****     LV_PALETTE_YELLOW,
 272:..\..\..\arduinoLCD\test\Pain Drain\libraries\lvgl\src\draw\../misc/lv_color.h ****     LV_PALETTE_AMBER,
 273:..\..\..\arduinoLCD\test\Pain Drain\libraries\lvgl\src\draw\../misc/lv_color.h ****     LV_PALETTE_ORANGE,
 274:..\..\..\arduinoLCD\test\Pain Drain\libraries\lvgl\src\draw\../misc/lv_color.h ****     LV_PALETTE_DEEP_ORANGE,
 275:..\..\..\arduinoLCD\test\Pain Drain\libraries\lvgl\src\draw\../misc/lv_color.h ****     LV_PALETTE_BROWN,
 276:..\..\..\arduinoLCD\test\Pain Drain\libraries\lvgl\src\draw\../misc/lv_color.h ****     LV_PALETTE_BLUE_GREY,
 277:..\..\..\arduinoLCD\test\Pain Drain\libraries\lvgl\src\draw\../misc/lv_color.h ****     LV_PALETTE_GREY,
 278:..\..\..\arduinoLCD\test\Pain Drain\libraries\lvgl\src\draw\../misc/lv_color.h ****     _LV_PALETTE_LAST,
 279:..\..\..\arduinoLCD\test\Pain Drain\libraries\lvgl\src\draw\../misc/lv_color.h ****     LV_PALETTE_NONE = 0xff,
 280:..\..\..\arduinoLCD\test\Pain Drain\libraries\lvgl\src\draw\../misc/lv_color.h **** } lv_palette_t;
 281:..\..\..\arduinoLCD\test\Pain Drain\libraries\lvgl\src\draw\../misc/lv_color.h **** 
 282:..\..\..\arduinoLCD\test\Pain Drain\libraries\lvgl\src\draw\../misc/lv_color.h **** /**********************
 283:..\..\..\arduinoLCD\test\Pain Drain\libraries\lvgl\src\draw\../misc/lv_color.h ****  * GLOBAL PROTOTYPES
 284:..\..\..\arduinoLCD\test\Pain Drain\libraries\lvgl\src\draw\../misc/lv_color.h ****  **********************/
 285:..\..\..\arduinoLCD\test\Pain Drain\libraries\lvgl\src\draw\../misc/lv_color.h **** 
 286:..\..\..\arduinoLCD\test\Pain Drain\libraries\lvgl\src\draw\../misc/lv_color.h **** /*In color conversations:
 287:..\..\..\arduinoLCD\test\Pain Drain\libraries\lvgl\src\draw\../misc/lv_color.h ****  * - When converting to bigger color type the LSB weight of 1 LSB is calculated
 288:..\..\..\arduinoLCD\test\Pain Drain\libraries\lvgl\src\draw\../misc/lv_color.h ****  *   E.g. 16 bit Red has 5 bits
 289:..\..\..\arduinoLCD\test\Pain Drain\libraries\lvgl\src\draw\../misc/lv_color.h ****  *         8 bit Red has 3 bits
 290:..\..\..\arduinoLCD\test\Pain Drain\libraries\lvgl\src\draw\../misc/lv_color.h ****  *        ----------------------
 291:..\..\..\arduinoLCD\test\Pain Drain\libraries\lvgl\src\draw\../misc/lv_color.h ****  *        8 bit red LSB = (2^5 - 1) / (2^3 - 1) = 31 / 7 = 4
 292:..\..\..\arduinoLCD\test\Pain Drain\libraries\lvgl\src\draw\../misc/lv_color.h ****  *
 293:..\..\..\arduinoLCD\test\Pain Drain\libraries\lvgl\src\draw\../misc/lv_color.h ****  * - When calculating to smaller color type simply shift out the LSBs
 294:..\..\..\arduinoLCD\test\Pain Drain\libraries\lvgl\src\draw\../misc/lv_color.h ****  *   E.g.  8 bit Red has 3 bits
 295:..\..\..\arduinoLCD\test\Pain Drain\libraries\lvgl\src\draw\../misc/lv_color.h ****  *        16 bit Red has 5 bits
 296:..\..\..\arduinoLCD\test\Pain Drain\libraries\lvgl\src\draw\../misc/lv_color.h ****  *        ----------------------
 297:..\..\..\arduinoLCD\test\Pain Drain\libraries\lvgl\src\draw\../misc/lv_color.h ****  *         Shift right with 5 - 3 = 2
 298:..\..\..\arduinoLCD\test\Pain Drain\libraries\lvgl\src\draw\../misc/lv_color.h ****  */
 299:..\..\..\arduinoLCD\test\Pain Drain\libraries\lvgl\src\draw\../misc/lv_color.h **** static inline uint8_t lv_color_to1(lv_color_t color)
 300:..\..\..\arduinoLCD\test\Pain Drain\libraries\lvgl\src\draw\../misc/lv_color.h **** {
 301:..\..\..\arduinoLCD\test\Pain Drain\libraries\lvgl\src\draw\../misc/lv_color.h **** #if LV_COLOR_DEPTH == 1
 302:..\..\..\arduinoLCD\test\Pain Drain\libraries\lvgl\src\draw\../misc/lv_color.h ****     return color.full;
 303:..\..\..\arduinoLCD\test\Pain Drain\libraries\lvgl\src\draw\../misc/lv_color.h **** #elif LV_COLOR_DEPTH == 8
 304:..\..\..\arduinoLCD\test\Pain Drain\libraries\lvgl\src\draw\../misc/lv_color.h ****     if((LV_COLOR_GET_R(color) & 0x4) || (LV_COLOR_GET_G(color) & 0x4) || (LV_COLOR_GET_B(color) & 0
 305:..\..\..\arduinoLCD\test\Pain Drain\libraries\lvgl\src\draw\../misc/lv_color.h ****         return 1;
 306:..\..\..\arduinoLCD\test\Pain Drain\libraries\lvgl\src\draw\../misc/lv_color.h ****     }
 307:..\..\..\arduinoLCD\test\Pain Drain\libraries\lvgl\src\draw\../misc/lv_color.h ****     else {
 308:..\..\..\arduinoLCD\test\Pain Drain\libraries\lvgl\src\draw\../misc/lv_color.h ****         return 0;
 309:..\..\..\arduinoLCD\test\Pain Drain\libraries\lvgl\src\draw\../misc/lv_color.h ****     }
 310:..\..\..\arduinoLCD\test\Pain Drain\libraries\lvgl\src\draw\../misc/lv_color.h **** #elif LV_COLOR_DEPTH == 16
 311:..\..\..\arduinoLCD\test\Pain Drain\libraries\lvgl\src\draw\../misc/lv_color.h ****     if((LV_COLOR_GET_R(color) & 0x10) || (LV_COLOR_GET_G(color) & 0x20) || (LV_COLOR_GET_B(color) &
 312:..\..\..\arduinoLCD\test\Pain Drain\libraries\lvgl\src\draw\../misc/lv_color.h ****         return 1;
 313:..\..\..\arduinoLCD\test\Pain Drain\libraries\lvgl\src\draw\../misc/lv_color.h ****     }
 314:..\..\..\arduinoLCD\test\Pain Drain\libraries\lvgl\src\draw\../misc/lv_color.h ****     else {
 315:..\..\..\arduinoLCD\test\Pain Drain\libraries\lvgl\src\draw\../misc/lv_color.h ****         return 0;
ARM GAS  C:\Users\haske\AppData\Local\Temp\ccAIaoAy.s 			page 8


 316:..\..\..\arduinoLCD\test\Pain Drain\libraries\lvgl\src\draw\../misc/lv_color.h ****     }
 317:..\..\..\arduinoLCD\test\Pain Drain\libraries\lvgl\src\draw\../misc/lv_color.h **** #elif LV_COLOR_DEPTH == 32
 318:..\..\..\arduinoLCD\test\Pain Drain\libraries\lvgl\src\draw\../misc/lv_color.h ****     if((LV_COLOR_GET_R(color) & 0x80) || (LV_COLOR_GET_G(color) & 0x80) || (LV_COLOR_GET_B(color) &
 319:..\..\..\arduinoLCD\test\Pain Drain\libraries\lvgl\src\draw\../misc/lv_color.h ****         return 1;
 320:..\..\..\arduinoLCD\test\Pain Drain\libraries\lvgl\src\draw\../misc/lv_color.h ****     }
 321:..\..\..\arduinoLCD\test\Pain Drain\libraries\lvgl\src\draw\../misc/lv_color.h ****     else {
 322:..\..\..\arduinoLCD\test\Pain Drain\libraries\lvgl\src\draw\../misc/lv_color.h ****         return 0;
 323:..\..\..\arduinoLCD\test\Pain Drain\libraries\lvgl\src\draw\../misc/lv_color.h ****     }
 324:..\..\..\arduinoLCD\test\Pain Drain\libraries\lvgl\src\draw\../misc/lv_color.h **** #endif
 325:..\..\..\arduinoLCD\test\Pain Drain\libraries\lvgl\src\draw\../misc/lv_color.h **** }
 326:..\..\..\arduinoLCD\test\Pain Drain\libraries\lvgl\src\draw\../misc/lv_color.h **** 
 327:..\..\..\arduinoLCD\test\Pain Drain\libraries\lvgl\src\draw\../misc/lv_color.h **** static inline uint8_t lv_color_to8(lv_color_t color)
 328:..\..\..\arduinoLCD\test\Pain Drain\libraries\lvgl\src\draw\../misc/lv_color.h **** {
 329:..\..\..\arduinoLCD\test\Pain Drain\libraries\lvgl\src\draw\../misc/lv_color.h **** #if LV_COLOR_DEPTH == 1
 330:..\..\..\arduinoLCD\test\Pain Drain\libraries\lvgl\src\draw\../misc/lv_color.h ****     if(color.full == 0)
 331:..\..\..\arduinoLCD\test\Pain Drain\libraries\lvgl\src\draw\../misc/lv_color.h ****         return 0;
 332:..\..\..\arduinoLCD\test\Pain Drain\libraries\lvgl\src\draw\../misc/lv_color.h ****     else
 333:..\..\..\arduinoLCD\test\Pain Drain\libraries\lvgl\src\draw\../misc/lv_color.h ****         return 0xFF;
 334:..\..\..\arduinoLCD\test\Pain Drain\libraries\lvgl\src\draw\../misc/lv_color.h **** #elif LV_COLOR_DEPTH == 8
 335:..\..\..\arduinoLCD\test\Pain Drain\libraries\lvgl\src\draw\../misc/lv_color.h ****     return color.full;
 336:..\..\..\arduinoLCD\test\Pain Drain\libraries\lvgl\src\draw\../misc/lv_color.h **** #elif LV_COLOR_DEPTH == 16
 337:..\..\..\arduinoLCD\test\Pain Drain\libraries\lvgl\src\draw\../misc/lv_color.h ****     lv_color8_t ret;
 338:..\..\..\arduinoLCD\test\Pain Drain\libraries\lvgl\src\draw\../misc/lv_color.h ****     LV_COLOR_SET_R8(ret, LV_COLOR_GET_R(color) >> 2); /*5 - 3  = 2*/
 339:..\..\..\arduinoLCD\test\Pain Drain\libraries\lvgl\src\draw\../misc/lv_color.h ****     LV_COLOR_SET_G8(ret, LV_COLOR_GET_G(color) >> 3); /*6 - 3  = 3*/
 340:..\..\..\arduinoLCD\test\Pain Drain\libraries\lvgl\src\draw\../misc/lv_color.h ****     LV_COLOR_SET_B8(ret, LV_COLOR_GET_B(color) >> 3); /*5 - 2  = 3*/
 341:..\..\..\arduinoLCD\test\Pain Drain\libraries\lvgl\src\draw\../misc/lv_color.h ****     return ret.full;
 342:..\..\..\arduinoLCD\test\Pain Drain\libraries\lvgl\src\draw\../misc/lv_color.h **** #elif LV_COLOR_DEPTH == 32
 343:..\..\..\arduinoLCD\test\Pain Drain\libraries\lvgl\src\draw\../misc/lv_color.h ****     lv_color8_t ret;
 344:..\..\..\arduinoLCD\test\Pain Drain\libraries\lvgl\src\draw\../misc/lv_color.h ****     LV_COLOR_SET_R8(ret, LV_COLOR_GET_R(color) >> 5); /*8 - 3  = 5*/
 345:..\..\..\arduinoLCD\test\Pain Drain\libraries\lvgl\src\draw\../misc/lv_color.h ****     LV_COLOR_SET_G8(ret, LV_COLOR_GET_G(color) >> 5); /*8 - 3  = 5*/
 346:..\..\..\arduinoLCD\test\Pain Drain\libraries\lvgl\src\draw\../misc/lv_color.h ****     LV_COLOR_SET_B8(ret, LV_COLOR_GET_B(color) >> 6); /*8 - 2  = 6*/
 347:..\..\..\arduinoLCD\test\Pain Drain\libraries\lvgl\src\draw\../misc/lv_color.h ****     return ret.full;
 348:..\..\..\arduinoLCD\test\Pain Drain\libraries\lvgl\src\draw\../misc/lv_color.h **** #endif
 349:..\..\..\arduinoLCD\test\Pain Drain\libraries\lvgl\src\draw\../misc/lv_color.h **** }
 350:..\..\..\arduinoLCD\test\Pain Drain\libraries\lvgl\src\draw\../misc/lv_color.h **** 
 351:..\..\..\arduinoLCD\test\Pain Drain\libraries\lvgl\src\draw\../misc/lv_color.h **** static inline uint16_t lv_color_to16(lv_color_t color)
 352:..\..\..\arduinoLCD\test\Pain Drain\libraries\lvgl\src\draw\../misc/lv_color.h **** {
 353:..\..\..\arduinoLCD\test\Pain Drain\libraries\lvgl\src\draw\../misc/lv_color.h **** #if LV_COLOR_DEPTH == 1
 354:..\..\..\arduinoLCD\test\Pain Drain\libraries\lvgl\src\draw\../misc/lv_color.h ****     if(color.full == 0)
 355:..\..\..\arduinoLCD\test\Pain Drain\libraries\lvgl\src\draw\../misc/lv_color.h ****         return 0;
 356:..\..\..\arduinoLCD\test\Pain Drain\libraries\lvgl\src\draw\../misc/lv_color.h ****     else
 357:..\..\..\arduinoLCD\test\Pain Drain\libraries\lvgl\src\draw\../misc/lv_color.h ****         return 0xFFFF;
 358:..\..\..\arduinoLCD\test\Pain Drain\libraries\lvgl\src\draw\../misc/lv_color.h **** #elif LV_COLOR_DEPTH == 8
 359:..\..\..\arduinoLCD\test\Pain Drain\libraries\lvgl\src\draw\../misc/lv_color.h ****     lv_color16_t ret;
 360:..\..\..\arduinoLCD\test\Pain Drain\libraries\lvgl\src\draw\../misc/lv_color.h ****     LV_COLOR_SET_R16(ret, LV_COLOR_GET_R(color) * 4);  /*(2^5 - 1)/(2^3 - 1) = 31/7 = 4*/
 361:..\..\..\arduinoLCD\test\Pain Drain\libraries\lvgl\src\draw\../misc/lv_color.h ****     LV_COLOR_SET_G16(ret, LV_COLOR_GET_G(color) * 9);  /*(2^6 - 1)/(2^3 - 1) = 63/7 = 9*/
 362:..\..\..\arduinoLCD\test\Pain Drain\libraries\lvgl\src\draw\../misc/lv_color.h ****     LV_COLOR_SET_B16(ret, LV_COLOR_GET_B(color) * 10); /*(2^5 - 1)/(2^2 - 1) = 31/3 = 10*/
 363:..\..\..\arduinoLCD\test\Pain Drain\libraries\lvgl\src\draw\../misc/lv_color.h ****     return ret.full;
 364:..\..\..\arduinoLCD\test\Pain Drain\libraries\lvgl\src\draw\../misc/lv_color.h **** #elif LV_COLOR_DEPTH == 16
 365:..\..\..\arduinoLCD\test\Pain Drain\libraries\lvgl\src\draw\../misc/lv_color.h ****     return color.full;
 366:..\..\..\arduinoLCD\test\Pain Drain\libraries\lvgl\src\draw\../misc/lv_color.h **** #elif LV_COLOR_DEPTH == 32
 367:..\..\..\arduinoLCD\test\Pain Drain\libraries\lvgl\src\draw\../misc/lv_color.h ****     lv_color16_t ret;
 368:..\..\..\arduinoLCD\test\Pain Drain\libraries\lvgl\src\draw\../misc/lv_color.h ****     LV_COLOR_SET_R16(ret, LV_COLOR_GET_R(color) >> 3); /*8 - 5  = 3*/
 369:..\..\..\arduinoLCD\test\Pain Drain\libraries\lvgl\src\draw\../misc/lv_color.h ****     LV_COLOR_SET_G16(ret, LV_COLOR_GET_G(color) >> 2); /*8 - 6  = 2*/
 370:..\..\..\arduinoLCD\test\Pain Drain\libraries\lvgl\src\draw\../misc/lv_color.h ****     LV_COLOR_SET_B16(ret, LV_COLOR_GET_B(color) >> 3); /*8 - 5  = 3*/
 371:..\..\..\arduinoLCD\test\Pain Drain\libraries\lvgl\src\draw\../misc/lv_color.h ****     return ret.full;
 372:..\..\..\arduinoLCD\test\Pain Drain\libraries\lvgl\src\draw\../misc/lv_color.h **** #endif
ARM GAS  C:\Users\haske\AppData\Local\Temp\ccAIaoAy.s 			page 9


 373:..\..\..\arduinoLCD\test\Pain Drain\libraries\lvgl\src\draw\../misc/lv_color.h **** }
 374:..\..\..\arduinoLCD\test\Pain Drain\libraries\lvgl\src\draw\../misc/lv_color.h **** 
 375:..\..\..\arduinoLCD\test\Pain Drain\libraries\lvgl\src\draw\../misc/lv_color.h **** static inline uint32_t lv_color_to32(lv_color_t color)
 376:..\..\..\arduinoLCD\test\Pain Drain\libraries\lvgl\src\draw\../misc/lv_color.h **** {
 377:..\..\..\arduinoLCD\test\Pain Drain\libraries\lvgl\src\draw\../misc/lv_color.h **** #if LV_COLOR_DEPTH == 1
 378:..\..\..\arduinoLCD\test\Pain Drain\libraries\lvgl\src\draw\../misc/lv_color.h ****     if(color.full == 0)
 379:..\..\..\arduinoLCD\test\Pain Drain\libraries\lvgl\src\draw\../misc/lv_color.h ****         return 0xFF000000;
 380:..\..\..\arduinoLCD\test\Pain Drain\libraries\lvgl\src\draw\../misc/lv_color.h ****     else
 381:..\..\..\arduinoLCD\test\Pain Drain\libraries\lvgl\src\draw\../misc/lv_color.h ****         return 0xFFFFFFFF;
 382:..\..\..\arduinoLCD\test\Pain Drain\libraries\lvgl\src\draw\../misc/lv_color.h **** #elif LV_COLOR_DEPTH == 8
 383:..\..\..\arduinoLCD\test\Pain Drain\libraries\lvgl\src\draw\../misc/lv_color.h ****     lv_color32_t ret;
 384:..\..\..\arduinoLCD\test\Pain Drain\libraries\lvgl\src\draw\../misc/lv_color.h ****     LV_COLOR_SET_R32(ret, LV_COLOR_GET_R(color) * 36); /*(2^8 - 1)/(2^3 - 1) = 255/7 = 36*/
 385:..\..\..\arduinoLCD\test\Pain Drain\libraries\lvgl\src\draw\../misc/lv_color.h ****     LV_COLOR_SET_G32(ret, LV_COLOR_GET_G(color) * 36); /*(2^8 - 1)/(2^3 - 1) = 255/7 = 36*/
 386:..\..\..\arduinoLCD\test\Pain Drain\libraries\lvgl\src\draw\../misc/lv_color.h ****     LV_COLOR_SET_B32(ret, LV_COLOR_GET_B(color) * 85); /*(2^8 - 1)/(2^2 - 1) = 255/3 = 85*/
 387:..\..\..\arduinoLCD\test\Pain Drain\libraries\lvgl\src\draw\../misc/lv_color.h ****     LV_COLOR_SET_A32(ret, 0xFF);
 388:..\..\..\arduinoLCD\test\Pain Drain\libraries\lvgl\src\draw\../misc/lv_color.h ****     return ret.full;
 389:..\..\..\arduinoLCD\test\Pain Drain\libraries\lvgl\src\draw\../misc/lv_color.h **** #elif LV_COLOR_DEPTH == 16
 390:..\..\..\arduinoLCD\test\Pain Drain\libraries\lvgl\src\draw\../misc/lv_color.h ****     /**
 391:..\..\..\arduinoLCD\test\Pain Drain\libraries\lvgl\src\draw\../misc/lv_color.h ****      * The floating point math for conversion is:
 392:..\..\..\arduinoLCD\test\Pain Drain\libraries\lvgl\src\draw\../misc/lv_color.h ****      *  valueto = valuefrom * ( (2^bitsto - 1) / (float)(2^bitsfrom - 1) )
 393:..\..\..\arduinoLCD\test\Pain Drain\libraries\lvgl\src\draw\../misc/lv_color.h ****      * The faster integer math for conversion is:
 394:..\..\..\arduinoLCD\test\Pain Drain\libraries\lvgl\src\draw\../misc/lv_color.h ****      *  valueto = ( valuefrom * multiplier + adder ) >> divisor
 395:..\..\..\arduinoLCD\test\Pain Drain\libraries\lvgl\src\draw\../misc/lv_color.h ****      *   multiplier = FLOOR( ( (2^bitsto - 1) << divisor ) / (float)(2^bitsfrom - 1) )
 396:..\..\..\arduinoLCD\test\Pain Drain\libraries\lvgl\src\draw\../misc/lv_color.h ****      *
 397:..\..\..\arduinoLCD\test\Pain Drain\libraries\lvgl\src\draw\../misc/lv_color.h ****      * Find the first divisor where ( adder >> divisor ) <= 0
 398:..\..\..\arduinoLCD\test\Pain Drain\libraries\lvgl\src\draw\../misc/lv_color.h ****      *
 399:..\..\..\arduinoLCD\test\Pain Drain\libraries\lvgl\src\draw\../misc/lv_color.h ****      * 5-bit to 8-bit: ( 31 * multiplier + adder ) >> divisor = 255
 400:..\..\..\arduinoLCD\test\Pain Drain\libraries\lvgl\src\draw\../misc/lv_color.h ****      * divisor  multiplier  adder  min (0)  max (31)
 401:..\..\..\arduinoLCD\test\Pain Drain\libraries\lvgl\src\draw\../misc/lv_color.h ****      *       0           8      7        7       255
 402:..\..\..\arduinoLCD\test\Pain Drain\libraries\lvgl\src\draw\../misc/lv_color.h ****      *       1          16     14        7       255
 403:..\..\..\arduinoLCD\test\Pain Drain\libraries\lvgl\src\draw\../misc/lv_color.h ****      *       2          32     28        7       255
 404:..\..\..\arduinoLCD\test\Pain Drain\libraries\lvgl\src\draw\../misc/lv_color.h ****      *       3          65     25        3       255
 405:..\..\..\arduinoLCD\test\Pain Drain\libraries\lvgl\src\draw\../misc/lv_color.h ****      *       4         131     19        1       255
 406:..\..\..\arduinoLCD\test\Pain Drain\libraries\lvgl\src\draw\../misc/lv_color.h ****      *       5         263      7        0       255
 407:..\..\..\arduinoLCD\test\Pain Drain\libraries\lvgl\src\draw\../misc/lv_color.h ****      *
 408:..\..\..\arduinoLCD\test\Pain Drain\libraries\lvgl\src\draw\../misc/lv_color.h ****      * 6-bit to 8-bit: 255 = ( 63 * multiplier + adder ) >> divisor
 409:..\..\..\arduinoLCD\test\Pain Drain\libraries\lvgl\src\draw\../misc/lv_color.h ****      * divisor  multiplier  adder  min (0)  max (63)
 410:..\..\..\arduinoLCD\test\Pain Drain\libraries\lvgl\src\draw\../misc/lv_color.h ****      *       0           4      3        3       255
 411:..\..\..\arduinoLCD\test\Pain Drain\libraries\lvgl\src\draw\../misc/lv_color.h ****      *       1           8      6        3       255
 412:..\..\..\arduinoLCD\test\Pain Drain\libraries\lvgl\src\draw\../misc/lv_color.h ****      *       2          16     12        3       255
 413:..\..\..\arduinoLCD\test\Pain Drain\libraries\lvgl\src\draw\../misc/lv_color.h ****      *       3          32     24        3       255
 414:..\..\..\arduinoLCD\test\Pain Drain\libraries\lvgl\src\draw\../misc/lv_color.h ****      *       4          64     48        3       255
 415:..\..\..\arduinoLCD\test\Pain Drain\libraries\lvgl\src\draw\../misc/lv_color.h ****      *       5         129     33        1       255
 416:..\..\..\arduinoLCD\test\Pain Drain\libraries\lvgl\src\draw\../misc/lv_color.h ****      *       6         259      3        0       255
 417:..\..\..\arduinoLCD\test\Pain Drain\libraries\lvgl\src\draw\../misc/lv_color.h ****      */
 418:..\..\..\arduinoLCD\test\Pain Drain\libraries\lvgl\src\draw\../misc/lv_color.h **** 
 419:..\..\..\arduinoLCD\test\Pain Drain\libraries\lvgl\src\draw\../misc/lv_color.h ****     lv_color32_t ret;
 420:..\..\..\arduinoLCD\test\Pain Drain\libraries\lvgl\src\draw\../misc/lv_color.h ****     LV_COLOR_SET_R32(ret, (LV_COLOR_GET_R(color) * 263 + 7) >> 5);
 421:..\..\..\arduinoLCD\test\Pain Drain\libraries\lvgl\src\draw\../misc/lv_color.h ****     LV_COLOR_SET_G32(ret, (LV_COLOR_GET_G(color) * 259 + 3) >> 6);
 422:..\..\..\arduinoLCD\test\Pain Drain\libraries\lvgl\src\draw\../misc/lv_color.h ****     LV_COLOR_SET_B32(ret, (LV_COLOR_GET_B(color) * 263 + 7) >> 5);
 423:..\..\..\arduinoLCD\test\Pain Drain\libraries\lvgl\src\draw\../misc/lv_color.h ****     LV_COLOR_SET_A32(ret, 0xFF);
 424:..\..\..\arduinoLCD\test\Pain Drain\libraries\lvgl\src\draw\../misc/lv_color.h ****     return ret.full;
 425:..\..\..\arduinoLCD\test\Pain Drain\libraries\lvgl\src\draw\../misc/lv_color.h **** #elif LV_COLOR_DEPTH == 32
 426:..\..\..\arduinoLCD\test\Pain Drain\libraries\lvgl\src\draw\../misc/lv_color.h ****     return color.full;
 427:..\..\..\arduinoLCD\test\Pain Drain\libraries\lvgl\src\draw\../misc/lv_color.h **** #endif
 428:..\..\..\arduinoLCD\test\Pain Drain\libraries\lvgl\src\draw\../misc/lv_color.h **** }
 429:..\..\..\arduinoLCD\test\Pain Drain\libraries\lvgl\src\draw\../misc/lv_color.h **** 
ARM GAS  C:\Users\haske\AppData\Local\Temp\ccAIaoAy.s 			page 10


 430:..\..\..\arduinoLCD\test\Pain Drain\libraries\lvgl\src\draw\../misc/lv_color.h **** //! @cond Doxygen_Suppress
 431:..\..\..\arduinoLCD\test\Pain Drain\libraries\lvgl\src\draw\../misc/lv_color.h **** 
 432:..\..\..\arduinoLCD\test\Pain Drain\libraries\lvgl\src\draw\../misc/lv_color.h **** /**
 433:..\..\..\arduinoLCD\test\Pain Drain\libraries\lvgl\src\draw\../misc/lv_color.h ****  * Mix two colors with a given ratio.
 434:..\..\..\arduinoLCD\test\Pain Drain\libraries\lvgl\src\draw\../misc/lv_color.h ****  * @param c1 the first color to mix (usually the foreground)
 435:..\..\..\arduinoLCD\test\Pain Drain\libraries\lvgl\src\draw\../misc/lv_color.h ****  * @param c2 the second color to mix (usually the background)
 436:..\..\..\arduinoLCD\test\Pain Drain\libraries\lvgl\src\draw\../misc/lv_color.h ****  * @param mix The ratio of the colors. 0: full `c2`, 255: full `c1`, 127: half `c1` and half`c2`
 437:..\..\..\arduinoLCD\test\Pain Drain\libraries\lvgl\src\draw\../misc/lv_color.h ****  * @return the mixed color
 438:..\..\..\arduinoLCD\test\Pain Drain\libraries\lvgl\src\draw\../misc/lv_color.h ****  */
 439:..\..\..\arduinoLCD\test\Pain Drain\libraries\lvgl\src\draw\../misc/lv_color.h **** LV_ATTRIBUTE_FAST_MEM static inline lv_color_t lv_color_mix(lv_color_t c1, lv_color_t c2, uint8_t m
 440:..\..\..\arduinoLCD\test\Pain Drain\libraries\lvgl\src\draw\../misc/lv_color.h **** {
 441:..\..\..\arduinoLCD\test\Pain Drain\libraries\lvgl\src\draw\../misc/lv_color.h ****     lv_color_t ret;
 442:..\..\..\arduinoLCD\test\Pain Drain\libraries\lvgl\src\draw\../misc/lv_color.h **** 
 443:..\..\..\arduinoLCD\test\Pain Drain\libraries\lvgl\src\draw\../misc/lv_color.h **** #if LV_COLOR_DEPTH == 16 && LV_COLOR_16_SWAP == 0 && LV_COLOR_MIX_ROUND_OFS == 0
 444:..\..\..\arduinoLCD\test\Pain Drain\libraries\lvgl\src\draw\../misc/lv_color.h ****     /*Source: https://stackoverflow.com/a/50012418/1999969*/
 445:..\..\..\arduinoLCD\test\Pain Drain\libraries\lvgl\src\draw\../misc/lv_color.h ****     mix = (uint32_t)((uint32_t)mix + 4) >> 3;
 446:..\..\..\arduinoLCD\test\Pain Drain\libraries\lvgl\src\draw\../misc/lv_color.h ****     uint32_t bg = (uint32_t)((uint32_t)c2.full | ((uint32_t)c2.full << 16)) &
 447:..\..\..\arduinoLCD\test\Pain Drain\libraries\lvgl\src\draw\../misc/lv_color.h ****                   0x7E0F81F; /*0b00000111111000001111100000011111*/
 448:..\..\..\arduinoLCD\test\Pain Drain\libraries\lvgl\src\draw\../misc/lv_color.h ****     uint32_t fg = (uint32_t)((uint32_t)c1.full | ((uint32_t)c1.full << 16)) & 0x7E0F81F;
 449:..\..\..\arduinoLCD\test\Pain Drain\libraries\lvgl\src\draw\../misc/lv_color.h ****     uint32_t result = ((((fg - bg) * mix) >> 5) + bg) & 0x7E0F81F;
 450:..\..\..\arduinoLCD\test\Pain Drain\libraries\lvgl\src\draw\../misc/lv_color.h ****     ret.full = (uint16_t)((result >> 16) | result);
 451:..\..\..\arduinoLCD\test\Pain Drain\libraries\lvgl\src\draw\../misc/lv_color.h **** #elif LV_COLOR_DEPTH != 1
 452:..\..\..\arduinoLCD\test\Pain Drain\libraries\lvgl\src\draw\../misc/lv_color.h ****     /*LV_COLOR_DEPTH == 8, 16 or 32*/
 453:..\..\..\arduinoLCD\test\Pain Drain\libraries\lvgl\src\draw\../misc/lv_color.h ****     LV_COLOR_SET_R(ret, LV_UDIV255((uint16_t)LV_COLOR_GET_R(c1) * mix + LV_COLOR_GET_R(c2) *
 454:..\..\..\arduinoLCD\test\Pain Drain\libraries\lvgl\src\draw\../misc/lv_color.h ****                                    (255 - mix) + LV_COLOR_MIX_ROUND_OFS));
 455:..\..\..\arduinoLCD\test\Pain Drain\libraries\lvgl\src\draw\../misc/lv_color.h ****     LV_COLOR_SET_G(ret, LV_UDIV255((uint16_t)LV_COLOR_GET_G(c1) * mix + LV_COLOR_GET_G(c2) *
 456:..\..\..\arduinoLCD\test\Pain Drain\libraries\lvgl\src\draw\../misc/lv_color.h ****                                    (255 - mix) + LV_COLOR_MIX_ROUND_OFS));
 457:..\..\..\arduinoLCD\test\Pain Drain\libraries\lvgl\src\draw\../misc/lv_color.h ****     LV_COLOR_SET_B(ret, LV_UDIV255((uint16_t)LV_COLOR_GET_B(c1) * mix + LV_COLOR_GET_B(c2) *
 458:..\..\..\arduinoLCD\test\Pain Drain\libraries\lvgl\src\draw\../misc/lv_color.h ****                                    (255 - mix) + LV_COLOR_MIX_ROUND_OFS));
 459:..\..\..\arduinoLCD\test\Pain Drain\libraries\lvgl\src\draw\../misc/lv_color.h ****     LV_COLOR_SET_A(ret, 0xFF);
 460:..\..\..\arduinoLCD\test\Pain Drain\libraries\lvgl\src\draw\../misc/lv_color.h **** #else
 461:..\..\..\arduinoLCD\test\Pain Drain\libraries\lvgl\src\draw\../misc/lv_color.h ****     /*LV_COLOR_DEPTH == 1*/
 462:..\..\..\arduinoLCD\test\Pain Drain\libraries\lvgl\src\draw\../misc/lv_color.h ****     ret.full = mix > LV_OPA_50 ? c1.full : c2.full;
 463:..\..\..\arduinoLCD\test\Pain Drain\libraries\lvgl\src\draw\../misc/lv_color.h **** #endif
 464:..\..\..\arduinoLCD\test\Pain Drain\libraries\lvgl\src\draw\../misc/lv_color.h **** 
 465:..\..\..\arduinoLCD\test\Pain Drain\libraries\lvgl\src\draw\../misc/lv_color.h ****     return ret;
 466:..\..\..\arduinoLCD\test\Pain Drain\libraries\lvgl\src\draw\../misc/lv_color.h **** }
 467:..\..\..\arduinoLCD\test\Pain Drain\libraries\lvgl\src\draw\../misc/lv_color.h **** 
 468:..\..\..\arduinoLCD\test\Pain Drain\libraries\lvgl\src\draw\../misc/lv_color.h **** LV_ATTRIBUTE_FAST_MEM static inline void lv_color_premult(lv_color_t c, uint8_t mix, uint16_t * out
 469:..\..\..\arduinoLCD\test\Pain Drain\libraries\lvgl\src\draw\../misc/lv_color.h **** {
 470:..\..\..\arduinoLCD\test\Pain Drain\libraries\lvgl\src\draw\../misc/lv_color.h **** #if LV_COLOR_DEPTH != 1
 471:..\..\..\arduinoLCD\test\Pain Drain\libraries\lvgl\src\draw\../misc/lv_color.h ****     out[0] = (uint16_t)LV_COLOR_GET_R(c) * mix;
 472:..\..\..\arduinoLCD\test\Pain Drain\libraries\lvgl\src\draw\../misc/lv_color.h ****     out[1] = (uint16_t)LV_COLOR_GET_G(c) * mix;
 473:..\..\..\arduinoLCD\test\Pain Drain\libraries\lvgl\src\draw\../misc/lv_color.h ****     out[2] = (uint16_t)LV_COLOR_GET_B(c) * mix;
 474:..\..\..\arduinoLCD\test\Pain Drain\libraries\lvgl\src\draw\../misc/lv_color.h **** #else
 475:..\..\..\arduinoLCD\test\Pain Drain\libraries\lvgl\src\draw\../misc/lv_color.h ****     (void) mix;
 476:..\..\..\arduinoLCD\test\Pain Drain\libraries\lvgl\src\draw\../misc/lv_color.h ****     /*Pre-multiplication can't be used with 1 bpp*/
 477:..\..\..\arduinoLCD\test\Pain Drain\libraries\lvgl\src\draw\../misc/lv_color.h ****     out[0] = LV_COLOR_GET_R(c);
 478:..\..\..\arduinoLCD\test\Pain Drain\libraries\lvgl\src\draw\../misc/lv_color.h ****     out[1] = LV_COLOR_GET_G(c);
 479:..\..\..\arduinoLCD\test\Pain Drain\libraries\lvgl\src\draw\../misc/lv_color.h ****     out[2] = LV_COLOR_GET_B(c);
 480:..\..\..\arduinoLCD\test\Pain Drain\libraries\lvgl\src\draw\../misc/lv_color.h **** #endif
 481:..\..\..\arduinoLCD\test\Pain Drain\libraries\lvgl\src\draw\../misc/lv_color.h **** 
 482:..\..\..\arduinoLCD\test\Pain Drain\libraries\lvgl\src\draw\../misc/lv_color.h **** }
 483:..\..\..\arduinoLCD\test\Pain Drain\libraries\lvgl\src\draw\../misc/lv_color.h **** 
 484:..\..\..\arduinoLCD\test\Pain Drain\libraries\lvgl\src\draw\../misc/lv_color.h **** /**
 485:..\..\..\arduinoLCD\test\Pain Drain\libraries\lvgl\src\draw\../misc/lv_color.h ****  * Mix two colors with a given ratio. It runs faster then `lv_color_mix` but requires some pre comp
 486:..\..\..\arduinoLCD\test\Pain Drain\libraries\lvgl\src\draw\../misc/lv_color.h ****  * @param premult_c1 The first color. Should be preprocessed with `lv_color_premult(c1)`
ARM GAS  C:\Users\haske\AppData\Local\Temp\ccAIaoAy.s 			page 11


 487:..\..\..\arduinoLCD\test\Pain Drain\libraries\lvgl\src\draw\../misc/lv_color.h ****  * @param c2 The second color. As it is no pre computation required on it
 488:..\..\..\arduinoLCD\test\Pain Drain\libraries\lvgl\src\draw\../misc/lv_color.h ****  * @param mix The ratio of the colors. 0: full `c1`, 255: full `c2`, 127: half `c1` and half `c2`.
 489:..\..\..\arduinoLCD\test\Pain Drain\libraries\lvgl\src\draw\../misc/lv_color.h ****  *            Should be modified like mix = `255 - mix`
 490:..\..\..\arduinoLCD\test\Pain Drain\libraries\lvgl\src\draw\../misc/lv_color.h ****  * @return the mixed color
 491:..\..\..\arduinoLCD\test\Pain Drain\libraries\lvgl\src\draw\../misc/lv_color.h ****  * @note 255 won't give clearly `c1`.
 492:..\..\..\arduinoLCD\test\Pain Drain\libraries\lvgl\src\draw\../misc/lv_color.h ****  */
 493:..\..\..\arduinoLCD\test\Pain Drain\libraries\lvgl\src\draw\../misc/lv_color.h **** LV_ATTRIBUTE_FAST_MEM static inline lv_color_t lv_color_mix_premult(uint16_t * premult_c1, lv_color
 494:..\..\..\arduinoLCD\test\Pain Drain\libraries\lvgl\src\draw\../misc/lv_color.h **** {
 495:..\..\..\arduinoLCD\test\Pain Drain\libraries\lvgl\src\draw\../misc/lv_color.h ****     lv_color_t ret;
 496:..\..\..\arduinoLCD\test\Pain Drain\libraries\lvgl\src\draw\../misc/lv_color.h **** #if LV_COLOR_DEPTH != 1
 497:..\..\..\arduinoLCD\test\Pain Drain\libraries\lvgl\src\draw\../misc/lv_color.h ****     /*LV_COLOR_DEPTH == 8 or 32*/
 498:..\..\..\arduinoLCD\test\Pain Drain\libraries\lvgl\src\draw\../misc/lv_color.h ****     LV_COLOR_SET_R(ret, LV_UDIV255(premult_c1[0] + LV_COLOR_GET_R(c2) * mix + LV_COLOR_MIX_ROUND_OF
 499:..\..\..\arduinoLCD\test\Pain Drain\libraries\lvgl\src\draw\../misc/lv_color.h ****     LV_COLOR_SET_G(ret, LV_UDIV255(premult_c1[1] + LV_COLOR_GET_G(c2) * mix + LV_COLOR_MIX_ROUND_OF
 500:..\..\..\arduinoLCD\test\Pain Drain\libraries\lvgl\src\draw\../misc/lv_color.h ****     LV_COLOR_SET_B(ret, LV_UDIV255(premult_c1[2] + LV_COLOR_GET_B(c2) * mix + LV_COLOR_MIX_ROUND_OF
 501:..\..\..\arduinoLCD\test\Pain Drain\libraries\lvgl\src\draw\../misc/lv_color.h ****     LV_COLOR_SET_A(ret, 0xFF);
 502:..\..\..\arduinoLCD\test\Pain Drain\libraries\lvgl\src\draw\../misc/lv_color.h **** #else
 503:..\..\..\arduinoLCD\test\Pain Drain\libraries\lvgl\src\draw\../misc/lv_color.h ****     /*LV_COLOR_DEPTH == 1*/
 504:..\..\..\arduinoLCD\test\Pain Drain\libraries\lvgl\src\draw\../misc/lv_color.h ****     /*Restore color1*/
 505:..\..\..\arduinoLCD\test\Pain Drain\libraries\lvgl\src\draw\../misc/lv_color.h ****     lv_color_t c1;
 506:..\..\..\arduinoLCD\test\Pain Drain\libraries\lvgl\src\draw\../misc/lv_color.h ****     LV_COLOR_SET_R(c1, premult_c1[0]);
 507:..\..\..\arduinoLCD\test\Pain Drain\libraries\lvgl\src\draw\../misc/lv_color.h ****     LV_COLOR_SET_G(c1, premult_c1[1]);
 508:..\..\..\arduinoLCD\test\Pain Drain\libraries\lvgl\src\draw\../misc/lv_color.h ****     LV_COLOR_SET_B(c1, premult_c1[2]);
 509:..\..\..\arduinoLCD\test\Pain Drain\libraries\lvgl\src\draw\../misc/lv_color.h ****     ret.full = mix > LV_OPA_50 ? c2.full : c1.full;
 510:..\..\..\arduinoLCD\test\Pain Drain\libraries\lvgl\src\draw\../misc/lv_color.h **** #endif
 511:..\..\..\arduinoLCD\test\Pain Drain\libraries\lvgl\src\draw\../misc/lv_color.h **** 
 512:..\..\..\arduinoLCD\test\Pain Drain\libraries\lvgl\src\draw\../misc/lv_color.h ****     return ret;
 513:..\..\..\arduinoLCD\test\Pain Drain\libraries\lvgl\src\draw\../misc/lv_color.h **** }
 514:..\..\..\arduinoLCD\test\Pain Drain\libraries\lvgl\src\draw\../misc/lv_color.h **** 
 515:..\..\..\arduinoLCD\test\Pain Drain\libraries\lvgl\src\draw\../misc/lv_color.h **** /**
 516:..\..\..\arduinoLCD\test\Pain Drain\libraries\lvgl\src\draw\../misc/lv_color.h ****  * Mix two colors. Both color can have alpha value.
 517:..\..\..\arduinoLCD\test\Pain Drain\libraries\lvgl\src\draw\../misc/lv_color.h ****  * @param bg_color background color
 518:..\..\..\arduinoLCD\test\Pain Drain\libraries\lvgl\src\draw\../misc/lv_color.h ****  * @param bg_opa alpha of the background color
 519:..\..\..\arduinoLCD\test\Pain Drain\libraries\lvgl\src\draw\../misc/lv_color.h ****  * @param fg_color foreground color
 520:..\..\..\arduinoLCD\test\Pain Drain\libraries\lvgl\src\draw\../misc/lv_color.h ****  * @param fg_opa alpha of the foreground color
 521:..\..\..\arduinoLCD\test\Pain Drain\libraries\lvgl\src\draw\../misc/lv_color.h ****  * @param res_color the result color
 522:..\..\..\arduinoLCD\test\Pain Drain\libraries\lvgl\src\draw\../misc/lv_color.h ****  * @param res_opa the result opacity
 523:..\..\..\arduinoLCD\test\Pain Drain\libraries\lvgl\src\draw\../misc/lv_color.h ****  */
 524:..\..\..\arduinoLCD\test\Pain Drain\libraries\lvgl\src\draw\../misc/lv_color.h **** LV_ATTRIBUTE_FAST_MEM static inline void lv_color_mix_with_alpha(lv_color_t bg_color, lv_opa_t bg_o
 525:..\..\..\arduinoLCD\test\Pain Drain\libraries\lvgl\src\draw\../misc/lv_color.h ****                                                                  lv_color_t fg_color, lv_opa_t fg_o
 526:..\..\..\arduinoLCD\test\Pain Drain\libraries\lvgl\src\draw\../misc/lv_color.h ****                                                                  lv_color_t * res_color, lv_opa_t *
 527:..\..\..\arduinoLCD\test\Pain Drain\libraries\lvgl\src\draw\../misc/lv_color.h **** {
 528:..\..\..\arduinoLCD\test\Pain Drain\libraries\lvgl\src\draw\../misc/lv_color.h ****     /*Pick the foreground if it's fully opaque or the Background is fully transparent*/
 529:..\..\..\arduinoLCD\test\Pain Drain\libraries\lvgl\src\draw\../misc/lv_color.h ****     if(fg_opa >= LV_OPA_MAX || bg_opa <= LV_OPA_MIN) {
 530:..\..\..\arduinoLCD\test\Pain Drain\libraries\lvgl\src\draw\../misc/lv_color.h ****         res_color->full = fg_color.full;
 531:..\..\..\arduinoLCD\test\Pain Drain\libraries\lvgl\src\draw\../misc/lv_color.h ****         *res_opa = fg_opa;
 532:..\..\..\arduinoLCD\test\Pain Drain\libraries\lvgl\src\draw\../misc/lv_color.h ****     }
 533:..\..\..\arduinoLCD\test\Pain Drain\libraries\lvgl\src\draw\../misc/lv_color.h ****     /*Transparent foreground: use the Background*/
 534:..\..\..\arduinoLCD\test\Pain Drain\libraries\lvgl\src\draw\../misc/lv_color.h ****     else if(fg_opa <= LV_OPA_MIN) {
 535:..\..\..\arduinoLCD\test\Pain Drain\libraries\lvgl\src\draw\../misc/lv_color.h ****         res_color->full = bg_color.full;
 536:..\..\..\arduinoLCD\test\Pain Drain\libraries\lvgl\src\draw\../misc/lv_color.h ****         *res_opa = bg_opa;
 537:..\..\..\arduinoLCD\test\Pain Drain\libraries\lvgl\src\draw\../misc/lv_color.h ****     }
 538:..\..\..\arduinoLCD\test\Pain Drain\libraries\lvgl\src\draw\../misc/lv_color.h ****     /*Opaque background: use simple mix*/
 539:..\..\..\arduinoLCD\test\Pain Drain\libraries\lvgl\src\draw\../misc/lv_color.h ****     else if(bg_opa >= LV_OPA_MAX) {
 540:..\..\..\arduinoLCD\test\Pain Drain\libraries\lvgl\src\draw\../misc/lv_color.h ****         *res_color = lv_color_mix(fg_color, bg_color, fg_opa);
 541:..\..\..\arduinoLCD\test\Pain Drain\libraries\lvgl\src\draw\../misc/lv_color.h ****         *res_opa = LV_OPA_COVER;
 542:..\..\..\arduinoLCD\test\Pain Drain\libraries\lvgl\src\draw\../misc/lv_color.h ****     }
 543:..\..\..\arduinoLCD\test\Pain Drain\libraries\lvgl\src\draw\../misc/lv_color.h ****     /*Both colors have alpha. Expensive calculation need to be applied*/
ARM GAS  C:\Users\haske\AppData\Local\Temp\ccAIaoAy.s 			page 12


 544:..\..\..\arduinoLCD\test\Pain Drain\libraries\lvgl\src\draw\../misc/lv_color.h ****     else {
 545:..\..\..\arduinoLCD\test\Pain Drain\libraries\lvgl\src\draw\../misc/lv_color.h ****         /*Save the parameters and the result. If they will be asked again don't compute again*/
 546:..\..\..\arduinoLCD\test\Pain Drain\libraries\lvgl\src\draw\../misc/lv_color.h ****         static lv_opa_t fg_opa_save     = 0;
 547:..\..\..\arduinoLCD\test\Pain Drain\libraries\lvgl\src\draw\../misc/lv_color.h ****         static lv_opa_t bg_opa_save     = 0;
 548:..\..\..\arduinoLCD\test\Pain Drain\libraries\lvgl\src\draw\../misc/lv_color.h ****         static lv_color_t fg_color_save = _LV_COLOR_ZERO_INITIALIZER;
 549:..\..\..\arduinoLCD\test\Pain Drain\libraries\lvgl\src\draw\../misc/lv_color.h ****         static lv_color_t bg_color_save = _LV_COLOR_ZERO_INITIALIZER;
 550:..\..\..\arduinoLCD\test\Pain Drain\libraries\lvgl\src\draw\../misc/lv_color.h ****         static lv_color_t res_color_saved = _LV_COLOR_ZERO_INITIALIZER;
 551:..\..\..\arduinoLCD\test\Pain Drain\libraries\lvgl\src\draw\../misc/lv_color.h ****         static lv_opa_t res_opa_saved = 0;
 552:..\..\..\arduinoLCD\test\Pain Drain\libraries\lvgl\src\draw\../misc/lv_color.h **** 
 553:..\..\..\arduinoLCD\test\Pain Drain\libraries\lvgl\src\draw\../misc/lv_color.h ****         if(fg_opa != fg_opa_save || bg_opa != bg_opa_save || fg_color.full != fg_color_save.full ||
 554:..\..\..\arduinoLCD\test\Pain Drain\libraries\lvgl\src\draw\../misc/lv_color.h ****            bg_color.full != bg_color_save.full) {
 555:..\..\..\arduinoLCD\test\Pain Drain\libraries\lvgl\src\draw\../misc/lv_color.h ****             fg_opa_save        = fg_opa;
 556:..\..\..\arduinoLCD\test\Pain Drain\libraries\lvgl\src\draw\../misc/lv_color.h ****             bg_opa_save        = bg_opa;
 557:..\..\..\arduinoLCD\test\Pain Drain\libraries\lvgl\src\draw\../misc/lv_color.h ****             fg_color_save.full = fg_color.full;
 558:..\..\..\arduinoLCD\test\Pain Drain\libraries\lvgl\src\draw\../misc/lv_color.h ****             bg_color_save.full = bg_color.full;
 559:..\..\..\arduinoLCD\test\Pain Drain\libraries\lvgl\src\draw\../misc/lv_color.h ****             /*Info:
 560:..\..\..\arduinoLCD\test\Pain Drain\libraries\lvgl\src\draw\../misc/lv_color.h ****              * https://en.wikipedia.org/wiki/Alpha_compositing#Analytical_derivation_of_the_over_op
 561:..\..\..\arduinoLCD\test\Pain Drain\libraries\lvgl\src\draw\../misc/lv_color.h ****             res_opa_saved = 255 - ((uint16_t)((uint16_t)(255 - fg_opa) * (255 - bg_opa)) >> 8);
 562:..\..\..\arduinoLCD\test\Pain Drain\libraries\lvgl\src\draw\../misc/lv_color.h ****             LV_ASSERT(res_opa_saved != 0);
 563:..\..\..\arduinoLCD\test\Pain Drain\libraries\lvgl\src\draw\../misc/lv_color.h ****             lv_opa_t ratio = (uint16_t)((uint16_t)fg_opa * 255) / res_opa_saved;
 564:..\..\..\arduinoLCD\test\Pain Drain\libraries\lvgl\src\draw\../misc/lv_color.h ****             res_color_saved = lv_color_mix(fg_color, bg_color, ratio);
 565:..\..\..\arduinoLCD\test\Pain Drain\libraries\lvgl\src\draw\../misc/lv_color.h **** 
 566:..\..\..\arduinoLCD\test\Pain Drain\libraries\lvgl\src\draw\../misc/lv_color.h ****         }
 567:..\..\..\arduinoLCD\test\Pain Drain\libraries\lvgl\src\draw\../misc/lv_color.h **** 
 568:..\..\..\arduinoLCD\test\Pain Drain\libraries\lvgl\src\draw\../misc/lv_color.h ****         res_color->full = res_color_saved.full;
 569:..\..\..\arduinoLCD\test\Pain Drain\libraries\lvgl\src\draw\../misc/lv_color.h ****         *res_opa = res_opa_saved;
 570:..\..\..\arduinoLCD\test\Pain Drain\libraries\lvgl\src\draw\../misc/lv_color.h ****     }
 571:..\..\..\arduinoLCD\test\Pain Drain\libraries\lvgl\src\draw\../misc/lv_color.h **** }
 572:..\..\..\arduinoLCD\test\Pain Drain\libraries\lvgl\src\draw\../misc/lv_color.h **** 
 573:..\..\..\arduinoLCD\test\Pain Drain\libraries\lvgl\src\draw\../misc/lv_color.h **** //! @endcond
 574:..\..\..\arduinoLCD\test\Pain Drain\libraries\lvgl\src\draw\../misc/lv_color.h **** 
 575:..\..\..\arduinoLCD\test\Pain Drain\libraries\lvgl\src\draw\../misc/lv_color.h **** /**
 576:..\..\..\arduinoLCD\test\Pain Drain\libraries\lvgl\src\draw\../misc/lv_color.h ****  * Get the brightness of a color
 577:..\..\..\arduinoLCD\test\Pain Drain\libraries\lvgl\src\draw\../misc/lv_color.h ****  * @param color a color
 578:..\..\..\arduinoLCD\test\Pain Drain\libraries\lvgl\src\draw\../misc/lv_color.h ****  * @return the brightness [0..255]
 579:..\..\..\arduinoLCD\test\Pain Drain\libraries\lvgl\src\draw\../misc/lv_color.h ****  */
 580:..\..\..\arduinoLCD\test\Pain Drain\libraries\lvgl\src\draw\../misc/lv_color.h **** static inline uint8_t lv_color_brightness(lv_color_t color)
 581:..\..\..\arduinoLCD\test\Pain Drain\libraries\lvgl\src\draw\../misc/lv_color.h **** {
 582:..\..\..\arduinoLCD\test\Pain Drain\libraries\lvgl\src\draw\../misc/lv_color.h ****     lv_color32_t c32;
 583:..\..\..\arduinoLCD\test\Pain Drain\libraries\lvgl\src\draw\../misc/lv_color.h ****     c32.full        = lv_color_to32(color);
 584:..\..\..\arduinoLCD\test\Pain Drain\libraries\lvgl\src\draw\../misc/lv_color.h ****     uint16_t bright = (uint16_t)(3u * LV_COLOR_GET_R32(c32) + LV_COLOR_GET_B32(c32) + 4u * LV_COLOR
 585:..\..\..\arduinoLCD\test\Pain Drain\libraries\lvgl\src\draw\../misc/lv_color.h ****     return (uint8_t)(bright >> 3);
 586:..\..\..\arduinoLCD\test\Pain Drain\libraries\lvgl\src\draw\../misc/lv_color.h **** }
 587:..\..\..\arduinoLCD\test\Pain Drain\libraries\lvgl\src\draw\../misc/lv_color.h **** 
 588:..\..\..\arduinoLCD\test\Pain Drain\libraries\lvgl\src\draw\../misc/lv_color.h **** static inline lv_color_t lv_color_make(uint8_t r, uint8_t g, uint8_t b)
 589:..\..\..\arduinoLCD\test\Pain Drain\libraries\lvgl\src\draw\../misc/lv_color.h **** {
 590:..\..\..\arduinoLCD\test\Pain Drain\libraries\lvgl\src\draw\../misc/lv_color.h ****     return _LV_COLOR_MAKE_TYPE_HELPER LV_COLOR_MAKE(r, g, b);
  46              		.loc 2 590 0
  47 000a 1F23     		movs	r3, #31
  48 000c FC20     		movs	r0, #252
  49 000e C000     		lsls	r0, r0, #3
  50 0010 0200     		movs	r2, r0
  51 0012 1A43     		orrs	r2, r3
  52 0014 0F49     		ldr	r1, .L2
  53 0016 0A43     		orrs	r2, r1
  54              	.LVL2:
  55              	.LBE32:
ARM GAS  C:\Users\haske\AppData\Local\Temp\ccAIaoAy.s 			page 13


  56              	.LBE31:
  57              	.LBE30:
  40:..\..\..\arduinoLCD\test\Pain Drain\libraries\lvgl\src\draw/lv_draw_rect.c ****     dsc->bg_color = lv_color_white();
  58              		.loc 1 40 0
  59 0018 A280     		strh	r2, [r4, #4]
  60              	.LVL3:
  41:..\..\..\arduinoLCD\test\Pain Drain\libraries\lvgl\src\draw/lv_draw_rect.c ****     dsc->bg_grad.stops[0].color = lv_color_white();
  61              		.loc 1 41 0
  62 001a E280     		strh	r2, [r4, #6]
  63              	.LVL4:
  64              	.LBB33:
  65              	.LBB34:
  66              	.LBB35:
  67              		.loc 2 590 0
  68 001c 0023     		movs	r3, #0
  69              	.LVL5:
  70              	.LBE35:
  71              	.LBE34:
  72              	.LBE33:
  42:..\..\..\arduinoLCD\test\Pain Drain\libraries\lvgl\src\draw/lv_draw_rect.c ****     dsc->bg_grad.stops[1].color = lv_color_black();
  73              		.loc 1 42 0
  74 001e 6381     		strh	r3, [r4, #10]
  43:..\..\..\arduinoLCD\test\Pain Drain\libraries\lvgl\src\draw/lv_draw_rect.c ****     dsc->bg_grad.stops[1].frac = 0xFF;
  75              		.loc 1 43 0
  76 0020 FF33     		adds	r3, r3, #255
  77 0022 2373     		strb	r3, [r4, #12]
  44:..\..\..\arduinoLCD\test\Pain Drain\libraries\lvgl\src\draw/lv_draw_rect.c ****     dsc->bg_grad.stops_count = 2;
  78              		.loc 1 44 0
  79 0024 0222     		movs	r2, #2
  80 0026 A273     		strb	r2, [r4, #14]
  81              	.LVL6:
  82              	.LBB36:
  83              	.LBB37:
  84              	.LBB38:
  85              		.loc 2 590 0
  86 0028 0022     		movs	r2, #0
  87              	.LVL7:
  88              	.LBE38:
  89              	.LBE37:
  90              	.LBE36:
  45:..\..\..\arduinoLCD\test\Pain Drain\libraries\lvgl\src\draw/lv_draw_rect.c ****     dsc->border_color = lv_color_black();
  91              		.loc 1 45 0
  92 002a E283     		strh	r2, [r4, #30]
  93              	.LVL8:
  46:..\..\..\arduinoLCD\test\Pain Drain\libraries\lvgl\src\draw/lv_draw_rect.c ****     dsc->shadow_color = lv_color_black();
  94              		.loc 1 46 0
  95 002c A285     		strh	r2, [r4, #44]
  47:..\..\..\arduinoLCD\test\Pain Drain\libraries\lvgl\src\draw/lv_draw_rect.c ****     dsc->bg_img_symbol_font = LV_FONT_DEFAULT;
  96              		.loc 1 47 0
  97 002e 0A4A     		ldr	r2, .L2+4
  98 0030 6261     		str	r2, [r4, #20]
  48:..\..\..\arduinoLCD\test\Pain Drain\libraries\lvgl\src\draw/lv_draw_rect.c ****     dsc->bg_opa = LV_OPA_COVER;
  99              		.loc 1 48 0
 100 0032 E370     		strb	r3, [r4, #3]
  49:..\..\..\arduinoLCD\test\Pain Drain\libraries\lvgl\src\draw/lv_draw_rect.c ****     dsc->bg_img_opa = LV_OPA_COVER;
 101              		.loc 1 49 0
 102 0034 A376     		strb	r3, [r4, #26]
ARM GAS  C:\Users\haske\AppData\Local\Temp\ccAIaoAy.s 			page 14


  50:..\..\..\arduinoLCD\test\Pain Drain\libraries\lvgl\src\draw/lv_draw_rect.c ****     dsc->outline_opa = LV_OPA_COVER;
 103              		.loc 1 50 0
 104 0036 2A22     		movs	r2, #42
 105 0038 A354     		strb	r3, [r4, r2]
  51:..\..\..\arduinoLCD\test\Pain Drain\libraries\lvgl\src\draw/lv_draw_rect.c ****     dsc->border_opa = LV_OPA_COVER;
 106              		.loc 1 51 0
 107 003a 083A     		subs	r2, r2, #8
 108 003c A354     		strb	r3, [r4, r2]
  52:..\..\..\arduinoLCD\test\Pain Drain\libraries\lvgl\src\draw/lv_draw_rect.c ****     dsc->shadow_opa = LV_OPA_COVER;
 109              		.loc 1 52 0
 110 003e 1432     		adds	r2, r2, #20
 111 0040 A354     		strb	r3, [r4, r2]
  53:..\..\..\arduinoLCD\test\Pain Drain\libraries\lvgl\src\draw/lv_draw_rect.c ****     dsc->border_side = LV_BORDER_SIDE_FULL;
 112              		.loc 1 53 0
 113 0042 2321     		movs	r1, #35
 114 0044 635C     		ldrb	r3, [r4, r1]
 115 0046 0832     		adds	r2, r2, #8
 116 0048 9343     		bics	r3, r2
 117 004a 1E22     		movs	r2, #30
 118 004c 1343     		orrs	r3, r2
 119 004e 6354     		strb	r3, [r4, r1]
  54:..\..\..\arduinoLCD\test\Pain Drain\libraries\lvgl\src\draw/lv_draw_rect.c **** }
 120              		.loc 1 54 0
 121              		@ sp needed
 122              	.LVL9:
 123 0050 10BD     		pop	{r4, pc}
 124              	.L3:
 125 0052 C046     		.align	2
 126              	.L2:
 127 0054 00F8FFFF 		.word	-2048
 128 0058 00000000 		.word	lv_font_montserrat_14
 129              		.cfi_endproc
 130              	.LFE55:
 131              		.size	lv_draw_rect_dsc_init, .-lv_draw_rect_dsc_init
 132              		.section	.text.lv_draw_rect,"ax",%progbits
 133              		.align	2
 134              		.global	lv_draw_rect
 135              		.code	16
 136              		.thumb_func
 137              		.type	lv_draw_rect, %function
 138              	lv_draw_rect:
 139              	.LFB56:
  55:..\..\..\arduinoLCD\test\Pain Drain\libraries\lvgl\src\draw/lv_draw_rect.c **** 
  56:..\..\..\arduinoLCD\test\Pain Drain\libraries\lvgl\src\draw/lv_draw_rect.c **** /**
  57:..\..\..\arduinoLCD\test\Pain Drain\libraries\lvgl\src\draw/lv_draw_rect.c ****  * Draw a rectangle
  58:..\..\..\arduinoLCD\test\Pain Drain\libraries\lvgl\src\draw/lv_draw_rect.c ****  * @param coords the coordinates of the rectangle
  59:..\..\..\arduinoLCD\test\Pain Drain\libraries\lvgl\src\draw/lv_draw_rect.c ****  * @param mask the rectangle will be drawn only in this mask
  60:..\..\..\arduinoLCD\test\Pain Drain\libraries\lvgl\src\draw/lv_draw_rect.c ****  * @param dsc pointer to an initialized `lv_draw_rect_dsc_t` variable
  61:..\..\..\arduinoLCD\test\Pain Drain\libraries\lvgl\src\draw/lv_draw_rect.c ****  */
  62:..\..\..\arduinoLCD\test\Pain Drain\libraries\lvgl\src\draw/lv_draw_rect.c **** void lv_draw_rect(lv_draw_ctx_t * draw_ctx, const lv_draw_rect_dsc_t * dsc, const lv_area_t * coord
  63:..\..\..\arduinoLCD\test\Pain Drain\libraries\lvgl\src\draw/lv_draw_rect.c **** {
 140              		.loc 1 63 0
 141              		.cfi_startproc
 142              		@ args = 0, pretend = 0, frame = 0
 143              		@ frame_needed = 0, uses_anonymous_args = 0
 144              	.LVL10:
 145 0000 70B5     		push	{r4, r5, r6, lr}
ARM GAS  C:\Users\haske\AppData\Local\Temp\ccAIaoAy.s 			page 15


 146              		.cfi_def_cfa_offset 16
 147              		.cfi_offset 4, -16
 148              		.cfi_offset 5, -12
 149              		.cfi_offset 6, -8
 150              		.cfi_offset 14, -4
 151              	.LVL11:
 152              	.LBB39:
 153              	.LBB40:
 154              		.file 3 "c:\\projects\\paindrain\\arduinolcd\\test\\pain drain\\libraries\\lvgl\\src\\misc\\lv_are
   1:c:\projects\paindrain\arduinolcd\test\pain drain\libraries\lvgl\src\misc\lv_area.h **** /**
   2:c:\projects\paindrain\arduinolcd\test\pain drain\libraries\lvgl\src\misc\lv_area.h ****  * @file lv_area.h
   3:c:\projects\paindrain\arduinolcd\test\pain drain\libraries\lvgl\src\misc\lv_area.h ****  *
   4:c:\projects\paindrain\arduinolcd\test\pain drain\libraries\lvgl\src\misc\lv_area.h ****  */
   5:c:\projects\paindrain\arduinolcd\test\pain drain\libraries\lvgl\src\misc\lv_area.h **** 
   6:c:\projects\paindrain\arduinolcd\test\pain drain\libraries\lvgl\src\misc\lv_area.h **** #ifndef LV_AREA_H
   7:c:\projects\paindrain\arduinolcd\test\pain drain\libraries\lvgl\src\misc\lv_area.h **** #define LV_AREA_H
   8:c:\projects\paindrain\arduinolcd\test\pain drain\libraries\lvgl\src\misc\lv_area.h **** 
   9:c:\projects\paindrain\arduinolcd\test\pain drain\libraries\lvgl\src\misc\lv_area.h **** #ifdef __cplusplus
  10:c:\projects\paindrain\arduinolcd\test\pain drain\libraries\lvgl\src\misc\lv_area.h **** extern "C" {
  11:c:\projects\paindrain\arduinolcd\test\pain drain\libraries\lvgl\src\misc\lv_area.h **** #endif
  12:c:\projects\paindrain\arduinolcd\test\pain drain\libraries\lvgl\src\misc\lv_area.h **** 
  13:c:\projects\paindrain\arduinolcd\test\pain drain\libraries\lvgl\src\misc\lv_area.h **** /*********************
  14:c:\projects\paindrain\arduinolcd\test\pain drain\libraries\lvgl\src\misc\lv_area.h ****  *      INCLUDES
  15:c:\projects\paindrain\arduinolcd\test\pain drain\libraries\lvgl\src\misc\lv_area.h ****  *********************/
  16:c:\projects\paindrain\arduinolcd\test\pain drain\libraries\lvgl\src\misc\lv_area.h **** #include "../lv_conf_internal.h"
  17:c:\projects\paindrain\arduinolcd\test\pain drain\libraries\lvgl\src\misc\lv_area.h **** #include <stdbool.h>
  18:c:\projects\paindrain\arduinolcd\test\pain drain\libraries\lvgl\src\misc\lv_area.h **** #include <stdint.h>
  19:c:\projects\paindrain\arduinolcd\test\pain drain\libraries\lvgl\src\misc\lv_area.h **** 
  20:c:\projects\paindrain\arduinolcd\test\pain drain\libraries\lvgl\src\misc\lv_area.h **** /*********************
  21:c:\projects\paindrain\arduinolcd\test\pain drain\libraries\lvgl\src\misc\lv_area.h ****  *      DEFINES
  22:c:\projects\paindrain\arduinolcd\test\pain drain\libraries\lvgl\src\misc\lv_area.h ****  *********************/
  23:c:\projects\paindrain\arduinolcd\test\pain drain\libraries\lvgl\src\misc\lv_area.h **** 
  24:c:\projects\paindrain\arduinolcd\test\pain drain\libraries\lvgl\src\misc\lv_area.h **** #if LV_USE_LARGE_COORD
  25:c:\projects\paindrain\arduinolcd\test\pain drain\libraries\lvgl\src\misc\lv_area.h **** typedef int32_t lv_coord_t;
  26:c:\projects\paindrain\arduinolcd\test\pain drain\libraries\lvgl\src\misc\lv_area.h **** #else
  27:c:\projects\paindrain\arduinolcd\test\pain drain\libraries\lvgl\src\misc\lv_area.h **** typedef int16_t lv_coord_t;
  28:c:\projects\paindrain\arduinolcd\test\pain drain\libraries\lvgl\src\misc\lv_area.h **** #endif
  29:c:\projects\paindrain\arduinolcd\test\pain drain\libraries\lvgl\src\misc\lv_area.h **** 
  30:c:\projects\paindrain\arduinolcd\test\pain drain\libraries\lvgl\src\misc\lv_area.h **** /**********************
  31:c:\projects\paindrain\arduinolcd\test\pain drain\libraries\lvgl\src\misc\lv_area.h ****  *      TYPEDEFS
  32:c:\projects\paindrain\arduinolcd\test\pain drain\libraries\lvgl\src\misc\lv_area.h ****  **********************/
  33:c:\projects\paindrain\arduinolcd\test\pain drain\libraries\lvgl\src\misc\lv_area.h **** 
  34:c:\projects\paindrain\arduinolcd\test\pain drain\libraries\lvgl\src\misc\lv_area.h **** /**
  35:c:\projects\paindrain\arduinolcd\test\pain drain\libraries\lvgl\src\misc\lv_area.h ****  * Represents a point on the screen.
  36:c:\projects\paindrain\arduinolcd\test\pain drain\libraries\lvgl\src\misc\lv_area.h ****  */
  37:c:\projects\paindrain\arduinolcd\test\pain drain\libraries\lvgl\src\misc\lv_area.h **** typedef struct {
  38:c:\projects\paindrain\arduinolcd\test\pain drain\libraries\lvgl\src\misc\lv_area.h ****     lv_coord_t x;
  39:c:\projects\paindrain\arduinolcd\test\pain drain\libraries\lvgl\src\misc\lv_area.h ****     lv_coord_t y;
  40:c:\projects\paindrain\arduinolcd\test\pain drain\libraries\lvgl\src\misc\lv_area.h **** } lv_point_t;
  41:c:\projects\paindrain\arduinolcd\test\pain drain\libraries\lvgl\src\misc\lv_area.h **** 
  42:c:\projects\paindrain\arduinolcd\test\pain drain\libraries\lvgl\src\misc\lv_area.h **** /** Represents an area of the screen.*/
  43:c:\projects\paindrain\arduinolcd\test\pain drain\libraries\lvgl\src\misc\lv_area.h **** typedef struct {
  44:c:\projects\paindrain\arduinolcd\test\pain drain\libraries\lvgl\src\misc\lv_area.h ****     lv_coord_t x1;
  45:c:\projects\paindrain\arduinolcd\test\pain drain\libraries\lvgl\src\misc\lv_area.h ****     lv_coord_t y1;
  46:c:\projects\paindrain\arduinolcd\test\pain drain\libraries\lvgl\src\misc\lv_area.h ****     lv_coord_t x2;
  47:c:\projects\paindrain\arduinolcd\test\pain drain\libraries\lvgl\src\misc\lv_area.h ****     lv_coord_t y2;
  48:c:\projects\paindrain\arduinolcd\test\pain drain\libraries\lvgl\src\misc\lv_area.h **** } lv_area_t;
ARM GAS  C:\Users\haske\AppData\Local\Temp\ccAIaoAy.s 			page 16


  49:c:\projects\paindrain\arduinolcd\test\pain drain\libraries\lvgl\src\misc\lv_area.h **** 
  50:c:\projects\paindrain\arduinolcd\test\pain drain\libraries\lvgl\src\misc\lv_area.h **** /** Alignments*/
  51:c:\projects\paindrain\arduinolcd\test\pain drain\libraries\lvgl\src\misc\lv_area.h **** enum {
  52:c:\projects\paindrain\arduinolcd\test\pain drain\libraries\lvgl\src\misc\lv_area.h ****     LV_ALIGN_DEFAULT = 0,
  53:c:\projects\paindrain\arduinolcd\test\pain drain\libraries\lvgl\src\misc\lv_area.h ****     LV_ALIGN_TOP_LEFT,
  54:c:\projects\paindrain\arduinolcd\test\pain drain\libraries\lvgl\src\misc\lv_area.h ****     LV_ALIGN_TOP_MID,
  55:c:\projects\paindrain\arduinolcd\test\pain drain\libraries\lvgl\src\misc\lv_area.h ****     LV_ALIGN_TOP_RIGHT,
  56:c:\projects\paindrain\arduinolcd\test\pain drain\libraries\lvgl\src\misc\lv_area.h ****     LV_ALIGN_BOTTOM_LEFT,
  57:c:\projects\paindrain\arduinolcd\test\pain drain\libraries\lvgl\src\misc\lv_area.h ****     LV_ALIGN_BOTTOM_MID,
  58:c:\projects\paindrain\arduinolcd\test\pain drain\libraries\lvgl\src\misc\lv_area.h ****     LV_ALIGN_BOTTOM_RIGHT,
  59:c:\projects\paindrain\arduinolcd\test\pain drain\libraries\lvgl\src\misc\lv_area.h ****     LV_ALIGN_LEFT_MID,
  60:c:\projects\paindrain\arduinolcd\test\pain drain\libraries\lvgl\src\misc\lv_area.h ****     LV_ALIGN_RIGHT_MID,
  61:c:\projects\paindrain\arduinolcd\test\pain drain\libraries\lvgl\src\misc\lv_area.h ****     LV_ALIGN_CENTER,
  62:c:\projects\paindrain\arduinolcd\test\pain drain\libraries\lvgl\src\misc\lv_area.h **** 
  63:c:\projects\paindrain\arduinolcd\test\pain drain\libraries\lvgl\src\misc\lv_area.h ****     LV_ALIGN_OUT_TOP_LEFT,
  64:c:\projects\paindrain\arduinolcd\test\pain drain\libraries\lvgl\src\misc\lv_area.h ****     LV_ALIGN_OUT_TOP_MID,
  65:c:\projects\paindrain\arduinolcd\test\pain drain\libraries\lvgl\src\misc\lv_area.h ****     LV_ALIGN_OUT_TOP_RIGHT,
  66:c:\projects\paindrain\arduinolcd\test\pain drain\libraries\lvgl\src\misc\lv_area.h ****     LV_ALIGN_OUT_BOTTOM_LEFT,
  67:c:\projects\paindrain\arduinolcd\test\pain drain\libraries\lvgl\src\misc\lv_area.h ****     LV_ALIGN_OUT_BOTTOM_MID,
  68:c:\projects\paindrain\arduinolcd\test\pain drain\libraries\lvgl\src\misc\lv_area.h ****     LV_ALIGN_OUT_BOTTOM_RIGHT,
  69:c:\projects\paindrain\arduinolcd\test\pain drain\libraries\lvgl\src\misc\lv_area.h ****     LV_ALIGN_OUT_LEFT_TOP,
  70:c:\projects\paindrain\arduinolcd\test\pain drain\libraries\lvgl\src\misc\lv_area.h ****     LV_ALIGN_OUT_LEFT_MID,
  71:c:\projects\paindrain\arduinolcd\test\pain drain\libraries\lvgl\src\misc\lv_area.h ****     LV_ALIGN_OUT_LEFT_BOTTOM,
  72:c:\projects\paindrain\arduinolcd\test\pain drain\libraries\lvgl\src\misc\lv_area.h ****     LV_ALIGN_OUT_RIGHT_TOP,
  73:c:\projects\paindrain\arduinolcd\test\pain drain\libraries\lvgl\src\misc\lv_area.h ****     LV_ALIGN_OUT_RIGHT_MID,
  74:c:\projects\paindrain\arduinolcd\test\pain drain\libraries\lvgl\src\misc\lv_area.h ****     LV_ALIGN_OUT_RIGHT_BOTTOM,
  75:c:\projects\paindrain\arduinolcd\test\pain drain\libraries\lvgl\src\misc\lv_area.h **** };
  76:c:\projects\paindrain\arduinolcd\test\pain drain\libraries\lvgl\src\misc\lv_area.h **** typedef uint8_t lv_align_t;
  77:c:\projects\paindrain\arduinolcd\test\pain drain\libraries\lvgl\src\misc\lv_area.h **** 
  78:c:\projects\paindrain\arduinolcd\test\pain drain\libraries\lvgl\src\misc\lv_area.h **** enum {
  79:c:\projects\paindrain\arduinolcd\test\pain drain\libraries\lvgl\src\misc\lv_area.h ****     LV_DIR_NONE     = 0x00,
  80:c:\projects\paindrain\arduinolcd\test\pain drain\libraries\lvgl\src\misc\lv_area.h ****     LV_DIR_LEFT     = (1 << 0),
  81:c:\projects\paindrain\arduinolcd\test\pain drain\libraries\lvgl\src\misc\lv_area.h ****     LV_DIR_RIGHT    = (1 << 1),
  82:c:\projects\paindrain\arduinolcd\test\pain drain\libraries\lvgl\src\misc\lv_area.h ****     LV_DIR_TOP      = (1 << 2),
  83:c:\projects\paindrain\arduinolcd\test\pain drain\libraries\lvgl\src\misc\lv_area.h ****     LV_DIR_BOTTOM   = (1 << 3),
  84:c:\projects\paindrain\arduinolcd\test\pain drain\libraries\lvgl\src\misc\lv_area.h ****     LV_DIR_HOR      = LV_DIR_LEFT | LV_DIR_RIGHT,
  85:c:\projects\paindrain\arduinolcd\test\pain drain\libraries\lvgl\src\misc\lv_area.h ****     LV_DIR_VER      = LV_DIR_TOP | LV_DIR_BOTTOM,
  86:c:\projects\paindrain\arduinolcd\test\pain drain\libraries\lvgl\src\misc\lv_area.h ****     LV_DIR_ALL      = LV_DIR_HOR | LV_DIR_VER,
  87:c:\projects\paindrain\arduinolcd\test\pain drain\libraries\lvgl\src\misc\lv_area.h **** };
  88:c:\projects\paindrain\arduinolcd\test\pain drain\libraries\lvgl\src\misc\lv_area.h **** 
  89:c:\projects\paindrain\arduinolcd\test\pain drain\libraries\lvgl\src\misc\lv_area.h **** typedef uint8_t lv_dir_t;
  90:c:\projects\paindrain\arduinolcd\test\pain drain\libraries\lvgl\src\misc\lv_area.h **** 
  91:c:\projects\paindrain\arduinolcd\test\pain drain\libraries\lvgl\src\misc\lv_area.h **** /**********************
  92:c:\projects\paindrain\arduinolcd\test\pain drain\libraries\lvgl\src\misc\lv_area.h ****  * GLOBAL PROTOTYPES
  93:c:\projects\paindrain\arduinolcd\test\pain drain\libraries\lvgl\src\misc\lv_area.h ****  **********************/
  94:c:\projects\paindrain\arduinolcd\test\pain drain\libraries\lvgl\src\misc\lv_area.h **** 
  95:c:\projects\paindrain\arduinolcd\test\pain drain\libraries\lvgl\src\misc\lv_area.h **** /**
  96:c:\projects\paindrain\arduinolcd\test\pain drain\libraries\lvgl\src\misc\lv_area.h ****  * Initialize an area
  97:c:\projects\paindrain\arduinolcd\test\pain drain\libraries\lvgl\src\misc\lv_area.h ****  * @param area_p pointer to an area
  98:c:\projects\paindrain\arduinolcd\test\pain drain\libraries\lvgl\src\misc\lv_area.h ****  * @param x1 left coordinate of the area
  99:c:\projects\paindrain\arduinolcd\test\pain drain\libraries\lvgl\src\misc\lv_area.h ****  * @param y1 top coordinate of the area
 100:c:\projects\paindrain\arduinolcd\test\pain drain\libraries\lvgl\src\misc\lv_area.h ****  * @param x2 right coordinate of the area
 101:c:\projects\paindrain\arduinolcd\test\pain drain\libraries\lvgl\src\misc\lv_area.h ****  * @param y2 bottom coordinate of the area
 102:c:\projects\paindrain\arduinolcd\test\pain drain\libraries\lvgl\src\misc\lv_area.h ****  */
 103:c:\projects\paindrain\arduinolcd\test\pain drain\libraries\lvgl\src\misc\lv_area.h **** void lv_area_set(lv_area_t * area_p, lv_coord_t x1, lv_coord_t y1, lv_coord_t x2, lv_coord_t y2);
 104:c:\projects\paindrain\arduinolcd\test\pain drain\libraries\lvgl\src\misc\lv_area.h **** 
 105:c:\projects\paindrain\arduinolcd\test\pain drain\libraries\lvgl\src\misc\lv_area.h **** /**
ARM GAS  C:\Users\haske\AppData\Local\Temp\ccAIaoAy.s 			page 17


 106:c:\projects\paindrain\arduinolcd\test\pain drain\libraries\lvgl\src\misc\lv_area.h ****  * Copy an area
 107:c:\projects\paindrain\arduinolcd\test\pain drain\libraries\lvgl\src\misc\lv_area.h ****  * @param dest pointer to the destination area
 108:c:\projects\paindrain\arduinolcd\test\pain drain\libraries\lvgl\src\misc\lv_area.h ****  * @param src pointer to the source area
 109:c:\projects\paindrain\arduinolcd\test\pain drain\libraries\lvgl\src\misc\lv_area.h ****  */
 110:c:\projects\paindrain\arduinolcd\test\pain drain\libraries\lvgl\src\misc\lv_area.h **** inline static void lv_area_copy(lv_area_t * dest, const lv_area_t * src)
 111:c:\projects\paindrain\arduinolcd\test\pain drain\libraries\lvgl\src\misc\lv_area.h **** {
 112:c:\projects\paindrain\arduinolcd\test\pain drain\libraries\lvgl\src\misc\lv_area.h ****     dest->x1 = src->x1;
 113:c:\projects\paindrain\arduinolcd\test\pain drain\libraries\lvgl\src\misc\lv_area.h ****     dest->y1 = src->y1;
 114:c:\projects\paindrain\arduinolcd\test\pain drain\libraries\lvgl\src\misc\lv_area.h ****     dest->x2 = src->x2;
 115:c:\projects\paindrain\arduinolcd\test\pain drain\libraries\lvgl\src\misc\lv_area.h ****     dest->y2 = src->y2;
 116:c:\projects\paindrain\arduinolcd\test\pain drain\libraries\lvgl\src\misc\lv_area.h **** }
 117:c:\projects\paindrain\arduinolcd\test\pain drain\libraries\lvgl\src\misc\lv_area.h **** 
 118:c:\projects\paindrain\arduinolcd\test\pain drain\libraries\lvgl\src\misc\lv_area.h **** /**
 119:c:\projects\paindrain\arduinolcd\test\pain drain\libraries\lvgl\src\misc\lv_area.h ****  * Get the width of an area
 120:c:\projects\paindrain\arduinolcd\test\pain drain\libraries\lvgl\src\misc\lv_area.h ****  * @param area_p pointer to an area
 121:c:\projects\paindrain\arduinolcd\test\pain drain\libraries\lvgl\src\misc\lv_area.h ****  * @return the width of the area (if x1 == x2 -> width = 1)
 122:c:\projects\paindrain\arduinolcd\test\pain drain\libraries\lvgl\src\misc\lv_area.h ****  */
 123:c:\projects\paindrain\arduinolcd\test\pain drain\libraries\lvgl\src\misc\lv_area.h **** static inline lv_coord_t lv_area_get_width(const lv_area_t * area_p)
 124:c:\projects\paindrain\arduinolcd\test\pain drain\libraries\lvgl\src\misc\lv_area.h **** {
 125:c:\projects\paindrain\arduinolcd\test\pain drain\libraries\lvgl\src\misc\lv_area.h ****     return (lv_coord_t)(area_p->x2 - area_p->x1 + 1);
 126:c:\projects\paindrain\arduinolcd\test\pain drain\libraries\lvgl\src\misc\lv_area.h **** }
 127:c:\projects\paindrain\arduinolcd\test\pain drain\libraries\lvgl\src\misc\lv_area.h **** 
 128:c:\projects\paindrain\arduinolcd\test\pain drain\libraries\lvgl\src\misc\lv_area.h **** /**
 129:c:\projects\paindrain\arduinolcd\test\pain drain\libraries\lvgl\src\misc\lv_area.h ****  * Get the height of an area
 130:c:\projects\paindrain\arduinolcd\test\pain drain\libraries\lvgl\src\misc\lv_area.h ****  * @param area_p pointer to an area
 131:c:\projects\paindrain\arduinolcd\test\pain drain\libraries\lvgl\src\misc\lv_area.h ****  * @return the height of the area (if y1 == y2 -> height = 1)
 132:c:\projects\paindrain\arduinolcd\test\pain drain\libraries\lvgl\src\misc\lv_area.h ****  */
 133:c:\projects\paindrain\arduinolcd\test\pain drain\libraries\lvgl\src\misc\lv_area.h **** static inline lv_coord_t lv_area_get_height(const lv_area_t * area_p)
 134:c:\projects\paindrain\arduinolcd\test\pain drain\libraries\lvgl\src\misc\lv_area.h **** {
 135:c:\projects\paindrain\arduinolcd\test\pain drain\libraries\lvgl\src\misc\lv_area.h ****     return (lv_coord_t)(area_p->y2 - area_p->y1 + 1);
 155              		.loc 3 135 0
 156 0002 0624     		movs	r4, #6
 157 0004 135F     		ldrsh	r3, [r2, r4]
 158 0006 0225     		movs	r5, #2
 159 0008 545F     		ldrsh	r4, [r2, r5]
 160 000a 1B1B     		subs	r3, r3, r4
 161 000c 0133     		adds	r3, r3, #1
 162 000e 1BB2     		sxth	r3, r3
 163              	.LVL12:
 164              	.LBE40:
 165              	.LBE39:
  64:..\..\..\arduinoLCD\test\Pain Drain\libraries\lvgl\src\draw/lv_draw_rect.c ****     if(lv_area_get_height(coords) < 1 || lv_area_get_width(coords) < 1) return;
 166              		.loc 1 64 0
 167 0010 002B     		cmp	r3, #0
 168 0012 0ADD     		ble	.L4
 169              	.LVL13:
 170              	.LBB41:
 171              	.LBB42:
 125:c:\projects\paindrain\arduinolcd\test\pain drain\libraries\lvgl\src\misc\lv_area.h **** }
 172              		.loc 3 125 0
 173 0014 0424     		movs	r4, #4
 174 0016 135F     		ldrsh	r3, [r2, r4]
 175 0018 0025     		movs	r5, #0
 176 001a 545F     		ldrsh	r4, [r2, r5]
 177 001c 1B1B     		subs	r3, r3, r4
 178 001e 0133     		adds	r3, r3, #1
 179 0020 1BB2     		sxth	r3, r3
ARM GAS  C:\Users\haske\AppData\Local\Temp\ccAIaoAy.s 			page 18


 180              	.LVL14:
 181              	.LBE42:
 182              	.LBE41:
 183              		.loc 1 64 0
 184 0022 002B     		cmp	r3, #0
 185 0024 01DD     		ble	.L4
  65:..\..\..\arduinoLCD\test\Pain Drain\libraries\lvgl\src\draw/lv_draw_rect.c **** 
  66:..\..\..\arduinoLCD\test\Pain Drain\libraries\lvgl\src\draw/lv_draw_rect.c ****     draw_ctx->draw_rect(draw_ctx, dsc, coords);
 186              		.loc 1 66 0
 187 0026 0369     		ldr	r3, [r0, #16]
 188 0028 9847     		blx	r3
 189              	.LVL15:
 190              	.L4:
  67:..\..\..\arduinoLCD\test\Pain Drain\libraries\lvgl\src\draw/lv_draw_rect.c **** 
  68:..\..\..\arduinoLCD\test\Pain Drain\libraries\lvgl\src\draw/lv_draw_rect.c ****     LV_ASSERT_MEM_INTEGRITY();
  69:..\..\..\arduinoLCD\test\Pain Drain\libraries\lvgl\src\draw/lv_draw_rect.c **** }
 191              		.loc 1 69 0
 192              		@ sp needed
 193 002a 70BD     		pop	{r4, r5, r6, pc}
 194              		.cfi_endproc
 195              	.LFE56:
 196              		.size	lv_draw_rect, .-lv_draw_rect
 197              		.text
 198              	.Letext0:
 199              		.file 4 "c:\\program files (x86)\\cypress\\psoc creator\\4.4\\psoc creator\\import\\gnu\\arm\\5.4.
 200              		.file 5 "c:\\program files (x86)\\cypress\\psoc creator\\4.4\\psoc creator\\import\\gnu\\arm\\5.4.
 201              		.file 6 "c:\\program files (x86)\\cypress\\psoc creator\\4.4\\psoc creator\\import\\gnu\\arm\\5.4.
 202              		.file 7 "c:\\projects\\paindrain\\arduinolcd\\test\\pain drain\\libraries\\lvgl\\src\\font\\lv_fon
 203              		.file 8 "..\\..\\..\\arduinoLCD\\test\\Pain Drain\\libraries\\lvgl\\src\\draw\\../misc/lv_types.h"
 204              		.file 9 "..\\..\\..\\arduinoLCD\\test\\Pain Drain\\libraries\\lvgl\\src\\draw\\../misc/lv_txt.h"
 205              		.file 10 "..\\..\\..\\arduinoLCD\\test\\Pain Drain\\libraries\\lvgl\\src\\draw\\../misc/lv_bidi.h"
 206              		.file 11 "..\\..\\..\\arduinoLCD\\test\\Pain Drain\\libraries\\lvgl\\src\\draw\\../misc/lv_style.h
 207              		.file 12 "..\\..\\..\\arduinoLCD\\test\\Pain Drain\\libraries\\lvgl\\src\\draw\\lv_img_buf.h"
 208              		.file 13 "..\\..\\..\\arduinoLCD\\test\\Pain Drain\\libraries\\lvgl\\src\\draw\\lv_draw_rect.h"
 209              		.file 14 "..\\..\\..\\arduinoLCD\\test\\Pain Drain\\libraries\\lvgl\\src\\draw\\lv_draw_label.h"
 210              		.file 15 "..\\..\\..\\arduinoLCD\\test\\Pain Drain\\libraries\\lvgl\\src\\draw\\lv_draw_img.h"
 211              		.file 16 "..\\..\\..\\arduinoLCD\\test\\Pain Drain\\libraries\\lvgl\\src\\draw\\lv_draw_line.h"
 212              		.file 17 "..\\..\\..\\arduinoLCD\\test\\Pain Drain\\libraries\\lvgl\\src\\draw\\lv_draw_arc.h"
 213              		.file 18 "..\\..\\..\\arduinoLCD\\test\\Pain Drain\\libraries\\lvgl\\src\\draw\\lv_draw_layer.h"
 214              		.file 19 "..\\..\\..\\arduinoLCD\\test\\Pain Drain\\libraries\\lvgl\\src\\draw\\lv_draw.h"
 215              		.file 20 "..\\..\\..\\arduinoLCD\\test\\Pain Drain\\libraries\\lvgl\\src\\draw\\../misc/lv_mem.h"