ARM GAS  C:\Users\haske\AppData\Local\Temp\ccpgnYma.s 			page 1


   1              		.syntax unified
   2              		.cpu cortex-m0plus
   3              		.fpu softvfp
   4              		.eabi_attribute 20, 1
   5              		.eabi_attribute 21, 1
   6              		.eabi_attribute 23, 3
   7              		.eabi_attribute 24, 1
   8              		.eabi_attribute 25, 1
   9              		.eabi_attribute 26, 1
  10              		.eabi_attribute 30, 1
  11              		.eabi_attribute 34, 0
  12              		.eabi_attribute 18, 4
  13              		.thumb
  14              		.syntax unified
  15              		.file	"lv_draw_sw_line.c"
  16              		.text
  17              	.Ltext0:
  18              		.cfi_sections	.debug_frame
  19              		.global	__aeabi_idivmod
  20              		.section	.text.draw_line_hor,"ax",%progbits
  21              		.align	2
  22              		.code	16
  23              		.thumb_func
  24              		.type	draw_line_hor, %function
  25              	draw_line_hor:
  26              	.LFB160:
  27              		.file 1 "..\\..\\..\\arduinoLCD\\test\\Pain Drain\\libraries\\lvgl\\src\\draw\\sw\\lv_draw_sw_line
   1:..\..\..\arduinoLCD\test\Pain Drain\libraries\lvgl\src\draw\sw/lv_draw_sw_line.c **** /**
   2:..\..\..\arduinoLCD\test\Pain Drain\libraries\lvgl\src\draw\sw/lv_draw_sw_line.c ****  * @file lv_draw_line.c
   3:..\..\..\arduinoLCD\test\Pain Drain\libraries\lvgl\src\draw\sw/lv_draw_sw_line.c ****  *
   4:..\..\..\arduinoLCD\test\Pain Drain\libraries\lvgl\src\draw\sw/lv_draw_sw_line.c ****  */
   5:..\..\..\arduinoLCD\test\Pain Drain\libraries\lvgl\src\draw\sw/lv_draw_sw_line.c **** 
   6:..\..\..\arduinoLCD\test\Pain Drain\libraries\lvgl\src\draw\sw/lv_draw_sw_line.c **** /*********************
   7:..\..\..\arduinoLCD\test\Pain Drain\libraries\lvgl\src\draw\sw/lv_draw_sw_line.c ****  *      INCLUDES
   8:..\..\..\arduinoLCD\test\Pain Drain\libraries\lvgl\src\draw\sw/lv_draw_sw_line.c ****  *********************/
   9:..\..\..\arduinoLCD\test\Pain Drain\libraries\lvgl\src\draw\sw/lv_draw_sw_line.c **** #include <stdbool.h>
  10:..\..\..\arduinoLCD\test\Pain Drain\libraries\lvgl\src\draw\sw/lv_draw_sw_line.c **** #include "lv_draw_sw.h"
  11:..\..\..\arduinoLCD\test\Pain Drain\libraries\lvgl\src\draw\sw/lv_draw_sw_line.c **** #include "../../misc/lv_math.h"
  12:..\..\..\arduinoLCD\test\Pain Drain\libraries\lvgl\src\draw\sw/lv_draw_sw_line.c **** #include "../../core/lv_refr.h"
  13:..\..\..\arduinoLCD\test\Pain Drain\libraries\lvgl\src\draw\sw/lv_draw_sw_line.c **** 
  14:..\..\..\arduinoLCD\test\Pain Drain\libraries\lvgl\src\draw\sw/lv_draw_sw_line.c **** /*********************
  15:..\..\..\arduinoLCD\test\Pain Drain\libraries\lvgl\src\draw\sw/lv_draw_sw_line.c ****  *      DEFINES
  16:..\..\..\arduinoLCD\test\Pain Drain\libraries\lvgl\src\draw\sw/lv_draw_sw_line.c ****  *********************/
  17:..\..\..\arduinoLCD\test\Pain Drain\libraries\lvgl\src\draw\sw/lv_draw_sw_line.c **** 
  18:..\..\..\arduinoLCD\test\Pain Drain\libraries\lvgl\src\draw\sw/lv_draw_sw_line.c **** /**********************
  19:..\..\..\arduinoLCD\test\Pain Drain\libraries\lvgl\src\draw\sw/lv_draw_sw_line.c ****  *      TYPEDEFS
  20:..\..\..\arduinoLCD\test\Pain Drain\libraries\lvgl\src\draw\sw/lv_draw_sw_line.c ****  **********************/
  21:..\..\..\arduinoLCD\test\Pain Drain\libraries\lvgl\src\draw\sw/lv_draw_sw_line.c **** 
  22:..\..\..\arduinoLCD\test\Pain Drain\libraries\lvgl\src\draw\sw/lv_draw_sw_line.c **** /**********************
  23:..\..\..\arduinoLCD\test\Pain Drain\libraries\lvgl\src\draw\sw/lv_draw_sw_line.c ****  *  STATIC PROTOTYPES
  24:..\..\..\arduinoLCD\test\Pain Drain\libraries\lvgl\src\draw\sw/lv_draw_sw_line.c ****  **********************/
  25:..\..\..\arduinoLCD\test\Pain Drain\libraries\lvgl\src\draw\sw/lv_draw_sw_line.c **** 
  26:..\..\..\arduinoLCD\test\Pain Drain\libraries\lvgl\src\draw\sw/lv_draw_sw_line.c **** LV_ATTRIBUTE_FAST_MEM static void draw_line_skew(struct _lv_draw_ctx_t * draw_ctx, const lv_draw_li
  27:..\..\..\arduinoLCD\test\Pain Drain\libraries\lvgl\src\draw\sw/lv_draw_sw_line.c ****                                                  const lv_point_t * point1, const lv_point_t * poin
  28:..\..\..\arduinoLCD\test\Pain Drain\libraries\lvgl\src\draw\sw/lv_draw_sw_line.c **** LV_ATTRIBUTE_FAST_MEM static void draw_line_hor(struct _lv_draw_ctx_t * draw_ctx, const lv_draw_lin
  29:..\..\..\arduinoLCD\test\Pain Drain\libraries\lvgl\src\draw\sw/lv_draw_sw_line.c ****                                                 const lv_point_t * point1, const lv_point_t * point
  30:..\..\..\arduinoLCD\test\Pain Drain\libraries\lvgl\src\draw\sw/lv_draw_sw_line.c **** LV_ATTRIBUTE_FAST_MEM static void draw_line_ver(struct _lv_draw_ctx_t * draw_ctx, const lv_draw_lin
ARM GAS  C:\Users\haske\AppData\Local\Temp\ccpgnYma.s 			page 2


  31:..\..\..\arduinoLCD\test\Pain Drain\libraries\lvgl\src\draw\sw/lv_draw_sw_line.c ****                                                 const lv_point_t * point1, const lv_point_t * point
  32:..\..\..\arduinoLCD\test\Pain Drain\libraries\lvgl\src\draw\sw/lv_draw_sw_line.c **** 
  33:..\..\..\arduinoLCD\test\Pain Drain\libraries\lvgl\src\draw\sw/lv_draw_sw_line.c **** /**********************
  34:..\..\..\arduinoLCD\test\Pain Drain\libraries\lvgl\src\draw\sw/lv_draw_sw_line.c ****  *  STATIC VARIABLES
  35:..\..\..\arduinoLCD\test\Pain Drain\libraries\lvgl\src\draw\sw/lv_draw_sw_line.c ****  **********************/
  36:..\..\..\arduinoLCD\test\Pain Drain\libraries\lvgl\src\draw\sw/lv_draw_sw_line.c **** 
  37:..\..\..\arduinoLCD\test\Pain Drain\libraries\lvgl\src\draw\sw/lv_draw_sw_line.c **** /**********************
  38:..\..\..\arduinoLCD\test\Pain Drain\libraries\lvgl\src\draw\sw/lv_draw_sw_line.c ****  *      MACROS
  39:..\..\..\arduinoLCD\test\Pain Drain\libraries\lvgl\src\draw\sw/lv_draw_sw_line.c ****  **********************/
  40:..\..\..\arduinoLCD\test\Pain Drain\libraries\lvgl\src\draw\sw/lv_draw_sw_line.c **** 
  41:..\..\..\arduinoLCD\test\Pain Drain\libraries\lvgl\src\draw\sw/lv_draw_sw_line.c **** /**********************
  42:..\..\..\arduinoLCD\test\Pain Drain\libraries\lvgl\src\draw\sw/lv_draw_sw_line.c ****  *   GLOBAL FUNCTIONS
  43:..\..\..\arduinoLCD\test\Pain Drain\libraries\lvgl\src\draw\sw/lv_draw_sw_line.c ****  **********************/
  44:..\..\..\arduinoLCD\test\Pain Drain\libraries\lvgl\src\draw\sw/lv_draw_sw_line.c **** 
  45:..\..\..\arduinoLCD\test\Pain Drain\libraries\lvgl\src\draw\sw/lv_draw_sw_line.c **** /**
  46:..\..\..\arduinoLCD\test\Pain Drain\libraries\lvgl\src\draw\sw/lv_draw_sw_line.c ****  * Draw a line
  47:..\..\..\arduinoLCD\test\Pain Drain\libraries\lvgl\src\draw\sw/lv_draw_sw_line.c ****  * @param point1 first point of the line
  48:..\..\..\arduinoLCD\test\Pain Drain\libraries\lvgl\src\draw\sw/lv_draw_sw_line.c ****  * @param point2 second point of the line
  49:..\..\..\arduinoLCD\test\Pain Drain\libraries\lvgl\src\draw\sw/lv_draw_sw_line.c ****  * @param clip the line will be drawn only in this area
  50:..\..\..\arduinoLCD\test\Pain Drain\libraries\lvgl\src\draw\sw/lv_draw_sw_line.c ****  * @param dsc pointer to an initialized `lv_draw_line_dsc_t` variable
  51:..\..\..\arduinoLCD\test\Pain Drain\libraries\lvgl\src\draw\sw/lv_draw_sw_line.c ****  */
  52:..\..\..\arduinoLCD\test\Pain Drain\libraries\lvgl\src\draw\sw/lv_draw_sw_line.c **** LV_ATTRIBUTE_FAST_MEM void lv_draw_sw_line(struct _lv_draw_ctx_t * draw_ctx, const lv_draw_line_dsc
  53:..\..\..\arduinoLCD\test\Pain Drain\libraries\lvgl\src\draw\sw/lv_draw_sw_line.c ****                                            const lv_point_t * point1, const lv_point_t * point2)
  54:..\..\..\arduinoLCD\test\Pain Drain\libraries\lvgl\src\draw\sw/lv_draw_sw_line.c **** {
  55:..\..\..\arduinoLCD\test\Pain Drain\libraries\lvgl\src\draw\sw/lv_draw_sw_line.c ****     if(dsc->width == 0) return;
  56:..\..\..\arduinoLCD\test\Pain Drain\libraries\lvgl\src\draw\sw/lv_draw_sw_line.c ****     if(dsc->opa <= LV_OPA_MIN) return;
  57:..\..\..\arduinoLCD\test\Pain Drain\libraries\lvgl\src\draw\sw/lv_draw_sw_line.c **** 
  58:..\..\..\arduinoLCD\test\Pain Drain\libraries\lvgl\src\draw\sw/lv_draw_sw_line.c ****     if(point1->x == point2->x && point1->y == point2->y) return;
  59:..\..\..\arduinoLCD\test\Pain Drain\libraries\lvgl\src\draw\sw/lv_draw_sw_line.c **** 
  60:..\..\..\arduinoLCD\test\Pain Drain\libraries\lvgl\src\draw\sw/lv_draw_sw_line.c ****     lv_area_t clip_line;
  61:..\..\..\arduinoLCD\test\Pain Drain\libraries\lvgl\src\draw\sw/lv_draw_sw_line.c ****     clip_line.x1 = LV_MIN(point1->x, point2->x) - dsc->width / 2;
  62:..\..\..\arduinoLCD\test\Pain Drain\libraries\lvgl\src\draw\sw/lv_draw_sw_line.c ****     clip_line.x2 = LV_MAX(point1->x, point2->x) + dsc->width / 2;
  63:..\..\..\arduinoLCD\test\Pain Drain\libraries\lvgl\src\draw\sw/lv_draw_sw_line.c ****     clip_line.y1 = LV_MIN(point1->y, point2->y) - dsc->width / 2;
  64:..\..\..\arduinoLCD\test\Pain Drain\libraries\lvgl\src\draw\sw/lv_draw_sw_line.c ****     clip_line.y2 = LV_MAX(point1->y, point2->y) + dsc->width / 2;
  65:..\..\..\arduinoLCD\test\Pain Drain\libraries\lvgl\src\draw\sw/lv_draw_sw_line.c **** 
  66:..\..\..\arduinoLCD\test\Pain Drain\libraries\lvgl\src\draw\sw/lv_draw_sw_line.c ****     bool is_common;
  67:..\..\..\arduinoLCD\test\Pain Drain\libraries\lvgl\src\draw\sw/lv_draw_sw_line.c ****     is_common = _lv_area_intersect(&clip_line, &clip_line, draw_ctx->clip_area);
  68:..\..\..\arduinoLCD\test\Pain Drain\libraries\lvgl\src\draw\sw/lv_draw_sw_line.c ****     if(!is_common) return;
  69:..\..\..\arduinoLCD\test\Pain Drain\libraries\lvgl\src\draw\sw/lv_draw_sw_line.c ****     const lv_area_t * clip_area_ori = draw_ctx->clip_area;
  70:..\..\..\arduinoLCD\test\Pain Drain\libraries\lvgl\src\draw\sw/lv_draw_sw_line.c ****     draw_ctx->clip_area = &clip_line;
  71:..\..\..\arduinoLCD\test\Pain Drain\libraries\lvgl\src\draw\sw/lv_draw_sw_line.c **** 
  72:..\..\..\arduinoLCD\test\Pain Drain\libraries\lvgl\src\draw\sw/lv_draw_sw_line.c ****     if(point1->y == point2->y) draw_line_hor(draw_ctx, dsc, point1, point2);
  73:..\..\..\arduinoLCD\test\Pain Drain\libraries\lvgl\src\draw\sw/lv_draw_sw_line.c ****     else if(point1->x == point2->x) draw_line_ver(draw_ctx, dsc, point1, point2);
  74:..\..\..\arduinoLCD\test\Pain Drain\libraries\lvgl\src\draw\sw/lv_draw_sw_line.c ****     else draw_line_skew(draw_ctx, dsc, point1, point2);
  75:..\..\..\arduinoLCD\test\Pain Drain\libraries\lvgl\src\draw\sw/lv_draw_sw_line.c **** 
  76:..\..\..\arduinoLCD\test\Pain Drain\libraries\lvgl\src\draw\sw/lv_draw_sw_line.c ****     if(dsc->round_end || dsc->round_start) {
  77:..\..\..\arduinoLCD\test\Pain Drain\libraries\lvgl\src\draw\sw/lv_draw_sw_line.c ****         lv_draw_rect_dsc_t cir_dsc;
  78:..\..\..\arduinoLCD\test\Pain Drain\libraries\lvgl\src\draw\sw/lv_draw_sw_line.c ****         lv_draw_rect_dsc_init(&cir_dsc);
  79:..\..\..\arduinoLCD\test\Pain Drain\libraries\lvgl\src\draw\sw/lv_draw_sw_line.c ****         cir_dsc.bg_color = dsc->color;
  80:..\..\..\arduinoLCD\test\Pain Drain\libraries\lvgl\src\draw\sw/lv_draw_sw_line.c ****         cir_dsc.radius = LV_RADIUS_CIRCLE;
  81:..\..\..\arduinoLCD\test\Pain Drain\libraries\lvgl\src\draw\sw/lv_draw_sw_line.c ****         cir_dsc.bg_opa = dsc->opa;
  82:..\..\..\arduinoLCD\test\Pain Drain\libraries\lvgl\src\draw\sw/lv_draw_sw_line.c **** 
  83:..\..\..\arduinoLCD\test\Pain Drain\libraries\lvgl\src\draw\sw/lv_draw_sw_line.c ****         int32_t r = (dsc->width >> 1);
  84:..\..\..\arduinoLCD\test\Pain Drain\libraries\lvgl\src\draw\sw/lv_draw_sw_line.c ****         int32_t r_corr = (dsc->width & 1) ? 0 : 1;
  85:..\..\..\arduinoLCD\test\Pain Drain\libraries\lvgl\src\draw\sw/lv_draw_sw_line.c ****         lv_area_t cir_area;
  86:..\..\..\arduinoLCD\test\Pain Drain\libraries\lvgl\src\draw\sw/lv_draw_sw_line.c **** 
  87:..\..\..\arduinoLCD\test\Pain Drain\libraries\lvgl\src\draw\sw/lv_draw_sw_line.c ****         if(dsc->round_start) {
ARM GAS  C:\Users\haske\AppData\Local\Temp\ccpgnYma.s 			page 3


  88:..\..\..\arduinoLCD\test\Pain Drain\libraries\lvgl\src\draw\sw/lv_draw_sw_line.c ****             cir_area.x1 = point1->x - r;
  89:..\..\..\arduinoLCD\test\Pain Drain\libraries\lvgl\src\draw\sw/lv_draw_sw_line.c ****             cir_area.y1 = point1->y - r;
  90:..\..\..\arduinoLCD\test\Pain Drain\libraries\lvgl\src\draw\sw/lv_draw_sw_line.c ****             cir_area.x2 = point1->x + r - r_corr;
  91:..\..\..\arduinoLCD\test\Pain Drain\libraries\lvgl\src\draw\sw/lv_draw_sw_line.c ****             cir_area.y2 = point1->y + r - r_corr ;
  92:..\..\..\arduinoLCD\test\Pain Drain\libraries\lvgl\src\draw\sw/lv_draw_sw_line.c ****             lv_draw_rect(draw_ctx, &cir_dsc, &cir_area);
  93:..\..\..\arduinoLCD\test\Pain Drain\libraries\lvgl\src\draw\sw/lv_draw_sw_line.c ****         }
  94:..\..\..\arduinoLCD\test\Pain Drain\libraries\lvgl\src\draw\sw/lv_draw_sw_line.c **** 
  95:..\..\..\arduinoLCD\test\Pain Drain\libraries\lvgl\src\draw\sw/lv_draw_sw_line.c ****         if(dsc->round_end) {
  96:..\..\..\arduinoLCD\test\Pain Drain\libraries\lvgl\src\draw\sw/lv_draw_sw_line.c ****             cir_area.x1 = point2->x - r;
  97:..\..\..\arduinoLCD\test\Pain Drain\libraries\lvgl\src\draw\sw/lv_draw_sw_line.c ****             cir_area.y1 = point2->y - r;
  98:..\..\..\arduinoLCD\test\Pain Drain\libraries\lvgl\src\draw\sw/lv_draw_sw_line.c ****             cir_area.x2 = point2->x + r - r_corr;
  99:..\..\..\arduinoLCD\test\Pain Drain\libraries\lvgl\src\draw\sw/lv_draw_sw_line.c ****             cir_area.y2 = point2->y + r - r_corr ;
 100:..\..\..\arduinoLCD\test\Pain Drain\libraries\lvgl\src\draw\sw/lv_draw_sw_line.c ****             lv_draw_rect(draw_ctx, &cir_dsc, &cir_area);
 101:..\..\..\arduinoLCD\test\Pain Drain\libraries\lvgl\src\draw\sw/lv_draw_sw_line.c ****         }
 102:..\..\..\arduinoLCD\test\Pain Drain\libraries\lvgl\src\draw\sw/lv_draw_sw_line.c ****     }
 103:..\..\..\arduinoLCD\test\Pain Drain\libraries\lvgl\src\draw\sw/lv_draw_sw_line.c **** 
 104:..\..\..\arduinoLCD\test\Pain Drain\libraries\lvgl\src\draw\sw/lv_draw_sw_line.c ****     draw_ctx->clip_area = clip_area_ori;
 105:..\..\..\arduinoLCD\test\Pain Drain\libraries\lvgl\src\draw\sw/lv_draw_sw_line.c **** }
 106:..\..\..\arduinoLCD\test\Pain Drain\libraries\lvgl\src\draw\sw/lv_draw_sw_line.c **** 
 107:..\..\..\arduinoLCD\test\Pain Drain\libraries\lvgl\src\draw\sw/lv_draw_sw_line.c **** /**********************
 108:..\..\..\arduinoLCD\test\Pain Drain\libraries\lvgl\src\draw\sw/lv_draw_sw_line.c ****  *   STATIC FUNCTIONS
 109:..\..\..\arduinoLCD\test\Pain Drain\libraries\lvgl\src\draw\sw/lv_draw_sw_line.c ****  **********************/
 110:..\..\..\arduinoLCD\test\Pain Drain\libraries\lvgl\src\draw\sw/lv_draw_sw_line.c **** 
 111:..\..\..\arduinoLCD\test\Pain Drain\libraries\lvgl\src\draw\sw/lv_draw_sw_line.c **** 
 112:..\..\..\arduinoLCD\test\Pain Drain\libraries\lvgl\src\draw\sw/lv_draw_sw_line.c **** LV_ATTRIBUTE_FAST_MEM static void draw_line_hor(struct _lv_draw_ctx_t * draw_ctx, const lv_draw_lin
 113:..\..\..\arduinoLCD\test\Pain Drain\libraries\lvgl\src\draw\sw/lv_draw_sw_line.c ****                                                 const lv_point_t * point1, const lv_point_t * point
 114:..\..\..\arduinoLCD\test\Pain Drain\libraries\lvgl\src\draw\sw/lv_draw_sw_line.c **** {
  28              		.loc 1 114 0
  29              		.cfi_startproc
  30              		@ args = 0, pretend = 0, frame = 56
  31              		@ frame_needed = 0, uses_anonymous_args = 0
  32              	.LVL0:
  33 0000 F0B5     		push	{r4, r5, r6, r7, lr}
  34              		.cfi_def_cfa_offset 20
  35              		.cfi_offset 4, -20
  36              		.cfi_offset 5, -16
  37              		.cfi_offset 6, -12
  38              		.cfi_offset 7, -8
  39              		.cfi_offset 14, -4
  40 0002 5F46     		mov	r7, fp
  41 0004 5646     		mov	r6, r10
  42 0006 4D46     		mov	r5, r9
  43 0008 E0B4     		push	{r5, r6, r7}
  44              		.cfi_def_cfa_offset 32
  45              		.cfi_offset 9, -32
  46              		.cfi_offset 10, -28
  47              		.cfi_offset 11, -24
  48 000a 8EB0     		sub	sp, sp, #56
  49              		.cfi_def_cfa_offset 88
  50 000c 8146     		mov	r9, r0
  51 000e 0C00     		movs	r4, r1
 115:..\..\..\arduinoLCD\test\Pain Drain\libraries\lvgl\src\draw\sw/lv_draw_sw_line.c ****     int32_t w = dsc->width - 1;
  52              		.loc 1 115 0
  53 0010 0220     		movs	r0, #2
  54 0012 095E     		ldrsh	r1, [r1, r0]
  55              	.LVL1:
  56 0014 0139     		subs	r1, r1, #1
ARM GAS  C:\Users\haske\AppData\Local\Temp\ccpgnYma.s 			page 4


  57              	.LVL2:
 116:..\..\..\arduinoLCD\test\Pain Drain\libraries\lvgl\src\draw\sw/lv_draw_sw_line.c ****     int32_t w_half0 = w >> 1;
  58              		.loc 1 116 0
  59 0016 4E10     		asrs	r6, r1, #1
  60              	.LVL3:
 117:..\..\..\arduinoLCD\test\Pain Drain\libraries\lvgl\src\draw\sw/lv_draw_sw_line.c ****     int32_t w_half1 = w_half0 + (w & 0x1); /*Compensate rounding error*/
  61              		.loc 1 117 0
  62 0018 0120     		movs	r0, #1
  63 001a 0140     		ands	r1, r0
  64              	.LVL4:
  65 001c 7118     		adds	r1, r6, r1
  66              	.LVL5:
 118:..\..\..\arduinoLCD\test\Pain Drain\libraries\lvgl\src\draw\sw/lv_draw_sw_line.c **** 
 119:..\..\..\arduinoLCD\test\Pain Drain\libraries\lvgl\src\draw\sw/lv_draw_sw_line.c ****     lv_area_t blend_area;
 120:..\..\..\arduinoLCD\test\Pain Drain\libraries\lvgl\src\draw\sw/lv_draw_sw_line.c ****     blend_area.x1 = LV_MIN(point1->x, point2->x);
  67              		.loc 1 120 0
  68 001e 0025     		movs	r5, #0
  69 0020 585F     		ldrsh	r0, [r3, r5]
  70 0022 0025     		movs	r5, #0
  71 0024 575F     		ldrsh	r7, [r2, r5]
  72 0026 051C     		adds	r5, r0, #0
  73 0028 B842     		cmp	r0, r7
  74 002a 00DD     		ble	.L2
  75 002c 3D1C     		adds	r5, r7, #0
  76              	.L2:
  77 002e 0CA8     		add	r0, sp, #48
  78 0030 0580     		strh	r5, [r0]
  79              	.LVL6:
 121:..\..\..\arduinoLCD\test\Pain Drain\libraries\lvgl\src\draw\sw/lv_draw_sw_line.c ****     blend_area.x2 = LV_MAX(point1->x, point2->x)  - 1;
  80              		.loc 1 121 0
  81 0032 0020     		movs	r0, #0
  82 0034 1B5E     		ldrsh	r3, [r3, r0]
  83              	.LVL7:
  84 0036 0025     		movs	r5, #0
  85 0038 505F     		ldrsh	r0, [r2, r5]
  86 003a 1D1C     		adds	r5, r3, #0
  87 003c 8342     		cmp	r3, r0
  88 003e 00DA     		bge	.L3
  89 0040 051C     		adds	r5, r0, #0
  90              	.L3:
  91 0042 0CA8     		add	r0, sp, #48
  92 0044 013D     		subs	r5, r5, #1
  93 0046 8580     		strh	r5, [r0, #4]
 122:..\..\..\arduinoLCD\test\Pain Drain\libraries\lvgl\src\draw\sw/lv_draw_sw_line.c ****     blend_area.y1 = point1->y - w_half1;
  94              		.loc 1 122 0
  95 0048 0223     		movs	r3, #2
  96 004a D35E     		ldrsh	r3, [r2, r3]
  97              	.LVL8:
  98 004c 591A     		subs	r1, r3, r1
  99              	.LVL9:
 100 004e 4180     		strh	r1, [r0, #2]
 123:..\..\..\arduinoLCD\test\Pain Drain\libraries\lvgl\src\draw\sw/lv_draw_sw_line.c ****     blend_area.y2 = point1->y + w_half0;
 101              		.loc 1 123 0
 102 0050 9B19     		adds	r3, r3, r6
 103 0052 C380     		strh	r3, [r0, #6]
 124:..\..\..\arduinoLCD\test\Pain Drain\libraries\lvgl\src\draw\sw/lv_draw_sw_line.c **** 
 125:..\..\..\arduinoLCD\test\Pain Drain\libraries\lvgl\src\draw\sw/lv_draw_sw_line.c ****     bool is_common;
ARM GAS  C:\Users\haske\AppData\Local\Temp\ccpgnYma.s 			page 5


 126:..\..\..\arduinoLCD\test\Pain Drain\libraries\lvgl\src\draw\sw/lv_draw_sw_line.c ****     is_common = _lv_area_intersect(&blend_area, &blend_area, draw_ctx->clip_area);
 104              		.loc 1 126 0
 105 0054 4B46     		mov	r3, r9
 106 0056 9A68     		ldr	r2, [r3, #8]
 107 0058 0100     		movs	r1, r0
 108 005a FFF7FEFF 		bl	_lv_area_intersect
 109              	.LVL10:
 127:..\..\..\arduinoLCD\test\Pain Drain\libraries\lvgl\src\draw\sw/lv_draw_sw_line.c ****     if(!is_common) return;
 110              		.loc 1 127 0
 111 005e 0028     		cmp	r0, #0
 112 0060 00D1     		bne	.LCB81
 113 0062 A3E0     		b	.L1	@long jump
 114              	.LCB81:
 128:..\..\..\arduinoLCD\test\Pain Drain\libraries\lvgl\src\draw\sw/lv_draw_sw_line.c **** 
 129:..\..\..\arduinoLCD\test\Pain Drain\libraries\lvgl\src\draw\sw/lv_draw_sw_line.c ****     bool dashed = dsc->dash_gap && dsc->dash_width ? true : false;
 115              		.loc 1 129 0
 116 0064 0622     		movs	r2, #6
 117 0066 A35E     		ldrsh	r3, [r4, r2]
 118 0068 002B     		cmp	r3, #0
 119 006a 04D0     		beq	.L18
 120              		.loc 1 129 0 is_stmt 0 discriminator 1
 121 006c 0422     		movs	r2, #4
 122 006e A35E     		ldrsh	r3, [r4, r2]
 123 0070 002B     		cmp	r3, #0
 124 0072 02D1     		bne	.L19
 125 0074 02E0     		b	.L5
 126              	.L18:
 127              		.loc 1 129 0
 128 0076 0023     		movs	r3, #0
 129 0078 00E0     		b	.L5
 130              	.L19:
 131 007a 0123     		movs	r3, #1
 132              	.L5:
 133              		.loc 1 129 0 discriminator 6
 134 007c 9A46     		mov	r10, r3
 135              	.LVL11:
 130:..\..\..\arduinoLCD\test\Pain Drain\libraries\lvgl\src\draw\sw/lv_draw_sw_line.c ****     bool simple_mode = true;
 131:..\..\..\arduinoLCD\test\Pain Drain\libraries\lvgl\src\draw\sw/lv_draw_sw_line.c ****     if(lv_draw_mask_is_any(&blend_area)) simple_mode = false;
 136              		.loc 1 131 0 is_stmt 1 discriminator 6
 137 007e 0CA8     		add	r0, sp, #48
 138              	.LVL12:
 139 0080 FFF7FEFF 		bl	lv_draw_mask_is_any
 140              	.LVL13:
 141 0084 0028     		cmp	r0, #0
 142 0086 04D1     		bne	.L20
 132:..\..\..\arduinoLCD\test\Pain Drain\libraries\lvgl\src\draw\sw/lv_draw_sw_line.c ****     else if(dashed) simple_mode = false;
 143              		.loc 1 132 0
 144 0088 5346     		mov	r3, r10
 145 008a 002B     		cmp	r3, #0
 146 008c 03D1     		bne	.L21
 130:..\..\..\arduinoLCD\test\Pain Drain\libraries\lvgl\src\draw\sw/lv_draw_sw_line.c ****     bool simple_mode = true;
 147              		.loc 1 130 0
 148 008e 0126     		movs	r6, #1
 149              	.LVL14:
 150 0090 02E0     		b	.L6
 151              	.LVL15:
 152              	.L20:
ARM GAS  C:\Users\haske\AppData\Local\Temp\ccpgnYma.s 			page 6


 131:..\..\..\arduinoLCD\test\Pain Drain\libraries\lvgl\src\draw\sw/lv_draw_sw_line.c ****     else if(dashed) simple_mode = false;
 153              		.loc 1 131 0
 154 0092 0026     		movs	r6, #0
 155              	.LVL16:
 156 0094 00E0     		b	.L6
 157              	.LVL17:
 158              	.L21:
 159              		.loc 1 132 0
 160 0096 0026     		movs	r6, #0
 161              	.LVL18:
 162              	.L6:
 133:..\..\..\arduinoLCD\test\Pain Drain\libraries\lvgl\src\draw\sw/lv_draw_sw_line.c **** 
 134:..\..\..\arduinoLCD\test\Pain Drain\libraries\lvgl\src\draw\sw/lv_draw_sw_line.c ****     lv_draw_sw_blend_dsc_t blend_dsc;
 135:..\..\..\arduinoLCD\test\Pain Drain\libraries\lvgl\src\draw\sw/lv_draw_sw_line.c ****     lv_memset_00(&blend_dsc, sizeof(blend_dsc));
 163              		.loc 1 135 0
 164 0098 05AD     		add	r5, sp, #20
 165 009a 1C21     		movs	r1, #28
 166 009c 2800     		movs	r0, r5
 167 009e FFF7FEFF 		bl	lv_memset_00
 168              	.LVL19:
 136:..\..\..\arduinoLCD\test\Pain Drain\libraries\lvgl\src\draw\sw/lv_draw_sw_line.c ****     blend_dsc.blend_area = &blend_area;
 169              		.loc 1 136 0
 170 00a2 0CAB     		add	r3, sp, #48
 171 00a4 0593     		str	r3, [sp, #20]
 137:..\..\..\arduinoLCD\test\Pain Drain\libraries\lvgl\src\draw\sw/lv_draw_sw_line.c ****     blend_dsc.color = dsc->color;
 172              		.loc 1 137 0
 173 00a6 2388     		ldrh	r3, [r4]
 174 00a8 2B81     		strh	r3, [r5, #8]
 138:..\..\..\arduinoLCD\test\Pain Drain\libraries\lvgl\src\draw\sw/lv_draw_sw_line.c ****     blend_dsc.opa = dsc->opa;
 175              		.loc 1 138 0
 176 00aa 237A     		ldrb	r3, [r4, #8]
 177 00ac 2B76     		strb	r3, [r5, #24]
 139:..\..\..\arduinoLCD\test\Pain Drain\libraries\lvgl\src\draw\sw/lv_draw_sw_line.c **** 
 140:..\..\..\arduinoLCD\test\Pain Drain\libraries\lvgl\src\draw\sw/lv_draw_sw_line.c ****     /*If there is no mask then simply draw a rectangle*/
 141:..\..\..\arduinoLCD\test\Pain Drain\libraries\lvgl\src\draw\sw/lv_draw_sw_line.c ****     if(simple_mode) {
 178              		.loc 1 141 0
 179 00ae 002E     		cmp	r6, #0
 180 00b0 04D0     		beq	.L7
 142:..\..\..\arduinoLCD\test\Pain Drain\libraries\lvgl\src\draw\sw/lv_draw_sw_line.c ****         lv_draw_sw_blend(draw_ctx, &blend_dsc);
 181              		.loc 1 142 0
 182 00b2 05A9     		add	r1, sp, #20
 183 00b4 4846     		mov	r0, r9
 184 00b6 FFF7FEFF 		bl	lv_draw_sw_blend
 185              	.LVL20:
 186 00ba 77E0     		b	.L1
 187              	.L7:
 188              	.LVL21:
 189              	.LBB12:
 190              	.LBB13:
 191              	.LBB14:
 192              		.file 2 "c:\\projects\\paindrain\\arduinolcd\\test\\pain drain\\libraries\\lvgl\\src\\misc\\lv_are
   1:c:\projects\paindrain\arduinolcd\test\pain drain\libraries\lvgl\src\misc\lv_area.h **** /**
   2:c:\projects\paindrain\arduinolcd\test\pain drain\libraries\lvgl\src\misc\lv_area.h ****  * @file lv_area.h
   3:c:\projects\paindrain\arduinolcd\test\pain drain\libraries\lvgl\src\misc\lv_area.h ****  *
   4:c:\projects\paindrain\arduinolcd\test\pain drain\libraries\lvgl\src\misc\lv_area.h ****  */
   5:c:\projects\paindrain\arduinolcd\test\pain drain\libraries\lvgl\src\misc\lv_area.h **** 
   6:c:\projects\paindrain\arduinolcd\test\pain drain\libraries\lvgl\src\misc\lv_area.h **** #ifndef LV_AREA_H
ARM GAS  C:\Users\haske\AppData\Local\Temp\ccpgnYma.s 			page 7


   7:c:\projects\paindrain\arduinolcd\test\pain drain\libraries\lvgl\src\misc\lv_area.h **** #define LV_AREA_H
   8:c:\projects\paindrain\arduinolcd\test\pain drain\libraries\lvgl\src\misc\lv_area.h **** 
   9:c:\projects\paindrain\arduinolcd\test\pain drain\libraries\lvgl\src\misc\lv_area.h **** #ifdef __cplusplus
  10:c:\projects\paindrain\arduinolcd\test\pain drain\libraries\lvgl\src\misc\lv_area.h **** extern "C" {
  11:c:\projects\paindrain\arduinolcd\test\pain drain\libraries\lvgl\src\misc\lv_area.h **** #endif
  12:c:\projects\paindrain\arduinolcd\test\pain drain\libraries\lvgl\src\misc\lv_area.h **** 
  13:c:\projects\paindrain\arduinolcd\test\pain drain\libraries\lvgl\src\misc\lv_area.h **** /*********************
  14:c:\projects\paindrain\arduinolcd\test\pain drain\libraries\lvgl\src\misc\lv_area.h ****  *      INCLUDES
  15:c:\projects\paindrain\arduinolcd\test\pain drain\libraries\lvgl\src\misc\lv_area.h ****  *********************/
  16:c:\projects\paindrain\arduinolcd\test\pain drain\libraries\lvgl\src\misc\lv_area.h **** #include "../lv_conf_internal.h"
  17:c:\projects\paindrain\arduinolcd\test\pain drain\libraries\lvgl\src\misc\lv_area.h **** #include <stdbool.h>
  18:c:\projects\paindrain\arduinolcd\test\pain drain\libraries\lvgl\src\misc\lv_area.h **** #include <stdint.h>
  19:c:\projects\paindrain\arduinolcd\test\pain drain\libraries\lvgl\src\misc\lv_area.h **** 
  20:c:\projects\paindrain\arduinolcd\test\pain drain\libraries\lvgl\src\misc\lv_area.h **** /*********************
  21:c:\projects\paindrain\arduinolcd\test\pain drain\libraries\lvgl\src\misc\lv_area.h ****  *      DEFINES
  22:c:\projects\paindrain\arduinolcd\test\pain drain\libraries\lvgl\src\misc\lv_area.h ****  *********************/
  23:c:\projects\paindrain\arduinolcd\test\pain drain\libraries\lvgl\src\misc\lv_area.h **** 
  24:c:\projects\paindrain\arduinolcd\test\pain drain\libraries\lvgl\src\misc\lv_area.h **** #if LV_USE_LARGE_COORD
  25:c:\projects\paindrain\arduinolcd\test\pain drain\libraries\lvgl\src\misc\lv_area.h **** typedef int32_t lv_coord_t;
  26:c:\projects\paindrain\arduinolcd\test\pain drain\libraries\lvgl\src\misc\lv_area.h **** #else
  27:c:\projects\paindrain\arduinolcd\test\pain drain\libraries\lvgl\src\misc\lv_area.h **** typedef int16_t lv_coord_t;
  28:c:\projects\paindrain\arduinolcd\test\pain drain\libraries\lvgl\src\misc\lv_area.h **** #endif
  29:c:\projects\paindrain\arduinolcd\test\pain drain\libraries\lvgl\src\misc\lv_area.h **** 
  30:c:\projects\paindrain\arduinolcd\test\pain drain\libraries\lvgl\src\misc\lv_area.h **** /**********************
  31:c:\projects\paindrain\arduinolcd\test\pain drain\libraries\lvgl\src\misc\lv_area.h ****  *      TYPEDEFS
  32:c:\projects\paindrain\arduinolcd\test\pain drain\libraries\lvgl\src\misc\lv_area.h ****  **********************/
  33:c:\projects\paindrain\arduinolcd\test\pain drain\libraries\lvgl\src\misc\lv_area.h **** 
  34:c:\projects\paindrain\arduinolcd\test\pain drain\libraries\lvgl\src\misc\lv_area.h **** /**
  35:c:\projects\paindrain\arduinolcd\test\pain drain\libraries\lvgl\src\misc\lv_area.h ****  * Represents a point on the screen.
  36:c:\projects\paindrain\arduinolcd\test\pain drain\libraries\lvgl\src\misc\lv_area.h ****  */
  37:c:\projects\paindrain\arduinolcd\test\pain drain\libraries\lvgl\src\misc\lv_area.h **** typedef struct {
  38:c:\projects\paindrain\arduinolcd\test\pain drain\libraries\lvgl\src\misc\lv_area.h ****     lv_coord_t x;
  39:c:\projects\paindrain\arduinolcd\test\pain drain\libraries\lvgl\src\misc\lv_area.h ****     lv_coord_t y;
  40:c:\projects\paindrain\arduinolcd\test\pain drain\libraries\lvgl\src\misc\lv_area.h **** } lv_point_t;
  41:c:\projects\paindrain\arduinolcd\test\pain drain\libraries\lvgl\src\misc\lv_area.h **** 
  42:c:\projects\paindrain\arduinolcd\test\pain drain\libraries\lvgl\src\misc\lv_area.h **** /** Represents an area of the screen.*/
  43:c:\projects\paindrain\arduinolcd\test\pain drain\libraries\lvgl\src\misc\lv_area.h **** typedef struct {
  44:c:\projects\paindrain\arduinolcd\test\pain drain\libraries\lvgl\src\misc\lv_area.h ****     lv_coord_t x1;
  45:c:\projects\paindrain\arduinolcd\test\pain drain\libraries\lvgl\src\misc\lv_area.h ****     lv_coord_t y1;
  46:c:\projects\paindrain\arduinolcd\test\pain drain\libraries\lvgl\src\misc\lv_area.h ****     lv_coord_t x2;
  47:c:\projects\paindrain\arduinolcd\test\pain drain\libraries\lvgl\src\misc\lv_area.h ****     lv_coord_t y2;
  48:c:\projects\paindrain\arduinolcd\test\pain drain\libraries\lvgl\src\misc\lv_area.h **** } lv_area_t;
  49:c:\projects\paindrain\arduinolcd\test\pain drain\libraries\lvgl\src\misc\lv_area.h **** 
  50:c:\projects\paindrain\arduinolcd\test\pain drain\libraries\lvgl\src\misc\lv_area.h **** /** Alignments*/
  51:c:\projects\paindrain\arduinolcd\test\pain drain\libraries\lvgl\src\misc\lv_area.h **** enum {
  52:c:\projects\paindrain\arduinolcd\test\pain drain\libraries\lvgl\src\misc\lv_area.h ****     LV_ALIGN_DEFAULT = 0,
  53:c:\projects\paindrain\arduinolcd\test\pain drain\libraries\lvgl\src\misc\lv_area.h ****     LV_ALIGN_TOP_LEFT,
  54:c:\projects\paindrain\arduinolcd\test\pain drain\libraries\lvgl\src\misc\lv_area.h ****     LV_ALIGN_TOP_MID,
  55:c:\projects\paindrain\arduinolcd\test\pain drain\libraries\lvgl\src\misc\lv_area.h ****     LV_ALIGN_TOP_RIGHT,
  56:c:\projects\paindrain\arduinolcd\test\pain drain\libraries\lvgl\src\misc\lv_area.h ****     LV_ALIGN_BOTTOM_LEFT,
  57:c:\projects\paindrain\arduinolcd\test\pain drain\libraries\lvgl\src\misc\lv_area.h ****     LV_ALIGN_BOTTOM_MID,
  58:c:\projects\paindrain\arduinolcd\test\pain drain\libraries\lvgl\src\misc\lv_area.h ****     LV_ALIGN_BOTTOM_RIGHT,
  59:c:\projects\paindrain\arduinolcd\test\pain drain\libraries\lvgl\src\misc\lv_area.h ****     LV_ALIGN_LEFT_MID,
  60:c:\projects\paindrain\arduinolcd\test\pain drain\libraries\lvgl\src\misc\lv_area.h ****     LV_ALIGN_RIGHT_MID,
  61:c:\projects\paindrain\arduinolcd\test\pain drain\libraries\lvgl\src\misc\lv_area.h ****     LV_ALIGN_CENTER,
  62:c:\projects\paindrain\arduinolcd\test\pain drain\libraries\lvgl\src\misc\lv_area.h **** 
  63:c:\projects\paindrain\arduinolcd\test\pain drain\libraries\lvgl\src\misc\lv_area.h ****     LV_ALIGN_OUT_TOP_LEFT,
ARM GAS  C:\Users\haske\AppData\Local\Temp\ccpgnYma.s 			page 8


  64:c:\projects\paindrain\arduinolcd\test\pain drain\libraries\lvgl\src\misc\lv_area.h ****     LV_ALIGN_OUT_TOP_MID,
  65:c:\projects\paindrain\arduinolcd\test\pain drain\libraries\lvgl\src\misc\lv_area.h ****     LV_ALIGN_OUT_TOP_RIGHT,
  66:c:\projects\paindrain\arduinolcd\test\pain drain\libraries\lvgl\src\misc\lv_area.h ****     LV_ALIGN_OUT_BOTTOM_LEFT,
  67:c:\projects\paindrain\arduinolcd\test\pain drain\libraries\lvgl\src\misc\lv_area.h ****     LV_ALIGN_OUT_BOTTOM_MID,
  68:c:\projects\paindrain\arduinolcd\test\pain drain\libraries\lvgl\src\misc\lv_area.h ****     LV_ALIGN_OUT_BOTTOM_RIGHT,
  69:c:\projects\paindrain\arduinolcd\test\pain drain\libraries\lvgl\src\misc\lv_area.h ****     LV_ALIGN_OUT_LEFT_TOP,
  70:c:\projects\paindrain\arduinolcd\test\pain drain\libraries\lvgl\src\misc\lv_area.h ****     LV_ALIGN_OUT_LEFT_MID,
  71:c:\projects\paindrain\arduinolcd\test\pain drain\libraries\lvgl\src\misc\lv_area.h ****     LV_ALIGN_OUT_LEFT_BOTTOM,
  72:c:\projects\paindrain\arduinolcd\test\pain drain\libraries\lvgl\src\misc\lv_area.h ****     LV_ALIGN_OUT_RIGHT_TOP,
  73:c:\projects\paindrain\arduinolcd\test\pain drain\libraries\lvgl\src\misc\lv_area.h ****     LV_ALIGN_OUT_RIGHT_MID,
  74:c:\projects\paindrain\arduinolcd\test\pain drain\libraries\lvgl\src\misc\lv_area.h ****     LV_ALIGN_OUT_RIGHT_BOTTOM,
  75:c:\projects\paindrain\arduinolcd\test\pain drain\libraries\lvgl\src\misc\lv_area.h **** };
  76:c:\projects\paindrain\arduinolcd\test\pain drain\libraries\lvgl\src\misc\lv_area.h **** typedef uint8_t lv_align_t;
  77:c:\projects\paindrain\arduinolcd\test\pain drain\libraries\lvgl\src\misc\lv_area.h **** 
  78:c:\projects\paindrain\arduinolcd\test\pain drain\libraries\lvgl\src\misc\lv_area.h **** enum {
  79:c:\projects\paindrain\arduinolcd\test\pain drain\libraries\lvgl\src\misc\lv_area.h ****     LV_DIR_NONE     = 0x00,
  80:c:\projects\paindrain\arduinolcd\test\pain drain\libraries\lvgl\src\misc\lv_area.h ****     LV_DIR_LEFT     = (1 << 0),
  81:c:\projects\paindrain\arduinolcd\test\pain drain\libraries\lvgl\src\misc\lv_area.h ****     LV_DIR_RIGHT    = (1 << 1),
  82:c:\projects\paindrain\arduinolcd\test\pain drain\libraries\lvgl\src\misc\lv_area.h ****     LV_DIR_TOP      = (1 << 2),
  83:c:\projects\paindrain\arduinolcd\test\pain drain\libraries\lvgl\src\misc\lv_area.h ****     LV_DIR_BOTTOM   = (1 << 3),
  84:c:\projects\paindrain\arduinolcd\test\pain drain\libraries\lvgl\src\misc\lv_area.h ****     LV_DIR_HOR      = LV_DIR_LEFT | LV_DIR_RIGHT,
  85:c:\projects\paindrain\arduinolcd\test\pain drain\libraries\lvgl\src\misc\lv_area.h ****     LV_DIR_VER      = LV_DIR_TOP | LV_DIR_BOTTOM,
  86:c:\projects\paindrain\arduinolcd\test\pain drain\libraries\lvgl\src\misc\lv_area.h ****     LV_DIR_ALL      = LV_DIR_HOR | LV_DIR_VER,
  87:c:\projects\paindrain\arduinolcd\test\pain drain\libraries\lvgl\src\misc\lv_area.h **** };
  88:c:\projects\paindrain\arduinolcd\test\pain drain\libraries\lvgl\src\misc\lv_area.h **** 
  89:c:\projects\paindrain\arduinolcd\test\pain drain\libraries\lvgl\src\misc\lv_area.h **** typedef uint8_t lv_dir_t;
  90:c:\projects\paindrain\arduinolcd\test\pain drain\libraries\lvgl\src\misc\lv_area.h **** 
  91:c:\projects\paindrain\arduinolcd\test\pain drain\libraries\lvgl\src\misc\lv_area.h **** /**********************
  92:c:\projects\paindrain\arduinolcd\test\pain drain\libraries\lvgl\src\misc\lv_area.h ****  * GLOBAL PROTOTYPES
  93:c:\projects\paindrain\arduinolcd\test\pain drain\libraries\lvgl\src\misc\lv_area.h ****  **********************/
  94:c:\projects\paindrain\arduinolcd\test\pain drain\libraries\lvgl\src\misc\lv_area.h **** 
  95:c:\projects\paindrain\arduinolcd\test\pain drain\libraries\lvgl\src\misc\lv_area.h **** /**
  96:c:\projects\paindrain\arduinolcd\test\pain drain\libraries\lvgl\src\misc\lv_area.h ****  * Initialize an area
  97:c:\projects\paindrain\arduinolcd\test\pain drain\libraries\lvgl\src\misc\lv_area.h ****  * @param area_p pointer to an area
  98:c:\projects\paindrain\arduinolcd\test\pain drain\libraries\lvgl\src\misc\lv_area.h ****  * @param x1 left coordinate of the area
  99:c:\projects\paindrain\arduinolcd\test\pain drain\libraries\lvgl\src\misc\lv_area.h ****  * @param y1 top coordinate of the area
 100:c:\projects\paindrain\arduinolcd\test\pain drain\libraries\lvgl\src\misc\lv_area.h ****  * @param x2 right coordinate of the area
 101:c:\projects\paindrain\arduinolcd\test\pain drain\libraries\lvgl\src\misc\lv_area.h ****  * @param y2 bottom coordinate of the area
 102:c:\projects\paindrain\arduinolcd\test\pain drain\libraries\lvgl\src\misc\lv_area.h ****  */
 103:c:\projects\paindrain\arduinolcd\test\pain drain\libraries\lvgl\src\misc\lv_area.h **** void lv_area_set(lv_area_t * area_p, lv_coord_t x1, lv_coord_t y1, lv_coord_t x2, lv_coord_t y2);
 104:c:\projects\paindrain\arduinolcd\test\pain drain\libraries\lvgl\src\misc\lv_area.h **** 
 105:c:\projects\paindrain\arduinolcd\test\pain drain\libraries\lvgl\src\misc\lv_area.h **** /**
 106:c:\projects\paindrain\arduinolcd\test\pain drain\libraries\lvgl\src\misc\lv_area.h ****  * Copy an area
 107:c:\projects\paindrain\arduinolcd\test\pain drain\libraries\lvgl\src\misc\lv_area.h ****  * @param dest pointer to the destination area
 108:c:\projects\paindrain\arduinolcd\test\pain drain\libraries\lvgl\src\misc\lv_area.h ****  * @param src pointer to the source area
 109:c:\projects\paindrain\arduinolcd\test\pain drain\libraries\lvgl\src\misc\lv_area.h ****  */
 110:c:\projects\paindrain\arduinolcd\test\pain drain\libraries\lvgl\src\misc\lv_area.h **** inline static void lv_area_copy(lv_area_t * dest, const lv_area_t * src)
 111:c:\projects\paindrain\arduinolcd\test\pain drain\libraries\lvgl\src\misc\lv_area.h **** {
 112:c:\projects\paindrain\arduinolcd\test\pain drain\libraries\lvgl\src\misc\lv_area.h ****     dest->x1 = src->x1;
 113:c:\projects\paindrain\arduinolcd\test\pain drain\libraries\lvgl\src\misc\lv_area.h ****     dest->y1 = src->y1;
 114:c:\projects\paindrain\arduinolcd\test\pain drain\libraries\lvgl\src\misc\lv_area.h ****     dest->x2 = src->x2;
 115:c:\projects\paindrain\arduinolcd\test\pain drain\libraries\lvgl\src\misc\lv_area.h ****     dest->y2 = src->y2;
 116:c:\projects\paindrain\arduinolcd\test\pain drain\libraries\lvgl\src\misc\lv_area.h **** }
 117:c:\projects\paindrain\arduinolcd\test\pain drain\libraries\lvgl\src\misc\lv_area.h **** 
 118:c:\projects\paindrain\arduinolcd\test\pain drain\libraries\lvgl\src\misc\lv_area.h **** /**
 119:c:\projects\paindrain\arduinolcd\test\pain drain\libraries\lvgl\src\misc\lv_area.h ****  * Get the width of an area
 120:c:\projects\paindrain\arduinolcd\test\pain drain\libraries\lvgl\src\misc\lv_area.h ****  * @param area_p pointer to an area
ARM GAS  C:\Users\haske\AppData\Local\Temp\ccpgnYma.s 			page 9


 121:c:\projects\paindrain\arduinolcd\test\pain drain\libraries\lvgl\src\misc\lv_area.h ****  * @return the width of the area (if x1 == x2 -> width = 1)
 122:c:\projects\paindrain\arduinolcd\test\pain drain\libraries\lvgl\src\misc\lv_area.h ****  */
 123:c:\projects\paindrain\arduinolcd\test\pain drain\libraries\lvgl\src\misc\lv_area.h **** static inline lv_coord_t lv_area_get_width(const lv_area_t * area_p)
 124:c:\projects\paindrain\arduinolcd\test\pain drain\libraries\lvgl\src\misc\lv_area.h **** {
 125:c:\projects\paindrain\arduinolcd\test\pain drain\libraries\lvgl\src\misc\lv_area.h ****     return (lv_coord_t)(area_p->x2 - area_p->x1 + 1);
 193              		.loc 2 125 0
 194 00bc 0CAB     		add	r3, sp, #48
 195 00be 0422     		movs	r2, #4
 196 00c0 9F5E     		ldrsh	r7, [r3, r2]
 197 00c2 0022     		movs	r2, #0
 198 00c4 985E     		ldrsh	r0, [r3, r2]
 199 00c6 3F1A     		subs	r7, r7, r0
 200 00c8 0137     		adds	r7, r7, #1
 201 00ca 3AB2     		sxth	r2, r7
 202 00cc 0192     		str	r2, [sp, #4]
 203              	.LVL22:
 204              	.LBE14:
 205              	.LBE13:
 143:..\..\..\arduinoLCD\test\Pain Drain\libraries\lvgl\src\draw\sw/lv_draw_sw_line.c ****     }
 144:..\..\..\arduinoLCD\test\Pain Drain\libraries\lvgl\src\draw\sw/lv_draw_sw_line.c **** #if LV_DRAW_COMPLEX
 145:..\..\..\arduinoLCD\test\Pain Drain\libraries\lvgl\src\draw\sw/lv_draw_sw_line.c ****     /*If there other mask apply it*/
 146:..\..\..\arduinoLCD\test\Pain Drain\libraries\lvgl\src\draw\sw/lv_draw_sw_line.c ****     else {
 147:..\..\..\arduinoLCD\test\Pain Drain\libraries\lvgl\src\draw\sw/lv_draw_sw_line.c **** 
 148:..\..\..\arduinoLCD\test\Pain Drain\libraries\lvgl\src\draw\sw/lv_draw_sw_line.c ****         int32_t blend_area_w = lv_area_get_width(&blend_area);
 206              		.loc 1 148 0
 207 00ce 1700     		movs	r7, r2
 208              	.LVL23:
 149:..\..\..\arduinoLCD\test\Pain Drain\libraries\lvgl\src\draw\sw/lv_draw_sw_line.c **** 
 150:..\..\..\arduinoLCD\test\Pain Drain\libraries\lvgl\src\draw\sw/lv_draw_sw_line.c ****         lv_coord_t y2 = blend_area.y2;
 209              		.loc 1 150 0
 210 00d0 0621     		movs	r1, #6
 211 00d2 5A5E     		ldrsh	r2, [r3, r1]
 212              	.LVL24:
 213 00d4 9346     		mov	fp, r2
 214              	.LVL25:
 151:..\..\..\arduinoLCD\test\Pain Drain\libraries\lvgl\src\draw\sw/lv_draw_sw_line.c ****         blend_area.y2 = blend_area.y1;
 215              		.loc 1 151 0
 216 00d6 0221     		movs	r1, #2
 217 00d8 5A5E     		ldrsh	r2, [r3, r1]
 218 00da DA80     		strh	r2, [r3, #6]
 219              	.LVL26:
 152:..\..\..\arduinoLCD\test\Pain Drain\libraries\lvgl\src\draw\sw/lv_draw_sw_line.c **** 
 153:..\..\..\arduinoLCD\test\Pain Drain\libraries\lvgl\src\draw\sw/lv_draw_sw_line.c ****         lv_coord_t dash_start = 0;
 154:..\..\..\arduinoLCD\test\Pain Drain\libraries\lvgl\src\draw\sw/lv_draw_sw_line.c ****         if(dashed) {
 220              		.loc 1 154 0
 221 00dc 5346     		mov	r3, r10
 222 00de 002B     		cmp	r3, #0
 223 00e0 09D0     		beq	.L22
 155:..\..\..\arduinoLCD\test\Pain Drain\libraries\lvgl\src\draw\sw/lv_draw_sw_line.c ****             dash_start = (blend_area.x1) % (dsc->dash_gap + dsc->dash_width);
 224              		.loc 1 155 0
 225 00e2 0623     		movs	r3, #6
 226 00e4 E15E     		ldrsh	r1, [r4, r3]
 227 00e6 0422     		movs	r2, #4
 228 00e8 A35E     		ldrsh	r3, [r4, r2]
 229 00ea C918     		adds	r1, r1, r3
 230 00ec FFF7FEFF 		bl	__aeabi_idivmod
 231              	.LVL27:
ARM GAS  C:\Users\haske\AppData\Local\Temp\ccpgnYma.s 			page 10


 232 00f0 0BB2     		sxth	r3, r1
 233 00f2 0393     		str	r3, [sp, #12]
 234              	.LVL28:
 235 00f4 01E0     		b	.L9
 236              	.LVL29:
 237              	.L22:
 153:..\..\..\arduinoLCD\test\Pain Drain\libraries\lvgl\src\draw\sw/lv_draw_sw_line.c ****         if(dashed) {
 238              		.loc 1 153 0
 239 00f6 0023     		movs	r3, #0
 240 00f8 0393     		str	r3, [sp, #12]
 241              	.LVL30:
 242              	.L9:
 156:..\..\..\arduinoLCD\test\Pain Drain\libraries\lvgl\src\draw\sw/lv_draw_sw_line.c ****         }
 157:..\..\..\arduinoLCD\test\Pain Drain\libraries\lvgl\src\draw\sw/lv_draw_sw_line.c **** 
 158:..\..\..\arduinoLCD\test\Pain Drain\libraries\lvgl\src\draw\sw/lv_draw_sw_line.c ****         lv_opa_t * mask_buf = lv_mem_buf_get(blend_area_w);
 243              		.loc 1 158 0
 244 00fa 019B     		ldr	r3, [sp, #4]
 245 00fc 0293     		str	r3, [sp, #8]
 246 00fe 1800     		movs	r0, r3
 247 0100 FFF7FEFF 		bl	lv_mem_buf_get
 248              	.LVL31:
 159:..\..\..\arduinoLCD\test\Pain Drain\libraries\lvgl\src\draw\sw/lv_draw_sw_line.c ****         blend_dsc.mask_buf = mask_buf;
 249              		.loc 1 159 0
 250 0104 0890     		str	r0, [sp, #32]
 160:..\..\..\arduinoLCD\test\Pain Drain\libraries\lvgl\src\draw\sw/lv_draw_sw_line.c ****         blend_dsc.mask_area = &blend_area;
 251              		.loc 1 160 0
 252 0106 0CAB     		add	r3, sp, #48
 253 0108 0A93     		str	r3, [sp, #40]
 161:..\..\..\arduinoLCD\test\Pain Drain\libraries\lvgl\src\draw\sw/lv_draw_sw_line.c ****         int32_t h;
 162:..\..\..\arduinoLCD\test\Pain Drain\libraries\lvgl\src\draw\sw/lv_draw_sw_line.c ****         for(h = blend_area.y1; h <= y2; h++) {
 254              		.loc 1 162 0
 255 010a 0225     		movs	r5, #2
 256 010c 5D5F     		ldrsh	r5, [r3, r5]
 257              	.LVL32:
 258 010e 0090     		str	r0, [sp]
 259 0110 3E00     		movs	r6, r7
 260              	.LVL33:
 261 0112 2700     		movs	r7, r4
 262              	.LVL34:
 263 0114 5446     		mov	r4, r10
 264              	.LVL35:
 265 0116 43E0     		b	.L10
 266              	.LVL36:
 267              	.L16:
 163:..\..\..\arduinoLCD\test\Pain Drain\libraries\lvgl\src\draw\sw/lv_draw_sw_line.c ****             lv_memset_ff(mask_buf, blend_area_w);
 268              		.loc 1 163 0
 269 0118 0299     		ldr	r1, [sp, #8]
 270 011a 0098     		ldr	r0, [sp]
 271 011c FFF7FEFF 		bl	lv_memset_ff
 272              	.LVL37:
 164:..\..\..\arduinoLCD\test\Pain Drain\libraries\lvgl\src\draw\sw/lv_draw_sw_line.c ****             blend_dsc.mask_res = lv_draw_mask_apply(mask_buf, blend_area.x1, h, blend_area_w);
 273              		.loc 1 164 0
 274 0120 2AB2     		sxth	r2, r5
 275 0122 0CAB     		add	r3, sp, #48
 276 0124 0021     		movs	r1, #0
 277 0126 595E     		ldrsh	r1, [r3, r1]
 278 0128 019B     		ldr	r3, [sp, #4]
ARM GAS  C:\Users\haske\AppData\Local\Temp\ccpgnYma.s 			page 11


 279 012a 0098     		ldr	r0, [sp]
 280 012c FFF7FEFF 		bl	lv_draw_mask_apply
 281              	.LVL38:
 282 0130 05AB     		add	r3, sp, #20
 283 0132 1874     		strb	r0, [r3, #16]
 165:..\..\..\arduinoLCD\test\Pain Drain\libraries\lvgl\src\draw\sw/lv_draw_sw_line.c **** 
 166:..\..\..\arduinoLCD\test\Pain Drain\libraries\lvgl\src\draw\sw/lv_draw_sw_line.c ****             if(dashed) {
 284              		.loc 1 166 0
 285 0134 002C     		cmp	r4, #0
 286 0136 25D0     		beq	.L11
 167:..\..\..\arduinoLCD\test\Pain Drain\libraries\lvgl\src\draw\sw/lv_draw_sw_line.c ****                 if(blend_dsc.mask_res != LV_DRAW_MASK_RES_TRANSP) {
 287              		.loc 1 167 0
 288 0138 0028     		cmp	r0, #0
 289 013a 1AD1     		bne	.L23
 290 013c 22E0     		b	.L11
 291              	.LVL39:
 292              	.L15:
 293              	.LBB15:
 168:..\..\..\arduinoLCD\test\Pain Drain\libraries\lvgl\src\draw\sw/lv_draw_sw_line.c ****                     lv_coord_t dash_cnt = dash_start;
 169:..\..\..\arduinoLCD\test\Pain Drain\libraries\lvgl\src\draw\sw/lv_draw_sw_line.c ****                     lv_coord_t i;
 170:..\..\..\arduinoLCD\test\Pain Drain\libraries\lvgl\src\draw\sw/lv_draw_sw_line.c ****                     for(i = 0; i < blend_area_w; i++, dash_cnt++) {
 171:..\..\..\arduinoLCD\test\Pain Drain\libraries\lvgl\src\draw\sw/lv_draw_sw_line.c ****                         if(dash_cnt <= dsc->dash_width) {
 294              		.loc 1 171 0
 295 013e 0421     		movs	r1, #4
 296 0140 7B5E     		ldrsh	r3, [r7, r1]
 297 0142 9A42     		cmp	r2, r3
 298 0144 04DC     		bgt	.L13
 299              	.LBB16:
 172:..\..\..\arduinoLCD\test\Pain Drain\libraries\lvgl\src\draw\sw/lv_draw_sw_line.c ****                             int16_t diff = dsc->dash_width - dash_cnt;
 300              		.loc 1 172 0
 301 0146 9A1A     		subs	r2, r3, r2
 302              	.LVL40:
 303 0148 92B2     		uxth	r2, r2
 304              	.LVL41:
 173:..\..\..\arduinoLCD\test\Pain Drain\libraries\lvgl\src\draw\sw/lv_draw_sw_line.c ****                             i += diff;
 305              		.loc 1 173 0
 306 014a 1018     		adds	r0, r2, r0
 307              	.LVL42:
 308 014c 00B2     		sxth	r0, r0
 309              	.LVL43:
 310              	.LBE16:
 311 014e 0BE0     		b	.L14
 312              	.LVL44:
 313              	.L13:
 174:..\..\..\arduinoLCD\test\Pain Drain\libraries\lvgl\src\draw\sw/lv_draw_sw_line.c ****                             dash_cnt += diff;
 175:..\..\..\arduinoLCD\test\Pain Drain\libraries\lvgl\src\draw\sw/lv_draw_sw_line.c ****                         }
 176:..\..\..\arduinoLCD\test\Pain Drain\libraries\lvgl\src\draw\sw/lv_draw_sw_line.c ****                         else if(dash_cnt >= dsc->dash_gap + dsc->dash_width) {
 314              		.loc 1 176 0
 315 0150 0624     		movs	r4, #6
 316 0152 395F     		ldrsh	r1, [r7, r4]
 317 0154 CB18     		adds	r3, r1, r3
 318 0156 9A42     		cmp	r2, r3
 319 0158 05DA     		bge	.L24
 177:..\..\..\arduinoLCD\test\Pain Drain\libraries\lvgl\src\draw\sw/lv_draw_sw_line.c ****                             dash_cnt = 0;
 178:..\..\..\arduinoLCD\test\Pain Drain\libraries\lvgl\src\draw\sw/lv_draw_sw_line.c ****                         }
 179:..\..\..\arduinoLCD\test\Pain Drain\libraries\lvgl\src\draw\sw/lv_draw_sw_line.c ****                         else {
 180:..\..\..\arduinoLCD\test\Pain Drain\libraries\lvgl\src\draw\sw/lv_draw_sw_line.c ****                             mask_buf[i] = 0x00;
ARM GAS  C:\Users\haske\AppData\Local\Temp\ccpgnYma.s 			page 12


 320              		.loc 1 180 0
 321 015a 009B     		ldr	r3, [sp]
 322 015c 1B18     		adds	r3, r3, r0
 323 015e 0021     		movs	r1, #0
 324 0160 1970     		strb	r1, [r3]
 325 0162 1300     		movs	r3, r2
 326 0164 00E0     		b	.L14
 327              	.L24:
 177:..\..\..\arduinoLCD\test\Pain Drain\libraries\lvgl\src\draw\sw/lv_draw_sw_line.c ****                             dash_cnt = 0;
 328              		.loc 1 177 0
 329 0166 0023     		movs	r3, #0
 330              	.LVL45:
 331              	.L14:
 170:..\..\..\arduinoLCD\test\Pain Drain\libraries\lvgl\src\draw\sw/lv_draw_sw_line.c ****                         if(dash_cnt <= dsc->dash_width) {
 332              		.loc 1 170 0 discriminator 2
 333 0168 0130     		adds	r0, r0, #1
 334              	.LVL46:
 335 016a 00B2     		sxth	r0, r0
 336              	.LVL47:
 337 016c 0133     		adds	r3, r3, #1
 338              	.LVL48:
 339 016e 1AB2     		sxth	r2, r3
 340              	.LVL49:
 341 0170 02E0     		b	.L12
 342              	.LVL50:
 343              	.L23:
 344              	.LBE15:
 345 0172 039A     		ldr	r2, [sp, #12]
 346 0174 0020     		movs	r0, #0
 347 0176 A446     		mov	ip, r4
 348              	.L12:
 349              	.LVL51:
 350              	.LBB17:
 170:..\..\..\arduinoLCD\test\Pain Drain\libraries\lvgl\src\draw\sw/lv_draw_sw_line.c ****                         if(dash_cnt <= dsc->dash_width) {
 351              		.loc 1 170 0 is_stmt 0 discriminator 1
 352 0178 8642     		cmp	r6, r0
 353 017a E0DC     		bgt	.L15
 354 017c 6446     		mov	r4, ip
 181:..\..\..\arduinoLCD\test\Pain Drain\libraries\lvgl\src\draw\sw/lv_draw_sw_line.c ****                         }
 182:..\..\..\arduinoLCD\test\Pain Drain\libraries\lvgl\src\draw\sw/lv_draw_sw_line.c ****                     }
 183:..\..\..\arduinoLCD\test\Pain Drain\libraries\lvgl\src\draw\sw/lv_draw_sw_line.c **** 
 184:..\..\..\arduinoLCD\test\Pain Drain\libraries\lvgl\src\draw\sw/lv_draw_sw_line.c ****                     blend_dsc.mask_res = LV_DRAW_MASK_RES_CHANGED;
 355              		.loc 1 184 0 is_stmt 1
 356 017e 0222     		movs	r2, #2
 357              	.LVL52:
 358 0180 05AB     		add	r3, sp, #20
 359 0182 1A74     		strb	r2, [r3, #16]
 360              	.LVL53:
 361              	.L11:
 362              	.LBE17:
 185:..\..\..\arduinoLCD\test\Pain Drain\libraries\lvgl\src\draw\sw/lv_draw_sw_line.c ****                 }
 186:..\..\..\arduinoLCD\test\Pain Drain\libraries\lvgl\src\draw\sw/lv_draw_sw_line.c ****             }
 187:..\..\..\arduinoLCD\test\Pain Drain\libraries\lvgl\src\draw\sw/lv_draw_sw_line.c **** 
 188:..\..\..\arduinoLCD\test\Pain Drain\libraries\lvgl\src\draw\sw/lv_draw_sw_line.c ****             lv_draw_sw_blend(draw_ctx, &blend_dsc);
 363              		.loc 1 188 0 discriminator 2
 364 0184 05A9     		add	r1, sp, #20
 365 0186 4846     		mov	r0, r9
ARM GAS  C:\Users\haske\AppData\Local\Temp\ccpgnYma.s 			page 13


 366 0188 FFF7FEFF 		bl	lv_draw_sw_blend
 367              	.LVL54:
 189:..\..\..\arduinoLCD\test\Pain Drain\libraries\lvgl\src\draw\sw/lv_draw_sw_line.c **** 
 190:..\..\..\arduinoLCD\test\Pain Drain\libraries\lvgl\src\draw\sw/lv_draw_sw_line.c ****             blend_area.y1++;
 368              		.loc 1 190 0 discriminator 2
 369 018c 0CAB     		add	r3, sp, #48
 370 018e 0221     		movs	r1, #2
 371 0190 5A5E     		ldrsh	r2, [r3, r1]
 372 0192 0132     		adds	r2, r2, #1
 373 0194 5A80     		strh	r2, [r3, #2]
 191:..\..\..\arduinoLCD\test\Pain Drain\libraries\lvgl\src\draw\sw/lv_draw_sw_line.c ****             blend_area.y2++;
 374              		.loc 1 191 0 discriminator 2
 375 0196 0621     		movs	r1, #6
 376 0198 5A5E     		ldrsh	r2, [r3, r1]
 377 019a 0132     		adds	r2, r2, #1
 378 019c DA80     		strh	r2, [r3, #6]
 162:..\..\..\arduinoLCD\test\Pain Drain\libraries\lvgl\src\draw\sw/lv_draw_sw_line.c ****             lv_memset_ff(mask_buf, blend_area_w);
 379              		.loc 1 162 0 discriminator 2
 380 019e 0135     		adds	r5, r5, #1
 381              	.LVL55:
 382              	.L10:
 162:..\..\..\arduinoLCD\test\Pain Drain\libraries\lvgl\src\draw\sw/lv_draw_sw_line.c ****             lv_memset_ff(mask_buf, blend_area_w);
 383              		.loc 1 162 0 is_stmt 0 discriminator 1
 384 01a0 5D45     		cmp	r5, fp
 385 01a2 B9DD     		ble	.L16
 386 01a4 009E     		ldr	r6, [sp]
 387              	.LVL56:
 192:..\..\..\arduinoLCD\test\Pain Drain\libraries\lvgl\src\draw\sw/lv_draw_sw_line.c ****         }
 193:..\..\..\arduinoLCD\test\Pain Drain\libraries\lvgl\src\draw\sw/lv_draw_sw_line.c ****         lv_mem_buf_release(mask_buf);
 388              		.loc 1 193 0 is_stmt 1
 389 01a6 3000     		movs	r0, r6
 390 01a8 FFF7FEFF 		bl	lv_mem_buf_release
 391              	.LVL57:
 392              	.L1:
 393              	.LBE12:
 194:..\..\..\arduinoLCD\test\Pain Drain\libraries\lvgl\src\draw\sw/lv_draw_sw_line.c ****     }
 195:..\..\..\arduinoLCD\test\Pain Drain\libraries\lvgl\src\draw\sw/lv_draw_sw_line.c **** #endif /*LV_DRAW_COMPLEX*/
 196:..\..\..\arduinoLCD\test\Pain Drain\libraries\lvgl\src\draw\sw/lv_draw_sw_line.c **** }
 394              		.loc 1 196 0
 395 01ac 0EB0     		add	sp, sp, #56
 396              		@ sp needed
 397              	.LVL58:
 398 01ae 1CBC     		pop	{r2, r3, r4}
 399 01b0 9146     		mov	r9, r2
 400 01b2 9A46     		mov	r10, r3
 401 01b4 A346     		mov	fp, r4
 402 01b6 F0BD     		pop	{r4, r5, r6, r7, pc}
 403              		.cfi_endproc
 404              	.LFE160:
 405              		.size	draw_line_hor, .-draw_line_hor
 406              		.section	.text.draw_line_ver,"ax",%progbits
 407              		.align	2
 408              		.code	16
 409              		.thumb_func
 410              		.type	draw_line_ver, %function
 411              	draw_line_ver:
 412              	.LFB161:
ARM GAS  C:\Users\haske\AppData\Local\Temp\ccpgnYma.s 			page 14


 197:..\..\..\arduinoLCD\test\Pain Drain\libraries\lvgl\src\draw\sw/lv_draw_sw_line.c **** 
 198:..\..\..\arduinoLCD\test\Pain Drain\libraries\lvgl\src\draw\sw/lv_draw_sw_line.c **** LV_ATTRIBUTE_FAST_MEM static void draw_line_ver(struct _lv_draw_ctx_t * draw_ctx, const lv_draw_lin
 199:..\..\..\arduinoLCD\test\Pain Drain\libraries\lvgl\src\draw\sw/lv_draw_sw_line.c ****                                                 const lv_point_t * point1, const lv_point_t * point
 200:..\..\..\arduinoLCD\test\Pain Drain\libraries\lvgl\src\draw\sw/lv_draw_sw_line.c **** {
 413              		.loc 1 200 0
 414              		.cfi_startproc
 415              		@ args = 0, pretend = 0, frame = 56
 416              		@ frame_needed = 0, uses_anonymous_args = 0
 417              	.LVL59:
 418 0000 F0B5     		push	{r4, r5, r6, r7, lr}
 419              		.cfi_def_cfa_offset 20
 420              		.cfi_offset 4, -20
 421              		.cfi_offset 5, -16
 422              		.cfi_offset 6, -12
 423              		.cfi_offset 7, -8
 424              		.cfi_offset 14, -4
 425 0002 5746     		mov	r7, r10
 426 0004 4E46     		mov	r6, r9
 427 0006 4546     		mov	r5, r8
 428 0008 E0B4     		push	{r5, r6, r7}
 429              		.cfi_def_cfa_offset 32
 430              		.cfi_offset 8, -32
 431              		.cfi_offset 9, -28
 432              		.cfi_offset 10, -24
 433 000a 8EB0     		sub	sp, sp, #56
 434              		.cfi_def_cfa_offset 88
 435 000c 8046     		mov	r8, r0
 436 000e 0D00     		movs	r5, r1
 201:..\..\..\arduinoLCD\test\Pain Drain\libraries\lvgl\src\draw\sw/lv_draw_sw_line.c ****     int32_t w = dsc->width - 1;
 437              		.loc 1 201 0
 438 0010 0220     		movs	r0, #2
 439 0012 095E     		ldrsh	r1, [r1, r0]
 440              	.LVL60:
 441 0014 0139     		subs	r1, r1, #1
 442              	.LVL61:
 202:..\..\..\arduinoLCD\test\Pain Drain\libraries\lvgl\src\draw\sw/lv_draw_sw_line.c ****     int32_t w_half0 = w >> 1;
 443              		.loc 1 202 0
 444 0016 4810     		asrs	r0, r1, #1
 445              	.LVL62:
 203:..\..\..\arduinoLCD\test\Pain Drain\libraries\lvgl\src\draw\sw/lv_draw_sw_line.c ****     int32_t w_half1 = w_half0 + (w & 0x1); /*Compensate rounding error*/
 446              		.loc 1 203 0
 447 0018 0124     		movs	r4, #1
 448 001a 2140     		ands	r1, r4
 449              	.LVL63:
 450 001c 4118     		adds	r1, r0, r1
 451              	.LVL64:
 204:..\..\..\arduinoLCD\test\Pain Drain\libraries\lvgl\src\draw\sw/lv_draw_sw_line.c **** 
 205:..\..\..\arduinoLCD\test\Pain Drain\libraries\lvgl\src\draw\sw/lv_draw_sw_line.c ****     lv_area_t blend_area;
 206:..\..\..\arduinoLCD\test\Pain Drain\libraries\lvgl\src\draw\sw/lv_draw_sw_line.c ****     blend_area.x1 = point1->x - w_half1;
 452              		.loc 1 206 0
 453 001e 0024     		movs	r4, #0
 454 0020 165F     		ldrsh	r6, [r2, r4]
 455 0022 0CAC     		add	r4, sp, #48
 456 0024 711A     		subs	r1, r6, r1
 457              	.LVL65:
 458 0026 2180     		strh	r1, [r4]
 459              	.LVL66:
ARM GAS  C:\Users\haske\AppData\Local\Temp\ccpgnYma.s 			page 15


 207:..\..\..\arduinoLCD\test\Pain Drain\libraries\lvgl\src\draw\sw/lv_draw_sw_line.c ****     blend_area.x2 = point1->x + w_half0;
 460              		.loc 1 207 0
 461 0028 3018     		adds	r0, r6, r0
 462              	.LVL67:
 463 002a A080     		strh	r0, [r4, #4]
 208:..\..\..\arduinoLCD\test\Pain Drain\libraries\lvgl\src\draw\sw/lv_draw_sw_line.c ****     blend_area.y1 = LV_MIN(point1->y, point2->y);
 464              		.loc 1 208 0
 465 002c 0220     		movs	r0, #2
 466 002e 195E     		ldrsh	r1, [r3, r0]
 467 0030 0220     		movs	r0, #2
 468 0032 145E     		ldrsh	r4, [r2, r0]
 469 0034 081C     		adds	r0, r1, #0
 470 0036 A142     		cmp	r1, r4
 471 0038 00DD     		ble	.L26
 472 003a 201C     		adds	r0, r4, #0
 473              	.L26:
 474 003c 0CA9     		add	r1, sp, #48
 475 003e 4880     		strh	r0, [r1, #2]
 209:..\..\..\arduinoLCD\test\Pain Drain\libraries\lvgl\src\draw\sw/lv_draw_sw_line.c ****     blend_area.y2 = LV_MAX(point1->y, point2->y) - 1;
 476              		.loc 1 209 0
 477 0040 0221     		movs	r1, #2
 478 0042 595E     		ldrsh	r1, [r3, r1]
 479              	.LVL68:
 480 0044 0223     		movs	r3, #2
 481 0046 D25E     		ldrsh	r2, [r2, r3]
 482              	.LVL69:
 483 0048 0B1C     		adds	r3, r1, #0
 484 004a 9142     		cmp	r1, r2
 485 004c 00DA     		bge	.L27
 486 004e 131C     		adds	r3, r2, #0
 487              	.L27:
 488 0050 0CA8     		add	r0, sp, #48
 489 0052 013B     		subs	r3, r3, #1
 490 0054 C380     		strh	r3, [r0, #6]
 210:..\..\..\arduinoLCD\test\Pain Drain\libraries\lvgl\src\draw\sw/lv_draw_sw_line.c **** 
 211:..\..\..\arduinoLCD\test\Pain Drain\libraries\lvgl\src\draw\sw/lv_draw_sw_line.c ****     bool is_common;
 212:..\..\..\arduinoLCD\test\Pain Drain\libraries\lvgl\src\draw\sw/lv_draw_sw_line.c ****     is_common = _lv_area_intersect(&blend_area, &blend_area, draw_ctx->clip_area);
 491              		.loc 1 212 0
 492 0056 4346     		mov	r3, r8
 493 0058 9A68     		ldr	r2, [r3, #8]
 494 005a 0100     		movs	r1, r0
 495 005c FFF7FEFF 		bl	_lv_area_intersect
 496              	.LVL70:
 213:..\..\..\arduinoLCD\test\Pain Drain\libraries\lvgl\src\draw\sw/lv_draw_sw_line.c ****     if(!is_common) return;
 497              		.loc 1 213 0
 498 0060 0028     		cmp	r0, #0
 499 0062 00D1     		bne	.LCB477
 500 0064 90E0     		b	.L25	@long jump
 501              	.LCB477:
 214:..\..\..\arduinoLCD\test\Pain Drain\libraries\lvgl\src\draw\sw/lv_draw_sw_line.c **** 
 215:..\..\..\arduinoLCD\test\Pain Drain\libraries\lvgl\src\draw\sw/lv_draw_sw_line.c ****     bool dashed = dsc->dash_gap && dsc->dash_width ? true : false;
 502              		.loc 1 215 0
 503 0066 0622     		movs	r2, #6
 504 0068 AB5E     		ldrsh	r3, [r5, r2]
 505 006a 002B     		cmp	r3, #0
 506 006c 04D0     		beq	.L40
 507              		.loc 1 215 0 is_stmt 0 discriminator 1
ARM GAS  C:\Users\haske\AppData\Local\Temp\ccpgnYma.s 			page 16


 508 006e 0422     		movs	r2, #4
 509 0070 AB5E     		ldrsh	r3, [r5, r2]
 510 0072 002B     		cmp	r3, #0
 511 0074 02D1     		bne	.L41
 512 0076 02E0     		b	.L29
 513              	.L40:
 514              		.loc 1 215 0
 515 0078 0023     		movs	r3, #0
 516 007a 00E0     		b	.L29
 517              	.L41:
 518 007c 0123     		movs	r3, #1
 519              	.L29:
 520              		.loc 1 215 0 discriminator 6
 521 007e 1E00     		movs	r6, r3
 522              	.LVL71:
 216:..\..\..\arduinoLCD\test\Pain Drain\libraries\lvgl\src\draw\sw/lv_draw_sw_line.c ****     bool simple_mode = true;
 217:..\..\..\arduinoLCD\test\Pain Drain\libraries\lvgl\src\draw\sw/lv_draw_sw_line.c ****     if(lv_draw_mask_is_any(&blend_area)) simple_mode = false;
 523              		.loc 1 217 0 is_stmt 1 discriminator 6
 524 0080 0CA8     		add	r0, sp, #48
 525              	.LVL72:
 526 0082 FFF7FEFF 		bl	lv_draw_mask_is_any
 527              	.LVL73:
 528 0086 0028     		cmp	r0, #0
 529 0088 03D1     		bne	.L42
 218:..\..\..\arduinoLCD\test\Pain Drain\libraries\lvgl\src\draw\sw/lv_draw_sw_line.c ****     else if(dashed) simple_mode = false;
 530              		.loc 1 218 0
 531 008a 002E     		cmp	r6, #0
 532 008c 03D1     		bne	.L43
 216:..\..\..\arduinoLCD\test\Pain Drain\libraries\lvgl\src\draw\sw/lv_draw_sw_line.c ****     bool simple_mode = true;
 533              		.loc 1 216 0
 534 008e 0127     		movs	r7, #1
 535 0090 02E0     		b	.L30
 536              	.L42:
 217:..\..\..\arduinoLCD\test\Pain Drain\libraries\lvgl\src\draw\sw/lv_draw_sw_line.c ****     else if(dashed) simple_mode = false;
 537              		.loc 1 217 0
 538 0092 0027     		movs	r7, #0
 539 0094 00E0     		b	.L30
 540              	.L43:
 541              		.loc 1 218 0
 542 0096 0027     		movs	r7, #0
 543              	.L30:
 544              	.LVL74:
 219:..\..\..\arduinoLCD\test\Pain Drain\libraries\lvgl\src\draw\sw/lv_draw_sw_line.c **** 
 220:..\..\..\arduinoLCD\test\Pain Drain\libraries\lvgl\src\draw\sw/lv_draw_sw_line.c ****     lv_draw_sw_blend_dsc_t blend_dsc;
 221:..\..\..\arduinoLCD\test\Pain Drain\libraries\lvgl\src\draw\sw/lv_draw_sw_line.c ****     lv_memset_00(&blend_dsc, sizeof(blend_dsc));
 545              		.loc 1 221 0
 546 0098 05AC     		add	r4, sp, #20
 547 009a 1C21     		movs	r1, #28
 548 009c 2000     		movs	r0, r4
 549 009e FFF7FEFF 		bl	lv_memset_00
 550              	.LVL75:
 222:..\..\..\arduinoLCD\test\Pain Drain\libraries\lvgl\src\draw\sw/lv_draw_sw_line.c ****     blend_dsc.blend_area = &blend_area;
 551              		.loc 1 222 0
 552 00a2 0CAB     		add	r3, sp, #48
 553 00a4 0593     		str	r3, [sp, #20]
 223:..\..\..\arduinoLCD\test\Pain Drain\libraries\lvgl\src\draw\sw/lv_draw_sw_line.c ****     blend_dsc.color = dsc->color;
 554              		.loc 1 223 0
ARM GAS  C:\Users\haske\AppData\Local\Temp\ccpgnYma.s 			page 17


 555 00a6 2B88     		ldrh	r3, [r5]
 556 00a8 2381     		strh	r3, [r4, #8]
 224:..\..\..\arduinoLCD\test\Pain Drain\libraries\lvgl\src\draw\sw/lv_draw_sw_line.c ****     blend_dsc.opa = dsc->opa;
 557              		.loc 1 224 0
 558 00aa 2B7A     		ldrb	r3, [r5, #8]
 559 00ac 2376     		strb	r3, [r4, #24]
 225:..\..\..\arduinoLCD\test\Pain Drain\libraries\lvgl\src\draw\sw/lv_draw_sw_line.c **** 
 226:..\..\..\arduinoLCD\test\Pain Drain\libraries\lvgl\src\draw\sw/lv_draw_sw_line.c ****     /*If there is no mask then simply draw a rectangle*/
 227:..\..\..\arduinoLCD\test\Pain Drain\libraries\lvgl\src\draw\sw/lv_draw_sw_line.c ****     if(simple_mode) {
 560              		.loc 1 227 0
 561 00ae 002F     		cmp	r7, #0
 562 00b0 04D0     		beq	.L31
 228:..\..\..\arduinoLCD\test\Pain Drain\libraries\lvgl\src\draw\sw/lv_draw_sw_line.c ****         lv_draw_sw_blend(draw_ctx, &blend_dsc);
 563              		.loc 1 228 0
 564 00b2 05A9     		add	r1, sp, #20
 565 00b4 4046     		mov	r0, r8
 566 00b6 FFF7FEFF 		bl	lv_draw_sw_blend
 567              	.LVL76:
 568 00ba 65E0     		b	.L25
 569              	.L31:
 570              	.LVL77:
 571              	.LBB18:
 572              	.LBB19:
 573              	.LBB20:
 574              		.loc 2 125 0
 575 00bc 0CAC     		add	r4, sp, #48
 576              	.LVL78:
 577 00be 0422     		movs	r2, #4
 578 00c0 A35E     		ldrsh	r3, [r4, r2]
 579 00c2 0022     		movs	r2, #0
 580 00c4 A75E     		ldrsh	r7, [r4, r2]
 581              	.LVL79:
 582 00c6 DF1B     		subs	r7, r3, r7
 583 00c8 0137     		adds	r7, r7, #1
 584 00ca 3BB2     		sxth	r3, r7
 585 00cc 1A00     		movs	r2, r3
 586 00ce 0393     		str	r3, [sp, #12]
 587              	.LVL80:
 588              	.LBE20:
 589              	.LBE19:
 229:..\..\..\arduinoLCD\test\Pain Drain\libraries\lvgl\src\draw\sw/lv_draw_sw_line.c ****     }
 230:..\..\..\arduinoLCD\test\Pain Drain\libraries\lvgl\src\draw\sw/lv_draw_sw_line.c **** 
 231:..\..\..\arduinoLCD\test\Pain Drain\libraries\lvgl\src\draw\sw/lv_draw_sw_line.c **** #if LV_DRAW_COMPLEX
 232:..\..\..\arduinoLCD\test\Pain Drain\libraries\lvgl\src\draw\sw/lv_draw_sw_line.c ****     /*If there other mask apply it*/
 233:..\..\..\arduinoLCD\test\Pain Drain\libraries\lvgl\src\draw\sw/lv_draw_sw_line.c ****     else {
 234:..\..\..\arduinoLCD\test\Pain Drain\libraries\lvgl\src\draw\sw/lv_draw_sw_line.c ****         int32_t draw_area_w = lv_area_get_width(&blend_area);
 235:..\..\..\arduinoLCD\test\Pain Drain\libraries\lvgl\src\draw\sw/lv_draw_sw_line.c **** 
 236:..\..\..\arduinoLCD\test\Pain Drain\libraries\lvgl\src\draw\sw/lv_draw_sw_line.c ****         lv_coord_t y2 = blend_area.y2;
 590              		.loc 1 236 0
 591 00d0 0621     		movs	r1, #6
 592 00d2 635E     		ldrsh	r3, [r4, r1]
 593 00d4 9A46     		mov	r10, r3
 594              	.LVL81:
 237:..\..\..\arduinoLCD\test\Pain Drain\libraries\lvgl\src\draw\sw/lv_draw_sw_line.c ****         blend_area.y2 = blend_area.y1;
 595              		.loc 1 237 0
 596 00d6 0221     		movs	r1, #2
 597 00d8 635E     		ldrsh	r3, [r4, r1]
ARM GAS  C:\Users\haske\AppData\Local\Temp\ccpgnYma.s 			page 18


 598 00da E380     		strh	r3, [r4, #6]
 238:..\..\..\arduinoLCD\test\Pain Drain\libraries\lvgl\src\draw\sw/lv_draw_sw_line.c **** 
 239:..\..\..\arduinoLCD\test\Pain Drain\libraries\lvgl\src\draw\sw/lv_draw_sw_line.c ****         lv_opa_t * mask_buf = lv_mem_buf_get(draw_area_w);
 599              		.loc 1 239 0
 600 00dc 0292     		str	r2, [sp, #8]
 601 00de 1000     		movs	r0, r2
 602 00e0 FFF7FEFF 		bl	lv_mem_buf_get
 603              	.LVL82:
 604 00e4 0190     		str	r0, [sp, #4]
 605              	.LVL83:
 240:..\..\..\arduinoLCD\test\Pain Drain\libraries\lvgl\src\draw\sw/lv_draw_sw_line.c ****         blend_dsc.mask_buf = mask_buf;
 606              		.loc 1 240 0
 607 00e6 0890     		str	r0, [sp, #32]
 241:..\..\..\arduinoLCD\test\Pain Drain\libraries\lvgl\src\draw\sw/lv_draw_sw_line.c ****         blend_dsc.mask_area = &blend_area;
 608              		.loc 1 241 0
 609 00e8 0A94     		str	r4, [sp, #40]
 610              	.LVL84:
 242:..\..\..\arduinoLCD\test\Pain Drain\libraries\lvgl\src\draw\sw/lv_draw_sw_line.c **** 
 243:..\..\..\arduinoLCD\test\Pain Drain\libraries\lvgl\src\draw\sw/lv_draw_sw_line.c ****         lv_coord_t dash_start = 0;
 244:..\..\..\arduinoLCD\test\Pain Drain\libraries\lvgl\src\draw\sw/lv_draw_sw_line.c ****         if(dashed) {
 611              		.loc 1 244 0
 612 00ea 002E     		cmp	r6, #0
 613 00ec 0BD0     		beq	.L44
 245:..\..\..\arduinoLCD\test\Pain Drain\libraries\lvgl\src\draw\sw/lv_draw_sw_line.c ****             dash_start = (blend_area.y1) % (dsc->dash_gap + dsc->dash_width);
 614              		.loc 1 245 0
 615 00ee 0CAB     		add	r3, sp, #48
 616 00f0 0220     		movs	r0, #2
 617 00f2 185E     		ldrsh	r0, [r3, r0]
 618              	.LVL85:
 619 00f4 0623     		movs	r3, #6
 620 00f6 E95E     		ldrsh	r1, [r5, r3]
 621 00f8 0422     		movs	r2, #4
 622 00fa AB5E     		ldrsh	r3, [r5, r2]
 623 00fc C918     		adds	r1, r1, r3
 624 00fe FFF7FEFF 		bl	__aeabi_idivmod
 625              	.LVL86:
 626 0102 0FB2     		sxth	r7, r1
 627              	.LVL87:
 628 0104 00E0     		b	.L33
 629              	.LVL88:
 630              	.L44:
 243:..\..\..\arduinoLCD\test\Pain Drain\libraries\lvgl\src\draw\sw/lv_draw_sw_line.c ****         if(dashed) {
 631              		.loc 1 243 0
 632 0106 0027     		movs	r7, #0
 633              	.LVL89:
 634              	.L33:
 246:..\..\..\arduinoLCD\test\Pain Drain\libraries\lvgl\src\draw\sw/lv_draw_sw_line.c ****         }
 247:..\..\..\arduinoLCD\test\Pain Drain\libraries\lvgl\src\draw\sw/lv_draw_sw_line.c **** 
 248:..\..\..\arduinoLCD\test\Pain Drain\libraries\lvgl\src\draw\sw/lv_draw_sw_line.c ****         lv_coord_t dash_cnt = dash_start;
 249:..\..\..\arduinoLCD\test\Pain Drain\libraries\lvgl\src\draw\sw/lv_draw_sw_line.c **** 
 250:..\..\..\arduinoLCD\test\Pain Drain\libraries\lvgl\src\draw\sw/lv_draw_sw_line.c ****         int32_t h;
 251:..\..\..\arduinoLCD\test\Pain Drain\libraries\lvgl\src\draw\sw/lv_draw_sw_line.c ****         for(h = blend_area.y1; h <= y2; h++) {
 635              		.loc 1 251 0
 636 0108 0CAB     		add	r3, sp, #48
 637 010a 0224     		movs	r4, #2
 638 010c 1C5F     		ldrsh	r4, [r3, r4]
 639              	.LVL90:
ARM GAS  C:\Users\haske\AppData\Local\Temp\ccpgnYma.s 			page 19


 640 010e A946     		mov	r9, r5
 641 0110 3500     		movs	r5, r6
 642              	.LVL91:
 643 0112 5646     		mov	r6, r10
 644              	.LVL92:
 645 0114 33E0     		b	.L34
 646              	.LVL93:
 647              	.L38:
 252:..\..\..\arduinoLCD\test\Pain Drain\libraries\lvgl\src\draw\sw/lv_draw_sw_line.c ****             lv_memset_ff(mask_buf, draw_area_w);
 648              		.loc 1 252 0
 649 0116 0299     		ldr	r1, [sp, #8]
 650 0118 0198     		ldr	r0, [sp, #4]
 651 011a FFF7FEFF 		bl	lv_memset_ff
 652              	.LVL94:
 253:..\..\..\arduinoLCD\test\Pain Drain\libraries\lvgl\src\draw\sw/lv_draw_sw_line.c ****             blend_dsc.mask_res = lv_draw_mask_apply(mask_buf, blend_area.x1, h, draw_area_w);
 653              		.loc 1 253 0
 654 011e 22B2     		sxth	r2, r4
 655 0120 0CAB     		add	r3, sp, #48
 656 0122 0021     		movs	r1, #0
 657 0124 595E     		ldrsh	r1, [r3, r1]
 658 0126 039B     		ldr	r3, [sp, #12]
 659 0128 0198     		ldr	r0, [sp, #4]
 660 012a FFF7FEFF 		bl	lv_draw_mask_apply
 661              	.LVL95:
 662 012e 05AB     		add	r3, sp, #20
 663 0130 1874     		strb	r0, [r3, #16]
 254:..\..\..\arduinoLCD\test\Pain Drain\libraries\lvgl\src\draw\sw/lv_draw_sw_line.c **** 
 255:..\..\..\arduinoLCD\test\Pain Drain\libraries\lvgl\src\draw\sw/lv_draw_sw_line.c ****             if(dashed) {
 664              		.loc 1 255 0
 665 0132 002D     		cmp	r5, #0
 666 0134 15D0     		beq	.L35
 256:..\..\..\arduinoLCD\test\Pain Drain\libraries\lvgl\src\draw\sw/lv_draw_sw_line.c ****                 if(blend_dsc.mask_res != LV_DRAW_MASK_RES_TRANSP) {
 667              		.loc 1 256 0
 668 0136 0028     		cmp	r0, #0
 669 0138 11D0     		beq	.L36
 257:..\..\..\arduinoLCD\test\Pain Drain\libraries\lvgl\src\draw\sw/lv_draw_sw_line.c ****                     if(dash_cnt > dsc->dash_width) {
 670              		.loc 1 257 0
 671 013a 4B46     		mov	r3, r9
 672 013c 0422     		movs	r2, #4
 673 013e 9B5E     		ldrsh	r3, [r3, r2]
 674 0140 9F42     		cmp	r7, r3
 675 0142 02DD     		ble	.L37
 258:..\..\..\arduinoLCD\test\Pain Drain\libraries\lvgl\src\draw\sw/lv_draw_sw_line.c ****                         blend_dsc.mask_res = LV_DRAW_MASK_RES_TRANSP;
 676              		.loc 1 258 0
 677 0144 0022     		movs	r2, #0
 678 0146 05AB     		add	r3, sp, #20
 679 0148 1A74     		strb	r2, [r3, #16]
 680              	.L37:
 259:..\..\..\arduinoLCD\test\Pain Drain\libraries\lvgl\src\draw\sw/lv_draw_sw_line.c ****                     }
 260:..\..\..\arduinoLCD\test\Pain Drain\libraries\lvgl\src\draw\sw/lv_draw_sw_line.c **** 
 261:..\..\..\arduinoLCD\test\Pain Drain\libraries\lvgl\src\draw\sw/lv_draw_sw_line.c ****                     if(dash_cnt >= dsc->dash_gap + dsc->dash_width) {
 681              		.loc 1 261 0
 682 014a 4B46     		mov	r3, r9
 683 014c 0622     		movs	r2, #6
 684 014e 9A5E     		ldrsh	r2, [r3, r2]
 685 0150 4B46     		mov	r3, r9
 686 0152 0421     		movs	r1, #4
ARM GAS  C:\Users\haske\AppData\Local\Temp\ccpgnYma.s 			page 20


 687 0154 5B5E     		ldrsh	r3, [r3, r1]
 688 0156 D318     		adds	r3, r2, r3
 689 0158 9F42     		cmp	r7, r3
 690 015a 00DB     		blt	.L36
 262:..\..\..\arduinoLCD\test\Pain Drain\libraries\lvgl\src\draw\sw/lv_draw_sw_line.c ****                         dash_cnt = 0;
 691              		.loc 1 262 0
 692 015c 0027     		movs	r7, #0
 693              	.LVL96:
 694              	.L36:
 263:..\..\..\arduinoLCD\test\Pain Drain\libraries\lvgl\src\draw\sw/lv_draw_sw_line.c ****                     }
 264:..\..\..\arduinoLCD\test\Pain Drain\libraries\lvgl\src\draw\sw/lv_draw_sw_line.c ****                 }
 265:..\..\..\arduinoLCD\test\Pain Drain\libraries\lvgl\src\draw\sw/lv_draw_sw_line.c ****                 dash_cnt ++;
 695              		.loc 1 265 0
 696 015e 0137     		adds	r7, r7, #1
 697              	.LVL97:
 698 0160 3FB2     		sxth	r7, r7
 699              	.LVL98:
 700              	.L35:
 266:..\..\..\arduinoLCD\test\Pain Drain\libraries\lvgl\src\draw\sw/lv_draw_sw_line.c ****             }
 267:..\..\..\arduinoLCD\test\Pain Drain\libraries\lvgl\src\draw\sw/lv_draw_sw_line.c **** 
 268:..\..\..\arduinoLCD\test\Pain Drain\libraries\lvgl\src\draw\sw/lv_draw_sw_line.c ****             lv_draw_sw_blend(draw_ctx, &blend_dsc);
 701              		.loc 1 268 0 discriminator 2
 702 0162 05A9     		add	r1, sp, #20
 703 0164 4046     		mov	r0, r8
 704 0166 FFF7FEFF 		bl	lv_draw_sw_blend
 705              	.LVL99:
 269:..\..\..\arduinoLCD\test\Pain Drain\libraries\lvgl\src\draw\sw/lv_draw_sw_line.c **** 
 270:..\..\..\arduinoLCD\test\Pain Drain\libraries\lvgl\src\draw\sw/lv_draw_sw_line.c ****             blend_area.y1++;
 706              		.loc 1 270 0 discriminator 2
 707 016a 0CAB     		add	r3, sp, #48
 708 016c 0221     		movs	r1, #2
 709 016e 5A5E     		ldrsh	r2, [r3, r1]
 710 0170 0132     		adds	r2, r2, #1
 711 0172 5A80     		strh	r2, [r3, #2]
 271:..\..\..\arduinoLCD\test\Pain Drain\libraries\lvgl\src\draw\sw/lv_draw_sw_line.c ****             blend_area.y2++;
 712              		.loc 1 271 0 discriminator 2
 713 0174 0621     		movs	r1, #6
 714 0176 5A5E     		ldrsh	r2, [r3, r1]
 715 0178 0132     		adds	r2, r2, #1
 716 017a DA80     		strh	r2, [r3, #6]
 251:..\..\..\arduinoLCD\test\Pain Drain\libraries\lvgl\src\draw\sw/lv_draw_sw_line.c ****             lv_memset_ff(mask_buf, draw_area_w);
 717              		.loc 1 251 0 discriminator 2
 718 017c 0134     		adds	r4, r4, #1
 719              	.LVL100:
 720              	.L34:
 251:..\..\..\arduinoLCD\test\Pain Drain\libraries\lvgl\src\draw\sw/lv_draw_sw_line.c ****             lv_memset_ff(mask_buf, draw_area_w);
 721              		.loc 1 251 0 is_stmt 0 discriminator 1
 722 017e B442     		cmp	r4, r6
 723 0180 C9DD     		ble	.L38
 272:..\..\..\arduinoLCD\test\Pain Drain\libraries\lvgl\src\draw\sw/lv_draw_sw_line.c ****         }
 273:..\..\..\arduinoLCD\test\Pain Drain\libraries\lvgl\src\draw\sw/lv_draw_sw_line.c ****         lv_mem_buf_release(mask_buf);
 724              		.loc 1 273 0 is_stmt 1
 725 0182 0198     		ldr	r0, [sp, #4]
 726 0184 FFF7FEFF 		bl	lv_mem_buf_release
 727              	.LVL101:
 728              	.L25:
 729              	.LBE18:
ARM GAS  C:\Users\haske\AppData\Local\Temp\ccpgnYma.s 			page 21


 274:..\..\..\arduinoLCD\test\Pain Drain\libraries\lvgl\src\draw\sw/lv_draw_sw_line.c ****     }
 275:..\..\..\arduinoLCD\test\Pain Drain\libraries\lvgl\src\draw\sw/lv_draw_sw_line.c **** #endif /*LV_DRAW_COMPLEX*/
 276:..\..\..\arduinoLCD\test\Pain Drain\libraries\lvgl\src\draw\sw/lv_draw_sw_line.c **** }
 730              		.loc 1 276 0
 731 0188 0EB0     		add	sp, sp, #56
 732              		@ sp needed
 733              	.LVL102:
 734 018a 1CBC     		pop	{r2, r3, r4}
 735 018c 9046     		mov	r8, r2
 736 018e 9946     		mov	r9, r3
 737 0190 A246     		mov	r10, r4
 738 0192 F0BD     		pop	{r4, r5, r6, r7, pc}
 739              		.cfi_endproc
 740              	.LFE161:
 741              		.size	draw_line_ver, .-draw_line_ver
 742              		.global	__aeabi_idiv
 743              		.section	.text.draw_line_skew,"ax",%progbits
 744              		.align	2
 745              		.code	16
 746              		.thumb_func
 747              		.type	draw_line_skew, %function
 748              	draw_line_skew:
 749              	.LFB162:
 277:..\..\..\arduinoLCD\test\Pain Drain\libraries\lvgl\src\draw\sw/lv_draw_sw_line.c **** 
 278:..\..\..\arduinoLCD\test\Pain Drain\libraries\lvgl\src\draw\sw/lv_draw_sw_line.c **** LV_ATTRIBUTE_FAST_MEM static void draw_line_skew(struct _lv_draw_ctx_t * draw_ctx, const lv_draw_li
 279:..\..\..\arduinoLCD\test\Pain Drain\libraries\lvgl\src\draw\sw/lv_draw_sw_line.c ****                                                  const lv_point_t * point1, const lv_point_t * poin
 280:..\..\..\arduinoLCD\test\Pain Drain\libraries\lvgl\src\draw\sw/lv_draw_sw_line.c **** {
 750              		.loc 1 280 0
 751              		.cfi_startproc
 752              		@ args = 0, pretend = 0, frame = 248
 753              		@ frame_needed = 0, uses_anonymous_args = 0
 754              	.LVL103:
 755 0000 F0B5     		push	{r4, r5, r6, r7, lr}
 756              		.cfi_def_cfa_offset 20
 757              		.cfi_offset 4, -20
 758              		.cfi_offset 5, -16
 759              		.cfi_offset 6, -12
 760              		.cfi_offset 7, -8
 761              		.cfi_offset 14, -4
 762 0002 5F46     		mov	r7, fp
 763 0004 5646     		mov	r6, r10
 764 0006 4D46     		mov	r5, r9
 765 0008 4446     		mov	r4, r8
 766 000a F0B4     		push	{r4, r5, r6, r7}
 767              		.cfi_def_cfa_offset 36
 768              		.cfi_offset 8, -36
 769              		.cfi_offset 9, -32
 770              		.cfi_offset 10, -28
 771              		.cfi_offset 11, -24
 772 000c C1B0     		sub	sp, sp, #260
 773              		.cfi_def_cfa_offset 296
 774 000e 8146     		mov	r9, r0
 775 0010 0291     		str	r1, [sp, #8]
 281:..\..\..\arduinoLCD\test\Pain Drain\libraries\lvgl\src\draw\sw/lv_draw_sw_line.c **** #if LV_DRAW_COMPLEX
 282:..\..\..\arduinoLCD\test\Pain Drain\libraries\lvgl\src\draw\sw/lv_draw_sw_line.c ****     /*Keep the great y in p1*/
 283:..\..\..\arduinoLCD\test\Pain Drain\libraries\lvgl\src\draw\sw/lv_draw_sw_line.c ****     lv_point_t p1;
 284:..\..\..\arduinoLCD\test\Pain Drain\libraries\lvgl\src\draw\sw/lv_draw_sw_line.c ****     lv_point_t p2;
ARM GAS  C:\Users\haske\AppData\Local\Temp\ccpgnYma.s 			page 22


 285:..\..\..\arduinoLCD\test\Pain Drain\libraries\lvgl\src\draw\sw/lv_draw_sw_line.c ****     if(point1->y < point2->y) {
 776              		.loc 1 285 0
 777 0012 0220     		movs	r0, #2
 778 0014 115E     		ldrsh	r1, [r2, r0]
 779              	.LVL104:
 780 0016 0224     		movs	r4, #2
 781 0018 185F     		ldrsh	r0, [r3, r4]
 782 001a 8142     		cmp	r1, r0
 783 001c 0ADA     		bge	.L47
 286:..\..\..\arduinoLCD\test\Pain Drain\libraries\lvgl\src\draw\sw/lv_draw_sw_line.c ****         p1.y = point1->y;
 784              		.loc 1 286 0
 785 001e 3FAC     		add	r4, sp, #252
 786 0020 6180     		strh	r1, [r4, #2]
 287:..\..\..\arduinoLCD\test\Pain Drain\libraries\lvgl\src\draw\sw/lv_draw_sw_line.c ****         p2.y = point2->y;
 787              		.loc 1 287 0
 788 0022 3EA9     		add	r1, sp, #248
 789 0024 4880     		strh	r0, [r1, #2]
 288:..\..\..\arduinoLCD\test\Pain Drain\libraries\lvgl\src\draw\sw/lv_draw_sw_line.c ****         p1.x = point1->x;
 790              		.loc 1 288 0
 791 0026 0020     		movs	r0, #0
 792 0028 125E     		ldrsh	r2, [r2, r0]
 793              	.LVL105:
 794 002a 2280     		strh	r2, [r4]
 289:..\..\..\arduinoLCD\test\Pain Drain\libraries\lvgl\src\draw\sw/lv_draw_sw_line.c ****         p2.x = point2->x;
 795              		.loc 1 289 0
 796 002c 0022     		movs	r2, #0
 797 002e 9B5E     		ldrsh	r3, [r3, r2]
 798              	.LVL106:
 799 0030 0B80     		strh	r3, [r1]
 800 0032 09E0     		b	.L48
 801              	.LVL107:
 802              	.L47:
 290:..\..\..\arduinoLCD\test\Pain Drain\libraries\lvgl\src\draw\sw/lv_draw_sw_line.c ****     }
 291:..\..\..\arduinoLCD\test\Pain Drain\libraries\lvgl\src\draw\sw/lv_draw_sw_line.c ****     else {
 292:..\..\..\arduinoLCD\test\Pain Drain\libraries\lvgl\src\draw\sw/lv_draw_sw_line.c ****         p1.y = point2->y;
 803              		.loc 1 292 0
 804 0034 3FAC     		add	r4, sp, #252
 805 0036 6080     		strh	r0, [r4, #2]
 293:..\..\..\arduinoLCD\test\Pain Drain\libraries\lvgl\src\draw\sw/lv_draw_sw_line.c ****         p2.y = point1->y;
 806              		.loc 1 293 0
 807 0038 3EA8     		add	r0, sp, #248
 808 003a 4180     		strh	r1, [r0, #2]
 294:..\..\..\arduinoLCD\test\Pain Drain\libraries\lvgl\src\draw\sw/lv_draw_sw_line.c ****         p1.x = point2->x;
 809              		.loc 1 294 0
 810 003c 0021     		movs	r1, #0
 811 003e 5B5E     		ldrsh	r3, [r3, r1]
 812              	.LVL108:
 813 0040 2380     		strh	r3, [r4]
 295:..\..\..\arduinoLCD\test\Pain Drain\libraries\lvgl\src\draw\sw/lv_draw_sw_line.c ****         p2.x = point1->x;
 814              		.loc 1 295 0
 815 0042 0023     		movs	r3, #0
 816 0044 D35E     		ldrsh	r3, [r2, r3]
 817              	.LVL109:
 818 0046 0380     		strh	r3, [r0]
 819              	.L48:
 296:..\..\..\arduinoLCD\test\Pain Drain\libraries\lvgl\src\draw\sw/lv_draw_sw_line.c ****     }
 297:..\..\..\arduinoLCD\test\Pain Drain\libraries\lvgl\src\draw\sw/lv_draw_sw_line.c **** 
ARM GAS  C:\Users\haske\AppData\Local\Temp\ccpgnYma.s 			page 23


 298:..\..\..\arduinoLCD\test\Pain Drain\libraries\lvgl\src\draw\sw/lv_draw_sw_line.c ****     int32_t xdiff = p2.x - p1.x;
 820              		.loc 1 298 0
 821 0048 3EAA     		add	r2, sp, #248
 822 004a 0023     		movs	r3, #0
 823 004c D65E     		ldrsh	r6, [r2, r3]
 824 004e 3FAB     		add	r3, sp, #252
 825 0050 0020     		movs	r0, #0
 826 0052 195E     		ldrsh	r1, [r3, r0]
 827 0054 8846     		mov	r8, r1
 828 0056 711A     		subs	r1, r6, r1
 829 0058 0391     		str	r1, [sp, #12]
 830              	.LVL110:
 299:..\..\..\arduinoLCD\test\Pain Drain\libraries\lvgl\src\draw\sw/lv_draw_sw_line.c ****     int32_t ydiff = p2.y - p1.y;
 831              		.loc 1 299 0
 832 005a 0225     		movs	r5, #2
 833 005c 555F     		ldrsh	r5, [r2, r5]
 834 005e 0224     		movs	r4, #2
 835 0060 1C5F     		ldrsh	r4, [r3, r4]
 836 0062 2B1B     		subs	r3, r5, r4
 837 0064 0593     		str	r3, [sp, #20]
 838              	.LVL111:
 300:..\..\..\arduinoLCD\test\Pain Drain\libraries\lvgl\src\draw\sw/lv_draw_sw_line.c ****     bool flat = LV_ABS(xdiff) > LV_ABS(ydiff) ? true : false;
 839              		.loc 1 300 0
 840 0066 C817     		asrs	r0, r1, #31
 841 0068 0A18     		adds	r2, r1, r0
 842 006a 4240     		eors	r2, r0
 843 006c 9346     		mov	fp, r2
 844 006e DA17     		asrs	r2, r3, #31
 845 0070 9B18     		adds	r3, r3, r2
 846              	.LVL112:
 847 0072 5340     		eors	r3, r2
 848 0074 9A46     		mov	r10, r3
 849              	.LVL113:
 301:..\..\..\arduinoLCD\test\Pain Drain\libraries\lvgl\src\draw\sw/lv_draw_sw_line.c **** 
 302:..\..\..\arduinoLCD\test\Pain Drain\libraries\lvgl\src\draw\sw/lv_draw_sw_line.c ****     static const uint8_t wcorr[] = {
 303:..\..\..\arduinoLCD\test\Pain Drain\libraries\lvgl\src\draw\sw/lv_draw_sw_line.c ****         128, 128, 128, 129, 129, 130, 130, 131,
 304:..\..\..\arduinoLCD\test\Pain Drain\libraries\lvgl\src\draw\sw/lv_draw_sw_line.c ****         132, 133, 134, 135, 137, 138, 140, 141,
 305:..\..\..\arduinoLCD\test\Pain Drain\libraries\lvgl\src\draw\sw/lv_draw_sw_line.c ****         143, 145, 147, 149, 151, 153, 155, 158,
 306:..\..\..\arduinoLCD\test\Pain Drain\libraries\lvgl\src\draw\sw/lv_draw_sw_line.c ****         160, 162, 165, 167, 170, 173, 175, 178,
 307:..\..\..\arduinoLCD\test\Pain Drain\libraries\lvgl\src\draw\sw/lv_draw_sw_line.c ****         181,
 308:..\..\..\arduinoLCD\test\Pain Drain\libraries\lvgl\src\draw\sw/lv_draw_sw_line.c ****     };
 309:..\..\..\arduinoLCD\test\Pain Drain\libraries\lvgl\src\draw\sw/lv_draw_sw_line.c **** 
 310:..\..\..\arduinoLCD\test\Pain Drain\libraries\lvgl\src\draw\sw/lv_draw_sw_line.c ****     int32_t w = dsc->width;
 850              		.loc 1 310 0
 851 0076 029B     		ldr	r3, [sp, #8]
 852              	.LVL114:
 853 0078 0227     		movs	r7, #2
 854 007a DF5F     		ldrsh	r7, [r3, r7]
 855              	.LVL115:
 311:..\..\..\arduinoLCD\test\Pain Drain\libraries\lvgl\src\draw\sw/lv_draw_sw_line.c ****     int32_t wcorr_i = 0;
 312:..\..\..\arduinoLCD\test\Pain Drain\libraries\lvgl\src\draw\sw/lv_draw_sw_line.c ****     if(flat) wcorr_i = (LV_ABS(ydiff) << 5) / LV_ABS(xdiff);
 856              		.loc 1 312 0
 857 007c D345     		cmp	fp, r10
 858 007e 05DD     		ble	.L49
 859              		.loc 1 312 0 is_stmt 0 discriminator 1
 860 0080 5346     		mov	r3, r10
 861 0082 5801     		lsls	r0, r3, #5
ARM GAS  C:\Users\haske\AppData\Local\Temp\ccpgnYma.s 			page 24


 862 0084 5946     		mov	r1, fp
 863              	.LVL116:
 864 0086 FFF7FEFF 		bl	__aeabi_idiv
 865              	.LVL117:
 866 008a 04E0     		b	.L50
 867              	.LVL118:
 868              	.L49:
 313:..\..\..\arduinoLCD\test\Pain Drain\libraries\lvgl\src\draw\sw/lv_draw_sw_line.c ****     else wcorr_i = (LV_ABS(xdiff) << 5) / LV_ABS(ydiff);
 869              		.loc 1 313 0 is_stmt 1
 870 008c 5B46     		mov	r3, fp
 871 008e 5801     		lsls	r0, r3, #5
 872 0090 5146     		mov	r1, r10
 873              	.LVL119:
 874 0092 FFF7FEFF 		bl	__aeabi_idiv
 875              	.LVL120:
 876              	.L50:
 314:..\..\..\arduinoLCD\test\Pain Drain\libraries\lvgl\src\draw\sw/lv_draw_sw_line.c **** 
 315:..\..\..\arduinoLCD\test\Pain Drain\libraries\lvgl\src\draw\sw/lv_draw_sw_line.c ****     w = (w * wcorr[wcorr_i] + 63) >> 7;     /*+ 63 for rounding*/
 877              		.loc 1 315 0
 878 0096 B74B     		ldr	r3, .L71
 879 0098 1B5C     		ldrb	r3, [r3, r0]
 880 009a 5F43     		muls	r7, r3
 881              	.LVL121:
 882 009c 3F37     		adds	r7, r7, #63
 883 009e FB11     		asrs	r3, r7, #7
 884              	.LVL122:
 316:..\..\..\arduinoLCD\test\Pain Drain\libraries\lvgl\src\draw\sw/lv_draw_sw_line.c ****     int32_t w_half0 = w >> 1;
 885              		.loc 1 316 0
 886 00a0 3F12     		asrs	r7, r7, #8
 887              	.LVL123:
 317:..\..\..\arduinoLCD\test\Pain Drain\libraries\lvgl\src\draw\sw/lv_draw_sw_line.c ****     int32_t w_half1 = w_half0 + (w & 0x1); /*Compensate rounding error*/
 888              		.loc 1 317 0
 889 00a2 0122     		movs	r2, #1
 890 00a4 1A40     		ands	r2, r3
 891 00a6 BA18     		adds	r2, r7, r2
 892 00a8 0492     		str	r2, [sp, #16]
 893              	.LVL124:
 318:..\..\..\arduinoLCD\test\Pain Drain\libraries\lvgl\src\draw\sw/lv_draw_sw_line.c **** 
 319:..\..\..\arduinoLCD\test\Pain Drain\libraries\lvgl\src\draw\sw/lv_draw_sw_line.c ****     lv_area_t blend_area;
 320:..\..\..\arduinoLCD\test\Pain Drain\libraries\lvgl\src\draw\sw/lv_draw_sw_line.c ****     blend_area.x1 = LV_MIN(p1.x, p2.x) - w;
 894              		.loc 1 320 0
 895 00aa 9BB2     		uxth	r3, r3
 896              	.LVL125:
 897 00ac 321C     		adds	r2, r6, #0
 898              	.LVL126:
 899 00ae 4645     		cmp	r6, r8
 900 00b0 00DD     		ble	.L51
 901 00b2 4246     		mov	r2, r8
 902              	.L51:
 903 00b4 D21A     		subs	r2, r2, r3
 904 00b6 3CA9     		add	r1, sp, #240
 905 00b8 0A80     		strh	r2, [r1]
 321:..\..\..\arduinoLCD\test\Pain Drain\libraries\lvgl\src\draw\sw/lv_draw_sw_line.c ****     blend_area.x2 = LV_MAX(p1.x, p2.x) + w;
 906              		.loc 1 321 0
 907 00ba 321C     		adds	r2, r6, #0
 908 00bc 4645     		cmp	r6, r8
 909 00be 00DA     		bge	.L52
ARM GAS  C:\Users\haske\AppData\Local\Temp\ccpgnYma.s 			page 25


 910 00c0 4246     		mov	r2, r8
 911              	.L52:
 912 00c2 9A18     		adds	r2, r3, r2
 913 00c4 3CA9     		add	r1, sp, #240
 914 00c6 8A80     		strh	r2, [r1, #4]
 322:..\..\..\arduinoLCD\test\Pain Drain\libraries\lvgl\src\draw\sw/lv_draw_sw_line.c ****     blend_area.y1 = LV_MIN(p1.y, p2.y) - w;
 915              		.loc 1 322 0
 916 00c8 2A1C     		adds	r2, r5, #0
 917 00ca A542     		cmp	r5, r4
 918 00cc 00DD     		ble	.L53
 919 00ce 221C     		adds	r2, r4, #0
 920              	.L53:
 921 00d0 D21A     		subs	r2, r2, r3
 922 00d2 3CA9     		add	r1, sp, #240
 923 00d4 4A80     		strh	r2, [r1, #2]
 323:..\..\..\arduinoLCD\test\Pain Drain\libraries\lvgl\src\draw\sw/lv_draw_sw_line.c ****     blend_area.y2 = LV_MAX(p1.y, p2.y) + w;
 924              		.loc 1 323 0
 925 00d6 2A1C     		adds	r2, r5, #0
 926 00d8 A542     		cmp	r5, r4
 927 00da 00DA     		bge	.L54
 928 00dc 221C     		adds	r2, r4, #0
 929              	.L54:
 930 00de 9B18     		adds	r3, r3, r2
 931 00e0 3CAA     		add	r2, sp, #240
 932 00e2 D380     		strh	r3, [r2, #6]
 324:..\..\..\arduinoLCD\test\Pain Drain\libraries\lvgl\src\draw\sw/lv_draw_sw_line.c **** 
 325:..\..\..\arduinoLCD\test\Pain Drain\libraries\lvgl\src\draw\sw/lv_draw_sw_line.c ****     /*Get the union of `coords` and `clip`*/
 326:..\..\..\arduinoLCD\test\Pain Drain\libraries\lvgl\src\draw\sw/lv_draw_sw_line.c ****     /*`clip` is already truncated to the `draw_buf` size
 327:..\..\..\arduinoLCD\test\Pain Drain\libraries\lvgl\src\draw\sw/lv_draw_sw_line.c ****      *in 'lv_refr_area' function*/
 328:..\..\..\arduinoLCD\test\Pain Drain\libraries\lvgl\src\draw\sw/lv_draw_sw_line.c ****     bool is_common = _lv_area_intersect(&blend_area, &blend_area, draw_ctx->clip_area);
 933              		.loc 1 328 0
 934 00e4 4B46     		mov	r3, r9
 935 00e6 9A68     		ldr	r2, [r3, #8]
 936 00e8 3CA9     		add	r1, sp, #240
 937 00ea 0800     		movs	r0, r1
 938              	.LVL127:
 939 00ec FFF7FEFF 		bl	_lv_area_intersect
 940              	.LVL128:
 329:..\..\..\arduinoLCD\test\Pain Drain\libraries\lvgl\src\draw\sw/lv_draw_sw_line.c ****     if(is_common == false) return;
 941              		.loc 1 329 0
 942 00f0 0028     		cmp	r0, #0
 943 00f2 00D1     		bne	.LCB918
 944 00f4 37E1     		b	.L46	@long jump
 945              	.LCB918:
 330:..\..\..\arduinoLCD\test\Pain Drain\libraries\lvgl\src\draw\sw/lv_draw_sw_line.c **** 
 331:..\..\..\arduinoLCD\test\Pain Drain\libraries\lvgl\src\draw\sw/lv_draw_sw_line.c ****     lv_draw_mask_line_param_t mask_left_param;
 332:..\..\..\arduinoLCD\test\Pain Drain\libraries\lvgl\src\draw\sw/lv_draw_sw_line.c ****     lv_draw_mask_line_param_t mask_right_param;
 333:..\..\..\arduinoLCD\test\Pain Drain\libraries\lvgl\src\draw\sw/lv_draw_sw_line.c ****     lv_draw_mask_line_param_t mask_top_param;
 334:..\..\..\arduinoLCD\test\Pain Drain\libraries\lvgl\src\draw\sw/lv_draw_sw_line.c ****     lv_draw_mask_line_param_t mask_bottom_param;
 335:..\..\..\arduinoLCD\test\Pain Drain\libraries\lvgl\src\draw\sw/lv_draw_sw_line.c **** 
 336:..\..\..\arduinoLCD\test\Pain Drain\libraries\lvgl\src\draw\sw/lv_draw_sw_line.c ****     if(flat) {
 946              		.loc 1 336 0
 947 00f6 D345     		cmp	fp, r10
 948 00f8 3EDD     		ble	.L56
 337:..\..\..\arduinoLCD\test\Pain Drain\libraries\lvgl\src\draw\sw/lv_draw_sw_line.c ****         if(xdiff > 0) {
 949              		.loc 1 337 0
 950 00fa 039B     		ldr	r3, [sp, #12]
ARM GAS  C:\Users\haske\AppData\Local\Temp\ccpgnYma.s 			page 26


 951 00fc 002B     		cmp	r3, #0
 952 00fe 1DDD     		ble	.L57
 338:..\..\..\arduinoLCD\test\Pain Drain\libraries\lvgl\src\draw\sw/lv_draw_sw_line.c ****             lv_draw_mask_line_points_init(&mask_left_param, p1.x, p1.y - w_half0, p2.x, p2.y - w_ha
 953              		.loc 1 338 0
 954 0100 A4B2     		uxth	r4, r4
 955 0102 BFB2     		uxth	r7, r7
 956              	.LVL129:
 957 0104 ADB2     		uxth	r5, r5
 958 0106 E21B     		subs	r2, r4, r7
 959 0108 12B2     		sxth	r2, r2
 960 010a 0023     		movs	r3, #0
 961 010c 0193     		str	r3, [sp, #4]
 962 010e EF1B     		subs	r7, r5, r7
 963 0110 3FB2     		sxth	r7, r7
 964 0112 0097     		str	r7, [sp]
 965 0114 3300     		movs	r3, r6
 966 0116 4146     		mov	r1, r8
 967 0118 31A8     		add	r0, sp, #196
 968              	.LVL130:
 969 011a FFF7FEFF 		bl	lv_draw_mask_line_points_init
 970              	.LVL131:
 339:..\..\..\arduinoLCD\test\Pain Drain\libraries\lvgl\src\draw\sw/lv_draw_sw_line.c ****                                           LV_DRAW_MASK_LINE_SIDE_LEFT);
 340:..\..\..\arduinoLCD\test\Pain Drain\libraries\lvgl\src\draw\sw/lv_draw_sw_line.c ****             lv_draw_mask_line_points_init(&mask_right_param, p1.x, p1.y + w_half1, p2.x, p2.y + w_h
 971              		.loc 1 340 0
 972 011e 6B46     		mov	r3, sp
 973 0120 1B8A     		ldrh	r3, [r3, #16]
 974 0122 E418     		adds	r4, r4, r3
 975 0124 22B2     		sxth	r2, r4
 976 0126 0121     		movs	r1, #1
 977 0128 0191     		str	r1, [sp, #4]
 978 012a ED18     		adds	r5, r5, r3
 979 012c 2DB2     		sxth	r5, r5
 980 012e 0095     		str	r5, [sp]
 981 0130 3300     		movs	r3, r6
 982 0132 4146     		mov	r1, r8
 983 0134 26A8     		add	r0, sp, #152
 984 0136 FFF7FEFF 		bl	lv_draw_mask_line_points_init
 985              	.LVL132:
 986 013a 3CE0     		b	.L58
 987              	.LVL133:
 988              	.L57:
 341:..\..\..\arduinoLCD\test\Pain Drain\libraries\lvgl\src\draw\sw/lv_draw_sw_line.c ****                                           LV_DRAW_MASK_LINE_SIDE_RIGHT);
 342:..\..\..\arduinoLCD\test\Pain Drain\libraries\lvgl\src\draw\sw/lv_draw_sw_line.c ****         }
 343:..\..\..\arduinoLCD\test\Pain Drain\libraries\lvgl\src\draw\sw/lv_draw_sw_line.c ****         else {
 344:..\..\..\arduinoLCD\test\Pain Drain\libraries\lvgl\src\draw\sw/lv_draw_sw_line.c ****             lv_draw_mask_line_points_init(&mask_left_param, p1.x, p1.y + w_half1, p2.x, p2.y + w_ha
 989              		.loc 1 344 0
 990 013c A4B2     		uxth	r4, r4
 991 013e 6B46     		mov	r3, sp
 992 0140 1B8A     		ldrh	r3, [r3, #16]
 993 0142 ADB2     		uxth	r5, r5
 994 0144 E218     		adds	r2, r4, r3
 995 0146 12B2     		sxth	r2, r2
 996 0148 0021     		movs	r1, #0
 997 014a 0191     		str	r1, [sp, #4]
 998 014c 5B19     		adds	r3, r3, r5
 999 014e 1BB2     		sxth	r3, r3
 1000 0150 0093     		str	r3, [sp]
ARM GAS  C:\Users\haske\AppData\Local\Temp\ccpgnYma.s 			page 27


 1001 0152 3300     		movs	r3, r6
 1002 0154 4146     		mov	r1, r8
 1003 0156 31A8     		add	r0, sp, #196
 1004              	.LVL134:
 1005 0158 FFF7FEFF 		bl	lv_draw_mask_line_points_init
 1006              	.LVL135:
 345:..\..\..\arduinoLCD\test\Pain Drain\libraries\lvgl\src\draw\sw/lv_draw_sw_line.c ****                                           LV_DRAW_MASK_LINE_SIDE_LEFT);
 346:..\..\..\arduinoLCD\test\Pain Drain\libraries\lvgl\src\draw\sw/lv_draw_sw_line.c ****             lv_draw_mask_line_points_init(&mask_right_param, p1.x, p1.y - w_half0, p2.x, p2.y - w_h
 1007              		.loc 1 346 0
 1008 015c BFB2     		uxth	r7, r7
 1009              	.LVL136:
 1010 015e E41B     		subs	r4, r4, r7
 1011 0160 22B2     		sxth	r2, r4
 1012 0162 0123     		movs	r3, #1
 1013 0164 0193     		str	r3, [sp, #4]
 1014 0166 ED1B     		subs	r5, r5, r7
 1015 0168 2DB2     		sxth	r5, r5
 1016 016a 0095     		str	r5, [sp]
 1017 016c 3300     		movs	r3, r6
 1018 016e 4146     		mov	r1, r8
 1019 0170 26A8     		add	r0, sp, #152
 1020 0172 FFF7FEFF 		bl	lv_draw_mask_line_points_init
 1021              	.LVL137:
 1022 0176 1EE0     		b	.L58
 1023              	.LVL138:
 1024              	.L56:
 347:..\..\..\arduinoLCD\test\Pain Drain\libraries\lvgl\src\draw\sw/lv_draw_sw_line.c ****                                           LV_DRAW_MASK_LINE_SIDE_RIGHT);
 348:..\..\..\arduinoLCD\test\Pain Drain\libraries\lvgl\src\draw\sw/lv_draw_sw_line.c ****         }
 349:..\..\..\arduinoLCD\test\Pain Drain\libraries\lvgl\src\draw\sw/lv_draw_sw_line.c ****     }
 350:..\..\..\arduinoLCD\test\Pain Drain\libraries\lvgl\src\draw\sw/lv_draw_sw_line.c ****     else {
 351:..\..\..\arduinoLCD\test\Pain Drain\libraries\lvgl\src\draw\sw/lv_draw_sw_line.c ****         lv_draw_mask_line_points_init(&mask_left_param, p1.x + w_half1, p1.y, p2.x + w_half1, p2.y,
 1025              		.loc 1 351 0
 1026 0178 4346     		mov	r3, r8
 1027 017a 6A46     		mov	r2, sp
 1028 017c 1383     		strh	r3, [r2, #24]
 1029 017e 138B     		ldrh	r3, [r2, #24]
 1030 0180 9846     		mov	r8, r3
 1031 0182 118A     		ldrh	r1, [r2, #16]
 1032 0184 B6B2     		uxth	r6, r6
 1033 0186 8B19     		adds	r3, r1, r6
 1034 0188 1BB2     		sxth	r3, r3
 1035 018a 4144     		add	r1, r1, r8
 1036 018c 09B2     		sxth	r1, r1
 1037 018e 0022     		movs	r2, #0
 1038 0190 0192     		str	r2, [sp, #4]
 1039 0192 0095     		str	r5, [sp]
 1040 0194 2200     		movs	r2, r4
 1041 0196 31A8     		add	r0, sp, #196
 1042              	.LVL139:
 1043 0198 FFF7FEFF 		bl	lv_draw_mask_line_points_init
 1044              	.LVL140:
 352:..\..\..\arduinoLCD\test\Pain Drain\libraries\lvgl\src\draw\sw/lv_draw_sw_line.c ****                                       LV_DRAW_MASK_LINE_SIDE_LEFT);
 353:..\..\..\arduinoLCD\test\Pain Drain\libraries\lvgl\src\draw\sw/lv_draw_sw_line.c ****         lv_draw_mask_line_points_init(&mask_right_param, p1.x - w_half0, p1.y, p2.x - w_half0, p2.y
 1045              		.loc 1 353 0
 1046 019c BFB2     		uxth	r7, r7
 1047              	.LVL141:
 1048 019e F61B     		subs	r6, r6, r7
ARM GAS  C:\Users\haske\AppData\Local\Temp\ccpgnYma.s 			page 28


 1049 01a0 33B2     		sxth	r3, r6
 1050 01a2 4246     		mov	r2, r8
 1051 01a4 D71B     		subs	r7, r2, r7
 1052 01a6 39B2     		sxth	r1, r7
 1053 01a8 0122     		movs	r2, #1
 1054 01aa 0192     		str	r2, [sp, #4]
 1055 01ac 0095     		str	r5, [sp]
 1056 01ae 2200     		movs	r2, r4
 1057 01b0 26A8     		add	r0, sp, #152
 1058 01b2 FFF7FEFF 		bl	lv_draw_mask_line_points_init
 1059              	.LVL142:
 1060              	.L58:
 354:..\..\..\arduinoLCD\test\Pain Drain\libraries\lvgl\src\draw\sw/lv_draw_sw_line.c ****                                       LV_DRAW_MASK_LINE_SIDE_RIGHT);
 355:..\..\..\arduinoLCD\test\Pain Drain\libraries\lvgl\src\draw\sw/lv_draw_sw_line.c ****     }
 356:..\..\..\arduinoLCD\test\Pain Drain\libraries\lvgl\src\draw\sw/lv_draw_sw_line.c **** 
 357:..\..\..\arduinoLCD\test\Pain Drain\libraries\lvgl\src\draw\sw/lv_draw_sw_line.c ****     /*Use the normal vector for the endings*/
 358:..\..\..\arduinoLCD\test\Pain Drain\libraries\lvgl\src\draw\sw/lv_draw_sw_line.c **** 
 359:..\..\..\arduinoLCD\test\Pain Drain\libraries\lvgl\src\draw\sw/lv_draw_sw_line.c ****     int16_t mask_left_id = lv_draw_mask_add(&mask_left_param, NULL);
 1061              		.loc 1 359 0
 1062 01b6 0021     		movs	r1, #0
 1063 01b8 31A8     		add	r0, sp, #196
 1064 01ba FFF7FEFF 		bl	lv_draw_mask_add
 1065              	.LVL143:
 1066 01be 0690     		str	r0, [sp, #24]
 1067              	.LVL144:
 360:..\..\..\arduinoLCD\test\Pain Drain\libraries\lvgl\src\draw\sw/lv_draw_sw_line.c ****     int16_t mask_right_id = lv_draw_mask_add(&mask_right_param, NULL);
 1068              		.loc 1 360 0
 1069 01c0 0021     		movs	r1, #0
 1070 01c2 26A8     		add	r0, sp, #152
 1071 01c4 FFF7FEFF 		bl	lv_draw_mask_add
 1072              	.LVL145:
 1073 01c8 0790     		str	r0, [sp, #28]
 1074              	.LVL146:
 361:..\..\..\arduinoLCD\test\Pain Drain\libraries\lvgl\src\draw\sw/lv_draw_sw_line.c ****     int16_t mask_top_id = LV_MASK_ID_INV;
 362:..\..\..\arduinoLCD\test\Pain Drain\libraries\lvgl\src\draw\sw/lv_draw_sw_line.c ****     int16_t mask_bottom_id = LV_MASK_ID_INV;
 363:..\..\..\arduinoLCD\test\Pain Drain\libraries\lvgl\src\draw\sw/lv_draw_sw_line.c **** 
 364:..\..\..\arduinoLCD\test\Pain Drain\libraries\lvgl\src\draw\sw/lv_draw_sw_line.c ****     if(!dsc->raw_end) {
 1075              		.loc 1 364 0
 1076 01ca 029B     		ldr	r3, [sp, #8]
 1077 01cc 5B7A     		ldrb	r3, [r3, #9]
 1078 01ce DB06     		lsls	r3, r3, #27
 1079 01d0 2CD4     		bmi	.L70
 365:..\..\..\arduinoLCD\test\Pain Drain\libraries\lvgl\src\draw\sw/lv_draw_sw_line.c ****         lv_draw_mask_line_points_init(&mask_top_param, p1.x, p1.y, p1.x - ydiff, p1.y + xdiff, LV_D
 1080              		.loc 1 365 0
 1081 01d2 3FAB     		add	r3, sp, #252
 1082 01d4 0022     		movs	r2, #0
 1083 01d6 995E     		ldrsh	r1, [r3, r2]
 1084 01d8 6A46     		mov	r2, sp
 1085 01da 948A     		ldrh	r4, [r2, #20]
 1086 01dc 0222     		movs	r2, #2
 1087 01de 9A5E     		ldrsh	r2, [r3, r2]
 1088 01e0 6B46     		mov	r3, sp
 1089 01e2 9D89     		ldrh	r5, [r3, #12]
 1090 01e4 0B1B     		subs	r3, r1, r4
 1091 01e6 1BB2     		sxth	r3, r3
 1092 01e8 0320     		movs	r0, #3
 1093 01ea 0190     		str	r0, [sp, #4]
ARM GAS  C:\Users\haske\AppData\Local\Temp\ccpgnYma.s 			page 29


 1094 01ec A818     		adds	r0, r5, r2
 1095 01ee 00B2     		sxth	r0, r0
 1096 01f0 0090     		str	r0, [sp]
 1097 01f2 1BA8     		add	r0, sp, #108
 1098 01f4 FFF7FEFF 		bl	lv_draw_mask_line_points_init
 1099              	.LVL147:
 366:..\..\..\arduinoLCD\test\Pain Drain\libraries\lvgl\src\draw\sw/lv_draw_sw_line.c ****         lv_draw_mask_line_points_init(&mask_bottom_param, p2.x, p2.y, p2.x - ydiff, p2.y + xdiff,  
 1100              		.loc 1 366 0
 1101 01f8 3EAB     		add	r3, sp, #248
 1102 01fa 0022     		movs	r2, #0
 1103 01fc 995E     		ldrsh	r1, [r3, r2]
 1104 01fe 0222     		movs	r2, #2
 1105 0200 9A5E     		ldrsh	r2, [r3, r2]
 1106 0202 0B1B     		subs	r3, r1, r4
 1107 0204 1BB2     		sxth	r3, r3
 1108 0206 0220     		movs	r0, #2
 1109 0208 0190     		str	r0, [sp, #4]
 1110 020a AD18     		adds	r5, r5, r2
 1111 020c 2DB2     		sxth	r5, r5
 1112 020e 0095     		str	r5, [sp]
 1113 0210 10A8     		add	r0, sp, #64
 1114 0212 FFF7FEFF 		bl	lv_draw_mask_line_points_init
 1115              	.LVL148:
 367:..\..\..\arduinoLCD\test\Pain Drain\libraries\lvgl\src\draw\sw/lv_draw_sw_line.c ****         mask_top_id = lv_draw_mask_add(&mask_top_param, NULL);
 1116              		.loc 1 367 0
 1117 0216 0021     		movs	r1, #0
 1118 0218 1BA8     		add	r0, sp, #108
 1119 021a FFF7FEFF 		bl	lv_draw_mask_add
 1120              	.LVL149:
 1121 021e 0390     		str	r0, [sp, #12]
 1122              	.LVL150:
 368:..\..\..\arduinoLCD\test\Pain Drain\libraries\lvgl\src\draw\sw/lv_draw_sw_line.c ****         mask_bottom_id = lv_draw_mask_add(&mask_bottom_param, NULL);
 1123              		.loc 1 368 0
 1124 0220 0021     		movs	r1, #0
 1125 0222 10A8     		add	r0, sp, #64
 1126              	.LVL151:
 1127 0224 FFF7FEFF 		bl	lv_draw_mask_add
 1128              	.LVL152:
 1129 0228 0490     		str	r0, [sp, #16]
 1130              	.LVL153:
 1131 022a 03E0     		b	.L59
 1132              	.LVL154:
 1133              	.L70:
 362:..\..\..\arduinoLCD\test\Pain Drain\libraries\lvgl\src\draw\sw/lv_draw_sw_line.c **** 
 1134              		.loc 1 362 0
 1135 022c 0123     		movs	r3, #1
 1136 022e 5B42     		rsbs	r3, r3, #0
 1137 0230 0493     		str	r3, [sp, #16]
 1138              	.LVL155:
 361:..\..\..\arduinoLCD\test\Pain Drain\libraries\lvgl\src\draw\sw/lv_draw_sw_line.c ****     int16_t mask_bottom_id = LV_MASK_ID_INV;
 1139              		.loc 1 361 0
 1140 0232 0393     		str	r3, [sp, #12]
 1141              	.LVL156:
 1142              	.L59:
 1143              	.LBB21:
 1144              	.LBB22:
 1145              		.loc 2 125 0
ARM GAS  C:\Users\haske\AppData\Local\Temp\ccpgnYma.s 			page 30


 1146 0234 3CAC     		add	r4, sp, #240
 1147              	.LVL157:
 1148 0236 0422     		movs	r2, #4
 1149 0238 A35E     		ldrsh	r3, [r4, r2]
 1150 023a 0022     		movs	r2, #0
 1151 023c A65E     		ldrsh	r6, [r4, r2]
 1152 023e 9E1B     		subs	r6, r3, r6
 1153 0240 0136     		adds	r6, r6, #1
 1154 0242 36B2     		sxth	r6, r6
 1155              	.LVL158:
 1156              	.LBE22:
 1157              	.LBE21:
 369:..\..\..\arduinoLCD\test\Pain Drain\libraries\lvgl\src\draw\sw/lv_draw_sw_line.c ****     }
 370:..\..\..\arduinoLCD\test\Pain Drain\libraries\lvgl\src\draw\sw/lv_draw_sw_line.c **** 
 371:..\..\..\arduinoLCD\test\Pain Drain\libraries\lvgl\src\draw\sw/lv_draw_sw_line.c ****     /*The real draw area is around the line.
 372:..\..\..\arduinoLCD\test\Pain Drain\libraries\lvgl\src\draw\sw/lv_draw_sw_line.c ****      *It's easy to calculate with steep lines, but the area can be very wide with very flat lines.
 373:..\..\..\arduinoLCD\test\Pain Drain\libraries\lvgl\src\draw\sw/lv_draw_sw_line.c ****      *So deal with it only with steep lines.*/
 374:..\..\..\arduinoLCD\test\Pain Drain\libraries\lvgl\src\draw\sw/lv_draw_sw_line.c ****     int32_t draw_area_w = lv_area_get_width(&blend_area);
 375:..\..\..\arduinoLCD\test\Pain Drain\libraries\lvgl\src\draw\sw/lv_draw_sw_line.c **** 
 376:..\..\..\arduinoLCD\test\Pain Drain\libraries\lvgl\src\draw\sw/lv_draw_sw_line.c ****     /*Draw the background line by line*/
 377:..\..\..\arduinoLCD\test\Pain Drain\libraries\lvgl\src\draw\sw/lv_draw_sw_line.c ****     int32_t h;
 378:..\..\..\arduinoLCD\test\Pain Drain\libraries\lvgl\src\draw\sw/lv_draw_sw_line.c ****     uint32_t hor_res = (uint32_t)lv_disp_get_hor_res(_lv_refr_get_disp_refreshing());
 1158              		.loc 1 378 0
 1159 0244 FFF7FEFF 		bl	_lv_refr_get_disp_refreshing
 1160              	.LVL159:
 1161 0248 FFF7FEFF 		bl	lv_disp_get_hor_res
 1162              	.LVL160:
 1163 024c 0700     		movs	r7, r0
 1164              	.LVL161:
 379:..\..\..\arduinoLCD\test\Pain Drain\libraries\lvgl\src\draw\sw/lv_draw_sw_line.c ****     size_t mask_buf_size = LV_MIN(lv_area_get_size(&blend_area), hor_res);
 1165              		.loc 1 379 0
 1166 024e 2000     		movs	r0, r4
 1167              	.LVL162:
 1168 0250 FFF7FEFF 		bl	lv_area_get_size
 1169              	.LVL163:
 1170 0254 8742     		cmp	r7, r0
 1171 0256 03D9     		bls	.L60
 1172              		.loc 1 379 0 is_stmt 0 discriminator 1
 1173 0258 3CA8     		add	r0, sp, #240
 1174 025a FFF7FEFF 		bl	lv_area_get_size
 1175              	.LVL164:
 1176 025e 0700     		movs	r7, r0
 1177              	.LVL165:
 1178              	.L60:
 380:..\..\..\arduinoLCD\test\Pain Drain\libraries\lvgl\src\draw\sw/lv_draw_sw_line.c ****     lv_opa_t * mask_buf = lv_mem_buf_get(mask_buf_size);
 1179              		.loc 1 380 0 is_stmt 1 discriminator 4
 1180 0260 3800     		movs	r0, r7
 1181 0262 FFF7FEFF 		bl	lv_mem_buf_get
 1182              	.LVL166:
 1183 0266 8046     		mov	r8, r0
 1184              	.LVL167:
 381:..\..\..\arduinoLCD\test\Pain Drain\libraries\lvgl\src\draw\sw/lv_draw_sw_line.c **** 
 382:..\..\..\arduinoLCD\test\Pain Drain\libraries\lvgl\src\draw\sw/lv_draw_sw_line.c ****     lv_coord_t y2 = blend_area.y2;
 1185              		.loc 1 382 0 discriminator 4
 1186 0268 3CAC     		add	r4, sp, #240
 1187 026a 0622     		movs	r2, #6
 1188 026c A35E     		ldrsh	r3, [r4, r2]
ARM GAS  C:\Users\haske\AppData\Local\Temp\ccpgnYma.s 			page 31


 1189 026e 9B46     		mov	fp, r3
 1190              	.LVL168:
 383:..\..\..\arduinoLCD\test\Pain Drain\libraries\lvgl\src\draw\sw/lv_draw_sw_line.c ****     blend_area.y2 = blend_area.y1;
 1191              		.loc 1 383 0 discriminator 4
 1192 0270 0222     		movs	r2, #2
 1193 0272 A35E     		ldrsh	r3, [r4, r2]
 1194 0274 E380     		strh	r3, [r4, #6]
 1195              	.LVL169:
 384:..\..\..\arduinoLCD\test\Pain Drain\libraries\lvgl\src\draw\sw/lv_draw_sw_line.c **** 
 385:..\..\..\arduinoLCD\test\Pain Drain\libraries\lvgl\src\draw\sw/lv_draw_sw_line.c ****     uint32_t mask_p = 0;
 386:..\..\..\arduinoLCD\test\Pain Drain\libraries\lvgl\src\draw\sw/lv_draw_sw_line.c ****     lv_memset_ff(mask_buf, mask_buf_size);
 1196              		.loc 1 386 0 discriminator 4
 1197 0276 3900     		movs	r1, r7
 1198 0278 FFF7FEFF 		bl	lv_memset_ff
 1199              	.LVL170:
 387:..\..\..\arduinoLCD\test\Pain Drain\libraries\lvgl\src\draw\sw/lv_draw_sw_line.c **** 
 388:..\..\..\arduinoLCD\test\Pain Drain\libraries\lvgl\src\draw\sw/lv_draw_sw_line.c ****     lv_draw_sw_blend_dsc_t blend_dsc;
 389:..\..\..\arduinoLCD\test\Pain Drain\libraries\lvgl\src\draw\sw/lv_draw_sw_line.c ****     lv_memset_00(&blend_dsc, sizeof(blend_dsc));
 1200              		.loc 1 389 0 discriminator 4
 1201 027c 09AD     		add	r5, sp, #36
 1202 027e 1C21     		movs	r1, #28
 1203 0280 2800     		movs	r0, r5
 1204 0282 FFF7FEFF 		bl	lv_memset_00
 1205              	.LVL171:
 390:..\..\..\arduinoLCD\test\Pain Drain\libraries\lvgl\src\draw\sw/lv_draw_sw_line.c ****     blend_dsc.blend_area = &blend_area;
 1206              		.loc 1 390 0 discriminator 4
 1207 0286 0994     		str	r4, [sp, #36]
 391:..\..\..\arduinoLCD\test\Pain Drain\libraries\lvgl\src\draw\sw/lv_draw_sw_line.c ****     blend_dsc.color = dsc->color;
 1208              		.loc 1 391 0 discriminator 4
 1209 0288 029A     		ldr	r2, [sp, #8]
 1210 028a 1388     		ldrh	r3, [r2]
 1211 028c 2B81     		strh	r3, [r5, #8]
 392:..\..\..\arduinoLCD\test\Pain Drain\libraries\lvgl\src\draw\sw/lv_draw_sw_line.c ****     blend_dsc.opa = dsc->opa;
 1212              		.loc 1 392 0 discriminator 4
 1213 028e 137A     		ldrb	r3, [r2, #8]
 1214 0290 2B76     		strb	r3, [r5, #24]
 393:..\..\..\arduinoLCD\test\Pain Drain\libraries\lvgl\src\draw\sw/lv_draw_sw_line.c ****     blend_dsc.mask_buf = mask_buf;
 1215              		.loc 1 393 0 discriminator 4
 1216 0292 4346     		mov	r3, r8
 1217 0294 EB60     		str	r3, [r5, #12]
 394:..\..\..\arduinoLCD\test\Pain Drain\libraries\lvgl\src\draw\sw/lv_draw_sw_line.c ****     blend_dsc.mask_area = &blend_area;
 1218              		.loc 1 394 0 discriminator 4
 1219 0296 6C61     		str	r4, [r5, #20]
 395:..\..\..\arduinoLCD\test\Pain Drain\libraries\lvgl\src\draw\sw/lv_draw_sw_line.c **** 
 396:..\..\..\arduinoLCD\test\Pain Drain\libraries\lvgl\src\draw\sw/lv_draw_sw_line.c ****     /*Fill the first row with 'color'*/
 397:..\..\..\arduinoLCD\test\Pain Drain\libraries\lvgl\src\draw\sw/lv_draw_sw_line.c ****     for(h = blend_area.y1; h <= y2; h++) {
 1220              		.loc 1 397 0 discriminator 4
 1221 0298 0223     		movs	r3, #2
 1222 029a E55E     		ldrsh	r5, [r4, r3]
 1223              	.LVL172:
 385:..\..\..\arduinoLCD\test\Pain Drain\libraries\lvgl\src\draw\sw/lv_draw_sw_line.c ****     lv_memset_ff(mask_buf, mask_buf_size);
 1224              		.loc 1 385 0 discriminator 4
 1225 029c 0024     		movs	r4, #0
 1226 029e BA46     		mov	r10, r7
 1227              	.LVL173:
 1228              		.loc 1 397 0 discriminator 4
 1229 02a0 2EE0     		b	.L61
ARM GAS  C:\Users\haske\AppData\Local\Temp\ccpgnYma.s 			page 32


 1230              	.LVL174:
 1231              	.L65:
 398:..\..\..\arduinoLCD\test\Pain Drain\libraries\lvgl\src\draw\sw/lv_draw_sw_line.c ****         blend_dsc.mask_res = lv_draw_mask_apply(&mask_buf[mask_p], blend_area.x1, h, draw_area_w);
 1232              		.loc 1 398 0
 1233 02a2 4346     		mov	r3, r8
 1234 02a4 1F19     		adds	r7, r3, r4
 1235 02a6 2AB2     		sxth	r2, r5
 1236 02a8 3CAB     		add	r3, sp, #240
 1237 02aa 0021     		movs	r1, #0
 1238 02ac 595E     		ldrsh	r1, [r3, r1]
 1239 02ae 3300     		movs	r3, r6
 1240 02b0 3800     		movs	r0, r7
 1241 02b2 FFF7FEFF 		bl	lv_draw_mask_apply
 1242              	.LVL175:
 1243 02b6 09AB     		add	r3, sp, #36
 1244 02b8 1874     		strb	r0, [r3, #16]
 399:..\..\..\arduinoLCD\test\Pain Drain\libraries\lvgl\src\draw\sw/lv_draw_sw_line.c ****         if(blend_dsc.mask_res == LV_DRAW_MASK_RES_TRANSP) {
 1245              		.loc 1 399 0
 1246 02ba 0028     		cmp	r0, #0
 1247 02bc 03D1     		bne	.L62
 400:..\..\..\arduinoLCD\test\Pain Drain\libraries\lvgl\src\draw\sw/lv_draw_sw_line.c ****             lv_memset_00(&mask_buf[mask_p], draw_area_w);
 1248              		.loc 1 400 0
 1249 02be 3100     		movs	r1, r6
 1250 02c0 3800     		movs	r0, r7
 1251 02c2 FFF7FEFF 		bl	lv_memset_00
 1252              	.LVL176:
 1253              	.L62:
 401:..\..\..\arduinoLCD\test\Pain Drain\libraries\lvgl\src\draw\sw/lv_draw_sw_line.c ****         }
 402:..\..\..\arduinoLCD\test\Pain Drain\libraries\lvgl\src\draw\sw/lv_draw_sw_line.c **** 
 403:..\..\..\arduinoLCD\test\Pain Drain\libraries\lvgl\src\draw\sw/lv_draw_sw_line.c ****         mask_p += draw_area_w;
 1254              		.loc 1 403 0
 1255 02c6 A419     		adds	r4, r4, r6
 1256              	.LVL177:
 404:..\..\..\arduinoLCD\test\Pain Drain\libraries\lvgl\src\draw\sw/lv_draw_sw_line.c ****         if((uint32_t) mask_p + draw_area_w < mask_buf_size) {
 1257              		.loc 1 404 0
 1258 02c8 3319     		adds	r3, r6, r4
 1259 02ca 9A45     		cmp	r10, r3
 1260 02cc 05D9     		bls	.L63
 405:..\..\..\arduinoLCD\test\Pain Drain\libraries\lvgl\src\draw\sw/lv_draw_sw_line.c ****             blend_area.y2 ++;
 1261              		.loc 1 405 0
 1262 02ce 3CAA     		add	r2, sp, #240
 1263 02d0 0621     		movs	r1, #6
 1264 02d2 535E     		ldrsh	r3, [r2, r1]
 1265 02d4 0133     		adds	r3, r3, #1
 1266 02d6 D380     		strh	r3, [r2, #6]
 1267 02d8 11E0     		b	.L64
 1268              	.L63:
 406:..\..\..\arduinoLCD\test\Pain Drain\libraries\lvgl\src\draw\sw/lv_draw_sw_line.c ****         }
 407:..\..\..\arduinoLCD\test\Pain Drain\libraries\lvgl\src\draw\sw/lv_draw_sw_line.c ****         else {
 408:..\..\..\arduinoLCD\test\Pain Drain\libraries\lvgl\src\draw\sw/lv_draw_sw_line.c ****             blend_dsc.mask_res = LV_DRAW_MASK_RES_CHANGED;
 1269              		.loc 1 408 0
 1270 02da 09A9     		add	r1, sp, #36
 1271 02dc 0223     		movs	r3, #2
 1272 02de 0B74     		strb	r3, [r1, #16]
 409:..\..\..\arduinoLCD\test\Pain Drain\libraries\lvgl\src\draw\sw/lv_draw_sw_line.c ****             lv_draw_sw_blend(draw_ctx, &blend_dsc);
 1273              		.loc 1 409 0
 1274 02e0 4846     		mov	r0, r9
ARM GAS  C:\Users\haske\AppData\Local\Temp\ccpgnYma.s 			page 33


 1275 02e2 FFF7FEFF 		bl	lv_draw_sw_blend
 1276              	.LVL178:
 410:..\..\..\arduinoLCD\test\Pain Drain\libraries\lvgl\src\draw\sw/lv_draw_sw_line.c **** 
 411:..\..\..\arduinoLCD\test\Pain Drain\libraries\lvgl\src\draw\sw/lv_draw_sw_line.c ****             blend_area.y1 = blend_area.y2 + 1;
 1277              		.loc 1 411 0
 1278 02e6 3CAA     		add	r2, sp, #240
 1279 02e8 0621     		movs	r1, #6
 1280 02ea 535E     		ldrsh	r3, [r2, r1]
 1281 02ec 0133     		adds	r3, r3, #1
 1282 02ee 1BB2     		sxth	r3, r3
 1283 02f0 5380     		strh	r3, [r2, #2]
 412:..\..\..\arduinoLCD\test\Pain Drain\libraries\lvgl\src\draw\sw/lv_draw_sw_line.c ****             blend_area.y2 = blend_area.y1;
 1284              		.loc 1 412 0
 1285 02f2 D380     		strh	r3, [r2, #6]
 1286              	.LVL179:
 413:..\..\..\arduinoLCD\test\Pain Drain\libraries\lvgl\src\draw\sw/lv_draw_sw_line.c ****             mask_p = 0;
 414:..\..\..\arduinoLCD\test\Pain Drain\libraries\lvgl\src\draw\sw/lv_draw_sw_line.c ****             lv_memset_ff(mask_buf, mask_buf_size);
 1287              		.loc 1 414 0
 1288 02f4 5146     		mov	r1, r10
 1289 02f6 4046     		mov	r0, r8
 1290 02f8 FFF7FEFF 		bl	lv_memset_ff
 1291              	.LVL180:
 413:..\..\..\arduinoLCD\test\Pain Drain\libraries\lvgl\src\draw\sw/lv_draw_sw_line.c ****             mask_p = 0;
 1292              		.loc 1 413 0
 1293 02fc 0024     		movs	r4, #0
 1294              	.LVL181:
 1295              	.L64:
 397:..\..\..\arduinoLCD\test\Pain Drain\libraries\lvgl\src\draw\sw/lv_draw_sw_line.c ****         blend_dsc.mask_res = lv_draw_mask_apply(&mask_buf[mask_p], blend_area.x1, h, draw_area_w);
 1296              		.loc 1 397 0 discriminator 2
 1297 02fe 0135     		adds	r5, r5, #1
 1298              	.LVL182:
 1299              	.L61:
 397:..\..\..\arduinoLCD\test\Pain Drain\libraries\lvgl\src\draw\sw/lv_draw_sw_line.c ****         blend_dsc.mask_res = lv_draw_mask_apply(&mask_buf[mask_p], blend_area.x1, h, draw_area_w);
 1300              		.loc 1 397 0 is_stmt 0 discriminator 1
 1301 0300 5D45     		cmp	r5, fp
 1302 0302 CEDD     		ble	.L65
 415:..\..\..\arduinoLCD\test\Pain Drain\libraries\lvgl\src\draw\sw/lv_draw_sw_line.c ****         }
 416:..\..\..\arduinoLCD\test\Pain Drain\libraries\lvgl\src\draw\sw/lv_draw_sw_line.c ****     }
 417:..\..\..\arduinoLCD\test\Pain Drain\libraries\lvgl\src\draw\sw/lv_draw_sw_line.c **** 
 418:..\..\..\arduinoLCD\test\Pain Drain\libraries\lvgl\src\draw\sw/lv_draw_sw_line.c ****     /*Flush the last part*/
 419:..\..\..\arduinoLCD\test\Pain Drain\libraries\lvgl\src\draw\sw/lv_draw_sw_line.c ****     if(blend_area.y1 != blend_area.y2) {
 1303              		.loc 1 419 0 is_stmt 1
 1304 0304 3CAB     		add	r3, sp, #240
 1305 0306 0221     		movs	r1, #2
 1306 0308 5A5E     		ldrsh	r2, [r3, r1]
 1307 030a 0621     		movs	r1, #6
 1308 030c 5B5E     		ldrsh	r3, [r3, r1]
 1309 030e 9A42     		cmp	r2, r3
 1310 0310 08D0     		beq	.L66
 420:..\..\..\arduinoLCD\test\Pain Drain\libraries\lvgl\src\draw\sw/lv_draw_sw_line.c ****         blend_area.y2--;
 1311              		.loc 1 420 0
 1312 0312 013B     		subs	r3, r3, #1
 1313 0314 3CAA     		add	r2, sp, #240
 1314 0316 D380     		strh	r3, [r2, #6]
 421:..\..\..\arduinoLCD\test\Pain Drain\libraries\lvgl\src\draw\sw/lv_draw_sw_line.c ****         blend_dsc.mask_res = LV_DRAW_MASK_RES_CHANGED;
 1315              		.loc 1 421 0
 1316 0318 09A9     		add	r1, sp, #36
ARM GAS  C:\Users\haske\AppData\Local\Temp\ccpgnYma.s 			page 34


 1317 031a 0223     		movs	r3, #2
 1318 031c 0B74     		strb	r3, [r1, #16]
 422:..\..\..\arduinoLCD\test\Pain Drain\libraries\lvgl\src\draw\sw/lv_draw_sw_line.c ****         lv_draw_sw_blend(draw_ctx, &blend_dsc);
 1319              		.loc 1 422 0
 1320 031e 4846     		mov	r0, r9
 1321 0320 FFF7FEFF 		bl	lv_draw_sw_blend
 1322              	.LVL183:
 1323              	.L66:
 423:..\..\..\arduinoLCD\test\Pain Drain\libraries\lvgl\src\draw\sw/lv_draw_sw_line.c ****     }
 424:..\..\..\arduinoLCD\test\Pain Drain\libraries\lvgl\src\draw\sw/lv_draw_sw_line.c **** 
 425:..\..\..\arduinoLCD\test\Pain Drain\libraries\lvgl\src\draw\sw/lv_draw_sw_line.c ****     lv_mem_buf_release(mask_buf);
 1324              		.loc 1 425 0
 1325 0324 4046     		mov	r0, r8
 1326 0326 FFF7FEFF 		bl	lv_mem_buf_release
 1327              	.LVL184:
 426:..\..\..\arduinoLCD\test\Pain Drain\libraries\lvgl\src\draw\sw/lv_draw_sw_line.c **** 
 427:..\..\..\arduinoLCD\test\Pain Drain\libraries\lvgl\src\draw\sw/lv_draw_sw_line.c ****     lv_draw_mask_free_param(&mask_left_param);
 1328              		.loc 1 427 0
 1329 032a 31A8     		add	r0, sp, #196
 1330 032c FFF7FEFF 		bl	lv_draw_mask_free_param
 1331              	.LVL185:
 428:..\..\..\arduinoLCD\test\Pain Drain\libraries\lvgl\src\draw\sw/lv_draw_sw_line.c ****     lv_draw_mask_free_param(&mask_right_param);
 1332              		.loc 1 428 0
 1333 0330 26A8     		add	r0, sp, #152
 1334 0332 FFF7FEFF 		bl	lv_draw_mask_free_param
 1335              	.LVL186:
 429:..\..\..\arduinoLCD\test\Pain Drain\libraries\lvgl\src\draw\sw/lv_draw_sw_line.c ****     if(mask_top_id != LV_MASK_ID_INV) lv_draw_mask_free_param(&mask_top_param);
 1336              		.loc 1 429 0
 1337 0336 039B     		ldr	r3, [sp, #12]
 1338 0338 0133     		adds	r3, r3, #1
 1339 033a 02D0     		beq	.L67
 1340              		.loc 1 429 0 is_stmt 0 discriminator 1
 1341 033c 1BA8     		add	r0, sp, #108
 1342 033e FFF7FEFF 		bl	lv_draw_mask_free_param
 1343              	.LVL187:
 1344              	.L67:
 430:..\..\..\arduinoLCD\test\Pain Drain\libraries\lvgl\src\draw\sw/lv_draw_sw_line.c ****     if(mask_bottom_id != LV_MASK_ID_INV) lv_draw_mask_free_param(&mask_bottom_param);
 1345              		.loc 1 430 0 is_stmt 1
 1346 0342 049B     		ldr	r3, [sp, #16]
 1347 0344 0133     		adds	r3, r3, #1
 1348 0346 02D0     		beq	.L68
 1349              		.loc 1 430 0 is_stmt 0 discriminator 1
 1350 0348 10A8     		add	r0, sp, #64
 1351 034a FFF7FEFF 		bl	lv_draw_mask_free_param
 1352              	.LVL188:
 1353              	.L68:
 431:..\..\..\arduinoLCD\test\Pain Drain\libraries\lvgl\src\draw\sw/lv_draw_sw_line.c ****     lv_draw_mask_remove_id(mask_left_id);
 1354              		.loc 1 431 0 is_stmt 1
 1355 034e 0698     		ldr	r0, [sp, #24]
 1356 0350 FFF7FEFF 		bl	lv_draw_mask_remove_id
 1357              	.LVL189:
 432:..\..\..\arduinoLCD\test\Pain Drain\libraries\lvgl\src\draw\sw/lv_draw_sw_line.c ****     lv_draw_mask_remove_id(mask_right_id);
 1358              		.loc 1 432 0
 1359 0354 0798     		ldr	r0, [sp, #28]
 1360 0356 FFF7FEFF 		bl	lv_draw_mask_remove_id
 1361              	.LVL190:
 433:..\..\..\arduinoLCD\test\Pain Drain\libraries\lvgl\src\draw\sw/lv_draw_sw_line.c ****     lv_draw_mask_remove_id(mask_top_id);
ARM GAS  C:\Users\haske\AppData\Local\Temp\ccpgnYma.s 			page 35


 1362              		.loc 1 433 0
 1363 035a 0398     		ldr	r0, [sp, #12]
 1364 035c FFF7FEFF 		bl	lv_draw_mask_remove_id
 1365              	.LVL191:
 434:..\..\..\arduinoLCD\test\Pain Drain\libraries\lvgl\src\draw\sw/lv_draw_sw_line.c ****     lv_draw_mask_remove_id(mask_bottom_id);
 1366              		.loc 1 434 0
 1367 0360 0498     		ldr	r0, [sp, #16]
 1368 0362 FFF7FEFF 		bl	lv_draw_mask_remove_id
 1369              	.LVL192:
 1370              	.L46:
 435:..\..\..\arduinoLCD\test\Pain Drain\libraries\lvgl\src\draw\sw/lv_draw_sw_line.c **** #else
 436:..\..\..\arduinoLCD\test\Pain Drain\libraries\lvgl\src\draw\sw/lv_draw_sw_line.c ****     LV_UNUSED(point1);
 437:..\..\..\arduinoLCD\test\Pain Drain\libraries\lvgl\src\draw\sw/lv_draw_sw_line.c ****     LV_UNUSED(point2);
 438:..\..\..\arduinoLCD\test\Pain Drain\libraries\lvgl\src\draw\sw/lv_draw_sw_line.c ****     LV_UNUSED(draw_ctx);
 439:..\..\..\arduinoLCD\test\Pain Drain\libraries\lvgl\src\draw\sw/lv_draw_sw_line.c ****     LV_UNUSED(dsc);
 440:..\..\..\arduinoLCD\test\Pain Drain\libraries\lvgl\src\draw\sw/lv_draw_sw_line.c ****     LV_LOG_WARN("Can't draw skewed line with LV_DRAW_COMPLEX == 0");
 441:..\..\..\arduinoLCD\test\Pain Drain\libraries\lvgl\src\draw\sw/lv_draw_sw_line.c **** #endif /*LV_DRAW_COMPLEX*/
 442:..\..\..\arduinoLCD\test\Pain Drain\libraries\lvgl\src\draw\sw/lv_draw_sw_line.c **** }
 1371              		.loc 1 442 0
 1372 0366 41B0     		add	sp, sp, #260
 1373              		@ sp needed
 1374              	.LVL193:
 1375 0368 3CBC     		pop	{r2, r3, r4, r5}
 1376 036a 9046     		mov	r8, r2
 1377 036c 9946     		mov	r9, r3
 1378 036e A246     		mov	r10, r4
 1379 0370 AB46     		mov	fp, r5
 1380 0372 F0BD     		pop	{r4, r5, r6, r7, pc}
 1381              	.L72:
 1382              		.align	2
 1383              	.L71:
 1384 0374 00000000 		.word	.LANCHOR0
 1385              		.cfi_endproc
 1386              	.LFE162:
 1387              		.size	draw_line_skew, .-draw_line_skew
 1388              		.section	.text.lv_draw_sw_line,"ax",%progbits
 1389              		.align	2
 1390              		.global	lv_draw_sw_line
 1391              		.code	16
 1392              		.thumb_func
 1393              		.type	lv_draw_sw_line, %function
 1394              	lv_draw_sw_line:
 1395              	.LFB159:
  54:..\..\..\arduinoLCD\test\Pain Drain\libraries\lvgl\src\draw\sw/lv_draw_sw_line.c ****     if(dsc->width == 0) return;
 1396              		.loc 1 54 0
 1397              		.cfi_startproc
 1398              		@ args = 0, pretend = 0, frame = 80
 1399              		@ frame_needed = 0, uses_anonymous_args = 0
 1400              	.LVL194:
 1401 0000 F0B5     		push	{r4, r5, r6, r7, lr}
 1402              		.cfi_def_cfa_offset 20
 1403              		.cfi_offset 4, -20
 1404              		.cfi_offset 5, -16
 1405              		.cfi_offset 6, -12
 1406              		.cfi_offset 7, -8
 1407              		.cfi_offset 14, -4
 1408 0002 5746     		mov	r7, r10
ARM GAS  C:\Users\haske\AppData\Local\Temp\ccpgnYma.s 			page 36


 1409 0004 4E46     		mov	r6, r9
 1410 0006 4546     		mov	r5, r8
 1411 0008 E0B4     		push	{r5, r6, r7}
 1412              		.cfi_def_cfa_offset 32
 1413              		.cfi_offset 8, -32
 1414              		.cfi_offset 9, -28
 1415              		.cfi_offset 10, -24
 1416 000a 94B0     		sub	sp, sp, #80
 1417              		.cfi_def_cfa_offset 112
 1418 000c 0700     		movs	r7, r0
 1419 000e 0C00     		movs	r4, r1
 1420 0010 1600     		movs	r6, r2
 1421 0012 1D00     		movs	r5, r3
  55:..\..\..\arduinoLCD\test\Pain Drain\libraries\lvgl\src\draw\sw/lv_draw_sw_line.c ****     if(dsc->opa <= LV_OPA_MIN) return;
 1422              		.loc 1 55 0
 1423 0014 0222     		movs	r2, #2
 1424 0016 8B5E     		ldrsh	r3, [r1, r2]
 1425              	.LVL195:
 1426 0018 002B     		cmp	r3, #0
 1427 001a 00D1     		bne	.LCB1394
 1428 001c D0E0     		b	.L73	@long jump
 1429              	.LCB1394:
  56:..\..\..\arduinoLCD\test\Pain Drain\libraries\lvgl\src\draw\sw/lv_draw_sw_line.c **** 
 1430              		.loc 1 56 0
 1431 001e 0A7A     		ldrb	r2, [r1, #8]
 1432 0020 022A     		cmp	r2, #2
 1433 0022 00D8     		bhi	.LCB1397
 1434 0024 CCE0     		b	.L73	@long jump
 1435              	.LCB1397:
  58:..\..\..\arduinoLCD\test\Pain Drain\libraries\lvgl\src\draw\sw/lv_draw_sw_line.c **** 
 1436              		.loc 1 58 0
 1437 0026 0022     		movs	r2, #0
 1438 0028 B15E     		ldrsh	r1, [r6, r2]
 1439              	.LVL196:
 1440 002a 0022     		movs	r2, #0
 1441 002c A85E     		ldrsh	r0, [r5, r2]
 1442              	.LVL197:
 1443 002e 8046     		mov	r8, r0
 1444 0030 8142     		cmp	r1, r0
 1445 0032 07D1     		bne	.L75
  58:..\..\..\arduinoLCD\test\Pain Drain\libraries\lvgl\src\draw\sw/lv_draw_sw_line.c **** 
 1446              		.loc 1 58 0 is_stmt 0 discriminator 1
 1447 0034 0220     		movs	r0, #2
 1448 0036 325E     		ldrsh	r2, [r6, r0]
 1449 0038 9446     		mov	ip, r2
 1450 003a 0220     		movs	r0, #2
 1451 003c 2A5E     		ldrsh	r2, [r5, r0]
 1452 003e 9445     		cmp	ip, r2
 1453 0040 00D1     		bne	.LCB1409
 1454 0042 BDE0     		b	.L73	@long jump
 1455              	.LCB1409:
 1456              	.L75:
  61:..\..\..\arduinoLCD\test\Pain Drain\libraries\lvgl\src\draw\sw/lv_draw_sw_line.c ****     clip_line.x2 = LV_MAX(point1->x, point2->x) + dsc->width / 2;
 1457              		.loc 1 61 0 is_stmt 1
 1458 0044 0A1C     		adds	r2, r1, #0
 1459 0046 4145     		cmp	r1, r8
 1460 0048 00DD     		ble	.L76
ARM GAS  C:\Users\haske\AppData\Local\Temp\ccpgnYma.s 			page 37


 1461 004a 4246     		mov	r2, r8
 1462              	.L76:
 1463 004c D90F     		lsrs	r1, r3, #31
 1464 004e CB18     		adds	r3, r1, r3
 1465 0050 5B10     		asrs	r3, r3, #1
 1466 0052 9BB2     		uxth	r3, r3
 1467 0054 D21A     		subs	r2, r2, r3
 1468 0056 12A9     		add	r1, sp, #72
 1469 0058 0A80     		strh	r2, [r1]
  62:..\..\..\arduinoLCD\test\Pain Drain\libraries\lvgl\src\draw\sw/lv_draw_sw_line.c ****     clip_line.y1 = LV_MIN(point1->y, point2->y) - dsc->width / 2;
 1470              		.loc 1 62 0
 1471 005a 0022     		movs	r2, #0
 1472 005c A95E     		ldrsh	r1, [r5, r2]
 1473 005e 0022     		movs	r2, #0
 1474 0060 B05E     		ldrsh	r0, [r6, r2]
 1475 0062 0A1C     		adds	r2, r1, #0
 1476 0064 8142     		cmp	r1, r0
 1477 0066 00DA     		bge	.L77
 1478 0068 021C     		adds	r2, r0, #0
 1479              	.L77:
 1480 006a 9B18     		adds	r3, r3, r2
 1481 006c 12AA     		add	r2, sp, #72
 1482 006e 9380     		strh	r3, [r2, #4]
  63:..\..\..\arduinoLCD\test\Pain Drain\libraries\lvgl\src\draw\sw/lv_draw_sw_line.c ****     clip_line.y2 = LV_MAX(point1->y, point2->y) + dsc->width / 2;
 1483              		.loc 1 63 0
 1484 0070 0222     		movs	r2, #2
 1485 0072 AB5E     		ldrsh	r3, [r5, r2]
 1486 0074 0222     		movs	r2, #2
 1487 0076 B15E     		ldrsh	r1, [r6, r2]
 1488 0078 1A1C     		adds	r2, r3, #0
 1489 007a 8B42     		cmp	r3, r1
 1490 007c 00DD     		ble	.L78
 1491 007e 0A1C     		adds	r2, r1, #0
 1492              	.L78:
 1493 0080 0221     		movs	r1, #2
 1494 0082 635E     		ldrsh	r3, [r4, r1]
 1495 0084 D90F     		lsrs	r1, r3, #31
 1496 0086 CB18     		adds	r3, r1, r3
 1497 0088 5B10     		asrs	r3, r3, #1
 1498 008a D31A     		subs	r3, r2, r3
 1499 008c 12AA     		add	r2, sp, #72
 1500 008e 5380     		strh	r3, [r2, #2]
  64:..\..\..\arduinoLCD\test\Pain Drain\libraries\lvgl\src\draw\sw/lv_draw_sw_line.c **** 
 1501              		.loc 1 64 0
 1502 0090 0222     		movs	r2, #2
 1503 0092 AB5E     		ldrsh	r3, [r5, r2]
 1504 0094 0222     		movs	r2, #2
 1505 0096 B15E     		ldrsh	r1, [r6, r2]
 1506 0098 1A1C     		adds	r2, r3, #0
 1507 009a 8B42     		cmp	r3, r1
 1508 009c 00DA     		bge	.L79
 1509 009e 0A1C     		adds	r2, r1, #0
 1510              	.L79:
 1511 00a0 0221     		movs	r1, #2
 1512 00a2 635E     		ldrsh	r3, [r4, r1]
 1513 00a4 12A8     		add	r0, sp, #72
 1514 00a6 D90F     		lsrs	r1, r3, #31
ARM GAS  C:\Users\haske\AppData\Local\Temp\ccpgnYma.s 			page 38


 1515 00a8 CB18     		adds	r3, r1, r3
 1516 00aa 5B10     		asrs	r3, r3, #1
 1517 00ac 9B18     		adds	r3, r3, r2
 1518 00ae C380     		strh	r3, [r0, #6]
  67:..\..\..\arduinoLCD\test\Pain Drain\libraries\lvgl\src\draw\sw/lv_draw_sw_line.c ****     if(!is_common) return;
 1519              		.loc 1 67 0
 1520 00b0 BA68     		ldr	r2, [r7, #8]
 1521 00b2 0100     		movs	r1, r0
 1522 00b4 FFF7FEFF 		bl	_lv_area_intersect
 1523              	.LVL198:
  68:..\..\..\arduinoLCD\test\Pain Drain\libraries\lvgl\src\draw\sw/lv_draw_sw_line.c ****     const lv_area_t * clip_area_ori = draw_ctx->clip_area;
 1524              		.loc 1 68 0
 1525 00b8 0028     		cmp	r0, #0
 1526 00ba 00D1     		bne	.LCB1480
 1527 00bc 80E0     		b	.L73	@long jump
 1528              	.LCB1480:
  69:..\..\..\arduinoLCD\test\Pain Drain\libraries\lvgl\src\draw\sw/lv_draw_sw_line.c ****     draw_ctx->clip_area = &clip_line;
 1529              		.loc 1 69 0
 1530 00be BB68     		ldr	r3, [r7, #8]
 1531 00c0 9946     		mov	r9, r3
 1532              	.LVL199:
  70:..\..\..\arduinoLCD\test\Pain Drain\libraries\lvgl\src\draw\sw/lv_draw_sw_line.c **** 
 1533              		.loc 1 70 0
 1534 00c2 12AB     		add	r3, sp, #72
 1535              	.LVL200:
 1536 00c4 BB60     		str	r3, [r7, #8]
  72:..\..\..\arduinoLCD\test\Pain Drain\libraries\lvgl\src\draw\sw/lv_draw_sw_line.c ****     else if(point1->x == point2->x) draw_line_ver(draw_ctx, dsc, point1, point2);
 1537              		.loc 1 72 0
 1538 00c6 0223     		movs	r3, #2
 1539 00c8 F25E     		ldrsh	r2, [r6, r3]
 1540 00ca 0221     		movs	r1, #2
 1541 00cc 6B5E     		ldrsh	r3, [r5, r1]
 1542 00ce 9A42     		cmp	r2, r3
 1543 00d0 06D1     		bne	.L80
  72:..\..\..\arduinoLCD\test\Pain Drain\libraries\lvgl\src\draw\sw/lv_draw_sw_line.c ****     else if(point1->x == point2->x) draw_line_ver(draw_ctx, dsc, point1, point2);
 1544              		.loc 1 72 0 is_stmt 0 discriminator 1
 1545 00d2 2B00     		movs	r3, r5
 1546 00d4 3200     		movs	r2, r6
 1547 00d6 2100     		movs	r1, r4
 1548 00d8 3800     		movs	r0, r7
 1549              	.LVL201:
 1550 00da FFF7FEFF 		bl	draw_line_hor
 1551              	.LVL202:
 1552 00de 12E0     		b	.L81
 1553              	.LVL203:
 1554              	.L80:
  73:..\..\..\arduinoLCD\test\Pain Drain\libraries\lvgl\src\draw\sw/lv_draw_sw_line.c ****     else draw_line_skew(draw_ctx, dsc, point1, point2);
 1555              		.loc 1 73 0 is_stmt 1
 1556 00e0 0023     		movs	r3, #0
 1557 00e2 F25E     		ldrsh	r2, [r6, r3]
 1558 00e4 0021     		movs	r1, #0
 1559 00e6 6B5E     		ldrsh	r3, [r5, r1]
 1560 00e8 9A42     		cmp	r2, r3
 1561 00ea 06D1     		bne	.L82
  73:..\..\..\arduinoLCD\test\Pain Drain\libraries\lvgl\src\draw\sw/lv_draw_sw_line.c ****     else draw_line_skew(draw_ctx, dsc, point1, point2);
 1562              		.loc 1 73 0 is_stmt 0 discriminator 1
 1563 00ec 2B00     		movs	r3, r5
ARM GAS  C:\Users\haske\AppData\Local\Temp\ccpgnYma.s 			page 39


 1564 00ee 3200     		movs	r2, r6
 1565 00f0 2100     		movs	r1, r4
 1566 00f2 3800     		movs	r0, r7
 1567              	.LVL204:
 1568 00f4 FFF7FEFF 		bl	draw_line_ver
 1569              	.LVL205:
 1570 00f8 05E0     		b	.L81
 1571              	.LVL206:
 1572              	.L82:
  74:..\..\..\arduinoLCD\test\Pain Drain\libraries\lvgl\src\draw\sw/lv_draw_sw_line.c **** 
 1573              		.loc 1 74 0 is_stmt 1
 1574 00fa 2B00     		movs	r3, r5
 1575 00fc 3200     		movs	r2, r6
 1576 00fe 2100     		movs	r1, r4
 1577 0100 3800     		movs	r0, r7
 1578              	.LVL207:
 1579 0102 FFF7FEFF 		bl	draw_line_skew
 1580              	.LVL208:
 1581              	.L81:
  76:..\..\..\arduinoLCD\test\Pain Drain\libraries\lvgl\src\draw\sw/lv_draw_sw_line.c ****         lv_draw_rect_dsc_t cir_dsc;
 1582              		.loc 1 76 0
 1583 0106 637A     		ldrb	r3, [r4, #9]
 1584 0108 0C22     		movs	r2, #12
 1585 010a 1A42     		tst	r2, r3
 1586 010c 56D0     		beq	.L83
 1587              	.LBB23:
  78:..\..\..\arduinoLCD\test\Pain Drain\libraries\lvgl\src\draw\sw/lv_draw_sw_line.c ****         cir_dsc.bg_color = dsc->color;
 1588              		.loc 1 78 0
 1589 010e 04A8     		add	r0, sp, #16
 1590 0110 FFF7FEFF 		bl	lv_draw_rect_dsc_init
 1591              	.LVL209:
  79:..\..\..\arduinoLCD\test\Pain Drain\libraries\lvgl\src\draw\sw/lv_draw_sw_line.c ****         cir_dsc.radius = LV_RADIUS_CIRCLE;
 1592              		.loc 1 79 0
 1593 0114 2388     		ldrh	r3, [r4]
 1594 0116 02AA     		add	r2, sp, #8
 1595 0118 9381     		strh	r3, [r2, #12]
  80:..\..\..\arduinoLCD\test\Pain Drain\libraries\lvgl\src\draw\sw/lv_draw_sw_line.c ****         cir_dsc.bg_opa = dsc->opa;
 1596              		.loc 1 80 0
 1597 011a 2C4B     		ldr	r3, .L87
 1598 011c 1381     		strh	r3, [r2, #8]
  81:..\..\..\arduinoLCD\test\Pain Drain\libraries\lvgl\src\draw\sw/lv_draw_sw_line.c **** 
 1599              		.loc 1 81 0
 1600 011e 237A     		ldrb	r3, [r4, #8]
 1601 0120 D372     		strb	r3, [r2, #11]
  83:..\..\..\arduinoLCD\test\Pain Drain\libraries\lvgl\src\draw\sw/lv_draw_sw_line.c ****         int32_t r_corr = (dsc->width & 1) ? 0 : 1;
 1602              		.loc 1 83 0
 1603 0122 0222     		movs	r2, #2
 1604 0124 A35E     		ldrsh	r3, [r4, r2]
 1605 0126 5A10     		asrs	r2, r3, #1
 1606 0128 9046     		mov	r8, r2
 1607              	.LVL210:
  84:..\..\..\arduinoLCD\test\Pain Drain\libraries\lvgl\src\draw\sw/lv_draw_sw_line.c ****         lv_area_t cir_area;
 1608              		.loc 1 84 0
 1609 012a 9BB2     		uxth	r3, r3
 1610 012c 0122     		movs	r2, #1
 1611 012e 5340     		eors	r3, r2
 1612 0130 0122     		movs	r2, #1
ARM GAS  C:\Users\haske\AppData\Local\Temp\ccpgnYma.s 			page 40


 1613 0132 1A40     		ands	r2, r3
 1614 0134 9246     		mov	r10, r2
 1615              	.LVL211:
  87:..\..\..\arduinoLCD\test\Pain Drain\libraries\lvgl\src\draw\sw/lv_draw_sw_line.c ****             cir_area.x1 = point1->x - r;
 1616              		.loc 1 87 0
 1617 0136 637A     		ldrb	r3, [r4, #9]
 1618 0138 5B07     		lsls	r3, r3, #29
 1619 013a 1ED5     		bpl	.L84
  88:..\..\..\arduinoLCD\test\Pain Drain\libraries\lvgl\src\draw\sw/lv_draw_sw_line.c ****             cir_area.y1 = point1->y - r;
 1620              		.loc 1 88 0
 1621 013c 0023     		movs	r3, #0
 1622 013e F15E     		ldrsh	r1, [r6, r3]
 1623 0140 4346     		mov	r3, r8
 1624 0142 6A46     		mov	r2, sp
 1625 0144 D380     		strh	r3, [r2, #6]
 1626 0146 D388     		ldrh	r3, [r2, #6]
 1627 0148 1A00     		movs	r2, r3
 1628 014a CB1A     		subs	r3, r1, r3
 1629 014c 02A8     		add	r0, sp, #8
 1630 014e 0380     		strh	r3, [r0]
  89:..\..\..\arduinoLCD\test\Pain Drain\libraries\lvgl\src\draw\sw/lv_draw_sw_line.c ****             cir_area.x2 = point1->x + r - r_corr;
 1631              		.loc 1 89 0
 1632 0150 0220     		movs	r0, #2
 1633 0152 335E     		ldrsh	r3, [r6, r0]
 1634 0154 981A     		subs	r0, r3, r2
 1635 0156 02AE     		add	r6, sp, #8
 1636              	.LVL212:
 1637 0158 7080     		strh	r0, [r6, #2]
  90:..\..\..\arduinoLCD\test\Pain Drain\libraries\lvgl\src\draw\sw/lv_draw_sw_line.c ****             cir_area.y2 = point1->y + r - r_corr ;
 1638              		.loc 1 90 0
 1639 015a 5046     		mov	r0, r10
 1640 015c 6E46     		mov	r6, sp
 1641 015e F080     		strh	r0, [r6, #6]
 1642 0160 F088     		ldrh	r0, [r6, #6]
 1643 0162 5118     		adds	r1, r2, r1
 1644 0164 091A     		subs	r1, r1, r0
 1645 0166 02AE     		add	r6, sp, #8
 1646 0168 B180     		strh	r1, [r6, #4]
  91:..\..\..\arduinoLCD\test\Pain Drain\libraries\lvgl\src\draw\sw/lv_draw_sw_line.c ****             lv_draw_rect(draw_ctx, &cir_dsc, &cir_area);
 1647              		.loc 1 91 0
 1648 016a D318     		adds	r3, r2, r3
 1649 016c 1B1A     		subs	r3, r3, r0
 1650 016e 3200     		movs	r2, r6
 1651 0170 F380     		strh	r3, [r6, #6]
  92:..\..\..\arduinoLCD\test\Pain Drain\libraries\lvgl\src\draw\sw/lv_draw_sw_line.c ****         }
 1652              		.loc 1 92 0
 1653 0172 04A9     		add	r1, sp, #16
 1654 0174 3800     		movs	r0, r7
 1655 0176 FFF7FEFF 		bl	lv_draw_rect
 1656              	.LVL213:
 1657              	.L84:
  95:..\..\..\arduinoLCD\test\Pain Drain\libraries\lvgl\src\draw\sw/lv_draw_sw_line.c ****             cir_area.x1 = point2->x - r;
 1658              		.loc 1 95 0
 1659 017a 637A     		ldrb	r3, [r4, #9]
 1660 017c 1B07     		lsls	r3, r3, #28
 1661 017e 1DD5     		bpl	.L83
  96:..\..\..\arduinoLCD\test\Pain Drain\libraries\lvgl\src\draw\sw/lv_draw_sw_line.c ****             cir_area.y1 = point2->y - r;
ARM GAS  C:\Users\haske\AppData\Local\Temp\ccpgnYma.s 			page 41


 1662              		.loc 1 96 0
 1663 0180 0023     		movs	r3, #0
 1664 0182 E95E     		ldrsh	r1, [r5, r3]
 1665 0184 4346     		mov	r3, r8
 1666 0186 6A46     		mov	r2, sp
 1667 0188 D380     		strh	r3, [r2, #6]
 1668 018a D088     		ldrh	r0, [r2, #6]
 1669 018c 0B1A     		subs	r3, r1, r0
 1670 018e 02AA     		add	r2, sp, #8
 1671 0190 1380     		strh	r3, [r2]
  97:..\..\..\arduinoLCD\test\Pain Drain\libraries\lvgl\src\draw\sw/lv_draw_sw_line.c ****             cir_area.x2 = point2->x + r - r_corr;
 1672              		.loc 1 97 0
 1673 0192 0223     		movs	r3, #2
 1674 0194 EA5E     		ldrsh	r2, [r5, r3]
 1675 0196 131A     		subs	r3, r2, r0
 1676 0198 02AC     		add	r4, sp, #8
 1677              	.LVL214:
 1678 019a 6380     		strh	r3, [r4, #2]
  98:..\..\..\arduinoLCD\test\Pain Drain\libraries\lvgl\src\draw\sw/lv_draw_sw_line.c ****             cir_area.y2 = point2->y + r - r_corr ;
 1679              		.loc 1 98 0
 1680 019c 5346     		mov	r3, r10
 1681 019e 6C46     		mov	r4, sp
 1682 01a0 E380     		strh	r3, [r4, #6]
 1683 01a2 E388     		ldrh	r3, [r4, #6]
 1684 01a4 4118     		adds	r1, r0, r1
 1685 01a6 C91A     		subs	r1, r1, r3
 1686 01a8 02AC     		add	r4, sp, #8
 1687 01aa A180     		strh	r1, [r4, #4]
  99:..\..\..\arduinoLCD\test\Pain Drain\libraries\lvgl\src\draw\sw/lv_draw_sw_line.c ****             lv_draw_rect(draw_ctx, &cir_dsc, &cir_area);
 1688              		.loc 1 99 0
 1689 01ac 8218     		adds	r2, r0, r2
 1690 01ae D31A     		subs	r3, r2, r3
 1691 01b0 2200     		movs	r2, r4
 1692 01b2 E380     		strh	r3, [r4, #6]
 100:..\..\..\arduinoLCD\test\Pain Drain\libraries\lvgl\src\draw\sw/lv_draw_sw_line.c ****         }
 1693              		.loc 1 100 0
 1694 01b4 04A9     		add	r1, sp, #16
 1695 01b6 3800     		movs	r0, r7
 1696 01b8 FFF7FEFF 		bl	lv_draw_rect
 1697              	.LVL215:
 1698              	.L83:
 1699              	.LBE23:
 104:..\..\..\arduinoLCD\test\Pain Drain\libraries\lvgl\src\draw\sw/lv_draw_sw_line.c **** }
 1700              		.loc 1 104 0 discriminator 1
 1701 01bc 4B46     		mov	r3, r9
 1702 01be BB60     		str	r3, [r7, #8]
 1703              	.LVL216:
 1704              	.L73:
 105:..\..\..\arduinoLCD\test\Pain Drain\libraries\lvgl\src\draw\sw/lv_draw_sw_line.c **** 
 1705              		.loc 1 105 0
 1706 01c0 14B0     		add	sp, sp, #80
 1707              		@ sp needed
 1708              	.LVL217:
 1709              	.LVL218:
 1710 01c2 1CBC     		pop	{r2, r3, r4}
 1711 01c4 9046     		mov	r8, r2
 1712 01c6 9946     		mov	r9, r3
ARM GAS  C:\Users\haske\AppData\Local\Temp\ccpgnYma.s 			page 42


 1713 01c8 A246     		mov	r10, r4
 1714 01ca F0BD     		pop	{r4, r5, r6, r7, pc}
 1715              	.L88:
 1716              		.align	2
 1717              	.L87:
 1718 01cc FF7F0000 		.word	32767
 1719              		.cfi_endproc
 1720              	.LFE159:
 1721              		.size	lv_draw_sw_line, .-lv_draw_sw_line
 1722              		.section	.rodata
 1723              		.align	2
 1724              		.set	.LANCHOR0,. + 0
 1725              		.type	wcorr.8997, %object
 1726              		.size	wcorr.8997, 33
 1727              	wcorr.8997:
 1728 0000 80       		.byte	-128
 1729 0001 80       		.byte	-128
 1730 0002 80       		.byte	-128
 1731 0003 81       		.byte	-127
 1732 0004 81       		.byte	-127
 1733 0005 82       		.byte	-126
 1734 0006 82       		.byte	-126
 1735 0007 83       		.byte	-125
 1736 0008 84       		.byte	-124
 1737 0009 85       		.byte	-123
 1738 000a 86       		.byte	-122
 1739 000b 87       		.byte	-121
 1740 000c 89       		.byte	-119
 1741 000d 8A       		.byte	-118
 1742 000e 8C       		.byte	-116
 1743 000f 8D       		.byte	-115
 1744 0010 8F       		.byte	-113
 1745 0011 91       		.byte	-111
 1746 0012 93       		.byte	-109
 1747 0013 95       		.byte	-107
 1748 0014 97       		.byte	-105
 1749 0015 99       		.byte	-103
 1750 0016 9B       		.byte	-101
 1751 0017 9E       		.byte	-98
 1752 0018 A0       		.byte	-96
 1753 0019 A2       		.byte	-94
 1754 001a A5       		.byte	-91
 1755 001b A7       		.byte	-89
 1756 001c AA       		.byte	-86
 1757 001d AD       		.byte	-83
 1758 001e AF       		.byte	-81
 1759 001f B2       		.byte	-78
 1760 0020 B5       		.byte	-75
 1761              		.text
 1762              	.Letext0:
 1763              		.file 3 "c:\\program files (x86)\\cypress\\psoc creator\\4.4\\psoc creator\\import\\gnu\\arm\\5.4.
 1764              		.file 4 "c:\\program files (x86)\\cypress\\psoc creator\\4.4\\psoc creator\\import\\gnu\\arm\\5.4.
 1765              		.file 5 "c:\\projects\\paindrain\\arduinolcd\\test\\pain drain\\libraries\\lvgl\\src\\misc\\lv_typ
 1766              		.file 6 "c:\\program files (x86)\\cypress\\psoc creator\\4.4\\psoc creator\\import\\gnu\\arm\\5.4.
 1767              		.file 7 "c:\\projects\\paindrain\\arduinolcd\\test\\pain drain\\libraries\\lvgl\\src\\misc\\lv_col
 1768              		.file 8 "c:\\projects\\paindrain\\arduinolcd\\test\\pain drain\\libraries\\lvgl\\src\\font\\lv_fon
 1769              		.file 9 "c:\\projects\\paindrain\\arduinolcd\\test\\pain drain\\libraries\\lvgl\\src\\misc\\lv_txt
ARM GAS  C:\Users\haske\AppData\Local\Temp\ccpgnYma.s 			page 43


 1770              		.file 10 "c:\\projects\\paindrain\\arduinolcd\\test\\pain drain\\libraries\\lvgl\\src\\misc\\lv_bi
 1771              		.file 11 "c:\\projects\\paindrain\\arduinolcd\\test\\pain drain\\libraries\\lvgl\\src\\misc\\lv_st
 1772              		.file 12 "..\\..\\..\\arduinoLCD\\test\\Pain Drain\\libraries\\lvgl\\src\\draw\\sw\\../lv_draw_mas
 1773              		.file 13 "..\\..\\..\\arduinoLCD\\test\\Pain Drain\\libraries\\lvgl\\src\\draw\\sw\\lv_draw_sw_ble
 1774              		.file 14 "..\\..\\..\\arduinoLCD\\test\\Pain Drain\\libraries\\lvgl\\src\\draw\\sw\\../lv_img_buf.
 1775              		.file 15 "..\\..\\..\\arduinoLCD\\test\\Pain Drain\\libraries\\lvgl\\src\\draw\\sw\\../lv_draw_rec
 1776              		.file 16 "..\\..\\..\\arduinoLCD\\test\\Pain Drain\\libraries\\lvgl\\src\\draw\\sw\\../lv_draw_lab
 1777              		.file 17 "..\\..\\..\\arduinoLCD\\test\\Pain Drain\\libraries\\lvgl\\src\\draw\\sw\\../lv_draw_img
 1778              		.file 18 "..\\..\\..\\arduinoLCD\\test\\Pain Drain\\libraries\\lvgl\\src\\draw\\sw\\../lv_draw_lin
 1779              		.file 19 "..\\..\\..\\arduinoLCD\\test\\Pain Drain\\libraries\\lvgl\\src\\draw\\sw\\../lv_draw_arc
 1780              		.file 20 "..\\..\\..\\arduinoLCD\\test\\Pain Drain\\libraries\\lvgl\\src\\draw\\sw\\../lv_draw_lay
 1781              		.file 21 "..\\..\\..\\arduinoLCD\\test\\Pain Drain\\libraries\\lvgl\\src\\draw\\sw\\../lv_draw.h"
 1782              		.file 22 "c:\\projects\\paindrain\\arduinolcd\\test\\pain drain\\libraries\\lvgl\\src\\misc\\lv_me
 1783              		.file 23 "c:\\projects\\paindrain\\arduinolcd\\test\\pain drain\\libraries\\lvgl\\src\\core\\lv_re
 1784              		.file 24 "c:\\projects\\paindrain\\arduinolcd\\test\\pain drain\\libraries\\lvgl\\src\\hal\\lv_hal
 1785              		.section	.debug_info,"",%progbits
 1786              	.Ldebug_info0:
 1787 0000 8F1B0000 		.4byte	0x1b8f
 1788 0004 0400     		.2byte	0x4
 1789 0006 00000000 		.4byte	.Ldebug_abbrev0
 1790 000a 04       		.byte	0x4
 1791 000b 01       		.uleb128 0x1
 1792 000c 29030000 		.4byte	.LASF243
 1793 0010 0C       		.byte	0xc
 1794 0011 F6040000 		.4byte	.LASF244
 1795 0015 7F0B0000 		.4byte	.LASF245
 1796 0019 18000000 		.4byte	.Ldebug_ranges0+0x18
 1797 001d 00000000 		.4byte	0
 1798 0021 00000000 		.4byte	.Ldebug_line0
 1799 0025 02       		.uleb128 0x2
 1800 0026 67090000 		.4byte	.LASF0
 1801 002a 03       		.byte	0x3
 1802 002b 1B       		.byte	0x1b
 1803 002c 30000000 		.4byte	0x30
 1804 0030 03       		.uleb128 0x3
 1805 0031 01       		.byte	0x1
 1806 0032 06       		.byte	0x6
 1807 0033 3E020000 		.4byte	.LASF2
 1808 0037 02       		.uleb128 0x2
 1809 0038 90010000 		.4byte	.LASF1
 1810 003c 03       		.byte	0x3
 1811 003d 1D       		.byte	0x1d
 1812 003e 42000000 		.4byte	0x42
 1813 0042 03       		.uleb128 0x3
 1814 0043 01       		.byte	0x1
 1815 0044 08       		.byte	0x8
 1816 0045 B7020000 		.4byte	.LASF3
 1817 0049 02       		.uleb128 0x2
 1818 004a 300A0000 		.4byte	.LASF4
 1819 004e 03       		.byte	0x3
 1820 004f 29       		.byte	0x29
 1821 0050 54000000 		.4byte	0x54
 1822 0054 03       		.uleb128 0x3
 1823 0055 02       		.byte	0x2
 1824 0056 05       		.byte	0x5
 1825 0057 F90A0000 		.4byte	.LASF5
 1826 005b 02       		.uleb128 0x2
ARM GAS  C:\Users\haske\AppData\Local\Temp\ccpgnYma.s 			page 44


 1827 005c 48040000 		.4byte	.LASF6
 1828 0060 03       		.byte	0x3
 1829 0061 2B       		.byte	0x2b
 1830 0062 66000000 		.4byte	0x66
 1831 0066 03       		.uleb128 0x3
 1832 0067 02       		.byte	0x2
 1833 0068 07       		.byte	0x7
 1834 0069 9B0C0000 		.4byte	.LASF7
 1835 006d 02       		.uleb128 0x2
 1836 006e F40C0000 		.4byte	.LASF8
 1837 0072 03       		.byte	0x3
 1838 0073 3F       		.byte	0x3f
 1839 0074 78000000 		.4byte	0x78
 1840 0078 03       		.uleb128 0x3
 1841 0079 04       		.byte	0x4
 1842 007a 05       		.byte	0x5
 1843 007b CC010000 		.4byte	.LASF9
 1844 007f 02       		.uleb128 0x2
 1845 0080 A6060000 		.4byte	.LASF10
 1846 0084 03       		.byte	0x3
 1847 0085 41       		.byte	0x41
 1848 0086 8A000000 		.4byte	0x8a
 1849 008a 03       		.uleb128 0x3
 1850 008b 04       		.byte	0x4
 1851 008c 07       		.byte	0x7
 1852 008d B4050000 		.4byte	.LASF11
 1853 0091 03       		.uleb128 0x3
 1854 0092 08       		.byte	0x8
 1855 0093 05       		.byte	0x5
 1856 0094 C1060000 		.4byte	.LASF12
 1857 0098 03       		.uleb128 0x3
 1858 0099 08       		.byte	0x8
 1859 009a 07       		.byte	0x7
 1860 009b 86090000 		.4byte	.LASF13
 1861 009f 04       		.uleb128 0x4
 1862 00a0 04       		.byte	0x4
 1863 00a1 05       		.byte	0x5
 1864 00a2 696E7400 		.ascii	"int\000"
 1865 00a6 03       		.uleb128 0x3
 1866 00a7 04       		.byte	0x4
 1867 00a8 07       		.byte	0x7
 1868 00a9 99070000 		.4byte	.LASF14
 1869 00ad 02       		.uleb128 0x2
 1870 00ae 00000000 		.4byte	.LASF15
 1871 00b2 04       		.byte	0x4
 1872 00b3 14       		.byte	0x14
 1873 00b4 25000000 		.4byte	0x25
 1874 00b8 02       		.uleb128 0x2
 1875 00b9 56020000 		.4byte	.LASF16
 1876 00bd 04       		.byte	0x4
 1877 00be 18       		.byte	0x18
 1878 00bf 37000000 		.4byte	0x37
 1879 00c3 02       		.uleb128 0x2
 1880 00c4 2E0B0000 		.4byte	.LASF17
 1881 00c8 04       		.byte	0x4
 1882 00c9 20       		.byte	0x20
 1883 00ca 49000000 		.4byte	0x49
ARM GAS  C:\Users\haske\AppData\Local\Temp\ccpgnYma.s 			page 45


 1884 00ce 02       		.uleb128 0x2
 1885 00cf B0090000 		.4byte	.LASF18
 1886 00d3 04       		.byte	0x4
 1887 00d4 24       		.byte	0x24
 1888 00d5 5B000000 		.4byte	0x5b
 1889 00d9 02       		.uleb128 0x2
 1890 00da 60000000 		.4byte	.LASF19
 1891 00de 04       		.byte	0x4
 1892 00df 2C       		.byte	0x2c
 1893 00e0 6D000000 		.4byte	0x6d
 1894 00e4 02       		.uleb128 0x2
 1895 00e5 5E0C0000 		.4byte	.LASF20
 1896 00e9 04       		.byte	0x4
 1897 00ea 30       		.byte	0x30
 1898 00eb 7F000000 		.4byte	0x7f
 1899 00ef 02       		.uleb128 0x2
 1900 00f0 CA080000 		.4byte	.LASF21
 1901 00f4 05       		.byte	0x5
 1902 00f5 2F       		.byte	0x2f
 1903 00f6 B8000000 		.4byte	0xb8
 1904 00fa 02       		.uleb128 0x2
 1905 00fb 31000000 		.4byte	.LASF22
 1906 00ff 06       		.byte	0x6
 1907 0100 D8       		.byte	0xd8
 1908 0101 A6000000 		.4byte	0xa6
 1909 0105 03       		.uleb128 0x3
 1910 0106 08       		.byte	0x8
 1911 0107 04       		.byte	0x4
 1912 0108 D3080000 		.4byte	.LASF23
 1913 010c 03       		.uleb128 0x3
 1914 010d 04       		.byte	0x4
 1915 010e 07       		.byte	0x7
 1916 010f 3E000000 		.4byte	.LASF24
 1917 0113 05       		.uleb128 0x5
 1918 0114 04       		.byte	0x4
 1919 0115 03       		.uleb128 0x3
 1920 0116 01       		.byte	0x1
 1921 0117 08       		.byte	0x8
 1922 0118 DE030000 		.4byte	.LASF25
 1923 011c 06       		.uleb128 0x6
 1924 011d 02       		.byte	0x2
 1925 011e 07       		.byte	0x7
 1926 011f D1       		.byte	0xd1
 1927 0120 52010000 		.4byte	0x152
 1928 0124 07       		.uleb128 0x7
 1929 0125 A7020000 		.4byte	.LASF26
 1930 0129 07       		.byte	0x7
 1931 012a D3       		.byte	0xd3
 1932 012b CE000000 		.4byte	0xce
 1933 012f 02       		.byte	0x2
 1934 0130 05       		.byte	0x5
 1935 0131 0B       		.byte	0xb
 1936 0132 00       		.byte	0
 1937 0133 07       		.uleb128 0x7
 1938 0134 840C0000 		.4byte	.LASF27
 1939 0138 07       		.byte	0x7
 1940 0139 D4       		.byte	0xd4
ARM GAS  C:\Users\haske\AppData\Local\Temp\ccpgnYma.s 			page 46


 1941 013a CE000000 		.4byte	0xce
 1942 013e 02       		.byte	0x2
 1943 013f 06       		.byte	0x6
 1944 0140 05       		.byte	0x5
 1945 0141 00       		.byte	0
 1946 0142 08       		.uleb128 0x8
 1947 0143 72656400 		.ascii	"red\000"
 1948 0147 07       		.byte	0x7
 1949 0148 D5       		.byte	0xd5
 1950 0149 CE000000 		.4byte	0xce
 1951 014d 02       		.byte	0x2
 1952 014e 05       		.byte	0x5
 1953 014f 00       		.byte	0
 1954 0150 00       		.byte	0
 1955 0151 00       		.byte	0
 1956 0152 09       		.uleb128 0x9
 1957 0153 02       		.byte	0x2
 1958 0154 07       		.byte	0x7
 1959 0155 D0       		.byte	0xd0
 1960 0156 70010000 		.4byte	0x170
 1961 015a 0A       		.uleb128 0xa
 1962 015b 636800   		.ascii	"ch\000"
 1963 015e 07       		.byte	0x7
 1964 015f DC       		.byte	0xdc
 1965 0160 1C010000 		.4byte	0x11c
 1966 0164 0B       		.uleb128 0xb
 1967 0165 4D0A0000 		.4byte	.LASF28
 1968 0169 07       		.byte	0x7
 1969 016a DD       		.byte	0xdd
 1970 016b CE000000 		.4byte	0xce
 1971 016f 00       		.byte	0
 1972 0170 02       		.uleb128 0x2
 1973 0171 E60A0000 		.4byte	.LASF29
 1974 0175 07       		.byte	0x7
 1975 0176 DE       		.byte	0xde
 1976 0177 52010000 		.4byte	0x152
 1977 017b 02       		.uleb128 0x2
 1978 017c B9090000 		.4byte	.LASF30
 1979 0180 07       		.byte	0x7
 1980 0181 EB       		.byte	0xeb
 1981 0182 70010000 		.4byte	0x170
 1982 0186 02       		.uleb128 0x2
 1983 0187 4F000000 		.4byte	.LASF31
 1984 018b 07       		.byte	0x7
 1985 018c F5       		.byte	0xf5
 1986 018d B8000000 		.4byte	0xb8
 1987 0191 02       		.uleb128 0x2
 1988 0192 AE0C0000 		.4byte	.LASF32
 1989 0196 02       		.byte	0x2
 1990 0197 1B       		.byte	0x1b
 1991 0198 C3000000 		.4byte	0xc3
 1992 019c 06       		.uleb128 0x6
 1993 019d 04       		.byte	0x4
 1994 019e 02       		.byte	0x2
 1995 019f 25       		.byte	0x25
 1996 01a0 B9010000 		.4byte	0x1b9
 1997 01a4 0C       		.uleb128 0xc
ARM GAS  C:\Users\haske\AppData\Local\Temp\ccpgnYma.s 			page 47


 1998 01a5 7800     		.ascii	"x\000"
 1999 01a7 02       		.byte	0x2
 2000 01a8 26       		.byte	0x26
 2001 01a9 91010000 		.4byte	0x191
 2002 01ad 00       		.byte	0
 2003 01ae 0C       		.uleb128 0xc
 2004 01af 7900     		.ascii	"y\000"
 2005 01b1 02       		.byte	0x2
 2006 01b2 27       		.byte	0x27
 2007 01b3 91010000 		.4byte	0x191
 2008 01b7 02       		.byte	0x2
 2009 01b8 00       		.byte	0
 2010 01b9 02       		.uleb128 0x2
 2011 01ba 68000000 		.4byte	.LASF33
 2012 01be 02       		.byte	0x2
 2013 01bf 28       		.byte	0x28
 2014 01c0 9C010000 		.4byte	0x19c
 2015 01c4 06       		.uleb128 0x6
 2016 01c5 08       		.byte	0x8
 2017 01c6 02       		.byte	0x2
 2018 01c7 2B       		.byte	0x2b
 2019 01c8 F9010000 		.4byte	0x1f9
 2020 01cc 0C       		.uleb128 0xc
 2021 01cd 783100   		.ascii	"x1\000"
 2022 01d0 02       		.byte	0x2
 2023 01d1 2C       		.byte	0x2c
 2024 01d2 91010000 		.4byte	0x191
 2025 01d6 00       		.byte	0
 2026 01d7 0C       		.uleb128 0xc
 2027 01d8 793100   		.ascii	"y1\000"
 2028 01db 02       		.byte	0x2
 2029 01dc 2D       		.byte	0x2d
 2030 01dd 91010000 		.4byte	0x191
 2031 01e1 02       		.byte	0x2
 2032 01e2 0C       		.uleb128 0xc
 2033 01e3 783200   		.ascii	"x2\000"
 2034 01e6 02       		.byte	0x2
 2035 01e7 2E       		.byte	0x2e
 2036 01e8 91010000 		.4byte	0x191
 2037 01ec 04       		.byte	0x4
 2038 01ed 0C       		.uleb128 0xc
 2039 01ee 793200   		.ascii	"y2\000"
 2040 01f1 02       		.byte	0x2
 2041 01f2 2F       		.byte	0x2f
 2042 01f3 91010000 		.4byte	0x191
 2043 01f7 06       		.byte	0x6
 2044 01f8 00       		.byte	0
 2045 01f9 02       		.uleb128 0x2
 2046 01fa CF040000 		.4byte	.LASF34
 2047 01fe 02       		.byte	0x2
 2048 01ff 30       		.byte	0x30
 2049 0200 C4010000 		.4byte	0x1c4
 2050 0204 06       		.uleb128 0x6
 2051 0205 10       		.byte	0x10
 2052 0206 08       		.byte	0x8
 2053 0207 29       		.byte	0x29
 2054 0208 73020000 		.4byte	0x273
ARM GAS  C:\Users\haske\AppData\Local\Temp\ccpgnYma.s 			page 48


 2055 020c 0D       		.uleb128 0xd
 2056 020d 10060000 		.4byte	.LASF35
 2057 0211 08       		.byte	0x8
 2058 0212 2B       		.byte	0x2b
 2059 0213 FB020000 		.4byte	0x2fb
 2060 0217 00       		.byte	0
 2061 0218 0D       		.uleb128 0xd
 2062 0219 38000000 		.4byte	.LASF36
 2063 021d 08       		.byte	0x8
 2064 021e 2C       		.byte	0x2c
 2065 021f CE000000 		.4byte	0xce
 2066 0223 04       		.byte	0x4
 2067 0224 0D       		.uleb128 0xd
 2068 0225 F30A0000 		.4byte	.LASF37
 2069 0229 08       		.byte	0x8
 2070 022a 2D       		.byte	0x2d
 2071 022b CE000000 		.4byte	0xce
 2072 022f 06       		.byte	0x6
 2073 0230 0D       		.uleb128 0xd
 2074 0231 D10A0000 		.4byte	.LASF38
 2075 0235 08       		.byte	0x8
 2076 0236 2E       		.byte	0x2e
 2077 0237 CE000000 		.4byte	0xce
 2078 023b 08       		.byte	0x8
 2079 023c 0D       		.uleb128 0xd
 2080 023d EF020000 		.4byte	.LASF39
 2081 0241 08       		.byte	0x8
 2082 0242 2F       		.byte	0x2f
 2083 0243 C3000000 		.4byte	0xc3
 2084 0247 0A       		.byte	0xa
 2085 0248 0D       		.uleb128 0xd
 2086 0249 F5020000 		.4byte	.LASF40
 2087 024d 08       		.byte	0x8
 2088 024e 30       		.byte	0x30
 2089 024f C3000000 		.4byte	0xc3
 2090 0253 0C       		.byte	0xc
 2091 0254 08       		.uleb128 0x8
 2092 0255 62707000 		.ascii	"bpp\000"
 2093 0259 08       		.byte	0x8
 2094 025a 31       		.byte	0x31
 2095 025b B8000000 		.4byte	0xb8
 2096 025f 01       		.byte	0x1
 2097 0260 04       		.byte	0x4
 2098 0261 04       		.byte	0x4
 2099 0262 0E       		.byte	0xe
 2100 0263 07       		.uleb128 0x7
 2101 0264 7D0D0000 		.4byte	.LASF41
 2102 0268 08       		.byte	0x8
 2103 0269 32       		.byte	0x32
 2104 026a B8000000 		.4byte	0xb8
 2105 026e 01       		.byte	0x1
 2106 026f 01       		.byte	0x1
 2107 0270 03       		.byte	0x3
 2108 0271 0E       		.byte	0xe
 2109 0272 00       		.byte	0
 2110 0273 0E       		.uleb128 0xe
 2111 0274 9B060000 		.4byte	.LASF163
ARM GAS  C:\Users\haske\AppData\Local\Temp\ccpgnYma.s 			page 49


 2112 0278 1C       		.byte	0x1c
 2113 0279 08       		.byte	0x8
 2114 027a 40       		.byte	0x40
 2115 027b FB020000 		.4byte	0x2fb
 2116 027f 0D       		.uleb128 0xd
 2117 0280 E60C0000 		.4byte	.LASF42
 2118 0284 08       		.byte	0x8
 2119 0285 42       		.byte	0x42
 2120 0286 3C030000 		.4byte	0x33c
 2121 028a 00       		.byte	0
 2122 028b 0D       		.uleb128 0xd
 2123 028c 8C020000 		.4byte	.LASF43
 2124 0290 08       		.byte	0x8
 2125 0291 45       		.byte	0x45
 2126 0292 61030000 		.4byte	0x361
 2127 0296 04       		.byte	0x4
 2128 0297 0D       		.uleb128 0xd
 2129 0298 98000000 		.4byte	.LASF44
 2130 029c 08       		.byte	0x8
 2131 029d 48       		.byte	0x48
 2132 029e 91010000 		.4byte	0x191
 2133 02a2 08       		.byte	0x8
 2134 02a3 0D       		.uleb128 0xd
 2135 02a4 030B0000 		.4byte	.LASF45
 2136 02a8 08       		.byte	0x8
 2137 02a9 49       		.byte	0x49
 2138 02aa 91010000 		.4byte	0x191
 2139 02ae 0A       		.byte	0xa
 2140 02af 07       		.uleb128 0x7
 2141 02b0 20090000 		.4byte	.LASF46
 2142 02b4 08       		.byte	0x8
 2143 02b5 4A       		.byte	0x4a
 2144 02b6 B8000000 		.4byte	0xb8
 2145 02ba 01       		.byte	0x1
 2146 02bb 02       		.byte	0x2
 2147 02bc 06       		.byte	0x6
 2148 02bd 0C       		.byte	0xc
 2149 02be 0D       		.uleb128 0xd
 2150 02bf F5030000 		.4byte	.LASF47
 2151 02c3 08       		.byte	0x8
 2152 02c4 4C       		.byte	0x4c
 2153 02c5 AD000000 		.4byte	0xad
 2154 02c9 0D       		.byte	0xd
 2155 02ca 0D       		.uleb128 0xd
 2156 02cb 66070000 		.4byte	.LASF48
 2157 02cf 08       		.byte	0x8
 2158 02d0 4D       		.byte	0x4d
 2159 02d1 AD000000 		.4byte	0xad
 2160 02d5 0E       		.byte	0xe
 2161 02d6 0C       		.uleb128 0xc
 2162 02d7 64736300 		.ascii	"dsc\000"
 2163 02db 08       		.byte	0x8
 2164 02dc 4F       		.byte	0x4f
 2165 02dd 67030000 		.4byte	0x367
 2166 02e1 10       		.byte	0x10
 2167 02e2 0D       		.uleb128 0xd
 2168 02e3 98040000 		.4byte	.LASF49
ARM GAS  C:\Users\haske\AppData\Local\Temp\ccpgnYma.s 			page 50


 2169 02e7 08       		.byte	0x8
 2170 02e8 50       		.byte	0x50
 2171 02e9 FB020000 		.4byte	0x2fb
 2172 02ed 14       		.byte	0x14
 2173 02ee 0D       		.uleb128 0xd
 2174 02ef D10C0000 		.4byte	.LASF50
 2175 02f3 08       		.byte	0x8
 2176 02f4 52       		.byte	0x52
 2177 02f5 13010000 		.4byte	0x113
 2178 02f9 18       		.byte	0x18
 2179 02fa 00       		.byte	0
 2180 02fb 0F       		.uleb128 0xf
 2181 02fc 04       		.byte	0x4
 2182 02fd 01030000 		.4byte	0x301
 2183 0301 10       		.uleb128 0x10
 2184 0302 73020000 		.4byte	0x273
 2185 0306 02       		.uleb128 0x2
 2186 0307 47080000 		.4byte	.LASF51
 2187 030b 08       		.byte	0x8
 2188 030c 33       		.byte	0x33
 2189 030d 04020000 		.4byte	0x204
 2190 0311 11       		.uleb128 0x11
 2191 0312 2F030000 		.4byte	0x32f
 2192 0316 2F030000 		.4byte	0x32f
 2193 031a 12       		.uleb128 0x12
 2194 031b FB020000 		.4byte	0x2fb
 2195 031f 12       		.uleb128 0x12
 2196 0320 36030000 		.4byte	0x336
 2197 0324 12       		.uleb128 0x12
 2198 0325 E4000000 		.4byte	0xe4
 2199 0329 12       		.uleb128 0x12
 2200 032a E4000000 		.4byte	0xe4
 2201 032e 00       		.byte	0
 2202 032f 03       		.uleb128 0x3
 2203 0330 01       		.byte	0x1
 2204 0331 02       		.byte	0x2
 2205 0332 09030000 		.4byte	.LASF52
 2206 0336 0F       		.uleb128 0xf
 2207 0337 04       		.byte	0x4
 2208 0338 06030000 		.4byte	0x306
 2209 033c 0F       		.uleb128 0xf
 2210 033d 04       		.byte	0x4
 2211 033e 11030000 		.4byte	0x311
 2212 0342 11       		.uleb128 0x11
 2213 0343 56030000 		.4byte	0x356
 2214 0347 56030000 		.4byte	0x356
 2215 034b 12       		.uleb128 0x12
 2216 034c FB020000 		.4byte	0x2fb
 2217 0350 12       		.uleb128 0x12
 2218 0351 E4000000 		.4byte	0xe4
 2219 0355 00       		.byte	0
 2220 0356 0F       		.uleb128 0xf
 2221 0357 04       		.byte	0x4
 2222 0358 5C030000 		.4byte	0x35c
 2223 035c 10       		.uleb128 0x10
 2224 035d B8000000 		.4byte	0xb8
 2225 0361 0F       		.uleb128 0xf
ARM GAS  C:\Users\haske\AppData\Local\Temp\ccpgnYma.s 			page 51


 2226 0362 04       		.byte	0x4
 2227 0363 42030000 		.4byte	0x342
 2228 0367 0F       		.uleb128 0xf
 2229 0368 04       		.byte	0x4
 2230 0369 6D030000 		.4byte	0x36d
 2231 036d 13       		.uleb128 0x13
 2232 036e 02       		.uleb128 0x2
 2233 036f 8A0C0000 		.4byte	.LASF53
 2234 0373 08       		.byte	0x8
 2235 0374 54       		.byte	0x54
 2236 0375 73020000 		.4byte	0x273
 2237 0379 02       		.uleb128 0x2
 2238 037a F0090000 		.4byte	.LASF54
 2239 037e 09       		.byte	0x9
 2240 037f 30       		.byte	0x30
 2241 0380 B8000000 		.4byte	0xb8
 2242 0384 02       		.uleb128 0x2
 2243 0385 56070000 		.4byte	.LASF55
 2244 0389 09       		.byte	0x9
 2245 038a 42       		.byte	0x42
 2246 038b B8000000 		.4byte	0xb8
 2247 038f 02       		.uleb128 0x2
 2248 0390 FB020000 		.4byte	.LASF56
 2249 0394 0A       		.byte	0xa
 2250 0395 2A       		.byte	0x2a
 2251 0396 B8000000 		.4byte	0xb8
 2252 039a 02       		.uleb128 0x2
 2253 039b A4000000 		.4byte	.LASF57
 2254 039f 0B       		.byte	0xb
 2255 03a0 5E       		.byte	0x5e
 2256 03a1 B8000000 		.4byte	0xb8
 2257 03a5 02       		.uleb128 0x2
 2258 03a6 B1060000 		.4byte	.LASF58
 2259 03aa 0B       		.byte	0xb
 2260 03ab 6A       		.byte	0x6a
 2261 03ac B8000000 		.4byte	0xb8
 2262 03b0 02       		.uleb128 0x2
 2263 03b1 890A0000 		.4byte	.LASF59
 2264 03b5 0B       		.byte	0xb
 2265 03b6 79       		.byte	0x79
 2266 03b7 B8000000 		.4byte	0xb8
 2267 03bb 02       		.uleb128 0x2
 2268 03bc FE0C0000 		.4byte	.LASF60
 2269 03c0 0B       		.byte	0xb
 2270 03c1 84       		.byte	0x84
 2271 03c2 B8000000 		.4byte	0xb8
 2272 03c6 02       		.uleb128 0x2
 2273 03c7 DF080000 		.4byte	.LASF61
 2274 03cb 0B       		.byte	0xb
 2275 03cc 90       		.byte	0x90
 2276 03cd B8000000 		.4byte	0xb8
 2277 03d1 06       		.uleb128 0x6
 2278 03d2 04       		.byte	0x4
 2279 03d3 0B       		.byte	0xb
 2280 03d4 95       		.byte	0x95
 2281 03d5 F2030000 		.4byte	0x3f2
 2282 03d9 0D       		.uleb128 0xd
ARM GAS  C:\Users\haske\AppData\Local\Temp\ccpgnYma.s 			page 52


 2283 03da 660A0000 		.4byte	.LASF62
 2284 03de 0B       		.byte	0xb
 2285 03df 96       		.byte	0x96
 2286 03e0 7B010000 		.4byte	0x17b
 2287 03e4 00       		.byte	0
 2288 03e5 0D       		.uleb128 0xd
 2289 03e6 9A0A0000 		.4byte	.LASF63
 2290 03ea 0B       		.byte	0xb
 2291 03eb 97       		.byte	0x97
 2292 03ec B8000000 		.4byte	0xb8
 2293 03f0 02       		.byte	0x2
 2294 03f1 00       		.byte	0
 2295 03f2 02       		.uleb128 0x2
 2296 03f3 FB0B0000 		.4byte	.LASF64
 2297 03f7 0B       		.byte	0xb
 2298 03f8 98       		.byte	0x98
 2299 03f9 D1030000 		.4byte	0x3d1
 2300 03fd 06       		.uleb128 0x6
 2301 03fe 0A       		.byte	0xa
 2302 03ff 0B       		.byte	0xb
 2303 0400 9B       		.byte	0x9b
 2304 0401 3C040000 		.4byte	0x43c
 2305 0405 0D       		.uleb128 0xd
 2306 0406 6C0A0000 		.4byte	.LASF65
 2307 040a 0B       		.byte	0xb
 2308 040b 9C       		.byte	0x9c
 2309 040c 3C040000 		.4byte	0x43c
 2310 0410 00       		.byte	0
 2311 0411 0D       		.uleb128 0xd
 2312 0412 3C040000 		.4byte	.LASF66
 2313 0416 0B       		.byte	0xb
 2314 0417 9D       		.byte	0x9d
 2315 0418 B8000000 		.4byte	0xb8
 2316 041c 08       		.byte	0x8
 2317 041d 08       		.uleb128 0x8
 2318 041e 64697200 		.ascii	"dir\000"
 2319 0422 0B       		.byte	0xb
 2320 0423 9E       		.byte	0x9e
 2321 0424 BB030000 		.4byte	0x3bb
 2322 0428 01       		.byte	0x1
 2323 0429 03       		.byte	0x3
 2324 042a 05       		.byte	0x5
 2325 042b 09       		.byte	0x9
 2326 042c 07       		.uleb128 0x7
 2327 042d 940C0000 		.4byte	.LASF67
 2328 0431 0B       		.byte	0xb
 2329 0432 A0       		.byte	0xa0
 2330 0433 C6030000 		.4byte	0x3c6
 2331 0437 01       		.byte	0x1
 2332 0438 03       		.byte	0x3
 2333 0439 02       		.byte	0x2
 2334 043a 09       		.byte	0x9
 2335 043b 00       		.byte	0
 2336 043c 14       		.uleb128 0x14
 2337 043d F2030000 		.4byte	0x3f2
 2338 0441 4C040000 		.4byte	0x44c
 2339 0445 15       		.uleb128 0x15
ARM GAS  C:\Users\haske\AppData\Local\Temp\ccpgnYma.s 			page 53


 2340 0446 0C010000 		.4byte	0x10c
 2341 044a 01       		.byte	0x1
 2342 044b 00       		.byte	0
 2343 044c 02       		.uleb128 0x2
 2344 044d 6F0D0000 		.4byte	.LASF68
 2345 0451 0B       		.byte	0xb
 2346 0452 A2       		.byte	0xa2
 2347 0453 FD030000 		.4byte	0x3fd
 2348 0457 16       		.uleb128 0x16
 2349 0458 01       		.byte	0x1
 2350 0459 42000000 		.4byte	0x42
 2351 045d 0C       		.byte	0xc
 2352 045e 24       		.byte	0x24
 2353 045f 7C040000 		.4byte	0x47c
 2354 0463 17       		.uleb128 0x17
 2355 0464 B90C0000 		.4byte	.LASF69
 2356 0468 00       		.byte	0
 2357 0469 17       		.uleb128 0x17
 2358 046a 15000000 		.4byte	.LASF70
 2359 046e 01       		.byte	0x1
 2360 046f 17       		.uleb128 0x17
 2361 0470 F7050000 		.4byte	.LASF71
 2362 0474 02       		.byte	0x2
 2363 0475 17       		.uleb128 0x17
 2364 0476 00090000 		.4byte	.LASF72
 2365 047a 03       		.byte	0x3
 2366 047b 00       		.byte	0
 2367 047c 02       		.uleb128 0x2
 2368 047d E6000000 		.4byte	.LASF73
 2369 0481 0C       		.byte	0xc
 2370 0482 2B       		.byte	0x2b
 2371 0483 B8000000 		.4byte	0xb8
 2372 0487 02       		.uleb128 0x2
 2373 0488 400C0000 		.4byte	.LASF74
 2374 048c 0C       		.byte	0xc
 2375 048d 4F       		.byte	0x4f
 2376 048e B8000000 		.4byte	0xb8
 2377 0492 16       		.uleb128 0x16
 2378 0493 01       		.byte	0x1
 2379 0494 42000000 		.4byte	0x42
 2380 0498 0C       		.byte	0xc
 2381 0499 51       		.byte	0x51
 2382 049a B7040000 		.4byte	0x4b7
 2383 049e 17       		.uleb128 0x17
 2384 049f 73000000 		.4byte	.LASF75
 2385 04a3 00       		.byte	0
 2386 04a4 17       		.uleb128 0x17
 2387 04a5 7E060000 		.4byte	.LASF76
 2388 04a9 01       		.byte	0x1
 2389 04aa 17       		.uleb128 0x17
 2390 04ab 440B0000 		.4byte	.LASF77
 2391 04af 02       		.byte	0x2
 2392 04b0 17       		.uleb128 0x17
 2393 04b1 7D050000 		.4byte	.LASF78
 2394 04b5 03       		.byte	0x3
 2395 04b6 00       		.byte	0
 2396 04b7 02       		.uleb128 0x2
ARM GAS  C:\Users\haske\AppData\Local\Temp\ccpgnYma.s 			page 54


 2397 04b8 C4090000 		.4byte	.LASF79
 2398 04bc 0C       		.byte	0xc
 2399 04bd 5C       		.byte	0x5c
 2400 04be C2040000 		.4byte	0x4c2
 2401 04c2 0F       		.uleb128 0xf
 2402 04c3 04       		.byte	0x4
 2403 04c4 C8040000 		.4byte	0x4c8
 2404 04c8 11       		.uleb128 0x11
 2405 04c9 7C040000 		.4byte	0x47c
 2406 04cd EB040000 		.4byte	0x4eb
 2407 04d1 12       		.uleb128 0x12
 2408 04d2 EB040000 		.4byte	0x4eb
 2409 04d6 12       		.uleb128 0x12
 2410 04d7 91010000 		.4byte	0x191
 2411 04db 12       		.uleb128 0x12
 2412 04dc 91010000 		.4byte	0x191
 2413 04e0 12       		.uleb128 0x12
 2414 04e1 91010000 		.4byte	0x191
 2415 04e5 12       		.uleb128 0x12
 2416 04e6 13010000 		.4byte	0x113
 2417 04ea 00       		.byte	0
 2418 04eb 0F       		.uleb128 0xf
 2419 04ec 04       		.byte	0x4
 2420 04ed 86010000 		.4byte	0x186
 2421 04f1 02       		.uleb128 0x2
 2422 04f2 73080000 		.4byte	.LASF80
 2423 04f6 0C       		.byte	0xc
 2424 04f7 60       		.byte	0x60
 2425 04f8 B8000000 		.4byte	0xb8
 2426 04fc 06       		.uleb128 0x6
 2427 04fd 08       		.byte	0x8
 2428 04fe 0C       		.byte	0xc
 2429 04ff 62       		.byte	0x62
 2430 0500 1C050000 		.4byte	0x51c
 2431 0504 0C       		.uleb128 0xc
 2432 0505 636200   		.ascii	"cb\000"
 2433 0508 0C       		.byte	0xc
 2434 0509 63       		.byte	0x63
 2435 050a B7040000 		.4byte	0x4b7
 2436 050e 00       		.byte	0
 2437 050f 0D       		.uleb128 0xd
 2438 0510 4B010000 		.4byte	.LASF81
 2439 0514 0C       		.byte	0xc
 2440 0515 64       		.byte	0x64
 2441 0516 87040000 		.4byte	0x487
 2442 051a 04       		.byte	0x4
 2443 051b 00       		.byte	0
 2444 051c 02       		.uleb128 0x2
 2445 051d 3A0D0000 		.4byte	.LASF82
 2446 0521 0C       		.byte	0xc
 2447 0522 65       		.byte	0x65
 2448 0523 FC040000 		.4byte	0x4fc
 2449 0527 06       		.uleb128 0x6
 2450 0528 0A       		.byte	0xa
 2451 0529 0C       		.byte	0xc
 2452 052a 6B       		.byte	0x6b
 2453 052b 55050000 		.4byte	0x555
ARM GAS  C:\Users\haske\AppData\Local\Temp\ccpgnYma.s 			page 55


 2454 052f 0C       		.uleb128 0xc
 2455 0530 703100   		.ascii	"p1\000"
 2456 0533 0C       		.byte	0xc
 2457 0534 6D       		.byte	0x6d
 2458 0535 B9010000 		.4byte	0x1b9
 2459 0539 00       		.byte	0
 2460 053a 0C       		.uleb128 0xc
 2461 053b 703200   		.ascii	"p2\000"
 2462 053e 0C       		.byte	0xc
 2463 053f 70       		.byte	0x70
 2464 0540 B9010000 		.4byte	0x1b9
 2465 0544 04       		.byte	0x4
 2466 0545 07       		.uleb128 0x7
 2467 0546 2B0D0000 		.4byte	.LASF83
 2468 054a 0C       		.byte	0xc
 2469 054b 73       		.byte	0x73
 2470 054c F1040000 		.4byte	0x4f1
 2471 0550 01       		.byte	0x1
 2472 0551 02       		.byte	0x2
 2473 0552 06       		.byte	0x6
 2474 0553 08       		.byte	0x8
 2475 0554 00       		.byte	0
 2476 0555 06       		.uleb128 0x6
 2477 0556 2C       		.byte	0x2c
 2478 0557 0C       		.byte	0xc
 2479 0558 67       		.byte	0x67
 2480 0559 D0050000 		.4byte	0x5d0
 2481 055d 0C       		.uleb128 0xc
 2482 055e 64736300 		.ascii	"dsc\000"
 2483 0562 0C       		.byte	0xc
 2484 0563 69       		.byte	0x69
 2485 0564 1C050000 		.4byte	0x51c
 2486 0568 00       		.byte	0
 2487 0569 0C       		.uleb128 0xc
 2488 056a 63666700 		.ascii	"cfg\000"
 2489 056e 0C       		.byte	0xc
 2490 056f 74       		.byte	0x74
 2491 0570 27050000 		.4byte	0x527
 2492 0574 08       		.byte	0x8
 2493 0575 0D       		.uleb128 0xd
 2494 0576 89070000 		.4byte	.LASF84
 2495 057a 0C       		.byte	0xc
 2496 057b 77       		.byte	0x77
 2497 057c B9010000 		.4byte	0x1b9
 2498 0580 12       		.byte	0x12
 2499 0581 0D       		.uleb128 0xd
 2500 0582 80070000 		.4byte	.LASF85
 2501 0586 0C       		.byte	0xc
 2502 0587 7A       		.byte	0x7a
 2503 0588 D9000000 		.4byte	0xd9
 2504 058c 18       		.byte	0x18
 2505 058d 0D       		.uleb128 0xd
 2506 058e BE010000 		.4byte	.LASF86
 2507 0592 0C       		.byte	0xc
 2508 0593 7D       		.byte	0x7d
 2509 0594 D9000000 		.4byte	0xd9
 2510 0598 1C       		.byte	0x1c
ARM GAS  C:\Users\haske\AppData\Local\Temp\ccpgnYma.s 			page 56


 2511 0599 0D       		.uleb128 0xd
 2512 059a 9B050000 		.4byte	.LASF87
 2513 059e 0C       		.byte	0xc
 2514 059f 80       		.byte	0x80
 2515 05a0 D9000000 		.4byte	0xd9
 2516 05a4 20       		.byte	0x20
 2517 05a5 0C       		.uleb128 0xc
 2518 05a6 73707800 		.ascii	"spx\000"
 2519 05aa 0C       		.byte	0xc
 2520 05ab 83       		.byte	0x83
 2521 05ac D9000000 		.4byte	0xd9
 2522 05b0 24       		.byte	0x24
 2523 05b1 07       		.uleb128 0x7
 2524 05b2 1A080000 		.4byte	.LASF88
 2525 05b6 0C       		.byte	0xc
 2526 05b7 86       		.byte	0x86
 2527 05b8 B8000000 		.4byte	0xb8
 2528 05bc 01       		.byte	0x1
 2529 05bd 01       		.byte	0x1
 2530 05be 07       		.byte	0x7
 2531 05bf 28       		.byte	0x28
 2532 05c0 08       		.uleb128 0x8
 2533 05c1 696E7600 		.ascii	"inv\000"
 2534 05c5 0C       		.byte	0xc
 2535 05c6 8A       		.byte	0x8a
 2536 05c7 B8000000 		.4byte	0xb8
 2537 05cb 01       		.byte	0x1
 2538 05cc 01       		.byte	0x1
 2539 05cd 06       		.byte	0x6
 2540 05ce 28       		.byte	0x28
 2541 05cf 00       		.byte	0
 2542 05d0 02       		.uleb128 0x2
 2543 05d1 160A0000 		.4byte	.LASF89
 2544 05d5 0C       		.byte	0xc
 2545 05d6 8B       		.byte	0x8b
 2546 05d7 55050000 		.4byte	0x555
 2547 05db 06       		.uleb128 0x6
 2548 05dc 1C       		.byte	0x1c
 2549 05dd 0D       		.byte	0xd
 2550 05de 1D       		.byte	0x1d
 2551 05df 44060000 		.4byte	0x644
 2552 05e3 0D       		.uleb128 0xd
 2553 05e4 050A0000 		.4byte	.LASF90
 2554 05e8 0D       		.byte	0xd
 2555 05e9 1E       		.byte	0x1e
 2556 05ea 44060000 		.4byte	0x644
 2557 05ee 00       		.byte	0
 2558 05ef 0D       		.uleb128 0xd
 2559 05f0 0E0C0000 		.4byte	.LASF91
 2560 05f4 0D       		.byte	0xd
 2561 05f5 20       		.byte	0x20
 2562 05f6 4F060000 		.4byte	0x64f
 2563 05fa 04       		.byte	0x4
 2564 05fb 0D       		.uleb128 0xd
 2565 05fc 660A0000 		.4byte	.LASF62
 2566 0600 0D       		.byte	0xd
 2567 0601 21       		.byte	0x21
ARM GAS  C:\Users\haske\AppData\Local\Temp\ccpgnYma.s 			page 57


 2568 0602 7B010000 		.4byte	0x17b
 2569 0606 08       		.byte	0x8
 2570 0607 0D       		.uleb128 0xd
 2571 0608 E2060000 		.4byte	.LASF92
 2572 060c 0D       		.byte	0xd
 2573 060d 22       		.byte	0x22
 2574 060e EB040000 		.4byte	0x4eb
 2575 0612 0C       		.byte	0xc
 2576 0613 0D       		.uleb128 0xd
 2577 0614 70020000 		.4byte	.LASF93
 2578 0618 0D       		.byte	0xd
 2579 0619 23       		.byte	0x23
 2580 061a 7C040000 		.4byte	0x47c
 2581 061e 10       		.byte	0x10
 2582 061f 0D       		.uleb128 0xd
 2583 0620 8F070000 		.4byte	.LASF94
 2584 0624 0D       		.byte	0xd
 2585 0625 24       		.byte	0x24
 2586 0626 44060000 		.4byte	0x644
 2587 062a 14       		.byte	0x14
 2588 062b 0C       		.uleb128 0xc
 2589 062c 6F706100 		.ascii	"opa\000"
 2590 0630 0D       		.byte	0xd
 2591 0631 25       		.byte	0x25
 2592 0632 86010000 		.4byte	0x186
 2593 0636 18       		.byte	0x18
 2594 0637 0D       		.uleb128 0xd
 2595 0638 A6010000 		.4byte	.LASF95
 2596 063c 0D       		.byte	0xd
 2597 063d 26       		.byte	0x26
 2598 063e 9A030000 		.4byte	0x39a
 2599 0642 19       		.byte	0x19
 2600 0643 00       		.byte	0
 2601 0644 0F       		.uleb128 0xf
 2602 0645 04       		.byte	0x4
 2603 0646 4A060000 		.4byte	0x64a
 2604 064a 10       		.uleb128 0x10
 2605 064b F9010000 		.4byte	0x1f9
 2606 064f 0F       		.uleb128 0xf
 2607 0650 04       		.byte	0x4
 2608 0651 55060000 		.4byte	0x655
 2609 0655 10       		.uleb128 0x10
 2610 0656 7B010000 		.4byte	0x17b
 2611 065a 02       		.uleb128 0x2
 2612 065b 03010000 		.4byte	.LASF96
 2613 065f 0D       		.byte	0xd
 2614 0660 27       		.byte	0x27
 2615 0661 DB050000 		.4byte	0x5db
 2616 0665 02       		.uleb128 0x2
 2617 0666 C6050000 		.4byte	.LASF97
 2618 066a 0E       		.byte	0xe
 2619 066b 69       		.byte	0x69
 2620 066c B8000000 		.4byte	0xb8
 2621 0670 0F       		.uleb128 0xf
 2622 0671 04       		.byte	0x4
 2623 0672 7B010000 		.4byte	0x17b
 2624 0676 06       		.uleb128 0x6
ARM GAS  C:\Users\haske\AppData\Local\Temp\ccpgnYma.s 			page 58


 2625 0677 38       		.byte	0x38
 2626 0678 0F       		.byte	0xf
 2627 0679 20       		.byte	0x20
 2628 067a BD070000 		.4byte	0x7bd
 2629 067e 0D       		.uleb128 0xd
 2630 067f DA000000 		.4byte	.LASF98
 2631 0683 0F       		.byte	0xf
 2632 0684 21       		.byte	0x21
 2633 0685 91010000 		.4byte	0x191
 2634 0689 00       		.byte	0
 2635 068a 0D       		.uleb128 0xd
 2636 068b A6010000 		.4byte	.LASF95
 2637 068f 0F       		.byte	0xf
 2638 0690 22       		.byte	0x22
 2639 0691 9A030000 		.4byte	0x39a
 2640 0695 02       		.byte	0x2
 2641 0696 0D       		.uleb128 0xd
 2642 0697 D5010000 		.4byte	.LASF99
 2643 069b 0F       		.byte	0xf
 2644 069c 25       		.byte	0x25
 2645 069d 86010000 		.4byte	0x186
 2646 06a1 03       		.byte	0x3
 2647 06a2 0D       		.uleb128 0xd
 2648 06a3 8F000000 		.4byte	.LASF100
 2649 06a7 0F       		.byte	0xf
 2650 06a8 26       		.byte	0x26
 2651 06a9 7B010000 		.4byte	0x17b
 2652 06ad 04       		.byte	0x4
 2653 06ae 0D       		.uleb128 0xd
 2654 06af E10B0000 		.4byte	.LASF101
 2655 06b3 0F       		.byte	0xf
 2656 06b4 27       		.byte	0x27
 2657 06b5 4C040000 		.4byte	0x44c
 2658 06b9 06       		.byte	0x6
 2659 06ba 0D       		.uleb128 0xd
 2660 06bb 63010000 		.4byte	.LASF102
 2661 06bf 0F       		.byte	0xf
 2662 06c0 2A       		.byte	0x2a
 2663 06c1 67030000 		.4byte	0x367
 2664 06c5 10       		.byte	0x10
 2665 06c6 0D       		.uleb128 0xd
 2666 06c7 A1050000 		.4byte	.LASF103
 2667 06cb 0F       		.byte	0xf
 2668 06cc 2B       		.byte	0x2b
 2669 06cd 67030000 		.4byte	0x367
 2670 06d1 14       		.byte	0x14
 2671 06d2 0D       		.uleb128 0xd
 2672 06d3 D70A0000 		.4byte	.LASF104
 2673 06d7 0F       		.byte	0xf
 2674 06d8 2C       		.byte	0x2c
 2675 06d9 7B010000 		.4byte	0x17b
 2676 06dd 18       		.byte	0x18
 2677 06de 0D       		.uleb128 0xd
 2678 06df AC020000 		.4byte	.LASF105
 2679 06e3 0F       		.byte	0xf
 2680 06e4 2D       		.byte	0x2d
 2681 06e5 86010000 		.4byte	0x186
ARM GAS  C:\Users\haske\AppData\Local\Temp\ccpgnYma.s 			page 59


 2682 06e9 1A       		.byte	0x1a
 2683 06ea 0D       		.uleb128 0xd
 2684 06eb 26090000 		.4byte	.LASF106
 2685 06ef 0F       		.byte	0xf
 2686 06f0 2E       		.byte	0x2e
 2687 06f1 86010000 		.4byte	0x186
 2688 06f5 1B       		.byte	0x1b
 2689 06f6 0D       		.uleb128 0xd
 2690 06f7 7F020000 		.4byte	.LASF107
 2691 06fb 0F       		.byte	0xf
 2692 06fc 2F       		.byte	0x2f
 2693 06fd B8000000 		.4byte	0xb8
 2694 0701 1C       		.byte	0x1c
 2695 0702 0D       		.uleb128 0xd
 2696 0703 5F040000 		.4byte	.LASF108
 2697 0707 0F       		.byte	0xf
 2698 0708 32       		.byte	0x32
 2699 0709 7B010000 		.4byte	0x17b
 2700 070d 1E       		.byte	0x1e
 2701 070e 0D       		.uleb128 0xd
 2702 070f E3090000 		.4byte	.LASF109
 2703 0713 0F       		.byte	0xf
 2704 0714 33       		.byte	0x33
 2705 0715 91010000 		.4byte	0x191
 2706 0719 20       		.byte	0x20
 2707 071a 0D       		.uleb128 0xd
 2708 071b D60B0000 		.4byte	.LASF110
 2709 071f 0F       		.byte	0xf
 2710 0720 34       		.byte	0x34
 2711 0721 86010000 		.4byte	0x186
 2712 0725 22       		.byte	0x22
 2713 0726 07       		.uleb128 0x7
 2714 0727 80040000 		.4byte	.LASF111
 2715 072b 0F       		.byte	0xf
 2716 072c 35       		.byte	0x35
 2717 072d B8000000 		.4byte	0xb8
 2718 0731 01       		.byte	0x1
 2719 0732 01       		.byte	0x1
 2720 0733 07       		.byte	0x7
 2721 0734 23       		.byte	0x23
 2722 0735 07       		.uleb128 0x7
 2723 0736 84010000 		.4byte	.LASF112
 2724 073a 0F       		.byte	0xf
 2725 073b 36       		.byte	0x36
 2726 073c B0030000 		.4byte	0x3b0
 2727 0740 01       		.byte	0x1
 2728 0741 05       		.byte	0x5
 2729 0742 02       		.byte	0x2
 2730 0743 23       		.byte	0x23
 2731 0744 0D       		.uleb128 0xd
 2732 0745 30020000 		.4byte	.LASF113
 2733 0749 0F       		.byte	0xf
 2734 074a 39       		.byte	0x39
 2735 074b 7B010000 		.4byte	0x17b
 2736 074f 24       		.byte	0x24
 2737 0750 0D       		.uleb128 0xd
 2738 0751 65080000 		.4byte	.LASF114
ARM GAS  C:\Users\haske\AppData\Local\Temp\ccpgnYma.s 			page 60


 2739 0755 0F       		.byte	0xf
 2740 0756 3A       		.byte	0x3a
 2741 0757 91010000 		.4byte	0x191
 2742 075b 26       		.byte	0x26
 2743 075c 0D       		.uleb128 0xd
 2744 075d 53040000 		.4byte	.LASF115
 2745 0761 0F       		.byte	0xf
 2746 0762 3B       		.byte	0x3b
 2747 0763 91010000 		.4byte	0x191
 2748 0767 28       		.byte	0x28
 2749 0768 0D       		.uleb128 0xd
 2750 0769 0E080000 		.4byte	.LASF116
 2751 076d 0F       		.byte	0xf
 2752 076e 3C       		.byte	0x3c
 2753 076f 86010000 		.4byte	0x186
 2754 0773 2A       		.byte	0x2a
 2755 0774 0D       		.uleb128 0xd
 2756 0775 CF060000 		.4byte	.LASF117
 2757 0779 0F       		.byte	0xf
 2758 077a 3F       		.byte	0x3f
 2759 077b 7B010000 		.4byte	0x17b
 2760 077f 2C       		.byte	0x2c
 2761 0780 0D       		.uleb128 0xd
 2762 0781 770C0000 		.4byte	.LASF118
 2763 0785 0F       		.byte	0xf
 2764 0786 40       		.byte	0x40
 2765 0787 91010000 		.4byte	0x191
 2766 078b 2E       		.byte	0x2e
 2767 078c 0D       		.uleb128 0xd
 2768 078d 550D0000 		.4byte	.LASF119
 2769 0791 0F       		.byte	0xf
 2770 0792 41       		.byte	0x41
 2771 0793 91010000 		.4byte	0x191
 2772 0797 30       		.byte	0x30
 2773 0798 0D       		.uleb128 0xd
 2774 0799 620D0000 		.4byte	.LASF120
 2775 079d 0F       		.byte	0xf
 2776 079e 42       		.byte	0x42
 2777 079f 91010000 		.4byte	0x191
 2778 07a3 32       		.byte	0x32
 2779 07a4 0D       		.uleb128 0xd
 2780 07a5 6F050000 		.4byte	.LASF121
 2781 07a9 0F       		.byte	0xf
 2782 07aa 43       		.byte	0x43
 2783 07ab 91010000 		.4byte	0x191
 2784 07af 34       		.byte	0x34
 2785 07b0 0D       		.uleb128 0xd
 2786 07b1 230B0000 		.4byte	.LASF122
 2787 07b5 0F       		.byte	0xf
 2788 07b6 44       		.byte	0x44
 2789 07b7 86010000 		.4byte	0x186
 2790 07bb 36       		.byte	0x36
 2791 07bc 00       		.byte	0
 2792 07bd 02       		.uleb128 0x2
 2793 07be 9D090000 		.4byte	.LASF123
 2794 07c2 0F       		.byte	0xf
 2795 07c3 45       		.byte	0x45
ARM GAS  C:\Users\haske\AppData\Local\Temp\ccpgnYma.s 			page 61


 2796 07c4 76060000 		.4byte	0x676
 2797 07c8 06       		.uleb128 0x6
 2798 07c9 20       		.byte	0x20
 2799 07ca 10       		.byte	0x10
 2800 07cb 1E       		.byte	0x1e
 2801 07cc 97080000 		.4byte	0x897
 2802 07d0 0D       		.uleb128 0xd
 2803 07d1 AD0A0000 		.4byte	.LASF124
 2804 07d5 10       		.byte	0x10
 2805 07d6 1F       		.byte	0x1f
 2806 07d7 97080000 		.4byte	0x897
 2807 07db 00       		.byte	0
 2808 07dc 0D       		.uleb128 0xd
 2809 07dd 540C0000 		.4byte	.LASF125
 2810 07e1 10       		.byte	0x10
 2811 07e2 20       		.byte	0x20
 2812 07e3 E4000000 		.4byte	0xe4
 2813 07e7 04       		.byte	0x4
 2814 07e8 0D       		.uleb128 0xd
 2815 07e9 BF070000 		.4byte	.LASF126
 2816 07ed 10       		.byte	0x10
 2817 07ee 21       		.byte	0x21
 2818 07ef E4000000 		.4byte	0xe4
 2819 07f3 08       		.byte	0x8
 2820 07f4 0D       		.uleb128 0xd
 2821 07f5 660A0000 		.4byte	.LASF62
 2822 07f9 10       		.byte	0x10
 2823 07fa 22       		.byte	0x22
 2824 07fb 7B010000 		.4byte	0x17b
 2825 07ff 0C       		.byte	0xc
 2826 0800 0D       		.uleb128 0xd
 2827 0801 300D0000 		.4byte	.LASF127
 2828 0805 10       		.byte	0x10
 2829 0806 23       		.byte	0x23
 2830 0807 7B010000 		.4byte	0x17b
 2831 080b 0E       		.byte	0xe
 2832 080c 0D       		.uleb128 0xd
 2833 080d 6E010000 		.4byte	.LASF128
 2834 0811 10       		.byte	0x10
 2835 0812 24       		.byte	0x24
 2836 0813 7B010000 		.4byte	0x17b
 2837 0817 10       		.byte	0x10
 2838 0818 0D       		.uleb128 0xd
 2839 0819 720A0000 		.4byte	.LASF129
 2840 081d 10       		.byte	0x10
 2841 081e 25       		.byte	0x25
 2842 081f 91010000 		.4byte	0x191
 2843 0823 12       		.byte	0x12
 2844 0824 0D       		.uleb128 0xd
 2845 0825 B20A0000 		.4byte	.LASF130
 2846 0829 10       		.byte	0x10
 2847 082a 26       		.byte	0x26
 2848 082b 91010000 		.4byte	0x191
 2849 082f 14       		.byte	0x14
 2850 0830 0D       		.uleb128 0xd
 2851 0831 EF020000 		.4byte	.LASF39
 2852 0835 10       		.byte	0x10
ARM GAS  C:\Users\haske\AppData\Local\Temp\ccpgnYma.s 			page 62


 2853 0836 27       		.byte	0x27
 2854 0837 91010000 		.4byte	0x191
 2855 083b 16       		.byte	0x16
 2856 083c 0D       		.uleb128 0xd
 2857 083d F5020000 		.4byte	.LASF40
 2858 0841 10       		.byte	0x10
 2859 0842 28       		.byte	0x28
 2860 0843 91010000 		.4byte	0x191
 2861 0847 18       		.byte	0x18
 2862 0848 0C       		.uleb128 0xc
 2863 0849 6F706100 		.ascii	"opa\000"
 2864 084d 10       		.byte	0x10
 2865 084e 29       		.byte	0x29
 2866 084f 86010000 		.4byte	0x186
 2867 0853 1A       		.byte	0x1a
 2868 0854 0D       		.uleb128 0xd
 2869 0855 B4000000 		.4byte	.LASF131
 2870 0859 10       		.byte	0x10
 2871 085a 2A       		.byte	0x2a
 2872 085b 8F030000 		.4byte	0x38f
 2873 085f 1B       		.byte	0x1b
 2874 0860 0D       		.uleb128 0xd
 2875 0861 7A070000 		.4byte	.LASF132
 2876 0865 10       		.byte	0x10
 2877 0866 2B       		.byte	0x2b
 2878 0867 84030000 		.4byte	0x384
 2879 086b 1C       		.byte	0x1c
 2880 086c 0D       		.uleb128 0xd
 2881 086d F4070000 		.4byte	.LASF133
 2882 0871 10       		.byte	0x10
 2883 0872 2C       		.byte	0x2c
 2884 0873 79030000 		.4byte	0x379
 2885 0877 1D       		.byte	0x1d
 2886 0878 07       		.uleb128 0x7
 2887 0879 100A0000 		.4byte	.LASF134
 2888 087d 10       		.byte	0x10
 2889 087e 2D       		.byte	0x2d
 2890 087f A5030000 		.4byte	0x3a5
 2891 0883 01       		.byte	0x1
 2892 0884 03       		.byte	0x3
 2893 0885 05       		.byte	0x5
 2894 0886 1E       		.byte	0x1e
 2895 0887 07       		.uleb128 0x7
 2896 0888 A6010000 		.4byte	.LASF95
 2897 088c 10       		.byte	0x10
 2898 088d 2E       		.byte	0x2e
 2899 088e 9A030000 		.4byte	0x39a
 2900 0892 01       		.byte	0x1
 2901 0893 03       		.byte	0x3
 2902 0894 02       		.byte	0x2
 2903 0895 1E       		.byte	0x1e
 2904 0896 00       		.byte	0
 2905 0897 0F       		.uleb128 0xf
 2906 0898 04       		.byte	0x4
 2907 0899 9D080000 		.4byte	0x89d
 2908 089d 10       		.uleb128 0x10
 2909 089e 6E030000 		.4byte	0x36e
ARM GAS  C:\Users\haske\AppData\Local\Temp\ccpgnYma.s 			page 63


 2910 08a2 02       		.uleb128 0x2
 2911 08a3 DC010000 		.4byte	.LASF135
 2912 08a7 10       		.byte	0x10
 2913 08a8 2F       		.byte	0x2f
 2914 08a9 C8070000 		.4byte	0x7c8
 2915 08ad 06       		.uleb128 0x6
 2916 08ae 18       		.byte	0x18
 2917 08af 11       		.byte	0x11
 2918 08b0 20       		.byte	0x20
 2919 08b1 28090000 		.4byte	0x928
 2920 08b5 0D       		.uleb128 0xd
 2921 08b6 55060000 		.4byte	.LASF136
 2922 08ba 11       		.byte	0x11
 2923 08bb 22       		.byte	0x22
 2924 08bc C3000000 		.4byte	0xc3
 2925 08c0 00       		.byte	0
 2926 08c1 0D       		.uleb128 0xd
 2927 08c2 E1000000 		.4byte	.LASF137
 2928 08c6 11       		.byte	0x11
 2929 08c7 23       		.byte	0x23
 2930 08c8 CE000000 		.4byte	0xce
 2931 08cc 02       		.byte	0x2
 2932 08cd 0D       		.uleb128 0xd
 2933 08ce FF090000 		.4byte	.LASF138
 2934 08d2 11       		.byte	0x11
 2935 08d3 24       		.byte	0x24
 2936 08d4 B9010000 		.4byte	0x1b9
 2937 08d8 04       		.byte	0x4
 2938 08d9 0D       		.uleb128 0xd
 2939 08da 4D060000 		.4byte	.LASF139
 2940 08de 11       		.byte	0x11
 2941 08df 26       		.byte	0x26
 2942 08e0 7B010000 		.4byte	0x17b
 2943 08e4 08       		.byte	0x8
 2944 08e5 0D       		.uleb128 0xd
 2945 08e6 3B080000 		.4byte	.LASF140
 2946 08ea 11       		.byte	0x11
 2947 08eb 27       		.byte	0x27
 2948 08ec 86010000 		.4byte	0x186
 2949 08f0 0A       		.byte	0xa
 2950 08f1 0C       		.uleb128 0xc
 2951 08f2 6F706100 		.ascii	"opa\000"
 2952 08f6 11       		.byte	0x11
 2953 08f7 29       		.byte	0x29
 2954 08f8 86010000 		.4byte	0x186
 2955 08fc 0B       		.byte	0xb
 2956 08fd 07       		.uleb128 0x7
 2957 08fe A6010000 		.4byte	.LASF95
 2958 0902 11       		.byte	0x11
 2959 0903 2A       		.byte	0x2a
 2960 0904 9A030000 		.4byte	0x39a
 2961 0908 01       		.byte	0x1
 2962 0909 04       		.byte	0x4
 2963 090a 04       		.byte	0x4
 2964 090b 0C       		.byte	0xc
 2965 090c 0D       		.uleb128 0xd
 2966 090d 32080000 		.4byte	.LASF141
ARM GAS  C:\Users\haske\AppData\Local\Temp\ccpgnYma.s 			page 64


 2967 0911 11       		.byte	0x11
 2968 0912 2C       		.byte	0x2c
 2969 0913 D9000000 		.4byte	0xd9
 2970 0917 10       		.byte	0x10
 2971 0918 07       		.uleb128 0x7
 2972 0919 8C080000 		.4byte	.LASF142
 2973 091d 11       		.byte	0x11
 2974 091e 2D       		.byte	0x2d
 2975 091f B8000000 		.4byte	0xb8
 2976 0923 01       		.byte	0x1
 2977 0924 01       		.byte	0x1
 2978 0925 07       		.byte	0x7
 2979 0926 14       		.byte	0x14
 2980 0927 00       		.byte	0
 2981 0928 02       		.uleb128 0x2
 2982 0929 E3030000 		.4byte	.LASF143
 2983 092d 11       		.byte	0x11
 2984 092e 2E       		.byte	0x2e
 2985 092f AD080000 		.4byte	0x8ad
 2986 0933 06       		.uleb128 0x6
 2987 0934 0A       		.byte	0xa
 2988 0935 12       		.byte	0x12
 2989 0936 1C       		.byte	0x1c
 2990 0937 B4090000 		.4byte	0x9b4
 2991 093b 0D       		.uleb128 0xd
 2992 093c 660A0000 		.4byte	.LASF62
 2993 0940 12       		.byte	0x12
 2994 0941 1D       		.byte	0x1d
 2995 0942 7B010000 		.4byte	0x17b
 2996 0946 00       		.byte	0
 2997 0947 0D       		.uleb128 0xd
 2998 0948 DC060000 		.4byte	.LASF144
 2999 094c 12       		.byte	0x12
 3000 094d 1E       		.byte	0x1e
 3001 094e 91010000 		.4byte	0x191
 3002 0952 02       		.byte	0x2
 3003 0953 0D       		.uleb128 0xd
 3004 0954 EC050000 		.4byte	.LASF145
 3005 0958 12       		.byte	0x12
 3006 0959 1F       		.byte	0x1f
 3007 095a 91010000 		.4byte	0x191
 3008 095e 04       		.byte	0x4
 3009 095f 0D       		.uleb128 0xd
 3010 0960 24040000 		.4byte	.LASF146
 3011 0964 12       		.byte	0x12
 3012 0965 20       		.byte	0x20
 3013 0966 91010000 		.4byte	0x191
 3014 096a 06       		.byte	0x6
 3015 096b 0C       		.uleb128 0xc
 3016 096c 6F706100 		.ascii	"opa\000"
 3017 0970 12       		.byte	0x12
 3018 0971 21       		.byte	0x21
 3019 0972 86010000 		.4byte	0x186
 3020 0976 08       		.byte	0x8
 3021 0977 07       		.uleb128 0x7
 3022 0978 A6010000 		.4byte	.LASF95
 3023 097c 12       		.byte	0x12
ARM GAS  C:\Users\haske\AppData\Local\Temp\ccpgnYma.s 			page 65


 3024 097d 22       		.byte	0x22
 3025 097e 9A030000 		.4byte	0x39a
 3026 0982 01       		.byte	0x1
 3027 0983 02       		.byte	0x2
 3028 0984 06       		.byte	0x6
 3029 0985 09       		.byte	0x9
 3030 0986 07       		.uleb128 0x7
 3031 0987 8C040000 		.4byte	.LASF147
 3032 098b 12       		.byte	0x12
 3033 098c 23       		.byte	0x23
 3034 098d B8000000 		.4byte	0xb8
 3035 0991 01       		.byte	0x1
 3036 0992 01       		.byte	0x1
 3037 0993 05       		.byte	0x5
 3038 0994 09       		.byte	0x9
 3039 0995 07       		.uleb128 0x7
 3040 0996 47050000 		.4byte	.LASF148
 3041 099a 12       		.byte	0x12
 3042 099b 24       		.byte	0x24
 3043 099c B8000000 		.4byte	0xb8
 3044 09a0 01       		.byte	0x1
 3045 09a1 01       		.byte	0x1
 3046 09a2 04       		.byte	0x4
 3047 09a3 09       		.byte	0x9
 3048 09a4 07       		.uleb128 0x7
 3049 09a5 58000000 		.4byte	.LASF149
 3050 09a9 12       		.byte	0x12
 3051 09aa 25       		.byte	0x25
 3052 09ab B8000000 		.4byte	0xb8
 3053 09af 01       		.byte	0x1
 3054 09b0 01       		.byte	0x1
 3055 09b1 03       		.byte	0x3
 3056 09b2 09       		.byte	0x9
 3057 09b3 00       		.byte	0
 3058 09b4 02       		.uleb128 0x2
 3059 09b5 C5020000 		.4byte	.LASF150
 3060 09b9 12       		.byte	0x12
 3061 09ba 26       		.byte	0x26
 3062 09bb 33090000 		.4byte	0x933
 3063 09bf 06       		.uleb128 0x6
 3064 09c0 10       		.byte	0x10
 3065 09c1 13       		.byte	0x13
 3066 09c2 1C       		.byte	0x1c
 3067 09c3 2E0A0000 		.4byte	0xa2e
 3068 09c7 0D       		.uleb128 0xd
 3069 09c8 660A0000 		.4byte	.LASF62
 3070 09cc 13       		.byte	0x13
 3071 09cd 1D       		.byte	0x1d
 3072 09ce 7B010000 		.4byte	0x17b
 3073 09d2 00       		.byte	0
 3074 09d3 0D       		.uleb128 0xd
 3075 09d4 DC060000 		.4byte	.LASF144
 3076 09d8 13       		.byte	0x13
 3077 09d9 1E       		.byte	0x1e
 3078 09da 91010000 		.4byte	0x191
 3079 09de 02       		.byte	0x2
 3080 09df 0D       		.uleb128 0xd
ARM GAS  C:\Users\haske\AppData\Local\Temp\ccpgnYma.s 			page 66


 3081 09e0 D2050000 		.4byte	.LASF151
 3082 09e4 13       		.byte	0x13
 3083 09e5 1F       		.byte	0x1f
 3084 09e6 CE000000 		.4byte	0xce
 3085 09ea 04       		.byte	0x4
 3086 09eb 0D       		.uleb128 0xd
 3087 09ec 9D020000 		.4byte	.LASF152
 3088 09f0 13       		.byte	0x13
 3089 09f1 20       		.byte	0x20
 3090 09f2 CE000000 		.4byte	0xce
 3091 09f6 06       		.byte	0x6
 3092 09f7 0D       		.uleb128 0xd
 3093 09f8 51050000 		.4byte	.LASF153
 3094 09fc 13       		.byte	0x13
 3095 09fd 21       		.byte	0x21
 3096 09fe 67030000 		.4byte	0x367
 3097 0a02 08       		.byte	0x8
 3098 0a03 0C       		.uleb128 0xc
 3099 0a04 6F706100 		.ascii	"opa\000"
 3100 0a08 13       		.byte	0x13
 3101 0a09 22       		.byte	0x22
 3102 0a0a 86010000 		.4byte	0x186
 3103 0a0e 0C       		.byte	0xc
 3104 0a0f 07       		.uleb128 0x7
 3105 0a10 A6010000 		.4byte	.LASF95
 3106 0a14 13       		.byte	0x13
 3107 0a15 23       		.byte	0x23
 3108 0a16 9A030000 		.4byte	0x39a
 3109 0a1a 01       		.byte	0x1
 3110 0a1b 02       		.byte	0x2
 3111 0a1c 06       		.byte	0x6
 3112 0a1d 0D       		.byte	0xd
 3113 0a1e 07       		.uleb128 0x7
 3114 0a1f 34010000 		.4byte	.LASF154
 3115 0a23 13       		.byte	0x13
 3116 0a24 24       		.byte	0x24
 3117 0a25 B8000000 		.4byte	0xb8
 3118 0a29 01       		.byte	0x1
 3119 0a2a 01       		.byte	0x1
 3120 0a2b 05       		.byte	0x5
 3121 0a2c 0D       		.byte	0xd
 3122 0a2d 00       		.byte	0
 3123 0a2e 02       		.uleb128 0x2
 3124 0a2f BF0A0000 		.4byte	.LASF155
 3125 0a33 13       		.byte	0x13
 3126 0a34 25       		.byte	0x25
 3127 0a35 BF090000 		.4byte	0x9bf
 3128 0a39 16       		.uleb128 0x16
 3129 0a3a 01       		.byte	0x1
 3130 0a3b 42000000 		.4byte	0x42
 3131 0a3f 14       		.byte	0x14
 3132 0a40 1C       		.byte	0x1c
 3133 0a41 580A0000 		.4byte	0xa58
 3134 0a45 17       		.uleb128 0x17
 3135 0a46 31070000 		.4byte	.LASF156
 3136 0a4a 00       		.byte	0
 3137 0a4b 17       		.uleb128 0x17
ARM GAS  C:\Users\haske\AppData\Local\Temp\ccpgnYma.s 			page 67


 3138 0a4c BD000000 		.4byte	.LASF157
 3139 0a50 01       		.byte	0x1
 3140 0a51 17       		.uleb128 0x17
 3141 0a52 39090000 		.4byte	.LASF158
 3142 0a56 02       		.byte	0x2
 3143 0a57 00       		.byte	0
 3144 0a58 02       		.uleb128 0x2
 3145 0a59 C8030000 		.4byte	.LASF159
 3146 0a5d 14       		.byte	0x14
 3147 0a5e 20       		.byte	0x20
 3148 0a5f 390A0000 		.4byte	0xa39
 3149 0a63 06       		.uleb128 0x6
 3150 0a64 10       		.byte	0x10
 3151 0a65 15       		.byte	0x15
 3152 0a66 33       		.byte	0x33
 3153 0a67 9C0A0000 		.4byte	0xa9c
 3154 0a6b 0D       		.uleb128 0xd
 3155 0a6c A6070000 		.4byte	.LASF160
 3156 0a70 15       		.byte	0x15
 3157 0a71 34       		.byte	0x34
 3158 0a72 44060000 		.4byte	0x644
 3159 0a76 00       		.byte	0
 3160 0a77 0D       		.uleb128 0xd
 3161 0a78 44060000 		.4byte	.LASF161
 3162 0a7c 15       		.byte	0x15
 3163 0a7d 35       		.byte	0x35
 3164 0a7e 9C0A0000 		.4byte	0xa9c
 3165 0a82 04       		.byte	0x4
 3166 0a83 0C       		.uleb128 0xc
 3167 0a84 62756600 		.ascii	"buf\000"
 3168 0a88 15       		.byte	0x15
 3169 0a89 36       		.byte	0x36
 3170 0a8a 13010000 		.4byte	0x113
 3171 0a8e 08       		.byte	0x8
 3172 0a8f 0D       		.uleb128 0xd
 3173 0a90 360B0000 		.4byte	.LASF162
 3174 0a94 15       		.byte	0x15
 3175 0a95 37       		.byte	0x37
 3176 0a96 2F030000 		.4byte	0x32f
 3177 0a9a 0C       		.byte	0xc
 3178 0a9b 00       		.byte	0
 3179 0a9c 0F       		.uleb128 0xf
 3180 0a9d 04       		.byte	0x4
 3181 0a9e F9010000 		.4byte	0x1f9
 3182 0aa2 0E       		.uleb128 0xe
 3183 0aa3 F9070000 		.4byte	.LASF164
 3184 0aa7 28       		.byte	0x28
 3185 0aa8 15       		.byte	0x15
 3186 0aa9 2D       		.byte	0x2d
 3187 0aaa F70A0000 		.4byte	0xaf7
 3188 0aae 0D       		.uleb128 0xd
 3189 0aaf D6070000 		.4byte	.LASF165
 3190 0ab3 15       		.byte	0x15
 3191 0ab4 2E       		.byte	0x2e
 3192 0ab5 F9010000 		.4byte	0x1f9
 3193 0ab9 00       		.byte	0
 3194 0aba 0D       		.uleb128 0xd
ARM GAS  C:\Users\haske\AppData\Local\Temp\ccpgnYma.s 			page 68


 3195 0abb D8020000 		.4byte	.LASF166
 3196 0abf 15       		.byte	0x15
 3197 0ac0 2F       		.byte	0x2f
 3198 0ac1 F9010000 		.4byte	0x1f9
 3199 0ac5 08       		.byte	0x8
 3200 0ac6 0D       		.uleb128 0xd
 3201 0ac7 1F080000 		.4byte	.LASF167
 3202 0acb 15       		.byte	0x15
 3203 0acc 30       		.byte	0x30
 3204 0acd 91010000 		.4byte	0x191
 3205 0ad1 10       		.byte	0x10
 3206 0ad2 0D       		.uleb128 0xd
 3207 0ad3 70090000 		.4byte	.LASF168
 3208 0ad7 15       		.byte	0x15
 3209 0ad8 31       		.byte	0x31
 3210 0ad9 91010000 		.4byte	0x191
 3211 0add 12       		.byte	0x12
 3212 0ade 0C       		.uleb128 0xc
 3213 0adf 62756600 		.ascii	"buf\000"
 3214 0ae3 15       		.byte	0x15
 3215 0ae4 32       		.byte	0x32
 3216 0ae5 13010000 		.4byte	0x113
 3217 0ae9 14       		.byte	0x14
 3218 0aea 0D       		.uleb128 0xd
 3219 0aeb 20030000 		.4byte	.LASF169
 3220 0aef 15       		.byte	0x15
 3221 0af0 38       		.byte	0x38
 3222 0af1 630A0000 		.4byte	0xa63
 3223 0af5 18       		.byte	0x18
 3224 0af6 00       		.byte	0
 3225 0af7 02       		.uleb128 0x2
 3226 0af8 520A0000 		.4byte	.LASF170
 3227 0afc 15       		.byte	0x15
 3228 0afd 39       		.byte	0x39
 3229 0afe A20A0000 		.4byte	0xaa2
 3230 0b02 0E       		.uleb128 0xe
 3231 0b03 3C010000 		.4byte	.LASF171
 3232 0b07 54       		.byte	0x54
 3233 0b08 15       		.byte	0x15
 3234 0b09 3B       		.byte	0x3b
 3235 0b0a 0B0C0000 		.4byte	0xc0b
 3236 0b0e 0C       		.uleb128 0xc
 3237 0b0f 62756600 		.ascii	"buf\000"
 3238 0b13 15       		.byte	0x15
 3239 0b14 3F       		.byte	0x3f
 3240 0b15 13010000 		.4byte	0x113
 3241 0b19 00       		.byte	0
 3242 0b1a 0D       		.uleb128 0xd
 3243 0b1b 44060000 		.4byte	.LASF161
 3244 0b1f 15       		.byte	0x15
 3245 0b20 44       		.byte	0x44
 3246 0b21 9C0A0000 		.4byte	0xa9c
 3247 0b25 04       		.byte	0x4
 3248 0b26 0D       		.uleb128 0xd
 3249 0b27 A6070000 		.4byte	.LASF160
 3250 0b2b 15       		.byte	0x15
 3251 0b2c 49       		.byte	0x49
ARM GAS  C:\Users\haske\AppData\Local\Temp\ccpgnYma.s 			page 69


 3252 0b2d 44060000 		.4byte	0x644
 3253 0b31 08       		.byte	0x8
 3254 0b32 0D       		.uleb128 0xd
 3255 0b33 2B010000 		.4byte	.LASF172
 3256 0b37 15       		.byte	0x15
 3257 0b38 4B       		.byte	0x4b
 3258 0b39 1C0C0000 		.4byte	0xc1c
 3259 0b3d 0C       		.byte	0xc
 3260 0b3e 0D       		.uleb128 0xd
 3261 0b3f F9000000 		.4byte	.LASF173
 3262 0b43 15       		.byte	0x15
 3263 0b44 4D       		.byte	0x4d
 3264 0b45 420C0000 		.4byte	0xc42
 3265 0b49 10       		.byte	0x10
 3266 0b4a 0D       		.uleb128 0xd
 3267 0b4b 31060000 		.4byte	.LASF174
 3268 0b4f 15       		.byte	0x15
 3269 0b50 4F       		.byte	0x4f
 3270 0b51 820C0000 		.4byte	0xc82
 3271 0b55 14       		.byte	0x14
 3272 0b56 0D       		.uleb128 0xd
 3273 0b57 65060000 		.4byte	.LASF175
 3274 0b5b 15       		.byte	0x15
 3275 0b5c 52       		.byte	0x52
 3276 0b5d B20C0000 		.4byte	0xcb2
 3277 0b61 18       		.byte	0x18
 3278 0b62 0D       		.uleb128 0xd
 3279 0b63 F20B0000 		.4byte	.LASF176
 3280 0b67 15       		.byte	0x15
 3281 0b68 55       		.byte	0x55
 3282 0b69 D60C0000 		.4byte	0xcd6
 3283 0b6d 1C       		.byte	0x1c
 3284 0b6e 0D       		.uleb128 0xd
 3285 0b6f D7090000 		.4byte	.LASF177
 3286 0b73 15       		.byte	0x15
 3287 0b74 58       		.byte	0x58
 3288 0b75 010D0000 		.4byte	0xd01
 3289 0b79 20       		.byte	0x20
 3290 0b7a 0D       		.uleb128 0xd
 3291 0b7b 5E020000 		.4byte	.LASF178
 3292 0b7f 15       		.byte	0x15
 3293 0b80 5C       		.byte	0x5c
 3294 0b81 2C0D0000 		.4byte	0xd2c
 3295 0b85 24       		.byte	0x24
 3296 0b86 0D       		.uleb128 0xd
 3297 0b87 330C0000 		.4byte	.LASF179
 3298 0b8b 15       		.byte	0x15
 3299 0b8c 60       		.byte	0x60
 3300 0b8d 4C0D0000 		.4byte	0xd4c
 3301 0b91 28       		.byte	0x28
 3302 0b92 0D       		.uleb128 0xd
 3303 0b93 2D040000 		.4byte	.LASF180
 3304 0b97 15       		.byte	0x15
 3305 0b98 71       		.byte	0x71
 3306 0b99 8A0D0000 		.4byte	0xd8a
 3307 0b9d 2C       		.byte	0x2c
 3308 0b9e 0D       		.uleb128 0xd
ARM GAS  C:\Users\haske\AppData\Local\Temp\ccpgnYma.s 			page 70


 3309 0b9f 47000000 		.4byte	.LASF181
 3310 0ba3 15       		.byte	0x15
 3311 0ba4 78       		.byte	0x78
 3312 0ba5 420C0000 		.4byte	0xc42
 3313 0ba9 30       		.byte	0x30
 3314 0baa 0D       		.uleb128 0xd
 3315 0bab 10070000 		.4byte	.LASF182
 3316 0baf 15       		.byte	0x15
 3317 0bb0 7D       		.byte	0x7d
 3318 0bb1 1C0C0000 		.4byte	0xc1c
 3319 0bb5 34       		.byte	0x34
 3320 0bb6 0D       		.uleb128 0xd
 3321 0bb7 24020000 		.4byte	.LASF183
 3322 0bbb 15       		.byte	0x15
 3323 0bbc 8D       		.byte	0x8d
 3324 0bbd B90D0000 		.4byte	0xdb9
 3325 0bc1 38       		.byte	0x38
 3326 0bc2 0D       		.uleb128 0xd
 3327 0bc3 D9040000 		.4byte	.LASF184
 3328 0bc7 15       		.byte	0x15
 3329 0bc8 99       		.byte	0x99
 3330 0bc9 DE0D0000 		.4byte	0xdde
 3331 0bcd 3C       		.byte	0x3c
 3332 0bce 0D       		.uleb128 0xd
 3333 0bcf 3A0A0000 		.4byte	.LASF185
 3334 0bd3 15       		.byte	0x15
 3335 0bd4 A3       		.byte	0xa3
 3336 0bd5 F90D0000 		.4byte	0xdf9
 3337 0bd9 40       		.byte	0x40
 3338 0bda 0D       		.uleb128 0xd
 3339 0bdb 7D0A0000 		.4byte	.LASF186
 3340 0bdf 15       		.byte	0x15
 3341 0be0 AC       		.byte	0xac
 3342 0be1 140E0000 		.4byte	0xe14
 3343 0be5 44       		.byte	0x44
 3344 0be6 0D       		.uleb128 0xd
 3345 0be7 DE050000 		.4byte	.LASF187
 3346 0beb 15       		.byte	0x15
 3347 0bec B5       		.byte	0xb5
 3348 0bed 300E0000 		.4byte	0xe30
 3349 0bf1 48       		.byte	0x48
 3350 0bf2 0D       		.uleb128 0xd
 3351 0bf3 08040000 		.4byte	.LASF188
 3352 0bf7 15       		.byte	0x15
 3353 0bf8 BA       		.byte	0xba
 3354 0bf9 FA000000 		.4byte	0xfa
 3355 0bfd 4C       		.byte	0x4c
 3356 0bfe 0D       		.uleb128 0xd
 3357 0bff D10C0000 		.4byte	.LASF50
 3358 0c03 15       		.byte	0x15
 3359 0c04 BD       		.byte	0xbd
 3360 0c05 13010000 		.4byte	0x113
 3361 0c09 50       		.byte	0x50
 3362 0c0a 00       		.byte	0
 3363 0c0b 18       		.uleb128 0x18
 3364 0c0c 160C0000 		.4byte	0xc16
 3365 0c10 12       		.uleb128 0x12
ARM GAS  C:\Users\haske\AppData\Local\Temp\ccpgnYma.s 			page 71


 3366 0c11 160C0000 		.4byte	0xc16
 3367 0c15 00       		.byte	0
 3368 0c16 0F       		.uleb128 0xf
 3369 0c17 04       		.byte	0x4
 3370 0c18 020B0000 		.4byte	0xb02
 3371 0c1c 0F       		.uleb128 0xf
 3372 0c1d 04       		.byte	0x4
 3373 0c1e 0B0C0000 		.4byte	0xc0b
 3374 0c22 18       		.uleb128 0x18
 3375 0c23 370C0000 		.4byte	0xc37
 3376 0c27 12       		.uleb128 0x12
 3377 0c28 160C0000 		.4byte	0xc16
 3378 0c2c 12       		.uleb128 0x12
 3379 0c2d 370C0000 		.4byte	0xc37
 3380 0c31 12       		.uleb128 0x12
 3381 0c32 44060000 		.4byte	0x644
 3382 0c36 00       		.byte	0
 3383 0c37 0F       		.uleb128 0xf
 3384 0c38 04       		.byte	0x4
 3385 0c39 3D0C0000 		.4byte	0xc3d
 3386 0c3d 10       		.uleb128 0x10
 3387 0c3e BD070000 		.4byte	0x7bd
 3388 0c42 0F       		.uleb128 0xf
 3389 0c43 04       		.byte	0x4
 3390 0c44 220C0000 		.4byte	0xc22
 3391 0c48 18       		.uleb128 0x18
 3392 0c49 6C0C0000 		.4byte	0xc6c
 3393 0c4d 12       		.uleb128 0x12
 3394 0c4e 160C0000 		.4byte	0xc16
 3395 0c52 12       		.uleb128 0x12
 3396 0c53 6C0C0000 		.4byte	0xc6c
 3397 0c57 12       		.uleb128 0x12
 3398 0c58 770C0000 		.4byte	0xc77
 3399 0c5c 12       		.uleb128 0x12
 3400 0c5d CE000000 		.4byte	0xce
 3401 0c61 12       		.uleb128 0x12
 3402 0c62 CE000000 		.4byte	0xce
 3403 0c66 12       		.uleb128 0x12
 3404 0c67 CE000000 		.4byte	0xce
 3405 0c6b 00       		.byte	0
 3406 0c6c 0F       		.uleb128 0xf
 3407 0c6d 04       		.byte	0x4
 3408 0c6e 720C0000 		.4byte	0xc72
 3409 0c72 10       		.uleb128 0x10
 3410 0c73 2E0A0000 		.4byte	0xa2e
 3411 0c77 0F       		.uleb128 0xf
 3412 0c78 04       		.byte	0x4
 3413 0c79 7D0C0000 		.4byte	0xc7d
 3414 0c7d 10       		.uleb128 0x10
 3415 0c7e B9010000 		.4byte	0x1b9
 3416 0c82 0F       		.uleb128 0xf
 3417 0c83 04       		.byte	0x4
 3418 0c84 480C0000 		.4byte	0xc48
 3419 0c88 18       		.uleb128 0x18
 3420 0c89 A70C0000 		.4byte	0xca7
 3421 0c8d 12       		.uleb128 0x12
 3422 0c8e 160C0000 		.4byte	0xc16
ARM GAS  C:\Users\haske\AppData\Local\Temp\ccpgnYma.s 			page 72


 3423 0c92 12       		.uleb128 0x12
 3424 0c93 A70C0000 		.4byte	0xca7
 3425 0c97 12       		.uleb128 0x12
 3426 0c98 44060000 		.4byte	0x644
 3427 0c9c 12       		.uleb128 0x12
 3428 0c9d 56030000 		.4byte	0x356
 3429 0ca1 12       		.uleb128 0x12
 3430 0ca2 65060000 		.4byte	0x665
 3431 0ca6 00       		.byte	0
 3432 0ca7 0F       		.uleb128 0xf
 3433 0ca8 04       		.byte	0x4
 3434 0ca9 AD0C0000 		.4byte	0xcad
 3435 0cad 10       		.uleb128 0x10
 3436 0cae 28090000 		.4byte	0x928
 3437 0cb2 0F       		.uleb128 0xf
 3438 0cb3 04       		.byte	0x4
 3439 0cb4 880C0000 		.4byte	0xc88
 3440 0cb8 11       		.uleb128 0x11
 3441 0cb9 EF000000 		.4byte	0xef
 3442 0cbd D60C0000 		.4byte	0xcd6
 3443 0cc1 12       		.uleb128 0x12
 3444 0cc2 160C0000 		.4byte	0xc16
 3445 0cc6 12       		.uleb128 0x12
 3446 0cc7 A70C0000 		.4byte	0xca7
 3447 0ccb 12       		.uleb128 0x12
 3448 0ccc 44060000 		.4byte	0x644
 3449 0cd0 12       		.uleb128 0x12
 3450 0cd1 67030000 		.4byte	0x367
 3451 0cd5 00       		.byte	0
 3452 0cd6 0F       		.uleb128 0xf
 3453 0cd7 04       		.byte	0x4
 3454 0cd8 B80C0000 		.4byte	0xcb8
 3455 0cdc 18       		.uleb128 0x18
 3456 0cdd F60C0000 		.4byte	0xcf6
 3457 0ce1 12       		.uleb128 0x12
 3458 0ce2 160C0000 		.4byte	0xc16
 3459 0ce6 12       		.uleb128 0x12
 3460 0ce7 F60C0000 		.4byte	0xcf6
 3461 0ceb 12       		.uleb128 0x12
 3462 0cec 770C0000 		.4byte	0xc77
 3463 0cf0 12       		.uleb128 0x12
 3464 0cf1 E4000000 		.4byte	0xe4
 3465 0cf5 00       		.byte	0
 3466 0cf6 0F       		.uleb128 0xf
 3467 0cf7 04       		.byte	0x4
 3468 0cf8 FC0C0000 		.4byte	0xcfc
 3469 0cfc 10       		.uleb128 0x10
 3470 0cfd A2080000 		.4byte	0x8a2
 3471 0d01 0F       		.uleb128 0xf
 3472 0d02 04       		.byte	0x4
 3473 0d03 DC0C0000 		.4byte	0xcdc
 3474 0d07 18       		.uleb128 0x18
 3475 0d08 210D0000 		.4byte	0xd21
 3476 0d0c 12       		.uleb128 0x12
 3477 0d0d 160C0000 		.4byte	0xc16
 3478 0d11 12       		.uleb128 0x12
 3479 0d12 210D0000 		.4byte	0xd21
ARM GAS  C:\Users\haske\AppData\Local\Temp\ccpgnYma.s 			page 73


 3480 0d16 12       		.uleb128 0x12
 3481 0d17 770C0000 		.4byte	0xc77
 3482 0d1b 12       		.uleb128 0x12
 3483 0d1c 770C0000 		.4byte	0xc77
 3484 0d20 00       		.byte	0
 3485 0d21 0F       		.uleb128 0xf
 3486 0d22 04       		.byte	0x4
 3487 0d23 270D0000 		.4byte	0xd27
 3488 0d27 10       		.uleb128 0x10
 3489 0d28 B4090000 		.4byte	0x9b4
 3490 0d2c 0F       		.uleb128 0xf
 3491 0d2d 04       		.byte	0x4
 3492 0d2e 070D0000 		.4byte	0xd07
 3493 0d32 18       		.uleb128 0x18
 3494 0d33 4C0D0000 		.4byte	0xd4c
 3495 0d37 12       		.uleb128 0x12
 3496 0d38 160C0000 		.4byte	0xc16
 3497 0d3c 12       		.uleb128 0x12
 3498 0d3d 370C0000 		.4byte	0xc37
 3499 0d41 12       		.uleb128 0x12
 3500 0d42 770C0000 		.4byte	0xc77
 3501 0d46 12       		.uleb128 0x12
 3502 0d47 CE000000 		.4byte	0xce
 3503 0d4b 00       		.byte	0
 3504 0d4c 0F       		.uleb128 0xf
 3505 0d4d 04       		.byte	0x4
 3506 0d4e 320D0000 		.4byte	0xd32
 3507 0d52 18       		.uleb128 0x18
 3508 0d53 8A0D0000 		.4byte	0xd8a
 3509 0d57 12       		.uleb128 0x12
 3510 0d58 160C0000 		.4byte	0xc16
 3511 0d5c 12       		.uleb128 0x12
 3512 0d5d 44060000 		.4byte	0x644
 3513 0d61 12       		.uleb128 0x12
 3514 0d62 67030000 		.4byte	0x367
 3515 0d66 12       		.uleb128 0x12
 3516 0d67 91010000 		.4byte	0x191
 3517 0d6b 12       		.uleb128 0x12
 3518 0d6c 91010000 		.4byte	0x191
 3519 0d70 12       		.uleb128 0x12
 3520 0d71 91010000 		.4byte	0x191
 3521 0d75 12       		.uleb128 0x12
 3522 0d76 A70C0000 		.4byte	0xca7
 3523 0d7a 12       		.uleb128 0x12
 3524 0d7b 65060000 		.4byte	0x665
 3525 0d7f 12       		.uleb128 0x12
 3526 0d80 70060000 		.4byte	0x670
 3527 0d84 12       		.uleb128 0x12
 3528 0d85 EB040000 		.4byte	0x4eb
 3529 0d89 00       		.byte	0
 3530 0d8a 0F       		.uleb128 0xf
 3531 0d8b 04       		.byte	0x4
 3532 0d8c 520D0000 		.4byte	0xd52
 3533 0d90 18       		.uleb128 0x18
 3534 0d91 B90D0000 		.4byte	0xdb9
 3535 0d95 12       		.uleb128 0x12
 3536 0d96 160C0000 		.4byte	0xc16
ARM GAS  C:\Users\haske\AppData\Local\Temp\ccpgnYma.s 			page 74


 3537 0d9a 12       		.uleb128 0x12
 3538 0d9b 13010000 		.4byte	0x113
 3539 0d9f 12       		.uleb128 0x12
 3540 0da0 91010000 		.4byte	0x191
 3541 0da4 12       		.uleb128 0x12
 3542 0da5 44060000 		.4byte	0x644
 3543 0da9 12       		.uleb128 0x12
 3544 0daa 13010000 		.4byte	0x113
 3545 0dae 12       		.uleb128 0x12
 3546 0daf 91010000 		.4byte	0x191
 3547 0db3 12       		.uleb128 0x12
 3548 0db4 44060000 		.4byte	0x644
 3549 0db8 00       		.byte	0
 3550 0db9 0F       		.uleb128 0xf
 3551 0dba 04       		.byte	0x4
 3552 0dbb 900D0000 		.4byte	0xd90
 3553 0dbf 11       		.uleb128 0x11
 3554 0dc0 D80D0000 		.4byte	0xdd8
 3555 0dc4 D80D0000 		.4byte	0xdd8
 3556 0dc8 12       		.uleb128 0x12
 3557 0dc9 160C0000 		.4byte	0xc16
 3558 0dcd 12       		.uleb128 0x12
 3559 0dce D80D0000 		.4byte	0xdd8
 3560 0dd2 12       		.uleb128 0x12
 3561 0dd3 580A0000 		.4byte	0xa58
 3562 0dd7 00       		.byte	0
 3563 0dd8 0F       		.uleb128 0xf
 3564 0dd9 04       		.byte	0x4
 3565 0dda A20A0000 		.4byte	0xaa2
 3566 0dde 0F       		.uleb128 0xf
 3567 0ddf 04       		.byte	0x4
 3568 0de0 BF0D0000 		.4byte	0xdbf
 3569 0de4 18       		.uleb128 0x18
 3570 0de5 F90D0000 		.4byte	0xdf9
 3571 0de9 12       		.uleb128 0x12
 3572 0dea 160C0000 		.4byte	0xc16
 3573 0dee 12       		.uleb128 0x12
 3574 0def D80D0000 		.4byte	0xdd8
 3575 0df3 12       		.uleb128 0x12
 3576 0df4 580A0000 		.4byte	0xa58
 3577 0df8 00       		.byte	0
 3578 0df9 0F       		.uleb128 0xf
 3579 0dfa 04       		.byte	0x4
 3580 0dfb E40D0000 		.4byte	0xde4
 3581 0dff 18       		.uleb128 0x18
 3582 0e00 140E0000 		.4byte	0xe14
 3583 0e04 12       		.uleb128 0x12
 3584 0e05 160C0000 		.4byte	0xc16
 3585 0e09 12       		.uleb128 0x12
 3586 0e0a D80D0000 		.4byte	0xdd8
 3587 0e0e 12       		.uleb128 0x12
 3588 0e0f A70C0000 		.4byte	0xca7
 3589 0e13 00       		.byte	0
 3590 0e14 0F       		.uleb128 0xf
 3591 0e15 04       		.byte	0x4
 3592 0e16 FF0D0000 		.4byte	0xdff
 3593 0e1a 18       		.uleb128 0x18
ARM GAS  C:\Users\haske\AppData\Local\Temp\ccpgnYma.s 			page 75


 3594 0e1b 2A0E0000 		.4byte	0xe2a
 3595 0e1f 12       		.uleb128 0x12
 3596 0e20 160C0000 		.4byte	0xc16
 3597 0e24 12       		.uleb128 0x12
 3598 0e25 2A0E0000 		.4byte	0xe2a
 3599 0e29 00       		.byte	0
 3600 0e2a 0F       		.uleb128 0xf
 3601 0e2b 04       		.byte	0x4
 3602 0e2c F70A0000 		.4byte	0xaf7
 3603 0e30 0F       		.uleb128 0xf
 3604 0e31 04       		.byte	0x4
 3605 0e32 1A0E0000 		.4byte	0xe1a
 3606 0e36 19       		.uleb128 0x19
 3607 0e37 6D0B0000 		.4byte	.LASF246
 3608 0e3b 02       		.byte	0x2
 3609 0e3c 7B       		.byte	0x7b
 3610 0e3d 91010000 		.4byte	0x191
 3611 0e41 03       		.byte	0x3
 3612 0e42 520E0000 		.4byte	0xe52
 3613 0e46 1A       		.uleb128 0x1a
 3614 0e47 F9010000 		.4byte	.LASF247
 3615 0e4b 02       		.byte	0x2
 3616 0e4c 7B       		.byte	0x7b
 3617 0e4d 44060000 		.4byte	0x644
 3618 0e51 00       		.byte	0
 3619 0e52 1B       		.uleb128 0x1b
 3620 0e53 02070000 		.4byte	.LASF202
 3621 0e57 01       		.byte	0x1
 3622 0e58 70       		.byte	0x70
 3623 0e59 00000000 		.4byte	.LFB160
 3624 0e5d B8010000 		.4byte	.LFE160-.LFB160
 3625 0e61 01       		.uleb128 0x1
 3626 0e62 9C       		.byte	0x9c
 3627 0e63 AA100000 		.4byte	0x10aa
 3628 0e67 1C       		.uleb128 0x1c
 3629 0e68 E90B0000 		.4byte	.LASF189
 3630 0e6c 01       		.byte	0x1
 3631 0e6d 70       		.byte	0x70
 3632 0e6e 160C0000 		.4byte	0xc16
 3633 0e72 00000000 		.4byte	.LLST0
 3634 0e76 1D       		.uleb128 0x1d
 3635 0e77 64736300 		.ascii	"dsc\000"
 3636 0e7b 01       		.byte	0x1
 3637 0e7c 70       		.byte	0x70
 3638 0e7d 210D0000 		.4byte	0xd21
 3639 0e81 2C000000 		.4byte	.LLST1
 3640 0e85 1C       		.uleb128 0x1c
 3641 0e86 9F0A0000 		.4byte	.LASF190
 3642 0e8a 01       		.byte	0x1
 3643 0e8b 71       		.byte	0x71
 3644 0e8c 770C0000 		.4byte	0xc77
 3645 0e90 63000000 		.4byte	.LLST2
 3646 0e94 1C       		.uleb128 0x1c
 3647 0e95 A60A0000 		.4byte	.LASF191
 3648 0e99 01       		.byte	0x1
 3649 0e9a 71       		.byte	0x71
 3650 0e9b 770C0000 		.4byte	0xc77
ARM GAS  C:\Users\haske\AppData\Local\Temp\ccpgnYma.s 			page 76


 3651 0e9f 84000000 		.4byte	.LLST3
 3652 0ea3 1E       		.uleb128 0x1e
 3653 0ea4 7700     		.ascii	"w\000"
 3654 0ea6 01       		.byte	0x1
 3655 0ea7 73       		.byte	0x73
 3656 0ea8 D9000000 		.4byte	0xd9
 3657 0eac A5000000 		.4byte	.LLST4
 3658 0eb0 1F       		.uleb128 0x1f
 3659 0eb1 14020000 		.4byte	.LASF192
 3660 0eb5 01       		.byte	0x1
 3661 0eb6 74       		.byte	0x74
 3662 0eb7 D9000000 		.4byte	0xd9
 3663 0ebb CD000000 		.4byte	.LLST5
 3664 0ebf 1F       		.uleb128 0x1f
 3665 0ec0 1C020000 		.4byte	.LASF193
 3666 0ec4 01       		.byte	0x1
 3667 0ec5 75       		.byte	0x75
 3668 0ec6 D9000000 		.4byte	0xd9
 3669 0eca F6000000 		.4byte	.LLST6
 3670 0ece 20       		.uleb128 0x20
 3671 0ecf 050A0000 		.4byte	.LASF90
 3672 0ed3 01       		.byte	0x1
 3673 0ed4 77       		.byte	0x77
 3674 0ed5 F9010000 		.4byte	0x1f9
 3675 0ed9 02       		.uleb128 0x2
 3676 0eda 91       		.byte	0x91
 3677 0edb 58       		.sleb128 -40
 3678 0edc 1F       		.uleb128 0x1f
 3679 0edd 5B060000 		.4byte	.LASF194
 3680 0ee1 01       		.byte	0x1
 3681 0ee2 7D       		.byte	0x7d
 3682 0ee3 2F030000 		.4byte	0x32f
 3683 0ee7 09010000 		.4byte	.LLST7
 3684 0eeb 1F       		.uleb128 0x1f
 3685 0eec 19090000 		.4byte	.LASF195
 3686 0ef0 01       		.byte	0x1
 3687 0ef1 81       		.byte	0x81
 3688 0ef2 2F030000 		.4byte	0x32f
 3689 0ef6 1C010000 		.4byte	.LLST8
 3690 0efa 1F       		.uleb128 0x1f
 3691 0efb 4A020000 		.4byte	.LASF196
 3692 0eff 01       		.byte	0x1
 3693 0f00 82       		.byte	0x82
 3694 0f01 2F030000 		.4byte	0x32f
 3695 0f05 2F010000 		.4byte	.LLST9
 3696 0f09 20       		.uleb128 0x20
 3697 0f0a 3A060000 		.4byte	.LASF197
 3698 0f0e 01       		.byte	0x1
 3699 0f0f 86       		.byte	0x86
 3700 0f10 5A060000 		.4byte	0x65a
 3701 0f14 03       		.uleb128 0x3
 3702 0f15 91       		.byte	0x91
 3703 0f16 BC7F     		.sleb128 -68
 3704 0f18 21       		.uleb128 0x21
 3705 0f19 BC000000 		.4byte	.LBB12
 3706 0f1d F0000000 		.4byte	.LBE12-.LBB12
 3707 0f21 4C100000 		.4byte	0x104c
ARM GAS  C:\Users\haske\AppData\Local\Temp\ccpgnYma.s 			page 77


 3708 0f25 1F       		.uleb128 0x1f
 3709 0f26 B1010000 		.4byte	.LASF198
 3710 0f2a 01       		.byte	0x1
 3711 0f2b 94       		.byte	0x94
 3712 0f2c D9000000 		.4byte	0xd9
 3713 0f30 4E010000 		.4byte	.LLST10
 3714 0f34 1E       		.uleb128 0x1e
 3715 0f35 793200   		.ascii	"y2\000"
 3716 0f38 01       		.byte	0x1
 3717 0f39 96       		.byte	0x96
 3718 0f3a 91010000 		.4byte	0x191
 3719 0f3e 91010000 		.4byte	.LLST11
 3720 0f42 1F       		.uleb128 0x1f
 3721 0f43 DB0C0000 		.4byte	.LASF199
 3722 0f47 01       		.byte	0x1
 3723 0f48 99       		.byte	0x99
 3724 0f49 91010000 		.4byte	0x191
 3725 0f4d A4010000 		.4byte	.LLST12
 3726 0f51 1F       		.uleb128 0x1f
 3727 0f52 E2060000 		.4byte	.LASF92
 3728 0f56 01       		.byte	0x1
 3729 0f57 9E       		.byte	0x9e
 3730 0f58 EB040000 		.4byte	0x4eb
 3731 0f5c DE010000 		.4byte	.LLST13
 3732 0f60 1E       		.uleb128 0x1e
 3733 0f61 6800     		.ascii	"h\000"
 3734 0f63 01       		.byte	0x1
 3735 0f64 A1       		.byte	0xa1
 3736 0f65 D9000000 		.4byte	0xd9
 3737 0f69 FD010000 		.4byte	.LLST14
 3738 0f6d 22       		.uleb128 0x22
 3739 0f6e 360E0000 		.4byte	0xe36
 3740 0f72 BC000000 		.4byte	.LBB13
 3741 0f76 12000000 		.4byte	.LBE13-.LBB13
 3742 0f7a 01       		.byte	0x1
 3743 0f7b 94       		.byte	0x94
 3744 0f7c 8A0F0000 		.4byte	0xf8a
 3745 0f80 23       		.uleb128 0x23
 3746 0f81 460E0000 		.4byte	0xe46
 3747 0f85 10020000 		.4byte	.LLST15
 3748 0f89 00       		.byte	0
 3749 0f8a 24       		.uleb128 0x24
 3750 0f8b 00000000 		.4byte	.Ldebug_ranges0+0
 3751 0f8f C90F0000 		.4byte	0xfc9
 3752 0f93 1F       		.uleb128 0x1f
 3753 0f94 7B010000 		.4byte	.LASF200
 3754 0f98 01       		.byte	0x1
 3755 0f99 A8       		.byte	0xa8
 3756 0f9a 91010000 		.4byte	0x191
 3757 0f9e 24020000 		.4byte	.LLST16
 3758 0fa2 1E       		.uleb128 0x1e
 3759 0fa3 6900     		.ascii	"i\000"
 3760 0fa5 01       		.byte	0x1
 3761 0fa6 A9       		.byte	0xa9
 3762 0fa7 91010000 		.4byte	0x191
 3763 0fab 6E020000 		.4byte	.LLST17
 3764 0faf 25       		.uleb128 0x25
ARM GAS  C:\Users\haske\AppData\Local\Temp\ccpgnYma.s 			page 78


 3765 0fb0 46010000 		.4byte	.LBB16
 3766 0fb4 08000000 		.4byte	.LBE16-.LBB16
 3767 0fb8 1F       		.uleb128 0x1f
 3768 0fb9 C7010000 		.4byte	.LASF201
 3769 0fbd 01       		.byte	0x1
 3770 0fbe AC       		.byte	0xac
 3771 0fbf C3000000 		.4byte	0xc3
 3772 0fc3 A2020000 		.4byte	.LLST18
 3773 0fc7 00       		.byte	0
 3774 0fc8 00       		.byte	0
 3775 0fc9 26       		.uleb128 0x26
 3776 0fca 04010000 		.4byte	.LVL31
 3777 0fce D21A0000 		.4byte	0x1ad2
 3778 0fd2 DF0F0000 		.4byte	0xfdf
 3779 0fd6 27       		.uleb128 0x27
 3780 0fd7 01       		.uleb128 0x1
 3781 0fd8 50       		.byte	0x50
 3782 0fd9 04       		.uleb128 0x4
 3783 0fda 91       		.byte	0x91
 3784 0fdb AC7F     		.sleb128 -84
 3785 0fdd 06       		.byte	0x6
 3786 0fde 00       		.byte	0
 3787 0fdf 26       		.uleb128 0x26
 3788 0fe0 20010000 		.4byte	.LVL37
 3789 0fe4 DD1A0000 		.4byte	0x1add
 3790 0fe8 FC0F0000 		.4byte	0xffc
 3791 0fec 27       		.uleb128 0x27
 3792 0fed 01       		.uleb128 0x1
 3793 0fee 50       		.byte	0x50
 3794 0fef 03       		.uleb128 0x3
 3795 0ff0 7D       		.byte	0x7d
 3796 0ff1 00       		.sleb128 0
 3797 0ff2 06       		.byte	0x6
 3798 0ff3 27       		.uleb128 0x27
 3799 0ff4 01       		.uleb128 0x1
 3800 0ff5 51       		.byte	0x51
 3801 0ff6 04       		.uleb128 0x4
 3802 0ff7 91       		.byte	0x91
 3803 0ff8 B07F     		.sleb128 -80
 3804 0ffa 06       		.byte	0x6
 3805 0ffb 00       		.byte	0
 3806 0ffc 26       		.uleb128 0x26
 3807 0ffd 30010000 		.4byte	.LVL38
 3808 1001 E81A0000 		.4byte	0x1ae8
 3809 1005 20100000 		.4byte	0x1020
 3810 1009 27       		.uleb128 0x27
 3811 100a 01       		.uleb128 0x1
 3812 100b 50       		.byte	0x50
 3813 100c 03       		.uleb128 0x3
 3814 100d 7D       		.byte	0x7d
 3815 100e 00       		.sleb128 0
 3816 100f 06       		.byte	0x6
 3817 1010 27       		.uleb128 0x27
 3818 1011 01       		.uleb128 0x1
 3819 1012 52       		.byte	0x52
 3820 1013 02       		.uleb128 0x2
 3821 1014 75       		.byte	0x75
ARM GAS  C:\Users\haske\AppData\Local\Temp\ccpgnYma.s 			page 79


 3822 1015 00       		.sleb128 0
 3823 1016 27       		.uleb128 0x27
 3824 1017 01       		.uleb128 0x1
 3825 1018 53       		.byte	0x53
 3826 1019 05       		.uleb128 0x5
 3827 101a 91       		.byte	0x91
 3828 101b AC7F     		.sleb128 -84
 3829 101d 94       		.byte	0x94
 3830 101e 02       		.byte	0x2
 3831 101f 00       		.byte	0
 3832 1020 26       		.uleb128 0x26
 3833 1021 8C010000 		.4byte	.LVL54
 3834 1025 F31A0000 		.4byte	0x1af3
 3835 1029 3B100000 		.4byte	0x103b
 3836 102d 27       		.uleb128 0x27
 3837 102e 01       		.uleb128 0x1
 3838 102f 50       		.byte	0x50
 3839 1030 02       		.uleb128 0x2
 3840 1031 79       		.byte	0x79
 3841 1032 00       		.sleb128 0
 3842 1033 27       		.uleb128 0x27
 3843 1034 01       		.uleb128 0x1
 3844 1035 51       		.byte	0x51
 3845 1036 03       		.uleb128 0x3
 3846 1037 91       		.byte	0x91
 3847 1038 BC7F     		.sleb128 -68
 3848 103a 00       		.byte	0
 3849 103b 28       		.uleb128 0x28
 3850 103c AC010000 		.4byte	.LVL57
 3851 1040 FE1A0000 		.4byte	0x1afe
 3852 1044 27       		.uleb128 0x27
 3853 1045 01       		.uleb128 0x1
 3854 1046 50       		.byte	0x50
 3855 1047 02       		.uleb128 0x2
 3856 1048 76       		.byte	0x76
 3857 1049 00       		.sleb128 0
 3858 104a 00       		.byte	0
 3859 104b 00       		.byte	0
 3860 104c 26       		.uleb128 0x26
 3861 104d 5E000000 		.4byte	.LVL10
 3862 1051 091B0000 		.4byte	0x1b09
 3863 1055 66100000 		.4byte	0x1066
 3864 1059 27       		.uleb128 0x27
 3865 105a 01       		.uleb128 0x1
 3866 105b 50       		.byte	0x50
 3867 105c 02       		.uleb128 0x2
 3868 105d 91       		.byte	0x91
 3869 105e 58       		.sleb128 -40
 3870 105f 27       		.uleb128 0x27
 3871 1060 01       		.uleb128 0x1
 3872 1061 51       		.byte	0x51
 3873 1062 02       		.uleb128 0x2
 3874 1063 91       		.byte	0x91
 3875 1064 58       		.sleb128 -40
 3876 1065 00       		.byte	0
 3877 1066 26       		.uleb128 0x26
 3878 1067 84000000 		.4byte	.LVL13
ARM GAS  C:\Users\haske\AppData\Local\Temp\ccpgnYma.s 			page 80


 3879 106b 141B0000 		.4byte	0x1b14
 3880 106f 7A100000 		.4byte	0x107a
 3881 1073 27       		.uleb128 0x27
 3882 1074 01       		.uleb128 0x1
 3883 1075 50       		.byte	0x50
 3884 1076 02       		.uleb128 0x2
 3885 1077 91       		.byte	0x91
 3886 1078 58       		.sleb128 -40
 3887 1079 00       		.byte	0
 3888 107a 26       		.uleb128 0x26
 3889 107b A2000000 		.4byte	.LVL19
 3890 107f 201B0000 		.4byte	0x1b20
 3891 1083 93100000 		.4byte	0x1093
 3892 1087 27       		.uleb128 0x27
 3893 1088 01       		.uleb128 0x1
 3894 1089 50       		.byte	0x50
 3895 108a 02       		.uleb128 0x2
 3896 108b 75       		.byte	0x75
 3897 108c 00       		.sleb128 0
 3898 108d 27       		.uleb128 0x27
 3899 108e 01       		.uleb128 0x1
 3900 108f 51       		.byte	0x51
 3901 1090 01       		.uleb128 0x1
 3902 1091 4C       		.byte	0x4c
 3903 1092 00       		.byte	0
 3904 1093 28       		.uleb128 0x28
 3905 1094 BA000000 		.4byte	.LVL20
 3906 1098 F31A0000 		.4byte	0x1af3
 3907 109c 27       		.uleb128 0x27
 3908 109d 01       		.uleb128 0x1
 3909 109e 50       		.byte	0x50
 3910 109f 02       		.uleb128 0x2
 3911 10a0 79       		.byte	0x79
 3912 10a1 00       		.sleb128 0
 3913 10a2 27       		.uleb128 0x27
 3914 10a3 01       		.uleb128 0x1
 3915 10a4 51       		.byte	0x51
 3916 10a5 02       		.uleb128 0x2
 3917 10a6 75       		.byte	0x75
 3918 10a7 00       		.sleb128 0
 3919 10a8 00       		.byte	0
 3920 10a9 00       		.byte	0
 3921 10aa 1B       		.uleb128 0x1b
 3922 10ab 07000000 		.4byte	.LASF203
 3923 10af 01       		.byte	0x1
 3924 10b0 C6       		.byte	0xc6
 3925 10b1 00000000 		.4byte	.LFB161
 3926 10b5 94010000 		.4byte	.LFE161-.LFB161
 3927 10b9 01       		.uleb128 0x1
 3928 10ba 9C       		.byte	0x9c
 3929 10bb D6120000 		.4byte	0x12d6
 3930 10bf 1C       		.uleb128 0x1c
 3931 10c0 E90B0000 		.4byte	.LASF189
 3932 10c4 01       		.byte	0x1
 3933 10c5 C6       		.byte	0xc6
 3934 10c6 160C0000 		.4byte	0xc16
 3935 10ca B5020000 		.4byte	.LLST19
ARM GAS  C:\Users\haske\AppData\Local\Temp\ccpgnYma.s 			page 81


 3936 10ce 1D       		.uleb128 0x1d
 3937 10cf 64736300 		.ascii	"dsc\000"
 3938 10d3 01       		.byte	0x1
 3939 10d4 C6       		.byte	0xc6
 3940 10d5 210D0000 		.4byte	0xd21
 3941 10d9 E1020000 		.4byte	.LLST20
 3942 10dd 1C       		.uleb128 0x1c
 3943 10de 9F0A0000 		.4byte	.LASF190
 3944 10e2 01       		.byte	0x1
 3945 10e3 C7       		.byte	0xc7
 3946 10e4 770C0000 		.4byte	0xc77
 3947 10e8 18030000 		.4byte	.LLST21
 3948 10ec 1C       		.uleb128 0x1c
 3949 10ed A60A0000 		.4byte	.LASF191
 3950 10f1 01       		.byte	0x1
 3951 10f2 C7       		.byte	0xc7
 3952 10f3 770C0000 		.4byte	0xc77
 3953 10f7 39030000 		.4byte	.LLST22
 3954 10fb 1E       		.uleb128 0x1e
 3955 10fc 7700     		.ascii	"w\000"
 3956 10fe 01       		.byte	0x1
 3957 10ff C9       		.byte	0xc9
 3958 1100 D9000000 		.4byte	0xd9
 3959 1104 5A030000 		.4byte	.LLST23
 3960 1108 1F       		.uleb128 0x1f
 3961 1109 14020000 		.4byte	.LASF192
 3962 110d 01       		.byte	0x1
 3963 110e CA       		.byte	0xca
 3964 110f D9000000 		.4byte	0xd9
 3965 1113 82030000 		.4byte	.LLST24
 3966 1117 1F       		.uleb128 0x1f
 3967 1118 1C020000 		.4byte	.LASF193
 3968 111c 01       		.byte	0x1
 3969 111d CB       		.byte	0xcb
 3970 111e D9000000 		.4byte	0xd9
 3971 1122 95030000 		.4byte	.LLST25
 3972 1126 20       		.uleb128 0x20
 3973 1127 050A0000 		.4byte	.LASF90
 3974 112b 01       		.byte	0x1
 3975 112c CD       		.byte	0xcd
 3976 112d F9010000 		.4byte	0x1f9
 3977 1131 02       		.uleb128 0x2
 3978 1132 91       		.byte	0x91
 3979 1133 58       		.sleb128 -40
 3980 1134 1F       		.uleb128 0x1f
 3981 1135 5B060000 		.4byte	.LASF194
 3982 1139 01       		.byte	0x1
 3983 113a D3       		.byte	0xd3
 3984 113b 2F030000 		.4byte	0x32f
 3985 113f C2030000 		.4byte	.LLST26
 3986 1143 1F       		.uleb128 0x1f
 3987 1144 19090000 		.4byte	.LASF195
 3988 1148 01       		.byte	0x1
 3989 1149 D7       		.byte	0xd7
 3990 114a 2F030000 		.4byte	0x32f
 3991 114e D5030000 		.4byte	.LLST27
 3992 1152 1F       		.uleb128 0x1f
ARM GAS  C:\Users\haske\AppData\Local\Temp\ccpgnYma.s 			page 82


 3993 1153 4A020000 		.4byte	.LASF196
 3994 1157 01       		.byte	0x1
 3995 1158 D8       		.byte	0xd8
 3996 1159 2F030000 		.4byte	0x32f
 3997 115d E8030000 		.4byte	.LLST28
 3998 1161 20       		.uleb128 0x20
 3999 1162 3A060000 		.4byte	.LASF197
 4000 1166 01       		.byte	0x1
 4001 1167 DC       		.byte	0xdc
 4002 1168 5A060000 		.4byte	0x65a
 4003 116c 03       		.uleb128 0x3
 4004 116d 91       		.byte	0x91
 4005 116e BC7F     		.sleb128 -68
 4006 1170 21       		.uleb128 0x21
 4007 1171 BC000000 		.4byte	.LBB18
 4008 1175 CC000000 		.4byte	.LBE18-.LBB18
 4009 1179 78120000 		.4byte	0x1278
 4010 117d 1F       		.uleb128 0x1f
 4011 117e A1040000 		.4byte	.LASF204
 4012 1182 01       		.byte	0x1
 4013 1183 EA       		.byte	0xea
 4014 1184 D9000000 		.4byte	0xd9
 4015 1188 07040000 		.4byte	.LLST29
 4016 118c 1E       		.uleb128 0x1e
 4017 118d 793200   		.ascii	"y2\000"
 4018 1190 01       		.byte	0x1
 4019 1191 EC       		.byte	0xec
 4020 1192 91010000 		.4byte	0x191
 4021 1196 34040000 		.4byte	.LLST30
 4022 119a 1F       		.uleb128 0x1f
 4023 119b E2060000 		.4byte	.LASF92
 4024 119f 01       		.byte	0x1
 4025 11a0 EF       		.byte	0xef
 4026 11a1 EB040000 		.4byte	0x4eb
 4027 11a5 47040000 		.4byte	.LLST31
 4028 11a9 1F       		.uleb128 0x1f
 4029 11aa DB0C0000 		.4byte	.LASF199
 4030 11ae 01       		.byte	0x1
 4031 11af F3       		.byte	0xf3
 4032 11b0 91010000 		.4byte	0x191
 4033 11b4 7F040000 		.4byte	.LLST32
 4034 11b8 1F       		.uleb128 0x1f
 4035 11b9 7B010000 		.4byte	.LASF200
 4036 11bd 01       		.byte	0x1
 4037 11be F8       		.byte	0xf8
 4038 11bf 91010000 		.4byte	0x191
 4039 11c3 B5040000 		.4byte	.LLST33
 4040 11c7 1E       		.uleb128 0x1e
 4041 11c8 6800     		.ascii	"h\000"
 4042 11ca 01       		.byte	0x1
 4043 11cb FA       		.byte	0xfa
 4044 11cc D9000000 		.4byte	0xd9
 4045 11d0 D3040000 		.4byte	.LLST34
 4046 11d4 22       		.uleb128 0x22
 4047 11d5 360E0000 		.4byte	0xe36
 4048 11d9 BC000000 		.4byte	.LBB19
 4049 11dd 14000000 		.4byte	.LBE19-.LBB19
ARM GAS  C:\Users\haske\AppData\Local\Temp\ccpgnYma.s 			page 83


 4050 11e1 01       		.byte	0x1
 4051 11e2 EA       		.byte	0xea
 4052 11e3 F1110000 		.4byte	0x11f1
 4053 11e7 23       		.uleb128 0x23
 4054 11e8 460E0000 		.4byte	0xe46
 4055 11ec F9040000 		.4byte	.LLST35
 4056 11f0 00       		.byte	0
 4057 11f1 26       		.uleb128 0x26
 4058 11f2 E4000000 		.4byte	.LVL82
 4059 11f6 D21A0000 		.4byte	0x1ad2
 4060 11fa 07120000 		.4byte	0x1207
 4061 11fe 27       		.uleb128 0x27
 4062 11ff 01       		.uleb128 0x1
 4063 1200 50       		.byte	0x50
 4064 1201 04       		.uleb128 0x4
 4065 1202 91       		.byte	0x91
 4066 1203 B47F     		.sleb128 -76
 4067 1205 06       		.byte	0x6
 4068 1206 00       		.byte	0
 4069 1207 26       		.uleb128 0x26
 4070 1208 1E010000 		.4byte	.LVL94
 4071 120c DD1A0000 		.4byte	0x1add
 4072 1210 25120000 		.4byte	0x1225
 4073 1214 27       		.uleb128 0x27
 4074 1215 01       		.uleb128 0x1
 4075 1216 50       		.byte	0x50
 4076 1217 04       		.uleb128 0x4
 4077 1218 91       		.byte	0x91
 4078 1219 AC7F     		.sleb128 -84
 4079 121b 06       		.byte	0x6
 4080 121c 27       		.uleb128 0x27
 4081 121d 01       		.uleb128 0x1
 4082 121e 51       		.byte	0x51
 4083 121f 04       		.uleb128 0x4
 4084 1220 91       		.byte	0x91
 4085 1221 B07F     		.sleb128 -80
 4086 1223 06       		.byte	0x6
 4087 1224 00       		.byte	0
 4088 1225 26       		.uleb128 0x26
 4089 1226 2E010000 		.4byte	.LVL95
 4090 122a E81A0000 		.4byte	0x1ae8
 4091 122e 4A120000 		.4byte	0x124a
 4092 1232 27       		.uleb128 0x27
 4093 1233 01       		.uleb128 0x1
 4094 1234 50       		.byte	0x50
 4095 1235 04       		.uleb128 0x4
 4096 1236 91       		.byte	0x91
 4097 1237 AC7F     		.sleb128 -84
 4098 1239 06       		.byte	0x6
 4099 123a 27       		.uleb128 0x27
 4100 123b 01       		.uleb128 0x1
 4101 123c 52       		.byte	0x52
 4102 123d 02       		.uleb128 0x2
 4103 123e 74       		.byte	0x74
 4104 123f 00       		.sleb128 0
 4105 1240 27       		.uleb128 0x27
 4106 1241 01       		.uleb128 0x1
ARM GAS  C:\Users\haske\AppData\Local\Temp\ccpgnYma.s 			page 84


 4107 1242 53       		.byte	0x53
 4108 1243 05       		.uleb128 0x5
 4109 1244 91       		.byte	0x91
 4110 1245 B47F     		.sleb128 -76
 4111 1247 94       		.byte	0x94
 4112 1248 02       		.byte	0x2
 4113 1249 00       		.byte	0
 4114 124a 26       		.uleb128 0x26
 4115 124b 6A010000 		.4byte	.LVL99
 4116 124f F31A0000 		.4byte	0x1af3
 4117 1253 65120000 		.4byte	0x1265
 4118 1257 27       		.uleb128 0x27
 4119 1258 01       		.uleb128 0x1
 4120 1259 50       		.byte	0x50
 4121 125a 02       		.uleb128 0x2
 4122 125b 78       		.byte	0x78
 4123 125c 00       		.sleb128 0
 4124 125d 27       		.uleb128 0x27
 4125 125e 01       		.uleb128 0x1
 4126 125f 51       		.byte	0x51
 4127 1260 03       		.uleb128 0x3
 4128 1261 91       		.byte	0x91
 4129 1262 BC7F     		.sleb128 -68
 4130 1264 00       		.byte	0
 4131 1265 28       		.uleb128 0x28
 4132 1266 88010000 		.4byte	.LVL101
 4133 126a FE1A0000 		.4byte	0x1afe
 4134 126e 27       		.uleb128 0x27
 4135 126f 01       		.uleb128 0x1
 4136 1270 50       		.byte	0x50
 4137 1271 04       		.uleb128 0x4
 4138 1272 91       		.byte	0x91
 4139 1273 AC7F     		.sleb128 -84
 4140 1275 06       		.byte	0x6
 4141 1276 00       		.byte	0
 4142 1277 00       		.byte	0
 4143 1278 26       		.uleb128 0x26
 4144 1279 60000000 		.4byte	.LVL70
 4145 127d 091B0000 		.4byte	0x1b09
 4146 1281 92120000 		.4byte	0x1292
 4147 1285 27       		.uleb128 0x27
 4148 1286 01       		.uleb128 0x1
 4149 1287 50       		.byte	0x50
 4150 1288 02       		.uleb128 0x2
 4151 1289 91       		.byte	0x91
 4152 128a 58       		.sleb128 -40
 4153 128b 27       		.uleb128 0x27
 4154 128c 01       		.uleb128 0x1
 4155 128d 51       		.byte	0x51
 4156 128e 02       		.uleb128 0x2
 4157 128f 91       		.byte	0x91
 4158 1290 58       		.sleb128 -40
 4159 1291 00       		.byte	0
 4160 1292 26       		.uleb128 0x26
 4161 1293 86000000 		.4byte	.LVL73
 4162 1297 141B0000 		.4byte	0x1b14
 4163 129b A6120000 		.4byte	0x12a6
ARM GAS  C:\Users\haske\AppData\Local\Temp\ccpgnYma.s 			page 85


 4164 129f 27       		.uleb128 0x27
 4165 12a0 01       		.uleb128 0x1
 4166 12a1 50       		.byte	0x50
 4167 12a2 02       		.uleb128 0x2
 4168 12a3 91       		.byte	0x91
 4169 12a4 58       		.sleb128 -40
 4170 12a5 00       		.byte	0
 4171 12a6 26       		.uleb128 0x26
 4172 12a7 A2000000 		.4byte	.LVL75
 4173 12ab 201B0000 		.4byte	0x1b20
 4174 12af BF120000 		.4byte	0x12bf
 4175 12b3 27       		.uleb128 0x27
 4176 12b4 01       		.uleb128 0x1
 4177 12b5 50       		.byte	0x50
 4178 12b6 02       		.uleb128 0x2
 4179 12b7 74       		.byte	0x74
 4180 12b8 00       		.sleb128 0
 4181 12b9 27       		.uleb128 0x27
 4182 12ba 01       		.uleb128 0x1
 4183 12bb 51       		.byte	0x51
 4184 12bc 01       		.uleb128 0x1
 4185 12bd 4C       		.byte	0x4c
 4186 12be 00       		.byte	0
 4187 12bf 28       		.uleb128 0x28
 4188 12c0 BA000000 		.4byte	.LVL76
 4189 12c4 F31A0000 		.4byte	0x1af3
 4190 12c8 27       		.uleb128 0x27
 4191 12c9 01       		.uleb128 0x1
 4192 12ca 50       		.byte	0x50
 4193 12cb 02       		.uleb128 0x2
 4194 12cc 78       		.byte	0x78
 4195 12cd 00       		.sleb128 0
 4196 12ce 27       		.uleb128 0x27
 4197 12cf 01       		.uleb128 0x1
 4198 12d0 51       		.byte	0x51
 4199 12d1 02       		.uleb128 0x2
 4200 12d2 74       		.byte	0x74
 4201 12d3 00       		.sleb128 0
 4202 12d4 00       		.byte	0
 4203 12d5 00       		.byte	0
 4204 12d6 29       		.uleb128 0x29
 4205 12d7 C0040000 		.4byte	.LASF205
 4206 12db 01       		.byte	0x1
 4207 12dc 1601     		.2byte	0x116
 4208 12de 00000000 		.4byte	.LFB162
 4209 12e2 78030000 		.4byte	.LFE162-.LFB162
 4210 12e6 01       		.uleb128 0x1
 4211 12e7 9C       		.byte	0x9c
 4212 12e8 11190000 		.4byte	0x1911
 4213 12ec 2A       		.uleb128 0x2a
 4214 12ed E90B0000 		.4byte	.LASF189
 4215 12f1 01       		.byte	0x1
 4216 12f2 1601     		.2byte	0x116
 4217 12f4 160C0000 		.4byte	0xc16
 4218 12f8 18050000 		.4byte	.LLST36
 4219 12fc 2B       		.uleb128 0x2b
 4220 12fd 64736300 		.ascii	"dsc\000"
ARM GAS  C:\Users\haske\AppData\Local\Temp\ccpgnYma.s 			page 86


 4221 1301 01       		.byte	0x1
 4222 1302 1601     		.2byte	0x116
 4223 1304 210D0000 		.4byte	0xd21
 4224 1308 44050000 		.4byte	.LLST37
 4225 130c 2A       		.uleb128 0x2a
 4226 130d 9F0A0000 		.4byte	.LASF190
 4227 1311 01       		.byte	0x1
 4228 1312 1701     		.2byte	0x117
 4229 1314 770C0000 		.4byte	0xc77
 4230 1318 64050000 		.4byte	.LLST38
 4231 131c 2A       		.uleb128 0x2a
 4232 131d A60A0000 		.4byte	.LASF191
 4233 1321 01       		.byte	0x1
 4234 1322 1701     		.2byte	0x117
 4235 1324 770C0000 		.4byte	0xc77
 4236 1328 9E050000 		.4byte	.LLST39
 4237 132c 2C       		.uleb128 0x2c
 4238 132d 703100   		.ascii	"p1\000"
 4239 1330 01       		.byte	0x1
 4240 1331 1B01     		.2byte	0x11b
 4241 1333 B9010000 		.4byte	0x1b9
 4242 1337 02       		.uleb128 0x2
 4243 1338 91       		.byte	0x91
 4244 1339 54       		.sleb128 -44
 4245 133a 2C       		.uleb128 0x2c
 4246 133b 703200   		.ascii	"p2\000"
 4247 133e 01       		.byte	0x1
 4248 133f 1C01     		.2byte	0x11c
 4249 1341 B9010000 		.4byte	0x1b9
 4250 1345 02       		.uleb128 0x2
 4251 1346 91       		.byte	0x91
 4252 1347 50       		.sleb128 -48
 4253 1348 2D       		.uleb128 0x2d
 4254 1349 470A0000 		.4byte	.LASF206
 4255 134d 01       		.byte	0x1
 4256 134e 2A01     		.2byte	0x12a
 4257 1350 D9000000 		.4byte	0xd9
 4258 1354 D8050000 		.4byte	.LLST40
 4259 1358 2D       		.uleb128 0x2d
 4260 1359 79020000 		.4byte	.LASF207
 4261 135d 01       		.byte	0x1
 4262 135e 2B01     		.2byte	0x12b
 4263 1360 D9000000 		.4byte	0xd9
 4264 1364 55060000 		.4byte	.LLST41
 4265 1368 2D       		.uleb128 0x2d
 4266 1369 1A080000 		.4byte	.LASF88
 4267 136d 01       		.byte	0x1
 4268 136e 2C01     		.2byte	0x12c
 4269 1370 2F030000 		.4byte	0x32f
 4270 1374 75060000 		.4byte	.LLST42
 4271 1378 2E       		.uleb128 0x2e
 4272 1379 96080000 		.4byte	.LASF208
 4273 137d 01       		.byte	0x1
 4274 137e 2E01     		.2byte	0x12e
 4275 1380 21190000 		.4byte	0x1921
 4276 1384 05       		.uleb128 0x5
 4277 1385 03       		.byte	0x3
ARM GAS  C:\Users\haske\AppData\Local\Temp\ccpgnYma.s 			page 87


 4278 1386 00000000 		.4byte	wcorr.8997
 4279 138a 2F       		.uleb128 0x2f
 4280 138b 7700     		.ascii	"w\000"
 4281 138d 01       		.byte	0x1
 4282 138e 3601     		.2byte	0x136
 4283 1390 D9000000 		.4byte	0xd9
 4284 1394 3B070000 		.4byte	.LLST43
 4285 1398 2D       		.uleb128 0x2d
 4286 1399 76060000 		.4byte	.LASF209
 4287 139d 01       		.byte	0x1
 4288 139e 3701     		.2byte	0x137
 4289 13a0 D9000000 		.4byte	0xd9
 4290 13a4 59070000 		.4byte	.LLST44
 4291 13a8 2D       		.uleb128 0x2d
 4292 13a9 14020000 		.4byte	.LASF192
 4293 13ad 01       		.byte	0x1
 4294 13ae 3C01     		.2byte	0x13c
 4295 13b0 D9000000 		.4byte	0xd9
 4296 13b4 8F070000 		.4byte	.LLST45
 4297 13b8 2D       		.uleb128 0x2d
 4298 13b9 1C020000 		.4byte	.LASF193
 4299 13bd 01       		.byte	0x1
 4300 13be 3D01     		.2byte	0x13d
 4301 13c0 D9000000 		.4byte	0xd9
 4302 13c4 B8070000 		.4byte	.LLST46
 4303 13c8 2E       		.uleb128 0x2e
 4304 13c9 050A0000 		.4byte	.LASF90
 4305 13cd 01       		.byte	0x1
 4306 13ce 3F01     		.2byte	0x13f
 4307 13d0 F9010000 		.4byte	0x1f9
 4308 13d4 02       		.uleb128 0x2
 4309 13d5 91       		.byte	0x91
 4310 13d6 48       		.sleb128 -56
 4311 13d7 2D       		.uleb128 0x2d
 4312 13d8 5B060000 		.4byte	.LASF194
 4313 13dc 01       		.byte	0x1
 4314 13dd 4801     		.2byte	0x148
 4315 13df 2F030000 		.4byte	0x32f
 4316 13e3 E5070000 		.4byte	.LLST47
 4317 13e7 2E       		.uleb128 0x2e
 4318 13e8 F0080000 		.4byte	.LASF210
 4319 13ec 01       		.byte	0x1
 4320 13ed 4B01     		.2byte	0x14b
 4321 13ef D0050000 		.4byte	0x5d0
 4322 13f3 03       		.uleb128 0x3
 4323 13f4 91       		.byte	0x91
 4324 13f5 9C7F     		.sleb128 -100
 4325 13f7 2E       		.uleb128 0x2e
 4326 13f8 9C080000 		.4byte	.LASF211
 4327 13fc 01       		.byte	0x1
 4328 13fd 4C01     		.2byte	0x14c
 4329 13ff D0050000 		.4byte	0x5d0
 4330 1403 03       		.uleb128 0x3
 4331 1404 91       		.byte	0x91
 4332 1405 F07E     		.sleb128 -144
 4333 1407 2E       		.uleb128 0x2e
 4334 1408 C7070000 		.4byte	.LASF212
ARM GAS  C:\Users\haske\AppData\Local\Temp\ccpgnYma.s 			page 88


 4335 140c 01       		.byte	0x1
 4336 140d 4D01     		.2byte	0x14d
 4337 140f D0050000 		.4byte	0x5d0
 4338 1413 03       		.uleb128 0x3
 4339 1414 91       		.byte	0x91
 4340 1415 C47E     		.sleb128 -188
 4341 1417 2E       		.uleb128 0x2e
 4342 1418 E4040000 		.4byte	.LASF213
 4343 141c 01       		.byte	0x1
 4344 141d 4E01     		.2byte	0x14e
 4345 141f D0050000 		.4byte	0x5d0
 4346 1423 03       		.uleb128 0x3
 4347 1424 91       		.byte	0x91
 4348 1425 987E     		.sleb128 -232
 4349 1427 2D       		.uleb128 0x2d
 4350 1428 E7070000 		.4byte	.LASF214
 4351 142c 01       		.byte	0x1
 4352 142d 6701     		.2byte	0x167
 4353 142f C3000000 		.4byte	0xc3
 4354 1433 0E080000 		.4byte	.LLST48
 4355 1437 2D       		.uleb128 0x2d
 4356 1438 E1020000 		.4byte	.LASF215
 4357 143c 01       		.byte	0x1
 4358 143d 6801     		.2byte	0x168
 4359 143f C3000000 		.4byte	0xc3
 4360 1443 23080000 		.4byte	.LLST49
 4361 1447 2D       		.uleb128 0x2d
 4362 1448 9A010000 		.4byte	.LASF216
 4363 144c 01       		.byte	0x1
 4364 144d 6901     		.2byte	0x169
 4365 144f C3000000 		.4byte	0xc3
 4366 1453 38080000 		.4byte	.LLST50
 4367 1457 2D       		.uleb128 0x2d
 4368 1458 AD080000 		.4byte	.LASF217
 4369 145c 01       		.byte	0x1
 4370 145d 6A01     		.2byte	0x16a
 4371 145f C3000000 		.4byte	0xc3
 4372 1463 7F080000 		.4byte	.LLST51
 4373 1467 2D       		.uleb128 0x2d
 4374 1468 A1040000 		.4byte	.LASF204
 4375 146c 01       		.byte	0x1
 4376 146d 7601     		.2byte	0x176
 4377 146f D9000000 		.4byte	0xd9
 4378 1473 B9080000 		.4byte	.LLST52
 4379 1477 2F       		.uleb128 0x2f
 4380 1478 6800     		.ascii	"h\000"
 4381 147a 01       		.byte	0x1
 4382 147b 7901     		.2byte	0x179
 4383 147d D9000000 		.4byte	0xd9
 4384 1481 D2080000 		.4byte	.LLST53
 4385 1485 2D       		.uleb128 0x2d
 4386 1486 68020000 		.4byte	.LASF218
 4387 148a 01       		.byte	0x1
 4388 148b 7A01     		.2byte	0x17a
 4389 148d E4000000 		.4byte	0xe4
 4390 1491 E5080000 		.4byte	.LLST54
 4391 1495 2D       		.uleb128 0x2d
ARM GAS  C:\Users\haske\AppData\Local\Temp\ccpgnYma.s 			page 89


 4392 1496 5F0B0000 		.4byte	.LASF219
 4393 149a 01       		.byte	0x1
 4394 149b 7B01     		.2byte	0x17b
 4395 149d FA000000 		.4byte	0xfa
 4396 14a1 03090000 		.4byte	.LLST55
 4397 14a5 2D       		.uleb128 0x2d
 4398 14a6 E2060000 		.4byte	.LASF92
 4399 14aa 01       		.byte	0x1
 4400 14ab 7C01     		.2byte	0x17c
 4401 14ad EB040000 		.4byte	0x4eb
 4402 14b1 21090000 		.4byte	.LLST56
 4403 14b5 2F       		.uleb128 0x2f
 4404 14b6 793200   		.ascii	"y2\000"
 4405 14b9 01       		.byte	0x1
 4406 14ba 7E01     		.2byte	0x17e
 4407 14bc 91010000 		.4byte	0x191
 4408 14c0 3F090000 		.4byte	.LLST57
 4409 14c4 2D       		.uleb128 0x2d
 4410 14c5 E0070000 		.4byte	.LASF220
 4411 14c9 01       		.byte	0x1
 4412 14ca 8101     		.2byte	0x181
 4413 14cc E4000000 		.4byte	0xe4
 4414 14d0 52090000 		.4byte	.LLST58
 4415 14d4 2E       		.uleb128 0x2e
 4416 14d5 3A060000 		.4byte	.LASF197
 4417 14d9 01       		.byte	0x1
 4418 14da 8401     		.2byte	0x184
 4419 14dc 5A060000 		.4byte	0x65a
 4420 14e0 03       		.uleb128 0x3
 4421 14e1 91       		.byte	0x91
 4422 14e2 FC7D     		.sleb128 -260
 4423 14e4 30       		.uleb128 0x30
 4424 14e5 360E0000 		.4byte	0xe36
 4425 14e9 34020000 		.4byte	.LBB21
 4426 14ed 10000000 		.4byte	.LBE21-.LBB21
 4427 14f1 01       		.byte	0x1
 4428 14f2 7601     		.2byte	0x176
 4429 14f4 02150000 		.4byte	0x1502
 4430 14f8 23       		.uleb128 0x23
 4431 14f9 460E0000 		.4byte	0xe46
 4432 14fd 88090000 		.4byte	.LLST59
 4433 1501 00       		.byte	0
 4434 1502 26       		.uleb128 0x26
 4435 1503 F0000000 		.4byte	.LVL128
 4436 1507 091B0000 		.4byte	0x1b09
 4437 150b 1C150000 		.4byte	0x151c
 4438 150f 27       		.uleb128 0x27
 4439 1510 01       		.uleb128 0x1
 4440 1511 50       		.byte	0x50
 4441 1512 02       		.uleb128 0x2
 4442 1513 91       		.byte	0x91
 4443 1514 48       		.sleb128 -56
 4444 1515 27       		.uleb128 0x27
 4445 1516 01       		.uleb128 0x1
 4446 1517 51       		.byte	0x51
 4447 1518 02       		.uleb128 0x2
 4448 1519 91       		.byte	0x91
ARM GAS  C:\Users\haske\AppData\Local\Temp\ccpgnYma.s 			page 90


 4449 151a 48       		.sleb128 -56
 4450 151b 00       		.byte	0
 4451 151c 26       		.uleb128 0x26
 4452 151d 1E010000 		.4byte	.LVL131
 4453 1521 2B1B0000 		.4byte	0x1b2b
 4454 1525 4A150000 		.4byte	0x154a
 4455 1529 27       		.uleb128 0x27
 4456 152a 01       		.uleb128 0x1
 4457 152b 50       		.byte	0x50
 4458 152c 03       		.uleb128 0x3
 4459 152d 91       		.byte	0x91
 4460 152e 9C7F     		.sleb128 -100
 4461 1530 27       		.uleb128 0x27
 4462 1531 01       		.uleb128 0x1
 4463 1532 51       		.byte	0x51
 4464 1533 02       		.uleb128 0x2
 4465 1534 78       		.byte	0x78
 4466 1535 00       		.sleb128 0
 4467 1536 27       		.uleb128 0x27
 4468 1537 01       		.uleb128 0x1
 4469 1538 53       		.byte	0x53
 4470 1539 02       		.uleb128 0x2
 4471 153a 76       		.byte	0x76
 4472 153b 00       		.sleb128 0
 4473 153c 27       		.uleb128 0x27
 4474 153d 02       		.uleb128 0x2
 4475 153e 7D       		.byte	0x7d
 4476 153f 00       		.sleb128 0
 4477 1540 02       		.uleb128 0x2
 4478 1541 77       		.byte	0x77
 4479 1542 00       		.sleb128 0
 4480 1543 27       		.uleb128 0x27
 4481 1544 02       		.uleb128 0x2
 4482 1545 7D       		.byte	0x7d
 4483 1546 04       		.sleb128 4
 4484 1547 01       		.uleb128 0x1
 4485 1548 30       		.byte	0x30
 4486 1549 00       		.byte	0
 4487 154a 26       		.uleb128 0x26
 4488 154b 3A010000 		.4byte	.LVL132
 4489 154f 2B1B0000 		.4byte	0x1b2b
 4490 1553 7E150000 		.4byte	0x157e
 4491 1557 27       		.uleb128 0x27
 4492 1558 01       		.uleb128 0x1
 4493 1559 50       		.byte	0x50
 4494 155a 03       		.uleb128 0x3
 4495 155b 91       		.byte	0x91
 4496 155c F07E     		.sleb128 -144
 4497 155e 27       		.uleb128 0x27
 4498 155f 01       		.uleb128 0x1
 4499 1560 51       		.byte	0x51
 4500 1561 02       		.uleb128 0x2
 4501 1562 78       		.byte	0x78
 4502 1563 00       		.sleb128 0
 4503 1564 27       		.uleb128 0x27
 4504 1565 01       		.uleb128 0x1
 4505 1566 52       		.byte	0x52
ARM GAS  C:\Users\haske\AppData\Local\Temp\ccpgnYma.s 			page 91


 4506 1567 02       		.uleb128 0x2
 4507 1568 74       		.byte	0x74
 4508 1569 00       		.sleb128 0
 4509 156a 27       		.uleb128 0x27
 4510 156b 01       		.uleb128 0x1
 4511 156c 53       		.byte	0x53
 4512 156d 02       		.uleb128 0x2
 4513 156e 76       		.byte	0x76
 4514 156f 00       		.sleb128 0
 4515 1570 27       		.uleb128 0x27
 4516 1571 02       		.uleb128 0x2
 4517 1572 7D       		.byte	0x7d
 4518 1573 00       		.sleb128 0
 4519 1574 02       		.uleb128 0x2
 4520 1575 75       		.byte	0x75
 4521 1576 00       		.sleb128 0
 4522 1577 27       		.uleb128 0x27
 4523 1578 02       		.uleb128 0x2
 4524 1579 7D       		.byte	0x7d
 4525 157a 04       		.sleb128 4
 4526 157b 01       		.uleb128 0x1
 4527 157c 31       		.byte	0x31
 4528 157d 00       		.byte	0
 4529 157e 26       		.uleb128 0x26
 4530 157f 5C010000 		.4byte	.LVL135
 4531 1583 2B1B0000 		.4byte	0x1b2b
 4532 1587 C4150000 		.4byte	0x15c4
 4533 158b 27       		.uleb128 0x27
 4534 158c 01       		.uleb128 0x1
 4535 158d 50       		.byte	0x50
 4536 158e 03       		.uleb128 0x3
 4537 158f 91       		.byte	0x91
 4538 1590 9C7F     		.sleb128 -100
 4539 1592 27       		.uleb128 0x27
 4540 1593 01       		.uleb128 0x1
 4541 1594 51       		.byte	0x51
 4542 1595 02       		.uleb128 0x2
 4543 1596 78       		.byte	0x78
 4544 1597 00       		.sleb128 0
 4545 1598 27       		.uleb128 0x27
 4546 1599 01       		.uleb128 0x1
 4547 159a 52       		.byte	0x52
 4548 159b 0B       		.uleb128 0xb
 4549 159c 7D       		.byte	0x7d
 4550 159d 10       		.sleb128 16
 4551 159e 94       		.byte	0x94
 4552 159f 02       		.byte	0x2
 4553 15a0 0A       		.byte	0xa
 4554 15a1 FFFF     		.2byte	0xffff
 4555 15a3 1A       		.byte	0x1a
 4556 15a4 74       		.byte	0x74
 4557 15a5 00       		.sleb128 0
 4558 15a6 22       		.byte	0x22
 4559 15a7 27       		.uleb128 0x27
 4560 15a8 01       		.uleb128 0x1
 4561 15a9 53       		.byte	0x53
 4562 15aa 02       		.uleb128 0x2
ARM GAS  C:\Users\haske\AppData\Local\Temp\ccpgnYma.s 			page 92


 4563 15ab 76       		.byte	0x76
 4564 15ac 00       		.sleb128 0
 4565 15ad 27       		.uleb128 0x27
 4566 15ae 02       		.uleb128 0x2
 4567 15af 7D       		.byte	0x7d
 4568 15b0 00       		.sleb128 0
 4569 15b1 0B       		.uleb128 0xb
 4570 15b2 7D       		.byte	0x7d
 4571 15b3 10       		.sleb128 16
 4572 15b4 94       		.byte	0x94
 4573 15b5 02       		.byte	0x2
 4574 15b6 0A       		.byte	0xa
 4575 15b7 FFFF     		.2byte	0xffff
 4576 15b9 1A       		.byte	0x1a
 4577 15ba 75       		.byte	0x75
 4578 15bb 00       		.sleb128 0
 4579 15bc 22       		.byte	0x22
 4580 15bd 27       		.uleb128 0x27
 4581 15be 02       		.uleb128 0x2
 4582 15bf 7D       		.byte	0x7d
 4583 15c0 04       		.sleb128 4
 4584 15c1 01       		.uleb128 0x1
 4585 15c2 30       		.byte	0x30
 4586 15c3 00       		.byte	0
 4587 15c4 26       		.uleb128 0x26
 4588 15c5 76010000 		.4byte	.LVL137
 4589 15c9 2B1B0000 		.4byte	0x1b2b
 4590 15cd F8150000 		.4byte	0x15f8
 4591 15d1 27       		.uleb128 0x27
 4592 15d2 01       		.uleb128 0x1
 4593 15d3 50       		.byte	0x50
 4594 15d4 03       		.uleb128 0x3
 4595 15d5 91       		.byte	0x91
 4596 15d6 F07E     		.sleb128 -144
 4597 15d8 27       		.uleb128 0x27
 4598 15d9 01       		.uleb128 0x1
 4599 15da 51       		.byte	0x51
 4600 15db 02       		.uleb128 0x2
 4601 15dc 78       		.byte	0x78
 4602 15dd 00       		.sleb128 0
 4603 15de 27       		.uleb128 0x27
 4604 15df 01       		.uleb128 0x1
 4605 15e0 52       		.byte	0x52
 4606 15e1 02       		.uleb128 0x2
 4607 15e2 74       		.byte	0x74
 4608 15e3 00       		.sleb128 0
 4609 15e4 27       		.uleb128 0x27
 4610 15e5 01       		.uleb128 0x1
 4611 15e6 53       		.byte	0x53
 4612 15e7 02       		.uleb128 0x2
 4613 15e8 76       		.byte	0x76
 4614 15e9 00       		.sleb128 0
 4615 15ea 27       		.uleb128 0x27
 4616 15eb 02       		.uleb128 0x2
 4617 15ec 7D       		.byte	0x7d
 4618 15ed 00       		.sleb128 0
 4619 15ee 02       		.uleb128 0x2
ARM GAS  C:\Users\haske\AppData\Local\Temp\ccpgnYma.s 			page 93


 4620 15ef 75       		.byte	0x75
 4621 15f0 00       		.sleb128 0
 4622 15f1 27       		.uleb128 0x27
 4623 15f2 02       		.uleb128 0x2
 4624 15f3 7D       		.byte	0x7d
 4625 15f4 04       		.sleb128 4
 4626 15f5 01       		.uleb128 0x1
 4627 15f6 31       		.byte	0x31
 4628 15f7 00       		.byte	0
 4629 15f8 26       		.uleb128 0x26
 4630 15f9 9C010000 		.4byte	.LVL140
 4631 15fd 2B1B0000 		.4byte	0x1b2b
 4632 1601 3E160000 		.4byte	0x163e
 4633 1605 27       		.uleb128 0x27
 4634 1606 01       		.uleb128 0x1
 4635 1607 50       		.byte	0x50
 4636 1608 03       		.uleb128 0x3
 4637 1609 91       		.byte	0x91
 4638 160a 9C7F     		.sleb128 -100
 4639 160c 27       		.uleb128 0x27
 4640 160d 01       		.uleb128 0x1
 4641 160e 51       		.byte	0x51
 4642 160f 0B       		.uleb128 0xb
 4643 1610 7D       		.byte	0x7d
 4644 1611 10       		.sleb128 16
 4645 1612 94       		.byte	0x94
 4646 1613 02       		.byte	0x2
 4647 1614 0A       		.byte	0xa
 4648 1615 FFFF     		.2byte	0xffff
 4649 1617 1A       		.byte	0x1a
 4650 1618 78       		.byte	0x78
 4651 1619 00       		.sleb128 0
 4652 161a 22       		.byte	0x22
 4653 161b 27       		.uleb128 0x27
 4654 161c 01       		.uleb128 0x1
 4655 161d 52       		.byte	0x52
 4656 161e 02       		.uleb128 0x2
 4657 161f 74       		.byte	0x74
 4658 1620 00       		.sleb128 0
 4659 1621 27       		.uleb128 0x27
 4660 1622 01       		.uleb128 0x1
 4661 1623 53       		.byte	0x53
 4662 1624 0B       		.uleb128 0xb
 4663 1625 7D       		.byte	0x7d
 4664 1626 10       		.sleb128 16
 4665 1627 94       		.byte	0x94
 4666 1628 02       		.byte	0x2
 4667 1629 0A       		.byte	0xa
 4668 162a FFFF     		.2byte	0xffff
 4669 162c 1A       		.byte	0x1a
 4670 162d 76       		.byte	0x76
 4671 162e 00       		.sleb128 0
 4672 162f 22       		.byte	0x22
 4673 1630 27       		.uleb128 0x27
 4674 1631 02       		.uleb128 0x2
 4675 1632 7D       		.byte	0x7d
 4676 1633 00       		.sleb128 0
ARM GAS  C:\Users\haske\AppData\Local\Temp\ccpgnYma.s 			page 94


 4677 1634 02       		.uleb128 0x2
 4678 1635 75       		.byte	0x75
 4679 1636 00       		.sleb128 0
 4680 1637 27       		.uleb128 0x27
 4681 1638 02       		.uleb128 0x2
 4682 1639 7D       		.byte	0x7d
 4683 163a 04       		.sleb128 4
 4684 163b 01       		.uleb128 0x1
 4685 163c 30       		.byte	0x30
 4686 163d 00       		.byte	0
 4687 163e 26       		.uleb128 0x26
 4688 163f B6010000 		.4byte	.LVL142
 4689 1643 2B1B0000 		.4byte	0x1b2b
 4690 1647 72160000 		.4byte	0x1672
 4691 164b 27       		.uleb128 0x27
 4692 164c 01       		.uleb128 0x1
 4693 164d 50       		.byte	0x50
 4694 164e 03       		.uleb128 0x3
 4695 164f 91       		.byte	0x91
 4696 1650 F07E     		.sleb128 -144
 4697 1652 27       		.uleb128 0x27
 4698 1653 01       		.uleb128 0x1
 4699 1654 51       		.byte	0x51
 4700 1655 02       		.uleb128 0x2
 4701 1656 77       		.byte	0x77
 4702 1657 00       		.sleb128 0
 4703 1658 27       		.uleb128 0x27
 4704 1659 01       		.uleb128 0x1
 4705 165a 52       		.byte	0x52
 4706 165b 02       		.uleb128 0x2
 4707 165c 74       		.byte	0x74
 4708 165d 00       		.sleb128 0
 4709 165e 27       		.uleb128 0x27
 4710 165f 01       		.uleb128 0x1
 4711 1660 53       		.byte	0x53
 4712 1661 02       		.uleb128 0x2
 4713 1662 76       		.byte	0x76
 4714 1663 00       		.sleb128 0
 4715 1664 27       		.uleb128 0x27
 4716 1665 02       		.uleb128 0x2
 4717 1666 7D       		.byte	0x7d
 4718 1667 00       		.sleb128 0
 4719 1668 02       		.uleb128 0x2
 4720 1669 75       		.byte	0x75
 4721 166a 00       		.sleb128 0
 4722 166b 27       		.uleb128 0x27
 4723 166c 02       		.uleb128 0x2
 4724 166d 7D       		.byte	0x7d
 4725 166e 04       		.sleb128 4
 4726 166f 01       		.uleb128 0x1
 4727 1670 31       		.byte	0x31
 4728 1671 00       		.byte	0
 4729 1672 26       		.uleb128 0x26
 4730 1673 BE010000 		.4byte	.LVL143
 4731 1677 371B0000 		.4byte	0x1b37
 4732 167b 8C160000 		.4byte	0x168c
 4733 167f 27       		.uleb128 0x27
ARM GAS  C:\Users\haske\AppData\Local\Temp\ccpgnYma.s 			page 95


 4734 1680 01       		.uleb128 0x1
 4735 1681 50       		.byte	0x50
 4736 1682 03       		.uleb128 0x3
 4737 1683 91       		.byte	0x91
 4738 1684 9C7F     		.sleb128 -100
 4739 1686 27       		.uleb128 0x27
 4740 1687 01       		.uleb128 0x1
 4741 1688 51       		.byte	0x51
 4742 1689 01       		.uleb128 0x1
 4743 168a 30       		.byte	0x30
 4744 168b 00       		.byte	0
 4745 168c 26       		.uleb128 0x26
 4746 168d C8010000 		.4byte	.LVL145
 4747 1691 371B0000 		.4byte	0x1b37
 4748 1695 A6160000 		.4byte	0x16a6
 4749 1699 27       		.uleb128 0x27
 4750 169a 01       		.uleb128 0x1
 4751 169b 50       		.byte	0x50
 4752 169c 03       		.uleb128 0x3
 4753 169d 91       		.byte	0x91
 4754 169e F07E     		.sleb128 -144
 4755 16a0 27       		.uleb128 0x27
 4756 16a1 01       		.uleb128 0x1
 4757 16a2 51       		.byte	0x51
 4758 16a3 01       		.uleb128 0x1
 4759 16a4 30       		.byte	0x30
 4760 16a5 00       		.byte	0
 4761 16a6 26       		.uleb128 0x26
 4762 16a7 F8010000 		.4byte	.LVL147
 4763 16ab 2B1B0000 		.4byte	0x1b2b
 4764 16af D8160000 		.4byte	0x16d8
 4765 16b3 27       		.uleb128 0x27
 4766 16b4 01       		.uleb128 0x1
 4767 16b5 50       		.byte	0x50
 4768 16b6 03       		.uleb128 0x3
 4769 16b7 91       		.byte	0x91
 4770 16b8 C47E     		.sleb128 -188
 4771 16ba 27       		.uleb128 0x27
 4772 16bb 01       		.uleb128 0x1
 4773 16bc 51       		.byte	0x51
 4774 16bd 04       		.uleb128 0x4
 4775 16be 91       		.byte	0x91
 4776 16bf 54       		.sleb128 -44
 4777 16c0 94       		.byte	0x94
 4778 16c1 02       		.byte	0x2
 4779 16c2 27       		.uleb128 0x27
 4780 16c3 01       		.uleb128 0x1
 4781 16c4 53       		.byte	0x53
 4782 16c5 0B       		.uleb128 0xb
 4783 16c6 91       		.byte	0x91
 4784 16c7 54       		.sleb128 -44
 4785 16c8 94       		.byte	0x94
 4786 16c9 02       		.byte	0x2
 4787 16ca 40       		.byte	0x40
 4788 16cb 24       		.byte	0x24
 4789 16cc 40       		.byte	0x40
 4790 16cd 26       		.byte	0x26
ARM GAS  C:\Users\haske\AppData\Local\Temp\ccpgnYma.s 			page 96


 4791 16ce 74       		.byte	0x74
 4792 16cf 00       		.sleb128 0
 4793 16d0 1C       		.byte	0x1c
 4794 16d1 27       		.uleb128 0x27
 4795 16d2 02       		.uleb128 0x2
 4796 16d3 7D       		.byte	0x7d
 4797 16d4 04       		.sleb128 4
 4798 16d5 01       		.uleb128 0x1
 4799 16d6 33       		.byte	0x33
 4800 16d7 00       		.byte	0
 4801 16d8 26       		.uleb128 0x26
 4802 16d9 16020000 		.4byte	.LVL148
 4803 16dd 2B1B0000 		.4byte	0x1b2b
 4804 16e1 11170000 		.4byte	0x1711
 4805 16e5 27       		.uleb128 0x27
 4806 16e6 01       		.uleb128 0x1
 4807 16e7 50       		.byte	0x50
 4808 16e8 03       		.uleb128 0x3
 4809 16e9 91       		.byte	0x91
 4810 16ea 987E     		.sleb128 -232
 4811 16ec 27       		.uleb128 0x27
 4812 16ed 01       		.uleb128 0x1
 4813 16ee 51       		.byte	0x51
 4814 16ef 04       		.uleb128 0x4
 4815 16f0 91       		.byte	0x91
 4816 16f1 50       		.sleb128 -48
 4817 16f2 94       		.byte	0x94
 4818 16f3 02       		.byte	0x2
 4819 16f4 27       		.uleb128 0x27
 4820 16f5 01       		.uleb128 0x1
 4821 16f6 53       		.byte	0x53
 4822 16f7 0B       		.uleb128 0xb
 4823 16f8 91       		.byte	0x91
 4824 16f9 50       		.sleb128 -48
 4825 16fa 94       		.byte	0x94
 4826 16fb 02       		.byte	0x2
 4827 16fc 40       		.byte	0x40
 4828 16fd 24       		.byte	0x24
 4829 16fe 40       		.byte	0x40
 4830 16ff 26       		.byte	0x26
 4831 1700 74       		.byte	0x74
 4832 1701 00       		.sleb128 0
 4833 1702 1C       		.byte	0x1c
 4834 1703 27       		.uleb128 0x27
 4835 1704 02       		.uleb128 0x2
 4836 1705 7D       		.byte	0x7d
 4837 1706 00       		.sleb128 0
 4838 1707 02       		.uleb128 0x2
 4839 1708 75       		.byte	0x75
 4840 1709 00       		.sleb128 0
 4841 170a 27       		.uleb128 0x27
 4842 170b 02       		.uleb128 0x2
 4843 170c 7D       		.byte	0x7d
 4844 170d 04       		.sleb128 4
 4845 170e 01       		.uleb128 0x1
 4846 170f 32       		.byte	0x32
 4847 1710 00       		.byte	0
ARM GAS  C:\Users\haske\AppData\Local\Temp\ccpgnYma.s 			page 97


 4848 1711 26       		.uleb128 0x26
 4849 1712 1E020000 		.4byte	.LVL149
 4850 1716 371B0000 		.4byte	0x1b37
 4851 171a 2B170000 		.4byte	0x172b
 4852 171e 27       		.uleb128 0x27
 4853 171f 01       		.uleb128 0x1
 4854 1720 50       		.byte	0x50
 4855 1721 03       		.uleb128 0x3
 4856 1722 91       		.byte	0x91
 4857 1723 C47E     		.sleb128 -188
 4858 1725 27       		.uleb128 0x27
 4859 1726 01       		.uleb128 0x1
 4860 1727 51       		.byte	0x51
 4861 1728 01       		.uleb128 0x1
 4862 1729 30       		.byte	0x30
 4863 172a 00       		.byte	0
 4864 172b 26       		.uleb128 0x26
 4865 172c 28020000 		.4byte	.LVL152
 4866 1730 371B0000 		.4byte	0x1b37
 4867 1734 45170000 		.4byte	0x1745
 4868 1738 27       		.uleb128 0x27
 4869 1739 01       		.uleb128 0x1
 4870 173a 50       		.byte	0x50
 4871 173b 03       		.uleb128 0x3
 4872 173c 91       		.byte	0x91
 4873 173d 987E     		.sleb128 -232
 4874 173f 27       		.uleb128 0x27
 4875 1740 01       		.uleb128 0x1
 4876 1741 51       		.byte	0x51
 4877 1742 01       		.uleb128 0x1
 4878 1743 30       		.byte	0x30
 4879 1744 00       		.byte	0
 4880 1745 31       		.uleb128 0x31
 4881 1746 48020000 		.4byte	.LVL159
 4882 174a 421B0000 		.4byte	0x1b42
 4883 174e 31       		.uleb128 0x31
 4884 174f 4C020000 		.4byte	.LVL160
 4885 1753 4D1B0000 		.4byte	0x1b4d
 4886 1757 26       		.uleb128 0x26
 4887 1758 54020000 		.4byte	.LVL163
 4888 175c 591B0000 		.4byte	0x1b59
 4889 1760 6B170000 		.4byte	0x176b
 4890 1764 27       		.uleb128 0x27
 4891 1765 01       		.uleb128 0x1
 4892 1766 50       		.byte	0x50
 4893 1767 02       		.uleb128 0x2
 4894 1768 74       		.byte	0x74
 4895 1769 00       		.sleb128 0
 4896 176a 00       		.byte	0
 4897 176b 26       		.uleb128 0x26
 4898 176c 5E020000 		.4byte	.LVL164
 4899 1770 591B0000 		.4byte	0x1b59
 4900 1774 7F170000 		.4byte	0x177f
 4901 1778 27       		.uleb128 0x27
 4902 1779 01       		.uleb128 0x1
 4903 177a 50       		.byte	0x50
 4904 177b 02       		.uleb128 0x2
ARM GAS  C:\Users\haske\AppData\Local\Temp\ccpgnYma.s 			page 98


 4905 177c 74       		.byte	0x74
 4906 177d 00       		.sleb128 0
 4907 177e 00       		.byte	0
 4908 177f 26       		.uleb128 0x26
 4909 1780 66020000 		.4byte	.LVL166
 4910 1784 D21A0000 		.4byte	0x1ad2
 4911 1788 93170000 		.4byte	0x1793
 4912 178c 27       		.uleb128 0x27
 4913 178d 01       		.uleb128 0x1
 4914 178e 50       		.byte	0x50
 4915 178f 02       		.uleb128 0x2
 4916 1790 77       		.byte	0x77
 4917 1791 00       		.sleb128 0
 4918 1792 00       		.byte	0
 4919 1793 26       		.uleb128 0x26
 4920 1794 7C020000 		.4byte	.LVL170
 4921 1798 DD1A0000 		.4byte	0x1add
 4922 179c AD170000 		.4byte	0x17ad
 4923 17a0 27       		.uleb128 0x27
 4924 17a1 01       		.uleb128 0x1
 4925 17a2 50       		.byte	0x50
 4926 17a3 02       		.uleb128 0x2
 4927 17a4 78       		.byte	0x78
 4928 17a5 00       		.sleb128 0
 4929 17a6 27       		.uleb128 0x27
 4930 17a7 01       		.uleb128 0x1
 4931 17a8 51       		.byte	0x51
 4932 17a9 02       		.uleb128 0x2
 4933 17aa 77       		.byte	0x77
 4934 17ab 00       		.sleb128 0
 4935 17ac 00       		.byte	0
 4936 17ad 26       		.uleb128 0x26
 4937 17ae 86020000 		.4byte	.LVL171
 4938 17b2 201B0000 		.4byte	0x1b20
 4939 17b6 C6170000 		.4byte	0x17c6
 4940 17ba 27       		.uleb128 0x27
 4941 17bb 01       		.uleb128 0x1
 4942 17bc 50       		.byte	0x50
 4943 17bd 02       		.uleb128 0x2
 4944 17be 75       		.byte	0x75
 4945 17bf 00       		.sleb128 0
 4946 17c0 27       		.uleb128 0x27
 4947 17c1 01       		.uleb128 0x1
 4948 17c2 51       		.byte	0x51
 4949 17c3 01       		.uleb128 0x1
 4950 17c4 4C       		.byte	0x4c
 4951 17c5 00       		.byte	0
 4952 17c6 26       		.uleb128 0x26
 4953 17c7 B6020000 		.4byte	.LVL175
 4954 17cb E81A0000 		.4byte	0x1ae8
 4955 17cf E6170000 		.4byte	0x17e6
 4956 17d3 27       		.uleb128 0x27
 4957 17d4 01       		.uleb128 0x1
 4958 17d5 50       		.byte	0x50
 4959 17d6 02       		.uleb128 0x2
 4960 17d7 77       		.byte	0x77
 4961 17d8 00       		.sleb128 0
ARM GAS  C:\Users\haske\AppData\Local\Temp\ccpgnYma.s 			page 99


 4962 17d9 27       		.uleb128 0x27
 4963 17da 01       		.uleb128 0x1
 4964 17db 52       		.byte	0x52
 4965 17dc 02       		.uleb128 0x2
 4966 17dd 75       		.byte	0x75
 4967 17de 00       		.sleb128 0
 4968 17df 27       		.uleb128 0x27
 4969 17e0 01       		.uleb128 0x1
 4970 17e1 53       		.byte	0x53
 4971 17e2 02       		.uleb128 0x2
 4972 17e3 76       		.byte	0x76
 4973 17e4 00       		.sleb128 0
 4974 17e5 00       		.byte	0
 4975 17e6 26       		.uleb128 0x26
 4976 17e7 C6020000 		.4byte	.LVL176
 4977 17eb 201B0000 		.4byte	0x1b20
 4978 17ef 00180000 		.4byte	0x1800
 4979 17f3 27       		.uleb128 0x27
 4980 17f4 01       		.uleb128 0x1
 4981 17f5 50       		.byte	0x50
 4982 17f6 02       		.uleb128 0x2
 4983 17f7 77       		.byte	0x77
 4984 17f8 00       		.sleb128 0
 4985 17f9 27       		.uleb128 0x27
 4986 17fa 01       		.uleb128 0x1
 4987 17fb 51       		.byte	0x51
 4988 17fc 02       		.uleb128 0x2
 4989 17fd 76       		.byte	0x76
 4990 17fe 00       		.sleb128 0
 4991 17ff 00       		.byte	0
 4992 1800 26       		.uleb128 0x26
 4993 1801 E6020000 		.4byte	.LVL178
 4994 1805 F31A0000 		.4byte	0x1af3
 4995 1809 1B180000 		.4byte	0x181b
 4996 180d 27       		.uleb128 0x27
 4997 180e 01       		.uleb128 0x1
 4998 180f 50       		.byte	0x50
 4999 1810 02       		.uleb128 0x2
 5000 1811 79       		.byte	0x79
 5001 1812 00       		.sleb128 0
 5002 1813 27       		.uleb128 0x27
 5003 1814 01       		.uleb128 0x1
 5004 1815 51       		.byte	0x51
 5005 1816 03       		.uleb128 0x3
 5006 1817 91       		.byte	0x91
 5007 1818 FC7D     		.sleb128 -260
 5008 181a 00       		.byte	0
 5009 181b 26       		.uleb128 0x26
 5010 181c FC020000 		.4byte	.LVL180
 5011 1820 DD1A0000 		.4byte	0x1add
 5012 1824 35180000 		.4byte	0x1835
 5013 1828 27       		.uleb128 0x27
 5014 1829 01       		.uleb128 0x1
 5015 182a 50       		.byte	0x50
 5016 182b 02       		.uleb128 0x2
 5017 182c 78       		.byte	0x78
 5018 182d 00       		.sleb128 0
ARM GAS  C:\Users\haske\AppData\Local\Temp\ccpgnYma.s 			page 100


 5019 182e 27       		.uleb128 0x27
 5020 182f 01       		.uleb128 0x1
 5021 1830 51       		.byte	0x51
 5022 1831 02       		.uleb128 0x2
 5023 1832 7A       		.byte	0x7a
 5024 1833 00       		.sleb128 0
 5025 1834 00       		.byte	0
 5026 1835 26       		.uleb128 0x26
 5027 1836 24030000 		.4byte	.LVL183
 5028 183a F31A0000 		.4byte	0x1af3
 5029 183e 50180000 		.4byte	0x1850
 5030 1842 27       		.uleb128 0x27
 5031 1843 01       		.uleb128 0x1
 5032 1844 50       		.byte	0x50
 5033 1845 02       		.uleb128 0x2
 5034 1846 79       		.byte	0x79
 5035 1847 00       		.sleb128 0
 5036 1848 27       		.uleb128 0x27
 5037 1849 01       		.uleb128 0x1
 5038 184a 51       		.byte	0x51
 5039 184b 03       		.uleb128 0x3
 5040 184c 91       		.byte	0x91
 5041 184d FC7D     		.sleb128 -260
 5042 184f 00       		.byte	0
 5043 1850 26       		.uleb128 0x26
 5044 1851 2A030000 		.4byte	.LVL184
 5045 1855 FE1A0000 		.4byte	0x1afe
 5046 1859 64180000 		.4byte	0x1864
 5047 185d 27       		.uleb128 0x27
 5048 185e 01       		.uleb128 0x1
 5049 185f 50       		.byte	0x50
 5050 1860 02       		.uleb128 0x2
 5051 1861 78       		.byte	0x78
 5052 1862 00       		.sleb128 0
 5053 1863 00       		.byte	0
 5054 1864 26       		.uleb128 0x26
 5055 1865 30030000 		.4byte	.LVL185
 5056 1869 641B0000 		.4byte	0x1b64
 5057 186d 79180000 		.4byte	0x1879
 5058 1871 27       		.uleb128 0x27
 5059 1872 01       		.uleb128 0x1
 5060 1873 50       		.byte	0x50
 5061 1874 03       		.uleb128 0x3
 5062 1875 91       		.byte	0x91
 5063 1876 9C7F     		.sleb128 -100
 5064 1878 00       		.byte	0
 5065 1879 26       		.uleb128 0x26
 5066 187a 36030000 		.4byte	.LVL186
 5067 187e 641B0000 		.4byte	0x1b64
 5068 1882 8E180000 		.4byte	0x188e
 5069 1886 27       		.uleb128 0x27
 5070 1887 01       		.uleb128 0x1
 5071 1888 50       		.byte	0x50
 5072 1889 03       		.uleb128 0x3
 5073 188a 91       		.byte	0x91
 5074 188b F07E     		.sleb128 -144
 5075 188d 00       		.byte	0
ARM GAS  C:\Users\haske\AppData\Local\Temp\ccpgnYma.s 			page 101


 5076 188e 26       		.uleb128 0x26
 5077 188f 42030000 		.4byte	.LVL187
 5078 1893 641B0000 		.4byte	0x1b64
 5079 1897 A3180000 		.4byte	0x18a3
 5080 189b 27       		.uleb128 0x27
 5081 189c 01       		.uleb128 0x1
 5082 189d 50       		.byte	0x50
 5083 189e 03       		.uleb128 0x3
 5084 189f 91       		.byte	0x91
 5085 18a0 C47E     		.sleb128 -188
 5086 18a2 00       		.byte	0
 5087 18a3 26       		.uleb128 0x26
 5088 18a4 4E030000 		.4byte	.LVL188
 5089 18a8 641B0000 		.4byte	0x1b64
 5090 18ac B8180000 		.4byte	0x18b8
 5091 18b0 27       		.uleb128 0x27
 5092 18b1 01       		.uleb128 0x1
 5093 18b2 50       		.byte	0x50
 5094 18b3 03       		.uleb128 0x3
 5095 18b4 91       		.byte	0x91
 5096 18b5 987E     		.sleb128 -232
 5097 18b7 00       		.byte	0
 5098 18b8 26       		.uleb128 0x26
 5099 18b9 54030000 		.4byte	.LVL189
 5100 18bd 701B0000 		.4byte	0x1b70
 5101 18c1 CF180000 		.4byte	0x18cf
 5102 18c5 27       		.uleb128 0x27
 5103 18c6 01       		.uleb128 0x1
 5104 18c7 50       		.byte	0x50
 5105 18c8 05       		.uleb128 0x5
 5106 18c9 91       		.byte	0x91
 5107 18ca F07D     		.sleb128 -272
 5108 18cc 94       		.byte	0x94
 5109 18cd 02       		.byte	0x2
 5110 18ce 00       		.byte	0
 5111 18cf 26       		.uleb128 0x26
 5112 18d0 5A030000 		.4byte	.LVL190
 5113 18d4 701B0000 		.4byte	0x1b70
 5114 18d8 E6180000 		.4byte	0x18e6
 5115 18dc 27       		.uleb128 0x27
 5116 18dd 01       		.uleb128 0x1
 5117 18de 50       		.byte	0x50
 5118 18df 05       		.uleb128 0x5
 5119 18e0 91       		.byte	0x91
 5120 18e1 F47D     		.sleb128 -268
 5121 18e3 94       		.byte	0x94
 5122 18e4 02       		.byte	0x2
 5123 18e5 00       		.byte	0
 5124 18e6 26       		.uleb128 0x26
 5125 18e7 60030000 		.4byte	.LVL191
 5126 18eb 701B0000 		.4byte	0x1b70
 5127 18ef FD180000 		.4byte	0x18fd
 5128 18f3 27       		.uleb128 0x27
 5129 18f4 01       		.uleb128 0x1
 5130 18f5 50       		.byte	0x50
 5131 18f6 05       		.uleb128 0x5
 5132 18f7 91       		.byte	0x91
ARM GAS  C:\Users\haske\AppData\Local\Temp\ccpgnYma.s 			page 102


 5133 18f8 E47D     		.sleb128 -284
 5134 18fa 94       		.byte	0x94
 5135 18fb 02       		.byte	0x2
 5136 18fc 00       		.byte	0
 5137 18fd 28       		.uleb128 0x28
 5138 18fe 66030000 		.4byte	.LVL192
 5139 1902 701B0000 		.4byte	0x1b70
 5140 1906 27       		.uleb128 0x27
 5141 1907 01       		.uleb128 0x1
 5142 1908 50       		.byte	0x50
 5143 1909 05       		.uleb128 0x5
 5144 190a 91       		.byte	0x91
 5145 190b E87D     		.sleb128 -280
 5146 190d 94       		.byte	0x94
 5147 190e 02       		.byte	0x2
 5148 190f 00       		.byte	0
 5149 1910 00       		.byte	0
 5150 1911 14       		.uleb128 0x14
 5151 1912 5C030000 		.4byte	0x35c
 5152 1916 21190000 		.4byte	0x1921
 5153 191a 15       		.uleb128 0x15
 5154 191b 0C010000 		.4byte	0x10c
 5155 191f 20       		.byte	0x20
 5156 1920 00       		.byte	0
 5157 1921 10       		.uleb128 0x10
 5158 1922 11190000 		.4byte	0x1911
 5159 1926 32       		.uleb128 0x32
 5160 1927 670C0000 		.4byte	.LASF248
 5161 192b 01       		.byte	0x1
 5162 192c 34       		.byte	0x34
 5163 192d 00000000 		.4byte	.LFB159
 5164 1931 D0010000 		.4byte	.LFE159-.LFB159
 5165 1935 01       		.uleb128 0x1
 5166 1936 9C       		.byte	0x9c
 5167 1937 C71A0000 		.4byte	0x1ac7
 5168 193b 1C       		.uleb128 0x1c
 5169 193c E90B0000 		.4byte	.LASF189
 5170 1940 01       		.byte	0x1
 5171 1941 34       		.byte	0x34
 5172 1942 160C0000 		.4byte	0xc16
 5173 1946 A8090000 		.4byte	.LLST60
 5174 194a 1D       		.uleb128 0x1d
 5175 194b 64736300 		.ascii	"dsc\000"
 5176 194f 01       		.byte	0x1
 5177 1950 34       		.byte	0x34
 5178 1951 210D0000 		.4byte	0xd21
 5179 1955 D4090000 		.4byte	.LLST61
 5180 1959 1C       		.uleb128 0x1c
 5181 195a 9F0A0000 		.4byte	.LASF190
 5182 195e 01       		.byte	0x1
 5183 195f 35       		.byte	0x35
 5184 1960 770C0000 		.4byte	0xc77
 5185 1964 000A0000 		.4byte	.LLST62
 5186 1968 1C       		.uleb128 0x1c
 5187 1969 A60A0000 		.4byte	.LASF191
 5188 196d 01       		.byte	0x1
 5189 196e 35       		.byte	0x35
ARM GAS  C:\Users\haske\AppData\Local\Temp\ccpgnYma.s 			page 103


 5190 196f 770C0000 		.4byte	0xc77
 5191 1973 2C0A0000 		.4byte	.LLST63
 5192 1977 20       		.uleb128 0x20
 5193 1978 5B080000 		.4byte	.LASF221
 5194 197c 01       		.byte	0x1
 5195 197d 3C       		.byte	0x3c
 5196 197e F9010000 		.4byte	0x1f9
 5197 1982 02       		.uleb128 0x2
 5198 1983 91       		.byte	0x91
 5199 1984 58       		.sleb128 -40
 5200 1985 1F       		.uleb128 0x1f
 5201 1986 5B060000 		.4byte	.LASF194
 5202 198a 01       		.byte	0x1
 5203 198b 42       		.byte	0x42
 5204 198c 2F030000 		.4byte	0x32f
 5205 1990 580A0000 		.4byte	.LLST64
 5206 1994 1F       		.uleb128 0x1f
 5207 1995 BC080000 		.4byte	.LASF222
 5208 1999 01       		.byte	0x1
 5209 199a 45       		.byte	0x45
 5210 199b 44060000 		.4byte	0x644
 5211 199f 810A0000 		.4byte	.LLST65
 5212 19a3 21       		.uleb128 0x21
 5213 19a4 0E010000 		.4byte	.LBB23
 5214 19a8 AE000000 		.4byte	.LBE23-.LBB23
 5215 19ac 3E1A0000 		.4byte	0x1a3e
 5216 19b0 20       		.uleb128 0x20
 5217 19b1 1C040000 		.4byte	.LASF223
 5218 19b5 01       		.byte	0x1
 5219 19b6 4D       		.byte	0x4d
 5220 19b7 BD070000 		.4byte	0x7bd
 5221 19bb 03       		.uleb128 0x3
 5222 19bc 91       		.byte	0x91
 5223 19bd A07F     		.sleb128 -96
 5224 19bf 1E       		.uleb128 0x1e
 5225 19c0 7200     		.ascii	"r\000"
 5226 19c2 01       		.byte	0x1
 5227 19c3 53       		.byte	0x53
 5228 19c4 D9000000 		.4byte	0xd9
 5229 19c8 9F0A0000 		.4byte	.LLST66
 5230 19cc 1F       		.uleb128 0x1f
 5231 19cd 240D0000 		.4byte	.LASF224
 5232 19d1 01       		.byte	0x1
 5233 19d2 54       		.byte	0x54
 5234 19d3 D9000000 		.4byte	0xd9
 5235 19d7 B80A0000 		.4byte	.LLST67
 5236 19db 20       		.uleb128 0x20
 5237 19dc F0010000 		.4byte	.LASF225
 5238 19e0 01       		.byte	0x1
 5239 19e1 55       		.byte	0x55
 5240 19e2 F9010000 		.4byte	0x1f9
 5241 19e6 03       		.uleb128 0x3
 5242 19e7 91       		.byte	0x91
 5243 19e8 987F     		.sleb128 -104
 5244 19ea 26       		.uleb128 0x26
 5245 19eb 14010000 		.4byte	.LVL209
 5246 19ef 7C1B0000 		.4byte	0x1b7c
ARM GAS  C:\Users\haske\AppData\Local\Temp\ccpgnYma.s 			page 104


 5247 19f3 FF190000 		.4byte	0x19ff
 5248 19f7 27       		.uleb128 0x27
 5249 19f8 01       		.uleb128 0x1
 5250 19f9 50       		.byte	0x50
 5251 19fa 03       		.uleb128 0x3
 5252 19fb 91       		.byte	0x91
 5253 19fc A07F     		.sleb128 -96
 5254 19fe 00       		.byte	0
 5255 19ff 26       		.uleb128 0x26
 5256 1a00 7A010000 		.4byte	.LVL213
 5257 1a04 871B0000 		.4byte	0x1b87
 5258 1a08 201A0000 		.4byte	0x1a20
 5259 1a0c 27       		.uleb128 0x27
 5260 1a0d 01       		.uleb128 0x1
 5261 1a0e 50       		.byte	0x50
 5262 1a0f 02       		.uleb128 0x2
 5263 1a10 77       		.byte	0x77
 5264 1a11 00       		.sleb128 0
 5265 1a12 27       		.uleb128 0x27
 5266 1a13 01       		.uleb128 0x1
 5267 1a14 51       		.byte	0x51
 5268 1a15 03       		.uleb128 0x3
 5269 1a16 91       		.byte	0x91
 5270 1a17 A07F     		.sleb128 -96
 5271 1a19 27       		.uleb128 0x27
 5272 1a1a 01       		.uleb128 0x1
 5273 1a1b 52       		.byte	0x52
 5274 1a1c 02       		.uleb128 0x2
 5275 1a1d 76       		.byte	0x76
 5276 1a1e 00       		.sleb128 0
 5277 1a1f 00       		.byte	0
 5278 1a20 28       		.uleb128 0x28
 5279 1a21 BC010000 		.4byte	.LVL215
 5280 1a25 871B0000 		.4byte	0x1b87
 5281 1a29 27       		.uleb128 0x27
 5282 1a2a 01       		.uleb128 0x1
 5283 1a2b 50       		.byte	0x50
 5284 1a2c 02       		.uleb128 0x2
 5285 1a2d 77       		.byte	0x77
 5286 1a2e 00       		.sleb128 0
 5287 1a2f 27       		.uleb128 0x27
 5288 1a30 01       		.uleb128 0x1
 5289 1a31 51       		.byte	0x51
 5290 1a32 03       		.uleb128 0x3
 5291 1a33 91       		.byte	0x91
 5292 1a34 A07F     		.sleb128 -96
 5293 1a36 27       		.uleb128 0x27
 5294 1a37 01       		.uleb128 0x1
 5295 1a38 52       		.byte	0x52
 5296 1a39 02       		.uleb128 0x2
 5297 1a3a 74       		.byte	0x74
 5298 1a3b 00       		.sleb128 0
 5299 1a3c 00       		.byte	0
 5300 1a3d 00       		.byte	0
 5301 1a3e 26       		.uleb128 0x26
 5302 1a3f B8000000 		.4byte	.LVL198
 5303 1a43 091B0000 		.4byte	0x1b09
ARM GAS  C:\Users\haske\AppData\Local\Temp\ccpgnYma.s 			page 105


 5304 1a47 581A0000 		.4byte	0x1a58
 5305 1a4b 27       		.uleb128 0x27
 5306 1a4c 01       		.uleb128 0x1
 5307 1a4d 50       		.byte	0x50
 5308 1a4e 02       		.uleb128 0x2
 5309 1a4f 91       		.byte	0x91
 5310 1a50 58       		.sleb128 -40
 5311 1a51 27       		.uleb128 0x27
 5312 1a52 01       		.uleb128 0x1
 5313 1a53 51       		.byte	0x51
 5314 1a54 02       		.uleb128 0x2
 5315 1a55 91       		.byte	0x91
 5316 1a56 58       		.sleb128 -40
 5317 1a57 00       		.byte	0
 5318 1a58 26       		.uleb128 0x26
 5319 1a59 DE000000 		.4byte	.LVL202
 5320 1a5d 520E0000 		.4byte	0xe52
 5321 1a61 7E1A0000 		.4byte	0x1a7e
 5322 1a65 27       		.uleb128 0x27
 5323 1a66 01       		.uleb128 0x1
 5324 1a67 50       		.byte	0x50
 5325 1a68 02       		.uleb128 0x2
 5326 1a69 77       		.byte	0x77
 5327 1a6a 00       		.sleb128 0
 5328 1a6b 27       		.uleb128 0x27
 5329 1a6c 01       		.uleb128 0x1
 5330 1a6d 51       		.byte	0x51
 5331 1a6e 02       		.uleb128 0x2
 5332 1a6f 74       		.byte	0x74
 5333 1a70 00       		.sleb128 0
 5334 1a71 27       		.uleb128 0x27
 5335 1a72 01       		.uleb128 0x1
 5336 1a73 52       		.byte	0x52
 5337 1a74 02       		.uleb128 0x2
 5338 1a75 76       		.byte	0x76
 5339 1a76 00       		.sleb128 0
 5340 1a77 27       		.uleb128 0x27
 5341 1a78 01       		.uleb128 0x1
 5342 1a79 53       		.byte	0x53
 5343 1a7a 02       		.uleb128 0x2
 5344 1a7b 75       		.byte	0x75
 5345 1a7c 00       		.sleb128 0
 5346 1a7d 00       		.byte	0
 5347 1a7e 26       		.uleb128 0x26
 5348 1a7f F8000000 		.4byte	.LVL205
 5349 1a83 AA100000 		.4byte	0x10aa
 5350 1a87 A41A0000 		.4byte	0x1aa4
 5351 1a8b 27       		.uleb128 0x27
 5352 1a8c 01       		.uleb128 0x1
 5353 1a8d 50       		.byte	0x50
 5354 1a8e 02       		.uleb128 0x2
 5355 1a8f 77       		.byte	0x77
 5356 1a90 00       		.sleb128 0
 5357 1a91 27       		.uleb128 0x27
 5358 1a92 01       		.uleb128 0x1
 5359 1a93 51       		.byte	0x51
 5360 1a94 02       		.uleb128 0x2
ARM GAS  C:\Users\haske\AppData\Local\Temp\ccpgnYma.s 			page 106


 5361 1a95 74       		.byte	0x74
 5362 1a96 00       		.sleb128 0
 5363 1a97 27       		.uleb128 0x27
 5364 1a98 01       		.uleb128 0x1
 5365 1a99 52       		.byte	0x52
 5366 1a9a 02       		.uleb128 0x2
 5367 1a9b 76       		.byte	0x76
 5368 1a9c 00       		.sleb128 0
 5369 1a9d 27       		.uleb128 0x27
 5370 1a9e 01       		.uleb128 0x1
 5371 1a9f 53       		.byte	0x53
 5372 1aa0 02       		.uleb128 0x2
 5373 1aa1 75       		.byte	0x75
 5374 1aa2 00       		.sleb128 0
 5375 1aa3 00       		.byte	0
 5376 1aa4 28       		.uleb128 0x28
 5377 1aa5 06010000 		.4byte	.LVL208
 5378 1aa9 D6120000 		.4byte	0x12d6
 5379 1aad 27       		.uleb128 0x27
 5380 1aae 01       		.uleb128 0x1
 5381 1aaf 50       		.byte	0x50
 5382 1ab0 02       		.uleb128 0x2
 5383 1ab1 77       		.byte	0x77
 5384 1ab2 00       		.sleb128 0
 5385 1ab3 27       		.uleb128 0x27
 5386 1ab4 01       		.uleb128 0x1
 5387 1ab5 51       		.byte	0x51
 5388 1ab6 02       		.uleb128 0x2
 5389 1ab7 74       		.byte	0x74
 5390 1ab8 00       		.sleb128 0
 5391 1ab9 27       		.uleb128 0x27
 5392 1aba 01       		.uleb128 0x1
 5393 1abb 52       		.byte	0x52
 5394 1abc 02       		.uleb128 0x2
 5395 1abd 76       		.byte	0x76
 5396 1abe 00       		.sleb128 0
 5397 1abf 27       		.uleb128 0x27
 5398 1ac0 01       		.uleb128 0x1
 5399 1ac1 53       		.byte	0x53
 5400 1ac2 02       		.uleb128 0x2
 5401 1ac3 75       		.byte	0x75
 5402 1ac4 00       		.sleb128 0
 5403 1ac5 00       		.byte	0
 5404 1ac6 00       		.byte	0
 5405 1ac7 33       		.uleb128 0x33
 5406 1ac8 0D0B0000 		.4byte	.LASF249
 5407 1acc 08       		.byte	0x8
 5408 1acd 94       		.byte	0x94
 5409 1ace 9D080000 		.4byte	0x89d
 5410 1ad2 34       		.uleb128 0x34
 5411 1ad3 B0070000 		.4byte	.LASF226
 5412 1ad7 B0070000 		.4byte	.LASF226
 5413 1adb 16       		.byte	0x16
 5414 1adc 6D       		.byte	0x6d
 5415 1add 34       		.uleb128 0x34
 5416 1ade 49070000 		.4byte	.LASF227
 5417 1ae2 49070000 		.4byte	.LASF227
ARM GAS  C:\Users\haske\AppData\Local\Temp\ccpgnYma.s 			page 107


 5418 1ae6 16       		.byte	0x16
 5419 1ae7 E5       		.byte	0xe5
 5420 1ae8 34       		.uleb128 0x34
 5421 1ae9 50010000 		.4byte	.LASF228
 5422 1aed 50010000 		.4byte	.LASF228
 5423 1af1 0C       		.byte	0xc
 5424 1af2 F4       		.byte	0xf4
 5425 1af3 34       		.uleb128 0x34
 5426 1af4 1A010000 		.4byte	.LASF229
 5427 1af8 1A010000 		.4byte	.LASF229
 5428 1afc 0D       		.byte	0xd
 5429 1afd 34       		.byte	0x34
 5430 1afe 34       		.uleb128 0x34
 5431 1aff 1E060000 		.4byte	.LASF230
 5432 1b03 1E060000 		.4byte	.LASF230
 5433 1b07 16       		.byte	0x16
 5434 1b08 73       		.byte	0x73
 5435 1b09 34       		.uleb128 0x34
 5436 1b0a AD040000 		.4byte	.LASF231
 5437 1b0e AD040000 		.4byte	.LASF231
 5438 1b12 02       		.byte	0x2
 5439 1b13 B2       		.byte	0xb2
 5440 1b14 35       		.uleb128 0x35
 5441 1b15 00020000 		.4byte	.LASF232
 5442 1b19 00020000 		.4byte	.LASF232
 5443 1b1d 0C       		.byte	0xc
 5444 1b1e 3601     		.2byte	0x136
 5445 1b20 34       		.uleb128 0x34
 5446 1b21 BB030000 		.4byte	.LASF233
 5447 1b25 BB030000 		.4byte	.LASF233
 5448 1b29 16       		.byte	0x16
 5449 1b2a DE       		.byte	0xde
 5450 1b2b 35       		.uleb128 0x35
 5451 1b2c B80B0000 		.4byte	.LASF234
 5452 1b30 B80B0000 		.4byte	.LASF234
 5453 1b34 0C       		.byte	0xc
 5454 1b35 4501     		.2byte	0x145
 5455 1b37 34       		.uleb128 0x34
 5456 1b38 20070000 		.4byte	.LASF235
 5457 1b3c 20070000 		.4byte	.LASF235
 5458 1b40 0C       		.byte	0xc
 5459 1b41 E5       		.byte	0xe5
 5460 1b42 34       		.uleb128 0x34
 5461 1b43 160C0000 		.4byte	.LASF236
 5462 1b47 160C0000 		.4byte	.LASF236
 5463 1b4b 17       		.byte	0x17
 5464 1b4c 4E       		.byte	0x4e
 5465 1b4d 35       		.uleb128 0x35
 5466 1b4e 6C040000 		.4byte	.LASF237
 5467 1b52 6C040000 		.4byte	.LASF237
 5468 1b56 18       		.byte	0x18
 5469 1b57 0701     		.2byte	0x107
 5470 1b59 34       		.uleb128 0x34
 5471 1b5a 0F030000 		.4byte	.LASF238
 5472 1b5e 0F030000 		.4byte	.LASF238
 5473 1b62 02       		.byte	0x2
 5474 1b63 A5       		.byte	0xa5
ARM GAS  C:\Users\haske\AppData\Local\Temp\ccpgnYma.s 			page 108


 5475 1b64 35       		.uleb128 0x35
 5476 1b65 0C0D0000 		.4byte	.LASF239
 5477 1b69 0C0D0000 		.4byte	.LASF239
 5478 1b6d 0C       		.byte	0xc
 5479 1b6e 2001     		.2byte	0x120
 5480 1b70 35       		.uleb128 0x35
 5481 1b71 EB060000 		.4byte	.LASF240
 5482 1b75 EB060000 		.4byte	.LASF240
 5483 1b79 0C       		.byte	0xc
 5484 1b7a 0F01     		.2byte	0x10f
 5485 1b7c 34       		.uleb128 0x34
 5486 1b7d 59050000 		.4byte	.LASF241
 5487 1b81 59050000 		.4byte	.LASF241
 5488 1b85 0F       		.byte	0xf
 5489 1b86 4D       		.byte	0x4d
 5490 1b87 34       		.uleb128 0x34
 5491 1b88 5A090000 		.4byte	.LASF242
 5492 1b8c 5A090000 		.4byte	.LASF242
 5493 1b90 0F       		.byte	0xf
 5494 1b91 56       		.byte	0x56
 5495 1b92 00       		.byte	0
 5496              		.section	.debug_abbrev,"",%progbits
 5497              	.Ldebug_abbrev0:
 5498 0000 01       		.uleb128 0x1
 5499 0001 11       		.uleb128 0x11
 5500 0002 01       		.byte	0x1
 5501 0003 25       		.uleb128 0x25
 5502 0004 0E       		.uleb128 0xe
 5503 0005 13       		.uleb128 0x13
 5504 0006 0B       		.uleb128 0xb
 5505 0007 03       		.uleb128 0x3
 5506 0008 0E       		.uleb128 0xe
 5507 0009 1B       		.uleb128 0x1b
 5508 000a 0E       		.uleb128 0xe
 5509 000b 55       		.uleb128 0x55
 5510 000c 17       		.uleb128 0x17
 5511 000d 11       		.uleb128 0x11
 5512 000e 01       		.uleb128 0x1
 5513 000f 10       		.uleb128 0x10
 5514 0010 17       		.uleb128 0x17
 5515 0011 00       		.byte	0
 5516 0012 00       		.byte	0
 5517 0013 02       		.uleb128 0x2
 5518 0014 16       		.uleb128 0x16
 5519 0015 00       		.byte	0
 5520 0016 03       		.uleb128 0x3
 5521 0017 0E       		.uleb128 0xe
 5522 0018 3A       		.uleb128 0x3a
 5523 0019 0B       		.uleb128 0xb
 5524 001a 3B       		.uleb128 0x3b
 5525 001b 0B       		.uleb128 0xb
 5526 001c 49       		.uleb128 0x49
 5527 001d 13       		.uleb128 0x13
 5528 001e 00       		.byte	0
 5529 001f 00       		.byte	0
 5530 0020 03       		.uleb128 0x3
 5531 0021 24       		.uleb128 0x24
ARM GAS  C:\Users\haske\AppData\Local\Temp\ccpgnYma.s 			page 109


 5532 0022 00       		.byte	0
 5533 0023 0B       		.uleb128 0xb
 5534 0024 0B       		.uleb128 0xb
 5535 0025 3E       		.uleb128 0x3e
 5536 0026 0B       		.uleb128 0xb
 5537 0027 03       		.uleb128 0x3
 5538 0028 0E       		.uleb128 0xe
 5539 0029 00       		.byte	0
 5540 002a 00       		.byte	0
 5541 002b 04       		.uleb128 0x4
 5542 002c 24       		.uleb128 0x24
 5543 002d 00       		.byte	0
 5544 002e 0B       		.uleb128 0xb
 5545 002f 0B       		.uleb128 0xb
 5546 0030 3E       		.uleb128 0x3e
 5547 0031 0B       		.uleb128 0xb
 5548 0032 03       		.uleb128 0x3
 5549 0033 08       		.uleb128 0x8
 5550 0034 00       		.byte	0
 5551 0035 00       		.byte	0
 5552 0036 05       		.uleb128 0x5
 5553 0037 0F       		.uleb128 0xf
 5554 0038 00       		.byte	0
 5555 0039 0B       		.uleb128 0xb
 5556 003a 0B       		.uleb128 0xb
 5557 003b 00       		.byte	0
 5558 003c 00       		.byte	0
 5559 003d 06       		.uleb128 0x6
 5560 003e 13       		.uleb128 0x13
 5561 003f 01       		.byte	0x1
 5562 0040 0B       		.uleb128 0xb
 5563 0041 0B       		.uleb128 0xb
 5564 0042 3A       		.uleb128 0x3a
 5565 0043 0B       		.uleb128 0xb
 5566 0044 3B       		.uleb128 0x3b
 5567 0045 0B       		.uleb128 0xb
 5568 0046 01       		.uleb128 0x1
 5569 0047 13       		.uleb128 0x13
 5570 0048 00       		.byte	0
 5571 0049 00       		.byte	0
 5572 004a 07       		.uleb128 0x7
 5573 004b 0D       		.uleb128 0xd
 5574 004c 00       		.byte	0
 5575 004d 03       		.uleb128 0x3
 5576 004e 0E       		.uleb128 0xe
 5577 004f 3A       		.uleb128 0x3a
 5578 0050 0B       		.uleb128 0xb
 5579 0051 3B       		.uleb128 0x3b
 5580 0052 0B       		.uleb128 0xb
 5581 0053 49       		.uleb128 0x49
 5582 0054 13       		.uleb128 0x13
 5583 0055 0B       		.uleb128 0xb
 5584 0056 0B       		.uleb128 0xb
 5585 0057 0D       		.uleb128 0xd
 5586 0058 0B       		.uleb128 0xb
 5587 0059 0C       		.uleb128 0xc
 5588 005a 0B       		.uleb128 0xb
ARM GAS  C:\Users\haske\AppData\Local\Temp\ccpgnYma.s 			page 110


 5589 005b 38       		.uleb128 0x38
 5590 005c 0B       		.uleb128 0xb
 5591 005d 00       		.byte	0
 5592 005e 00       		.byte	0
 5593 005f 08       		.uleb128 0x8
 5594 0060 0D       		.uleb128 0xd
 5595 0061 00       		.byte	0
 5596 0062 03       		.uleb128 0x3
 5597 0063 08       		.uleb128 0x8
 5598 0064 3A       		.uleb128 0x3a
 5599 0065 0B       		.uleb128 0xb
 5600 0066 3B       		.uleb128 0x3b
 5601 0067 0B       		.uleb128 0xb
 5602 0068 49       		.uleb128 0x49
 5603 0069 13       		.uleb128 0x13
 5604 006a 0B       		.uleb128 0xb
 5605 006b 0B       		.uleb128 0xb
 5606 006c 0D       		.uleb128 0xd
 5607 006d 0B       		.uleb128 0xb
 5608 006e 0C       		.uleb128 0xc
 5609 006f 0B       		.uleb128 0xb
 5610 0070 38       		.uleb128 0x38
 5611 0071 0B       		.uleb128 0xb
 5612 0072 00       		.byte	0
 5613 0073 00       		.byte	0
 5614 0074 09       		.uleb128 0x9
 5615 0075 17       		.uleb128 0x17
 5616 0076 01       		.byte	0x1
 5617 0077 0B       		.uleb128 0xb
 5618 0078 0B       		.uleb128 0xb
 5619 0079 3A       		.uleb128 0x3a
 5620 007a 0B       		.uleb128 0xb
 5621 007b 3B       		.uleb128 0x3b
 5622 007c 0B       		.uleb128 0xb
 5623 007d 01       		.uleb128 0x1
 5624 007e 13       		.uleb128 0x13
 5625 007f 00       		.byte	0
 5626 0080 00       		.byte	0
 5627 0081 0A       		.uleb128 0xa
 5628 0082 0D       		.uleb128 0xd
 5629 0083 00       		.byte	0
 5630 0084 03       		.uleb128 0x3
 5631 0085 08       		.uleb128 0x8
 5632 0086 3A       		.uleb128 0x3a
 5633 0087 0B       		.uleb128 0xb
 5634 0088 3B       		.uleb128 0x3b
 5635 0089 0B       		.uleb128 0xb
 5636 008a 49       		.uleb128 0x49
 5637 008b 13       		.uleb128 0x13
 5638 008c 00       		.byte	0
 5639 008d 00       		.byte	0
 5640 008e 0B       		.uleb128 0xb
 5641 008f 0D       		.uleb128 0xd
 5642 0090 00       		.byte	0
 5643 0091 03       		.uleb128 0x3
 5644 0092 0E       		.uleb128 0xe
 5645 0093 3A       		.uleb128 0x3a
ARM GAS  C:\Users\haske\AppData\Local\Temp\ccpgnYma.s 			page 111


 5646 0094 0B       		.uleb128 0xb
 5647 0095 3B       		.uleb128 0x3b
 5648 0096 0B       		.uleb128 0xb
 5649 0097 49       		.uleb128 0x49
 5650 0098 13       		.uleb128 0x13
 5651 0099 00       		.byte	0
 5652 009a 00       		.byte	0
 5653 009b 0C       		.uleb128 0xc
 5654 009c 0D       		.uleb128 0xd
 5655 009d 00       		.byte	0
 5656 009e 03       		.uleb128 0x3
 5657 009f 08       		.uleb128 0x8
 5658 00a0 3A       		.uleb128 0x3a
 5659 00a1 0B       		.uleb128 0xb
 5660 00a2 3B       		.uleb128 0x3b
 5661 00a3 0B       		.uleb128 0xb
 5662 00a4 49       		.uleb128 0x49
 5663 00a5 13       		.uleb128 0x13
 5664 00a6 38       		.uleb128 0x38
 5665 00a7 0B       		.uleb128 0xb
 5666 00a8 00       		.byte	0
 5667 00a9 00       		.byte	0
 5668 00aa 0D       		.uleb128 0xd
 5669 00ab 0D       		.uleb128 0xd
 5670 00ac 00       		.byte	0
 5671 00ad 03       		.uleb128 0x3
 5672 00ae 0E       		.uleb128 0xe
 5673 00af 3A       		.uleb128 0x3a
 5674 00b0 0B       		.uleb128 0xb
 5675 00b1 3B       		.uleb128 0x3b
 5676 00b2 0B       		.uleb128 0xb
 5677 00b3 49       		.uleb128 0x49
 5678 00b4 13       		.uleb128 0x13
 5679 00b5 38       		.uleb128 0x38
 5680 00b6 0B       		.uleb128 0xb
 5681 00b7 00       		.byte	0
 5682 00b8 00       		.byte	0
 5683 00b9 0E       		.uleb128 0xe
 5684 00ba 13       		.uleb128 0x13
 5685 00bb 01       		.byte	0x1
 5686 00bc 03       		.uleb128 0x3
 5687 00bd 0E       		.uleb128 0xe
 5688 00be 0B       		.uleb128 0xb
 5689 00bf 0B       		.uleb128 0xb
 5690 00c0 3A       		.uleb128 0x3a
 5691 00c1 0B       		.uleb128 0xb
 5692 00c2 3B       		.uleb128 0x3b
 5693 00c3 0B       		.uleb128 0xb
 5694 00c4 01       		.uleb128 0x1
 5695 00c5 13       		.uleb128 0x13
 5696 00c6 00       		.byte	0
 5697 00c7 00       		.byte	0
 5698 00c8 0F       		.uleb128 0xf
 5699 00c9 0F       		.uleb128 0xf
 5700 00ca 00       		.byte	0
 5701 00cb 0B       		.uleb128 0xb
 5702 00cc 0B       		.uleb128 0xb
ARM GAS  C:\Users\haske\AppData\Local\Temp\ccpgnYma.s 			page 112


 5703 00cd 49       		.uleb128 0x49
 5704 00ce 13       		.uleb128 0x13
 5705 00cf 00       		.byte	0
 5706 00d0 00       		.byte	0
 5707 00d1 10       		.uleb128 0x10
 5708 00d2 26       		.uleb128 0x26
 5709 00d3 00       		.byte	0
 5710 00d4 49       		.uleb128 0x49
 5711 00d5 13       		.uleb128 0x13
 5712 00d6 00       		.byte	0
 5713 00d7 00       		.byte	0
 5714 00d8 11       		.uleb128 0x11
 5715 00d9 15       		.uleb128 0x15
 5716 00da 01       		.byte	0x1
 5717 00db 27       		.uleb128 0x27
 5718 00dc 19       		.uleb128 0x19
 5719 00dd 49       		.uleb128 0x49
 5720 00de 13       		.uleb128 0x13
 5721 00df 01       		.uleb128 0x1
 5722 00e0 13       		.uleb128 0x13
 5723 00e1 00       		.byte	0
 5724 00e2 00       		.byte	0
 5725 00e3 12       		.uleb128 0x12
 5726 00e4 05       		.uleb128 0x5
 5727 00e5 00       		.byte	0
 5728 00e6 49       		.uleb128 0x49
 5729 00e7 13       		.uleb128 0x13
 5730 00e8 00       		.byte	0
 5731 00e9 00       		.byte	0
 5732 00ea 13       		.uleb128 0x13
 5733 00eb 26       		.uleb128 0x26
 5734 00ec 00       		.byte	0
 5735 00ed 00       		.byte	0
 5736 00ee 00       		.byte	0
 5737 00ef 14       		.uleb128 0x14
 5738 00f0 01       		.uleb128 0x1
 5739 00f1 01       		.byte	0x1
 5740 00f2 49       		.uleb128 0x49
 5741 00f3 13       		.uleb128 0x13
 5742 00f4 01       		.uleb128 0x1
 5743 00f5 13       		.uleb128 0x13
 5744 00f6 00       		.byte	0
 5745 00f7 00       		.byte	0
 5746 00f8 15       		.uleb128 0x15
 5747 00f9 21       		.uleb128 0x21
 5748 00fa 00       		.byte	0
 5749 00fb 49       		.uleb128 0x49
 5750 00fc 13       		.uleb128 0x13
 5751 00fd 2F       		.uleb128 0x2f
 5752 00fe 0B       		.uleb128 0xb
 5753 00ff 00       		.byte	0
 5754 0100 00       		.byte	0
 5755 0101 16       		.uleb128 0x16
 5756 0102 04       		.uleb128 0x4
 5757 0103 01       		.byte	0x1
 5758 0104 0B       		.uleb128 0xb
 5759 0105 0B       		.uleb128 0xb
ARM GAS  C:\Users\haske\AppData\Local\Temp\ccpgnYma.s 			page 113


 5760 0106 49       		.uleb128 0x49
 5761 0107 13       		.uleb128 0x13
 5762 0108 3A       		.uleb128 0x3a
 5763 0109 0B       		.uleb128 0xb
 5764 010a 3B       		.uleb128 0x3b
 5765 010b 0B       		.uleb128 0xb
 5766 010c 01       		.uleb128 0x1
 5767 010d 13       		.uleb128 0x13
 5768 010e 00       		.byte	0
 5769 010f 00       		.byte	0
 5770 0110 17       		.uleb128 0x17
 5771 0111 28       		.uleb128 0x28
 5772 0112 00       		.byte	0
 5773 0113 03       		.uleb128 0x3
 5774 0114 0E       		.uleb128 0xe
 5775 0115 1C       		.uleb128 0x1c
 5776 0116 0B       		.uleb128 0xb
 5777 0117 00       		.byte	0
 5778 0118 00       		.byte	0
 5779 0119 18       		.uleb128 0x18
 5780 011a 15       		.uleb128 0x15
 5781 011b 01       		.byte	0x1
 5782 011c 27       		.uleb128 0x27
 5783 011d 19       		.uleb128 0x19
 5784 011e 01       		.uleb128 0x1
 5785 011f 13       		.uleb128 0x13
 5786 0120 00       		.byte	0
 5787 0121 00       		.byte	0
 5788 0122 19       		.uleb128 0x19
 5789 0123 2E       		.uleb128 0x2e
 5790 0124 01       		.byte	0x1
 5791 0125 03       		.uleb128 0x3
 5792 0126 0E       		.uleb128 0xe
 5793 0127 3A       		.uleb128 0x3a
 5794 0128 0B       		.uleb128 0xb
 5795 0129 3B       		.uleb128 0x3b
 5796 012a 0B       		.uleb128 0xb
 5797 012b 27       		.uleb128 0x27
 5798 012c 19       		.uleb128 0x19
 5799 012d 49       		.uleb128 0x49
 5800 012e 13       		.uleb128 0x13
 5801 012f 20       		.uleb128 0x20
 5802 0130 0B       		.uleb128 0xb
 5803 0131 01       		.uleb128 0x1
 5804 0132 13       		.uleb128 0x13
 5805 0133 00       		.byte	0
 5806 0134 00       		.byte	0
 5807 0135 1A       		.uleb128 0x1a
 5808 0136 05       		.uleb128 0x5
 5809 0137 00       		.byte	0
 5810 0138 03       		.uleb128 0x3
 5811 0139 0E       		.uleb128 0xe
 5812 013a 3A       		.uleb128 0x3a
 5813 013b 0B       		.uleb128 0xb
 5814 013c 3B       		.uleb128 0x3b
 5815 013d 0B       		.uleb128 0xb
 5816 013e 49       		.uleb128 0x49
ARM GAS  C:\Users\haske\AppData\Local\Temp\ccpgnYma.s 			page 114


 5817 013f 13       		.uleb128 0x13
 5818 0140 00       		.byte	0
 5819 0141 00       		.byte	0
 5820 0142 1B       		.uleb128 0x1b
 5821 0143 2E       		.uleb128 0x2e
 5822 0144 01       		.byte	0x1
 5823 0145 03       		.uleb128 0x3
 5824 0146 0E       		.uleb128 0xe
 5825 0147 3A       		.uleb128 0x3a
 5826 0148 0B       		.uleb128 0xb
 5827 0149 3B       		.uleb128 0x3b
 5828 014a 0B       		.uleb128 0xb
 5829 014b 27       		.uleb128 0x27
 5830 014c 19       		.uleb128 0x19
 5831 014d 11       		.uleb128 0x11
 5832 014e 01       		.uleb128 0x1
 5833 014f 12       		.uleb128 0x12
 5834 0150 06       		.uleb128 0x6
 5835 0151 40       		.uleb128 0x40
 5836 0152 18       		.uleb128 0x18
 5837 0153 9642     		.uleb128 0x2116
 5838 0155 19       		.uleb128 0x19
 5839 0156 01       		.uleb128 0x1
 5840 0157 13       		.uleb128 0x13
 5841 0158 00       		.byte	0
 5842 0159 00       		.byte	0
 5843 015a 1C       		.uleb128 0x1c
 5844 015b 05       		.uleb128 0x5
 5845 015c 00       		.byte	0
 5846 015d 03       		.uleb128 0x3
 5847 015e 0E       		.uleb128 0xe
 5848 015f 3A       		.uleb128 0x3a
 5849 0160 0B       		.uleb128 0xb
 5850 0161 3B       		.uleb128 0x3b
 5851 0162 0B       		.uleb128 0xb
 5852 0163 49       		.uleb128 0x49
 5853 0164 13       		.uleb128 0x13
 5854 0165 02       		.uleb128 0x2
 5855 0166 17       		.uleb128 0x17
 5856 0167 00       		.byte	0
 5857 0168 00       		.byte	0
 5858 0169 1D       		.uleb128 0x1d
 5859 016a 05       		.uleb128 0x5
 5860 016b 00       		.byte	0
 5861 016c 03       		.uleb128 0x3
 5862 016d 08       		.uleb128 0x8
 5863 016e 3A       		.uleb128 0x3a
 5864 016f 0B       		.uleb128 0xb
 5865 0170 3B       		.uleb128 0x3b
 5866 0171 0B       		.uleb128 0xb
 5867 0172 49       		.uleb128 0x49
 5868 0173 13       		.uleb128 0x13
 5869 0174 02       		.uleb128 0x2
 5870 0175 17       		.uleb128 0x17
 5871 0176 00       		.byte	0
 5872 0177 00       		.byte	0
 5873 0178 1E       		.uleb128 0x1e
ARM GAS  C:\Users\haske\AppData\Local\Temp\ccpgnYma.s 			page 115


 5874 0179 34       		.uleb128 0x34
 5875 017a 00       		.byte	0
 5876 017b 03       		.uleb128 0x3
 5877 017c 08       		.uleb128 0x8
 5878 017d 3A       		.uleb128 0x3a
 5879 017e 0B       		.uleb128 0xb
 5880 017f 3B       		.uleb128 0x3b
 5881 0180 0B       		.uleb128 0xb
 5882 0181 49       		.uleb128 0x49
 5883 0182 13       		.uleb128 0x13
 5884 0183 02       		.uleb128 0x2
 5885 0184 17       		.uleb128 0x17
 5886 0185 00       		.byte	0
 5887 0186 00       		.byte	0
 5888 0187 1F       		.uleb128 0x1f
 5889 0188 34       		.uleb128 0x34
 5890 0189 00       		.byte	0
 5891 018a 03       		.uleb128 0x3
 5892 018b 0E       		.uleb128 0xe
 5893 018c 3A       		.uleb128 0x3a
 5894 018d 0B       		.uleb128 0xb
 5895 018e 3B       		.uleb128 0x3b
 5896 018f 0B       		.uleb128 0xb
 5897 0190 49       		.uleb128 0x49
 5898 0191 13       		.uleb128 0x13
 5899 0192 02       		.uleb128 0x2
 5900 0193 17       		.uleb128 0x17
 5901 0194 00       		.byte	0
 5902 0195 00       		.byte	0
 5903 0196 20       		.uleb128 0x20
 5904 0197 34       		.uleb128 0x34
 5905 0198 00       		.byte	0
 5906 0199 03       		.uleb128 0x3
 5907 019a 0E       		.uleb128 0xe
 5908 019b 3A       		.uleb128 0x3a
 5909 019c 0B       		.uleb128 0xb
 5910 019d 3B       		.uleb128 0x3b
 5911 019e 0B       		.uleb128 0xb
 5912 019f 49       		.uleb128 0x49
 5913 01a0 13       		.uleb128 0x13
 5914 01a1 02       		.uleb128 0x2
 5915 01a2 18       		.uleb128 0x18
 5916 01a3 00       		.byte	0
 5917 01a4 00       		.byte	0
 5918 01a5 21       		.uleb128 0x21
 5919 01a6 0B       		.uleb128 0xb
 5920 01a7 01       		.byte	0x1
 5921 01a8 11       		.uleb128 0x11
 5922 01a9 01       		.uleb128 0x1
 5923 01aa 12       		.uleb128 0x12
 5924 01ab 06       		.uleb128 0x6
 5925 01ac 01       		.uleb128 0x1
 5926 01ad 13       		.uleb128 0x13
 5927 01ae 00       		.byte	0
 5928 01af 00       		.byte	0
 5929 01b0 22       		.uleb128 0x22
 5930 01b1 1D       		.uleb128 0x1d
ARM GAS  C:\Users\haske\AppData\Local\Temp\ccpgnYma.s 			page 116


 5931 01b2 01       		.byte	0x1
 5932 01b3 31       		.uleb128 0x31
 5933 01b4 13       		.uleb128 0x13
 5934 01b5 11       		.uleb128 0x11
 5935 01b6 01       		.uleb128 0x1
 5936 01b7 12       		.uleb128 0x12
 5937 01b8 06       		.uleb128 0x6
 5938 01b9 58       		.uleb128 0x58
 5939 01ba 0B       		.uleb128 0xb
 5940 01bb 59       		.uleb128 0x59
 5941 01bc 0B       		.uleb128 0xb
 5942 01bd 01       		.uleb128 0x1
 5943 01be 13       		.uleb128 0x13
 5944 01bf 00       		.byte	0
 5945 01c0 00       		.byte	0
 5946 01c1 23       		.uleb128 0x23
 5947 01c2 05       		.uleb128 0x5
 5948 01c3 00       		.byte	0
 5949 01c4 31       		.uleb128 0x31
 5950 01c5 13       		.uleb128 0x13
 5951 01c6 02       		.uleb128 0x2
 5952 01c7 17       		.uleb128 0x17
 5953 01c8 00       		.byte	0
 5954 01c9 00       		.byte	0
 5955 01ca 24       		.uleb128 0x24
 5956 01cb 0B       		.uleb128 0xb
 5957 01cc 01       		.byte	0x1
 5958 01cd 55       		.uleb128 0x55
 5959 01ce 17       		.uleb128 0x17
 5960 01cf 01       		.uleb128 0x1
 5961 01d0 13       		.uleb128 0x13
 5962 01d1 00       		.byte	0
 5963 01d2 00       		.byte	0
 5964 01d3 25       		.uleb128 0x25
 5965 01d4 0B       		.uleb128 0xb
 5966 01d5 01       		.byte	0x1
 5967 01d6 11       		.uleb128 0x11
 5968 01d7 01       		.uleb128 0x1
 5969 01d8 12       		.uleb128 0x12
 5970 01d9 06       		.uleb128 0x6
 5971 01da 00       		.byte	0
 5972 01db 00       		.byte	0
 5973 01dc 26       		.uleb128 0x26
 5974 01dd 898201   		.uleb128 0x4109
 5975 01e0 01       		.byte	0x1
 5976 01e1 11       		.uleb128 0x11
 5977 01e2 01       		.uleb128 0x1
 5978 01e3 31       		.uleb128 0x31
 5979 01e4 13       		.uleb128 0x13
 5980 01e5 01       		.uleb128 0x1
 5981 01e6 13       		.uleb128 0x13
 5982 01e7 00       		.byte	0
 5983 01e8 00       		.byte	0
 5984 01e9 27       		.uleb128 0x27
 5985 01ea 8A8201   		.uleb128 0x410a
 5986 01ed 00       		.byte	0
 5987 01ee 02       		.uleb128 0x2
ARM GAS  C:\Users\haske\AppData\Local\Temp\ccpgnYma.s 			page 117


 5988 01ef 18       		.uleb128 0x18
 5989 01f0 9142     		.uleb128 0x2111
 5990 01f2 18       		.uleb128 0x18
 5991 01f3 00       		.byte	0
 5992 01f4 00       		.byte	0
 5993 01f5 28       		.uleb128 0x28
 5994 01f6 898201   		.uleb128 0x4109
 5995 01f9 01       		.byte	0x1
 5996 01fa 11       		.uleb128 0x11
 5997 01fb 01       		.uleb128 0x1
 5998 01fc 31       		.uleb128 0x31
 5999 01fd 13       		.uleb128 0x13
 6000 01fe 00       		.byte	0
 6001 01ff 00       		.byte	0
 6002 0200 29       		.uleb128 0x29
 6003 0201 2E       		.uleb128 0x2e
 6004 0202 01       		.byte	0x1
 6005 0203 03       		.uleb128 0x3
 6006 0204 0E       		.uleb128 0xe
 6007 0205 3A       		.uleb128 0x3a
 6008 0206 0B       		.uleb128 0xb
 6009 0207 3B       		.uleb128 0x3b
 6010 0208 05       		.uleb128 0x5
 6011 0209 27       		.uleb128 0x27
 6012 020a 19       		.uleb128 0x19
 6013 020b 11       		.uleb128 0x11
 6014 020c 01       		.uleb128 0x1
 6015 020d 12       		.uleb128 0x12
 6016 020e 06       		.uleb128 0x6
 6017 020f 40       		.uleb128 0x40
 6018 0210 18       		.uleb128 0x18
 6019 0211 9642     		.uleb128 0x2116
 6020 0213 19       		.uleb128 0x19
 6021 0214 01       		.uleb128 0x1
 6022 0215 13       		.uleb128 0x13
 6023 0216 00       		.byte	0
 6024 0217 00       		.byte	0
 6025 0218 2A       		.uleb128 0x2a
 6026 0219 05       		.uleb128 0x5
 6027 021a 00       		.byte	0
 6028 021b 03       		.uleb128 0x3
 6029 021c 0E       		.uleb128 0xe
 6030 021d 3A       		.uleb128 0x3a
 6031 021e 0B       		.uleb128 0xb
 6032 021f 3B       		.uleb128 0x3b
 6033 0220 05       		.uleb128 0x5
 6034 0221 49       		.uleb128 0x49
 6035 0222 13       		.uleb128 0x13
 6036 0223 02       		.uleb128 0x2
 6037 0224 17       		.uleb128 0x17
 6038 0225 00       		.byte	0
 6039 0226 00       		.byte	0
 6040 0227 2B       		.uleb128 0x2b
 6041 0228 05       		.uleb128 0x5
 6042 0229 00       		.byte	0
 6043 022a 03       		.uleb128 0x3
 6044 022b 08       		.uleb128 0x8
ARM GAS  C:\Users\haske\AppData\Local\Temp\ccpgnYma.s 			page 118


 6045 022c 3A       		.uleb128 0x3a
 6046 022d 0B       		.uleb128 0xb
 6047 022e 3B       		.uleb128 0x3b
 6048 022f 05       		.uleb128 0x5
 6049 0230 49       		.uleb128 0x49
 6050 0231 13       		.uleb128 0x13
 6051 0232 02       		.uleb128 0x2
 6052 0233 17       		.uleb128 0x17
 6053 0234 00       		.byte	0
 6054 0235 00       		.byte	0
 6055 0236 2C       		.uleb128 0x2c
 6056 0237 34       		.uleb128 0x34
 6057 0238 00       		.byte	0
 6058 0239 03       		.uleb128 0x3
 6059 023a 08       		.uleb128 0x8
 6060 023b 3A       		.uleb128 0x3a
 6061 023c 0B       		.uleb128 0xb
 6062 023d 3B       		.uleb128 0x3b
 6063 023e 05       		.uleb128 0x5
 6064 023f 49       		.uleb128 0x49
 6065 0240 13       		.uleb128 0x13
 6066 0241 02       		.uleb128 0x2
 6067 0242 18       		.uleb128 0x18
 6068 0243 00       		.byte	0
 6069 0244 00       		.byte	0
 6070 0245 2D       		.uleb128 0x2d
 6071 0246 34       		.uleb128 0x34
 6072 0247 00       		.byte	0
 6073 0248 03       		.uleb128 0x3
 6074 0249 0E       		.uleb128 0xe
 6075 024a 3A       		.uleb128 0x3a
 6076 024b 0B       		.uleb128 0xb
 6077 024c 3B       		.uleb128 0x3b
 6078 024d 05       		.uleb128 0x5
 6079 024e 49       		.uleb128 0x49
 6080 024f 13       		.uleb128 0x13
 6081 0250 02       		.uleb128 0x2
 6082 0251 17       		.uleb128 0x17
 6083 0252 00       		.byte	0
 6084 0253 00       		.byte	0
 6085 0254 2E       		.uleb128 0x2e
 6086 0255 34       		.uleb128 0x34
 6087 0256 00       		.byte	0
 6088 0257 03       		.uleb128 0x3
 6089 0258 0E       		.uleb128 0xe
 6090 0259 3A       		.uleb128 0x3a
 6091 025a 0B       		.uleb128 0xb
 6092 025b 3B       		.uleb128 0x3b
 6093 025c 05       		.uleb128 0x5
 6094 025d 49       		.uleb128 0x49
 6095 025e 13       		.uleb128 0x13
 6096 025f 02       		.uleb128 0x2
 6097 0260 18       		.uleb128 0x18
 6098 0261 00       		.byte	0
 6099 0262 00       		.byte	0
 6100 0263 2F       		.uleb128 0x2f
 6101 0264 34       		.uleb128 0x34
ARM GAS  C:\Users\haske\AppData\Local\Temp\ccpgnYma.s 			page 119


 6102 0265 00       		.byte	0
 6103 0266 03       		.uleb128 0x3
 6104 0267 08       		.uleb128 0x8
 6105 0268 3A       		.uleb128 0x3a
 6106 0269 0B       		.uleb128 0xb
 6107 026a 3B       		.uleb128 0x3b
 6108 026b 05       		.uleb128 0x5
 6109 026c 49       		.uleb128 0x49
 6110 026d 13       		.uleb128 0x13
 6111 026e 02       		.uleb128 0x2
 6112 026f 17       		.uleb128 0x17
 6113 0270 00       		.byte	0
 6114 0271 00       		.byte	0
 6115 0272 30       		.uleb128 0x30
 6116 0273 1D       		.uleb128 0x1d
 6117 0274 01       		.byte	0x1
 6118 0275 31       		.uleb128 0x31
 6119 0276 13       		.uleb128 0x13
 6120 0277 11       		.uleb128 0x11
 6121 0278 01       		.uleb128 0x1
 6122 0279 12       		.uleb128 0x12
 6123 027a 06       		.uleb128 0x6
 6124 027b 58       		.uleb128 0x58
 6125 027c 0B       		.uleb128 0xb
 6126 027d 59       		.uleb128 0x59
 6127 027e 05       		.uleb128 0x5
 6128 027f 01       		.uleb128 0x1
 6129 0280 13       		.uleb128 0x13
 6130 0281 00       		.byte	0
 6131 0282 00       		.byte	0
 6132 0283 31       		.uleb128 0x31
 6133 0284 898201   		.uleb128 0x4109
 6134 0287 00       		.byte	0
 6135 0288 11       		.uleb128 0x11
 6136 0289 01       		.uleb128 0x1
 6137 028a 31       		.uleb128 0x31
 6138 028b 13       		.uleb128 0x13
 6139 028c 00       		.byte	0
 6140 028d 00       		.byte	0
 6141 028e 32       		.uleb128 0x32
 6142 028f 2E       		.uleb128 0x2e
 6143 0290 01       		.byte	0x1
 6144 0291 3F       		.uleb128 0x3f
 6145 0292 19       		.uleb128 0x19
 6146 0293 03       		.uleb128 0x3
 6147 0294 0E       		.uleb128 0xe
 6148 0295 3A       		.uleb128 0x3a
 6149 0296 0B       		.uleb128 0xb
 6150 0297 3B       		.uleb128 0x3b
 6151 0298 0B       		.uleb128 0xb
 6152 0299 27       		.uleb128 0x27
 6153 029a 19       		.uleb128 0x19
 6154 029b 11       		.uleb128 0x11
 6155 029c 01       		.uleb128 0x1
 6156 029d 12       		.uleb128 0x12
 6157 029e 06       		.uleb128 0x6
 6158 029f 40       		.uleb128 0x40
ARM GAS  C:\Users\haske\AppData\Local\Temp\ccpgnYma.s 			page 120


 6159 02a0 18       		.uleb128 0x18
 6160 02a1 9742     		.uleb128 0x2117
 6161 02a3 19       		.uleb128 0x19
 6162 02a4 01       		.uleb128 0x1
 6163 02a5 13       		.uleb128 0x13
 6164 02a6 00       		.byte	0
 6165 02a7 00       		.byte	0
 6166 02a8 33       		.uleb128 0x33
 6167 02a9 34       		.uleb128 0x34
 6168 02aa 00       		.byte	0
 6169 02ab 03       		.uleb128 0x3
 6170 02ac 0E       		.uleb128 0xe
 6171 02ad 3A       		.uleb128 0x3a
 6172 02ae 0B       		.uleb128 0xb
 6173 02af 3B       		.uleb128 0x3b
 6174 02b0 0B       		.uleb128 0xb
 6175 02b1 49       		.uleb128 0x49
 6176 02b2 13       		.uleb128 0x13
 6177 02b3 3F       		.uleb128 0x3f
 6178 02b4 19       		.uleb128 0x19
 6179 02b5 3C       		.uleb128 0x3c
 6180 02b6 19       		.uleb128 0x19
 6181 02b7 00       		.byte	0
 6182 02b8 00       		.byte	0
 6183 02b9 34       		.uleb128 0x34
 6184 02ba 2E       		.uleb128 0x2e
 6185 02bb 00       		.byte	0
 6186 02bc 3F       		.uleb128 0x3f
 6187 02bd 19       		.uleb128 0x19
 6188 02be 3C       		.uleb128 0x3c
 6189 02bf 19       		.uleb128 0x19
 6190 02c0 6E       		.uleb128 0x6e
 6191 02c1 0E       		.uleb128 0xe
 6192 02c2 03       		.uleb128 0x3
 6193 02c3 0E       		.uleb128 0xe
 6194 02c4 3A       		.uleb128 0x3a
 6195 02c5 0B       		.uleb128 0xb
 6196 02c6 3B       		.uleb128 0x3b
 6197 02c7 0B       		.uleb128 0xb
 6198 02c8 00       		.byte	0
 6199 02c9 00       		.byte	0
 6200 02ca 35       		.uleb128 0x35
 6201 02cb 2E       		.uleb128 0x2e
 6202 02cc 00       		.byte	0
 6203 02cd 3F       		.uleb128 0x3f
 6204 02ce 19       		.uleb128 0x19
 6205 02cf 3C       		.uleb128 0x3c
 6206 02d0 19       		.uleb128 0x19
 6207 02d1 6E       		.uleb128 0x6e
 6208 02d2 0E       		.uleb128 0xe
 6209 02d3 03       		.uleb128 0x3
 6210 02d4 0E       		.uleb128 0xe
 6211 02d5 3A       		.uleb128 0x3a
 6212 02d6 0B       		.uleb128 0xb
 6213 02d7 3B       		.uleb128 0x3b
 6214 02d8 05       		.uleb128 0x5
 6215 02d9 00       		.byte	0
ARM GAS  C:\Users\haske\AppData\Local\Temp\ccpgnYma.s 			page 121


 6216 02da 00       		.byte	0
 6217 02db 00       		.byte	0
 6218              		.section	.debug_loc,"",%progbits
 6219              	.Ldebug_loc0:
 6220              	.LLST0:
 6221 0000 00000000 		.4byte	.LVL0
 6222 0004 14000000 		.4byte	.LVL1
 6223 0008 0100     		.2byte	0x1
 6224 000a 50       		.byte	0x50
 6225 000b 14000000 		.4byte	.LVL1
 6226 000f AE010000 		.4byte	.LVL58
 6227 0013 0100     		.2byte	0x1
 6228 0015 59       		.byte	0x59
 6229 0016 AE010000 		.4byte	.LVL58
 6230 001a B8010000 		.4byte	.LFE160
 6231 001e 0400     		.2byte	0x4
 6232 0020 F3       		.byte	0xf3
 6233 0021 01       		.uleb128 0x1
 6234 0022 50       		.byte	0x50
 6235 0023 9F       		.byte	0x9f
 6236 0024 00000000 		.4byte	0
 6237 0028 00000000 		.4byte	0
 6238              	.LLST1:
 6239 002c 00000000 		.4byte	.LVL0
 6240 0030 14000000 		.4byte	.LVL1
 6241 0034 0100     		.2byte	0x1
 6242 0036 51       		.byte	0x51
 6243 0037 14000000 		.4byte	.LVL1
 6244 003b 16010000 		.4byte	.LVL35
 6245 003f 0100     		.2byte	0x1
 6246 0041 54       		.byte	0x54
 6247 0042 16010000 		.4byte	.LVL35
 6248 0046 AC010000 		.4byte	.LVL57
 6249 004a 0100     		.2byte	0x1
 6250 004c 57       		.byte	0x57
 6251 004d AC010000 		.4byte	.LVL57
 6252 0051 B8010000 		.4byte	.LFE160
 6253 0055 0400     		.2byte	0x4
 6254 0057 F3       		.byte	0xf3
 6255 0058 01       		.uleb128 0x1
 6256 0059 51       		.byte	0x51
 6257 005a 9F       		.byte	0x9f
 6258 005b 00000000 		.4byte	0
 6259 005f 00000000 		.4byte	0
 6260              	.LLST2:
 6261 0063 00000000 		.4byte	.LVL0
 6262 0067 4C000000 		.4byte	.LVL8
 6263 006b 0100     		.2byte	0x1
 6264 006d 52       		.byte	0x52
 6265 006e 4C000000 		.4byte	.LVL8
 6266 0072 B8010000 		.4byte	.LFE160
 6267 0076 0400     		.2byte	0x4
 6268 0078 F3       		.byte	0xf3
 6269 0079 01       		.uleb128 0x1
 6270 007a 52       		.byte	0x52
 6271 007b 9F       		.byte	0x9f
 6272 007c 00000000 		.4byte	0
ARM GAS  C:\Users\haske\AppData\Local\Temp\ccpgnYma.s 			page 122


 6273 0080 00000000 		.4byte	0
 6274              	.LLST3:
 6275 0084 00000000 		.4byte	.LVL0
 6276 0088 36000000 		.4byte	.LVL7
 6277 008c 0100     		.2byte	0x1
 6278 008e 53       		.byte	0x53
 6279 008f 36000000 		.4byte	.LVL7
 6280 0093 B8010000 		.4byte	.LFE160
 6281 0097 0400     		.2byte	0x4
 6282 0099 F3       		.byte	0xf3
 6283 009a 01       		.uleb128 0x1
 6284 009b 53       		.byte	0x53
 6285 009c 9F       		.byte	0x9f
 6286 009d 00000000 		.4byte	0
 6287 00a1 00000000 		.4byte	0
 6288              	.LLST4:
 6289 00a5 16000000 		.4byte	.LVL2
 6290 00a9 1C000000 		.4byte	.LVL4
 6291 00ad 0100     		.2byte	0x1
 6292 00af 51       		.byte	0x51
 6293 00b0 1C000000 		.4byte	.LVL4
 6294 00b4 32000000 		.4byte	.LVL6
 6295 00b8 0B00     		.2byte	0xb
 6296 00ba 74       		.byte	0x74
 6297 00bb 02       		.sleb128 2
 6298 00bc 94       		.byte	0x94
 6299 00bd 02       		.byte	0x2
 6300 00be 40       		.byte	0x40
 6301 00bf 24       		.byte	0x24
 6302 00c0 40       		.byte	0x40
 6303 00c1 26       		.byte	0x26
 6304 00c2 31       		.byte	0x31
 6305 00c3 1C       		.byte	0x1c
 6306 00c4 9F       		.byte	0x9f
 6307 00c5 00000000 		.4byte	0
 6308 00c9 00000000 		.4byte	0
 6309              	.LLST5:
 6310 00cd 18000000 		.4byte	.LVL3
 6311 00d1 90000000 		.4byte	.LVL14
 6312 00d5 0100     		.2byte	0x1
 6313 00d7 56       		.byte	0x56
 6314 00d8 92000000 		.4byte	.LVL15
 6315 00dc 94000000 		.4byte	.LVL16
 6316 00e0 0100     		.2byte	0x1
 6317 00e2 56       		.byte	0x56
 6318 00e3 96000000 		.4byte	.LVL17
 6319 00e7 98000000 		.4byte	.LVL18
 6320 00eb 0100     		.2byte	0x1
 6321 00ed 56       		.byte	0x56
 6322 00ee 00000000 		.4byte	0
 6323 00f2 00000000 		.4byte	0
 6324              	.LLST6:
 6325 00f6 1E000000 		.4byte	.LVL5
 6326 00fa 4E000000 		.4byte	.LVL9
 6327 00fe 0100     		.2byte	0x1
 6328 0100 51       		.byte	0x51
 6329 0101 00000000 		.4byte	0
ARM GAS  C:\Users\haske\AppData\Local\Temp\ccpgnYma.s 			page 123


 6330 0105 00000000 		.4byte	0
 6331              	.LLST7:
 6332 0109 5E000000 		.4byte	.LVL10
 6333 010d 80000000 		.4byte	.LVL12
 6334 0111 0100     		.2byte	0x1
 6335 0113 50       		.byte	0x50
 6336 0114 00000000 		.4byte	0
 6337 0118 00000000 		.4byte	0
 6338              	.LLST8:
 6339 011c 7E000000 		.4byte	.LVL11
 6340 0120 AC010000 		.4byte	.LVL57
 6341 0124 0100     		.2byte	0x1
 6342 0126 5A       		.byte	0x5a
 6343 0127 00000000 		.4byte	0
 6344 012b 00000000 		.4byte	0
 6345              	.LLST9:
 6346 012f 7E000000 		.4byte	.LVL11
 6347 0133 98000000 		.4byte	.LVL18
 6348 0137 0200     		.2byte	0x2
 6349 0139 31       		.byte	0x31
 6350 013a 9F       		.byte	0x9f
 6351 013b 98000000 		.4byte	.LVL18
 6352 013f 12010000 		.4byte	.LVL33
 6353 0143 0100     		.2byte	0x1
 6354 0145 56       		.byte	0x56
 6355 0146 00000000 		.4byte	0
 6356 014a 00000000 		.4byte	0
 6357              	.LLST10:
 6358 014e D0000000 		.4byte	.LVL23
 6359 0152 D4000000 		.4byte	.LVL24
 6360 0156 0100     		.2byte	0x1
 6361 0158 52       		.byte	0x52
 6362 0159 D4000000 		.4byte	.LVL24
 6363 015d 14010000 		.4byte	.LVL34
 6364 0161 0100     		.2byte	0x1
 6365 0163 57       		.byte	0x57
 6366 0164 14010000 		.4byte	.LVL34
 6367 0168 18010000 		.4byte	.LVL36
 6368 016c 0300     		.2byte	0x3
 6369 016e 91       		.byte	0x91
 6370 016f AC7F     		.sleb128 -84
 6371 0171 18010000 		.4byte	.LVL36
 6372 0175 A6010000 		.4byte	.LVL56
 6373 0179 0100     		.2byte	0x1
 6374 017b 56       		.byte	0x56
 6375 017c A6010000 		.4byte	.LVL56
 6376 0180 AC010000 		.4byte	.LVL57
 6377 0184 0300     		.2byte	0x3
 6378 0186 91       		.byte	0x91
 6379 0187 AC7F     		.sleb128 -84
 6380 0189 00000000 		.4byte	0
 6381 018d 00000000 		.4byte	0
 6382              	.LLST11:
 6383 0191 D6000000 		.4byte	.LVL25
 6384 0195 AC010000 		.4byte	.LVL57
 6385 0199 0100     		.2byte	0x1
 6386 019b 5B       		.byte	0x5b
ARM GAS  C:\Users\haske\AppData\Local\Temp\ccpgnYma.s 			page 124


 6387 019c 00000000 		.4byte	0
 6388 01a0 00000000 		.4byte	0
 6389              	.LLST12:
 6390 01a4 DC000000 		.4byte	.LVL26
 6391 01a8 F4000000 		.4byte	.LVL28
 6392 01ac 0200     		.2byte	0x2
 6393 01ae 30       		.byte	0x30
 6394 01af 9F       		.byte	0x9f
 6395 01b0 F4000000 		.4byte	.LVL28
 6396 01b4 F6000000 		.4byte	.LVL29
 6397 01b8 0300     		.2byte	0x3
 6398 01ba 91       		.byte	0x91
 6399 01bb B47F     		.sleb128 -76
 6400 01bd F6000000 		.4byte	.LVL29
 6401 01c1 FA000000 		.4byte	.LVL30
 6402 01c5 0200     		.2byte	0x2
 6403 01c7 30       		.byte	0x30
 6404 01c8 9F       		.byte	0x9f
 6405 01c9 FA000000 		.4byte	.LVL30
 6406 01cd AC010000 		.4byte	.LVL57
 6407 01d1 0300     		.2byte	0x3
 6408 01d3 91       		.byte	0x91
 6409 01d4 B47F     		.sleb128 -76
 6410 01d6 00000000 		.4byte	0
 6411 01da 00000000 		.4byte	0
 6412              	.LLST13:
 6413 01de 04010000 		.4byte	.LVL31
 6414 01e2 18010000 		.4byte	.LVL36
 6415 01e6 0100     		.2byte	0x1
 6416 01e8 50       		.byte	0x50
 6417 01e9 18010000 		.4byte	.LVL36
 6418 01ed AC010000 		.4byte	.LVL57
 6419 01f1 0200     		.2byte	0x2
 6420 01f3 7D       		.byte	0x7d
 6421 01f4 00       		.sleb128 0
 6422 01f5 00000000 		.4byte	0
 6423 01f9 00000000 		.4byte	0
 6424              	.LLST14:
 6425 01fd 0E010000 		.4byte	.LVL32
 6426 0201 AC010000 		.4byte	.LVL57
 6427 0205 0100     		.2byte	0x1
 6428 0207 55       		.byte	0x55
 6429 0208 00000000 		.4byte	0
 6430 020c 00000000 		.4byte	0
 6431              	.LLST15:
 6432 0210 BC000000 		.4byte	.LVL21
 6433 0214 CE000000 		.4byte	.LVL22
 6434 0218 0200     		.2byte	0x2
 6435 021a 75       		.byte	0x75
 6436 021b 00       		.sleb128 0
 6437 021c 00000000 		.4byte	0
 6438 0220 00000000 		.4byte	0
 6439              	.LLST16:
 6440 0224 3E010000 		.4byte	.LVL39
 6441 0228 48010000 		.4byte	.LVL40
 6442 022c 0100     		.2byte	0x1
 6443 022e 52       		.byte	0x52
ARM GAS  C:\Users\haske\AppData\Local\Temp\ccpgnYma.s 			page 125


 6444 022f 4E010000 		.4byte	.LVL43
 6445 0233 50010000 		.4byte	.LVL44
 6446 0237 0100     		.2byte	0x1
 6447 0239 53       		.byte	0x53
 6448 023a 50010000 		.4byte	.LVL44
 6449 023e 68010000 		.4byte	.LVL45
 6450 0242 0100     		.2byte	0x1
 6451 0244 52       		.byte	0x52
 6452 0245 68010000 		.4byte	.LVL45
 6453 0249 6E010000 		.4byte	.LVL48
 6454 024d 0100     		.2byte	0x1
 6455 024f 53       		.byte	0x53
 6456 0250 70010000 		.4byte	.LVL49
 6457 0254 72010000 		.4byte	.LVL50
 6458 0258 0100     		.2byte	0x1
 6459 025a 52       		.byte	0x52
 6460 025b 78010000 		.4byte	.LVL51
 6461 025f 80010000 		.4byte	.LVL52
 6462 0263 0100     		.2byte	0x1
 6463 0265 52       		.byte	0x52
 6464 0266 00000000 		.4byte	0
 6465 026a 00000000 		.4byte	0
 6466              	.LLST17:
 6467 026e 3E010000 		.4byte	.LVL39
 6468 0272 4C010000 		.4byte	.LVL42
 6469 0276 0100     		.2byte	0x1
 6470 0278 50       		.byte	0x50
 6471 0279 4E010000 		.4byte	.LVL43
 6472 027d 6A010000 		.4byte	.LVL46
 6473 0281 0100     		.2byte	0x1
 6474 0283 50       		.byte	0x50
 6475 0284 6C010000 		.4byte	.LVL47
 6476 0288 72010000 		.4byte	.LVL50
 6477 028c 0100     		.2byte	0x1
 6478 028e 50       		.byte	0x50
 6479 028f 78010000 		.4byte	.LVL51
 6480 0293 84010000 		.4byte	.LVL53
 6481 0297 0100     		.2byte	0x1
 6482 0299 50       		.byte	0x50
 6483 029a 00000000 		.4byte	0
 6484 029e 00000000 		.4byte	0
 6485              	.LLST18:
 6486 02a2 4A010000 		.4byte	.LVL41
 6487 02a6 50010000 		.4byte	.LVL44
 6488 02aa 0100     		.2byte	0x1
 6489 02ac 52       		.byte	0x52
 6490 02ad 00000000 		.4byte	0
 6491 02b1 00000000 		.4byte	0
 6492              	.LLST19:
 6493 02b5 00000000 		.4byte	.LVL59
 6494 02b9 14000000 		.4byte	.LVL60
 6495 02bd 0100     		.2byte	0x1
 6496 02bf 50       		.byte	0x50
 6497 02c0 14000000 		.4byte	.LVL60
 6498 02c4 8A010000 		.4byte	.LVL102
 6499 02c8 0100     		.2byte	0x1
 6500 02ca 58       		.byte	0x58
ARM GAS  C:\Users\haske\AppData\Local\Temp\ccpgnYma.s 			page 126


 6501 02cb 8A010000 		.4byte	.LVL102
 6502 02cf 94010000 		.4byte	.LFE161
 6503 02d3 0400     		.2byte	0x4
 6504 02d5 F3       		.byte	0xf3
 6505 02d6 01       		.uleb128 0x1
 6506 02d7 50       		.byte	0x50
 6507 02d8 9F       		.byte	0x9f
 6508 02d9 00000000 		.4byte	0
 6509 02dd 00000000 		.4byte	0
 6510              	.LLST20:
 6511 02e1 00000000 		.4byte	.LVL59
 6512 02e5 14000000 		.4byte	.LVL60
 6513 02e9 0100     		.2byte	0x1
 6514 02eb 51       		.byte	0x51
 6515 02ec 14000000 		.4byte	.LVL60
 6516 02f0 12010000 		.4byte	.LVL91
 6517 02f4 0100     		.2byte	0x1
 6518 02f6 55       		.byte	0x55
 6519 02f7 12010000 		.4byte	.LVL91
 6520 02fb 88010000 		.4byte	.LVL101
 6521 02ff 0100     		.2byte	0x1
 6522 0301 59       		.byte	0x59
 6523 0302 88010000 		.4byte	.LVL101
 6524 0306 94010000 		.4byte	.LFE161
 6525 030a 0400     		.2byte	0x4
 6526 030c F3       		.byte	0xf3
 6527 030d 01       		.uleb128 0x1
 6528 030e 51       		.byte	0x51
 6529 030f 9F       		.byte	0x9f
 6530 0310 00000000 		.4byte	0
 6531 0314 00000000 		.4byte	0
 6532              	.LLST21:
 6533 0318 00000000 		.4byte	.LVL59
 6534 031c 48000000 		.4byte	.LVL69
 6535 0320 0100     		.2byte	0x1
 6536 0322 52       		.byte	0x52
 6537 0323 48000000 		.4byte	.LVL69
 6538 0327 94010000 		.4byte	.LFE161
 6539 032b 0400     		.2byte	0x4
 6540 032d F3       		.byte	0xf3
 6541 032e 01       		.uleb128 0x1
 6542 032f 52       		.byte	0x52
 6543 0330 9F       		.byte	0x9f
 6544 0331 00000000 		.4byte	0
 6545 0335 00000000 		.4byte	0
 6546              	.LLST22:
 6547 0339 00000000 		.4byte	.LVL59
 6548 033d 44000000 		.4byte	.LVL68
 6549 0341 0100     		.2byte	0x1
 6550 0343 53       		.byte	0x53
 6551 0344 44000000 		.4byte	.LVL68
 6552 0348 94010000 		.4byte	.LFE161
 6553 034c 0400     		.2byte	0x4
 6554 034e F3       		.byte	0xf3
 6555 034f 01       		.uleb128 0x1
 6556 0350 53       		.byte	0x53
 6557 0351 9F       		.byte	0x9f
ARM GAS  C:\Users\haske\AppData\Local\Temp\ccpgnYma.s 			page 127


 6558 0352 00000000 		.4byte	0
 6559 0356 00000000 		.4byte	0
 6560              	.LLST23:
 6561 035a 16000000 		.4byte	.LVL61
 6562 035e 1C000000 		.4byte	.LVL63
 6563 0362 0100     		.2byte	0x1
 6564 0364 51       		.byte	0x51
 6565 0365 1C000000 		.4byte	.LVL63
 6566 0369 28000000 		.4byte	.LVL66
 6567 036d 0B00     		.2byte	0xb
 6568 036f 75       		.byte	0x75
 6569 0370 02       		.sleb128 2
 6570 0371 94       		.byte	0x94
 6571 0372 02       		.byte	0x2
 6572 0373 40       		.byte	0x40
 6573 0374 24       		.byte	0x24
 6574 0375 40       		.byte	0x40
 6575 0376 26       		.byte	0x26
 6576 0377 31       		.byte	0x31
 6577 0378 1C       		.byte	0x1c
 6578 0379 9F       		.byte	0x9f
 6579 037a 00000000 		.4byte	0
 6580 037e 00000000 		.4byte	0
 6581              	.LLST24:
 6582 0382 18000000 		.4byte	.LVL62
 6583 0386 2A000000 		.4byte	.LVL67
 6584 038a 0100     		.2byte	0x1
 6585 038c 50       		.byte	0x50
 6586 038d 00000000 		.4byte	0
 6587 0391 00000000 		.4byte	0
 6588              	.LLST25:
 6589 0395 1E000000 		.4byte	.LVL64
 6590 0399 26000000 		.4byte	.LVL65
 6591 039d 0100     		.2byte	0x1
 6592 039f 51       		.byte	0x51
 6593 03a0 26000000 		.4byte	.LVL65
 6594 03a4 28000000 		.4byte	.LVL66
 6595 03a8 1000     		.2byte	0x10
 6596 03aa 75       		.byte	0x75
 6597 03ab 02       		.sleb128 2
 6598 03ac 94       		.byte	0x94
 6599 03ad 02       		.byte	0x2
 6600 03ae 40       		.byte	0x40
 6601 03af 24       		.byte	0x24
 6602 03b0 40       		.byte	0x40
 6603 03b1 26       		.byte	0x26
 6604 03b2 31       		.byte	0x31
 6605 03b3 1C       		.byte	0x1c
 6606 03b4 31       		.byte	0x31
 6607 03b5 1A       		.byte	0x1a
 6608 03b6 70       		.byte	0x70
 6609 03b7 00       		.sleb128 0
 6610 03b8 22       		.byte	0x22
 6611 03b9 9F       		.byte	0x9f
 6612 03ba 00000000 		.4byte	0
 6613 03be 00000000 		.4byte	0
 6614              	.LLST26:
ARM GAS  C:\Users\haske\AppData\Local\Temp\ccpgnYma.s 			page 128


 6615 03c2 60000000 		.4byte	.LVL70
 6616 03c6 82000000 		.4byte	.LVL72
 6617 03ca 0100     		.2byte	0x1
 6618 03cc 50       		.byte	0x50
 6619 03cd 00000000 		.4byte	0
 6620 03d1 00000000 		.4byte	0
 6621              	.LLST27:
 6622 03d5 80000000 		.4byte	.LVL71
 6623 03d9 14010000 		.4byte	.LVL92
 6624 03dd 0100     		.2byte	0x1
 6625 03df 56       		.byte	0x56
 6626 03e0 00000000 		.4byte	0
 6627 03e4 00000000 		.4byte	0
 6628              	.LLST28:
 6629 03e8 80000000 		.4byte	.LVL71
 6630 03ec 98000000 		.4byte	.LVL74
 6631 03f0 0200     		.2byte	0x2
 6632 03f2 31       		.byte	0x31
 6633 03f3 9F       		.byte	0x9f
 6634 03f4 98000000 		.4byte	.LVL74
 6635 03f8 C6000000 		.4byte	.LVL79
 6636 03fc 0100     		.2byte	0x1
 6637 03fe 57       		.byte	0x57
 6638 03ff 00000000 		.4byte	0
 6639 0403 00000000 		.4byte	0
 6640              	.LLST29:
 6641 0407 D0000000 		.4byte	.LVL80
 6642 040b E3000000 		.4byte	.LVL82-1
 6643 040f 0700     		.2byte	0x7
 6644 0411 72       		.byte	0x72
 6645 0412 00       		.sleb128 0
 6646 0413 40       		.byte	0x40
 6647 0414 24       		.byte	0x24
 6648 0415 40       		.byte	0x40
 6649 0416 26       		.byte	0x26
 6650 0417 9F       		.byte	0x9f
 6651 0418 E3000000 		.4byte	.LVL82-1
 6652 041c 88010000 		.4byte	.LVL101
 6653 0420 0A00     		.2byte	0xa
 6654 0422 91       		.byte	0x91
 6655 0423 B47F     		.sleb128 -76
 6656 0425 94       		.byte	0x94
 6657 0426 02       		.byte	0x2
 6658 0427 40       		.byte	0x40
 6659 0428 24       		.byte	0x24
 6660 0429 40       		.byte	0x40
 6661 042a 26       		.byte	0x26
 6662 042b 9F       		.byte	0x9f
 6663 042c 00000000 		.4byte	0
 6664 0430 00000000 		.4byte	0
 6665              	.LLST30:
 6666 0434 D6000000 		.4byte	.LVL81
 6667 0438 88010000 		.4byte	.LVL101
 6668 043c 0100     		.2byte	0x1
 6669 043e 5A       		.byte	0x5a
 6670 043f 00000000 		.4byte	0
 6671 0443 00000000 		.4byte	0
ARM GAS  C:\Users\haske\AppData\Local\Temp\ccpgnYma.s 			page 129


 6672              	.LLST31:
 6673 0447 E6000000 		.4byte	.LVL83
 6674 044b F4000000 		.4byte	.LVL85
 6675 044f 0100     		.2byte	0x1
 6676 0451 50       		.byte	0x50
 6677 0452 F4000000 		.4byte	.LVL85
 6678 0456 06010000 		.4byte	.LVL88
 6679 045a 0300     		.2byte	0x3
 6680 045c 91       		.byte	0x91
 6681 045d AC7F     		.sleb128 -84
 6682 045f 06010000 		.4byte	.LVL88
 6683 0463 08010000 		.4byte	.LVL89
 6684 0467 0100     		.2byte	0x1
 6685 0469 50       		.byte	0x50
 6686 046a 08010000 		.4byte	.LVL89
 6687 046e 88010000 		.4byte	.LVL101
 6688 0472 0300     		.2byte	0x3
 6689 0474 91       		.byte	0x91
 6690 0475 AC7F     		.sleb128 -84
 6691 0477 00000000 		.4byte	0
 6692 047b 00000000 		.4byte	0
 6693              	.LLST32:
 6694 047f EA000000 		.4byte	.LVL84
 6695 0483 04010000 		.4byte	.LVL87
 6696 0487 0200     		.2byte	0x2
 6697 0489 30       		.byte	0x30
 6698 048a 9F       		.byte	0x9f
 6699 048b 04010000 		.4byte	.LVL87
 6700 048f 06010000 		.4byte	.LVL88
 6701 0493 0100     		.2byte	0x1
 6702 0495 57       		.byte	0x57
 6703 0496 06010000 		.4byte	.LVL88
 6704 049a 08010000 		.4byte	.LVL89
 6705 049e 0200     		.2byte	0x2
 6706 04a0 30       		.byte	0x30
 6707 04a1 9F       		.byte	0x9f
 6708 04a2 08010000 		.4byte	.LVL89
 6709 04a6 16010000 		.4byte	.LVL93
 6710 04aa 0100     		.2byte	0x1
 6711 04ac 57       		.byte	0x57
 6712 04ad 00000000 		.4byte	0
 6713 04b1 00000000 		.4byte	0
 6714              	.LLST33:
 6715 04b5 08010000 		.4byte	.LVL89
 6716 04b9 60010000 		.4byte	.LVL97
 6717 04bd 0100     		.2byte	0x1
 6718 04bf 57       		.byte	0x57
 6719 04c0 62010000 		.4byte	.LVL98
 6720 04c4 88010000 		.4byte	.LVL101
 6721 04c8 0100     		.2byte	0x1
 6722 04ca 57       		.byte	0x57
 6723 04cb 00000000 		.4byte	0
 6724 04cf 00000000 		.4byte	0
 6725              	.LLST34:
 6726 04d3 0E010000 		.4byte	.LVL90
 6727 04d7 16010000 		.4byte	.LVL93
 6728 04db 0900     		.2byte	0x9
ARM GAS  C:\Users\haske\AppData\Local\Temp\ccpgnYma.s 			page 130


 6729 04dd 91       		.byte	0x91
 6730 04de 5A       		.sleb128 -38
 6731 04df 94       		.byte	0x94
 6732 04e0 02       		.byte	0x2
 6733 04e1 40       		.byte	0x40
 6734 04e2 24       		.byte	0x24
 6735 04e3 40       		.byte	0x40
 6736 04e4 26       		.byte	0x26
 6737 04e5 9F       		.byte	0x9f
 6738 04e6 16010000 		.4byte	.LVL93
 6739 04ea 88010000 		.4byte	.LVL101
 6740 04ee 0100     		.2byte	0x1
 6741 04f0 54       		.byte	0x54
 6742 04f1 00000000 		.4byte	0
 6743 04f5 00000000 		.4byte	0
 6744              	.LLST35:
 6745 04f9 BC000000 		.4byte	.LVL77
 6746 04fd BE000000 		.4byte	.LVL78
 6747 0501 0200     		.2byte	0x2
 6748 0503 74       		.byte	0x74
 6749 0504 00       		.sleb128 0
 6750 0505 BE000000 		.4byte	.LVL78
 6751 0509 D0000000 		.4byte	.LVL80
 6752 050d 0100     		.2byte	0x1
 6753 050f 54       		.byte	0x54
 6754 0510 00000000 		.4byte	0
 6755 0514 00000000 		.4byte	0
 6756              	.LLST36:
 6757 0518 00000000 		.4byte	.LVL103
 6758 051c 16000000 		.4byte	.LVL104
 6759 0520 0100     		.2byte	0x1
 6760 0522 50       		.byte	0x50
 6761 0523 16000000 		.4byte	.LVL104
 6762 0527 68030000 		.4byte	.LVL193
 6763 052b 0100     		.2byte	0x1
 6764 052d 59       		.byte	0x59
 6765 052e 68030000 		.4byte	.LVL193
 6766 0532 78030000 		.4byte	.LFE162
 6767 0536 0400     		.2byte	0x4
 6768 0538 F3       		.byte	0xf3
 6769 0539 01       		.uleb128 0x1
 6770 053a 50       		.byte	0x50
 6771 053b 9F       		.byte	0x9f
 6772 053c 00000000 		.4byte	0
 6773 0540 00000000 		.4byte	0
 6774              	.LLST37:
 6775 0544 00000000 		.4byte	.LVL103
 6776 0548 16000000 		.4byte	.LVL104
 6777 054c 0100     		.2byte	0x1
 6778 054e 51       		.byte	0x51
 6779 054f 16000000 		.4byte	.LVL104
 6780 0553 78030000 		.4byte	.LFE162
 6781 0557 0300     		.2byte	0x3
 6782 0559 91       		.byte	0x91
 6783 055a E07D     		.sleb128 -288
 6784 055c 00000000 		.4byte	0
 6785 0560 00000000 		.4byte	0
ARM GAS  C:\Users\haske\AppData\Local\Temp\ccpgnYma.s 			page 131


 6786              	.LLST38:
 6787 0564 00000000 		.4byte	.LVL103
 6788 0568 2A000000 		.4byte	.LVL105
 6789 056c 0100     		.2byte	0x1
 6790 056e 52       		.byte	0x52
 6791 056f 2A000000 		.4byte	.LVL105
 6792 0573 34000000 		.4byte	.LVL107
 6793 0577 0400     		.2byte	0x4
 6794 0579 F3       		.byte	0xf3
 6795 057a 01       		.uleb128 0x1
 6796 057b 52       		.byte	0x52
 6797 057c 9F       		.byte	0x9f
 6798 057d 34000000 		.4byte	.LVL107
 6799 0581 46000000 		.4byte	.LVL109
 6800 0585 0100     		.2byte	0x1
 6801 0587 52       		.byte	0x52
 6802 0588 46000000 		.4byte	.LVL109
 6803 058c 78030000 		.4byte	.LFE162
 6804 0590 0400     		.2byte	0x4
 6805 0592 F3       		.byte	0xf3
 6806 0593 01       		.uleb128 0x1
 6807 0594 52       		.byte	0x52
 6808 0595 9F       		.byte	0x9f
 6809 0596 00000000 		.4byte	0
 6810 059a 00000000 		.4byte	0
 6811              	.LLST39:
 6812 059e 00000000 		.4byte	.LVL103
 6813 05a2 30000000 		.4byte	.LVL106
 6814 05a6 0100     		.2byte	0x1
 6815 05a8 53       		.byte	0x53
 6816 05a9 30000000 		.4byte	.LVL106
 6817 05ad 34000000 		.4byte	.LVL107
 6818 05b1 0400     		.2byte	0x4
 6819 05b3 F3       		.byte	0xf3
 6820 05b4 01       		.uleb128 0x1
 6821 05b5 53       		.byte	0x53
 6822 05b6 9F       		.byte	0x9f
 6823 05b7 34000000 		.4byte	.LVL107
 6824 05bb 40000000 		.4byte	.LVL108
 6825 05bf 0100     		.2byte	0x1
 6826 05c1 53       		.byte	0x53
 6827 05c2 40000000 		.4byte	.LVL108
 6828 05c6 78030000 		.4byte	.LFE162
 6829 05ca 0400     		.2byte	0x4
 6830 05cc F3       		.byte	0xf3
 6831 05cd 01       		.uleb128 0x1
 6832 05ce 53       		.byte	0x53
 6833 05cf 9F       		.byte	0x9f
 6834 05d0 00000000 		.4byte	0
 6835 05d4 00000000 		.4byte	0
 6836              	.LLST40:
 6837 05d8 5A000000 		.4byte	.LVL110
 6838 05dc 86000000 		.4byte	.LVL116
 6839 05e0 0100     		.2byte	0x1
 6840 05e2 51       		.byte	0x51
 6841 05e3 86000000 		.4byte	.LVL116
 6842 05e7 8C000000 		.4byte	.LVL118
ARM GAS  C:\Users\haske\AppData\Local\Temp\ccpgnYma.s 			page 132


 6843 05eb 0300     		.2byte	0x3
 6844 05ed 91       		.byte	0x91
 6845 05ee E47D     		.sleb128 -284
 6846 05f0 8C000000 		.4byte	.LVL118
 6847 05f4 92000000 		.4byte	.LVL119
 6848 05f8 0100     		.2byte	0x1
 6849 05fa 51       		.byte	0x51
 6850 05fb 92000000 		.4byte	.LVL119
 6851 05ff 20020000 		.4byte	.LVL150
 6852 0603 0300     		.2byte	0x3
 6853 0605 91       		.byte	0x91
 6854 0606 E47D     		.sleb128 -284
 6855 0608 20020000 		.4byte	.LVL150
 6856 060c 2C020000 		.4byte	.LVL154
 6857 0610 1200     		.2byte	0x12
 6858 0612 91       		.byte	0x91
 6859 0613 50       		.sleb128 -48
 6860 0614 94       		.byte	0x94
 6861 0615 02       		.byte	0x2
 6862 0616 40       		.byte	0x40
 6863 0617 24       		.byte	0x24
 6864 0618 40       		.byte	0x40
 6865 0619 26       		.byte	0x26
 6866 061a 91       		.byte	0x91
 6867 061b 54       		.sleb128 -44
 6868 061c 94       		.byte	0x94
 6869 061d 02       		.byte	0x2
 6870 061e 40       		.byte	0x40
 6871 061f 24       		.byte	0x24
 6872 0620 40       		.byte	0x40
 6873 0621 26       		.byte	0x26
 6874 0622 1C       		.byte	0x1c
 6875 0623 9F       		.byte	0x9f
 6876 0624 2C020000 		.4byte	.LVL154
 6877 0628 34020000 		.4byte	.LVL156
 6878 062c 0300     		.2byte	0x3
 6879 062e 91       		.byte	0x91
 6880 062f E47D     		.sleb128 -284
 6881 0631 34020000 		.4byte	.LVL156
 6882 0635 78030000 		.4byte	.LFE162
 6883 0639 1200     		.2byte	0x12
 6884 063b 91       		.byte	0x91
 6885 063c 50       		.sleb128 -48
 6886 063d 94       		.byte	0x94
 6887 063e 02       		.byte	0x2
 6888 063f 40       		.byte	0x40
 6889 0640 24       		.byte	0x24
 6890 0641 40       		.byte	0x40
 6891 0642 26       		.byte	0x26
 6892 0643 91       		.byte	0x91
 6893 0644 54       		.sleb128 -44
 6894 0645 94       		.byte	0x94
 6895 0646 02       		.byte	0x2
 6896 0647 40       		.byte	0x40
 6897 0648 24       		.byte	0x24
 6898 0649 40       		.byte	0x40
 6899 064a 26       		.byte	0x26
ARM GAS  C:\Users\haske\AppData\Local\Temp\ccpgnYma.s 			page 133


 6900 064b 1C       		.byte	0x1c
 6901 064c 9F       		.byte	0x9f
 6902 064d 00000000 		.4byte	0
 6903 0651 00000000 		.4byte	0
 6904              	.LLST41:
 6905 0655 66000000 		.4byte	.LVL111
 6906 0659 72000000 		.4byte	.LVL112
 6907 065d 0100     		.2byte	0x1
 6908 065f 53       		.byte	0x53
 6909 0660 72000000 		.4byte	.LVL112
 6910 0664 78030000 		.4byte	.LFE162
 6911 0668 0300     		.2byte	0x3
 6912 066a 91       		.byte	0x91
 6913 066b EC7D     		.sleb128 -276
 6914 066d 00000000 		.4byte	0
 6915 0671 00000000 		.4byte	0
 6916              	.LLST42:
 6917 0675 76000000 		.4byte	.LVL113
 6918 0679 78000000 		.4byte	.LVL114
 6919 067d 0600     		.2byte	0x6
 6920 067f 7B       		.byte	0x7b
 6921 0680 00       		.sleb128 0
 6922 0681 73       		.byte	0x73
 6923 0682 00       		.sleb128 0
 6924 0683 2B       		.byte	0x2b
 6925 0684 9F       		.byte	0x9f
 6926 0685 78000000 		.4byte	.LVL114
 6927 0689 70020000 		.4byte	.LVL168
 6928 068d 0600     		.2byte	0x6
 6929 068f 7B       		.byte	0x7b
 6930 0690 00       		.sleb128 0
 6931 0691 7A       		.byte	0x7a
 6932 0692 00       		.sleb128 0
 6933 0693 2B       		.byte	0x2b
 6934 0694 9F       		.byte	0x9f
 6935 0695 70020000 		.4byte	.LVL168
 6936 0699 A0020000 		.4byte	.LVL173
 6937 069d 3D00     		.2byte	0x3d
 6938 069f 91       		.byte	0x91
 6939 06a0 50       		.sleb128 -48
 6940 06a1 94       		.byte	0x94
 6941 06a2 02       		.byte	0x2
 6942 06a3 40       		.byte	0x40
 6943 06a4 24       		.byte	0x24
 6944 06a5 40       		.byte	0x40
 6945 06a6 26       		.byte	0x26
 6946 06a7 91       		.byte	0x91
 6947 06a8 54       		.sleb128 -44
 6948 06a9 94       		.byte	0x94
 6949 06aa 02       		.byte	0x2
 6950 06ab 40       		.byte	0x40
 6951 06ac 24       		.byte	0x24
 6952 06ad 40       		.byte	0x40
 6953 06ae 26       		.byte	0x26
 6954 06af 1C       		.byte	0x1c
 6955 06b0 4F       		.byte	0x4f
 6956 06b1 26       		.byte	0x26
ARM GAS  C:\Users\haske\AppData\Local\Temp\ccpgnYma.s 			page 134


 6957 06b2 91       		.byte	0x91
 6958 06b3 50       		.sleb128 -48
 6959 06b4 94       		.byte	0x94
 6960 06b5 02       		.byte	0x2
 6961 06b6 40       		.byte	0x40
 6962 06b7 24       		.byte	0x24
 6963 06b8 40       		.byte	0x40
 6964 06b9 26       		.byte	0x26
 6965 06ba 22       		.byte	0x22
 6966 06bb 91       		.byte	0x91
 6967 06bc 54       		.sleb128 -44
 6968 06bd 94       		.byte	0x94
 6969 06be 02       		.byte	0x2
 6970 06bf 40       		.byte	0x40
 6971 06c0 24       		.byte	0x24
 6972 06c1 40       		.byte	0x40
 6973 06c2 26       		.byte	0x26
 6974 06c3 1C       		.byte	0x1c
 6975 06c4 91       		.byte	0x91
 6976 06c5 50       		.sleb128 -48
 6977 06c6 94       		.byte	0x94
 6978 06c7 02       		.byte	0x2
 6979 06c8 40       		.byte	0x40
 6980 06c9 24       		.byte	0x24
 6981 06ca 40       		.byte	0x40
 6982 06cb 26       		.byte	0x26
 6983 06cc 91       		.byte	0x91
 6984 06cd 54       		.sleb128 -44
 6985 06ce 94       		.byte	0x94
 6986 06cf 02       		.byte	0x2
 6987 06d0 40       		.byte	0x40
 6988 06d1 24       		.byte	0x24
 6989 06d2 40       		.byte	0x40
 6990 06d3 26       		.byte	0x26
 6991 06d4 1C       		.byte	0x1c
 6992 06d5 4F       		.byte	0x4f
 6993 06d6 26       		.byte	0x26
 6994 06d7 27       		.byte	0x27
 6995 06d8 7A       		.byte	0x7a
 6996 06d9 00       		.sleb128 0
 6997 06da 2B       		.byte	0x2b
 6998 06db 9F       		.byte	0x9f
 6999 06dc A0020000 		.4byte	.LVL173
 7000 06e0 78030000 		.4byte	.LFE162
 7001 06e4 4D00     		.2byte	0x4d
 7002 06e6 91       		.byte	0x91
 7003 06e7 50       		.sleb128 -48
 7004 06e8 94       		.byte	0x94
 7005 06e9 02       		.byte	0x2
 7006 06ea 40       		.byte	0x40
 7007 06eb 24       		.byte	0x24
 7008 06ec 40       		.byte	0x40
 7009 06ed 26       		.byte	0x26
 7010 06ee 91       		.byte	0x91
 7011 06ef 54       		.sleb128 -44
 7012 06f0 94       		.byte	0x94
 7013 06f1 02       		.byte	0x2
ARM GAS  C:\Users\haske\AppData\Local\Temp\ccpgnYma.s 			page 135


 7014 06f2 40       		.byte	0x40
 7015 06f3 24       		.byte	0x24
 7016 06f4 40       		.byte	0x40
 7017 06f5 26       		.byte	0x26
 7018 06f6 1C       		.byte	0x1c
 7019 06f7 4F       		.byte	0x4f
 7020 06f8 26       		.byte	0x26
 7021 06f9 91       		.byte	0x91
 7022 06fa 50       		.sleb128 -48
 7023 06fb 94       		.byte	0x94
 7024 06fc 02       		.byte	0x2
 7025 06fd 40       		.byte	0x40
 7026 06fe 24       		.byte	0x24
 7027 06ff 40       		.byte	0x40
 7028 0700 26       		.byte	0x26
 7029 0701 22       		.byte	0x22
 7030 0702 91       		.byte	0x91
 7031 0703 54       		.sleb128 -44
 7032 0704 94       		.byte	0x94
 7033 0705 02       		.byte	0x2
 7034 0706 40       		.byte	0x40
 7035 0707 24       		.byte	0x24
 7036 0708 40       		.byte	0x40
 7037 0709 26       		.byte	0x26
 7038 070a 1C       		.byte	0x1c
 7039 070b 91       		.byte	0x91
 7040 070c 50       		.sleb128 -48
 7041 070d 94       		.byte	0x94
 7042 070e 02       		.byte	0x2
 7043 070f 40       		.byte	0x40
 7044 0710 24       		.byte	0x24
 7045 0711 40       		.byte	0x40
 7046 0712 26       		.byte	0x26
 7047 0713 91       		.byte	0x91
 7048 0714 54       		.sleb128 -44
 7049 0715 94       		.byte	0x94
 7050 0716 02       		.byte	0x2
 7051 0717 40       		.byte	0x40
 7052 0718 24       		.byte	0x24
 7053 0719 40       		.byte	0x40
 7054 071a 26       		.byte	0x26
 7055 071b 1C       		.byte	0x1c
 7056 071c 4F       		.byte	0x4f
 7057 071d 26       		.byte	0x26
 7058 071e 27       		.byte	0x27
 7059 071f 91       		.byte	0x91
 7060 0720 EC7D     		.sleb128 -276
 7061 0722 06       		.byte	0x6
 7062 0723 4F       		.byte	0x4f
 7063 0724 26       		.byte	0x26
 7064 0725 91       		.byte	0x91
 7065 0726 EC7D     		.sleb128 -276
 7066 0728 06       		.byte	0x6
 7067 0729 22       		.byte	0x22
 7068 072a 91       		.byte	0x91
 7069 072b EC7D     		.sleb128 -276
 7070 072d 06       		.byte	0x6
ARM GAS  C:\Users\haske\AppData\Local\Temp\ccpgnYma.s 			page 136


 7071 072e 4F       		.byte	0x4f
 7072 072f 26       		.byte	0x26
 7073 0730 27       		.byte	0x27
 7074 0731 2B       		.byte	0x2b
 7075 0732 9F       		.byte	0x9f
 7076 0733 00000000 		.4byte	0
 7077 0737 00000000 		.4byte	0
 7078              	.LLST43:
 7079 073b 7C000000 		.4byte	.LVL115
 7080 073f 9C000000 		.4byte	.LVL121
 7081 0743 0100     		.2byte	0x1
 7082 0745 57       		.byte	0x57
 7083 0746 A0000000 		.4byte	.LVL122
 7084 074a AC000000 		.4byte	.LVL125
 7085 074e 0100     		.2byte	0x1
 7086 0750 53       		.byte	0x53
 7087 0751 00000000 		.4byte	0
 7088 0755 00000000 		.4byte	0
 7089              	.LLST44:
 7090 0759 7C000000 		.4byte	.LVL115
 7091 075d 8A000000 		.4byte	.LVL117
 7092 0761 0200     		.2byte	0x2
 7093 0763 30       		.byte	0x30
 7094 0764 9F       		.byte	0x9f
 7095 0765 8A000000 		.4byte	.LVL117
 7096 0769 8C000000 		.4byte	.LVL118
 7097 076d 0100     		.2byte	0x1
 7098 076f 50       		.byte	0x50
 7099 0770 8C000000 		.4byte	.LVL118
 7100 0774 96000000 		.4byte	.LVL120
 7101 0778 0200     		.2byte	0x2
 7102 077a 30       		.byte	0x30
 7103 077b 9F       		.byte	0x9f
 7104 077c 96000000 		.4byte	.LVL120
 7105 0780 EC000000 		.4byte	.LVL127
 7106 0784 0100     		.2byte	0x1
 7107 0786 50       		.byte	0x50
 7108 0787 00000000 		.4byte	0
 7109 078b 00000000 		.4byte	0
 7110              	.LLST45:
 7111 078f A2000000 		.4byte	.LVL123
 7112 0793 04010000 		.4byte	.LVL129
 7113 0797 0100     		.2byte	0x1
 7114 0799 57       		.byte	0x57
 7115 079a 3C010000 		.4byte	.LVL133
 7116 079e 5E010000 		.4byte	.LVL136
 7117 07a2 0100     		.2byte	0x1
 7118 07a4 57       		.byte	0x57
 7119 07a5 78010000 		.4byte	.LVL138
 7120 07a9 9E010000 		.4byte	.LVL141
 7121 07ad 0100     		.2byte	0x1
 7122 07af 57       		.byte	0x57
 7123 07b0 00000000 		.4byte	0
 7124 07b4 00000000 		.4byte	0
 7125              	.LLST46:
 7126 07b8 AA000000 		.4byte	.LVL124
 7127 07bc AE000000 		.4byte	.LVL126
ARM GAS  C:\Users\haske\AppData\Local\Temp\ccpgnYma.s 			page 137


 7128 07c0 0100     		.2byte	0x1
 7129 07c2 52       		.byte	0x52
 7130 07c3 AE000000 		.4byte	.LVL126
 7131 07c7 2A020000 		.4byte	.LVL153
 7132 07cb 0300     		.2byte	0x3
 7133 07cd 91       		.byte	0x91
 7134 07ce E87D     		.sleb128 -280
 7135 07d0 2C020000 		.4byte	.LVL154
 7136 07d4 32020000 		.4byte	.LVL155
 7137 07d8 0300     		.2byte	0x3
 7138 07da 91       		.byte	0x91
 7139 07db E87D     		.sleb128 -280
 7140 07dd 00000000 		.4byte	0
 7141 07e1 00000000 		.4byte	0
 7142              	.LLST47:
 7143 07e5 F0000000 		.4byte	.LVL128
 7144 07e9 1A010000 		.4byte	.LVL130
 7145 07ed 0100     		.2byte	0x1
 7146 07ef 50       		.byte	0x50
 7147 07f0 3C010000 		.4byte	.LVL133
 7148 07f4 58010000 		.4byte	.LVL134
 7149 07f8 0100     		.2byte	0x1
 7150 07fa 50       		.byte	0x50
 7151 07fb 78010000 		.4byte	.LVL138
 7152 07ff 98010000 		.4byte	.LVL139
 7153 0803 0100     		.2byte	0x1
 7154 0805 50       		.byte	0x50
 7155 0806 00000000 		.4byte	0
 7156 080a 00000000 		.4byte	0
 7157              	.LLST48:
 7158 080e C0010000 		.4byte	.LVL144
 7159 0812 66030000 		.4byte	.LVL192
 7160 0816 0300     		.2byte	0x3
 7161 0818 91       		.byte	0x91
 7162 0819 F07D     		.sleb128 -272
 7163 081b 00000000 		.4byte	0
 7164 081f 00000000 		.4byte	0
 7165              	.LLST49:
 7166 0823 CA010000 		.4byte	.LVL146
 7167 0827 66030000 		.4byte	.LVL192
 7168 082b 0300     		.2byte	0x3
 7169 082d 91       		.byte	0x91
 7170 082e F47D     		.sleb128 -268
 7171 0830 00000000 		.4byte	0
 7172 0834 00000000 		.4byte	0
 7173              	.LLST50:
 7174 0838 CA010000 		.4byte	.LVL146
 7175 083c 20020000 		.4byte	.LVL150
 7176 0840 0300     		.2byte	0x3
 7177 0842 09       		.byte	0x9
 7178 0843 FF       		.byte	0xff
 7179 0844 9F       		.byte	0x9f
 7180 0845 20020000 		.4byte	.LVL150
 7181 0849 24020000 		.4byte	.LVL151
 7182 084d 0100     		.2byte	0x1
 7183 084f 50       		.byte	0x50
 7184 0850 24020000 		.4byte	.LVL151
ARM GAS  C:\Users\haske\AppData\Local\Temp\ccpgnYma.s 			page 138


 7185 0854 2C020000 		.4byte	.LVL154
 7186 0858 0300     		.2byte	0x3
 7187 085a 91       		.byte	0x91
 7188 085b E47D     		.sleb128 -284
 7189 085d 2C020000 		.4byte	.LVL154
 7190 0861 34020000 		.4byte	.LVL156
 7191 0865 0300     		.2byte	0x3
 7192 0867 09       		.byte	0x9
 7193 0868 FF       		.byte	0xff
 7194 0869 9F       		.byte	0x9f
 7195 086a 34020000 		.4byte	.LVL156
 7196 086e 66030000 		.4byte	.LVL192
 7197 0872 0300     		.2byte	0x3
 7198 0874 91       		.byte	0x91
 7199 0875 E47D     		.sleb128 -284
 7200 0877 00000000 		.4byte	0
 7201 087b 00000000 		.4byte	0
 7202              	.LLST51:
 7203 087f CA010000 		.4byte	.LVL146
 7204 0883 2A020000 		.4byte	.LVL153
 7205 0887 0300     		.2byte	0x3
 7206 0889 09       		.byte	0x9
 7207 088a FF       		.byte	0xff
 7208 088b 9F       		.byte	0x9f
 7209 088c 2A020000 		.4byte	.LVL153
 7210 0890 2C020000 		.4byte	.LVL154
 7211 0894 0100     		.2byte	0x1
 7212 0896 50       		.byte	0x50
 7213 0897 2C020000 		.4byte	.LVL154
 7214 089b 34020000 		.4byte	.LVL156
 7215 089f 0300     		.2byte	0x3
 7216 08a1 09       		.byte	0x9
 7217 08a2 FF       		.byte	0xff
 7218 08a3 9F       		.byte	0x9f
 7219 08a4 34020000 		.4byte	.LVL156
 7220 08a8 66030000 		.4byte	.LVL192
 7221 08ac 0300     		.2byte	0x3
 7222 08ae 91       		.byte	0x91
 7223 08af E87D     		.sleb128 -280
 7224 08b1 00000000 		.4byte	0
 7225 08b5 00000000 		.4byte	0
 7226              	.LLST52:
 7227 08b9 44020000 		.4byte	.LVL158
 7228 08bd 66030000 		.4byte	.LVL192
 7229 08c1 0700     		.2byte	0x7
 7230 08c3 76       		.byte	0x76
 7231 08c4 00       		.sleb128 0
 7232 08c5 40       		.byte	0x40
 7233 08c6 24       		.byte	0x24
 7234 08c7 40       		.byte	0x40
 7235 08c8 26       		.byte	0x26
 7236 08c9 9F       		.byte	0x9f
 7237 08ca 00000000 		.4byte	0
 7238 08ce 00000000 		.4byte	0
 7239              	.LLST53:
 7240 08d2 9C020000 		.4byte	.LVL172
 7241 08d6 66030000 		.4byte	.LVL192
ARM GAS  C:\Users\haske\AppData\Local\Temp\ccpgnYma.s 			page 139


 7242 08da 0100     		.2byte	0x1
 7243 08dc 55       		.byte	0x55
 7244 08dd 00000000 		.4byte	0
 7245 08e1 00000000 		.4byte	0
 7246              	.LLST54:
 7247 08e5 4E020000 		.4byte	.LVL161
 7248 08e9 50020000 		.4byte	.LVL162
 7249 08ed 0100     		.2byte	0x1
 7250 08ef 50       		.byte	0x50
 7251 08f0 50020000 		.4byte	.LVL162
 7252 08f4 60020000 		.4byte	.LVL165
 7253 08f8 0100     		.2byte	0x1
 7254 08fa 57       		.byte	0x57
 7255 08fb 00000000 		.4byte	0
 7256 08ff 00000000 		.4byte	0
 7257              	.LLST55:
 7258 0903 60020000 		.4byte	.LVL165
 7259 0907 A2020000 		.4byte	.LVL174
 7260 090b 0100     		.2byte	0x1
 7261 090d 57       		.byte	0x57
 7262 090e A2020000 		.4byte	.LVL174
 7263 0912 66030000 		.4byte	.LVL192
 7264 0916 0100     		.2byte	0x1
 7265 0918 5A       		.byte	0x5a
 7266 0919 00000000 		.4byte	0
 7267 091d 00000000 		.4byte	0
 7268              	.LLST56:
 7269 0921 68020000 		.4byte	.LVL167
 7270 0925 7B020000 		.4byte	.LVL170-1
 7271 0929 0100     		.2byte	0x1
 7272 092b 50       		.byte	0x50
 7273 092c 7B020000 		.4byte	.LVL170-1
 7274 0930 66030000 		.4byte	.LVL192
 7275 0934 0100     		.2byte	0x1
 7276 0936 58       		.byte	0x58
 7277 0937 00000000 		.4byte	0
 7278 093b 00000000 		.4byte	0
 7279              	.LLST57:
 7280 093f 70020000 		.4byte	.LVL168
 7281 0943 66030000 		.4byte	.LVL192
 7282 0947 0100     		.2byte	0x1
 7283 0949 5B       		.byte	0x5b
 7284 094a 00000000 		.4byte	0
 7285 094e 00000000 		.4byte	0
 7286              	.LLST58:
 7287 0952 76020000 		.4byte	.LVL169
 7288 0956 A2020000 		.4byte	.LVL174
 7289 095a 0200     		.2byte	0x2
 7290 095c 30       		.byte	0x30
 7291 095d 9F       		.byte	0x9f
 7292 095e A2020000 		.4byte	.LVL174
 7293 0962 F4020000 		.4byte	.LVL179
 7294 0966 0100     		.2byte	0x1
 7295 0968 54       		.byte	0x54
 7296 0969 F4020000 		.4byte	.LVL179
 7297 096d FE020000 		.4byte	.LVL181
 7298 0971 0200     		.2byte	0x2
ARM GAS  C:\Users\haske\AppData\Local\Temp\ccpgnYma.s 			page 140


 7299 0973 30       		.byte	0x30
 7300 0974 9F       		.byte	0x9f
 7301 0975 FE020000 		.4byte	.LVL181
 7302 0979 66030000 		.4byte	.LVL192
 7303 097d 0100     		.2byte	0x1
 7304 097f 54       		.byte	0x54
 7305 0980 00000000 		.4byte	0
 7306 0984 00000000 		.4byte	0
 7307              	.LLST59:
 7308 0988 34020000 		.4byte	.LVL156
 7309 098c 36020000 		.4byte	.LVL157
 7310 0990 0300     		.2byte	0x3
 7311 0992 91       		.byte	0x91
 7312 0993 48       		.sleb128 -56
 7313 0994 9F       		.byte	0x9f
 7314 0995 36020000 		.4byte	.LVL157
 7315 0999 44020000 		.4byte	.LVL158
 7316 099d 0100     		.2byte	0x1
 7317 099f 54       		.byte	0x54
 7318 09a0 00000000 		.4byte	0
 7319 09a4 00000000 		.4byte	0
 7320              	.LLST60:
 7321 09a8 00000000 		.4byte	.LVL194
 7322 09ac 2E000000 		.4byte	.LVL197
 7323 09b0 0100     		.2byte	0x1
 7324 09b2 50       		.byte	0x50
 7325 09b3 2E000000 		.4byte	.LVL197
 7326 09b7 C2010000 		.4byte	.LVL218
 7327 09bb 0100     		.2byte	0x1
 7328 09bd 57       		.byte	0x57
 7329 09be C2010000 		.4byte	.LVL218
 7330 09c2 D0010000 		.4byte	.LFE159
 7331 09c6 0400     		.2byte	0x4
 7332 09c8 F3       		.byte	0xf3
 7333 09c9 01       		.uleb128 0x1
 7334 09ca 50       		.byte	0x50
 7335 09cb 9F       		.byte	0x9f
 7336 09cc 00000000 		.4byte	0
 7337 09d0 00000000 		.4byte	0
 7338              	.LLST61:
 7339 09d4 00000000 		.4byte	.LVL194
 7340 09d8 2A000000 		.4byte	.LVL196
 7341 09dc 0100     		.2byte	0x1
 7342 09de 51       		.byte	0x51
 7343 09df 2A000000 		.4byte	.LVL196
 7344 09e3 9A010000 		.4byte	.LVL214
 7345 09e7 0100     		.2byte	0x1
 7346 09e9 54       		.byte	0x54
 7347 09ea 9A010000 		.4byte	.LVL214
 7348 09ee D0010000 		.4byte	.LFE159
 7349 09f2 0400     		.2byte	0x4
 7350 09f4 F3       		.byte	0xf3
 7351 09f5 01       		.uleb128 0x1
 7352 09f6 51       		.byte	0x51
 7353 09f7 9F       		.byte	0x9f
 7354 09f8 00000000 		.4byte	0
 7355 09fc 00000000 		.4byte	0
ARM GAS  C:\Users\haske\AppData\Local\Temp\ccpgnYma.s 			page 141


 7356              	.LLST62:
 7357 0a00 00000000 		.4byte	.LVL194
 7358 0a04 18000000 		.4byte	.LVL195
 7359 0a08 0100     		.2byte	0x1
 7360 0a0a 52       		.byte	0x52
 7361 0a0b 18000000 		.4byte	.LVL195
 7362 0a0f 58010000 		.4byte	.LVL212
 7363 0a13 0100     		.2byte	0x1
 7364 0a15 56       		.byte	0x56
 7365 0a16 58010000 		.4byte	.LVL212
 7366 0a1a D0010000 		.4byte	.LFE159
 7367 0a1e 0400     		.2byte	0x4
 7368 0a20 F3       		.byte	0xf3
 7369 0a21 01       		.uleb128 0x1
 7370 0a22 52       		.byte	0x52
 7371 0a23 9F       		.byte	0x9f
 7372 0a24 00000000 		.4byte	0
 7373 0a28 00000000 		.4byte	0
 7374              	.LLST63:
 7375 0a2c 00000000 		.4byte	.LVL194
 7376 0a30 18000000 		.4byte	.LVL195
 7377 0a34 0100     		.2byte	0x1
 7378 0a36 53       		.byte	0x53
 7379 0a37 18000000 		.4byte	.LVL195
 7380 0a3b C2010000 		.4byte	.LVL217
 7381 0a3f 0100     		.2byte	0x1
 7382 0a41 55       		.byte	0x55
 7383 0a42 C2010000 		.4byte	.LVL217
 7384 0a46 D0010000 		.4byte	.LFE159
 7385 0a4a 0400     		.2byte	0x4
 7386 0a4c F3       		.byte	0xf3
 7387 0a4d 01       		.uleb128 0x1
 7388 0a4e 53       		.byte	0x53
 7389 0a4f 9F       		.byte	0x9f
 7390 0a50 00000000 		.4byte	0
 7391 0a54 00000000 		.4byte	0
 7392              	.LLST64:
 7393 0a58 B8000000 		.4byte	.LVL198
 7394 0a5c DA000000 		.4byte	.LVL201
 7395 0a60 0100     		.2byte	0x1
 7396 0a62 50       		.byte	0x50
 7397 0a63 E0000000 		.4byte	.LVL203
 7398 0a67 F4000000 		.4byte	.LVL204
 7399 0a6b 0100     		.2byte	0x1
 7400 0a6d 50       		.byte	0x50
 7401 0a6e FA000000 		.4byte	.LVL206
 7402 0a72 02010000 		.4byte	.LVL207
 7403 0a76 0100     		.2byte	0x1
 7404 0a78 50       		.byte	0x50
 7405 0a79 00000000 		.4byte	0
 7406 0a7d 00000000 		.4byte	0
 7407              	.LLST65:
 7408 0a81 C2000000 		.4byte	.LVL199
 7409 0a85 C4000000 		.4byte	.LVL200
 7410 0a89 0100     		.2byte	0x1
 7411 0a8b 53       		.byte	0x53
 7412 0a8c C4000000 		.4byte	.LVL200
ARM GAS  C:\Users\haske\AppData\Local\Temp\ccpgnYma.s 			page 142


 7413 0a90 C0010000 		.4byte	.LVL216
 7414 0a94 0100     		.2byte	0x1
 7415 0a96 59       		.byte	0x59
 7416 0a97 00000000 		.4byte	0
 7417 0a9b 00000000 		.4byte	0
 7418              	.LLST66:
 7419 0a9f 2A010000 		.4byte	.LVL210
 7420 0aa3 BC010000 		.4byte	.LVL215
 7421 0aa7 0700     		.2byte	0x7
 7422 0aa9 78       		.byte	0x78
 7423 0aaa 00       		.sleb128 0
 7424 0aab 40       		.byte	0x40
 7425 0aac 24       		.byte	0x24
 7426 0aad 40       		.byte	0x40
 7427 0aae 26       		.byte	0x26
 7428 0aaf 9F       		.byte	0x9f
 7429 0ab0 00000000 		.4byte	0
 7430 0ab4 00000000 		.4byte	0
 7431              	.LLST67:
 7432 0ab8 36010000 		.4byte	.LVL211
 7433 0abc BC010000 		.4byte	.LVL215
 7434 0ac0 0600     		.2byte	0x6
 7435 0ac2 7A       		.byte	0x7a
 7436 0ac3 00       		.sleb128 0
 7437 0ac4 08       		.byte	0x8
 7438 0ac5 FF       		.byte	0xff
 7439 0ac6 1A       		.byte	0x1a
 7440 0ac7 9F       		.byte	0x9f
 7441 0ac8 00000000 		.4byte	0
 7442 0acc 00000000 		.4byte	0
 7443              		.section	.debug_aranges,"",%progbits
 7444 0000 34000000 		.4byte	0x34
 7445 0004 0200     		.2byte	0x2
 7446 0006 00000000 		.4byte	.Ldebug_info0
 7447 000a 04       		.byte	0x4
 7448 000b 00       		.byte	0
 7449 000c 0000     		.2byte	0
 7450 000e 0000     		.2byte	0
 7451 0010 00000000 		.4byte	.LFB160
 7452 0014 B8010000 		.4byte	.LFE160-.LFB160
 7453 0018 00000000 		.4byte	.LFB161
 7454 001c 94010000 		.4byte	.LFE161-.LFB161
 7455 0020 00000000 		.4byte	.LFB162
 7456 0024 78030000 		.4byte	.LFE162-.LFB162
 7457 0028 00000000 		.4byte	.LFB159
 7458 002c D0010000 		.4byte	.LFE159-.LFB159
 7459 0030 00000000 		.4byte	0
 7460 0034 00000000 		.4byte	0
 7461              		.section	.debug_ranges,"",%progbits
 7462              	.Ldebug_ranges0:
 7463 0000 3E010000 		.4byte	.LBB15
 7464 0004 72010000 		.4byte	.LBE15
 7465 0008 78010000 		.4byte	.LBB17
 7466 000c 84010000 		.4byte	.LBE17
 7467 0010 00000000 		.4byte	0
 7468 0014 00000000 		.4byte	0
 7469 0018 00000000 		.4byte	.LFB160
ARM GAS  C:\Users\haske\AppData\Local\Temp\ccpgnYma.s 			page 143


 7470 001c B8010000 		.4byte	.LFE160
 7471 0020 00000000 		.4byte	.LFB161
 7472 0024 94010000 		.4byte	.LFE161
 7473 0028 00000000 		.4byte	.LFB162
 7474 002c 78030000 		.4byte	.LFE162
 7475 0030 00000000 		.4byte	.LFB159
 7476 0034 D0010000 		.4byte	.LFE159
 7477 0038 00000000 		.4byte	0
 7478 003c 00000000 		.4byte	0
 7479              		.section	.debug_line,"",%progbits
 7480              	.Ldebug_line0:
 7481 0000 A4060000 		.section	.debug_str,"MS",%progbits,1
 7481      02008304 
 7481      00000201 
 7481      FB0E0D00 
 7481      01010101 
 7482              	.LASF15:
 7483 0000 696E7438 		.ascii	"int8_t\000"
 7483      5F7400
 7484              	.LASF203:
 7485 0007 64726177 		.ascii	"draw_line_ver\000"
 7485      5F6C696E 
 7485      655F7665 
 7485      7200
 7486              	.LASF70:
 7487 0015 4C565F44 		.ascii	"LV_DRAW_MASK_RES_FULL_COVER\000"
 7487      5241575F 
 7487      4D41534B 
 7487      5F524553 
 7487      5F46554C 
 7488              	.LASF22:
 7489 0031 73697A65 		.ascii	"size_t\000"
 7489      5F7400
 7490              	.LASF36:
 7491 0038 6164765F 		.ascii	"adv_w\000"
 7491      7700
 7492              	.LASF24:
 7493 003e 73697A65 		.ascii	"sizetype\000"
 7493      74797065 
 7493      00
 7494              	.LASF181:
 7495 0047 64726177 		.ascii	"draw_bg\000"
 7495      5F626700 
 7496              	.LASF31:
 7497 004f 6C765F6F 		.ascii	"lv_opa_t\000"
 7497      70615F74 
 7497      00
 7498              	.LASF149:
 7499 0058 7261775F 		.ascii	"raw_end\000"
 7499      656E6400 
 7500              	.LASF19:
 7501 0060 696E7433 		.ascii	"int32_t\000"
 7501      325F7400 
 7502              	.LASF33:
 7503 0068 6C765F70 		.ascii	"lv_point_t\000"
 7503      6F696E74 
 7503      5F7400
ARM GAS  C:\Users\haske\AppData\Local\Temp\ccpgnYma.s 			page 144


 7504              	.LASF75:
 7505 0073 4C565F44 		.ascii	"LV_DRAW_MASK_LINE_SIDE_LEFT\000"
 7505      5241575F 
 7505      4D41534B 
 7505      5F4C494E 
 7505      455F5349 
 7506              	.LASF100:
 7507 008f 62675F63 		.ascii	"bg_color\000"
 7507      6F6C6F72 
 7507      00
 7508              	.LASF44:
 7509 0098 6C696E65 		.ascii	"line_height\000"
 7509      5F686569 
 7509      67687400 
 7510              	.LASF57:
 7511 00a4 6C765F62 		.ascii	"lv_blend_mode_t\000"
 7511      6C656E64 
 7511      5F6D6F64 
 7511      655F7400 
 7512              	.LASF131:
 7513 00b4 62696469 		.ascii	"bidi_dir\000"
 7513      5F646972 
 7513      00
 7514              	.LASF157:
 7515 00bd 4C565F44 		.ascii	"LV_DRAW_LAYER_FLAG_HAS_ALPHA\000"
 7515      5241575F 
 7515      4C415945 
 7515      525F464C 
 7515      41475F48 
 7516              	.LASF98:
 7517 00da 72616469 		.ascii	"radius\000"
 7517      757300
 7518              	.LASF137:
 7519 00e1 7A6F6F6D 		.ascii	"zoom\000"
 7519      00
 7520              	.LASF73:
 7521 00e6 6C765F64 		.ascii	"lv_draw_mask_res_t\000"
 7521      7261775F 
 7521      6D61736B 
 7521      5F726573 
 7521      5F7400
 7522              	.LASF173:
 7523 00f9 64726177 		.ascii	"draw_rect\000"
 7523      5F726563 
 7523      7400
 7524              	.LASF96:
 7525 0103 6C765F64 		.ascii	"lv_draw_sw_blend_dsc_t\000"
 7525      7261775F 
 7525      73775F62 
 7525      6C656E64 
 7525      5F647363 
 7526              	.LASF229:
 7527 011a 6C765F64 		.ascii	"lv_draw_sw_blend\000"
 7527      7261775F 
 7527      73775F62 
 7527      6C656E64 
 7527      00
ARM GAS  C:\Users\haske\AppData\Local\Temp\ccpgnYma.s 			page 145


 7528              	.LASF172:
 7529 012b 696E6974 		.ascii	"init_buf\000"
 7529      5F627566 
 7529      00
 7530              	.LASF154:
 7531 0134 726F756E 		.ascii	"rounded\000"
 7531      64656400 
 7532              	.LASF171:
 7533 013c 5F6C765F 		.ascii	"_lv_draw_ctx_t\000"
 7533      64726177 
 7533      5F637478 
 7533      5F7400
 7534              	.LASF81:
 7535 014b 74797065 		.ascii	"type\000"
 7535      00
 7536              	.LASF228:
 7537 0150 6C765F64 		.ascii	"lv_draw_mask_apply\000"
 7537      7261775F 
 7537      6D61736B 
 7537      5F617070 
 7537      6C7900
 7538              	.LASF102:
 7539 0163 62675F69 		.ascii	"bg_img_src\000"
 7539      6D675F73 
 7539      726300
 7540              	.LASF128:
 7541 016e 73656C5F 		.ascii	"sel_bg_color\000"
 7541      62675F63 
 7541      6F6C6F72 
 7541      00
 7542              	.LASF200:
 7543 017b 64617368 		.ascii	"dash_cnt\000"
 7543      5F636E74 
 7543      00
 7544              	.LASF112:
 7545 0184 626F7264 		.ascii	"border_side\000"
 7545      65725F73 
 7545      69646500 
 7546              	.LASF1:
 7547 0190 5F5F7569 		.ascii	"__uint8_t\000"
 7547      6E74385F 
 7547      7400
 7548              	.LASF216:
 7549 019a 6D61736B 		.ascii	"mask_top_id\000"
 7549      5F746F70 
 7549      5F696400 
 7550              	.LASF95:
 7551 01a6 626C656E 		.ascii	"blend_mode\000"
 7551      645F6D6F 
 7551      646500
 7552              	.LASF198:
 7553 01b1 626C656E 		.ascii	"blend_area_w\000"
 7553      645F6172 
 7553      65615F77 
 7553      00
 7554              	.LASF86:
 7555 01be 79785F73 		.ascii	"yx_steep\000"
ARM GAS  C:\Users\haske\AppData\Local\Temp\ccpgnYma.s 			page 146


 7555      74656570 
 7555      00
 7556              	.LASF201:
 7557 01c7 64696666 		.ascii	"diff\000"
 7557      00
 7558              	.LASF9:
 7559 01cc 6C6F6E67 		.ascii	"long int\000"
 7559      20696E74 
 7559      00
 7560              	.LASF99:
 7561 01d5 62675F6F 		.ascii	"bg_opa\000"
 7561      706100
 7562              	.LASF135:
 7563 01dc 6C765F64 		.ascii	"lv_draw_label_dsc_t\000"
 7563      7261775F 
 7563      6C616265 
 7563      6C5F6473 
 7563      635F7400 
 7564              	.LASF225:
 7565 01f0 6369725F 		.ascii	"cir_area\000"
 7565      61726561 
 7565      00
 7566              	.LASF247:
 7567 01f9 61726561 		.ascii	"area_p\000"
 7567      5F7000
 7568              	.LASF232:
 7569 0200 6C765F64 		.ascii	"lv_draw_mask_is_any\000"
 7569      7261775F 
 7569      6D61736B 
 7569      5F69735F 
 7569      616E7900 
 7570              	.LASF192:
 7571 0214 775F6861 		.ascii	"w_half0\000"
 7571      6C663000 
 7572              	.LASF193:
 7573 021c 775F6861 		.ascii	"w_half1\000"
 7573      6C663100 
 7574              	.LASF183:
 7575 0224 62756666 		.ascii	"buffer_copy\000"
 7575      65725F63 
 7575      6F707900 
 7576              	.LASF113:
 7577 0230 6F75746C 		.ascii	"outline_color\000"
 7577      696E655F 
 7577      636F6C6F 
 7577      7200
 7578              	.LASF2:
 7579 023e 7369676E 		.ascii	"signed char\000"
 7579      65642063 
 7579      68617200 
 7580              	.LASF196:
 7581 024a 73696D70 		.ascii	"simple_mode\000"
 7581      6C655F6D 
 7581      6F646500 
 7582              	.LASF16:
 7583 0256 75696E74 		.ascii	"uint8_t\000"
 7583      385F7400 
ARM GAS  C:\Users\haske\AppData\Local\Temp\ccpgnYma.s 			page 147


 7584              	.LASF178:
 7585 025e 64726177 		.ascii	"draw_line\000"
 7585      5F6C696E 
 7585      6500
 7586              	.LASF218:
 7587 0268 686F725F 		.ascii	"hor_res\000"
 7587      72657300 
 7588              	.LASF93:
 7589 0270 6D61736B 		.ascii	"mask_res\000"
 7589      5F726573 
 7589      00
 7590              	.LASF207:
 7591 0279 79646966 		.ascii	"ydiff\000"
 7591      6600
 7592              	.LASF107:
 7593 027f 62675F69 		.ascii	"bg_img_tiled\000"
 7593      6D675F74 
 7593      696C6564 
 7593      00
 7594              	.LASF43:
 7595 028c 6765745F 		.ascii	"get_glyph_bitmap\000"
 7595      676C7970 
 7595      685F6269 
 7595      746D6170 
 7595      00
 7596              	.LASF152:
 7597 029d 656E645F 		.ascii	"end_angle\000"
 7597      616E676C 
 7597      6500
 7598              	.LASF26:
 7599 02a7 626C7565 		.ascii	"blue\000"
 7599      00
 7600              	.LASF105:
 7601 02ac 62675F69 		.ascii	"bg_img_opa\000"
 7601      6D675F6F 
 7601      706100
 7602              	.LASF3:
 7603 02b7 756E7369 		.ascii	"unsigned char\000"
 7603      676E6564 
 7603      20636861 
 7603      7200
 7604              	.LASF150:
 7605 02c5 6C765F64 		.ascii	"lv_draw_line_dsc_t\000"
 7605      7261775F 
 7605      6C696E65 
 7605      5F647363 
 7605      5F7400
 7606              	.LASF166:
 7607 02d8 61726561 		.ascii	"area_act\000"
 7607      5F616374 
 7607      00
 7608              	.LASF215:
 7609 02e1 6D61736B 		.ascii	"mask_right_id\000"
 7609      5F726967 
 7609      68745F69 
 7609      6400
 7610              	.LASF39:
ARM GAS  C:\Users\haske\AppData\Local\Temp\ccpgnYma.s 			page 148


 7611 02ef 6F66735F 		.ascii	"ofs_x\000"
 7611      7800
 7612              	.LASF40:
 7613 02f5 6F66735F 		.ascii	"ofs_y\000"
 7613      7900
 7614              	.LASF56:
 7615 02fb 6C765F62 		.ascii	"lv_base_dir_t\000"
 7615      6173655F 
 7615      6469725F 
 7615      7400
 7616              	.LASF52:
 7617 0309 5F426F6F 		.ascii	"_Bool\000"
 7617      6C00
 7618              	.LASF238:
 7619 030f 6C765F61 		.ascii	"lv_area_get_size\000"
 7619      7265615F 
 7619      6765745F 
 7619      73697A65 
 7619      00
 7620              	.LASF169:
 7621 0320 6F726967 		.ascii	"original\000"
 7621      696E616C 
 7621      00
 7622              	.LASF243:
 7623 0329 474E5520 		.ascii	"GNU C11 5.4.1 20160609 (release) [ARM/embedded-5-br"
 7623      43313120 
 7623      352E342E 
 7623      31203230 
 7623      31363036 
 7624 035c 616E6368 		.ascii	"anch revision 237715] -mcpu=cortex-m0plus -mthumb -"
 7624      20726576 
 7624      6973696F 
 7624      6E203233 
 7624      37373135 
 7625 038f 67202D4F 		.ascii	"g -Og -ffunction-sections -ffat-lto-objects\000"
 7625      67202D66 
 7625      66756E63 
 7625      74696F6E 
 7625      2D736563 
 7626              	.LASF233:
 7627 03bb 6C765F6D 		.ascii	"lv_memset_00\000"
 7627      656D7365 
 7627      745F3030 
 7627      00
 7628              	.LASF159:
 7629 03c8 6C765F64 		.ascii	"lv_draw_layer_flags_t\000"
 7629      7261775F 
 7629      6C617965 
 7629      725F666C 
 7629      6167735F 
 7630              	.LASF25:
 7631 03de 63686172 		.ascii	"char\000"
 7631      00
 7632              	.LASF143:
 7633 03e3 6C765F64 		.ascii	"lv_draw_img_dsc_t\000"
 7633      7261775F 
 7633      696D675F 
ARM GAS  C:\Users\haske\AppData\Local\Temp\ccpgnYma.s 			page 149


 7633      6473635F 
 7633      7400
 7634              	.LASF47:
 7635 03f5 756E6465 		.ascii	"underline_position\000"
 7635      726C696E 
 7635      655F706F 
 7635      73697469 
 7635      6F6E00
 7636              	.LASF188:
 7637 0408 6C617965 		.ascii	"layer_instance_size\000"
 7637      725F696E 
 7637      7374616E 
 7637      63655F73 
 7637      697A6500 
 7638              	.LASF223:
 7639 041c 6369725F 		.ascii	"cir_dsc\000"
 7639      64736300 
 7640              	.LASF146:
 7641 0424 64617368 		.ascii	"dash_gap\000"
 7641      5F676170 
 7641      00
 7642              	.LASF180:
 7643 042d 64726177 		.ascii	"draw_transform\000"
 7643      5F747261 
 7643      6E73666F 
 7643      726D00
 7644              	.LASF66:
 7645 043c 73746F70 		.ascii	"stops_count\000"
 7645      735F636F 
 7645      756E7400 
 7646              	.LASF6:
 7647 0448 5F5F7569 		.ascii	"__uint16_t\000"
 7647      6E743136 
 7647      5F7400
 7648              	.LASF115:
 7649 0453 6F75746C 		.ascii	"outline_pad\000"
 7649      696E655F 
 7649      70616400 
 7650              	.LASF108:
 7651 045f 626F7264 		.ascii	"border_color\000"
 7651      65725F63 
 7651      6F6C6F72 
 7651      00
 7652              	.LASF237:
 7653 046c 6C765F64 		.ascii	"lv_disp_get_hor_res\000"
 7653      6973705F 
 7653      6765745F 
 7653      686F725F 
 7653      72657300 
 7654              	.LASF111:
 7655 0480 626F7264 		.ascii	"border_post\000"
 7655      65725F70 
 7655      6F737400 
 7656              	.LASF147:
 7657 048c 726F756E 		.ascii	"round_start\000"
 7657      645F7374 
 7657      61727400 
ARM GAS  C:\Users\haske\AppData\Local\Temp\ccpgnYma.s 			page 150


 7658              	.LASF49:
 7659 0498 66616C6C 		.ascii	"fallback\000"
 7659      6261636B 
 7659      00
 7660              	.LASF204:
 7661 04a1 64726177 		.ascii	"draw_area_w\000"
 7661      5F617265 
 7661      615F7700 
 7662              	.LASF231:
 7663 04ad 5F6C765F 		.ascii	"_lv_area_intersect\000"
 7663      61726561 
 7663      5F696E74 
 7663      65727365 
 7663      637400
 7664              	.LASF205:
 7665 04c0 64726177 		.ascii	"draw_line_skew\000"
 7665      5F6C696E 
 7665      655F736B 
 7665      657700
 7666              	.LASF34:
 7667 04cf 6C765F61 		.ascii	"lv_area_t\000"
 7667      7265615F 
 7667      7400
 7668              	.LASF184:
 7669 04d9 6C617965 		.ascii	"layer_init\000"
 7669      725F696E 
 7669      697400
 7670              	.LASF213:
 7671 04e4 6D61736B 		.ascii	"mask_bottom_param\000"
 7671      5F626F74 
 7671      746F6D5F 
 7671      70617261 
 7671      6D00
 7672              	.LASF244:
 7673 04f6 2E2E5C2E 		.ascii	"..\\..\\..\\arduinoLCD\\test\\Pain Drain\\libraries"
 7673      2E5C2E2E 
 7673      5C617264 
 7673      75696E6F 
 7673      4C43445C 
 7674 0523 5C6C7667 		.ascii	"\\lvgl\\src\\draw\\sw\\lv_draw_sw_line.c\000"
 7674      6C5C7372 
 7674      635C6472 
 7674      61775C73 
 7674      775C6C76 
 7675              	.LASF148:
 7676 0547 726F756E 		.ascii	"round_end\000"
 7676      645F656E 
 7676      6400
 7677              	.LASF153:
 7678 0551 696D675F 		.ascii	"img_src\000"
 7678      73726300 
 7679              	.LASF241:
 7680 0559 6C765F64 		.ascii	"lv_draw_rect_dsc_init\000"
 7680      7261775F 
 7680      72656374 
 7680      5F647363 
 7680      5F696E69 
ARM GAS  C:\Users\haske\AppData\Local\Temp\ccpgnYma.s 			page 151


 7681              	.LASF121:
 7682 056f 73686164 		.ascii	"shadow_spread\000"
 7682      6F775F73 
 7682      70726561 
 7682      6400
 7683              	.LASF78:
 7684 057d 4C565F44 		.ascii	"LV_DRAW_MASK_LINE_SIDE_BOTTOM\000"
 7684      5241575F 
 7684      4D41534B 
 7684      5F4C494E 
 7684      455F5349 
 7685              	.LASF87:
 7686 059b 73746565 		.ascii	"steep\000"
 7686      7000
 7687              	.LASF103:
 7688 05a1 62675F69 		.ascii	"bg_img_symbol_font\000"
 7688      6D675F73 
 7688      796D626F 
 7688      6C5F666F 
 7688      6E7400
 7689              	.LASF11:
 7690 05b4 6C6F6E67 		.ascii	"long unsigned int\000"
 7690      20756E73 
 7690      69676E65 
 7690      6420696E 
 7690      7400
 7691              	.LASF97:
 7692 05c6 6C765F69 		.ascii	"lv_img_cf_t\000"
 7692      6D675F63 
 7692      665F7400 
 7693              	.LASF151:
 7694 05d2 73746172 		.ascii	"start_angle\000"
 7694      745F616E 
 7694      676C6500 
 7695              	.LASF187:
 7696 05de 6C617965 		.ascii	"layer_destroy\000"
 7696      725F6465 
 7696      7374726F 
 7696      7900
 7697              	.LASF145:
 7698 05ec 64617368 		.ascii	"dash_width\000"
 7698      5F776964 
 7698      746800
 7699              	.LASF71:
 7700 05f7 4C565F44 		.ascii	"LV_DRAW_MASK_RES_CHANGED\000"
 7700      5241575F 
 7700      4D41534B 
 7700      5F524553 
 7700      5F434841 
 7701              	.LASF35:
 7702 0610 7265736F 		.ascii	"resolved_font\000"
 7702      6C766564 
 7702      5F666F6E 
 7702      7400
 7703              	.LASF230:
 7704 061e 6C765F6D 		.ascii	"lv_mem_buf_release\000"
 7704      656D5F62 
ARM GAS  C:\Users\haske\AppData\Local\Temp\ccpgnYma.s 			page 152


 7704      75665F72 
 7704      656C6561 
 7704      736500
 7705              	.LASF174:
 7706 0631 64726177 		.ascii	"draw_arc\000"
 7706      5F617263 
 7706      00
 7707              	.LASF197:
 7708 063a 626C656E 		.ascii	"blend_dsc\000"
 7708      645F6473 
 7708      6300
 7709              	.LASF161:
 7710 0644 6275665F 		.ascii	"buf_area\000"
 7710      61726561 
 7710      00
 7711              	.LASF139:
 7712 064d 7265636F 		.ascii	"recolor\000"
 7712      6C6F7200 
 7713              	.LASF136:
 7714 0655 616E676C 		.ascii	"angle\000"
 7714      6500
 7715              	.LASF194:
 7716 065b 69735F63 		.ascii	"is_common\000"
 7716      6F6D6D6F 
 7716      6E00
 7717              	.LASF175:
 7718 0665 64726177 		.ascii	"draw_img_decoded\000"
 7718      5F696D67 
 7718      5F646563 
 7718      6F646564 
 7718      00
 7719              	.LASF209:
 7720 0676 77636F72 		.ascii	"wcorr_i\000"
 7720      725F6900 
 7721              	.LASF76:
 7722 067e 4C565F44 		.ascii	"LV_DRAW_MASK_LINE_SIDE_RIGHT\000"
 7722      5241575F 
 7722      4D41534B 
 7722      5F4C494E 
 7722      455F5349 
 7723              	.LASF163:
 7724 069b 5F6C765F 		.ascii	"_lv_font_t\000"
 7724      666F6E74 
 7724      5F7400
 7725              	.LASF10:
 7726 06a6 5F5F7569 		.ascii	"__uint32_t\000"
 7726      6E743332 
 7726      5F7400
 7727              	.LASF58:
 7728 06b1 6C765F74 		.ascii	"lv_text_decor_t\000"
 7728      6578745F 
 7728      6465636F 
 7728      725F7400 
 7729              	.LASF12:
 7730 06c1 6C6F6E67 		.ascii	"long long int\000"
 7730      206C6F6E 
 7730      6720696E 
ARM GAS  C:\Users\haske\AppData\Local\Temp\ccpgnYma.s 			page 153


 7730      7400
 7731              	.LASF117:
 7732 06cf 73686164 		.ascii	"shadow_color\000"
 7732      6F775F63 
 7732      6F6C6F72 
 7732      00
 7733              	.LASF144:
 7734 06dc 77696474 		.ascii	"width\000"
 7734      6800
 7735              	.LASF92:
 7736 06e2 6D61736B 		.ascii	"mask_buf\000"
 7736      5F627566 
 7736      00
 7737              	.LASF240:
 7738 06eb 6C765F64 		.ascii	"lv_draw_mask_remove_id\000"
 7738      7261775F 
 7738      6D61736B 
 7738      5F72656D 
 7738      6F76655F 
 7739              	.LASF202:
 7740 0702 64726177 		.ascii	"draw_line_hor\000"
 7740      5F6C696E 
 7740      655F686F 
 7740      7200
 7741              	.LASF182:
 7742 0710 77616974 		.ascii	"wait_for_finish\000"
 7742      5F666F72 
 7742      5F66696E 
 7742      69736800 
 7743              	.LASF235:
 7744 0720 6C765F64 		.ascii	"lv_draw_mask_add\000"
 7744      7261775F 
 7744      6D61736B 
 7744      5F616464 
 7744      00
 7745              	.LASF156:
 7746 0731 4C565F44 		.ascii	"LV_DRAW_LAYER_FLAG_NONE\000"
 7746      5241575F 
 7746      4C415945 
 7746      525F464C 
 7746      41475F4E 
 7747              	.LASF227:
 7748 0749 6C765F6D 		.ascii	"lv_memset_ff\000"
 7748      656D7365 
 7748      745F6666 
 7748      00
 7749              	.LASF55:
 7750 0756 6C765F74 		.ascii	"lv_text_align_t\000"
 7750      6578745F 
 7750      616C6967 
 7750      6E5F7400 
 7751              	.LASF48:
 7752 0766 756E6465 		.ascii	"underline_thickness\000"
 7752      726C696E 
 7752      655F7468 
 7752      69636B6E 
 7752      65737300 
ARM GAS  C:\Users\haske\AppData\Local\Temp\ccpgnYma.s 			page 154


 7753              	.LASF132:
 7754 077a 616C6967 		.ascii	"align\000"
 7754      6E00
 7755              	.LASF85:
 7756 0780 78795F73 		.ascii	"xy_steep\000"
 7756      74656570 
 7756      00
 7757              	.LASF84:
 7758 0789 6F726967 		.ascii	"origo\000"
 7758      6F00
 7759              	.LASF94:
 7760 078f 6D61736B 		.ascii	"mask_area\000"
 7760      5F617265 
 7760      6100
 7761              	.LASF14:
 7762 0799 756E7369 		.ascii	"unsigned int\000"
 7762      676E6564 
 7762      20696E74 
 7762      00
 7763              	.LASF160:
 7764 07a6 636C6970 		.ascii	"clip_area\000"
 7764      5F617265 
 7764      6100
 7765              	.LASF226:
 7766 07b0 6C765F6D 		.ascii	"lv_mem_buf_get\000"
 7766      656D5F62 
 7766      75665F67 
 7766      657400
 7767              	.LASF126:
 7768 07bf 73656C5F 		.ascii	"sel_end\000"
 7768      656E6400 
 7769              	.LASF212:
 7770 07c7 6D61736B 		.ascii	"mask_top_param\000"
 7770      5F746F70 
 7770      5F706172 
 7770      616D00
 7771              	.LASF165:
 7772 07d6 61726561 		.ascii	"area_full\000"
 7772      5F66756C 
 7772      6C00
 7773              	.LASF220:
 7774 07e0 6D61736B 		.ascii	"mask_p\000"
 7774      5F7000
 7775              	.LASF214:
 7776 07e7 6D61736B 		.ascii	"mask_left_id\000"
 7776      5F6C6566 
 7776      745F6964 
 7776      00
 7777              	.LASF133:
 7778 07f4 666C6167 		.ascii	"flag\000"
 7778      00
 7779              	.LASF164:
 7780 07f9 5F6C765F 		.ascii	"_lv_draw_layer_ctx_t\000"
 7780      64726177 
 7780      5F6C6179 
 7780      65725F63 
 7780      74785F74 
ARM GAS  C:\Users\haske\AppData\Local\Temp\ccpgnYma.s 			page 155


 7781              	.LASF116:
 7782 080e 6F75746C 		.ascii	"outline_opa\000"
 7782      696E655F 
 7782      6F706100 
 7783              	.LASF88:
 7784 081a 666C6174 		.ascii	"flat\000"
 7784      00
 7785              	.LASF167:
 7786 081f 6D61785F 		.ascii	"max_row_with_alpha\000"
 7786      726F775F 
 7786      77697468 
 7786      5F616C70 
 7786      686100
 7787              	.LASF141:
 7788 0832 6672616D 		.ascii	"frame_id\000"
 7788      655F6964 
 7788      00
 7789              	.LASF140:
 7790 083b 7265636F 		.ascii	"recolor_opa\000"
 7790      6C6F725F 
 7790      6F706100 
 7791              	.LASF51:
 7792 0847 6C765F66 		.ascii	"lv_font_glyph_dsc_t\000"
 7792      6F6E745F 
 7792      676C7970 
 7792      685F6473 
 7792      635F7400 
 7793              	.LASF221:
 7794 085b 636C6970 		.ascii	"clip_line\000"
 7794      5F6C696E 
 7794      6500
 7795              	.LASF114:
 7796 0865 6F75746C 		.ascii	"outline_width\000"
 7796      696E655F 
 7796      77696474 
 7796      6800
 7797              	.LASF80:
 7798 0873 6C765F64 		.ascii	"lv_draw_mask_line_side_t\000"
 7798      7261775F 
 7798      6D61736B 
 7798      5F6C696E 
 7798      655F7369 
 7799              	.LASF142:
 7800 088c 616E7469 		.ascii	"antialias\000"
 7800      616C6961 
 7800      7300
 7801              	.LASF208:
 7802 0896 77636F72 		.ascii	"wcorr\000"
 7802      7200
 7803              	.LASF211:
 7804 089c 6D61736B 		.ascii	"mask_right_param\000"
 7804      5F726967 
 7804      68745F70 
 7804      6172616D 
 7804      00
 7805              	.LASF217:
 7806 08ad 6D61736B 		.ascii	"mask_bottom_id\000"
ARM GAS  C:\Users\haske\AppData\Local\Temp\ccpgnYma.s 			page 156


 7806      5F626F74 
 7806      746F6D5F 
 7806      696400
 7807              	.LASF222:
 7808 08bc 636C6970 		.ascii	"clip_area_ori\000"
 7808      5F617265 
 7808      615F6F72 
 7808      6900
 7809              	.LASF21:
 7810 08ca 6C765F72 		.ascii	"lv_res_t\000"
 7810      65735F74 
 7810      00
 7811              	.LASF23:
 7812 08d3 6C6F6E67 		.ascii	"long double\000"
 7812      20646F75 
 7812      626C6500 
 7813              	.LASF61:
 7814 08df 6C765F64 		.ascii	"lv_dither_mode_t\000"
 7814      69746865 
 7814      725F6D6F 
 7814      64655F74 
 7814      00
 7815              	.LASF210:
 7816 08f0 6D61736B 		.ascii	"mask_left_param\000"
 7816      5F6C6566 
 7816      745F7061 
 7816      72616D00 
 7817              	.LASF72:
 7818 0900 4C565F44 		.ascii	"LV_DRAW_MASK_RES_UNKNOWN\000"
 7818      5241575F 
 7818      4D41534B 
 7818      5F524553 
 7818      5F554E4B 
 7819              	.LASF195:
 7820 0919 64617368 		.ascii	"dashed\000"
 7820      656400
 7821              	.LASF46:
 7822 0920 73756270 		.ascii	"subpx\000"
 7822      7800
 7823              	.LASF106:
 7824 0926 62675F69 		.ascii	"bg_img_recolor_opa\000"
 7824      6D675F72 
 7824      65636F6C 
 7824      6F725F6F 
 7824      706100
 7825              	.LASF158:
 7826 0939 4C565F44 		.ascii	"LV_DRAW_LAYER_FLAG_CAN_SUBDIVIDE\000"
 7826      5241575F 
 7826      4C415945 
 7826      525F464C 
 7826      41475F43 
 7827              	.LASF242:
 7828 095a 6C765F64 		.ascii	"lv_draw_rect\000"
 7828      7261775F 
 7828      72656374 
 7828      00
 7829              	.LASF0:
ARM GAS  C:\Users\haske\AppData\Local\Temp\ccpgnYma.s 			page 157


 7830 0967 5F5F696E 		.ascii	"__int8_t\000"
 7830      74385F74 
 7830      00
 7831              	.LASF168:
 7832 0970 6D61785F 		.ascii	"max_row_with_no_alpha\000"
 7832      726F775F 
 7832      77697468 
 7832      5F6E6F5F 
 7832      616C7068 
 7833              	.LASF13:
 7834 0986 6C6F6E67 		.ascii	"long long unsigned int\000"
 7834      206C6F6E 
 7834      6720756E 
 7834      7369676E 
 7834      65642069 
 7835              	.LASF123:
 7836 099d 6C765F64 		.ascii	"lv_draw_rect_dsc_t\000"
 7836      7261775F 
 7836      72656374 
 7836      5F647363 
 7836      5F7400
 7837              	.LASF18:
 7838 09b0 75696E74 		.ascii	"uint16_t\000"
 7838      31365F74 
 7838      00
 7839              	.LASF30:
 7840 09b9 6C765F63 		.ascii	"lv_color_t\000"
 7840      6F6C6F72 
 7840      5F7400
 7841              	.LASF79:
 7842 09c4 6C765F64 		.ascii	"lv_draw_mask_xcb_t\000"
 7842      7261775F 
 7842      6D61736B 
 7842      5F786362 
 7842      5F7400
 7843              	.LASF177:
 7844 09d7 64726177 		.ascii	"draw_letter\000"
 7844      5F6C6574 
 7844      74657200 
 7845              	.LASF109:
 7846 09e3 626F7264 		.ascii	"border_width\000"
 7846      65725F77 
 7846      69647468 
 7846      00
 7847              	.LASF54:
 7848 09f0 6C765F74 		.ascii	"lv_text_flag_t\000"
 7848      6578745F 
 7848      666C6167 
 7848      5F7400
 7849              	.LASF138:
 7850 09ff 7069766F 		.ascii	"pivot\000"
 7850      7400
 7851              	.LASF90:
 7852 0a05 626C656E 		.ascii	"blend_area\000"
 7852      645F6172 
 7852      656100
 7853              	.LASF134:
ARM GAS  C:\Users\haske\AppData\Local\Temp\ccpgnYma.s 			page 158


 7854 0a10 6465636F 		.ascii	"decor\000"
 7854      7200
 7855              	.LASF89:
 7856 0a16 6C765F64 		.ascii	"lv_draw_mask_line_param_t\000"
 7856      7261775F 
 7856      6D61736B 
 7856      5F6C696E 
 7856      655F7061 
 7857              	.LASF4:
 7858 0a30 5F5F696E 		.ascii	"__int16_t\000"
 7858      7431365F 
 7858      7400
 7859              	.LASF185:
 7860 0a3a 6C617965 		.ascii	"layer_adjust\000"
 7860      725F6164 
 7860      6A757374 
 7860      00
 7861              	.LASF206:
 7862 0a47 78646966 		.ascii	"xdiff\000"
 7862      6600
 7863              	.LASF28:
 7864 0a4d 66756C6C 		.ascii	"full\000"
 7864      00
 7865              	.LASF170:
 7866 0a52 6C765F64 		.ascii	"lv_draw_layer_ctx_t\000"
 7866      7261775F 
 7866      6C617965 
 7866      725F6374 
 7866      785F7400 
 7867              	.LASF62:
 7868 0a66 636F6C6F 		.ascii	"color\000"
 7868      7200
 7869              	.LASF65:
 7870 0a6c 73746F70 		.ascii	"stops\000"
 7870      7300
 7871              	.LASF129:
 7872 0a72 6C696E65 		.ascii	"line_space\000"
 7872      5F737061 
 7872      636500
 7873              	.LASF186:
 7874 0a7d 6C617965 		.ascii	"layer_blend\000"
 7874      725F626C 
 7874      656E6400 
 7875              	.LASF59:
 7876 0a89 6C765F62 		.ascii	"lv_border_side_t\000"
 7876      6F726465 
 7876      725F7369 
 7876      64655F74 
 7876      00
 7877              	.LASF63:
 7878 0a9a 66726163 		.ascii	"frac\000"
 7878      00
 7879              	.LASF190:
 7880 0a9f 706F696E 		.ascii	"point1\000"
 7880      743100
 7881              	.LASF191:
 7882 0aa6 706F696E 		.ascii	"point2\000"
ARM GAS  C:\Users\haske\AppData\Local\Temp\ccpgnYma.s 			page 159


 7882      743200
 7883              	.LASF124:
 7884 0aad 666F6E74 		.ascii	"font\000"
 7884      00
 7885              	.LASF130:
 7886 0ab2 6C657474 		.ascii	"letter_space\000"
 7886      65725F73 
 7886      70616365 
 7886      00
 7887              	.LASF155:
 7888 0abf 6C765F64 		.ascii	"lv_draw_arc_dsc_t\000"
 7888      7261775F 
 7888      6172635F 
 7888      6473635F 
 7888      7400
 7889              	.LASF38:
 7890 0ad1 626F785F 		.ascii	"box_h\000"
 7890      6800
 7891              	.LASF104:
 7892 0ad7 62675F69 		.ascii	"bg_img_recolor\000"
 7892      6D675F72 
 7892      65636F6C 
 7892      6F7200
 7893              	.LASF29:
 7894 0ae6 6C765F63 		.ascii	"lv_color16_t\000"
 7894      6F6C6F72 
 7894      31365F74 
 7894      00
 7895              	.LASF37:
 7896 0af3 626F785F 		.ascii	"box_w\000"
 7896      7700
 7897              	.LASF5:
 7898 0af9 73686F72 		.ascii	"short int\000"
 7898      7420696E 
 7898      7400
 7899              	.LASF45:
 7900 0b03 62617365 		.ascii	"base_line\000"
 7900      5F6C696E 
 7900      6500
 7901              	.LASF249:
 7902 0b0d 6C765F66 		.ascii	"lv_font_montserrat_14\000"
 7902      6F6E745F 
 7902      6D6F6E74 
 7902      73657272 
 7902      61745F31 
 7903              	.LASF122:
 7904 0b23 73686164 		.ascii	"shadow_opa\000"
 7904      6F775F6F 
 7904      706100
 7905              	.LASF17:
 7906 0b2e 696E7431 		.ascii	"int16_t\000"
 7906      365F7400 
 7907              	.LASF162:
 7908 0b36 73637265 		.ascii	"screen_transp\000"
 7908      656E5F74 
 7908      72616E73 
 7908      7000
ARM GAS  C:\Users\haske\AppData\Local\Temp\ccpgnYma.s 			page 160


 7909              	.LASF77:
 7910 0b44 4C565F44 		.ascii	"LV_DRAW_MASK_LINE_SIDE_TOP\000"
 7910      5241575F 
 7910      4D41534B 
 7910      5F4C494E 
 7910      455F5349 
 7911              	.LASF219:
 7912 0b5f 6D61736B 		.ascii	"mask_buf_size\000"
 7912      5F627566 
 7912      5F73697A 
 7912      6500
 7913              	.LASF246:
 7914 0b6d 6C765F61 		.ascii	"lv_area_get_width\000"
 7914      7265615F 
 7914      6765745F 
 7914      77696474 
 7914      6800
 7915              	.LASF245:
 7916 0b7f 433A5C50 		.ascii	"C:\\Projects\\PainDrain\\firmware\\PainDrain\\PainD"
 7916      726F6A65 
 7916      6374735C 
 7916      5061696E 
 7916      44726169 
 7917 0bad 7261696E 		.ascii	"rain.cydsn\000"
 7917      2E637964 
 7917      736E00
 7918              	.LASF234:
 7919 0bb8 6C765F64 		.ascii	"lv_draw_mask_line_points_init\000"
 7919      7261775F 
 7919      6D61736B 
 7919      5F6C696E 
 7919      655F706F 
 7920              	.LASF110:
 7921 0bd6 626F7264 		.ascii	"border_opa\000"
 7921      65725F6F 
 7921      706100
 7922              	.LASF101:
 7923 0be1 62675F67 		.ascii	"bg_grad\000"
 7923      72616400 
 7924              	.LASF189:
 7925 0be9 64726177 		.ascii	"draw_ctx\000"
 7925      5F637478 
 7925      00
 7926              	.LASF176:
 7927 0bf2 64726177 		.ascii	"draw_img\000"
 7927      5F696D67 
 7927      00
 7928              	.LASF64:
 7929 0bfb 6C765F67 		.ascii	"lv_gradient_stop_t\000"
 7929      72616469 
 7929      656E745F 
 7929      73746F70 
 7929      5F7400
 7930              	.LASF91:
 7931 0c0e 7372635F 		.ascii	"src_buf\000"
 7931      62756600 
 7932              	.LASF236:
ARM GAS  C:\Users\haske\AppData\Local\Temp\ccpgnYma.s 			page 161


 7933 0c16 5F6C765F 		.ascii	"_lv_refr_get_disp_refreshing\000"
 7933      72656672 
 7933      5F676574 
 7933      5F646973 
 7933      705F7265 
 7934              	.LASF179:
 7935 0c33 64726177 		.ascii	"draw_polygon\000"
 7935      5F706F6C 
 7935      79676F6E 
 7935      00
 7936              	.LASF74:
 7937 0c40 6C765F64 		.ascii	"lv_draw_mask_type_t\000"
 7937      7261775F 
 7937      6D61736B 
 7937      5F747970 
 7937      655F7400 
 7938              	.LASF125:
 7939 0c54 73656C5F 		.ascii	"sel_start\000"
 7939      73746172 
 7939      7400
 7940              	.LASF20:
 7941 0c5e 75696E74 		.ascii	"uint32_t\000"
 7941      33325F74 
 7941      00
 7942              	.LASF248:
 7943 0c67 6C765F64 		.ascii	"lv_draw_sw_line\000"
 7943      7261775F 
 7943      73775F6C 
 7943      696E6500 
 7944              	.LASF118:
 7945 0c77 73686164 		.ascii	"shadow_width\000"
 7945      6F775F77 
 7945      69647468 
 7945      00
 7946              	.LASF27:
 7947 0c84 67726565 		.ascii	"green\000"
 7947      6E00
 7948              	.LASF53:
 7949 0c8a 6C765F66 		.ascii	"lv_font_t\000"
 7949      6F6E745F 
 7949      7400
 7950              	.LASF67:
 7951 0c94 64697468 		.ascii	"dither\000"
 7951      657200
 7952              	.LASF7:
 7953 0c9b 73686F72 		.ascii	"short unsigned int\000"
 7953      7420756E 
 7953      7369676E 
 7953      65642069 
 7953      6E7400
 7954              	.LASF32:
 7955 0cae 6C765F63 		.ascii	"lv_coord_t\000"
 7955      6F6F7264 
 7955      5F7400
 7956              	.LASF69:
 7957 0cb9 4C565F44 		.ascii	"LV_DRAW_MASK_RES_TRANSP\000"
 7957      5241575F 
ARM GAS  C:\Users\haske\AppData\Local\Temp\ccpgnYma.s 			page 162


 7957      4D41534B 
 7957      5F524553 
 7957      5F545241 
 7958              	.LASF50:
 7959 0cd1 75736572 		.ascii	"user_data\000"
 7959      5F646174 
 7959      6100
 7960              	.LASF199:
 7961 0cdb 64617368 		.ascii	"dash_start\000"
 7961      5F737461 
 7961      727400
 7962              	.LASF42:
 7963 0ce6 6765745F 		.ascii	"get_glyph_dsc\000"
 7963      676C7970 
 7963      685F6473 
 7963      6300
 7964              	.LASF8:
 7965 0cf4 5F5F696E 		.ascii	"__int32_t\000"
 7965      7433325F 
 7965      7400
 7966              	.LASF60:
 7967 0cfe 6C765F67 		.ascii	"lv_grad_dir_t\000"
 7967      7261645F 
 7967      6469725F 
 7967      7400
 7968              	.LASF239:
 7969 0d0c 6C765F64 		.ascii	"lv_draw_mask_free_param\000"
 7969      7261775F 
 7969      6D61736B 
 7969      5F667265 
 7969      655F7061 
 7970              	.LASF224:
 7971 0d24 725F636F 		.ascii	"r_corr\000"
 7971      727200
 7972              	.LASF83:
 7973 0d2b 73696465 		.ascii	"side\000"
 7973      00
 7974              	.LASF127:
 7975 0d30 73656C5F 		.ascii	"sel_color\000"
 7975      636F6C6F 
 7975      7200
 7976              	.LASF82:
 7977 0d3a 5F6C765F 		.ascii	"_lv_draw_mask_common_dsc_t\000"
 7977      64726177 
 7977      5F6D6173 
 7977      6B5F636F 
 7977      6D6D6F6E 
 7978              	.LASF119:
 7979 0d55 73686164 		.ascii	"shadow_ofs_x\000"
 7979      6F775F6F 
 7979      66735F78 
 7979      00
 7980              	.LASF120:
 7981 0d62 73686164 		.ascii	"shadow_ofs_y\000"
 7981      6F775F6F 
 7981      66735F79 
 7981      00
ARM GAS  C:\Users\haske\AppData\Local\Temp\ccpgnYma.s 			page 163


 7982              	.LASF68:
 7983 0d6f 6C765F67 		.ascii	"lv_grad_dsc_t\000"
 7983      7261645F 
 7983      6473635F 
 7983      7400
 7984              	.LASF41:
 7985 0d7d 69735F70 		.ascii	"is_placeholder\000"
 7985      6C616365 
 7985      686F6C64 
 7985      657200
 7986              		.ident	"GCC: (GNU Tools for ARM Embedded Processors) 5.4.1 20160609 (release) [ARM/embedded-5-bran
