ARM GAS  C:\Users\haske\AppData\Local\Temp\ccpEN9oH.s 			page 1


   1              		.syntax unified
   2              		.cpu cortex-m0plus
   3              		.fpu softvfp
   4              		.eabi_attribute 20, 1
   5              		.eabi_attribute 21, 1
   6              		.eabi_attribute 23, 3
   7              		.eabi_attribute 24, 1
   8              		.eabi_attribute 25, 1
   9              		.eabi_attribute 26, 1
  10              		.eabi_attribute 30, 1
  11              		.eabi_attribute 34, 0
  12              		.eabi_attribute 18, 4
  13              		.thumb
  14              		.syntax unified
  15              		.file	"lv_draw_sw_img.c"
  16              		.text
  17              	.Ltext0:
  18              		.cfi_sections	.debug_frame
  19              		.section	.text.convert_cb,"ax",%progbits
  20              		.align	2
  21              		.code	16
  22              		.thumb_func
  23              		.type	convert_cb, %function
  24              	convert_cb:
  25              	.LFB160:
  26              		.file 1 "..\\..\\..\\arduinoLCD\\test\\Pain Drain\\libraries\\lvgl\\src\\draw\\sw\\lv_draw_sw_img.
   1:..\..\..\arduinoLCD\test\Pain Drain\libraries\lvgl\src\draw\sw/lv_draw_sw_img.c **** /**
   2:..\..\..\arduinoLCD\test\Pain Drain\libraries\lvgl\src\draw\sw/lv_draw_sw_img.c ****  * @file lv_draw_img.c
   3:..\..\..\arduinoLCD\test\Pain Drain\libraries\lvgl\src\draw\sw/lv_draw_sw_img.c ****  *
   4:..\..\..\arduinoLCD\test\Pain Drain\libraries\lvgl\src\draw\sw/lv_draw_sw_img.c ****  */
   5:..\..\..\arduinoLCD\test\Pain Drain\libraries\lvgl\src\draw\sw/lv_draw_sw_img.c **** 
   6:..\..\..\arduinoLCD\test\Pain Drain\libraries\lvgl\src\draw\sw/lv_draw_sw_img.c **** /*********************
   7:..\..\..\arduinoLCD\test\Pain Drain\libraries\lvgl\src\draw\sw/lv_draw_sw_img.c ****  *      INCLUDES
   8:..\..\..\arduinoLCD\test\Pain Drain\libraries\lvgl\src\draw\sw/lv_draw_sw_img.c ****  *********************/
   9:..\..\..\arduinoLCD\test\Pain Drain\libraries\lvgl\src\draw\sw/lv_draw_sw_img.c **** #include "lv_draw_sw.h"
  10:..\..\..\arduinoLCD\test\Pain Drain\libraries\lvgl\src\draw\sw/lv_draw_sw_img.c **** #include "../lv_img_cache.h"
  11:..\..\..\arduinoLCD\test\Pain Drain\libraries\lvgl\src\draw\sw/lv_draw_sw_img.c **** #include "../../hal/lv_hal_disp.h"
  12:..\..\..\arduinoLCD\test\Pain Drain\libraries\lvgl\src\draw\sw/lv_draw_sw_img.c **** #include "../../misc/lv_log.h"
  13:..\..\..\arduinoLCD\test\Pain Drain\libraries\lvgl\src\draw\sw/lv_draw_sw_img.c **** #include "../../core/lv_refr.h"
  14:..\..\..\arduinoLCD\test\Pain Drain\libraries\lvgl\src\draw\sw/lv_draw_sw_img.c **** #include "../../misc/lv_mem.h"
  15:..\..\..\arduinoLCD\test\Pain Drain\libraries\lvgl\src\draw\sw/lv_draw_sw_img.c **** #include "../../misc/lv_math.h"
  16:..\..\..\arduinoLCD\test\Pain Drain\libraries\lvgl\src\draw\sw/lv_draw_sw_img.c **** 
  17:..\..\..\arduinoLCD\test\Pain Drain\libraries\lvgl\src\draw\sw/lv_draw_sw_img.c **** /*********************
  18:..\..\..\arduinoLCD\test\Pain Drain\libraries\lvgl\src\draw\sw/lv_draw_sw_img.c ****  *      DEFINES
  19:..\..\..\arduinoLCD\test\Pain Drain\libraries\lvgl\src\draw\sw/lv_draw_sw_img.c ****  *********************/
  20:..\..\..\arduinoLCD\test\Pain Drain\libraries\lvgl\src\draw\sw/lv_draw_sw_img.c **** #define MAX_BUF_SIZE (uint32_t) lv_disp_get_hor_res(_lv_refr_get_disp_refreshing())
  21:..\..\..\arduinoLCD\test\Pain Drain\libraries\lvgl\src\draw\sw/lv_draw_sw_img.c **** 
  22:..\..\..\arduinoLCD\test\Pain Drain\libraries\lvgl\src\draw\sw/lv_draw_sw_img.c **** /**********************
  23:..\..\..\arduinoLCD\test\Pain Drain\libraries\lvgl\src\draw\sw/lv_draw_sw_img.c ****  *      TYPEDEFS
  24:..\..\..\arduinoLCD\test\Pain Drain\libraries\lvgl\src\draw\sw/lv_draw_sw_img.c ****  **********************/
  25:..\..\..\arduinoLCD\test\Pain Drain\libraries\lvgl\src\draw\sw/lv_draw_sw_img.c **** 
  26:..\..\..\arduinoLCD\test\Pain Drain\libraries\lvgl\src\draw\sw/lv_draw_sw_img.c **** /**********************
  27:..\..\..\arduinoLCD\test\Pain Drain\libraries\lvgl\src\draw\sw/lv_draw_sw_img.c ****  *  STATIC PROTOTYPES
  28:..\..\..\arduinoLCD\test\Pain Drain\libraries\lvgl\src\draw\sw/lv_draw_sw_img.c ****  **********************/
  29:..\..\..\arduinoLCD\test\Pain Drain\libraries\lvgl\src\draw\sw/lv_draw_sw_img.c **** static void convert_cb(const lv_area_t * dest_area, const void * src_buf, lv_coord_t src_w, lv_coor
  30:..\..\..\arduinoLCD\test\Pain Drain\libraries\lvgl\src\draw\sw/lv_draw_sw_img.c ****                        lv_coord_t src_stride, const lv_draw_img_dsc_t * draw_dsc, lv_img_cf_t cf, l
  31:..\..\..\arduinoLCD\test\Pain Drain\libraries\lvgl\src\draw\sw/lv_draw_sw_img.c **** 
ARM GAS  C:\Users\haske\AppData\Local\Temp\ccpEN9oH.s 			page 2


  32:..\..\..\arduinoLCD\test\Pain Drain\libraries\lvgl\src\draw\sw/lv_draw_sw_img.c **** /**********************
  33:..\..\..\arduinoLCD\test\Pain Drain\libraries\lvgl\src\draw\sw/lv_draw_sw_img.c ****  *  STATIC VARIABLES
  34:..\..\..\arduinoLCD\test\Pain Drain\libraries\lvgl\src\draw\sw/lv_draw_sw_img.c ****  **********************/
  35:..\..\..\arduinoLCD\test\Pain Drain\libraries\lvgl\src\draw\sw/lv_draw_sw_img.c **** 
  36:..\..\..\arduinoLCD\test\Pain Drain\libraries\lvgl\src\draw\sw/lv_draw_sw_img.c **** /**********************
  37:..\..\..\arduinoLCD\test\Pain Drain\libraries\lvgl\src\draw\sw/lv_draw_sw_img.c ****  *      MACROS
  38:..\..\..\arduinoLCD\test\Pain Drain\libraries\lvgl\src\draw\sw/lv_draw_sw_img.c ****  **********************/
  39:..\..\..\arduinoLCD\test\Pain Drain\libraries\lvgl\src\draw\sw/lv_draw_sw_img.c **** 
  40:..\..\..\arduinoLCD\test\Pain Drain\libraries\lvgl\src\draw\sw/lv_draw_sw_img.c **** /**********************
  41:..\..\..\arduinoLCD\test\Pain Drain\libraries\lvgl\src\draw\sw/lv_draw_sw_img.c ****  *   GLOBAL FUNCTIONS
  42:..\..\..\arduinoLCD\test\Pain Drain\libraries\lvgl\src\draw\sw/lv_draw_sw_img.c ****  **********************/
  43:..\..\..\arduinoLCD\test\Pain Drain\libraries\lvgl\src\draw\sw/lv_draw_sw_img.c **** 
  44:..\..\..\arduinoLCD\test\Pain Drain\libraries\lvgl\src\draw\sw/lv_draw_sw_img.c **** 
  45:..\..\..\arduinoLCD\test\Pain Drain\libraries\lvgl\src\draw\sw/lv_draw_sw_img.c **** LV_ATTRIBUTE_FAST_MEM void lv_draw_sw_img_decoded(struct _lv_draw_ctx_t * draw_ctx, const lv_draw_i
  46:..\..\..\arduinoLCD\test\Pain Drain\libraries\lvgl\src\draw\sw/lv_draw_sw_img.c ****                                                   const lv_area_t * coords, const uint8_t * src_buf
  47:..\..\..\arduinoLCD\test\Pain Drain\libraries\lvgl\src\draw\sw/lv_draw_sw_img.c **** {
  48:..\..\..\arduinoLCD\test\Pain Drain\libraries\lvgl\src\draw\sw/lv_draw_sw_img.c ****     /*Use the clip area as draw area*/
  49:..\..\..\arduinoLCD\test\Pain Drain\libraries\lvgl\src\draw\sw/lv_draw_sw_img.c ****     lv_area_t draw_area;
  50:..\..\..\arduinoLCD\test\Pain Drain\libraries\lvgl\src\draw\sw/lv_draw_sw_img.c ****     lv_area_copy(&draw_area, draw_ctx->clip_area);
  51:..\..\..\arduinoLCD\test\Pain Drain\libraries\lvgl\src\draw\sw/lv_draw_sw_img.c **** 
  52:..\..\..\arduinoLCD\test\Pain Drain\libraries\lvgl\src\draw\sw/lv_draw_sw_img.c ****     bool mask_any = lv_draw_mask_is_any(&draw_area);
  53:..\..\..\arduinoLCD\test\Pain Drain\libraries\lvgl\src\draw\sw/lv_draw_sw_img.c ****     bool transform = draw_dsc->angle != 0 || draw_dsc->zoom != LV_IMG_ZOOM_NONE ? true : false;
  54:..\..\..\arduinoLCD\test\Pain Drain\libraries\lvgl\src\draw\sw/lv_draw_sw_img.c **** 
  55:..\..\..\arduinoLCD\test\Pain Drain\libraries\lvgl\src\draw\sw/lv_draw_sw_img.c ****     lv_area_t blend_area;
  56:..\..\..\arduinoLCD\test\Pain Drain\libraries\lvgl\src\draw\sw/lv_draw_sw_img.c ****     lv_draw_sw_blend_dsc_t blend_dsc;
  57:..\..\..\arduinoLCD\test\Pain Drain\libraries\lvgl\src\draw\sw/lv_draw_sw_img.c **** 
  58:..\..\..\arduinoLCD\test\Pain Drain\libraries\lvgl\src\draw\sw/lv_draw_sw_img.c ****     lv_memset_00(&blend_dsc, sizeof(lv_draw_sw_blend_dsc_t));
  59:..\..\..\arduinoLCD\test\Pain Drain\libraries\lvgl\src\draw\sw/lv_draw_sw_img.c ****     blend_dsc.opa = draw_dsc->opa;
  60:..\..\..\arduinoLCD\test\Pain Drain\libraries\lvgl\src\draw\sw/lv_draw_sw_img.c ****     blend_dsc.blend_mode = draw_dsc->blend_mode;
  61:..\..\..\arduinoLCD\test\Pain Drain\libraries\lvgl\src\draw\sw/lv_draw_sw_img.c ****     blend_dsc.blend_area = &blend_area;
  62:..\..\..\arduinoLCD\test\Pain Drain\libraries\lvgl\src\draw\sw/lv_draw_sw_img.c **** 
  63:..\..\..\arduinoLCD\test\Pain Drain\libraries\lvgl\src\draw\sw/lv_draw_sw_img.c ****     /*The simplest case just copy the pixels into the draw_buf*/
  64:..\..\..\arduinoLCD\test\Pain Drain\libraries\lvgl\src\draw\sw/lv_draw_sw_img.c ****     if(!mask_any && !transform && cf == LV_IMG_CF_TRUE_COLOR && draw_dsc->recolor_opa == LV_OPA_TRA
  65:..\..\..\arduinoLCD\test\Pain Drain\libraries\lvgl\src\draw\sw/lv_draw_sw_img.c ****         blend_dsc.src_buf = (const lv_color_t *)src_buf;
  66:..\..\..\arduinoLCD\test\Pain Drain\libraries\lvgl\src\draw\sw/lv_draw_sw_img.c **** 
  67:..\..\..\arduinoLCD\test\Pain Drain\libraries\lvgl\src\draw\sw/lv_draw_sw_img.c ****         blend_dsc.blend_area = coords;
  68:..\..\..\arduinoLCD\test\Pain Drain\libraries\lvgl\src\draw\sw/lv_draw_sw_img.c ****         lv_draw_sw_blend(draw_ctx, &blend_dsc);
  69:..\..\..\arduinoLCD\test\Pain Drain\libraries\lvgl\src\draw\sw/lv_draw_sw_img.c ****     }
  70:..\..\..\arduinoLCD\test\Pain Drain\libraries\lvgl\src\draw\sw/lv_draw_sw_img.c ****     else if(!mask_any && !transform && cf == LV_IMG_CF_ALPHA_8BIT) {
  71:..\..\..\arduinoLCD\test\Pain Drain\libraries\lvgl\src\draw\sw/lv_draw_sw_img.c ****         lv_area_t clipped_coords;
  72:..\..\..\arduinoLCD\test\Pain Drain\libraries\lvgl\src\draw\sw/lv_draw_sw_img.c ****         if(!_lv_area_intersect(&clipped_coords, coords, draw_ctx->clip_area)) return;
  73:..\..\..\arduinoLCD\test\Pain Drain\libraries\lvgl\src\draw\sw/lv_draw_sw_img.c **** 
  74:..\..\..\arduinoLCD\test\Pain Drain\libraries\lvgl\src\draw\sw/lv_draw_sw_img.c ****         blend_dsc.mask_buf = (lv_opa_t *)src_buf;
  75:..\..\..\arduinoLCD\test\Pain Drain\libraries\lvgl\src\draw\sw/lv_draw_sw_img.c ****         blend_dsc.mask_area = coords;
  76:..\..\..\arduinoLCD\test\Pain Drain\libraries\lvgl\src\draw\sw/lv_draw_sw_img.c ****         blend_dsc.src_buf = NULL;
  77:..\..\..\arduinoLCD\test\Pain Drain\libraries\lvgl\src\draw\sw/lv_draw_sw_img.c ****         blend_dsc.color = draw_dsc->recolor;
  78:..\..\..\arduinoLCD\test\Pain Drain\libraries\lvgl\src\draw\sw/lv_draw_sw_img.c ****         blend_dsc.mask_res = LV_DRAW_MASK_RES_CHANGED;
  79:..\..\..\arduinoLCD\test\Pain Drain\libraries\lvgl\src\draw\sw/lv_draw_sw_img.c **** 
  80:..\..\..\arduinoLCD\test\Pain Drain\libraries\lvgl\src\draw\sw/lv_draw_sw_img.c ****         blend_dsc.blend_area = coords;
  81:..\..\..\arduinoLCD\test\Pain Drain\libraries\lvgl\src\draw\sw/lv_draw_sw_img.c ****         lv_draw_sw_blend(draw_ctx, &blend_dsc);
  82:..\..\..\arduinoLCD\test\Pain Drain\libraries\lvgl\src\draw\sw/lv_draw_sw_img.c ****     }
  83:..\..\..\arduinoLCD\test\Pain Drain\libraries\lvgl\src\draw\sw/lv_draw_sw_img.c **** #if LV_COLOR_DEPTH == 16
  84:..\..\..\arduinoLCD\test\Pain Drain\libraries\lvgl\src\draw\sw/lv_draw_sw_img.c ****     else if(!mask_any && !transform && cf == LV_IMG_CF_RGB565A8 && draw_dsc->recolor_opa == LV_OPA_
  85:..\..\..\arduinoLCD\test\Pain Drain\libraries\lvgl\src\draw\sw/lv_draw_sw_img.c ****         lv_coord_t src_w = lv_area_get_width(coords);
  86:..\..\..\arduinoLCD\test\Pain Drain\libraries\lvgl\src\draw\sw/lv_draw_sw_img.c ****         lv_coord_t src_h = lv_area_get_height(coords);
  87:..\..\..\arduinoLCD\test\Pain Drain\libraries\lvgl\src\draw\sw/lv_draw_sw_img.c ****         blend_dsc.src_buf = (const lv_color_t *)src_buf;
  88:..\..\..\arduinoLCD\test\Pain Drain\libraries\lvgl\src\draw\sw/lv_draw_sw_img.c ****         blend_dsc.mask_buf = (lv_opa_t *)src_buf;
ARM GAS  C:\Users\haske\AppData\Local\Temp\ccpEN9oH.s 			page 3


  89:..\..\..\arduinoLCD\test\Pain Drain\libraries\lvgl\src\draw\sw/lv_draw_sw_img.c ****         blend_dsc.mask_buf += sizeof(lv_color_t) * src_w * src_h;
  90:..\..\..\arduinoLCD\test\Pain Drain\libraries\lvgl\src\draw\sw/lv_draw_sw_img.c ****         blend_dsc.blend_area = coords;
  91:..\..\..\arduinoLCD\test\Pain Drain\libraries\lvgl\src\draw\sw/lv_draw_sw_img.c ****         blend_dsc.mask_area = coords;
  92:..\..\..\arduinoLCD\test\Pain Drain\libraries\lvgl\src\draw\sw/lv_draw_sw_img.c ****         blend_dsc.mask_res = LV_DRAW_MASK_RES_CHANGED;
  93:..\..\..\arduinoLCD\test\Pain Drain\libraries\lvgl\src\draw\sw/lv_draw_sw_img.c ****         lv_draw_sw_blend(draw_ctx, &blend_dsc);
  94:..\..\..\arduinoLCD\test\Pain Drain\libraries\lvgl\src\draw\sw/lv_draw_sw_img.c ****     }
  95:..\..\..\arduinoLCD\test\Pain Drain\libraries\lvgl\src\draw\sw/lv_draw_sw_img.c **** #endif
  96:..\..\..\arduinoLCD\test\Pain Drain\libraries\lvgl\src\draw\sw/lv_draw_sw_img.c ****     /*In the other cases every pixel need to be checked one-by-one*/
  97:..\..\..\arduinoLCD\test\Pain Drain\libraries\lvgl\src\draw\sw/lv_draw_sw_img.c ****     else {
  98:..\..\..\arduinoLCD\test\Pain Drain\libraries\lvgl\src\draw\sw/lv_draw_sw_img.c ****         blend_area.x1 = draw_ctx->clip_area->x1;
  99:..\..\..\arduinoLCD\test\Pain Drain\libraries\lvgl\src\draw\sw/lv_draw_sw_img.c ****         blend_area.x2 = draw_ctx->clip_area->x2;
 100:..\..\..\arduinoLCD\test\Pain Drain\libraries\lvgl\src\draw\sw/lv_draw_sw_img.c ****         blend_area.y1 = draw_ctx->clip_area->y1;
 101:..\..\..\arduinoLCD\test\Pain Drain\libraries\lvgl\src\draw\sw/lv_draw_sw_img.c ****         blend_area.y2 = draw_ctx->clip_area->y2;
 102:..\..\..\arduinoLCD\test\Pain Drain\libraries\lvgl\src\draw\sw/lv_draw_sw_img.c **** 
 103:..\..\..\arduinoLCD\test\Pain Drain\libraries\lvgl\src\draw\sw/lv_draw_sw_img.c ****         lv_coord_t src_w = lv_area_get_width(coords);
 104:..\..\..\arduinoLCD\test\Pain Drain\libraries\lvgl\src\draw\sw/lv_draw_sw_img.c ****         lv_coord_t src_h = lv_area_get_height(coords);
 105:..\..\..\arduinoLCD\test\Pain Drain\libraries\lvgl\src\draw\sw/lv_draw_sw_img.c ****         lv_coord_t blend_h = lv_area_get_height(&blend_area);
 106:..\..\..\arduinoLCD\test\Pain Drain\libraries\lvgl\src\draw\sw/lv_draw_sw_img.c ****         lv_coord_t blend_w = lv_area_get_width(&blend_area);
 107:..\..\..\arduinoLCD\test\Pain Drain\libraries\lvgl\src\draw\sw/lv_draw_sw_img.c **** 
 108:..\..\..\arduinoLCD\test\Pain Drain\libraries\lvgl\src\draw\sw/lv_draw_sw_img.c ****         uint32_t max_buf_size = MAX_BUF_SIZE;
 109:..\..\..\arduinoLCD\test\Pain Drain\libraries\lvgl\src\draw\sw/lv_draw_sw_img.c ****         uint32_t blend_size = lv_area_get_size(&blend_area);
 110:..\..\..\arduinoLCD\test\Pain Drain\libraries\lvgl\src\draw\sw/lv_draw_sw_img.c ****         uint32_t buf_h;
 111:..\..\..\arduinoLCD\test\Pain Drain\libraries\lvgl\src\draw\sw/lv_draw_sw_img.c ****         uint32_t buf_w = blend_w;
 112:..\..\..\arduinoLCD\test\Pain Drain\libraries\lvgl\src\draw\sw/lv_draw_sw_img.c ****         if(blend_size <= max_buf_size) {
 113:..\..\..\arduinoLCD\test\Pain Drain\libraries\lvgl\src\draw\sw/lv_draw_sw_img.c ****             buf_h = blend_h;
 114:..\..\..\arduinoLCD\test\Pain Drain\libraries\lvgl\src\draw\sw/lv_draw_sw_img.c ****         }
 115:..\..\..\arduinoLCD\test\Pain Drain\libraries\lvgl\src\draw\sw/lv_draw_sw_img.c ****         else {
 116:..\..\..\arduinoLCD\test\Pain Drain\libraries\lvgl\src\draw\sw/lv_draw_sw_img.c ****             /*Round to full lines*/
 117:..\..\..\arduinoLCD\test\Pain Drain\libraries\lvgl\src\draw\sw/lv_draw_sw_img.c ****             buf_h = max_buf_size / blend_w;
 118:..\..\..\arduinoLCD\test\Pain Drain\libraries\lvgl\src\draw\sw/lv_draw_sw_img.c ****         }
 119:..\..\..\arduinoLCD\test\Pain Drain\libraries\lvgl\src\draw\sw/lv_draw_sw_img.c **** 
 120:..\..\..\arduinoLCD\test\Pain Drain\libraries\lvgl\src\draw\sw/lv_draw_sw_img.c ****         /*Create buffers and masks*/
 121:..\..\..\arduinoLCD\test\Pain Drain\libraries\lvgl\src\draw\sw/lv_draw_sw_img.c ****         uint32_t buf_size = buf_w * buf_h;
 122:..\..\..\arduinoLCD\test\Pain Drain\libraries\lvgl\src\draw\sw/lv_draw_sw_img.c **** 
 123:..\..\..\arduinoLCD\test\Pain Drain\libraries\lvgl\src\draw\sw/lv_draw_sw_img.c ****         lv_color_t * rgb_buf = lv_mem_buf_get(buf_size * sizeof(lv_color_t));
 124:..\..\..\arduinoLCD\test\Pain Drain\libraries\lvgl\src\draw\sw/lv_draw_sw_img.c ****         lv_opa_t * mask_buf = lv_mem_buf_get(buf_size);
 125:..\..\..\arduinoLCD\test\Pain Drain\libraries\lvgl\src\draw\sw/lv_draw_sw_img.c ****         blend_dsc.mask_buf = mask_buf;
 126:..\..\..\arduinoLCD\test\Pain Drain\libraries\lvgl\src\draw\sw/lv_draw_sw_img.c ****         blend_dsc.mask_area = &blend_area;
 127:..\..\..\arduinoLCD\test\Pain Drain\libraries\lvgl\src\draw\sw/lv_draw_sw_img.c ****         blend_dsc.mask_res = LV_DRAW_MASK_RES_CHANGED;
 128:..\..\..\arduinoLCD\test\Pain Drain\libraries\lvgl\src\draw\sw/lv_draw_sw_img.c ****         blend_dsc.src_buf = rgb_buf;
 129:..\..\..\arduinoLCD\test\Pain Drain\libraries\lvgl\src\draw\sw/lv_draw_sw_img.c ****         lv_coord_t y_last = blend_area.y2;
 130:..\..\..\arduinoLCD\test\Pain Drain\libraries\lvgl\src\draw\sw/lv_draw_sw_img.c ****         blend_area.y2 = blend_area.y1 + buf_h - 1;
 131:..\..\..\arduinoLCD\test\Pain Drain\libraries\lvgl\src\draw\sw/lv_draw_sw_img.c **** 
 132:..\..\..\arduinoLCD\test\Pain Drain\libraries\lvgl\src\draw\sw/lv_draw_sw_img.c ****         lv_draw_mask_res_t mask_res_def = (cf != LV_IMG_CF_TRUE_COLOR || draw_dsc->angle ||
 133:..\..\..\arduinoLCD\test\Pain Drain\libraries\lvgl\src\draw\sw/lv_draw_sw_img.c ****                                            draw_dsc->zoom != LV_IMG_ZOOM_NONE) ?
 134:..\..\..\arduinoLCD\test\Pain Drain\libraries\lvgl\src\draw\sw/lv_draw_sw_img.c ****                                           LV_DRAW_MASK_RES_CHANGED : LV_DRAW_MASK_RES_FULL_COVER;
 135:..\..\..\arduinoLCD\test\Pain Drain\libraries\lvgl\src\draw\sw/lv_draw_sw_img.c ****         blend_dsc.mask_res = mask_res_def;
 136:..\..\..\arduinoLCD\test\Pain Drain\libraries\lvgl\src\draw\sw/lv_draw_sw_img.c **** 
 137:..\..\..\arduinoLCD\test\Pain Drain\libraries\lvgl\src\draw\sw/lv_draw_sw_img.c ****         while(blend_area.y1 <= y_last) {
 138:..\..\..\arduinoLCD\test\Pain Drain\libraries\lvgl\src\draw\sw/lv_draw_sw_img.c ****             /*Apply transformations if any or separate the channels*/
 139:..\..\..\arduinoLCD\test\Pain Drain\libraries\lvgl\src\draw\sw/lv_draw_sw_img.c ****             lv_area_t transform_area;
 140:..\..\..\arduinoLCD\test\Pain Drain\libraries\lvgl\src\draw\sw/lv_draw_sw_img.c ****             lv_area_copy(&transform_area, &blend_area);
 141:..\..\..\arduinoLCD\test\Pain Drain\libraries\lvgl\src\draw\sw/lv_draw_sw_img.c ****             lv_area_move(&transform_area, -coords->x1, -coords->y1);
 142:..\..\..\arduinoLCD\test\Pain Drain\libraries\lvgl\src\draw\sw/lv_draw_sw_img.c ****             if(transform) {
 143:..\..\..\arduinoLCD\test\Pain Drain\libraries\lvgl\src\draw\sw/lv_draw_sw_img.c ****                 lv_draw_transform(draw_ctx, &transform_area, src_buf, src_w, src_h, src_w,
 144:..\..\..\arduinoLCD\test\Pain Drain\libraries\lvgl\src\draw\sw/lv_draw_sw_img.c ****                                   draw_dsc, cf, rgb_buf, mask_buf);
 145:..\..\..\arduinoLCD\test\Pain Drain\libraries\lvgl\src\draw\sw/lv_draw_sw_img.c ****             }
ARM GAS  C:\Users\haske\AppData\Local\Temp\ccpEN9oH.s 			page 4


 146:..\..\..\arduinoLCD\test\Pain Drain\libraries\lvgl\src\draw\sw/lv_draw_sw_img.c ****             else {
 147:..\..\..\arduinoLCD\test\Pain Drain\libraries\lvgl\src\draw\sw/lv_draw_sw_img.c ****                 convert_cb(&transform_area, src_buf, src_w, src_h, src_w, draw_dsc, cf, rgb_buf, ma
 148:..\..\..\arduinoLCD\test\Pain Drain\libraries\lvgl\src\draw\sw/lv_draw_sw_img.c ****             }
 149:..\..\..\arduinoLCD\test\Pain Drain\libraries\lvgl\src\draw\sw/lv_draw_sw_img.c **** 
 150:..\..\..\arduinoLCD\test\Pain Drain\libraries\lvgl\src\draw\sw/lv_draw_sw_img.c ****             /*Apply recolor*/
 151:..\..\..\arduinoLCD\test\Pain Drain\libraries\lvgl\src\draw\sw/lv_draw_sw_img.c ****             if(draw_dsc->recolor_opa > LV_OPA_MIN) {
 152:..\..\..\arduinoLCD\test\Pain Drain\libraries\lvgl\src\draw\sw/lv_draw_sw_img.c ****                 uint16_t premult_v[3];
 153:..\..\..\arduinoLCD\test\Pain Drain\libraries\lvgl\src\draw\sw/lv_draw_sw_img.c ****                 lv_opa_t recolor_opa = draw_dsc->recolor_opa;
 154:..\..\..\arduinoLCD\test\Pain Drain\libraries\lvgl\src\draw\sw/lv_draw_sw_img.c ****                 lv_color_t recolor = draw_dsc->recolor;
 155:..\..\..\arduinoLCD\test\Pain Drain\libraries\lvgl\src\draw\sw/lv_draw_sw_img.c ****                 lv_color_premult(recolor, recolor_opa, premult_v);
 156:..\..\..\arduinoLCD\test\Pain Drain\libraries\lvgl\src\draw\sw/lv_draw_sw_img.c ****                 recolor_opa = 255 - recolor_opa;
 157:..\..\..\arduinoLCD\test\Pain Drain\libraries\lvgl\src\draw\sw/lv_draw_sw_img.c ****                 uint32_t i;
 158:..\..\..\arduinoLCD\test\Pain Drain\libraries\lvgl\src\draw\sw/lv_draw_sw_img.c ****                 for(i = 0; i < buf_size; i++) {
 159:..\..\..\arduinoLCD\test\Pain Drain\libraries\lvgl\src\draw\sw/lv_draw_sw_img.c ****                     rgb_buf[i] = lv_color_mix_premult(premult_v, rgb_buf[i], recolor_opa);
 160:..\..\..\arduinoLCD\test\Pain Drain\libraries\lvgl\src\draw\sw/lv_draw_sw_img.c ****                 }
 161:..\..\..\arduinoLCD\test\Pain Drain\libraries\lvgl\src\draw\sw/lv_draw_sw_img.c ****             }
 162:..\..\..\arduinoLCD\test\Pain Drain\libraries\lvgl\src\draw\sw/lv_draw_sw_img.c **** #if LV_DRAW_COMPLEX
 163:..\..\..\arduinoLCD\test\Pain Drain\libraries\lvgl\src\draw\sw/lv_draw_sw_img.c ****             /*Apply the masks if any*/
 164:..\..\..\arduinoLCD\test\Pain Drain\libraries\lvgl\src\draw\sw/lv_draw_sw_img.c ****             if(mask_any) {
 165:..\..\..\arduinoLCD\test\Pain Drain\libraries\lvgl\src\draw\sw/lv_draw_sw_img.c ****                 lv_coord_t y;
 166:..\..\..\arduinoLCD\test\Pain Drain\libraries\lvgl\src\draw\sw/lv_draw_sw_img.c ****                 lv_opa_t * mask_buf_tmp = mask_buf;
 167:..\..\..\arduinoLCD\test\Pain Drain\libraries\lvgl\src\draw\sw/lv_draw_sw_img.c ****                 for(y = blend_area.y1; y <= blend_area.y2; y++) {
 168:..\..\..\arduinoLCD\test\Pain Drain\libraries\lvgl\src\draw\sw/lv_draw_sw_img.c ****                     lv_draw_mask_res_t mask_res_line;
 169:..\..\..\arduinoLCD\test\Pain Drain\libraries\lvgl\src\draw\sw/lv_draw_sw_img.c ****                     mask_res_line = lv_draw_mask_apply(mask_buf_tmp, blend_area.x1, y, blend_w);
 170:..\..\..\arduinoLCD\test\Pain Drain\libraries\lvgl\src\draw\sw/lv_draw_sw_img.c **** 
 171:..\..\..\arduinoLCD\test\Pain Drain\libraries\lvgl\src\draw\sw/lv_draw_sw_img.c ****                     if(mask_res_line == LV_DRAW_MASK_RES_TRANSP) {
 172:..\..\..\arduinoLCD\test\Pain Drain\libraries\lvgl\src\draw\sw/lv_draw_sw_img.c ****                         lv_memset_00(mask_buf_tmp, blend_w);
 173:..\..\..\arduinoLCD\test\Pain Drain\libraries\lvgl\src\draw\sw/lv_draw_sw_img.c ****                         blend_dsc.mask_res = LV_DRAW_MASK_RES_CHANGED;
 174:..\..\..\arduinoLCD\test\Pain Drain\libraries\lvgl\src\draw\sw/lv_draw_sw_img.c ****                     }
 175:..\..\..\arduinoLCD\test\Pain Drain\libraries\lvgl\src\draw\sw/lv_draw_sw_img.c ****                     else if(mask_res_line == LV_DRAW_MASK_RES_CHANGED) {
 176:..\..\..\arduinoLCD\test\Pain Drain\libraries\lvgl\src\draw\sw/lv_draw_sw_img.c ****                         blend_dsc.mask_res = LV_DRAW_MASK_RES_CHANGED;
 177:..\..\..\arduinoLCD\test\Pain Drain\libraries\lvgl\src\draw\sw/lv_draw_sw_img.c ****                     }
 178:..\..\..\arduinoLCD\test\Pain Drain\libraries\lvgl\src\draw\sw/lv_draw_sw_img.c ****                     mask_buf_tmp += blend_w;
 179:..\..\..\arduinoLCD\test\Pain Drain\libraries\lvgl\src\draw\sw/lv_draw_sw_img.c ****                 }
 180:..\..\..\arduinoLCD\test\Pain Drain\libraries\lvgl\src\draw\sw/lv_draw_sw_img.c ****             }
 181:..\..\..\arduinoLCD\test\Pain Drain\libraries\lvgl\src\draw\sw/lv_draw_sw_img.c **** #endif
 182:..\..\..\arduinoLCD\test\Pain Drain\libraries\lvgl\src\draw\sw/lv_draw_sw_img.c **** 
 183:..\..\..\arduinoLCD\test\Pain Drain\libraries\lvgl\src\draw\sw/lv_draw_sw_img.c ****             /*Blend*/
 184:..\..\..\arduinoLCD\test\Pain Drain\libraries\lvgl\src\draw\sw/lv_draw_sw_img.c ****             lv_draw_sw_blend(draw_ctx, &blend_dsc);
 185:..\..\..\arduinoLCD\test\Pain Drain\libraries\lvgl\src\draw\sw/lv_draw_sw_img.c **** 
 186:..\..\..\arduinoLCD\test\Pain Drain\libraries\lvgl\src\draw\sw/lv_draw_sw_img.c ****             /*Go the the next lines*/
 187:..\..\..\arduinoLCD\test\Pain Drain\libraries\lvgl\src\draw\sw/lv_draw_sw_img.c ****             blend_area.y1 = blend_area.y2 + 1;
 188:..\..\..\arduinoLCD\test\Pain Drain\libraries\lvgl\src\draw\sw/lv_draw_sw_img.c ****             blend_area.y2 = blend_area.y1 + buf_h - 1;
 189:..\..\..\arduinoLCD\test\Pain Drain\libraries\lvgl\src\draw\sw/lv_draw_sw_img.c ****             if(blend_area.y2 > y_last) blend_area.y2 = y_last;
 190:..\..\..\arduinoLCD\test\Pain Drain\libraries\lvgl\src\draw\sw/lv_draw_sw_img.c ****         }
 191:..\..\..\arduinoLCD\test\Pain Drain\libraries\lvgl\src\draw\sw/lv_draw_sw_img.c **** 
 192:..\..\..\arduinoLCD\test\Pain Drain\libraries\lvgl\src\draw\sw/lv_draw_sw_img.c ****         lv_mem_buf_release(mask_buf);
 193:..\..\..\arduinoLCD\test\Pain Drain\libraries\lvgl\src\draw\sw/lv_draw_sw_img.c ****         lv_mem_buf_release(rgb_buf);
 194:..\..\..\arduinoLCD\test\Pain Drain\libraries\lvgl\src\draw\sw/lv_draw_sw_img.c ****     }
 195:..\..\..\arduinoLCD\test\Pain Drain\libraries\lvgl\src\draw\sw/lv_draw_sw_img.c **** }
 196:..\..\..\arduinoLCD\test\Pain Drain\libraries\lvgl\src\draw\sw/lv_draw_sw_img.c **** 
 197:..\..\..\arduinoLCD\test\Pain Drain\libraries\lvgl\src\draw\sw/lv_draw_sw_img.c **** /**********************
 198:..\..\..\arduinoLCD\test\Pain Drain\libraries\lvgl\src\draw\sw/lv_draw_sw_img.c ****  *   STATIC FUNCTIONS
 199:..\..\..\arduinoLCD\test\Pain Drain\libraries\lvgl\src\draw\sw/lv_draw_sw_img.c ****  **********************/
 200:..\..\..\arduinoLCD\test\Pain Drain\libraries\lvgl\src\draw\sw/lv_draw_sw_img.c **** 
 201:..\..\..\arduinoLCD\test\Pain Drain\libraries\lvgl\src\draw\sw/lv_draw_sw_img.c **** /* Separate the image channels to RGB and Alpha to match LV_COLOR_DEPTH settings*/
 202:..\..\..\arduinoLCD\test\Pain Drain\libraries\lvgl\src\draw\sw/lv_draw_sw_img.c **** static void convert_cb(const lv_area_t * dest_area, const void * src_buf, lv_coord_t src_w, lv_coor
ARM GAS  C:\Users\haske\AppData\Local\Temp\ccpEN9oH.s 			page 5


 203:..\..\..\arduinoLCD\test\Pain Drain\libraries\lvgl\src\draw\sw/lv_draw_sw_img.c ****                        lv_coord_t src_stride, const lv_draw_img_dsc_t * draw_dsc, lv_img_cf_t cf, l
 204:..\..\..\arduinoLCD\test\Pain Drain\libraries\lvgl\src\draw\sw/lv_draw_sw_img.c **** {
  27              		.loc 1 204 0
  28              		.cfi_startproc
  29              		@ args = 20, pretend = 0, frame = 24
  30              		@ frame_needed = 0, uses_anonymous_args = 0
  31              	.LVL0:
  32 0000 F0B5     		push	{r4, r5, r6, r7, lr}
  33              		.cfi_def_cfa_offset 20
  34              		.cfi_offset 4, -20
  35              		.cfi_offset 5, -16
  36              		.cfi_offset 6, -12
  37              		.cfi_offset 7, -8
  38              		.cfi_offset 14, -4
  39 0002 5F46     		mov	r7, fp
  40 0004 5646     		mov	r6, r10
  41 0006 4D46     		mov	r5, r9
  42 0008 4446     		mov	r4, r8
  43 000a F0B4     		push	{r4, r5, r6, r7}
  44              		.cfi_def_cfa_offset 36
  45              		.cfi_offset 8, -36
  46              		.cfi_offset 9, -32
  47              		.cfi_offset 10, -28
  48              		.cfi_offset 11, -24
  49 000c 87B0     		sub	sp, sp, #28
  50              		.cfi_def_cfa_offset 64
  51 000e 8146     		mov	r9, r0
  52 0010 0291     		str	r1, [sp, #8]
  53 0012 0392     		str	r2, [sp, #12]
  54 0014 0493     		str	r3, [sp, #16]
  55 0016 10AB     		add	r3, sp, #64
  56              	.LVL1:
  57 0018 0022     		movs	r2, #0
  58 001a 9B5E     		ldrsh	r3, [r3, r2]
  59              	.LVL2:
  60 001c 9A46     		mov	r10, r3
  61 001e 12AB     		add	r3, sp, #72
  62              	.LVL3:
  63 0020 1B78     		ldrb	r3, [r3]
  64              	.LVL4:
  65 0022 9B46     		mov	fp, r3
  66 0024 139C     		ldr	r4, [sp, #76]
  67 0026 149D     		ldr	r5, [sp, #80]
  68              	.LVL5:
 205:..\..\..\arduinoLCD\test\Pain Drain\libraries\lvgl\src\draw\sw/lv_draw_sw_img.c ****     LV_UNUSED(draw_dsc);
 206:..\..\..\arduinoLCD\test\Pain Drain\libraries\lvgl\src\draw\sw/lv_draw_sw_img.c ****     LV_UNUSED(src_h);
 207:..\..\..\arduinoLCD\test\Pain Drain\libraries\lvgl\src\draw\sw/lv_draw_sw_img.c ****     LV_UNUSED(src_w);
 208:..\..\..\arduinoLCD\test\Pain Drain\libraries\lvgl\src\draw\sw/lv_draw_sw_img.c **** 
 209:..\..\..\arduinoLCD\test\Pain Drain\libraries\lvgl\src\draw\sw/lv_draw_sw_img.c ****     const uint8_t * src_tmp8 = (const uint8_t *)src_buf;
 210:..\..\..\arduinoLCD\test\Pain Drain\libraries\lvgl\src\draw\sw/lv_draw_sw_img.c ****     lv_coord_t y;
 211:..\..\..\arduinoLCD\test\Pain Drain\libraries\lvgl\src\draw\sw/lv_draw_sw_img.c ****     lv_coord_t x;
 212:..\..\..\arduinoLCD\test\Pain Drain\libraries\lvgl\src\draw\sw/lv_draw_sw_img.c **** 
 213:..\..\..\arduinoLCD\test\Pain Drain\libraries\lvgl\src\draw\sw/lv_draw_sw_img.c ****     if(cf == LV_IMG_CF_TRUE_COLOR || cf == LV_IMG_CF_TRUE_COLOR_CHROMA_KEYED) {
  69              		.loc 1 213 0
  70 0028 042B     		cmp	r3, #4
  71 002a 01D0     		beq	.L2
  72              		.loc 1 213 0 is_stmt 0 discriminator 1
ARM GAS  C:\Users\haske\AppData\Local\Temp\ccpEN9oH.s 			page 6


  73 002c 062B     		cmp	r3, #6
  74 002e 4DD1     		bne	.L3
  75              	.L2:
  76              	.LBB47:
 214:..\..\..\arduinoLCD\test\Pain Drain\libraries\lvgl\src\draw\sw/lv_draw_sw_img.c ****         uint32_t px_cnt = lv_area_get_size(dest_area);
  77              		.loc 1 214 0 is_stmt 1
  78 0030 4846     		mov	r0, r9
  79              	.LVL6:
  80 0032 FFF7FEFF 		bl	lv_area_get_size
  81              	.LVL7:
  82 0036 0100     		movs	r1, r0
  83 0038 0390     		str	r0, [sp, #12]
  84              	.LVL8:
 215:..\..\..\arduinoLCD\test\Pain Drain\libraries\lvgl\src\draw\sw/lv_draw_sw_img.c ****         lv_memset_ff(abuf, px_cnt);
  85              		.loc 1 215 0
  86 003a 2800     		movs	r0, r5
  87              	.LVL9:
  88 003c FFF7FEFF 		bl	lv_memset_ff
  89              	.LVL10:
 216:..\..\..\arduinoLCD\test\Pain Drain\libraries\lvgl\src\draw\sw/lv_draw_sw_img.c **** 
 217:..\..\..\arduinoLCD\test\Pain Drain\libraries\lvgl\src\draw\sw/lv_draw_sw_img.c ****         src_tmp8 += (src_stride * dest_area->y1 * sizeof(lv_color_t)) + dest_area->x1 * sizeof(lv_c
  90              		.loc 1 217 0
  91 0040 4B46     		mov	r3, r9
  92 0042 0226     		movs	r6, #2
  93 0044 9E5F     		ldrsh	r6, [r3, r6]
  94 0046 5746     		mov	r7, r10
  95 0048 7743     		muls	r7, r6
  96 004a 4B46     		mov	r3, r9
  97 004c 0022     		movs	r2, #0
  98 004e 9A5E     		ldrsh	r2, [r3, r2]
  99 0050 BF18     		adds	r7, r7, r2
 100 0052 7F00     		lsls	r7, r7, #1
 101 0054 029B     		ldr	r3, [sp, #8]
 102 0056 9C46     		mov	ip, r3
 103 0058 6744     		add	r7, r7, ip
 104              	.LVL11:
 105              	.LBB48:
 106              	.LBB49:
 107              		.file 2 "c:\\projects\\paindrain\\arduinolcd\\test\\pain drain\\libraries\\lvgl\\src\\misc\\lv_are
   1:c:\projects\paindrain\arduinolcd\test\pain drain\libraries\lvgl\src\misc\lv_area.h **** /**
   2:c:\projects\paindrain\arduinolcd\test\pain drain\libraries\lvgl\src\misc\lv_area.h ****  * @file lv_area.h
   3:c:\projects\paindrain\arduinolcd\test\pain drain\libraries\lvgl\src\misc\lv_area.h ****  *
   4:c:\projects\paindrain\arduinolcd\test\pain drain\libraries\lvgl\src\misc\lv_area.h ****  */
   5:c:\projects\paindrain\arduinolcd\test\pain drain\libraries\lvgl\src\misc\lv_area.h **** 
   6:c:\projects\paindrain\arduinolcd\test\pain drain\libraries\lvgl\src\misc\lv_area.h **** #ifndef LV_AREA_H
   7:c:\projects\paindrain\arduinolcd\test\pain drain\libraries\lvgl\src\misc\lv_area.h **** #define LV_AREA_H
   8:c:\projects\paindrain\arduinolcd\test\pain drain\libraries\lvgl\src\misc\lv_area.h **** 
   9:c:\projects\paindrain\arduinolcd\test\pain drain\libraries\lvgl\src\misc\lv_area.h **** #ifdef __cplusplus
  10:c:\projects\paindrain\arduinolcd\test\pain drain\libraries\lvgl\src\misc\lv_area.h **** extern "C" {
  11:c:\projects\paindrain\arduinolcd\test\pain drain\libraries\lvgl\src\misc\lv_area.h **** #endif
  12:c:\projects\paindrain\arduinolcd\test\pain drain\libraries\lvgl\src\misc\lv_area.h **** 
  13:c:\projects\paindrain\arduinolcd\test\pain drain\libraries\lvgl\src\misc\lv_area.h **** /*********************
  14:c:\projects\paindrain\arduinolcd\test\pain drain\libraries\lvgl\src\misc\lv_area.h ****  *      INCLUDES
  15:c:\projects\paindrain\arduinolcd\test\pain drain\libraries\lvgl\src\misc\lv_area.h ****  *********************/
  16:c:\projects\paindrain\arduinolcd\test\pain drain\libraries\lvgl\src\misc\lv_area.h **** #include "../lv_conf_internal.h"
  17:c:\projects\paindrain\arduinolcd\test\pain drain\libraries\lvgl\src\misc\lv_area.h **** #include <stdbool.h>
  18:c:\projects\paindrain\arduinolcd\test\pain drain\libraries\lvgl\src\misc\lv_area.h **** #include <stdint.h>
ARM GAS  C:\Users\haske\AppData\Local\Temp\ccpEN9oH.s 			page 7


  19:c:\projects\paindrain\arduinolcd\test\pain drain\libraries\lvgl\src\misc\lv_area.h **** 
  20:c:\projects\paindrain\arduinolcd\test\pain drain\libraries\lvgl\src\misc\lv_area.h **** /*********************
  21:c:\projects\paindrain\arduinolcd\test\pain drain\libraries\lvgl\src\misc\lv_area.h ****  *      DEFINES
  22:c:\projects\paindrain\arduinolcd\test\pain drain\libraries\lvgl\src\misc\lv_area.h ****  *********************/
  23:c:\projects\paindrain\arduinolcd\test\pain drain\libraries\lvgl\src\misc\lv_area.h **** 
  24:c:\projects\paindrain\arduinolcd\test\pain drain\libraries\lvgl\src\misc\lv_area.h **** #if LV_USE_LARGE_COORD
  25:c:\projects\paindrain\arduinolcd\test\pain drain\libraries\lvgl\src\misc\lv_area.h **** typedef int32_t lv_coord_t;
  26:c:\projects\paindrain\arduinolcd\test\pain drain\libraries\lvgl\src\misc\lv_area.h **** #else
  27:c:\projects\paindrain\arduinolcd\test\pain drain\libraries\lvgl\src\misc\lv_area.h **** typedef int16_t lv_coord_t;
  28:c:\projects\paindrain\arduinolcd\test\pain drain\libraries\lvgl\src\misc\lv_area.h **** #endif
  29:c:\projects\paindrain\arduinolcd\test\pain drain\libraries\lvgl\src\misc\lv_area.h **** 
  30:c:\projects\paindrain\arduinolcd\test\pain drain\libraries\lvgl\src\misc\lv_area.h **** /**********************
  31:c:\projects\paindrain\arduinolcd\test\pain drain\libraries\lvgl\src\misc\lv_area.h ****  *      TYPEDEFS
  32:c:\projects\paindrain\arduinolcd\test\pain drain\libraries\lvgl\src\misc\lv_area.h ****  **********************/
  33:c:\projects\paindrain\arduinolcd\test\pain drain\libraries\lvgl\src\misc\lv_area.h **** 
  34:c:\projects\paindrain\arduinolcd\test\pain drain\libraries\lvgl\src\misc\lv_area.h **** /**
  35:c:\projects\paindrain\arduinolcd\test\pain drain\libraries\lvgl\src\misc\lv_area.h ****  * Represents a point on the screen.
  36:c:\projects\paindrain\arduinolcd\test\pain drain\libraries\lvgl\src\misc\lv_area.h ****  */
  37:c:\projects\paindrain\arduinolcd\test\pain drain\libraries\lvgl\src\misc\lv_area.h **** typedef struct {
  38:c:\projects\paindrain\arduinolcd\test\pain drain\libraries\lvgl\src\misc\lv_area.h ****     lv_coord_t x;
  39:c:\projects\paindrain\arduinolcd\test\pain drain\libraries\lvgl\src\misc\lv_area.h ****     lv_coord_t y;
  40:c:\projects\paindrain\arduinolcd\test\pain drain\libraries\lvgl\src\misc\lv_area.h **** } lv_point_t;
  41:c:\projects\paindrain\arduinolcd\test\pain drain\libraries\lvgl\src\misc\lv_area.h **** 
  42:c:\projects\paindrain\arduinolcd\test\pain drain\libraries\lvgl\src\misc\lv_area.h **** /** Represents an area of the screen.*/
  43:c:\projects\paindrain\arduinolcd\test\pain drain\libraries\lvgl\src\misc\lv_area.h **** typedef struct {
  44:c:\projects\paindrain\arduinolcd\test\pain drain\libraries\lvgl\src\misc\lv_area.h ****     lv_coord_t x1;
  45:c:\projects\paindrain\arduinolcd\test\pain drain\libraries\lvgl\src\misc\lv_area.h ****     lv_coord_t y1;
  46:c:\projects\paindrain\arduinolcd\test\pain drain\libraries\lvgl\src\misc\lv_area.h ****     lv_coord_t x2;
  47:c:\projects\paindrain\arduinolcd\test\pain drain\libraries\lvgl\src\misc\lv_area.h ****     lv_coord_t y2;
  48:c:\projects\paindrain\arduinolcd\test\pain drain\libraries\lvgl\src\misc\lv_area.h **** } lv_area_t;
  49:c:\projects\paindrain\arduinolcd\test\pain drain\libraries\lvgl\src\misc\lv_area.h **** 
  50:c:\projects\paindrain\arduinolcd\test\pain drain\libraries\lvgl\src\misc\lv_area.h **** /** Alignments*/
  51:c:\projects\paindrain\arduinolcd\test\pain drain\libraries\lvgl\src\misc\lv_area.h **** enum {
  52:c:\projects\paindrain\arduinolcd\test\pain drain\libraries\lvgl\src\misc\lv_area.h ****     LV_ALIGN_DEFAULT = 0,
  53:c:\projects\paindrain\arduinolcd\test\pain drain\libraries\lvgl\src\misc\lv_area.h ****     LV_ALIGN_TOP_LEFT,
  54:c:\projects\paindrain\arduinolcd\test\pain drain\libraries\lvgl\src\misc\lv_area.h ****     LV_ALIGN_TOP_MID,
  55:c:\projects\paindrain\arduinolcd\test\pain drain\libraries\lvgl\src\misc\lv_area.h ****     LV_ALIGN_TOP_RIGHT,
  56:c:\projects\paindrain\arduinolcd\test\pain drain\libraries\lvgl\src\misc\lv_area.h ****     LV_ALIGN_BOTTOM_LEFT,
  57:c:\projects\paindrain\arduinolcd\test\pain drain\libraries\lvgl\src\misc\lv_area.h ****     LV_ALIGN_BOTTOM_MID,
  58:c:\projects\paindrain\arduinolcd\test\pain drain\libraries\lvgl\src\misc\lv_area.h ****     LV_ALIGN_BOTTOM_RIGHT,
  59:c:\projects\paindrain\arduinolcd\test\pain drain\libraries\lvgl\src\misc\lv_area.h ****     LV_ALIGN_LEFT_MID,
  60:c:\projects\paindrain\arduinolcd\test\pain drain\libraries\lvgl\src\misc\lv_area.h ****     LV_ALIGN_RIGHT_MID,
  61:c:\projects\paindrain\arduinolcd\test\pain drain\libraries\lvgl\src\misc\lv_area.h ****     LV_ALIGN_CENTER,
  62:c:\projects\paindrain\arduinolcd\test\pain drain\libraries\lvgl\src\misc\lv_area.h **** 
  63:c:\projects\paindrain\arduinolcd\test\pain drain\libraries\lvgl\src\misc\lv_area.h ****     LV_ALIGN_OUT_TOP_LEFT,
  64:c:\projects\paindrain\arduinolcd\test\pain drain\libraries\lvgl\src\misc\lv_area.h ****     LV_ALIGN_OUT_TOP_MID,
  65:c:\projects\paindrain\arduinolcd\test\pain drain\libraries\lvgl\src\misc\lv_area.h ****     LV_ALIGN_OUT_TOP_RIGHT,
  66:c:\projects\paindrain\arduinolcd\test\pain drain\libraries\lvgl\src\misc\lv_area.h ****     LV_ALIGN_OUT_BOTTOM_LEFT,
  67:c:\projects\paindrain\arduinolcd\test\pain drain\libraries\lvgl\src\misc\lv_area.h ****     LV_ALIGN_OUT_BOTTOM_MID,
  68:c:\projects\paindrain\arduinolcd\test\pain drain\libraries\lvgl\src\misc\lv_area.h ****     LV_ALIGN_OUT_BOTTOM_RIGHT,
  69:c:\projects\paindrain\arduinolcd\test\pain drain\libraries\lvgl\src\misc\lv_area.h ****     LV_ALIGN_OUT_LEFT_TOP,
  70:c:\projects\paindrain\arduinolcd\test\pain drain\libraries\lvgl\src\misc\lv_area.h ****     LV_ALIGN_OUT_LEFT_MID,
  71:c:\projects\paindrain\arduinolcd\test\pain drain\libraries\lvgl\src\misc\lv_area.h ****     LV_ALIGN_OUT_LEFT_BOTTOM,
  72:c:\projects\paindrain\arduinolcd\test\pain drain\libraries\lvgl\src\misc\lv_area.h ****     LV_ALIGN_OUT_RIGHT_TOP,
  73:c:\projects\paindrain\arduinolcd\test\pain drain\libraries\lvgl\src\misc\lv_area.h ****     LV_ALIGN_OUT_RIGHT_MID,
  74:c:\projects\paindrain\arduinolcd\test\pain drain\libraries\lvgl\src\misc\lv_area.h ****     LV_ALIGN_OUT_RIGHT_BOTTOM,
  75:c:\projects\paindrain\arduinolcd\test\pain drain\libraries\lvgl\src\misc\lv_area.h **** };
ARM GAS  C:\Users\haske\AppData\Local\Temp\ccpEN9oH.s 			page 8


  76:c:\projects\paindrain\arduinolcd\test\pain drain\libraries\lvgl\src\misc\lv_area.h **** typedef uint8_t lv_align_t;
  77:c:\projects\paindrain\arduinolcd\test\pain drain\libraries\lvgl\src\misc\lv_area.h **** 
  78:c:\projects\paindrain\arduinolcd\test\pain drain\libraries\lvgl\src\misc\lv_area.h **** enum {
  79:c:\projects\paindrain\arduinolcd\test\pain drain\libraries\lvgl\src\misc\lv_area.h ****     LV_DIR_NONE     = 0x00,
  80:c:\projects\paindrain\arduinolcd\test\pain drain\libraries\lvgl\src\misc\lv_area.h ****     LV_DIR_LEFT     = (1 << 0),
  81:c:\projects\paindrain\arduinolcd\test\pain drain\libraries\lvgl\src\misc\lv_area.h ****     LV_DIR_RIGHT    = (1 << 1),
  82:c:\projects\paindrain\arduinolcd\test\pain drain\libraries\lvgl\src\misc\lv_area.h ****     LV_DIR_TOP      = (1 << 2),
  83:c:\projects\paindrain\arduinolcd\test\pain drain\libraries\lvgl\src\misc\lv_area.h ****     LV_DIR_BOTTOM   = (1 << 3),
  84:c:\projects\paindrain\arduinolcd\test\pain drain\libraries\lvgl\src\misc\lv_area.h ****     LV_DIR_HOR      = LV_DIR_LEFT | LV_DIR_RIGHT,
  85:c:\projects\paindrain\arduinolcd\test\pain drain\libraries\lvgl\src\misc\lv_area.h ****     LV_DIR_VER      = LV_DIR_TOP | LV_DIR_BOTTOM,
  86:c:\projects\paindrain\arduinolcd\test\pain drain\libraries\lvgl\src\misc\lv_area.h ****     LV_DIR_ALL      = LV_DIR_HOR | LV_DIR_VER,
  87:c:\projects\paindrain\arduinolcd\test\pain drain\libraries\lvgl\src\misc\lv_area.h **** };
  88:c:\projects\paindrain\arduinolcd\test\pain drain\libraries\lvgl\src\misc\lv_area.h **** 
  89:c:\projects\paindrain\arduinolcd\test\pain drain\libraries\lvgl\src\misc\lv_area.h **** typedef uint8_t lv_dir_t;
  90:c:\projects\paindrain\arduinolcd\test\pain drain\libraries\lvgl\src\misc\lv_area.h **** 
  91:c:\projects\paindrain\arduinolcd\test\pain drain\libraries\lvgl\src\misc\lv_area.h **** /**********************
  92:c:\projects\paindrain\arduinolcd\test\pain drain\libraries\lvgl\src\misc\lv_area.h ****  * GLOBAL PROTOTYPES
  93:c:\projects\paindrain\arduinolcd\test\pain drain\libraries\lvgl\src\misc\lv_area.h ****  **********************/
  94:c:\projects\paindrain\arduinolcd\test\pain drain\libraries\lvgl\src\misc\lv_area.h **** 
  95:c:\projects\paindrain\arduinolcd\test\pain drain\libraries\lvgl\src\misc\lv_area.h **** /**
  96:c:\projects\paindrain\arduinolcd\test\pain drain\libraries\lvgl\src\misc\lv_area.h ****  * Initialize an area
  97:c:\projects\paindrain\arduinolcd\test\pain drain\libraries\lvgl\src\misc\lv_area.h ****  * @param area_p pointer to an area
  98:c:\projects\paindrain\arduinolcd\test\pain drain\libraries\lvgl\src\misc\lv_area.h ****  * @param x1 left coordinate of the area
  99:c:\projects\paindrain\arduinolcd\test\pain drain\libraries\lvgl\src\misc\lv_area.h ****  * @param y1 top coordinate of the area
 100:c:\projects\paindrain\arduinolcd\test\pain drain\libraries\lvgl\src\misc\lv_area.h ****  * @param x2 right coordinate of the area
 101:c:\projects\paindrain\arduinolcd\test\pain drain\libraries\lvgl\src\misc\lv_area.h ****  * @param y2 bottom coordinate of the area
 102:c:\projects\paindrain\arduinolcd\test\pain drain\libraries\lvgl\src\misc\lv_area.h ****  */
 103:c:\projects\paindrain\arduinolcd\test\pain drain\libraries\lvgl\src\misc\lv_area.h **** void lv_area_set(lv_area_t * area_p, lv_coord_t x1, lv_coord_t y1, lv_coord_t x2, lv_coord_t y2);
 104:c:\projects\paindrain\arduinolcd\test\pain drain\libraries\lvgl\src\misc\lv_area.h **** 
 105:c:\projects\paindrain\arduinolcd\test\pain drain\libraries\lvgl\src\misc\lv_area.h **** /**
 106:c:\projects\paindrain\arduinolcd\test\pain drain\libraries\lvgl\src\misc\lv_area.h ****  * Copy an area
 107:c:\projects\paindrain\arduinolcd\test\pain drain\libraries\lvgl\src\misc\lv_area.h ****  * @param dest pointer to the destination area
 108:c:\projects\paindrain\arduinolcd\test\pain drain\libraries\lvgl\src\misc\lv_area.h ****  * @param src pointer to the source area
 109:c:\projects\paindrain\arduinolcd\test\pain drain\libraries\lvgl\src\misc\lv_area.h ****  */
 110:c:\projects\paindrain\arduinolcd\test\pain drain\libraries\lvgl\src\misc\lv_area.h **** inline static void lv_area_copy(lv_area_t * dest, const lv_area_t * src)
 111:c:\projects\paindrain\arduinolcd\test\pain drain\libraries\lvgl\src\misc\lv_area.h **** {
 112:c:\projects\paindrain\arduinolcd\test\pain drain\libraries\lvgl\src\misc\lv_area.h ****     dest->x1 = src->x1;
 113:c:\projects\paindrain\arduinolcd\test\pain drain\libraries\lvgl\src\misc\lv_area.h ****     dest->y1 = src->y1;
 114:c:\projects\paindrain\arduinolcd\test\pain drain\libraries\lvgl\src\misc\lv_area.h ****     dest->x2 = src->x2;
 115:c:\projects\paindrain\arduinolcd\test\pain drain\libraries\lvgl\src\misc\lv_area.h ****     dest->y2 = src->y2;
 116:c:\projects\paindrain\arduinolcd\test\pain drain\libraries\lvgl\src\misc\lv_area.h **** }
 117:c:\projects\paindrain\arduinolcd\test\pain drain\libraries\lvgl\src\misc\lv_area.h **** 
 118:c:\projects\paindrain\arduinolcd\test\pain drain\libraries\lvgl\src\misc\lv_area.h **** /**
 119:c:\projects\paindrain\arduinolcd\test\pain drain\libraries\lvgl\src\misc\lv_area.h ****  * Get the width of an area
 120:c:\projects\paindrain\arduinolcd\test\pain drain\libraries\lvgl\src\misc\lv_area.h ****  * @param area_p pointer to an area
 121:c:\projects\paindrain\arduinolcd\test\pain drain\libraries\lvgl\src\misc\lv_area.h ****  * @return the width of the area (if x1 == x2 -> width = 1)
 122:c:\projects\paindrain\arduinolcd\test\pain drain\libraries\lvgl\src\misc\lv_area.h ****  */
 123:c:\projects\paindrain\arduinolcd\test\pain drain\libraries\lvgl\src\misc\lv_area.h **** static inline lv_coord_t lv_area_get_width(const lv_area_t * area_p)
 124:c:\projects\paindrain\arduinolcd\test\pain drain\libraries\lvgl\src\misc\lv_area.h **** {
 125:c:\projects\paindrain\arduinolcd\test\pain drain\libraries\lvgl\src\misc\lv_area.h ****     return (lv_coord_t)(area_p->x2 - area_p->x1 + 1);
 108              		.loc 2 125 0
 109 005a 4B46     		mov	r3, r9
 110 005c 0421     		movs	r1, #4
 111 005e 5B5E     		ldrsh	r3, [r3, r1]
 112 0060 9B1A     		subs	r3, r3, r2
 113 0062 0133     		adds	r3, r3, #1
 114 0064 1BB2     		sxth	r3, r3
ARM GAS  C:\Users\haske\AppData\Local\Temp\ccpEN9oH.s 			page 9


 115              	.LVL12:
 116              	.LBE49:
 117              	.LBE48:
 218:..\..\..\arduinoLCD\test\Pain Drain\libraries\lvgl\src\draw\sw/lv_draw_sw_img.c ****         uint32_t dest_w = lv_area_get_width(dest_area);
 219:..\..\..\arduinoLCD\test\Pain Drain\libraries\lvgl\src\draw\sw/lv_draw_sw_img.c ****         uint32_t dest_w_byte = dest_w * sizeof(lv_color_t);
 118              		.loc 1 219 0
 119 0066 5B00     		lsls	r3, r3, #1
 120              	.LVL13:
 121 0068 0193     		str	r3, [sp, #4]
 122              	.LVL14:
 220:..\..\..\arduinoLCD\test\Pain Drain\libraries\lvgl\src\draw\sw/lv_draw_sw_img.c **** 
 221:..\..\..\arduinoLCD\test\Pain Drain\libraries\lvgl\src\draw\sw/lv_draw_sw_img.c ****         lv_coord_t src_stride_byte = src_stride * sizeof(lv_color_t);
 123              		.loc 1 221 0
 124 006a 5346     		mov	r3, r10
 125              	.LVL15:
 126 006c 5B00     		lsls	r3, r3, #1
 127 006e 1BB2     		sxth	r3, r3
 128 0070 9A46     		mov	r10, r3
 129              	.LVL16:
 222:..\..\..\arduinoLCD\test\Pain Drain\libraries\lvgl\src\draw\sw/lv_draw_sw_img.c ****         lv_color_t * cbuf_tmp = cbuf;
 130              		.loc 1 222 0
 131 0072 A046     		mov	r8, r4
 132 0074 1394     		str	r4, [sp, #76]
 133 0076 1495     		str	r5, [sp, #80]
 134 0078 4D46     		mov	r5, r9
 135 007a 149B     		ldr	r3, [sp, #80]
 136 007c 9946     		mov	r9, r3
 137              	.LVL17:
 223:..\..\..\arduinoLCD\test\Pain Drain\libraries\lvgl\src\draw\sw/lv_draw_sw_img.c ****         for(y = dest_area->y1; y <= dest_area->y2; y++) {
 138              		.loc 1 223 0
 139 007e 0AE0     		b	.L4
 140              	.L5:
 224:..\..\..\arduinoLCD\test\Pain Drain\libraries\lvgl\src\draw\sw/lv_draw_sw_img.c ****             lv_memcpy(cbuf_tmp, src_tmp8, dest_w_byte);
 141              		.loc 1 224 0 discriminator 3
 142 0080 019A     		ldr	r2, [sp, #4]
 143 0082 3900     		movs	r1, r7
 144 0084 2000     		movs	r0, r4
 145 0086 FFF7FEFF 		bl	lv_memcpy
 146              	.LVL18:
 225:..\..\..\arduinoLCD\test\Pain Drain\libraries\lvgl\src\draw\sw/lv_draw_sw_img.c ****             src_tmp8 += src_stride_byte;
 147              		.loc 1 225 0 discriminator 3
 148 008a 5744     		add	r7, r7, r10
 149              	.LVL19:
 226:..\..\..\arduinoLCD\test\Pain Drain\libraries\lvgl\src\draw\sw/lv_draw_sw_img.c ****             cbuf_tmp += dest_w;
 150              		.loc 1 226 0 discriminator 3
 151 008c 019B     		ldr	r3, [sp, #4]
 152 008e 9C46     		mov	ip, r3
 153 0090 6444     		add	r4, r4, ip
 154              	.LVL20:
 223:..\..\..\arduinoLCD\test\Pain Drain\libraries\lvgl\src\draw\sw/lv_draw_sw_img.c ****             lv_memcpy(cbuf_tmp, src_tmp8, dest_w_byte);
 155              		.loc 1 223 0 discriminator 3
 156 0092 0136     		adds	r6, r6, #1
 157              	.LVL21:
 158 0094 36B2     		sxth	r6, r6
 159              	.LVL22:
 160              	.L4:
 223:..\..\..\arduinoLCD\test\Pain Drain\libraries\lvgl\src\draw\sw/lv_draw_sw_img.c ****             lv_memcpy(cbuf_tmp, src_tmp8, dest_w_byte);
ARM GAS  C:\Users\haske\AppData\Local\Temp\ccpEN9oH.s 			page 10


 161              		.loc 1 223 0 is_stmt 0 discriminator 1
 162 0096 0622     		movs	r2, #6
 163 0098 AB5E     		ldrsh	r3, [r5, r2]
 164 009a 9E42     		cmp	r6, r3
 165 009c F0DD     		ble	.L5
 166 009e 4446     		mov	r4, r8
 167              	.LVL23:
 168 00a0 4D46     		mov	r5, r9
 169              	.LVL24:
 227:..\..\..\arduinoLCD\test\Pain Drain\libraries\lvgl\src\draw\sw/lv_draw_sw_img.c ****         }
 228:..\..\..\arduinoLCD\test\Pain Drain\libraries\lvgl\src\draw\sw/lv_draw_sw_img.c **** 
 229:..\..\..\arduinoLCD\test\Pain Drain\libraries\lvgl\src\draw\sw/lv_draw_sw_img.c ****         /*Make "holes" for with Chroma keying*/
 230:..\..\..\arduinoLCD\test\Pain Drain\libraries\lvgl\src\draw\sw/lv_draw_sw_img.c ****         if(cf == LV_IMG_CF_TRUE_COLOR_CHROMA_KEYED) {
 170              		.loc 1 230 0 is_stmt 1
 171 00a2 5B46     		mov	r3, fp
 172 00a4 062B     		cmp	r3, #6
 173 00a6 00D0     		beq	.LCB173
 174 00a8 A8E0     		b	.L1	@long jump
 175              	.LCB173:
 176 00aa 0AE0     		b	.L18
 177              	.LVL25:
 178              	.L9:
 179              	.LBB50:
 231:..\..\..\arduinoLCD\test\Pain Drain\libraries\lvgl\src\draw\sw/lv_draw_sw_img.c ****             uint32_t i;
 232:..\..\..\arduinoLCD\test\Pain Drain\libraries\lvgl\src\draw\sw/lv_draw_sw_img.c ****             lv_color_t chk = LV_COLOR_CHROMA_KEY;
 233:..\..\..\arduinoLCD\test\Pain Drain\libraries\lvgl\src\draw\sw/lv_draw_sw_img.c **** #if LV_COLOR_DEPTH == 8 || LV_COLOR_DEPTH == 1
 234:..\..\..\arduinoLCD\test\Pain Drain\libraries\lvgl\src\draw\sw/lv_draw_sw_img.c ****             uint8_t * cbuf_uint = (uint8_t *)cbuf;
 235:..\..\..\arduinoLCD\test\Pain Drain\libraries\lvgl\src\draw\sw/lv_draw_sw_img.c ****             uint8_t chk_v = chk.full;
 236:..\..\..\arduinoLCD\test\Pain Drain\libraries\lvgl\src\draw\sw/lv_draw_sw_img.c **** #elif LV_COLOR_DEPTH == 16
 237:..\..\..\arduinoLCD\test\Pain Drain\libraries\lvgl\src\draw\sw/lv_draw_sw_img.c ****             uint16_t * cbuf_uint = (uint16_t *)cbuf;
 238:..\..\..\arduinoLCD\test\Pain Drain\libraries\lvgl\src\draw\sw/lv_draw_sw_img.c ****             uint16_t chk_v = chk.full;
 239:..\..\..\arduinoLCD\test\Pain Drain\libraries\lvgl\src\draw\sw/lv_draw_sw_img.c **** #elif LV_COLOR_DEPTH == 32
 240:..\..\..\arduinoLCD\test\Pain Drain\libraries\lvgl\src\draw\sw/lv_draw_sw_img.c ****             uint32_t * cbuf_uint = (uint32_t *)cbuf;
 241:..\..\..\arduinoLCD\test\Pain Drain\libraries\lvgl\src\draw\sw/lv_draw_sw_img.c ****             uint32_t chk_v = chk.full;
 242:..\..\..\arduinoLCD\test\Pain Drain\libraries\lvgl\src\draw\sw/lv_draw_sw_img.c **** #endif
 243:..\..\..\arduinoLCD\test\Pain Drain\libraries\lvgl\src\draw\sw/lv_draw_sw_img.c ****             for(i = 0; i < px_cnt; i++) {
 244:..\..\..\arduinoLCD\test\Pain Drain\libraries\lvgl\src\draw\sw/lv_draw_sw_img.c ****                 if(chk_v == cbuf_uint[i]) abuf[i] = 0x00;
 180              		.loc 1 244 0
 181 00ac 5A00     		lsls	r2, r3, #1
 182 00ae 115B     		ldrh	r1, [r2, r4]
 183 00b0 FC22     		movs	r2, #252
 184 00b2 D200     		lsls	r2, r2, #3
 185 00b4 9142     		cmp	r1, r2
 186 00b6 02D1     		bne	.L8
 187              		.loc 1 244 0 is_stmt 0 discriminator 1
 188 00b8 EA18     		adds	r2, r5, r3
 189 00ba 0021     		movs	r1, #0
 190 00bc 1170     		strb	r1, [r2]
 191              	.L8:
 243:..\..\..\arduinoLCD\test\Pain Drain\libraries\lvgl\src\draw\sw/lv_draw_sw_img.c ****                 if(chk_v == cbuf_uint[i]) abuf[i] = 0x00;
 192              		.loc 1 243 0 is_stmt 1 discriminator 2
 193 00be 0133     		adds	r3, r3, #1
 194              	.LVL26:
 195 00c0 01E0     		b	.L6
 196              	.LVL27:
 197              	.L18:
 243:..\..\..\arduinoLCD\test\Pain Drain\libraries\lvgl\src\draw\sw/lv_draw_sw_img.c ****                 if(chk_v == cbuf_uint[i]) abuf[i] = 0x00;
ARM GAS  C:\Users\haske\AppData\Local\Temp\ccpEN9oH.s 			page 11


 198              		.loc 1 243 0 is_stmt 0
 199 00c2 0023     		movs	r3, #0
 200 00c4 0398     		ldr	r0, [sp, #12]
 201              	.L6:
 202              	.LVL28:
 243:..\..\..\arduinoLCD\test\Pain Drain\libraries\lvgl\src\draw\sw/lv_draw_sw_img.c ****                 if(chk_v == cbuf_uint[i]) abuf[i] = 0x00;
 203              		.loc 1 243 0 discriminator 1
 204 00c6 8342     		cmp	r3, r0
 205 00c8 F0D3     		bcc	.L9
 206 00ca 97E0     		b	.L1
 207              	.LVL29:
 208              	.L3:
 209              	.LBE50:
 210              	.LBE47:
 245:..\..\..\arduinoLCD\test\Pain Drain\libraries\lvgl\src\draw\sw/lv_draw_sw_img.c ****             }
 246:..\..\..\arduinoLCD\test\Pain Drain\libraries\lvgl\src\draw\sw/lv_draw_sw_img.c ****         }
 247:..\..\..\arduinoLCD\test\Pain Drain\libraries\lvgl\src\draw\sw/lv_draw_sw_img.c ****     }
 248:..\..\..\arduinoLCD\test\Pain Drain\libraries\lvgl\src\draw\sw/lv_draw_sw_img.c ****     else if(cf == LV_IMG_CF_TRUE_COLOR_ALPHA) {
 211              		.loc 1 248 0 is_stmt 1
 212 00cc 052B     		cmp	r3, #5
 213 00ce 3FD1     		bne	.L10
 214              	.LBB51:
 249:..\..\..\arduinoLCD\test\Pain Drain\libraries\lvgl\src\draw\sw/lv_draw_sw_img.c ****         src_tmp8 += (src_stride * dest_area->y1 * LV_IMG_PX_SIZE_ALPHA_BYTE) + dest_area->x1 * LV_I
 215              		.loc 1 249 0
 216 00d0 0300     		movs	r3, r0
 217 00d2 0222     		movs	r2, #2
 218 00d4 9A5E     		ldrsh	r2, [r3, r2]
 219 00d6 5146     		mov	r1, r10
 220              	.LVL30:
 221 00d8 5143     		muls	r1, r2
 222 00da 0300     		movs	r3, r0
 223 00dc 0020     		movs	r0, #0
 224 00de 185E     		ldrsh	r0, [r3, r0]
 225              	.LVL31:
 226 00e0 4118     		adds	r1, r0, r1
 227 00e2 4F00     		lsls	r7, r1, #1
 228 00e4 7F18     		adds	r7, r7, r1
 229 00e6 029B     		ldr	r3, [sp, #8]
 230 00e8 9C46     		mov	ip, r3
 231 00ea 6744     		add	r7, r7, ip
 232              	.LVL32:
 233              	.LBB52:
 234              	.LBB53:
 235              		.loc 2 125 0
 236 00ec 4B46     		mov	r3, r9
 237 00ee 0421     		movs	r1, #4
 238 00f0 5B5E     		ldrsh	r3, [r3, r1]
 239 00f2 1B1A     		subs	r3, r3, r0
 240 00f4 0133     		adds	r3, r3, #1
 241 00f6 9BB2     		uxth	r3, r3
 242 00f8 18B2     		sxth	r0, r3
 243              	.LVL33:
 244              	.LBE53:
 245              	.LBE52:
 250:..\..\..\arduinoLCD\test\Pain Drain\libraries\lvgl\src\draw\sw/lv_draw_sw_img.c **** 
 251:..\..\..\arduinoLCD\test\Pain Drain\libraries\lvgl\src\draw\sw/lv_draw_sw_img.c ****         lv_coord_t src_new_line_step_px = (src_stride - lv_area_get_width(dest_area));
 246              		.loc 1 251 0
ARM GAS  C:\Users\haske\AppData\Local\Temp\ccpEN9oH.s 			page 12


 247 00fa 5146     		mov	r1, r10
 248 00fc CB1A     		subs	r3, r1, r3
 249 00fe 9BB2     		uxth	r3, r3
 250              	.LVL34:
 252:..\..\..\arduinoLCD\test\Pain Drain\libraries\lvgl\src\draw\sw/lv_draw_sw_img.c ****         lv_coord_t src_new_line_step_byte = src_new_line_step_px * LV_IMG_PX_SIZE_ALPHA_BYTE;
 251              		.loc 1 252 0
 252 0100 5900     		lsls	r1, r3, #1
 253 0102 5B18     		adds	r3, r3, r1
 254              	.LVL35:
 255 0104 1BB2     		sxth	r3, r3
 256 0106 9C46     		mov	ip, r3
 257              	.LVL36:
 258              	.LBB54:
 259              	.LBB55:
 126:c:\projects\paindrain\arduinolcd\test\pain drain\libraries\lvgl\src\misc\lv_area.h **** }
 127:c:\projects\paindrain\arduinolcd\test\pain drain\libraries\lvgl\src\misc\lv_area.h **** 
 128:c:\projects\paindrain\arduinolcd\test\pain drain\libraries\lvgl\src\misc\lv_area.h **** /**
 129:c:\projects\paindrain\arduinolcd\test\pain drain\libraries\lvgl\src\misc\lv_area.h ****  * Get the height of an area
 130:c:\projects\paindrain\arduinolcd\test\pain drain\libraries\lvgl\src\misc\lv_area.h ****  * @param area_p pointer to an area
 131:c:\projects\paindrain\arduinolcd\test\pain drain\libraries\lvgl\src\misc\lv_area.h ****  * @return the height of the area (if y1 == y2 -> height = 1)
 132:c:\projects\paindrain\arduinolcd\test\pain drain\libraries\lvgl\src\misc\lv_area.h ****  */
 133:c:\projects\paindrain\arduinolcd\test\pain drain\libraries\lvgl\src\misc\lv_area.h **** static inline lv_coord_t lv_area_get_height(const lv_area_t * area_p)
 134:c:\projects\paindrain\arduinolcd\test\pain drain\libraries\lvgl\src\misc\lv_area.h **** {
 135:c:\projects\paindrain\arduinolcd\test\pain drain\libraries\lvgl\src\misc\lv_area.h ****     return (lv_coord_t)(area_p->y2 - area_p->y1 + 1);
 260              		.loc 2 135 0
 261 0108 4B46     		mov	r3, r9
 262 010a 0621     		movs	r1, #6
 263 010c 5B5E     		ldrsh	r3, [r3, r1]
 264 010e 9A1A     		subs	r2, r3, r2
 265 0110 0132     		adds	r2, r2, #1
 266 0112 13B2     		sxth	r3, r2
 267 0114 9846     		mov	r8, r3
 268              	.LVL37:
 269              	.LBE55:
 270              	.LBE54:
 253:..\..\..\arduinoLCD\test\Pain Drain\libraries\lvgl\src\draw\sw/lv_draw_sw_img.c **** 
 254:..\..\..\arduinoLCD\test\Pain Drain\libraries\lvgl\src\draw\sw/lv_draw_sw_img.c ****         lv_coord_t dest_h = lv_area_get_height(dest_area);
 255:..\..\..\arduinoLCD\test\Pain Drain\libraries\lvgl\src\draw\sw/lv_draw_sw_img.c ****         lv_coord_t dest_w = lv_area_get_width(dest_area);
 256:..\..\..\arduinoLCD\test\Pain Drain\libraries\lvgl\src\draw\sw/lv_draw_sw_img.c ****         for(y = 0; y < dest_h; y++) {
 271              		.loc 1 256 0
 272 0116 0023     		movs	r3, #0
 273 0118 9946     		mov	r9, r3
 274              	.LVL38:
 275 011a 16E0     		b	.L11
 276              	.LVL39:
 277              	.L12:
 257:..\..\..\arduinoLCD\test\Pain Drain\libraries\lvgl\src\draw\sw/lv_draw_sw_img.c ****             for(x = 0; x < dest_w; x++) {
 258:..\..\..\arduinoLCD\test\Pain Drain\libraries\lvgl\src\draw\sw/lv_draw_sw_img.c ****                 abuf[x] = src_tmp8[LV_IMG_PX_SIZE_ALPHA_BYTE - 1];
 278              		.loc 1 258 0 discriminator 3
 279 011c BA78     		ldrb	r2, [r7, #2]
 280 011e EA54     		strb	r2, [r5, r3]
 259:..\..\..\arduinoLCD\test\Pain Drain\libraries\lvgl\src\draw\sw/lv_draw_sw_img.c **** #if LV_COLOR_DEPTH == 8 || LV_COLOR_DEPTH == 1
 260:..\..\..\arduinoLCD\test\Pain Drain\libraries\lvgl\src\draw\sw/lv_draw_sw_img.c ****                 cbuf[x].full = *src_tmp8;
 261:..\..\..\arduinoLCD\test\Pain Drain\libraries\lvgl\src\draw\sw/lv_draw_sw_img.c **** #elif LV_COLOR_DEPTH == 16
 262:..\..\..\arduinoLCD\test\Pain Drain\libraries\lvgl\src\draw\sw/lv_draw_sw_img.c ****                 cbuf[x].full = *src_tmp8 + ((*(src_tmp8 + 1)) << 8);
 281              		.loc 1 262 0 discriminator 3
 282 0120 5E00     		lsls	r6, r3, #1
ARM GAS  C:\Users\haske\AppData\Local\Temp\ccpEN9oH.s 			page 13


 283 0122 3978     		ldrb	r1, [r7]
 284 0124 7A78     		ldrb	r2, [r7, #1]
 285 0126 1202     		lsls	r2, r2, #8
 286 0128 5218     		adds	r2, r2, r1
 287 012a A253     		strh	r2, [r4, r6]
 263:..\..\..\arduinoLCD\test\Pain Drain\libraries\lvgl\src\draw\sw/lv_draw_sw_img.c **** #elif LV_COLOR_DEPTH == 32
 264:..\..\..\arduinoLCD\test\Pain Drain\libraries\lvgl\src\draw\sw/lv_draw_sw_img.c ****                 cbuf[x] = *((lv_color_t *) src_tmp8);
 265:..\..\..\arduinoLCD\test\Pain Drain\libraries\lvgl\src\draw\sw/lv_draw_sw_img.c ****                 cbuf[x].ch.alpha = 0xff;
 266:..\..\..\arduinoLCD\test\Pain Drain\libraries\lvgl\src\draw\sw/lv_draw_sw_img.c **** #endif
 267:..\..\..\arduinoLCD\test\Pain Drain\libraries\lvgl\src\draw\sw/lv_draw_sw_img.c ****                 src_tmp8 += LV_IMG_PX_SIZE_ALPHA_BYTE;
 288              		.loc 1 267 0 discriminator 3
 289 012c 0337     		adds	r7, r7, #3
 290              	.LVL40:
 257:..\..\..\arduinoLCD\test\Pain Drain\libraries\lvgl\src\draw\sw/lv_draw_sw_img.c ****                 abuf[x] = src_tmp8[LV_IMG_PX_SIZE_ALPHA_BYTE - 1];
 291              		.loc 1 257 0 discriminator 3
 292 012e 0133     		adds	r3, r3, #1
 293              	.LVL41:
 294 0130 1BB2     		sxth	r3, r3
 295              	.LVL42:
 296 0132 00E0     		b	.L13
 297              	.LVL43:
 298              	.L19:
 299 0134 0023     		movs	r3, #0
 300              	.L13:
 301              	.LVL44:
 257:..\..\..\arduinoLCD\test\Pain Drain\libraries\lvgl\src\draw\sw/lv_draw_sw_img.c ****                 abuf[x] = src_tmp8[LV_IMG_PX_SIZE_ALPHA_BYTE - 1];
 302              		.loc 1 257 0 is_stmt 0 discriminator 1
 303 0136 8342     		cmp	r3, r0
 304 0138 F0DB     		blt	.L12
 268:..\..\..\arduinoLCD\test\Pain Drain\libraries\lvgl\src\draw\sw/lv_draw_sw_img.c **** 
 269:..\..\..\arduinoLCD\test\Pain Drain\libraries\lvgl\src\draw\sw/lv_draw_sw_img.c ****             }
 270:..\..\..\arduinoLCD\test\Pain Drain\libraries\lvgl\src\draw\sw/lv_draw_sw_img.c ****             cbuf += dest_w;
 305              		.loc 1 270 0 is_stmt 1 discriminator 2
 306 013a 4300     		lsls	r3, r0, #1
 307              	.LVL45:
 308 013c E418     		adds	r4, r4, r3
 309              	.LVL46:
 271:..\..\..\arduinoLCD\test\Pain Drain\libraries\lvgl\src\draw\sw/lv_draw_sw_img.c ****             abuf += dest_w;
 310              		.loc 1 271 0 discriminator 2
 311 013e 2D18     		adds	r5, r5, r0
 312              	.LVL47:
 272:..\..\..\arduinoLCD\test\Pain Drain\libraries\lvgl\src\draw\sw/lv_draw_sw_img.c ****             src_tmp8 += src_new_line_step_byte;
 313              		.loc 1 272 0 discriminator 2
 314 0140 6744     		add	r7, r7, ip
 315              	.LVL48:
 256:..\..\..\arduinoLCD\test\Pain Drain\libraries\lvgl\src\draw\sw/lv_draw_sw_img.c ****             for(x = 0; x < dest_w; x++) {
 316              		.loc 1 256 0 discriminator 2
 317 0142 4E46     		mov	r6, r9
 318 0144 0136     		adds	r6, r6, #1
 319 0146 33B2     		sxth	r3, r6
 320 0148 9946     		mov	r9, r3
 321              	.LVL49:
 322              	.L11:
 256:..\..\..\arduinoLCD\test\Pain Drain\libraries\lvgl\src\draw\sw/lv_draw_sw_img.c ****             for(x = 0; x < dest_w; x++) {
 323              		.loc 1 256 0 is_stmt 0 discriminator 1
 324 014a C145     		cmp	r9, r8
 325 014c F2DB     		blt	.L19
ARM GAS  C:\Users\haske\AppData\Local\Temp\ccpEN9oH.s 			page 14


 326 014e 55E0     		b	.L1
 327              	.LVL50:
 328              	.L10:
 329              	.LBE51:
 273:..\..\..\arduinoLCD\test\Pain Drain\libraries\lvgl\src\draw\sw/lv_draw_sw_img.c ****         }
 274:..\..\..\arduinoLCD\test\Pain Drain\libraries\lvgl\src\draw\sw/lv_draw_sw_img.c ****     }
 275:..\..\..\arduinoLCD\test\Pain Drain\libraries\lvgl\src\draw\sw/lv_draw_sw_img.c ****     else if(cf == LV_IMG_CF_RGB565A8) {
 330              		.loc 1 275 0 is_stmt 1
 331 0150 142B     		cmp	r3, #20
 332 0152 53D1     		bne	.L1
 333              	.LBB56:
 276:..\..\..\arduinoLCD\test\Pain Drain\libraries\lvgl\src\draw\sw/lv_draw_sw_img.c ****         src_tmp8 += (src_stride * dest_area->y1 * sizeof(lv_color_t)) + dest_area->x1 * sizeof(lv_c
 334              		.loc 1 276 0
 335 0154 0222     		movs	r2, #2
 336 0156 835E     		ldrsh	r3, [r0, r2]
 337 0158 5746     		mov	r7, r10
 338 015a 5F43     		muls	r7, r3
 339 015c 0200     		movs	r2, r0
 340 015e 0021     		movs	r1, #0
 341 0160 515E     		ldrsh	r1, [r2, r1]
 342              	.LVL51:
 343 0162 7F18     		adds	r7, r7, r1
 344 0164 7F00     		lsls	r7, r7, #1
 345 0166 029A     		ldr	r2, [sp, #8]
 346 0168 9446     		mov	ip, r2
 347 016a 6744     		add	r7, r7, ip
 348              	.LVL52:
 277:..\..\..\arduinoLCD\test\Pain Drain\libraries\lvgl\src\draw\sw/lv_draw_sw_img.c **** 
 278:..\..\..\arduinoLCD\test\Pain Drain\libraries\lvgl\src\draw\sw/lv_draw_sw_img.c ****         lv_coord_t src_stride_byte = src_stride * sizeof(lv_color_t);
 349              		.loc 1 278 0
 350 016c 5246     		mov	r2, r10
 351 016e 5200     		lsls	r2, r2, #1
 352 0170 12B2     		sxth	r2, r2
 353 0172 0192     		str	r2, [sp, #4]
 354              	.LVL53:
 355              	.LBB57:
 356              	.LBB58:
 357              		.loc 2 135 0
 358 0174 0200     		movs	r2, r0
 359 0176 0620     		movs	r0, #6
 360 0178 125E     		ldrsh	r2, [r2, r0]
 361              	.LVL54:
 362 017a D21A     		subs	r2, r2, r3
 363 017c 0132     		adds	r2, r2, #1
 364 017e 13B2     		sxth	r3, r2
 365 0180 9846     		mov	r8, r3
 366              	.LVL55:
 367              	.LBE58:
 368              	.LBE57:
 369              	.LBB59:
 370              	.LBB60:
 125:c:\projects\paindrain\arduinolcd\test\pain drain\libraries\lvgl\src\misc\lv_area.h **** }
 371              		.loc 2 125 0
 372 0182 4B46     		mov	r3, r9
 373 0184 0422     		movs	r2, #4
 374 0186 9B5E     		ldrsh	r3, [r3, r2]
 375 0188 5B1A     		subs	r3, r3, r1
ARM GAS  C:\Users\haske\AppData\Local\Temp\ccpEN9oH.s 			page 15


 376 018a 0133     		adds	r3, r3, #1
 377 018c 1BB2     		sxth	r3, r3
 378 018e 9B46     		mov	fp, r3
 379              	.LVL56:
 380              	.LBE60:
 381              	.LBE59:
 279:..\..\..\arduinoLCD\test\Pain Drain\libraries\lvgl\src\draw\sw/lv_draw_sw_img.c **** 
 280:..\..\..\arduinoLCD\test\Pain Drain\libraries\lvgl\src\draw\sw/lv_draw_sw_img.c ****         lv_coord_t dest_h = lv_area_get_height(dest_area);
 281:..\..\..\arduinoLCD\test\Pain Drain\libraries\lvgl\src\draw\sw/lv_draw_sw_img.c ****         lv_coord_t dest_w = lv_area_get_width(dest_area);
 282:..\..\..\arduinoLCD\test\Pain Drain\libraries\lvgl\src\draw\sw/lv_draw_sw_img.c ****         for(y = 0; y < dest_h; y++) {
 382              		.loc 1 282 0
 383 0190 0026     		movs	r6, #0
 384 0192 4B46     		mov	r3, r9
 385 0194 0593     		str	r3, [sp, #20]
 386 0196 A946     		mov	r9, r5
 387              	.LVL57:
 388 0198 0CE0     		b	.L14
 389              	.LVL58:
 390              	.L15:
 283:..\..\..\arduinoLCD\test\Pain Drain\libraries\lvgl\src\draw\sw/lv_draw_sw_img.c ****             lv_memcpy(cbuf, src_tmp8, dest_w * sizeof(lv_color_t));
 391              		.loc 1 283 0 discriminator 3
 392 019a 5B46     		mov	r3, fp
 393 019c 5D00     		lsls	r5, r3, #1
 394 019e 2A00     		movs	r2, r5
 395 01a0 3900     		movs	r1, r7
 396 01a2 2000     		movs	r0, r4
 397 01a4 FFF7FEFF 		bl	lv_memcpy
 398              	.LVL59:
 284:..\..\..\arduinoLCD\test\Pain Drain\libraries\lvgl\src\draw\sw/lv_draw_sw_img.c ****             cbuf += dest_w;
 399              		.loc 1 284 0 discriminator 3
 400 01a8 6419     		adds	r4, r4, r5
 401              	.LVL60:
 285:..\..\..\arduinoLCD\test\Pain Drain\libraries\lvgl\src\draw\sw/lv_draw_sw_img.c ****             src_tmp8 += src_stride_byte;
 402              		.loc 1 285 0 discriminator 3
 403 01aa 019B     		ldr	r3, [sp, #4]
 404 01ac 9C46     		mov	ip, r3
 405 01ae 6744     		add	r7, r7, ip
 406              	.LVL61:
 282:..\..\..\arduinoLCD\test\Pain Drain\libraries\lvgl\src\draw\sw/lv_draw_sw_img.c ****             lv_memcpy(cbuf, src_tmp8, dest_w * sizeof(lv_color_t));
 407              		.loc 1 282 0 discriminator 3
 408 01b0 0136     		adds	r6, r6, #1
 409              	.LVL62:
 410 01b2 36B2     		sxth	r6, r6
 411              	.LVL63:
 412              	.L14:
 282:..\..\..\arduinoLCD\test\Pain Drain\libraries\lvgl\src\draw\sw/lv_draw_sw_img.c ****             lv_memcpy(cbuf, src_tmp8, dest_w * sizeof(lv_color_t));
 413              		.loc 1 282 0 is_stmt 0 discriminator 1
 414 01b4 4645     		cmp	r6, r8
 415 01b6 F0DB     		blt	.L15
 416 01b8 4D46     		mov	r5, r9
 417 01ba 059B     		ldr	r3, [sp, #20]
 418 01bc 9946     		mov	r9, r3
 419              	.LVL64:
 286:..\..\..\arduinoLCD\test\Pain Drain\libraries\lvgl\src\draw\sw/lv_draw_sw_img.c ****         }
 287:..\..\..\arduinoLCD\test\Pain Drain\libraries\lvgl\src\draw\sw/lv_draw_sw_img.c **** 
 288:..\..\..\arduinoLCD\test\Pain Drain\libraries\lvgl\src\draw\sw/lv_draw_sw_img.c ****         src_tmp8 = (const uint8_t *)src_buf;
 289:..\..\..\arduinoLCD\test\Pain Drain\libraries\lvgl\src\draw\sw/lv_draw_sw_img.c ****         src_tmp8 += sizeof(lv_color_t) * src_w * src_h;
ARM GAS  C:\Users\haske\AppData\Local\Temp\ccpEN9oH.s 			page 16


 420              		.loc 1 289 0 is_stmt 1
 421 01be 049F     		ldr	r7, [sp, #16]
 422 01c0 039B     		ldr	r3, [sp, #12]
 423 01c2 5F43     		muls	r7, r3
 424 01c4 7A00     		lsls	r2, r7, #1
 425              	.LVL65:
 290:..\..\..\arduinoLCD\test\Pain Drain\libraries\lvgl\src\draw\sw/lv_draw_sw_img.c ****         src_tmp8 += src_stride * dest_area->y1 + dest_area->x1;
 426              		.loc 1 290 0
 427 01c6 4B46     		mov	r3, r9
 428 01c8 0221     		movs	r1, #2
 429 01ca 5B5E     		ldrsh	r3, [r3, r1]
 430 01cc 5146     		mov	r1, r10
 431 01ce 4B43     		muls	r3, r1
 432 01d0 4946     		mov	r1, r9
 433 01d2 0027     		movs	r7, #0
 434 01d4 CF5F     		ldrsh	r7, [r1, r7]
 435 01d6 FF18     		adds	r7, r7, r3
 436 01d8 D719     		adds	r7, r2, r7
 437 01da 029B     		ldr	r3, [sp, #8]
 438 01dc 9C46     		mov	ip, r3
 439 01de 6744     		add	r7, r7, ip
 440              	.LVL66:
 291:..\..\..\arduinoLCD\test\Pain Drain\libraries\lvgl\src\draw\sw/lv_draw_sw_img.c ****         for(y = 0; y < dest_h; y++) {
 441              		.loc 1 291 0
 442 01e0 0024     		movs	r4, #0
 443              	.LVL67:
 444 01e2 5E46     		mov	r6, fp
 445 01e4 08E0     		b	.L16
 446              	.LVL68:
 447              	.L17:
 292:..\..\..\arduinoLCD\test\Pain Drain\libraries\lvgl\src\draw\sw/lv_draw_sw_img.c ****             lv_memcpy(abuf, src_tmp8, dest_w);
 448              		.loc 1 292 0 discriminator 3
 449 01e6 3200     		movs	r2, r6
 450 01e8 3900     		movs	r1, r7
 451 01ea 2800     		movs	r0, r5
 452 01ec FFF7FEFF 		bl	lv_memcpy
 453              	.LVL69:
 293:..\..\..\arduinoLCD\test\Pain Drain\libraries\lvgl\src\draw\sw/lv_draw_sw_img.c ****             abuf += dest_w;
 454              		.loc 1 293 0 discriminator 3
 455 01f0 AD19     		adds	r5, r5, r6
 456              	.LVL70:
 294:..\..\..\arduinoLCD\test\Pain Drain\libraries\lvgl\src\draw\sw/lv_draw_sw_img.c ****             src_tmp8 += src_stride;
 457              		.loc 1 294 0 discriminator 3
 458 01f2 5744     		add	r7, r7, r10
 459              	.LVL71:
 291:..\..\..\arduinoLCD\test\Pain Drain\libraries\lvgl\src\draw\sw/lv_draw_sw_img.c ****             lv_memcpy(abuf, src_tmp8, dest_w);
 460              		.loc 1 291 0 discriminator 3
 461 01f4 0134     		adds	r4, r4, #1
 462              	.LVL72:
 463 01f6 24B2     		sxth	r4, r4
 464              	.LVL73:
 465              	.L16:
 291:..\..\..\arduinoLCD\test\Pain Drain\libraries\lvgl\src\draw\sw/lv_draw_sw_img.c ****             lv_memcpy(abuf, src_tmp8, dest_w);
 466              		.loc 1 291 0 is_stmt 0 discriminator 1
 467 01f8 4445     		cmp	r4, r8
 468 01fa F4DB     		blt	.L17
 469              	.LVL74:
ARM GAS  C:\Users\haske\AppData\Local\Temp\ccpEN9oH.s 			page 17


 470              	.L1:
 471              	.LBE56:
 295:..\..\..\arduinoLCD\test\Pain Drain\libraries\lvgl\src\draw\sw/lv_draw_sw_img.c ****         }
 296:..\..\..\arduinoLCD\test\Pain Drain\libraries\lvgl\src\draw\sw/lv_draw_sw_img.c ****     }
 297:..\..\..\arduinoLCD\test\Pain Drain\libraries\lvgl\src\draw\sw/lv_draw_sw_img.c **** }
 472              		.loc 1 297 0 is_stmt 1
 473 01fc 07B0     		add	sp, sp, #28
 474              		@ sp needed
 475 01fe 3CBC     		pop	{r2, r3, r4, r5}
 476 0200 9046     		mov	r8, r2
 477 0202 9946     		mov	r9, r3
 478 0204 A246     		mov	r10, r4
 479 0206 AB46     		mov	fp, r5
 480 0208 F0BD     		pop	{r4, r5, r6, r7, pc}
 481              		.cfi_endproc
 482              	.LFE160:
 483              		.size	convert_cb, .-convert_cb
 484              		.global	__aeabi_uidiv
 485 020a C046     		.section	.text.lv_draw_sw_img_decoded,"ax",%progbits
 486              		.align	2
 487              		.global	lv_draw_sw_img_decoded
 488              		.code	16
 489              		.thumb_func
 490              		.type	lv_draw_sw_img_decoded, %function
 491              	lv_draw_sw_img_decoded:
 492              	.LFB159:
  47:..\..\..\arduinoLCD\test\Pain Drain\libraries\lvgl\src\draw\sw/lv_draw_sw_img.c ****     /*Use the clip area as draw area*/
 493              		.loc 1 47 0
 494              		.cfi_startproc
 495              		@ args = 4, pretend = 0, frame = 120
 496              		@ frame_needed = 0, uses_anonymous_args = 0
 497              	.LVL75:
 498 0000 F0B5     		push	{r4, r5, r6, r7, lr}
 499              		.cfi_def_cfa_offset 20
 500              		.cfi_offset 4, -20
 501              		.cfi_offset 5, -16
 502              		.cfi_offset 6, -12
 503              		.cfi_offset 7, -8
 504              		.cfi_offset 14, -4
 505 0002 5F46     		mov	r7, fp
 506 0004 5646     		mov	r6, r10
 507 0006 4D46     		mov	r5, r9
 508 0008 4446     		mov	r4, r8
 509 000a F0B4     		push	{r4, r5, r6, r7}
 510              		.cfi_def_cfa_offset 36
 511              		.cfi_offset 8, -36
 512              		.cfi_offset 9, -32
 513              		.cfi_offset 10, -28
 514              		.cfi_offset 11, -24
 515 000c A5B0     		sub	sp, sp, #148
 516              		.cfi_def_cfa_offset 184
 517 000e 0B90     		str	r0, [sp, #44]
 518 0010 0C00     		movs	r4, r1
 519 0012 0A91     		str	r1, [sp, #40]
 520 0014 1092     		str	r2, [sp, #64]
 521 0016 1193     		str	r3, [sp, #68]
 522 0018 2EAB     		add	r3, sp, #184
ARM GAS  C:\Users\haske\AppData\Local\Temp\ccpEN9oH.s 			page 18


 523              	.LVL76:
 524 001a 1B78     		ldrb	r3, [r3]
 525              	.LVL77:
 526 001c 0E93     		str	r3, [sp, #56]
  50:..\..\..\arduinoLCD\test\Pain Drain\libraries\lvgl\src\draw\sw/lv_draw_sw_img.c **** 
 527              		.loc 1 50 0
 528 001e 8368     		ldr	r3, [r0, #8]
 529              	.LVL78:
 530              	.LBB61:
 531              	.LBB62:
 112:c:\projects\paindrain\arduinolcd\test\pain drain\libraries\lvgl\src\misc\lv_area.h ****     dest->y1 = src->y1;
 532              		.loc 2 112 0
 533 0020 0020     		movs	r0, #0
 534 0022 1A5E     		ldrsh	r2, [r3, r0]
 535              	.LVL79:
 536 0024 22A8     		add	r0, sp, #136
 537              	.LVL80:
 538 0026 0280     		strh	r2, [r0]
 113:c:\projects\paindrain\arduinolcd\test\pain drain\libraries\lvgl\src\misc\lv_area.h ****     dest->x2 = src->x2;
 539              		.loc 2 113 0
 540 0028 0225     		movs	r5, #2
 541 002a 5A5F     		ldrsh	r2, [r3, r5]
 542 002c 4280     		strh	r2, [r0, #2]
 114:c:\projects\paindrain\arduinolcd\test\pain drain\libraries\lvgl\src\misc\lv_area.h ****     dest->y2 = src->y2;
 543              		.loc 2 114 0
 544 002e 0425     		movs	r5, #4
 545 0030 5A5F     		ldrsh	r2, [r3, r5]
 546 0032 8280     		strh	r2, [r0, #4]
 115:c:\projects\paindrain\arduinolcd\test\pain drain\libraries\lvgl\src\misc\lv_area.h **** }
 547              		.loc 2 115 0
 548 0034 0622     		movs	r2, #6
 549 0036 9B5E     		ldrsh	r3, [r3, r2]
 550              	.LVL81:
 551 0038 C380     		strh	r3, [r0, #6]
 552              	.LVL82:
 553              	.LBE62:
 554              	.LBE61:
  52:..\..\..\arduinoLCD\test\Pain Drain\libraries\lvgl\src\draw\sw/lv_draw_sw_img.c ****     bool transform = draw_dsc->angle != 0 || draw_dsc->zoom != LV_IMG_ZOOM_NONE ? true : false;
 555              		.loc 1 52 0
 556 003a FFF7FEFF 		bl	lv_draw_mask_is_any
 557              	.LVL83:
 558 003e 0700     		movs	r7, r0
 559 0040 0D90     		str	r0, [sp, #52]
 560              	.LVL84:
  53:..\..\..\arduinoLCD\test\Pain Drain\libraries\lvgl\src\draw\sw/lv_draw_sw_img.c **** 
 561              		.loc 1 53 0
 562 0042 2368     		ldr	r3, [r4]
 563 0044 1E00     		movs	r6, r3
 564 0046 0F93     		str	r3, [sp, #60]
 565              	.LVL85:
  58:..\..\..\arduinoLCD\test\Pain Drain\libraries\lvgl\src\draw\sw/lv_draw_sw_img.c ****     blend_dsc.opa = draw_dsc->opa;
 566              		.loc 1 58 0
 567 0048 19AD     		add	r5, sp, #100
 568 004a 1C21     		movs	r1, #28
 569 004c 2800     		movs	r0, r5
 570              	.LVL86:
 571 004e FFF7FEFF 		bl	lv_memset_00
ARM GAS  C:\Users\haske\AppData\Local\Temp\ccpEN9oH.s 			page 19


 572              	.LVL87:
  59:..\..\..\arduinoLCD\test\Pain Drain\libraries\lvgl\src\draw\sw/lv_draw_sw_img.c ****     blend_dsc.blend_mode = draw_dsc->blend_mode;
 573              		.loc 1 59 0
 574 0052 E37A     		ldrb	r3, [r4, #11]
 575 0054 2B76     		strb	r3, [r5, #24]
  60:..\..\..\arduinoLCD\test\Pain Drain\libraries\lvgl\src\draw\sw/lv_draw_sw_img.c ****     blend_dsc.blend_area = &blend_area;
 576              		.loc 1 60 0
 577 0056 237B     		ldrb	r3, [r4, #12]
 578 0058 1B07     		lsls	r3, r3, #28
 579 005a 1B0F     		lsrs	r3, r3, #28
 580 005c 6B76     		strb	r3, [r5, #25]
  61:..\..\..\arduinoLCD\test\Pain Drain\libraries\lvgl\src\draw\sw/lv_draw_sw_img.c **** 
 581              		.loc 1 61 0
 582 005e 20AB     		add	r3, sp, #128
 583 0060 1993     		str	r3, [sp, #100]
  64:..\..\..\arduinoLCD\test\Pain Drain\libraries\lvgl\src\draw\sw/lv_draw_sw_img.c ****         blend_dsc.src_buf = (const lv_color_t *)src_buf;
 584              		.loc 1 64 0
 585 0062 002F     		cmp	r7, #0
 586 0064 13D1     		bne	.L21
  64:..\..\..\arduinoLCD\test\Pain Drain\libraries\lvgl\src\draw\sw/lv_draw_sw_img.c ****         blend_dsc.src_buf = (const lv_color_t *)src_buf;
 587              		.loc 1 64 0 is_stmt 0 discriminator 1
 588 0066 8023     		movs	r3, #128
 589 0068 5B04     		lsls	r3, r3, #17
 590 006a 9E42     		cmp	r6, r3
 591 006c 0FD1     		bne	.L21
  64:..\..\..\arduinoLCD\test\Pain Drain\libraries\lvgl\src\draw\sw/lv_draw_sw_img.c ****         blend_dsc.src_buf = (const lv_color_t *)src_buf;
 592              		.loc 1 64 0 discriminator 2
 593 006e 0E9B     		ldr	r3, [sp, #56]
 594 0070 042B     		cmp	r3, #4
 595 0072 0CD1     		bne	.L21
  64:..\..\..\arduinoLCD\test\Pain Drain\libraries\lvgl\src\draw\sw/lv_draw_sw_img.c ****         blend_dsc.src_buf = (const lv_color_t *)src_buf;
 596              		.loc 1 64 0 discriminator 3
 597 0074 0A9B     		ldr	r3, [sp, #40]
 598 0076 9B7A     		ldrb	r3, [r3, #10]
 599 0078 002B     		cmp	r3, #0
 600 007a 08D1     		bne	.L21
  65:..\..\..\arduinoLCD\test\Pain Drain\libraries\lvgl\src\draw\sw/lv_draw_sw_img.c **** 
 601              		.loc 1 65 0 is_stmt 1
 602 007c 119B     		ldr	r3, [sp, #68]
 603 007e 1A93     		str	r3, [sp, #104]
  67:..\..\..\arduinoLCD\test\Pain Drain\libraries\lvgl\src\draw\sw/lv_draw_sw_img.c ****         lv_draw_sw_blend(draw_ctx, &blend_dsc);
 604              		.loc 1 67 0
 605 0080 109B     		ldr	r3, [sp, #64]
 606 0082 1993     		str	r3, [sp, #100]
  68:..\..\..\arduinoLCD\test\Pain Drain\libraries\lvgl\src\draw\sw/lv_draw_sw_img.c ****     }
 607              		.loc 1 68 0
 608 0084 19A9     		add	r1, sp, #100
 609 0086 0B98     		ldr	r0, [sp, #44]
 610 0088 FFF7FEFF 		bl	lv_draw_sw_blend
 611              	.LVL88:
 612 008c 9FE1     		b	.L20
 613              	.L21:
  70:..\..\..\arduinoLCD\test\Pain Drain\libraries\lvgl\src\draw\sw/lv_draw_sw_img.c ****         lv_area_t clipped_coords;
 614              		.loc 1 70 0
 615 008e 0D9B     		ldr	r3, [sp, #52]
 616 0090 002B     		cmp	r3, #0
 617 0092 23D1     		bne	.L23
ARM GAS  C:\Users\haske\AppData\Local\Temp\ccpEN9oH.s 			page 20


  70:..\..\..\arduinoLCD\test\Pain Drain\libraries\lvgl\src\draw\sw/lv_draw_sw_img.c ****         lv_area_t clipped_coords;
 618              		.loc 1 70 0 is_stmt 0 discriminator 1
 619 0094 8023     		movs	r3, #128
 620 0096 5B04     		lsls	r3, r3, #17
 621 0098 0F9A     		ldr	r2, [sp, #60]
 622 009a 9A42     		cmp	r2, r3
 623 009c 1ED1     		bne	.L23
  70:..\..\..\arduinoLCD\test\Pain Drain\libraries\lvgl\src\draw\sw/lv_draw_sw_img.c ****         lv_area_t clipped_coords;
 624              		.loc 1 70 0 discriminator 2
 625 009e 0E9B     		ldr	r3, [sp, #56]
 626 00a0 0E2B     		cmp	r3, #14
 627 00a2 1BD1     		bne	.L23
 628              	.LBB63:
  72:..\..\..\arduinoLCD\test\Pain Drain\libraries\lvgl\src\draw\sw/lv_draw_sw_img.c **** 
 629              		.loc 1 72 0 is_stmt 1
 630 00a4 0B9B     		ldr	r3, [sp, #44]
 631 00a6 9B68     		ldr	r3, [r3, #8]
 632 00a8 0693     		str	r3, [sp, #24]
 633 00aa 1A00     		movs	r2, r3
 634 00ac 1099     		ldr	r1, [sp, #64]
 635 00ae 17A8     		add	r0, sp, #92
 636 00b0 FFF7FEFF 		bl	_lv_area_intersect
 637              	.LVL89:
 638 00b4 0028     		cmp	r0, #0
 639 00b6 00D1     		bne	.LCB698
 640 00b8 89E1     		b	.L20	@long jump
 641              	.LCB698:
  74:..\..\..\arduinoLCD\test\Pain Drain\libraries\lvgl\src\draw\sw/lv_draw_sw_img.c ****         blend_dsc.mask_area = coords;
 642              		.loc 1 74 0
 643 00ba 19A9     		add	r1, sp, #100
 644 00bc 119B     		ldr	r3, [sp, #68]
 645 00be CB60     		str	r3, [r1, #12]
  75:..\..\..\arduinoLCD\test\Pain Drain\libraries\lvgl\src\draw\sw/lv_draw_sw_img.c ****         blend_dsc.src_buf = NULL;
 646              		.loc 1 75 0
 647 00c0 109A     		ldr	r2, [sp, #64]
 648 00c2 4A61     		str	r2, [r1, #20]
  76:..\..\..\arduinoLCD\test\Pain Drain\libraries\lvgl\src\draw\sw/lv_draw_sw_img.c ****         blend_dsc.color = draw_dsc->recolor;
 649              		.loc 1 76 0
 650 00c4 0023     		movs	r3, #0
 651 00c6 4B60     		str	r3, [r1, #4]
  77:..\..\..\arduinoLCD\test\Pain Drain\libraries\lvgl\src\draw\sw/lv_draw_sw_img.c ****         blend_dsc.mask_res = LV_DRAW_MASK_RES_CHANGED;
 652              		.loc 1 77 0
 653 00c8 0A9B     		ldr	r3, [sp, #40]
 654 00ca 1B89     		ldrh	r3, [r3, #8]
 655 00cc 0B81     		strh	r3, [r1, #8]
  78:..\..\..\arduinoLCD\test\Pain Drain\libraries\lvgl\src\draw\sw/lv_draw_sw_img.c **** 
 656              		.loc 1 78 0
 657 00ce 0223     		movs	r3, #2
 658 00d0 0B74     		strb	r3, [r1, #16]
  80:..\..\..\arduinoLCD\test\Pain Drain\libraries\lvgl\src\draw\sw/lv_draw_sw_img.c ****         lv_draw_sw_blend(draw_ctx, &blend_dsc);
 659              		.loc 1 80 0
 660 00d2 1992     		str	r2, [sp, #100]
  81:..\..\..\arduinoLCD\test\Pain Drain\libraries\lvgl\src\draw\sw/lv_draw_sw_img.c ****     }
 661              		.loc 1 81 0
 662 00d4 0B98     		ldr	r0, [sp, #44]
 663 00d6 FFF7FEFF 		bl	lv_draw_sw_blend
 664              	.LVL90:
ARM GAS  C:\Users\haske\AppData\Local\Temp\ccpEN9oH.s 			page 21


 665              	.LBE63:
  70:..\..\..\arduinoLCD\test\Pain Drain\libraries\lvgl\src\draw\sw/lv_draw_sw_img.c ****         lv_area_t clipped_coords;
 666              		.loc 1 70 0
 667 00da 78E1     		b	.L20
 668              	.L23:
  84:..\..\..\arduinoLCD\test\Pain Drain\libraries\lvgl\src\draw\sw/lv_draw_sw_img.c ****         lv_coord_t src_w = lv_area_get_width(coords);
 669              		.loc 1 84 0
 670 00dc 0D9B     		ldr	r3, [sp, #52]
 671 00de 002B     		cmp	r3, #0
 672 00e0 2AD1     		bne	.L26
  84:..\..\..\arduinoLCD\test\Pain Drain\libraries\lvgl\src\draw\sw/lv_draw_sw_img.c ****         lv_coord_t src_w = lv_area_get_width(coords);
 673              		.loc 1 84 0 is_stmt 0 discriminator 1
 674 00e2 8023     		movs	r3, #128
 675 00e4 5B04     		lsls	r3, r3, #17
 676 00e6 0F9A     		ldr	r2, [sp, #60]
 677 00e8 9A42     		cmp	r2, r3
 678 00ea 25D1     		bne	.L26
  84:..\..\..\arduinoLCD\test\Pain Drain\libraries\lvgl\src\draw\sw/lv_draw_sw_img.c ****         lv_coord_t src_w = lv_area_get_width(coords);
 679              		.loc 1 84 0 discriminator 2
 680 00ec 0E9B     		ldr	r3, [sp, #56]
 681 00ee 142B     		cmp	r3, #20
 682 00f0 22D1     		bne	.L26
  84:..\..\..\arduinoLCD\test\Pain Drain\libraries\lvgl\src\draw\sw/lv_draw_sw_img.c ****         lv_coord_t src_w = lv_area_get_width(coords);
 683              		.loc 1 84 0 discriminator 3
 684 00f2 0A9B     		ldr	r3, [sp, #40]
 685 00f4 9B7A     		ldrb	r3, [r3, #10]
 686 00f6 002B     		cmp	r3, #0
 687 00f8 1ED1     		bne	.L26
 688              	.LVL91:
 689              	.LBB64:
 690              	.LBB65:
 691              	.LBB66:
 125:c:\projects\paindrain\arduinolcd\test\pain drain\libraries\lvgl\src\misc\lv_area.h **** }
 692              		.loc 2 125 0 is_stmt 1
 693 00fa 109C     		ldr	r4, [sp, #64]
 694              	.LVL92:
 695 00fc 0421     		movs	r1, #4
 696 00fe 635E     		ldrsh	r3, [r4, r1]
 697 0100 0021     		movs	r1, #0
 698 0102 605E     		ldrsh	r0, [r4, r1]
 699 0104 1B1A     		subs	r3, r3, r0
 700 0106 0133     		adds	r3, r3, #1
 701 0108 18B2     		sxth	r0, r3
 702              	.LVL93:
 703              	.LBE66:
 704              	.LBE65:
 705              	.LBB67:
 706              	.LBB68:
 707              		.loc 2 135 0
 708 010a 0621     		movs	r1, #6
 709 010c 625E     		ldrsh	r2, [r4, r1]
 710 010e 0221     		movs	r1, #2
 711 0110 635E     		ldrsh	r3, [r4, r1]
 712 0112 D31A     		subs	r3, r2, r3
 713 0114 0133     		adds	r3, r3, #1
 714 0116 1BB2     		sxth	r3, r3
 715              	.LVL94:
ARM GAS  C:\Users\haske\AppData\Local\Temp\ccpEN9oH.s 			page 22


 716              	.LBE68:
 717              	.LBE67:
  87:..\..\..\arduinoLCD\test\Pain Drain\libraries\lvgl\src\draw\sw/lv_draw_sw_img.c ****         blend_dsc.mask_buf = (lv_opa_t *)src_buf;
 718              		.loc 1 87 0
 719 0118 19A9     		add	r1, sp, #100
 720 011a 119A     		ldr	r2, [sp, #68]
 721 011c 4A60     		str	r2, [r1, #4]
  89:..\..\..\arduinoLCD\test\Pain Drain\libraries\lvgl\src\draw\sw/lv_draw_sw_img.c ****         blend_dsc.blend_area = coords;
 722              		.loc 1 89 0
 723 011e 4343     		muls	r3, r0
 724 0120 5B00     		lsls	r3, r3, #1
 725 0122 9446     		mov	ip, r2
 726 0124 6344     		add	r3, r3, ip
 727 0126 CB60     		str	r3, [r1, #12]
  90:..\..\..\arduinoLCD\test\Pain Drain\libraries\lvgl\src\draw\sw/lv_draw_sw_img.c ****         blend_dsc.mask_area = coords;
 728              		.loc 1 90 0
 729 0128 1994     		str	r4, [sp, #100]
  91:..\..\..\arduinoLCD\test\Pain Drain\libraries\lvgl\src\draw\sw/lv_draw_sw_img.c ****         blend_dsc.mask_res = LV_DRAW_MASK_RES_CHANGED;
 730              		.loc 1 91 0
 731 012a 4C61     		str	r4, [r1, #20]
  92:..\..\..\arduinoLCD\test\Pain Drain\libraries\lvgl\src\draw\sw/lv_draw_sw_img.c ****         lv_draw_sw_blend(draw_ctx, &blend_dsc);
 732              		.loc 1 92 0
 733 012c 0223     		movs	r3, #2
 734 012e 0B74     		strb	r3, [r1, #16]
  93:..\..\..\arduinoLCD\test\Pain Drain\libraries\lvgl\src\draw\sw/lv_draw_sw_img.c ****     }
 735              		.loc 1 93 0
 736 0130 0B98     		ldr	r0, [sp, #44]
 737 0132 FFF7FEFF 		bl	lv_draw_sw_blend
 738              	.LVL95:
 739              	.LBE64:
  84:..\..\..\arduinoLCD\test\Pain Drain\libraries\lvgl\src\draw\sw/lv_draw_sw_img.c ****         lv_coord_t src_w = lv_area_get_width(coords);
 740              		.loc 1 84 0
 741 0136 4AE1     		b	.L20
 742              	.LVL96:
 743              	.L26:
 744              	.LBB69:
  98:..\..\..\arduinoLCD\test\Pain Drain\libraries\lvgl\src\draw\sw/lv_draw_sw_img.c ****         blend_area.x2 = draw_ctx->clip_area->x2;
 745              		.loc 1 98 0
 746 0138 0B9B     		ldr	r3, [sp, #44]
 747 013a 9A68     		ldr	r2, [r3, #8]
 748 013c 0023     		movs	r3, #0
 749 013e D05E     		ldrsh	r0, [r2, r3]
 750 0140 20AD     		add	r5, sp, #128
 751 0142 2880     		strh	r0, [r5]
  99:..\..\..\arduinoLCD\test\Pain Drain\libraries\lvgl\src\draw\sw/lv_draw_sw_img.c ****         blend_area.y1 = draw_ctx->clip_area->y1;
 752              		.loc 1 99 0
 753 0144 0421     		movs	r1, #4
 754 0146 535E     		ldrsh	r3, [r2, r1]
 755 0148 AB80     		strh	r3, [r5, #4]
 100:..\..\..\arduinoLCD\test\Pain Drain\libraries\lvgl\src\draw\sw/lv_draw_sw_img.c ****         blend_area.y2 = draw_ctx->clip_area->y2;
 756              		.loc 1 100 0
 757 014a 0221     		movs	r1, #2
 758 014c 565E     		ldrsh	r6, [r2, r1]
 759              	.LVL97:
 760 014e 6E80     		strh	r6, [r5, #2]
 101:..\..\..\arduinoLCD\test\Pain Drain\libraries\lvgl\src\draw\sw/lv_draw_sw_img.c **** 
 761              		.loc 1 101 0
ARM GAS  C:\Users\haske\AppData\Local\Temp\ccpEN9oH.s 			page 23


 762 0150 0621     		movs	r1, #6
 763 0152 525E     		ldrsh	r2, [r2, r1]
 764 0154 EA80     		strh	r2, [r5, #6]
 765              	.LVL98:
 766              	.LBB70:
 767              	.LBB71:
 125:c:\projects\paindrain\arduinolcd\test\pain drain\libraries\lvgl\src\misc\lv_area.h **** }
 768              		.loc 2 125 0
 769 0156 109C     		ldr	r4, [sp, #64]
 770              	.LVL99:
 771 0158 0427     		movs	r7, #4
 772 015a E15F     		ldrsh	r1, [r4, r7]
 773              	.LVL100:
 774 015c 8C46     		mov	ip, r1
 775 015e 0021     		movs	r1, #0
 776 0160 675E     		ldrsh	r7, [r4, r1]
 777 0162 6146     		mov	r1, ip
 778 0164 C91B     		subs	r1, r1, r7
 779 0166 0131     		adds	r1, r1, #1
 780 0168 09B2     		sxth	r1, r1
 781 016a 1491     		str	r1, [sp, #80]
 782              	.LVL101:
 783              	.LBE71:
 784              	.LBE70:
 785              	.LBB72:
 786              	.LBB73:
 787              		.loc 2 135 0
 788 016c 0627     		movs	r7, #6
 789 016e E15F     		ldrsh	r1, [r4, r7]
 790 0170 0227     		movs	r7, #2
 791 0172 E75F     		ldrsh	r7, [r4, r7]
 792 0174 C91B     		subs	r1, r1, r7
 793 0176 0131     		adds	r1, r1, #1
 794 0178 09B2     		sxth	r1, r1
 795 017a 1391     		str	r1, [sp, #76]
 796              	.LVL102:
 797              	.LBE73:
 798              	.LBE72:
 799              	.LBB74:
 800              	.LBB75:
 801 017c 921B     		subs	r2, r2, r6
 802 017e 0132     		adds	r2, r2, #1
 803 0180 17B2     		sxth	r7, r2
 804              	.LVL103:
 805              	.LBE75:
 806              	.LBE74:
 807              	.LBB76:
 808              	.LBB77:
 125:c:\projects\paindrain\arduinolcd\test\pain drain\libraries\lvgl\src\misc\lv_area.h **** }
 809              		.loc 2 125 0
 810 0182 1B1A     		subs	r3, r3, r0
 811 0184 0133     		adds	r3, r3, #1
 812 0186 1BB2     		sxth	r3, r3
 813 0188 0893     		str	r3, [sp, #32]
 814              	.LVL104:
 815              	.LBE77:
 816              	.LBE76:
ARM GAS  C:\Users\haske\AppData\Local\Temp\ccpEN9oH.s 			page 24


 108:..\..\..\arduinoLCD\test\Pain Drain\libraries\lvgl\src\draw\sw/lv_draw_sw_img.c ****         uint32_t blend_size = lv_area_get_size(&blend_area);
 817              		.loc 1 108 0
 818 018a FFF7FEFF 		bl	_lv_refr_get_disp_refreshing
 819              	.LVL105:
 820 018e FFF7FEFF 		bl	lv_disp_get_hor_res
 821              	.LVL106:
 822 0192 0400     		movs	r4, r0
 823              	.LVL107:
 109:..\..\..\arduinoLCD\test\Pain Drain\libraries\lvgl\src\draw\sw/lv_draw_sw_img.c ****         uint32_t buf_h;
 824              		.loc 1 109 0
 825 0194 2800     		movs	r0, r5
 826              	.LVL108:
 827 0196 FFF7FEFF 		bl	lv_area_get_size
 828              	.LVL109:
 111:..\..\..\arduinoLCD\test\Pain Drain\libraries\lvgl\src\draw\sw/lv_draw_sw_img.c ****         if(blend_size <= max_buf_size) {
 829              		.loc 1 111 0
 830 019a 089B     		ldr	r3, [sp, #32]
 831 019c 1593     		str	r3, [sp, #84]
 832              	.LVL110:
 112:..\..\..\arduinoLCD\test\Pain Drain\libraries\lvgl\src\draw\sw/lv_draw_sw_img.c ****             buf_h = blend_h;
 833              		.loc 1 112 0
 834 019e 8442     		cmp	r4, r0
 835 01a0 01D3     		bcc	.L27
 113:..\..\..\arduinoLCD\test\Pain Drain\libraries\lvgl\src\draw\sw/lv_draw_sw_img.c ****         }
 836              		.loc 1 113 0
 837 01a2 3B00     		movs	r3, r7
 838              	.LVL111:
 839 01a4 04E0     		b	.L28
 840              	.LVL112:
 841              	.L27:
 117:..\..\..\arduinoLCD\test\Pain Drain\libraries\lvgl\src\draw\sw/lv_draw_sw_img.c ****         }
 842              		.loc 1 117 0
 843 01a6 0899     		ldr	r1, [sp, #32]
 844 01a8 2000     		movs	r0, r4
 845              	.LVL113:
 846 01aa FFF7FEFF 		bl	__aeabi_uidiv
 847              	.LVL114:
 848 01ae 0300     		movs	r3, r0
 849              	.LVL115:
 850              	.L28:
 121:..\..\..\arduinoLCD\test\Pain Drain\libraries\lvgl\src\draw\sw/lv_draw_sw_img.c **** 
 851              		.loc 1 121 0
 852 01b0 089F     		ldr	r7, [sp, #32]
 853 01b2 1C00     		movs	r4, r3
 854              	.LVL116:
 855 01b4 5F43     		muls	r7, r3
 856              	.LVL117:
 123:..\..\..\arduinoLCD\test\Pain Drain\libraries\lvgl\src\draw\sw/lv_draw_sw_img.c ****         lv_opa_t * mask_buf = lv_mem_buf_get(buf_size);
 857              		.loc 1 123 0
 858 01b6 7800     		lsls	r0, r7, #1
 859 01b8 FFF7FEFF 		bl	lv_mem_buf_get
 860              	.LVL118:
 861 01bc 0600     		movs	r6, r0
 862              	.LVL119:
 124:..\..\..\arduinoLCD\test\Pain Drain\libraries\lvgl\src\draw\sw/lv_draw_sw_img.c ****         blend_dsc.mask_buf = mask_buf;
 863              		.loc 1 124 0
 864 01be 3800     		movs	r0, r7
ARM GAS  C:\Users\haske\AppData\Local\Temp\ccpEN9oH.s 			page 25


 865              	.LVL120:
 866 01c0 FFF7FEFF 		bl	lv_mem_buf_get
 867              	.LVL121:
 868 01c4 0C90     		str	r0, [sp, #48]
 869              	.LVL122:
 125:..\..\..\arduinoLCD\test\Pain Drain\libraries\lvgl\src\draw\sw/lv_draw_sw_img.c ****         blend_dsc.mask_area = &blend_area;
 870              		.loc 1 125 0
 871 01c6 1C90     		str	r0, [sp, #112]
 126:..\..\..\arduinoLCD\test\Pain Drain\libraries\lvgl\src\draw\sw/lv_draw_sw_img.c ****         blend_dsc.mask_res = LV_DRAW_MASK_RES_CHANGED;
 872              		.loc 1 126 0
 873 01c8 20AA     		add	r2, sp, #128
 874 01ca 1E92     		str	r2, [sp, #120]
 128:..\..\..\arduinoLCD\test\Pain Drain\libraries\lvgl\src\draw\sw/lv_draw_sw_img.c ****         lv_coord_t y_last = blend_area.y2;
 875              		.loc 1 128 0
 876 01cc 1A96     		str	r6, [sp, #104]
 129:..\..\..\arduinoLCD\test\Pain Drain\libraries\lvgl\src\draw\sw/lv_draw_sw_img.c ****         blend_area.y2 = blend_area.y1 + buf_h - 1;
 877              		.loc 1 129 0
 878 01ce 0621     		movs	r1, #6
 879 01d0 535E     		ldrsh	r3, [r2, r1]
 880 01d2 0993     		str	r3, [sp, #36]
 881              	.LVL123:
 130:..\..\..\arduinoLCD\test\Pain Drain\libraries\lvgl\src\draw\sw/lv_draw_sw_img.c **** 
 882              		.loc 1 130 0
 883 01d4 0221     		movs	r1, #2
 884 01d6 535E     		ldrsh	r3, [r2, r1]
 885 01d8 A1B2     		uxth	r1, r4
 886 01da 1291     		str	r1, [sp, #72]
 887 01dc 8C46     		mov	ip, r1
 888 01de 6344     		add	r3, r3, ip
 889 01e0 013B     		subs	r3, r3, #1
 890 01e2 D380     		strh	r3, [r2, #6]
 132:..\..\..\arduinoLCD\test\Pain Drain\libraries\lvgl\src\draw\sw/lv_draw_sw_img.c ****                                            draw_dsc->zoom != LV_IMG_ZOOM_NONE) ?
 891              		.loc 1 132 0
 892 01e4 0E9B     		ldr	r3, [sp, #56]
 893 01e6 042B     		cmp	r3, #4
 894 01e8 08D1     		bne	.L43
 132:..\..\..\arduinoLCD\test\Pain Drain\libraries\lvgl\src\draw\sw/lv_draw_sw_img.c ****                                            draw_dsc->zoom != LV_IMG_ZOOM_NONE) ?
 895              		.loc 1 132 0 is_stmt 0 discriminator 2
 896 01ea 8023     		movs	r3, #128
 897 01ec 5B04     		lsls	r3, r3, #17
 898 01ee 0A9A     		ldr	r2, [sp, #40]
 899 01f0 1268     		ldr	r2, [r2]
 900 01f2 0692     		str	r2, [sp, #24]
 901 01f4 9A42     		cmp	r2, r3
 902 01f6 03D0     		beq	.L44
 132:..\..\..\arduinoLCD\test\Pain Drain\libraries\lvgl\src\draw\sw/lv_draw_sw_img.c ****                                            draw_dsc->zoom != LV_IMG_ZOOM_NONE) ?
 903              		.loc 1 132 0
 904 01f8 0222     		movs	r2, #2
 905 01fa 02E0     		b	.L29
 906              	.L43:
 907 01fc 0222     		movs	r2, #2
 908 01fe 00E0     		b	.L29
 909              	.L44:
 910 0200 0122     		movs	r2, #1
 911              	.L29:
 912              	.LVL124:
 135:..\..\..\arduinoLCD\test\Pain Drain\libraries\lvgl\src\draw\sw/lv_draw_sw_img.c **** 
ARM GAS  C:\Users\haske\AppData\Local\Temp\ccpEN9oH.s 			page 26


 913              		.loc 1 135 0 is_stmt 1 discriminator 6
 914 0202 19AB     		add	r3, sp, #100
 915 0204 1A74     		strb	r2, [r3, #16]
 137:..\..\..\arduinoLCD\test\Pain Drain\libraries\lvgl\src\draw\sw/lv_draw_sw_img.c ****             /*Apply transformations if any or separate the channels*/
 916              		.loc 1 137 0 discriminator 6
 917 0206 D5E0     		b	.L30
 918              	.LVL125:
 919              	.L42:
 920              	.LBB78:
 921              	.LBB79:
 922              	.LBB80:
 112:c:\projects\paindrain\arduinolcd\test\pain drain\libraries\lvgl\src\misc\lv_area.h ****     dest->y1 = src->y1;
 923              		.loc 2 112 0
 924 0208 20AB     		add	r3, sp, #128
 925              	.LVL126:
 926 020a 0020     		movs	r0, #0
 927 020c 195E     		ldrsh	r1, [r3, r0]
 928 020e 17A8     		add	r0, sp, #92
 929              	.LVL127:
 930 0210 0180     		strh	r1, [r0]
 113:c:\projects\paindrain\arduinolcd\test\pain drain\libraries\lvgl\src\misc\lv_area.h ****     dest->x2 = src->x2;
 931              		.loc 2 113 0
 932 0212 4280     		strh	r2, [r0, #2]
 114:c:\projects\paindrain\arduinolcd\test\pain drain\libraries\lvgl\src\misc\lv_area.h ****     dest->y2 = src->y2;
 933              		.loc 2 114 0
 934 0214 0421     		movs	r1, #4
 935 0216 5A5E     		ldrsh	r2, [r3, r1]
 936 0218 8280     		strh	r2, [r0, #4]
 115:c:\projects\paindrain\arduinolcd\test\pain drain\libraries\lvgl\src\misc\lv_area.h **** }
 937              		.loc 2 115 0
 938 021a 0622     		movs	r2, #6
 939 021c 9B5E     		ldrsh	r3, [r3, r2]
 940              	.LVL128:
 941 021e C380     		strh	r3, [r0, #6]
 942              	.LVL129:
 943              	.LBE80:
 944              	.LBE79:
 141:..\..\..\arduinoLCD\test\Pain Drain\libraries\lvgl\src\draw\sw/lv_draw_sw_img.c ****             if(transform) {
 945              		.loc 1 141 0
 946 0220 109B     		ldr	r3, [sp, #64]
 947 0222 0022     		movs	r2, #0
 948 0224 995E     		ldrsh	r1, [r3, r2]
 949 0226 0222     		movs	r2, #2
 950 0228 9A5E     		ldrsh	r2, [r3, r2]
 951 022a 5242     		rsbs	r2, r2, #0
 952 022c 12B2     		sxth	r2, r2
 953 022e 4942     		rsbs	r1, r1, #0
 954 0230 09B2     		sxth	r1, r1
 955 0232 FFF7FEFF 		bl	lv_area_move
 956              	.LVL130:
 142:..\..\..\arduinoLCD\test\Pain Drain\libraries\lvgl\src\draw\sw/lv_draw_sw_img.c ****                 lv_draw_transform(draw_ctx, &transform_area, src_buf, src_w, src_h, src_w,
 957              		.loc 1 142 0
 958 0236 8023     		movs	r3, #128
 959 0238 5B04     		lsls	r3, r3, #17
 960 023a 0F9A     		ldr	r2, [sp, #60]
 961 023c 9A42     		cmp	r2, r3
 962 023e 10D0     		beq	.L31
ARM GAS  C:\Users\haske\AppData\Local\Temp\ccpEN9oH.s 			page 27


 143:..\..\..\arduinoLCD\test\Pain Drain\libraries\lvgl\src\draw\sw/lv_draw_sw_img.c ****                                   draw_dsc, cf, rgb_buf, mask_buf);
 963              		.loc 1 143 0
 964 0240 0C9B     		ldr	r3, [sp, #48]
 965 0242 0593     		str	r3, [sp, #20]
 966 0244 0496     		str	r6, [sp, #16]
 967 0246 0E9B     		ldr	r3, [sp, #56]
 968 0248 0393     		str	r3, [sp, #12]
 969 024a 0A9B     		ldr	r3, [sp, #40]
 970 024c 0293     		str	r3, [sp, #8]
 971 024e 149B     		ldr	r3, [sp, #80]
 972 0250 0193     		str	r3, [sp, #4]
 973 0252 139A     		ldr	r2, [sp, #76]
 974 0254 0092     		str	r2, [sp]
 975 0256 119A     		ldr	r2, [sp, #68]
 976 0258 17A9     		add	r1, sp, #92
 977 025a 0B98     		ldr	r0, [sp, #44]
 978 025c FFF7FEFF 		bl	lv_draw_transform
 979              	.LVL131:
 980 0260 0DE0     		b	.L32
 981              	.L31:
 147:..\..\..\arduinoLCD\test\Pain Drain\libraries\lvgl\src\draw\sw/lv_draw_sw_img.c ****             }
 982              		.loc 1 147 0
 983 0262 0C9B     		ldr	r3, [sp, #48]
 984 0264 0493     		str	r3, [sp, #16]
 985 0266 0396     		str	r6, [sp, #12]
 986 0268 0E9B     		ldr	r3, [sp, #56]
 987 026a 0293     		str	r3, [sp, #8]
 988 026c 0A9B     		ldr	r3, [sp, #40]
 989 026e 0193     		str	r3, [sp, #4]
 990 0270 149A     		ldr	r2, [sp, #80]
 991 0272 0092     		str	r2, [sp]
 992 0274 139B     		ldr	r3, [sp, #76]
 993 0276 1199     		ldr	r1, [sp, #68]
 994 0278 17A8     		add	r0, sp, #92
 995 027a FFF7FEFF 		bl	convert_cb
 996              	.LVL132:
 997              	.L32:
 151:..\..\..\arduinoLCD\test\Pain Drain\libraries\lvgl\src\draw\sw/lv_draw_sw_img.c ****                 uint16_t premult_v[3];
 998              		.loc 1 151 0
 999 027e 0A9A     		ldr	r2, [sp, #40]
 1000 0280 937A     		ldrb	r3, [r2, #10]
 1001 0282 022B     		cmp	r3, #2
 1002 0284 56D9     		bls	.L33
 1003              	.LVL133:
 1004              	.LBB81:
 154:..\..\..\arduinoLCD\test\Pain Drain\libraries\lvgl\src\draw\sw/lv_draw_sw_img.c ****                 lv_color_premult(recolor, recolor_opa, premult_v);
 1005              		.loc 1 154 0
 1006 0286 1289     		ldrh	r2, [r2, #8]
 1007              	.LVL134:
 1008              	.LBB82:
 1009              	.LBB83:
 1010              		.file 3 "c:\\projects\\paindrain\\arduinolcd\\test\\pain drain\\libraries\\lvgl\\src\\misc\\lv_col
   1:c:\projects\paindrain\arduinolcd\test\pain drain\libraries\lvgl\src\misc\lv_color.h **** /**
   2:c:\projects\paindrain\arduinolcd\test\pain drain\libraries\lvgl\src\misc\lv_color.h ****  * @file lv_color.h
   3:c:\projects\paindrain\arduinolcd\test\pain drain\libraries\lvgl\src\misc\lv_color.h ****  *
   4:c:\projects\paindrain\arduinolcd\test\pain drain\libraries\lvgl\src\misc\lv_color.h ****  */
   5:c:\projects\paindrain\arduinolcd\test\pain drain\libraries\lvgl\src\misc\lv_color.h **** 
ARM GAS  C:\Users\haske\AppData\Local\Temp\ccpEN9oH.s 			page 28


   6:c:\projects\paindrain\arduinolcd\test\pain drain\libraries\lvgl\src\misc\lv_color.h **** #ifndef LV_COLOR_H
   7:c:\projects\paindrain\arduinolcd\test\pain drain\libraries\lvgl\src\misc\lv_color.h **** #define LV_COLOR_H
   8:c:\projects\paindrain\arduinolcd\test\pain drain\libraries\lvgl\src\misc\lv_color.h **** 
   9:c:\projects\paindrain\arduinolcd\test\pain drain\libraries\lvgl\src\misc\lv_color.h **** #ifdef __cplusplus
  10:c:\projects\paindrain\arduinolcd\test\pain drain\libraries\lvgl\src\misc\lv_color.h **** extern "C" {
  11:c:\projects\paindrain\arduinolcd\test\pain drain\libraries\lvgl\src\misc\lv_color.h **** #endif
  12:c:\projects\paindrain\arduinolcd\test\pain drain\libraries\lvgl\src\misc\lv_color.h **** 
  13:c:\projects\paindrain\arduinolcd\test\pain drain\libraries\lvgl\src\misc\lv_color.h **** /*********************
  14:c:\projects\paindrain\arduinolcd\test\pain drain\libraries\lvgl\src\misc\lv_color.h ****  *      INCLUDES
  15:c:\projects\paindrain\arduinolcd\test\pain drain\libraries\lvgl\src\misc\lv_color.h ****  *********************/
  16:c:\projects\paindrain\arduinolcd\test\pain drain\libraries\lvgl\src\misc\lv_color.h **** #include "../lv_conf_internal.h"
  17:c:\projects\paindrain\arduinolcd\test\pain drain\libraries\lvgl\src\misc\lv_color.h **** #include "lv_assert.h"
  18:c:\projects\paindrain\arduinolcd\test\pain drain\libraries\lvgl\src\misc\lv_color.h **** #include "lv_math.h"
  19:c:\projects\paindrain\arduinolcd\test\pain drain\libraries\lvgl\src\misc\lv_color.h **** #include "lv_types.h"
  20:c:\projects\paindrain\arduinolcd\test\pain drain\libraries\lvgl\src\misc\lv_color.h **** 
  21:c:\projects\paindrain\arduinolcd\test\pain drain\libraries\lvgl\src\misc\lv_color.h **** /*Error checking*/
  22:c:\projects\paindrain\arduinolcd\test\pain drain\libraries\lvgl\src\misc\lv_color.h **** #if LV_COLOR_DEPTH == 24
  23:c:\projects\paindrain\arduinolcd\test\pain drain\libraries\lvgl\src\misc\lv_color.h **** #error "LV_COLOR_DEPTH 24 is deprecated. Use LV_COLOR_DEPTH 32 instead (lv_conf.h)"
  24:c:\projects\paindrain\arduinolcd\test\pain drain\libraries\lvgl\src\misc\lv_color.h **** #endif
  25:c:\projects\paindrain\arduinolcd\test\pain drain\libraries\lvgl\src\misc\lv_color.h **** 
  26:c:\projects\paindrain\arduinolcd\test\pain drain\libraries\lvgl\src\misc\lv_color.h **** #if LV_COLOR_DEPTH != 16 && LV_COLOR_16_SWAP != 0
  27:c:\projects\paindrain\arduinolcd\test\pain drain\libraries\lvgl\src\misc\lv_color.h **** #error "LV_COLOR_16_SWAP requires LV_COLOR_DEPTH == 16. Set it in lv_conf.h"
  28:c:\projects\paindrain\arduinolcd\test\pain drain\libraries\lvgl\src\misc\lv_color.h **** #endif
  29:c:\projects\paindrain\arduinolcd\test\pain drain\libraries\lvgl\src\misc\lv_color.h **** 
  30:c:\projects\paindrain\arduinolcd\test\pain drain\libraries\lvgl\src\misc\lv_color.h **** #include <stdint.h>
  31:c:\projects\paindrain\arduinolcd\test\pain drain\libraries\lvgl\src\misc\lv_color.h **** 
  32:c:\projects\paindrain\arduinolcd\test\pain drain\libraries\lvgl\src\misc\lv_color.h **** /*********************
  33:c:\projects\paindrain\arduinolcd\test\pain drain\libraries\lvgl\src\misc\lv_color.h ****  *      DEFINES
  34:c:\projects\paindrain\arduinolcd\test\pain drain\libraries\lvgl\src\misc\lv_color.h ****  *********************/
  35:c:\projects\paindrain\arduinolcd\test\pain drain\libraries\lvgl\src\misc\lv_color.h **** LV_EXPORT_CONST_INT(LV_COLOR_DEPTH);
  36:c:\projects\paindrain\arduinolcd\test\pain drain\libraries\lvgl\src\misc\lv_color.h **** LV_EXPORT_CONST_INT(LV_COLOR_16_SWAP);
  37:c:\projects\paindrain\arduinolcd\test\pain drain\libraries\lvgl\src\misc\lv_color.h **** 
  38:c:\projects\paindrain\arduinolcd\test\pain drain\libraries\lvgl\src\misc\lv_color.h **** /**
  39:c:\projects\paindrain\arduinolcd\test\pain drain\libraries\lvgl\src\misc\lv_color.h ****  * Opacity percentages.
  40:c:\projects\paindrain\arduinolcd\test\pain drain\libraries\lvgl\src\misc\lv_color.h ****  */
  41:c:\projects\paindrain\arduinolcd\test\pain drain\libraries\lvgl\src\misc\lv_color.h **** enum {
  42:c:\projects\paindrain\arduinolcd\test\pain drain\libraries\lvgl\src\misc\lv_color.h ****     LV_OPA_TRANSP = 0,
  43:c:\projects\paindrain\arduinolcd\test\pain drain\libraries\lvgl\src\misc\lv_color.h ****     LV_OPA_0      = 0,
  44:c:\projects\paindrain\arduinolcd\test\pain drain\libraries\lvgl\src\misc\lv_color.h ****     LV_OPA_10     = 25,
  45:c:\projects\paindrain\arduinolcd\test\pain drain\libraries\lvgl\src\misc\lv_color.h ****     LV_OPA_20     = 51,
  46:c:\projects\paindrain\arduinolcd\test\pain drain\libraries\lvgl\src\misc\lv_color.h ****     LV_OPA_30     = 76,
  47:c:\projects\paindrain\arduinolcd\test\pain drain\libraries\lvgl\src\misc\lv_color.h ****     LV_OPA_40     = 102,
  48:c:\projects\paindrain\arduinolcd\test\pain drain\libraries\lvgl\src\misc\lv_color.h ****     LV_OPA_50     = 127,
  49:c:\projects\paindrain\arduinolcd\test\pain drain\libraries\lvgl\src\misc\lv_color.h ****     LV_OPA_60     = 153,
  50:c:\projects\paindrain\arduinolcd\test\pain drain\libraries\lvgl\src\misc\lv_color.h ****     LV_OPA_70     = 178,
  51:c:\projects\paindrain\arduinolcd\test\pain drain\libraries\lvgl\src\misc\lv_color.h ****     LV_OPA_80     = 204,
  52:c:\projects\paindrain\arduinolcd\test\pain drain\libraries\lvgl\src\misc\lv_color.h ****     LV_OPA_90     = 229,
  53:c:\projects\paindrain\arduinolcd\test\pain drain\libraries\lvgl\src\misc\lv_color.h ****     LV_OPA_100    = 255,
  54:c:\projects\paindrain\arduinolcd\test\pain drain\libraries\lvgl\src\misc\lv_color.h ****     LV_OPA_COVER  = 255,
  55:c:\projects\paindrain\arduinolcd\test\pain drain\libraries\lvgl\src\misc\lv_color.h **** };
  56:c:\projects\paindrain\arduinolcd\test\pain drain\libraries\lvgl\src\misc\lv_color.h **** 
  57:c:\projects\paindrain\arduinolcd\test\pain drain\libraries\lvgl\src\misc\lv_color.h **** #define LV_OPA_MIN 2    /*Opacities below this will be transparent*/
  58:c:\projects\paindrain\arduinolcd\test\pain drain\libraries\lvgl\src\misc\lv_color.h **** #define LV_OPA_MAX 253  /*Opacities above this will fully cover*/
  59:c:\projects\paindrain\arduinolcd\test\pain drain\libraries\lvgl\src\misc\lv_color.h **** 
  60:c:\projects\paindrain\arduinolcd\test\pain drain\libraries\lvgl\src\misc\lv_color.h **** #if LV_COLOR_DEPTH == 1
  61:c:\projects\paindrain\arduinolcd\test\pain drain\libraries\lvgl\src\misc\lv_color.h **** #define LV_COLOR_SIZE 8
  62:c:\projects\paindrain\arduinolcd\test\pain drain\libraries\lvgl\src\misc\lv_color.h **** #elif LV_COLOR_DEPTH == 8
ARM GAS  C:\Users\haske\AppData\Local\Temp\ccpEN9oH.s 			page 29


  63:c:\projects\paindrain\arduinolcd\test\pain drain\libraries\lvgl\src\misc\lv_color.h **** #define LV_COLOR_SIZE 8
  64:c:\projects\paindrain\arduinolcd\test\pain drain\libraries\lvgl\src\misc\lv_color.h **** #elif LV_COLOR_DEPTH == 16
  65:c:\projects\paindrain\arduinolcd\test\pain drain\libraries\lvgl\src\misc\lv_color.h **** #define LV_COLOR_SIZE 16
  66:c:\projects\paindrain\arduinolcd\test\pain drain\libraries\lvgl\src\misc\lv_color.h **** #elif LV_COLOR_DEPTH == 32
  67:c:\projects\paindrain\arduinolcd\test\pain drain\libraries\lvgl\src\misc\lv_color.h **** #define LV_COLOR_SIZE 32
  68:c:\projects\paindrain\arduinolcd\test\pain drain\libraries\lvgl\src\misc\lv_color.h **** #else
  69:c:\projects\paindrain\arduinolcd\test\pain drain\libraries\lvgl\src\misc\lv_color.h **** #error "Invalid LV_COLOR_DEPTH in lv_conf.h! Set it to 1, 8, 16 or 32!"
  70:c:\projects\paindrain\arduinolcd\test\pain drain\libraries\lvgl\src\misc\lv_color.h **** #endif
  71:c:\projects\paindrain\arduinolcd\test\pain drain\libraries\lvgl\src\misc\lv_color.h **** 
  72:c:\projects\paindrain\arduinolcd\test\pain drain\libraries\lvgl\src\misc\lv_color.h **** #if defined(__cplusplus) && !defined(_LV_COLOR_HAS_MODERN_CPP)
  73:c:\projects\paindrain\arduinolcd\test\pain drain\libraries\lvgl\src\misc\lv_color.h **** /**
  74:c:\projects\paindrain\arduinolcd\test\pain drain\libraries\lvgl\src\misc\lv_color.h **** * MSVC compiler's definition of the __cplusplus indicating 199711L regardless to C++ standard versi
  75:c:\projects\paindrain\arduinolcd\test\pain drain\libraries\lvgl\src\misc\lv_color.h **** * see https://devblogs.microsoft.com/cppblog/msvc-now-correctly-reports-cplusplus
  76:c:\projects\paindrain\arduinolcd\test\pain drain\libraries\lvgl\src\misc\lv_color.h **** * so we use _MSC_VER macro instead of __cplusplus
  77:c:\projects\paindrain\arduinolcd\test\pain drain\libraries\lvgl\src\misc\lv_color.h **** */
  78:c:\projects\paindrain\arduinolcd\test\pain drain\libraries\lvgl\src\misc\lv_color.h **** #ifdef _MSC_VER
  79:c:\projects\paindrain\arduinolcd\test\pain drain\libraries\lvgl\src\misc\lv_color.h **** #if _MSC_VER >= 1900 /*Visual Studio 2015*/
  80:c:\projects\paindrain\arduinolcd\test\pain drain\libraries\lvgl\src\misc\lv_color.h **** #define _LV_COLOR_HAS_MODERN_CPP 1
  81:c:\projects\paindrain\arduinolcd\test\pain drain\libraries\lvgl\src\misc\lv_color.h **** #endif
  82:c:\projects\paindrain\arduinolcd\test\pain drain\libraries\lvgl\src\misc\lv_color.h **** #else
  83:c:\projects\paindrain\arduinolcd\test\pain drain\libraries\lvgl\src\misc\lv_color.h **** #if __cplusplus >= 201103L
  84:c:\projects\paindrain\arduinolcd\test\pain drain\libraries\lvgl\src\misc\lv_color.h **** #define _LV_COLOR_HAS_MODERN_CPP 1
  85:c:\projects\paindrain\arduinolcd\test\pain drain\libraries\lvgl\src\misc\lv_color.h **** #endif
  86:c:\projects\paindrain\arduinolcd\test\pain drain\libraries\lvgl\src\misc\lv_color.h **** #endif
  87:c:\projects\paindrain\arduinolcd\test\pain drain\libraries\lvgl\src\misc\lv_color.h **** #endif /*__cplusplus*/
  88:c:\projects\paindrain\arduinolcd\test\pain drain\libraries\lvgl\src\misc\lv_color.h **** 
  89:c:\projects\paindrain\arduinolcd\test\pain drain\libraries\lvgl\src\misc\lv_color.h **** #ifndef _LV_COLOR_HAS_MODERN_CPP
  90:c:\projects\paindrain\arduinolcd\test\pain drain\libraries\lvgl\src\misc\lv_color.h **** #define _LV_COLOR_HAS_MODERN_CPP 0
  91:c:\projects\paindrain\arduinolcd\test\pain drain\libraries\lvgl\src\misc\lv_color.h **** #endif
  92:c:\projects\paindrain\arduinolcd\test\pain drain\libraries\lvgl\src\misc\lv_color.h **** 
  93:c:\projects\paindrain\arduinolcd\test\pain drain\libraries\lvgl\src\misc\lv_color.h **** #if _LV_COLOR_HAS_MODERN_CPP
  94:c:\projects\paindrain\arduinolcd\test\pain drain\libraries\lvgl\src\misc\lv_color.h **** /*Fix msvc compiler error C4576 inside C++ code*/
  95:c:\projects\paindrain\arduinolcd\test\pain drain\libraries\lvgl\src\misc\lv_color.h **** #define _LV_COLOR_MAKE_TYPE_HELPER lv_color_t
  96:c:\projects\paindrain\arduinolcd\test\pain drain\libraries\lvgl\src\misc\lv_color.h **** #else
  97:c:\projects\paindrain\arduinolcd\test\pain drain\libraries\lvgl\src\misc\lv_color.h **** #define _LV_COLOR_MAKE_TYPE_HELPER (lv_color_t)
  98:c:\projects\paindrain\arduinolcd\test\pain drain\libraries\lvgl\src\misc\lv_color.h **** #endif
  99:c:\projects\paindrain\arduinolcd\test\pain drain\libraries\lvgl\src\misc\lv_color.h **** 
 100:c:\projects\paindrain\arduinolcd\test\pain drain\libraries\lvgl\src\misc\lv_color.h **** /*---------------------------------------
 101:c:\projects\paindrain\arduinolcd\test\pain drain\libraries\lvgl\src\misc\lv_color.h ****  * Macros for all existing color depths
 102:c:\projects\paindrain\arduinolcd\test\pain drain\libraries\lvgl\src\misc\lv_color.h ****  * to set/get values of the color channels
 103:c:\projects\paindrain\arduinolcd\test\pain drain\libraries\lvgl\src\misc\lv_color.h ****  *------------------------------------------*/
 104:c:\projects\paindrain\arduinolcd\test\pain drain\libraries\lvgl\src\misc\lv_color.h **** # define LV_COLOR_SET_R1(c, v) (c).ch.red = (uint8_t)((v) & 0x1)
 105:c:\projects\paindrain\arduinolcd\test\pain drain\libraries\lvgl\src\misc\lv_color.h **** # define LV_COLOR_SET_G1(c, v) (c).ch.green = (uint8_t)((v) & 0x1)
 106:c:\projects\paindrain\arduinolcd\test\pain drain\libraries\lvgl\src\misc\lv_color.h **** # define LV_COLOR_SET_B1(c, v) (c).ch.blue = (uint8_t)((v) & 0x1)
 107:c:\projects\paindrain\arduinolcd\test\pain drain\libraries\lvgl\src\misc\lv_color.h **** # define LV_COLOR_SET_A1(c, v) do {} while(0)
 108:c:\projects\paindrain\arduinolcd\test\pain drain\libraries\lvgl\src\misc\lv_color.h **** 
 109:c:\projects\paindrain\arduinolcd\test\pain drain\libraries\lvgl\src\misc\lv_color.h **** # define LV_COLOR_GET_R1(c) (c).ch.red
 110:c:\projects\paindrain\arduinolcd\test\pain drain\libraries\lvgl\src\misc\lv_color.h **** # define LV_COLOR_GET_G1(c) (c).ch.green
 111:c:\projects\paindrain\arduinolcd\test\pain drain\libraries\lvgl\src\misc\lv_color.h **** # define LV_COLOR_GET_B1(c) (c).ch.blue
 112:c:\projects\paindrain\arduinolcd\test\pain drain\libraries\lvgl\src\misc\lv_color.h **** # define LV_COLOR_GET_A1(c) 0xFF
 113:c:\projects\paindrain\arduinolcd\test\pain drain\libraries\lvgl\src\misc\lv_color.h **** 
 114:c:\projects\paindrain\arduinolcd\test\pain drain\libraries\lvgl\src\misc\lv_color.h **** # define _LV_COLOR_ZERO_INITIALIZER1 {0x00}
 115:c:\projects\paindrain\arduinolcd\test\pain drain\libraries\lvgl\src\misc\lv_color.h **** # define LV_COLOR_MAKE1(r8, g8, b8)  {(uint8_t)((b8 >> 7) | (g8 >> 7) | (r8 >> 7))}
 116:c:\projects\paindrain\arduinolcd\test\pain drain\libraries\lvgl\src\misc\lv_color.h **** 
 117:c:\projects\paindrain\arduinolcd\test\pain drain\libraries\lvgl\src\misc\lv_color.h **** # define LV_COLOR_SET_R8(c, v) (c).ch.red = (uint8_t)((v) & 0x7U)
 118:c:\projects\paindrain\arduinolcd\test\pain drain\libraries\lvgl\src\misc\lv_color.h **** # define LV_COLOR_SET_G8(c, v) (c).ch.green = (uint8_t)((v) & 0x7U)
 119:c:\projects\paindrain\arduinolcd\test\pain drain\libraries\lvgl\src\misc\lv_color.h **** # define LV_COLOR_SET_B8(c, v) (c).ch.blue = (uint8_t)((v) & 0x3U)
ARM GAS  C:\Users\haske\AppData\Local\Temp\ccpEN9oH.s 			page 30


 120:c:\projects\paindrain\arduinolcd\test\pain drain\libraries\lvgl\src\misc\lv_color.h **** # define LV_COLOR_SET_A8(c, v) do {} while(0)
 121:c:\projects\paindrain\arduinolcd\test\pain drain\libraries\lvgl\src\misc\lv_color.h **** 
 122:c:\projects\paindrain\arduinolcd\test\pain drain\libraries\lvgl\src\misc\lv_color.h **** # define LV_COLOR_GET_R8(c) (c).ch.red
 123:c:\projects\paindrain\arduinolcd\test\pain drain\libraries\lvgl\src\misc\lv_color.h **** # define LV_COLOR_GET_G8(c) (c).ch.green
 124:c:\projects\paindrain\arduinolcd\test\pain drain\libraries\lvgl\src\misc\lv_color.h **** # define LV_COLOR_GET_B8(c) (c).ch.blue
 125:c:\projects\paindrain\arduinolcd\test\pain drain\libraries\lvgl\src\misc\lv_color.h **** # define LV_COLOR_GET_A8(c) 0xFF
 126:c:\projects\paindrain\arduinolcd\test\pain drain\libraries\lvgl\src\misc\lv_color.h **** 
 127:c:\projects\paindrain\arduinolcd\test\pain drain\libraries\lvgl\src\misc\lv_color.h **** # define _LV_COLOR_ZERO_INITIALIZER8 {{0x00, 0x00, 0x00}}
 128:c:\projects\paindrain\arduinolcd\test\pain drain\libraries\lvgl\src\misc\lv_color.h **** # define LV_COLOR_MAKE8(r8, g8, b8) {{(uint8_t)((b8 >> 6) & 0x3U), (uint8_t)((g8 >> 5) & 0x7U), (ui
 129:c:\projects\paindrain\arduinolcd\test\pain drain\libraries\lvgl\src\misc\lv_color.h **** 
 130:c:\projects\paindrain\arduinolcd\test\pain drain\libraries\lvgl\src\misc\lv_color.h **** # define LV_COLOR_SET_R16(c, v) (c).ch.red = (uint8_t)((v) & 0x1FU)
 131:c:\projects\paindrain\arduinolcd\test\pain drain\libraries\lvgl\src\misc\lv_color.h **** #if LV_COLOR_16_SWAP == 0
 132:c:\projects\paindrain\arduinolcd\test\pain drain\libraries\lvgl\src\misc\lv_color.h **** # define LV_COLOR_SET_G16(c, v) (c).ch.green = (uint8_t)((v) & 0x3FU)
 133:c:\projects\paindrain\arduinolcd\test\pain drain\libraries\lvgl\src\misc\lv_color.h **** #else
 134:c:\projects\paindrain\arduinolcd\test\pain drain\libraries\lvgl\src\misc\lv_color.h **** # define LV_COLOR_SET_G16(c, v) {(c).ch.green_h = (uint8_t)(((v) >> 3) & 0x7); (c).ch.green_l = (ui
 135:c:\projects\paindrain\arduinolcd\test\pain drain\libraries\lvgl\src\misc\lv_color.h **** #endif
 136:c:\projects\paindrain\arduinolcd\test\pain drain\libraries\lvgl\src\misc\lv_color.h **** # define LV_COLOR_SET_B16(c, v) (c).ch.blue = (uint8_t)((v) & 0x1FU)
 137:c:\projects\paindrain\arduinolcd\test\pain drain\libraries\lvgl\src\misc\lv_color.h **** # define LV_COLOR_SET_A16(c, v) do {} while(0)
 138:c:\projects\paindrain\arduinolcd\test\pain drain\libraries\lvgl\src\misc\lv_color.h **** 
 139:c:\projects\paindrain\arduinolcd\test\pain drain\libraries\lvgl\src\misc\lv_color.h **** # define LV_COLOR_GET_R16(c) (c).ch.red
 140:c:\projects\paindrain\arduinolcd\test\pain drain\libraries\lvgl\src\misc\lv_color.h **** #if LV_COLOR_16_SWAP == 0
 141:c:\projects\paindrain\arduinolcd\test\pain drain\libraries\lvgl\src\misc\lv_color.h **** # define LV_COLOR_GET_G16(c) (c).ch.green
 142:c:\projects\paindrain\arduinolcd\test\pain drain\libraries\lvgl\src\misc\lv_color.h **** #else
 143:c:\projects\paindrain\arduinolcd\test\pain drain\libraries\lvgl\src\misc\lv_color.h **** # define LV_COLOR_GET_G16(c) (((c).ch.green_h << 3) + (c).ch.green_l)
 144:c:\projects\paindrain\arduinolcd\test\pain drain\libraries\lvgl\src\misc\lv_color.h **** #endif
 145:c:\projects\paindrain\arduinolcd\test\pain drain\libraries\lvgl\src\misc\lv_color.h **** # define LV_COLOR_GET_B16(c) (c).ch.blue
 146:c:\projects\paindrain\arduinolcd\test\pain drain\libraries\lvgl\src\misc\lv_color.h **** # define LV_COLOR_GET_A16(c) 0xFF
 147:c:\projects\paindrain\arduinolcd\test\pain drain\libraries\lvgl\src\misc\lv_color.h **** 
 148:c:\projects\paindrain\arduinolcd\test\pain drain\libraries\lvgl\src\misc\lv_color.h **** #if LV_COLOR_16_SWAP == 0
 149:c:\projects\paindrain\arduinolcd\test\pain drain\libraries\lvgl\src\misc\lv_color.h **** # define _LV_COLOR_ZERO_INITIALIZER16  {{0x00, 0x00, 0x00}}
 150:c:\projects\paindrain\arduinolcd\test\pain drain\libraries\lvgl\src\misc\lv_color.h **** # define LV_COLOR_MAKE16(r8, g8, b8) {{(uint8_t)((b8 >> 3) & 0x1FU), (uint8_t)((g8 >> 2) & 0x3FU), 
 151:c:\projects\paindrain\arduinolcd\test\pain drain\libraries\lvgl\src\misc\lv_color.h **** #else
 152:c:\projects\paindrain\arduinolcd\test\pain drain\libraries\lvgl\src\misc\lv_color.h **** # define _LV_COLOR_ZERO_INITIALIZER16 {{0x00, 0x00, 0x00, 0x00}}
 153:c:\projects\paindrain\arduinolcd\test\pain drain\libraries\lvgl\src\misc\lv_color.h **** # define LV_COLOR_MAKE16(r8, g8, b8) {{(uint8_t)((g8 >> 5) & 0x7U), (uint8_t)((r8 >> 3) & 0x1FU), (
 154:c:\projects\paindrain\arduinolcd\test\pain drain\libraries\lvgl\src\misc\lv_color.h **** #endif
 155:c:\projects\paindrain\arduinolcd\test\pain drain\libraries\lvgl\src\misc\lv_color.h **** 
 156:c:\projects\paindrain\arduinolcd\test\pain drain\libraries\lvgl\src\misc\lv_color.h **** # define LV_COLOR_SET_R32(c, v) (c).ch.red = (uint8_t)((v) & 0xFF)
 157:c:\projects\paindrain\arduinolcd\test\pain drain\libraries\lvgl\src\misc\lv_color.h **** # define LV_COLOR_SET_G32(c, v) (c).ch.green = (uint8_t)((v) & 0xFF)
 158:c:\projects\paindrain\arduinolcd\test\pain drain\libraries\lvgl\src\misc\lv_color.h **** # define LV_COLOR_SET_B32(c, v) (c).ch.blue = (uint8_t)((v) & 0xFF)
 159:c:\projects\paindrain\arduinolcd\test\pain drain\libraries\lvgl\src\misc\lv_color.h **** # define LV_COLOR_SET_A32(c, v) (c).ch.alpha = (uint8_t)((v) & 0xFF)
 160:c:\projects\paindrain\arduinolcd\test\pain drain\libraries\lvgl\src\misc\lv_color.h **** 
 161:c:\projects\paindrain\arduinolcd\test\pain drain\libraries\lvgl\src\misc\lv_color.h **** # define LV_COLOR_GET_R32(c) (c).ch.red
 162:c:\projects\paindrain\arduinolcd\test\pain drain\libraries\lvgl\src\misc\lv_color.h **** # define LV_COLOR_GET_G32(c) (c).ch.green
 163:c:\projects\paindrain\arduinolcd\test\pain drain\libraries\lvgl\src\misc\lv_color.h **** # define LV_COLOR_GET_B32(c) (c).ch.blue
 164:c:\projects\paindrain\arduinolcd\test\pain drain\libraries\lvgl\src\misc\lv_color.h **** # define LV_COLOR_GET_A32(c) (c).ch.alpha
 165:c:\projects\paindrain\arduinolcd\test\pain drain\libraries\lvgl\src\misc\lv_color.h **** 
 166:c:\projects\paindrain\arduinolcd\test\pain drain\libraries\lvgl\src\misc\lv_color.h **** # define _LV_COLOR_ZERO_INITIALIZER32  {{0x00, 0x00, 0x00, 0x00}}
 167:c:\projects\paindrain\arduinolcd\test\pain drain\libraries\lvgl\src\misc\lv_color.h **** # define LV_COLOR_MAKE32(r8, g8, b8) {{b8, g8, r8, 0xff}} /*Fix 0xff alpha*/
 168:c:\projects\paindrain\arduinolcd\test\pain drain\libraries\lvgl\src\misc\lv_color.h **** 
 169:c:\projects\paindrain\arduinolcd\test\pain drain\libraries\lvgl\src\misc\lv_color.h **** /*---------------------------------------
 170:c:\projects\paindrain\arduinolcd\test\pain drain\libraries\lvgl\src\misc\lv_color.h ****  * Macros for the current color depth
 171:c:\projects\paindrain\arduinolcd\test\pain drain\libraries\lvgl\src\misc\lv_color.h ****  * to set/get values of the color channels
 172:c:\projects\paindrain\arduinolcd\test\pain drain\libraries\lvgl\src\misc\lv_color.h ****  *------------------------------------------*/
 173:c:\projects\paindrain\arduinolcd\test\pain drain\libraries\lvgl\src\misc\lv_color.h **** #define LV_COLOR_SET_R(c, v) LV_CONCAT(LV_COLOR_SET_R, LV_COLOR_DEPTH)(c, v)
 174:c:\projects\paindrain\arduinolcd\test\pain drain\libraries\lvgl\src\misc\lv_color.h **** #define LV_COLOR_SET_G(c, v) LV_CONCAT(LV_COLOR_SET_G, LV_COLOR_DEPTH)(c, v)
 175:c:\projects\paindrain\arduinolcd\test\pain drain\libraries\lvgl\src\misc\lv_color.h **** #define LV_COLOR_SET_B(c, v) LV_CONCAT(LV_COLOR_SET_B, LV_COLOR_DEPTH)(c, v)
 176:c:\projects\paindrain\arduinolcd\test\pain drain\libraries\lvgl\src\misc\lv_color.h **** #define LV_COLOR_SET_A(c, v) LV_CONCAT(LV_COLOR_SET_A, LV_COLOR_DEPTH)(c, v)
ARM GAS  C:\Users\haske\AppData\Local\Temp\ccpEN9oH.s 			page 31


 177:c:\projects\paindrain\arduinolcd\test\pain drain\libraries\lvgl\src\misc\lv_color.h **** 
 178:c:\projects\paindrain\arduinolcd\test\pain drain\libraries\lvgl\src\misc\lv_color.h **** #define LV_COLOR_GET_R(c) LV_CONCAT(LV_COLOR_GET_R, LV_COLOR_DEPTH)(c)
 179:c:\projects\paindrain\arduinolcd\test\pain drain\libraries\lvgl\src\misc\lv_color.h **** #define LV_COLOR_GET_G(c) LV_CONCAT(LV_COLOR_GET_G, LV_COLOR_DEPTH)(c)
 180:c:\projects\paindrain\arduinolcd\test\pain drain\libraries\lvgl\src\misc\lv_color.h **** #define LV_COLOR_GET_B(c) LV_CONCAT(LV_COLOR_GET_B, LV_COLOR_DEPTH)(c)
 181:c:\projects\paindrain\arduinolcd\test\pain drain\libraries\lvgl\src\misc\lv_color.h **** #define LV_COLOR_GET_A(c) LV_CONCAT(LV_COLOR_GET_A, LV_COLOR_DEPTH)(c)
 182:c:\projects\paindrain\arduinolcd\test\pain drain\libraries\lvgl\src\misc\lv_color.h **** 
 183:c:\projects\paindrain\arduinolcd\test\pain drain\libraries\lvgl\src\misc\lv_color.h **** #define _LV_COLOR_ZERO_INITIALIZER LV_CONCAT(_LV_COLOR_ZERO_INITIALIZER, LV_COLOR_DEPTH)
 184:c:\projects\paindrain\arduinolcd\test\pain drain\libraries\lvgl\src\misc\lv_color.h **** #define LV_COLOR_MAKE(r8, g8, b8) LV_CONCAT(LV_COLOR_MAKE, LV_COLOR_DEPTH)(r8, g8, b8)
 185:c:\projects\paindrain\arduinolcd\test\pain drain\libraries\lvgl\src\misc\lv_color.h **** 
 186:c:\projects\paindrain\arduinolcd\test\pain drain\libraries\lvgl\src\misc\lv_color.h **** /**********************
 187:c:\projects\paindrain\arduinolcd\test\pain drain\libraries\lvgl\src\misc\lv_color.h ****  *      TYPEDEFS
 188:c:\projects\paindrain\arduinolcd\test\pain drain\libraries\lvgl\src\misc\lv_color.h ****  **********************/
 189:c:\projects\paindrain\arduinolcd\test\pain drain\libraries\lvgl\src\misc\lv_color.h **** 
 190:c:\projects\paindrain\arduinolcd\test\pain drain\libraries\lvgl\src\misc\lv_color.h **** typedef union {
 191:c:\projects\paindrain\arduinolcd\test\pain drain\libraries\lvgl\src\misc\lv_color.h ****     uint8_t full; /*must be declared first to set all bits of byte via initializer list*/
 192:c:\projects\paindrain\arduinolcd\test\pain drain\libraries\lvgl\src\misc\lv_color.h ****     union {
 193:c:\projects\paindrain\arduinolcd\test\pain drain\libraries\lvgl\src\misc\lv_color.h ****         uint8_t blue : 1;
 194:c:\projects\paindrain\arduinolcd\test\pain drain\libraries\lvgl\src\misc\lv_color.h ****         uint8_t green : 1;
 195:c:\projects\paindrain\arduinolcd\test\pain drain\libraries\lvgl\src\misc\lv_color.h ****         uint8_t red : 1;
 196:c:\projects\paindrain\arduinolcd\test\pain drain\libraries\lvgl\src\misc\lv_color.h ****     } ch;
 197:c:\projects\paindrain\arduinolcd\test\pain drain\libraries\lvgl\src\misc\lv_color.h **** } lv_color1_t;
 198:c:\projects\paindrain\arduinolcd\test\pain drain\libraries\lvgl\src\misc\lv_color.h **** 
 199:c:\projects\paindrain\arduinolcd\test\pain drain\libraries\lvgl\src\misc\lv_color.h **** typedef union {
 200:c:\projects\paindrain\arduinolcd\test\pain drain\libraries\lvgl\src\misc\lv_color.h ****     struct {
 201:c:\projects\paindrain\arduinolcd\test\pain drain\libraries\lvgl\src\misc\lv_color.h ****         uint8_t blue : 2;
 202:c:\projects\paindrain\arduinolcd\test\pain drain\libraries\lvgl\src\misc\lv_color.h ****         uint8_t green : 3;
 203:c:\projects\paindrain\arduinolcd\test\pain drain\libraries\lvgl\src\misc\lv_color.h ****         uint8_t red : 3;
 204:c:\projects\paindrain\arduinolcd\test\pain drain\libraries\lvgl\src\misc\lv_color.h ****     } ch;
 205:c:\projects\paindrain\arduinolcd\test\pain drain\libraries\lvgl\src\misc\lv_color.h ****     uint8_t full;
 206:c:\projects\paindrain\arduinolcd\test\pain drain\libraries\lvgl\src\misc\lv_color.h **** } lv_color8_t;
 207:c:\projects\paindrain\arduinolcd\test\pain drain\libraries\lvgl\src\misc\lv_color.h **** 
 208:c:\projects\paindrain\arduinolcd\test\pain drain\libraries\lvgl\src\misc\lv_color.h **** typedef union {
 209:c:\projects\paindrain\arduinolcd\test\pain drain\libraries\lvgl\src\misc\lv_color.h ****     struct {
 210:c:\projects\paindrain\arduinolcd\test\pain drain\libraries\lvgl\src\misc\lv_color.h **** #if LV_COLOR_16_SWAP == 0
 211:c:\projects\paindrain\arduinolcd\test\pain drain\libraries\lvgl\src\misc\lv_color.h ****         uint16_t blue : 5;
 212:c:\projects\paindrain\arduinolcd\test\pain drain\libraries\lvgl\src\misc\lv_color.h ****         uint16_t green : 6;
 213:c:\projects\paindrain\arduinolcd\test\pain drain\libraries\lvgl\src\misc\lv_color.h ****         uint16_t red : 5;
 214:c:\projects\paindrain\arduinolcd\test\pain drain\libraries\lvgl\src\misc\lv_color.h **** #else
 215:c:\projects\paindrain\arduinolcd\test\pain drain\libraries\lvgl\src\misc\lv_color.h ****         uint16_t green_h : 3;
 216:c:\projects\paindrain\arduinolcd\test\pain drain\libraries\lvgl\src\misc\lv_color.h ****         uint16_t red : 5;
 217:c:\projects\paindrain\arduinolcd\test\pain drain\libraries\lvgl\src\misc\lv_color.h ****         uint16_t blue : 5;
 218:c:\projects\paindrain\arduinolcd\test\pain drain\libraries\lvgl\src\misc\lv_color.h ****         uint16_t green_l : 3;
 219:c:\projects\paindrain\arduinolcd\test\pain drain\libraries\lvgl\src\misc\lv_color.h **** #endif
 220:c:\projects\paindrain\arduinolcd\test\pain drain\libraries\lvgl\src\misc\lv_color.h ****     } ch;
 221:c:\projects\paindrain\arduinolcd\test\pain drain\libraries\lvgl\src\misc\lv_color.h ****     uint16_t full;
 222:c:\projects\paindrain\arduinolcd\test\pain drain\libraries\lvgl\src\misc\lv_color.h **** } lv_color16_t;
 223:c:\projects\paindrain\arduinolcd\test\pain drain\libraries\lvgl\src\misc\lv_color.h **** 
 224:c:\projects\paindrain\arduinolcd\test\pain drain\libraries\lvgl\src\misc\lv_color.h **** typedef union {
 225:c:\projects\paindrain\arduinolcd\test\pain drain\libraries\lvgl\src\misc\lv_color.h ****     struct {
 226:c:\projects\paindrain\arduinolcd\test\pain drain\libraries\lvgl\src\misc\lv_color.h ****         uint8_t blue;
 227:c:\projects\paindrain\arduinolcd\test\pain drain\libraries\lvgl\src\misc\lv_color.h ****         uint8_t green;
 228:c:\projects\paindrain\arduinolcd\test\pain drain\libraries\lvgl\src\misc\lv_color.h ****         uint8_t red;
 229:c:\projects\paindrain\arduinolcd\test\pain drain\libraries\lvgl\src\misc\lv_color.h ****         uint8_t alpha;
 230:c:\projects\paindrain\arduinolcd\test\pain drain\libraries\lvgl\src\misc\lv_color.h ****     } ch;
 231:c:\projects\paindrain\arduinolcd\test\pain drain\libraries\lvgl\src\misc\lv_color.h ****     uint32_t full;
 232:c:\projects\paindrain\arduinolcd\test\pain drain\libraries\lvgl\src\misc\lv_color.h **** } lv_color32_t;
 233:c:\projects\paindrain\arduinolcd\test\pain drain\libraries\lvgl\src\misc\lv_color.h **** 
ARM GAS  C:\Users\haske\AppData\Local\Temp\ccpEN9oH.s 			page 32


 234:c:\projects\paindrain\arduinolcd\test\pain drain\libraries\lvgl\src\misc\lv_color.h **** typedef LV_CONCAT3(uint, LV_COLOR_SIZE, _t) lv_color_int_t;
 235:c:\projects\paindrain\arduinolcd\test\pain drain\libraries\lvgl\src\misc\lv_color.h **** typedef LV_CONCAT3(lv_color, LV_COLOR_DEPTH, _t) lv_color_t;
 236:c:\projects\paindrain\arduinolcd\test\pain drain\libraries\lvgl\src\misc\lv_color.h **** 
 237:c:\projects\paindrain\arduinolcd\test\pain drain\libraries\lvgl\src\misc\lv_color.h **** typedef struct {
 238:c:\projects\paindrain\arduinolcd\test\pain drain\libraries\lvgl\src\misc\lv_color.h ****     uint16_t h;
 239:c:\projects\paindrain\arduinolcd\test\pain drain\libraries\lvgl\src\misc\lv_color.h ****     uint8_t s;
 240:c:\projects\paindrain\arduinolcd\test\pain drain\libraries\lvgl\src\misc\lv_color.h ****     uint8_t v;
 241:c:\projects\paindrain\arduinolcd\test\pain drain\libraries\lvgl\src\misc\lv_color.h **** } lv_color_hsv_t;
 242:c:\projects\paindrain\arduinolcd\test\pain drain\libraries\lvgl\src\misc\lv_color.h **** 
 243:c:\projects\paindrain\arduinolcd\test\pain drain\libraries\lvgl\src\misc\lv_color.h **** //! @cond Doxygen_Suppress
 244:c:\projects\paindrain\arduinolcd\test\pain drain\libraries\lvgl\src\misc\lv_color.h **** /*No idea where the guard is required but else throws warnings in the docs*/
 245:c:\projects\paindrain\arduinolcd\test\pain drain\libraries\lvgl\src\misc\lv_color.h **** typedef uint8_t lv_opa_t;
 246:c:\projects\paindrain\arduinolcd\test\pain drain\libraries\lvgl\src\misc\lv_color.h **** //! @endcond
 247:c:\projects\paindrain\arduinolcd\test\pain drain\libraries\lvgl\src\misc\lv_color.h **** 
 248:c:\projects\paindrain\arduinolcd\test\pain drain\libraries\lvgl\src\misc\lv_color.h **** struct _lv_color_filter_dsc_t;
 249:c:\projects\paindrain\arduinolcd\test\pain drain\libraries\lvgl\src\misc\lv_color.h **** 
 250:c:\projects\paindrain\arduinolcd\test\pain drain\libraries\lvgl\src\misc\lv_color.h **** typedef lv_color_t (*lv_color_filter_cb_t)(const struct _lv_color_filter_dsc_t *, lv_color_t, lv_op
 251:c:\projects\paindrain\arduinolcd\test\pain drain\libraries\lvgl\src\misc\lv_color.h **** 
 252:c:\projects\paindrain\arduinolcd\test\pain drain\libraries\lvgl\src\misc\lv_color.h **** typedef struct _lv_color_filter_dsc_t {
 253:c:\projects\paindrain\arduinolcd\test\pain drain\libraries\lvgl\src\misc\lv_color.h ****     lv_color_filter_cb_t filter_cb;
 254:c:\projects\paindrain\arduinolcd\test\pain drain\libraries\lvgl\src\misc\lv_color.h ****     void * user_data;
 255:c:\projects\paindrain\arduinolcd\test\pain drain\libraries\lvgl\src\misc\lv_color.h **** } lv_color_filter_dsc_t;
 256:c:\projects\paindrain\arduinolcd\test\pain drain\libraries\lvgl\src\misc\lv_color.h **** 
 257:c:\projects\paindrain\arduinolcd\test\pain drain\libraries\lvgl\src\misc\lv_color.h **** 
 258:c:\projects\paindrain\arduinolcd\test\pain drain\libraries\lvgl\src\misc\lv_color.h **** typedef enum {
 259:c:\projects\paindrain\arduinolcd\test\pain drain\libraries\lvgl\src\misc\lv_color.h ****     LV_PALETTE_RED,
 260:c:\projects\paindrain\arduinolcd\test\pain drain\libraries\lvgl\src\misc\lv_color.h ****     LV_PALETTE_PINK,
 261:c:\projects\paindrain\arduinolcd\test\pain drain\libraries\lvgl\src\misc\lv_color.h ****     LV_PALETTE_PURPLE,
 262:c:\projects\paindrain\arduinolcd\test\pain drain\libraries\lvgl\src\misc\lv_color.h ****     LV_PALETTE_DEEP_PURPLE,
 263:c:\projects\paindrain\arduinolcd\test\pain drain\libraries\lvgl\src\misc\lv_color.h ****     LV_PALETTE_INDIGO,
 264:c:\projects\paindrain\arduinolcd\test\pain drain\libraries\lvgl\src\misc\lv_color.h ****     LV_PALETTE_BLUE,
 265:c:\projects\paindrain\arduinolcd\test\pain drain\libraries\lvgl\src\misc\lv_color.h ****     LV_PALETTE_LIGHT_BLUE,
 266:c:\projects\paindrain\arduinolcd\test\pain drain\libraries\lvgl\src\misc\lv_color.h ****     LV_PALETTE_CYAN,
 267:c:\projects\paindrain\arduinolcd\test\pain drain\libraries\lvgl\src\misc\lv_color.h ****     LV_PALETTE_TEAL,
 268:c:\projects\paindrain\arduinolcd\test\pain drain\libraries\lvgl\src\misc\lv_color.h ****     LV_PALETTE_GREEN,
 269:c:\projects\paindrain\arduinolcd\test\pain drain\libraries\lvgl\src\misc\lv_color.h ****     LV_PALETTE_LIGHT_GREEN,
 270:c:\projects\paindrain\arduinolcd\test\pain drain\libraries\lvgl\src\misc\lv_color.h ****     LV_PALETTE_LIME,
 271:c:\projects\paindrain\arduinolcd\test\pain drain\libraries\lvgl\src\misc\lv_color.h ****     LV_PALETTE_YELLOW,
 272:c:\projects\paindrain\arduinolcd\test\pain drain\libraries\lvgl\src\misc\lv_color.h ****     LV_PALETTE_AMBER,
 273:c:\projects\paindrain\arduinolcd\test\pain drain\libraries\lvgl\src\misc\lv_color.h ****     LV_PALETTE_ORANGE,
 274:c:\projects\paindrain\arduinolcd\test\pain drain\libraries\lvgl\src\misc\lv_color.h ****     LV_PALETTE_DEEP_ORANGE,
 275:c:\projects\paindrain\arduinolcd\test\pain drain\libraries\lvgl\src\misc\lv_color.h ****     LV_PALETTE_BROWN,
 276:c:\projects\paindrain\arduinolcd\test\pain drain\libraries\lvgl\src\misc\lv_color.h ****     LV_PALETTE_BLUE_GREY,
 277:c:\projects\paindrain\arduinolcd\test\pain drain\libraries\lvgl\src\misc\lv_color.h ****     LV_PALETTE_GREY,
 278:c:\projects\paindrain\arduinolcd\test\pain drain\libraries\lvgl\src\misc\lv_color.h ****     _LV_PALETTE_LAST,
 279:c:\projects\paindrain\arduinolcd\test\pain drain\libraries\lvgl\src\misc\lv_color.h ****     LV_PALETTE_NONE = 0xff,
 280:c:\projects\paindrain\arduinolcd\test\pain drain\libraries\lvgl\src\misc\lv_color.h **** } lv_palette_t;
 281:c:\projects\paindrain\arduinolcd\test\pain drain\libraries\lvgl\src\misc\lv_color.h **** 
 282:c:\projects\paindrain\arduinolcd\test\pain drain\libraries\lvgl\src\misc\lv_color.h **** /**********************
 283:c:\projects\paindrain\arduinolcd\test\pain drain\libraries\lvgl\src\misc\lv_color.h ****  * GLOBAL PROTOTYPES
 284:c:\projects\paindrain\arduinolcd\test\pain drain\libraries\lvgl\src\misc\lv_color.h ****  **********************/
 285:c:\projects\paindrain\arduinolcd\test\pain drain\libraries\lvgl\src\misc\lv_color.h **** 
 286:c:\projects\paindrain\arduinolcd\test\pain drain\libraries\lvgl\src\misc\lv_color.h **** /*In color conversations:
 287:c:\projects\paindrain\arduinolcd\test\pain drain\libraries\lvgl\src\misc\lv_color.h ****  * - When converting to bigger color type the LSB weight of 1 LSB is calculated
 288:c:\projects\paindrain\arduinolcd\test\pain drain\libraries\lvgl\src\misc\lv_color.h ****  *   E.g. 16 bit Red has 5 bits
 289:c:\projects\paindrain\arduinolcd\test\pain drain\libraries\lvgl\src\misc\lv_color.h ****  *         8 bit Red has 3 bits
 290:c:\projects\paindrain\arduinolcd\test\pain drain\libraries\lvgl\src\misc\lv_color.h ****  *        ----------------------
ARM GAS  C:\Users\haske\AppData\Local\Temp\ccpEN9oH.s 			page 33


 291:c:\projects\paindrain\arduinolcd\test\pain drain\libraries\lvgl\src\misc\lv_color.h ****  *        8 bit red LSB = (2^5 - 1) / (2^3 - 1) = 31 / 7 = 4
 292:c:\projects\paindrain\arduinolcd\test\pain drain\libraries\lvgl\src\misc\lv_color.h ****  *
 293:c:\projects\paindrain\arduinolcd\test\pain drain\libraries\lvgl\src\misc\lv_color.h ****  * - When calculating to smaller color type simply shift out the LSBs
 294:c:\projects\paindrain\arduinolcd\test\pain drain\libraries\lvgl\src\misc\lv_color.h ****  *   E.g.  8 bit Red has 3 bits
 295:c:\projects\paindrain\arduinolcd\test\pain drain\libraries\lvgl\src\misc\lv_color.h ****  *        16 bit Red has 5 bits
 296:c:\projects\paindrain\arduinolcd\test\pain drain\libraries\lvgl\src\misc\lv_color.h ****  *        ----------------------
 297:c:\projects\paindrain\arduinolcd\test\pain drain\libraries\lvgl\src\misc\lv_color.h ****  *         Shift right with 5 - 3 = 2
 298:c:\projects\paindrain\arduinolcd\test\pain drain\libraries\lvgl\src\misc\lv_color.h ****  */
 299:c:\projects\paindrain\arduinolcd\test\pain drain\libraries\lvgl\src\misc\lv_color.h **** static inline uint8_t lv_color_to1(lv_color_t color)
 300:c:\projects\paindrain\arduinolcd\test\pain drain\libraries\lvgl\src\misc\lv_color.h **** {
 301:c:\projects\paindrain\arduinolcd\test\pain drain\libraries\lvgl\src\misc\lv_color.h **** #if LV_COLOR_DEPTH == 1
 302:c:\projects\paindrain\arduinolcd\test\pain drain\libraries\lvgl\src\misc\lv_color.h ****     return color.full;
 303:c:\projects\paindrain\arduinolcd\test\pain drain\libraries\lvgl\src\misc\lv_color.h **** #elif LV_COLOR_DEPTH == 8
 304:c:\projects\paindrain\arduinolcd\test\pain drain\libraries\lvgl\src\misc\lv_color.h ****     if((LV_COLOR_GET_R(color) & 0x4) || (LV_COLOR_GET_G(color) & 0x4) || (LV_COLOR_GET_B(color) & 0
 305:c:\projects\paindrain\arduinolcd\test\pain drain\libraries\lvgl\src\misc\lv_color.h ****         return 1;
 306:c:\projects\paindrain\arduinolcd\test\pain drain\libraries\lvgl\src\misc\lv_color.h ****     }
 307:c:\projects\paindrain\arduinolcd\test\pain drain\libraries\lvgl\src\misc\lv_color.h ****     else {
 308:c:\projects\paindrain\arduinolcd\test\pain drain\libraries\lvgl\src\misc\lv_color.h ****         return 0;
 309:c:\projects\paindrain\arduinolcd\test\pain drain\libraries\lvgl\src\misc\lv_color.h ****     }
 310:c:\projects\paindrain\arduinolcd\test\pain drain\libraries\lvgl\src\misc\lv_color.h **** #elif LV_COLOR_DEPTH == 16
 311:c:\projects\paindrain\arduinolcd\test\pain drain\libraries\lvgl\src\misc\lv_color.h ****     if((LV_COLOR_GET_R(color) & 0x10) || (LV_COLOR_GET_G(color) & 0x20) || (LV_COLOR_GET_B(color) &
 312:c:\projects\paindrain\arduinolcd\test\pain drain\libraries\lvgl\src\misc\lv_color.h ****         return 1;
 313:c:\projects\paindrain\arduinolcd\test\pain drain\libraries\lvgl\src\misc\lv_color.h ****     }
 314:c:\projects\paindrain\arduinolcd\test\pain drain\libraries\lvgl\src\misc\lv_color.h ****     else {
 315:c:\projects\paindrain\arduinolcd\test\pain drain\libraries\lvgl\src\misc\lv_color.h ****         return 0;
 316:c:\projects\paindrain\arduinolcd\test\pain drain\libraries\lvgl\src\misc\lv_color.h ****     }
 317:c:\projects\paindrain\arduinolcd\test\pain drain\libraries\lvgl\src\misc\lv_color.h **** #elif LV_COLOR_DEPTH == 32
 318:c:\projects\paindrain\arduinolcd\test\pain drain\libraries\lvgl\src\misc\lv_color.h ****     if((LV_COLOR_GET_R(color) & 0x80) || (LV_COLOR_GET_G(color) & 0x80) || (LV_COLOR_GET_B(color) &
 319:c:\projects\paindrain\arduinolcd\test\pain drain\libraries\lvgl\src\misc\lv_color.h ****         return 1;
 320:c:\projects\paindrain\arduinolcd\test\pain drain\libraries\lvgl\src\misc\lv_color.h ****     }
 321:c:\projects\paindrain\arduinolcd\test\pain drain\libraries\lvgl\src\misc\lv_color.h ****     else {
 322:c:\projects\paindrain\arduinolcd\test\pain drain\libraries\lvgl\src\misc\lv_color.h ****         return 0;
 323:c:\projects\paindrain\arduinolcd\test\pain drain\libraries\lvgl\src\misc\lv_color.h ****     }
 324:c:\projects\paindrain\arduinolcd\test\pain drain\libraries\lvgl\src\misc\lv_color.h **** #endif
 325:c:\projects\paindrain\arduinolcd\test\pain drain\libraries\lvgl\src\misc\lv_color.h **** }
 326:c:\projects\paindrain\arduinolcd\test\pain drain\libraries\lvgl\src\misc\lv_color.h **** 
 327:c:\projects\paindrain\arduinolcd\test\pain drain\libraries\lvgl\src\misc\lv_color.h **** static inline uint8_t lv_color_to8(lv_color_t color)
 328:c:\projects\paindrain\arduinolcd\test\pain drain\libraries\lvgl\src\misc\lv_color.h **** {
 329:c:\projects\paindrain\arduinolcd\test\pain drain\libraries\lvgl\src\misc\lv_color.h **** #if LV_COLOR_DEPTH == 1
 330:c:\projects\paindrain\arduinolcd\test\pain drain\libraries\lvgl\src\misc\lv_color.h ****     if(color.full == 0)
 331:c:\projects\paindrain\arduinolcd\test\pain drain\libraries\lvgl\src\misc\lv_color.h ****         return 0;
 332:c:\projects\paindrain\arduinolcd\test\pain drain\libraries\lvgl\src\misc\lv_color.h ****     else
 333:c:\projects\paindrain\arduinolcd\test\pain drain\libraries\lvgl\src\misc\lv_color.h ****         return 0xFF;
 334:c:\projects\paindrain\arduinolcd\test\pain drain\libraries\lvgl\src\misc\lv_color.h **** #elif LV_COLOR_DEPTH == 8
 335:c:\projects\paindrain\arduinolcd\test\pain drain\libraries\lvgl\src\misc\lv_color.h ****     return color.full;
 336:c:\projects\paindrain\arduinolcd\test\pain drain\libraries\lvgl\src\misc\lv_color.h **** #elif LV_COLOR_DEPTH == 16
 337:c:\projects\paindrain\arduinolcd\test\pain drain\libraries\lvgl\src\misc\lv_color.h ****     lv_color8_t ret;
 338:c:\projects\paindrain\arduinolcd\test\pain drain\libraries\lvgl\src\misc\lv_color.h ****     LV_COLOR_SET_R8(ret, LV_COLOR_GET_R(color) >> 2); /*5 - 3  = 2*/
 339:c:\projects\paindrain\arduinolcd\test\pain drain\libraries\lvgl\src\misc\lv_color.h ****     LV_COLOR_SET_G8(ret, LV_COLOR_GET_G(color) >> 3); /*6 - 3  = 3*/
 340:c:\projects\paindrain\arduinolcd\test\pain drain\libraries\lvgl\src\misc\lv_color.h ****     LV_COLOR_SET_B8(ret, LV_COLOR_GET_B(color) >> 3); /*5 - 2  = 3*/
 341:c:\projects\paindrain\arduinolcd\test\pain drain\libraries\lvgl\src\misc\lv_color.h ****     return ret.full;
 342:c:\projects\paindrain\arduinolcd\test\pain drain\libraries\lvgl\src\misc\lv_color.h **** #elif LV_COLOR_DEPTH == 32
 343:c:\projects\paindrain\arduinolcd\test\pain drain\libraries\lvgl\src\misc\lv_color.h ****     lv_color8_t ret;
 344:c:\projects\paindrain\arduinolcd\test\pain drain\libraries\lvgl\src\misc\lv_color.h ****     LV_COLOR_SET_R8(ret, LV_COLOR_GET_R(color) >> 5); /*8 - 3  = 5*/
 345:c:\projects\paindrain\arduinolcd\test\pain drain\libraries\lvgl\src\misc\lv_color.h ****     LV_COLOR_SET_G8(ret, LV_COLOR_GET_G(color) >> 5); /*8 - 3  = 5*/
 346:c:\projects\paindrain\arduinolcd\test\pain drain\libraries\lvgl\src\misc\lv_color.h ****     LV_COLOR_SET_B8(ret, LV_COLOR_GET_B(color) >> 6); /*8 - 2  = 6*/
 347:c:\projects\paindrain\arduinolcd\test\pain drain\libraries\lvgl\src\misc\lv_color.h ****     return ret.full;
ARM GAS  C:\Users\haske\AppData\Local\Temp\ccpEN9oH.s 			page 34


 348:c:\projects\paindrain\arduinolcd\test\pain drain\libraries\lvgl\src\misc\lv_color.h **** #endif
 349:c:\projects\paindrain\arduinolcd\test\pain drain\libraries\lvgl\src\misc\lv_color.h **** }
 350:c:\projects\paindrain\arduinolcd\test\pain drain\libraries\lvgl\src\misc\lv_color.h **** 
 351:c:\projects\paindrain\arduinolcd\test\pain drain\libraries\lvgl\src\misc\lv_color.h **** static inline uint16_t lv_color_to16(lv_color_t color)
 352:c:\projects\paindrain\arduinolcd\test\pain drain\libraries\lvgl\src\misc\lv_color.h **** {
 353:c:\projects\paindrain\arduinolcd\test\pain drain\libraries\lvgl\src\misc\lv_color.h **** #if LV_COLOR_DEPTH == 1
 354:c:\projects\paindrain\arduinolcd\test\pain drain\libraries\lvgl\src\misc\lv_color.h ****     if(color.full == 0)
 355:c:\projects\paindrain\arduinolcd\test\pain drain\libraries\lvgl\src\misc\lv_color.h ****         return 0;
 356:c:\projects\paindrain\arduinolcd\test\pain drain\libraries\lvgl\src\misc\lv_color.h ****     else
 357:c:\projects\paindrain\arduinolcd\test\pain drain\libraries\lvgl\src\misc\lv_color.h ****         return 0xFFFF;
 358:c:\projects\paindrain\arduinolcd\test\pain drain\libraries\lvgl\src\misc\lv_color.h **** #elif LV_COLOR_DEPTH == 8
 359:c:\projects\paindrain\arduinolcd\test\pain drain\libraries\lvgl\src\misc\lv_color.h ****     lv_color16_t ret;
 360:c:\projects\paindrain\arduinolcd\test\pain drain\libraries\lvgl\src\misc\lv_color.h ****     LV_COLOR_SET_R16(ret, LV_COLOR_GET_R(color) * 4);  /*(2^5 - 1)/(2^3 - 1) = 31/7 = 4*/
 361:c:\projects\paindrain\arduinolcd\test\pain drain\libraries\lvgl\src\misc\lv_color.h ****     LV_COLOR_SET_G16(ret, LV_COLOR_GET_G(color) * 9);  /*(2^6 - 1)/(2^3 - 1) = 63/7 = 9*/
 362:c:\projects\paindrain\arduinolcd\test\pain drain\libraries\lvgl\src\misc\lv_color.h ****     LV_COLOR_SET_B16(ret, LV_COLOR_GET_B(color) * 10); /*(2^5 - 1)/(2^2 - 1) = 31/3 = 10*/
 363:c:\projects\paindrain\arduinolcd\test\pain drain\libraries\lvgl\src\misc\lv_color.h ****     return ret.full;
 364:c:\projects\paindrain\arduinolcd\test\pain drain\libraries\lvgl\src\misc\lv_color.h **** #elif LV_COLOR_DEPTH == 16
 365:c:\projects\paindrain\arduinolcd\test\pain drain\libraries\lvgl\src\misc\lv_color.h ****     return color.full;
 366:c:\projects\paindrain\arduinolcd\test\pain drain\libraries\lvgl\src\misc\lv_color.h **** #elif LV_COLOR_DEPTH == 32
 367:c:\projects\paindrain\arduinolcd\test\pain drain\libraries\lvgl\src\misc\lv_color.h ****     lv_color16_t ret;
 368:c:\projects\paindrain\arduinolcd\test\pain drain\libraries\lvgl\src\misc\lv_color.h ****     LV_COLOR_SET_R16(ret, LV_COLOR_GET_R(color) >> 3); /*8 - 5  = 3*/
 369:c:\projects\paindrain\arduinolcd\test\pain drain\libraries\lvgl\src\misc\lv_color.h ****     LV_COLOR_SET_G16(ret, LV_COLOR_GET_G(color) >> 2); /*8 - 6  = 2*/
 370:c:\projects\paindrain\arduinolcd\test\pain drain\libraries\lvgl\src\misc\lv_color.h ****     LV_COLOR_SET_B16(ret, LV_COLOR_GET_B(color) >> 3); /*8 - 5  = 3*/
 371:c:\projects\paindrain\arduinolcd\test\pain drain\libraries\lvgl\src\misc\lv_color.h ****     return ret.full;
 372:c:\projects\paindrain\arduinolcd\test\pain drain\libraries\lvgl\src\misc\lv_color.h **** #endif
 373:c:\projects\paindrain\arduinolcd\test\pain drain\libraries\lvgl\src\misc\lv_color.h **** }
 374:c:\projects\paindrain\arduinolcd\test\pain drain\libraries\lvgl\src\misc\lv_color.h **** 
 375:c:\projects\paindrain\arduinolcd\test\pain drain\libraries\lvgl\src\misc\lv_color.h **** static inline uint32_t lv_color_to32(lv_color_t color)
 376:c:\projects\paindrain\arduinolcd\test\pain drain\libraries\lvgl\src\misc\lv_color.h **** {
 377:c:\projects\paindrain\arduinolcd\test\pain drain\libraries\lvgl\src\misc\lv_color.h **** #if LV_COLOR_DEPTH == 1
 378:c:\projects\paindrain\arduinolcd\test\pain drain\libraries\lvgl\src\misc\lv_color.h ****     if(color.full == 0)
 379:c:\projects\paindrain\arduinolcd\test\pain drain\libraries\lvgl\src\misc\lv_color.h ****         return 0xFF000000;
 380:c:\projects\paindrain\arduinolcd\test\pain drain\libraries\lvgl\src\misc\lv_color.h ****     else
 381:c:\projects\paindrain\arduinolcd\test\pain drain\libraries\lvgl\src\misc\lv_color.h ****         return 0xFFFFFFFF;
 382:c:\projects\paindrain\arduinolcd\test\pain drain\libraries\lvgl\src\misc\lv_color.h **** #elif LV_COLOR_DEPTH == 8
 383:c:\projects\paindrain\arduinolcd\test\pain drain\libraries\lvgl\src\misc\lv_color.h ****     lv_color32_t ret;
 384:c:\projects\paindrain\arduinolcd\test\pain drain\libraries\lvgl\src\misc\lv_color.h ****     LV_COLOR_SET_R32(ret, LV_COLOR_GET_R(color) * 36); /*(2^8 - 1)/(2^3 - 1) = 255/7 = 36*/
 385:c:\projects\paindrain\arduinolcd\test\pain drain\libraries\lvgl\src\misc\lv_color.h ****     LV_COLOR_SET_G32(ret, LV_COLOR_GET_G(color) * 36); /*(2^8 - 1)/(2^3 - 1) = 255/7 = 36*/
 386:c:\projects\paindrain\arduinolcd\test\pain drain\libraries\lvgl\src\misc\lv_color.h ****     LV_COLOR_SET_B32(ret, LV_COLOR_GET_B(color) * 85); /*(2^8 - 1)/(2^2 - 1) = 255/3 = 85*/
 387:c:\projects\paindrain\arduinolcd\test\pain drain\libraries\lvgl\src\misc\lv_color.h ****     LV_COLOR_SET_A32(ret, 0xFF);
 388:c:\projects\paindrain\arduinolcd\test\pain drain\libraries\lvgl\src\misc\lv_color.h ****     return ret.full;
 389:c:\projects\paindrain\arduinolcd\test\pain drain\libraries\lvgl\src\misc\lv_color.h **** #elif LV_COLOR_DEPTH == 16
 390:c:\projects\paindrain\arduinolcd\test\pain drain\libraries\lvgl\src\misc\lv_color.h ****     /**
 391:c:\projects\paindrain\arduinolcd\test\pain drain\libraries\lvgl\src\misc\lv_color.h ****      * The floating point math for conversion is:
 392:c:\projects\paindrain\arduinolcd\test\pain drain\libraries\lvgl\src\misc\lv_color.h ****      *  valueto = valuefrom * ( (2^bitsto - 1) / (float)(2^bitsfrom - 1) )
 393:c:\projects\paindrain\arduinolcd\test\pain drain\libraries\lvgl\src\misc\lv_color.h ****      * The faster integer math for conversion is:
 394:c:\projects\paindrain\arduinolcd\test\pain drain\libraries\lvgl\src\misc\lv_color.h ****      *  valueto = ( valuefrom * multiplier + adder ) >> divisor
 395:c:\projects\paindrain\arduinolcd\test\pain drain\libraries\lvgl\src\misc\lv_color.h ****      *   multiplier = FLOOR( ( (2^bitsto - 1) << divisor ) / (float)(2^bitsfrom - 1) )
 396:c:\projects\paindrain\arduinolcd\test\pain drain\libraries\lvgl\src\misc\lv_color.h ****      *
 397:c:\projects\paindrain\arduinolcd\test\pain drain\libraries\lvgl\src\misc\lv_color.h ****      * Find the first divisor where ( adder >> divisor ) <= 0
 398:c:\projects\paindrain\arduinolcd\test\pain drain\libraries\lvgl\src\misc\lv_color.h ****      *
 399:c:\projects\paindrain\arduinolcd\test\pain drain\libraries\lvgl\src\misc\lv_color.h ****      * 5-bit to 8-bit: ( 31 * multiplier + adder ) >> divisor = 255
 400:c:\projects\paindrain\arduinolcd\test\pain drain\libraries\lvgl\src\misc\lv_color.h ****      * divisor  multiplier  adder  min (0)  max (31)
 401:c:\projects\paindrain\arduinolcd\test\pain drain\libraries\lvgl\src\misc\lv_color.h ****      *       0           8      7        7       255
 402:c:\projects\paindrain\arduinolcd\test\pain drain\libraries\lvgl\src\misc\lv_color.h ****      *       1          16     14        7       255
 403:c:\projects\paindrain\arduinolcd\test\pain drain\libraries\lvgl\src\misc\lv_color.h ****      *       2          32     28        7       255
 404:c:\projects\paindrain\arduinolcd\test\pain drain\libraries\lvgl\src\misc\lv_color.h ****      *       3          65     25        3       255
ARM GAS  C:\Users\haske\AppData\Local\Temp\ccpEN9oH.s 			page 35


 405:c:\projects\paindrain\arduinolcd\test\pain drain\libraries\lvgl\src\misc\lv_color.h ****      *       4         131     19        1       255
 406:c:\projects\paindrain\arduinolcd\test\pain drain\libraries\lvgl\src\misc\lv_color.h ****      *       5         263      7        0       255
 407:c:\projects\paindrain\arduinolcd\test\pain drain\libraries\lvgl\src\misc\lv_color.h ****      *
 408:c:\projects\paindrain\arduinolcd\test\pain drain\libraries\lvgl\src\misc\lv_color.h ****      * 6-bit to 8-bit: 255 = ( 63 * multiplier + adder ) >> divisor
 409:c:\projects\paindrain\arduinolcd\test\pain drain\libraries\lvgl\src\misc\lv_color.h ****      * divisor  multiplier  adder  min (0)  max (63)
 410:c:\projects\paindrain\arduinolcd\test\pain drain\libraries\lvgl\src\misc\lv_color.h ****      *       0           4      3        3       255
 411:c:\projects\paindrain\arduinolcd\test\pain drain\libraries\lvgl\src\misc\lv_color.h ****      *       1           8      6        3       255
 412:c:\projects\paindrain\arduinolcd\test\pain drain\libraries\lvgl\src\misc\lv_color.h ****      *       2          16     12        3       255
 413:c:\projects\paindrain\arduinolcd\test\pain drain\libraries\lvgl\src\misc\lv_color.h ****      *       3          32     24        3       255
 414:c:\projects\paindrain\arduinolcd\test\pain drain\libraries\lvgl\src\misc\lv_color.h ****      *       4          64     48        3       255
 415:c:\projects\paindrain\arduinolcd\test\pain drain\libraries\lvgl\src\misc\lv_color.h ****      *       5         129     33        1       255
 416:c:\projects\paindrain\arduinolcd\test\pain drain\libraries\lvgl\src\misc\lv_color.h ****      *       6         259      3        0       255
 417:c:\projects\paindrain\arduinolcd\test\pain drain\libraries\lvgl\src\misc\lv_color.h ****      */
 418:c:\projects\paindrain\arduinolcd\test\pain drain\libraries\lvgl\src\misc\lv_color.h **** 
 419:c:\projects\paindrain\arduinolcd\test\pain drain\libraries\lvgl\src\misc\lv_color.h ****     lv_color32_t ret;
 420:c:\projects\paindrain\arduinolcd\test\pain drain\libraries\lvgl\src\misc\lv_color.h ****     LV_COLOR_SET_R32(ret, (LV_COLOR_GET_R(color) * 263 + 7) >> 5);
 421:c:\projects\paindrain\arduinolcd\test\pain drain\libraries\lvgl\src\misc\lv_color.h ****     LV_COLOR_SET_G32(ret, (LV_COLOR_GET_G(color) * 259 + 3) >> 6);
 422:c:\projects\paindrain\arduinolcd\test\pain drain\libraries\lvgl\src\misc\lv_color.h ****     LV_COLOR_SET_B32(ret, (LV_COLOR_GET_B(color) * 263 + 7) >> 5);
 423:c:\projects\paindrain\arduinolcd\test\pain drain\libraries\lvgl\src\misc\lv_color.h ****     LV_COLOR_SET_A32(ret, 0xFF);
 424:c:\projects\paindrain\arduinolcd\test\pain drain\libraries\lvgl\src\misc\lv_color.h ****     return ret.full;
 425:c:\projects\paindrain\arduinolcd\test\pain drain\libraries\lvgl\src\misc\lv_color.h **** #elif LV_COLOR_DEPTH == 32
 426:c:\projects\paindrain\arduinolcd\test\pain drain\libraries\lvgl\src\misc\lv_color.h ****     return color.full;
 427:c:\projects\paindrain\arduinolcd\test\pain drain\libraries\lvgl\src\misc\lv_color.h **** #endif
 428:c:\projects\paindrain\arduinolcd\test\pain drain\libraries\lvgl\src\misc\lv_color.h **** }
 429:c:\projects\paindrain\arduinolcd\test\pain drain\libraries\lvgl\src\misc\lv_color.h **** 
 430:c:\projects\paindrain\arduinolcd\test\pain drain\libraries\lvgl\src\misc\lv_color.h **** //! @cond Doxygen_Suppress
 431:c:\projects\paindrain\arduinolcd\test\pain drain\libraries\lvgl\src\misc\lv_color.h **** 
 432:c:\projects\paindrain\arduinolcd\test\pain drain\libraries\lvgl\src\misc\lv_color.h **** /**
 433:c:\projects\paindrain\arduinolcd\test\pain drain\libraries\lvgl\src\misc\lv_color.h ****  * Mix two colors with a given ratio.
 434:c:\projects\paindrain\arduinolcd\test\pain drain\libraries\lvgl\src\misc\lv_color.h ****  * @param c1 the first color to mix (usually the foreground)
 435:c:\projects\paindrain\arduinolcd\test\pain drain\libraries\lvgl\src\misc\lv_color.h ****  * @param c2 the second color to mix (usually the background)
 436:c:\projects\paindrain\arduinolcd\test\pain drain\libraries\lvgl\src\misc\lv_color.h ****  * @param mix The ratio of the colors. 0: full `c2`, 255: full `c1`, 127: half `c1` and half`c2`
 437:c:\projects\paindrain\arduinolcd\test\pain drain\libraries\lvgl\src\misc\lv_color.h ****  * @return the mixed color
 438:c:\projects\paindrain\arduinolcd\test\pain drain\libraries\lvgl\src\misc\lv_color.h ****  */
 439:c:\projects\paindrain\arduinolcd\test\pain drain\libraries\lvgl\src\misc\lv_color.h **** LV_ATTRIBUTE_FAST_MEM static inline lv_color_t lv_color_mix(lv_color_t c1, lv_color_t c2, uint8_t m
 440:c:\projects\paindrain\arduinolcd\test\pain drain\libraries\lvgl\src\misc\lv_color.h **** {
 441:c:\projects\paindrain\arduinolcd\test\pain drain\libraries\lvgl\src\misc\lv_color.h ****     lv_color_t ret;
 442:c:\projects\paindrain\arduinolcd\test\pain drain\libraries\lvgl\src\misc\lv_color.h **** 
 443:c:\projects\paindrain\arduinolcd\test\pain drain\libraries\lvgl\src\misc\lv_color.h **** #if LV_COLOR_DEPTH == 16 && LV_COLOR_16_SWAP == 0 && LV_COLOR_MIX_ROUND_OFS == 0
 444:c:\projects\paindrain\arduinolcd\test\pain drain\libraries\lvgl\src\misc\lv_color.h ****     /*Source: https://stackoverflow.com/a/50012418/1999969*/
 445:c:\projects\paindrain\arduinolcd\test\pain drain\libraries\lvgl\src\misc\lv_color.h ****     mix = (uint32_t)((uint32_t)mix + 4) >> 3;
 446:c:\projects\paindrain\arduinolcd\test\pain drain\libraries\lvgl\src\misc\lv_color.h ****     uint32_t bg = (uint32_t)((uint32_t)c2.full | ((uint32_t)c2.full << 16)) &
 447:c:\projects\paindrain\arduinolcd\test\pain drain\libraries\lvgl\src\misc\lv_color.h ****                   0x7E0F81F; /*0b00000111111000001111100000011111*/
 448:c:\projects\paindrain\arduinolcd\test\pain drain\libraries\lvgl\src\misc\lv_color.h ****     uint32_t fg = (uint32_t)((uint32_t)c1.full | ((uint32_t)c1.full << 16)) & 0x7E0F81F;
 449:c:\projects\paindrain\arduinolcd\test\pain drain\libraries\lvgl\src\misc\lv_color.h ****     uint32_t result = ((((fg - bg) * mix) >> 5) + bg) & 0x7E0F81F;
 450:c:\projects\paindrain\arduinolcd\test\pain drain\libraries\lvgl\src\misc\lv_color.h ****     ret.full = (uint16_t)((result >> 16) | result);
 451:c:\projects\paindrain\arduinolcd\test\pain drain\libraries\lvgl\src\misc\lv_color.h **** #elif LV_COLOR_DEPTH != 1
 452:c:\projects\paindrain\arduinolcd\test\pain drain\libraries\lvgl\src\misc\lv_color.h ****     /*LV_COLOR_DEPTH == 8, 16 or 32*/
 453:c:\projects\paindrain\arduinolcd\test\pain drain\libraries\lvgl\src\misc\lv_color.h ****     LV_COLOR_SET_R(ret, LV_UDIV255((uint16_t)LV_COLOR_GET_R(c1) * mix + LV_COLOR_GET_R(c2) *
 454:c:\projects\paindrain\arduinolcd\test\pain drain\libraries\lvgl\src\misc\lv_color.h ****                                    (255 - mix) + LV_COLOR_MIX_ROUND_OFS));
 455:c:\projects\paindrain\arduinolcd\test\pain drain\libraries\lvgl\src\misc\lv_color.h ****     LV_COLOR_SET_G(ret, LV_UDIV255((uint16_t)LV_COLOR_GET_G(c1) * mix + LV_COLOR_GET_G(c2) *
 456:c:\projects\paindrain\arduinolcd\test\pain drain\libraries\lvgl\src\misc\lv_color.h ****                                    (255 - mix) + LV_COLOR_MIX_ROUND_OFS));
 457:c:\projects\paindrain\arduinolcd\test\pain drain\libraries\lvgl\src\misc\lv_color.h ****     LV_COLOR_SET_B(ret, LV_UDIV255((uint16_t)LV_COLOR_GET_B(c1) * mix + LV_COLOR_GET_B(c2) *
 458:c:\projects\paindrain\arduinolcd\test\pain drain\libraries\lvgl\src\misc\lv_color.h ****                                    (255 - mix) + LV_COLOR_MIX_ROUND_OFS));
 459:c:\projects\paindrain\arduinolcd\test\pain drain\libraries\lvgl\src\misc\lv_color.h ****     LV_COLOR_SET_A(ret, 0xFF);
 460:c:\projects\paindrain\arduinolcd\test\pain drain\libraries\lvgl\src\misc\lv_color.h **** #else
 461:c:\projects\paindrain\arduinolcd\test\pain drain\libraries\lvgl\src\misc\lv_color.h ****     /*LV_COLOR_DEPTH == 1*/
ARM GAS  C:\Users\haske\AppData\Local\Temp\ccpEN9oH.s 			page 36


 462:c:\projects\paindrain\arduinolcd\test\pain drain\libraries\lvgl\src\misc\lv_color.h ****     ret.full = mix > LV_OPA_50 ? c1.full : c2.full;
 463:c:\projects\paindrain\arduinolcd\test\pain drain\libraries\lvgl\src\misc\lv_color.h **** #endif
 464:c:\projects\paindrain\arduinolcd\test\pain drain\libraries\lvgl\src\misc\lv_color.h **** 
 465:c:\projects\paindrain\arduinolcd\test\pain drain\libraries\lvgl\src\misc\lv_color.h ****     return ret;
 466:c:\projects\paindrain\arduinolcd\test\pain drain\libraries\lvgl\src\misc\lv_color.h **** }
 467:c:\projects\paindrain\arduinolcd\test\pain drain\libraries\lvgl\src\misc\lv_color.h **** 
 468:c:\projects\paindrain\arduinolcd\test\pain drain\libraries\lvgl\src\misc\lv_color.h **** LV_ATTRIBUTE_FAST_MEM static inline void lv_color_premult(lv_color_t c, uint8_t mix, uint16_t * out
 469:c:\projects\paindrain\arduinolcd\test\pain drain\libraries\lvgl\src\misc\lv_color.h **** {
 470:c:\projects\paindrain\arduinolcd\test\pain drain\libraries\lvgl\src\misc\lv_color.h **** #if LV_COLOR_DEPTH != 1
 471:c:\projects\paindrain\arduinolcd\test\pain drain\libraries\lvgl\src\misc\lv_color.h ****     out[0] = (uint16_t)LV_COLOR_GET_R(c) * mix;
 1011              		.loc 3 471 0
 1012 0288 D00A     		lsrs	r0, r2, #11
 1013 028a 99B2     		uxth	r1, r3
 1014 028c 4843     		muls	r0, r1
 1015 028e 8246     		mov	r10, r0
 472:c:\projects\paindrain\arduinolcd\test\pain drain\libraries\lvgl\src\misc\lv_color.h ****     out[1] = (uint16_t)LV_COLOR_GET_G(c) * mix;
 1016              		.loc 3 472 0
 1017 0290 5005     		lsls	r0, r2, #21
 1018 0292 800E     		lsrs	r0, r0, #26
 1019 0294 4843     		muls	r0, r1
 1020 0296 8146     		mov	r9, r0
 473:c:\projects\paindrain\arduinolcd\test\pain drain\libraries\lvgl\src\misc\lv_color.h ****     out[2] = (uint16_t)LV_COLOR_GET_B(c) * mix;
 1021              		.loc 3 473 0
 1022 0298 D206     		lsls	r2, r2, #27
 1023 029a D20E     		lsrs	r2, r2, #27
 1024 029c 4A43     		muls	r2, r1
 1025 029e 9046     		mov	r8, r2
 1026              	.LVL135:
 1027              	.LBE83:
 1028              	.LBE82:
 156:..\..\..\arduinoLCD\test\Pain Drain\libraries\lvgl\src\draw\sw/lv_draw_sw_img.c ****                 uint32_t i;
 1029              		.loc 1 156 0
 1030 02a0 DB43     		mvns	r3, r3
 1031              	.LVL136:
 1032 02a2 DDB2     		uxtb	r5, r3
 1033              	.LVL137:
 158:..\..\..\arduinoLCD\test\Pain Drain\libraries\lvgl\src\draw\sw/lv_draw_sw_img.c ****                     rgb_buf[i] = lv_color_mix_premult(premult_v, rgb_buf[i], recolor_opa);
 1034              		.loc 1 158 0
 1035 02a4 0020     		movs	r0, #0
 1036 02a6 0696     		str	r6, [sp, #24]
 1037 02a8 5346     		mov	r3, r10
 1038 02aa 0793     		str	r3, [sp, #28]
 1039 02ac 3FE0     		b	.L34
 1040              	.LVL138:
 1041              	.L35:
 159:..\..\..\arduinoLCD\test\Pain Drain\libraries\lvgl\src\draw\sw/lv_draw_sw_img.c ****                 }
 1042              		.loc 1 159 0 discriminator 3
 1043 02ae 4100     		lsls	r1, r0, #1
 1044 02b0 069B     		ldr	r3, [sp, #24]
 1045 02b2 9C46     		mov	ip, r3
 1046 02b4 6144     		add	r1, r1, ip
 1047              	.LVL139:
 1048 02b6 0B88     		ldrh	r3, [r1]
 1049              	.LVL140:
 1050              	.LBB84:
 1051              	.LBB85:
 474:c:\projects\paindrain\arduinolcd\test\pain drain\libraries\lvgl\src\misc\lv_color.h **** #else
ARM GAS  C:\Users\haske\AppData\Local\Temp\ccpEN9oH.s 			page 37


 475:c:\projects\paindrain\arduinolcd\test\pain drain\libraries\lvgl\src\misc\lv_color.h ****     (void) mix;
 476:c:\projects\paindrain\arduinolcd\test\pain drain\libraries\lvgl\src\misc\lv_color.h ****     /*Pre-multiplication can't be used with 1 bpp*/
 477:c:\projects\paindrain\arduinolcd\test\pain drain\libraries\lvgl\src\misc\lv_color.h ****     out[0] = LV_COLOR_GET_R(c);
 478:c:\projects\paindrain\arduinolcd\test\pain drain\libraries\lvgl\src\misc\lv_color.h ****     out[1] = LV_COLOR_GET_G(c);
 479:c:\projects\paindrain\arduinolcd\test\pain drain\libraries\lvgl\src\misc\lv_color.h ****     out[2] = LV_COLOR_GET_B(c);
 480:c:\projects\paindrain\arduinolcd\test\pain drain\libraries\lvgl\src\misc\lv_color.h **** #endif
 481:c:\projects\paindrain\arduinolcd\test\pain drain\libraries\lvgl\src\misc\lv_color.h **** 
 482:c:\projects\paindrain\arduinolcd\test\pain drain\libraries\lvgl\src\misc\lv_color.h **** }
 483:c:\projects\paindrain\arduinolcd\test\pain drain\libraries\lvgl\src\misc\lv_color.h **** 
 484:c:\projects\paindrain\arduinolcd\test\pain drain\libraries\lvgl\src\misc\lv_color.h **** /**
 485:c:\projects\paindrain\arduinolcd\test\pain drain\libraries\lvgl\src\misc\lv_color.h ****  * Mix two colors with a given ratio. It runs faster then `lv_color_mix` but requires some pre comp
 486:c:\projects\paindrain\arduinolcd\test\pain drain\libraries\lvgl\src\misc\lv_color.h ****  * @param premult_c1 The first color. Should be preprocessed with `lv_color_premult(c1)`
 487:c:\projects\paindrain\arduinolcd\test\pain drain\libraries\lvgl\src\misc\lv_color.h ****  * @param c2 The second color. As it is no pre computation required on it
 488:c:\projects\paindrain\arduinolcd\test\pain drain\libraries\lvgl\src\misc\lv_color.h ****  * @param mix The ratio of the colors. 0: full `c1`, 255: full `c2`, 127: half `c1` and half `c2`.
 489:c:\projects\paindrain\arduinolcd\test\pain drain\libraries\lvgl\src\misc\lv_color.h ****  *            Should be modified like mix = `255 - mix`
 490:c:\projects\paindrain\arduinolcd\test\pain drain\libraries\lvgl\src\misc\lv_color.h ****  * @return the mixed color
 491:c:\projects\paindrain\arduinolcd\test\pain drain\libraries\lvgl\src\misc\lv_color.h ****  * @note 255 won't give clearly `c1`.
 492:c:\projects\paindrain\arduinolcd\test\pain drain\libraries\lvgl\src\misc\lv_color.h ****  */
 493:c:\projects\paindrain\arduinolcd\test\pain drain\libraries\lvgl\src\misc\lv_color.h **** LV_ATTRIBUTE_FAST_MEM static inline lv_color_t lv_color_mix_premult(uint16_t * premult_c1, lv_color
 494:c:\projects\paindrain\arduinolcd\test\pain drain\libraries\lvgl\src\misc\lv_color.h **** {
 495:c:\projects\paindrain\arduinolcd\test\pain drain\libraries\lvgl\src\misc\lv_color.h ****     lv_color_t ret;
 496:c:\projects\paindrain\arduinolcd\test\pain drain\libraries\lvgl\src\misc\lv_color.h **** #if LV_COLOR_DEPTH != 1
 497:c:\projects\paindrain\arduinolcd\test\pain drain\libraries\lvgl\src\misc\lv_color.h ****     /*LV_COLOR_DEPTH == 8 or 32*/
 498:c:\projects\paindrain\arduinolcd\test\pain drain\libraries\lvgl\src\misc\lv_color.h ****     LV_COLOR_SET_R(ret, LV_UDIV255(premult_c1[0] + LV_COLOR_GET_R(c2) * mix + LV_COLOR_MIX_ROUND_OF
 1052              		.loc 3 498 0 discriminator 3
 1053 02b8 DA0A     		lsrs	r2, r3, #11
 1054 02ba 6A43     		muls	r2, r5
 1055 02bc 079C     		ldr	r4, [sp, #28]
 1056 02be A446     		mov	ip, r4
 1057 02c0 6244     		add	r2, r2, ip
 1058 02c2 1402     		lsls	r4, r2, #8
 1059 02c4 A418     		adds	r4, r4, r2
 1060 02c6 E401     		lsls	r4, r4, #7
 1061 02c8 A218     		adds	r2, r4, r2
 1062 02ca D20D     		lsrs	r2, r2, #23
 1063 02cc D2B2     		uxtb	r2, r2
 1064 02ce D202     		lsls	r2, r2, #11
 1065              	.LVL141:
 1066 02d0 5C46     		mov	r4, fp
 1067 02d2 6405     		lsls	r4, r4, #21
 1068 02d4 640D     		lsrs	r4, r4, #21
 1069 02d6 2243     		orrs	r2, r4
 499:c:\projects\paindrain\arduinolcd\test\pain drain\libraries\lvgl\src\misc\lv_color.h ****     LV_COLOR_SET_G(ret, LV_UDIV255(premult_c1[1] + LV_COLOR_GET_G(c2) * mix + LV_COLOR_MIX_ROUND_OF
 1070              		.loc 3 499 0 discriminator 3
 1071 02d8 5C05     		lsls	r4, r3, #21
 1072 02da A40E     		lsrs	r4, r4, #26
 1073 02dc 6C43     		muls	r4, r5
 1074 02de 4C44     		add	r4, r4, r9
 1075 02e0 2602     		lsls	r6, r4, #8
 1076 02e2 B246     		mov	r10, r6
 1077 02e4 A244     		add	r10, r10, r4
 1078 02e6 5646     		mov	r6, r10
 1079 02e8 F601     		lsls	r6, r6, #7
 1080 02ea B246     		mov	r10, r6
 1081 02ec 5444     		add	r4, r4, r10
 1082 02ee E40D     		lsrs	r4, r4, #23
 1083 02f0 A446     		mov	ip, r4
ARM GAS  C:\Users\haske\AppData\Local\Temp\ccpEN9oH.s 			page 38


 1084 02f2 3F24     		movs	r4, #63
 1085 02f4 A246     		mov	r10, r4
 1086 02f6 6446     		mov	r4, ip
 1087 02f8 5646     		mov	r6, r10
 1088 02fa 3440     		ands	r4, r6
 1089 02fc 6401     		lsls	r4, r4, #5
 1090 02fe A446     		mov	ip, r4
 1091 0300 364C     		ldr	r4, .L45
 1092 0302 2240     		ands	r2, r4
 1093 0304 6446     		mov	r4, ip
 1094 0306 2243     		orrs	r2, r4
 500:c:\projects\paindrain\arduinolcd\test\pain drain\libraries\lvgl\src\misc\lv_color.h ****     LV_COLOR_SET_B(ret, LV_UDIV255(premult_c1[2] + LV_COLOR_GET_B(c2) * mix + LV_COLOR_MIX_ROUND_OF
 1095              		.loc 3 500 0 discriminator 3
 1096 0308 DB06     		lsls	r3, r3, #27
 1097 030a DB0E     		lsrs	r3, r3, #27
 1098 030c 6B43     		muls	r3, r5
 1099 030e 4344     		add	r3, r3, r8
 1100 0310 1C02     		lsls	r4, r3, #8
 1101 0312 A446     		mov	ip, r4
 1102 0314 9C44     		add	ip, ip, r3
 1103 0316 6446     		mov	r4, ip
 1104 0318 E401     		lsls	r4, r4, #7
 1105 031a A446     		mov	ip, r4
 1106 031c 6344     		add	r3, r3, ip
 1107 031e DB0D     		lsrs	r3, r3, #23
 1108 0320 1F24     		movs	r4, #31
 1109 0322 2340     		ands	r3, r4
 1110 0324 A243     		bics	r2, r4
 1111 0326 1343     		orrs	r3, r2
 1112 0328 9B46     		mov	fp, r3
 1113              	.LVL142:
 1114              	.LBE85:
 1115              	.LBE84:
 159:..\..\..\arduinoLCD\test\Pain Drain\libraries\lvgl\src\draw\sw/lv_draw_sw_img.c ****                 }
 1116              		.loc 1 159 0 discriminator 3
 1117 032a 0B80     		strh	r3, [r1]
 158:..\..\..\arduinoLCD\test\Pain Drain\libraries\lvgl\src\draw\sw/lv_draw_sw_img.c ****                     rgb_buf[i] = lv_color_mix_premult(premult_v, rgb_buf[i], recolor_opa);
 1118              		.loc 1 158 0 discriminator 3
 1119 032c 0130     		adds	r0, r0, #1
 1120              	.LVL143:
 1121              	.L34:
 158:..\..\..\arduinoLCD\test\Pain Drain\libraries\lvgl\src\draw\sw/lv_draw_sw_img.c ****                     rgb_buf[i] = lv_color_mix_premult(premult_v, rgb_buf[i], recolor_opa);
 1122              		.loc 1 158 0 is_stmt 0 discriminator 1
 1123 032e B842     		cmp	r0, r7
 1124 0330 BDD3     		bcc	.L35
 1125 0332 069E     		ldr	r6, [sp, #24]
 1126              	.LVL144:
 1127              	.L33:
 1128              	.LBE81:
 164:..\..\..\arduinoLCD\test\Pain Drain\libraries\lvgl\src\draw\sw/lv_draw_sw_img.c ****                 lv_coord_t y;
 1129              		.loc 1 164 0 is_stmt 1
 1130 0334 0D9B     		ldr	r3, [sp, #52]
 1131 0336 002B     		cmp	r3, #0
 1132 0338 27D0     		beq	.L36
 1133              	.LVL145:
 1134              	.LBB86:
 167:..\..\..\arduinoLCD\test\Pain Drain\libraries\lvgl\src\draw\sw/lv_draw_sw_img.c ****                     lv_draw_mask_res_t mask_res_line;
ARM GAS  C:\Users\haske\AppData\Local\Temp\ccpEN9oH.s 			page 39


 1135              		.loc 1 167 0
 1136 033a 20AB     		add	r3, sp, #128
 1137 033c 0224     		movs	r4, #2
 1138 033e 1C5F     		ldrsh	r4, [r3, r4]
 1139              	.LVL146:
 166:..\..\..\arduinoLCD\test\Pain Drain\libraries\lvgl\src\draw\sw/lv_draw_sw_img.c ****                 for(y = blend_area.y1; y <= blend_area.y2; y++) {
 1140              		.loc 1 166 0
 1141 0340 0C9D     		ldr	r5, [sp, #48]
 1142 0342 B046     		mov	r8, r6
 1143 0344 2E00     		movs	r6, r5
 1144 0346 159D     		ldr	r5, [sp, #84]
 167:..\..\..\arduinoLCD\test\Pain Drain\libraries\lvgl\src\draw\sw/lv_draw_sw_img.c ****                     lv_draw_mask_res_t mask_res_line;
 1145              		.loc 1 167 0
 1146 0348 19E0     		b	.L37
 1147              	.LVL147:
 1148              	.L40:
 1149              	.LBB87:
 169:..\..\..\arduinoLCD\test\Pain Drain\libraries\lvgl\src\draw\sw/lv_draw_sw_img.c **** 
 1150              		.loc 1 169 0
 1151 034a 20AB     		add	r3, sp, #128
 1152 034c 0021     		movs	r1, #0
 1153 034e 595E     		ldrsh	r1, [r3, r1]
 1154 0350 089B     		ldr	r3, [sp, #32]
 1155 0352 2200     		movs	r2, r4
 1156 0354 3000     		movs	r0, r6
 1157 0356 FFF7FEFF 		bl	lv_draw_mask_apply
 1158              	.LVL148:
 171:..\..\..\arduinoLCD\test\Pain Drain\libraries\lvgl\src\draw\sw/lv_draw_sw_img.c ****                         lv_memset_00(mask_buf_tmp, blend_w);
 1159              		.loc 1 171 0
 1160 035a 0028     		cmp	r0, #0
 1161 035c 07D1     		bne	.L38
 172:..\..\..\arduinoLCD\test\Pain Drain\libraries\lvgl\src\draw\sw/lv_draw_sw_img.c ****                         blend_dsc.mask_res = LV_DRAW_MASK_RES_CHANGED;
 1162              		.loc 1 172 0
 1163 035e 2900     		movs	r1, r5
 1164 0360 3000     		movs	r0, r6
 1165              	.LVL149:
 1166 0362 FFF7FEFF 		bl	lv_memset_00
 1167              	.LVL150:
 173:..\..\..\arduinoLCD\test\Pain Drain\libraries\lvgl\src\draw\sw/lv_draw_sw_img.c ****                     }
 1168              		.loc 1 173 0
 1169 0366 0222     		movs	r2, #2
 1170 0368 19AB     		add	r3, sp, #100
 1171 036a 1A74     		strb	r2, [r3, #16]
 1172 036c 04E0     		b	.L39
 1173              	.LVL151:
 1174              	.L38:
 175:..\..\..\arduinoLCD\test\Pain Drain\libraries\lvgl\src\draw\sw/lv_draw_sw_img.c ****                         blend_dsc.mask_res = LV_DRAW_MASK_RES_CHANGED;
 1175              		.loc 1 175 0
 1176 036e 0228     		cmp	r0, #2
 1177 0370 02D1     		bne	.L39
 176:..\..\..\arduinoLCD\test\Pain Drain\libraries\lvgl\src\draw\sw/lv_draw_sw_img.c ****                     }
 1178              		.loc 1 176 0
 1179 0372 0222     		movs	r2, #2
 1180 0374 19AB     		add	r3, sp, #100
 1181 0376 1A74     		strb	r2, [r3, #16]
 1182              	.LVL152:
 1183              	.L39:
ARM GAS  C:\Users\haske\AppData\Local\Temp\ccpEN9oH.s 			page 40


 178:..\..\..\arduinoLCD\test\Pain Drain\libraries\lvgl\src\draw\sw/lv_draw_sw_img.c ****                 }
 1184              		.loc 1 178 0 discriminator 2
 1185 0378 7619     		adds	r6, r6, r5
 1186              	.LVL153:
 1187              	.LBE87:
 167:..\..\..\arduinoLCD\test\Pain Drain\libraries\lvgl\src\draw\sw/lv_draw_sw_img.c ****                     lv_draw_mask_res_t mask_res_line;
 1188              		.loc 1 167 0 discriminator 2
 1189 037a 0134     		adds	r4, r4, #1
 1190              	.LVL154:
 1191 037c 24B2     		sxth	r4, r4
 1192              	.LVL155:
 1193              	.L37:
 167:..\..\..\arduinoLCD\test\Pain Drain\libraries\lvgl\src\draw\sw/lv_draw_sw_img.c ****                     lv_draw_mask_res_t mask_res_line;
 1194              		.loc 1 167 0 is_stmt 0 discriminator 1
 1195 037e 20AB     		add	r3, sp, #128
 1196 0380 0622     		movs	r2, #6
 1197 0382 9B5E     		ldrsh	r3, [r3, r2]
 1198 0384 9C42     		cmp	r4, r3
 1199 0386 E0DD     		ble	.L40
 1200 0388 4646     		mov	r6, r8
 1201              	.LVL156:
 1202              	.L36:
 1203              	.LBE86:
 184:..\..\..\arduinoLCD\test\Pain Drain\libraries\lvgl\src\draw\sw/lv_draw_sw_img.c **** 
 1204              		.loc 1 184 0 is_stmt 1
 1205 038a 19A9     		add	r1, sp, #100
 1206 038c 0B98     		ldr	r0, [sp, #44]
 1207 038e FFF7FEFF 		bl	lv_draw_sw_blend
 1208              	.LVL157:
 187:..\..\..\arduinoLCD\test\Pain Drain\libraries\lvgl\src\draw\sw/lv_draw_sw_img.c ****             blend_area.y2 = blend_area.y1 + buf_h - 1;
 1209              		.loc 1 187 0
 1210 0392 20AA     		add	r2, sp, #128
 1211 0394 0621     		movs	r1, #6
 1212 0396 535E     		ldrsh	r3, [r2, r1]
 1213 0398 0133     		adds	r3, r3, #1
 1214 039a 9BB2     		uxth	r3, r3
 1215 039c 5380     		strh	r3, [r2, #2]
 188:..\..\..\arduinoLCD\test\Pain Drain\libraries\lvgl\src\draw\sw/lv_draw_sw_img.c ****             if(blend_area.y2 > y_last) blend_area.y2 = y_last;
 1216              		.loc 1 188 0
 1217 039e 1299     		ldr	r1, [sp, #72]
 1218 03a0 8C46     		mov	ip, r1
 1219 03a2 6344     		add	r3, r3, ip
 1220 03a4 013B     		subs	r3, r3, #1
 1221 03a6 1BB2     		sxth	r3, r3
 1222 03a8 D380     		strh	r3, [r2, #6]
 189:..\..\..\arduinoLCD\test\Pain Drain\libraries\lvgl\src\draw\sw/lv_draw_sw_img.c ****         }
 1223              		.loc 1 189 0
 1224 03aa 0999     		ldr	r1, [sp, #36]
 1225 03ac 9942     		cmp	r1, r3
 1226 03ae 01DA     		bge	.L30
 189:..\..\..\arduinoLCD\test\Pain Drain\libraries\lvgl\src\draw\sw/lv_draw_sw_img.c ****         }
 1227              		.loc 1 189 0 is_stmt 0 discriminator 1
 1228 03b0 20AB     		add	r3, sp, #128
 1229 03b2 D980     		strh	r1, [r3, #6]
 1230              	.L30:
 1231              	.LBE78:
 137:..\..\..\arduinoLCD\test\Pain Drain\libraries\lvgl\src\draw\sw/lv_draw_sw_img.c ****             /*Apply transformations if any or separate the channels*/
ARM GAS  C:\Users\haske\AppData\Local\Temp\ccpEN9oH.s 			page 41


 1232              		.loc 1 137 0 is_stmt 1
 1233 03b4 20AB     		add	r3, sp, #128
 1234 03b6 0222     		movs	r2, #2
 1235 03b8 9A5E     		ldrsh	r2, [r3, r2]
 1236 03ba 099B     		ldr	r3, [sp, #36]
 1237 03bc 9342     		cmp	r3, r2
 1238 03be 00DB     		blt	.LCB1270
 1239 03c0 22E7     		b	.L42	@long jump
 1240              	.LCB1270:
 192:..\..\..\arduinoLCD\test\Pain Drain\libraries\lvgl\src\draw\sw/lv_draw_sw_img.c ****         lv_mem_buf_release(rgb_buf);
 1241              		.loc 1 192 0
 1242 03c2 0C98     		ldr	r0, [sp, #48]
 1243 03c4 FFF7FEFF 		bl	lv_mem_buf_release
 1244              	.LVL158:
 193:..\..\..\arduinoLCD\test\Pain Drain\libraries\lvgl\src\draw\sw/lv_draw_sw_img.c ****     }
 1245              		.loc 1 193 0
 1246 03c8 3000     		movs	r0, r6
 1247 03ca FFF7FEFF 		bl	lv_mem_buf_release
 1248              	.LVL159:
 1249              	.L20:
 1250              	.LBE69:
 195:..\..\..\arduinoLCD\test\Pain Drain\libraries\lvgl\src\draw\sw/lv_draw_sw_img.c **** 
 1251              		.loc 1 195 0
 1252 03ce 25B0     		add	sp, sp, #148
 1253              		@ sp needed
 1254 03d0 3CBC     		pop	{r2, r3, r4, r5}
 1255 03d2 9046     		mov	r8, r2
 1256 03d4 9946     		mov	r9, r3
 1257 03d6 A246     		mov	r10, r4
 1258 03d8 AB46     		mov	fp, r5
 1259 03da F0BD     		pop	{r4, r5, r6, r7, pc}
 1260              	.L46:
 1261              		.align	2
 1262              	.L45:
 1263 03dc 1FF8FFFF 		.word	-2017
 1264              		.cfi_endproc
 1265              	.LFE159:
 1266              		.size	lv_draw_sw_img_decoded, .-lv_draw_sw_img_decoded
 1267              		.text
 1268              	.Letext0:
 1269              		.file 4 "c:\\program files (x86)\\cypress\\psoc creator\\4.4\\psoc creator\\import\\gnu\\arm\\5.4.
 1270              		.file 5 "c:\\program files (x86)\\cypress\\psoc creator\\4.4\\psoc creator\\import\\gnu\\arm\\5.4.
 1271              		.file 6 "c:\\projects\\paindrain\\arduinolcd\\test\\pain drain\\libraries\\lvgl\\src\\misc\\lv_typ
 1272              		.file 7 "c:\\program files (x86)\\cypress\\psoc creator\\4.4\\psoc creator\\import\\gnu\\arm\\5.4.
 1273              		.file 8 "c:\\projects\\paindrain\\arduinolcd\\test\\pain drain\\libraries\\lvgl\\src\\font\\lv_fon
 1274              		.file 9 "c:\\projects\\paindrain\\arduinolcd\\test\\pain drain\\libraries\\lvgl\\src\\misc\\lv_txt
 1275              		.file 10 "c:\\projects\\paindrain\\arduinolcd\\test\\pain drain\\libraries\\lvgl\\src\\misc\\lv_bi
 1276              		.file 11 "c:\\projects\\paindrain\\arduinolcd\\test\\pain drain\\libraries\\lvgl\\src\\misc\\lv_st
 1277              		.file 12 "..\\..\\..\\arduinoLCD\\test\\Pain Drain\\libraries\\lvgl\\src\\draw\\sw\\../lv_draw_mas
 1278              		.file 13 "..\\..\\..\\arduinoLCD\\test\\Pain Drain\\libraries\\lvgl\\src\\draw\\sw\\lv_draw_sw_ble
 1279              		.file 14 "..\\..\\..\\arduinoLCD\\test\\Pain Drain\\libraries\\lvgl\\src\\draw\\sw\\../lv_img_buf.
 1280              		.file 15 "..\\..\\..\\arduinoLCD\\test\\Pain Drain\\libraries\\lvgl\\src\\draw\\sw\\../lv_draw_rec
 1281              		.file 16 "..\\..\\..\\arduinoLCD\\test\\Pain Drain\\libraries\\lvgl\\src\\draw\\sw\\../lv_draw_lab
 1282              		.file 17 "..\\..\\..\\arduinoLCD\\test\\Pain Drain\\libraries\\lvgl\\src\\draw\\sw\\../lv_draw_img
 1283              		.file 18 "..\\..\\..\\arduinoLCD\\test\\Pain Drain\\libraries\\lvgl\\src\\draw\\sw\\../lv_draw_lin
 1284              		.file 19 "..\\..\\..\\arduinoLCD\\test\\Pain Drain\\libraries\\lvgl\\src\\draw\\sw\\../lv_draw_arc
 1285              		.file 20 "..\\..\\..\\arduinoLCD\\test\\Pain Drain\\libraries\\lvgl\\src\\draw\\sw\\../lv_draw_lay
ARM GAS  C:\Users\haske\AppData\Local\Temp\ccpEN9oH.s 			page 42


 1286              		.file 21 "..\\..\\..\\arduinoLCD\\test\\Pain Drain\\libraries\\lvgl\\src\\draw\\sw\\../lv_draw.h"
 1287              		.file 22 "c:\\projects\\paindrain\\arduinolcd\\test\\pain drain\\libraries\\lvgl\\src\\misc\\lv_me
 1288              		.file 23 "..\\..\\..\\arduinoLCD\\test\\Pain Drain\\libraries\\lvgl\\src\\draw\\sw\\../lv_draw_tra
 1289              		.file 24 "c:\\projects\\paindrain\\arduinolcd\\test\\pain drain\\libraries\\lvgl\\src\\core\\lv_re
 1290              		.file 25 "c:\\projects\\paindrain\\arduinolcd\\test\\pain drain\\libraries\\lvgl\\src\\hal\\lv_hal