ARM GAS  C:\Users\haske\AppData\Local\Temp\ccpgnYma.s 			page 1


   1              		.syntax unified
   2              		.cpu cortex-m0plus
   3              		.fpu softvfp
   4              		.eabi_attribute 20, 1
   5              		.eabi_attribute 21, 1
   6              		.eabi_attribute 23, 3
   7              		.eabi_attribute 24, 1
   8              		.eabi_attribute 25, 1
   9              		.eabi_attribute 26, 1
  10              		.eabi_attribute 30, 1
  11              		.eabi_attribute 34, 0
  12              		.eabi_attribute 18, 4
  13              		.thumb
  14              		.syntax unified
  15              		.file	"lv_draw_sw_line.c"
  16              		.text
  17              	.Ltext0:
  18              		.cfi_sections	.debug_frame
  19              		.global	__aeabi_idivmod
  20              		.section	.text.draw_line_hor,"ax",%progbits
  21              		.align	2
  22              		.code	16
  23              		.thumb_func
  24              		.type	draw_line_hor, %function
  25              	draw_line_hor:
  26              	.LFB160:
  27              		.file 1 "..\\..\\..\\arduinoLCD\\test\\Pain Drain\\libraries\\lvgl\\src\\draw\\sw\\lv_draw_sw_line
   1:..\..\..\arduinoLCD\test\Pain Drain\libraries\lvgl\src\draw\sw/lv_draw_sw_line.c **** /**
   2:..\..\..\arduinoLCD\test\Pain Drain\libraries\lvgl\src\draw\sw/lv_draw_sw_line.c ****  * @file lv_draw_line.c
   3:..\..\..\arduinoLCD\test\Pain Drain\libraries\lvgl\src\draw\sw/lv_draw_sw_line.c ****  *
   4:..\..\..\arduinoLCD\test\Pain Drain\libraries\lvgl\src\draw\sw/lv_draw_sw_line.c ****  */
   5:..\..\..\arduinoLCD\test\Pain Drain\libraries\lvgl\src\draw\sw/lv_draw_sw_line.c **** 
   6:..\..\..\arduinoLCD\test\Pain Drain\libraries\lvgl\src\draw\sw/lv_draw_sw_line.c **** /*********************
   7:..\..\..\arduinoLCD\test\Pain Drain\libraries\lvgl\src\draw\sw/lv_draw_sw_line.c ****  *      INCLUDES
   8:..\..\..\arduinoLCD\test\Pain Drain\libraries\lvgl\src\draw\sw/lv_draw_sw_line.c ****  *********************/
   9:..\..\..\arduinoLCD\test\Pain Drain\libraries\lvgl\src\draw\sw/lv_draw_sw_line.c **** #include <stdbool.h>
  10:..\..\..\arduinoLCD\test\Pain Drain\libraries\lvgl\src\draw\sw/lv_draw_sw_line.c **** #include "lv_draw_sw.h"
  11:..\..\..\arduinoLCD\test\Pain Drain\libraries\lvgl\src\draw\sw/lv_draw_sw_line.c **** #include "../../misc/lv_math.h"
  12:..\..\..\arduinoLCD\test\Pain Drain\libraries\lvgl\src\draw\sw/lv_draw_sw_line.c **** #include "../../core/lv_refr.h"
  13:..\..\..\arduinoLCD\test\Pain Drain\libraries\lvgl\src\draw\sw/lv_draw_sw_line.c **** 
  14:..\..\..\arduinoLCD\test\Pain Drain\libraries\lvgl\src\draw\sw/lv_draw_sw_line.c **** /*********************
  15:..\..\..\arduinoLCD\test\Pain Drain\libraries\lvgl\src\draw\sw/lv_draw_sw_line.c ****  *      DEFINES
  16:..\..\..\arduinoLCD\test\Pain Drain\libraries\lvgl\src\draw\sw/lv_draw_sw_line.c ****  *********************/
  17:..\..\..\arduinoLCD\test\Pain Drain\libraries\lvgl\src\draw\sw/lv_draw_sw_line.c **** 
  18:..\..\..\arduinoLCD\test\Pain Drain\libraries\lvgl\src\draw\sw/lv_draw_sw_line.c **** /**********************
  19:..\..\..\arduinoLCD\test\Pain Drain\libraries\lvgl\src\draw\sw/lv_draw_sw_line.c ****  *      TYPEDEFS
  20:..\..\..\arduinoLCD\test\Pain Drain\libraries\lvgl\src\draw\sw/lv_draw_sw_line.c ****  **********************/
  21:..\..\..\arduinoLCD\test\Pain Drain\libraries\lvgl\src\draw\sw/lv_draw_sw_line.c **** 
  22:..\..\..\arduinoLCD\test\Pain Drain\libraries\lvgl\src\draw\sw/lv_draw_sw_line.c **** /**********************
  23:..\..\..\arduinoLCD\test\Pain Drain\libraries\lvgl\src\draw\sw/lv_draw_sw_line.c ****  *  STATIC PROTOTYPES
  24:..\..\..\arduinoLCD\test\Pain Drain\libraries\lvgl\src\draw\sw/lv_draw_sw_line.c ****  **********************/
  25:..\..\..\arduinoLCD\test\Pain Drain\libraries\lvgl\src\draw\sw/lv_draw_sw_line.c **** 
  26:..\..\..\arduinoLCD\test\Pain Drain\libraries\lvgl\src\draw\sw/lv_draw_sw_line.c **** LV_ATTRIBUTE_FAST_MEM static void draw_line_skew(struct _lv_draw_ctx_t * draw_ctx, const lv_draw_li
  27:..\..\..\arduinoLCD\test\Pain Drain\libraries\lvgl\src\draw\sw/lv_draw_sw_line.c ****                                                  const lv_point_t * point1, const lv_point_t * poin
  28:..\..\..\arduinoLCD\test\Pain Drain\libraries\lvgl\src\draw\sw/lv_draw_sw_line.c **** LV_ATTRIBUTE_FAST_MEM static void draw_line_hor(struct _lv_draw_ctx_t * draw_ctx, const lv_draw_lin
  29:..\..\..\arduinoLCD\test\Pain Drain\libraries\lvgl\src\draw\sw/lv_draw_sw_line.c ****                                                 const lv_point_t * point1, const lv_point_t * point
  30:..\..\..\arduinoLCD\test\Pain Drain\libraries\lvgl\src\draw\sw/lv_draw_sw_line.c **** LV_ATTRIBUTE_FAST_MEM static void draw_line_ver(struct _lv_draw_ctx_t * draw_ctx, const lv_draw_lin
ARM GAS  C:\Users\haske\AppData\Local\Temp\ccpgnYma.s 			page 2


  31:..\..\..\arduinoLCD\test\Pain Drain\libraries\lvgl\src\draw\sw/lv_draw_sw_line.c ****                                                 const lv_point_t * point1, const lv_point_t * point
  32:..\..\..\arduinoLCD\test\Pain Drain\libraries\lvgl\src\draw\sw/lv_draw_sw_line.c **** 
  33:..\..\..\arduinoLCD\test\Pain Drain\libraries\lvgl\src\draw\sw/lv_draw_sw_line.c **** /**********************
  34:..\..\..\arduinoLCD\test\Pain Drain\libraries\lvgl\src\draw\sw/lv_draw_sw_line.c ****  *  STATIC VARIABLES
  35:..\..\..\arduinoLCD\test\Pain Drain\libraries\lvgl\src\draw\sw/lv_draw_sw_line.c ****  **********************/
  36:..\..\..\arduinoLCD\test\Pain Drain\libraries\lvgl\src\draw\sw/lv_draw_sw_line.c **** 
  37:..\..\..\arduinoLCD\test\Pain Drain\libraries\lvgl\src\draw\sw/lv_draw_sw_line.c **** /**********************
  38:..\..\..\arduinoLCD\test\Pain Drain\libraries\lvgl\src\draw\sw/lv_draw_sw_line.c ****  *      MACROS
  39:..\..\..\arduinoLCD\test\Pain Drain\libraries\lvgl\src\draw\sw/lv_draw_sw_line.c ****  **********************/
  40:..\..\..\arduinoLCD\test\Pain Drain\libraries\lvgl\src\draw\sw/lv_draw_sw_line.c **** 
  41:..\..\..\arduinoLCD\test\Pain Drain\libraries\lvgl\src\draw\sw/lv_draw_sw_line.c **** /**********************
  42:..\..\..\arduinoLCD\test\Pain Drain\libraries\lvgl\src\draw\sw/lv_draw_sw_line.c ****  *   GLOBAL FUNCTIONS
  43:..\..\..\arduinoLCD\test\Pain Drain\libraries\lvgl\src\draw\sw/lv_draw_sw_line.c ****  **********************/
  44:..\..\..\arduinoLCD\test\Pain Drain\libraries\lvgl\src\draw\sw/lv_draw_sw_line.c **** 
  45:..\..\..\arduinoLCD\test\Pain Drain\libraries\lvgl\src\draw\sw/lv_draw_sw_line.c **** /**
  46:..\..\..\arduinoLCD\test\Pain Drain\libraries\lvgl\src\draw\sw/lv_draw_sw_line.c ****  * Draw a line
  47:..\..\..\arduinoLCD\test\Pain Drain\libraries\lvgl\src\draw\sw/lv_draw_sw_line.c ****  * @param point1 first point of the line
  48:..\..\..\arduinoLCD\test\Pain Drain\libraries\lvgl\src\draw\sw/lv_draw_sw_line.c ****  * @param point2 second point of the line
  49:..\..\..\arduinoLCD\test\Pain Drain\libraries\lvgl\src\draw\sw/lv_draw_sw_line.c ****  * @param clip the line will be drawn only in this area
  50:..\..\..\arduinoLCD\test\Pain Drain\libraries\lvgl\src\draw\sw/lv_draw_sw_line.c ****  * @param dsc pointer to an initialized `lv_draw_line_dsc_t` variable
  51:..\..\..\arduinoLCD\test\Pain Drain\libraries\lvgl\src\draw\sw/lv_draw_sw_line.c ****  */
  52:..\..\..\arduinoLCD\test\Pain Drain\libraries\lvgl\src\draw\sw/lv_draw_sw_line.c **** LV_ATTRIBUTE_FAST_MEM void lv_draw_sw_line(struct _lv_draw_ctx_t * draw_ctx, const lv_draw_line_dsc
  53:..\..\..\arduinoLCD\test\Pain Drain\libraries\lvgl\src\draw\sw/lv_draw_sw_line.c ****                                            const lv_point_t * point1, const lv_point_t * point2)
  54:..\..\..\arduinoLCD\test\Pain Drain\libraries\lvgl\src\draw\sw/lv_draw_sw_line.c **** {
  55:..\..\..\arduinoLCD\test\Pain Drain\libraries\lvgl\src\draw\sw/lv_draw_sw_line.c ****     if(dsc->width == 0) return;
  56:..\..\..\arduinoLCD\test\Pain Drain\libraries\lvgl\src\draw\sw/lv_draw_sw_line.c ****     if(dsc->opa <= LV_OPA_MIN) return;
  57:..\..\..\arduinoLCD\test\Pain Drain\libraries\lvgl\src\draw\sw/lv_draw_sw_line.c **** 
  58:..\..\..\arduinoLCD\test\Pain Drain\libraries\lvgl\src\draw\sw/lv_draw_sw_line.c ****     if(point1->x == point2->x && point1->y == point2->y) return;
  59:..\..\..\arduinoLCD\test\Pain Drain\libraries\lvgl\src\draw\sw/lv_draw_sw_line.c **** 
  60:..\..\..\arduinoLCD\test\Pain Drain\libraries\lvgl\src\draw\sw/lv_draw_sw_line.c ****     lv_area_t clip_line;
  61:..\..\..\arduinoLCD\test\Pain Drain\libraries\lvgl\src\draw\sw/lv_draw_sw_line.c ****     clip_line.x1 = LV_MIN(point1->x, point2->x) - dsc->width / 2;
  62:..\..\..\arduinoLCD\test\Pain Drain\libraries\lvgl\src\draw\sw/lv_draw_sw_line.c ****     clip_line.x2 = LV_MAX(point1->x, point2->x) + dsc->width / 2;
  63:..\..\..\arduinoLCD\test\Pain Drain\libraries\lvgl\src\draw\sw/lv_draw_sw_line.c ****     clip_line.y1 = LV_MIN(point1->y, point2->y) - dsc->width / 2;
  64:..\..\..\arduinoLCD\test\Pain Drain\libraries\lvgl\src\draw\sw/lv_draw_sw_line.c ****     clip_line.y2 = LV_MAX(point1->y, point2->y) + dsc->width / 2;
  65:..\..\..\arduinoLCD\test\Pain Drain\libraries\lvgl\src\draw\sw/lv_draw_sw_line.c **** 
  66:..\..\..\arduinoLCD\test\Pain Drain\libraries\lvgl\src\draw\sw/lv_draw_sw_line.c ****     bool is_common;
  67:..\..\..\arduinoLCD\test\Pain Drain\libraries\lvgl\src\draw\sw/lv_draw_sw_line.c ****     is_common = _lv_area_intersect(&clip_line, &clip_line, draw_ctx->clip_area);
  68:..\..\..\arduinoLCD\test\Pain Drain\libraries\lvgl\src\draw\sw/lv_draw_sw_line.c ****     if(!is_common) return;
  69:..\..\..\arduinoLCD\test\Pain Drain\libraries\lvgl\src\draw\sw/lv_draw_sw_line.c ****     const lv_area_t * clip_area_ori = draw_ctx->clip_area;
  70:..\..\..\arduinoLCD\test\Pain Drain\libraries\lvgl\src\draw\sw/lv_draw_sw_line.c ****     draw_ctx->clip_area = &clip_line;
  71:..\..\..\arduinoLCD\test\Pain Drain\libraries\lvgl\src\draw\sw/lv_draw_sw_line.c **** 
  72:..\..\..\arduinoLCD\test\Pain Drain\libraries\lvgl\src\draw\sw/lv_draw_sw_line.c ****     if(point1->y == point2->y) draw_line_hor(draw_ctx, dsc, point1, point2);
  73:..\..\..\arduinoLCD\test\Pain Drain\libraries\lvgl\src\draw\sw/lv_draw_sw_line.c ****     else if(point1->x == point2->x) draw_line_ver(draw_ctx, dsc, point1, point2);
  74:..\..\..\arduinoLCD\test\Pain Drain\libraries\lvgl\src\draw\sw/lv_draw_sw_line.c ****     else draw_line_skew(draw_ctx, dsc, point1, point2);
  75:..\..\..\arduinoLCD\test\Pain Drain\libraries\lvgl\src\draw\sw/lv_draw_sw_line.c **** 
  76:..\..\..\arduinoLCD\test\Pain Drain\libraries\lvgl\src\draw\sw/lv_draw_sw_line.c ****     if(dsc->round_end || dsc->round_start) {
  77:..\..\..\arduinoLCD\test\Pain Drain\libraries\lvgl\src\draw\sw/lv_draw_sw_line.c ****         lv_draw_rect_dsc_t cir_dsc;
  78:..\..\..\arduinoLCD\test\Pain Drain\libraries\lvgl\src\draw\sw/lv_draw_sw_line.c ****         lv_draw_rect_dsc_init(&cir_dsc);
  79:..\..\..\arduinoLCD\test\Pain Drain\libraries\lvgl\src\draw\sw/lv_draw_sw_line.c ****         cir_dsc.bg_color = dsc->color;
  80:..\..\..\arduinoLCD\test\Pain Drain\libraries\lvgl\src\draw\sw/lv_draw_sw_line.c ****         cir_dsc.radius = LV_RADIUS_CIRCLE;
  81:..\..\..\arduinoLCD\test\Pain Drain\libraries\lvgl\src\draw\sw/lv_draw_sw_line.c ****         cir_dsc.bg_opa = dsc->opa;
  82:..\..\..\arduinoLCD\test\Pain Drain\libraries\lvgl\src\draw\sw/lv_draw_sw_line.c **** 
  83:..\..\..\arduinoLCD\test\Pain Drain\libraries\lvgl\src\draw\sw/lv_draw_sw_line.c ****         int32_t r = (dsc->width >> 1);
  84:..\..\..\arduinoLCD\test\Pain Drain\libraries\lvgl\src\draw\sw/lv_draw_sw_line.c ****         int32_t r_corr = (dsc->width & 1) ? 0 : 1;
  85:..\..\..\arduinoLCD\test\Pain Drain\libraries\lvgl\src\draw\sw/lv_draw_sw_line.c ****         lv_area_t cir_area;
  86:..\..\..\arduinoLCD\test\Pain Drain\libraries\lvgl\src\draw\sw/lv_draw_sw_line.c **** 
  87:..\..\..\arduinoLCD\test\Pain Drain\libraries\lvgl\src\draw\sw/lv_draw_sw_line.c ****         if(dsc->round_start) {
ARM GAS  C:\Users\haske\AppData\Local\Temp\ccpgnYma.s 			page 3


  88:..\..\..\arduinoLCD\test\Pain Drain\libraries\lvgl\src\draw\sw/lv_draw_sw_line.c ****             cir_area.x1 = point1->x - r;
  89:..\..\..\arduinoLCD\test\Pain Drain\libraries\lvgl\src\draw\sw/lv_draw_sw_line.c ****             cir_area.y1 = point1->y - r;
  90:..\..\..\arduinoLCD\test\Pain Drain\libraries\lvgl\src\draw\sw/lv_draw_sw_line.c ****             cir_area.x2 = point1->x + r - r_corr;
  91:..\..\..\arduinoLCD\test\Pain Drain\libraries\lvgl\src\draw\sw/lv_draw_sw_line.c ****             cir_area.y2 = point1->y + r - r_corr ;
  92:..\..\..\arduinoLCD\test\Pain Drain\libraries\lvgl\src\draw\sw/lv_draw_sw_line.c ****             lv_draw_rect(draw_ctx, &cir_dsc, &cir_area);
  93:..\..\..\arduinoLCD\test\Pain Drain\libraries\lvgl\src\draw\sw/lv_draw_sw_line.c ****         }
  94:..\..\..\arduinoLCD\test\Pain Drain\libraries\lvgl\src\draw\sw/lv_draw_sw_line.c **** 
  95:..\..\..\arduinoLCD\test\Pain Drain\libraries\lvgl\src\draw\sw/lv_draw_sw_line.c ****         if(dsc->round_end) {
  96:..\..\..\arduinoLCD\test\Pain Drain\libraries\lvgl\src\draw\sw/lv_draw_sw_line.c ****             cir_area.x1 = point2->x - r;
  97:..\..\..\arduinoLCD\test\Pain Drain\libraries\lvgl\src\draw\sw/lv_draw_sw_line.c ****             cir_area.y1 = point2->y - r;
  98:..\..\..\arduinoLCD\test\Pain Drain\libraries\lvgl\src\draw\sw/lv_draw_sw_line.c ****             cir_area.x2 = point2->x + r - r_corr;
  99:..\..\..\arduinoLCD\test\Pain Drain\libraries\lvgl\src\draw\sw/lv_draw_sw_line.c ****             cir_area.y2 = point2->y + r - r_corr ;
 100:..\..\..\arduinoLCD\test\Pain Drain\libraries\lvgl\src\draw\sw/lv_draw_sw_line.c ****             lv_draw_rect(draw_ctx, &cir_dsc, &cir_area);
 101:..\..\..\arduinoLCD\test\Pain Drain\libraries\lvgl\src\draw\sw/lv_draw_sw_line.c ****         }
 102:..\..\..\arduinoLCD\test\Pain Drain\libraries\lvgl\src\draw\sw/lv_draw_sw_line.c ****     }
 103:..\..\..\arduinoLCD\test\Pain Drain\libraries\lvgl\src\draw\sw/lv_draw_sw_line.c **** 
 104:..\..\..\arduinoLCD\test\Pain Drain\libraries\lvgl\src\draw\sw/lv_draw_sw_line.c ****     draw_ctx->clip_area = clip_area_ori;
 105:..\..\..\arduinoLCD\test\Pain Drain\libraries\lvgl\src\draw\sw/lv_draw_sw_line.c **** }
 106:..\..\..\arduinoLCD\test\Pain Drain\libraries\lvgl\src\draw\sw/lv_draw_sw_line.c **** 
 107:..\..\..\arduinoLCD\test\Pain Drain\libraries\lvgl\src\draw\sw/lv_draw_sw_line.c **** /**********************
 108:..\..\..\arduinoLCD\test\Pain Drain\libraries\lvgl\src\draw\sw/lv_draw_sw_line.c ****  *   STATIC FUNCTIONS
 109:..\..\..\arduinoLCD\test\Pain Drain\libraries\lvgl\src\draw\sw/lv_draw_sw_line.c ****  **********************/
 110:..\..\..\arduinoLCD\test\Pain Drain\libraries\lvgl\src\draw\sw/lv_draw_sw_line.c **** 
 111:..\..\..\arduinoLCD\test\Pain Drain\libraries\lvgl\src\draw\sw/lv_draw_sw_line.c **** 
 112:..\..\..\arduinoLCD\test\Pain Drain\libraries\lvgl\src\draw\sw/lv_draw_sw_line.c **** LV_ATTRIBUTE_FAST_MEM static void draw_line_hor(struct _lv_draw_ctx_t * draw_ctx, const lv_draw_lin
 113:..\..\..\arduinoLCD\test\Pain Drain\libraries\lvgl\src\draw\sw/lv_draw_sw_line.c ****                                                 const lv_point_t * point1, const lv_point_t * point
 114:..\..\..\arduinoLCD\test\Pain Drain\libraries\lvgl\src\draw\sw/lv_draw_sw_line.c **** {
  28              		.loc 1 114 0
  29              		.cfi_startproc
  30              		@ args = 0, pretend = 0, frame = 56
  31              		@ frame_needed = 0, uses_anonymous_args = 0
  32              	.LVL0:
  33 0000 F0B5     		push	{r4, r5, r6, r7, lr}
  34              		.cfi_def_cfa_offset 20
  35              		.cfi_offset 4, -20
  36              		.cfi_offset 5, -16
  37              		.cfi_offset 6, -12
  38              		.cfi_offset 7, -8
  39              		.cfi_offset 14, -4
  40 0002 5F46     		mov	r7, fp
  41 0004 5646     		mov	r6, r10
  42 0006 4D46     		mov	r5, r9
  43 0008 E0B4     		push	{r5, r6, r7}
  44              		.cfi_def_cfa_offset 32
  45              		.cfi_offset 9, -32
  46              		.cfi_offset 10, -28
  47              		.cfi_offset 11, -24
  48 000a 8EB0     		sub	sp, sp, #56
  49              		.cfi_def_cfa_offset 88
  50 000c 8146     		mov	r9, r0
  51 000e 0C00     		movs	r4, r1
 115:..\..\..\arduinoLCD\test\Pain Drain\libraries\lvgl\src\draw\sw/lv_draw_sw_line.c ****     int32_t w = dsc->width - 1;
  52              		.loc 1 115 0
  53 0010 0220     		movs	r0, #2
  54 0012 095E     		ldrsh	r1, [r1, r0]
  55              	.LVL1:
  56 0014 0139     		subs	r1, r1, #1
ARM GAS  C:\Users\haske\AppData\Local\Temp\ccpgnYma.s 			page 4


  57              	.LVL2:
 116:..\..\..\arduinoLCD\test\Pain Drain\libraries\lvgl\src\draw\sw/lv_draw_sw_line.c ****     int32_t w_half0 = w >> 1;
  58              		.loc 1 116 0
  59 0016 4E10     		asrs	r6, r1, #1
  60              	.LVL3:
 117:..\..\..\arduinoLCD\test\Pain Drain\libraries\lvgl\src\draw\sw/lv_draw_sw_line.c ****     int32_t w_half1 = w_half0 + (w & 0x1); /*Compensate rounding error*/
  61              		.loc 1 117 0
  62 0018 0120     		movs	r0, #1
  63 001a 0140     		ands	r1, r0
  64              	.LVL4:
  65 001c 7118     		adds	r1, r6, r1
  66              	.LVL5:
 118:..\..\..\arduinoLCD\test\Pain Drain\libraries\lvgl\src\draw\sw/lv_draw_sw_line.c **** 
 119:..\..\..\arduinoLCD\test\Pain Drain\libraries\lvgl\src\draw\sw/lv_draw_sw_line.c ****     lv_area_t blend_area;
 120:..\..\..\arduinoLCD\test\Pain Drain\libraries\lvgl\src\draw\sw/lv_draw_sw_line.c ****     blend_area.x1 = LV_MIN(point1->x, point2->x);
  67              		.loc 1 120 0
  68 001e 0025     		movs	r5, #0
  69 0020 585F     		ldrsh	r0, [r3, r5]
  70 0022 0025     		movs	r5, #0
  71 0024 575F     		ldrsh	r7, [r2, r5]
  72 0026 051C     		adds	r5, r0, #0
  73 0028 B842     		cmp	r0, r7
  74 002a 00DD     		ble	.L2
  75 002c 3D1C     		adds	r5, r7, #0
  76              	.L2:
  77 002e 0CA8     		add	r0, sp, #48
  78 0030 0580     		strh	r5, [r0]
  79              	.LVL6:
 121:..\..\..\arduinoLCD\test\Pain Drain\libraries\lvgl\src\draw\sw/lv_draw_sw_line.c ****     blend_area.x2 = LV_MAX(point1->x, point2->x)  - 1;
  80              		.loc 1 121 0
  81 0032 0020     		movs	r0, #0
  82 0034 1B5E     		ldrsh	r3, [r3, r0]
  83              	.LVL7:
  84 0036 0025     		movs	r5, #0
  85 0038 505F     		ldrsh	r0, [r2, r5]
  86 003a 1D1C     		adds	r5, r3, #0
  87 003c 8342     		cmp	r3, r0
  88 003e 00DA     		bge	.L3
  89 0040 051C     		adds	r5, r0, #0
  90              	.L3:
  91 0042 0CA8     		add	r0, sp, #48
  92 0044 013D     		subs	r5, r5, #1
  93 0046 8580     		strh	r5, [r0, #4]
 122:..\..\..\arduinoLCD\test\Pain Drain\libraries\lvgl\src\draw\sw/lv_draw_sw_line.c ****     blend_area.y1 = point1->y - w_half1;
  94              		.loc 1 122 0
  95 0048 0223     		movs	r3, #2
  96 004a D35E     		ldrsh	r3, [r2, r3]
  97              	.LVL8:
  98 004c 591A     		subs	r1, r3, r1
  99              	.LVL9:
 100 004e 4180     		strh	r1, [r0, #2]
 123:..\..\..\arduinoLCD\test\Pain Drain\libraries\lvgl\src\draw\sw/lv_draw_sw_line.c ****     blend_area.y2 = point1->y + w_half0;
 101              		.loc 1 123 0
 102 0050 9B19     		adds	r3, r3, r6
 103 0052 C380     		strh	r3, [r0, #6]
 124:..\..\..\arduinoLCD\test\Pain Drain\libraries\lvgl\src\draw\sw/lv_draw_sw_line.c **** 
 125:..\..\..\arduinoLCD\test\Pain Drain\libraries\lvgl\src\draw\sw/lv_draw_sw_line.c ****     bool is_common;
ARM GAS  C:\Users\haske\AppData\Local\Temp\ccpgnYma.s 			page 5


 126:..\..\..\arduinoLCD\test\Pain Drain\libraries\lvgl\src\draw\sw/lv_draw_sw_line.c ****     is_common = _lv_area_intersect(&blend_area, &blend_area, draw_ctx->clip_area);
 104              		.loc 1 126 0
 105 0054 4B46     		mov	r3, r9
 106 0056 9A68     		ldr	r2, [r3, #8]
 107 0058 0100     		movs	r1, r0
 108 005a FFF7FEFF 		bl	_lv_area_intersect
 109              	.LVL10:
 127:..\..\..\arduinoLCD\test\Pain Drain\libraries\lvgl\src\draw\sw/lv_draw_sw_line.c ****     if(!is_common) return;
 110              		.loc 1 127 0
 111 005e 0028     		cmp	r0, #0
 112 0060 00D1     		bne	.LCB81
 113 0062 A3E0     		b	.L1	@long jump
 114              	.LCB81:
 128:..\..\..\arduinoLCD\test\Pain Drain\libraries\lvgl\src\draw\sw/lv_draw_sw_line.c **** 
 129:..\..\..\arduinoLCD\test\Pain Drain\libraries\lvgl\src\draw\sw/lv_draw_sw_line.c ****     bool dashed = dsc->dash_gap && dsc->dash_width ? true : false;
 115              		.loc 1 129 0
 116 0064 0622     		movs	r2, #6
 117 0066 A35E     		ldrsh	r3, [r4, r2]
 118 0068 002B     		cmp	r3, #0
 119 006a 04D0     		beq	.L18
 120              		.loc 1 129 0 is_stmt 0 discriminator 1
 121 006c 0422     		movs	r2, #4
 122 006e A35E     		ldrsh	r3, [r4, r2]
 123 0070 002B     		cmp	r3, #0
 124 0072 02D1     		bne	.L19
 125 0074 02E0     		b	.L5
 126              	.L18:
 127              		.loc 1 129 0
 128 0076 0023     		movs	r3, #0
 129 0078 00E0     		b	.L5
 130              	.L19:
 131 007a 0123     		movs	r3, #1
 132              	.L5:
 133              		.loc 1 129 0 discriminator 6
 134 007c 9A46     		mov	r10, r3
 135              	.LVL11:
 130:..\..\..\arduinoLCD\test\Pain Drain\libraries\lvgl\src\draw\sw/lv_draw_sw_line.c ****     bool simple_mode = true;
 131:..\..\..\arduinoLCD\test\Pain Drain\libraries\lvgl\src\draw\sw/lv_draw_sw_line.c ****     if(lv_draw_mask_is_any(&blend_area)) simple_mode = false;
 136              		.loc 1 131 0 is_stmt 1 discriminator 6
 137 007e 0CA8     		add	r0, sp, #48
 138              	.LVL12:
 139 0080 FFF7FEFF 		bl	lv_draw_mask_is_any
 140              	.LVL13:
 141 0084 0028     		cmp	r0, #0
 142 0086 04D1     		bne	.L20
 132:..\..\..\arduinoLCD\test\Pain Drain\libraries\lvgl\src\draw\sw/lv_draw_sw_line.c ****     else if(dashed) simple_mode = false;
 143              		.loc 1 132 0
 144 0088 5346     		mov	r3, r10
 145 008a 002B     		cmp	r3, #0
 146 008c 03D1     		bne	.L21
 130:..\..\..\arduinoLCD\test\Pain Drain\libraries\lvgl\src\draw\sw/lv_draw_sw_line.c ****     bool simple_mode = true;
 147              		.loc 1 130 0
 148 008e 0126     		movs	r6, #1
 149              	.LVL14:
 150 0090 02E0     		b	.L6
 151              	.LVL15:
 152              	.L20:
ARM GAS  C:\Users\haske\AppData\Local\Temp\ccpgnYma.s 			page 6


 131:..\..\..\arduinoLCD\test\Pain Drain\libraries\lvgl\src\draw\sw/lv_draw_sw_line.c ****     else if(dashed) simple_mode = false;
 153              		.loc 1 131 0
 154 0092 0026     		movs	r6, #0
 155              	.LVL16:
 156 0094 00E0     		b	.L6
 157              	.LVL17:
 158              	.L21:
 159              		.loc 1 132 0
 160 0096 0026     		movs	r6, #0
 161              	.LVL18:
 162              	.L6:
 133:..\..\..\arduinoLCD\test\Pain Drain\libraries\lvgl\src\draw\sw/lv_draw_sw_line.c **** 
 134:..\..\..\arduinoLCD\test\Pain Drain\libraries\lvgl\src\draw\sw/lv_draw_sw_line.c ****     lv_draw_sw_blend_dsc_t blend_dsc;
 135:..\..\..\arduinoLCD\test\Pain Drain\libraries\lvgl\src\draw\sw/lv_draw_sw_line.c ****     lv_memset_00(&blend_dsc, sizeof(blend_dsc));
 163              		.loc 1 135 0
 164 0098 05AD     		add	r5, sp, #20
 165 009a 1C21     		movs	r1, #28
 166 009c 2800     		movs	r0, r5
 167 009e FFF7FEFF 		bl	lv_memset_00
 168              	.LVL19:
 136:..\..\..\arduinoLCD\test\Pain Drain\libraries\lvgl\src\draw\sw/lv_draw_sw_line.c ****     blend_dsc.blend_area = &blend_area;
 169              		.loc 1 136 0
 170 00a2 0CAB     		add	r3, sp, #48
 171 00a4 0593     		str	r3, [sp, #20]
 137:..\..\..\arduinoLCD\test\Pain Drain\libraries\lvgl\src\draw\sw/lv_draw_sw_line.c ****     blend_dsc.color = dsc->color;
 172              		.loc 1 137 0
 173 00a6 2388     		ldrh	r3, [r4]
 174 00a8 2B81     		strh	r3, [r5, #8]
 138:..\..\..\arduinoLCD\test\Pain Drain\libraries\lvgl\src\draw\sw/lv_draw_sw_line.c ****     blend_dsc.opa = dsc->opa;
 175              		.loc 1 138 0
 176 00aa 237A     		ldrb	r3, [r4, #8]
 177 00ac 2B76     		strb	r3, [r5, #24]
 139:..\..\..\arduinoLCD\test\Pain Drain\libraries\lvgl\src\draw\sw/lv_draw_sw_line.c **** 
 140:..\..\..\arduinoLCD\test\Pain Drain\libraries\lvgl\src\draw\sw/lv_draw_sw_line.c ****     /*If there is no mask then simply draw a rectangle*/
 141:..\..\..\arduinoLCD\test\Pain Drain\libraries\lvgl\src\draw\sw/lv_draw_sw_line.c ****     if(simple_mode) {
 178              		.loc 1 141 0
 179 00ae 002E     		cmp	r6, #0
 180 00b0 04D0     		beq	.L7
 142:..\..\..\arduinoLCD\test\Pain Drain\libraries\lvgl\src\draw\sw/lv_draw_sw_line.c ****         lv_draw_sw_blend(draw_ctx, &blend_dsc);
 181              		.loc 1 142 0
 182 00b2 05A9     		add	r1, sp, #20
 183 00b4 4846     		mov	r0, r9
 184 00b6 FFF7FEFF 		bl	lv_draw_sw_blend
 185              	.LVL20:
 186 00ba 77E0     		b	.L1
 187              	.L7:
 188              	.LVL21:
 189              	.LBB12:
 190              	.LBB13:
 191              	.LBB14:
 192              		.file 2 "c:\\projects\\paindrain\\arduinolcd\\test\\pain drain\\libraries\\lvgl\\src\\misc\\lv_are
   1:c:\projects\paindrain\arduinolcd\test\pain drain\libraries\lvgl\src\misc\lv_area.h **** /**
   2:c:\projects\paindrain\arduinolcd\test\pain drain\libraries\lvgl\src\misc\lv_area.h ****  * @file lv_area.h
   3:c:\projects\paindrain\arduinolcd\test\pain drain\libraries\lvgl\src\misc\lv_area.h ****  *
   4:c:\projects\paindrain\arduinolcd\test\pain drain\libraries\lvgl\src\misc\lv_area.h ****  */
   5:c:\projects\paindrain\arduinolcd\test\pain drain\libraries\lvgl\src\misc\lv_area.h **** 
   6:c:\projects\paindrain\arduinolcd\test\pain drain\libraries\lvgl\src\misc\lv_area.h **** #ifndef LV_AREA_H
ARM GAS  C:\Users\haske\AppData\Local\Temp\ccpgnYma.s 			page 7


   7:c:\projects\paindrain\arduinolcd\test\pain drain\libraries\lvgl\src\misc\lv_area.h **** #define LV_AREA_H
   8:c:\projects\paindrain\arduinolcd\test\pain drain\libraries\lvgl\src\misc\lv_area.h **** 
   9:c:\projects\paindrain\arduinolcd\test\pain drain\libraries\lvgl\src\misc\lv_area.h **** #ifdef __cplusplus
  10:c:\projects\paindrain\arduinolcd\test\pain drain\libraries\lvgl\src\misc\lv_area.h **** extern "C" {
  11:c:\projects\paindrain\arduinolcd\test\pain drain\libraries\lvgl\src\misc\lv_area.h **** #endif
  12:c:\projects\paindrain\arduinolcd\test\pain drain\libraries\lvgl\src\misc\lv_area.h **** 
  13:c:\projects\paindrain\arduinolcd\test\pain drain\libraries\lvgl\src\misc\lv_area.h **** /*********************
  14:c:\projects\paindrain\arduinolcd\test\pain drain\libraries\lvgl\src\misc\lv_area.h ****  *      INCLUDES
  15:c:\projects\paindrain\arduinolcd\test\pain drain\libraries\lvgl\src\misc\lv_area.h ****  *********************/
  16:c:\projects\paindrain\arduinolcd\test\pain drain\libraries\lvgl\src\misc\lv_area.h **** #include "../lv_conf_internal.h"
  17:c:\projects\paindrain\arduinolcd\test\pain drain\libraries\lvgl\src\misc\lv_area.h **** #include <stdbool.h>
  18:c:\projects\paindrain\arduinolcd\test\pain drain\libraries\lvgl\src\misc\lv_area.h **** #include <stdint.h>
  19:c:\projects\paindrain\arduinolcd\test\pain drain\libraries\lvgl\src\misc\lv_area.h **** 
  20:c:\projects\paindrain\arduinolcd\test\pain drain\libraries\lvgl\src\misc\lv_area.h **** /*********************
  21:c:\projects\paindrain\arduinolcd\test\pain drain\libraries\lvgl\src\misc\lv_area.h ****  *      DEFINES
  22:c:\projects\paindrain\arduinolcd\test\pain drain\libraries\lvgl\src\misc\lv_area.h ****  *********************/
  23:c:\projects\paindrain\arduinolcd\test\pain drain\libraries\lvgl\src\misc\lv_area.h **** 
  24:c:\projects\paindrain\arduinolcd\test\pain drain\libraries\lvgl\src\misc\lv_area.h **** #if LV_USE_LARGE_COORD
  25:c:\projects\paindrain\arduinolcd\test\pain drain\libraries\lvgl\src\misc\lv_area.h **** typedef int32_t lv_coord_t;
  26:c:\projects\paindrain\arduinolcd\test\pain drain\libraries\lvgl\src\misc\lv_area.h **** #else
  27:c:\projects\paindrain\arduinolcd\test\pain drain\libraries\lvgl\src\misc\lv_area.h **** typedef int16_t lv_coord_t;
  28:c:\projects\paindrain\arduinolcd\test\pain drain\libraries\lvgl\src\misc\lv_area.h **** #endif
  29:c:\projects\paindrain\arduinolcd\test\pain drain\libraries\lvgl\src\misc\lv_area.h **** 
  30:c:\projects\paindrain\arduinolcd\test\pain drain\libraries\lvgl\src\misc\lv_area.h **** /**********************
  31:c:\projects\paindrain\arduinolcd\test\pain drain\libraries\lvgl\src\misc\lv_area.h ****  *      TYPEDEFS
  32:c:\projects\paindrain\arduinolcd\test\pain drain\libraries\lvgl\src\misc\lv_area.h ****  **********************/
  33:c:\projects\paindrain\arduinolcd\test\pain drain\libraries\lvgl\src\misc\lv_area.h **** 
  34:c:\projects\paindrain\arduinolcd\test\pain drain\libraries\lvgl\src\misc\lv_area.h **** /**
  35:c:\projects\paindrain\arduinolcd\test\pain drain\libraries\lvgl\src\misc\lv_area.h ****  * Represents a point on the screen.
  36:c:\projects\paindrain\arduinolcd\test\pain drain\libraries\lvgl\src\misc\lv_area.h ****  */
  37:c:\projects\paindrain\arduinolcd\test\pain drain\libraries\lvgl\src\misc\lv_area.h **** typedef struct {
  38:c:\projects\paindrain\arduinolcd\test\pain drain\libraries\lvgl\src\misc\lv_area.h ****     lv_coord_t x;
  39:c:\projects\paindrain\arduinolcd\test\pain drain\libraries\lvgl\src\misc\lv_area.h ****     lv_coord_t y;
  40:c:\projects\paindrain\arduinolcd\test\pain drain\libraries\lvgl\src\misc\lv_area.h **** } lv_point_t;
  41:c:\projects\paindrain\arduinolcd\test\pain drain\libraries\lvgl\src\misc\lv_area.h **** 
  42:c:\projects\paindrain\arduinolcd\test\pain drain\libraries\lvgl\src\misc\lv_area.h **** /** Represents an area of the screen.*/
  43:c:\projects\paindrain\arduinolcd\test\pain drain\libraries\lvgl\src\misc\lv_area.h **** typedef struct {
  44:c:\projects\paindrain\arduinolcd\test\pain drain\libraries\lvgl\src\misc\lv_area.h ****     lv_coord_t x1;
  45:c:\projects\paindrain\arduinolcd\test\pain drain\libraries\lvgl\src\misc\lv_area.h ****     lv_coord_t y1;
  46:c:\projects\paindrain\arduinolcd\test\pain drain\libraries\lvgl\src\misc\lv_area.h ****     lv_coord_t x2;
  47:c:\projects\paindrain\arduinolcd\test\pain drain\libraries\lvgl\src\misc\lv_area.h ****     lv_coord_t y2;
  48:c:\projects\paindrain\arduinolcd\test\pain drain\libraries\lvgl\src\misc\lv_area.h **** } lv_area_t;
  49:c:\projects\paindrain\arduinolcd\test\pain drain\libraries\lvgl\src\misc\lv_area.h **** 
  50:c:\projects\paindrain\arduinolcd\test\pain drain\libraries\lvgl\src\misc\lv_area.h **** /** Alignments*/
  51:c:\projects\paindrain\arduinolcd\test\pain drain\libraries\lvgl\src\misc\lv_area.h **** enum {
  52:c:\projects\paindrain\arduinolcd\test\pain drain\libraries\lvgl\src\misc\lv_area.h ****     LV_ALIGN_DEFAULT = 0,
  53:c:\projects\paindrain\arduinolcd\test\pain drain\libraries\lvgl\src\misc\lv_area.h ****     LV_ALIGN_TOP_LEFT,
  54:c:\projects\paindrain\arduinolcd\test\pain drain\libraries\lvgl\src\misc\lv_area.h ****     LV_ALIGN_TOP_MID,
  55:c:\projects\paindrain\arduinolcd\test\pain drain\libraries\lvgl\src\misc\lv_area.h ****     LV_ALIGN_TOP_RIGHT,
  56:c:\projects\paindrain\arduinolcd\test\pain drain\libraries\lvgl\src\misc\lv_area.h ****     LV_ALIGN_BOTTOM_LEFT,
  57:c:\projects\paindrain\arduinolcd\test\pain drain\libraries\lvgl\src\misc\lv_area.h ****     LV_ALIGN_BOTTOM_MID,
  58:c:\projects\paindrain\arduinolcd\test\pain drain\libraries\lvgl\src\misc\lv_area.h ****     LV_ALIGN_BOTTOM_RIGHT,
  59:c:\projects\paindrain\arduinolcd\test\pain drain\libraries\lvgl\src\misc\lv_area.h ****     LV_ALIGN_LEFT_MID,
  60:c:\projects\paindrain\arduinolcd\test\pain drain\libraries\lvgl\src\misc\lv_area.h ****     LV_ALIGN_RIGHT_MID,
  61:c:\projects\paindrain\arduinolcd\test\pain drain\libraries\lvgl\src\misc\lv_area.h ****     LV_ALIGN_CENTER,
  62:c:\projects\paindrain\arduinolcd\test\pain drain\libraries\lvgl\src\misc\lv_area.h **** 
  63:c:\projects\paindrain\arduinolcd\test\pain drain\libraries\lvgl\src\misc\lv_area.h ****     LV_ALIGN_OUT_TOP_LEFT,
ARM GAS  C:\Users\haske\AppData\Local\Temp\ccpgnYma.s 			page 8


  64:c:\projects\paindrain\arduinolcd\test\pain drain\libraries\lvgl\src\misc\lv_area.h ****     LV_ALIGN_OUT_TOP_MID,
  65:c:\projects\paindrain\arduinolcd\test\pain drain\libraries\lvgl\src\misc\lv_area.h ****     LV_ALIGN_OUT_TOP_RIGHT,
  66:c:\projects\paindrain\arduinolcd\test\pain drain\libraries\lvgl\src\misc\lv_area.h ****     LV_ALIGN_OUT_BOTTOM_LEFT,
  67:c:\projects\paindrain\arduinolcd\test\pain drain\libraries\lvgl\src\misc\lv_area.h ****     LV_ALIGN_OUT_BOTTOM_MID,
  68:c:\projects\paindrain\arduinolcd\test\pain drain\libraries\lvgl\src\misc\lv_area.h ****     LV_ALIGN_OUT_BOTTOM_RIGHT,
  69:c:\projects\paindrain\arduinolcd\test\pain drain\libraries\lvgl\src\misc\lv_area.h ****     LV_ALIGN_OUT_LEFT_TOP,
  70:c:\projects\paindrain\arduinolcd\test\pain drain\libraries\lvgl\src\misc\lv_area.h ****     LV_ALIGN_OUT_LEFT_MID,
  71:c:\projects\paindrain\arduinolcd\test\pain drain\libraries\lvgl\src\misc\lv_area.h ****     LV_ALIGN_OUT_LEFT_BOTTOM,
  72:c:\projects\paindrain\arduinolcd\test\pain drain\libraries\lvgl\src\misc\lv_area.h ****     LV_ALIGN_OUT_RIGHT_TOP,
  73:c:\projects\paindrain\arduinolcd\test\pain drain\libraries\lvgl\src\misc\lv_area.h ****     LV_ALIGN_OUT_RIGHT_MID,
  74:c:\projects\paindrain\arduinolcd\test\pain drain\libraries\lvgl\src\misc\lv_area.h ****     LV_ALIGN_OUT_RIGHT_BOTTOM,
  75:c:\projects\paindrain\arduinolcd\test\pain drain\libraries\lvgl\src\misc\lv_area.h **** };
  76:c:\projects\paindrain\arduinolcd\test\pain drain\libraries\lvgl\src\misc\lv_area.h **** typedef uint8_t lv_align_t;
  77:c:\projects\paindrain\arduinolcd\test\pain drain\libraries\lvgl\src\misc\lv_area.h **** 
  78:c:\projects\paindrain\arduinolcd\test\pain drain\libraries\lvgl\src\misc\lv_area.h **** enum {
  79:c:\projects\paindrain\arduinolcd\test\pain drain\libraries\lvgl\src\misc\lv_area.h ****     LV_DIR_NONE     = 0x00,
  80:c:\projects\paindrain\arduinolcd\test\pain drain\libraries\lvgl\src\misc\lv_area.h ****     LV_DIR_LEFT     = (1 << 0),
  81:c:\projects\paindrain\arduinolcd\test\pain drain\libraries\lvgl\src\misc\lv_area.h ****     LV_DIR_RIGHT    = (1 << 1),
  82:c:\projects\paindrain\arduinolcd\test\pain drain\libraries\lvgl\src\misc\lv_area.h ****     LV_DIR_TOP      = (1 << 2),
  83:c:\projects\paindrain\arduinolcd\test\pain drain\libraries\lvgl\src\misc\lv_area.h ****     LV_DIR_BOTTOM   = (1 << 3),
  84:c:\projects\paindrain\arduinolcd\test\pain drain\libraries\lvgl\src\misc\lv_area.h ****     LV_DIR_HOR      = LV_DIR_LEFT | LV_DIR_RIGHT,
  85:c:\projects\paindrain\arduinolcd\test\pain drain\libraries\lvgl\src\misc\lv_area.h ****     LV_DIR_VER      = LV_DIR_TOP | LV_DIR_BOTTOM,
  86:c:\projects\paindrain\arduinolcd\test\pain drain\libraries\lvgl\src\misc\lv_area.h ****     LV_DIR_ALL      = LV_DIR_HOR | LV_DIR_VER,
  87:c:\projects\paindrain\arduinolcd\test\pain drain\libraries\lvgl\src\misc\lv_area.h **** };
  88:c:\projects\paindrain\arduinolcd\test\pain drain\libraries\lvgl\src\misc\lv_area.h **** 
  89:c:\projects\paindrain\arduinolcd\test\pain drain\libraries\lvgl\src\misc\lv_area.h **** typedef uint8_t lv_dir_t;
  90:c:\projects\paindrain\arduinolcd\test\pain drain\libraries\lvgl\src\misc\lv_area.h **** 
  91:c:\projects\paindrain\arduinolcd\test\pain drain\libraries\lvgl\src\misc\lv_area.h **** /**********************
  92:c:\projects\paindrain\arduinolcd\test\pain drain\libraries\lvgl\src\misc\lv_area.h ****  * GLOBAL PROTOTYPES
  93:c:\projects\paindrain\arduinolcd\test\pain drain\libraries\lvgl\src\misc\lv_area.h ****  **********************/
  94:c:\projects\paindrain\arduinolcd\test\pain drain\libraries\lvgl\src\misc\lv_area.h **** 
  95:c:\projects\paindrain\arduinolcd\test\pain drain\libraries\lvgl\src\misc\lv_area.h **** /**
  96:c:\projects\paindrain\arduinolcd\test\pain drain\libraries\lvgl\src\misc\lv_area.h ****  * Initialize an area
  97:c:\projects\paindrain\arduinolcd\test\pain drain\libraries\lvgl\src\misc\lv_area.h ****  * @param area_p pointer to an area
  98:c:\projects\paindrain\arduinolcd\test\pain drain\libraries\lvgl\src\misc\lv_area.h ****  * @param x1 left coordinate of the area
  99:c:\projects\paindrain\arduinolcd\test\pain drain\libraries\lvgl\src\misc\lv_area.h ****  * @param y1 top coordinate of the area
 100:c:\projects\paindrain\arduinolcd\test\pain drain\libraries\lvgl\src\misc\lv_area.h ****  * @param x2 right coordinate of the area
 101:c:\projects\paindrain\arduinolcd\test\pain drain\libraries\lvgl\src\misc\lv_area.h ****  * @param y2 bottom coordinate of the area
 102:c:\projects\paindrain\arduinolcd\test\pain drain\libraries\lvgl\src\misc\lv_area.h ****  */
 103:c:\projects\paindrain\arduinolcd\test\pain drain\libraries\lvgl\src\misc\lv_area.h **** void lv_area_set(lv_area_t * area_p, lv_coord_t x1, lv_coord_t y1, lv_coord_t x2, lv_coord_t y2);
 104:c:\projects\paindrain\arduinolcd\test\pain drain\libraries\lvgl\src\misc\lv_area.h **** 
 105:c:\projects\paindrain\arduinolcd\test\pain drain\libraries\lvgl\src\misc\lv_area.h **** /**
 106:c:\projects\paindrain\arduinolcd\test\pain drain\libraries\lvgl\src\misc\lv_area.h ****  * Copy an area
 107:c:\projects\paindrain\arduinolcd\test\pain drain\libraries\lvgl\src\misc\lv_area.h ****  * @param dest pointer to the destination area
 108:c:\projects\paindrain\arduinolcd\test\pain drain\libraries\lvgl\src\misc\lv_area.h ****  * @param src pointer to the source area
 109:c:\projects\paindrain\arduinolcd\test\pain drain\libraries\lvgl\src\misc\lv_area.h ****  */
 110:c:\projects\paindrain\arduinolcd\test\pain drain\libraries\lvgl\src\misc\lv_area.h **** inline static void lv_area_copy(lv_area_t * dest, const lv_area_t * src)
 111:c:\projects\paindrain\arduinolcd\test\pain drain\libraries\lvgl\src\misc\lv_area.h **** {
 112:c:\projects\paindrain\arduinolcd\test\pain drain\libraries\lvgl\src\misc\lv_area.h ****     dest->x1 = src->x1;
 113:c:\projects\paindrain\arduinolcd\test\pain drain\libraries\lvgl\src\misc\lv_area.h ****     dest->y1 = src->y1;
 114:c:\projects\paindrain\arduinolcd\test\pain drain\libraries\lvgl\src\misc\lv_area.h ****     dest->x2 = src->x2;
 115:c:\projects\paindrain\arduinolcd\test\pain drain\libraries\lvgl\src\misc\lv_area.h ****     dest->y2 = src->y2;
 116:c:\projects\paindrain\arduinolcd\test\pain drain\libraries\lvgl\src\misc\lv_area.h **** }
 117:c:\projects\paindrain\arduinolcd\test\pain drain\libraries\lvgl\src\misc\lv_area.h **** 
 118:c:\projects\paindrain\arduinolcd\test\pain drain\libraries\lvgl\src\misc\lv_area.h **** /**
 119:c:\projects\paindrain\arduinolcd\test\pain drain\libraries\lvgl\src\misc\lv_area.h ****  * Get the width of an area
 120:c:\projects\paindrain\arduinolcd\test\pain drain\libraries\lvgl\src\misc\lv_area.h ****  * @param area_p pointer to an area
ARM GAS  C:\Users\haske\AppData\Local\Temp\ccpgnYma.s 			page 9


 121:c:\projects\paindrain\arduinolcd\test\pain drain\libraries\lvgl\src\misc\lv_area.h ****  * @return the width of the area (if x1 == x2 -> width = 1)
 122:c:\projects\paindrain\arduinolcd\test\pain drain\libraries\lvgl\src\misc\lv_area.h ****  */
 123:c:\projects\paindrain\arduinolcd\test\pain drain\libraries\lvgl\src\misc\lv_area.h **** static inline lv_coord_t lv_area_get_width(const lv_area_t * area_p)
 124:c:\projects\paindrain\arduinolcd\test\pain drain\libraries\lvgl\src\misc\lv_area.h **** {
 125:c:\projects\paindrain\arduinolcd\test\pain drain\libraries\lvgl\src\misc\lv_area.h ****     return (lv_coord_t)(area_p->x2 - area_p->x1 + 1);
 193              		.loc 2 125 0
 194 00bc 0CAB     		add	r3, sp, #48
 195 00be 0422     		movs	r2, #4
 196 00c0 9F5E     		ldrsh	r7, [r3, r2]
 197 00c2 0022     		movs	r2, #0
 198 00c4 985E     		ldrsh	r0, [r3, r2]
 199 00c6 3F1A     		subs	r7, r7, r0
 200 00c8 0137     		adds	r7, r7, #1
 201 00ca 3AB2     		sxth	r2, r7
 202 00cc 0192     		str	r2, [sp, #4]
 203              	.LVL22:
 204              	.LBE14:
 205              	.LBE13:
 143:..\..\..\arduinoLCD\test\Pain Drain\libraries\lvgl\src\draw\sw/lv_draw_sw_line.c ****     }
 144:..\..\..\arduinoLCD\test\Pain Drain\libraries\lvgl\src\draw\sw/lv_draw_sw_line.c **** #if LV_DRAW_COMPLEX
 145:..\..\..\arduinoLCD\test\Pain Drain\libraries\lvgl\src\draw\sw/lv_draw_sw_line.c ****     /*If there other mask apply it*/
 146:..\..\..\arduinoLCD\test\Pain Drain\libraries\lvgl\src\draw\sw/lv_draw_sw_line.c ****     else {
 147:..\..\..\arduinoLCD\test\Pain Drain\libraries\lvgl\src\draw\sw/lv_draw_sw_line.c **** 
 148:..\..\..\arduinoLCD\test\Pain Drain\libraries\lvgl\src\draw\sw/lv_draw_sw_line.c ****         int32_t blend_area_w = lv_area_get_width(&blend_area);
 206              		.loc 1 148 0
 207 00ce 1700     		movs	r7, r2
 208              	.LVL23:
 149:..\..\..\arduinoLCD\test\Pain Drain\libraries\lvgl\src\draw\sw/lv_draw_sw_line.c **** 
 150:..\..\..\arduinoLCD\test\Pain Drain\libraries\lvgl\src\draw\sw/lv_draw_sw_line.c ****         lv_coord_t y2 = blend_area.y2;
 209              		.loc 1 150 0
 210 00d0 0621     		movs	r1, #6
 211 00d2 5A5E     		ldrsh	r2, [r3, r1]
 212              	.LVL24:
 213 00d4 9346     		mov	fp, r2
 214              	.LVL25:
 151:..\..\..\arduinoLCD\test\Pain Drain\libraries\lvgl\src\draw\sw/lv_draw_sw_line.c ****         blend_area.y2 = blend_area.y1;
 215              		.loc 1 151 0
 216 00d6 0221     		movs	r1, #2
 217 00d8 5A5E     		ldrsh	r2, [r3, r1]
 218 00da DA80     		strh	r2, [r3, #6]
 219              	.LVL26:
 152:..\..\..\arduinoLCD\test\Pain Drain\libraries\lvgl\src\draw\sw/lv_draw_sw_line.c **** 
 153:..\..\..\arduinoLCD\test\Pain Drain\libraries\lvgl\src\draw\sw/lv_draw_sw_line.c ****         lv_coord_t dash_start = 0;
 154:..\..\..\arduinoLCD\test\Pain Drain\libraries\lvgl\src\draw\sw/lv_draw_sw_line.c ****         if(dashed) {
 220              		.loc 1 154 0
 221 00dc 5346     		mov	r3, r10
 222 00de 002B     		cmp	r3, #0
 223 00e0 09D0     		beq	.L22
 155:..\..\..\arduinoLCD\test\Pain Drain\libraries\lvgl\src\draw\sw/lv_draw_sw_line.c ****             dash_start = (blend_area.x1) % (dsc->dash_gap + dsc->dash_width);
 224              		.loc 1 155 0
 225 00e2 0623     		movs	r3, #6
 226 00e4 E15E     		ldrsh	r1, [r4, r3]
 227 00e6 0422     		movs	r2, #4
 228 00e8 A35E     		ldrsh	r3, [r4, r2]
 229 00ea C918     		adds	r1, r1, r3
 230 00ec FFF7FEFF 		bl	__aeabi_idivmod
 231              	.LVL27:
ARM GAS  C:\Users\haske\AppData\Local\Temp\ccpgnYma.s 			page 10


 232 00f0 0BB2     		sxth	r3, r1
 233 00f2 0393     		str	r3, [sp, #12]
 234              	.LVL28:
 235 00f4 01E0     		b	.L9
 236              	.LVL29:
 237              	.L22:
 153:..\..\..\arduinoLCD\test\Pain Drain\libraries\lvgl\src\draw\sw/lv_draw_sw_line.c ****         if(dashed) {
 238              		.loc 1 153 0
 239 00f6 0023     		movs	r3, #0
 240 00f8 0393     		str	r3, [sp, #12]
 241              	.LVL30:
 242              	.L9:
 156:..\..\..\arduinoLCD\test\Pain Drain\libraries\lvgl\src\draw\sw/lv_draw_sw_line.c ****         }
 157:..\..\..\arduinoLCD\test\Pain Drain\libraries\lvgl\src\draw\sw/lv_draw_sw_line.c **** 
 158:..\..\..\arduinoLCD\test\Pain Drain\libraries\lvgl\src\draw\sw/lv_draw_sw_line.c ****         lv_opa_t * mask_buf = lv_mem_buf_get(blend_area_w);
 243              		.loc 1 158 0
 244 00fa 019B     		ldr	r3, [sp, #4]
 245 00fc 0293     		str	r3, [sp, #8]
 246 00fe 1800     		movs	r0, r3
 247 0100 FFF7FEFF 		bl	lv_mem_buf_get
 248              	.LVL31:
 159:..\..\..\arduinoLCD\test\Pain Drain\libraries\lvgl\src\draw\sw/lv_draw_sw_line.c ****         blend_dsc.mask_buf = mask_buf;
 249              		.loc 1 159 0
 250 0104 0890     		str	r0, [sp, #32]
 160:..\..\..\arduinoLCD\test\Pain Drain\libraries\lvgl\src\draw\sw/lv_draw_sw_line.c ****         blend_dsc.mask_area = &blend_area;
 251              		.loc 1 160 0
 252 0106 0CAB     		add	r3, sp, #48
 253 0108 0A93     		str	r3, [sp, #40]
 161:..\..\..\arduinoLCD\test\Pain Drain\libraries\lvgl\src\draw\sw/lv_draw_sw_line.c ****         int32_t h;
 162:..\..\..\arduinoLCD\test\Pain Drain\libraries\lvgl\src\draw\sw/lv_draw_sw_line.c ****         for(h = blend_area.y1; h <= y2; h++) {
 254              		.loc 1 162 0
 255 010a 0225     		movs	r5, #2
 256 010c 5D5F     		ldrsh	r5, [r3, r5]
 257              	.LVL32:
 258 010e 0090     		str	r0, [sp]
 259 0110 3E00     		movs	r6, r7
 260              	.LVL33:
 261 0112 2700     		movs	r7, r4
 262              	.LVL34:
 263 0114 5446     		mov	r4, r10
 264              	.LVL35:
 265 0116 43E0     		b	.L10
 266              	.LVL36:
 267              	.L16:
 163:..\..\..\arduinoLCD\test\Pain Drain\libraries\lvgl\src\draw\sw/lv_draw_sw_line.c ****             lv_memset_ff(mask_buf, blend_area_w);
 268              		.loc 1 163 0
 269 0118 0299     		ldr	r1, [sp, #8]
 270 011a 0098     		ldr	r0, [sp]
 271 011c FFF7FEFF 		bl	lv_memset_ff
 272              	.LVL37:
 164:..\..\..\arduinoLCD\test\Pain Drain\libraries\lvgl\src\draw\sw/lv_draw_sw_line.c ****             blend_dsc.mask_res = lv_draw_mask_apply(mask_buf, blend_area.x1, h, blend_area_w);
 273              		.loc 1 164 0
 274 0120 2AB2     		sxth	r2, r5
 275 0122 0CAB     		add	r3, sp, #48
 276 0124 0021     		movs	r1, #0
 277 0126 595E     		ldrsh	r1, [r3, r1]
 278 0128 019B     		ldr	r3, [sp, #4]
ARM GAS  C:\Users\haske\AppData\Local\Temp\ccpgnYma.s 			page 11


 279 012a 0098     		ldr	r0, [sp]
 280 012c FFF7FEFF 		bl	lv_draw_mask_apply
 281              	.LVL38:
 282 0130 05AB     		add	r3, sp, #20
 283 0132 1874     		strb	r0, [r3, #16]
 165:..\..\..\arduinoLCD\test\Pain Drain\libraries\lvgl\src\draw\sw/lv_draw_sw_line.c **** 
 166:..\..\..\arduinoLCD\test\Pain Drain\libraries\lvgl\src\draw\sw/lv_draw_sw_line.c ****             if(dashed) {
 284              		.loc 1 166 0
 285 0134 002C     		cmp	r4, #0
 286 0136 25D0     		beq	.L11
 167:..\..\..\arduinoLCD\test\Pain Drain\libraries\lvgl\src\draw\sw/lv_draw_sw_line.c ****                 if(blend_dsc.mask_res != LV_DRAW_MASK_RES_TRANSP) {
 287              		.loc 1 167 0
 288 0138 0028     		cmp	r0, #0
 289 013a 1AD1     		bne	.L23
 290 013c 22E0     		b	.L11
 291              	.LVL39:
 292              	.L15:
 293              	.LBB15:
 168:..\..\..\arduinoLCD\test\Pain Drain\libraries\lvgl\src\draw\sw/lv_draw_sw_line.c ****                     lv_coord_t dash_cnt = dash_start;
 169:..\..\..\arduinoLCD\test\Pain Drain\libraries\lvgl\src\draw\sw/lv_draw_sw_line.c ****                     lv_coord_t i;
 170:..\..\..\arduinoLCD\test\Pain Drain\libraries\lvgl\src\draw\sw/lv_draw_sw_line.c ****                     for(i = 0; i < blend_area_w; i++, dash_cnt++) {
 171:..\..\..\arduinoLCD\test\Pain Drain\libraries\lvgl\src\draw\sw/lv_draw_sw_line.c ****                         if(dash_cnt <= dsc->dash_width) {
 294              		.loc 1 171 0
 295 013e 0421     		movs	r1, #4
 296 0140 7B5E     		ldrsh	r3, [r7, r1]
 297 0142 9A42     		cmp	r2, r3
 298 0144 04DC     		bgt	.L13
 299              	.LBB16:
 172:..\..\..\arduinoLCD\test\Pain Drain\libraries\lvgl\src\draw\sw/lv_draw_sw_line.c ****                             int16_t diff = dsc->dash_width - dash_cnt;
 300              		.loc 1 172 0
 301 0146 9A1A     		subs	r2, r3, r2
 302              	.LVL40:
 303 0148 92B2     		uxth	r2, r2
 304              	.LVL41:
 173:..\..\..\arduinoLCD\test\Pain Drain\libraries\lvgl\src\draw\sw/lv_draw_sw_line.c ****                             i += diff;
 305              		.loc 1 173 0
 306 014a 1018     		adds	r0, r2, r0
 307              	.LVL42:
 308 014c 00B2     		sxth	r0, r0
 309              	.LVL43:
 310              	.LBE16:
 311 014e 0BE0     		b	.L14
 312              	.LVL44:
 313              	.L13:
 174:..\..\..\arduinoLCD\test\Pain Drain\libraries\lvgl\src\draw\sw/lv_draw_sw_line.c ****                             dash_cnt += diff;
 175:..\..\..\arduinoLCD\test\Pain Drain\libraries\lvgl\src\draw\sw/lv_draw_sw_line.c ****                         }
 176:..\..\..\arduinoLCD\test\Pain Drain\libraries\lvgl\src\draw\sw/lv_draw_sw_line.c ****                         else if(dash_cnt >= dsc->dash_gap + dsc->dash_width) {
 314              		.loc 1 176 0
 315 0150 0624     		movs	r4, #6
 316 0152 395F     		ldrsh	r1, [r7, r4]
 317 0154 CB18     		adds	r3, r1, r3
 318 0156 9A42     		cmp	r2, r3
 319 0158 05DA     		bge	.L24
 177:..\..\..\arduinoLCD\test\Pain Drain\libraries\lvgl\src\draw\sw/lv_draw_sw_line.c ****                             dash_cnt = 0;
 178:..\..\..\arduinoLCD\test\Pain Drain\libraries\lvgl\src\draw\sw/lv_draw_sw_line.c ****                         }
 179:..\..\..\arduinoLCD\test\Pain Drain\libraries\lvgl\src\draw\sw/lv_draw_sw_line.c ****                         else {
 180:..\..\..\arduinoLCD\test\Pain Drain\libraries\lvgl\src\draw\sw/lv_draw_sw_line.c ****                             mask_buf[i] = 0x00;
ARM GAS  C:\Users\haske\AppData\Local\Temp\ccpgnYma.s 			page 12


 320              		.loc 1 180 0
 321 015a 009B     		ldr	r3, [sp]
 322 015c 1B18     		adds	r3, r3, r0
 323 015e 0021     		movs	r1, #0
 324 0160 1970     		strb	r1, [r3]
 325 0162 1300     		movs	r3, r2
 326 0164 00E0     		b	.L14
 327              	.L24:
 177:..\..\..\arduinoLCD\test\Pain Drain\libraries\lvgl\src\draw\sw/lv_draw_sw_line.c ****                             dash_cnt = 0;
 328              		.loc 1 177 0
 329 0166 0023     		movs	r3, #0
 330              	.LVL45:
 331              	.L14:
 170:..\..\..\arduinoLCD\test\Pain Drain\libraries\lvgl\src\draw\sw/lv_draw_sw_line.c ****                         if(dash_cnt <= dsc->dash_width) {
 332              		.loc 1 170 0 discriminator 2
 333 0168 0130     		adds	r0, r0, #1
 334              	.LVL46:
 335 016a 00B2     		sxth	r0, r0
 336              	.LVL47:
 337 016c 0133     		adds	r3, r3, #1
 338              	.LVL48:
 339 016e 1AB2     		sxth	r2, r3
 340              	.LVL49:
 341 0170 02E0     		b	.L12
 342              	.LVL50:
 343              	.L23:
 344              	.LBE15:
 345 0172 039A     		ldr	r2, [sp, #12]
 346 0174 0020     		movs	r0, #0
 347 0176 A446     		mov	ip, r4
 348              	.L12:
 349              	.LVL51:
 350              	.LBB17:
 170:..\..\..\arduinoLCD\test\Pain Drain\libraries\lvgl\src\draw\sw/lv_draw_sw_line.c ****                         if(dash_cnt <= dsc->dash_width) {
 351              		.loc 1 170 0 is_stmt 0 discriminator 1
 352 0178 8642     		cmp	r6, r0
 353 017a E0DC     		bgt	.L15
 354 017c 6446     		mov	r4, ip
 181:..\..\..\arduinoLCD\test\Pain Drain\libraries\lvgl\src\draw\sw/lv_draw_sw_line.c ****                         }
 182:..\..\..\arduinoLCD\test\Pain Drain\libraries\lvgl\src\draw\sw/lv_draw_sw_line.c ****                     }
 183:..\..\..\arduinoLCD\test\Pain Drain\libraries\lvgl\src\draw\sw/lv_draw_sw_line.c **** 
 184:..\..\..\arduinoLCD\test\Pain Drain\libraries\lvgl\src\draw\sw/lv_draw_sw_line.c ****                     blend_dsc.mask_res = LV_DRAW_MASK_RES_CHANGED;
 355              		.loc 1 184 0 is_stmt 1
 356 017e 0222     		movs	r2, #2
 357              	.LVL52:
 358 0180 05AB     		add	r3, sp, #20
 359 0182 1A74     		strb	r2, [r3, #16]
 360              	.LVL53:
 361              	.L11:
 362              	.LBE17:
 185:..\..\..\arduinoLCD\test\Pain Drain\libraries\lvgl\src\draw\sw/lv_draw_sw_line.c ****                 }
 186:..\..\..\arduinoLCD\test\Pain Drain\libraries\lvgl\src\draw\sw/lv_draw_sw_line.c ****             }
 187:..\..\..\arduinoLCD\test\Pain Drain\libraries\lvgl\src\draw\sw/lv_draw_sw_line.c **** 
 188:..\..\..\arduinoLCD\test\Pain Drain\libraries\lvgl\src\draw\sw/lv_draw_sw_line.c ****             lv_draw_sw_blend(draw_ctx, &blend_dsc);
 363              		.loc 1 188 0 discriminator 2
 364 0184 05A9     		add	r1, sp, #20
 365 0186 4846     		mov	r0, r9
ARM GAS  C:\Users\haske\AppData\Local\Temp\ccpgnYma.s 			page 13


 366 0188 FFF7FEFF 		bl	lv_draw_sw_blend
 367              	.LVL54:
 189:..\..\..\arduinoLCD\test\Pain Drain\libraries\lvgl\src\draw\sw/lv_draw_sw_line.c **** 
 190:..\..\..\arduinoLCD\test\Pain Drain\libraries\lvgl\src\draw\sw/lv_draw_sw_line.c ****             blend_area.y1++;
 368              		.loc 1 190 0 discriminator 2
 369 018c 0CAB     		add	r3, sp, #48
 370 018e 0221     		movs	r1, #2
 371 0190 5A5E     		ldrsh	r2, [r3, r1]
 372 0192 0132     		adds	r2, r2, #1
 373 0194 5A80     		strh	r2, [r3, #2]
 191:..\..\..\arduinoLCD\test\Pain Drain\libraries\lvgl\src\draw\sw/lv_draw_sw_line.c ****             blend_area.y2++;
 374              		.loc 1 191 0 discriminator 2
 375 0196 0621     		movs	r1, #6
 376 0198 5A5E     		ldrsh	r2, [r3, r1]
 377 019a 0132     		adds	r2, r2, #1
 378 019c DA80     		strh	r2, [r3, #6]
 162:..\..\..\arduinoLCD\test\Pain Drain\libraries\lvgl\src\draw\sw/lv_draw_sw_line.c ****             lv_memset_ff(mask_buf, blend_area_w);
 379              		.loc 1 162 0 discriminator 2
 380 019e 0135     		adds	r5, r5, #1
 381              	.LVL55:
 382              	.L10:
 162:..\..\..\arduinoLCD\test\Pain Drain\libraries\lvgl\src\draw\sw/lv_draw_sw_line.c ****             lv_memset_ff(mask_buf, blend_area_w);
 383              		.loc 1 162 0 is_stmt 0 discriminator 1
 384 01a0 5D45     		cmp	r5, fp
 385 01a2 B9DD     		ble	.L16
 386 01a4 009E     		ldr	r6, [sp]
 387              	.LVL56:
 192:..\..\..\arduinoLCD\test\Pain Drain\libraries\lvgl\src\draw\sw/lv_draw_sw_line.c ****         }
 193:..\..\..\arduinoLCD\test\Pain Drain\libraries\lvgl\src\draw\sw/lv_draw_sw_line.c ****         lv_mem_buf_release(mask_buf);
 388              		.loc 1 193 0 is_stmt 1
 389 01a6 3000     		movs	r0, r6
 390 01a8 FFF7FEFF 		bl	lv_mem_buf_release
 391              	.LVL57:
 392              	.L1:
 393              	.LBE12:
 194:..\..\..\arduinoLCD\test\Pain Drain\libraries\lvgl\src\draw\sw/lv_draw_sw_line.c ****     }
 195:..\..\..\arduinoLCD\test\Pain Drain\libraries\lvgl\src\draw\sw/lv_draw_sw_line.c **** #endif /*LV_DRAW_COMPLEX*/
 196:..\..\..\arduinoLCD\test\Pain Drain\libraries\lvgl\src\draw\sw/lv_draw_sw_line.c **** }
 394              		.loc 1 196 0
 395 01ac 0EB0     		add	sp, sp, #56
 396              		@ sp needed
 397              	.LVL58:
 398 01ae 1CBC     		pop	{r2, r3, r4}
 399 01b0 9146     		mov	r9, r2
 400 01b2 9A46     		mov	r10, r3
 401 01b4 A346     		mov	fp, r4
 402 01b6 F0BD     		pop	{r4, r5, r6, r7, pc}
 403              		.cfi_endproc
 404              	.LFE160:
 405              		.size	draw_line_hor, .-draw_line_hor
 406              		.section	.text.draw_line_ver,"ax",%progbits
 407              		.align	2
 408              		.code	16
 409              		.thumb_func
 410              		.type	draw_line_ver, %function
 411              	draw_line_ver:
 412              	.LFB161:
ARM GAS  C:\Users\haske\AppData\Local\Temp\ccpgnYma.s 			page 14


 197:..\..\..\arduinoLCD\test\Pain Drain\libraries\lvgl\src\draw\sw/lv_draw_sw_line.c **** 
 198:..\..\..\arduinoLCD\test\Pain Drain\libraries\lvgl\src\draw\sw/lv_draw_sw_line.c **** LV_ATTRIBUTE_FAST_MEM static void draw_line_ver(struct _lv_draw_ctx_t * draw_ctx, const lv_draw_lin
 199:..\..\..\arduinoLCD\test\Pain Drain\libraries\lvgl\src\draw\sw/lv_draw_sw_line.c ****                                                 const lv_point_t * point1, const lv_point_t * point
 200:..\..\..\arduinoLCD\test\Pain Drain\libraries\lvgl\src\draw\sw/lv_draw_sw_line.c **** {
 413              		.loc 1 200 0
 414              		.cfi_startproc
 415              		@ args = 0, pretend = 0, frame = 56
 416              		@ frame_needed = 0, uses_anonymous_args = 0
 417              	.LVL59:
 418 0000 F0B5     		push	{r4, r5, r6, r7, lr}
 419              		.cfi_def_cfa_offset 20
 420              		.cfi_offset 4, -20
 421              		.cfi_offset 5, -16
 422              		.cfi_offset 6, -12
 423              		.cfi_offset 7, -8
 424              		.cfi_offset 14, -4
 425 0002 5746     		mov	r7, r10
 426 0004 4E46     		mov	r6, r9
 427 0006 4546     		mov	r5, r8
 428 0008 E0B4     		push	{r5, r6, r7}
 429              		.cfi_def_cfa_offset 32
 430              		.cfi_offset 8, -32
 431              		.cfi_offset 9, -28
 432              		.cfi_offset 10, -24
 433 000a 8EB0     		sub	sp, sp, #56
 434              		.cfi_def_cfa_offset 88
 435 000c 8046     		mov	r8, r0
 436 000e 0D00     		movs	r5, r1
 201:..\..\..\arduinoLCD\test\Pain Drain\libraries\lvgl\src\draw\sw/lv_draw_sw_line.c ****     int32_t w = dsc->width - 1;
 437              		.loc 1 201 0
 438 0010 0220     		movs	r0, #2
 439 0012 095E     		ldrsh	r1, [r1, r0]
 440              	.LVL60:
 441 0014 0139     		subs	r1, r1, #1
 442              	.LVL61:
 202:..\..\..\arduinoLCD\test\Pain Drain\libraries\lvgl\src\draw\sw/lv_draw_sw_line.c ****     int32_t w_half0 = w >> 1;
 443              		.loc 1 202 0
 444 0016 4810     		asrs	r0, r1, #1
 445              	.LVL62:
 203:..\..\..\arduinoLCD\test\Pain Drain\libraries\lvgl\src\draw\sw/lv_draw_sw_line.c ****     int32_t w_half1 = w_half0 + (w & 0x1); /*Compensate rounding error*/
 446              		.loc 1 203 0
 447 0018 0124     		movs	r4, #1
 448 001a 2140     		ands	r1, r4
 449              	.LVL63:
 450 001c 4118     		adds	r1, r0, r1
 451              	.LVL64:
 204:..\..\..\arduinoLCD\test\Pain Drain\libraries\lvgl\src\draw\sw/lv_draw_sw_line.c **** 
 205:..\..\..\arduinoLCD\test\Pain Drain\libraries\lvgl\src\draw\sw/lv_draw_sw_line.c ****     lv_area_t blend_area;
 206:..\..\..\arduinoLCD\test\Pain Drain\libraries\lvgl\src\draw\sw/lv_draw_sw_line.c ****     blend_area.x1 = point1->x - w_half1;
 452              		.loc 1 206 0
 453 001e 0024     		movs	r4, #0
 454 0020 165F     		ldrsh	r6, [r2, r4]
 455 0022 0CAC     		add	r4, sp, #48
 456 0024 711A     		subs	r1, r6, r1
 457              	.LVL65:
 458 0026 2180     		strh	r1, [r4]
 459              	.LVL66:
ARM GAS  C:\Users\haske\AppData\Local\Temp\ccpgnYma.s 			page 15


 207:..\..\..\arduinoLCD\test\Pain Drain\libraries\lvgl\src\draw\sw/lv_draw_sw_line.c ****     blend_area.x2 = point1->x + w_half0;
 460              		.loc 1 207 0
 461 0028 3018     		adds	r0, r6, r0
 462              	.LVL67:
 463 002a A080     		strh	r0, [r4, #4]
 208:..\..\..\arduinoLCD\test\Pain Drain\libraries\lvgl\src\draw\sw/lv_draw_sw_line.c ****     blend_area.y1 = LV_MIN(point1->y, point2->y);
 464              		.loc 1 208 0
 465 002c 0220     		movs	r0, #2
 466 002e 195E     		ldrsh	r1, [r3, r0]
 467 0030 0220     		movs	r0, #2
 468 0032 145E     		ldrsh	r4, [r2, r0]
 469 0034 081C     		adds	r0, r1, #0
 470 0036 A142     		cmp	r1, r4
 471 0038 00DD     		ble	.L26
 472 003a 201C     		adds	r0, r4, #0
 473              	.L26:
 474 003c 0CA9     		add	r1, sp, #48
 475 003e 4880     		strh	r0, [r1, #2]
 209:..\..\..\arduinoLCD\test\Pain Drain\libraries\lvgl\src\draw\sw/lv_draw_sw_line.c ****     blend_area.y2 = LV_MAX(point1->y, point2->y) - 1;
 476              		.loc 1 209 0
 477 0040 0221     		movs	r1, #2
 478 0042 595E     		ldrsh	r1, [r3, r1]
 479              	.LVL68:
 480 0044 0223     		movs	r3, #2
 481 0046 D25E     		ldrsh	r2, [r2, r3]
 482              	.LVL69:
 483 0048 0B1C     		adds	r3, r1, #0
 484 004a 9142     		cmp	r1, r2
 485 004c 00DA     		bge	.L27
 486 004e 131C     		adds	r3, r2, #0
 487              	.L27:
 488 0050 0CA8     		add	r0, sp, #48
 489 0052 013B     		subs	r3, r3, #1
 490 0054 C380     		strh	r3, [r0, #6]
 210:..\..\..\arduinoLCD\test\Pain Drain\libraries\lvgl\src\draw\sw/lv_draw_sw_line.c **** 
 211:..\..\..\arduinoLCD\test\Pain Drain\libraries\lvgl\src\draw\sw/lv_draw_sw_line.c ****     bool is_common;
 212:..\..\..\arduinoLCD\test\Pain Drain\libraries\lvgl\src\draw\sw/lv_draw_sw_line.c ****     is_common = _lv_area_intersect(&blend_area, &blend_area, draw_ctx->clip_area);
 491              		.loc 1 212 0
 492 0056 4346     		mov	r3, r8
 493 0058 9A68     		ldr	r2, [r3, #8]
 494 005a 0100     		movs	r1, r0
 495 005c FFF7FEFF 		bl	_lv_area_intersect
 496              	.LVL70:
 213:..\..\..\arduinoLCD\test\Pain Drain\libraries\lvgl\src\draw\sw/lv_draw_sw_line.c ****     if(!is_common) return;
 497              		.loc 1 213 0
 498 0060 0028     		cmp	r0, #0
 499 0062 00D1     		bne	.LCB477
 500 0064 90E0     		b	.L25	@long jump
 501              	.LCB477:
 214:..\..\..\arduinoLCD\test\Pain Drain\libraries\lvgl\src\draw\sw/lv_draw_sw_line.c **** 
 215:..\..\..\arduinoLCD\test\Pain Drain\libraries\lvgl\src\draw\sw/lv_draw_sw_line.c ****     bool dashed = dsc->dash_gap && dsc->dash_width ? true : false;
 502              		.loc 1 215 0
 503 0066 0622     		movs	r2, #6
 504 0068 AB5E     		ldrsh	r3, [r5, r2]
 505 006a 002B     		cmp	r3, #0
 506 006c 04D0     		beq	.L40
 507              		.loc 1 215 0 is_stmt 0 discriminator 1
ARM GAS  C:\Users\haske\AppData\Local\Temp\ccpgnYma.s 			page 16


 508 006e 0422     		movs	r2, #4
 509 0070 AB5E     		ldrsh	r3, [r5, r2]
 510 0072 002B     		cmp	r3, #0
 511 0074 02D1     		bne	.L41
 512 0076 02E0     		b	.L29
 513              	.L40:
 514              		.loc 1 215 0
 515 0078 0023     		movs	r3, #0
 516 007a 00E0     		b	.L29
 517              	.L41:
 518 007c 0123     		movs	r3, #1
 519              	.L29:
 520              		.loc 1 215 0 discriminator 6
 521 007e 1E00     		movs	r6, r3
 522              	.LVL71:
 216:..\..\..\arduinoLCD\test\Pain Drain\libraries\lvgl\src\draw\sw/lv_draw_sw_line.c ****     bool simple_mode = true;
 217:..\..\..\arduinoLCD\test\Pain Drain\libraries\lvgl\src\draw\sw/lv_draw_sw_line.c ****     if(lv_draw_mask_is_any(&blend_area)) simple_mode = false;
 523              		.loc 1 217 0 is_stmt 1 discriminator 6
 524 0080 0CA8     		add	r0, sp, #48
 525              	.LVL72:
 526 0082 FFF7FEFF 		bl	lv_draw_mask_is_any
 527              	.LVL73:
 528 0086 0028     		cmp	r0, #0
 529 0088 03D1     		bne	.L42
 218:..\..\..\arduinoLCD\test\Pain Drain\libraries\lvgl\src\draw\sw/lv_draw_sw_line.c ****     else if(dashed) simple_mode = false;
 530              		.loc 1 218 0
 531 008a 002E     		cmp	r6, #0
 532 008c 03D1     		bne	.L43
 216:..\..\..\arduinoLCD\test\Pain Drain\libraries\lvgl\src\draw\sw/lv_draw_sw_line.c ****     bool simple_mode = true;
 533              		.loc 1 216 0
 534 008e 0127     		movs	r7, #1
 535 0090 02E0     		b	.L30
 536              	.L42:
 217:..\..\..\arduinoLCD\test\Pain Drain\libraries\lvgl\src\draw\sw/lv_draw_sw_line.c ****     else if(dashed) simple_mode = false;
 537              		.loc 1 217 0
 538 0092 0027     		movs	r7, #0
 539 0094 00E0     		b	.L30
 540              	.L43:
 541              		.loc 1 218 0
 542 0096 0027     		movs	r7, #0
 543              	.L30:
 544              	.LVL74:
 219:..\..\..\arduinoLCD\test\Pain Drain\libraries\lvgl\src\draw\sw/lv_draw_sw_line.c **** 
 220:..\..\..\arduinoLCD\test\Pain Drain\libraries\lvgl\src\draw\sw/lv_draw_sw_line.c ****     lv_draw_sw_blend_dsc_t blend_dsc;
 221:..\..\..\arduinoLCD\test\Pain Drain\libraries\lvgl\src\draw\sw/lv_draw_sw_line.c ****     lv_memset_00(&blend_dsc, sizeof(blend_dsc));
 545              		.loc 1 221 0
 546 0098 05AC     		add	r4, sp, #20
 547 009a 1C21     		movs	r1, #28
 548 009c 2000     		movs	r0, r4
 549 009e FFF7FEFF 		bl	lv_memset_00
 550              	.LVL75:
 222:..\..\..\arduinoLCD\test\Pain Drain\libraries\lvgl\src\draw\sw/lv_draw_sw_line.c ****     blend_dsc.blend_area = &blend_area;
 551              		.loc 1 222 0
 552 00a2 0CAB     		add	r3, sp, #48
 553 00a4 0593     		str	r3, [sp, #20]
 223:..\..\..\arduinoLCD\test\Pain Drain\libraries\lvgl\src\draw\sw/lv_draw_sw_line.c ****     blend_dsc.color = dsc->color;
 554              		.loc 1 223 0
ARM GAS  C:\Users\haske\AppData\Local\Temp\ccpgnYma.s 			page 17


 555 00a6 2B88     		ldrh	r3, [r5]
 556 00a8 2381     		strh	r3, [r4, #8]
 224:..\..\..\arduinoLCD\test\Pain Drain\libraries\lvgl\src\draw\sw/lv_draw_sw_line.c ****     blend_dsc.opa = dsc->opa;
 557              		.loc 1 224 0
 558 00aa 2B7A     		ldrb	r3, [r5, #8]
 559 00ac 2376     		strb	r3, [r4, #24]
 225:..\..\..\arduinoLCD\test\Pain Drain\libraries\lvgl\src\draw\sw/lv_draw_sw_line.c **** 
 226:..\..\..\arduinoLCD\test\Pain Drain\libraries\lvgl\src\draw\sw/lv_draw_sw_line.c ****     /*If there is no mask then simply draw a rectangle*/
 227:..\..\..\arduinoLCD\test\Pain Drain\libraries\lvgl\src\draw\sw/lv_draw_sw_line.c ****     if(simple_mode) {
 560              		.loc 1 227 0
 561 00ae 002F     		cmp	r7, #0
 562 00b0 04D0     		beq	.L31
 228:..\..\..\arduinoLCD\test\Pain Drain\libraries\lvgl\src\draw\sw/lv_draw_sw_line.c ****         lv_draw_sw_blend(draw_ctx, &blend_dsc);
 563              		.loc 1 228 0
 564 00b2 05A9     		add	r1, sp, #20
 565 00b4 4046     		mov	r0, r8
 566 00b6 FFF7FEFF 		bl	lv_draw_sw_blend
 567              	.LVL76:
 568 00ba 65E0     		b	.L25
 569              	.L31:
 570              	.LVL77:
 571              	.LBB18:
 572              	.LBB19:
 573              	.LBB20:
 574              		.loc 2 125 0
 575 00bc 0CAC     		add	r4, sp, #48
 576              	.LVL78:
 577 00be 0422     		movs	r2, #4
 578 00c0 A35E     		ldrsh	r3, [r4, r2]
 579 00c2 0022     		movs	r2, #0
 580 00c4 A75E     		ldrsh	r7, [r4, r2]
 581              	.LVL79:
 582 00c6 DF1B     		subs	r7, r3, r7
 583 00c8 0137     		adds	r7, r7, #1
 584 00ca 3BB2     		sxth	r3, r7
 585 00cc 1A00     		movs	r2, r3
 586 00ce 0393     		str	r3, [sp, #12]
 587              	.LVL80:
 588              	.LBE20:
 589              	.LBE19:
 229:..\..\..\arduinoLCD\test\Pain Drain\libraries\lvgl\src\draw\sw/lv_draw_sw_line.c ****     }
 230:..\..\..\arduinoLCD\test\Pain Drain\libraries\lvgl\src\draw\sw/lv_draw_sw_line.c **** 
 231:..\..\..\arduinoLCD\test\Pain Drain\libraries\lvgl\src\draw\sw/lv_draw_sw_line.c **** #if LV_DRAW_COMPLEX
 232:..\..\..\arduinoLCD\test\Pain Drain\libraries\lvgl\src\draw\sw/lv_draw_sw_line.c ****     /*If there other mask apply it*/
 233:..\..\..\arduinoLCD\test\Pain Drain\libraries\lvgl\src\draw\sw/lv_draw_sw_line.c ****     else {
 234:..\..\..\arduinoLCD\test\Pain Drain\libraries\lvgl\src\draw\sw/lv_draw_sw_line.c ****         int32_t draw_area_w = lv_area_get_width(&blend_area);
 235:..\..\..\arduinoLCD\test\Pain Drain\libraries\lvgl\src\draw\sw/lv_draw_sw_line.c **** 
 236:..\..\..\arduinoLCD\test\Pain Drain\libraries\lvgl\src\draw\sw/lv_draw_sw_line.c ****         lv_coord_t y2 = blend_area.y2;
 590              		.loc 1 236 0
 591 00d0 0621     		movs	r1, #6
 592 00d2 635E     		ldrsh	r3, [r4, r1]
 593 00d4 9A46     		mov	r10, r3
 594              	.LVL81:
 237:..\..\..\arduinoLCD\test\Pain Drain\libraries\lvgl\src\draw\sw/lv_draw_sw_line.c ****         blend_area.y2 = blend_area.y1;
 595              		.loc 1 237 0
 596 00d6 0221     		movs	r1, #2
 597 00d8 635E     		ldrsh	r3, [r4, r1]
ARM GAS  C:\Users\haske\AppData\Local\Temp\ccpgnYma.s 			page 18


 598 00da E380     		strh	r3, [r4, #6]
 238:..\..\..\arduinoLCD\test\Pain Drain\libraries\lvgl\src\draw\sw/lv_draw_sw_line.c **** 
 239:..\..\..\arduinoLCD\test\Pain Drain\libraries\lvgl\src\draw\sw/lv_draw_sw_line.c ****         lv_opa_t * mask_buf = lv_mem_buf_get(draw_area_w);
 599              		.loc 1 239 0
 600 00dc 0292     		str	r2, [sp, #8]
 601 00de 1000     		movs	r0, r2
 602 00e0 FFF7FEFF 		bl	lv_mem_buf_get
 603              	.LVL82:
 604 00e4 0190     		str	r0, [sp, #4]
 605              	.LVL83:
 240:..\..\..\arduinoLCD\test\Pain Drain\libraries\lvgl\src\draw\sw/lv_draw_sw_line.c ****         blend_dsc.mask_buf = mask_buf;
 606              		.loc 1 240 0
 607 00e6 0890     		str	r0, [sp, #32]
 241:..\..\..\arduinoLCD\test\Pain Drain\libraries\lvgl\src\draw\sw/lv_draw_sw_line.c ****         blend_dsc.mask_area = &blend_area;
 608              		.loc 1 241 0
 609 00e8 0A94     		str	r4, [sp, #40]
 610              	.LVL84:
 242:..\..\..\arduinoLCD\test\Pain Drain\libraries\lvgl\src\draw\sw/lv_draw_sw_line.c **** 
 243:..\..\..\arduinoLCD\test\Pain Drain\libraries\lvgl\src\draw\sw/lv_draw_sw_line.c ****         lv_coord_t dash_start = 0;
 244:..\..\..\arduinoLCD\test\Pain Drain\libraries\lvgl\src\draw\sw/lv_draw_sw_line.c ****         if(dashed) {
 611              		.loc 1 244 0
 612 00ea 002E     		cmp	r6, #0
 613 00ec 0BD0     		beq	.L44
 245:..\..\..\arduinoLCD\test\Pain Drain\libraries\lvgl\src\draw\sw/lv_draw_sw_line.c ****             dash_start = (blend_area.y1) % (dsc->dash_gap + dsc->dash_width);
 614              		.loc 1 245 0
 615 00ee 0CAB     		add	r3, sp, #48
 616 00f0 0220     		movs	r0, #2
 617 00f2 185E     		ldrsh	r0, [r3, r0]
 618              	.LVL85:
 619 00f4 0623     		movs	r3, #6
 620 00f6 E95E     		ldrsh	r1, [r5, r3]
 621 00f8 0422     		movs	r2, #4
 622 00fa AB5E     		ldrsh	r3, [r5, r2]
 623 00fc C918     		adds	r1, r1, r3
 624 00fe FFF7FEFF 		bl	__aeabi_idivmod
 625              	.LVL86:
 626 0102 0FB2     		sxth	r7, r1
 627              	.LVL87:
 628 0104 00E0     		b	.L33
 629              	.LVL88:
 630              	.L44:
 243:..\..\..\arduinoLCD\test\Pain Drain\libraries\lvgl\src\draw\sw/lv_draw_sw_line.c ****         if(dashed) {
 631              		.loc 1 243 0
 632 0106 0027     		movs	r7, #0
 633              	.LVL89:
 634              	.L33:
 246:..\..\..\arduinoLCD\test\Pain Drain\libraries\lvgl\src\draw\sw/lv_draw_sw_line.c ****         }
 247:..\..\..\arduinoLCD\test\Pain Drain\libraries\lvgl\src\draw\sw/lv_draw_sw_line.c **** 
 248:..\..\..\arduinoLCD\test\Pain Drain\libraries\lvgl\src\draw\sw/lv_draw_sw_line.c ****         lv_coord_t dash_cnt = dash_start;
 249:..\..\..\arduinoLCD\test\Pain Drain\libraries\lvgl\src\draw\sw/lv_draw_sw_line.c **** 
 250:..\..\..\arduinoLCD\test\Pain Drain\libraries\lvgl\src\draw\sw/lv_draw_sw_line.c ****         int32_t h;
 251:..\..\..\arduinoLCD\test\Pain Drain\libraries\lvgl\src\draw\sw/lv_draw_sw_line.c ****         for(h = blend_area.y1; h <= y2; h++) {
 635              		.loc 1 251 0
 636 0108 0CAB     		add	r3, sp, #48
 637 010a 0224     		movs	r4, #2
 638 010c 1C5F     		ldrsh	r4, [r3, r4]
 639              	.LVL90:
ARM GAS  C:\Users\haske\AppData\Local\Temp\ccpgnYma.s 			page 19


 640 010e A946     		mov	r9, r5
 641 0110 3500     		movs	r5, r6
 642              	.LVL91:
 643 0112 5646     		mov	r6, r10
 644              	.LVL92:
 645 0114 33E0     		b	.L34
 646              	.LVL93:
 647              	.L38:
 252:..\..\..\arduinoLCD\test\Pain Drain\libraries\lvgl\src\draw\sw/lv_draw_sw_line.c ****             lv_memset_ff(mask_buf, draw_area_w);
 648              		.loc 1 252 0
 649 0116 0299     		ldr	r1, [sp, #8]
 650 0118 0198     		ldr	r0, [sp, #4]
 651 011a FFF7FEFF 		bl	lv_memset_ff
 652              	.LVL94:
 253:..\..\..\arduinoLCD\test\Pain Drain\libraries\lvgl\src\draw\sw/lv_draw_sw_line.c ****             blend_dsc.mask_res = lv_draw_mask_apply(mask_buf, blend_area.x1, h, draw_area_w);
 653              		.loc 1 253 0
 654 011e 22B2     		sxth	r2, r4
 655 0120 0CAB     		add	r3, sp, #48
 656 0122 0021     		movs	r1, #0
 657 0124 595E     		ldrsh	r1, [r3, r1]
 658 0126 039B     		ldr	r3, [sp, #12]
 659 0128 0198     		ldr	r0, [sp, #4]
 660 012a FFF7FEFF 		bl	lv_draw_mask_apply
 661              	.LVL95:
 662 012e 05AB     		add	r3, sp, #20
 663 0130 1874     		strb	r0, [r3, #16]
 254:..\..\..\arduinoLCD\test\Pain Drain\libraries\lvgl\src\draw\sw/lv_draw_sw_line.c **** 
 255:..\..\..\arduinoLCD\test\Pain Drain\libraries\lvgl\src\draw\sw/lv_draw_sw_line.c ****             if(dashed) {
 664              		.loc 1 255 0
 665 0132 002D     		cmp	r5, #0
 666 0134 15D0     		beq	.L35
 256:..\..\..\arduinoLCD\test\Pain Drain\libraries\lvgl\src\draw\sw/lv_draw_sw_line.c ****                 if(blend_dsc.mask_res != LV_DRAW_MASK_RES_TRANSP) {
 667              		.loc 1 256 0
 668 0136 0028     		cmp	r0, #0
 669 0138 11D0     		beq	.L36
 257:..\..\..\arduinoLCD\test\Pain Drain\libraries\lvgl\src\draw\sw/lv_draw_sw_line.c ****                     if(dash_cnt > dsc->dash_width) {
 670              		.loc 1 257 0
 671 013a 4B46     		mov	r3, r9
 672 013c 0422     		movs	r2, #4
 673 013e 9B5E     		ldrsh	r3, [r3, r2]
 674 0140 9F42     		cmp	r7, r3
 675 0142 02DD     		ble	.L37
 258:..\..\..\arduinoLCD\test\Pain Drain\libraries\lvgl\src\draw\sw/lv_draw_sw_line.c ****                         blend_dsc.mask_res = LV_DRAW_MASK_RES_TRANSP;
 676              		.loc 1 258 0
 677 0144 0022     		movs	r2, #0
 678 0146 05AB     		add	r3, sp, #20
 679 0148 1A74     		strb	r2, [r3, #16]
 680              	.L37:
 259:..\..\..\arduinoLCD\test\Pain Drain\libraries\lvgl\src\draw\sw/lv_draw_sw_line.c ****                     }
 260:..\..\..\arduinoLCD\test\Pain Drain\libraries\lvgl\src\draw\sw/lv_draw_sw_line.c **** 
 261:..\..\..\arduinoLCD\test\Pain Drain\libraries\lvgl\src\draw\sw/lv_draw_sw_line.c ****                     if(dash_cnt >= dsc->dash_gap + dsc->dash_width) {
 681              		.loc 1 261 0
 682 014a 4B46     		mov	r3, r9
 683 014c 0622     		movs	r2, #6
 684 014e 9A5E     		ldrsh	r2, [r3, r2]
 685 0150 4B46     		mov	r3, r9
 686 0152 0421     		movs	r1, #4
ARM GAS  C:\Users\haske\AppData\Local\Temp\ccpgnYma.s 			page 20


 687 0154 5B5E     		ldrsh	r3, [r3, r1]
 688 0156 D318     		adds	r3, r2, r3
 689 0158 9F42     		cmp	r7, r3
 690 015a 00DB     		blt	.L36
 262:..\..\..\arduinoLCD\test\Pain Drain\libraries\lvgl\src\draw\sw/lv_draw_sw_line.c ****                         dash_cnt = 0;
 691              		.loc 1 262 0
 692 015c 0027     		movs	r7, #0
 693              	.LVL96:
 694              	.L36:
 263:..\..\..\arduinoLCD\test\Pain Drain\libraries\lvgl\src\draw\sw/lv_draw_sw_line.c ****                     }
 264:..\..\..\arduinoLCD\test\Pain Drain\libraries\lvgl\src\draw\sw/lv_draw_sw_line.c ****                 }
 265:..\..\..\arduinoLCD\test\Pain Drain\libraries\lvgl\src\draw\sw/lv_draw_sw_line.c ****                 dash_cnt ++;
 695              		.loc 1 265 0
 696 015e 0137     		adds	r7, r7, #1
 697              	.LVL97:
 698 0160 3FB2     		sxth	r7, r7
 699              	.LVL98:
 700              	.L35:
 266:..\..\..\arduinoLCD\test\Pain Drain\libraries\lvgl\src\draw\sw/lv_draw_sw_line.c ****             }
 267:..\..\..\arduinoLCD\test\Pain Drain\libraries\lvgl\src\draw\sw/lv_draw_sw_line.c **** 
 268:..\..\..\arduinoLCD\test\Pain Drain\libraries\lvgl\src\draw\sw/lv_draw_sw_line.c ****             lv_draw_sw_blend(draw_ctx, &blend_dsc);
 701              		.loc 1 268 0 discriminator 2
 702 0162 05A9     		add	r1, sp, #20
 703 0164 4046     		mov	r0, r8
 704 0166 FFF7FEFF 		bl	lv_draw_sw_blend
 705              	.LVL99:
 269:..\..\..\arduinoLCD\test\Pain Drain\libraries\lvgl\src\draw\sw/lv_draw_sw_line.c **** 
 270:..\..\..\arduinoLCD\test\Pain Drain\libraries\lvgl\src\draw\sw/lv_draw_sw_line.c ****             blend_area.y1++;
 706              		.loc 1 270 0 discriminator 2
 707 016a 0CAB     		add	r3, sp, #48
 708 016c 0221     		movs	r1, #2
 709 016e 5A5E     		ldrsh	r2, [r3, r1]
 710 0170 0132     		adds	r2, r2, #1
 711 0172 5A80     		strh	r2, [r3, #2]
 271:..\..\..\arduinoLCD\test\Pain Drain\libraries\lvgl\src\draw\sw/lv_draw_sw_line.c ****             blend_area.y2++;
 712              		.loc 1 271 0 discriminator 2
 713 0174 0621     		movs	r1, #6
 714 0176 5A5E     		ldrsh	r2, [r3, r1]
 715 0178 0132     		adds	r2, r2, #1
 716 017a DA80     		strh	r2, [r3, #6]
 251:..\..\..\arduinoLCD\test\Pain Drain\libraries\lvgl\src\draw\sw/lv_draw_sw_line.c ****             lv_memset_ff(mask_buf, draw_area_w);
 717              		.loc 1 251 0 discriminator 2
 718 017c 0134     		adds	r4, r4, #1
 719              	.LVL100:
 720              	.L34:
 251:..\..\..\arduinoLCD\test\Pain Drain\libraries\lvgl\src\draw\sw/lv_draw_sw_line.c ****             lv_memset_ff(mask_buf, draw_area_w);
 721              		.loc 1 251 0 is_stmt 0 discriminator 1
 722 017e B442     		cmp	r4, r6
 723 0180 C9DD     		ble	.L38
 272:..\..\..\arduinoLCD\test\Pain Drain\libraries\lvgl\src\draw\sw/lv_draw_sw_line.c ****         }
 273:..\..\..\arduinoLCD\test\Pain Drain\libraries\lvgl\src\draw\sw/lv_draw_sw_line.c ****         lv_mem_buf_release(mask_buf);
 724              		.loc 1 273 0 is_stmt 1
 725 0182 0198     		ldr	r0, [sp, #4]
 726 0184 FFF7FEFF 		bl	lv_mem_buf_release
 727              	.LVL101:
 728              	.L25:
 729              	.LBE18:
ARM GAS  C:\Users\haske\AppData\Local\Temp\ccpgnYma.s 			page 21


 274:..\..\..\arduinoLCD\test\Pain Drain\libraries\lvgl\src\draw\sw/lv_draw_sw_line.c ****     }
 275:..\..\..\arduinoLCD\test\Pain Drain\libraries\lvgl\src\draw\sw/lv_draw_sw_line.c **** #endif /*LV_DRAW_COMPLEX*/
 276:..\..\..\arduinoLCD\test\Pain Drain\libraries\lvgl\src\draw\sw/lv_draw_sw_line.c **** }
 730              		.loc 1 276 0
 731 0188 0EB0     		add	sp, sp, #56
 732              		@ sp needed
 733              	.LVL102:
 734 018a 1CBC     		pop	{r2, r3, r4}
 735 018c 9046     		mov	r8, r2
 736 018e 9946     		mov	r9, r3
 737 0190 A246     		mov	r10, r4
 738 0192 F0BD     		pop	{r4, r5, r6, r7, pc}
 739              		.cfi_endproc
 740              	.LFE161:
 741              		.size	draw_line_ver, .-draw_line_ver
 742              		.global	__aeabi_idiv
 743              		.section	.text.draw_line_skew,"ax",%progbits
 744              		.align	2
 745              		.code	16
 746              		.thumb_func
 747              		.type	draw_line_skew, %function
 748              	draw_line_skew:
 749              	.LFB162:
 277:..\..\..\arduinoLCD\test\Pain Drain\libraries\lvgl\src\draw\sw/lv_draw_sw_line.c **** 
 278:..\..\..\arduinoLCD\test\Pain Drain\libraries\lvgl\src\draw\sw/lv_draw_sw_line.c **** LV_ATTRIBUTE_FAST_MEM static void draw_line_skew(struct _lv_draw_ctx_t * draw_ctx, const lv_draw_li
 279:..\..\..\arduinoLCD\test\Pain Drain\libraries\lvgl\src\draw\sw/lv_draw_sw_line.c ****                                                  const lv_point_t * point1, const lv_point_t * poin
 280:..\..\..\arduinoLCD\test\Pain Drain\libraries\lvgl\src\draw\sw/lv_draw_sw_line.c **** {
 750              		.loc 1 280 0
 751              		.cfi_startproc
 752              		@ args = 0, pretend = 0, frame = 248
 753              		@ frame_needed = 0, uses_anonymous_args = 0
 754              	.LVL103:
 755 0000 F0B5     		push	{r4, r5, r6, r7, lr}
 756              		.cfi_def_cfa_offset 20
 757              		.cfi_offset 4, -20
 758              		.cfi_offset 5, -16
 759              		.cfi_offset 6, -12
 760              		.cfi_offset 7, -8
 761              		.cfi_offset 14, -4
 762 0002 5F46     		mov	r7, fp
 763 0004 5646     		mov	r6, r10
 764 0006 4D46     		mov	r5, r9
 765 0008 4446     		mov	r4, r8
 766 000a F0B4     		push	{r4, r5, r6, r7}
 767              		.cfi_def_cfa_offset 36
 768              		.cfi_offset 8, -36
 769              		.cfi_offset 9, -32
 770              		.cfi_offset 10, -28
 771              		.cfi_offset 11, -24
 772 000c C1B0     		sub	sp, sp, #260
 773              		.cfi_def_cfa_offset 296
 774 000e 8146     		mov	r9, r0
 775 0010 0291     		str	r1, [sp, #8]
 281:..\..\..\arduinoLCD\test\Pain Drain\libraries\lvgl\src\draw\sw/lv_draw_sw_line.c **** #if LV_DRAW_COMPLEX
 282:..\..\..\arduinoLCD\test\Pain Drain\libraries\lvgl\src\draw\sw/lv_draw_sw_line.c ****     /*Keep the great y in p1*/
 283:..\..\..\arduinoLCD\test\Pain Drain\libraries\lvgl\src\draw\sw/lv_draw_sw_line.c ****     lv_point_t p1;
 284:..\..\..\arduinoLCD\test\Pain Drain\libraries\lvgl\src\draw\sw/lv_draw_sw_line.c ****     lv_point_t p2;
ARM GAS  C:\Users\haske\AppData\Local\Temp\ccpgnYma.s 			page 22


 285:..\..\..\arduinoLCD\test\Pain Drain\libraries\lvgl\src\draw\sw/lv_draw_sw_line.c ****     if(point1->y < point2->y) {
 776              		.loc 1 285 0
 777 0012 0220     		movs	r0, #2
 778 0014 115E     		ldrsh	r1, [r2, r0]
 779              	.LVL104:
 780 0016 0224     		movs	r4, #2
 781 0018 185F     		ldrsh	r0, [r3, r4]
 782 001a 8142     		cmp	r1, r0
 783 001c 0ADA     		bge	.L47
 286:..\..\..\arduinoLCD\test\Pain Drain\libraries\lvgl\src\draw\sw/lv_draw_sw_line.c ****         p1.y = point1->y;
 784              		.loc 1 286 0
 785 001e 3FAC     		add	r4, sp, #252
 786 0020 6180     		strh	r1, [r4, #2]
 287:..\..\..\arduinoLCD\test\Pain Drain\libraries\lvgl\src\draw\sw/lv_draw_sw_line.c ****         p2.y = point2->y;
 787              		.loc 1 287 0
 788 0022 3EA9     		add	r1, sp, #248
 789 0024 4880     		strh	r0, [r1, #2]
 288:..\..\..\arduinoLCD\test\Pain Drain\libraries\lvgl\src\draw\sw/lv_draw_sw_line.c ****         p1.x = point1->x;
 790              		.loc 1 288 0
 791 0026 0020     		movs	r0, #0
 792 0028 125E     		ldrsh	r2, [r2, r0]
 793              	.LVL105:
 794 002a 2280     		strh	r2, [r4]
 289:..\..\..\arduinoLCD\test\Pain Drain\libraries\lvgl\src\draw\sw/lv_draw_sw_line.c ****         p2.x = point2->x;
 795              		.loc 1 289 0
 796 002c 0022     		movs	r2, #0
 797 002e 9B5E     		ldrsh	r3, [r3, r2]
 798              	.LVL106:
 799 0030 0B80     		strh	r3, [r1]
 800 0032 09E0     		b	.L48
 801              	.LVL107:
 802              	.L47:
 290:..\..\..\arduinoLCD\test\Pain Drain\libraries\lvgl\src\draw\sw/lv_draw_sw_line.c ****     }
 291:..\..\..\arduinoLCD\test\Pain Drain\libraries\lvgl\src\draw\sw/lv_draw_sw_line.c ****     else {
 292:..\..\..\arduinoLCD\test\Pain Drain\libraries\lvgl\src\draw\sw/lv_draw_sw_line.c ****         p1.y = point2->y;
 803              		.loc 1 292 0
 804 0034 3FAC     		add	r4, sp, #252
 805 0036 6080     		strh	r0, [r4, #2]
 293:..\..\..\arduinoLCD\test\Pain Drain\libraries\lvgl\src\draw\sw/lv_draw_sw_line.c ****         p2.y = point1->y;
 806              		.loc 1 293 0
 807 0038 3EA8     		add	r0, sp, #248
 808 003a 4180     		strh	r1, [r0, #2]
 294:..\..\..\arduinoLCD\test\Pain Drain\libraries\lvgl\src\draw\sw/lv_draw_sw_line.c ****         p1.x = point2->x;
 809              		.loc 1 294 0
 810 003c 0021     		movs	r1, #0
 811 003e 5B5E     		ldrsh	r3, [r3, r1]
 812              	.LVL108:
 813 0040 2380     		strh	r3, [r4]
 295:..\..\..\arduinoLCD\test\Pain Drain\libraries\lvgl\src\draw\sw/lv_draw_sw_line.c ****         p2.x = point1->x;
 814              		.loc 1 295 0
 815 0042 0023     		movs	r3, #0
 816 0044 D35E     		ldrsh	r3, [r2, r3]
 817              	.LVL109:
 818 0046 0380     		strh	r3, [r0]
 819              	.L48:
 296:..\..\..\arduinoLCD\test\Pain Drain\libraries\lvgl\src\draw\sw/lv_draw_sw_line.c ****     }
 297:..\..\..\arduinoLCD\test\Pain Drain\libraries\lvgl\src\draw\sw/lv_draw_sw_line.c **** 
ARM GAS  C:\Users\haske\AppData\Local\Temp\ccpgnYma.s 			page 23


 298:..\..\..\arduinoLCD\test\Pain Drain\libraries\lvgl\src\draw\sw/lv_draw_sw_line.c ****     int32_t xdiff = p2.x - p1.x;
 820              		.loc 1 298 0
 821 0048 3EAA     		add	r2, sp, #248
 822 004a 0023     		movs	r3, #0
 823 004c D65E     		ldrsh	r6, [r2, r3]
 824 004e 3FAB     		add	r3, sp, #252
 825 0050 0020     		movs	r0, #0
 826 0052 195E     		ldrsh	r1, [r3, r0]
 827 0054 8846     		mov	r8, r1
 828 0056 711A     		subs	r1, r6, r1
 829 0058 0391     		str	r1, [sp, #12]
 830              	.LVL110:
 299:..\..\..\arduinoLCD\test\Pain Drain\libraries\lvgl\src\draw\sw/lv_draw_sw_line.c ****     int32_t ydiff = p2.y - p1.y;
 831              		.loc 1 299 0
 832 005a 0225     		movs	r5, #2
 833 005c 555F     		ldrsh	r5, [r2, r5]
 834 005e 0224     		movs	r4, #2
 835 0060 1C5F     		ldrsh	r4, [r3, r4]
 836 0062 2B1B     		subs	r3, r5, r4
 837 0064 0593     		str	r3, [sp, #20]
 838              	.LVL111:
 300:..\..\..\arduinoLCD\test\Pain Drain\libraries\lvgl\src\draw\sw/lv_draw_sw_line.c ****     bool flat = LV_ABS(xdiff) > LV_ABS(ydiff) ? true : false;
 839              		.loc 1 300 0
 840 0066 C817     		asrs	r0, r1, #31
 841 0068 0A18     		adds	r2, r1, r0
 842 006a 4240     		eors	r2, r0
 843 006c 9346     		mov	fp, r2
 844 006e DA17     		asrs	r2, r3, #31
 845 0070 9B18     		adds	r3, r3, r2
 846              	.LVL112:
 847 0072 5340     		eors	r3, r2
 848 0074 9A46     		mov	r10, r3
 849              	.LVL113:
 301:..\..\..\arduinoLCD\test\Pain Drain\libraries\lvgl\src\draw\sw/lv_draw_sw_line.c **** 
 302:..\..\..\arduinoLCD\test\Pain Drain\libraries\lvgl\src\draw\sw/lv_draw_sw_line.c ****     static const uint8_t wcorr[] = {
 303:..\..\..\arduinoLCD\test\Pain Drain\libraries\lvgl\src\draw\sw/lv_draw_sw_line.c ****         128, 128, 128, 129, 129, 130, 130, 131,
 304:..\..\..\arduinoLCD\test\Pain Drain\libraries\lvgl\src\draw\sw/lv_draw_sw_line.c ****         132, 133, 134, 135, 137, 138, 140, 141,
 305:..\..\..\arduinoLCD\test\Pain Drain\libraries\lvgl\src\draw\sw/lv_draw_sw_line.c ****         143, 145, 147, 149, 151, 153, 155, 158,
 306:..\..\..\arduinoLCD\test\Pain Drain\libraries\lvgl\src\draw\sw/lv_draw_sw_line.c ****         160, 162, 165, 167, 170, 173, 175, 178,
 307:..\..\..\arduinoLCD\test\Pain Drain\libraries\lvgl\src\draw\sw/lv_draw_sw_line.c ****         181,
 308:..\..\..\arduinoLCD\test\Pain Drain\libraries\lvgl\src\draw\sw/lv_draw_sw_line.c ****     };
 309:..\..\..\arduinoLCD\test\Pain Drain\libraries\lvgl\src\draw\sw/lv_draw_sw_line.c **** 
 310:..\..\..\arduinoLCD\test\Pain Drain\libraries\lvgl\src\draw\sw/lv_draw_sw_line.c ****     int32_t w = dsc->width;
 850              		.loc 1 310 0
 851 0076 029B     		ldr	r3, [sp, #8]
 852              	.LVL114:
 853 0078 0227     		movs	r7, #2
 854 007a DF5F     		ldrsh	r7, [r3, r7]
 855              	.LVL115:
 311:..\..\..\arduinoLCD\test\Pain Drain\libraries\lvgl\src\draw\sw/lv_draw_sw_line.c ****     int32_t wcorr_i = 0;
 312:..\..\..\arduinoLCD\test\Pain Drain\libraries\lvgl\src\draw\sw/lv_draw_sw_line.c ****     if(flat) wcorr_i = (LV_ABS(ydiff) << 5) / LV_ABS(xdiff);
 856              		.loc 1 312 0
 857 007c D345     		cmp	fp, r10
 858 007e 05DD     		ble	.L49
 859              		.loc 1 312 0 is_stmt 0 discriminator 1
 860 0080 5346     		mov	r3, r10
 861 0082 5801     		lsls	r0, r3, #5
ARM GAS  C:\Users\haske\AppData\Local\Temp\ccpgnYma.s 			page 24


 862 0084 5946     		mov	r1, fp
 863              	.LVL116:
 864 0086 FFF7FEFF 		bl	__aeabi_idiv
 865              	.LVL117:
 866 008a 04E0     		b	.L50
 867              	.LVL118:
 868              	.L49:
 313:..\..\..\arduinoLCD\test\Pain Drain\libraries\lvgl\src\draw\sw/lv_draw_sw_line.c ****     else wcorr_i = (LV_ABS(xdiff) << 5) / LV_ABS(ydiff);
 869              		.loc 1 313 0 is_stmt 1
 870 008c 5B46     		mov	r3, fp
 871 008e 5801     		lsls	r0, r3, #5
 872 0090 5146     		mov	r1, r10
 873              	.LVL119:
 874 0092 FFF7FEFF 		bl	__aeabi_idiv
 875              	.LVL120:
 876              	.L50:
 314:..\..\..\arduinoLCD\test\Pain Drain\libraries\lvgl\src\draw\sw/lv_draw_sw_line.c **** 
 315:..\..\..\arduinoLCD\test\Pain Drain\libraries\lvgl\src\draw\sw/lv_draw_sw_line.c ****     w = (w * wcorr[wcorr_i] + 63) >> 7;     /*+ 63 for rounding*/
 877              		.loc 1 315 0
 878 0096 B74B     		ldr	r3, .L71
 879 0098 1B5C     		ldrb	r3, [r3, r0]
 880 009a 5F43     		muls	r7, r3
 881              	.LVL121:
 882 009c 3F37     		adds	r7, r7, #63
 883 009e FB11     		asrs	r3, r7, #7
 884              	.LVL122:
 316:..\..\..\arduinoLCD\test\Pain Drain\libraries\lvgl\src\draw\sw/lv_draw_sw_line.c ****     int32_t w_half0 = w >> 1;
 885              		.loc 1 316 0
 886 00a0 3F12     		asrs	r7, r7, #8
 887              	.LVL123:
 317:..\..\..\arduinoLCD\test\Pain Drain\libraries\lvgl\src\draw\sw/lv_draw_sw_line.c ****     int32_t w_half1 = w_half0 + (w & 0x1); /*Compensate rounding error*/
 888              		.loc 1 317 0
 889 00a2 0122     		movs	r2, #1
 890 00a4 1A40     		ands	r2, r3
 891 00a6 BA18     		adds	r2, r7, r2
 892 00a8 0492     		str	r2, [sp, #16]
 893              	.LVL124:
 318:..\..\..\arduinoLCD\test\Pain Drain\libraries\lvgl\src\draw\sw/lv_draw_sw_line.c **** 
 319:..\..\..\arduinoLCD\test\Pain Drain\libraries\lvgl\src\draw\sw/lv_draw_sw_line.c ****     lv_area_t blend_area;
 320:..\..\..\arduinoLCD\test\Pain Drain\libraries\lvgl\src\draw\sw/lv_draw_sw_line.c ****     blend_area.x1 = LV_MIN(p1.x, p2.x) - w;
 894              		.loc 1 320 0
 895 00aa 9BB2     		uxth	r3, r3
 896              	.LVL125:
 897 00ac 321C     		adds	r2, r6, #0
 898              	.LVL126:
 899 00ae 4645     		cmp	r6, r8
 900 00b0 00DD     		ble	.L51
 901 00b2 4246     		mov	r2, r8
 902              	.L51:
 903 00b4 D21A     		subs	r2, r2, r3
 904 00b6 3CA9     		add	r1, sp, #240
 905 00b8 0A80     		strh	r2, [r1]
 321:..\..\..\arduinoLCD\test\Pain Drain\libraries\lvgl\src\draw\sw/lv_draw_sw_line.c ****     blend_area.x2 = LV_MAX(p1.x, p2.x) + w;
 906              		.loc 1 321 0
 907 00ba 321C     		adds	r2, r6, #0
 908 00bc 4645     		cmp	r6, r8
 909 00be 00DA     		bge	.L52
ARM GAS  C:\Users\haske\AppData\Local\Temp\ccpgnYma.s 			page 25


 910 00c0 4246     		mov	r2, r8
 911              	.L52:
 912 00c2 9A18     		adds	r2, r3, r2
 913 00c4 3CA9     		add	r1, sp, #240
 914 00c6 8A80     		strh	r2, [r1, #4]
 322:..\..\..\arduinoLCD\test\Pain Drain\libraries\lvgl\src\draw\sw/lv_draw_sw_line.c ****     blend_area.y1 = LV_MIN(p1.y, p2.y) - w;
 915              		.loc 1 322 0
 916 00c8 2A1C     		adds	r2, r5, #0
 917 00ca A542     		cmp	r5, r4
 918 00cc 00DD     		ble	.L53
 919 00ce 221C     		adds	r2, r4, #0
 920              	.L53:
 921 00d0 D21A     		subs	r2, r2, r3
 922 00d2 3CA9     		add	r1, sp, #240
 923 00d4 4A80     		strh	r2, [r1, #2]
 323:..\..\..\arduinoLCD\test\Pain Drain\libraries\lvgl\src\draw\sw/lv_draw_sw_line.c ****     blend_area.y2 = LV_MAX(p1.y, p2.y) + w;
 924              		.loc 1 323 0
 925 00d6 2A1C     		adds	r2, r5, #0
 926 00d8 A542     		cmp	r5, r4
 927 00da 00DA     		bge	.L54
 928 00dc 221C     		adds	r2, r4, #0
 929              	.L54:
 930 00de 9B18     		adds	r3, r3, r2
 931 00e0 3CAA     		add	r2, sp, #240
 932 00e2 D380     		strh	r3, [r2, #6]
 324:..\..\..\arduinoLCD\test\Pain Drain\libraries\lvgl\src\draw\sw/lv_draw_sw_line.c **** 
 325:..\..\..\arduinoLCD\test\Pain Drain\libraries\lvgl\src\draw\sw/lv_draw_sw_line.c ****     /*Get the union of `coords` and `clip`*/
 326:..\..\..\arduinoLCD\test\Pain Drain\libraries\lvgl\src\draw\sw/lv_draw_sw_line.c ****     /*`clip` is already truncated to the `draw_buf` size
 327:..\..\..\arduinoLCD\test\Pain Drain\libraries\lvgl\src\draw\sw/lv_draw_sw_line.c ****      *in 'lv_refr_area' function*/
 328:..\..\..\arduinoLCD\test\Pain Drain\libraries\lvgl\src\draw\sw/lv_draw_sw_line.c ****     bool is_common = _lv_area_intersect(&blend_area, &blend_area, draw_ctx->clip_area);
 933              		.loc 1 328 0
 934 00e4 4B46     		mov	r3, r9
 935 00e6 9A68     		ldr	r2, [r3, #8]
 936 00e8 3CA9     		add	r1, sp, #240
 937 00ea 0800     		movs	r0, r1
 938              	.LVL127:
 939 00ec FFF7FEFF 		bl	_lv_area_intersect
 940              	.LVL128:
 329:..\..\..\arduinoLCD\test\Pain Drain\libraries\lvgl\src\draw\sw/lv_draw_sw_line.c ****     if(is_common == false) return;
 941              		.loc 1 329 0
 942 00f0 0028     		cmp	r0, #0
 943 00f2 00D1     		bne	.LCB918
 944 00f4 37E1     		b	.L46	@long jump
 945              	.LCB918:
 330:..\..\..\arduinoLCD\test\Pain Drain\libraries\lvgl\src\draw\sw/lv_draw_sw_line.c **** 
 331:..\..\..\arduinoLCD\test\Pain Drain\libraries\lvgl\src\draw\sw/lv_draw_sw_line.c ****     lv_draw_mask_line_param_t mask_left_param;
 332:..\..\..\arduinoLCD\test\Pain Drain\libraries\lvgl\src\draw\sw/lv_draw_sw_line.c ****     lv_draw_mask_line_param_t mask_right_param;
 333:..\..\..\arduinoLCD\test\Pain Drain\libraries\lvgl\src\draw\sw/lv_draw_sw_line.c ****     lv_draw_mask_line_param_t mask_top_param;
 334:..\..\..\arduinoLCD\test\Pain Drain\libraries\lvgl\src\draw\sw/lv_draw_sw_line.c ****     lv_draw_mask_line_param_t mask_bottom_param;
 335:..\..\..\arduinoLCD\test\Pain Drain\libraries\lvgl\src\draw\sw/lv_draw_sw_line.c **** 
 336:..\..\..\arduinoLCD\test\Pain Drain\libraries\lvgl\src\draw\sw/lv_draw_sw_line.c ****     if(flat) {
 946              		.loc 1 336 0
 947 00f6 D345     		cmp	fp, r10
 948 00f8 3EDD     		ble	.L56
 337:..\..\..\arduinoLCD\test\Pain Drain\libraries\lvgl\src\draw\sw/lv_draw_sw_line.c ****         if(xdiff > 0) {
 949              		.loc 1 337 0
 950 00fa 039B     		ldr	r3, [sp, #12]
ARM GAS  C:\Users\haske\AppData\Local\Temp\ccpgnYma.s 			page 26


 951 00fc 002B     		cmp	r3, #0
 952 00fe 1DDD     		ble	.L57
 338:..\..\..\arduinoLCD\test\Pain Drain\libraries\lvgl\src\draw\sw/lv_draw_sw_line.c ****             lv_draw_mask_line_points_init(&mask_left_param, p1.x, p1.y - w_half0, p2.x, p2.y - w_ha
 953              		.loc 1 338 0
 954 0100 A4B2     		uxth	r4, r4
 955 0102 BFB2     		uxth	r7, r7
 956              	.LVL129:
 957 0104 ADB2     		uxth	r5, r5
 958 0106 E21B     		subs	r2, r4, r7
 959 0108 12B2     		sxth	r2, r2
 960 010a 0023     		movs	r3, #0
 961 010c 0193     		str	r3, [sp, #4]
 962 010e EF1B     		subs	r7, r5, r7
 963 0110 3FB2     		sxth	r7, r7
 964 0112 0097     		str	r7, [sp]
 965 0114 3300     		movs	r3, r6
 966 0116 4146     		mov	r1, r8
 967 0118 31A8     		add	r0, sp, #196
 968              	.LVL130:
 969 011a FFF7FEFF 		bl	lv_draw_mask_line_points_init
 970              	.LVL131:
 339:..\..\..\arduinoLCD\test\Pain Drain\libraries\lvgl\src\draw\sw/lv_draw_sw_line.c ****                                           LV_DRAW_MASK_LINE_SIDE_LEFT);
 340:..\..\..\arduinoLCD\test\Pain Drain\libraries\lvgl\src\draw\sw/lv_draw_sw_line.c ****             lv_draw_mask_line_points_init(&mask_right_param, p1.x, p1.y + w_half1, p2.x, p2.y + w_h
 971              		.loc 1 340 0
 972 011e 6B46     		mov	r3, sp
 973 0120 1B8A     		ldrh	r3, [r3, #16]
 974 0122 E418     		adds	r4, r4, r3
 975 0124 22B2     		sxth	r2, r4
 976 0126 0121     		movs	r1, #1
 977 0128 0191     		str	r1, [sp, #4]
 978 012a ED18     		adds	r5, r5, r3
 979 012c 2DB2     		sxth	r5, r5
 980 012e 0095     		str	r5, [sp]
 981 0130 3300     		movs	r3, r6
 982 0132 4146     		mov	r1, r8
 983 0134 26A8     		add	r0, sp, #152
 984 0136 FFF7FEFF 		bl	lv_draw_mask_line_points_init
 985              	.LVL132:
 986 013a 3CE0     		b	.L58
 987              	.LVL133:
 988              	.L57:
 341:..\..\..\arduinoLCD\test\Pain Drain\libraries\lvgl\src\draw\sw/lv_draw_sw_line.c ****                                           LV_DRAW_MASK_LINE_SIDE_RIGHT);
 342:..\..\..\arduinoLCD\test\Pain Drain\libraries\lvgl\src\draw\sw/lv_draw_sw_line.c ****         }
 343:..\..\..\arduinoLCD\test\Pain Drain\libraries\lvgl\src\draw\sw/lv_draw_sw_line.c ****         else {
 344:..\..\..\arduinoLCD\test\Pain Drain\libraries\lvgl\src\draw\sw/lv_draw_sw_line.c ****             lv_draw_mask_line_points_init(&mask_left_param, p1.x, p1.y + w_half1, p2.x, p2.y + w_ha
 989              		.loc 1 344 0
 990 013c A4B2     		uxth	r4, r4
 991 013e 6B46     		mov	r3, sp
 992 0140 1B8A     		ldrh	r3, [r3, #16]
 993 0142 ADB2     		uxth	r5, r5
 994 0144 E218     		adds	r2, r4, r3
 995 0146 12B2     		sxth	r2, r2
 996 0148 0021     		movs	r1, #0
 997 014a 0191     		str	r1, [sp, #4]
 998 014c 5B19     		adds	r3, r3, r5
 999 014e 1BB2     		sxth	r3, r3
 1000 0150 0093     		str	r3, [sp]
ARM GAS  C:\Users\haske\AppData\Local\Temp\ccpgnYma.s 			page 27


 1001 0152 3300     		movs	r3, r6
 1002 0154 4146     		mov	r1, r8
 1003 0156 31A8     		add	r0, sp, #196
 1004              	.LVL134:
 1005 0158 FFF7FEFF 		bl	lv_draw_mask_line_points_init
 1006              	.LVL135:
 345:..\..\..\arduinoLCD\test\Pain Drain\libraries\lvgl\src\draw\sw/lv_draw_sw_line.c ****                                           LV_DRAW_MASK_LINE_SIDE_LEFT);
 346:..\..\..\arduinoLCD\test\Pain Drain\libraries\lvgl\src\draw\sw/lv_draw_sw_line.c ****             lv_draw_mask_line_points_init(&mask_right_param, p1.x, p1.y - w_half0, p2.x, p2.y - w_h
 1007              		.loc 1 346 0
 1008 015c BFB2     		uxth	r7, r7
 1009              	.LVL136:
 1010 015e E41B     		subs	r4, r4, r7
 1011 0160 22B2     		sxth	r2, r4
 1012 0162 0123     		movs	r3, #1
 1013 0164 0193     		str	r3, [sp, #4]
 1014 0166 ED1B     		subs	r5, r5, r7
 1015 0168 2DB2     		sxth	r5, r5
 1016 016a 0095     		str	r5, [sp]
 1017 016c 3300     		movs	r3, r6
 1018 016e 4146     		mov	r1, r8
 1019 0170 26A8     		add	r0, sp, #152
 1020 0172 FFF7FEFF 		bl	lv_draw_mask_line_points_init
 1021              	.LVL137:
 1022 0176 1EE0     		b	.L58
 1023              	.LVL138:
 1024              	.L56:
 347:..\..\..\arduinoLCD\test\Pain Drain\libraries\lvgl\src\draw\sw/lv_draw_sw_line.c ****                                           LV_DRAW_MASK_LINE_SIDE_RIGHT);
 348:..\..\..\arduinoLCD\test\Pain Drain\libraries\lvgl\src\draw\sw/lv_draw_sw_line.c ****         }
 349:..\..\..\arduinoLCD\test\Pain Drain\libraries\lvgl\src\draw\sw/lv_draw_sw_line.c ****     }
 350:..\..\..\arduinoLCD\test\Pain Drain\libraries\lvgl\src\draw\sw/lv_draw_sw_line.c ****     else {
 351:..\..\..\arduinoLCD\test\Pain Drain\libraries\lvgl\src\draw\sw/lv_draw_sw_line.c ****         lv_draw_mask_line_points_init(&mask_left_param, p1.x + w_half1, p1.y, p2.x + w_half1, p2.y,
 1025              		.loc 1 351 0
 1026 0178 4346     		mov	r3, r8
 1027 017a 6A46     		mov	r2, sp
 1028 017c 1383     		strh	r3, [r2, #24]
 1029 017e 138B     		ldrh	r3, [r2, #24]
 1030 0180 9846     		mov	r8, r3
 1031 0182 118A     		ldrh	r1, [r2, #16]
 1032 0184 B6B2     		uxth	r6, r6
 1033 0186 8B19     		adds	r3, r1, r6
 1034 0188 1BB2     		sxth	r3, r3
 1035 018a 4144     		add	r1, r1, r8
 1036 018c 09B2     		sxth	r1, r1
 1037 018e 0022     		movs	r2, #0
 1038 0190 0192     		str	r2, [sp, #4]
 1039 0192 0095     		str	r5, [sp]
 1040 0194 2200     		movs	r2, r4
 1041 0196 31A8     		add	r0, sp, #196
 1042              	.LVL139:
 1043 0198 FFF7FEFF 		bl	lv_draw_mask_line_points_init
 1044              	.LVL140:
 352:..\..\..\arduinoLCD\test\Pain Drain\libraries\lvgl\src\draw\sw/lv_draw_sw_line.c ****                                       LV_DRAW_MASK_LINE_SIDE_LEFT);
 353:..\..\..\arduinoLCD\test\Pain Drain\libraries\lvgl\src\draw\sw/lv_draw_sw_line.c ****         lv_draw_mask_line_points_init(&mask_right_param, p1.x - w_half0, p1.y, p2.x - w_half0, p2.y
 1045              		.loc 1 353 0
 1046 019c BFB2     		uxth	r7, r7
 1047              	.LVL141:
 1048 019e F61B     		subs	r6, r6, r7
ARM GAS  C:\Users\haske\AppData\Local\Temp\ccpgnYma.s 			page 28


 1049 01a0 33B2     		sxth	r3, r6
 1050 01a2 4246     		mov	r2, r8
 1051 01a4 D71B     		subs	r7, r2, r7
 1052 01a6 39B2     		sxth	r1, r7
 1053 01a8 0122     		movs	r2, #1
 1054 01aa 0192     		str	r2, [sp, #4]
 1055 01ac 0095     		str	r5, [sp]
 1056 01ae 2200     		movs	r2, r4
 1057 01b0 26A8     		add	r0, sp, #152
 1058 01b2 FFF7FEFF 		bl	lv_draw_mask_line_points_init
 1059              	.LVL142:
 1060              	.L58:
 354:..\..\..\arduinoLCD\test\Pain Drain\libraries\lvgl\src\draw\sw/lv_draw_sw_line.c ****                                       LV_DRAW_MASK_LINE_SIDE_RIGHT);
 355:..\..\..\arduinoLCD\test\Pain Drain\libraries\lvgl\src\draw\sw/lv_draw_sw_line.c ****     }
 356:..\..\..\arduinoLCD\test\Pain Drain\libraries\lvgl\src\draw\sw/lv_draw_sw_line.c **** 
 357:..\..\..\arduinoLCD\test\Pain Drain\libraries\lvgl\src\draw\sw/lv_draw_sw_line.c ****     /*Use the normal vector for the endings*/
 358:..\..\..\arduinoLCD\test\Pain Drain\libraries\lvgl\src\draw\sw/lv_draw_sw_line.c **** 
 359:..\..\..\arduinoLCD\test\Pain Drain\libraries\lvgl\src\draw\sw/lv_draw_sw_line.c ****     int16_t mask_left_id = lv_draw_mask_add(&mask_left_param, NULL);
 1061              		.loc 1 359 0
 1062 01b6 0021     		movs	r1, #0
 1063 01b8 31A8     		add	r0, sp, #196
 1064 01ba FFF7FEFF 		bl	lv_draw_mask_add
 1065              	.LVL143:
 1066 01be 0690     		str	r0, [sp, #24]
 1067              	.LVL144:
 360:..\..\..\arduinoLCD\test\Pain Drain\libraries\lvgl\src\draw\sw/lv_draw_sw_line.c ****     int16_t mask_right_id = lv_draw_mask_add(&mask_right_param, NULL);
 1068              		.loc 1 360 0
 1069 01c0 0021     		movs	r1, #0
 1070 01c2 26A8     		add	r0, sp, #152
 1071 01c4 FFF7FEFF 		bl	lv_draw_mask_add
 1072              	.LVL145:
 1073 01c8 0790     		str	r0, [sp, #28]
 1074              	.LVL146:
 361:..\..\..\arduinoLCD\test\Pain Drain\libraries\lvgl\src\draw\sw/lv_draw_sw_line.c ****     int16_t mask_top_id = LV_MASK_ID_INV;
 362:..\..\..\arduinoLCD\test\Pain Drain\libraries\lvgl\src\draw\sw/lv_draw_sw_line.c ****     int16_t mask_bottom_id = LV_MASK_ID_INV;
 363:..\..\..\arduinoLCD\test\Pain Drain\libraries\lvgl\src\draw\sw/lv_draw_sw_line.c **** 
 364:..\..\..\arduinoLCD\test\Pain Drain\libraries\lvgl\src\draw\sw/lv_draw_sw_line.c ****     if(!dsc->raw_end) {
 1075              		.loc 1 364 0
 1076 01ca 029B     		ldr	r3, [sp, #8]
 1077 01cc 5B7A     		ldrb	r3, [r3, #9]
 1078 01ce DB06     		lsls	r3, r3, #27
 1079 01d0 2CD4     		bmi	.L70
 365:..\..\..\arduinoLCD\test\Pain Drain\libraries\lvgl\src\draw\sw/lv_draw_sw_line.c ****         lv_draw_mask_line_points_init(&mask_top_param, p1.x, p1.y, p1.x - ydiff, p1.y + xdiff, LV_D
 1080              		.loc 1 365 0
 1081 01d2 3FAB     		add	r3, sp, #252
 1082 01d4 0022     		movs	r2, #0
 1083 01d6 995E     		ldrsh	r1, [r3, r2]
 1084 01d8 6A46     		mov	r2, sp
 1085 01da 948A     		ldrh	r4, [r2, #20]
 1086 01dc 0222     		movs	r2, #2
 1087 01de 9A5E     		ldrsh	r2, [r3, r2]
 1088 01e0 6B46     		mov	r3, sp
 1089 01e2 9D89     		ldrh	r5, [r3, #12]
 1090 01e4 0B1B     		subs	r3, r1, r4
 1091 01e6 1BB2     		sxth	r3, r3
 1092 01e8 0320     		movs	r0, #3
 1093 01ea 0190     		str	r0, [sp, #4]
ARM GAS  C:\Users\haske\AppData\Local\Temp\ccpgnYma.s 			page 29


 1094 01ec A818     		adds	r0, r5, r2
 1095 01ee 00B2     		sxth	r0, r0
 1096 01f0 0090     		str	r0, [sp]
 1097 01f2 1BA8     		add	r0, sp, #108
 1098 01f4 FFF7FEFF 		bl	lv_draw_mask_line_points_init
 1099              	.LVL147:
 366:..\..\..\arduinoLCD\test\Pain Drain\libraries\lvgl\src\draw\sw/lv_draw_sw_line.c ****         lv_draw_mask_line_points_init(&mask_bottom_param, p2.x, p2.y, p2.x - ydiff, p2.y + xdiff,  
 1100              		.loc 1 366 0
 1101 01f8 3EAB     		add	r3, sp, #248
 1102 01fa 0022     		movs	r2, #0
 1103 01fc 995E     		ldrsh	r1, [r3, r2]
 1104 01fe 0222     		movs	r2, #2
 1105 0200 9A5E     		ldrsh	r2, [r3, r2]
 1106 0202 0B1B     		subs	r3, r1, r4
 1107 0204 1BB2     		sxth	r3, r3
 1108 0206 0220     		movs	r0, #2
 1109 0208 0190     		str	r0, [sp, #4]
 1110 020a AD18     		adds	r5, r5, r2
 1111 020c 2DB2     		sxth	r5, r5
 1112 020e 0095     		str	r5, [sp]
 1113 0210 10A8     		add	r0, sp, #64
 1114 0212 FFF7FEFF 		bl	lv_draw_mask_line_points_init
 1115              	.LVL148:
 367:..\..\..\arduinoLCD\test\Pain Drain\libraries\lvgl\src\draw\sw/lv_draw_sw_line.c ****         mask_top_id = lv_draw_mask_add(&mask_top_param, NULL);
 1116              		.loc 1 367 0
 1117 0216 0021     		movs	r1, #0
 1118 0218 1BA8     		add	r0, sp, #108
 1119 021a FFF7FEFF 		bl	lv_draw_mask_add
 1120              	.LVL149:
 1121 021e 0390     		str	r0, [sp, #12]
 1122              	.LVL150:
 368:..\..\..\arduinoLCD\test\Pain Drain\libraries\lvgl\src\draw\sw/lv_draw_sw_line.c ****         mask_bottom_id = lv_draw_mask_add(&mask_bottom_param, NULL);
 1123              		.loc 1 368 0
 1124 0220 0021     		movs	r1, #0
 1125 0222 10A8     		add	r0, sp, #64
 1126              	.LVL151:
 1127 0224 FFF7FEFF 		bl	lv_draw_mask_add
 1128              	.LVL152:
 1129 0228 0490     		str	r0, [sp, #16]
 1130              	.LVL153:
 1131 022a 03E0     		b	.L59
 1132              	.LVL154:
 1133              	.L70:
 362:..\..\..\arduinoLCD\test\Pain Drain\libraries\lvgl\src\draw\sw/lv_draw_sw_line.c **** 
 1134              		.loc 1 362 0
 1135 022c 0123     		movs	r3, #1
 1136 022e 5B42     		rsbs	r3, r3, #0
 1137 0230 0493     		str	r3, [sp, #16]
 1138              	.LVL155:
 361:..\..\..\arduinoLCD\test\Pain Drain\libraries\lvgl\src\draw\sw/lv_draw_sw_line.c ****     int16_t mask_bottom_id = LV_MASK_ID_INV;
 1139              		.loc 1 361 0
 1140 0232 0393     		str	r3, [sp, #12]
 1141              	.LVL156:
 1142              	.L59:
 1143              	.LBB21:
 1144              	.LBB22:
 1145              		.loc 2 125 0
ARM GAS  C:\Users\haske\AppData\Local\Temp\ccpgnYma.s 			page 30


 1146 0234 3CAC     		add	r4, sp, #240
 1147              	.LVL157:
 1148 0236 0422     		movs	r2, #4
 1149 0238 A35E     		ldrsh	r3, [r4, r2]
 1150 023a 0022     		movs	r2, #0
 1151 023c A65E     		ldrsh	r6, [r4, r2]
 1152 023e 9E1B     		subs	r6, r3, r6
 1153 0240 0136     		adds	r6, r6, #1
 1154 0242 36B2     		sxth	r6, r6
 1155              	.LVL158:
 1156              	.LBE22:
 1157              	.LBE21:
 369:..\..\..\arduinoLCD\test\Pain Drain\libraries\lvgl\src\draw\sw/lv_draw_sw_line.c ****     }
 370:..\..\..\arduinoLCD\test\Pain Drain\libraries\lvgl\src\draw\sw/lv_draw_sw_line.c **** 
 371:..\..\..\arduinoLCD\test\Pain Drain\libraries\lvgl\src\draw\sw/lv_draw_sw_line.c ****     /*The real draw area is around the line.
 372:..\..\..\arduinoLCD\test\Pain Drain\libraries\lvgl\src\draw\sw/lv_draw_sw_line.c ****      *It's easy to calculate with steep lines, but the area can be very wide with very flat lines.
 373:..\..\..\arduinoLCD\test\Pain Drain\libraries\lvgl\src\draw\sw/lv_draw_sw_line.c ****      *So deal with it only with steep lines.*/
 374:..\..\..\arduinoLCD\test\Pain Drain\libraries\lvgl\src\draw\sw/lv_draw_sw_line.c ****     int32_t draw_area_w = lv_area_get_width(&blend_area);
 375:..\..\..\arduinoLCD\test\Pain Drain\libraries\lvgl\src\draw\sw/lv_draw_sw_line.c **** 
 376:..\..\..\arduinoLCD\test\Pain Drain\libraries\lvgl\src\draw\sw/lv_draw_sw_line.c ****     /*Draw the background line by line*/
 377:..\..\..\arduinoLCD\test\Pain Drain\libraries\lvgl\src\draw\sw/lv_draw_sw_line.c ****     int32_t h;
 378:..\..\..\arduinoLCD\test\Pain Drain\libraries\lvgl\src\draw\sw/lv_draw_sw_line.c ****     uint32_t hor_res = (uint32_t)lv_disp_get_hor_res(_lv_refr_get_disp_refreshing());
 1158              		.loc 1 378 0
 1159 0244 FFF7FEFF 		bl	_lv_refr_get_disp_refreshing
 1160              	.LVL159:
 1161 0248 FFF7FEFF 		bl	lv_disp_get_hor_res
 1162              	.LVL160:
 1163 024c 0700     		movs	r7, r0
 1164              	.LVL161:
 379:..\..\..\arduinoLCD\test\Pain Drain\libraries\lvgl\src\draw\sw/lv_draw_sw_line.c ****     size_t mask_buf_size = LV_MIN(lv_area_get_size(&blend_area), hor_res);
 1165              		.loc 1 379 0
 1166 024e 2000     		movs	r0, r4
 1167              	.LVL162:
 1168 0250 FFF7FEFF 		bl	lv_area_get_size
 1169              	.LVL163:
 1170 0254 8742     		cmp	r7, r0
 1171 0256 03D9     		bls	.L60
 1172              		.loc 1 379 0 is_stmt 0 discriminator 1
 1173 0258 3CA8     		add	r0, sp, #240
 1174 025a FFF7FEFF 		bl	lv_area_get_size
 1175              	.LVL164:
 1176 025e 0700     		movs	r7, r0
 1177              	.LVL165:
 1178              	.L60:
 380:..\..\..\arduinoLCD\test\Pain Drain\libraries\lvgl\src\draw\sw/lv_draw_sw_line.c ****     lv_opa_t * mask_buf = lv_mem_buf_get(mask_buf_size);
 1179              		.loc 1 380 0 is_stmt 1 discriminator 4
 1180 0260 3800     		movs	r0, r7
 1181 0262 FFF7FEFF 		bl	lv_mem_buf_get
 1182              	.LVL166:
 1183 0266 8046     		mov	r8, r0
 1184              	.LVL167:
 381:..\..\..\arduinoLCD\test\Pain Drain\libraries\lvgl\src\draw\sw/lv_draw_sw_line.c **** 
 382:..\..\..\arduinoLCD\test\Pain Drain\libraries\lvgl\src\draw\sw/lv_draw_sw_line.c ****     lv_coord_t y2 = blend_area.y2;
 1185              		.loc 1 382 0 discriminator 4
 1186 0268 3CAC     		add	r4, sp, #240
 1187 026a 0622     		movs	r2, #6
 1188 026c A35E     		ldrsh	r3, [r4, r2]
ARM GAS  C:\Users\haske\AppData\Local\Temp\ccpgnYma.s 			page 31


 1189 026e 9B46     		mov	fp, r3
 1190              	.LVL168:
 383:..\..\..\arduinoLCD\test\Pain Drain\libraries\lvgl\src\draw\sw/lv_draw_sw_line.c ****     blend_area.y2 = blend_area.y1;
 1191              		.loc 1 383 0 discriminator 4
 1192 0270 0222     		movs	r2, #2
 1193 0272 A35E     		ldrsh	r3, [r4, r2]
 1194 0274 E380     		strh	r3, [r4, #6]
 1195              	.LVL169:
 384:..\..\..\arduinoLCD\test\Pain Drain\libraries\lvgl\src\draw\sw/lv_draw_sw_line.c **** 
 385:..\..\..\arduinoLCD\test\Pain Drain\libraries\lvgl\src\draw\sw/lv_draw_sw_line.c ****     uint32_t mask_p = 0;
 386:..\..\..\arduinoLCD\test\Pain Drain\libraries\lvgl\src\draw\sw/lv_draw_sw_line.c ****     lv_memset_ff(mask_buf, mask_buf_size);
 1196              		.loc 1 386 0 discriminator 4
 1197 0276 3900     		movs	r1, r7
 1198 0278 FFF7FEFF 		bl	lv_memset_ff
 1199              	.LVL170:
 387:..\..\..\arduinoLCD\test\Pain Drain\libraries\lvgl\src\draw\sw/lv_draw_sw_line.c **** 
 388:..\..\..\arduinoLCD\test\Pain Drain\libraries\lvgl\src\draw\sw/lv_draw_sw_line.c ****     lv_draw_sw_blend_dsc_t blend_dsc;
 389:..\..\..\arduinoLCD\test\Pain Drain\libraries\lvgl\src\draw\sw/lv_draw_sw_line.c ****     lv_memset_00(&blend_dsc, sizeof(blend_dsc));
 1200              		.loc 1 389 0 discriminator 4
 1201 027c 09AD     		add	r5, sp, #36
 1202 027e 1C21     		movs	r1, #28
 1203 0280 2800     		movs	r0, r5
 1204 0282 FFF7FEFF 		bl	lv_memset_00
 1205              	.LVL171:
 390:..\..\..\arduinoLCD\test\Pain Drain\libraries\lvgl\src\draw\sw/lv_draw_sw_line.c ****     blend_dsc.blend_area = &blend_area;
 1206              		.loc 1 390 0 discriminator 4
 1207 0286 0994     		str	r4, [sp, #36]
 391:..\..\..\arduinoLCD\test\Pain Drain\libraries\lvgl\src\draw\sw/lv_draw_sw_line.c ****     blend_dsc.color = dsc->color;
 1208              		.loc 1 391 0 discriminator 4
 1209 0288 029A     		ldr	r2, [sp, #8]
 1210 028a 1388     		ldrh	r3, [r2]
 1211 028c 2B81     		strh	r3, [r5, #8]
 392:..\..\..\arduinoLCD\test\Pain Drain\libraries\lvgl\src\draw\sw/lv_draw_sw_line.c ****     blend_dsc.opa = dsc->opa;
 1212              		.loc 1 392 0 discriminator 4
 1213 028e 137A     		ldrb	r3, [r2, #8]
 1214 0290 2B76     		strb	r3, [r5, #24]
 393:..\..\..\arduinoLCD\test\Pain Drain\libraries\lvgl\src\draw\sw/lv_draw_sw_line.c ****     blend_dsc.mask_buf = mask_buf;
 1215              		.loc 1 393 0 discriminator 4
 1216 0292 4346     		mov	r3, r8
 1217 0294 EB60     		str	r3, [r5, #12]
 394:..\..\..\arduinoLCD\test\Pain Drain\libraries\lvgl\src\draw\sw/lv_draw_sw_line.c ****     blend_dsc.mask_area = &blend_area;
 1218              		.loc 1 394 0 discriminator 4
 1219 0296 6C61     		str	r4, [r5, #20]
 395:..\..\..\arduinoLCD\test\Pain Drain\libraries\lvgl\src\draw\sw/lv_draw_sw_line.c **** 
 396:..\..\..\arduinoLCD\test\Pain Drain\libraries\lvgl\src\draw\sw/lv_draw_sw_line.c ****     /*Fill the first row with 'color'*/
 397:..\..\..\arduinoLCD\test\Pain Drain\libraries\lvgl\src\draw\sw/lv_draw_sw_line.c ****     for(h = blend_area.y1; h <= y2; h++) {
 1220              		.loc 1 397 0 discriminator 4
 1221 0298 0223     		movs	r3, #2
 1222 029a E55E     		ldrsh	r5, [r4, r3]
 1223              	.LVL172:
 385:..\..\..\arduinoLCD\test\Pain Drain\libraries\lvgl\src\draw\sw/lv_draw_sw_line.c ****     lv_memset_ff(mask_buf, mask_buf_size);
 1224              		.loc 1 385 0 discriminator 4
 1225 029c 0024     		movs	r4, #0
 1226 029e BA46     		mov	r10, r7
 1227              	.LVL173:
 1228              		.loc 1 397 0 discriminator 4
 1229 02a0 2EE0     		b	.L61
ARM GAS  C:\Users\haske\AppData\Local\Temp\ccpgnYma.s 			page 32


 1230              	.LVL174:
 1231              	.L65:
 398:..\..\..\arduinoLCD\test\Pain Drain\libraries\lvgl\src\draw\sw/lv_draw_sw_line.c ****         blend_dsc.mask_res = lv_draw_mask_apply(&mask_buf[mask_p], blend_area.x1, h, draw_area_w);
 1232              		.loc 1 398 0
 1233 02a2 4346     		mov	r3, r8
 1234 02a4 1F19     		adds	r7, r3, r4
 1235 02a6 2AB2     		sxth	r2, r5
 1236 02a8 3CAB     		add	r3, sp, #240
 1237 02aa 0021     		movs	r1, #0
 1238 02ac 595E     		ldrsh	r1, [r3, r1]
 1239 02ae 3300     		movs	r3, r6
 1240 02b0 3800     		movs	r0, r7
 1241 02b2 FFF7FEFF 		bl	lv_draw_mask_apply
 1242              	.LVL175:
 1243 02b6 09AB     		add	r3, sp, #36
 1244 02b8 1874     		strb	r0, [r3, #16]
 399:..\..\..\arduinoLCD\test\Pain Drain\libraries\lvgl\src\draw\sw/lv_draw_sw_line.c ****         if(blend_dsc.mask_res == LV_DRAW_MASK_RES_TRANSP) {
 1245              		.loc 1 399 0
 1246 02ba 0028     		cmp	r0, #0
 1247 02bc 03D1     		bne	.L62
 400:..\..\..\arduinoLCD\test\Pain Drain\libraries\lvgl\src\draw\sw/lv_draw_sw_line.c ****             lv_memset_00(&mask_buf[mask_p], draw_area_w);
 1248              		.loc 1 400 0
 1249 02be 3100     		movs	r1, r6
 1250 02c0 3800     		movs	r0, r7
 1251 02c2 FFF7FEFF 		bl	lv_memset_00
 1252              	.LVL176:
 1253              	.L62:
 401:..\..\..\arduinoLCD\test\Pain Drain\libraries\lvgl\src\draw\sw/lv_draw_sw_line.c ****         }
 402:..\..\..\arduinoLCD\test\Pain Drain\libraries\lvgl\src\draw\sw/lv_draw_sw_line.c **** 
 403:..\..\..\arduinoLCD\test\Pain Drain\libraries\lvgl\src\draw\sw/lv_draw_sw_line.c ****         mask_p += draw_area_w;
 1254              		.loc 1 403 0
 1255 02c6 A419     		adds	r4, r4, r6
 1256              	.LVL177:
 404:..\..\..\arduinoLCD\test\Pain Drain\libraries\lvgl\src\draw\sw/lv_draw_sw_line.c ****         if((uint32_t) mask_p + draw_area_w < mask_buf_size) {
 1257              		.loc 1 404 0
 1258 02c8 3319     		adds	r3, r6, r4
 1259 02ca 9A45     		cmp	r10, r3
 1260 02cc 05D9     		bls	.L63
 405:..\..\..\arduinoLCD\test\Pain Drain\libraries\lvgl\src\draw\sw/lv_draw_sw_line.c ****             blend_area.y2 ++;
 1261              		.loc 1 405 0
 1262 02ce 3CAA     		add	r2, sp, #240
 1263 02d0 0621     		movs	r1, #6
 1264 02d2 535E     		ldrsh	r3, [r2, r1]
 1265 02d4 0133     		adds	r3, r3, #1
 1266 02d6 D380     		strh	r3, [r2, #6]
 1267 02d8 11E0     		b	.L64
 1268              	.L63:
 406:..\..\..\arduinoLCD\test\Pain Drain\libraries\lvgl\src\draw\sw/lv_draw_sw_line.c ****         }
 407:..\..\..\arduinoLCD\test\Pain Drain\libraries\lvgl\src\draw\sw/lv_draw_sw_line.c ****         else {
 408:..\..\..\arduinoLCD\test\Pain Drain\libraries\lvgl\src\draw\sw/lv_draw_sw_line.c ****             blend_dsc.mask_res = LV_DRAW_MASK_RES_CHANGED;
 1269              		.loc 1 408 0
 1270 02da 09A9     		add	r1, sp, #36
 1271 02dc 0223     		movs	r3, #2
 1272 02de 0B74     		strb	r3, [r1, #16]
 409:..\..\..\arduinoLCD\test\Pain Drain\libraries\lvgl\src\draw\sw/lv_draw_sw_line.c ****             lv_draw_sw_blend(draw_ctx, &blend_dsc);
 1273              		.loc 1 409 0
 1274 02e0 4846     		mov	r0, r9
ARM GAS  C:\Users\haske\AppData\Local\Temp\ccpgnYma.s 			page 33


 1275 02e2 FFF7FEFF 		bl	lv_draw_sw_blend
 1276              	.LVL178:
 410:..\..\..\arduinoLCD\test\Pain Drain\libraries\lvgl\src\draw\sw/lv_draw_sw_line.c **** 
 411:..\..\..\arduinoLCD\test\Pain Drain\libraries\lvgl\src\draw\sw/lv_draw_sw_line.c ****             blend_area.y1 = blend_area.y2 + 1;
 1277              		.loc 1 411 0
 1278 02e6 3CAA     		add	r2, sp, #240
 1279 02e8 0621     		movs	r1, #6
 1280 02ea 535E     		ldrsh	r3, [r2, r1]
 1281 02ec 0133     		adds	r3, r3, #1
 1282 02ee 1BB2     		sxth	r3, r3
 1283 02f0 5380     		strh	r3, [r2, #2]
 412:..\..\..\arduinoLCD\test\Pain Drain\libraries\lvgl\src\draw\sw/lv_draw_sw_line.c ****             blend_area.y2 = blend_area.y1;
 1284              		.loc 1 412 0
 1285 02f2 D380     		strh	r3, [r2, #6]
 1286              	.LVL179:
 413:..\..\..\arduinoLCD\test\Pain Drain\libraries\lvgl\src\draw\sw/lv_draw_sw_line.c ****             mask_p = 0;
 414:..\..\..\arduinoLCD\test\Pain Drain\libraries\lvgl\src\draw\sw/lv_draw_sw_line.c ****             lv_memset_ff(mask_buf, mask_buf_size);
 1287              		.loc 1 414 0
 1288 02f4 5146     		mov	r1, r10
 1289 02f6 4046     		mov	r0, r8
 1290 02f8 FFF7FEFF 		bl	lv_memset_ff
 1291              	.LVL180:
 413:..\..\..\arduinoLCD\test\Pain Drain\libraries\lvgl\src\draw\sw/lv_draw_sw_line.c ****             mask_p = 0;
 1292              		.loc 1 413 0
 1293 02fc 0024     		movs	r4, #0
 1294              	.LVL181:
 1295              	.L64:
 397:..\..\..\arduinoLCD\test\Pain Drain\libraries\lvgl\src\draw\sw/lv_draw_sw_line.c ****         blend_dsc.mask_res = lv_draw_mask_apply(&mask_buf[mask_p], blend_area.x1, h, draw_area_w);
 1296              		.loc 1 397 0 discriminator 2
 1297 02fe 0135     		adds	r5, r5, #1
 1298              	.LVL182:
 1299              	.L61:
 397:..\..\..\arduinoLCD\test\Pain Drain\libraries\lvgl\src\draw\sw/lv_draw_sw_line.c ****         blend_dsc.mask_res = lv_draw_mask_apply(&mask_buf[mask_p], blend_area.x1, h, draw_area_w);
 1300              		.loc 1 397 0 is_stmt 0 discriminator 1
 1301 0300 5D45     		cmp	r5, fp
 1302 0302 CEDD     		ble	.L65
 415:..\..\..\arduinoLCD\test\Pain Drain\libraries\lvgl\src\draw\sw/lv_draw_sw_line.c ****         }
 416:..\..\..\arduinoLCD\test\Pain Drain\libraries\lvgl\src\draw\sw/lv_draw_sw_line.c ****     }
 417:..\..\..\arduinoLCD\test\Pain Drain\libraries\lvgl\src\draw\sw/lv_draw_sw_line.c **** 
 418:..\..\..\arduinoLCD\test\Pain Drain\libraries\lvgl\src\draw\sw/lv_draw_sw_line.c ****     /*Flush the last part*/
 419:..\..\..\arduinoLCD\test\Pain Drain\libraries\lvgl\src\draw\sw/lv_draw_sw_line.c ****     if(blend_area.y1 != blend_area.y2) {
 1303              		.loc 1 419 0 is_stmt 1
 1304 0304 3CAB     		add	r3, sp, #240
 1305 0306 0221     		movs	r1, #2
 1306 0308 5A5E     		ldrsh	r2, [r3, r1]
 1307 030a 0621     		movs	r1, #6
 1308 030c 5B5E     		ldrsh	r3, [r3, r1]
 1309 030e 9A42     		cmp	r2, r3
 1310 0310 08D0     		beq	.L66
 420:..\..\..\arduinoLCD\test\Pain Drain\libraries\lvgl\src\draw\sw/lv_draw_sw_line.c ****         blend_area.y2--;
 1311              		.loc 1 420 0
 1312 0312 013B     		subs	r3, r3, #1
 1313 0314 3CAA     		add	r2, sp, #240
 1314 0316 D380     		strh	r3, [r2, #6]
 421:..\..\..\arduinoLCD\test\Pain Drain\libraries\lvgl\src\draw\sw/lv_draw_sw_line.c ****         blend_dsc.mask_res = LV_DRAW_MASK_RES_CHANGED;
 1315              		.loc 1 421 0
 1316 0318 09A9     		add	r1, sp, #36
ARM GAS  C:\Users\haske\AppData\Local\Temp\ccpgnYma.s 			page 34


 1317 031a 0223     		movs	r3, #2
 1318 031c 0B74     		strb	r3, [r1, #16]
 422:..\..\..\arduinoLCD\test\Pain Drain\libraries\lvgl\src\draw\sw/lv_draw_sw_line.c ****         lv_draw_sw_blend(draw_ctx, &blend_dsc);
 1319              		.loc 1 422 0
 1320 031e 4846     		mov	r0, r9
 1321 0320 FFF7FEFF 		bl	lv_draw_sw_blend
 1322              	.LVL183:
 1323              	.L66:
 423:..\..\..\arduinoLCD\test\Pain Drain\libraries\lvgl\src\draw\sw/lv_draw_sw_line.c ****     }
 424:..\..\..\arduinoLCD\test\Pain Drain\libraries\lvgl\src\draw\sw/lv_draw_sw_line.c **** 
 425:..\..\..\arduinoLCD\test\Pain Drain\libraries\lvgl\src\draw\sw/lv_draw_sw_line.c ****     lv_mem_buf_release(mask_buf);
 1324              		.loc 1 425 0
 1325 0324 4046     		mov	r0, r8
 1326 0326 FFF7FEFF 		bl	lv_mem_buf_release
 1327              	.LVL184:
 426:..\..\..\arduinoLCD\test\Pain Drain\libraries\lvgl\src\draw\sw/lv_draw_sw_line.c **** 
 427:..\..\..\arduinoLCD\test\Pain Drain\libraries\lvgl\src\draw\sw/lv_draw_sw_line.c ****     lv_draw_mask_free_param(&mask_left_param);
 1328              		.loc 1 427 0
 1329 032a 31A8     		add	r0, sp, #196
 1330 032c FFF7FEFF 		bl	lv_draw_mask_free_param
 1331              	.LVL185:
 428:..\..\..\arduinoLCD\test\Pain Drain\libraries\lvgl\src\draw\sw/lv_draw_sw_line.c ****     lv_draw_mask_free_param(&mask_right_param);
 1332              		.loc 1 428 0
 1333 0330 26A8     		add	r0, sp, #152
 1334 0332 FFF7FEFF 		bl	lv_draw_mask_free_param
 1335              	.LVL186:
 429:..\..\..\arduinoLCD\test\Pain Drain\libraries\lvgl\src\draw\sw/lv_draw_sw_line.c ****     if(mask_top_id != LV_MASK_ID_INV) lv_draw_mask_free_param(&mask_top_param);
 1336              		.loc 1 429 0
 1337 0336 039B     		ldr	r3, [sp, #12]
 1338 0338 0133     		adds	r3, r3, #1
 1339 033a 02D0     		beq	.L67
 1340              		.loc 1 429 0 is_stmt 0 discriminator 1
 1341 033c 1BA8     		add	r0, sp, #108
 1342 033e FFF7FEFF 		bl	lv_draw_mask_free_param
 1343              	.LVL187:
 1344              	.L67:
 430:..\..\..\arduinoLCD\test\Pain Drain\libraries\lvgl\src\draw\sw/lv_draw_sw_line.c ****     if(mask_bottom_id != LV_MASK_ID_INV) lv_draw_mask_free_param(&mask_bottom_param);
 1345              		.loc 1 430 0 is_stmt 1
 1346 0342 049B     		ldr	r3, [sp, #16]
 1347 0344 0133     		adds	r3, r3, #1
 1348 0346 02D0     		beq	.L68
 1349              		.loc 1 430 0 is_stmt 0 discriminator 1
 1350 0348 10A8     		add	r0, sp, #64
 1351 034a FFF7FEFF 		bl	lv_draw_mask_free_param
 1352              	.LVL188:
 1353              	.L68:
 431:..\..\..\arduinoLCD\test\Pain Drain\libraries\lvgl\src\draw\sw/lv_draw_sw_line.c ****     lv_draw_mask_remove_id(mask_left_id);
 1354              		.loc 1 431 0 is_stmt 1
 1355 034e 0698     		ldr	r0, [sp, #24]
 1356 0350 FFF7FEFF 		bl	lv_draw_mask_remove_id
 1357              	.LVL189:
 432:..\..\..\arduinoLCD\test\Pain Drain\libraries\lvgl\src\draw\sw/lv_draw_sw_line.c ****     lv_draw_mask_remove_id(mask_right_id);
 1358              		.loc 1 432 0
 1359 0354 0798     		ldr	r0, [sp, #28]
 1360 0356 FFF7FEFF 		bl	lv_draw_mask_remove_id
 1361              	.LVL190:
 433:..\..\..\arduinoLCD\test\Pain Drain\libraries\lvgl\src\draw\sw/lv_draw_sw_line.c ****     lv_draw_mask_remove_id(mask_top_id);
ARM GAS  C:\Users\haske\AppData\Local\Temp\ccpgnYma.s 			page 35


 1362              		.loc 1 433 0
 1363 035a 0398     		ldr	r0, [sp, #12]
 1364 035c FFF7FEFF 		bl	lv_draw_mask_remove_id
 1365              	.LVL191:
 434:..\..\..\arduinoLCD\test\Pain Drain\libraries\lvgl\src\draw\sw/lv_draw_sw_line.c ****     lv_draw_mask_remove_id(mask_bottom_id);
 1366              		.loc 1 434 0
 1367 0360 0498     		ldr	r0, [sp, #16]
 1368 0362 FFF7FEFF 		bl	lv_draw_mask_remove_id
 1369              	.LVL192:
 1370              	.L46:
 435:..\..\..\arduinoLCD\test\Pain Drain\libraries\lvgl\src\draw\sw/lv_draw_sw_line.c **** #else
 436:..\..\..\arduinoLCD\test\Pain Drain\libraries\lvgl\src\draw\sw/lv_draw_sw_line.c ****     LV_UNUSED(point1);
 437:..\..\..\arduinoLCD\test\Pain Drain\libraries\lvgl\src\draw\sw/lv_draw_sw_line.c ****     LV_UNUSED(point2);
 438:..\..\..\arduinoLCD\test\Pain Drain\libraries\lvgl\src\draw\sw/lv_draw_sw_line.c ****     LV_UNUSED(draw_ctx);
 439:..\..\..\arduinoLCD\test\Pain Drain\libraries\lvgl\src\draw\sw/lv_draw_sw_line.c ****     LV_UNUSED(dsc);
 440:..\..\..\arduinoLCD\test\Pain Drain\libraries\lvgl\src\draw\sw/lv_draw_sw_line.c ****     LV_LOG_WARN("Can't draw skewed line with LV_DRAW_COMPLEX == 0");
 441:..\..\..\arduinoLCD\test\Pain Drain\libraries\lvgl\src\draw\sw/lv_draw_sw_line.c **** #endif /*LV_DRAW_COMPLEX*/
 442:..\..\..\arduinoLCD\test\Pain Drain\libraries\lvgl\src\draw\sw/lv_draw_sw_line.c **** }
 1371              		.loc 1 442 0
 1372 0366 41B0     		add	sp, sp, #260
 1373              		@ sp needed
 1374              	.LVL193:
 1375 0368 3CBC     		pop	{r2, r3, r4, r5}
 1376 036a 9046     		mov	r8, r2
 1377 036c 9946     		mov	r9, r3
 1378 036e A246     		mov	r10, r4
 1379 0370 AB46     		mov	fp, r5
 1380 0372 F0BD     		pop	{r4, r5, r6, r7, pc}
 1381              	.L72:
 1382              		.align	2
 1383              	.L71:
 1384 0374 00000000 		.word	.LANCHOR0
 1385              		.cfi_endproc
 1386              	.LFE162:
 1387              		.size	draw_line_skew, .-draw_line_skew
 1388              		.section	.text.lv_draw_sw_line,"ax",%progbits
 1389              		.align	2
 1390              		.global	lv_draw_sw_line
 1391              		.code	16
 1392              		.thumb_func
 1393              		.type	lv_draw_sw_line, %function
 1394              	lv_draw_sw_line:
 1395              	.LFB159:
  54:..\..\..\arduinoLCD\test\Pain Drain\libraries\lvgl\src\draw\sw/lv_draw_sw_line.c ****     if(dsc->width == 0) return;
 1396              		.loc 1 54 0
 1397              		.cfi_startproc
 1398              		@ args = 0, pretend = 0, frame = 80
 1399              		@ frame_needed = 0, uses_anonymous_args = 0
 1400              	.LVL194:
 1401 0000 F0B5     		push	{r4, r5, r6, r7, lr}
 1402              		.cfi_def_cfa_offset 20
 1403              		.cfi_offset 4, -20
 1404              		.cfi_offset 5, -16
 1405              		.cfi_offset 6, -12
 1406              		.cfi_offset 7, -8
 1407              		.cfi_offset 14, -4
 1408 0002 5746     		mov	r7, r10
ARM GAS  C:\Users\haske\AppData\Local\Temp\ccpgnYma.s 			page 36


 1409 0004 4E46     		mov	r6, r9
 1410 0006 4546     		mov	r5, r8
 1411 0008 E0B4     		push	{r5, r6, r7}
 1412              		.cfi_def_cfa_offset 32
 1413              		.cfi_offset 8, -32
 1414              		.cfi_offset 9, -28
 1415              		.cfi_offset 10, -24
 1416 000a 94B0     		sub	sp, sp, #80
 1417              		.cfi_def_cfa_offset 112
 1418 000c 0700     		movs	r7, r0
 1419 000e 0C00     		movs	r4, r1
 1420 0010 1600     		movs	r6, r2
 1421 0012 1D00     		movs	r5, r3
  55:..\..\..\arduinoLCD\test\Pain Drain\libraries\lvgl\src\draw\sw/lv_draw_sw_line.c ****     if(dsc->opa <= LV_OPA_MIN) return;
 1422              		.loc 1 55 0
 1423 0014 0222     		movs	r2, #2
 1424 0016 8B5E     		ldrsh	r3, [r1, r2]
 1425              	.LVL195:
 1426 0018 002B     		cmp	r3, #0
 1427 001a 00D1     		bne	.LCB1394
 1428 001c D0E0     		b	.L73	@long jump
 1429              	.LCB1394:
  56:..\..\..\arduinoLCD\test\Pain Drain\libraries\lvgl\src\draw\sw/lv_draw_sw_line.c **** 
 1430              		.loc 1 56 0
 1431 001e 0A7A     		ldrb	r2, [r1, #8]
 1432 0020 022A     		cmp	r2, #2
 1433 0022 00D8     		bhi	.LCB1397
 1434 0024 CCE0     		b	.L73	@long jump
 1435              	.LCB1397:
  58:..\..\..\arduinoLCD\test\Pain Drain\libraries\lvgl\src\draw\sw/lv_draw_sw_line.c **** 
 1436              		.loc 1 58 0
 1437 0026 0022     		movs	r2, #0
 1438 0028 B15E     		ldrsh	r1, [r6, r2]
 1439              	.LVL196:
 1440 002a 0022     		movs	r2, #0
 1441 002c A85E     		ldrsh	r0, [r5, r2]
 1442              	.LVL197:
 1443 002e 8046     		mov	r8, r0
 1444 0030 8142     		cmp	r1, r0
 1445 0032 07D1     		bne	.L75
  58:..\..\..\arduinoLCD\test\Pain Drain\libraries\lvgl\src\draw\sw/lv_draw_sw_line.c **** 
 1446              		.loc 1 58 0 is_stmt 0 discriminator 1
 1447 0034 0220     		movs	r0, #2
 1448 0036 325E     		ldrsh	r2, [r6, r0]
 1449 0038 9446     		mov	ip, r2
 1450 003a 0220     		movs	r0, #2
 1451 003c 2A5E     		ldrsh	r2, [r5, r0]
 1452 003e 9445     		cmp	ip, r2
 1453 0040 00D1     		bne	.LCB1409
 1454 0042 BDE0     		b	.L73	@long jump
 1455              	.LCB1409:
 1456              	.L75:
  61:..\..\..\arduinoLCD\test\Pain Drain\libraries\lvgl\src\draw\sw/lv_draw_sw_line.c ****     clip_line.x2 = LV_MAX(point1->x, point2->x) + dsc->width / 2;
 1457              		.loc 1 61 0 is_stmt 1
 1458 0044 0A1C     		adds	r2, r1, #0
 1459 0046 4145     		cmp	r1, r8
 1460 0048 00DD     		ble	.L76
ARM GAS  C:\Users\haske\AppData\Local\Temp\ccpgnYma.s 			page 37


 1461 004a 4246     		mov	r2, r8
 1462              	.L76:
 1463 004c D90F     		lsrs	r1, r3, #31
 1464 004e CB18     		adds	r3, r1, r3
 1465 0050 5B10     		asrs	r3, r3, #1
 1466 0052 9BB2     		uxth	r3, r3
 1467 0054 D21A     		subs	r2, r2, r3
 1468 0056 12A9     		add	r1, sp, #72
 1469 0058 0A80     		strh	r2, [r1]
  62:..\..\..\arduinoLCD\test\Pain Drain\libraries\lvgl\src\draw\sw/lv_draw_sw_line.c ****     clip_line.y1 = LV_MIN(point1->y, point2->y) - dsc->width / 2;
 1470              		.loc 1 62 0
 1471 005a 0022     		movs	r2, #0
 1472 005c A95E     		ldrsh	r1, [r5, r2]
 1473 005e 0022     		movs	r2, #0
 1474 0060 B05E     		ldrsh	r0, [r6, r2]
 1475 0062 0A1C     		adds	r2, r1, #0
 1476 0064 8142     		cmp	r1, r0
 1477 0066 00DA     		bge	.L77
 1478 0068 021C     		adds	r2, r0, #0
 1479              	.L77:
 1480 006a 9B18     		adds	r3, r3, r2
 1481 006c 12AA     		add	r2, sp, #72
 1482 006e 9380     		strh	r3, [r2, #4]
  63:..\..\..\arduinoLCD\test\Pain Drain\libraries\lvgl\src\draw\sw/lv_draw_sw_line.c ****     clip_line.y2 = LV_MAX(point1->y, point2->y) + dsc->width / 2;
 1483              		.loc 1 63 0
 1484 0070 0222     		movs	r2, #2
 1485 0072 AB5E     		ldrsh	r3, [r5, r2]
 1486 0074 0222     		movs	r2, #2
 1487 0076 B15E     		ldrsh	r1, [r6, r2]
 1488 0078 1A1C     		adds	r2, r3, #0
 1489 007a 8B42     		cmp	r3, r1
 1490 007c 00DD     		ble	.L78
 1491 007e 0A1C     		adds	r2, r1, #0
 1492              	.L78:
 1493 0080 0221     		movs	r1, #2
 1494 0082 635E     		ldrsh	r3, [r4, r1]
 1495 0084 D90F     		lsrs	r1, r3, #31
 1496 0086 CB18     		adds	r3, r1, r3
 1497 0088 5B10     		asrs	r3, r3, #1
 1498 008a D31A     		subs	r3, r2, r3
 1499 008c 12AA     		add	r2, sp, #72
 1500 008e 5380     		strh	r3, [r2, #2]
  64:..\..\..\arduinoLCD\test\Pain Drain\libraries\lvgl\src\draw\sw/lv_draw_sw_line.c **** 
 1501              		.loc 1 64 0
 1502 0090 0222     		movs	r2, #2
 1503 0092 AB5E     		ldrsh	r3, [r5, r2]
 1504 0094 0222     		movs	r2, #2
 1505 0096 B15E     		ldrsh	r1, [r6, r2]
 1506 0098 1A1C     		adds	r2, r3, #0
 1507 009a 8B42     		cmp	r3, r1
 1508 009c 00DA     		bge	.L79
 1509 009e 0A1C     		adds	r2, r1, #0
 1510              	.L79:
 1511 00a0 0221     		movs	r1, #2
 1512 00a2 635E     		ldrsh	r3, [r4, r1]
 1513 00a4 12A8     		add	r0, sp, #72
 1514 00a6 D90F     		lsrs	r1, r3, #31
ARM GAS  C:\Users\haske\AppData\Local\Temp\ccpgnYma.s 			page 38


 1515 00a8 CB18     		adds	r3, r1, r3
 1516 00aa 5B10     		asrs	r3, r3, #1
 1517 00ac 9B18     		adds	r3, r3, r2
 1518 00ae C380     		strh	r3, [r0, #6]
  67:..\..\..\arduinoLCD\test\Pain Drain\libraries\lvgl\src\draw\sw/lv_draw_sw_line.c ****     if(!is_common) return;
 1519              		.loc 1 67 0
 1520 00b0 BA68     		ldr	r2, [r7, #8]
 1521 00b2 0100     		movs	r1, r0
 1522 00b4 FFF7FEFF 		bl	_lv_area_intersect
 1523              	.LVL198:
  68:..\..\..\arduinoLCD\test\Pain Drain\libraries\lvgl\src\draw\sw/lv_draw_sw_line.c ****     const lv_area_t * clip_area_ori = draw_ctx->clip_area;
 1524              		.loc 1 68 0
 1525 00b8 0028     		cmp	r0, #0
 1526 00ba 00D1     		bne	.LCB1480
 1527 00bc 80E0     		b	.L73	@long jump
 1528              	.LCB1480:
  69:..\..\..\arduinoLCD\test\Pain Drain\libraries\lvgl\src\draw\sw/lv_draw_sw_line.c ****     draw_ctx->clip_area = &clip_line;
 1529              		.loc 1 69 0
 1530 00be BB68     		ldr	r3, [r7, #8]
 1531 00c0 9946     		mov	r9, r3
 1532              	.LVL199:
  70:..\..\..\arduinoLCD\test\Pain Drain\libraries\lvgl\src\draw\sw/lv_draw_sw_line.c **** 
 1533              		.loc 1 70 0
 1534 00c2 12AB     		add	r3, sp, #72
 1535              	.LVL200:
 1536 00c4 BB60     		str	r3, [r7, #8]
  72:..\..\..\arduinoLCD\test\Pain Drain\libraries\lvgl\src\draw\sw/lv_draw_sw_line.c ****     else if(point1->x == point2->x) draw_line_ver(draw_ctx, dsc, point1, point2);
 1537              		.loc 1 72 0
 1538 00c6 0223     		movs	r3, #2
 1539 00c8 F25E     		ldrsh	r2, [r6, r3]
 1540 00ca 0221     		movs	r1, #2
 1541 00cc 6B5E     		ldrsh	r3, [r5, r1]
 1542 00ce 9A42     		cmp	r2, r3
 1543 00d0 06D1     		bne	.L80
  72:..\..\..\arduinoLCD\test\Pain Drain\libraries\lvgl\src\draw\sw/lv_draw_sw_line.c ****     else if(point1->x == point2->x) draw_line_ver(draw_ctx, dsc, point1, point2);
 1544              		.loc 1 72 0 is_stmt 0 discriminator 1
 1545 00d2 2B00     		movs	r3, r5
 1546 00d4 3200     		movs	r2, r6
 1547 00d6 2100     		movs	r1, r4
 1548 00d8 3800     		movs	r0, r7
 1549              	.LVL201:
 1550 00da FFF7FEFF 		bl	draw_line_hor
 1551              	.LVL202:
 1552 00de 12E0     		b	.L81
 1553              	.LVL203:
 1554              	.L80:
  73:..\..\..\arduinoLCD\test\Pain Drain\libraries\lvgl\src\draw\sw/lv_draw_sw_line.c ****     else draw_line_skew(draw_ctx, dsc, point1, point2);
 1555              		.loc 1 73 0 is_stmt 1
 1556 00e0 0023     		movs	r3, #0
 1557 00e2 F25E     		ldrsh	r2, [r6, r3]
 1558 00e4 0021     		movs	r1, #0
 1559 00e6 6B5E     		ldrsh	r3, [r5, r1]
 1560 00e8 9A42     		cmp	r2, r3
 1561 00ea 06D1     		bne	.L82
  73:..\..\..\arduinoLCD\test\Pain Drain\libraries\lvgl\src\draw\sw/lv_draw_sw_line.c ****     else draw_line_skew(draw_ctx, dsc, point1, point2);
 1562              		.loc 1 73 0 is_stmt 0 discriminator 1
 1563 00ec 2B00     		movs	r3, r5
ARM GAS  C:\Users\haske\AppData\Local\Temp\ccpgnYma.s 			page 39


 1564 00ee 3200     		movs	r2, r6
 1565 00f0 2100     		movs	r1, r4
 1566 00f2 3800     		movs	r0, r7
 1567              	.LVL204:
 1568 00f4 FFF7FEFF 		bl	draw_line_ver
 1569              	.LVL205:
 1570 00f8 05E0     		b	.L81
 1571              	.LVL206:
 1572              	.L82:
  74:..\..\..\arduinoLCD\test\Pain Drain\libraries\lvgl\src\draw\sw/lv_draw_sw_line.c **** 
 1573              		.loc 1 74 0 is_stmt 1
 1574 00fa 2B00     		movs	r3, r5
 1575 00fc 3200     		movs	r2, r6
 1576 00fe 2100     		movs	r1, r4
 1577 0100 3800     		movs	r0, r7
 1578              	.LVL207:
 1579 0102 FFF7FEFF 		bl	draw_line_skew
 1580              	.LVL208:
 1581              	.L81:
  76:..\..\..\arduinoLCD\test\Pain Drain\libraries\lvgl\src\draw\sw/lv_draw_sw_line.c ****         lv_draw_rect_dsc_t cir_dsc;
 1582              		.loc 1 76 0
 1583 0106 637A     		ldrb	r3, [r4, #9]
 1584 0108 0C22     		movs	r2, #12
 1585 010a 1A42     		tst	r2, r3
 1586 010c 56D0     		beq	.L83
 1587              	.LBB23:
  78:..\..\..\arduinoLCD\test\Pain Drain\libraries\lvgl\src\draw\sw/lv_draw_sw_line.c ****         cir_dsc.bg_color = dsc->color;
 1588              		.loc 1 78 0
 1589 010e 04A8     		add	r0, sp, #16
 1590 0110 FFF7FEFF 		bl	lv_draw_rect_dsc_init
 1591              	.LVL209:
  79:..\..\..\arduinoLCD\test\Pain Drain\libraries\lvgl\src\draw\sw/lv_draw_sw_line.c ****         cir_dsc.radius = LV_RADIUS_CIRCLE;
 1592              		.loc 1 79 0
 1593 0114 2388     		ldrh	r3, [r4]
 1594 0116 02AA     		add	r2, sp, #8
 1595 0118 9381     		strh	r3, [r2, #12]
  80:..\..\..\arduinoLCD\test\Pain Drain\libraries\lvgl\src\draw\sw/lv_draw_sw_line.c ****         cir_dsc.bg_opa = dsc->opa;
 1596              		.loc 1 80 0
 1597 011a 2C4B     		ldr	r3, .L87
 1598 011c 1381     		strh	r3, [r2, #8]
  81:..\..\..\arduinoLCD\test\Pain Drain\libraries\lvgl\src\draw\sw/lv_draw_sw_line.c **** 
 1599              		.loc 1 81 0
 1600 011e 237A     		ldrb	r3, [r4, #8]
 1601 0120 D372     		strb	r3, [r2, #11]
  83:..\..\..\arduinoLCD\test\Pain Drain\libraries\lvgl\src\draw\sw/lv_draw_sw_line.c ****         int32_t r_corr = (dsc->width & 1) ? 0 : 1;
 1602              		.loc 1 83 0
 1603 0122 0222     		movs	r2, #2
 1604 0124 A35E     		ldrsh	r3, [r4, r2]
 1605 0126 5A10     		asrs	r2, r3, #1
 1606 0128 9046     		mov	r8, r2
 1607              	.LVL210:
  84:..\..\..\arduinoLCD\test\Pain Drain\libraries\lvgl\src\draw\sw/lv_draw_sw_line.c ****         lv_area_t cir_area;
 1608              		.loc 1 84 0
 1609 012a 9BB2     		uxth	r3, r3
 1610 012c 0122     		movs	r2, #1
 1611 012e 5340     		eors	r3, r2
 1612 0130 0122     		movs	r2, #1
ARM GAS  C:\Users\haske\AppData\Local\Temp\ccpgnYma.s 			page 40


 1613 0132 1A40     		ands	r2, r3
 1614 0134 9246     		mov	r10, r2
 1615              	.LVL211:
  87:..\..\..\arduinoLCD\test\Pain Drain\libraries\lvgl\src\draw\sw/lv_draw_sw_line.c ****             cir_area.x1 = point1->x - r;
 1616              		.loc 1 87 0
 1617 0136 637A     		ldrb	r3, [r4, #9]
 1618 0138 5B07     		lsls	r3, r3, #29
 1619 013a 1ED5     		bpl	.L84
  88:..\..\..\arduinoLCD\test\Pain Drain\libraries\lvgl\src\draw\sw/lv_draw_sw_line.c ****             cir_area.y1 = point1->y - r;
 1620              		.loc 1 88 0
 1621 013c 0023     		movs	r3, #0
 1622 013e F15E     		ldrsh	r1, [r6, r3]
 1623 0140 4346     		mov	r3, r8
 1624 0142 6A46     		mov	r2, sp
 1625 0144 D380     		strh	r3, [r2, #6]
 1626 0146 D388     		ldrh	r3, [r2, #6]
 1627 0148 1A00     		movs	r2, r3
 1628 014a CB1A     		subs	r3, r1, r3
 1629 014c 02A8     		add	r0, sp, #8
 1630 014e 0380     		strh	r3, [r0]
  89:..\..\..\arduinoLCD\test\Pain Drain\libraries\lvgl\src\draw\sw/lv_draw_sw_line.c ****             cir_area.x2 = point1->x + r - r_corr;
 1631              		.loc 1 89 0
 1632 0150 0220     		movs	r0, #2
 1633 0152 335E     		ldrsh	r3, [r6, r0]
 1634 0154 981A     		subs	r0, r3, r2
 1635 0156 02AE     		add	r6, sp, #8
 1636              	.LVL212:
 1637 0158 7080     		strh	r0, [r6, #2]
  90:..\..\..\arduinoLCD\test\Pain Drain\libraries\lvgl\src\draw\sw/lv_draw_sw_line.c ****             cir_area.y2 = point1->y + r - r_corr ;
 1638              		.loc 1 90 0
 1639 015a 5046     		mov	r0, r10
 1640 015c 6E46     		mov	r6, sp
 1641 015e F080     		strh	r0, [r6, #6]
 1642 0160 F088     		ldrh	r0, [r6, #6]
 1643 0162 5118     		adds	r1, r2, r1
 1644 0164 091A     		subs	r1, r1, r0
 1645 0166 02AE     		add	r6, sp, #8
 1646 0168 B180     		strh	r1, [r6, #4]
  91:..\..\..\arduinoLCD\test\Pain Drain\libraries\lvgl\src\draw\sw/lv_draw_sw_line.c ****             lv_draw_rect(draw_ctx, &cir_dsc, &cir_area);
 1647              		.loc 1 91 0
 1648 016a D318     		adds	r3, r2, r3
 1649 016c 1B1A     		subs	r3, r3, r0
 1650 016e 3200     		movs	r2, r6
 1651 0170 F380     		strh	r3, [r6, #6]
  92:..\..\..\arduinoLCD\test\Pain Drain\libraries\lvgl\src\draw\sw/lv_draw_sw_line.c ****         }
 1652              		.loc 1 92 0
 1653 0172 04A9     		add	r1, sp, #16
 1654 0174 3800     		movs	r0, r7
 1655 0176 FFF7FEFF 		bl	lv_draw_rect
 1656              	.LVL213:
 1657              	.L84:
  95:..\..\..\arduinoLCD\test\Pain Drain\libraries\lvgl\src\draw\sw/lv_draw_sw_line.c ****             cir_area.x1 = point2->x - r;
 1658              		.loc 1 95 0
 1659 017a 637A     		ldrb	r3, [r4, #9]
 1660 017c 1B07     		lsls	r3, r3, #28
 1661 017e 1DD5     		bpl	.L83
  96:..\..\..\arduinoLCD\test\Pain Drain\libraries\lvgl\src\draw\sw/lv_draw_sw_line.c ****             cir_area.y1 = point2->y - r;
ARM GAS  C:\Users\haske\AppData\Local\Temp\ccpgnYma.s 			page 41


 1662              		.loc 1 96 0
 1663 0180 0023     		movs	r3, #0
 1664 0182 E95E     		ldrsh	r1, [r5, r3]
 1665 0184 4346     		mov	r3, r8
 1666 0186 6A46     		mov	r2, sp
 1667 0188 D380     		strh	r3, [r2, #6]
 1668 018a D088     		ldrh	r0, [r2, #6]
 1669 018c 0B1A     		subs	r3, r1, r0
 1670 018e 02AA     		add	r2, sp, #8
 1671 0190 1380     		strh	r3, [r2]
  97:..\..\..\arduinoLCD\test\Pain Drain\libraries\lvgl\src\draw\sw/lv_draw_sw_line.c ****             cir_area.x2 = point2->x + r - r_corr;
 1672              		.loc 1 97 0
 1673 0192 0223     		movs	r3, #2
 1674 0194 EA5E     		ldrsh	r2, [r5, r3]
 1675 0196 131A     		subs	r3, r2, r0
 1676 0198 02AC     		add	r4, sp, #8
 1677              	.LVL214:
 1678 019a 6380     		strh	r3, [r4, #2]
  98:..\..\..\arduinoLCD\test\Pain Drain\libraries\lvgl\src\draw\sw/lv_draw_sw_line.c ****             cir_area.y2 = point2->y + r - r_corr ;
 1679              		.loc 1 98 0
 1680 019c 5346     		mov	r3, r10
 1681 019e 6C46     		mov	r4, sp
 1682 01a0 E380     		strh	r3, [r4, #6]
 1683 01a2 E388     		ldrh	r3, [r4, #6]
 1684 01a4 4118     		adds	r1, r0, r1
 1685 01a6 C91A     		subs	r1, r1, r3
 1686 01a8 02AC     		add	r4, sp, #8
 1687 01aa A180     		strh	r1, [r4, #4]
  99:..\..\..\arduinoLCD\test\Pain Drain\libraries\lvgl\src\draw\sw/lv_draw_sw_line.c ****             lv_draw_rect(draw_ctx, &cir_dsc, &cir_area);
 1688              		.loc 1 99 0
 1689 01ac 8218     		adds	r2, r0, r2
 1690 01ae D31A     		subs	r3, r2, r3
 1691 01b0 2200     		movs	r2, r4
 1692 01b2 E380     		strh	r3, [r4, #6]
 100:..\..\..\arduinoLCD\test\Pain Drain\libraries\lvgl\src\draw\sw/lv_draw_sw_line.c ****         }
 1693              		.loc 1 100 0
 1694 01b4 04A9     		add	r1, sp, #16
 1695 01b6 3800     		movs	r0, r7
 1696 01b8 FFF7FEFF 		bl	lv_draw_rect
 1697              	.LVL215:
 1698              	.L83:
 1699              	.LBE23:
 104:..\..\..\arduinoLCD\test\Pain Drain\libraries\lvgl\src\draw\sw/lv_draw_sw_line.c **** }
 1700              		.loc 1 104 0 discriminator 1
 1701 01bc 4B46     		mov	r3, r9
 1702 01be BB60     		str	r3, [r7, #8]
 1703              	.LVL216:
 1704              	.L73:
 105:..\..\..\arduinoLCD\test\Pain Drain\libraries\lvgl\src\draw\sw/lv_draw_sw_line.c **** 
 1705              		.loc 1 105 0
 1706 01c0 14B0     		add	sp, sp, #80
 1707              		@ sp needed
 1708              	.LVL217:
 1709              	.LVL218:
 1710 01c2 1CBC     		pop	{r2, r3, r4}
 1711 01c4 9046     		mov	r8, r2
 1712 01c6 9946     		mov	r9, r3
ARM GAS  C:\Users\haske\AppData\Local\Temp\ccpgnYma.s 			page 42


 1713 01c8 A246     		mov	r10, r4
 1714 01ca F0BD     		pop	{r4, r5, r6, r7, pc}
 1715              	.L88:
 1716              		.align	2
 1717              	.L87:
 1718 01cc FF7F0000 		.word	32767
 1719              		.cfi_endproc
 1720              	.LFE159:
 1721              		.size	lv_draw_sw_line, .-lv_draw_sw_line
 1722              		.section	.rodata
 1723              		.align	2
 1724              		.set	.LANCHOR0,. + 0
 1725              		.type	wcorr.8997, %object
 1726              		.size	wcorr.8997, 33
 1727              	wcorr.8997:
 1728 0000 80       		.byte	-128
 1729 0001 80       		.byte	-128
 1730 0002 80       		.byte	-128
 1731 0003 81       		.byte	-127
 1732 0004 81       		.byte	-127
 1733 0005 82       		.byte	-126
 1734 0006 82       		.byte	-126
 1735 0007 83       		.byte	-125
 1736 0008 84       		.byte	-124
 1737 0009 85       		.byte	-123
 1738 000a 86       		.byte	-122
 1739 000b 87       		.byte	-121
 1740 000c 89       		.byte	-119
 1741 000d 8A       		.byte	-118
 1742 000e 8C       		.byte	-116
 1743 000f 8D       		.byte	-115
 1744 0010 8F       		.byte	-113
 1745 0011 91       		.byte	-111
 1746 0012 93       		.byte	-109
 1747 0013 95       		.byte	-107
 1748 0014 97       		.byte	-105
 1749 0015 99       		.byte	-103
 1750 0016 9B       		.byte	-101
 1751 0017 9E       		.byte	-98
 1752 0018 A0       		.byte	-96
 1753 0019 A2       		.byte	-94
 1754 001a A5       		.byte	-91
 1755 001b A7       		.byte	-89
 1756 001c AA       		.byte	-86
 1757 001d AD       		.byte	-83
 1758 001e AF       		.byte	-81
 1759 001f B2       		.byte	-78
 1760 0020 B5       		.byte	-75
 1761              		.text
 1762              	.Letext0:
 1763              		.file 3 "c:\\program files (x86)\\cypress\\psoc creator\\4.4\\psoc creator\\import\\gnu\\arm\\5.4.
 1764              		.file 4 "c:\\program files (x86)\\cypress\\psoc creator\\4.4\\psoc creator\\import\\gnu\\arm\\5.4.
 1765              		.file 5 "c:\\projects\\paindrain\\arduinolcd\\test\\pain drain\\libraries\\lvgl\\src\\misc\\lv_typ
 1766              		.file 6 "c:\\program files (x86)\\cypress\\psoc creator\\4.4\\psoc creator\\import\\gnu\\arm\\5.4.
 1767              		.file 7 "c:\\projects\\paindrain\\arduinolcd\\test\\pain drain\\libraries\\lvgl\\src\\misc\\lv_col
 1768              		.file 8 "c:\\projects\\paindrain\\arduinolcd\\test\\pain drain\\libraries\\lvgl\\src\\font\\lv_fon
 1769              		.file 9 "c:\\projects\\paindrain\\arduinolcd\\test\\pain drain\\libraries\\lvgl\\src\\misc\\lv_txt
ARM GAS  C:\Users\haske\AppData\Local\Temp\ccpgnYma.s 			page 43


 1770              		.file 10 "c:\\projects\\paindrain\\arduinolcd\\test\\pain drain\\libraries\\lvgl\\src\\misc\\lv_bi
 1771              		.file 11 "c:\\projects\\paindrain\\arduinolcd\\test\\pain drain\\libraries\\lvgl\\src\\misc\\lv_st
 1772              		.file 12 "..\\..\\..\\arduinoLCD\\test\\Pain Drain\\libraries\\lvgl\\src\\draw\\sw\\../lv_draw_mas
 1773              		.file 13 "..\\..\\..\\arduinoLCD\\test\\Pain Drain\\libraries\\lvgl\\src\\draw\\sw\\lv_draw_sw_ble
 1774              		.file 14 "..\\..\\..\\arduinoLCD\\test\\Pain Drain\\libraries\\lvgl\\src\\draw\\sw\\../lv_img_buf.
 1775              		.file 15 "..\\..\\..\\arduinoLCD\\test\\Pain Drain\\libraries\\lvgl\\src\\draw\\sw\\../lv_draw_rec
 1776              		.file 16 "..\\..\\..\\arduinoLCD\\test\\Pain Drain\\libraries\\lvgl\\src\\draw\\sw\\../lv_draw_lab
 1777              		.file 17 "..\\..\\..\\arduinoLCD\\test\\Pain Drain\\libraries\\lvgl\\src\\draw\\sw\\../lv_draw_img
 1778              		.file 18 "..\\..\\..\\arduinoLCD\\test\\Pain Drain\\libraries\\lvgl\\src\\draw\\sw\\../lv_draw_lin
 1779              		.file 19 "..\\..\\..\\arduinoLCD\\test\\Pain Drain\\libraries\\lvgl\\src\\draw\\sw\\../lv_draw_arc
 1780              		.file 20 "..\\..\\..\\arduinoLCD\\test\\Pain Drain\\libraries\\lvgl\\src\\draw\\sw\\../lv_draw_lay
 1781              		.file 21 "..\\..\\..\\arduinoLCD\\test\\Pain Drain\\libraries\\lvgl\\src\\draw\\sw\\../lv_draw.h"
 1782              		.file 22 "c:\\projects\\paindrain\\arduinolcd\\test\\pain drain\\libraries\\lvgl\\src\\misc\\lv_me
 1783              		.file 23 "c:\\projects\\paindrain\\arduinolcd\\test\\pain drain\\libraries\\lvgl\\src\\core\\lv_re
 1784              		.file 24 "c:\\projects\\paindrain\\arduinolcd\\test\\pain drain\\libraries\\lvgl\\src\\hal\\lv_hal